; ModuleID = '../../third_party/blink/renderer/modules/handwriting/handwriting_drawing.cc'
source_filename = "../../third_party/blink/renderer/modules/handwriting/handwriting_drawing.cc"
target datalayout = "e-m:e-i64:64-f80:128-n8:16:32:64-S128"
target triple = "x86_64-unknown-linux-gnu"

module asm ".symver exp, exp@GLIBC_2.2.5"
module asm ".symver exp2, exp2@GLIBC_2.2.5"
module asm ".symver exp2f, exp2f@GLIBC_2.2.5"
module asm ".symver expf, expf@GLIBC_2.2.5"
module asm ".symver lgamma, lgamma@GLIBC_2.2.5"
module asm ".symver lgammaf, lgammaf@GLIBC_2.2.5"
module asm ".symver lgammal, lgammal@GLIBC_2.2.5"
module asm ".symver log, log@GLIBC_2.2.5"
module asm ".symver log2, log2@GLIBC_2.2.5"
module asm ".symver log2f, log2f@GLIBC_2.2.5"
module asm ".symver logf, logf@GLIBC_2.2.5"
module asm ".symver pow, pow@GLIBC_2.2.5"
module asm ".symver powf, powf@GLIBC_2.2.5"

%"class.WTF::ThreadSpecific" = type { %"class.blink::ThreadState"**, %"class.base::ThreadLocalStorage::Slot" }
%"class.blink::ThreadState" = type <{ %"class.std::__1::unique_ptr.92", i32, [4 x i8], %"class.std::__1::unique_ptr.228", %"class.std::__1::unique_ptr.228", i8**, i8, i8, i8, i8, i8, i8, [2 x i8], i64, i64, i32, i32, i32, [4 x i8], %"class.WTF::Deque", %"class.v8::Isolate"*, void (%"class.v8::Isolate"*, %"class.v8::EmbedderGraph"*, i8*)*, %"class.std::__1::unique_ptr.238", %"class.std::__1::unique_ptr.244", %"struct.blink::ThreadState::GCData", %"class.std::__1::unique_ptr.256", %"class.std::__1::unique_ptr.262", %"class.base::JobHandle", %"class.base::JobHandle", %"struct.std::__1::atomic.269", [7 x i8], i64, i8, [7 x i8], i64, %"class.base::TimeTicks", i8, i8, [6 x i8] }>
%"class.std::__1::unique_ptr.92" = type { %"class.std::__1::__compressed_pair.93" }
%"class.std::__1::__compressed_pair.93" = type { %"struct.std::__1::__compressed_pair_elem.94" }
%"struct.std::__1::__compressed_pair_elem.94" = type { %"class.blink::ThreadHeap"* }
%"class.blink::ThreadHeap" = type { %"class.blink::ThreadState"*, %"class.std::__1::unique_ptr.95", %"class.std::__1::unique_ptr.101", %"class.std::__1::unique_ptr.107", %"class.std::__1::unique_ptr.113", %"class.std::__1::unique_ptr.119", %"class.std::__1::unique_ptr.125", %"class.std::__1::unique_ptr.136", %"class.std::__1::unique_ptr.143", %"class.std::__1::unique_ptr.143", %"class.std::__1::unique_ptr.150", %"class.std::__1::unique_ptr.157", %"class.std::__1::unique_ptr.164", %"class.std::__1::unique_ptr.164", %"class.std::__1::unique_ptr.171", %"class.std::__1::unique_ptr.178", %"class.std::__1::unique_ptr.185", %"class.std::__1::unique_ptr.208", %"struct.blink::ThreadHeap::LastAllocatedRegion", [9 x %"class.blink::BaseArena"*], i64, i64 }
%"class.std::__1::unique_ptr.95" = type { %"class.std::__1::__compressed_pair.96" }
%"class.std::__1::__compressed_pair.96" = type { %"struct.std::__1::__compressed_pair_elem.97" }
%"struct.std::__1::__compressed_pair_elem.97" = type { %"class.blink::ThreadHeapStatsCollector"* }
%"class.blink::ThreadHeapStatsCollector" = type opaque
%"class.std::__1::unique_ptr.101" = type { %"class.std::__1::__compressed_pair.102" }
%"class.std::__1::__compressed_pair.102" = type { %"struct.std::__1::__compressed_pair_elem.103" }
%"struct.std::__1::__compressed_pair_elem.103" = type { %"class.blink::RegionTree"* }
%"class.blink::RegionTree" = type opaque
%"class.std::__1::unique_ptr.107" = type { %"class.std::__1::__compressed_pair.108" }
%"class.std::__1::__compressed_pair.108" = type { %"struct.std::__1::__compressed_pair_elem.109" }
%"struct.std::__1::__compressed_pair_elem.109" = type { %"class.blink::PageBloomFilter"* }
%"class.blink::PageBloomFilter" = type opaque
%"class.std::__1::unique_ptr.113" = type { %"class.std::__1::__compressed_pair.114" }
%"class.std::__1::__compressed_pair.114" = type { %"struct.std::__1::__compressed_pair_elem.115" }
%"struct.std::__1::__compressed_pair_elem.115" = type { %"class.blink::PagePool"* }
%"class.blink::PagePool" = type opaque
%"class.std::__1::unique_ptr.119" = type { %"class.std::__1::__compressed_pair.120" }
%"class.std::__1::__compressed_pair.120" = type { %"struct.std::__1::__compressed_pair_elem.121" }
%"struct.std::__1::__compressed_pair_elem.121" = type { %"class.blink::ProcessHeapReporter"* }
%"class.blink::ProcessHeapReporter" = type opaque
%"class.std::__1::unique_ptr.125" = type { %"class.std::__1::__compressed_pair.126" }
%"class.std::__1::__compressed_pair.126" = type { %"struct.std::__1::__compressed_pair_elem.127" }
%"struct.std::__1::__compressed_pair_elem.127" = type { %"class.blink::Worklist"* }
%"class.blink::Worklist" = type { [4 x %"struct.blink::Worklist<blink::TraceDescriptor, 512, 4>::PrivateSegmentHolder"], %"class.blink::Worklist<blink::TraceDescriptor, 512, 4>::GlobalPool" }
%"struct.blink::Worklist<blink::TraceDescriptor, 512, 4>::PrivateSegmentHolder" = type { %"class.blink::Worklist<blink::TraceDescriptor, 512, 4>::Segment"*, %"class.blink::Worklist<blink::TraceDescriptor, 512, 4>::Segment"*, [64 x i8] }
%"class.blink::Worklist<blink::TraceDescriptor, 512, 4>::Segment" = type { %"class.blink::Worklist<blink::TraceDescriptor, 512, 4>::Segment"*, i64, [512 x %"struct.blink::TraceDescriptor"] }
%"struct.blink::TraceDescriptor" = type { i8*, void (%"class.blink::Visitor"*, i8*)* }
%"class.blink::Visitor" = type { i32 (...)**, %"class.blink::ThreadState"* }
%"class.blink::Worklist<blink::TraceDescriptor, 512, 4>::GlobalPool" = type { %"class.base::Lock", %"class.blink::Worklist<blink::TraceDescriptor, 512, 4>::Segment"*, %"struct.std::__1::atomic.128" }
%"class.base::Lock" = type { %"class.base::internal::LockImpl" }
%"class.base::internal::LockImpl" = type { %union.pthread_mutex_t }
%union.pthread_mutex_t = type { %struct.__pthread_mutex_s }
%struct.__pthread_mutex_s = type { i32, i32, i32, i32, i32, i16, i16, %struct.__pthread_internal_list }
%struct.__pthread_internal_list = type { %struct.__pthread_internal_list*, %struct.__pthread_internal_list* }
%"struct.std::__1::atomic.128" = type { %"struct.std::__1::__atomic_base.129" }
%"struct.std::__1::__atomic_base.129" = type { %"struct.std::__1::__atomic_base.130" }
%"struct.std::__1::__atomic_base.130" = type { %"struct.std::__1::__cxx_atomic_impl.131" }
%"struct.std::__1::__cxx_atomic_impl.131" = type { %"struct.std::__1::__cxx_atomic_base_impl.132" }
%"struct.std::__1::__cxx_atomic_base_impl.132" = type { i64 }
%"class.std::__1::unique_ptr.136" = type { %"class.std::__1::__compressed_pair.137" }
%"class.std::__1::__compressed_pair.137" = type { %"struct.std::__1::__compressed_pair_elem.138" }
%"struct.std::__1::__compressed_pair_elem.138" = type { %"class.blink::Worklist.139"* }
%"class.blink::Worklist.139" = type { [4 x %"struct.blink::Worklist<blink::HeapObjectHeader *, 64, 4>::PrivateSegmentHolder"], %"class.blink::Worklist<blink::HeapObjectHeader *, 64, 4>::GlobalPool" }
%"struct.blink::Worklist<blink::HeapObjectHeader *, 64, 4>::PrivateSegmentHolder" = type { %"class.blink::Worklist<blink::HeapObjectHeader *, 64, 4>::Segment"*, %"class.blink::Worklist<blink::HeapObjectHeader *, 64, 4>::Segment"*, [64 x i8] }
%"class.blink::Worklist<blink::HeapObjectHeader *, 64, 4>::Segment" = type opaque
%"class.blink::Worklist<blink::HeapObjectHeader *, 64, 4>::GlobalPool" = type { %"class.base::Lock", %"class.blink::Worklist<blink::HeapObjectHeader *, 64, 4>::Segment"*, %"struct.std::__1::atomic.128" }
%"class.std::__1::unique_ptr.143" = type { %"class.std::__1::__compressed_pair.144" }
%"class.std::__1::__compressed_pair.144" = type { %"struct.std::__1::__compressed_pair_elem.145" }
%"struct.std::__1::__compressed_pair_elem.145" = type { %"class.blink::Worklist.146"* }
%"class.blink::Worklist.146" = type { [4 x %"struct.blink::Worklist<const void *, 16, 4>::PrivateSegmentHolder"], %"class.blink::Worklist<const void *, 16, 4>::GlobalPool" }
%"struct.blink::Worklist<const void *, 16, 4>::PrivateSegmentHolder" = type { %"class.blink::Worklist<const void *, 16, 4>::Segment"*, %"class.blink::Worklist<const void *, 16, 4>::Segment"*, [64 x i8] }
%"class.blink::Worklist<const void *, 16, 4>::Segment" = type { %"class.blink::Worklist<const void *, 16, 4>::Segment"*, i64, [16 x i8*] }
%"class.blink::Worklist<const void *, 16, 4>::GlobalPool" = type { %"class.base::Lock", %"class.blink::Worklist<const void *, 16, 4>::Segment"*, %"struct.std::__1::atomic.128" }
%"class.std::__1::unique_ptr.150" = type { %"class.std::__1::__compressed_pair.151" }
%"class.std::__1::__compressed_pair.151" = type { %"struct.std::__1::__compressed_pair_elem.152" }
%"struct.std::__1::__compressed_pair_elem.152" = type { %"class.blink::Worklist.153"* }
%"class.blink::Worklist.153" = type { [4 x %"struct.blink::Worklist<blink::CustomCallbackItem, 64, 4>::PrivateSegmentHolder"], %"class.blink::Worklist<blink::CustomCallbackItem, 64, 4>::GlobalPool" }
%"struct.blink::Worklist<blink::CustomCallbackItem, 64, 4>::PrivateSegmentHolder" = type { %"class.blink::Worklist<blink::CustomCallbackItem, 64, 4>::Segment"*, %"class.blink::Worklist<blink::CustomCallbackItem, 64, 4>::Segment"*, [64 x i8] }
%"class.blink::Worklist<blink::CustomCallbackItem, 64, 4>::Segment" = type opaque
%"class.blink::Worklist<blink::CustomCallbackItem, 64, 4>::GlobalPool" = type { %"class.base::Lock", %"class.blink::Worklist<blink::CustomCallbackItem, 64, 4>::Segment"*, %"struct.std::__1::atomic.128" }
%"class.std::__1::unique_ptr.157" = type { %"class.std::__1::__compressed_pair.158" }
%"class.std::__1::__compressed_pair.158" = type { %"struct.std::__1::__compressed_pair_elem.159" }
%"struct.std::__1::__compressed_pair_elem.159" = type { %"class.blink::Worklist.160"* }
%"class.blink::Worklist.160" = type { [4 x %"struct.blink::Worklist<const void *const *, 256, 4>::PrivateSegmentHolder"], %"class.blink::Worklist<const void *const *, 256, 4>::GlobalPool" }
%"struct.blink::Worklist<const void *const *, 256, 4>::PrivateSegmentHolder" = type { %"class.blink::Worklist<const void *const *, 256, 4>::Segment"*, %"class.blink::Worklist<const void *const *, 256, 4>::Segment"*, [64 x i8] }
%"class.blink::Worklist<const void *const *, 256, 4>::Segment" = type opaque
%"class.blink::Worklist<const void *const *, 256, 4>::GlobalPool" = type { %"class.base::Lock", %"class.blink::Worklist<const void *const *, 256, 4>::Segment"*, %"struct.std::__1::atomic.128" }
%"class.std::__1::unique_ptr.164" = type { %"class.std::__1::__compressed_pair.165" }
%"class.std::__1::__compressed_pair.165" = type { %"struct.std::__1::__compressed_pair_elem.166" }
%"struct.std::__1::__compressed_pair_elem.166" = type { %"class.blink::Worklist.167"* }
%"class.blink::Worklist.167" = type { [4 x %"struct.blink::Worklist<blink::EphemeronPairItem, 64, 4>::PrivateSegmentHolder"], %"class.blink::Worklist<blink::EphemeronPairItem, 64, 4>::GlobalPool" }
%"struct.blink::Worklist<blink::EphemeronPairItem, 64, 4>::PrivateSegmentHolder" = type { %"class.blink::Worklist<blink::EphemeronPairItem, 64, 4>::Segment"*, %"class.blink::Worklist<blink::EphemeronPairItem, 64, 4>::Segment"*, [64 x i8] }
%"class.blink::Worklist<blink::EphemeronPairItem, 64, 4>::Segment" = type opaque
%"class.blink::Worklist<blink::EphemeronPairItem, 64, 4>::GlobalPool" = type { %"class.base::Lock", %"class.blink::Worklist<blink::EphemeronPairItem, 64, 4>::Segment"*, %"struct.std::__1::atomic.128" }
%"class.std::__1::unique_ptr.171" = type { %"class.std::__1::__compressed_pair.172" }
%"class.std::__1::__compressed_pair.172" = type { %"struct.std::__1::__compressed_pair_elem.173" }
%"struct.std::__1::__compressed_pair_elem.173" = type { %"class.blink::Worklist.174"* }
%"class.blink::Worklist.174" = type { [4 x %"struct.blink::Worklist<const blink::TraceWrapperV8Reference<v8::Value> *, 16, 4>::PrivateSegmentHolder"], %"class.blink::Worklist<const blink::TraceWrapperV8Reference<v8::Value> *, 16, 4>::GlobalPool" }
%"struct.blink::Worklist<const blink::TraceWrapperV8Reference<v8::Value> *, 16, 4>::PrivateSegmentHolder" = type { %"class.blink::Worklist<const blink::TraceWrapperV8Reference<v8::Value> *, 16, 4>::Segment"*, %"class.blink::Worklist<const blink::TraceWrapperV8Reference<v8::Value> *, 16, 4>::Segment"*, [64 x i8] }
%"class.blink::Worklist<const blink::TraceWrapperV8Reference<v8::Value> *, 16, 4>::Segment" = type opaque
%"class.blink::Worklist<const blink::TraceWrapperV8Reference<v8::Value> *, 16, 4>::GlobalPool" = type { %"class.base::Lock", %"class.blink::Worklist<const blink::TraceWrapperV8Reference<v8::Value> *, 16, 4>::Segment"*, %"struct.std::__1::atomic.128" }
%"class.std::__1::unique_ptr.178" = type { %"class.std::__1::__compressed_pair.179" }
%"class.std::__1::__compressed_pair.179" = type { %"struct.std::__1::__compressed_pair_elem.180" }
%"struct.std::__1::__compressed_pair_elem.180" = type { %"class.blink::Worklist.181"* }
%"class.blink::Worklist.181" = type { [4 x %"struct.blink::Worklist<blink::NotSafeToConcurrentlyTraceItem, 64, 4>::PrivateSegmentHolder"], %"class.blink::Worklist<blink::NotSafeToConcurrentlyTraceItem, 64, 4>::GlobalPool" }
%"struct.blink::Worklist<blink::NotSafeToConcurrentlyTraceItem, 64, 4>::PrivateSegmentHolder" = type { %"class.blink::Worklist<blink::NotSafeToConcurrentlyTraceItem, 64, 4>::Segment"*, %"class.blink::Worklist<blink::NotSafeToConcurrentlyTraceItem, 64, 4>::Segment"*, [64 x i8] }
%"class.blink::Worklist<blink::NotSafeToConcurrentlyTraceItem, 64, 4>::Segment" = type { %"class.blink::Worklist<blink::NotSafeToConcurrentlyTraceItem, 64, 4>::Segment"*, i64, [64 x %"struct.blink::NotSafeToConcurrentlyTraceItem"] }
%"struct.blink::NotSafeToConcurrentlyTraceItem" = type { %"struct.blink::TraceDescriptor", i64 }
%"class.blink::Worklist<blink::NotSafeToConcurrentlyTraceItem, 64, 4>::GlobalPool" = type { %"class.base::Lock", %"class.blink::Worklist<blink::NotSafeToConcurrentlyTraceItem, 64, 4>::Segment"*, %"struct.std::__1::atomic.128" }
%"class.std::__1::unique_ptr.185" = type { %"class.std::__1::__compressed_pair.186" }
%"class.std::__1::__compressed_pair.186" = type { %"struct.std::__1::__compressed_pair_elem.187" }
%"struct.std::__1::__compressed_pair_elem.187" = type { %"class.blink::WeakContainersWorklist"* }
%"class.blink::WeakContainersWorklist" = type { %"class.WTF::Mutex", %"class.std::__1::unordered_set" }
%"class.WTF::Mutex" = type { %"class.WTF::MutexBase" }
%"class.WTF::MutexBase" = type { %"struct.WTF::PlatformMutex" }
%"struct.WTF::PlatformMutex" = type { %union.pthread_mutex_t }
%"class.std::__1::unordered_set" = type { %"class.std::__1::__hash_table" }
%"class.std::__1::__hash_table" = type <{ %"class.std::__1::unique_ptr.188", %"class.std::__1::__compressed_pair.195", %"class.std::__1::__compressed_pair.200", %"class.std::__1::__compressed_pair.202", [4 x i8] }>
%"class.std::__1::unique_ptr.188" = type { %"class.std::__1::__compressed_pair.189" }
%"class.std::__1::__compressed_pair.189" = type { %"struct.std::__1::__compressed_pair_elem.190", %"struct.std::__1::__compressed_pair_elem.191" }
%"struct.std::__1::__compressed_pair_elem.190" = type { %"struct.std::__1::__hash_node_base"** }
%"struct.std::__1::__hash_node_base" = type { %"struct.std::__1::__hash_node_base"* }
%"struct.std::__1::__compressed_pair_elem.191" = type { %"class.std::__1::__bucket_list_deallocator" }
%"class.std::__1::__bucket_list_deallocator" = type { %"class.std::__1::__compressed_pair.192" }
%"class.std::__1::__compressed_pair.192" = type { %"struct.std::__1::__compressed_pair_elem.193" }
%"struct.std::__1::__compressed_pair_elem.193" = type { i64 }
%"class.std::__1::__compressed_pair.195" = type { %"struct.std::__1::__compressed_pair_elem.196" }
%"struct.std::__1::__compressed_pair_elem.196" = type { %"struct.std::__1::__hash_node_base" }
%"class.std::__1::__compressed_pair.200" = type { %"struct.std::__1::__compressed_pair_elem.193" }
%"class.std::__1::__compressed_pair.202" = type { %"struct.std::__1::__compressed_pair_elem.203" }
%"struct.std::__1::__compressed_pair_elem.203" = type { float }
%"class.std::__1::unique_ptr.208" = type { %"class.std::__1::__compressed_pair.209" }
%"class.std::__1::__compressed_pair.209" = type { %"struct.std::__1::__compressed_pair_elem.210" }
%"struct.std::__1::__compressed_pair_elem.210" = type { %"class.blink::HeapCompact"* }
%"class.blink::HeapCompact" = type <{ %"class.blink::ThreadHeap"*, %"class.std::__1::unique_ptr.211", i8, [7 x i8], i64, i64, i32, [4 x i8], i64, i8, [7 x i8] }>
%"class.std::__1::unique_ptr.211" = type { %"class.std::__1::__compressed_pair.212" }
%"class.std::__1::__compressed_pair.212" = type { %"struct.std::__1::__compressed_pair_elem.213" }
%"struct.std::__1::__compressed_pair_elem.213" = type { %"class.blink::HeapCompact::MovableObjectFixups"* }
%"class.blink::HeapCompact::MovableObjectFixups" = type opaque
%"struct.blink::ThreadHeap::LastAllocatedRegion" = type { i8*, i64 }
%"class.blink::BaseArena" = type <{ i32 (...)**, %"class.blink::PageStackThreadSafe", %"class.blink::PageStackThreadSafe", %"class.blink::PageStackThreadSafe", %"class.blink::PageStackThreadSafe", %"class.blink::ThreadState"*, i32, [4 x i8] }>
%"class.blink::PageStackThreadSafe" = type { %"class.blink::PageStack", %"class.WTF::Mutex" }
%"class.blink::PageStack" = type { %"class.WTF::Vector.220" }
%"class.WTF::Vector.220" = type { %"class.WTF::VectorBuffer.221" }
%"class.WTF::VectorBuffer.221" = type { %"class.WTF::VectorBufferBase.222" }
%"class.WTF::VectorBufferBase.222" = type { %"class.blink::BasePage"**, i32, i32 }
%"class.blink::BasePage" = type <{ i32 (...)**, %"class.blink::PageMemory"*, %"class.blink::BaseArena"*, %"class.blink::ThreadState"*, i64, i8, i8, i8, [5 x i8] }>
%"class.blink::PageMemory" = type opaque
%"class.std::__1::unique_ptr.228" = type { %"class.std::__1::__compressed_pair.229" }
%"class.std::__1::__compressed_pair.229" = type { %"struct.std::__1::__compressed_pair_elem.230" }
%"struct.std::__1::__compressed_pair_elem.230" = type { %"class.blink::PersistentRegion"* }
%"class.blink::PersistentRegion" = type { %"class.blink::PersistentRegionBase" }
%"class.blink::PersistentRegionBase" = type { %"class.blink::PersistentNode"*, %"struct.blink::PersistentNodeSlots"* }
%"class.blink::PersistentNode" = type { i8*, void (%"class.blink::Visitor"*, i8*)* }
%"struct.blink::PersistentNodeSlots" = type { %"struct.blink::PersistentNodeSlots"*, [256 x %"class.blink::PersistentNode"] }
%"class.WTF::Deque" = type { %"class.WTF::Deque<std::__1::pair<void *, bool (*)(const blink::LivenessBroker &, void *)>, 0, WTF::PartitionAllocator>::BackingBuffer", i32, i32 }
%"class.WTF::Deque<std::__1::pair<void *, bool (*)(const blink::LivenessBroker &, void *)>, 0, WTF::PartitionAllocator>::BackingBuffer" = type { %"class.WTF::VectorBuffer.236" }
%"class.WTF::VectorBuffer.236" = type { %"class.WTF::VectorBufferBase.237" }
%"class.WTF::VectorBufferBase.237" = type { %"struct.std::__1::pair"*, i32, i32 }
%"struct.std::__1::pair" = type { i8*, i1 (%"class.blink::LivenessBroker"*, i8*)* }
%"class.blink::LivenessBroker" = type { i8 }
%"class.v8::Isolate" = type { i8 }
%"class.v8::EmbedderGraph" = type opaque
%"class.std::__1::unique_ptr.238" = type { %"class.std::__1::__compressed_pair.239" }
%"class.std::__1::__compressed_pair.239" = type { %"struct.std::__1::__compressed_pair_elem.240" }
%"struct.std::__1::__compressed_pair_elem.240" = type { %"class.blink::UnifiedHeapController"* }
%"class.blink::UnifiedHeapController" = type opaque
%"class.std::__1::unique_ptr.244" = type { %"class.std::__1::__compressed_pair.245" }
%"class.std::__1::__compressed_pair.245" = type { %"struct.std::__1::__compressed_pair_elem.246" }
%"struct.std::__1::__compressed_pair_elem.246" = type { %"class.v8::EmbedderRootsHandler"* }
%"class.v8::EmbedderRootsHandler" = type { i32 (...)** }
%"struct.blink::ThreadState::GCData" = type { i32, i32, i32, i32, %"class.std::__1::unique_ptr.250" }
%"class.std::__1::unique_ptr.250" = type { %"class.std::__1::__compressed_pair.251" }
%"class.std::__1::__compressed_pair.251" = type { %"struct.std::__1::__compressed_pair_elem.252" }
%"struct.std::__1::__compressed_pair_elem.252" = type { %"class.blink::MarkingVisitor"* }
%"class.blink::MarkingVisitor" = type { %"class.blink::MarkingVisitorBase", %"class.blink::MarkingVisitor::RecentlyRetracedWeakContainers" }
%"class.blink::MarkingVisitorBase" = type { %"class.blink::Visitor", %"class.blink::Worklist<blink::TraceDescriptor, 512, 4>::View", %"class.blink::Worklist<blink::HeapObjectHeader *, 64, 4>::View", %"class.blink::Worklist<const void *, 16, 4>::View", %"class.blink::Worklist<blink::CustomCallbackItem, 64, 4>::View", %"class.blink::Worklist<const void *const *, 256, 4>::View", %"class.blink::Worklist<blink::EphemeronPairItem, 64, 4>::View", %"class.blink::Worklist<blink::EphemeronPairItem, 64, 4>::View", %"class.blink::WeakContainersWorklist"*, i64, i32, i32 }
%"class.blink::Worklist<blink::TraceDescriptor, 512, 4>::View" = type <{ %"class.blink::Worklist"*, i32, [4 x i8] }>
%"class.blink::Worklist<blink::HeapObjectHeader *, 64, 4>::View" = type <{ %"class.blink::Worklist.139"*, i32, [4 x i8] }>
%"class.blink::Worklist<const void *, 16, 4>::View" = type <{ %"class.blink::Worklist.146"*, i32, [4 x i8] }>
%"class.blink::Worklist<blink::CustomCallbackItem, 64, 4>::View" = type <{ %"class.blink::Worklist.153"*, i32, [4 x i8] }>
%"class.blink::Worklist<const void *const *, 256, 4>::View" = type <{ %"class.blink::Worklist.160"*, i32, [4 x i8] }>
%"class.blink::Worklist<blink::EphemeronPairItem, 64, 4>::View" = type <{ %"class.blink::Worklist.167"*, i32, [4 x i8] }>
%"class.blink::MarkingVisitor::RecentlyRetracedWeakContainers" = type { %"class.std::__1::vector", i64 }
%"class.std::__1::vector" = type { %"class.std::__1::__vector_base" }
%"class.std::__1::__vector_base" = type { %"class.blink::HeapObjectHeader"**, %"class.blink::HeapObjectHeader"**, %"class.std::__1::__compressed_pair.277" }
%"class.blink::HeapObjectHeader" = type { i32, i16, i16 }
%"class.std::__1::__compressed_pair.277" = type { %"struct.std::__1::__compressed_pair_elem.278" }
%"struct.std::__1::__compressed_pair_elem.278" = type { %"class.blink::HeapObjectHeader"** }
%"class.std::__1::unique_ptr.256" = type { %"class.std::__1::__compressed_pair.257" }
%"class.std::__1::__compressed_pair.257" = type { %"struct.std::__1::__compressed_pair_elem.258" }
%"struct.std::__1::__compressed_pair_elem.258" = type { %"class.blink::ThreadState::IncrementalMarkingScheduler"* }
%"class.blink::ThreadState::IncrementalMarkingScheduler" = type opaque
%"class.std::__1::unique_ptr.262" = type { %"class.std::__1::__compressed_pair.263" }
%"class.std::__1::__compressed_pair.263" = type { %"struct.std::__1::__compressed_pair_elem.264" }
%"struct.std::__1::__compressed_pair_elem.264" = type { %"class.blink::MarkingSchedulingOracle"* }
%"class.blink::MarkingSchedulingOracle" = type opaque
%"class.base::JobHandle" = type { %class.scoped_refptr.268 }
%class.scoped_refptr.268 = type { %"class.base::internal::JobTaskSource"* }
%"class.base::internal::JobTaskSource" = type opaque
%"struct.std::__1::atomic.269" = type { %"struct.std::__1::__atomic_base.270" }
%"struct.std::__1::__atomic_base.270" = type { %"struct.std::__1::__cxx_atomic_impl.271" }
%"struct.std::__1::__cxx_atomic_impl.271" = type { %"struct.std::__1::__cxx_atomic_base_impl.272" }
%"struct.std::__1::__cxx_atomic_base_impl.272" = type { i8 }
%"class.base::TimeTicks" = type { %"class.base::time_internal::TimeBase" }
%"class.base::time_internal::TimeBase" = type { i64 }
%"class.base::ThreadLocalStorage::Slot" = type { i32, i32 }
%"struct.blink::GCInfo" = type { void (%"class.blink::Visitor"*, i8*)*, void (i8*)*, { i8*, i8 } (i8*)*, i8 }
%"class.blink::GCInfoTable" = type { %"struct.blink::GCInfo"**, i32, i32, %"class.WTF::Mutex" }
%"class.blink::AtomicEntryFlag" = type { %"struct.std::__1::atomic.320" }
%"struct.std::__1::atomic.320" = type { %"struct.std::__1::__atomic_base.321" }
%"struct.std::__1::__atomic_base.321" = type { %"struct.std::__1::__atomic_base.322" }
%"struct.std::__1::__atomic_base.322" = type { %"struct.std::__1::__cxx_atomic_impl.323" }
%"struct.std::__1::__cxx_atomic_impl.323" = type { %"struct.std::__1::__cxx_atomic_base_impl.324" }
%"struct.std::__1::__cxx_atomic_base_impl.324" = type { i32 }
%"struct.blink::WrapperTypeInfo" = type { i16, void (%"class.v8::Isolate"*, %"class.blink::DOMWrapperWorld"*, %"class.v8::Template"*)*, void (%"class.v8::Context"*, %"class.blink::DOMWrapperWorld"*, %"class.v8::Object"*, %"class.v8::Object"*, %"class.v8::Object"*, %"class.v8::Template"*, i64)*, i8*, %"struct.blink::WrapperTypeInfo"*, i8 }
%"class.blink::DOMWrapperWorld" = type { %"class.WTF::RefCounted", i32, i32, %"class.blink::Persistent" }
%"class.WTF::RefCounted" = type { %"class.base::RefCounted" }
%"class.base::RefCounted" = type { %"class.base::subtle::RefCountedBase" }
%"class.base::subtle::RefCountedBase" = type { i32 }
%"class.blink::Persistent" = type { %"class.blink::PersistentBase" }
%"class.blink::PersistentBase" = type { %"class.blink::DOMDataStore"*, %"class.blink::PersistentNodePtr" }
%"class.blink::DOMDataStore" = type { i32 (...)**, i8, [7 x i8], %"class.blink::HeapHashMap.83" }
%"class.blink::HeapHashMap.83" = type { %"class.WTF::HashMap.86" }
%"class.WTF::HashMap.86" = type { %"class.WTF::HashTable.87" }
%"class.WTF::HashTable.87" = type <{ %"struct.WTF::KeyValuePair.89"*, i32, i32, i32, [4 x i8] }>
%"struct.WTF::KeyValuePair.89" = type { %"class.blink::WeakMember.90", %"class.blink::TraceWrapperV8Reference" }
%"class.blink::WeakMember.90" = type { %"class.blink::MemberBase.91" }
%"class.blink::MemberBase.91" = type { %"class.blink::ScriptWrappable"* }
%"class.blink::ScriptWrappable" = type { %"class.blink::NameClient", %"class.blink::TraceWrapperV8Reference" }
%"class.blink::NameClient" = type { i32 (...)** }
%"class.blink::TraceWrapperV8Reference" = type { %"class.v8::TracedReference" }
%"class.v8::TracedReference" = type { %"class.v8::BasicTracedReference" }
%"class.v8::BasicTracedReference" = type { %"class.v8::TracedReferenceBase" }
%"class.v8::TracedReferenceBase" = type { i64* }
%"class.blink::PersistentNodePtr" = type { %"class.blink::PersistentNode"* }
%"class.v8::Template" = type { i8 }
%"class.v8::Context" = type { i8 }
%"class.v8::Object" = type { i8 }
%"class.blink::HandwritingDrawing" = type { %"class.blink::ScriptWrappable", %"class.blink::Member", %"class.blink::HeapVector", %"class.blink::WeakMember" }
%"class.blink::Member" = type { %"class.blink::MemberBase" }
%"class.blink::MemberBase" = type { %"class.blink::HandwritingHints"* }
%"class.blink::HeapVector" = type { %"class.WTF::Vector" }
%"class.WTF::Vector" = type { %"class.WTF::VectorBuffer" }
%"class.WTF::VectorBuffer" = type { %"class.WTF::VectorBufferBase" }
%"class.WTF::VectorBufferBase" = type { %"class.blink::Member.5"*, i32, i32 }
%"class.blink::Member.5" = type { %"class.blink::MemberBase.6" }
%"class.blink::MemberBase.6" = type { %"class.blink::HandwritingStroke"* }
%"class.blink::HandwritingStroke" = type { %"class.blink::ScriptWrappable", %"class.blink::HeapVector.7" }
%"class.blink::HeapVector.7" = type { %"class.WTF::Vector.10" }
%"class.WTF::Vector.10" = type { %"class.WTF::VectorBuffer.11" }
%"class.WTF::VectorBuffer.11" = type { %"class.WTF::VectorBufferBase.12" }
%"class.WTF::VectorBufferBase.12" = type { %"class.blink::Member.13"*, i32, i32 }
%"class.blink::Member.13" = type opaque
%"class.blink::WeakMember" = type { %"class.blink::MemberBase.15" }
%"class.blink::MemberBase.15" = type { %"class.blink::HandwritingRecognizer"* }
%"class.blink::ExecutionContext" = type <{ %"class.blink::Supplementable", %"class.blink::MojoBindingContext", %"class.blink::ConsoleLogger", %"class.blink::UseCounter", %"class.blink::FeatureContext", %"class.v8::Isolate"*, %"class.blink::SecurityContext", %"class.blink::Member.47", i32, i8, [3 x i8], %"class.blink::HeapVector.49", i32, i8, i8, i8, i8, i8, i8, [6 x i8], %"class.blink::Member.57", %"class.blink::Member.59", %"class.blink::DOMTimerCoordinator", i32, [4 x i8], %"class.std::__1::unique_ptr.68", %"class.blink::Member.74", %"class.blink::Member.76", i8, [7 x i8] }>
%"class.blink::Supplementable" = type { %"class.blink::GarbageCollectedMixin", %"class.blink::HeapHashMap" }
%"class.blink::GarbageCollectedMixin" = type { i32 (...)** }
%"class.blink::HeapHashMap" = type { %"class.WTF::HashMap" }
%"class.WTF::HashMap" = type { %"class.WTF::HashTable" }
%"class.WTF::HashTable" = type <{ %"struct.WTF::KeyValuePair"*, i32, i32, i32, [4 x i8] }>
%"struct.WTF::KeyValuePair" = type opaque
%"class.blink::MojoBindingContext" = type { %"class.blink::ContextLifecycleNotifier", %"class.blink::Supplementable.26" }
%"class.blink::ContextLifecycleNotifier" = type { %"class.blink::GarbageCollectedMixin", %"class.blink::HeapObserverSet" }
%"class.blink::HeapObserverSet" = type { i32, [4 x i8], %"class.blink::HeapHashSet" }
%"class.blink::HeapHashSet" = type { %"class.WTF::HashSet" }
%"class.WTF::HashSet" = type { %"class.WTF::HashTable.23" }
%"class.WTF::HashTable.23" = type <{ %"class.blink::WeakMember.25"*, i32, i32, i32, [4 x i8] }>
%"class.blink::WeakMember.25" = type opaque
%"class.blink::Supplementable.26" = type { %"class.blink::GarbageCollectedMixin", %"class.blink::HeapHashMap.27" }
%"class.blink::HeapHashMap.27" = type { %"class.WTF::HashMap.30" }
%"class.WTF::HashMap.30" = type { %"class.WTF::HashTable.31" }
%"class.WTF::HashTable.31" = type <{ %"struct.WTF::KeyValuePair.33"*, i32, i32, i32, [4 x i8] }>
%"struct.WTF::KeyValuePair.33" = type { i8*, %"class.blink::Member.362" }
%"class.blink::Member.362" = type { %"class.blink::MemberBase.363" }
%"class.blink::MemberBase.363" = type { %"class.blink::Supplement"* }
%"class.blink::Supplement" = type { %"class.blink::GarbageCollectedMixin", %"class.blink::Member.364" }
%"class.blink::Member.364" = type { %"class.blink::MemberBase.365" }
%"class.blink::MemberBase.365" = type { %"class.blink::MojoBindingContext"* }
%"class.blink::ConsoleLogger" = type { %"class.blink::GarbageCollectedMixin" }
%"class.blink::UseCounter" = type { %"class.blink::GarbageCollectedMixin" }
%"class.blink::FeatureContext" = type { i32 (...)** }
%"class.blink::SecurityContext" = type { i32 (...)**, i32, %class.scoped_refptr.34, %"class.std::__1::unique_ptr", %"class.std::__1::unique_ptr", %"class.std::__1::unique_ptr.36", %"class.std::__1::unique_ptr.36", %"class.blink::Member.42", i32, [4 x i8], %"class.WTF::HashSet.44", i32, i32 }
%class.scoped_refptr.34 = type { %"class.blink::SecurityOrigin"* }
%"class.blink::SecurityOrigin" = type opaque
%"class.std::__1::unique_ptr" = type { %"class.std::__1::__compressed_pair" }
%"class.std::__1::__compressed_pair" = type { %"struct.std::__1::__compressed_pair_elem" }
%"struct.std::__1::__compressed_pair_elem" = type { %"class.blink::PermissionsPolicy"* }
%"class.blink::PermissionsPolicy" = type opaque
%"class.std::__1::unique_ptr.36" = type { %"class.std::__1::__compressed_pair.37" }
%"class.std::__1::__compressed_pair.37" = type { %"struct.std::__1::__compressed_pair_elem.38" }
%"struct.std::__1::__compressed_pair_elem.38" = type { %"class.blink::DocumentPolicy"* }
%"class.blink::DocumentPolicy" = type opaque
%"class.blink::Member.42" = type { %"class.blink::MemberBase.43" }
%"class.blink::MemberBase.43" = type { %"class.blink::ExecutionContext"* }
%"class.WTF::HashSet.44" = type { %"class.WTF::HashTable.45" }
%"class.WTF::HashTable.45" = type <{ i32*, i32, i32, i32, [4 x i8] }>
%"class.blink::Member.47" = type { %"class.blink::MemberBase.48" }
%"class.blink::MemberBase.48" = type { %"class.blink::Agent"* }
%"class.blink::Agent" = type opaque
%"class.blink::HeapVector.49" = type { %"class.WTF::Vector.52" }
%"class.WTF::Vector.52" = type { %"class.WTF::VectorBuffer.53" }
%"class.WTF::VectorBuffer.53" = type { %"class.WTF::VectorBufferBase.54" }
%"class.WTF::VectorBufferBase.54" = type { %"class.blink::Member.55"*, i32, i32 }
%"class.blink::Member.55" = type opaque
%"class.blink::Member.57" = type { %"class.blink::MemberBase.58" }
%"class.blink::MemberBase.58" = type { %"class.blink::PublicURLManager"* }
%"class.blink::PublicURLManager" = type opaque
%"class.blink::Member.59" = type { %"class.blink::MemberBase.60" }
%"class.blink::MemberBase.60" = type { %"class.blink::ContentSecurityPolicyDelegate"* }
%"class.blink::ContentSecurityPolicyDelegate" = type opaque
%"class.blink::DOMTimerCoordinator" = type { %"class.blink::HeapHashMap.61", i32, i32 }
%"class.blink::HeapHashMap.61" = type { %"class.WTF::HashMap.64" }
%"class.WTF::HashMap.64" = type { %"class.WTF::HashTable.65" }
%"class.WTF::HashTable.65" = type <{ %"struct.WTF::KeyValuePair.67"*, i32, i32, i32, [4 x i8] }>
%"struct.WTF::KeyValuePair.67" = type opaque
%"class.std::__1::unique_ptr.68" = type { %"class.std::__1::__compressed_pair.69" }
%"class.std::__1::__compressed_pair.69" = type { %"struct.std::__1::__compressed_pair_elem.70" }
%"struct.std::__1::__compressed_pair_elem.70" = type { %"class.blink::PolicyContainer"* }
%"class.blink::PolicyContainer" = type opaque
%"class.blink::Member.74" = type { %"class.blink::MemberBase.75" }
%"class.blink::MemberBase.75" = type { %"class.blink::OriginTrialContext"* }
%"class.blink::OriginTrialContext" = type opaque
%"class.blink::Member.76" = type { %"class.blink::MemberBase.77" }
%"class.blink::MemberBase.77" = type { %"class.blink::ContentSecurityPolicy"* }
%"class.blink::ContentSecurityPolicy" = type opaque
%"class.blink::HandwritingRecognizer" = type { %"class.blink::ScriptWrappable", %"class.blink::HeapMojoRemote" }
%"class.blink::HeapMojoRemote" = type { %"class.blink::Member.16" }
%"class.blink::Member.16" = type { %"class.blink::MemberBase.17" }
%"class.blink::MemberBase.17" = type { %"class.blink::HeapMojoRemote<handwriting::mojom::blink::HandwritingRecognizer, blink::HeapMojoWrapperMode::kWithContextObserver>::Wrapper"* }
%"class.blink::HeapMojoRemote<handwriting::mojom::blink::HandwritingRecognizer, blink::HeapMojoWrapperMode::kWithContextObserver>::Wrapper" = type opaque
%"class.blink::HandwritingHints" = type { %"class.blink::IDLDictionaryBase", i8, i32, %"class.WTF::String", %"class.WTF::String", %"class.WTF::String" }
%"class.blink::IDLDictionaryBase" = type { i32 (...)** }
%"class.WTF::String" = type { %class.scoped_refptr }
%class.scoped_refptr = type { %"class.WTF::StringImpl"* }
%"class.WTF::StringImpl" = type { i32, i32, %"struct.std::__1::atomic" }
%"struct.std::__1::atomic" = type { %"struct.std::__1::__atomic_base" }
%"struct.std::__1::__atomic_base" = type { %"struct.std::__1::__atomic_base.2" }
%"struct.std::__1::__atomic_base.2" = type { %"struct.std::__1::__cxx_atomic_impl" }
%"struct.std::__1::__cxx_atomic_impl" = type { %"struct.std::__1::__cxx_atomic_base_impl" }
%"struct.std::__1::__cxx_atomic_base_impl" = type { i32 }
%"class.logging::CheckOpResult" = type { i8* }
%"class.logging::CheckError" = type { %"class.logging::LogMessage"* }
%"class.logging::LogMessage" = type { i32 (...)**, i32, %"class.std::__1::basic_ostringstream", i64, i8*, i32, %"class.base::ScopedClearLastErrorBase" }
%"class.std::__1::basic_ostringstream" = type { %"class.std::__1::basic_ostream.base", %"class.std::__1::basic_stringbuf", %"class.std::__1::basic_ios.base" }
%"class.std::__1::basic_ostream.base" = type { i32 (...)** }
%"class.std::__1::basic_stringbuf" = type <{ %"class.std::__1::basic_streambuf", %"class.std::__1::basic_string", i8*, i32, [4 x i8] }>
%"class.std::__1::basic_streambuf" = type { i32 (...)**, %"class.std::__1::locale", i8*, i8*, i8*, i8*, i8*, i8* }
%"class.std::__1::locale" = type { %"class.std::__1::locale::__imp"* }
%"class.std::__1::locale::__imp" = type opaque
%"class.std::__1::basic_string" = type { %"class.std::__1::__compressed_pair.403" }
%"class.std::__1::__compressed_pair.403" = type { %"struct.std::__1::__compressed_pair_elem.404" }
%"struct.std::__1::__compressed_pair_elem.404" = type { %"struct.std::__1::basic_string<char, std::__1::char_traits<char>, std::__1::allocator<char> >::__rep" }
%"struct.std::__1::basic_string<char, std::__1::char_traits<char>, std::__1::allocator<char> >::__rep" = type { %union.anon.405 }
%union.anon.405 = type { %"struct.std::__1::basic_string<char, std::__1::char_traits<char>, std::__1::allocator<char> >::__long" }
%"struct.std::__1::basic_string<char, std::__1::char_traits<char>, std::__1::allocator<char> >::__long" = type { i8*, i64, i64 }
%"class.std::__1::basic_ios.base" = type <{ %"class.std::__1::ios_base", %"class.std::__1::basic_ostream"*, i32 }>
%"class.std::__1::ios_base" = type { i32 (...)**, i32, i64, i64, i32, i32, i8*, i8*, void (i32, %"class.std::__1::ios_base"*, i32)**, i32*, i64, i64, i64*, i64, i64, i8**, i64, i64 }
%"class.std::__1::basic_ostream" = type { i32 (...)**, %"class.std::__1::basic_ios.base" }
%"class.base::ScopedClearLastErrorBase" = type { i32 }
%"class.blink::ScriptPromise" = type { %"class.blink::Member.282", %"class.blink::ScriptValue" }
%"class.blink::Member.282" = type { %"class.blink::MemberBase.283" }
%"class.blink::MemberBase.283" = type { %"class.blink::ScriptState"* }
%"class.blink::ScriptValue" = type { %"class.v8::Isolate"*, %"class.blink::WorldSafeV8Reference" }
%"class.blink::WorldSafeV8Reference" = type { %"class.blink::TraceWrapperV8Reference.284", %class.scoped_refptr.287 }
%"class.blink::TraceWrapperV8Reference.284" = type { %"class.v8::TracedReference.285" }
%"class.v8::TracedReference.285" = type { %"class.v8::BasicTracedReference.286" }
%"class.v8::BasicTracedReference.286" = type { %"class.v8::TracedReferenceBase" }
%class.scoped_refptr.287 = type { %"class.blink::DOMWrapperWorld"* }
%"class.blink::ScriptState" = type { %"class.v8::Isolate"*, %"class.blink::ScopedPersistent", %class.scoped_refptr.80, %"class.blink::Member.273", %"class.blink::SelfKeepAlive", %"class.util::TokenType" }
%"class.blink::ScopedPersistent" = type { %"class.v8::Persistent" }
%"class.v8::Persistent" = type { %"class.v8::PersistentBase" }
%"class.v8::PersistentBase" = type { %"class.v8::Context"* }
%class.scoped_refptr.80 = type { %"class.blink::DOMWrapperWorld"* }
%"class.blink::Member.273" = type { %"class.blink::MemberBase.274" }
%"class.blink::MemberBase.274" = type { %"class.blink::V8PerContextData"* }
%"class.blink::V8PerContextData" = type opaque
%"class.blink::SelfKeepAlive" = type { %"class.blink::Persistent.275" }
%"class.blink::Persistent.275" = type { %"class.blink::PersistentBase.276" }
%"class.blink::PersistentBase.276" = type { %"class.blink::ScriptState"*, %"class.blink::PersistentNodePtr" }
%"class.util::TokenType" = type { %"class.base::StrongAlias" }
%"class.base::StrongAlias" = type { %"class.base::UnguessableToken" }
%"class.base::UnguessableToken" = type { %"class.base::Token" }
%"class.base::Token" = type { i64, i64 }
%"class.WTF::Vector.296" = type { %"class.WTF::VectorBuffer.297" }
%"class.WTF::VectorBuffer.297" = type { %"class.WTF::VectorBufferBase.298" }
%"class.WTF::VectorBufferBase.298" = type { %"class.mojo::StructPtr"*, i32, i32 }
%"class.mojo::StructPtr" = type { %"class.std::__1::unique_ptr.299" }
%"class.std::__1::unique_ptr.299" = type { %"class.std::__1::__compressed_pair.300" }
%"class.std::__1::__compressed_pair.300" = type { %"struct.std::__1::__compressed_pair_elem.301" }
%"struct.std::__1::__compressed_pair_elem.301" = type { %"class.handwriting::mojom::blink::HandwritingStroke"* }
%"class.handwriting::mojom::blink::HandwritingStroke" = type { %"class.WTF::Vector.302" }
%"class.WTF::Vector.302" = type { %"class.WTF::VectorBuffer.303" }
%"class.WTF::VectorBuffer.303" = type { %"class.WTF::VectorBufferBase.304" }
%"class.WTF::VectorBufferBase.304" = type { %"class.mojo::StructPtr.305"*, i32, i32 }
%"class.mojo::StructPtr.305" = type { %"class.std::__1::unique_ptr.306" }
%"class.std::__1::unique_ptr.306" = type { %"class.std::__1::__compressed_pair.307" }
%"class.std::__1::__compressed_pair.307" = type { %"struct.std::__1::__compressed_pair_elem.308" }
%"struct.std::__1::__compressed_pair_elem.308" = type { %"class.handwriting::mojom::blink::HandwritingPoint"* }
%"class.handwriting::mojom::blink::HandwritingPoint" = type { %"class.gfx::PointF", %"class.absl::optional" }
%"class.gfx::PointF" = type { float, float }
%"class.absl::optional" = type { %"class.absl::optional_internal::optional_data" }
%"class.absl::optional_internal::optional_data" = type { %"class.absl::optional_internal::optional_data_base" }
%"class.absl::optional_internal::optional_data_base" = type { %"class.absl::optional_internal::optional_data_dtor_base" }
%"class.absl::optional_internal::optional_data_dtor_base" = type { i8, %union.anon }
%union.anon = type { %"class.base::TimeDelta" }
%"class.base::TimeDelta" = type { i64 }
%"class.mojo::InlinedStructPtr" = type { %"class.handwriting::mojom::blink::HandwritingHints", i32, [4 x i8] }
%"class.handwriting::mojom::blink::HandwritingHints" = type <{ %"class.WTF::String", %"class.WTF::String", %"class.WTF::String", i32, [4 x i8] }>
%"class.base::OnceCallback" = type { %"class.base::internal::CallbackBase" }
%"class.base::internal::CallbackBase" = type { %class.scoped_refptr.319 }
%class.scoped_refptr.319 = type { %"class.base::internal::BindStateBase"* }
%"class.base::internal::BindStateBase" = type { %"class.base::RefCountedThreadSafe", void ()*, void (%"class.base::internal::BindStateBase"*)*, i1 (%"class.base::internal::BindStateBase"*, i32)* }
%"class.base::RefCountedThreadSafe" = type { %"class.base::subtle::RefCountedThreadSafeBase" }
%"class.base::subtle::RefCountedThreadSafeBase" = type { %"class.base::AtomicRefCount" }
%"class.base::AtomicRefCount" = type { %"struct.std::__1::atomic.320" }
%"class.blink::Persistent.294" = type { %"class.blink::PersistentBase.295" }
%"class.blink::PersistentBase.295" = type { %"class.blink::ScriptPromiseResolver"*, %"class.blink::PersistentNodePtr" }
%"class.blink::ScriptPromiseResolver" = type { %"class.blink::ExecutionContextLifecycleObserver.base", %"class.blink::ThreadState::PrefinalizerRegistration", i32, %"class.blink::Member.282", %"class.blink::TaskHandle", %"class.blink::ScriptPromise::InternalResolver", %"class.blink::TraceWrapperV8Reference.284", %"class.blink::SelfKeepAlive.293" }
%"class.blink::ExecutionContextLifecycleObserver.base" = type <{ %"class.blink::ContextLifecycleObserver", i32 }>
%"class.blink::ContextLifecycleObserver" = type { %"class.blink::GarbageCollectedMixin", %"class.blink::WeakMember.290" }
%"class.blink::WeakMember.290" = type { %"class.blink::MemberBase.291" }
%"class.blink::MemberBase.291" = type { %"class.blink::ContextLifecycleNotifier"* }
%"class.blink::ThreadState::PrefinalizerRegistration" = type { i8 }
%"class.blink::TaskHandle" = type { %class.scoped_refptr.292 }
%class.scoped_refptr.292 = type { %"class.blink::TaskHandle::Runner"* }
%"class.blink::TaskHandle::Runner" = type opaque
%"class.blink::ScriptPromise::InternalResolver" = type { %"class.blink::Member.282", %"class.blink::ScriptValue" }
%"class.blink::SelfKeepAlive.293" = type { %"class.blink::Persistent.294" }
%"class.blink::DOMException" = type { %"class.blink::ScriptWrappable", i16, %"class.WTF::String", %"class.WTF::String", %"class.WTF::String" }
%"struct.std::__1::__tuple_impl" = type { %"class.std::__1::__tuple_leaf", %"class.std::__1::__tuple_leaf.448" }
%"class.std::__1::__tuple_leaf" = type { %"class.blink::Persistent.294" }
%"class.std::__1::__tuple_leaf.448" = type { %"class.blink::Persistent.275" }
%"class.absl::optional.325" = type { %"class.absl::optional_internal::optional_data.326" }
%"class.absl::optional_internal::optional_data.326" = type { %"class.absl::optional_internal::optional_data_base.327" }
%"class.absl::optional_internal::optional_data_base.327" = type { %"class.absl::optional_internal::optional_data_dtor_base.328" }
%"class.absl::optional_internal::optional_data_dtor_base.328" = type { i8, %union.anon.329 }
%union.anon.329 = type { %"class.WTF::Vector.330" }
%"class.WTF::Vector.330" = type { %"class.WTF::VectorBuffer.331" }
%"class.WTF::VectorBuffer.331" = type { %"class.WTF::VectorBufferBase.332" }
%"class.WTF::VectorBufferBase.332" = type { %"class.mojo::StructPtr.333"*, i32, i32 }
%"class.mojo::StructPtr.333" = type { %"class.std::__1::unique_ptr.334" }
%"class.std::__1::unique_ptr.334" = type { %"class.std::__1::__compressed_pair.335" }
%"class.std::__1::__compressed_pair.335" = type { %"struct.std::__1::__compressed_pair_elem.336" }
%"struct.std::__1::__compressed_pair_elem.336" = type { %"class.handwriting::mojom::blink::HandwritingPrediction"* }
%"class.handwriting::mojom::blink::HandwritingPrediction" = type { %"class.WTF::String", %"class.WTF::Vector.337" }
%"class.WTF::Vector.337" = type { %"class.WTF::VectorBuffer.338" }
%"class.WTF::VectorBuffer.338" = type { %"class.WTF::VectorBufferBase.339" }
%"class.WTF::VectorBufferBase.339" = type { %"class.mojo::StructPtr.340"*, i32, i32 }
%"class.mojo::StructPtr.340" = type { %"class.std::__1::unique_ptr.341" }
%"class.std::__1::unique_ptr.341" = type { %"class.std::__1::__compressed_pair.342" }
%"class.std::__1::__compressed_pair.342" = type { %"struct.std::__1::__compressed_pair_elem.343" }
%"struct.std::__1::__compressed_pair_elem.343" = type { %"class.handwriting::mojom::blink::HandwritingSegment"* }
%"class.handwriting::mojom::blink::HandwritingSegment" = type { %"class.WTF::String", i32, i32, %"class.WTF::Vector.344" }
%"class.WTF::Vector.344" = type { %"class.WTF::VectorBuffer.345" }
%"class.WTF::VectorBuffer.345" = type { %"class.WTF::VectorBufferBase.346" }
%"class.WTF::VectorBufferBase.346" = type { %"class.mojo::InlinedStructPtr.347"*, i32, i32 }
%"class.mojo::InlinedStructPtr.347" = type { %"class.handwriting::mojom::blink::HandwritingDrawingSegment", i32 }
%"class.handwriting::mojom::blink::HandwritingDrawingSegment" = type { i32, i32, i32 }
%"class.blink::HeapVector.366" = type { %"class.WTF::Vector.369" }
%"class.WTF::Vector.369" = type { %"class.WTF::VectorBuffer.370" }
%"class.WTF::VectorBuffer.370" = type { %"class.WTF::VectorBufferBase.371" }
%"class.WTF::VectorBufferBase.371" = type { %"class.blink::Member.372"*, i32, i32 }
%"class.blink::Member.372" = type { %"class.blink::MemberBase.373" }
%"class.blink::MemberBase.373" = type { %"class.blink::HandwritingPrediction"* }
%"class.blink::HandwritingPrediction" = type { %"class.blink::IDLDictionaryBase", i8, %"class.blink::HeapVector.374", %"class.WTF::String" }
%"class.blink::HeapVector.374" = type { %"class.WTF::Vector.377" }
%"class.WTF::Vector.377" = type { %"class.WTF::VectorBuffer.378" }
%"class.WTF::VectorBuffer.378" = type { %"class.WTF::VectorBufferBase.379" }
%"class.WTF::VectorBufferBase.379" = type { %"class.blink::Member.380"*, i32, i32 }
%"class.blink::Member.380" = type opaque
%"class.v8::Value" = type { i8 }
%"class.blink::NormalPageArena" = type { %"class.blink::BaseArena.base", [4 x i8], %"class.blink::FreeList", i8*, i64, i64 }
%"class.blink::BaseArena.base" = type <{ i32 (...)**, %"class.blink::PageStackThreadSafe", %"class.blink::PageStackThreadSafe", %"class.blink::PageStackThreadSafe", %"class.blink::PageStackThreadSafe", %"class.blink::ThreadState"*, i32 }>
%"class.blink::FreeList" = type <{ [17 x %"class.blink::FreeListEntry"*], [17 x %"class.blink::FreeListEntry"*], i32, [4 x i8] }>
%"class.blink::FreeListEntry" = type { %"class.blink::HeapObjectHeader", %"class.blink::FreeListEntry"* }
%"class.blink::PlatformAwareObjectStartBitmap" = type { %"class.blink::ObjectStartBitmap" }
%"class.blink::ObjectStartBitmap" = type { i8*, [2048 x i8] }
%"class.blink::HeapVectorBacking" = type { i8 }
%"class.blink::ScriptState::Scope" = type { %"class.v8::HandleScope", %"class.v8::Local.360" }
%"class.v8::HandleScope" = type { %"class.v8::internal::Isolate"*, i64*, i64* }
%"class.v8::internal::Isolate" = type opaque
%"class.v8::Local.360" = type { %"class.v8::Context"* }
%"class.v8::MicrotasksScope" = type <{ %"class.v8::internal::Isolate"*, %"class.v8::internal::MicrotaskQueue"*, i8, [7 x i8] }>
%"class.v8::internal::MicrotaskQueue" = type opaque
%"class.blink::ExecutionContextLifecycleObserver" = type <{ %"class.blink::ContextLifecycleObserver", i32, [4 x i8] }>
%"class.v8::Array" = type { i8 }
%"class.absl::optional.426" = type { %"class.absl::optional_internal::optional_data.427" }
%"class.absl::optional_internal::optional_data.427" = type { %"class.absl::optional_internal::optional_data_base.428" }
%"class.absl::optional_internal::optional_data_base.428" = type { %"class.absl::optional_internal::optional_data_dtor_base.429" }
%"class.absl::optional_internal::optional_data_dtor_base.429" = type { i8, %union.anon.430 }
%union.anon.430 = type { %"class.blink::RuntimeCallTimerScope" }
%"class.blink::RuntimeCallTimerScope" = type { %"class.blink::RuntimeCallStats"*, %"class.blink::RuntimeCallTimer" }
%"class.blink::RuntimeCallStats" = type { %"class.blink::RuntimeCallTimer"*, i8, [40 x %"class.blink::RuntimeCallCounter"], %"class.base::TickClock"* }
%"class.blink::RuntimeCallCounter" = type { i64, %"class.base::TimeDelta", i8* }
%"class.base::TickClock" = type opaque
%"class.blink::RuntimeCallTimer" = type { %"class.blink::RuntimeCallCounter"*, %"class.blink::RuntimeCallTimer"*, %"class.base::TimeTicks", %"class.base::TimeDelta", %"class.base::TickClock"* }
%"class.blink::HeapVectorBacking.440" = type { i8 }
%"class.base::Location" = type { i8*, i8*, i32, i8* }

$_ZN3WTF6VectorIN5blink6MemberINS1_17HandwritingStrokeEEELj0ENS1_13HeapAllocatorEE7EraseAtEj = comdat any

$_ZNK5blink15ScriptWrappable18HasPendingActivityEv = comdat any

$_ZNK5blink15ScriptWrappable17HasEventListenersEv = comdat any

$_ZNK5blink18HandwritingDrawing18GetWrapperTypeInfoEv = comdat any

$_ZN5blink25MakeGarbageCollectedTraitINS_12DOMExceptionEE4CallIJNS_16DOMExceptionCodeERA16_KcEEEPS1_DpOT_ = comdat any

$_ZN5blink10ThreadHeap8AllocateINS_15ScriptWrappableEEEPhm = comdat any

$_ZN5blink10ThreadHeap20AllocateOnArenaIndexEPNS_11ThreadStateEmijPKc = comdat any

$_ZN5blink10TraceTraitINS_15ScriptWrappableEE5TraceEPNS_7VisitorEPKv = comdat any

$_ZN5blink8internal14FinalizerTraitINS_15ScriptWrappableEE8FinalizeEPv = comdat any

$_ZN5blink9NameTraitINS_15ScriptWrappableEE7GetNameEPKv = comdat any

$_ZN3WTF6VectorIN5blink6MemberINS1_21HandwritingPredictionEEELj0ENS1_13HeapAllocatorEE14AppendSlowCaseIPS3_EEvOT_ = comdat any

$_ZN3WTF6VectorIN5blink6MemberINS1_21HandwritingPredictionEEELj0ENS1_13HeapAllocatorEE15ReserveCapacityEj = comdat any

$_ZN3WTF6VectorIN5blink6MemberINS1_21HandwritingPredictionEEELj0ENS1_13HeapAllocatorEE16ReallocateBufferEj = comdat any

$_ZN5blink13HeapAllocator13QuantizedSizeINS_6MemberINS_21HandwritingPredictionEEEEEmm = comdat any

$_ZN5blink25MakeGarbageCollectedTraitINS_17HeapVectorBackingINS_6MemberINS_21HandwritingPredictionEEEN3WTF12VectorTraitsIS4_EEEEE4CallEm = comdat any

$_ZN5blink17HeapVectorBackingINS_6MemberINS_21HandwritingPredictionEEEN3WTF12VectorTraitsIS3_EEE14AllocateObjectIS7_EEPvm = comdat any

$_ZN5blink10TraceTraitINS_17HeapVectorBackingINS_6MemberINS_21HandwritingPredictionEEEN3WTF12VectorTraitsIS4_EEEEE5TraceEPNS_7VisitorEPKv = comdat any

$_ZN5blink9NameTraitINS_17HeapVectorBackingINS_6MemberINS_21HandwritingPredictionEEEN3WTF12VectorTraitsIS4_EEEEE7GetNameEPKv = comdat any

$_ZN5blink10TraceTraitINS_21HandwritingPredictionEE5TraceEPNS_7VisitorEPKv = comdat any

$_ZN5blink21ScriptPromiseResolver15ResolveOrRejectINS_10HeapVectorINS_6MemberINS_21HandwritingPredictionEEELj0EEEEEvT_NS0_15ResolutionStateE = comdat any

$_ZN5blink20ToV8SequenceInternalINS_10HeapVectorINS_6MemberINS_21HandwritingPredictionEEELj0EEEEEN2v85LocalINS6_5ArrayEEERKT_NS7_INS6_6ObjectEEEPNS6_7IsolateE = comdat any

$_ZN3WTF6VectorIN5blink6MemberINS1_21HandwritingPredictionEEELj0ENS1_13HeapAllocatorEEC2ERKS6_ = comdat any

$_ZN5blink21ScriptPromiseResolver15ResolveOrRejectIPNS_12DOMExceptionEEEvT_NS0_15ResolutionStateE = comdat any

$_ZN5blink12DOMDataStore10GetWrapperEPNS_15ScriptWrappableEPN2v87IsolateE = comdat any

$_ZN5blink11ScriptState4FromEN2v85LocalINS1_7ContextEEE = comdat any

$_ZN3WTF9HashTableIN5blink10WeakMemberIKNS1_15ScriptWrappableEEENS_12KeyValuePairIS5_NS1_23TraceWrapperV8ReferenceIN2v86ObjectEEEEENS_24KeyValuePairKeyExtractorENS_10MemberHashIS4_EENS_18HashMapValueTraitsINS_10HashTraitsIS5_EENSG_ISA_EEEESH_NS1_13HeapAllocatorEE4findEPS4_ = comdat any

$_ZN3WTF6VectorIN5blink6MemberINS1_17HandwritingStrokeEEELj0ENS1_13HeapAllocatorEE14AppendSlowCaseIRPS3_EEvOT_ = comdat any

$_ZN3WTF6VectorIN5blink6MemberINS1_17HandwritingStrokeEEELj0ENS1_13HeapAllocatorEE15ReserveCapacityEj = comdat any

$_ZN3WTF6VectorIN5blink6MemberINS1_17HandwritingStrokeEEELj0ENS1_13HeapAllocatorEE16ReallocateBufferEj = comdat any

$_ZN5blink13HeapAllocator13QuantizedSizeINS_6MemberINS_17HandwritingStrokeEEEEEmm = comdat any

$_ZN5blink25MakeGarbageCollectedTraitINS_17HeapVectorBackingINS_6MemberINS_17HandwritingStrokeEEEN3WTF12VectorTraitsIS4_EEEEE4CallEm = comdat any

$_ZN5blink17HeapVectorBackingINS_6MemberINS_17HandwritingStrokeEEEN3WTF12VectorTraitsIS3_EEE14AllocateObjectIS7_EEPvm = comdat any

$_ZN5blink10TraceTraitINS_17HeapVectorBackingINS_6MemberINS_17HandwritingStrokeEEEN3WTF12VectorTraitsIS4_EEEEE5TraceEPNS_7VisitorEPKv = comdat any

$_ZN5blink9NameTraitINS_17HeapVectorBackingINS_6MemberINS_17HandwritingStrokeEEEN3WTF12VectorTraitsIS4_EEEEE7GetNameEPKv = comdat any

$_ZN5blink10TraceTraitINS_17HandwritingStrokeEE5TraceEPNS_7VisitorEPKv = comdat any

$_ZN5blink10ThreadHeap8AllocateINS_21ScriptPromiseResolverEEEPhm = comdat any

$_ZN5blink10TraceTraitINS_21ScriptPromiseResolverEE5TraceEPNS_7VisitorEPKv = comdat any

$_ZN5blink8internal14FinalizerTraitINS_21ScriptPromiseResolverEE8FinalizeEPv = comdat any

$_ZN5blink9NameTraitINS_21ScriptPromiseResolverEE7GetNameEPKv = comdat any

$_ZN5blink25MakeGarbageCollectedTraitINS_12DOMExceptionEE4CallIJNS_16DOMExceptionCodeERA37_KcEEEPS1_DpOT_ = comdat any

$_ZN3WTF6VectorIN4mojo9StructPtrIN11handwriting5mojom5blink17HandwritingStrokeEEELj0ENS_18PartitionAllocatorEE14AppendSlowCaseIS7_EEvOT_ = comdat any

$_ZN3WTF6VectorIN4mojo9StructPtrIN11handwriting5mojom5blink17HandwritingStrokeEEELj0ENS_18PartitionAllocatorEE16ReallocateBufferEj = comdat any

$_ZN3WTF18PartitionAllocator13QuantizedSizeIN4mojo9StructPtrIN11handwriting5mojom5blink17HandwritingStrokeEEEEEmm = comdat any

$_ZN5blink19TraceMethodDelegateINS_14PersistentBaseINS_21ScriptPromiseResolverELNS_31WeaknessPersistentConfigurationE0ELNS_38CrossThreadnessPersistentConfigurationE0EEEXadL_ZNKS5_15TracePersistentEPNS_7VisitorEEEE10TrampolineES7_PKv = comdat any

$_ZN5blink19TraceMethodDelegateINS_14PersistentBaseINS_11ScriptStateELNS_31WeaknessPersistentConfigurationE0ELNS_38CrossThreadnessPersistentConfigurationE0EEEXadL_ZNKS5_15TracePersistentEPNS_7VisitorEEEE10TrampolineES7_PKv = comdat any

$_ZN5blink10TraceTraitINS_11ScriptStateEE5TraceEPNS_7VisitorEPKv = comdat any

$_ZN4base8internal7InvokerINS0_9BindStateIPFvPN5blink21ScriptPromiseResolverEPNS3_11ScriptStateEN4absl8optionalIN3WTF6VectorIN4mojo9StructPtrIN11handwriting5mojom5blink21HandwritingPredictionEEELj0ENSA_18PartitionAllocatorEEEEEEJNS3_10PersistentIS4_EENSO_IS6_EEEEEFvSL_EE7RunOnceEPNS0_13BindStateBaseEOSL_ = comdat any

$_ZN4base8internal13FunctorTraitsIPFvPN5blink21ScriptPromiseResolverEPNS2_11ScriptStateEN4absl8optionalIN3WTF6VectorIN4mojo9StructPtrIN11handwriting5mojom5blink21HandwritingPredictionEEELj0ENS9_18PartitionAllocatorEEEEEEvE6InvokeISM_JNS2_10PersistentIS3_EENSP_IS5_EESK_EEEvOT_DpOT0_ = comdat any

$_ZN4base8internal9BindStateIPFvPN5blink21ScriptPromiseResolverEPNS2_11ScriptStateEN4absl8optionalIN3WTF6VectorIN4mojo9StructPtrIN11handwriting5mojom5blink21HandwritingPredictionEEELj0ENS9_18PartitionAllocatorEEEEEEJNS2_10PersistentIS3_EENSN_IS5_EEEE7DestroyEPKNS0_13BindStateBaseE = comdat any

$_ZNSt3__112__tuple_implINS_15__tuple_indicesIJLm0ELm1EEEEJN5blink10PersistentINS3_21ScriptPromiseResolverEEENS4_INS3_11ScriptStateEEEEED2Ev = comdat any

$_ZNSt3__112__tuple_implINS_15__tuple_indicesIJLm0ELm1EEEEJN5blink10PersistentINS3_21ScriptPromiseResolverEEENS4_INS3_11ScriptStateEEEEEC2IJLm0ELm1EEJS6_S8_EJEJEJS6_S8_EEENS1_IJXspT_EEEENS_13__tuple_typesIJDpT0_EEENS1_IJXspT1_EEEENSC_IJDpT2_EEEDpOT3_ = comdat any

$_ZN5blink10TraceTraitINS_16HandwritingHintsEE5TraceEPNS_7VisitorEPKv = comdat any

$_ZN5blink7Visitor14HandleWeakCellINS_21HandwritingRecognizerEEEvRKNS_14LivenessBrokerEPKv = comdat any

$_ZN5blink10TraceTraitINS_21HandwritingRecognizerEE5TraceEPNS_7VisitorEPKv = comdat any

$_ZZN5blink11GCInfoTraitINS_15ScriptWrappableEE5IndexEvE7kGcInfo = comdat any

$_ZZN5blink11GCInfoTraitINS_15ScriptWrappableEE5IndexEvE13gc_info_index = comdat any

$_ZZN5blink11GCInfoTraitINS_17HeapVectorBackingINS_6MemberINS_21HandwritingPredictionEEEN3WTF12VectorTraitsIS4_EEEEE5IndexEvE7kGcInfo = comdat any

$_ZZN5blink11GCInfoTraitINS_17HeapVectorBackingINS_6MemberINS_21HandwritingPredictionEEEN3WTF12VectorTraitsIS4_EEEEE5IndexEvE13gc_info_index = comdat any

$_ZZN5blink11GCInfoTraitINS_17HeapVectorBackingINS_6MemberINS_17HandwritingStrokeEEEN3WTF12VectorTraitsIS4_EEEEE5IndexEvE7kGcInfo = comdat any

$_ZZN5blink11GCInfoTraitINS_17HeapVectorBackingINS_6MemberINS_17HandwritingStrokeEEEN3WTF12VectorTraitsIS4_EEEEE5IndexEvE13gc_info_index = comdat any

$_ZZN5blink11GCInfoTraitINS_21ScriptPromiseResolverEE5IndexEvE7kGcInfo = comdat any

$_ZZN5blink11GCInfoTraitINS_21ScriptPromiseResolverEE5IndexEvE13gc_info_index = comdat any

@_ZTVN5blink18HandwritingDrawingE = hidden unnamed_addr constant { [11 x i8*] } { [11 x i8*] [i8* null, i8* null, i8* bitcast (i8* (%"class.blink::ScriptWrappable"*)* @_ZNK5blink15ScriptWrappable18NameInHeapSnapshotEv to i8*), i8* bitcast (void (%"class.blink::HandwritingDrawing"*)* @_ZN5blink18HandwritingDrawingD2Ev to i8*), i8* bitcast (void (%"class.blink::HandwritingDrawing"*)* @_ZN5blink18HandwritingDrawingD0Ev to i8*), i8* bitcast (i1 (%"class.blink::ScriptWrappable"*)* @_ZNK5blink15ScriptWrappable18HasPendingActivityEv to i8*), i8* bitcast (i1 (%"class.blink::ScriptWrappable"*)* @_ZNK5blink15ScriptWrappable17HasEventListenersEv to i8*), i8* bitcast (void (%"class.blink::HandwritingDrawing"*, %"class.blink::Visitor"*)* @_ZNK5blink18HandwritingDrawing5TraceEPNS_7VisitorE to i8*), i8* bitcast (%"struct.blink::WrapperTypeInfo"* (%"class.blink::HandwritingDrawing"*)* @_ZNK5blink18HandwritingDrawing18GetWrapperTypeInfoEv to i8*), i8* bitcast (%"class.v8::Value"* (%"class.blink::ScriptWrappable"*, %"class.blink::ScriptState"*)* @_ZN5blink15ScriptWrappable4WrapEPNS_11ScriptStateE to i8*), i8* bitcast (%"class.v8::Object"* (%"class.blink::ScriptWrappable"*, %"class.v8::Isolate"*, %"struct.blink::WrapperTypeInfo"*, %"class.v8::Object"*)* @_ZN5blink15ScriptWrappable20AssociateWithWrapperEPN2v87IsolateEPKNS_15WrapperTypeInfoENS1_5LocalINS1_6ObjectEEE to i8*)] }, align 8
@.str = private unnamed_addr constant [37 x i8] c"The recognizer has been invalidated.\00", align 1
@.str.1 = private unnamed_addr constant [16 x i8] c"Internal error.\00", align 1
@_ZN5blink11ThreadState16thread_specific_E = external local_unnamed_addr global %"class.WTF::ThreadSpecific"*, align 8
@__PRETTY_FUNCTION__._ZN3WTF21GetStringWithTypeNameIPN5blink11ThreadStateEEEPKcv = private unnamed_addr constant [68 x i8] c"const char *WTF::GetStringWithTypeName() [T = blink::ThreadState *]\00", align 1
@__PRETTY_FUNCTION__._ZN3WTF21GetStringWithTypeNameIN5blink15ScriptWrappableEEEPKcv = private unnamed_addr constant [70 x i8] c"const char *WTF::GetStringWithTypeName() [T = blink::ScriptWrappable]\00", align 1
@.str.2 = private unnamed_addr constant [23 x i8] c"allocation_size > size\00", align 1
@.str.3 = private unnamed_addr constant [59 x i8] c"../../third_party/blink/renderer/platform/heap/impl/heap.h\00", align 1
@_ZZN5blink11GCInfoTraitINS_15ScriptWrappableEE5IndexEvE7kGcInfo = linkonce_odr hidden constant %"struct.blink::GCInfo" { void (%"class.blink::Visitor"*, i8*)* @_ZN5blink10TraceTraitINS_15ScriptWrappableEE5TraceEPNS_7VisitorEPKv, void (i8*)* @_ZN5blink8internal14FinalizerTraitINS_15ScriptWrappableEE8FinalizeEPv, { i8*, i8 } (i8*)* @_ZN5blink9NameTraitINS_15ScriptWrappableEE7GetNameEPKv, i8 1 }, comdat, align 8
@_ZZN5blink11GCInfoTraitINS_15ScriptWrappableEE5IndexEvE13gc_info_index = linkonce_odr hidden global { { i32 } } zeroinitializer, comdat, align 4
@_ZN5blink11GCInfoTable13global_table_E = external local_unnamed_addr global %"class.blink::GCInfoTable"*, align 8
@_ZN5blink11ThreadState25incremental_marking_flag_E = external local_unnamed_addr global %"class.blink::AtomicEntryFlag", align 4
@.str.4 = private unnamed_addr constant [55 x i8] c"../../third_party/blink/renderer/platform/wtf/vector.h\00", align 1
@.str.5 = private unnamed_addr constant [33 x i8] c"Allocator::IsAllocationAllowed()\00", align 1
@.str.6 = private unnamed_addr constant [44 x i8] c"count <= MaxElementCountInBackingStore<T>()\00", align 1
@.str.7 = private unnamed_addr constant [74 x i8] c"../../third_party/blink/renderer/platform/heap/impl/heap_allocator_impl.h\00", align 1
@.str.8 = private unnamed_addr constant [18 x i8] c"num_elements > 0u\00", align 1
@.str.9 = private unnamed_addr constant [93 x i8] c"../../third_party/blink/renderer/platform/heap/impl/collection_support/heap_vector_backing.h\00", align 1
@_ZZN5blink11GCInfoTraitINS_17HeapVectorBackingINS_6MemberINS_21HandwritingPredictionEEEN3WTF12VectorTraitsIS4_EEEEE5IndexEvE7kGcInfo = linkonce_odr hidden constant %"struct.blink::GCInfo" { void (%"class.blink::Visitor"*, i8*)* @_ZN5blink10TraceTraitINS_17HeapVectorBackingINS_6MemberINS_21HandwritingPredictionEEEN3WTF12VectorTraitsIS4_EEEEE5TraceEPNS_7VisitorEPKv, void (i8*)* null, { i8*, i8 } (i8*)* @_ZN5blink9NameTraitINS_17HeapVectorBackingINS_6MemberINS_21HandwritingPredictionEEEN3WTF12VectorTraitsIS4_EEEEE7GetNameEPKv, i8 0 }, comdat, align 8
@_ZZN5blink11GCInfoTraitINS_17HeapVectorBackingINS_6MemberINS_21HandwritingPredictionEEEN3WTF12VectorTraitsIS4_EEEEE5IndexEvE13gc_info_index = linkonce_odr hidden global { { i32 } } zeroinitializer, comdat, align 4
@.str.10 = private unnamed_addr constant [13 x i8] c"InternalNode\00", align 1
@__PRETTY_FUNCTION__._ZN3WTF21GetStringWithTypeNameIN5blink17HeapVectorBackingINS1_6MemberINS1_21HandwritingPredictionEEENS_12VectorTraitsIS5_EEEEEEPKcv = private unnamed_addr constant [183 x i8] c"const char *WTF::GetStringWithTypeName() [T = blink::HeapVectorBacking<blink::Member<blink::HandwritingPrediction>, WTF::VectorTraits<blink::Member<blink::HandwritingPrediction> > >]\00", align 1
@_ZN5blink26RuntimeEnabledFeaturesBase36is_blink_runtime_call_stats_enabled_E = external local_unnamed_addr global i8, align 1
@_ZN5blink20ScriptForbiddenScope22g_main_thread_counter_E = external local_unnamed_addr global i32, align 4
@_ZN3WTF8internal25g_main_thread_stack_startE = external local_unnamed_addr global i64, align 8
@_ZN3WTF8internal39g_main_thread_underestimated_stack_sizeE = external local_unnamed_addr global i64, align 8
@_ZN5blink18HandwritingDrawing18wrapper_type_info_E = external local_unnamed_addr constant %"struct.blink::WrapperTypeInfo"*, align 8
@_ZN5blink15DOMWrapperWorld41number_of_non_main_worlds_in_main_thread_E = external local_unnamed_addr global i32, align 4
@.str.11 = private unnamed_addr constant [66 x i8] c"../../third_party/blink/renderer/platform/bindings/script_state.h\00", align 1
@.str.12 = private unnamed_addr constant [13 x i8] c"script_state\00", align 1
@.str.13 = private unnamed_addr constant [34 x i8] c"script_state->context_ == context\00", align 1
@_ZZN5blink11GCInfoTraitINS_17HeapVectorBackingINS_6MemberINS_17HandwritingStrokeEEEN3WTF12VectorTraitsIS4_EEEEE5IndexEvE7kGcInfo = linkonce_odr hidden constant %"struct.blink::GCInfo" { void (%"class.blink::Visitor"*, i8*)* @_ZN5blink10TraceTraitINS_17HeapVectorBackingINS_6MemberINS_17HandwritingStrokeEEEN3WTF12VectorTraitsIS4_EEEEE5TraceEPNS_7VisitorEPKv, void (i8*)* null, { i8*, i8 } (i8*)* @_ZN5blink9NameTraitINS_17HeapVectorBackingINS_6MemberINS_17HandwritingStrokeEEEN3WTF12VectorTraitsIS4_EEEEE7GetNameEPKv, i8 0 }, comdat, align 8
@_ZZN5blink11GCInfoTraitINS_17HeapVectorBackingINS_6MemberINS_17HandwritingStrokeEEEN3WTF12VectorTraitsIS4_EEEEE5IndexEvE13gc_info_index = linkonce_odr hidden global { { i32 } } zeroinitializer, comdat, align 4
@__PRETTY_FUNCTION__._ZN3WTF21GetStringWithTypeNameIN5blink17HeapVectorBackingINS1_6MemberINS1_17HandwritingStrokeEEENS_12VectorTraitsIS5_EEEEEEPKcv = private unnamed_addr constant [175 x i8] c"const char *WTF::GetStringWithTypeName() [T = blink::HeapVectorBacking<blink::Member<blink::HandwritingStroke>, WTF::VectorTraits<blink::Member<blink::HandwritingStroke> > >]\00", align 1
@.str.14 = private unnamed_addr constant [18 x i8] c"position < size()\00", align 1
@__PRETTY_FUNCTION__._ZN3WTF21GetStringWithTypeNameIN5blink21ScriptPromiseResolverEEEPKcv = private unnamed_addr constant [76 x i8] c"const char *WTF::GetStringWithTypeName() [T = blink::ScriptPromiseResolver]\00", align 1
@_ZZN5blink11GCInfoTraitINS_21ScriptPromiseResolverEE5IndexEvE7kGcInfo = linkonce_odr hidden constant %"struct.blink::GCInfo" { void (%"class.blink::Visitor"*, i8*)* @_ZN5blink10TraceTraitINS_21ScriptPromiseResolverEE5TraceEPNS_7VisitorEPKv, void (i8*)* @_ZN5blink8internal14FinalizerTraitINS_21ScriptPromiseResolverEE8FinalizeEPv, { i8*, i8 } (i8*)* @_ZN5blink9NameTraitINS_21ScriptPromiseResolverEE7GetNameEPKv, i8 1 }, comdat, align 8
@_ZZN5blink11GCInfoTraitINS_21ScriptPromiseResolverEE5IndexEvE13gc_info_index = linkonce_odr hidden global { { i32 } } zeroinitializer, comdat, align 4
@.str.15 = private unnamed_addr constant [78 x i8] c"../../third_party/blink/renderer/platform/wtf/allocator/partition_allocator.h\00", align 1
@__PRETTY_FUNCTION__._ZN3WTF21GetStringWithTypeNameIN4mojo9StructPtrIN11handwriting5mojom5blink17HandwritingStrokeEEEEEPKcv = private unnamed_addr constant [109 x i8] c"const char *WTF::GetStringWithTypeName() [T = mojo::StructPtr<handwriting::mojom::blink::HandwritingStroke>]\00", align 1

@_ZN5blink18HandwritingDrawingC1EPNS_16ExecutionContextEPNS_21HandwritingRecognizerEPKNS_16HandwritingHintsE = hidden unnamed_addr alias void (%"class.blink::HandwritingDrawing"*, %"class.blink::ExecutionContext"*, %"class.blink::HandwritingRecognizer"*, %"class.blink::HandwritingHints"*), void (%"class.blink::HandwritingDrawing"*, %"class.blink::ExecutionContext"*, %"class.blink::HandwritingRecognizer"*, %"class.blink::HandwritingHints"*)* @_ZN5blink18HandwritingDrawingC2EPNS_16ExecutionContextEPNS_21HandwritingRecognizerEPKNS_16HandwritingHintsE
@_ZN5blink18HandwritingDrawingD1Ev = hidden unnamed_addr alias void (%"class.blink::HandwritingDrawing"*), void (%"class.blink::HandwritingDrawing"*)* @_ZN5blink18HandwritingDrawingD2Ev

; Function Attrs: nounwind ssp uwtable
define hidden void @_ZN5blink18HandwritingDrawingC2EPNS_16ExecutionContextEPNS_21HandwritingRecognizerEPKNS_16HandwritingHintsE(%"class.blink::HandwritingDrawing"* nocapture, %"class.blink::ExecutionContext"* nocapture readnone, %"class.blink::HandwritingRecognizer"*, %"class.blink::HandwritingHints"*) unnamed_addr #0 align 2 {
  %5 = getelementptr inbounds %"class.blink::HandwritingDrawing", %"class.blink::HandwritingDrawing"* %0, i64 0, i32 0, i32 0, i32 0
  %6 = getelementptr inbounds %"class.blink::HandwritingDrawing", %"class.blink::HandwritingDrawing"* %0, i64 0, i32 0, i32 1, i32 0, i32 0, i32 0, i32 0
  store i64* null, i64** %6, align 8
  store i32 (...)** bitcast (i8** getelementptr inbounds ({ [11 x i8*] }, { [11 x i8*] }* @_ZTVN5blink18HandwritingDrawingE, i64 0, inrange i32 0, i64 2) to i32 (...)**), i32 (...)*** %5, align 8
  %7 = getelementptr inbounds %"class.blink::HandwritingDrawing", %"class.blink::HandwritingDrawing"* %0, i64 0, i32 1, i32 0, i32 0
  store %"class.blink::HandwritingHints"* %3, %"class.blink::HandwritingHints"** %7, align 8
  %8 = getelementptr inbounds %"class.blink::HandwritingDrawing", %"class.blink::HandwritingDrawing"* %0, i64 0, i32 2
  %9 = bitcast %"class.blink::HeapVector"* %8 to i8*
  tail call void @llvm.memset.p0i8.i64(i8* align 8 %9, i8 0, i64 16, i1 false) #11
  %10 = getelementptr inbounds %"class.blink::HandwritingDrawing", %"class.blink::HandwritingDrawing"* %0, i64 0, i32 3, i32 0, i32 0
  store %"class.blink::HandwritingRecognizer"* %2, %"class.blink::HandwritingRecognizer"** %10, align 8
  ret void
}

; Function Attrs: norecurse nounwind readnone ssp uwtable
define hidden void @_ZN5blink18HandwritingDrawingD2Ev(%"class.blink::HandwritingDrawing"* nocapture) unnamed_addr #1 align 2 {
  ret void
}

; Function Attrs: norecurse nounwind readnone ssp uwtable
define hidden void @_ZN5blink18HandwritingDrawingD0Ev(%"class.blink::HandwritingDrawing"* nocapture) unnamed_addr #1 align 2 {
  ret void
}

; Function Attrs: nounwind ssp uwtable
define hidden void @_ZN5blink18HandwritingDrawing9addStrokeEPNS_17HandwritingStrokeE(%"class.blink::HandwritingDrawing"*, %"class.blink::HandwritingStroke"*) local_unnamed_addr #0 align 2 {
  %3 = alloca %"class.blink::HandwritingStroke"*, align 8
  store %"class.blink::HandwritingStroke"* %1, %"class.blink::HandwritingStroke"** %3, align 8
  %4 = getelementptr inbounds %"class.blink::HandwritingDrawing", %"class.blink::HandwritingDrawing"* %0, i64 0, i32 3, i32 0, i32 0
  %5 = load %"class.blink::HandwritingRecognizer"*, %"class.blink::HandwritingRecognizer"** %4, align 8
  %6 = icmp eq %"class.blink::HandwritingRecognizer"* %5, null
  %7 = ptrtoint %"class.blink::HandwritingStroke"* %1 to i64
  br i1 %6, label %32, label %8

8:                                                ; preds = %2
  %9 = tail call zeroext i1 @_ZN5blink21HandwritingRecognizer7IsValidEv(%"class.blink::HandwritingRecognizer"* nonnull %5) #11
  br i1 %9, label %10, label %32

10:                                               ; preds = %8
  %11 = getelementptr inbounds %"class.blink::HandwritingDrawing", %"class.blink::HandwritingDrawing"* %0, i64 0, i32 2, i32 0
  %12 = getelementptr inbounds %"class.blink::HandwritingDrawing", %"class.blink::HandwritingDrawing"* %0, i64 0, i32 2, i32 0, i32 0, i32 0, i32 2
  %13 = load i32, i32* %12, align 4
  %14 = getelementptr inbounds %"class.blink::HandwritingDrawing", %"class.blink::HandwritingDrawing"* %0, i64 0, i32 2, i32 0, i32 0, i32 0, i32 1
  %15 = load i32, i32* %14, align 8
  %16 = icmp eq i32 %13, %15
  br i1 %16, label %31, label %17, !prof !2

17:                                               ; preds = %10
  %18 = getelementptr inbounds %"class.WTF::Vector", %"class.WTF::Vector"* %11, i64 0, i32 0, i32 0, i32 0
  %19 = load %"class.blink::Member.5"*, %"class.blink::Member.5"** %18, align 8
  %20 = zext i32 %13 to i64
  %21 = getelementptr inbounds %"class.blink::Member.5", %"class.blink::Member.5"* %19, i64 %20
  %22 = bitcast %"class.blink::Member.5"* %21 to i64*
  store atomic i64 %7, i64* %22 monotonic, align 8
  %23 = load atomic i32, i32* getelementptr inbounds (%"class.blink::AtomicEntryFlag", %"class.blink::AtomicEntryFlag"* @_ZN5blink11ThreadState25incremental_marking_flag_E, i64 0, i32 0, i32 0, i32 0, i32 0, i32 0, i32 0) monotonic, align 4
  %24 = icmp eq i32 %23, 0
  br i1 %24, label %28, label %25

25:                                               ; preds = %17
  %26 = bitcast %"class.blink::HandwritingStroke"* %1 to i8*
  %27 = tail call zeroext i1 @_ZN5blink14MarkingVisitor16WriteBarrierSlowEPv(i8* %26) #11
  br label %28

28:                                               ; preds = %25, %17
  %29 = load i32, i32* %12, align 4
  %30 = add i32 %29, 1
  store i32 %30, i32* %12, align 4
  br label %32

31:                                               ; preds = %10
  call void @_ZN3WTF6VectorIN5blink6MemberINS1_17HandwritingStrokeEEELj0ENS1_13HeapAllocatorEE14AppendSlowCaseIRPS3_EEvOT_(%"class.WTF::Vector"* %11, %"class.blink::HandwritingStroke"** nonnull dereferenceable(8) %3) #11
  br label %32

32:                                               ; preds = %2, %31, %28, %8
  ret void
}

; Function Attrs: nounwind ssp uwtable
define hidden zeroext i1 @_ZNK5blink18HandwritingDrawing7IsValidEv(%"class.blink::HandwritingDrawing"* nocapture readonly) local_unnamed_addr #0 align 2 {
  %2 = getelementptr inbounds %"class.blink::HandwritingDrawing", %"class.blink::HandwritingDrawing"* %0, i64 0, i32 3, i32 0, i32 0
  %3 = load %"class.blink::HandwritingRecognizer"*, %"class.blink::HandwritingRecognizer"** %2, align 8
  %4 = icmp eq %"class.blink::HandwritingRecognizer"* %3, null
  br i1 %4, label %7, label %5

5:                                                ; preds = %1
  %6 = tail call zeroext i1 @_ZN5blink21HandwritingRecognizer7IsValidEv(%"class.blink::HandwritingRecognizer"* nonnull %3) #11
  br label %7

7:                                                ; preds = %1, %5
  %8 = phi i1 [ false, %1 ], [ %6, %5 ]
  ret i1 %8
}

; Function Attrs: nounwind ssp uwtable
define hidden void @_ZN5blink18HandwritingDrawing12removeStrokeEPKNS_17HandwritingStrokeE(%"class.blink::HandwritingDrawing"*, %"class.blink::HandwritingStroke"*) local_unnamed_addr #0 align 2 {
  %3 = getelementptr inbounds %"class.blink::HandwritingDrawing", %"class.blink::HandwritingDrawing"* %0, i64 0, i32 2, i32 0
  %4 = getelementptr inbounds %"class.WTF::Vector", %"class.WTF::Vector"* %3, i64 0, i32 0, i32 0, i32 0
  %5 = load %"class.blink::Member.5"*, %"class.blink::Member.5"** %4, align 8
  %6 = getelementptr inbounds %"class.blink::HandwritingDrawing", %"class.blink::HandwritingDrawing"* %0, i64 0, i32 2, i32 0, i32 0, i32 0, i32 2
  %7 = load i32, i32* %6, align 4
  %8 = zext i32 %7 to i64
  %9 = getelementptr inbounds %"class.blink::Member.5", %"class.blink::Member.5"* %5, i64 %8
  br label %10

10:                                               ; preds = %13, %2
  %11 = phi %"class.blink::Member.5"* [ %9, %2 ], [ %14, %13 ]
  %12 = icmp ugt %"class.blink::Member.5"* %11, %5
  br i1 %12, label %13, label %26

13:                                               ; preds = %10
  %14 = getelementptr inbounds %"class.blink::Member.5", %"class.blink::Member.5"* %11, i64 -1
  %15 = getelementptr inbounds %"class.blink::Member.5", %"class.blink::Member.5"* %14, i64 0, i32 0, i32 0
  %16 = load %"class.blink::HandwritingStroke"*, %"class.blink::HandwritingStroke"** %15, align 8
  %17 = icmp eq %"class.blink::HandwritingStroke"* %16, %1
  br i1 %17, label %18, label %10

18:                                               ; preds = %13
  %19 = ptrtoint %"class.blink::Member.5"* %14 to i64
  %20 = ptrtoint %"class.blink::Member.5"* %5 to i64
  %21 = sub i64 %19, %20
  %22 = lshr exact i64 %21, 3
  %23 = trunc i64 %22 to i32
  %24 = icmp eq i32 %23, -1
  br i1 %24, label %26, label %25

25:                                               ; preds = %18
  tail call void @_ZN3WTF6VectorIN5blink6MemberINS1_17HandwritingStrokeEEELj0ENS1_13HeapAllocatorEE7EraseAtEj(%"class.WTF::Vector"* %3, i32 %23)
  br label %26

26:                                               ; preds = %10, %18, %25
  ret void
}

; Function Attrs: argmemonly nounwind
declare void @llvm.lifetime.start.p0i8(i64 immarg, i8* nocapture) #2

; Function Attrs: inlinehint nounwind ssp uwtable
define linkonce_odr hidden void @_ZN3WTF6VectorIN5blink6MemberINS1_17HandwritingStrokeEEELj0ENS1_13HeapAllocatorEE7EraseAtEj(%"class.WTF::Vector"*, i32) local_unnamed_addr #3 comdat align 2 {
  %3 = alloca %"class.logging::CheckOpResult", align 8
  %4 = alloca %"class.logging::CheckOpResult", align 8
  %5 = alloca %"class.logging::CheckError", align 8
  %6 = bitcast %"class.logging::CheckOpResult"* %4 to i8*
  call void @llvm.lifetime.start.p0i8(i64 8, i8* nonnull %6) #11
  %7 = getelementptr inbounds %"class.logging::CheckOpResult", %"class.logging::CheckOpResult"* %4, i64 0, i32 0
  store i8* inttoptr (i64 -6148914691236517206 to i8*), i8** %7, align 8
  %8 = getelementptr inbounds %"class.WTF::Vector", %"class.WTF::Vector"* %0, i64 0, i32 0, i32 0, i32 2
  %9 = load i32, i32* %8, align 4
  %10 = bitcast %"class.logging::CheckOpResult"* %3 to i8*
  call void @llvm.lifetime.start.p0i8(i64 8, i8* nonnull %10)
  %11 = icmp ugt i32 %9, %1
  br i1 %11, label %12, label %13

12:                                               ; preds = %2
  call void @llvm.lifetime.end.p0i8(i64 8, i8* nonnull %10)
  store i8* null, i8** %7, align 8
  br label %22

13:                                               ; preds = %2
  %14 = tail call i8* @_ZN7logging15CheckOpValueStrEj(i32 %1) #11
  %15 = tail call i8* @_ZN7logging15CheckOpValueStrEj(i32 %9) #11
  call void @_ZN7logging13CheckOpResultC1EPKcPcS3_(%"class.logging::CheckOpResult"* nonnull %3, i8* getelementptr inbounds ([18 x i8], [18 x i8]* @.str.14, i64 0, i64 0), i8* %14, i8* %15) #11
  %16 = getelementptr inbounds %"class.logging::CheckOpResult", %"class.logging::CheckOpResult"* %3, i64 0, i32 0
  %17 = load i8*, i8** %16, align 8
  call void @llvm.lifetime.end.p0i8(i64 8, i8* nonnull %10)
  store i8* %17, i8** %7, align 8
  %18 = icmp eq i8* %17, null
  br i1 %18, label %22, label %19

19:                                               ; preds = %13
  %20 = bitcast %"class.logging::CheckError"* %5 to i8*
  call void @llvm.lifetime.start.p0i8(i64 8, i8* nonnull %20) #11
  call void @_ZN7logging10CheckError7CheckOpEPKciPNS_13CheckOpResultE(%"class.logging::CheckError"* nonnull sret %5, i8* getelementptr inbounds ([55 x i8], [55 x i8]* @.str.4, i64 0, i64 0), i32 2050, %"class.logging::CheckOpResult"* nonnull %4) #11
  %21 = call dereferenceable(160) %"class.std::__1::basic_ostream"* @_ZN7logging10CheckError6streamEv(%"class.logging::CheckError"* nonnull %5) #11
  call void @_ZN7logging10CheckErrorD1Ev(%"class.logging::CheckError"* nonnull %5) #11
  call void @llvm.lifetime.end.p0i8(i64 8, i8* nonnull %20) #11
  br label %22

22:                                               ; preds = %12, %13, %19
  call void @llvm.lifetime.end.p0i8(i64 8, i8* nonnull %6) #11
  %23 = getelementptr inbounds %"class.WTF::Vector", %"class.WTF::Vector"* %0, i64 0, i32 0, i32 0, i32 0
  %24 = load %"class.blink::Member.5"*, %"class.blink::Member.5"** %23, align 8
  %25 = zext i32 %1 to i64
  %26 = getelementptr inbounds %"class.blink::Member.5", %"class.blink::Member.5"* %24, i64 %25
  %27 = getelementptr inbounds %"class.blink::Member.5", %"class.blink::Member.5"* %26, i64 1
  %28 = load i32, i32* %8, align 4
  %29 = zext i32 %28 to i64
  %30 = getelementptr inbounds %"class.blink::Member.5", %"class.blink::Member.5"* %24, i64 %29
  %31 = icmp ne %"class.blink::Member.5"* %26, null
  %32 = icmp ne %"class.blink::Member.5"* %27, null
  %33 = and i1 %31, %32
  br i1 %33, label %34, label %124, !prof !3

34:                                               ; preds = %22
  %35 = icmp ult %"class.blink::Member.5"* %27, %30
  br i1 %35, label %36, label %104

36:                                               ; preds = %34
  %37 = shl nuw nsw i64 %29, 3
  %38 = add nsw i64 %37, -9
  %39 = shl nuw nsw i64 %25, 3
  %40 = sub nsw i64 %38, %39
  %41 = lshr i64 %40, 3
  %42 = add nuw nsw i64 %41, 1
  %43 = and i64 %42, 7
  %44 = icmp eq i64 %43, 0
  br i1 %44, label %56, label %45

45:                                               ; preds = %36, %45
  %46 = phi %"class.blink::Member.5"* [ %53, %45 ], [ %26, %36 ]
  %47 = phi %"class.blink::Member.5"* [ %52, %45 ], [ %27, %36 ]
  %48 = phi i64 [ %54, %45 ], [ %43, %36 ]
  %49 = bitcast %"class.blink::Member.5"* %47 to i64*
  %50 = load i64, i64* %49, align 8
  %51 = bitcast %"class.blink::Member.5"* %46 to i64*
  store atomic i64 %50, i64* %51 monotonic, align 8
  %52 = getelementptr inbounds %"class.blink::Member.5", %"class.blink::Member.5"* %47, i64 1
  %53 = getelementptr inbounds %"class.blink::Member.5", %"class.blink::Member.5"* %46, i64 1
  %54 = add i64 %48, -1
  %55 = icmp eq i64 %54, 0
  br i1 %55, label %56, label %45, !llvm.loop !4

56:                                               ; preds = %45, %36
  %57 = phi %"class.blink::Member.5"* [ %26, %36 ], [ %53, %45 ]
  %58 = phi %"class.blink::Member.5"* [ %27, %36 ], [ %52, %45 ]
  %59 = icmp ult i64 %40, 56
  br i1 %59, label %104, label %60

60:                                               ; preds = %56, %60
  %61 = phi %"class.blink::Member.5"* [ %102, %60 ], [ %57, %56 ]
  %62 = phi %"class.blink::Member.5"* [ %101, %60 ], [ %58, %56 ]
  %63 = bitcast %"class.blink::Member.5"* %62 to i64*
  %64 = load i64, i64* %63, align 8
  %65 = bitcast %"class.blink::Member.5"* %61 to i64*
  store atomic i64 %64, i64* %65 monotonic, align 8
  %66 = getelementptr inbounds %"class.blink::Member.5", %"class.blink::Member.5"* %62, i64 1
  %67 = getelementptr inbounds %"class.blink::Member.5", %"class.blink::Member.5"* %61, i64 1
  %68 = bitcast %"class.blink::Member.5"* %66 to i64*
  %69 = load i64, i64* %68, align 8
  %70 = bitcast %"class.blink::Member.5"* %67 to i64*
  store atomic i64 %69, i64* %70 monotonic, align 8
  %71 = getelementptr inbounds %"class.blink::Member.5", %"class.blink::Member.5"* %62, i64 2
  %72 = getelementptr inbounds %"class.blink::Member.5", %"class.blink::Member.5"* %61, i64 2
  %73 = bitcast %"class.blink::Member.5"* %71 to i64*
  %74 = load i64, i64* %73, align 8
  %75 = bitcast %"class.blink::Member.5"* %72 to i64*
  store atomic i64 %74, i64* %75 monotonic, align 8
  %76 = getelementptr inbounds %"class.blink::Member.5", %"class.blink::Member.5"* %62, i64 3
  %77 = getelementptr inbounds %"class.blink::Member.5", %"class.blink::Member.5"* %61, i64 3
  %78 = bitcast %"class.blink::Member.5"* %76 to i64*
  %79 = load i64, i64* %78, align 8
  %80 = bitcast %"class.blink::Member.5"* %77 to i64*
  store atomic i64 %79, i64* %80 monotonic, align 8
  %81 = getelementptr inbounds %"class.blink::Member.5", %"class.blink::Member.5"* %62, i64 4
  %82 = getelementptr inbounds %"class.blink::Member.5", %"class.blink::Member.5"* %61, i64 4
  %83 = bitcast %"class.blink::Member.5"* %81 to i64*
  %84 = load i64, i64* %83, align 8
  %85 = bitcast %"class.blink::Member.5"* %82 to i64*
  store atomic i64 %84, i64* %85 monotonic, align 8
  %86 = getelementptr inbounds %"class.blink::Member.5", %"class.blink::Member.5"* %62, i64 5
  %87 = getelementptr inbounds %"class.blink::Member.5", %"class.blink::Member.5"* %61, i64 5
  %88 = bitcast %"class.blink::Member.5"* %86 to i64*
  %89 = load i64, i64* %88, align 8
  %90 = bitcast %"class.blink::Member.5"* %87 to i64*
  store atomic i64 %89, i64* %90 monotonic, align 8
  %91 = getelementptr inbounds %"class.blink::Member.5", %"class.blink::Member.5"* %62, i64 6
  %92 = getelementptr inbounds %"class.blink::Member.5", %"class.blink::Member.5"* %61, i64 6
  %93 = bitcast %"class.blink::Member.5"* %91 to i64*
  %94 = load i64, i64* %93, align 8
  %95 = bitcast %"class.blink::Member.5"* %92 to i64*
  store atomic i64 %94, i64* %95 monotonic, align 8
  %96 = getelementptr inbounds %"class.blink::Member.5", %"class.blink::Member.5"* %62, i64 7
  %97 = getelementptr inbounds %"class.blink::Member.5", %"class.blink::Member.5"* %61, i64 7
  %98 = bitcast %"class.blink::Member.5"* %96 to i64*
  %99 = load i64, i64* %98, align 8
  %100 = bitcast %"class.blink::Member.5"* %97 to i64*
  store atomic i64 %99, i64* %100 monotonic, align 8
  %101 = getelementptr inbounds %"class.blink::Member.5", %"class.blink::Member.5"* %62, i64 8
  %102 = getelementptr inbounds %"class.blink::Member.5", %"class.blink::Member.5"* %61, i64 8
  %103 = icmp ult %"class.blink::Member.5"* %101, %30
  br i1 %103, label %60, label %104

104:                                              ; preds = %56, %60, %34
  %105 = ptrtoint %"class.blink::Member.5"* %30 to i64
  %106 = ptrtoint %"class.blink::Member.5"* %27 to i64
  %107 = sub i64 %105, %106
  %108 = icmp eq i64 %107, 0
  br i1 %108, label %124, label %109

109:                                              ; preds = %104
  %110 = ashr exact i64 %107, 3
  br label %111

111:                                              ; preds = %121, %109
  %112 = phi i64 [ %114, %121 ], [ %110, %109 ]
  %113 = phi %"class.blink::Member.5"* [ %122, %121 ], [ %26, %109 ]
  %114 = add i64 %112, -1
  %115 = load atomic i32, i32* getelementptr inbounds (%"class.blink::AtomicEntryFlag", %"class.blink::AtomicEntryFlag"* @_ZN5blink11ThreadState25incremental_marking_flag_E, i64 0, i32 0, i32 0, i32 0, i32 0, i32 0, i32 0) monotonic, align 4
  %116 = icmp eq i32 %115, 0
  br i1 %116, label %121, label %117

117:                                              ; preds = %111
  %118 = bitcast %"class.blink::Member.5"* %113 to i8**
  %119 = load i8*, i8** %118, align 8
  %120 = call zeroext i1 @_ZN5blink14MarkingVisitor16WriteBarrierSlowEPv(i8* %119) #11
  br label %121

121:                                              ; preds = %117, %111
  %122 = getelementptr inbounds %"class.blink::Member.5", %"class.blink::Member.5"* %113, i64 1
  %123 = icmp eq i64 %114, 0
  br i1 %123, label %124, label %111

124:                                              ; preds = %121, %22, %104
  %125 = load %"class.blink::Member.5"*, %"class.blink::Member.5"** %23, align 8
  %126 = load i32, i32* %8, align 4
  %127 = zext i32 %126 to i64
  %128 = getelementptr inbounds %"class.blink::Member.5", %"class.blink::Member.5"* %125, i64 %127
  %129 = getelementptr inbounds %"class.blink::Member.5", %"class.blink::Member.5"* %128, i64 -1
  %130 = bitcast %"class.blink::Member.5"* %129 to i8*
  call void @_ZN3WTF13AtomicMemzeroEPvm(i8* %130, i64 8) #11
  %131 = load i32, i32* %8, align 4
  %132 = add i32 %131, -1
  store i32 %132, i32* %8, align 4
  ret void
}

; Function Attrs: argmemonly nounwind
declare void @llvm.lifetime.end.p0i8(i64 immarg, i8* nocapture) #2

; Function Attrs: nounwind ssp uwtable
define hidden void @_ZN5blink18HandwritingDrawing5clearEv(%"class.blink::HandwritingDrawing"* nocapture) local_unnamed_addr #0 align 2 {
  %2 = getelementptr inbounds %"class.blink::HandwritingDrawing", %"class.blink::HandwritingDrawing"* %0, i64 0, i32 2, i32 0
  %3 = getelementptr inbounds %"class.blink::HandwritingDrawing", %"class.blink::HandwritingDrawing"* %0, i64 0, i32 2, i32 0, i32 0, i32 0, i32 1
  %4 = load i32, i32* %3, align 8
  %5 = icmp eq i32 %4, 0
  br i1 %5, label %18, label %6

6:                                                ; preds = %1
  %7 = getelementptr inbounds %"class.blink::HandwritingDrawing", %"class.blink::HandwritingDrawing"* %0, i64 0, i32 2, i32 0, i32 0, i32 0, i32 2
  %8 = load i32, i32* %7, align 4
  %9 = icmp eq i32 %8, 0
  %10 = bitcast %"class.WTF::Vector"* %2 to i8**
  br i1 %9, label %15, label %11

11:                                               ; preds = %6
  %12 = load i8*, i8** %10, align 8
  %13 = zext i32 %8 to i64
  %14 = shl nuw nsw i64 %13, 3
  tail call void @_ZN3WTF13AtomicMemzeroEPvm(i8* %12, i64 %14) #11
  store i32 0, i32* %7, align 4
  br label %15

15:                                               ; preds = %11, %6
  %16 = load i8*, i8** %10, align 8
  %17 = bitcast %"class.WTF::Vector"* %2 to i64*
  store atomic i64 0, i64* %17 monotonic, align 8
  store i32 0, i32* %3, align 8
  tail call void @_ZN5blink13HeapAllocator17FreeVectorBackingEPv(i8* %16) #11
  br label %18

18:                                               ; preds = %1, %15
  ret void
}

; Function Attrs: norecurse nounwind readnone ssp uwtable
define hidden dereferenceable(16) %"class.blink::HeapVector"* @_ZN5blink18HandwritingDrawing10getStrokesEv(%"class.blink::HandwritingDrawing"* readnone) local_unnamed_addr #1 align 2 {
  %2 = getelementptr inbounds %"class.blink::HandwritingDrawing", %"class.blink::HandwritingDrawing"* %0, i64 0, i32 2
  ret %"class.blink::HeapVector"* %2
}

; Function Attrs: nounwind ssp uwtable
define hidden void @_ZN5blink18HandwritingDrawing13getPredictionEPNS_11ScriptStateE(%"class.blink::ScriptPromise"* noalias sret, %"class.blink::HandwritingDrawing"* nocapture readonly, %"class.blink::ScriptState"*) local_unnamed_addr #0 align 2 {
  %4 = alloca i32, align 4
  %5 = alloca %"class.WTF::Vector.296", align 8
  %6 = alloca %"class.mojo::StructPtr", align 8
  %7 = alloca %"class.WTF::Vector.296", align 8
  %8 = alloca %"class.mojo::InlinedStructPtr", align 8
  %9 = alloca %"class.base::OnceCallback", align 8
  %10 = alloca %"class.blink::Persistent.294", align 8
  %11 = alloca %"class.blink::Persistent.275", align 8
  %12 = tail call i8* @_ZN5blink10ThreadHeap8AllocateINS_21ScriptPromiseResolverEEEPhm(i64 104) #11
  %13 = bitcast i8* %12 to %"class.blink::ScriptPromiseResolver"*
  tail call void @_ZN5blink21ScriptPromiseResolverC1EPNS_11ScriptStateE(%"class.blink::ScriptPromiseResolver"* %13, %"class.blink::ScriptState"* %2) #11
  %14 = getelementptr inbounds i8, i8* %12, i64 -4
  %15 = bitcast i8* %14 to i16*
  %16 = load atomic i16, i16* %15 monotonic, align 2
  %17 = or i16 %16, 1
  store atomic i16 %17, i16* %15 release, align 2
  %18 = getelementptr inbounds i8, i8* %12, i64 48
  %19 = bitcast i8* %18 to %"class.blink::ScriptPromise::InternalResolver"*
  %20 = bitcast %"class.blink::ScriptPromise"* %0 to i8*
  call void @llvm.memset.p0i8.i64(i8* align 8 %20, i8 -86, i64 32, i1 false)
  tail call void @_ZNK5blink13ScriptPromise16InternalResolver7PromiseEv(%"class.blink::ScriptPromise"* sret %0, %"class.blink::ScriptPromise::InternalResolver"* %19) #11
  %21 = getelementptr inbounds %"class.blink::HandwritingDrawing", %"class.blink::HandwritingDrawing"* %1, i64 0, i32 3, i32 0, i32 0
  %22 = load %"class.blink::HandwritingRecognizer"*, %"class.blink::HandwritingRecognizer"** %21, align 8
  %23 = icmp eq %"class.blink::HandwritingRecognizer"* %22, null
  br i1 %23, label %26, label %24

24:                                               ; preds = %3
  %25 = tail call zeroext i1 @_ZN5blink21HandwritingRecognizer7IsValidEv(%"class.blink::HandwritingRecognizer"* nonnull %22) #11
  br i1 %25, label %29, label %26

26:                                               ; preds = %3, %24
  %27 = bitcast i32* %4 to i8*
  call void @llvm.lifetime.start.p0i8(i64 4, i8* nonnull %27) #11
  store i32 11, i32* %4, align 4
  %28 = call %"class.blink::DOMException"* @_ZN5blink25MakeGarbageCollectedTraitINS_12DOMExceptionEE4CallIJNS_16DOMExceptionCodeERA37_KcEEEPS1_DpOT_(i32* nonnull dereferenceable(4) %4, [37 x i8]* nonnull dereferenceable(37) @.str) #11
  call void @_ZN5blink21ScriptPromiseResolver15ResolveOrRejectIPNS_12DOMExceptionEEEvT_NS0_15ResolutionStateE(%"class.blink::ScriptPromiseResolver"* %13, %"class.blink::DOMException"* %28, i32 2) #11
  call void @llvm.lifetime.end.p0i8(i64 4, i8* nonnull %27) #11
  br label %256

29:                                               ; preds = %24
  %30 = bitcast %"class.WTF::Vector.296"* %5 to i8*
  call void @llvm.lifetime.start.p0i8(i64 16, i8* nonnull %30) #11
  %31 = getelementptr inbounds %"class.WTF::Vector.296", %"class.WTF::Vector.296"* %5, i64 0, i32 0, i32 0, i32 0
  %32 = getelementptr inbounds %"class.WTF::Vector.296", %"class.WTF::Vector.296"* %5, i64 0, i32 0, i32 0, i32 1
  %33 = getelementptr inbounds %"class.WTF::Vector.296", %"class.WTF::Vector.296"* %5, i64 0, i32 0, i32 0, i32 2
  call void @llvm.memset.p0i8.i64(i8* nonnull align 8 %30, i8 0, i64 16, i1 false) #11
  %34 = getelementptr inbounds %"class.blink::HandwritingDrawing", %"class.blink::HandwritingDrawing"* %1, i64 0, i32 2, i32 0, i32 0, i32 0, i32 0
  %35 = load %"class.blink::Member.5"*, %"class.blink::Member.5"** %34, align 8
  %36 = getelementptr inbounds %"class.blink::HandwritingDrawing", %"class.blink::HandwritingDrawing"* %1, i64 0, i32 2, i32 0, i32 0, i32 0, i32 2
  %37 = load i32, i32* %36, align 4
  %38 = zext i32 %37 to i64
  %39 = getelementptr inbounds %"class.blink::Member.5", %"class.blink::Member.5"* %35, i64 %38
  %40 = icmp eq i32 %37, 0
  br i1 %40, label %41, label %43

41:                                               ; preds = %29
  %42 = bitcast %"class.WTF::Vector.296"* %5 to i64*
  br label %52

43:                                               ; preds = %29
  %44 = bitcast %"class.mojo::StructPtr"* %6 to i8*
  %45 = bitcast %"class.mojo::StructPtr"* %6 to i64*
  %46 = getelementptr inbounds %"class.mojo::StructPtr", %"class.mojo::StructPtr"* %6, i64 0, i32 0, i32 0, i32 0, i32 0
  br label %232

47:                                               ; preds = %253
  %48 = bitcast %"class.WTF::Vector.296"* %5 to i64*
  %49 = load i64, i64* %48, align 8
  %50 = load i32, i32* %32, align 8
  %51 = load i32, i32* %33, align 4
  br label %52

52:                                               ; preds = %41, %47
  %53 = phi i64* [ %42, %41 ], [ %48, %47 ]
  %54 = phi i32 [ 0, %41 ], [ %51, %47 ]
  %55 = phi i32 [ 0, %41 ], [ %50, %47 ]
  %56 = phi i64 [ 0, %41 ], [ %49, %47 ]
  %57 = load %"class.blink::HandwritingRecognizer"*, %"class.blink::HandwritingRecognizer"** %21, align 8
  %58 = getelementptr inbounds %"class.WTF::Vector.296", %"class.WTF::Vector.296"* %7, i64 0, i32 0, i32 0, i32 1
  %59 = getelementptr inbounds %"class.WTF::Vector.296", %"class.WTF::Vector.296"* %7, i64 0, i32 0, i32 0, i32 2
  %60 = bitcast %"class.WTF::Vector.296"* %7 to i64*
  store i64 0, i64* %60, align 8
  %61 = bitcast %"class.WTF::Vector.296"* %7 to i64*
  store atomic i64 0, i64* %53 monotonic, align 8
  store atomic i64 %56, i64* %61 monotonic, align 8
  store i32 %55, i32* %58, align 8
  store i32 0, i32* %32, align 8
  store i32 %54, i32* %59, align 4
  store i32 0, i32* %33, align 4
  %62 = getelementptr inbounds %"class.blink::HandwritingDrawing", %"class.blink::HandwritingDrawing"* %1, i64 0, i32 1, i32 0, i32 0
  %63 = load %"class.blink::HandwritingHints"*, %"class.blink::HandwritingHints"** %62, align 8
  call void @_ZN4mojo13TypeConverterINS_16InlinedStructPtrIN11handwriting5mojom5blink16HandwritingHintsEEEPN5blink16HandwritingHintsEE7ConvertEPKS8_(%"class.mojo::InlinedStructPtr"* nonnull sret %8, %"class.blink::HandwritingHints"* %63) #11
  %64 = bitcast %"class.blink::Persistent.294"* %10 to i8*
  call void @llvm.lifetime.start.p0i8(i64 16, i8* nonnull %64) #11
  %65 = getelementptr inbounds %"class.blink::Persistent.294", %"class.blink::Persistent.294"* %10, i64 0, i32 0
  %66 = bitcast %"class.blink::Persistent.294"* %10 to i8**
  store i8* %12, i8** %66, align 8, !alias.scope !6
  %67 = getelementptr inbounds %"class.blink::Persistent.294", %"class.blink::Persistent.294"* %10, i64 0, i32 0, i32 1, i32 0
  store %"class.blink::PersistentNode"* null, %"class.blink::PersistentNode"** %67, align 8, !alias.scope !6
  %68 = ptrtoint i8* %12 to i64
  switch i64 %68, label %69 [
    i64 0, label %95
    i64 -1, label %95
  ]

69:                                               ; preds = %52
  %70 = load %"class.WTF::ThreadSpecific"*, %"class.WTF::ThreadSpecific"** @_ZN5blink11ThreadState16thread_specific_E, align 8, !noalias !6
  %71 = getelementptr inbounds %"class.WTF::ThreadSpecific", %"class.WTF::ThreadSpecific"* %70, i64 0, i32 1
  %72 = call i8* @_ZNK4base18ThreadLocalStorage4Slot3GetEv(%"class.base::ThreadLocalStorage::Slot"* %71) #11, !noalias !6
  %73 = icmp eq i8* %72, null
  br i1 %73, label %74, label %76, !prof !2

74:                                               ; preds = %69
  %75 = call i8* @_ZN3WTF10Partitions16FastZeroedMallocEmPKc(i64 8, i8* getelementptr inbounds ([68 x i8], [68 x i8]* @__PRETTY_FUNCTION__._ZN3WTF21GetStringWithTypeNameIPN5blink11ThreadStateEEEPKcv, i64 0, i64 0)) #11
  call void @_ZN4base18ThreadLocalStorage4Slot3SetEPv(%"class.base::ThreadLocalStorage::Slot"* %71, i8* %75) #11
  br label %76

76:                                               ; preds = %74, %69
  %77 = phi i8* [ %75, %74 ], [ %72, %69 ]
  %78 = bitcast i8* %77 to %"class.blink::ThreadState"**
  %79 = load %"class.blink::ThreadState"*, %"class.blink::ThreadState"** %78, align 8, !noalias !6
  %80 = getelementptr inbounds %"class.blink::ThreadState", %"class.blink::ThreadState"* %79, i64 0, i32 3, i32 0, i32 0, i32 0
  %81 = load %"class.blink::PersistentRegion"*, %"class.blink::PersistentRegion"** %80, align 8, !noalias !6
  %82 = getelementptr inbounds %"class.blink::PersistentRegion", %"class.blink::PersistentRegion"* %81, i64 0, i32 0, i32 0
  %83 = load %"class.blink::PersistentNode"*, %"class.blink::PersistentNode"** %82, align 8, !noalias !6
  %84 = icmp eq %"class.blink::PersistentNode"* %83, null
  br i1 %84, label %85, label %88, !prof !2

85:                                               ; preds = %76
  %86 = getelementptr inbounds %"class.blink::PersistentRegion", %"class.blink::PersistentRegion"* %81, i64 0, i32 0
  call void @_ZN5blink20PersistentRegionBase15EnsureNodeSlotsEv(%"class.blink::PersistentRegionBase"* %86) #11
  %87 = load %"class.blink::PersistentNode"*, %"class.blink::PersistentNode"** %82, align 8
  br label %88

88:                                               ; preds = %85, %76
  %89 = phi %"class.blink::PersistentNode"* [ %87, %85 ], [ %83, %76 ]
  %90 = bitcast %"class.blink::PersistentNode"* %89 to i64*
  %91 = load i64, i64* %90, align 8, !noalias !6
  %92 = bitcast %"class.blink::PersistentRegion"* %81 to i64*
  store i64 %91, i64* %92, align 8, !noalias !6
  %93 = bitcast %"class.blink::PersistentNode"* %89 to %"class.blink::PersistentBase.295"**
  store %"class.blink::PersistentBase.295"* %65, %"class.blink::PersistentBase.295"** %93, align 8, !noalias !6
  %94 = getelementptr inbounds %"class.blink::PersistentNode", %"class.blink::PersistentNode"* %89, i64 0, i32 1
  store void (%"class.blink::Visitor"*, i8*)* @_ZN5blink19TraceMethodDelegateINS_14PersistentBaseINS_21ScriptPromiseResolverELNS_31WeaknessPersistentConfigurationE0ELNS_38CrossThreadnessPersistentConfigurationE0EEEXadL_ZNKS5_15TracePersistentEPNS_7VisitorEEEE10TrampolineES7_PKv, void (%"class.blink::Visitor"*, i8*)** %94, align 8
  store %"class.blink::PersistentNode"* %89, %"class.blink::PersistentNode"** %67, align 8, !alias.scope !6
  br label %95

95:                                               ; preds = %52, %52, %88
  %96 = bitcast %"class.blink::Persistent.275"* %11 to i8*
  call void @llvm.lifetime.start.p0i8(i64 16, i8* nonnull %96) #11
  %97 = getelementptr inbounds %"class.blink::Persistent.275", %"class.blink::Persistent.275"* %11, i64 0, i32 0
  %98 = getelementptr inbounds %"class.blink::Persistent.275", %"class.blink::Persistent.275"* %11, i64 0, i32 0, i32 0
  store %"class.blink::ScriptState"* %2, %"class.blink::ScriptState"** %98, align 8, !alias.scope !9
  %99 = getelementptr inbounds %"class.blink::Persistent.275", %"class.blink::Persistent.275"* %11, i64 0, i32 0, i32 1, i32 0
  store %"class.blink::PersistentNode"* null, %"class.blink::PersistentNode"** %99, align 8, !alias.scope !9
  %100 = ptrtoint %"class.blink::ScriptState"* %2 to i64
  switch i64 %100, label %101 [
    i64 0, label %127
    i64 -1, label %127
  ]

101:                                              ; preds = %95
  %102 = load %"class.WTF::ThreadSpecific"*, %"class.WTF::ThreadSpecific"** @_ZN5blink11ThreadState16thread_specific_E, align 8, !noalias !9
  %103 = getelementptr inbounds %"class.WTF::ThreadSpecific", %"class.WTF::ThreadSpecific"* %102, i64 0, i32 1
  %104 = call i8* @_ZNK4base18ThreadLocalStorage4Slot3GetEv(%"class.base::ThreadLocalStorage::Slot"* %103) #11, !noalias !9
  %105 = icmp eq i8* %104, null
  br i1 %105, label %106, label %108, !prof !2

106:                                              ; preds = %101
  %107 = call i8* @_ZN3WTF10Partitions16FastZeroedMallocEmPKc(i64 8, i8* getelementptr inbounds ([68 x i8], [68 x i8]* @__PRETTY_FUNCTION__._ZN3WTF21GetStringWithTypeNameIPN5blink11ThreadStateEEEPKcv, i64 0, i64 0)) #11
  call void @_ZN4base18ThreadLocalStorage4Slot3SetEPv(%"class.base::ThreadLocalStorage::Slot"* %103, i8* %107) #11
  br label %108

108:                                              ; preds = %106, %101
  %109 = phi i8* [ %107, %106 ], [ %104, %101 ]
  %110 = bitcast i8* %109 to %"class.blink::ThreadState"**
  %111 = load %"class.blink::ThreadState"*, %"class.blink::ThreadState"** %110, align 8, !noalias !9
  %112 = getelementptr inbounds %"class.blink::ThreadState", %"class.blink::ThreadState"* %111, i64 0, i32 3, i32 0, i32 0, i32 0
  %113 = load %"class.blink::PersistentRegion"*, %"class.blink::PersistentRegion"** %112, align 8, !noalias !9
  %114 = getelementptr inbounds %"class.blink::PersistentRegion", %"class.blink::PersistentRegion"* %113, i64 0, i32 0, i32 0
  %115 = load %"class.blink::PersistentNode"*, %"class.blink::PersistentNode"** %114, align 8, !noalias !9
  %116 = icmp eq %"class.blink::PersistentNode"* %115, null
  br i1 %116, label %117, label %120, !prof !2

117:                                              ; preds = %108
  %118 = getelementptr inbounds %"class.blink::PersistentRegion", %"class.blink::PersistentRegion"* %113, i64 0, i32 0
  call void @_ZN5blink20PersistentRegionBase15EnsureNodeSlotsEv(%"class.blink::PersistentRegionBase"* %118) #11
  %119 = load %"class.blink::PersistentNode"*, %"class.blink::PersistentNode"** %114, align 8
  br label %120

120:                                              ; preds = %117, %108
  %121 = phi %"class.blink::PersistentNode"* [ %119, %117 ], [ %115, %108 ]
  %122 = bitcast %"class.blink::PersistentNode"* %121 to i64*
  %123 = load i64, i64* %122, align 8, !noalias !9
  %124 = bitcast %"class.blink::PersistentRegion"* %113 to i64*
  store i64 %123, i64* %124, align 8, !noalias !9
  %125 = bitcast %"class.blink::PersistentNode"* %121 to %"class.blink::PersistentBase.276"**
  store %"class.blink::PersistentBase.276"* %97, %"class.blink::PersistentBase.276"** %125, align 8, !noalias !9
  %126 = getelementptr inbounds %"class.blink::PersistentNode", %"class.blink::PersistentNode"* %121, i64 0, i32 1
  store void (%"class.blink::Visitor"*, i8*)* @_ZN5blink19TraceMethodDelegateINS_14PersistentBaseINS_11ScriptStateELNS_31WeaknessPersistentConfigurationE0ELNS_38CrossThreadnessPersistentConfigurationE0EEEXadL_ZNKS5_15TracePersistentEPNS_7VisitorEEEE10TrampolineES7_PKv, void (%"class.blink::Visitor"*, i8*)** %126, align 8
  store %"class.blink::PersistentNode"* %121, %"class.blink::PersistentNode"** %99, align 8, !alias.scope !9
  br label %127

127:                                              ; preds = %95, %95, %120
  %128 = call i8* @_Znwm(i64 72) #12, !noalias !12
  %129 = bitcast i8* %128 to %"class.base::internal::BindStateBase"*
  call void @_ZN4base8internal13BindStateBaseC2EPFvvEPFvPKS1_E(%"class.base::internal::BindStateBase"* nonnull %129, void ()* bitcast (void (%"class.base::internal::BindStateBase"*, %"class.absl::optional.325"*)* @_ZN4base8internal7InvokerINS0_9BindStateIPFvPN5blink21ScriptPromiseResolverEPNS3_11ScriptStateEN4absl8optionalIN3WTF6VectorIN4mojo9StructPtrIN11handwriting5mojom5blink21HandwritingPredictionEEELj0ENSA_18PartitionAllocatorEEEEEEJNS3_10PersistentIS4_EENSO_IS6_EEEEEFvSL_EE7RunOnceEPNS0_13BindStateBaseEOSL_ to void ()*), void (%"class.base::internal::BindStateBase"*)* nonnull @_ZN4base8internal9BindStateIPFvPN5blink21ScriptPromiseResolverEPNS2_11ScriptStateEN4absl8optionalIN3WTF6VectorIN4mojo9StructPtrIN11handwriting5mojom5blink21HandwritingPredictionEEELj0ENS9_18PartitionAllocatorEEEEEEJNS2_10PersistentIS3_EENSN_IS5_EEEE7DestroyEPKNS0_13BindStateBaseE) #11, !noalias !12
  %130 = getelementptr inbounds i8, i8* %128, i64 32
  %131 = bitcast i8* %130 to i64*
  store i64 ptrtoint (void (%"class.blink::ScriptPromiseResolver"*, %"class.blink::ScriptState"*, %"class.absl::optional.325"*)* @_ZN5blink12_GLOBAL__N_119OnRecognitionResultEPNS_21ScriptPromiseResolverEPNS_11ScriptStateEN4absl8optionalIN3WTF6VectorIN4mojo9StructPtrIN11handwriting5mojom5blink21HandwritingPredictionEEELj0ENS7_18PartitionAllocatorEEEEE to i64), i64* %131, align 8, !noalias !12
  %132 = getelementptr inbounds i8, i8* %128, i64 40
  %133 = bitcast i8* %132 to %"struct.std::__1::__tuple_impl"*
  call void @_ZNSt3__112__tuple_implINS_15__tuple_indicesIJLm0ELm1EEEEJN5blink10PersistentINS3_21ScriptPromiseResolverEEENS4_INS3_11ScriptStateEEEEEC2IJLm0ELm1EEJS6_S8_EJEJEJS6_S8_EEENS1_IJXspT_EEEENS_13__tuple_typesIJDpT0_EEENS1_IJXspT1_EEEENSC_IJDpT2_EEEDpOT3_(%"struct.std::__1::__tuple_impl"* %133, %"class.blink::Persistent.294"* nonnull dereferenceable(16) %10, %"class.blink::Persistent.275"* nonnull dereferenceable(16) %11) #11, !noalias !12
  %134 = bitcast %"class.base::OnceCallback"* %9 to i8**
  store i8* %128, i8** %134, align 8, !alias.scope !12
  call void @_ZN5blink21HandwritingRecognizer13GetPredictionEN3WTF6VectorIN4mojo9StructPtrIN11handwriting5mojom5blink17HandwritingStrokeEEELj0ENS1_18PartitionAllocatorEEENS3_16InlinedStructPtrINS7_16HandwritingHintsEEEN4base12OnceCallbackIFvN4absl8optionalINS2_INS4_INS7_21HandwritingPredictionEEELj0ESA_EEEEEEE(%"class.blink::HandwritingRecognizer"* %57, %"class.WTF::Vector.296"* nonnull %7, %"class.mojo::InlinedStructPtr"* nonnull %8, %"class.base::OnceCallback"* nonnull %9) #11
  %135 = getelementptr inbounds %"class.base::OnceCallback", %"class.base::OnceCallback"* %9, i64 0, i32 0
  call void @_ZN4base8internal12CallbackBaseD2Ev(%"class.base::internal::CallbackBase"* nonnull %135) #11
  %136 = load %"class.blink::PersistentNode"*, %"class.blink::PersistentNode"** %99, align 8
  %137 = icmp eq %"class.blink::PersistentNode"* %136, null
  br i1 %137, label %157, label %138

138:                                              ; preds = %127
  %139 = load %"class.WTF::ThreadSpecific"*, %"class.WTF::ThreadSpecific"** @_ZN5blink11ThreadState16thread_specific_E, align 8
  %140 = getelementptr inbounds %"class.WTF::ThreadSpecific", %"class.WTF::ThreadSpecific"* %139, i64 0, i32 1
  %141 = call i8* @_ZNK4base18ThreadLocalStorage4Slot3GetEv(%"class.base::ThreadLocalStorage::Slot"* %140) #11
  %142 = icmp eq i8* %141, null
  br i1 %142, label %143, label %145, !prof !2

143:                                              ; preds = %138
  %144 = call i8* @_ZN3WTF10Partitions16FastZeroedMallocEmPKc(i64 8, i8* getelementptr inbounds ([68 x i8], [68 x i8]* @__PRETTY_FUNCTION__._ZN3WTF21GetStringWithTypeNameIPN5blink11ThreadStateEEEPKcv, i64 0, i64 0)) #11
  call void @_ZN4base18ThreadLocalStorage4Slot3SetEPv(%"class.base::ThreadLocalStorage::Slot"* %140, i8* %144) #11
  br label %145

145:                                              ; preds = %143, %138
  %146 = phi i8* [ %144, %143 ], [ %141, %138 ]
  %147 = bitcast i8* %146 to %"class.blink::ThreadState"**
  %148 = load %"class.blink::ThreadState"*, %"class.blink::ThreadState"** %147, align 8
  %149 = getelementptr inbounds %"class.blink::ThreadState", %"class.blink::ThreadState"* %148, i64 0, i32 3, i32 0, i32 0, i32 0
  %150 = load %"class.blink::PersistentRegion"*, %"class.blink::PersistentRegion"** %149, align 8
  %151 = load %"class.blink::PersistentNode"*, %"class.blink::PersistentNode"** %99, align 8
  %152 = getelementptr inbounds %"class.blink::PersistentRegion", %"class.blink::PersistentRegion"* %150, i64 0, i32 0, i32 0
  %153 = bitcast %"class.blink::PersistentRegion"* %150 to i64*
  %154 = load i64, i64* %153, align 8
  %155 = bitcast %"class.blink::PersistentNode"* %151 to i64*
  store i64 %154, i64* %155, align 8
  %156 = getelementptr inbounds %"class.blink::PersistentNode", %"class.blink::PersistentNode"* %151, i64 0, i32 1
  store void (%"class.blink::Visitor"*, i8*)* null, void (%"class.blink::Visitor"*, i8*)** %156, align 8
  store %"class.blink::PersistentNode"* %151, %"class.blink::PersistentNode"** %152, align 8
  store %"class.blink::PersistentNode"* null, %"class.blink::PersistentNode"** %99, align 8
  br label %157

157:                                              ; preds = %127, %145
  call void @llvm.lifetime.end.p0i8(i64 16, i8* nonnull %96) #11
  %158 = load %"class.blink::PersistentNode"*, %"class.blink::PersistentNode"** %67, align 8
  %159 = icmp eq %"class.blink::PersistentNode"* %158, null
  br i1 %159, label %179, label %160

160:                                              ; preds = %157
  %161 = load %"class.WTF::ThreadSpecific"*, %"class.WTF::ThreadSpecific"** @_ZN5blink11ThreadState16thread_specific_E, align 8
  %162 = getelementptr inbounds %"class.WTF::ThreadSpecific", %"class.WTF::ThreadSpecific"* %161, i64 0, i32 1
  %163 = call i8* @_ZNK4base18ThreadLocalStorage4Slot3GetEv(%"class.base::ThreadLocalStorage::Slot"* %162) #11
  %164 = icmp eq i8* %163, null
  br i1 %164, label %165, label %167, !prof !2

165:                                              ; preds = %160
  %166 = call i8* @_ZN3WTF10Partitions16FastZeroedMallocEmPKc(i64 8, i8* getelementptr inbounds ([68 x i8], [68 x i8]* @__PRETTY_FUNCTION__._ZN3WTF21GetStringWithTypeNameIPN5blink11ThreadStateEEEPKcv, i64 0, i64 0)) #11
  call void @_ZN4base18ThreadLocalStorage4Slot3SetEPv(%"class.base::ThreadLocalStorage::Slot"* %162, i8* %166) #11
  br label %167

167:                                              ; preds = %165, %160
  %168 = phi i8* [ %166, %165 ], [ %163, %160 ]
  %169 = bitcast i8* %168 to %"class.blink::ThreadState"**
  %170 = load %"class.blink::ThreadState"*, %"class.blink::ThreadState"** %169, align 8
  %171 = getelementptr inbounds %"class.blink::ThreadState", %"class.blink::ThreadState"* %170, i64 0, i32 3, i32 0, i32 0, i32 0
  %172 = load %"class.blink::PersistentRegion"*, %"class.blink::PersistentRegion"** %171, align 8
  %173 = load %"class.blink::PersistentNode"*, %"class.blink::PersistentNode"** %67, align 8
  %174 = getelementptr inbounds %"class.blink::PersistentRegion", %"class.blink::PersistentRegion"* %172, i64 0, i32 0, i32 0
  %175 = bitcast %"class.blink::PersistentRegion"* %172 to i64*
  %176 = load i64, i64* %175, align 8
  %177 = bitcast %"class.blink::PersistentNode"* %173 to i64*
  store i64 %176, i64* %177, align 8
  %178 = getelementptr inbounds %"class.blink::PersistentNode", %"class.blink::PersistentNode"* %173, i64 0, i32 1
  store void (%"class.blink::Visitor"*, i8*)* null, void (%"class.blink::Visitor"*, i8*)** %178, align 8
  store %"class.blink::PersistentNode"* %173, %"class.blink::PersistentNode"** %174, align 8
  store %"class.blink::PersistentNode"* null, %"class.blink::PersistentNode"** %67, align 8
  br label %179

179:                                              ; preds = %157, %167
  call void @llvm.lifetime.end.p0i8(i64 16, i8* nonnull %64) #11
  %180 = getelementptr inbounds %"class.mojo::InlinedStructPtr", %"class.mojo::InlinedStructPtr"* %8, i64 0, i32 0
  call void @_ZN11handwriting5mojom5blink16HandwritingHintsD1Ev(%"class.handwriting::mojom::blink::HandwritingHints"* nonnull %180) #11
  %181 = getelementptr inbounds %"class.WTF::Vector.296", %"class.WTF::Vector.296"* %7, i64 0, i32 0, i32 0, i32 0
  %182 = load %"class.mojo::StructPtr"*, %"class.mojo::StructPtr"** %181, align 8
  %183 = icmp eq %"class.mojo::StructPtr"* %182, null
  br i1 %183, label %206, label %184, !prof !3

184:                                              ; preds = %179
  %185 = bitcast %"class.mojo::StructPtr"* %182 to i8*
  %186 = load i32, i32* %59, align 4
  %187 = icmp eq i32 %186, 0
  br i1 %187, label %204, label %188, !prof !2

188:                                              ; preds = %184
  %189 = zext i32 %186 to i64
  %190 = getelementptr inbounds %"class.mojo::StructPtr", %"class.mojo::StructPtr"* %182, i64 %189
  br label %191

191:                                              ; preds = %198, %188
  %192 = phi %"class.mojo::StructPtr"* [ %199, %198 ], [ %182, %188 ]
  %193 = getelementptr inbounds %"class.mojo::StructPtr", %"class.mojo::StructPtr"* %192, i64 0, i32 0, i32 0, i32 0, i32 0
  %194 = load %"class.handwriting::mojom::blink::HandwritingStroke"*, %"class.handwriting::mojom::blink::HandwritingStroke"** %193, align 8
  store %"class.handwriting::mojom::blink::HandwritingStroke"* null, %"class.handwriting::mojom::blink::HandwritingStroke"** %193, align 8
  %195 = icmp eq %"class.handwriting::mojom::blink::HandwritingStroke"* %194, null
  br i1 %195, label %198, label %196

196:                                              ; preds = %191
  call void @_ZN11handwriting5mojom5blink17HandwritingStrokeD1Ev(%"class.handwriting::mojom::blink::HandwritingStroke"* nonnull %194) #11
  %197 = bitcast %"class.handwriting::mojom::blink::HandwritingStroke"* %194 to i8*
  call void @_ZdlPv(i8* %197) #12
  br label %198

198:                                              ; preds = %196, %191
  %199 = getelementptr inbounds %"class.mojo::StructPtr", %"class.mojo::StructPtr"* %192, i64 1
  %200 = icmp eq %"class.mojo::StructPtr"* %199, %190
  br i1 %200, label %201, label %191

201:                                              ; preds = %198
  store i32 0, i32* %59, align 4
  %202 = bitcast %"class.WTF::Vector.296"* %7 to i8**
  %203 = load i8*, i8** %202, align 8
  br label %204

204:                                              ; preds = %201, %184
  %205 = phi i8* [ %203, %201 ], [ %185, %184 ]
  call void @_ZN3WTF18PartitionAllocator11FreeBackingEPv(i8* %205) #11
  store %"class.mojo::StructPtr"* null, %"class.mojo::StructPtr"** %181, align 8
  br label %206

206:                                              ; preds = %179, %204
  %207 = load %"class.mojo::StructPtr"*, %"class.mojo::StructPtr"** %31, align 8
  %208 = icmp eq %"class.mojo::StructPtr"* %207, null
  br i1 %208, label %231, label %209, !prof !3

209:                                              ; preds = %206
  %210 = bitcast %"class.mojo::StructPtr"* %207 to i8*
  %211 = load i32, i32* %33, align 4
  %212 = icmp eq i32 %211, 0
  br i1 %212, label %229, label %213, !prof !2

213:                                              ; preds = %209
  %214 = zext i32 %211 to i64
  %215 = getelementptr inbounds %"class.mojo::StructPtr", %"class.mojo::StructPtr"* %207, i64 %214
  br label %216

216:                                              ; preds = %223, %213
  %217 = phi %"class.mojo::StructPtr"* [ %224, %223 ], [ %207, %213 ]
  %218 = getelementptr inbounds %"class.mojo::StructPtr", %"class.mojo::StructPtr"* %217, i64 0, i32 0, i32 0, i32 0, i32 0
  %219 = load %"class.handwriting::mojom::blink::HandwritingStroke"*, %"class.handwriting::mojom::blink::HandwritingStroke"** %218, align 8
  store %"class.handwriting::mojom::blink::HandwritingStroke"* null, %"class.handwriting::mojom::blink::HandwritingStroke"** %218, align 8
  %220 = icmp eq %"class.handwriting::mojom::blink::HandwritingStroke"* %219, null
  br i1 %220, label %223, label %221

221:                                              ; preds = %216
  call void @_ZN11handwriting5mojom5blink17HandwritingStrokeD1Ev(%"class.handwriting::mojom::blink::HandwritingStroke"* nonnull %219) #11
  %222 = bitcast %"class.handwriting::mojom::blink::HandwritingStroke"* %219 to i8*
  call void @_ZdlPv(i8* %222) #12
  br label %223

223:                                              ; preds = %221, %216
  %224 = getelementptr inbounds %"class.mojo::StructPtr", %"class.mojo::StructPtr"* %217, i64 1
  %225 = icmp eq %"class.mojo::StructPtr"* %224, %215
  br i1 %225, label %226, label %216

226:                                              ; preds = %223
  store i32 0, i32* %33, align 4
  %227 = bitcast %"class.WTF::Vector.296"* %5 to i8**
  %228 = load i8*, i8** %227, align 8
  br label %229

229:                                              ; preds = %226, %209
  %230 = phi i8* [ %228, %226 ], [ %210, %209 ]
  call void @_ZN3WTF18PartitionAllocator11FreeBackingEPv(i8* %230) #11
  store %"class.mojo::StructPtr"* null, %"class.mojo::StructPtr"** %31, align 8
  br label %231

231:                                              ; preds = %206, %229
  call void @llvm.lifetime.end.p0i8(i64 16, i8* nonnull %30) #11
  br label %256

232:                                              ; preds = %43, %253
  %233 = phi %"class.blink::Member.5"* [ %35, %43 ], [ %254, %253 ]
  call void @llvm.lifetime.start.p0i8(i64 8, i8* nonnull %44) #11
  %234 = getelementptr inbounds %"class.blink::Member.5", %"class.blink::Member.5"* %233, i64 0, i32 0, i32 0
  %235 = load %"class.blink::HandwritingStroke"*, %"class.blink::HandwritingStroke"** %234, align 8
  call void @_ZN4mojo13TypeConverterINS_9StructPtrIN11handwriting5mojom5blink17HandwritingStrokeEEEPN5blink17HandwritingStrokeEE7ConvertEPKS8_(%"class.mojo::StructPtr"* nonnull sret %6, %"class.blink::HandwritingStroke"* %235) #11
  %236 = load i32, i32* %33, align 4
  %237 = load i32, i32* %32, align 8
  %238 = icmp eq i32 %236, %237
  br i1 %238, label %248, label %239, !prof !2

239:                                              ; preds = %232
  %240 = load %"class.mojo::StructPtr"*, %"class.mojo::StructPtr"** %31, align 8
  %241 = zext i32 %236 to i64
  %242 = getelementptr inbounds %"class.mojo::StructPtr", %"class.mojo::StructPtr"* %240, i64 %241
  %243 = bitcast %"class.mojo::StructPtr"* %242 to i64*
  %244 = getelementptr inbounds %"class.mojo::StructPtr", %"class.mojo::StructPtr"* %242, i64 0, i32 0, i32 0, i32 0, i32 0
  store %"class.handwriting::mojom::blink::HandwritingStroke"* null, %"class.handwriting::mojom::blink::HandwritingStroke"** %244, align 8
  %245 = load i64, i64* %45, align 8
  store i64 %245, i64* %243, align 8
  %246 = load i32, i32* %33, align 4
  %247 = add i32 %246, 1
  store i32 %247, i32* %33, align 4
  store %"class.handwriting::mojom::blink::HandwritingStroke"* null, %"class.handwriting::mojom::blink::HandwritingStroke"** %46, align 8
  br label %253

248:                                              ; preds = %232
  call void @_ZN3WTF6VectorIN4mojo9StructPtrIN11handwriting5mojom5blink17HandwritingStrokeEEELj0ENS_18PartitionAllocatorEE14AppendSlowCaseIS7_EEvOT_(%"class.WTF::Vector.296"* nonnull %5, %"class.mojo::StructPtr"* nonnull dereferenceable(8) %6) #11
  %249 = load %"class.handwriting::mojom::blink::HandwritingStroke"*, %"class.handwriting::mojom::blink::HandwritingStroke"** %46, align 8
  store %"class.handwriting::mojom::blink::HandwritingStroke"* null, %"class.handwriting::mojom::blink::HandwritingStroke"** %46, align 8
  %250 = icmp eq %"class.handwriting::mojom::blink::HandwritingStroke"* %249, null
  br i1 %250, label %253, label %251

251:                                              ; preds = %248
  %252 = bitcast %"class.handwriting::mojom::blink::HandwritingStroke"* %249 to i8*
  call void @_ZN11handwriting5mojom5blink17HandwritingStrokeD1Ev(%"class.handwriting::mojom::blink::HandwritingStroke"* nonnull %249) #11
  call void @_ZdlPv(i8* %252) #12
  br label %253

253:                                              ; preds = %239, %248, %251
  call void @llvm.lifetime.end.p0i8(i64 8, i8* nonnull %44) #11
  %254 = getelementptr inbounds %"class.blink::Member.5", %"class.blink::Member.5"* %233, i64 1
  %255 = icmp eq %"class.blink::Member.5"* %254, %39
  br i1 %255, label %47, label %232

256:                                              ; preds = %26, %231
  ret void
}

declare void @_ZN5blink21HandwritingRecognizer13GetPredictionEN3WTF6VectorIN4mojo9StructPtrIN11handwriting5mojom5blink17HandwritingStrokeEEELj0ENS1_18PartitionAllocatorEEENS3_16InlinedStructPtrINS7_16HandwritingHintsEEEN4base12OnceCallbackIFvN4absl8optionalINS2_INS4_INS7_21HandwritingPredictionEEELj0ESA_EEEEEEE(%"class.blink::HandwritingRecognizer"*, %"class.WTF::Vector.296"*, %"class.mojo::InlinedStructPtr"*, %"class.base::OnceCallback"*) local_unnamed_addr #4

; Function Attrs: nounwind ssp uwtable
define internal void @_ZN5blink12_GLOBAL__N_119OnRecognitionResultEPNS_21ScriptPromiseResolverEPNS_11ScriptStateEN4absl8optionalIN3WTF6VectorIN4mojo9StructPtrIN11handwriting5mojom5blink21HandwritingPredictionEEELj0ENS7_18PartitionAllocatorEEEEE(%"class.blink::ScriptPromiseResolver"*, %"class.blink::ScriptState"* nocapture readnone, %"class.absl::optional.325"* nocapture readonly) #0 {
  %4 = alloca %"class.blink::HeapVector.366", align 8
  %5 = alloca i32, align 4
  %6 = alloca %"class.blink::HeapVector.366", align 8
  %7 = alloca %"class.blink::HandwritingPrediction"*, align 8
  %8 = alloca %"class.blink::HeapVector.366", align 8
  %9 = getelementptr inbounds %"class.absl::optional.325", %"class.absl::optional.325"* %2, i64 0, i32 0, i32 0, i32 0, i32 0
  %10 = load i8, i8* %9, align 8, !range !19
  %11 = icmp eq i8 %10, 0
  br i1 %11, label %12, label %15

12:                                               ; preds = %3
  %13 = bitcast i32* %5 to i8*
  call void @llvm.lifetime.start.p0i8(i64 4, i8* nonnull %13) #11
  store i32 28, i32* %5, align 4
  %14 = call %"class.blink::DOMException"* @_ZN5blink25MakeGarbageCollectedTraitINS_12DOMExceptionEE4CallIJNS_16DOMExceptionCodeERA16_KcEEEPS1_DpOT_(i32* nonnull dereferenceable(4) %5, [16 x i8]* nonnull dereferenceable(16) @.str.1) #11
  call void @_ZN5blink21ScriptPromiseResolver15ResolveOrRejectIPNS_12DOMExceptionEEEvT_NS0_15ResolutionStateE(%"class.blink::ScriptPromiseResolver"* %0, %"class.blink::DOMException"* %14, i32 2) #11
  call void @llvm.lifetime.end.p0i8(i64 4, i8* nonnull %13) #11
  br label %86

15:                                               ; preds = %3
  %16 = bitcast %"class.blink::HeapVector.366"* %6 to i8*
  call void @llvm.lifetime.start.p0i8(i64 16, i8* nonnull %16) #11
  %17 = getelementptr inbounds %"class.blink::HeapVector.366", %"class.blink::HeapVector.366"* %6, i64 0, i32 0, i32 0, i32 0, i32 0
  %18 = getelementptr inbounds %"class.blink::HeapVector.366", %"class.blink::HeapVector.366"* %6, i64 0, i32 0, i32 0, i32 0, i32 1
  %19 = getelementptr inbounds %"class.blink::HeapVector.366", %"class.blink::HeapVector.366"* %6, i64 0, i32 0, i32 0, i32 0, i32 2
  call void @llvm.memset.p0i8.i64(i8* nonnull align 8 %16, i8 0, i64 16, i1 false) #11
  %20 = getelementptr inbounds %"class.absl::optional.325", %"class.absl::optional.325"* %2, i64 0, i32 0, i32 0, i32 0, i32 1, i32 0, i32 0, i32 0, i32 0
  %21 = load %"class.mojo::StructPtr.333"*, %"class.mojo::StructPtr.333"** %20, align 8
  %22 = getelementptr inbounds %"class.absl::optional.325", %"class.absl::optional.325"* %2, i64 0, i32 0, i32 0, i32 0, i32 1, i32 0, i32 0, i32 0, i32 2
  %23 = load i32, i32* %22, align 4
  %24 = zext i32 %23 to i64
  %25 = getelementptr inbounds %"class.mojo::StructPtr.333", %"class.mojo::StructPtr.333"* %21, i64 %24
  %26 = icmp eq i32 %23, 0
  br i1 %26, label %27, label %29

27:                                               ; preds = %15
  %28 = bitcast %"class.blink::HeapVector.366"* %6 to i64*
  br label %37

29:                                               ; preds = %15
  %30 = bitcast %"class.blink::HandwritingPrediction"** %7 to i8*
  %31 = getelementptr inbounds %"class.blink::HeapVector.366", %"class.blink::HeapVector.366"* %6, i64 0, i32 0
  br label %62

32:                                               ; preds = %83
  %33 = bitcast %"class.blink::HeapVector.366"* %6 to i64*
  %34 = load i64, i64* %33, align 8
  %35 = load i32, i32* %18, align 8
  %36 = load i32, i32* %19, align 4
  br label %37

37:                                               ; preds = %27, %32
  %38 = phi i64* [ %28, %27 ], [ %33, %32 ]
  %39 = phi i32 [ 0, %27 ], [ %36, %32 ]
  %40 = phi i32 [ 0, %27 ], [ %35, %32 ]
  %41 = phi i64 [ 0, %27 ], [ %34, %32 ]
  %42 = getelementptr inbounds %"class.blink::HeapVector.366", %"class.blink::HeapVector.366"* %8, i64 0, i32 0, i32 0, i32 0, i32 1
  %43 = getelementptr inbounds %"class.blink::HeapVector.366", %"class.blink::HeapVector.366"* %8, i64 0, i32 0, i32 0, i32 0, i32 2
  %44 = bitcast %"class.blink::HeapVector.366"* %8 to i64*
  store i64 0, i64* %44, align 8
  %45 = bitcast %"class.blink::HeapVector.366"* %8 to i64*
  store atomic i64 0, i64* %38 monotonic, align 8
  store atomic i64 %41, i64* %45 monotonic, align 8
  store i32 %40, i32* %42, align 8
  store i32 0, i32* %18, align 8
  store i32 %39, i32* %43, align 4
  store i32 0, i32* %19, align 4
  %46 = load atomic i32, i32* getelementptr inbounds (%"class.blink::AtomicEntryFlag", %"class.blink::AtomicEntryFlag"* @_ZN5blink11ThreadState25incremental_marking_flag_E, i64 0, i32 0, i32 0, i32 0, i32 0, i32 0, i32 0) monotonic, align 4
  %47 = icmp eq i32 %46, 0
  br i1 %47, label %51, label %48

48:                                               ; preds = %37
  %49 = inttoptr i64 %41 to i8*
  %50 = call zeroext i1 @_ZN5blink14MarkingVisitor16WriteBarrierSlowEPv(i8* %49) #11
  br label %51

51:                                               ; preds = %48, %37
  %52 = load atomic i32, i32* getelementptr inbounds (%"class.blink::AtomicEntryFlag", %"class.blink::AtomicEntryFlag"* @_ZN5blink11ThreadState25incremental_marking_flag_E, i64 0, i32 0, i32 0, i32 0, i32 0, i32 0, i32 0) monotonic, align 4
  %53 = icmp eq i32 %52, 0
  br i1 %53, label %58, label %54

54:                                               ; preds = %51
  %55 = bitcast %"class.blink::HeapVector.366"* %6 to i8**
  %56 = load i8*, i8** %55, align 8
  %57 = call zeroext i1 @_ZN5blink14MarkingVisitor16WriteBarrierSlowEPv(i8* %56) #11
  br label %58

58:                                               ; preds = %51, %54
  %59 = bitcast %"class.blink::HeapVector.366"* %4 to i8*
  call void @llvm.lifetime.start.p0i8(i64 16, i8* nonnull %59)
  %60 = getelementptr inbounds %"class.blink::HeapVector.366", %"class.blink::HeapVector.366"* %4, i64 0, i32 0
  %61 = getelementptr inbounds %"class.blink::HeapVector.366", %"class.blink::HeapVector.366"* %8, i64 0, i32 0
  call void @_ZN3WTF6VectorIN5blink6MemberINS1_21HandwritingPredictionEEELj0ENS1_13HeapAllocatorEEC2ERKS6_(%"class.WTF::Vector.369"* nonnull %60, %"class.WTF::Vector.369"* nonnull dereferenceable(16) %61) #11
  call void @_ZN5blink21ScriptPromiseResolver15ResolveOrRejectINS_10HeapVectorINS_6MemberINS_21HandwritingPredictionEEELj0EEEEEvT_NS0_15ResolutionStateE(%"class.blink::ScriptPromiseResolver"* %0, %"class.blink::HeapVector.366"* nonnull %4, i32 1) #11
  call void @llvm.lifetime.end.p0i8(i64 16, i8* nonnull %59)
  call void @llvm.lifetime.end.p0i8(i64 16, i8* nonnull %16) #11
  br label %86

62:                                               ; preds = %29, %83
  %63 = phi %"class.mojo::StructPtr.333"* [ %21, %29 ], [ %84, %83 ]
  call void @llvm.lifetime.start.p0i8(i64 8, i8* nonnull %30) #11
  %64 = call %"class.blink::HandwritingPrediction"* @_ZN4mojo13TypeConverterIPN5blink21HandwritingPredictionENS_9StructPtrIN11handwriting5mojom5blink21HandwritingPredictionEEEE7ConvertERKS9_(%"class.mojo::StructPtr.333"* dereferenceable(8) %63) #11
  store %"class.blink::HandwritingPrediction"* %64, %"class.blink::HandwritingPrediction"** %7, align 8
  %65 = load i32, i32* %19, align 4
  %66 = load i32, i32* %18, align 8
  %67 = icmp eq i32 %65, %66
  br i1 %67, label %82, label %68, !prof !2

68:                                               ; preds = %62
  %69 = ptrtoint %"class.blink::HandwritingPrediction"* %64 to i64
  %70 = load %"class.blink::Member.372"*, %"class.blink::Member.372"** %17, align 8
  %71 = zext i32 %65 to i64
  %72 = getelementptr inbounds %"class.blink::Member.372", %"class.blink::Member.372"* %70, i64 %71
  %73 = bitcast %"class.blink::Member.372"* %72 to i64*
  store atomic i64 %69, i64* %73 monotonic, align 8
  %74 = load atomic i32, i32* getelementptr inbounds (%"class.blink::AtomicEntryFlag", %"class.blink::AtomicEntryFlag"* @_ZN5blink11ThreadState25incremental_marking_flag_E, i64 0, i32 0, i32 0, i32 0, i32 0, i32 0, i32 0) monotonic, align 4
  %75 = icmp eq i32 %74, 0
  br i1 %75, label %79, label %76

76:                                               ; preds = %68
  %77 = bitcast %"class.blink::HandwritingPrediction"* %64 to i8*
  %78 = call zeroext i1 @_ZN5blink14MarkingVisitor16WriteBarrierSlowEPv(i8* %77) #11
  br label %79

79:                                               ; preds = %76, %68
  %80 = load i32, i32* %19, align 4
  %81 = add i32 %80, 1
  store i32 %81, i32* %19, align 4
  br label %83

82:                                               ; preds = %62
  call void @_ZN3WTF6VectorIN5blink6MemberINS1_21HandwritingPredictionEEELj0ENS1_13HeapAllocatorEE14AppendSlowCaseIPS3_EEvOT_(%"class.WTF::Vector.369"* nonnull %31, %"class.blink::HandwritingPrediction"** nonnull dereferenceable(8) %7) #11
  br label %83

83:                                               ; preds = %79, %82
  call void @llvm.lifetime.end.p0i8(i64 8, i8* nonnull %30) #11
  %84 = getelementptr inbounds %"class.mojo::StructPtr.333", %"class.mojo::StructPtr.333"* %63, i64 1
  %85 = icmp eq %"class.mojo::StructPtr.333"* %84, %25
  br i1 %85, label %32, label %62

86:                                               ; preds = %58, %12
  ret void
}

; Function Attrs: nounwind
declare void @_ZN4base8internal12CallbackBaseD2Ev(%"class.base::internal::CallbackBase"*) unnamed_addr #5

; Function Attrs: nounwind ssp uwtable
define hidden void @_ZNK5blink18HandwritingDrawing5TraceEPNS_7VisitorE(%"class.blink::HandwritingDrawing"*, %"class.blink::Visitor"*) unnamed_addr #0 align 2 {
  %3 = getelementptr inbounds %"class.blink::HandwritingDrawing", %"class.blink::HandwritingDrawing"* %0, i64 0, i32 1
  %4 = bitcast %"class.blink::Member"* %3 to i64*
  %5 = load atomic i64, i64* %4 monotonic, align 8
  %6 = icmp eq i64 %5, 0
  br i1 %6, label %13, label %7

7:                                                ; preds = %2
  %8 = inttoptr i64 %5 to i8*
  %9 = bitcast %"class.blink::Visitor"* %1 to void (%"class.blink::Visitor"*, i8*, i8*, void (%"class.blink::Visitor"*, i8*)*)***
  %10 = load void (%"class.blink::Visitor"*, i8*, i8*, void (%"class.blink::Visitor"*, i8*)*)**, void (%"class.blink::Visitor"*, i8*, i8*, void (%"class.blink::Visitor"*, i8*)*)*** %9, align 8
  %11 = getelementptr inbounds void (%"class.blink::Visitor"*, i8*, i8*, void (%"class.blink::Visitor"*, i8*)*)*, void (%"class.blink::Visitor"*, i8*, i8*, void (%"class.blink::Visitor"*, i8*)*)** %10, i64 5
  %12 = load void (%"class.blink::Visitor"*, i8*, i8*, void (%"class.blink::Visitor"*, i8*)*)*, void (%"class.blink::Visitor"*, i8*, i8*, void (%"class.blink::Visitor"*, i8*)*)** %11, align 8
  tail call void %12(%"class.blink::Visitor"* %1, i8* nonnull %8, i8* nonnull %8, void (%"class.blink::Visitor"*, i8*)* nonnull @_ZN5blink10TraceTraitINS_16HandwritingHintsEE5TraceEPNS_7VisitorEPKv) #11
  br label %13

13:                                               ; preds = %2, %7
  %14 = getelementptr inbounds %"class.blink::HandwritingDrawing", %"class.blink::HandwritingDrawing"* %0, i64 0, i32 2
  %15 = bitcast %"class.blink::HeapVector"* %14 to i64*
  %16 = load atomic i64, i64* %15 monotonic, align 8
  %17 = icmp eq i64 %16, 0
  %18 = bitcast %"class.blink::HeapVector"* %14 to i8**
  %19 = bitcast %"class.blink::Visitor"* %1 to void (%"class.blink::Visitor"*, i8**)***
  %20 = load void (%"class.blink::Visitor"*, i8**)**, void (%"class.blink::Visitor"*, i8**)*** %19, align 8
  %21 = getelementptr inbounds void (%"class.blink::Visitor"*, i8**)*, void (%"class.blink::Visitor"*, i8**)** %20, i64 11
  %22 = load void (%"class.blink::Visitor"*, i8**)*, void (%"class.blink::Visitor"*, i8**)** %21, align 8
  tail call void %22(%"class.blink::Visitor"* %1, i8** %18) #11
  br i1 %17, label %29, label %23

23:                                               ; preds = %13
  %24 = inttoptr i64 %16 to i8*
  %25 = bitcast %"class.blink::Visitor"* %1 to void (%"class.blink::Visitor"*, i8*, i8*, void (%"class.blink::Visitor"*, i8*)*)***
  %26 = load void (%"class.blink::Visitor"*, i8*, i8*, void (%"class.blink::Visitor"*, i8*)*)**, void (%"class.blink::Visitor"*, i8*, i8*, void (%"class.blink::Visitor"*, i8*)*)*** %25, align 8
  %27 = getelementptr inbounds void (%"class.blink::Visitor"*, i8*, i8*, void (%"class.blink::Visitor"*, i8*)*)*, void (%"class.blink::Visitor"*, i8*, i8*, void (%"class.blink::Visitor"*, i8*)*)** %26, i64 5
  %28 = load void (%"class.blink::Visitor"*, i8*, i8*, void (%"class.blink::Visitor"*, i8*)*)*, void (%"class.blink::Visitor"*, i8*, i8*, void (%"class.blink::Visitor"*, i8*)*)** %27, align 8
  tail call void %28(%"class.blink::Visitor"* %1, i8* nonnull %24, i8* nonnull %24, void (%"class.blink::Visitor"*, i8*)* nonnull @_ZN5blink10TraceTraitINS_17HeapVectorBackingINS_6MemberINS_17HandwritingStrokeEEEN3WTF12VectorTraitsIS4_EEEEE5TraceEPNS_7VisitorEPKv) #11
  br label %29

29:                                               ; preds = %13, %23
  %30 = getelementptr inbounds %"class.blink::HandwritingDrawing", %"class.blink::HandwritingDrawing"* %0, i64 0, i32 3
  %31 = bitcast %"class.blink::WeakMember"* %30 to i64*
  %32 = load atomic i64, i64* %31 monotonic, align 8
  %33 = icmp eq i64 %32, 0
  br i1 %33, label %41, label %34

34:                                               ; preds = %29
  %35 = inttoptr i64 %32 to i8*
  %36 = bitcast %"class.blink::WeakMember"* %30 to i8*
  %37 = bitcast %"class.blink::Visitor"* %1 to void (%"class.blink::Visitor"*, i8*, i8*, i8*, void (%"class.blink::Visitor"*, i8*)*, void (%"class.blink::LivenessBroker"*, i8*)*)***
  %38 = load void (%"class.blink::Visitor"*, i8*, i8*, i8*, void (%"class.blink::Visitor"*, i8*)*, void (%"class.blink::LivenessBroker"*, i8*)*)**, void (%"class.blink::Visitor"*, i8*, i8*, i8*, void (%"class.blink::Visitor"*, i8*)*, void (%"class.blink::LivenessBroker"*, i8*)*)*** %37, align 8
  %39 = getelementptr inbounds void (%"class.blink::Visitor"*, i8*, i8*, i8*, void (%"class.blink::Visitor"*, i8*)*, void (%"class.blink::LivenessBroker"*, i8*)*)*, void (%"class.blink::Visitor"*, i8*, i8*, i8*, void (%"class.blink::Visitor"*, i8*)*, void (%"class.blink::LivenessBroker"*, i8*)*)** %38, i64 6
  %40 = load void (%"class.blink::Visitor"*, i8*, i8*, i8*, void (%"class.blink::Visitor"*, i8*)*, void (%"class.blink::LivenessBroker"*, i8*)*)*, void (%"class.blink::Visitor"*, i8*, i8*, i8*, void (%"class.blink::Visitor"*, i8*)*, void (%"class.blink::LivenessBroker"*, i8*)*)** %39, align 8
  tail call void %40(%"class.blink::Visitor"* %1, i8* nonnull %35, i8* %36, i8* %35, void (%"class.blink::Visitor"*, i8*)* nonnull @_ZN5blink10TraceTraitINS_21HandwritingRecognizerEE5TraceEPNS_7VisitorEPKv, void (%"class.blink::LivenessBroker"*, i8*)* nonnull @_ZN5blink7Visitor14HandleWeakCellINS_21HandwritingRecognizerEEEvRKNS_14LivenessBrokerEPKv) #11
  br label %41

41:                                               ; preds = %29, %34
  %42 = getelementptr inbounds %"class.blink::HandwritingDrawing", %"class.blink::HandwritingDrawing"* %0, i64 0, i32 0
  tail call void @_ZNK5blink15ScriptWrappable5TraceEPNS_7VisitorE(%"class.blink::ScriptWrappable"* %42, %"class.blink::Visitor"* %1) #11
  ret void
}

declare void @_ZNK5blink15ScriptWrappable5TraceEPNS_7VisitorE(%"class.blink::ScriptWrappable"*, %"class.blink::Visitor"*) unnamed_addr #4

declare zeroext i1 @_ZN5blink21HandwritingRecognizer7IsValidEv(%"class.blink::HandwritingRecognizer"*) local_unnamed_addr #4

declare i8* @_ZNK5blink15ScriptWrappable18NameInHeapSnapshotEv(%"class.blink::ScriptWrappable"*) unnamed_addr #4

; Function Attrs: nounwind ssp uwtable
define linkonce_odr hidden zeroext i1 @_ZNK5blink15ScriptWrappable18HasPendingActivityEv(%"class.blink::ScriptWrappable"*) unnamed_addr #0 comdat align 2 {
  ret i1 false
}

; Function Attrs: nounwind ssp uwtable
define linkonce_odr hidden zeroext i1 @_ZNK5blink15ScriptWrappable17HasEventListenersEv(%"class.blink::ScriptWrappable"*) unnamed_addr #0 comdat align 2 {
  ret i1 false
}

; Function Attrs: nounwind ssp uwtable
define linkonce_odr hidden %"struct.blink::WrapperTypeInfo"* @_ZNK5blink18HandwritingDrawing18GetWrapperTypeInfoEv(%"class.blink::HandwritingDrawing"*) unnamed_addr #0 comdat align 2 {
  %2 = load %"struct.blink::WrapperTypeInfo"*, %"struct.blink::WrapperTypeInfo"** @_ZN5blink18HandwritingDrawing18wrapper_type_info_E, align 8
  ret %"struct.blink::WrapperTypeInfo"* %2
}

declare %"class.v8::Value"* @_ZN5blink15ScriptWrappable4WrapEPNS_11ScriptStateE(%"class.blink::ScriptWrappable"*, %"class.blink::ScriptState"*) unnamed_addr #4

declare %"class.v8::Object"* @_ZN5blink15ScriptWrappable20AssociateWithWrapperEPN2v87IsolateEPKNS_15WrapperTypeInfoENS1_5LocalINS1_6ObjectEEE(%"class.blink::ScriptWrappable"*, %"class.v8::Isolate"*, %"struct.blink::WrapperTypeInfo"*, %"class.v8::Object"*) unnamed_addr #4

; Function Attrs: argmemonly nounwind
declare void @llvm.memset.p0i8.i64(i8* nocapture writeonly, i8, i64, i1 immarg) #2

declare void @_ZNK5blink13ScriptPromise16InternalResolver7PromiseEv(%"class.blink::ScriptPromise"* sret, %"class.blink::ScriptPromise::InternalResolver"*) local_unnamed_addr #4

; Function Attrs: nounwind
declare void @_ZN11handwriting5mojom5blink17HandwritingStrokeD1Ev(%"class.handwriting::mojom::blink::HandwritingStroke"*) unnamed_addr #5

; Function Attrs: nobuiltin nounwind
declare void @_ZdlPv(i8*) local_unnamed_addr #6

; Function Attrs: nounwind ssp uwtable
define linkonce_odr hidden %"class.blink::DOMException"* @_ZN5blink25MakeGarbageCollectedTraitINS_12DOMExceptionEE4CallIJNS_16DOMExceptionCodeERA16_KcEEEPS1_DpOT_(i32* dereferenceable(4), [16 x i8]* dereferenceable(16)) local_unnamed_addr #0 comdat align 2 {
  %3 = alloca %"class.WTF::String", align 8
  %4 = alloca %"class.WTF::String", align 8
  %5 = tail call i8* @_ZN5blink10ThreadHeap8AllocateINS_15ScriptWrappableEEEPhm(i64 48) #11
  %6 = bitcast i8* %5 to %"class.blink::DOMException"*
  %7 = load i32, i32* %0, align 4
  %8 = bitcast %"class.WTF::String"* %3 to i8*
  call void @llvm.lifetime.start.p0i8(i64 8, i8* nonnull %8) #11
  %9 = getelementptr inbounds [16 x i8], [16 x i8]* %1, i64 0, i64 0
  %10 = icmp eq [16 x i8]* %1, null
  br i1 %10, label %13, label %11

11:                                               ; preds = %2
  %12 = tail call i64 @strlen(i8* nonnull %9) #13
  br label %13

13:                                               ; preds = %2, %11
  %14 = phi i64 [ %12, %11 ], [ 0, %2 ]
  call void @_ZN3WTF6StringC2EPKcm(%"class.WTF::String"* nonnull %3, i8* %9, i64 %14) #11
  %15 = bitcast %"class.WTF::String"* %4 to i8*
  call void @llvm.lifetime.start.p0i8(i64 8, i8* nonnull %15) #11
  %16 = getelementptr inbounds %"class.WTF::String", %"class.WTF::String"* %4, i64 0, i32 0, i32 0
  store %"class.WTF::StringImpl"* null, %"class.WTF::StringImpl"** %16, align 8
  call void @_ZN5blink12DOMExceptionC1ENS_16DOMExceptionCodeERKN3WTF6StringES5_(%"class.blink::DOMException"* %6, i32 %7, %"class.WTF::String"* nonnull dereferenceable(8) %3, %"class.WTF::String"* nonnull dereferenceable(8) %4) #11
  %17 = load %"class.WTF::StringImpl"*, %"class.WTF::StringImpl"** %16, align 8
  %18 = icmp eq %"class.WTF::StringImpl"* %17, null
  br i1 %18, label %32, label %19

19:                                               ; preds = %13
  %20 = getelementptr inbounds %"class.WTF::StringImpl", %"class.WTF::StringImpl"* %17, i64 0, i32 2, i32 0, i32 0, i32 0, i32 0, i32 0
  %21 = load atomic i32, i32* %20 monotonic, align 4
  %22 = and i32 %21, 2
  %23 = icmp eq i32 %22, 0
  %24 = getelementptr inbounds %"class.WTF::StringImpl", %"class.WTF::StringImpl"* %17, i64 0, i32 0
  %25 = load i32, i32* %24, align 4
  br i1 %23, label %26, label %28

26:                                               ; preds = %19
  %27 = add i32 %25, -1
  store i32 %27, i32* %24, align 4
  br label %28

28:                                               ; preds = %26, %19
  %29 = phi i32 [ %27, %26 ], [ %25, %19 ]
  %30 = icmp eq i32 %29, 0
  br i1 %30, label %31, label %32

31:                                               ; preds = %28
  call void @_ZNK3WTF10StringImpl18DestroyIfNotStaticEv(%"class.WTF::StringImpl"* nonnull %17) #11
  br label %32

32:                                               ; preds = %13, %28, %31
  call void @llvm.lifetime.end.p0i8(i64 8, i8* nonnull %15) #11
  %33 = getelementptr inbounds %"class.WTF::String", %"class.WTF::String"* %3, i64 0, i32 0, i32 0
  %34 = load %"class.WTF::StringImpl"*, %"class.WTF::StringImpl"** %33, align 8
  %35 = icmp eq %"class.WTF::StringImpl"* %34, null
  br i1 %35, label %49, label %36

36:                                               ; preds = %32
  %37 = getelementptr inbounds %"class.WTF::StringImpl", %"class.WTF::StringImpl"* %34, i64 0, i32 2, i32 0, i32 0, i32 0, i32 0, i32 0
  %38 = load atomic i32, i32* %37 monotonic, align 4
  %39 = and i32 %38, 2
  %40 = icmp eq i32 %39, 0
  %41 = getelementptr inbounds %"class.WTF::StringImpl", %"class.WTF::StringImpl"* %34, i64 0, i32 0
  %42 = load i32, i32* %41, align 4
  br i1 %40, label %43, label %45

43:                                               ; preds = %36
  %44 = add i32 %42, -1
  store i32 %44, i32* %41, align 4
  br label %45

45:                                               ; preds = %43, %36
  %46 = phi i32 [ %44, %43 ], [ %42, %36 ]
  %47 = icmp eq i32 %46, 0
  br i1 %47, label %48, label %49

48:                                               ; preds = %45
  call void @_ZNK3WTF10StringImpl18DestroyIfNotStaticEv(%"class.WTF::StringImpl"* nonnull %34) #11
  br label %49

49:                                               ; preds = %32, %45, %48
  call void @llvm.lifetime.end.p0i8(i64 8, i8* nonnull %8) #11
  %50 = getelementptr inbounds i8, i8* %5, i64 -4
  %51 = bitcast i8* %50 to i16*
  %52 = load atomic i16, i16* %51 monotonic, align 2
  %53 = or i16 %52, 1
  store atomic i16 %53, i16* %51 release, align 2
  ret %"class.blink::DOMException"* %6
}

declare void @_ZN5blink12DOMExceptionC1ENS_16DOMExceptionCodeERKN3WTF6StringES5_(%"class.blink::DOMException"*, i32, %"class.WTF::String"* dereferenceable(8), %"class.WTF::String"* dereferenceable(8)) unnamed_addr #4

; Function Attrs: nounwind ssp uwtable
define linkonce_odr hidden i8* @_ZN5blink10ThreadHeap8AllocateINS_15ScriptWrappableEEEPhm(i64) local_unnamed_addr #0 comdat align 2 {
  %2 = load %"class.WTF::ThreadSpecific"*, %"class.WTF::ThreadSpecific"** @_ZN5blink11ThreadState16thread_specific_E, align 8
  %3 = getelementptr inbounds %"class.WTF::ThreadSpecific", %"class.WTF::ThreadSpecific"* %2, i64 0, i32 1
  %4 = tail call i8* @_ZNK4base18ThreadLocalStorage4Slot3GetEv(%"class.base::ThreadLocalStorage::Slot"* %3) #11
  %5 = icmp eq i8* %4, null
  br i1 %5, label %6, label %8, !prof !2

6:                                                ; preds = %1
  %7 = tail call i8* @_ZN3WTF10Partitions16FastZeroedMallocEmPKc(i64 8, i8* getelementptr inbounds ([68 x i8], [68 x i8]* @__PRETTY_FUNCTION__._ZN3WTF21GetStringWithTypeNameIPN5blink11ThreadStateEEEPKcv, i64 0, i64 0)) #11
  tail call void @_ZN4base18ThreadLocalStorage4Slot3SetEPv(%"class.base::ThreadLocalStorage::Slot"* %3, i8* %7) #11
  br label %8

8:                                                ; preds = %1, %6
  %9 = phi i8* [ %7, %6 ], [ %4, %1 ]
  %10 = bitcast i8* %9 to %"class.blink::ThreadState"**
  %11 = load %"class.blink::ThreadState"*, %"class.blink::ThreadState"** %10, align 8
  %12 = getelementptr inbounds %"class.blink::ThreadState", %"class.blink::ThreadState"* %11, i64 0, i32 0, i32 0, i32 0, i32 0
  %13 = load %"class.blink::ThreadHeap"*, %"class.blink::ThreadHeap"** %12, align 8
  %14 = icmp ult i64 %0, 64
  %15 = icmp ugt i64 %0, 31
  %16 = zext i1 %15 to i32
  %17 = icmp ult i64 %0, 128
  %18 = select i1 %17, i32 2, i32 3
  %19 = select i1 %14, i32 %16, i32 %18
  %20 = load atomic i32, i32* getelementptr inbounds ({ { i32 } }, { { i32 } }* @_ZZN5blink11GCInfoTraitINS_15ScriptWrappableEE5IndexEvE13gc_info_index, i64 0, i32 0, i32 0) acquire, align 4
  %21 = icmp eq i32 %20, 0
  br i1 %21, label %22, label %25

22:                                               ; preds = %8
  %23 = load %"class.blink::GCInfoTable"*, %"class.blink::GCInfoTable"** @_ZN5blink11GCInfoTable13global_table_E, align 8
  %24 = tail call i32 @_ZN5blink11GCInfoTable17EnsureGCInfoIndexEPKNS_6GCInfoEPNSt3__16atomicIjEE(%"class.blink::GCInfoTable"* %23, %"struct.blink::GCInfo"* nonnull @_ZZN5blink11GCInfoTraitINS_15ScriptWrappableEE5IndexEvE7kGcInfo, %"struct.std::__1::atomic"* bitcast ({ { i32 } }* @_ZZN5blink11GCInfoTraitINS_15ScriptWrappableEE5IndexEvE13gc_info_index to %"struct.std::__1::atomic"*)) #11
  br label %25

25:                                               ; preds = %8, %22
  %26 = phi i32 [ %20, %8 ], [ %24, %22 ]
  %27 = tail call i8* @_ZN5blink10ThreadHeap20AllocateOnArenaIndexEPNS_11ThreadStateEmijPKc(%"class.blink::ThreadHeap"* %13, %"class.blink::ThreadState"* %11, i64 %0, i32 %19, i32 %26, i8* getelementptr inbounds ([70 x i8], [70 x i8]* @__PRETTY_FUNCTION__._ZN3WTF21GetStringWithTypeNameIN5blink15ScriptWrappableEEEPKcv, i64 0, i64 0))
  ret i8* %27
}

; Function Attrs: inlinehint nounwind ssp uwtable
define linkonce_odr hidden i8* @_ZN5blink10ThreadHeap20AllocateOnArenaIndexEPNS_11ThreadStateEmijPKc(%"class.blink::ThreadHeap"*, %"class.blink::ThreadState"*, i64, i32, i32, i8*) local_unnamed_addr #3 comdat align 2 {
  %7 = alloca %"class.logging::CheckOpResult", align 8
  %8 = alloca %"class.logging::CheckOpResult", align 8
  %9 = alloca %"class.logging::CheckError", align 8
  %10 = sext i32 %3 to i64
  %11 = getelementptr inbounds %"class.blink::ThreadHeap", %"class.blink::ThreadHeap"* %0, i64 0, i32 19, i64 %10
  %12 = bitcast %"class.blink::BaseArena"** %11 to %"class.blink::NormalPageArena"**
  %13 = load %"class.blink::NormalPageArena"*, %"class.blink::NormalPageArena"** %12, align 8
  %14 = bitcast %"class.logging::CheckOpResult"* %8 to i8*
  call void @llvm.lifetime.start.p0i8(i64 8, i8* nonnull %14) #11
  %15 = getelementptr inbounds %"class.logging::CheckOpResult", %"class.logging::CheckOpResult"* %8, i64 0, i32 0
  store i8* inttoptr (i64 -6148914691236517206 to i8*), i8** %15, align 8
  %16 = bitcast %"class.logging::CheckOpResult"* %7 to i8*
  call void @llvm.lifetime.start.p0i8(i64 8, i8* nonnull %16) #11
  %17 = icmp ult i64 %2, -8
  br i1 %17, label %18, label %19

18:                                               ; preds = %6
  call void @llvm.lifetime.end.p0i8(i64 8, i8* nonnull %16) #11
  store i8* null, i8** %15, align 8
  br label %29

19:                                               ; preds = %6
  %20 = add nsw i64 %2, 8
  %21 = tail call i8* @_ZN7logging15CheckOpValueStrEm(i64 %20) #11
  %22 = tail call i8* @_ZN7logging15CheckOpValueStrEm(i64 %2) #11
  call void @_ZN7logging13CheckOpResultC1EPKcPcS3_(%"class.logging::CheckOpResult"* nonnull %7, i8* getelementptr inbounds ([23 x i8], [23 x i8]* @.str.2, i64 0, i64 0), i8* %21, i8* %22) #11
  %23 = getelementptr inbounds %"class.logging::CheckOpResult", %"class.logging::CheckOpResult"* %7, i64 0, i32 0
  %24 = load i8*, i8** %23, align 8
  call void @llvm.lifetime.end.p0i8(i64 8, i8* nonnull %16) #11
  store i8* %24, i8** %15, align 8
  %25 = icmp eq i8* %24, null
  br i1 %25, label %29, label %26

26:                                               ; preds = %19
  %27 = bitcast %"class.logging::CheckError"* %9 to i8*
  call void @llvm.lifetime.start.p0i8(i64 8, i8* nonnull %27) #11
  call void @_ZN7logging10CheckError7CheckOpEPKciPNS_13CheckOpResultE(%"class.logging::CheckError"* nonnull sret %9, i8* getelementptr inbounds ([59 x i8], [59 x i8]* @.str.3, i64 0, i64 0), i32 246, %"class.logging::CheckOpResult"* nonnull %8) #11
  %28 = call dereferenceable(160) %"class.std::__1::basic_ostream"* @_ZN7logging10CheckError6streamEv(%"class.logging::CheckError"* nonnull %9) #11
  call void @_ZN7logging10CheckErrorD1Ev(%"class.logging::CheckError"* nonnull %9) #11
  call void @llvm.lifetime.end.p0i8(i64 8, i8* nonnull %27) #11
  br label %29

29:                                               ; preds = %18, %19, %26
  call void @llvm.lifetime.end.p0i8(i64 8, i8* nonnull %14) #11
  %30 = add i64 %2, 15
  %31 = and i64 %30, -8
  %32 = getelementptr inbounds %"class.blink::NormalPageArena", %"class.blink::NormalPageArena"* %13, i64 0, i32 4
  %33 = load i64, i64* %32, align 8
  %34 = icmp ult i64 %33, %31
  br i1 %34, label %67, label %35, !prof !2

35:                                               ; preds = %29
  %36 = getelementptr inbounds %"class.blink::NormalPageArena", %"class.blink::NormalPageArena"* %13, i64 0, i32 3
  %37 = load i8*, i8** %36, align 8
  %38 = getelementptr inbounds i8, i8* %37, i64 %31
  store i8* %38, i8** %36, align 8
  %39 = sub i64 %33, %31
  store i64 %39, i64* %32, align 8
  %40 = bitcast i8* %37 to i32*
  store i32 0, i32* %40, align 4
  %41 = getelementptr inbounds i8, i8* %37, i64 4
  %42 = bitcast i8* %41 to i16*
  %43 = trunc i32 %4 to i16
  %44 = shl i16 %43, 2
  store atomic i16 %44, i16* %42 monotonic, align 2
  %45 = lshr exact i64 %31, 1
  %46 = trunc i64 %45 to i16
  %47 = getelementptr inbounds i8, i8* %37, i64 6
  %48 = bitcast i8* %47 to i16*
  store i16 %46, i16* %48, align 2
  %49 = ptrtoint i8* %37 to i64
  %50 = and i64 %49, -131072
  %51 = inttoptr i64 %50 to i8*
  %52 = getelementptr inbounds i8, i8* %51, i64 4400
  %53 = bitcast i8* %52 to %"class.blink::PlatformAwareObjectStartBitmap"*
  %54 = bitcast i8* %52 to i64*
  %55 = load i64, i64* %54, align 16
  %56 = sub i64 %49, %55
  %57 = lshr i64 %56, 3
  %58 = lshr i64 %56, 6
  %59 = getelementptr inbounds %"class.blink::PlatformAwareObjectStartBitmap", %"class.blink::PlatformAwareObjectStartBitmap"* %53, i64 0, i32 0, i32 1, i64 %58
  %60 = load i8, i8* %59, align 1
  %61 = trunc i64 %57 to i32
  %62 = and i32 %61, 7
  %63 = shl i32 1, %62
  %64 = trunc i32 %63 to i8
  %65 = or i8 %60, %64
  store atomic i8 %65, i8* %59 release, align 1
  %66 = getelementptr inbounds i8, i8* %37, i64 8
  br label %70

67:                                               ; preds = %29
  %68 = zext i32 %4 to i64
  %69 = call i8* @_ZN5blink15NormalPageArena17OutOfLineAllocateEmm(%"class.blink::NormalPageArena"* %13, i64 %31, i64 %68) #11
  br label %70

70:                                               ; preds = %35, %67
  %71 = phi i8* [ %66, %35 ], [ %69, %67 ]
  ret i8* %71
}

declare i8* @_ZN3WTF10Partitions16FastZeroedMallocEmPKc(i64, i8*) local_unnamed_addr #4

declare i8* @_ZNK4base18ThreadLocalStorage4Slot3GetEv(%"class.base::ThreadLocalStorage::Slot"*) local_unnamed_addr #4

declare void @_ZN4base18ThreadLocalStorage4Slot3SetEPv(%"class.base::ThreadLocalStorage::Slot"*, i8*) local_unnamed_addr #4

declare i8* @_ZN5blink15NormalPageArena17OutOfLineAllocateEmm(%"class.blink::NormalPageArena"*, i64, i64) local_unnamed_addr #4

declare void @_ZN7logging10CheckError7CheckOpEPKciPNS_13CheckOpResultE(%"class.logging::CheckError"* sret, i8*, i32, %"class.logging::CheckOpResult"*) local_unnamed_addr #4

declare dereferenceable(160) %"class.std::__1::basic_ostream"* @_ZN7logging10CheckError6streamEv(%"class.logging::CheckError"*) local_unnamed_addr #4

; Function Attrs: nounwind
declare void @_ZN7logging10CheckErrorD1Ev(%"class.logging::CheckError"*) unnamed_addr #5

declare i8* @_ZN7logging15CheckOpValueStrEm(i64) local_unnamed_addr #4

declare void @_ZN7logging13CheckOpResultC1EPKcPcS3_(%"class.logging::CheckOpResult"*, i8*, i8*, i8*) unnamed_addr #4

; Function Attrs: nounwind ssp uwtable
define linkonce_odr hidden void @_ZN5blink10TraceTraitINS_15ScriptWrappableEE5TraceEPNS_7VisitorEPKv(%"class.blink::Visitor"*, i8*) #0 comdat align 2 {
  %3 = bitcast i8* %1 to %"class.blink::ScriptWrappable"*
  %4 = bitcast i8* %1 to void (%"class.blink::ScriptWrappable"*, %"class.blink::Visitor"*)***
  %5 = load void (%"class.blink::ScriptWrappable"*, %"class.blink::Visitor"*)**, void (%"class.blink::ScriptWrappable"*, %"class.blink::Visitor"*)*** %4, align 8
  %6 = getelementptr inbounds void (%"class.blink::ScriptWrappable"*, %"class.blink::Visitor"*)*, void (%"class.blink::ScriptWrappable"*, %"class.blink::Visitor"*)** %5, i64 5
  %7 = load void (%"class.blink::ScriptWrappable"*, %"class.blink::Visitor"*)*, void (%"class.blink::ScriptWrappable"*, %"class.blink::Visitor"*)** %6, align 8
  tail call void %7(%"class.blink::ScriptWrappable"* %3, %"class.blink::Visitor"* %0) #11
  ret void
}

; Function Attrs: nounwind ssp uwtable
define linkonce_odr hidden void @_ZN5blink8internal14FinalizerTraitINS_15ScriptWrappableEE8FinalizeEPv(i8*) #0 comdat align 2 {
  %2 = bitcast i8* %0 to %"class.blink::ScriptWrappable"*
  %3 = bitcast i8* %0 to void (%"class.blink::ScriptWrappable"*)***
  %4 = load void (%"class.blink::ScriptWrappable"*)**, void (%"class.blink::ScriptWrappable"*)*** %3, align 8
  %5 = getelementptr inbounds void (%"class.blink::ScriptWrappable"*)*, void (%"class.blink::ScriptWrappable"*)** %4, i64 1
  %6 = load void (%"class.blink::ScriptWrappable"*)*, void (%"class.blink::ScriptWrappable"*)** %5, align 8
  tail call void %6(%"class.blink::ScriptWrappable"* %2) #11
  ret void
}

; Function Attrs: nounwind ssp uwtable
define linkonce_odr hidden { i8*, i8 } @_ZN5blink9NameTraitINS_15ScriptWrappableEE7GetNameEPKv(i8*) #0 comdat align 2 {
  %2 = bitcast i8* %0 to %"class.blink::NameClient"*
  %3 = bitcast i8* %0 to i8* (%"class.blink::NameClient"*)***
  %4 = load i8* (%"class.blink::NameClient"*)**, i8* (%"class.blink::NameClient"*)*** %3, align 8
  %5 = load i8* (%"class.blink::NameClient"*)*, i8* (%"class.blink::NameClient"*)** %4, align 8
  %6 = tail call i8* %5(%"class.blink::NameClient"* %2) #11
  %7 = insertvalue { i8*, i8 } undef, i8* %6, 0
  %8 = insertvalue { i8*, i8 } %7, i8 0, 1
  ret { i8*, i8 } %8
}

declare i32 @_ZN5blink11GCInfoTable17EnsureGCInfoIndexEPKNS_6GCInfoEPNSt3__16atomicIjEE(%"class.blink::GCInfoTable"*, %"struct.blink::GCInfo"*, %"struct.std::__1::atomic"*) local_unnamed_addr #4

; Function Attrs: argmemonly nofree nounwind readonly
declare i64 @strlen(i8* nocapture) local_unnamed_addr #7

declare void @_ZN3WTF6StringC2EPKcm(%"class.WTF::String"*, i8*, i64) unnamed_addr #4

declare void @_ZNK3WTF10StringImpl18DestroyIfNotStaticEv(%"class.WTF::StringImpl"*) local_unnamed_addr #4

; Function Attrs: noinline nounwind ssp uwtable
define linkonce_odr hidden void @_ZN3WTF6VectorIN5blink6MemberINS1_21HandwritingPredictionEEELj0ENS1_13HeapAllocatorEE14AppendSlowCaseIPS3_EEvOT_(%"class.WTF::Vector.369"*, %"class.blink::HandwritingPrediction"** dereferenceable(8)) local_unnamed_addr #8 comdat align 2 {
  %3 = getelementptr inbounds %"class.WTF::Vector.369", %"class.WTF::Vector.369"* %0, i64 0, i32 0, i32 0, i32 2
  %4 = load i32, i32* %3, align 4
  %5 = add i32 %4, 1
  %6 = getelementptr inbounds %"class.WTF::Vector.369", %"class.WTF::Vector.369"* %0, i64 0, i32 0, i32 0, i32 1
  %7 = load i32, i32* %6, align 8
  %8 = lshr i32 %7, 2
  %9 = add i32 %7, 1
  %10 = add i32 %9, %8
  %11 = icmp ugt i32 %10, 4
  %12 = select i1 %11, i32 %10, i32 4
  %13 = icmp ugt i32 %12, %5
  %14 = select i1 %13, i32 %12, i32 %5
  tail call void @_ZN3WTF6VectorIN5blink6MemberINS1_21HandwritingPredictionEEELj0ENS1_13HeapAllocatorEE15ReserveCapacityEj(%"class.WTF::Vector.369"* %0, i32 %14) #11
  %15 = getelementptr inbounds %"class.WTF::Vector.369", %"class.WTF::Vector.369"* %0, i64 0, i32 0, i32 0, i32 0
  %16 = load %"class.blink::Member.372"*, %"class.blink::Member.372"** %15, align 8
  %17 = load i32, i32* %3, align 4
  %18 = zext i32 %17 to i64
  %19 = getelementptr inbounds %"class.blink::Member.372", %"class.blink::Member.372"* %16, i64 %18
  %20 = bitcast %"class.blink::HandwritingPrediction"** %1 to i64*
  %21 = load i64, i64* %20, align 8
  %22 = bitcast %"class.blink::Member.372"* %19 to i64*
  store atomic i64 %21, i64* %22 monotonic, align 8
  %23 = load atomic i32, i32* getelementptr inbounds (%"class.blink::AtomicEntryFlag", %"class.blink::AtomicEntryFlag"* @_ZN5blink11ThreadState25incremental_marking_flag_E, i64 0, i32 0, i32 0, i32 0, i32 0, i32 0, i32 0) monotonic, align 4
  %24 = icmp eq i32 %23, 0
  br i1 %24, label %28, label %25

25:                                               ; preds = %2
  %26 = inttoptr i64 %21 to i8*
  %27 = tail call zeroext i1 @_ZN5blink14MarkingVisitor16WriteBarrierSlowEPv(i8* %26) #11
  br label %28

28:                                               ; preds = %2, %25
  %29 = load i32, i32* %3, align 4
  %30 = add i32 %29, 1
  store i32 %30, i32* %3, align 4
  ret void
}

declare zeroext i1 @_ZN5blink14MarkingVisitor16WriteBarrierSlowEPv(i8*) local_unnamed_addr #4

; Function Attrs: nounwind ssp uwtable
define linkonce_odr hidden void @_ZN3WTF6VectorIN5blink6MemberINS1_21HandwritingPredictionEEELj0ENS1_13HeapAllocatorEE15ReserveCapacityEj(%"class.WTF::Vector.369"*, i32) local_unnamed_addr #0 comdat align 2 {
  %3 = alloca %"class.logging::CheckError", align 8
  %4 = getelementptr inbounds %"class.WTF::Vector.369", %"class.WTF::Vector.369"* %0, i64 0, i32 0, i32 0, i32 1
  %5 = load i32, i32* %4, align 8
  %6 = icmp ult i32 %5, %1
  br i1 %6, label %7, label %59, !prof !3

7:                                                ; preds = %2
  %8 = getelementptr inbounds %"class.WTF::Vector.369", %"class.WTF::Vector.369"* %0, i64 0, i32 0, i32 0, i32 0
  %9 = load %"class.blink::Member.372"*, %"class.blink::Member.372"** %8, align 8
  %10 = icmp eq %"class.blink::Member.372"* %9, null
  %11 = zext i32 %1 to i64
  %12 = tail call i64 @_ZN5blink13HeapAllocator13QuantizedSizeINS_6MemberINS_21HandwritingPredictionEEEEEmm(i64 %11) #11
  br i1 %10, label %13, label %24

13:                                               ; preds = %7
  %14 = lshr i64 %12, 3
  %15 = tail call %"class.blink::HeapVectorBacking"* @_ZN5blink25MakeGarbageCollectedTraitINS_17HeapVectorBackingINS_6MemberINS_21HandwritingPredictionEEEN3WTF12VectorTraitsIS4_EEEEE4CallEm(i64 %14) #11
  %16 = ptrtoint %"class.blink::HeapVectorBacking"* %15 to i64
  %17 = bitcast %"class.WTF::Vector.369"* %0 to i64*
  store atomic i64 %16, i64* %17 monotonic, align 8
  %18 = trunc i64 %14 to i32
  store i32 %18, i32* %4, align 8
  %19 = load atomic i32, i32* getelementptr inbounds (%"class.blink::AtomicEntryFlag", %"class.blink::AtomicEntryFlag"* @_ZN5blink11ThreadState25incremental_marking_flag_E, i64 0, i32 0, i32 0, i32 0, i32 0, i32 0, i32 0) monotonic, align 4
  %20 = icmp eq i32 %19, 0
  br i1 %20, label %59, label %21

21:                                               ; preds = %13
  %22 = getelementptr inbounds %"class.blink::HeapVectorBacking", %"class.blink::HeapVectorBacking"* %15, i64 0, i32 0
  %23 = tail call zeroext i1 @_ZN5blink14MarkingVisitor16WriteBarrierSlowEPv(i8* %22) #11
  br label %59

24:                                               ; preds = %7
  %25 = load %"class.blink::Member.372"*, %"class.blink::Member.372"** %8, align 8
  %26 = icmp eq %"class.blink::Member.372"* %25, null
  br i1 %26, label %33, label %27

27:                                               ; preds = %24
  %28 = bitcast %"class.blink::Member.372"* %25 to i8*
  %29 = tail call zeroext i1 @_ZN5blink13HeapAllocator19ExpandVectorBackingEPvm(i8* nonnull %28, i64 %12) #11
  br i1 %29, label %30, label %33

30:                                               ; preds = %27
  %31 = lshr i64 %12, 3
  %32 = trunc i64 %31 to i32
  store i32 %32, i32* %4, align 8
  br label %59

33:                                               ; preds = %24, %27
  %34 = load %"class.WTF::ThreadSpecific"*, %"class.WTF::ThreadSpecific"** @_ZN5blink11ThreadState16thread_specific_E, align 8
  %35 = getelementptr inbounds %"class.WTF::ThreadSpecific", %"class.WTF::ThreadSpecific"* %34, i64 0, i32 1
  %36 = tail call i8* @_ZNK4base18ThreadLocalStorage4Slot3GetEv(%"class.base::ThreadLocalStorage::Slot"* %35) #11
  %37 = icmp eq i8* %36, null
  br i1 %37, label %38, label %40, !prof !2

38:                                               ; preds = %33
  %39 = tail call i8* @_ZN3WTF10Partitions16FastZeroedMallocEmPKc(i64 8, i8* getelementptr inbounds ([68 x i8], [68 x i8]* @__PRETTY_FUNCTION__._ZN3WTF21GetStringWithTypeNameIPN5blink11ThreadStateEEEPKcv, i64 0, i64 0)) #11
  tail call void @_ZN4base18ThreadLocalStorage4Slot3SetEPv(%"class.base::ThreadLocalStorage::Slot"* %35, i8* %39) #11
  br label %40

40:                                               ; preds = %38, %33
  %41 = phi i8* [ %39, %38 ], [ %36, %33 ]
  %42 = bitcast i8* %41 to %"class.blink::ThreadState"**
  %43 = load %"class.blink::ThreadState"*, %"class.blink::ThreadState"** %42, align 8
  %44 = getelementptr inbounds %"class.blink::ThreadState", %"class.blink::ThreadState"* %43, i64 0, i32 6
  %45 = load i8, i8* %44, align 8, !range !19
  %46 = icmp eq i8 %45, 0
  br i1 %46, label %51, label %47

47:                                               ; preds = %40
  %48 = getelementptr inbounds %"class.blink::ThreadState", %"class.blink::ThreadState"* %43, i64 0, i32 16
  %49 = load i32, i32* %48, align 4
  %50 = icmp eq i32 %49, 1
  br i1 %50, label %55, label %51

51:                                               ; preds = %40, %47
  %52 = getelementptr inbounds %"class.blink::ThreadState", %"class.blink::ThreadState"* %43, i64 0, i32 13
  %53 = load i64, i64* %52, align 8
  %54 = icmp eq i64 %53, 0
  br i1 %54, label %58, label %55

55:                                               ; preds = %47, %51
  %56 = bitcast %"class.logging::CheckError"* %3 to i8*
  call void @llvm.lifetime.start.p0i8(i64 8, i8* nonnull %56) #11
  call void @_ZN7logging10CheckError5CheckEPKciS2_(%"class.logging::CheckError"* nonnull sret %3, i8* getelementptr inbounds ([55 x i8], [55 x i8]* @.str.4, i64 0, i64 0), i32 1810, i8* getelementptr inbounds ([33 x i8], [33 x i8]* @.str.5, i64 0, i64 0)) #11
  %57 = call dereferenceable(160) %"class.std::__1::basic_ostream"* @_ZN7logging10CheckError6streamEv(%"class.logging::CheckError"* nonnull %3) #11
  call void @_ZN7logging10CheckErrorD1Ev(%"class.logging::CheckError"* nonnull %3) #11
  call void @llvm.lifetime.end.p0i8(i64 8, i8* nonnull %56) #11
  br label %58

58:                                               ; preds = %51, %55
  call void @_ZN3WTF6VectorIN5blink6MemberINS1_21HandwritingPredictionEEELj0ENS1_13HeapAllocatorEE16ReallocateBufferEj(%"class.WTF::Vector.369"* %0, i32 %1)
  br label %59

59:                                               ; preds = %30, %21, %13, %2, %58
  ret void
}

declare void @_ZN7logging10CheckError5CheckEPKciS2_(%"class.logging::CheckError"* sret, i8*, i32, i8*) local_unnamed_addr #4

; Function Attrs: nounwind ssp uwtable
define linkonce_odr hidden void @_ZN3WTF6VectorIN5blink6MemberINS1_21HandwritingPredictionEEELj0ENS1_13HeapAllocatorEE16ReallocateBufferEj(%"class.WTF::Vector.369"*, i32) local_unnamed_addr #0 comdat align 2 {
  %3 = icmp eq i32 %1, 0
  br i1 %3, label %4, label %13

4:                                                ; preds = %2
  %5 = bitcast %"class.WTF::Vector.369"* %0 to i8**
  %6 = load i8*, i8** %5, align 8
  %7 = getelementptr inbounds %"class.WTF::Vector.369", %"class.WTF::Vector.369"* %0, i64 0, i32 0, i32 0, i32 2
  %8 = load i32, i32* %7, align 4
  %9 = zext i32 %8 to i64
  %10 = bitcast %"class.WTF::Vector.369"* %0 to i64*
  store atomic i64 0, i64* %10 monotonic, align 8
  %11 = getelementptr inbounds %"class.WTF::Vector.369", %"class.WTF::Vector.369"* %0, i64 0, i32 0, i32 0, i32 1
  store i32 0, i32* %11, align 8
  %12 = shl nuw nsw i64 %9, 3
  tail call void @_ZN3WTF13AtomicMemzeroEPvm(i8* %6, i64 %12) #11
  tail call void @_ZN5blink13HeapAllocator17FreeVectorBackingEPv(i8* %6) #11
  br label %50

13:                                               ; preds = %2
  %14 = zext i32 %1 to i64
  %15 = tail call i64 @_ZN5blink13HeapAllocator13QuantizedSizeINS_6MemberINS_21HandwritingPredictionEEEEEmm(i64 %14) #11
  %16 = lshr i64 %15, 3
  %17 = tail call %"class.blink::HeapVectorBacking"* @_ZN5blink25MakeGarbageCollectedTraitINS_17HeapVectorBackingINS_6MemberINS_21HandwritingPredictionEEEN3WTF12VectorTraitsIS4_EEEEE4CallEm(i64 %16) #11
  %18 = ptrtoint %"class.blink::HeapVectorBacking"* %17 to i64
  %19 = getelementptr inbounds %"class.WTF::Vector.369", %"class.WTF::Vector.369"* %0, i64 0, i32 0, i32 0, i32 0
  %20 = load %"class.blink::Member.372"*, %"class.blink::Member.372"** %19, align 8
  %21 = getelementptr inbounds %"class.WTF::Vector.369", %"class.WTF::Vector.369"* %0, i64 0, i32 0, i32 0, i32 2
  %22 = icmp ne %"class.blink::HeapVectorBacking"* %17, null
  %23 = icmp ne %"class.blink::Member.372"* %20, null
  %24 = and i1 %22, %23
  %25 = bitcast %"class.blink::Member.372"* %20 to i8*
  br i1 %24, label %28, label %26, !prof !3

26:                                               ; preds = %13
  %27 = bitcast %"class.WTF::Vector.369"* %0 to i8**
  br label %35

28:                                               ; preds = %13
  %29 = load i32, i32* %21, align 4
  %30 = zext i32 %29 to i64
  %31 = shl nuw nsw i64 %30, 3
  %32 = getelementptr inbounds %"class.blink::HeapVectorBacking", %"class.blink::HeapVectorBacking"* %17, i64 0, i32 0
  tail call void @_ZN3WTF17AtomicWriteMemcpyEPvPKvm(i8* nonnull %32, i8* nonnull %25, i64 %31) #11
  %33 = bitcast %"class.WTF::Vector.369"* %0 to i8**
  %34 = load i8*, i8** %33, align 8
  br label %35

35:                                               ; preds = %26, %28
  %36 = phi i8** [ %27, %26 ], [ %33, %28 ]
  %37 = phi i8* [ %25, %26 ], [ %34, %28 ]
  %38 = load i32, i32* %21, align 4
  %39 = zext i32 %38 to i64
  %40 = shl nuw nsw i64 %39, 3
  tail call void @_ZN3WTF13AtomicMemzeroEPvm(i8* %37, i64 %40) #11
  %41 = load i8*, i8** %36, align 8
  tail call void @_ZN5blink13HeapAllocator17FreeVectorBackingEPv(i8* %41) #11
  %42 = bitcast %"class.WTF::Vector.369"* %0 to i64*
  store atomic i64 %18, i64* %42 monotonic, align 8
  %43 = trunc i64 %16 to i32
  %44 = getelementptr inbounds %"class.WTF::Vector.369", %"class.WTF::Vector.369"* %0, i64 0, i32 0, i32 0, i32 1
  store i32 %43, i32* %44, align 8
  %45 = load atomic i32, i32* getelementptr inbounds (%"class.blink::AtomicEntryFlag", %"class.blink::AtomicEntryFlag"* @_ZN5blink11ThreadState25incremental_marking_flag_E, i64 0, i32 0, i32 0, i32 0, i32 0, i32 0, i32 0) monotonic, align 4
  %46 = icmp eq i32 %45, 0
  br i1 %46, label %50, label %47

47:                                               ; preds = %35
  %48 = getelementptr inbounds %"class.blink::HeapVectorBacking", %"class.blink::HeapVectorBacking"* %17, i64 0, i32 0
  %49 = tail call zeroext i1 @_ZN5blink14MarkingVisitor16WriteBarrierSlowEPv(i8* %48) #11
  br label %50

50:                                               ; preds = %47, %35, %4
  ret void
}

; Function Attrs: nounwind ssp uwtable
define linkonce_odr hidden i64 @_ZN5blink13HeapAllocator13QuantizedSizeINS_6MemberINS_21HandwritingPredictionEEEEEmm(i64) local_unnamed_addr #0 comdat align 2 {
  %2 = alloca %"class.logging::CheckOpResult", align 8
  %3 = alloca %"class.logging::CheckOpResult", align 8
  %4 = alloca %"class.logging::CheckError", align 8
  %5 = bitcast %"class.logging::CheckOpResult"* %3 to i8*
  call void @llvm.lifetime.start.p0i8(i64 8, i8* nonnull %5) #11
  %6 = getelementptr inbounds %"class.logging::CheckOpResult", %"class.logging::CheckOpResult"* %3, i64 0, i32 0
  store i8* inttoptr (i64 -6148914691236517206 to i8*), i8** %6, align 8
  %7 = bitcast %"class.logging::CheckOpResult"* %2 to i8*
  call void @llvm.lifetime.start.p0i8(i64 8, i8* nonnull %7)
  %8 = icmp ugt i64 %0, 16777216
  br i1 %8, label %10, label %9

9:                                                ; preds = %1
  call void @llvm.lifetime.end.p0i8(i64 8, i8* nonnull %7)
  store i8* null, i8** %6, align 8
  br label %19

10:                                               ; preds = %1
  %11 = tail call i8* @_ZN7logging15CheckOpValueStrEm(i64 %0) #11
  %12 = tail call i8* @_ZN7logging15CheckOpValueStrEm(i64 16777216) #11
  call void @_ZN7logging13CheckOpResultC1EPKcPcS3_(%"class.logging::CheckOpResult"* nonnull %2, i8* getelementptr inbounds ([44 x i8], [44 x i8]* @.str.6, i64 0, i64 0), i8* %11, i8* %12) #11
  %13 = getelementptr inbounds %"class.logging::CheckOpResult", %"class.logging::CheckOpResult"* %2, i64 0, i32 0
  %14 = load i8*, i8** %13, align 8
  call void @llvm.lifetime.end.p0i8(i64 8, i8* nonnull %7)
  store i8* %14, i8** %6, align 8
  %15 = icmp eq i8* %14, null
  br i1 %15, label %19, label %16

16:                                               ; preds = %10
  %17 = bitcast %"class.logging::CheckError"* %4 to i8*
  call void @llvm.lifetime.start.p0i8(i64 8, i8* nonnull %17) #11
  call void @_ZN7logging10CheckError7CheckOpEPKciPNS_13CheckOpResultE(%"class.logging::CheckError"* nonnull sret %4, i8* getelementptr inbounds ([74 x i8], [74 x i8]* @.str.7, i64 0, i64 0), i32 39, %"class.logging::CheckOpResult"* nonnull %3) #11
  %18 = call dereferenceable(160) %"class.std::__1::basic_ostream"* @_ZN7logging10CheckError6streamEv(%"class.logging::CheckError"* nonnull %4) #11
  call void @_ZN7logging10CheckErrorD1Ev(%"class.logging::CheckError"* nonnull %4) #11
  call void @llvm.lifetime.end.p0i8(i64 8, i8* nonnull %17) #11
  br label %19

19:                                               ; preds = %9, %10, %16
  call void @llvm.lifetime.end.p0i8(i64 8, i8* nonnull %5) #11
  %20 = shl i64 %0, 3
  ret i64 %20
}

; Function Attrs: nounwind ssp uwtable
define linkonce_odr hidden %"class.blink::HeapVectorBacking"* @_ZN5blink25MakeGarbageCollectedTraitINS_17HeapVectorBackingINS_6MemberINS_21HandwritingPredictionEEEN3WTF12VectorTraitsIS4_EEEEE4CallEm(i64) local_unnamed_addr #0 comdat align 2 {
  %2 = alloca %"class.logging::CheckOpResult", align 8
  %3 = alloca %"class.logging::CheckOpResult", align 8
  %4 = alloca %"class.logging::CheckError", align 8
  %5 = bitcast %"class.logging::CheckOpResult"* %3 to i8*
  call void @llvm.lifetime.start.p0i8(i64 8, i8* nonnull %5) #11
  %6 = getelementptr inbounds %"class.logging::CheckOpResult", %"class.logging::CheckOpResult"* %3, i64 0, i32 0
  store i8* inttoptr (i64 -6148914691236517206 to i8*), i8** %6, align 8
  %7 = bitcast %"class.logging::CheckOpResult"* %2 to i8*
  call void @llvm.lifetime.start.p0i8(i64 8, i8* nonnull %7)
  %8 = icmp eq i64 %0, 0
  br i1 %8, label %10, label %9

9:                                                ; preds = %1
  call void @llvm.lifetime.end.p0i8(i64 8, i8* nonnull %7)
  store i8* null, i8** %6, align 8
  br label %19

10:                                               ; preds = %1
  %11 = tail call i8* @_ZN7logging15CheckOpValueStrEm(i64 0) #11
  %12 = tail call i8* @_ZN7logging15CheckOpValueStrEj(i32 0) #11
  call void @_ZN7logging13CheckOpResultC1EPKcPcS3_(%"class.logging::CheckOpResult"* nonnull %2, i8* getelementptr inbounds ([18 x i8], [18 x i8]* @.str.8, i64 0, i64 0), i8* %11, i8* %12) #11
  %13 = getelementptr inbounds %"class.logging::CheckOpResult", %"class.logging::CheckOpResult"* %2, i64 0, i32 0
  %14 = load i8*, i8** %13, align 8
  call void @llvm.lifetime.end.p0i8(i64 8, i8* nonnull %7)
  store i8* %14, i8** %6, align 8
  %15 = icmp eq i8* %14, null
  br i1 %15, label %19, label %16

16:                                               ; preds = %10
  %17 = bitcast %"class.logging::CheckError"* %4 to i8*
  call void @llvm.lifetime.start.p0i8(i64 8, i8* nonnull %17) #11
  call void @_ZN7logging10CheckError7CheckOpEPKciPNS_13CheckOpResultE(%"class.logging::CheckError"* nonnull sret %4, i8* getelementptr inbounds ([93 x i8], [93 x i8]* @.str.9, i64 0, i64 0), i32 86, %"class.logging::CheckOpResult"* nonnull %3) #11
  %18 = call dereferenceable(160) %"class.std::__1::basic_ostream"* @_ZN7logging10CheckError6streamEv(%"class.logging::CheckError"* nonnull %4) #11
  call void @_ZN7logging10CheckErrorD1Ev(%"class.logging::CheckError"* nonnull %4) #11
  call void @llvm.lifetime.end.p0i8(i64 8, i8* nonnull %17) #11
  br label %19

19:                                               ; preds = %9, %10, %16
  call void @llvm.lifetime.end.p0i8(i64 8, i8* nonnull %5) #11
  %20 = shl i64 %0, 3
  %21 = call i8* @_ZN5blink17HeapVectorBackingINS_6MemberINS_21HandwritingPredictionEEEN3WTF12VectorTraitsIS3_EEE14AllocateObjectIS7_EEPvm(i64 %20)
  %22 = bitcast i8* %21 to %"class.blink::HeapVectorBacking"*
  %23 = getelementptr inbounds i8, i8* %21, i64 -4
  %24 = bitcast i8* %23 to i16*
  %25 = load atomic i16, i16* %24 monotonic, align 2
  %26 = or i16 %25, 1
  store atomic i16 %26, i16* %24 release, align 2
  ret %"class.blink::HeapVectorBacking"* %22
}

; Function Attrs: nounwind ssp uwtable
define linkonce_odr hidden i8* @_ZN5blink17HeapVectorBackingINS_6MemberINS_21HandwritingPredictionEEEN3WTF12VectorTraitsIS3_EEE14AllocateObjectIS7_EEPvm(i64) local_unnamed_addr #0 comdat align 2 {
  %2 = load %"class.WTF::ThreadSpecific"*, %"class.WTF::ThreadSpecific"** @_ZN5blink11ThreadState16thread_specific_E, align 8
  %3 = getelementptr inbounds %"class.WTF::ThreadSpecific", %"class.WTF::ThreadSpecific"* %2, i64 0, i32 1
  %4 = tail call i8* @_ZNK4base18ThreadLocalStorage4Slot3GetEv(%"class.base::ThreadLocalStorage::Slot"* %3) #11
  %5 = icmp eq i8* %4, null
  br i1 %5, label %6, label %8, !prof !2

6:                                                ; preds = %1
  %7 = tail call i8* @_ZN3WTF10Partitions16FastZeroedMallocEmPKc(i64 8, i8* getelementptr inbounds ([68 x i8], [68 x i8]* @__PRETTY_FUNCTION__._ZN3WTF21GetStringWithTypeNameIPN5blink11ThreadStateEEEPKcv, i64 0, i64 0)) #11
  tail call void @_ZN4base18ThreadLocalStorage4Slot3SetEPv(%"class.base::ThreadLocalStorage::Slot"* %3, i8* %7) #11
  br label %8

8:                                                ; preds = %1, %6
  %9 = phi i8* [ %7, %6 ], [ %4, %1 ]
  %10 = bitcast i8* %9 to %"class.blink::ThreadState"**
  %11 = load %"class.blink::ThreadState"*, %"class.blink::ThreadState"** %10, align 8
  %12 = getelementptr inbounds %"class.blink::ThreadState", %"class.blink::ThreadState"* %11, i64 0, i32 0, i32 0, i32 0, i32 0
  %13 = load %"class.blink::ThreadHeap"*, %"class.blink::ThreadHeap"** %12, align 8
  %14 = load atomic i32, i32* getelementptr inbounds ({ { i32 } }, { { i32 } }* @_ZZN5blink11GCInfoTraitINS_17HeapVectorBackingINS_6MemberINS_21HandwritingPredictionEEEN3WTF12VectorTraitsIS4_EEEEE5IndexEvE13gc_info_index, i64 0, i32 0, i32 0) acquire, align 4
  %15 = icmp eq i32 %14, 0
  br i1 %15, label %16, label %19

16:                                               ; preds = %8
  %17 = load %"class.blink::GCInfoTable"*, %"class.blink::GCInfoTable"** @_ZN5blink11GCInfoTable13global_table_E, align 8
  %18 = tail call i32 @_ZN5blink11GCInfoTable17EnsureGCInfoIndexEPKNS_6GCInfoEPNSt3__16atomicIjEE(%"class.blink::GCInfoTable"* %17, %"struct.blink::GCInfo"* nonnull @_ZZN5blink11GCInfoTraitINS_17HeapVectorBackingINS_6MemberINS_21HandwritingPredictionEEEN3WTF12VectorTraitsIS4_EEEEE5IndexEvE7kGcInfo, %"struct.std::__1::atomic"* bitcast ({ { i32 } }* @_ZZN5blink11GCInfoTraitINS_17HeapVectorBackingINS_6MemberINS_21HandwritingPredictionEEEN3WTF12VectorTraitsIS4_EEEEE5IndexEvE13gc_info_index to %"struct.std::__1::atomic"*)) #11
  br label %19

19:                                               ; preds = %8, %16
  %20 = phi i32 [ %14, %8 ], [ %18, %16 ]
  %21 = tail call i8* @_ZN5blink10ThreadHeap20AllocateOnArenaIndexEPNS_11ThreadStateEmijPKc(%"class.blink::ThreadHeap"* %13, %"class.blink::ThreadState"* %11, i64 %0, i32 4, i32 %20, i8* getelementptr inbounds ([183 x i8], [183 x i8]* @__PRETTY_FUNCTION__._ZN3WTF21GetStringWithTypeNameIN5blink17HeapVectorBackingINS1_6MemberINS1_21HandwritingPredictionEEENS_12VectorTraitsIS5_EEEEEEPKcv, i64 0, i64 0))
  ret i8* %21
}

declare i8* @_ZN7logging15CheckOpValueStrEj(i32) local_unnamed_addr #4

; Function Attrs: nounwind ssp uwtable
define linkonce_odr hidden void @_ZN5blink10TraceTraitINS_17HeapVectorBackingINS_6MemberINS_21HandwritingPredictionEEEN3WTF12VectorTraitsIS4_EEEEE5TraceEPNS_7VisitorEPKv(%"class.blink::Visitor"*, i8*) #0 comdat align 2 {
  %3 = bitcast i8* %1 to %"class.blink::Member.372"*
  %4 = getelementptr inbounds i8, i8* %1, i64 -2
  %5 = bitcast i8* %4 to i16*
  %6 = load i16, i16* %5, align 2
  %7 = lshr i16 %6, 2
  %8 = icmp eq i16 %7, 0
  br i1 %8, label %9, label %17, !prof !2

9:                                                ; preds = %2
  %10 = getelementptr inbounds i8, i8* %1, i64 -8
  %11 = ptrtoint i8* %10 to i64
  %12 = and i64 %11, -131072
  %13 = inttoptr i64 %12 to i8*
  %14 = getelementptr inbounds i8, i8* %13, i64 4144
  %15 = bitcast i8* %14 to i64*
  %16 = load i64, i64* %15, align 16
  br label %20

17:                                               ; preds = %2
  %18 = zext i16 %7 to i64
  %19 = shl nuw nsw i64 %18, 3
  br label %20

20:                                               ; preds = %17, %9
  %21 = phi i64 [ %16, %9 ], [ %19, %17 ]
  %22 = add i64 %21, -8
  %23 = lshr i64 %22, 3
  %24 = icmp eq i64 %23, 0
  br i1 %24, label %41, label %25

25:                                               ; preds = %20
  %26 = bitcast %"class.blink::Visitor"* %0 to void (%"class.blink::Visitor"*, i8*, i8*, void (%"class.blink::Visitor"*, i8*)*)***
  br label %27

27:                                               ; preds = %38, %25
  %28 = phi i64 [ 0, %25 ], [ %39, %38 ]
  %29 = getelementptr inbounds %"class.blink::Member.372", %"class.blink::Member.372"* %3, i64 %28
  %30 = bitcast %"class.blink::Member.372"* %29 to i64*
  %31 = load atomic i64, i64* %30 monotonic, align 8
  %32 = icmp eq i64 %31, 0
  br i1 %32, label %38, label %33

33:                                               ; preds = %27
  %34 = inttoptr i64 %31 to i8*
  %35 = load void (%"class.blink::Visitor"*, i8*, i8*, void (%"class.blink::Visitor"*, i8*)*)**, void (%"class.blink::Visitor"*, i8*, i8*, void (%"class.blink::Visitor"*, i8*)*)*** %26, align 8
  %36 = getelementptr inbounds void (%"class.blink::Visitor"*, i8*, i8*, void (%"class.blink::Visitor"*, i8*)*)*, void (%"class.blink::Visitor"*, i8*, i8*, void (%"class.blink::Visitor"*, i8*)*)** %35, i64 5
  %37 = load void (%"class.blink::Visitor"*, i8*, i8*, void (%"class.blink::Visitor"*, i8*)*)*, void (%"class.blink::Visitor"*, i8*, i8*, void (%"class.blink::Visitor"*, i8*)*)** %36, align 8
  tail call void %37(%"class.blink::Visitor"* %0, i8* nonnull %34, i8* nonnull %34, void (%"class.blink::Visitor"*, i8*)* nonnull @_ZN5blink10TraceTraitINS_21HandwritingPredictionEE5TraceEPNS_7VisitorEPKv) #11
  br label %38

38:                                               ; preds = %33, %27
  %39 = add nuw nsw i64 %28, 1
  %40 = icmp eq i64 %39, %23
  br i1 %40, label %41, label %27

41:                                               ; preds = %38, %20
  ret void
}

; Function Attrs: nounwind ssp uwtable
define linkonce_odr hidden { i8*, i8 } @_ZN5blink9NameTraitINS_17HeapVectorBackingINS_6MemberINS_21HandwritingPredictionEEEN3WTF12VectorTraitsIS4_EEEEE7GetNameEPKv(i8*) #0 comdat align 2 {
  ret { i8*, i8 } { i8* getelementptr inbounds ([13 x i8], [13 x i8]* @.str.10, i64 0, i64 0), i8 1 }
}

; Function Attrs: nounwind ssp uwtable
define linkonce_odr hidden void @_ZN5blink10TraceTraitINS_21HandwritingPredictionEE5TraceEPNS_7VisitorEPKv(%"class.blink::Visitor"*, i8*) #0 comdat align 2 {
  %3 = bitcast i8* %1 to %"class.blink::HandwritingPrediction"*
  %4 = bitcast i8* %1 to void (%"class.blink::HandwritingPrediction"*, %"class.blink::Visitor"*)***
  %5 = load void (%"class.blink::HandwritingPrediction"*, %"class.blink::Visitor"*)**, void (%"class.blink::HandwritingPrediction"*, %"class.blink::Visitor"*)*** %4, align 8
  %6 = getelementptr inbounds void (%"class.blink::HandwritingPrediction"*, %"class.blink::Visitor"*)*, void (%"class.blink::HandwritingPrediction"*, %"class.blink::Visitor"*)** %5, i64 3
  %7 = load void (%"class.blink::HandwritingPrediction"*, %"class.blink::Visitor"*)*, void (%"class.blink::HandwritingPrediction"*, %"class.blink::Visitor"*)** %6, align 8
  tail call void %7(%"class.blink::HandwritingPrediction"* %3, %"class.blink::Visitor"* %0) #11
  ret void
}

declare zeroext i1 @_ZN5blink13HeapAllocator19ExpandVectorBackingEPvm(i8*, i64) local_unnamed_addr #4

declare void @_ZN3WTF17AtomicWriteMemcpyEPvPKvm(i8*, i8*, i64) local_unnamed_addr #4

declare void @_ZN3WTF13AtomicMemzeroEPvm(i8*, i64) local_unnamed_addr #4

declare void @_ZN5blink13HeapAllocator17FreeVectorBackingEPv(i8*) local_unnamed_addr #4

declare %"class.blink::HandwritingPrediction"* @_ZN4mojo13TypeConverterIPN5blink21HandwritingPredictionENS_9StructPtrIN11handwriting5mojom5blink21HandwritingPredictionEEEE7ConvertERKS9_(%"class.mojo::StructPtr.333"* dereferenceable(8)) local_unnamed_addr #4

; Function Attrs: nounwind ssp uwtable
define linkonce_odr hidden void @_ZN5blink21ScriptPromiseResolver15ResolveOrRejectINS_10HeapVectorINS_6MemberINS_21HandwritingPredictionEEELj0EEEEEvT_NS0_15ResolutionStateE(%"class.blink::ScriptPromiseResolver"*, %"class.blink::HeapVector.366"*, i32) local_unnamed_addr #0 comdat align 2 {
  %4 = alloca i64, align 8
  %5 = alloca %"class.blink::ScriptState::Scope", align 8
  %6 = alloca %"class.v8::MicrotasksScope", align 8
  %7 = getelementptr inbounds %"class.blink::ScriptPromiseResolver", %"class.blink::ScriptPromiseResolver"* %0, i64 0, i32 2
  %8 = load i32, i32* %7, align 8
  %9 = icmp eq i32 %8, 0
  br i1 %9, label %10, label %112

10:                                               ; preds = %3
  %11 = getelementptr inbounds %"class.blink::ScriptPromiseResolver", %"class.blink::ScriptPromiseResolver"* %0, i64 0, i32 3, i32 0, i32 0
  %12 = load %"class.blink::ScriptState"*, %"class.blink::ScriptState"** %11, align 8
  %13 = getelementptr inbounds %"class.blink::ScriptState", %"class.blink::ScriptState"* %12, i64 0, i32 1, i32 0, i32 0, i32 0
  %14 = load %"class.v8::Context"*, %"class.v8::Context"** %13, align 8
  %15 = icmp eq %"class.v8::Context"* %14, null
  br i1 %15, label %112, label %16

16:                                               ; preds = %10
  %17 = getelementptr inbounds %"class.blink::ScriptState", %"class.blink::ScriptState"* %12, i64 0, i32 3, i32 0, i32 0
  %18 = load %"class.blink::V8PerContextData"*, %"class.blink::V8PerContextData"** %17, align 8
  %19 = icmp eq %"class.blink::V8PerContextData"* %18, null
  br i1 %19, label %112, label %20

20:                                               ; preds = %16
  %21 = bitcast %"class.blink::ScriptPromiseResolver"* %0 to %"class.blink::ExecutionContextLifecycleObserver"*
  %22 = tail call %"class.blink::ExecutionContext"* @_ZNK5blink33ExecutionContextLifecycleObserver19GetExecutionContextEv(%"class.blink::ExecutionContextLifecycleObserver"* %21) #11
  %23 = icmp eq %"class.blink::ExecutionContext"* %22, null
  br i1 %23, label %112, label %24

24:                                               ; preds = %20
  %25 = tail call %"class.blink::ExecutionContext"* @_ZNK5blink33ExecutionContextLifecycleObserver19GetExecutionContextEv(%"class.blink::ExecutionContextLifecycleObserver"* %21) #11
  %26 = getelementptr inbounds %"class.blink::ExecutionContext", %"class.blink::ExecutionContext"* %25, i64 0, i32 13
  %27 = load i8, i8* %26, align 4, !range !19
  %28 = icmp eq i8 %27, 0
  br i1 %28, label %29, label %112

29:                                               ; preds = %24
  store i32 %2, i32* %7, align 8
  %30 = bitcast %"class.blink::ScriptState::Scope"* %5 to i8*
  call void @llvm.lifetime.start.p0i8(i64 32, i8* nonnull %30) #11
  %31 = getelementptr inbounds %"class.blink::ScriptState::Scope", %"class.blink::ScriptState::Scope"* %5, i64 0, i32 1, i32 0
  %32 = bitcast %"class.blink::ScriptState::Scope"* %5 to i8*
  call void @llvm.memset.p0i8.i64(i8* nonnull align 8 %32, i8 -86, i64 32, i1 false)
  %33 = load %"class.blink::ScriptState"*, %"class.blink::ScriptState"** %11, align 8
  %34 = getelementptr inbounds %"class.blink::ScriptState::Scope", %"class.blink::ScriptState::Scope"* %5, i64 0, i32 0
  %35 = getelementptr inbounds %"class.blink::ScriptState", %"class.blink::ScriptState"* %33, i64 0, i32 0
  %36 = load %"class.v8::Isolate"*, %"class.v8::Isolate"** %35, align 8
  call void @_ZN2v811HandleScopeC1EPNS_7IsolateE(%"class.v8::HandleScope"* nonnull %34, %"class.v8::Isolate"* %36) #11
  %37 = getelementptr inbounds %"class.blink::ScriptState", %"class.blink::ScriptState"* %33, i64 0, i32 1, i32 0, i32 0, i32 0
  %38 = load %"class.v8::Context"*, %"class.v8::Context"** %37, align 8
  %39 = icmp eq %"class.v8::Context"* %38, null
  br i1 %39, label %47, label %40

40:                                               ; preds = %29
  %41 = bitcast %"class.blink::ScriptState"* %33 to %"class.v8::internal::Isolate"**
  %42 = load %"class.v8::internal::Isolate"*, %"class.v8::internal::Isolate"** %41, align 8
  %43 = bitcast %"class.v8::Context"* %38 to i64*
  %44 = load i64, i64* %43, align 8
  %45 = call i64* @_ZN2v811HandleScope12CreateHandleEPNS_8internal7IsolateEm(%"class.v8::internal::Isolate"* %42, i64 %44) #11
  %46 = bitcast i64* %45 to %"class.v8::Context"*
  br label %47

47:                                               ; preds = %29, %40
  %48 = phi %"class.v8::Context"* [ %46, %40 ], [ null, %29 ]
  store %"class.v8::Context"* %48, %"class.v8::Context"** %31, align 8
  call void @_ZN2v87Context5EnterEv(%"class.v8::Context"* %48) #11
  %49 = call dereferenceable(4) i32* @_ZN5blink20ScriptForbiddenScope17GetMutableCounterEv() #11
  %50 = load i32, i32* %49, align 4
  store i32 0, i32* %49, align 4
  %51 = load %"class.blink::ScriptState"*, %"class.blink::ScriptState"** %11, align 8
  %52 = getelementptr inbounds %"class.blink::ScriptState", %"class.blink::ScriptState"* %51, i64 0, i32 0
  %53 = load %"class.v8::Isolate"*, %"class.v8::Isolate"** %52, align 8
  %54 = bitcast %"class.v8::MicrotasksScope"* %6 to i8*
  call void @llvm.lifetime.start.p0i8(i64 24, i8* nonnull %54) #11
  %55 = bitcast %"class.v8::MicrotasksScope"* %6 to i8*
  call void @llvm.memset.p0i8.i64(i8* nonnull align 8 %55, i8 -86, i64 24, i1 false)
  call void @_ZN2v815MicrotasksScopeC1EPNS_7IsolateENS0_4TypeE(%"class.v8::MicrotasksScope"* nonnull %6, %"class.v8::Isolate"* %53, i32 1) #11
  %56 = getelementptr inbounds %"class.blink::ScriptPromiseResolver", %"class.blink::ScriptPromiseResolver"* %0, i64 0, i32 6
  %57 = load %"class.blink::ScriptState"*, %"class.blink::ScriptState"** %11, align 8
  %58 = getelementptr inbounds %"class.blink::ScriptState", %"class.blink::ScriptState"* %57, i64 0, i32 1, i32 0, i32 0, i32 0
  %59 = load %"class.v8::Context"*, %"class.v8::Context"** %58, align 8
  %60 = icmp eq %"class.v8::Context"* %59, null
  br i1 %60, label %68, label %61

61:                                               ; preds = %47
  %62 = bitcast %"class.blink::ScriptState"* %57 to %"class.v8::internal::Isolate"**
  %63 = load %"class.v8::internal::Isolate"*, %"class.v8::internal::Isolate"** %62, align 8
  %64 = bitcast %"class.v8::Context"* %59 to i64*
  %65 = load i64, i64* %64, align 8
  %66 = call i64* @_ZN2v811HandleScope12CreateHandleEPNS_8internal7IsolateEm(%"class.v8::internal::Isolate"* %63, i64 %65) #11
  %67 = bitcast i64* %66 to %"class.v8::Context"*
  br label %68

68:                                               ; preds = %47, %61
  %69 = phi %"class.v8::Context"* [ %67, %61 ], [ null, %47 ]
  %70 = call %"class.v8::Object"* @_ZN2v87Context6GlobalEv(%"class.v8::Context"* %69) #11
  %71 = load %"class.blink::ScriptState"*, %"class.blink::ScriptState"** %11, align 8
  %72 = getelementptr inbounds %"class.blink::ScriptState", %"class.blink::ScriptState"* %71, i64 0, i32 0
  %73 = load %"class.v8::Isolate"*, %"class.v8::Isolate"** %72, align 8
  %74 = call %"class.v8::Array"* @_ZN5blink20ToV8SequenceInternalINS_10HeapVectorINS_6MemberINS_21HandwritingPredictionEEELj0EEEEEN2v85LocalINS6_5ArrayEEERKT_NS7_INS6_6ObjectEEEPNS6_7IsolateE(%"class.blink::HeapVector.366"* dereferenceable(16) %1, %"class.v8::Object"* %70, %"class.v8::Isolate"* %73) #11
  %75 = getelementptr inbounds %"class.blink::TraceWrapperV8Reference.284", %"class.blink::TraceWrapperV8Reference.284"* %56, i64 0, i32 0, i32 0, i32 0, i32 0
  %76 = load i64*, i64** %75, align 8
  %77 = icmp eq i64* %76, null
  br i1 %77, label %80, label %78

78:                                               ; preds = %68
  call void @_ZN2v82V819DisposeTracedGlobalEPm(i64* nonnull %76) #11
  %79 = bitcast %"class.blink::TraceWrapperV8Reference.284"* %56 to i64*
  store atomic i64 0, i64* %79 monotonic, align 8
  br label %80

80:                                               ; preds = %78, %68
  %81 = icmp eq %"class.v8::Array"* %74, null
  br i1 %81, label %88, label %82

82:                                               ; preds = %80
  %83 = bitcast %"class.v8::Array"* %74 to i64*
  %84 = bitcast %"class.v8::Isolate"* %53 to %"class.v8::internal::Isolate"*
  %85 = bitcast %"class.blink::TraceWrapperV8Reference.284"* %56 to i64*
  %86 = call i64* @_ZN2v82V824GlobalizeTracedReferenceEPNS_8internal7IsolateEPmS4_b(%"class.v8::internal::Isolate"* %84, i64* nonnull %83, i64* %85, i1 zeroext false) #11
  %87 = ptrtoint i64* %86 to i64
  store atomic i64 %87, i64* %85 monotonic, align 8
  br label %88

88:                                               ; preds = %80, %82
  call void @_ZN5blink25UnifiedHeapMarkingVisitor12WriteBarrierERKNS_23TraceWrapperV8ReferenceIN2v85ValueEEE(%"class.blink::TraceWrapperV8Reference.284"* dereferenceable(8) %56) #11
  call void @_ZN2v815MicrotasksScopeD1Ev(%"class.v8::MicrotasksScope"* nonnull %6) #11
  call void @llvm.lifetime.end.p0i8(i64 24, i8* nonnull %54) #11
  %89 = icmp eq i32* %49, null
  br i1 %89, label %91, label %90

90:                                               ; preds = %88
  store i32 %50, i32* %49, align 4
  br label %91

91:                                               ; preds = %88, %90
  %92 = call %"class.blink::ExecutionContext"* @_ZNK5blink33ExecutionContextLifecycleObserver19GetExecutionContextEv(%"class.blink::ExecutionContextLifecycleObserver"* %21) #11
  %93 = call zeroext i1 @_ZNK5blink16ExecutionContext15IsContextPausedEv(%"class.blink::ExecutionContext"* %92) #11
  br i1 %93, label %94, label %95

94:                                               ; preds = %91
  call void @_ZN5blink21ScriptPromiseResolver23ScheduleResolveOrRejectEv(%"class.blink::ScriptPromiseResolver"* %0) #11
  br label %110

95:                                               ; preds = %91
  %96 = bitcast i64* %4 to i8*
  call void @llvm.lifetime.start.p0i8(i64 8, i8* nonnull %96) #11
  %97 = load i64, i64* @_ZN3WTF8internal25g_main_thread_stack_startE, align 8
  %98 = ptrtoint i64* %4 to i64
  %99 = sub i64 %97, %98
  %100 = load i64, i64* @_ZN3WTF8internal39g_main_thread_underestimated_stack_sizeE, align 8
  %101 = icmp ult i64 %99, %100
  call void @llvm.lifetime.end.p0i8(i64 8, i8* nonnull %96) #11
  br i1 %101, label %104, label %102, !prof !3

102:                                              ; preds = %95
  %103 = call dereferenceable(4) i32* @_ZN5blink20ScriptForbiddenScope17GetMutableCounterEv() #11
  br label %104

104:                                              ; preds = %95, %102
  %105 = phi i32* [ %103, %102 ], [ @_ZN5blink20ScriptForbiddenScope22g_main_thread_counter_E, %95 ]
  %106 = load i32, i32* %105, align 4
  %107 = icmp eq i32 %106, 0
  br i1 %107, label %109, label %108

108:                                              ; preds = %104
  call void @_ZN5blink21ScriptPromiseResolver23ScheduleResolveOrRejectEv(%"class.blink::ScriptPromiseResolver"* %0) #11
  br label %110

109:                                              ; preds = %104
  call void @_ZN5blink21ScriptPromiseResolver26ResolveOrRejectImmediatelyEv(%"class.blink::ScriptPromiseResolver"* %0) #11
  br label %110

110:                                              ; preds = %109, %108, %94
  %111 = load %"class.v8::Context"*, %"class.v8::Context"** %31, align 8
  call void @_ZN2v87Context4ExitEv(%"class.v8::Context"* %111) #11
  call void @_ZN2v811HandleScopeD1Ev(%"class.v8::HandleScope"* nonnull %34) #11
  call void @llvm.lifetime.end.p0i8(i64 32, i8* nonnull %30) #11
  br label %112

112:                                              ; preds = %24, %16, %10, %20, %3, %110
  ret void
}

declare %"class.blink::ExecutionContext"* @_ZNK5blink33ExecutionContextLifecycleObserver19GetExecutionContextEv(%"class.blink::ExecutionContextLifecycleObserver"*) local_unnamed_addr #4

declare void @_ZN2v815MicrotasksScopeC1EPNS_7IsolateENS0_4TypeE(%"class.v8::MicrotasksScope"*, %"class.v8::Isolate"*, i32) unnamed_addr #4

declare %"class.v8::Object"* @_ZN2v87Context6GlobalEv(%"class.v8::Context"*) local_unnamed_addr #4

; Function Attrs: nounwind
declare void @_ZN2v815MicrotasksScopeD1Ev(%"class.v8::MicrotasksScope"*) unnamed_addr #5

declare zeroext i1 @_ZNK5blink16ExecutionContext15IsContextPausedEv(%"class.blink::ExecutionContext"*) local_unnamed_addr #4

declare void @_ZN5blink21ScriptPromiseResolver23ScheduleResolveOrRejectEv(%"class.blink::ScriptPromiseResolver"*) local_unnamed_addr #4

declare void @_ZN5blink21ScriptPromiseResolver26ResolveOrRejectImmediatelyEv(%"class.blink::ScriptPromiseResolver"*) local_unnamed_addr #4

declare void @_ZN2v811HandleScopeC1EPNS_7IsolateE(%"class.v8::HandleScope"*, %"class.v8::Isolate"*) unnamed_addr #4

declare void @_ZN2v87Context5EnterEv(%"class.v8::Context"*) local_unnamed_addr #4

declare dereferenceable(4) i32* @_ZN5blink20ScriptForbiddenScope17GetMutableCounterEv() local_unnamed_addr #4

declare void @_ZN5blink25UnifiedHeapMarkingVisitor12WriteBarrierERKNS_23TraceWrapperV8ReferenceIN2v85ValueEEE(%"class.blink::TraceWrapperV8Reference.284"* dereferenceable(8)) local_unnamed_addr #4

declare void @_ZN2v82V819DisposeTracedGlobalEPm(i64*) local_unnamed_addr #4

declare i64* @_ZN2v82V824GlobalizeTracedReferenceEPNS_8internal7IsolateEPmS4_b(%"class.v8::internal::Isolate"*, i64*, i64*, i1 zeroext) local_unnamed_addr #4

; Function Attrs: inlinehint nounwind ssp uwtable
define linkonce_odr hidden %"class.v8::Array"* @_ZN5blink20ToV8SequenceInternalINS_10HeapVectorINS_6MemberINS_21HandwritingPredictionEEELj0EEEEEN2v85LocalINS6_5ArrayEEERKT_NS7_INS6_6ObjectEEEPNS6_7IsolateE(%"class.blink::HeapVector.366"* dereferenceable(16), %"class.v8::Object"*, %"class.v8::Isolate"*) local_unnamed_addr #3 comdat {
  %4 = alloca %"class.absl::optional.426", align 8
  %5 = getelementptr inbounds %"class.absl::optional.426", %"class.absl::optional.426"* %4, i64 0, i32 0, i32 0, i32 0, i32 0
  call void @llvm.lifetime.start.p0i8(i64 56, i8* nonnull %5) #11
  %6 = bitcast %"class.absl::optional.426"* %4 to i64*
  store i64 -6148914691236517206, i64* %6, align 8
  store i8 0, i8* %5, align 8
  %7 = getelementptr inbounds %"class.absl::optional.426", %"class.absl::optional.426"* %4, i64 0, i32 0, i32 0, i32 0, i32 1
  %8 = bitcast %union.anon.430* %7 to i8*
  call void @llvm.memset.p0i8.i64(i8* align 8 %8, i8 0, i64 48, i1 false) #11
  %9 = load i8, i8* @_ZN5blink26RuntimeEnabledFeaturesBase36is_blink_runtime_call_stats_enabled_E, align 1, !range !19
  %10 = icmp eq i8 %9, 0
  br i1 %10, label %25, label %11, !prof !3

11:                                               ; preds = %3
  %12 = tail call %"class.blink::RuntimeCallStats"* @_ZN5blink16RuntimeCallStats4FromEPN2v87IsolateE(%"class.v8::Isolate"* %2) #11
  %13 = getelementptr inbounds %"class.blink::RuntimeCallStats", %"class.blink::RuntimeCallStats"* %12, i64 0, i32 3
  %14 = bitcast %"class.base::TickClock"** %13 to i64*
  %15 = load i64, i64* %14, align 8
  %16 = getelementptr inbounds %"class.absl::optional.426", %"class.absl::optional.426"* %4, i64 0, i32 0, i32 0, i32 0, i32 1, i32 0, i32 0
  store %"class.blink::RuntimeCallStats"* %12, %"class.blink::RuntimeCallStats"** %16, align 8
  %17 = getelementptr inbounds %"class.absl::optional.426", %"class.absl::optional.426"* %4, i64 0, i32 0, i32 0, i32 0, i32 1, i32 0, i32 1
  %18 = getelementptr inbounds %"class.absl::optional.426", %"class.absl::optional.426"* %4, i64 0, i32 0, i32 0, i32 0, i32 1, i32 0, i32 1, i32 2, i32 0, i32 0
  %19 = getelementptr inbounds %"class.absl::optional.426", %"class.absl::optional.426"* %4, i64 0, i32 0, i32 0, i32 0, i32 1, i32 0, i32 1, i32 4
  %20 = bitcast i64* %18 to i8*
  call void @llvm.memset.p0i8.i64(i8* align 8 %20, i8 0, i64 16, i1 false) #11
  %21 = bitcast %"class.base::TickClock"** %19 to i64*
  store i64 %15, i64* %21, align 8
  %22 = getelementptr inbounds %"class.blink::RuntimeCallStats", %"class.blink::RuntimeCallStats"* %12, i64 0, i32 2, i64 5
  %23 = getelementptr inbounds %"class.blink::RuntimeCallStats", %"class.blink::RuntimeCallStats"* %12, i64 0, i32 0
  %24 = load %"class.blink::RuntimeCallTimer"*, %"class.blink::RuntimeCallTimer"** %23, align 8
  call void @_ZN5blink16RuntimeCallTimer5StartEPNS_18RuntimeCallCounterEPS0_(%"class.blink::RuntimeCallTimer"* %17, %"class.blink::RuntimeCallCounter"* %22, %"class.blink::RuntimeCallTimer"* %24) #11
  store %"class.blink::RuntimeCallTimer"* %17, %"class.blink::RuntimeCallTimer"** %23, align 8
  store i8 1, i8* %5, align 8
  br label %25

25:                                               ; preds = %3, %11
  %26 = call %"class.v8::Context"* @_ZN2v86Object15CreationContextEv(%"class.v8::Object"* %1) #11
  call void @_ZN2v87Context5EnterEv(%"class.v8::Context"* %26) #11
  %27 = getelementptr inbounds %"class.blink::HeapVector.366", %"class.blink::HeapVector.366"* %0, i64 0, i32 0, i32 0, i32 0, i32 2
  %28 = load i32, i32* %27, align 4
  %29 = icmp sgt i32 %28, -1
  br i1 %29, label %31, label %30, !prof !3

30:                                               ; preds = %25
  call void @llvm.trap() #11
  unreachable

31:                                               ; preds = %25
  %32 = call %"class.v8::Array"* @_ZN2v85Array3NewEPNS_7IsolateEi(%"class.v8::Isolate"* %2, i32 %28) #11
  %33 = ptrtoint %"class.v8::Array"* %32 to i64
  call void @_ZN2v87Context4ExitEv(%"class.v8::Context"* %26) #11
  %34 = call %"class.v8::Context"* @_ZN2v87Isolate17GetCurrentContextEv(%"class.v8::Isolate"* %2) #11
  %35 = getelementptr inbounds %"class.blink::HeapVector.366", %"class.blink::HeapVector.366"* %0, i64 0, i32 0, i32 0, i32 0, i32 0
  %36 = load %"class.blink::Member.372"*, %"class.blink::Member.372"** %35, align 8
  %37 = load i32, i32* %27, align 4
  %38 = zext i32 %37 to i64
  %39 = getelementptr inbounds %"class.blink::Member.372", %"class.blink::Member.372"* %36, i64 %38
  %40 = icmp eq i32 %37, 0
  br i1 %40, label %75, label %41

41:                                               ; preds = %31
  %42 = bitcast %"class.v8::Array"* %32 to %"class.v8::Object"*
  %43 = ptrtoint %"class.v8::Isolate"* %2 to i64
  %44 = add i64 %43, 176
  %45 = inttoptr i64 %44 to %"class.v8::Value"*
  %46 = add i64 %43, 160
  br label %47

47:                                               ; preds = %41, %71
  %48 = phi i32 [ 0, %41 ], [ %72, %71 ]
  %49 = phi %"class.blink::Member.372"* [ %36, %41 ], [ %73, %71 ]
  %50 = getelementptr inbounds %"class.blink::Member.372", %"class.blink::Member.372"* %49, i64 0, i32 0, i32 0
  %51 = load %"class.blink::HandwritingPrediction"*, %"class.blink::HandwritingPrediction"** %50, align 8
  %52 = icmp eq %"class.blink::HandwritingPrediction"* %51, null
  br i1 %52, label %60, label %53

53:                                               ; preds = %47
  %54 = getelementptr inbounds %"class.blink::HandwritingPrediction", %"class.blink::HandwritingPrediction"* %51, i64 0, i32 0
  %55 = bitcast %"class.blink::HandwritingPrediction"* %51 to %"class.v8::Value"* (%"class.blink::IDLDictionaryBase"*, %"class.v8::Object"*, %"class.v8::Isolate"*)***
  %56 = load %"class.v8::Value"* (%"class.blink::IDLDictionaryBase"*, %"class.v8::Object"*, %"class.v8::Isolate"*)**, %"class.v8::Value"* (%"class.blink::IDLDictionaryBase"*, %"class.v8::Object"*, %"class.v8::Isolate"*)*** %55, align 8
  %57 = getelementptr inbounds %"class.v8::Value"* (%"class.blink::IDLDictionaryBase"*, %"class.v8::Object"*, %"class.v8::Isolate"*)*, %"class.v8::Value"* (%"class.blink::IDLDictionaryBase"*, %"class.v8::Object"*, %"class.v8::Isolate"*)** %56, i64 2
  %58 = load %"class.v8::Value"* (%"class.blink::IDLDictionaryBase"*, %"class.v8::Object"*, %"class.v8::Isolate"*)*, %"class.v8::Value"* (%"class.blink::IDLDictionaryBase"*, %"class.v8::Object"*, %"class.v8::Isolate"*)** %57, align 8
  %59 = call %"class.v8::Value"* %58(%"class.blink::IDLDictionaryBase"* nonnull %54, %"class.v8::Object"* %42, %"class.v8::Isolate"* %2) #11
  br label %60

60:                                               ; preds = %47, %53
  %61 = phi %"class.v8::Value"* [ %59, %53 ], [ %45, %47 ]
  %62 = ptrtoint %"class.v8::Value"* %61 to i64
  %63 = icmp eq %"class.v8::Value"* %61, null
  %64 = select i1 %63, i64 %46, i64 %62
  %65 = inttoptr i64 %64 to %"class.v8::Value"*
  %66 = call i16 @_ZN2v86Object18CreateDataPropertyENS_5LocalINS_7ContextEEEjNS1_INS_5ValueEEE(%"class.v8::Object"* %42, %"class.v8::Context"* %34, i32 %48, %"class.v8::Value"* %65) #11
  %67 = trunc i16 %66 to i8
  %68 = icmp eq i8 %67, 0
  %69 = icmp ult i16 %66, 256
  %70 = or i1 %69, %68
  br i1 %70, label %75, label %71, !prof !20

71:                                               ; preds = %60
  %72 = add i32 %48, 1
  %73 = getelementptr inbounds %"class.blink::Member.372", %"class.blink::Member.372"* %49, i64 1
  %74 = icmp eq %"class.blink::Member.372"* %73, %39
  br i1 %74, label %75, label %47

75:                                               ; preds = %71, %60, %31
  %76 = phi i64 [ %33, %31 ], [ 0, %60 ], [ %33, %71 ]
  %77 = load i8, i8* %5, align 8, !range !19
  %78 = icmp eq i8 %77, 0
  br i1 %78, label %85, label %79

79:                                               ; preds = %75
  %80 = getelementptr inbounds %"class.absl::optional.426", %"class.absl::optional.426"* %4, i64 0, i32 0, i32 0, i32 0, i32 1, i32 0, i32 0
  %81 = load %"class.blink::RuntimeCallStats"*, %"class.blink::RuntimeCallStats"** %80, align 8
  %82 = getelementptr inbounds %"class.absl::optional.426", %"class.absl::optional.426"* %4, i64 0, i32 0, i32 0, i32 0, i32 1, i32 0, i32 1
  %83 = call %"class.blink::RuntimeCallTimer"* @_ZN5blink16RuntimeCallTimer4StopEv(%"class.blink::RuntimeCallTimer"* %82) #11
  %84 = getelementptr inbounds %"class.blink::RuntimeCallStats", %"class.blink::RuntimeCallStats"* %81, i64 0, i32 0
  store %"class.blink::RuntimeCallTimer"* %83, %"class.blink::RuntimeCallTimer"** %84, align 8
  store i8 0, i8* %5, align 8
  br label %85

85:                                               ; preds = %75, %79
  call void @llvm.lifetime.end.p0i8(i64 56, i8* nonnull %5) #11
  %86 = inttoptr i64 %76 to %"class.v8::Array"*
  ret %"class.v8::Array"* %86
}

declare %"class.blink::RuntimeCallStats"* @_ZN5blink16RuntimeCallStats4FromEPN2v87IsolateE(%"class.v8::Isolate"*) local_unnamed_addr #4

declare %"class.v8::Context"* @_ZN2v86Object15CreationContextEv(%"class.v8::Object"*) local_unnamed_addr #4

declare %"class.v8::Array"* @_ZN2v85Array3NewEPNS_7IsolateEi(%"class.v8::Isolate"*, i32) local_unnamed_addr #4

declare %"class.v8::Context"* @_ZN2v87Isolate17GetCurrentContextEv(%"class.v8::Isolate"*) local_unnamed_addr #4

declare i16 @_ZN2v86Object18CreateDataPropertyENS_5LocalINS_7ContextEEEjNS1_INS_5ValueEEE(%"class.v8::Object"*, %"class.v8::Context"*, i32, %"class.v8::Value"*) local_unnamed_addr #4

declare %"class.blink::RuntimeCallTimer"* @_ZN5blink16RuntimeCallTimer4StopEv(%"class.blink::RuntimeCallTimer"*) local_unnamed_addr #4

declare void @_ZN5blink16RuntimeCallTimer5StartEPNS_18RuntimeCallCounterEPS0_(%"class.blink::RuntimeCallTimer"*, %"class.blink::RuntimeCallCounter"*, %"class.blink::RuntimeCallTimer"*) local_unnamed_addr #4

; Function Attrs: cold noreturn nounwind
declare void @llvm.trap() #9

declare void @_ZN2v87Context4ExitEv(%"class.v8::Context"*) local_unnamed_addr #4

declare i64* @_ZN2v811HandleScope12CreateHandleEPNS_8internal7IsolateEm(%"class.v8::internal::Isolate"*, i64) local_unnamed_addr #4

; Function Attrs: nounwind
declare void @_ZN2v811HandleScopeD1Ev(%"class.v8::HandleScope"*) unnamed_addr #5

; Function Attrs: nounwind ssp uwtable
define linkonce_odr hidden void @_ZN3WTF6VectorIN5blink6MemberINS1_21HandwritingPredictionEEELj0ENS1_13HeapAllocatorEEC2ERKS6_(%"class.WTF::Vector.369"*, %"class.WTF::Vector.369"* dereferenceable(16)) unnamed_addr #0 comdat align 2 {
  %3 = getelementptr inbounds %"class.WTF::Vector.369", %"class.WTF::Vector.369"* %1, i64 0, i32 0, i32 0, i32 1
  %4 = load i32, i32* %3, align 8
  %5 = getelementptr inbounds %"class.WTF::Vector.369", %"class.WTF::Vector.369"* %0, i64 0, i32 0, i32 0, i32 0
  store %"class.blink::Member.372"* null, %"class.blink::Member.372"** %5, align 8
  %6 = getelementptr inbounds %"class.WTF::Vector.369", %"class.WTF::Vector.369"* %0, i64 0, i32 0, i32 0, i32 1
  store i32 0, i32* %6, align 8
  %7 = icmp eq i32 %4, 0
  br i1 %7, label %23, label %8

8:                                                ; preds = %2
  %9 = zext i32 %4 to i64
  %10 = tail call i64 @_ZN5blink13HeapAllocator13QuantizedSizeINS_6MemberINS_21HandwritingPredictionEEEEEmm(i64 %9) #11
  %11 = lshr i64 %10, 3
  %12 = tail call %"class.blink::HeapVectorBacking"* @_ZN5blink25MakeGarbageCollectedTraitINS_17HeapVectorBackingINS_6MemberINS_21HandwritingPredictionEEEN3WTF12VectorTraitsIS4_EEEEE4CallEm(i64 %11) #11
  %13 = ptrtoint %"class.blink::HeapVectorBacking"* %12 to i64
  %14 = bitcast %"class.WTF::Vector.369"* %0 to i64*
  store atomic i64 %13, i64* %14 monotonic, align 8
  %15 = trunc i64 %11 to i32
  store i32 %15, i32* %6, align 8
  %16 = load atomic i32, i32* getelementptr inbounds (%"class.blink::AtomicEntryFlag", %"class.blink::AtomicEntryFlag"* @_ZN5blink11ThreadState25incremental_marking_flag_E, i64 0, i32 0, i32 0, i32 0, i32 0, i32 0, i32 0) monotonic, align 4
  %17 = icmp eq i32 %16, 0
  %18 = bitcast %"class.blink::HeapVectorBacking"* %12 to %"class.blink::Member.372"*
  br i1 %17, label %23, label %19

19:                                               ; preds = %8
  %20 = getelementptr inbounds %"class.blink::HeapVectorBacking", %"class.blink::HeapVectorBacking"* %12, i64 0, i32 0
  %21 = tail call zeroext i1 @_ZN5blink14MarkingVisitor16WriteBarrierSlowEPv(i8* %20) #11
  %22 = load %"class.blink::Member.372"*, %"class.blink::Member.372"** %5, align 8
  br label %23

23:                                               ; preds = %2, %8, %19
  %24 = phi %"class.blink::Member.372"* [ null, %2 ], [ %18, %8 ], [ %22, %19 ]
  %25 = getelementptr inbounds %"class.WTF::Vector.369", %"class.WTF::Vector.369"* %1, i64 0, i32 0, i32 0, i32 2
  %26 = load i32, i32* %25, align 4
  %27 = getelementptr inbounds %"class.WTF::Vector.369", %"class.WTF::Vector.369"* %0, i64 0, i32 0, i32 0, i32 2
  store i32 %26, i32* %27, align 4
  %28 = getelementptr inbounds %"class.WTF::Vector.369", %"class.WTF::Vector.369"* %1, i64 0, i32 0, i32 0, i32 0
  %29 = load %"class.blink::Member.372"*, %"class.blink::Member.372"** %28, align 8
  %30 = icmp ne %"class.blink::Member.372"* %24, null
  %31 = icmp ne %"class.blink::Member.372"* %29, null
  %32 = and i1 %31, %30
  br i1 %32, label %33, label %53, !prof !3

33:                                               ; preds = %23
  %34 = load i32, i32* %25, align 4
  %35 = zext i32 %34 to i64
  %36 = bitcast %"class.blink::Member.372"* %24 to i8*
  %37 = bitcast %"class.blink::Member.372"* %29 to i8*
  %38 = shl nuw nsw i64 %35, 3
  tail call void @_ZN3WTF17AtomicWriteMemcpyEPvPKvm(i8* nonnull %36, i8* nonnull %37, i64 %38) #11
  %39 = icmp eq i32 %34, 0
  br i1 %39, label %53, label %40

40:                                               ; preds = %33, %50
  %41 = phi i64 [ %43, %50 ], [ %35, %33 ]
  %42 = phi %"class.blink::Member.372"* [ %51, %50 ], [ %24, %33 ]
  %43 = add nsw i64 %41, -1
  %44 = load atomic i32, i32* getelementptr inbounds (%"class.blink::AtomicEntryFlag", %"class.blink::AtomicEntryFlag"* @_ZN5blink11ThreadState25incremental_marking_flag_E, i64 0, i32 0, i32 0, i32 0, i32 0, i32 0, i32 0) monotonic, align 4
  %45 = icmp eq i32 %44, 0
  br i1 %45, label %50, label %46

46:                                               ; preds = %40
  %47 = bitcast %"class.blink::Member.372"* %42 to i8**
  %48 = load i8*, i8** %47, align 8
  %49 = tail call zeroext i1 @_ZN5blink14MarkingVisitor16WriteBarrierSlowEPv(i8* %48) #11
  br label %50

50:                                               ; preds = %46, %40
  %51 = getelementptr inbounds %"class.blink::Member.372", %"class.blink::Member.372"* %42, i64 1
  %52 = icmp eq i64 %43, 0
  br i1 %52, label %53, label %40

53:                                               ; preds = %50, %23, %33
  ret void
}

; Function Attrs: nounwind
declare void @_ZN11handwriting5mojom5blink16HandwritingHintsD1Ev(%"class.handwriting::mojom::blink::HandwritingHints"*) unnamed_addr #5

declare void @_ZN3WTF18PartitionAllocator11FreeBackingEPv(i8*) local_unnamed_addr #4

; Function Attrs: nounwind ssp uwtable
define linkonce_odr hidden void @_ZN5blink21ScriptPromiseResolver15ResolveOrRejectIPNS_12DOMExceptionEEEvT_NS0_15ResolutionStateE(%"class.blink::ScriptPromiseResolver"*, %"class.blink::DOMException"*, i32) local_unnamed_addr #0 comdat align 2 {
  %4 = alloca i64, align 8
  %5 = alloca %"class.blink::ScriptState::Scope", align 8
  %6 = alloca %"class.v8::MicrotasksScope", align 8
  %7 = getelementptr inbounds %"class.blink::ScriptPromiseResolver", %"class.blink::ScriptPromiseResolver"* %0, i64 0, i32 2
  %8 = load i32, i32* %7, align 8
  %9 = icmp eq i32 %8, 0
  br i1 %9, label %10, label %134

10:                                               ; preds = %3
  %11 = getelementptr inbounds %"class.blink::ScriptPromiseResolver", %"class.blink::ScriptPromiseResolver"* %0, i64 0, i32 3, i32 0, i32 0
  %12 = load %"class.blink::ScriptState"*, %"class.blink::ScriptState"** %11, align 8
  %13 = getelementptr inbounds %"class.blink::ScriptState", %"class.blink::ScriptState"* %12, i64 0, i32 1, i32 0, i32 0, i32 0
  %14 = load %"class.v8::Context"*, %"class.v8::Context"** %13, align 8
  %15 = icmp eq %"class.v8::Context"* %14, null
  br i1 %15, label %134, label %16

16:                                               ; preds = %10
  %17 = getelementptr inbounds %"class.blink::ScriptState", %"class.blink::ScriptState"* %12, i64 0, i32 3, i32 0, i32 0
  %18 = load %"class.blink::V8PerContextData"*, %"class.blink::V8PerContextData"** %17, align 8
  %19 = icmp eq %"class.blink::V8PerContextData"* %18, null
  br i1 %19, label %134, label %20

20:                                               ; preds = %16
  %21 = bitcast %"class.blink::ScriptPromiseResolver"* %0 to %"class.blink::ExecutionContextLifecycleObserver"*
  %22 = tail call %"class.blink::ExecutionContext"* @_ZNK5blink33ExecutionContextLifecycleObserver19GetExecutionContextEv(%"class.blink::ExecutionContextLifecycleObserver"* %21) #11
  %23 = icmp eq %"class.blink::ExecutionContext"* %22, null
  br i1 %23, label %134, label %24

24:                                               ; preds = %20
  %25 = tail call %"class.blink::ExecutionContext"* @_ZNK5blink33ExecutionContextLifecycleObserver19GetExecutionContextEv(%"class.blink::ExecutionContextLifecycleObserver"* %21) #11
  %26 = getelementptr inbounds %"class.blink::ExecutionContext", %"class.blink::ExecutionContext"* %25, i64 0, i32 13
  %27 = load i8, i8* %26, align 4, !range !19
  %28 = icmp eq i8 %27, 0
  br i1 %28, label %29, label %134

29:                                               ; preds = %24
  store i32 %2, i32* %7, align 8
  %30 = bitcast %"class.blink::ScriptState::Scope"* %5 to i8*
  call void @llvm.lifetime.start.p0i8(i64 32, i8* nonnull %30) #11
  %31 = getelementptr inbounds %"class.blink::ScriptState::Scope", %"class.blink::ScriptState::Scope"* %5, i64 0, i32 1, i32 0
  %32 = bitcast %"class.blink::ScriptState::Scope"* %5 to i8*
  call void @llvm.memset.p0i8.i64(i8* nonnull align 8 %32, i8 -86, i64 32, i1 false)
  %33 = load %"class.blink::ScriptState"*, %"class.blink::ScriptState"** %11, align 8
  %34 = getelementptr inbounds %"class.blink::ScriptState::Scope", %"class.blink::ScriptState::Scope"* %5, i64 0, i32 0
  %35 = getelementptr inbounds %"class.blink::ScriptState", %"class.blink::ScriptState"* %33, i64 0, i32 0
  %36 = load %"class.v8::Isolate"*, %"class.v8::Isolate"** %35, align 8
  call void @_ZN2v811HandleScopeC1EPNS_7IsolateE(%"class.v8::HandleScope"* nonnull %34, %"class.v8::Isolate"* %36) #11
  %37 = getelementptr inbounds %"class.blink::ScriptState", %"class.blink::ScriptState"* %33, i64 0, i32 1, i32 0, i32 0, i32 0
  %38 = load %"class.v8::Context"*, %"class.v8::Context"** %37, align 8
  %39 = icmp eq %"class.v8::Context"* %38, null
  br i1 %39, label %47, label %40

40:                                               ; preds = %29
  %41 = bitcast %"class.blink::ScriptState"* %33 to %"class.v8::internal::Isolate"**
  %42 = load %"class.v8::internal::Isolate"*, %"class.v8::internal::Isolate"** %41, align 8
  %43 = bitcast %"class.v8::Context"* %38 to i64*
  %44 = load i64, i64* %43, align 8
  %45 = call i64* @_ZN2v811HandleScope12CreateHandleEPNS_8internal7IsolateEm(%"class.v8::internal::Isolate"* %42, i64 %44) #11
  %46 = bitcast i64* %45 to %"class.v8::Context"*
  br label %47

47:                                               ; preds = %29, %40
  %48 = phi %"class.v8::Context"* [ %46, %40 ], [ null, %29 ]
  store %"class.v8::Context"* %48, %"class.v8::Context"** %31, align 8
  call void @_ZN2v87Context5EnterEv(%"class.v8::Context"* %48) #11
  %49 = call dereferenceable(4) i32* @_ZN5blink20ScriptForbiddenScope17GetMutableCounterEv() #11
  %50 = load i32, i32* %49, align 4
  store i32 0, i32* %49, align 4
  %51 = load %"class.blink::ScriptState"*, %"class.blink::ScriptState"** %11, align 8
  %52 = getelementptr inbounds %"class.blink::ScriptState", %"class.blink::ScriptState"* %51, i64 0, i32 0
  %53 = load %"class.v8::Isolate"*, %"class.v8::Isolate"** %52, align 8
  %54 = bitcast %"class.v8::MicrotasksScope"* %6 to i8*
  call void @llvm.lifetime.start.p0i8(i64 24, i8* nonnull %54) #11
  %55 = bitcast %"class.v8::MicrotasksScope"* %6 to i8*
  call void @llvm.memset.p0i8.i64(i8* nonnull align 8 %55, i8 -86, i64 24, i1 false)
  call void @_ZN2v815MicrotasksScopeC1EPNS_7IsolateENS0_4TypeE(%"class.v8::MicrotasksScope"* nonnull %6, %"class.v8::Isolate"* %53, i32 1) #11
  %56 = getelementptr inbounds %"class.blink::ScriptPromiseResolver", %"class.blink::ScriptPromiseResolver"* %0, i64 0, i32 6
  %57 = getelementptr inbounds %"class.blink::DOMException", %"class.blink::DOMException"* %1, i64 0, i32 0
  %58 = load %"class.blink::ScriptState"*, %"class.blink::ScriptState"** %11, align 8
  %59 = getelementptr inbounds %"class.blink::ScriptState", %"class.blink::ScriptState"* %58, i64 0, i32 1, i32 0, i32 0, i32 0
  %60 = load %"class.v8::Context"*, %"class.v8::Context"** %59, align 8
  %61 = icmp eq %"class.v8::Context"* %60, null
  br i1 %61, label %69, label %62

62:                                               ; preds = %47
  %63 = bitcast %"class.blink::ScriptState"* %58 to %"class.v8::internal::Isolate"**
  %64 = load %"class.v8::internal::Isolate"*, %"class.v8::internal::Isolate"** %63, align 8
  %65 = bitcast %"class.v8::Context"* %60 to i64*
  %66 = load i64, i64* %65, align 8
  %67 = call i64* @_ZN2v811HandleScope12CreateHandleEPNS_8internal7IsolateEm(%"class.v8::internal::Isolate"* %64, i64 %66) #11
  %68 = bitcast i64* %67 to %"class.v8::Context"*
  br label %69

69:                                               ; preds = %47, %62
  %70 = phi %"class.v8::Context"* [ %68, %62 ], [ null, %47 ]
  %71 = call %"class.v8::Object"* @_ZN2v87Context6GlobalEv(%"class.v8::Context"* %70) #11
  %72 = load %"class.blink::ScriptState"*, %"class.blink::ScriptState"** %11, align 8
  %73 = getelementptr inbounds %"class.blink::ScriptState", %"class.blink::ScriptState"* %72, i64 0, i32 0
  %74 = load %"class.v8::Isolate"*, %"class.v8::Isolate"** %73, align 8
  %75 = icmp eq %"class.blink::DOMException"* %1, null
  br i1 %75, label %76, label %79, !prof !2

76:                                               ; preds = %69
  %77 = ptrtoint %"class.v8::Isolate"* %74 to i64
  %78 = add i64 %77, 176
  br label %95

79:                                               ; preds = %69
  %80 = call %"class.v8::Object"* @_ZN5blink12DOMDataStore10GetWrapperEPNS_15ScriptWrappableEPN2v87IsolateE(%"class.blink::ScriptWrappable"* nonnull %57, %"class.v8::Isolate"* %74) #11
  %81 = ptrtoint %"class.v8::Object"* %80 to i64
  %82 = icmp eq %"class.v8::Object"* %80, null
  br i1 %82, label %83, label %95

83:                                               ; preds = %79
  %84 = call %"class.v8::Context"* @_ZN2v86Object15CreationContextEv(%"class.v8::Object"* %71) #11
  %85 = call %"class.blink::ScriptState"* @_ZN5blink11ScriptState4FromEN2v85LocalINS1_7ContextEEE(%"class.v8::Context"* %84) #11
  %86 = bitcast %"class.blink::DOMException"* %1 to %"class.v8::Value"* (%"class.blink::ScriptWrappable"*, %"class.blink::ScriptState"*)***
  %87 = load %"class.v8::Value"* (%"class.blink::ScriptWrappable"*, %"class.blink::ScriptState"*)**, %"class.v8::Value"* (%"class.blink::ScriptWrappable"*, %"class.blink::ScriptState"*)*** %86, align 8
  %88 = getelementptr inbounds %"class.v8::Value"* (%"class.blink::ScriptWrappable"*, %"class.blink::ScriptState"*)*, %"class.v8::Value"* (%"class.blink::ScriptWrappable"*, %"class.blink::ScriptState"*)** %87, i64 7
  %89 = load %"class.v8::Value"* (%"class.blink::ScriptWrappable"*, %"class.blink::ScriptState"*)*, %"class.v8::Value"* (%"class.blink::ScriptWrappable"*, %"class.blink::ScriptState"*)** %88, align 8
  %90 = call %"class.v8::Value"* %89(%"class.blink::ScriptWrappable"* nonnull %57, %"class.blink::ScriptState"* %85) #11
  %91 = icmp eq %"class.v8::Value"* %90, null
  br i1 %91, label %92, label %93, !prof !2

92:                                               ; preds = %83
  call void @_ZN2v82V812ToLocalEmptyEv() #11
  br label %93

93:                                               ; preds = %92, %83
  %94 = ptrtoint %"class.v8::Value"* %90 to i64
  br label %95

95:                                               ; preds = %76, %79, %93
  %96 = phi i64 [ %78, %76 ], [ %94, %93 ], [ %81, %79 ]
  %97 = getelementptr inbounds %"class.blink::TraceWrapperV8Reference.284", %"class.blink::TraceWrapperV8Reference.284"* %56, i64 0, i32 0, i32 0, i32 0, i32 0
  %98 = load i64*, i64** %97, align 8
  %99 = icmp eq i64* %98, null
  br i1 %99, label %102, label %100

100:                                              ; preds = %95
  call void @_ZN2v82V819DisposeTracedGlobalEPm(i64* nonnull %98) #11
  %101 = bitcast %"class.blink::TraceWrapperV8Reference.284"* %56 to i64*
  store atomic i64 0, i64* %101 monotonic, align 8
  br label %102

102:                                              ; preds = %100, %95
  %103 = icmp eq i64 %96, 0
  br i1 %103, label %110, label %104

104:                                              ; preds = %102
  %105 = inttoptr i64 %96 to i64*
  %106 = bitcast %"class.v8::Isolate"* %53 to %"class.v8::internal::Isolate"*
  %107 = bitcast %"class.blink::TraceWrapperV8Reference.284"* %56 to i64*
  %108 = call i64* @_ZN2v82V824GlobalizeTracedReferenceEPNS_8internal7IsolateEPmS4_b(%"class.v8::internal::Isolate"* %106, i64* nonnull %105, i64* %107, i1 zeroext false) #11
  %109 = ptrtoint i64* %108 to i64
  store atomic i64 %109, i64* %107 monotonic, align 8
  br label %110

110:                                              ; preds = %102, %104
  call void @_ZN5blink25UnifiedHeapMarkingVisitor12WriteBarrierERKNS_23TraceWrapperV8ReferenceIN2v85ValueEEE(%"class.blink::TraceWrapperV8Reference.284"* dereferenceable(8) %56) #11
  call void @_ZN2v815MicrotasksScopeD1Ev(%"class.v8::MicrotasksScope"* nonnull %6) #11
  call void @llvm.lifetime.end.p0i8(i64 24, i8* nonnull %54) #11
  %111 = icmp eq i32* %49, null
  br i1 %111, label %113, label %112

112:                                              ; preds = %110
  store i32 %50, i32* %49, align 4
  br label %113

113:                                              ; preds = %110, %112
  %114 = call %"class.blink::ExecutionContext"* @_ZNK5blink33ExecutionContextLifecycleObserver19GetExecutionContextEv(%"class.blink::ExecutionContextLifecycleObserver"* %21) #11
  %115 = call zeroext i1 @_ZNK5blink16ExecutionContext15IsContextPausedEv(%"class.blink::ExecutionContext"* %114) #11
  br i1 %115, label %116, label %117

116:                                              ; preds = %113
  call void @_ZN5blink21ScriptPromiseResolver23ScheduleResolveOrRejectEv(%"class.blink::ScriptPromiseResolver"* %0) #11
  br label %132

117:                                              ; preds = %113
  %118 = bitcast i64* %4 to i8*
  call void @llvm.lifetime.start.p0i8(i64 8, i8* nonnull %118) #11
  %119 = load i64, i64* @_ZN3WTF8internal25g_main_thread_stack_startE, align 8
  %120 = ptrtoint i64* %4 to i64
  %121 = sub i64 %119, %120
  %122 = load i64, i64* @_ZN3WTF8internal39g_main_thread_underestimated_stack_sizeE, align 8
  %123 = icmp ult i64 %121, %122
  call void @llvm.lifetime.end.p0i8(i64 8, i8* nonnull %118) #11
  br i1 %123, label %126, label %124, !prof !3

124:                                              ; preds = %117
  %125 = call dereferenceable(4) i32* @_ZN5blink20ScriptForbiddenScope17GetMutableCounterEv() #11
  br label %126

126:                                              ; preds = %117, %124
  %127 = phi i32* [ %125, %124 ], [ @_ZN5blink20ScriptForbiddenScope22g_main_thread_counter_E, %117 ]
  %128 = load i32, i32* %127, align 4
  %129 = icmp eq i32 %128, 0
  br i1 %129, label %131, label %130

130:                                              ; preds = %126
  call void @_ZN5blink21ScriptPromiseResolver23ScheduleResolveOrRejectEv(%"class.blink::ScriptPromiseResolver"* %0) #11
  br label %132

131:                                              ; preds = %126
  call void @_ZN5blink21ScriptPromiseResolver26ResolveOrRejectImmediatelyEv(%"class.blink::ScriptPromiseResolver"* %0) #11
  br label %132

132:                                              ; preds = %131, %130, %116
  %133 = load %"class.v8::Context"*, %"class.v8::Context"** %31, align 8
  call void @_ZN2v87Context4ExitEv(%"class.v8::Context"* %133) #11
  call void @_ZN2v811HandleScopeD1Ev(%"class.v8::HandleScope"* nonnull %34) #11
  call void @llvm.lifetime.end.p0i8(i64 32, i8* nonnull %30) #11
  br label %134

134:                                              ; preds = %24, %16, %10, %20, %3, %132
  ret void
}

; Function Attrs: nounwind ssp uwtable
define linkonce_odr hidden %"class.v8::Object"* @_ZN5blink12DOMDataStore10GetWrapperEPNS_15ScriptWrappableEPN2v87IsolateE(%"class.blink::ScriptWrappable"*, %"class.v8::Isolate"*) local_unnamed_addr #0 comdat align 2 {
  %3 = alloca i64, align 8
  %4 = bitcast i64* %3 to i8*
  call void @llvm.lifetime.start.p0i8(i64 8, i8* nonnull %4) #11
  %5 = load i64, i64* @_ZN3WTF8internal25g_main_thread_stack_startE, align 8
  %6 = ptrtoint i64* %3 to i64
  %7 = sub i64 %5, %6
  %8 = load i64, i64* @_ZN3WTF8internal39g_main_thread_underestimated_stack_sizeE, align 8
  %9 = icmp ult i64 %7, %8
  call void @llvm.lifetime.end.p0i8(i64 8, i8* nonnull %4) #11
  %10 = load i32, i32* @_ZN5blink15DOMWrapperWorld41number_of_non_main_worlds_in_main_thread_E, align 4
  %11 = icmp eq i32 %10, 0
  %12 = and i1 %9, %11
  br i1 %12, label %13, label %24

13:                                               ; preds = %2
  %14 = getelementptr inbounds %"class.blink::ScriptWrappable", %"class.blink::ScriptWrappable"* %0, i64 0, i32 1
  %15 = bitcast %"class.blink::TraceWrapperV8Reference"* %14 to %"class.v8::Object"**
  %16 = load %"class.v8::Object"*, %"class.v8::Object"** %15, align 8
  %17 = icmp eq %"class.v8::Object"* %16, null
  br i1 %17, label %68, label %18

18:                                               ; preds = %13
  %19 = bitcast %"class.v8::Object"* %16 to i64*
  %20 = bitcast %"class.v8::Isolate"* %1 to %"class.v8::internal::Isolate"*
  %21 = load i64, i64* %19, align 8
  %22 = call i64* @_ZN2v811HandleScope12CreateHandleEPNS_8internal7IsolateEm(%"class.v8::internal::Isolate"* %20, i64 %21) #11
  %23 = bitcast i64* %22 to %"class.v8::Object"*
  br label %68

24:                                               ; preds = %2
  %25 = call %"class.v8::Context"* @_ZN2v87Isolate17GetCurrentContextEv(%"class.v8::Isolate"* %1) #11
  %26 = call %"class.blink::ScriptState"* @_ZN5blink11ScriptState4FromEN2v85LocalINS1_7ContextEEE(%"class.v8::Context"* %25) #11
  %27 = getelementptr inbounds %"class.blink::ScriptState", %"class.blink::ScriptState"* %26, i64 0, i32 2, i32 0
  %28 = load %"class.blink::DOMWrapperWorld"*, %"class.blink::DOMWrapperWorld"** %27, align 8
  %29 = getelementptr inbounds %"class.blink::DOMWrapperWorld", %"class.blink::DOMWrapperWorld"* %28, i64 0, i32 3, i32 0, i32 0
  %30 = load %"class.blink::DOMDataStore"*, %"class.blink::DOMDataStore"** %29, align 8
  %31 = getelementptr inbounds %"class.blink::DOMDataStore", %"class.blink::DOMDataStore"* %30, i64 0, i32 1
  %32 = load i8, i8* %31, align 8, !range !19
  %33 = icmp eq i8 %32, 0
  br i1 %33, label %45, label %34

34:                                               ; preds = %24
  %35 = getelementptr inbounds %"class.blink::ScriptWrappable", %"class.blink::ScriptWrappable"* %0, i64 0, i32 1
  %36 = bitcast %"class.blink::TraceWrapperV8Reference"* %35 to %"class.v8::Object"**
  %37 = load %"class.v8::Object"*, %"class.v8::Object"** %36, align 8
  %38 = icmp eq %"class.v8::Object"* %37, null
  br i1 %38, label %68, label %39

39:                                               ; preds = %34
  %40 = bitcast %"class.v8::Object"* %37 to i64*
  %41 = bitcast %"class.v8::Isolate"* %1 to %"class.v8::internal::Isolate"*
  %42 = load i64, i64* %40, align 8
  %43 = call i64* @_ZN2v811HandleScope12CreateHandleEPNS_8internal7IsolateEm(%"class.v8::internal::Isolate"* %41, i64 %42) #11
  %44 = bitcast i64* %43 to %"class.v8::Object"*
  br label %68

45:                                               ; preds = %24
  %46 = getelementptr inbounds %"class.blink::DOMDataStore", %"class.blink::DOMDataStore"* %30, i64 0, i32 3, i32 0
  %47 = getelementptr inbounds %"class.WTF::HashMap.86", %"class.WTF::HashMap.86"* %46, i64 0, i32 0
  %48 = call { %"struct.WTF::KeyValuePair.89"*, %"struct.WTF::KeyValuePair.89"* } @_ZN3WTF9HashTableIN5blink10WeakMemberIKNS1_15ScriptWrappableEEENS_12KeyValuePairIS5_NS1_23TraceWrapperV8ReferenceIN2v86ObjectEEEEENS_24KeyValuePairKeyExtractorENS_10MemberHashIS4_EENS_18HashMapValueTraitsINS_10HashTraitsIS5_EENSG_ISA_EEEESH_NS1_13HeapAllocatorEE4findEPS4_(%"class.WTF::HashTable.87"* %47, %"class.blink::ScriptWrappable"* %0) #11
  %49 = extractvalue { %"struct.WTF::KeyValuePair.89"*, %"struct.WTF::KeyValuePair.89"* } %48, 0
  %50 = getelementptr inbounds %"class.WTF::HashMap.86", %"class.WTF::HashMap.86"* %46, i64 0, i32 0, i32 0
  %51 = load %"struct.WTF::KeyValuePair.89"*, %"struct.WTF::KeyValuePair.89"** %50, align 8
  %52 = getelementptr inbounds %"class.blink::DOMDataStore", %"class.blink::DOMDataStore"* %30, i64 0, i32 3, i32 0, i32 0, i32 1
  %53 = load i32, i32* %52, align 8
  %54 = zext i32 %53 to i64
  %55 = getelementptr inbounds %"struct.WTF::KeyValuePair.89", %"struct.WTF::KeyValuePair.89"* %51, i64 %54
  %56 = icmp eq %"struct.WTF::KeyValuePair.89"* %49, %55
  br i1 %56, label %68, label %57

57:                                               ; preds = %45
  %58 = getelementptr inbounds %"struct.WTF::KeyValuePair.89", %"struct.WTF::KeyValuePair.89"* %49, i64 0, i32 1
  %59 = bitcast %"class.blink::TraceWrapperV8Reference"* %58 to %"class.v8::Object"**
  %60 = load %"class.v8::Object"*, %"class.v8::Object"** %59, align 8
  %61 = icmp eq %"class.v8::Object"* %60, null
  br i1 %61, label %68, label %62

62:                                               ; preds = %57
  %63 = bitcast %"class.v8::Object"* %60 to i64*
  %64 = bitcast %"class.v8::Isolate"* %1 to %"class.v8::internal::Isolate"*
  %65 = load i64, i64* %63, align 8
  %66 = call i64* @_ZN2v811HandleScope12CreateHandleEPNS_8internal7IsolateEm(%"class.v8::internal::Isolate"* %64, i64 %65) #11
  %67 = bitcast i64* %66 to %"class.v8::Object"*
  br label %68

68:                                               ; preds = %62, %57, %45, %39, %34, %18, %13
  %69 = phi %"class.v8::Object"* [ %23, %18 ], [ null, %13 ], [ %44, %39 ], [ null, %34 ], [ %67, %62 ], [ null, %57 ], [ null, %45 ]
  ret %"class.v8::Object"* %69
}

; Function Attrs: nounwind ssp uwtable
define linkonce_odr hidden %"class.blink::ScriptState"* @_ZN5blink11ScriptState4FromEN2v85LocalINS1_7ContextEEE(%"class.v8::Context"*) local_unnamed_addr #0 comdat align 2 {
  %2 = alloca %"class.logging::CheckError", align 8
  %3 = alloca %"class.logging::CheckError", align 8
  %4 = bitcast %"class.v8::Context"* %0 to i64*
  %5 = load i64, i64* %4, align 8
  %6 = add i64 %5, 23
  %7 = inttoptr i64 %6 to i32*
  %8 = load i32, i32* %7, align 4
  %9 = and i64 %5, -4294967296
  %10 = zext i32 %8 to i64
  %11 = or i64 %9, %10
  %12 = add i64 %11, 23
  %13 = inttoptr i64 %12 to i8**
  %14 = load i8*, i8** %13, align 1
  %15 = bitcast i8* %14 to %"class.blink::ScriptState"*
  %16 = icmp eq i8* %14, null
  br i1 %16, label %17, label %20

17:                                               ; preds = %1
  %18 = bitcast %"class.logging::CheckError"* %2 to i8*
  call void @llvm.lifetime.start.p0i8(i64 8, i8* nonnull %18) #11
  call void @_ZN7logging10CheckError5CheckEPKciS2_(%"class.logging::CheckError"* nonnull sret %2, i8* getelementptr inbounds ([66 x i8], [66 x i8]* @.str.11, i64 0, i64 0), i32 175, i8* getelementptr inbounds ([13 x i8], [13 x i8]* @.str.12, i64 0, i64 0)) #11
  %19 = call dereferenceable(160) %"class.std::__1::basic_ostream"* @_ZN7logging10CheckError6streamEv(%"class.logging::CheckError"* nonnull %2) #11
  call void @_ZN7logging10CheckErrorD1Ev(%"class.logging::CheckError"* nonnull %2) #11
  call void @llvm.lifetime.end.p0i8(i64 8, i8* nonnull %18) #11
  br label %20

20:                                               ; preds = %1, %17
  %21 = getelementptr inbounds i8, i8* %14, i64 8
  %22 = bitcast i8* %21 to i64**
  %23 = load i64*, i64** %22, align 8
  %24 = icmp eq i64* %23, null
  %25 = icmp eq %"class.v8::Context"* %0, null
  %26 = or i1 %25, %24
  br i1 %26, label %31, label %27

27:                                               ; preds = %20
  %28 = load i64, i64* %23, align 8
  %29 = load i64, i64* %4, align 8
  %30 = icmp eq i64 %28, %29
  br i1 %30, label %36, label %33

31:                                               ; preds = %20
  %32 = and i1 %25, %24
  br i1 %32, label %36, label %33

33:                                               ; preds = %27, %31
  %34 = bitcast %"class.logging::CheckError"* %3 to i8*
  call void @llvm.lifetime.start.p0i8(i64 8, i8* nonnull %34) #11
  call void @_ZN7logging10CheckError5CheckEPKciS2_(%"class.logging::CheckError"* nonnull sret %3, i8* getelementptr inbounds ([66 x i8], [66 x i8]* @.str.11, i64 0, i64 0), i32 176, i8* getelementptr inbounds ([34 x i8], [34 x i8]* @.str.13, i64 0, i64 0)) #11
  %35 = call dereferenceable(160) %"class.std::__1::basic_ostream"* @_ZN7logging10CheckError6streamEv(%"class.logging::CheckError"* nonnull %3) #11
  call void @_ZN7logging10CheckErrorD1Ev(%"class.logging::CheckError"* nonnull %3) #11
  call void @llvm.lifetime.end.p0i8(i64 8, i8* nonnull %34) #11
  br label %36

36:                                               ; preds = %27, %31, %33
  ret %"class.blink::ScriptState"* %15
}

; Function Attrs: nounwind ssp uwtable
define linkonce_odr hidden { %"struct.WTF::KeyValuePair.89"*, %"struct.WTF::KeyValuePair.89"* } @_ZN3WTF9HashTableIN5blink10WeakMemberIKNS1_15ScriptWrappableEEENS_12KeyValuePairIS5_NS1_23TraceWrapperV8ReferenceIN2v86ObjectEEEEENS_24KeyValuePairKeyExtractorENS_10MemberHashIS4_EENS_18HashMapValueTraitsINS_10HashTraitsIS5_EENSG_ISA_EEEESH_NS1_13HeapAllocatorEE4findEPS4_(%"class.WTF::HashTable.87"*, %"class.blink::ScriptWrappable"*) local_unnamed_addr #0 comdat align 2 {
  %3 = ptrtoint %"class.blink::ScriptWrappable"* %1 to i64
  %4 = getelementptr inbounds %"class.WTF::HashTable.87", %"class.WTF::HashTable.87"* %0, i64 0, i32 0
  %5 = load %"struct.WTF::KeyValuePair.89"*, %"struct.WTF::KeyValuePair.89"** %4, align 8
  %6 = icmp eq %"struct.WTF::KeyValuePair.89"* %5, null
  %7 = getelementptr inbounds %"class.WTF::HashTable.87", %"class.WTF::HashTable.87"* %0, i64 0, i32 1
  %8 = load i32, i32* %7, align 8
  br i1 %6, label %69, label %9

9:                                                ; preds = %2
  %10 = add i32 %8, -1
  %11 = zext i32 %10 to i64
  %12 = shl i64 %3, 32
  %13 = xor i64 %12, -1
  %14 = add i64 %13, %3
  %15 = lshr i64 %14, 22
  %16 = xor i64 %15, %14
  %17 = shl i64 %16, 13
  %18 = xor i64 %17, -1
  %19 = add i64 %16, %18
  %20 = lshr i64 %19, 8
  %21 = xor i64 %20, %19
  %22 = mul i64 %21, 9
  %23 = lshr i64 %22, 15
  %24 = xor i64 %23, %22
  %25 = shl i64 %24, 27
  %26 = xor i64 %25, -1
  %27 = add i64 %24, %26
  %28 = lshr i64 %27, 31
  %29 = xor i64 %28, %27
  %30 = trunc i64 %29 to i32
  %31 = and i32 %10, %30
  %32 = zext i32 %31 to i64
  %33 = getelementptr inbounds %"struct.WTF::KeyValuePair.89", %"struct.WTF::KeyValuePair.89"* %5, i64 %32
  %34 = getelementptr inbounds %"struct.WTF::KeyValuePair.89", %"struct.WTF::KeyValuePair.89"* %33, i64 0, i32 0, i32 0, i32 0
  %35 = load %"class.blink::ScriptWrappable"*, %"class.blink::ScriptWrappable"** %34, align 8
  %36 = icmp eq %"class.blink::ScriptWrappable"* %35, %1
  br i1 %36, label %66, label %37

37:                                               ; preds = %9
  %38 = xor i32 %30, -1
  %39 = lshr i32 %30, 23
  %40 = add i32 %39, %38
  %41 = shl i32 %40, 12
  %42 = xor i32 %41, %40
  %43 = lshr i32 %42, 7
  %44 = xor i32 %43, %42
  %45 = shl i32 %44, 2
  %46 = xor i32 %45, %44
  %47 = lshr i32 %46, 20
  %48 = xor i32 %47, %46
  %49 = or i32 %48, 1
  %50 = zext i32 %49 to i64
  br label %51

51:                                               ; preds = %57, %37
  %52 = phi i64 [ %32, %37 ], [ %61, %57 ]
  %53 = phi i64 [ 0, %37 ], [ %59, %57 ]
  %54 = getelementptr inbounds %"struct.WTF::KeyValuePair.89", %"struct.WTF::KeyValuePair.89"* %5, i64 %52, i32 0, i32 0, i32 0
  %55 = load %"class.blink::ScriptWrappable"*, %"class.blink::ScriptWrappable"** %54, align 8
  %56 = icmp eq %"class.blink::ScriptWrappable"* %55, null
  br i1 %56, label %69, label %57

57:                                               ; preds = %51
  %58 = icmp eq i64 %53, 0
  %59 = select i1 %58, i64 %50, i64 %53
  %60 = add i64 %59, %52
  %61 = and i64 %60, %11
  %62 = getelementptr inbounds %"struct.WTF::KeyValuePair.89", %"struct.WTF::KeyValuePair.89"* %5, i64 %61
  %63 = getelementptr inbounds %"struct.WTF::KeyValuePair.89", %"struct.WTF::KeyValuePair.89"* %62, i64 0, i32 0, i32 0, i32 0
  %64 = load %"class.blink::ScriptWrappable"*, %"class.blink::ScriptWrappable"** %63, align 8
  %65 = icmp eq %"class.blink::ScriptWrappable"* %64, %1
  br i1 %65, label %66, label %51

66:                                               ; preds = %57, %9
  %67 = phi %"struct.WTF::KeyValuePair.89"* [ %33, %9 ], [ %62, %57 ]
  %68 = icmp eq %"struct.WTF::KeyValuePair.89"* %67, null
  br i1 %68, label %69, label %72

69:                                               ; preds = %51, %66, %2
  %70 = zext i32 %8 to i64
  %71 = getelementptr inbounds %"struct.WTF::KeyValuePair.89", %"struct.WTF::KeyValuePair.89"* %5, i64 %70
  br label %75

72:                                               ; preds = %66
  %73 = zext i32 %8 to i64
  %74 = getelementptr inbounds %"struct.WTF::KeyValuePair.89", %"struct.WTF::KeyValuePair.89"* %5, i64 %73
  br label %75

75:                                               ; preds = %69, %72
  %76 = phi %"struct.WTF::KeyValuePair.89"* [ %67, %72 ], [ %71, %69 ]
  %77 = phi %"struct.WTF::KeyValuePair.89"* [ %74, %72 ], [ %71, %69 ]
  %78 = insertvalue { %"struct.WTF::KeyValuePair.89"*, %"struct.WTF::KeyValuePair.89"* } undef, %"struct.WTF::KeyValuePair.89"* %76, 0
  %79 = insertvalue { %"struct.WTF::KeyValuePair.89"*, %"struct.WTF::KeyValuePair.89"* } %78, %"struct.WTF::KeyValuePair.89"* %77, 1
  ret { %"struct.WTF::KeyValuePair.89"*, %"struct.WTF::KeyValuePair.89"* } %79
}

declare void @_ZN2v82V812ToLocalEmptyEv() local_unnamed_addr #4

; Function Attrs: noinline nounwind ssp uwtable
define linkonce_odr hidden void @_ZN3WTF6VectorIN5blink6MemberINS1_17HandwritingStrokeEEELj0ENS1_13HeapAllocatorEE14AppendSlowCaseIRPS3_EEvOT_(%"class.WTF::Vector"*, %"class.blink::HandwritingStroke"** dereferenceable(8)) local_unnamed_addr #8 comdat align 2 {
  %3 = getelementptr inbounds %"class.WTF::Vector", %"class.WTF::Vector"* %0, i64 0, i32 0, i32 0, i32 2
  %4 = load i32, i32* %3, align 4
  %5 = add i32 %4, 1
  %6 = getelementptr inbounds %"class.WTF::Vector", %"class.WTF::Vector"* %0, i64 0, i32 0, i32 0, i32 1
  %7 = load i32, i32* %6, align 8
  %8 = lshr i32 %7, 2
  %9 = add i32 %7, 1
  %10 = add i32 %9, %8
  %11 = icmp ugt i32 %10, 4
  %12 = select i1 %11, i32 %10, i32 4
  %13 = icmp ugt i32 %12, %5
  %14 = select i1 %13, i32 %12, i32 %5
  tail call void @_ZN3WTF6VectorIN5blink6MemberINS1_17HandwritingStrokeEEELj0ENS1_13HeapAllocatorEE15ReserveCapacityEj(%"class.WTF::Vector"* %0, i32 %14) #11
  %15 = getelementptr inbounds %"class.WTF::Vector", %"class.WTF::Vector"* %0, i64 0, i32 0, i32 0, i32 0
  %16 = load %"class.blink::Member.5"*, %"class.blink::Member.5"** %15, align 8
  %17 = load i32, i32* %3, align 4
  %18 = zext i32 %17 to i64
  %19 = getelementptr inbounds %"class.blink::Member.5", %"class.blink::Member.5"* %16, i64 %18
  %20 = bitcast %"class.blink::HandwritingStroke"** %1 to i64*
  %21 = load i64, i64* %20, align 8
  %22 = bitcast %"class.blink::Member.5"* %19 to i64*
  store atomic i64 %21, i64* %22 monotonic, align 8
  %23 = load atomic i32, i32* getelementptr inbounds (%"class.blink::AtomicEntryFlag", %"class.blink::AtomicEntryFlag"* @_ZN5blink11ThreadState25incremental_marking_flag_E, i64 0, i32 0, i32 0, i32 0, i32 0, i32 0, i32 0) monotonic, align 4
  %24 = icmp eq i32 %23, 0
  br i1 %24, label %28, label %25

25:                                               ; preds = %2
  %26 = inttoptr i64 %21 to i8*
  %27 = tail call zeroext i1 @_ZN5blink14MarkingVisitor16WriteBarrierSlowEPv(i8* %26) #11
  br label %28

28:                                               ; preds = %2, %25
  %29 = load i32, i32* %3, align 4
  %30 = add i32 %29, 1
  store i32 %30, i32* %3, align 4
  ret void
}

; Function Attrs: nounwind ssp uwtable
define linkonce_odr hidden void @_ZN3WTF6VectorIN5blink6MemberINS1_17HandwritingStrokeEEELj0ENS1_13HeapAllocatorEE15ReserveCapacityEj(%"class.WTF::Vector"*, i32) local_unnamed_addr #0 comdat align 2 {
  %3 = alloca %"class.logging::CheckError", align 8
  %4 = getelementptr inbounds %"class.WTF::Vector", %"class.WTF::Vector"* %0, i64 0, i32 0, i32 0, i32 1
  %5 = load i32, i32* %4, align 8
  %6 = icmp ult i32 %5, %1
  br i1 %6, label %7, label %59, !prof !3

7:                                                ; preds = %2
  %8 = getelementptr inbounds %"class.WTF::Vector", %"class.WTF::Vector"* %0, i64 0, i32 0, i32 0, i32 0
  %9 = load %"class.blink::Member.5"*, %"class.blink::Member.5"** %8, align 8
  %10 = icmp eq %"class.blink::Member.5"* %9, null
  %11 = zext i32 %1 to i64
  %12 = tail call i64 @_ZN5blink13HeapAllocator13QuantizedSizeINS_6MemberINS_17HandwritingStrokeEEEEEmm(i64 %11) #11
  br i1 %10, label %13, label %24

13:                                               ; preds = %7
  %14 = lshr i64 %12, 3
  %15 = tail call %"class.blink::HeapVectorBacking.440"* @_ZN5blink25MakeGarbageCollectedTraitINS_17HeapVectorBackingINS_6MemberINS_17HandwritingStrokeEEEN3WTF12VectorTraitsIS4_EEEEE4CallEm(i64 %14) #11
  %16 = ptrtoint %"class.blink::HeapVectorBacking.440"* %15 to i64
  %17 = bitcast %"class.WTF::Vector"* %0 to i64*
  store atomic i64 %16, i64* %17 monotonic, align 8
  %18 = trunc i64 %14 to i32
  store i32 %18, i32* %4, align 8
  %19 = load atomic i32, i32* getelementptr inbounds (%"class.blink::AtomicEntryFlag", %"class.blink::AtomicEntryFlag"* @_ZN5blink11ThreadState25incremental_marking_flag_E, i64 0, i32 0, i32 0, i32 0, i32 0, i32 0, i32 0) monotonic, align 4
  %20 = icmp eq i32 %19, 0
  br i1 %20, label %59, label %21

21:                                               ; preds = %13
  %22 = getelementptr inbounds %"class.blink::HeapVectorBacking.440", %"class.blink::HeapVectorBacking.440"* %15, i64 0, i32 0
  %23 = tail call zeroext i1 @_ZN5blink14MarkingVisitor16WriteBarrierSlowEPv(i8* %22) #11
  br label %59

24:                                               ; preds = %7
  %25 = load %"class.blink::Member.5"*, %"class.blink::Member.5"** %8, align 8
  %26 = icmp eq %"class.blink::Member.5"* %25, null
  br i1 %26, label %33, label %27

27:                                               ; preds = %24
  %28 = bitcast %"class.blink::Member.5"* %25 to i8*
  %29 = tail call zeroext i1 @_ZN5blink13HeapAllocator19ExpandVectorBackingEPvm(i8* nonnull %28, i64 %12) #11
  br i1 %29, label %30, label %33

30:                                               ; preds = %27
  %31 = lshr i64 %12, 3
  %32 = trunc i64 %31 to i32
  store i32 %32, i32* %4, align 8
  br label %59

33:                                               ; preds = %24, %27
  %34 = load %"class.WTF::ThreadSpecific"*, %"class.WTF::ThreadSpecific"** @_ZN5blink11ThreadState16thread_specific_E, align 8
  %35 = getelementptr inbounds %"class.WTF::ThreadSpecific", %"class.WTF::ThreadSpecific"* %34, i64 0, i32 1
  %36 = tail call i8* @_ZNK4base18ThreadLocalStorage4Slot3GetEv(%"class.base::ThreadLocalStorage::Slot"* %35) #11
  %37 = icmp eq i8* %36, null
  br i1 %37, label %38, label %40, !prof !2

38:                                               ; preds = %33
  %39 = tail call i8* @_ZN3WTF10Partitions16FastZeroedMallocEmPKc(i64 8, i8* getelementptr inbounds ([68 x i8], [68 x i8]* @__PRETTY_FUNCTION__._ZN3WTF21GetStringWithTypeNameIPN5blink11ThreadStateEEEPKcv, i64 0, i64 0)) #11
  tail call void @_ZN4base18ThreadLocalStorage4Slot3SetEPv(%"class.base::ThreadLocalStorage::Slot"* %35, i8* %39) #11
  br label %40

40:                                               ; preds = %38, %33
  %41 = phi i8* [ %39, %38 ], [ %36, %33 ]
  %42 = bitcast i8* %41 to %"class.blink::ThreadState"**
  %43 = load %"class.blink::ThreadState"*, %"class.blink::ThreadState"** %42, align 8
  %44 = getelementptr inbounds %"class.blink::ThreadState", %"class.blink::ThreadState"* %43, i64 0, i32 6
  %45 = load i8, i8* %44, align 8, !range !19
  %46 = icmp eq i8 %45, 0
  br i1 %46, label %51, label %47

47:                                               ; preds = %40
  %48 = getelementptr inbounds %"class.blink::ThreadState", %"class.blink::ThreadState"* %43, i64 0, i32 16
  %49 = load i32, i32* %48, align 4
  %50 = icmp eq i32 %49, 1
  br i1 %50, label %55, label %51

51:                                               ; preds = %40, %47
  %52 = getelementptr inbounds %"class.blink::ThreadState", %"class.blink::ThreadState"* %43, i64 0, i32 13
  %53 = load i64, i64* %52, align 8
  %54 = icmp eq i64 %53, 0
  br i1 %54, label %58, label %55

55:                                               ; preds = %47, %51
  %56 = bitcast %"class.logging::CheckError"* %3 to i8*
  call void @llvm.lifetime.start.p0i8(i64 8, i8* nonnull %56) #11
  call void @_ZN7logging10CheckError5CheckEPKciS2_(%"class.logging::CheckError"* nonnull sret %3, i8* getelementptr inbounds ([55 x i8], [55 x i8]* @.str.4, i64 0, i64 0), i32 1810, i8* getelementptr inbounds ([33 x i8], [33 x i8]* @.str.5, i64 0, i64 0)) #11
  %57 = call dereferenceable(160) %"class.std::__1::basic_ostream"* @_ZN7logging10CheckError6streamEv(%"class.logging::CheckError"* nonnull %3) #11
  call void @_ZN7logging10CheckErrorD1Ev(%"class.logging::CheckError"* nonnull %3) #11
  call void @llvm.lifetime.end.p0i8(i64 8, i8* nonnull %56) #11
  br label %58

58:                                               ; preds = %51, %55
  call void @_ZN3WTF6VectorIN5blink6MemberINS1_17HandwritingStrokeEEELj0ENS1_13HeapAllocatorEE16ReallocateBufferEj(%"class.WTF::Vector"* %0, i32 %1)
  br label %59

59:                                               ; preds = %30, %21, %13, %2, %58
  ret void
}

; Function Attrs: nounwind ssp uwtable
define linkonce_odr hidden void @_ZN3WTF6VectorIN5blink6MemberINS1_17HandwritingStrokeEEELj0ENS1_13HeapAllocatorEE16ReallocateBufferEj(%"class.WTF::Vector"*, i32) local_unnamed_addr #0 comdat align 2 {
  %3 = icmp eq i32 %1, 0
  br i1 %3, label %4, label %13

4:                                                ; preds = %2
  %5 = bitcast %"class.WTF::Vector"* %0 to i8**
  %6 = load i8*, i8** %5, align 8
  %7 = getelementptr inbounds %"class.WTF::Vector", %"class.WTF::Vector"* %0, i64 0, i32 0, i32 0, i32 2
  %8 = load i32, i32* %7, align 4
  %9 = zext i32 %8 to i64
  %10 = bitcast %"class.WTF::Vector"* %0 to i64*
  store atomic i64 0, i64* %10 monotonic, align 8
  %11 = getelementptr inbounds %"class.WTF::Vector", %"class.WTF::Vector"* %0, i64 0, i32 0, i32 0, i32 1
  store i32 0, i32* %11, align 8
  %12 = shl nuw nsw i64 %9, 3
  tail call void @_ZN3WTF13AtomicMemzeroEPvm(i8* %6, i64 %12) #11
  tail call void @_ZN5blink13HeapAllocator17FreeVectorBackingEPv(i8* %6) #11
  br label %50

13:                                               ; preds = %2
  %14 = zext i32 %1 to i64
  %15 = tail call i64 @_ZN5blink13HeapAllocator13QuantizedSizeINS_6MemberINS_17HandwritingStrokeEEEEEmm(i64 %14) #11
  %16 = lshr i64 %15, 3
  %17 = tail call %"class.blink::HeapVectorBacking.440"* @_ZN5blink25MakeGarbageCollectedTraitINS_17HeapVectorBackingINS_6MemberINS_17HandwritingStrokeEEEN3WTF12VectorTraitsIS4_EEEEE4CallEm(i64 %16) #11
  %18 = ptrtoint %"class.blink::HeapVectorBacking.440"* %17 to i64
  %19 = getelementptr inbounds %"class.WTF::Vector", %"class.WTF::Vector"* %0, i64 0, i32 0, i32 0, i32 0
  %20 = load %"class.blink::Member.5"*, %"class.blink::Member.5"** %19, align 8
  %21 = getelementptr inbounds %"class.WTF::Vector", %"class.WTF::Vector"* %0, i64 0, i32 0, i32 0, i32 2
  %22 = icmp ne %"class.blink::HeapVectorBacking.440"* %17, null
  %23 = icmp ne %"class.blink::Member.5"* %20, null
  %24 = and i1 %22, %23
  %25 = bitcast %"class.blink::Member.5"* %20 to i8*
  br i1 %24, label %28, label %26, !prof !3

26:                                               ; preds = %13
  %27 = bitcast %"class.WTF::Vector"* %0 to i8**
  br label %35

28:                                               ; preds = %13
  %29 = load i32, i32* %21, align 4
  %30 = zext i32 %29 to i64
  %31 = shl nuw nsw i64 %30, 3
  %32 = getelementptr inbounds %"class.blink::HeapVectorBacking.440", %"class.blink::HeapVectorBacking.440"* %17, i64 0, i32 0
  tail call void @_ZN3WTF17AtomicWriteMemcpyEPvPKvm(i8* nonnull %32, i8* nonnull %25, i64 %31) #11
  %33 = bitcast %"class.WTF::Vector"* %0 to i8**
  %34 = load i8*, i8** %33, align 8
  br label %35

35:                                               ; preds = %26, %28
  %36 = phi i8** [ %27, %26 ], [ %33, %28 ]
  %37 = phi i8* [ %25, %26 ], [ %34, %28 ]
  %38 = load i32, i32* %21, align 4
  %39 = zext i32 %38 to i64
  %40 = shl nuw nsw i64 %39, 3
  tail call void @_ZN3WTF13AtomicMemzeroEPvm(i8* %37, i64 %40) #11
  %41 = load i8*, i8** %36, align 8
  tail call void @_ZN5blink13HeapAllocator17FreeVectorBackingEPv(i8* %41) #11
  %42 = bitcast %"class.WTF::Vector"* %0 to i64*
  store atomic i64 %18, i64* %42 monotonic, align 8
  %43 = trunc i64 %16 to i32
  %44 = getelementptr inbounds %"class.WTF::Vector", %"class.WTF::Vector"* %0, i64 0, i32 0, i32 0, i32 1
  store i32 %43, i32* %44, align 8
  %45 = load atomic i32, i32* getelementptr inbounds (%"class.blink::AtomicEntryFlag", %"class.blink::AtomicEntryFlag"* @_ZN5blink11ThreadState25incremental_marking_flag_E, i64 0, i32 0, i32 0, i32 0, i32 0, i32 0, i32 0) monotonic, align 4
  %46 = icmp eq i32 %45, 0
  br i1 %46, label %50, label %47

47:                                               ; preds = %35
  %48 = getelementptr inbounds %"class.blink::HeapVectorBacking.440", %"class.blink::HeapVectorBacking.440"* %17, i64 0, i32 0
  %49 = tail call zeroext i1 @_ZN5blink14MarkingVisitor16WriteBarrierSlowEPv(i8* %48) #11
  br label %50

50:                                               ; preds = %47, %35, %4
  ret void
}

; Function Attrs: nounwind ssp uwtable
define linkonce_odr hidden i64 @_ZN5blink13HeapAllocator13QuantizedSizeINS_6MemberINS_17HandwritingStrokeEEEEEmm(i64) local_unnamed_addr #0 comdat align 2 {
  %2 = alloca %"class.logging::CheckOpResult", align 8
  %3 = alloca %"class.logging::CheckOpResult", align 8
  %4 = alloca %"class.logging::CheckError", align 8
  %5 = bitcast %"class.logging::CheckOpResult"* %3 to i8*
  call void @llvm.lifetime.start.p0i8(i64 8, i8* nonnull %5) #11
  %6 = getelementptr inbounds %"class.logging::CheckOpResult", %"class.logging::CheckOpResult"* %3, i64 0, i32 0
  store i8* inttoptr (i64 -6148914691236517206 to i8*), i8** %6, align 8
  %7 = bitcast %"class.logging::CheckOpResult"* %2 to i8*
  call void @llvm.lifetime.start.p0i8(i64 8, i8* nonnull %7)
  %8 = icmp ugt i64 %0, 16777216
  br i1 %8, label %10, label %9

9:                                                ; preds = %1
  call void @llvm.lifetime.end.p0i8(i64 8, i8* nonnull %7)
  store i8* null, i8** %6, align 8
  br label %19

10:                                               ; preds = %1
  %11 = tail call i8* @_ZN7logging15CheckOpValueStrEm(i64 %0) #11
  %12 = tail call i8* @_ZN7logging15CheckOpValueStrEm(i64 16777216) #11
  call void @_ZN7logging13CheckOpResultC1EPKcPcS3_(%"class.logging::CheckOpResult"* nonnull %2, i8* getelementptr inbounds ([44 x i8], [44 x i8]* @.str.6, i64 0, i64 0), i8* %11, i8* %12) #11
  %13 = getelementptr inbounds %"class.logging::CheckOpResult", %"class.logging::CheckOpResult"* %2, i64 0, i32 0
  %14 = load i8*, i8** %13, align 8
  call void @llvm.lifetime.end.p0i8(i64 8, i8* nonnull %7)
  store i8* %14, i8** %6, align 8
  %15 = icmp eq i8* %14, null
  br i1 %15, label %19, label %16

16:                                               ; preds = %10
  %17 = bitcast %"class.logging::CheckError"* %4 to i8*
  call void @llvm.lifetime.start.p0i8(i64 8, i8* nonnull %17) #11
  call void @_ZN7logging10CheckError7CheckOpEPKciPNS_13CheckOpResultE(%"class.logging::CheckError"* nonnull sret %4, i8* getelementptr inbounds ([74 x i8], [74 x i8]* @.str.7, i64 0, i64 0), i32 39, %"class.logging::CheckOpResult"* nonnull %3) #11
  %18 = call dereferenceable(160) %"class.std::__1::basic_ostream"* @_ZN7logging10CheckError6streamEv(%"class.logging::CheckError"* nonnull %4) #11
  call void @_ZN7logging10CheckErrorD1Ev(%"class.logging::CheckError"* nonnull %4) #11
  call void @llvm.lifetime.end.p0i8(i64 8, i8* nonnull %17) #11
  br label %19

