; ModuleID = '../../headless/app/headless_shell_switches.cc'
source_filename = "../../headless/app/headless_shell_switches.cc"
target datalayout = "e-m:e-i64:64-f80:128-n8:16:32:64-S128"
target triple = "x86_64-unknown-linux-gnu"

@_ZN8headless8switches23kDefaultBackgroundColorE = hidden local_unnamed_addr constant [25 x i8] c"default-background-color\00", align 16
@_ZN8headless8switches24kDisableCookieEncryptionE = hidden local_unnamed_addr constant [26 x i8] c"disable-cookie-encryption\00", align 16
@_ZN8headless8switches24kEnableBeginFrameControlE = hidden local_unnamed_addr constant [27 x i8] c"enable-begin-frame-control\00", align 16
@_ZN8headless8switches20kEnableCrashReporterE = hidden local_unnamed_addr constant [22 x i8] c"enable-crash-reporter\00", align 16
@_ZN8headless8switches16kExportTaggedPDFE = hidden local_unnamed_addr constant [18 x i8] c"export-tagged-pdf\00", align 16
@_ZN8headless8switches21kDisableCrashReporterE = hidden local_unnamed_addr constant [23 x i8] c"disable-crash-reporter\00", align 16
@_ZN8headless8switches14kCrashDumpsDirE = hidden local_unnamed_addr constant [16 x i8] c"crash-dumps-dir\00", align 16
@_ZN8headless8switches18kDeterministicModeE = hidden local_unnamed_addr constant [19 x i8] c"deterministic-mode\00", align 16
@_ZN8headless8switches13kDiskCacheDirE = hidden local_unnamed_addr constant [15 x i8] c"disk-cache-dir\00", align 1
@_ZN8headless8switches8kDumpDomE = hidden local_unnamed_addr constant [9 x i8] c"dump-dom\00", align 1
@_ZN8headless8switches15kHideScrollbarsE = hidden local_unnamed_addr constant [16 x i8] c"hide-scrollbars\00", align 16
@_ZN8headless8switches14kPasswordStoreE = hidden local_unnamed_addr constant [15 x i8] c"password-store\00", align 1
@_ZN8headless8switches11kPrintToPDFE = hidden local_unnamed_addr constant [13 x i8] c"print-to-pdf\00", align 1
@_ZN8headless8switches19kPrintToPDFNoHeaderE = hidden local_unnamed_addr constant [23 x i8] c"print-to-pdf-no-header\00", align 16
@_ZN8headless8switches16kProxyBypassListE = hidden local_unnamed_addr constant [18 x i8] c"proxy-bypass-list\00", align 16
@_ZN8headless8switches12kProxyServerE = hidden local_unnamed_addr constant [13 x i8] c"proxy-server\00", align 1
@_ZN8headless8switches27kNoSystemProxyConfigServiceE = hidden local_unnamed_addr constant [31 x i8] c"no-system-proxy-config-service\00", align 16
@_ZN8headless8switches23kRemoteDebuggingAddressE = hidden local_unnamed_addr constant [25 x i8] c"remote-debugging-address\00", align 16
@_ZN8headless8switches5kReplE = hidden local_unnamed_addr constant [5 x i8] c"repl\00", align 1
@_ZN8headless8switches11kScreenshotE = hidden local_unnamed_addr constant [11 x i8] c"screenshot\00", align 1
@_ZN8headless8switches14kSSLKeyLogFileE = hidden local_unnamed_addr constant [17 x i8] c"ssl-key-log-file\00", align 16
@_ZN8headless8switches8kTimeoutE = hidden local_unnamed_addr constant [8 x i8] c"timeout\00", align 1
@_ZN8headless8switches6kUseGLE = hidden local_unnamed_addr constant [7 x i8] c"use-gl\00", align 1
@_ZN8headless8switches9kUseANGLEE = hidden local_unnamed_addr constant [10 x i8] c"use-angle\00", align 1
@_ZN8headless8switches10kUserAgentE = hidden local_unnamed_addr constant [11 x i8] c"user-agent\00", align 1
@_ZN8headless8switches12kUserDataDirE = hidden local_unnamed_addr constant [14 x i8] c"user-data-dir\00", align 1
@_ZN8headless8switches18kVirtualTimeBudgetE = hidden local_unnamed_addr constant [20 x i8] c"virtual-time-budget\00", align 16
@_ZN8headless8switches11kWindowSizeE = hidden local_unnamed_addr constant [12 x i8] c"window-size\00", align 1
@_ZN8headless8switches20kAuthServerAllowlistE = hidden local_unnamed_addr constant [22 x i8] c"auth-server-allowlist\00", align 16
@_ZN8headless8switches30kAuthServerAllowlistDeprecatedE = hidden local_unnamed_addr constant [22 x i8] c"auth-server-whitelist\00", align 16
@_ZN8headless8switches18kFontRenderHintingE = hidden local_unnamed_addr constant [20 x i8] c"font-render-hinting\00", align 16
@_ZN8headless8switches20kBlockNewWebContentsE = hidden local_unnamed_addr constant [23 x i8] c"block-new-web-contents\00", align 16

!llvm.module.flags = !{!0, !1}

!0 = !{i32 1, !"wchar_size", i32 4}
!1 = !{i32 7, !"PIC Level", i32 2}
