; ModuleID = 'gen/services/device/public/mojom/hid.mojom-blink-test-utils.cc'
source_filename = "gen/services/device/public/mojom/hid.mojom-blink-test-utils.cc"
target datalayout = "e-m:e-i64:64-f80:128-n8:16:32:64-S128"
target triple = "x86_64-unknown-linux-gnu"

module asm ".symver exp, exp@GLIBC_2.2.5"
module asm ".symver exp2, exp2@GLIBC_2.2.5"
module asm ".symver exp2f, exp2f@GLIBC_2.2.5"
module asm ".symver expf, expf@GLIBC_2.2.5"
module asm ".symver lgamma, lgamma@GLIBC_2.2.5"
module asm ".symver lgammaf, lgammaf@GLIBC_2.2.5"
module asm ".symver lgammal, lgammal@GLIBC_2.2.5"
module asm ".symver log, log@GLIBC_2.2.5"
module asm ".symver log2, log2@GLIBC_2.2.5"
module asm ".symver log2f, log2f@GLIBC_2.2.5"
module asm ".symver logf, logf@GLIBC_2.2.5"
module asm ".symver pow, pow@GLIBC_2.2.5"
module asm ".symver powf, powf@GLIBC_2.2.5"

%"class.device::mojom::blink::HidManagerClientAsyncWaiter" = type { %"class.device::mojom::blink::HidManagerClient"* }
%"class.device::mojom::blink::HidManagerClient" = type { i32 (...)** }
%"class.device::mojom::blink::HidManagerAsyncWaiter" = type { %"class.device::mojom::blink::HidManager"* }
%"class.device::mojom::blink::HidManager" = type { i32 (...)** }
%"class.device::mojom::blink::HidConnectionAsyncWaiter" = type { %"class.device::mojom::blink::HidConnection"* }
%"class.device::mojom::blink::HidConnection" = type { i32 (...)** }
%"class.device::mojom::blink::HidConnectionClientAsyncWaiter" = type { %"class.device::mojom::blink::HidConnectionClient"* }
%"class.device::mojom::blink::HidConnectionClient" = type { i32 (...)** }
%"class.device::mojom::blink::HidConnectionWatcherAsyncWaiter" = type { %"class.device::mojom::blink::HidConnectionWatcher"* }
%"class.device::mojom::blink::HidConnectionWatcher" = type { i32 (...)** }
%"class.device::mojom::blink::HidManagerClientInterceptorForTesting" = type { %"class.device::mojom::blink::HidManagerClient" }
%"class.mojo::StructPtr" = type { %"class.std::__1::unique_ptr" }
%"class.std::__1::unique_ptr" = type { %"class.std::__1::__compressed_pair" }
%"class.std::__1::__compressed_pair" = type { %"struct.std::__1::__compressed_pair_elem" }
%"struct.std::__1::__compressed_pair_elem" = type { %"class.device::mojom::blink::HidDeviceInfo"* }
%"class.device::mojom::blink::HidDeviceInfo" = type { %"class.WTF::String", %"class.WTF::String", i16, i16, %"class.WTF::String", %"class.WTF::String", i32, %"class.WTF::Vector", %"class.WTF::Vector.1", i8, i64, i64, i64, %"class.WTF::String", %"class.absl::optional", %"class.absl::optional", %"class.absl::optional" }
%"class.WTF::Vector" = type { %"class.WTF::VectorBuffer" }
%"class.WTF::VectorBuffer" = type { %"class.WTF::VectorBufferBase" }
%"class.WTF::VectorBufferBase" = type { i8*, i32, i32 }
%"class.WTF::Vector.1" = type { %"class.WTF::VectorBuffer.2" }
%"class.WTF::VectorBuffer.2" = type { %"class.WTF::VectorBufferBase.3" }
%"class.WTF::VectorBufferBase.3" = type { %"class.mojo::StructPtr.4"*, i32, i32 }
%"class.mojo::StructPtr.4" = type { %"class.std::__1::unique_ptr.5" }
%"class.std::__1::unique_ptr.5" = type { %"class.std::__1::__compressed_pair.6" }
%"class.std::__1::__compressed_pair.6" = type { %"struct.std::__1::__compressed_pair_elem.7" }
%"struct.std::__1::__compressed_pair_elem.7" = type { %"class.device::mojom::blink::HidCollectionInfo"* }
%"class.device::mojom::blink::HidCollectionInfo" = type { %"class.mojo::InlinedStructPtr", %"class.WTF::Vector", i32, %"class.WTF::Vector.14", %"class.WTF::Vector.14", %"class.WTF::Vector.14", %"class.WTF::Vector.1" }
%"class.mojo::InlinedStructPtr" = type { %"class.device::mojom::blink::HidUsageAndPage", i32 }
%"class.device::mojom::blink::HidUsageAndPage" = type { i16, i16 }
%"class.WTF::Vector.14" = type { %"class.WTF::VectorBuffer.15" }
%"class.WTF::VectorBuffer.15" = type { %"class.WTF::VectorBufferBase.16" }
%"class.WTF::VectorBufferBase.16" = type { %"class.mojo::StructPtr.17"*, i32, i32 }
%"class.mojo::StructPtr.17" = type { %"class.std::__1::unique_ptr.18" }
%"class.std::__1::unique_ptr.18" = type { %"class.std::__1::__compressed_pair.19" }
%"class.std::__1::__compressed_pair.19" = type { %"struct.std::__1::__compressed_pair_elem.20" }
%"struct.std::__1::__compressed_pair_elem.20" = type { %"class.device::mojom::blink::HidReportDescription"* }
%"class.device::mojom::blink::HidReportDescription" = type { i8, %"class.WTF::Vector.21" }
%"class.WTF::Vector.21" = type { %"class.WTF::VectorBuffer.22" }
%"class.WTF::VectorBuffer.22" = type { %"class.WTF::VectorBufferBase.23" }
%"class.WTF::VectorBufferBase.23" = type { %"class.mojo::StructPtr.24"*, i32, i32 }
%"class.mojo::StructPtr.24" = type { %"class.std::__1::unique_ptr.25" }
%"class.std::__1::unique_ptr.25" = type { %"class.std::__1::__compressed_pair.26" }
%"class.std::__1::__compressed_pair.26" = type { %"struct.std::__1::__compressed_pair_elem.27" }
%"struct.std::__1::__compressed_pair_elem.27" = type { %"class.device::mojom::blink::HidReportItem"* }
%"class.device::mojom::blink::HidReportItem" = type { i8, i8, i8, i8, i8, i8, i8, i8, i8, i8, %"class.WTF::Vector.28", %"class.mojo::InlinedStructPtr", %"class.mojo::InlinedStructPtr", i32, i32, i32, i32, i32, i32, i32, i32, i32, i32, i32, i32 }
%"class.WTF::Vector.28" = type { %"class.WTF::VectorBuffer.29" }
%"class.WTF::VectorBuffer.29" = type { %"class.WTF::VectorBufferBase.30" }
%"class.WTF::VectorBufferBase.30" = type { %"class.mojo::InlinedStructPtr"*, i32, i32 }
%"class.WTF::String" = type { %class.scoped_refptr }
%class.scoped_refptr = type { %"class.WTF::StringImpl"* }
%"class.WTF::StringImpl" = type { i32, i32, %"struct.std::__1::atomic" }
%"struct.std::__1::atomic" = type { %"struct.std::__1::__atomic_base" }
%"struct.std::__1::__atomic_base" = type { %"struct.std::__1::__atomic_base.0" }
%"struct.std::__1::__atomic_base.0" = type { %"struct.std::__1::__cxx_atomic_impl" }
%"struct.std::__1::__cxx_atomic_impl" = type { %"struct.std::__1::__cxx_atomic_base_impl" }
%"struct.std::__1::__cxx_atomic_base_impl" = type { i32 }
%"class.absl::optional" = type { %"class.absl::optional_internal::optional_data" }
%"class.absl::optional_internal::optional_data" = type { %"class.absl::optional_internal::optional_data_base" }
%"class.absl::optional_internal::optional_data_base" = type { %"class.absl::optional_internal::optional_data_dtor_base" }
%"class.absl::optional_internal::optional_data_dtor_base" = type { i8, %union.anon }
%union.anon = type { %"class.WTF::Vector" }
%"class.device::mojom::blink::HidManagerInterceptorForTesting" = type { %"class.device::mojom::blink::HidManager" }
%"class.mojo::PendingAssociatedRemote" = type <{ %"class.mojo::ScopedInterfaceEndpointHandle", i32, [4 x i8] }>
%"class.mojo::ScopedInterfaceEndpointHandle" = type { %class.scoped_refptr.43 }
%class.scoped_refptr.43 = type { %"class.mojo::ScopedInterfaceEndpointHandle::State"* }
%"class.mojo::ScopedInterfaceEndpointHandle::State" = type opaque
%"class.base::OnceCallback" = type { %"class.base::internal::CallbackBase" }
%"class.base::internal::CallbackBase" = type { %class.scoped_refptr.44 }
%class.scoped_refptr.44 = type { %"class.base::internal::BindStateBase"* }
%"class.base::internal::BindStateBase" = type { %"class.base::RefCountedThreadSafe", void ()*, void (%"class.base::internal::BindStateBase"*)*, i1 (%"class.base::internal::BindStateBase"*, i32)* }
%"class.base::RefCountedThreadSafe" = type { %"class.base::subtle::RefCountedThreadSafeBase" }
%"class.base::subtle::RefCountedThreadSafeBase" = type { %"class.base::AtomicRefCount" }
%"class.base::AtomicRefCount" = type { %"struct.std::__1::atomic.45" }
%"struct.std::__1::atomic.45" = type { %"struct.std::__1::__atomic_base.46" }
%"struct.std::__1::__atomic_base.46" = type { %"struct.std::__1::__atomic_base.47" }
%"struct.std::__1::__atomic_base.47" = type { %"struct.std::__1::__cxx_atomic_impl.48" }
%"struct.std::__1::__cxx_atomic_impl.48" = type { %"struct.std::__1::__cxx_atomic_base_impl.49" }
%"struct.std::__1::__cxx_atomic_base_impl.49" = type { i32 }
%"class.mojo::PendingRemote" = type { %"struct.mojo::internal::PendingRemoteState" }
%"struct.mojo::internal::PendingRemoteState" = type { %"class.mojo::ScopedHandleBase", i32 }
%"class.mojo::ScopedHandleBase" = type { %"class.mojo::MessagePipeHandle" }
%"class.mojo::MessagePipeHandle" = type { %"class.mojo::Handle" }
%"class.mojo::Handle" = type { i32 }
%"class.mojo::PendingRemote.50" = type { %"struct.mojo::internal::PendingRemoteState" }
%"class.base::OnceCallback.51" = type { %"class.base::internal::CallbackBase" }
%"class.mojo::PendingReceiver" = type { %"struct.mojo::internal::PendingReceiverState" }
%"struct.mojo::internal::PendingReceiverState" = type { %"class.mojo::ScopedHandleBase", %"class.mojo::ConnectionGroup::Ref" }
%"class.mojo::ConnectionGroup::Ref" = type { i32, %class.scoped_refptr.52 }
%class.scoped_refptr.52 = type { %"class.mojo::ConnectionGroup"* }
%"class.mojo::ConnectionGroup" = type <{ i32 (...)**, %"class.base::RefCountedThreadSafe.53", [4 x i8], %"class.base::RepeatingCallback", %class.scoped_refptr.54, %"class.mojo::ConnectionGroup::Ref", %"struct.std::__1::atomic", [4 x i8] }>
%"class.base::RefCountedThreadSafe.53" = type { %"class.base::subtle::RefCountedThreadSafeBase" }
%"class.base::RepeatingCallback" = type { %"class.base::internal::CallbackBaseCopyable" }
%"class.base::internal::CallbackBaseCopyable" = type { %"class.base::internal::CallbackBase" }
%class.scoped_refptr.54 = type { %"class.base::SequencedTaskRunner"* }
%"class.base::SequencedTaskRunner" = type { %"class.base::TaskRunner.base", [4 x i8] }
%"class.base::TaskRunner.base" = type <{ i32 (...)**, %"class.base::RefCountedThreadSafe.55" }>
%"class.base::RefCountedThreadSafe.55" = type { %"class.base::subtle::RefCountedThreadSafeBase" }
%"class.WTF::Vector.56" = type { %"class.WTF::VectorBuffer.57" }
%"class.WTF::VectorBuffer.57" = type { %"class.WTF::VectorBufferBase.58" }
%"class.WTF::VectorBufferBase.58" = type { %"class.mojo::StructPtr"*, i32, i32 }
%"class.base::RunLoop" = type { %"class.base::RunLoop::Delegate"*, i32, i8, i8, i8, i8, i8, %class.scoped_refptr.71, %"class.base::WeakPtrFactory" }
%"class.base::RunLoop::Delegate" = type <{ i32 (...)**, %"class.std::__1::stack", %"class.base::ObserverList", i8, [7 x i8] }>
%"class.std::__1::stack" = type { %"class.std::__1::vector" }
%"class.std::__1::vector" = type { %"class.std::__1::__vector_base" }
%"class.std::__1::__vector_base" = type { %"class.base::RunLoop"**, %"class.base::RunLoop"**, %"class.std::__1::__compressed_pair.61" }
%"class.std::__1::__compressed_pair.61" = type { %"struct.std::__1::__compressed_pair_elem.62" }
%"struct.std::__1::__compressed_pair_elem.62" = type { %"class.base::RunLoop"** }
%"class.base::ObserverList" = type <{ %"class.std::__1::vector.64", %"class.base::LinkedList", i64, i32, [4 x i8] }>
%"class.std::__1::vector.64" = type { %"class.std::__1::__vector_base.65" }
%"class.std::__1::__vector_base.65" = type { %"class.base::internal::UncheckedObserverAdapter"*, %"class.base::internal::UncheckedObserverAdapter"*, %"class.std::__1::__compressed_pair.66" }
%"class.base::internal::UncheckedObserverAdapter" = type { i8* }
%"class.std::__1::__compressed_pair.66" = type { %"struct.std::__1::__compressed_pair_elem.67" }
%"struct.std::__1::__compressed_pair_elem.67" = type { %"class.base::internal::UncheckedObserverAdapter"* }
%"class.base::LinkedList" = type { %"class.base::LinkNode" }
%"class.base::LinkNode" = type { %"class.base::internal::LinkNodeBase" }
%"class.base::internal::LinkNodeBase" = type { %"class.base::internal::LinkNodeBase"*, %"class.base::internal::LinkNodeBase"* }
%class.scoped_refptr.71 = type { %"class.base::SingleThreadTaskRunner"* }
%"class.base::SingleThreadTaskRunner" = type { %"class.base::SequencedTaskRunner.base", [4 x i8] }
%"class.base::SequencedTaskRunner.base" = type { %"class.base::TaskRunner.base" }
%"class.base::WeakPtrFactory" = type { %"class.base::internal::WeakPtrFactoryBase" }
%"class.base::internal::WeakPtrFactoryBase" = type { %"class.base::internal::WeakReferenceOwner", i64 }
%"class.base::internal::WeakReferenceOwner" = type { %class.scoped_refptr.72 }
%class.scoped_refptr.72 = type { %"class.base::internal::WeakReference::Flag"* }
%"class.base::internal::WeakReference::Flag" = type <{ %"class.base::RefCountedThreadSafe.73", %"class.base::AtomicFlag", [3 x i8] }>
%"class.base::RefCountedThreadSafe.73" = type { %"class.base::subtle::RefCountedThreadSafeBase" }
%"class.base::AtomicFlag" = type { %"struct.std::__1::atomic.74" }
%"struct.std::__1::atomic.74" = type { %"struct.std::__1::__atomic_base.75" }
%"struct.std::__1::__atomic_base.75" = type { %"struct.std::__1::__atomic_base.76" }
%"struct.std::__1::__atomic_base.76" = type { %"struct.std::__1::__cxx_atomic_impl.77" }
%"struct.std::__1::__cxx_atomic_impl.77" = type { %"struct.std::__1::__cxx_atomic_base_impl.78" }
%"struct.std::__1::__cxx_atomic_base_impl.78" = type { i8 }
%"class.base::Location" = type { i8*, i8*, i32, i8* }
%"class.mojo::PendingRemote.81" = type { %"struct.mojo::internal::PendingRemoteState" }
%"class.device::mojom::blink::HidConnectionInterceptorForTesting" = type { %"class.device::mojom::blink::HidConnection" }
%"class.base::OnceCallback.84" = type { %"class.base::internal::CallbackBase" }
%"class.base::OnceCallback.85" = type { %"class.base::internal::CallbackBase" }
%"class.base::OnceCallback.86" = type { %"class.base::internal::CallbackBase" }
%"class.device::mojom::blink::HidConnectionClientInterceptorForTesting" = type { %"class.device::mojom::blink::HidConnectionClient" }
%"class.logging::CheckOpResult" = type { i8* }
%"class.logging::CheckError" = type { %"class.logging::LogMessage"* }
%"class.logging::LogMessage" = type { i32 (...)**, i32, %"class.std::__1::basic_ostringstream", i64, i8*, i32, %"class.base::ScopedClearLastErrorBase" }
%"class.std::__1::basic_ostringstream" = type { %"class.std::__1::basic_ostream.base", %"class.std::__1::basic_stringbuf", %"class.std::__1::basic_ios.base" }
%"class.std::__1::basic_ostream.base" = type { i32 (...)** }
%"class.std::__1::basic_stringbuf" = type <{ %"class.std::__1::basic_streambuf", %"class.std::__1::basic_string", i8*, i32, [4 x i8] }>
%"class.std::__1::basic_streambuf" = type { i32 (...)**, %"class.std::__1::locale", i8*, i8*, i8*, i8*, i8*, i8* }
%"class.std::__1::locale" = type { %"class.std::__1::locale::__imp"* }
%"class.std::__1::locale::__imp" = type opaque
%"class.std::__1::basic_string" = type { %"class.std::__1::__compressed_pair.116" }
%"class.std::__1::__compressed_pair.116" = type { %"struct.std::__1::__compressed_pair_elem.117" }
%"struct.std::__1::__compressed_pair_elem.117" = type { %"struct.std::__1::basic_string<char, std::__1::char_traits<char>, std::__1::allocator<char> >::__rep" }
%"struct.std::__1::basic_string<char, std::__1::char_traits<char>, std::__1::allocator<char> >::__rep" = type { %union.anon.118 }
%union.anon.118 = type { %"struct.std::__1::basic_string<char, std::__1::char_traits<char>, std::__1::allocator<char> >::__long" }
%"struct.std::__1::basic_string<char, std::__1::char_traits<char>, std::__1::allocator<char> >::__long" = type { i8*, i64, i64 }
%"class.std::__1::basic_ios.base" = type <{ %"class.std::__1::ios_base", %"class.std::__1::basic_ostream"*, i32 }>
%"class.std::__1::ios_base" = type { i32 (...)**, i32, i64, i64, i32, i32, i8*, i8*, void (i32, %"class.std::__1::ios_base"*, i32)**, i32*, i64, i64, i64*, i64, i64, i8**, i64, i64 }
%"class.std::__1::basic_ostream" = type { i32 (...)**, %"class.std::__1::basic_ios.base" }
%"class.base::ScopedClearLastErrorBase" = type { i32 }

$_ZN6device5mojom5blink16HidManagerClientD2Ev = comdat any

$_ZN6device5mojom5blink37HidManagerClientInterceptorForTestingD0Ev = comdat any

$_ZN6device5mojom5blink10HidManagerD2Ev = comdat any

$_ZN6device5mojom5blink31HidManagerInterceptorForTestingD0Ev = comdat any

$_ZN6device5mojom5blink13HidConnectionD2Ev = comdat any

$_ZN6device5mojom5blink34HidConnectionInterceptorForTestingD0Ev = comdat any

$_ZN6device5mojom5blink19HidConnectionClientD2Ev = comdat any

$_ZN6device5mojom5blink40HidConnectionClientInterceptorForTestingD0Ev = comdat any

$_ZN4absl17optional_internal13optional_dataIN3WTF6VectorIhLj0ENS2_18PartitionAllocatorEEELb0EEaSERKS6_ = comdat any

$_ZN3WTF6VectorIhLj0ENS_18PartitionAllocatorEEaSERKS2_ = comdat any

$_ZN3WTF18PartitionAllocator13QuantizedSizeIhEEmm = comdat any

@.str = private unnamed_addr constant [23 x i8] c"GetDevicesAndSetClient\00", align 1
@.str.1 = private unnamed_addr constant [63 x i8] c"gen/services/device/public/mojom/hid.mojom-blink-test-utils.cc\00", align 1
@.str.2 = private unnamed_addr constant [11 x i8] c"GetDevices\00", align 1
@.str.3 = private unnamed_addr constant [8 x i8] c"Connect\00", align 1
@.str.4 = private unnamed_addr constant [5 x i8] c"Read\00", align 1
@.str.5 = private unnamed_addr constant [6 x i8] c"Write\00", align 1
@.str.6 = private unnamed_addr constant [17 x i8] c"GetFeatureReport\00", align 1
@.str.7 = private unnamed_addr constant [18 x i8] c"SendFeatureReport\00", align 1
@_ZTVN6device5mojom5blink37HidManagerClientInterceptorForTestingE = hidden unnamed_addr constant { [8 x i8*] } { [8 x i8*] [i8* null, i8* null, i8* bitcast (void (%"class.device::mojom::blink::HidManagerClient"*)* @_ZN6device5mojom5blink16HidManagerClientD2Ev to i8*), i8* bitcast (void (%"class.device::mojom::blink::HidManagerClientInterceptorForTesting"*)* @_ZN6device5mojom5blink37HidManagerClientInterceptorForTestingD0Ev to i8*), i8* bitcast (void (%"class.device::mojom::blink::HidManagerClientInterceptorForTesting"*, %"class.mojo::StructPtr"*)* @_ZN6device5mojom5blink37HidManagerClientInterceptorForTesting11DeviceAddedEN4mojo9StructPtrINS1_13HidDeviceInfoEEE to i8*), i8* bitcast (void (%"class.device::mojom::blink::HidManagerClientInterceptorForTesting"*, %"class.mojo::StructPtr"*)* @_ZN6device5mojom5blink37HidManagerClientInterceptorForTesting13DeviceRemovedEN4mojo9StructPtrINS1_13HidDeviceInfoEEE to i8*), i8* bitcast (void (%"class.device::mojom::blink::HidManagerClientInterceptorForTesting"*, %"class.mojo::StructPtr"*)* @_ZN6device5mojom5blink37HidManagerClientInterceptorForTesting13DeviceChangedEN4mojo9StructPtrINS1_13HidDeviceInfoEEE to i8*), i8* bitcast (void ()* @__cxa_pure_virtual to i8*)] }, align 8
@_ZTVN6device5mojom5blink31HidManagerInterceptorForTestingE = hidden unnamed_addr constant { [9 x i8*] } { [9 x i8*] [i8* null, i8* null, i8* bitcast (void (%"class.device::mojom::blink::HidManager"*)* @_ZN6device5mojom5blink10HidManagerD2Ev to i8*), i8* bitcast (void (%"class.device::mojom::blink::HidManagerInterceptorForTesting"*)* @_ZN6device5mojom5blink31HidManagerInterceptorForTestingD0Ev to i8*), i8* bitcast (void (%"class.device::mojom::blink::HidManagerInterceptorForTesting"*, %"class.mojo::PendingAssociatedRemote"*, %"class.base::OnceCallback"*)* @_ZN6device5mojom5blink31HidManagerInterceptorForTesting22GetDevicesAndSetClientEN4mojo23PendingAssociatedRemoteINS1_16HidManagerClientEEEN4base12OnceCallbackIFvN3WTF6VectorINS3_9StructPtrINS1_13HidDeviceInfoEEELj0ENS9_18PartitionAllocatorEEEEEE to i8*), i8* bitcast (void (%"class.device::mojom::blink::HidManagerInterceptorForTesting"*, %"class.base::OnceCallback"*)* @_ZN6device5mojom5blink31HidManagerInterceptorForTesting10GetDevicesEN4base12OnceCallbackIFvN3WTF6VectorIN4mojo9StructPtrINS1_13HidDeviceInfoEEELj0ENS5_18PartitionAllocatorEEEEEE to i8*), i8* bitcast (void (%"class.device::mojom::blink::HidManagerInterceptorForTesting"*, %"class.WTF::String"*, %"class.mojo::PendingRemote"*, %"class.mojo::PendingRemote.50"*, i1, %"class.base::OnceCallback.51"*)* @_ZN6device5mojom5blink31HidManagerInterceptorForTesting7ConnectERKN3WTF6StringEN4mojo13PendingRemoteINS1_19HidConnectionClientEEENS8_INS1_20HidConnectionWatcherEEEbN4base12OnceCallbackIFvNS8_INS1_13HidConnectionEEEEEE to i8*), i8* bitcast (void (%"class.device::mojom::blink::HidManagerInterceptorForTesting"*, %"class.mojo::PendingReceiver"*)* @_ZN6device5mojom5blink31HidManagerInterceptorForTesting11AddReceiverEN4mojo15PendingReceiverINS1_10HidManagerEEE to i8*), i8* bitcast (void ()* @__cxa_pure_virtual to i8*)] }, align 8
@_ZTVN6device5mojom5blink34HidConnectionInterceptorForTestingE = hidden unnamed_addr constant { [9 x i8*] } { [9 x i8*] [i8* null, i8* null, i8* bitcast (void (%"class.device::mojom::blink::HidConnection"*)* @_ZN6device5mojom5blink13HidConnectionD2Ev to i8*), i8* bitcast (void (%"class.device::mojom::blink::HidConnectionInterceptorForTesting"*)* @_ZN6device5mojom5blink34HidConnectionInterceptorForTestingD0Ev to i8*), i8* bitcast (void (%"class.device::mojom::blink::HidConnectionInterceptorForTesting"*, %"class.base::OnceCallback.84"*)* @_ZN6device5mojom5blink34HidConnectionInterceptorForTesting4ReadEN4base12OnceCallbackIFvbhRKN4absl8optionalIN3WTF6VectorIhLj0ENS7_18PartitionAllocatorEEEEEEEE to i8*), i8* bitcast (void (%"class.device::mojom::blink::HidConnectionInterceptorForTesting"*, i8, %"class.WTF::Vector"*, %"class.base::OnceCallback.85"*)* @_ZN6device5mojom5blink34HidConnectionInterceptorForTesting5WriteEhRKN3WTF6VectorIhLj0ENS3_18PartitionAllocatorEEEN4base12OnceCallbackIFvbEEE to i8*), i8* bitcast (void (%"class.device::mojom::blink::HidConnectionInterceptorForTesting"*, i8, %"class.base::OnceCallback.86"*)* @_ZN6device5mojom5blink34HidConnectionInterceptorForTesting16GetFeatureReportEhN4base12OnceCallbackIFvbRKN4absl8optionalIN3WTF6VectorIhLj0ENS7_18PartitionAllocatorEEEEEEEE to i8*), i8* bitcast (void (%"class.device::mojom::blink::HidConnectionInterceptorForTesting"*, i8, %"class.WTF::Vector"*, %"class.base::OnceCallback.85"*)* @_ZN6device5mojom5blink34HidConnectionInterceptorForTesting17SendFeatureReportEhRKN3WTF6VectorIhLj0ENS3_18PartitionAllocatorEEEN4base12OnceCallbackIFvbEEE to i8*), i8* bitcast (void ()* @__cxa_pure_virtual to i8*)] }, align 8
@_ZTVN6device5mojom5blink40HidConnectionClientInterceptorForTestingE = hidden unnamed_addr constant { [6 x i8*] } { [6 x i8*] [i8* null, i8* null, i8* bitcast (void (%"class.device::mojom::blink::HidConnectionClient"*)* @_ZN6device5mojom5blink19HidConnectionClientD2Ev to i8*), i8* bitcast (void (%"class.device::mojom::blink::HidConnectionClientInterceptorForTesting"*)* @_ZN6device5mojom5blink40HidConnectionClientInterceptorForTestingD0Ev to i8*), i8* bitcast (void (%"class.device::mojom::blink::HidConnectionClientInterceptorForTesting"*, i8, %"class.WTF::Vector"*)* @_ZN6device5mojom5blink40HidConnectionClientInterceptorForTesting13OnInputReportEhRKN3WTF6VectorIhLj0ENS3_18PartitionAllocatorEEE to i8*), i8* bitcast (void ()* @__cxa_pure_virtual to i8*)] }, align 8
@.str.8 = private unnamed_addr constant [44 x i8] c"count <= MaxElementCountInBackingStore<T>()\00", align 1
@.str.9 = private unnamed_addr constant [78 x i8] c"../../third_party/blink/renderer/platform/wtf/allocator/partition_allocator.h\00", align 1
@__PRETTY_FUNCTION__._ZN3WTF21GetStringWithTypeNameIhEEPKcv = private unnamed_addr constant [61 x i8] c"const char *WTF::GetStringWithTypeName() [T = unsigned char]\00", align 1

@_ZN6device5mojom5blink27HidManagerClientAsyncWaiterC1EPNS1_16HidManagerClientE = hidden unnamed_addr alias void (%"class.device::mojom::blink::HidManagerClientAsyncWaiter"*, %"class.device::mojom::blink::HidManagerClient"*), void (%"class.device::mojom::blink::HidManagerClientAsyncWaiter"*, %"class.device::mojom::blink::HidManagerClient"*)* @_ZN6device5mojom5blink27HidManagerClientAsyncWaiterC2EPNS1_16HidManagerClientE
@_ZN6device5mojom5blink27HidManagerClientAsyncWaiterD1Ev = hidden unnamed_addr alias void (%"class.device::mojom::blink::HidManagerClientAsyncWaiter"*), void (%"class.device::mojom::blink::HidManagerClientAsyncWaiter"*)* @_ZN6device5mojom5blink27HidManagerClientAsyncWaiterD2Ev
@_ZN6device5mojom5blink21HidManagerAsyncWaiterC1EPNS1_10HidManagerE = hidden unnamed_addr alias void (%"class.device::mojom::blink::HidManagerAsyncWaiter"*, %"class.device::mojom::blink::HidManager"*), void (%"class.device::mojom::blink::HidManagerAsyncWaiter"*, %"class.device::mojom::blink::HidManager"*)* @_ZN6device5mojom5blink21HidManagerAsyncWaiterC2EPNS1_10HidManagerE
@_ZN6device5mojom5blink21HidManagerAsyncWaiterD1Ev = hidden unnamed_addr alias void (%"class.device::mojom::blink::HidManagerAsyncWaiter"*), void (%"class.device::mojom::blink::HidManagerAsyncWaiter"*)* @_ZN6device5mojom5blink21HidManagerAsyncWaiterD2Ev
@_ZN6device5mojom5blink24HidConnectionAsyncWaiterC1EPNS1_13HidConnectionE = hidden unnamed_addr alias void (%"class.device::mojom::blink::HidConnectionAsyncWaiter"*, %"class.device::mojom::blink::HidConnection"*), void (%"class.device::mojom::blink::HidConnectionAsyncWaiter"*, %"class.device::mojom::blink::HidConnection"*)* @_ZN6device5mojom5blink24HidConnectionAsyncWaiterC2EPNS1_13HidConnectionE
@_ZN6device5mojom5blink24HidConnectionAsyncWaiterD1Ev = hidden unnamed_addr alias void (%"class.device::mojom::blink::HidConnectionAsyncWaiter"*), void (%"class.device::mojom::blink::HidConnectionAsyncWaiter"*)* @_ZN6device5mojom5blink24HidConnectionAsyncWaiterD2Ev
@_ZN6device5mojom5blink30HidConnectionClientAsyncWaiterC1EPNS1_19HidConnectionClientE = hidden unnamed_addr alias void (%"class.device::mojom::blink::HidConnectionClientAsyncWaiter"*, %"class.device::mojom::blink::HidConnectionClient"*), void (%"class.device::mojom::blink::HidConnectionClientAsyncWaiter"*, %"class.device::mojom::blink::HidConnectionClient"*)* @_ZN6device5mojom5blink30HidConnectionClientAsyncWaiterC2EPNS1_19HidConnectionClientE
@_ZN6device5mojom5blink30HidConnectionClientAsyncWaiterD1Ev = hidden unnamed_addr alias void (%"class.device::mojom::blink::HidConnectionClientAsyncWaiter"*), void (%"class.device::mojom::blink::HidConnectionClientAsyncWaiter"*)* @_ZN6device5mojom5blink30HidConnectionClientAsyncWaiterD2Ev
@_ZN6device5mojom5blink31HidConnectionWatcherAsyncWaiterC1EPNS1_20HidConnectionWatcherE = hidden unnamed_addr alias void (%"class.device::mojom::blink::HidConnectionWatcherAsyncWaiter"*, %"class.device::mojom::blink::HidConnectionWatcher"*), void (%"class.device::mojom::blink::HidConnectionWatcherAsyncWaiter"*, %"class.device::mojom::blink::HidConnectionWatcher"*)* @_ZN6device5mojom5blink31HidConnectionWatcherAsyncWaiterC2EPNS1_20HidConnectionWatcherE
@_ZN6device5mojom5blink31HidConnectionWatcherAsyncWaiterD1Ev = hidden unnamed_addr alias void (%"class.device::mojom::blink::HidConnectionWatcherAsyncWaiter"*), void (%"class.device::mojom::blink::HidConnectionWatcherAsyncWaiter"*)* @_ZN6device5mojom5blink31HidConnectionWatcherAsyncWaiterD2Ev

; Function Attrs: nounwind ssp uwtable
define hidden void @_ZN6device5mojom5blink37HidManagerClientInterceptorForTesting11DeviceAddedEN4mojo9StructPtrINS1_13HidDeviceInfoEEE(%"class.device::mojom::blink::HidManagerClientInterceptorForTesting"*, %"class.mojo::StructPtr"* nocapture) unnamed_addr #0 align 2 {
  %3 = alloca %"class.mojo::StructPtr", align 8
  %4 = bitcast %"class.device::mojom::blink::HidManagerClientInterceptorForTesting"* %0 to %"class.device::mojom::blink::HidManagerClient"* (%"class.device::mojom::blink::HidManagerClientInterceptorForTesting"*)***
  %5 = load %"class.device::mojom::blink::HidManagerClient"* (%"class.device::mojom::blink::HidManagerClientInterceptorForTesting"*)**, %"class.device::mojom::blink::HidManagerClient"* (%"class.device::mojom::blink::HidManagerClientInterceptorForTesting"*)*** %4, align 8
  %6 = getelementptr inbounds %"class.device::mojom::blink::HidManagerClient"* (%"class.device::mojom::blink::HidManagerClientInterceptorForTesting"*)*, %"class.device::mojom::blink::HidManagerClient"* (%"class.device::mojom::blink::HidManagerClientInterceptorForTesting"*)** %5, i64 5
  %7 = load %"class.device::mojom::blink::HidManagerClient"* (%"class.device::mojom::blink::HidManagerClientInterceptorForTesting"*)*, %"class.device::mojom::blink::HidManagerClient"* (%"class.device::mojom::blink::HidManagerClientInterceptorForTesting"*)** %6, align 8
  %8 = tail call %"class.device::mojom::blink::HidManagerClient"* %7(%"class.device::mojom::blink::HidManagerClientInterceptorForTesting"* %0) #10
  %9 = bitcast %"class.mojo::StructPtr"* %3 to i64*
  %10 = getelementptr inbounds %"class.mojo::StructPtr", %"class.mojo::StructPtr"* %3, i64 0, i32 0, i32 0, i32 0, i32 0
  %11 = bitcast %"class.mojo::StructPtr"* %1 to i64*
  %12 = load i64, i64* %11, align 8
  store i64 %12, i64* %9, align 8
  store i64 0, i64* %11, align 8
  %13 = bitcast %"class.device::mojom::blink::HidManagerClient"* %8 to void (%"class.device::mojom::blink::HidManagerClient"*, %"class.mojo::StructPtr"*)***
  %14 = load void (%"class.device::mojom::blink::HidManagerClient"*, %"class.mojo::StructPtr"*)**, void (%"class.device::mojom::blink::HidManagerClient"*, %"class.mojo::StructPtr"*)*** %13, align 8
  %15 = getelementptr inbounds void (%"class.device::mojom::blink::HidManagerClient"*, %"class.mojo::StructPtr"*)*, void (%"class.device::mojom::blink::HidManagerClient"*, %"class.mojo::StructPtr"*)** %14, i64 2
  %16 = load void (%"class.device::mojom::blink::HidManagerClient"*, %"class.mojo::StructPtr"*)*, void (%"class.device::mojom::blink::HidManagerClient"*, %"class.mojo::StructPtr"*)** %15, align 8
  call void %16(%"class.device::mojom::blink::HidManagerClient"* %8, %"class.mojo::StructPtr"* nonnull %3) #10
  %17 = load %"class.device::mojom::blink::HidDeviceInfo"*, %"class.device::mojom::blink::HidDeviceInfo"** %10, align 8
  store %"class.device::mojom::blink::HidDeviceInfo"* null, %"class.device::mojom::blink::HidDeviceInfo"** %10, align 8
  %18 = icmp eq %"class.device::mojom::blink::HidDeviceInfo"* %17, null
  br i1 %18, label %21, label %19

19:                                               ; preds = %2
  call void @_ZN6device5mojom5blink13HidDeviceInfoD1Ev(%"class.device::mojom::blink::HidDeviceInfo"* nonnull %17) #10
  %20 = bitcast %"class.device::mojom::blink::HidDeviceInfo"* %17 to i8*
  call void @_ZdlPv(i8* %20) #11
  br label %21

21:                                               ; preds = %2, %19
  ret void
}

; Function Attrs: nounwind ssp uwtable
define hidden void @_ZN6device5mojom5blink37HidManagerClientInterceptorForTesting13DeviceRemovedEN4mojo9StructPtrINS1_13HidDeviceInfoEEE(%"class.device::mojom::blink::HidManagerClientInterceptorForTesting"*, %"class.mojo::StructPtr"* nocapture) unnamed_addr #0 align 2 {
  %3 = alloca %"class.mojo::StructPtr", align 8
  %4 = bitcast %"class.device::mojom::blink::HidManagerClientInterceptorForTesting"* %0 to %"class.device::mojom::blink::HidManagerClient"* (%"class.device::mojom::blink::HidManagerClientInterceptorForTesting"*)***
  %5 = load %"class.device::mojom::blink::HidManagerClient"* (%"class.device::mojom::blink::HidManagerClientInterceptorForTesting"*)**, %"class.device::mojom::blink::HidManagerClient"* (%"class.device::mojom::blink::HidManagerClientInterceptorForTesting"*)*** %4, align 8
  %6 = getelementptr inbounds %"class.device::mojom::blink::HidManagerClient"* (%"class.device::mojom::blink::HidManagerClientInterceptorForTesting"*)*, %"class.device::mojom::blink::HidManagerClient"* (%"class.device::mojom::blink::HidManagerClientInterceptorForTesting"*)** %5, i64 5
  %7 = load %"class.device::mojom::blink::HidManagerClient"* (%"class.device::mojom::blink::HidManagerClientInterceptorForTesting"*)*, %"class.device::mojom::blink::HidManagerClient"* (%"class.device::mojom::blink::HidManagerClientInterceptorForTesting"*)** %6, align 8
  %8 = tail call %"class.device::mojom::blink::HidManagerClient"* %7(%"class.device::mojom::blink::HidManagerClientInterceptorForTesting"* %0) #10
  %9 = bitcast %"class.mojo::StructPtr"* %3 to i64*
  %10 = getelementptr inbounds %"class.mojo::StructPtr", %"class.mojo::StructPtr"* %3, i64 0, i32 0, i32 0, i32 0, i32 0
  %11 = bitcast %"class.mojo::StructPtr"* %1 to i64*
  %12 = load i64, i64* %11, align 8
  store i64 %12, i64* %9, align 8
  store i64 0, i64* %11, align 8
  %13 = bitcast %"class.device::mojom::blink::HidManagerClient"* %8 to void (%"class.device::mojom::blink::HidManagerClient"*, %"class.mojo::StructPtr"*)***
  %14 = load void (%"class.device::mojom::blink::HidManagerClient"*, %"class.mojo::StructPtr"*)**, void (%"class.device::mojom::blink::HidManagerClient"*, %"class.mojo::StructPtr"*)*** %13, align 8
  %15 = getelementptr inbounds void (%"class.device::mojom::blink::HidManagerClient"*, %"class.mojo::StructPtr"*)*, void (%"class.device::mojom::blink::HidManagerClient"*, %"class.mojo::StructPtr"*)** %14, i64 3
  %16 = load void (%"class.device::mojom::blink::HidManagerClient"*, %"class.mojo::StructPtr"*)*, void (%"class.device::mojom::blink::HidManagerClient"*, %"class.mojo::StructPtr"*)** %15, align 8
  call void %16(%"class.device::mojom::blink::HidManagerClient"* %8, %"class.mojo::StructPtr"* nonnull %3) #10
  %17 = load %"class.device::mojom::blink::HidDeviceInfo"*, %"class.device::mojom::blink::HidDeviceInfo"** %10, align 8
  store %"class.device::mojom::blink::HidDeviceInfo"* null, %"class.device::mojom::blink::HidDeviceInfo"** %10, align 8
  %18 = icmp eq %"class.device::mojom::blink::HidDeviceInfo"* %17, null
  br i1 %18, label %21, label %19

19:                                               ; preds = %2
  call void @_ZN6device5mojom5blink13HidDeviceInfoD1Ev(%"class.device::mojom::blink::HidDeviceInfo"* nonnull %17) #10
  %20 = bitcast %"class.device::mojom::blink::HidDeviceInfo"* %17 to i8*
  call void @_ZdlPv(i8* %20) #11
  br label %21

21:                                               ; preds = %2, %19
  ret void
}

; Function Attrs: nounwind ssp uwtable
define hidden void @_ZN6device5mojom5blink37HidManagerClientInterceptorForTesting13DeviceChangedEN4mojo9StructPtrINS1_13HidDeviceInfoEEE(%"class.device::mojom::blink::HidManagerClientInterceptorForTesting"*, %"class.mojo::StructPtr"* nocapture) unnamed_addr #0 align 2 {
  %3 = alloca %"class.mojo::StructPtr", align 8
  %4 = bitcast %"class.device::mojom::blink::HidManagerClientInterceptorForTesting"* %0 to %"class.device::mojom::blink::HidManagerClient"* (%"class.device::mojom::blink::HidManagerClientInterceptorForTesting"*)***
  %5 = load %"class.device::mojom::blink::HidManagerClient"* (%"class.device::mojom::blink::HidManagerClientInterceptorForTesting"*)**, %"class.device::mojom::blink::HidManagerClient"* (%"class.device::mojom::blink::HidManagerClientInterceptorForTesting"*)*** %4, align 8
  %6 = getelementptr inbounds %"class.device::mojom::blink::HidManagerClient"* (%"class.device::mojom::blink::HidManagerClientInterceptorForTesting"*)*, %"class.device::mojom::blink::HidManagerClient"* (%"class.device::mojom::blink::HidManagerClientInterceptorForTesting"*)** %5, i64 5
  %7 = load %"class.device::mojom::blink::HidManagerClient"* (%"class.device::mojom::blink::HidManagerClientInterceptorForTesting"*)*, %"class.device::mojom::blink::HidManagerClient"* (%"class.device::mojom::blink::HidManagerClientInterceptorForTesting"*)** %6, align 8
  %8 = tail call %"class.device::mojom::blink::HidManagerClient"* %7(%"class.device::mojom::blink::HidManagerClientInterceptorForTesting"* %0) #10
  %9 = bitcast %"class.mojo::StructPtr"* %3 to i64*
  %10 = getelementptr inbounds %"class.mojo::StructPtr", %"class.mojo::StructPtr"* %3, i64 0, i32 0, i32 0, i32 0, i32 0
  %11 = bitcast %"class.mojo::StructPtr"* %1 to i64*
  %12 = load i64, i64* %11, align 8
  store i64 %12, i64* %9, align 8
  store i64 0, i64* %11, align 8
  %13 = bitcast %"class.device::mojom::blink::HidManagerClient"* %8 to void (%"class.device::mojom::blink::HidManagerClient"*, %"class.mojo::StructPtr"*)***
  %14 = load void (%"class.device::mojom::blink::HidManagerClient"*, %"class.mojo::StructPtr"*)**, void (%"class.device::mojom::blink::HidManagerClient"*, %"class.mojo::StructPtr"*)*** %13, align 8
  %15 = getelementptr inbounds void (%"class.device::mojom::blink::HidManagerClient"*, %"class.mojo::StructPtr"*)*, void (%"class.device::mojom::blink::HidManagerClient"*, %"class.mojo::StructPtr"*)** %14, i64 4
  %16 = load void (%"class.device::mojom::blink::HidManagerClient"*, %"class.mojo::StructPtr"*)*, void (%"class.device::mojom::blink::HidManagerClient"*, %"class.mojo::StructPtr"*)** %15, align 8
  call void %16(%"class.device::mojom::blink::HidManagerClient"* %8, %"class.mojo::StructPtr"* nonnull %3) #10
  %17 = load %"class.device::mojom::blink::HidDeviceInfo"*, %"class.device::mojom::blink::HidDeviceInfo"** %10, align 8
  store %"class.device::mojom::blink::HidDeviceInfo"* null, %"class.device::mojom::blink::HidDeviceInfo"** %10, align 8
  %18 = icmp eq %"class.device::mojom::blink::HidDeviceInfo"* %17, null
  br i1 %18, label %21, label %19

19:                                               ; preds = %2
  call void @_ZN6device5mojom5blink13HidDeviceInfoD1Ev(%"class.device::mojom::blink::HidDeviceInfo"* nonnull %17) #10
  %20 = bitcast %"class.device::mojom::blink::HidDeviceInfo"* %17 to i8*
  call void @_ZdlPv(i8* %20) #11
  br label %21

21:                                               ; preds = %2, %19
  ret void
}

; Function Attrs: nofree norecurse nounwind ssp uwtable writeonly
define hidden void @_ZN6device5mojom5blink27HidManagerClientAsyncWaiterC2EPNS1_16HidManagerClientE(%"class.device::mojom::blink::HidManagerClientAsyncWaiter"* nocapture, %"class.device::mojom::blink::HidManagerClient"*) unnamed_addr #1 align 2 {
  %3 = getelementptr inbounds %"class.device::mojom::blink::HidManagerClientAsyncWaiter", %"class.device::mojom::blink::HidManagerClientAsyncWaiter"* %0, i64 0, i32 0
  store %"class.device::mojom::blink::HidManagerClient"* %1, %"class.device::mojom::blink::HidManagerClient"** %3, align 8
  ret void
}

; Function Attrs: norecurse nounwind readnone ssp uwtable
define hidden void @_ZN6device5mojom5blink27HidManagerClientAsyncWaiterD2Ev(%"class.device::mojom::blink::HidManagerClientAsyncWaiter"* nocapture) unnamed_addr #2 align 2 {
  ret void
}

; Function Attrs: nounwind ssp uwtable
define hidden void @_ZN6device5mojom5blink31HidManagerInterceptorForTesting22GetDevicesAndSetClientEN4mojo23PendingAssociatedRemoteINS1_16HidManagerClientEEEN4base12OnceCallbackIFvN3WTF6VectorINS3_9StructPtrINS1_13HidDeviceInfoEEELj0ENS9_18PartitionAllocatorEEEEEE(%"class.device::mojom::blink::HidManagerInterceptorForTesting"*, %"class.mojo::PendingAssociatedRemote"*, %"class.base::OnceCallback"* nocapture) unnamed_addr #0 align 2 {
  %4 = alloca %"class.mojo::PendingAssociatedRemote", align 8
  %5 = alloca %"class.base::OnceCallback", align 8
  %6 = bitcast %"class.device::mojom::blink::HidManagerInterceptorForTesting"* %0 to %"class.device::mojom::blink::HidManager"* (%"class.device::mojom::blink::HidManagerInterceptorForTesting"*)***
  %7 = load %"class.device::mojom::blink::HidManager"* (%"class.device::mojom::blink::HidManagerInterceptorForTesting"*)**, %"class.device::mojom::blink::HidManager"* (%"class.device::mojom::blink::HidManagerInterceptorForTesting"*)*** %6, align 8
  %8 = getelementptr inbounds %"class.device::mojom::blink::HidManager"* (%"class.device::mojom::blink::HidManagerInterceptorForTesting"*)*, %"class.device::mojom::blink::HidManager"* (%"class.device::mojom::blink::HidManagerInterceptorForTesting"*)** %7, i64 6
  %9 = load %"class.device::mojom::blink::HidManager"* (%"class.device::mojom::blink::HidManagerInterceptorForTesting"*)*, %"class.device::mojom::blink::HidManager"* (%"class.device::mojom::blink::HidManagerInterceptorForTesting"*)** %8, align 8
  %10 = tail call %"class.device::mojom::blink::HidManager"* %9(%"class.device::mojom::blink::HidManagerInterceptorForTesting"* %0) #10
  %11 = getelementptr inbounds %"class.mojo::PendingAssociatedRemote", %"class.mojo::PendingAssociatedRemote"* %4, i64 0, i32 0
  %12 = getelementptr inbounds %"class.mojo::PendingAssociatedRemote", %"class.mojo::PendingAssociatedRemote"* %1, i64 0, i32 0
  call void @_ZN4mojo29ScopedInterfaceEndpointHandleC1EOS0_(%"class.mojo::ScopedInterfaceEndpointHandle"* nonnull %11, %"class.mojo::ScopedInterfaceEndpointHandle"* dereferenceable(8) %12) #10
  %13 = getelementptr inbounds %"class.mojo::PendingAssociatedRemote", %"class.mojo::PendingAssociatedRemote"* %4, i64 0, i32 1
  %14 = getelementptr inbounds %"class.mojo::PendingAssociatedRemote", %"class.mojo::PendingAssociatedRemote"* %1, i64 0, i32 1
  %15 = load i32, i32* %14, align 8
  store i32 %15, i32* %13, align 8
  %16 = getelementptr inbounds %"class.base::OnceCallback", %"class.base::OnceCallback"* %2, i64 0, i32 0, i32 0, i32 0
  %17 = bitcast %"class.base::OnceCallback"* %2 to i64*
  %18 = load i64, i64* %17, align 8
  %19 = bitcast %"class.base::OnceCallback"* %5 to i64*
  store i64 %18, i64* %19, align 8
  store %"class.base::internal::BindStateBase"* null, %"class.base::internal::BindStateBase"** %16, align 8
  %20 = bitcast %"class.device::mojom::blink::HidManager"* %10 to void (%"class.device::mojom::blink::HidManager"*, %"class.mojo::PendingAssociatedRemote"*, %"class.base::OnceCallback"*)***
  %21 = load void (%"class.device::mojom::blink::HidManager"*, %"class.mojo::PendingAssociatedRemote"*, %"class.base::OnceCallback"*)**, void (%"class.device::mojom::blink::HidManager"*, %"class.mojo::PendingAssociatedRemote"*, %"class.base::OnceCallback"*)*** %20, align 8
  %22 = getelementptr inbounds void (%"class.device::mojom::blink::HidManager"*, %"class.mojo::PendingAssociatedRemote"*, %"class.base::OnceCallback"*)*, void (%"class.device::mojom::blink::HidManager"*, %"class.mojo::PendingAssociatedRemote"*, %"class.base::OnceCallback"*)** %21, i64 2
  %23 = load void (%"class.device::mojom::blink::HidManager"*, %"class.mojo::PendingAssociatedRemote"*, %"class.base::OnceCallback"*)*, void (%"class.device::mojom::blink::HidManager"*, %"class.mojo::PendingAssociatedRemote"*, %"class.base::OnceCallback"*)** %22, align 8
  call void %23(%"class.device::mojom::blink::HidManager"* %10, %"class.mojo::PendingAssociatedRemote"* nonnull %4, %"class.base::OnceCallback"* nonnull %5) #10
  %24 = getelementptr inbounds %"class.base::OnceCallback", %"class.base::OnceCallback"* %5, i64 0, i32 0
  call void @_ZN4base8internal12CallbackBaseD2Ev(%"class.base::internal::CallbackBase"* nonnull %24) #10
  call void @_ZN4mojo29ScopedInterfaceEndpointHandleD1Ev(%"class.mojo::ScopedInterfaceEndpointHandle"* nonnull %11) #10
  ret void
}

; Function Attrs: nounwind ssp uwtable
define hidden void @_ZN6device5mojom5blink31HidManagerInterceptorForTesting10GetDevicesEN4base12OnceCallbackIFvN3WTF6VectorIN4mojo9StructPtrINS1_13HidDeviceInfoEEELj0ENS5_18PartitionAllocatorEEEEEE(%"class.device::mojom::blink::HidManagerInterceptorForTesting"*, %"class.base::OnceCallback"* nocapture) unnamed_addr #0 align 2 {
  %3 = alloca %"class.base::OnceCallback", align 8
  %4 = bitcast %"class.device::mojom::blink::HidManagerInterceptorForTesting"* %0 to %"class.device::mojom::blink::HidManager"* (%"class.device::mojom::blink::HidManagerInterceptorForTesting"*)***
  %5 = load %"class.device::mojom::blink::HidManager"* (%"class.device::mojom::blink::HidManagerInterceptorForTesting"*)**, %"class.device::mojom::blink::HidManager"* (%"class.device::mojom::blink::HidManagerInterceptorForTesting"*)*** %4, align 8
  %6 = getelementptr inbounds %"class.device::mojom::blink::HidManager"* (%"class.device::mojom::blink::HidManagerInterceptorForTesting"*)*, %"class.device::mojom::blink::HidManager"* (%"class.device::mojom::blink::HidManagerInterceptorForTesting"*)** %5, i64 6
  %7 = load %"class.device::mojom::blink::HidManager"* (%"class.device::mojom::blink::HidManagerInterceptorForTesting"*)*, %"class.device::mojom::blink::HidManager"* (%"class.device::mojom::blink::HidManagerInterceptorForTesting"*)** %6, align 8
  %8 = tail call %"class.device::mojom::blink::HidManager"* %7(%"class.device::mojom::blink::HidManagerInterceptorForTesting"* %0) #10
  %9 = getelementptr inbounds %"class.base::OnceCallback", %"class.base::OnceCallback"* %1, i64 0, i32 0, i32 0, i32 0
  %10 = bitcast %"class.base::OnceCallback"* %1 to i64*
  %11 = load i64, i64* %10, align 8
  %12 = bitcast %"class.base::OnceCallback"* %3 to i64*
  store i64 %11, i64* %12, align 8
  store %"class.base::internal::BindStateBase"* null, %"class.base::internal::BindStateBase"** %9, align 8
  %13 = bitcast %"class.device::mojom::blink::HidManager"* %8 to void (%"class.device::mojom::blink::HidManager"*, %"class.base::OnceCallback"*)***
  %14 = load void (%"class.device::mojom::blink::HidManager"*, %"class.base::OnceCallback"*)**, void (%"class.device::mojom::blink::HidManager"*, %"class.base::OnceCallback"*)*** %13, align 8
  %15 = getelementptr inbounds void (%"class.device::mojom::blink::HidManager"*, %"class.base::OnceCallback"*)*, void (%"class.device::mojom::blink::HidManager"*, %"class.base::OnceCallback"*)** %14, i64 3
  %16 = load void (%"class.device::mojom::blink::HidManager"*, %"class.base::OnceCallback"*)*, void (%"class.device::mojom::blink::HidManager"*, %"class.base::OnceCallback"*)** %15, align 8
  call void %16(%"class.device::mojom::blink::HidManager"* %8, %"class.base::OnceCallback"* nonnull %3) #10
  %17 = getelementptr inbounds %"class.base::OnceCallback", %"class.base::OnceCallback"* %3, i64 0, i32 0
  call void @_ZN4base8internal12CallbackBaseD2Ev(%"class.base::internal::CallbackBase"* nonnull %17) #10
  ret void
}

; Function Attrs: nounwind ssp uwtable
define hidden void @_ZN6device5mojom5blink31HidManagerInterceptorForTesting7ConnectERKN3WTF6StringEN4mojo13PendingRemoteINS1_19HidConnectionClientEEENS8_INS1_20HidConnectionWatcherEEEbN4base12OnceCallbackIFvNS8_INS1_13HidConnectionEEEEEE(%"class.device::mojom::blink::HidManagerInterceptorForTesting"*, %"class.WTF::String"* dereferenceable(8), %"class.mojo::PendingRemote"*, %"class.mojo::PendingRemote.50"*, i1 zeroext, %"class.base::OnceCallback.51"* nocapture) unnamed_addr #0 align 2 {
  %7 = alloca %"class.mojo::PendingRemote", align 4
  %8 = alloca %"class.mojo::PendingRemote.50", align 4
  %9 = alloca %"class.base::OnceCallback.51", align 8
  %10 = bitcast %"class.device::mojom::blink::HidManagerInterceptorForTesting"* %0 to %"class.device::mojom::blink::HidManager"* (%"class.device::mojom::blink::HidManagerInterceptorForTesting"*)***
  %11 = load %"class.device::mojom::blink::HidManager"* (%"class.device::mojom::blink::HidManagerInterceptorForTesting"*)**, %"class.device::mojom::blink::HidManager"* (%"class.device::mojom::blink::HidManagerInterceptorForTesting"*)*** %10, align 8
  %12 = getelementptr inbounds %"class.device::mojom::blink::HidManager"* (%"class.device::mojom::blink::HidManagerInterceptorForTesting"*)*, %"class.device::mojom::blink::HidManager"* (%"class.device::mojom::blink::HidManagerInterceptorForTesting"*)** %11, i64 6
  %13 = load %"class.device::mojom::blink::HidManager"* (%"class.device::mojom::blink::HidManagerInterceptorForTesting"*)*, %"class.device::mojom::blink::HidManager"* (%"class.device::mojom::blink::HidManagerInterceptorForTesting"*)** %12, align 8
  %14 = tail call %"class.device::mojom::blink::HidManager"* %13(%"class.device::mojom::blink::HidManagerInterceptorForTesting"* %0) #10
  %15 = getelementptr inbounds %"class.mojo::PendingRemote", %"class.mojo::PendingRemote"* %7, i64 0, i32 0
  %16 = getelementptr inbounds %"class.mojo::PendingRemote", %"class.mojo::PendingRemote"* %2, i64 0, i32 0
  call void @_ZN4mojo8internal18PendingRemoteStateC1EOS1_(%"struct.mojo::internal::PendingRemoteState"* nonnull %15, %"struct.mojo::internal::PendingRemoteState"* dereferenceable(8) %16) #10
  %17 = getelementptr inbounds %"class.mojo::PendingRemote.50", %"class.mojo::PendingRemote.50"* %8, i64 0, i32 0
  %18 = getelementptr inbounds %"class.mojo::PendingRemote.50", %"class.mojo::PendingRemote.50"* %3, i64 0, i32 0
  call void @_ZN4mojo8internal18PendingRemoteStateC1EOS1_(%"struct.mojo::internal::PendingRemoteState"* nonnull %17, %"struct.mojo::internal::PendingRemoteState"* dereferenceable(8) %18) #10
  %19 = getelementptr inbounds %"class.base::OnceCallback.51", %"class.base::OnceCallback.51"* %5, i64 0, i32 0, i32 0, i32 0
  %20 = bitcast %"class.base::OnceCallback.51"* %5 to i64*
  %21 = load i64, i64* %20, align 8
  %22 = bitcast %"class.base::OnceCallback.51"* %9 to i64*
  store i64 %21, i64* %22, align 8
  store %"class.base::internal::BindStateBase"* null, %"class.base::internal::BindStateBase"** %19, align 8
  %23 = bitcast %"class.device::mojom::blink::HidManager"* %14 to void (%"class.device::mojom::blink::HidManager"*, %"class.WTF::String"*, %"class.mojo::PendingRemote"*, %"class.mojo::PendingRemote.50"*, i1, %"class.base::OnceCallback.51"*)***
  %24 = load void (%"class.device::mojom::blink::HidManager"*, %"class.WTF::String"*, %"class.mojo::PendingRemote"*, %"class.mojo::PendingRemote.50"*, i1, %"class.base::OnceCallback.51"*)**, void (%"class.device::mojom::blink::HidManager"*, %"class.WTF::String"*, %"class.mojo::PendingRemote"*, %"class.mojo::PendingRemote.50"*, i1, %"class.base::OnceCallback.51"*)*** %23, align 8
  %25 = getelementptr inbounds void (%"class.device::mojom::blink::HidManager"*, %"class.WTF::String"*, %"class.mojo::PendingRemote"*, %"class.mojo::PendingRemote.50"*, i1, %"class.base::OnceCallback.51"*)*, void (%"class.device::mojom::blink::HidManager"*, %"class.WTF::String"*, %"class.mojo::PendingRemote"*, %"class.mojo::PendingRemote.50"*, i1, %"class.base::OnceCallback.51"*)** %24, i64 4
  %26 = load void (%"class.device::mojom::blink::HidManager"*, %"class.WTF::String"*, %"class.mojo::PendingRemote"*, %"class.mojo::PendingRemote.50"*, i1, %"class.base::OnceCallback.51"*)*, void (%"class.device::mojom::blink::HidManager"*, %"class.WTF::String"*, %"class.mojo::PendingRemote"*, %"class.mojo::PendingRemote.50"*, i1, %"class.base::OnceCallback.51"*)** %25, align 8
  call void %26(%"class.device::mojom::blink::HidManager"* %14, %"class.WTF::String"* dereferenceable(8) %1, %"class.mojo::PendingRemote"* nonnull %7, %"class.mojo::PendingRemote.50"* nonnull %8, i1 zeroext %4, %"class.base::OnceCallback.51"* nonnull %9) #10
  %27 = getelementptr inbounds %"class.base::OnceCallback.51", %"class.base::OnceCallback.51"* %9, i64 0, i32 0
  call void @_ZN4base8internal12CallbackBaseD2Ev(%"class.base::internal::CallbackBase"* nonnull %27) #10
  call void @_ZN4mojo8internal18PendingRemoteStateD1Ev(%"struct.mojo::internal::PendingRemoteState"* nonnull %17) #10
  call void @_ZN4mojo8internal18PendingRemoteStateD1Ev(%"struct.mojo::internal::PendingRemoteState"* nonnull %15) #10
  ret void
}

; Function Attrs: nounwind ssp uwtable
define hidden void @_ZN6device5mojom5blink31HidManagerInterceptorForTesting11AddReceiverEN4mojo15PendingReceiverINS1_10HidManagerEEE(%"class.device::mojom::blink::HidManagerInterceptorForTesting"*, %"class.mojo::PendingReceiver"*) unnamed_addr #0 align 2 {
  %3 = alloca %"class.mojo::PendingReceiver", align 8
  %4 = bitcast %"class.device::mojom::blink::HidManagerInterceptorForTesting"* %0 to %"class.device::mojom::blink::HidManager"* (%"class.device::mojom::blink::HidManagerInterceptorForTesting"*)***
  %5 = load %"class.device::mojom::blink::HidManager"* (%"class.device::mojom::blink::HidManagerInterceptorForTesting"*)**, %"class.device::mojom::blink::HidManager"* (%"class.device::mojom::blink::HidManagerInterceptorForTesting"*)*** %4, align 8
  %6 = getelementptr inbounds %"class.device::mojom::blink::HidManager"* (%"class.device::mojom::blink::HidManagerInterceptorForTesting"*)*, %"class.device::mojom::blink::HidManager"* (%"class.device::mojom::blink::HidManagerInterceptorForTesting"*)** %5, i64 6
  %7 = load %"class.device::mojom::blink::HidManager"* (%"class.device::mojom::blink::HidManagerInterceptorForTesting"*)*, %"class.device::mojom::blink::HidManager"* (%"class.device::mojom::blink::HidManagerInterceptorForTesting"*)** %6, align 8
  %8 = tail call %"class.device::mojom::blink::HidManager"* %7(%"class.device::mojom::blink::HidManagerInterceptorForTesting"* %0) #10
  %9 = getelementptr inbounds %"class.mojo::PendingReceiver", %"class.mojo::PendingReceiver"* %3, i64 0, i32 0
  %10 = getelementptr inbounds %"class.mojo::PendingReceiver", %"class.mojo::PendingReceiver"* %1, i64 0, i32 0
  call void @_ZN4mojo8internal20PendingReceiverStateC1EOS1_(%"struct.mojo::internal::PendingReceiverState"* nonnull %9, %"struct.mojo::internal::PendingReceiverState"* dereferenceable(24) %10) #10
  %11 = bitcast %"class.device::mojom::blink::HidManager"* %8 to void (%"class.device::mojom::blink::HidManager"*, %"class.mojo::PendingReceiver"*)***
  %12 = load void (%"class.device::mojom::blink::HidManager"*, %"class.mojo::PendingReceiver"*)**, void (%"class.device::mojom::blink::HidManager"*, %"class.mojo::PendingReceiver"*)*** %11, align 8
  %13 = getelementptr inbounds void (%"class.device::mojom::blink::HidManager"*, %"class.mojo::PendingReceiver"*)*, void (%"class.device::mojom::blink::HidManager"*, %"class.mojo::PendingReceiver"*)** %12, i64 5
  %14 = load void (%"class.device::mojom::blink::HidManager"*, %"class.mojo::PendingReceiver"*)*, void (%"class.device::mojom::blink::HidManager"*, %"class.mojo::PendingReceiver"*)** %13, align 8
  call void %14(%"class.device::mojom::blink::HidManager"* %8, %"class.mojo::PendingReceiver"* nonnull %3) #10
  call void @_ZN4mojo8internal20PendingReceiverStateD1Ev(%"struct.mojo::internal::PendingReceiverState"* nonnull %9) #10
  ret void
}

; Function Attrs: nofree norecurse nounwind ssp uwtable writeonly
define hidden void @_ZN6device5mojom5blink21HidManagerAsyncWaiterC2EPNS1_10HidManagerE(%"class.device::mojom::blink::HidManagerAsyncWaiter"* nocapture, %"class.device::mojom::blink::HidManager"*) unnamed_addr #1 align 2 {
  %3 = getelementptr inbounds %"class.device::mojom::blink::HidManagerAsyncWaiter", %"class.device::mojom::blink::HidManagerAsyncWaiter"* %0, i64 0, i32 0
  store %"class.device::mojom::blink::HidManager"* %1, %"class.device::mojom::blink::HidManager"** %3, align 8
  ret void
}

; Function Attrs: norecurse nounwind readnone ssp uwtable
define hidden void @_ZN6device5mojom5blink21HidManagerAsyncWaiterD2Ev(%"class.device::mojom::blink::HidManagerAsyncWaiter"* nocapture) unnamed_addr #2 align 2 {
  ret void
}

; Function Attrs: nounwind ssp uwtable
define hidden void @_ZN6device5mojom5blink21HidManagerAsyncWaiter22GetDevicesAndSetClientEN4mojo23PendingAssociatedRemoteINS1_16HidManagerClientEEEPN3WTF6VectorINS3_9StructPtrINS1_13HidDeviceInfoEEELj0ENS7_18PartitionAllocatorEEE(%"class.device::mojom::blink::HidManagerAsyncWaiter"* nocapture readonly, %"class.mojo::PendingAssociatedRemote"*, %"class.WTF::Vector.56"*) local_unnamed_addr #0 align 2 {
  %4 = alloca %"class.base::RunLoop", align 8
  %5 = alloca %"class.mojo::PendingAssociatedRemote", align 8
  %6 = alloca %"class.base::OnceCallback", align 8
  %7 = alloca %"class.base::Location", align 8
  %8 = ptrtoint %"class.WTF::Vector.56"* %2 to i64
  %9 = bitcast %"class.base::RunLoop"* %4 to i8*
  call void @llvm.lifetime.start.p0i8(i64 48, i8* nonnull %9) #10
  call void @llvm.memset.p0i8.i64(i8* nonnull align 8 %9, i8 -86, i64 48, i1 false)
  call void @_ZN4base7RunLoopC1ENS0_4TypeE(%"class.base::RunLoop"* nonnull %4, i32 0) #10
  %10 = getelementptr inbounds %"class.device::mojom::blink::HidManagerAsyncWaiter", %"class.device::mojom::blink::HidManagerAsyncWaiter"* %0, i64 0, i32 0
  %11 = load %"class.device::mojom::blink::HidManager"*, %"class.device::mojom::blink::HidManager"** %10, align 8
  %12 = getelementptr inbounds %"class.mojo::PendingAssociatedRemote", %"class.mojo::PendingAssociatedRemote"* %5, i64 0, i32 0
  %13 = getelementptr inbounds %"class.mojo::PendingAssociatedRemote", %"class.mojo::PendingAssociatedRemote"* %1, i64 0, i32 0
  call void @_ZN4mojo29ScopedInterfaceEndpointHandleC1EOS0_(%"class.mojo::ScopedInterfaceEndpointHandle"* nonnull %12, %"class.mojo::ScopedInterfaceEndpointHandle"* dereferenceable(8) %13) #10
  %14 = getelementptr inbounds %"class.mojo::PendingAssociatedRemote", %"class.mojo::PendingAssociatedRemote"* %5, i64 0, i32 1
  %15 = getelementptr inbounds %"class.mojo::PendingAssociatedRemote", %"class.mojo::PendingAssociatedRemote"* %1, i64 0, i32 1
  %16 = load i32, i32* %15, align 8
  store i32 %16, i32* %14, align 8
  %17 = ptrtoint %"class.base::RunLoop"* %4 to i64
  %18 = call i8* @_Znwm(i64 56) #11, !noalias !2
  %19 = bitcast i8* %18 to %"class.base::internal::BindStateBase"*
  call void @_ZN4base8internal13BindStateBaseC2EPFvvEPFvPKS1_E(%"class.base::internal::BindStateBase"* nonnull %19, void ()* bitcast (void (%"class.base::internal::BindStateBase"*, %"class.WTF::Vector.56"*)* @"_ZN4base8internal7InvokerINS0_9BindStateIZN6device5mojom5blink21HidManagerAsyncWaiter22GetDevicesAndSetClientEN4mojo23PendingAssociatedRemoteINS5_16HidManagerClientEEEPN3WTF6VectorINS7_9StructPtrINS5_13HidDeviceInfoEEELj0ENSB_18PartitionAllocatorEEEE3$_0JPNS_7RunLoopESI_EEEFvSH_EE7RunOnceEPNS0_13BindStateBaseEOSH_" to void ()*), void (%"class.base::internal::BindStateBase"*)* nonnull @"_ZN4base8internal9BindStateIZN6device5mojom5blink21HidManagerAsyncWaiter22GetDevicesAndSetClientEN4mojo23PendingAssociatedRemoteINS4_16HidManagerClientEEEPN3WTF6VectorINS6_9StructPtrINS4_13HidDeviceInfoEEELj0ENSA_18PartitionAllocatorEEEE3$_0JPNS_7RunLoopESH_EE7DestroyEPKNS0_13BindStateBaseE") #10, !noalias !2
  %20 = getelementptr inbounds i8, i8* %18, i64 40
  %21 = bitcast i8* %20 to i64*
  store i64 %17, i64* %21, align 8, !noalias !2
  %22 = getelementptr inbounds i8, i8* %18, i64 48
  %23 = bitcast i8* %22 to i64*
  store i64 %8, i64* %23, align 8, !noalias !2
  %24 = bitcast %"class.base::OnceCallback"* %6 to i8**
  store i8* %18, i8** %24, align 8, !alias.scope !2
  %25 = bitcast %"class.device::mojom::blink::HidManager"* %11 to void (%"class.device::mojom::blink::HidManager"*, %"class.mojo::PendingAssociatedRemote"*, %"class.base::OnceCallback"*)***
  %26 = load void (%"class.device::mojom::blink::HidManager"*, %"class.mojo::PendingAssociatedRemote"*, %"class.base::OnceCallback"*)**, void (%"class.device::mojom::blink::HidManager"*, %"class.mojo::PendingAssociatedRemote"*, %"class.base::OnceCallback"*)*** %25, align 8
  %27 = getelementptr inbounds void (%"class.device::mojom::blink::HidManager"*, %"class.mojo::PendingAssociatedRemote"*, %"class.base::OnceCallback"*)*, void (%"class.device::mojom::blink::HidManager"*, %"class.mojo::PendingAssociatedRemote"*, %"class.base::OnceCallback"*)** %26, i64 2
  %28 = load void (%"class.device::mojom::blink::HidManager"*, %"class.mojo::PendingAssociatedRemote"*, %"class.base::OnceCallback"*)*, void (%"class.device::mojom::blink::HidManager"*, %"class.mojo::PendingAssociatedRemote"*, %"class.base::OnceCallback"*)** %27, align 8
  call void %28(%"class.device::mojom::blink::HidManager"* %11, %"class.mojo::PendingAssociatedRemote"* nonnull %5, %"class.base::OnceCallback"* nonnull %6) #10
  %29 = getelementptr inbounds %"class.base::OnceCallback", %"class.base::OnceCallback"* %6, i64 0, i32 0
  call void @_ZN4base8internal12CallbackBaseD2Ev(%"class.base::internal::CallbackBase"* nonnull %29) #10
  call void @_ZN4mojo29ScopedInterfaceEndpointHandleD1Ev(%"class.mojo::ScopedInterfaceEndpointHandle"* nonnull %12) #10
  %30 = bitcast %"class.base::Location"* %7 to i8*
  call void @llvm.lifetime.start.p0i8(i64 32, i8* nonnull %30) #10
  call void @_ZN4base8Location7CurrentEPKcS2_i(%"class.base::Location"* nonnull sret %7, i8* getelementptr inbounds ([23 x i8], [23 x i8]* @.str, i64 0, i64 0), i8* getelementptr inbounds ([63 x i8], [63 x i8]* @.str.1, i64 0, i64 0), i32 79) #10
  call void @_ZN4base7RunLoop3RunERKNS_8LocationE(%"class.base::RunLoop"* nonnull %4, %"class.base::Location"* nonnull dereferenceable(32) %7) #10
  call void @llvm.lifetime.end.p0i8(i64 32, i8* nonnull %30) #10
  call void @_ZN4base7RunLoopD1Ev(%"class.base::RunLoop"* nonnull %4) #10
  call void @llvm.lifetime.end.p0i8(i64 48, i8* nonnull %9) #10
  ret void
}

; Function Attrs: argmemonly nounwind
declare void @llvm.lifetime.start.p0i8(i64 immarg, i8* nocapture) #3

; Function Attrs: argmemonly nounwind
declare void @llvm.memset.p0i8.i64(i8* nocapture writeonly, i8, i64, i1 immarg) #3

declare void @_ZN4base7RunLoopC1ENS0_4TypeE(%"class.base::RunLoop"*, i32) unnamed_addr #4

; Function Attrs: argmemonly nounwind
declare void @llvm.lifetime.end.p0i8(i64 immarg, i8* nocapture) #3

declare void @_ZN4base7RunLoop3RunERKNS_8LocationE(%"class.base::RunLoop"*, %"class.base::Location"* dereferenceable(32)) local_unnamed_addr #4

declare void @_ZN4base8Location7CurrentEPKcS2_i(%"class.base::Location"* sret, i8*, i8*, i32) local_unnamed_addr #4

; Function Attrs: nounwind
declare void @_ZN4base7RunLoopD1Ev(%"class.base::RunLoop"*) unnamed_addr #5

; Function Attrs: nounwind ssp uwtable
define hidden void @_ZN6device5mojom5blink21HidManagerAsyncWaiter10GetDevicesEPN3WTF6VectorIN4mojo9StructPtrINS1_13HidDeviceInfoEEELj0ENS3_18PartitionAllocatorEEE(%"class.device::mojom::blink::HidManagerAsyncWaiter"* nocapture readonly, %"class.WTF::Vector.56"*) local_unnamed_addr #0 align 2 {
  %3 = alloca %"class.base::RunLoop", align 8
  %4 = alloca %"class.base::OnceCallback", align 8
  %5 = alloca %"class.base::Location", align 8
  %6 = ptrtoint %"class.WTF::Vector.56"* %1 to i64
  %7 = bitcast %"class.base::RunLoop"* %3 to i8*
  call void @llvm.lifetime.start.p0i8(i64 48, i8* nonnull %7) #10
  call void @llvm.memset.p0i8.i64(i8* nonnull align 8 %7, i8 -86, i64 48, i1 false)
  call void @_ZN4base7RunLoopC1ENS0_4TypeE(%"class.base::RunLoop"* nonnull %3, i32 0) #10
  %8 = getelementptr inbounds %"class.device::mojom::blink::HidManagerAsyncWaiter", %"class.device::mojom::blink::HidManagerAsyncWaiter"* %0, i64 0, i32 0
  %9 = load %"class.device::mojom::blink::HidManager"*, %"class.device::mojom::blink::HidManager"** %8, align 8
  %10 = ptrtoint %"class.base::RunLoop"* %3 to i64
  %11 = call i8* @_Znwm(i64 56) #11, !noalias !7
  %12 = bitcast i8* %11 to %"class.base::internal::BindStateBase"*
  call void @_ZN4base8internal13BindStateBaseC2EPFvvEPFvPKS1_E(%"class.base::internal::BindStateBase"* nonnull %12, void ()* bitcast (void (%"class.base::internal::BindStateBase"*, %"class.WTF::Vector.56"*)* @"_ZN4base8internal7InvokerINS0_9BindStateIZN6device5mojom5blink21HidManagerAsyncWaiter10GetDevicesEPN3WTF6VectorIN4mojo9StructPtrINS5_13HidDeviceInfoEEELj0ENS7_18PartitionAllocatorEEEE3$_1JPNS_7RunLoopESF_EEEFvSE_EE7RunOnceEPNS0_13BindStateBaseEOSE_" to void ()*), void (%"class.base::internal::BindStateBase"*)* nonnull @"_ZN4base8internal9BindStateIZN6device5mojom5blink21HidManagerAsyncWaiter10GetDevicesEPN3WTF6VectorIN4mojo9StructPtrINS4_13HidDeviceInfoEEELj0ENS6_18PartitionAllocatorEEEE3$_1JPNS_7RunLoopESE_EE7DestroyEPKNS0_13BindStateBaseE") #10, !noalias !7
  %13 = getelementptr inbounds i8, i8* %11, i64 40
  %14 = bitcast i8* %13 to i64*
  store i64 %10, i64* %14, align 8, !noalias !7
  %15 = getelementptr inbounds i8, i8* %11, i64 48
  %16 = bitcast i8* %15 to i64*
  store i64 %6, i64* %16, align 8, !noalias !7
  %17 = bitcast %"class.base::OnceCallback"* %4 to i8**
  store i8* %11, i8** %17, align 8, !alias.scope !7
  %18 = bitcast %"class.device::mojom::blink::HidManager"* %9 to void (%"class.device::mojom::blink::HidManager"*, %"class.base::OnceCallback"*)***
  %19 = load void (%"class.device::mojom::blink::HidManager"*, %"class.base::OnceCallback"*)**, void (%"class.device::mojom::blink::HidManager"*, %"class.base::OnceCallback"*)*** %18, align 8
  %20 = getelementptr inbounds void (%"class.device::mojom::blink::HidManager"*, %"class.base::OnceCallback"*)*, void (%"class.device::mojom::blink::HidManager"*, %"class.base::OnceCallback"*)** %19, i64 3
  %21 = load void (%"class.device::mojom::blink::HidManager"*, %"class.base::OnceCallback"*)*, void (%"class.device::mojom::blink::HidManager"*, %"class.base::OnceCallback"*)** %20, align 8
  call void %21(%"class.device::mojom::blink::HidManager"* %9, %"class.base::OnceCallback"* nonnull %4) #10
  %22 = getelementptr inbounds %"class.base::OnceCallback", %"class.base::OnceCallback"* %4, i64 0, i32 0
  call void @_ZN4base8internal12CallbackBaseD2Ev(%"class.base::internal::CallbackBase"* nonnull %22) #10
  %23 = bitcast %"class.base::Location"* %5 to i8*
  call void @llvm.lifetime.start.p0i8(i64 32, i8* nonnull %23) #10
  call void @_ZN4base8Location7CurrentEPKcS2_i(%"class.base::Location"* nonnull sret %5, i8* getelementptr inbounds ([11 x i8], [11 x i8]* @.str.2, i64 0, i64 0), i8* getelementptr inbounds ([63 x i8], [63 x i8]* @.str.1, i64 0, i64 0), i32 94) #10
  call void @_ZN4base7RunLoop3RunERKNS_8LocationE(%"class.base::RunLoop"* nonnull %3, %"class.base::Location"* nonnull dereferenceable(32) %5) #10
  call void @llvm.lifetime.end.p0i8(i64 32, i8* nonnull %23) #10
  call void @_ZN4base7RunLoopD1Ev(%"class.base::RunLoop"* nonnull %3) #10
  call void @llvm.lifetime.end.p0i8(i64 48, i8* nonnull %7) #10
  ret void
}

; Function Attrs: nounwind ssp uwtable
define hidden void @_ZN6device5mojom5blink21HidManagerAsyncWaiter7ConnectERKN3WTF6StringEN4mojo13PendingRemoteINS1_19HidConnectionClientEEENS8_INS1_20HidConnectionWatcherEEEbPNS8_INS1_13HidConnectionEEE(%"class.device::mojom::blink::HidManagerAsyncWaiter"* nocapture readonly, %"class.WTF::String"* dereferenceable(8), %"class.mojo::PendingRemote"*, %"class.mojo::PendingRemote.50"*, i1 zeroext, %"class.mojo::PendingRemote.81"*) local_unnamed_addr #0 align 2 {
  %7 = alloca %"class.base::RunLoop", align 8
  %8 = alloca %"class.mojo::PendingRemote", align 4
  %9 = alloca %"class.mojo::PendingRemote.50", align 4
  %10 = alloca %"class.base::OnceCallback.51", align 8
  %11 = alloca %"class.base::Location", align 8
  %12 = ptrtoint %"class.mojo::PendingRemote.81"* %5 to i64
  %13 = bitcast %"class.base::RunLoop"* %7 to i8*
  call void @llvm.lifetime.start.p0i8(i64 48, i8* nonnull %13) #10
  call void @llvm.memset.p0i8.i64(i8* nonnull align 8 %13, i8 -86, i64 48, i1 false)
  call void @_ZN4base7RunLoopC1ENS0_4TypeE(%"class.base::RunLoop"* nonnull %7, i32 0) #10
  %14 = getelementptr inbounds %"class.device::mojom::blink::HidManagerAsyncWaiter", %"class.device::mojom::blink::HidManagerAsyncWaiter"* %0, i64 0, i32 0
  %15 = load %"class.device::mojom::blink::HidManager"*, %"class.device::mojom::blink::HidManager"** %14, align 8
  %16 = getelementptr inbounds %"class.mojo::PendingRemote", %"class.mojo::PendingRemote"* %8, i64 0, i32 0
  %17 = getelementptr inbounds %"class.mojo::PendingRemote", %"class.mojo::PendingRemote"* %2, i64 0, i32 0
  call void @_ZN4mojo8internal18PendingRemoteStateC1EOS1_(%"struct.mojo::internal::PendingRemoteState"* nonnull %16, %"struct.mojo::internal::PendingRemoteState"* dereferenceable(8) %17) #10
  %18 = getelementptr inbounds %"class.mojo::PendingRemote.50", %"class.mojo::PendingRemote.50"* %9, i64 0, i32 0
  %19 = getelementptr inbounds %"class.mojo::PendingRemote.50", %"class.mojo::PendingRemote.50"* %3, i64 0, i32 0
  call void @_ZN4mojo8internal18PendingRemoteStateC1EOS1_(%"struct.mojo::internal::PendingRemoteState"* nonnull %18, %"struct.mojo::internal::PendingRemoteState"* dereferenceable(8) %19) #10
  %20 = ptrtoint %"class.base::RunLoop"* %7 to i64
  %21 = call i8* @_Znwm(i64 56) #11, !noalias !12
  %22 = bitcast i8* %21 to %"class.base::internal::BindStateBase"*
  call void @_ZN4base8internal13BindStateBaseC2EPFvvEPFvPKS1_E(%"class.base::internal::BindStateBase"* nonnull %22, void ()* bitcast (void (%"class.base::internal::BindStateBase"*, %"class.mojo::PendingRemote.81"*)* @"_ZN4base8internal7InvokerINS0_9BindStateIZN6device5mojom5blink21HidManagerAsyncWaiter7ConnectERKN3WTF6StringEN4mojo13PendingRemoteINS5_19HidConnectionClientEEENSC_INS5_20HidConnectionWatcherEEEbPNSC_INS5_13HidConnectionEEEE3$_2JPNS_7RunLoopESJ_EEEFvSI_EE7RunOnceEPNS0_13BindStateBaseEOSI_" to void ()*), void (%"class.base::internal::BindStateBase"*)* nonnull @"_ZN4base8internal9BindStateIZN6device5mojom5blink21HidManagerAsyncWaiter7ConnectERKN3WTF6StringEN4mojo13PendingRemoteINS4_19HidConnectionClientEEENSB_INS4_20HidConnectionWatcherEEEbPNSB_INS4_13HidConnectionEEEE3$_2JPNS_7RunLoopESI_EE7DestroyEPKNS0_13BindStateBaseE") #10, !noalias !12
  %23 = getelementptr inbounds i8, i8* %21, i64 40
  %24 = bitcast i8* %23 to i64*
  store i64 %20, i64* %24, align 8, !noalias !12
  %25 = getelementptr inbounds i8, i8* %21, i64 48
  %26 = bitcast i8* %25 to i64*
  store i64 %12, i64* %26, align 8, !noalias !12
  %27 = bitcast %"class.base::OnceCallback.51"* %10 to i8**
  store i8* %21, i8** %27, align 8, !alias.scope !12
  %28 = bitcast %"class.device::mojom::blink::HidManager"* %15 to void (%"class.device::mojom::blink::HidManager"*, %"class.WTF::String"*, %"class.mojo::PendingRemote"*, %"class.mojo::PendingRemote.50"*, i1, %"class.base::OnceCallback.51"*)***
  %29 = load void (%"class.device::mojom::blink::HidManager"*, %"class.WTF::String"*, %"class.mojo::PendingRemote"*, %"class.mojo::PendingRemote.50"*, i1, %"class.base::OnceCallback.51"*)**, void (%"class.device::mojom::blink::HidManager"*, %"class.WTF::String"*, %"class.mojo::PendingRemote"*, %"class.mojo::PendingRemote.50"*, i1, %"class.base::OnceCallback.51"*)*** %28, align 8
  %30 = getelementptr inbounds void (%"class.device::mojom::blink::HidManager"*, %"class.WTF::String"*, %"class.mojo::PendingRemote"*, %"class.mojo::PendingRemote.50"*, i1, %"class.base::OnceCallback.51"*)*, void (%"class.device::mojom::blink::HidManager"*, %"class.WTF::String"*, %"class.mojo::PendingRemote"*, %"class.mojo::PendingRemote.50"*, i1, %"class.base::OnceCallback.51"*)** %29, i64 4
  %31 = load void (%"class.device::mojom::blink::HidManager"*, %"class.WTF::String"*, %"class.mojo::PendingRemote"*, %"class.mojo::PendingRemote.50"*, i1, %"class.base::OnceCallback.51"*)*, void (%"class.device::mojom::blink::HidManager"*, %"class.WTF::String"*, %"class.mojo::PendingRemote"*, %"class.mojo::PendingRemote.50"*, i1, %"class.base::OnceCallback.51"*)** %30, align 8
  call void %31(%"class.device::mojom::blink::HidManager"* %15, %"class.WTF::String"* dereferenceable(8) %1, %"class.mojo::PendingRemote"* nonnull %8, %"class.mojo::PendingRemote.50"* nonnull %9, i1 zeroext %4, %"class.base::OnceCallback.51"* nonnull %10) #10
  %32 = getelementptr inbounds %"class.base::OnceCallback.51", %"class.base::OnceCallback.51"* %10, i64 0, i32 0
  call void @_ZN4base8internal12CallbackBaseD2Ev(%"class.base::internal::CallbackBase"* nonnull %32) #10
  call void @_ZN4mojo8internal18PendingRemoteStateD1Ev(%"struct.mojo::internal::PendingRemoteState"* nonnull %18) #10
  call void @_ZN4mojo8internal18PendingRemoteStateD1Ev(%"struct.mojo::internal::PendingRemoteState"* nonnull %16) #10
  %33 = bitcast %"class.base::Location"* %11 to i8*
  call void @llvm.lifetime.start.p0i8(i64 32, i8* nonnull %33) #10
  call void @_ZN4base8Location7CurrentEPKcS2_i(%"class.base::Location"* nonnull sret %11, i8* getelementptr inbounds ([8 x i8], [8 x i8]* @.str.3, i64 0, i64 0), i8* getelementptr inbounds ([63 x i8], [63 x i8]* @.str.1, i64 0, i64 0), i32 109) #10
  call void @_ZN4base7RunLoop3RunERKNS_8LocationE(%"class.base::RunLoop"* nonnull %7, %"class.base::Location"* nonnull dereferenceable(32) %11) #10
  call void @llvm.lifetime.end.p0i8(i64 32, i8* nonnull %33) #10
  call void @_ZN4base7RunLoopD1Ev(%"class.base::RunLoop"* nonnull %7) #10
  call void @llvm.lifetime.end.p0i8(i64 48, i8* nonnull %13) #10
  ret void
}

; Function Attrs: nounwind ssp uwtable
define hidden void @_ZN6device5mojom5blink34HidConnectionInterceptorForTesting4ReadEN4base12OnceCallbackIFvbhRKN4absl8optionalIN3WTF6VectorIhLj0ENS7_18PartitionAllocatorEEEEEEEE(%"class.device::mojom::blink::HidConnectionInterceptorForTesting"*, %"class.base::OnceCallback.84"* nocapture) unnamed_addr #0 align 2 {
  %3 = alloca %"class.base::OnceCallback.84", align 8
  %4 = bitcast %"class.device::mojom::blink::HidConnectionInterceptorForTesting"* %0 to %"class.device::mojom::blink::HidConnection"* (%"class.device::mojom::blink::HidConnectionInterceptorForTesting"*)***
  %5 = load %"class.device::mojom::blink::HidConnection"* (%"class.device::mojom::blink::HidConnectionInterceptorForTesting"*)**, %"class.device::mojom::blink::HidConnection"* (%"class.device::mojom::blink::HidConnectionInterceptorForTesting"*)*** %4, align 8
  %6 = getelementptr inbounds %"class.device::mojom::blink::HidConnection"* (%"class.device::mojom::blink::HidConnectionInterceptorForTesting"*)*, %"class.device::mojom::blink::HidConnection"* (%"class.device::mojom::blink::HidConnectionInterceptorForTesting"*)** %5, i64 6
  %7 = load %"class.device::mojom::blink::HidConnection"* (%"class.device::mojom::blink::HidConnectionInterceptorForTesting"*)*, %"class.device::mojom::blink::HidConnection"* (%"class.device::mojom::blink::HidConnectionInterceptorForTesting"*)** %6, align 8
  %8 = tail call %"class.device::mojom::blink::HidConnection"* %7(%"class.device::mojom::blink::HidConnectionInterceptorForTesting"* %0) #10
  %9 = getelementptr inbounds %"class.base::OnceCallback.84", %"class.base::OnceCallback.84"* %1, i64 0, i32 0, i32 0, i32 0
  %10 = bitcast %"class.base::OnceCallback.84"* %1 to i64*
  %11 = load i64, i64* %10, align 8
  %12 = bitcast %"class.base::OnceCallback.84"* %3 to i64*
  store i64 %11, i64* %12, align 8
  store %"class.base::internal::BindStateBase"* null, %"class.base::internal::BindStateBase"** %9, align 8
  %13 = bitcast %"class.device::mojom::blink::HidConnection"* %8 to void (%"class.device::mojom::blink::HidConnection"*, %"class.base::OnceCallback.84"*)***
  %14 = load void (%"class.device::mojom::blink::HidConnection"*, %"class.base::OnceCallback.84"*)**, void (%"class.device::mojom::blink::HidConnection"*, %"class.base::OnceCallback.84"*)*** %13, align 8
  %15 = getelementptr inbounds void (%"class.device::mojom::blink::HidConnection"*, %"class.base::OnceCallback.84"*)*, void (%"class.device::mojom::blink::HidConnection"*, %"class.base::OnceCallback.84"*)** %14, i64 2
  %16 = load void (%"class.device::mojom::blink::HidConnection"*, %"class.base::OnceCallback.84"*)*, void (%"class.device::mojom::blink::HidConnection"*, %"class.base::OnceCallback.84"*)** %15, align 8
  call void %16(%"class.device::mojom::blink::HidConnection"* %8, %"class.base::OnceCallback.84"* nonnull %3) #10
  %17 = getelementptr inbounds %"class.base::OnceCallback.84", %"class.base::OnceCallback.84"* %3, i64 0, i32 0
  call void @_ZN4base8internal12CallbackBaseD2Ev(%"class.base::internal::CallbackBase"* nonnull %17) #10
  ret void
}

; Function Attrs: nounwind ssp uwtable
define hidden void @_ZN6device5mojom5blink34HidConnectionInterceptorForTesting5WriteEhRKN3WTF6VectorIhLj0ENS3_18PartitionAllocatorEEEN4base12OnceCallbackIFvbEEE(%"class.device::mojom::blink::HidConnectionInterceptorForTesting"*, i8 zeroext, %"class.WTF::Vector"* dereferenceable(16), %"class.base::OnceCallback.85"* nocapture) unnamed_addr #0 align 2 {
  %5 = alloca %"class.base::OnceCallback.85", align 8
  %6 = bitcast %"class.device::mojom::blink::HidConnectionInterceptorForTesting"* %0 to %"class.device::mojom::blink::HidConnection"* (%"class.device::mojom::blink::HidConnectionInterceptorForTesting"*)***
  %7 = load %"class.device::mojom::blink::HidConnection"* (%"class.device::mojom::blink::HidConnectionInterceptorForTesting"*)**, %"class.device::mojom::blink::HidConnection"* (%"class.device::mojom::blink::HidConnectionInterceptorForTesting"*)*** %6, align 8
  %8 = getelementptr inbounds %"class.device::mojom::blink::HidConnection"* (%"class.device::mojom::blink::HidConnectionInterceptorForTesting"*)*, %"class.device::mojom::blink::HidConnection"* (%"class.device::mojom::blink::HidConnectionInterceptorForTesting"*)** %7, i64 6
  %9 = load %"class.device::mojom::blink::HidConnection"* (%"class.device::mojom::blink::HidConnectionInterceptorForTesting"*)*, %"class.device::mojom::blink::HidConnection"* (%"class.device::mojom::blink::HidConnectionInterceptorForTesting"*)** %8, align 8
  %10 = tail call %"class.device::mojom::blink::HidConnection"* %9(%"class.device::mojom::blink::HidConnectionInterceptorForTesting"* %0) #10
  %11 = getelementptr inbounds %"class.base::OnceCallback.85", %"class.base::OnceCallback.85"* %3, i64 0, i32 0, i32 0, i32 0
  %12 = bitcast %"class.base::OnceCallback.85"* %3 to i64*
  %13 = load i64, i64* %12, align 8
  %14 = bitcast %"class.base::OnceCallback.85"* %5 to i64*
  store i64 %13, i64* %14, align 8
  store %"class.base::internal::BindStateBase"* null, %"class.base::internal::BindStateBase"** %11, align 8
  %15 = bitcast %"class.device::mojom::blink::HidConnection"* %10 to void (%"class.device::mojom::blink::HidConnection"*, i8, %"class.WTF::Vector"*, %"class.base::OnceCallback.85"*)***
  %16 = load void (%"class.device::mojom::blink::HidConnection"*, i8, %"class.WTF::Vector"*, %"class.base::OnceCallback.85"*)**, void (%"class.device::mojom::blink::HidConnection"*, i8, %"class.WTF::Vector"*, %"class.base::OnceCallback.85"*)*** %15, align 8
  %17 = getelementptr inbounds void (%"class.device::mojom::blink::HidConnection"*, i8, %"class.WTF::Vector"*, %"class.base::OnceCallback.85"*)*, void (%"class.device::mojom::blink::HidConnection"*, i8, %"class.WTF::Vector"*, %"class.base::OnceCallback.85"*)** %16, i64 3
  %18 = load void (%"class.device::mojom::blink::HidConnection"*, i8, %"class.WTF::Vector"*, %"class.base::OnceCallback.85"*)*, void (%"class.device::mojom::blink::HidConnection"*, i8, %"class.WTF::Vector"*, %"class.base::OnceCallback.85"*)** %17, align 8
  call void %18(%"class.device::mojom::blink::HidConnection"* %10, i8 zeroext %1, %"class.WTF::Vector"* dereferenceable(16) %2, %"class.base::OnceCallback.85"* nonnull %5) #10
  %19 = getelementptr inbounds %"class.base::OnceCallback.85", %"class.base::OnceCallback.85"* %5, i64 0, i32 0
  call void @_ZN4base8internal12CallbackBaseD2Ev(%"class.base::internal::CallbackBase"* nonnull %19) #10
  ret void
}

; Function Attrs: nounwind
declare void @_ZN4base8internal12CallbackBaseD2Ev(%"class.base::internal::CallbackBase"*) unnamed_addr #5

; Function Attrs: nounwind ssp uwtable
define hidden void @_ZN6device5mojom5blink34HidConnectionInterceptorForTesting16GetFeatureReportEhN4base12OnceCallbackIFvbRKN4absl8optionalIN3WTF6VectorIhLj0ENS7_18PartitionAllocatorEEEEEEEE(%"class.device::mojom::blink::HidConnectionInterceptorForTesting"*, i8 zeroext, %"class.base::OnceCallback.86"* nocapture) unnamed_addr #0 align 2 {
  %4 = alloca %"class.base::OnceCallback.86", align 8
  %5 = bitcast %"class.device::mojom::blink::HidConnectionInterceptorForTesting"* %0 to %"class.device::mojom::blink::HidConnection"* (%"class.device::mojom::blink::HidConnectionInterceptorForTesting"*)***
  %6 = load %"class.device::mojom::blink::HidConnection"* (%"class.device::mojom::blink::HidConnectionInterceptorForTesting"*)**, %"class.device::mojom::blink::HidConnection"* (%"class.device::mojom::blink::HidConnectionInterceptorForTesting"*)*** %5, align 8
  %7 = getelementptr inbounds %"class.device::mojom::blink::HidConnection"* (%"class.device::mojom::blink::HidConnectionInterceptorForTesting"*)*, %"class.device::mojom::blink::HidConnection"* (%"class.device::mojom::blink::HidConnectionInterceptorForTesting"*)** %6, i64 6
  %8 = load %"class.device::mojom::blink::HidConnection"* (%"class.device::mojom::blink::HidConnectionInterceptorForTesting"*)*, %"class.device::mojom::blink::HidConnection"* (%"class.device::mojom::blink::HidConnectionInterceptorForTesting"*)** %7, align 8
  %9 = tail call %"class.device::mojom::blink::HidConnection"* %8(%"class.device::mojom::blink::HidConnectionInterceptorForTesting"* %0) #10
  %10 = getelementptr inbounds %"class.base::OnceCallback.86", %"class.base::OnceCallback.86"* %2, i64 0, i32 0, i32 0, i32 0
  %11 = bitcast %"class.base::OnceCallback.86"* %2 to i64*
  %12 = load i64, i64* %11, align 8
  %13 = bitcast %"class.base::OnceCallback.86"* %4 to i64*
  store i64 %12, i64* %13, align 8
  store %"class.base::internal::BindStateBase"* null, %"class.base::internal::BindStateBase"** %10, align 8
  %14 = bitcast %"class.device::mojom::blink::HidConnection"* %9 to void (%"class.device::mojom::blink::HidConnection"*, i8, %"class.base::OnceCallback.86"*)***
  %15 = load void (%"class.device::mojom::blink::HidConnection"*, i8, %"class.base::OnceCallback.86"*)**, void (%"class.device::mojom::blink::HidConnection"*, i8, %"class.base::OnceCallback.86"*)*** %14, align 8
  %16 = getelementptr inbounds void (%"class.device::mojom::blink::HidConnection"*, i8, %"class.base::OnceCallback.86"*)*, void (%"class.device::mojom::blink::HidConnection"*, i8, %"class.base::OnceCallback.86"*)** %15, i64 4
  %17 = load void (%"class.device::mojom::blink::HidConnection"*, i8, %"class.base::OnceCallback.86"*)*, void (%"class.device::mojom::blink::HidConnection"*, i8, %"class.base::OnceCallback.86"*)** %16, align 8
  call void %17(%"class.device::mojom::blink::HidConnection"* %9, i8 zeroext %1, %"class.base::OnceCallback.86"* nonnull %4) #10
  %18 = getelementptr inbounds %"class.base::OnceCallback.86", %"class.base::OnceCallback.86"* %4, i64 0, i32 0
  call void @_ZN4base8internal12CallbackBaseD2Ev(%"class.base::internal::CallbackBase"* nonnull %18) #10
  ret void
}

; Function Attrs: nounwind ssp uwtable
define hidden void @_ZN6device5mojom5blink34HidConnectionInterceptorForTesting17SendFeatureReportEhRKN3WTF6VectorIhLj0ENS3_18PartitionAllocatorEEEN4base12OnceCallbackIFvbEEE(%"class.device::mojom::blink::HidConnectionInterceptorForTesting"*, i8 zeroext, %"class.WTF::Vector"* dereferenceable(16), %"class.base::OnceCallback.85"* nocapture) unnamed_addr #0 align 2 {
  %5 = alloca %"class.base::OnceCallback.85", align 8
  %6 = bitcast %"class.device::mojom::blink::HidConnectionInterceptorForTesting"* %0 to %"class.device::mojom::blink::HidConnection"* (%"class.device::mojom::blink::HidConnectionInterceptorForTesting"*)***
  %7 = load %"class.device::mojom::blink::HidConnection"* (%"class.device::mojom::blink::HidConnectionInterceptorForTesting"*)**, %"class.device::mojom::blink::HidConnection"* (%"class.device::mojom::blink::HidConnectionInterceptorForTesting"*)*** %6, align 8
  %8 = getelementptr inbounds %"class.device::mojom::blink::HidConnection"* (%"class.device::mojom::blink::HidConnectionInterceptorForTesting"*)*, %"class.device::mojom::blink::HidConnection"* (%"class.device::mojom::blink::HidConnectionInterceptorForTesting"*)** %7, i64 6
  %9 = load %"class.device::mojom::blink::HidConnection"* (%"class.device::mojom::blink::HidConnectionInterceptorForTesting"*)*, %"class.device::mojom::blink::HidConnection"* (%"class.device::mojom::blink::HidConnectionInterceptorForTesting"*)** %8, align 8
  %10 = tail call %"class.device::mojom::blink::HidConnection"* %9(%"class.device::mojom::blink::HidConnectionInterceptorForTesting"* %0) #10
  %11 = getelementptr inbounds %"class.base::OnceCallback.85", %"class.base::OnceCallback.85"* %3, i64 0, i32 0, i32 0, i32 0
  %12 = bitcast %"class.base::OnceCallback.85"* %3 to i64*
  %13 = load i64, i64* %12, align 8
  %14 = bitcast %"class.base::OnceCallback.85"* %5 to i64*
  store i64 %13, i64* %14, align 8
  store %"class.base::internal::BindStateBase"* null, %"class.base::internal::BindStateBase"** %11, align 8
  %15 = bitcast %"class.device::mojom::blink::HidConnection"* %10 to void (%"class.device::mojom::blink::HidConnection"*, i8, %"class.WTF::Vector"*, %"class.base::OnceCallback.85"*)***
  %16 = load void (%"class.device::mojom::blink::HidConnection"*, i8, %"class.WTF::Vector"*, %"class.base::OnceCallback.85"*)**, void (%"class.device::mojom::blink::HidConnection"*, i8, %"class.WTF::Vector"*, %"class.base::OnceCallback.85"*)*** %15, align 8
  %17 = getelementptr inbounds void (%"class.device::mojom::blink::HidConnection"*, i8, %"class.WTF::Vector"*, %"class.base::OnceCallback.85"*)*, void (%"class.device::mojom::blink::HidConnection"*, i8, %"class.WTF::Vector"*, %"class.base::OnceCallback.85"*)** %16, i64 5
  %18 = load void (%"class.device::mojom::blink::HidConnection"*, i8, %"class.WTF::Vector"*, %"class.base::OnceCallback.85"*)*, void (%"class.device::mojom::blink::HidConnection"*, i8, %"class.WTF::Vector"*, %"class.base::OnceCallback.85"*)** %17, align 8
  call void %18(%"class.device::mojom::blink::HidConnection"* %10, i8 zeroext %1, %"class.WTF::Vector"* dereferenceable(16) %2, %"class.base::OnceCallback.85"* nonnull %5) #10
  %19 = getelementptr inbounds %"class.base::OnceCallback.85", %"class.base::OnceCallback.85"* %5, i64 0, i32 0
  call void @_ZN4base8internal12CallbackBaseD2Ev(%"class.base::internal::CallbackBase"* nonnull %19) #10
  ret void
}

; Function Attrs: nofree norecurse nounwind ssp uwtable writeonly
define hidden void @_ZN6device5mojom5blink24HidConnectionAsyncWaiterC2EPNS1_13HidConnectionE(%"class.device::mojom::blink::HidConnectionAsyncWaiter"* nocapture, %"class.device::mojom::blink::HidConnection"*) unnamed_addr #1 align 2 {
  %3 = getelementptr inbounds %"class.device::mojom::blink::HidConnectionAsyncWaiter", %"class.device::mojom::blink::HidConnectionAsyncWaiter"* %0, i64 0, i32 0
  store %"class.device::mojom::blink::HidConnection"* %1, %"class.device::mojom::blink::HidConnection"** %3, align 8
  ret void
}

; Function Attrs: norecurse nounwind readnone ssp uwtable
define hidden void @_ZN6device5mojom5blink24HidConnectionAsyncWaiterD2Ev(%"class.device::mojom::blink::HidConnectionAsyncWaiter"* nocapture) unnamed_addr #2 align 2 {
  ret void
}

; Function Attrs: nounwind ssp uwtable
define hidden void @_ZN6device5mojom5blink24HidConnectionAsyncWaiter4ReadEPbPhPN4absl8optionalIN3WTF6VectorIhLj0ENS7_18PartitionAllocatorEEEEE(%"class.device::mojom::blink::HidConnectionAsyncWaiter"* nocapture readonly, i8*, i8*, %"class.absl::optional"*) local_unnamed_addr #0 align 2 {
  %5 = alloca %"class.base::RunLoop", align 8
  %6 = alloca %"class.base::OnceCallback.84", align 8
  %7 = alloca %"class.base::Location", align 8
  %8 = ptrtoint i8* %1 to i64
  %9 = ptrtoint i8* %2 to i64
  %10 = ptrtoint %"class.absl::optional"* %3 to i64
  %11 = bitcast %"class.base::RunLoop"* %5 to i8*
  call void @llvm.lifetime.start.p0i8(i64 48, i8* nonnull %11) #10
  call void @llvm.memset.p0i8.i64(i8* nonnull align 8 %11, i8 -86, i64 48, i1 false)
  call void @_ZN4base7RunLoopC1ENS0_4TypeE(%"class.base::RunLoop"* nonnull %5, i32 0) #10
  %12 = getelementptr inbounds %"class.device::mojom::blink::HidConnectionAsyncWaiter", %"class.device::mojom::blink::HidConnectionAsyncWaiter"* %0, i64 0, i32 0
  %13 = load %"class.device::mojom::blink::HidConnection"*, %"class.device::mojom::blink::HidConnection"** %12, align 8
  %14 = ptrtoint %"class.base::RunLoop"* %5 to i64
  %15 = call i8* @_Znwm(i64 72) #11, !noalias !17
  %16 = bitcast i8* %15 to %"class.base::internal::BindStateBase"*
  call void @_ZN4base8internal13BindStateBaseC2EPFvvEPFvPKS1_E(%"class.base::internal::BindStateBase"* nonnull %16, void ()* bitcast (void (%"class.base::internal::BindStateBase"*, i1, i8, %"class.absl::optional"*)* @"_ZN4base8internal7InvokerINS0_9BindStateIZN6device5mojom5blink24HidConnectionAsyncWaiter4ReadEPbPhPN4absl8optionalIN3WTF6VectorIhLj0ENSB_18PartitionAllocatorEEEEEE3$_3JPNS_7RunLoopES7_S8_SG_EEEFvbhRKSF_EE7RunOnceEPNS0_13BindStateBaseEbhSM_" to void ()*), void (%"class.base::internal::BindStateBase"*)* nonnull @"_ZN4base8internal9BindStateIZN6device5mojom5blink24HidConnectionAsyncWaiter4ReadEPbPhPN4absl8optionalIN3WTF6VectorIhLj0ENSA_18PartitionAllocatorEEEEEE3$_3JPNS_7RunLoopES6_S7_SF_EE7DestroyEPKNS0_13BindStateBaseE") #10, !noalias !17
  %17 = getelementptr inbounds i8, i8* %15, i64 40
  %18 = bitcast i8* %17 to i64*
  store i64 %14, i64* %18, align 8, !noalias !17
  %19 = getelementptr inbounds i8, i8* %15, i64 48
  %20 = bitcast i8* %19 to i64*
  store i64 %8, i64* %20, align 8, !noalias !17
  %21 = getelementptr inbounds i8, i8* %15, i64 56
  %22 = bitcast i8* %21 to i64*
  store i64 %9, i64* %22, align 8, !noalias !17
  %23 = getelementptr inbounds i8, i8* %15, i64 64
  %24 = bitcast i8* %23 to i64*
  store i64 %10, i64* %24, align 8, !noalias !17
  %25 = bitcast %"class.base::OnceCallback.84"* %6 to i8**
  store i8* %15, i8** %25, align 8, !alias.scope !17
  %26 = bitcast %"class.device::mojom::blink::HidConnection"* %13 to void (%"class.device::mojom::blink::HidConnection"*, %"class.base::OnceCallback.84"*)***
  %27 = load void (%"class.device::mojom::blink::HidConnection"*, %"class.base::OnceCallback.84"*)**, void (%"class.device::mojom::blink::HidConnection"*, %"class.base::OnceCallback.84"*)*** %26, align 8
  %28 = getelementptr inbounds void (%"class.device::mojom::blink::HidConnection"*, %"class.base::OnceCallback.84"*)*, void (%"class.device::mojom::blink::HidConnection"*, %"class.base::OnceCallback.84"*)** %27, i64 2
  %29 = load void (%"class.device::mojom::blink::HidConnection"*, %"class.base::OnceCallback.84"*)*, void (%"class.device::mojom::blink::HidConnection"*, %"class.base::OnceCallback.84"*)** %28, align 8
  call void %29(%"class.device::mojom::blink::HidConnection"* %13, %"class.base::OnceCallback.84"* nonnull %6) #10
  %30 = getelementptr inbounds %"class.base::OnceCallback.84", %"class.base::OnceCallback.84"* %6, i64 0, i32 0
  call void @_ZN4base8internal12CallbackBaseD2Ev(%"class.base::internal::CallbackBase"* nonnull %30) #10
  %31 = bitcast %"class.base::Location"* %7 to i8*
  call void @llvm.lifetime.start.p0i8(i64 32, i8* nonnull %31) #10
  call void @_ZN4base8Location7CurrentEPKcS2_i(%"class.base::Location"* nonnull sret %7, i8* getelementptr inbounds ([5 x i8], [5 x i8]* @.str.4, i64 0, i64 0), i8* getelementptr inbounds ([63 x i8], [63 x i8]* @.str.1, i64 0, i64 0), i32 152) #10
  call void @_ZN4base7RunLoop3RunERKNS_8LocationE(%"class.base::RunLoop"* nonnull %5, %"class.base::Location"* nonnull dereferenceable(32) %7) #10
  call void @llvm.lifetime.end.p0i8(i64 32, i8* nonnull %31) #10
  call void @_ZN4base7RunLoopD1Ev(%"class.base::RunLoop"* nonnull %5) #10
  call void @llvm.lifetime.end.p0i8(i64 48, i8* nonnull %11) #10
  ret void
}

; Function Attrs: nounwind ssp uwtable
define hidden void @_ZN6device5mojom5blink24HidConnectionAsyncWaiter5WriteEhRKN3WTF6VectorIhLj0ENS3_18PartitionAllocatorEEEPb(%"class.device::mojom::blink::HidConnectionAsyncWaiter"* nocapture readonly, i8 zeroext, %"class.WTF::Vector"* dereferenceable(16), i8*) local_unnamed_addr #0 align 2 {
  %5 = alloca %"class.base::RunLoop", align 8
  %6 = alloca %"class.base::OnceCallback.85", align 8
  %7 = alloca %"class.base::Location", align 8
  %8 = ptrtoint i8* %3 to i64
  %9 = bitcast %"class.base::RunLoop"* %5 to i8*
  call void @llvm.lifetime.start.p0i8(i64 48, i8* nonnull %9) #10
  call void @llvm.memset.p0i8.i64(i8* nonnull align 8 %9, i8 -86, i64 48, i1 false)
  call void @_ZN4base7RunLoopC1ENS0_4TypeE(%"class.base::RunLoop"* nonnull %5, i32 0) #10
  %10 = getelementptr inbounds %"class.device::mojom::blink::HidConnectionAsyncWaiter", %"class.device::mojom::blink::HidConnectionAsyncWaiter"* %0, i64 0, i32 0
  %11 = load %"class.device::mojom::blink::HidConnection"*, %"class.device::mojom::blink::HidConnection"** %10, align 8
  %12 = ptrtoint %"class.base::RunLoop"* %5 to i64
  %13 = call i8* @_Znwm(i64 56) #11, !noalias !22
  %14 = bitcast i8* %13 to %"class.base::internal::BindStateBase"*
  call void @_ZN4base8internal13BindStateBaseC2EPFvvEPFvPKS1_E(%"class.base::internal::BindStateBase"* nonnull %14, void ()* bitcast (void (%"class.base::internal::BindStateBase"*, i1)* @"_ZN4base8internal7InvokerINS0_9BindStateIZN6device5mojom5blink24HidConnectionAsyncWaiter5WriteEhRKN3WTF6VectorIhLj0ENS7_18PartitionAllocatorEEEPbE3$_4JPNS_7RunLoopESD_EEEFvbEE7RunOnceEPNS0_13BindStateBaseEb" to void ()*), void (%"class.base::internal::BindStateBase"*)* nonnull @"_ZN4base8internal9BindStateIZN6device5mojom5blink24HidConnectionAsyncWaiter5WriteEhRKN3WTF6VectorIhLj0ENS6_18PartitionAllocatorEEEPbE3$_4JPNS_7RunLoopESC_EE7DestroyEPKNS0_13BindStateBaseE") #10, !noalias !22
  %15 = getelementptr inbounds i8, i8* %13, i64 40
  %16 = bitcast i8* %15 to i64*
  store i64 %12, i64* %16, align 8, !noalias !22
  %17 = getelementptr inbounds i8, i8* %13, i64 48
  %18 = bitcast i8* %17 to i64*
  store i64 %8, i64* %18, align 8, !noalias !22
  %19 = bitcast %"class.base::OnceCallback.85"* %6 to i8**
  store i8* %13, i8** %19, align 8, !alias.scope !22
  %20 = bitcast %"class.device::mojom::blink::HidConnection"* %11 to void (%"class.device::mojom::blink::HidConnection"*, i8, %"class.WTF::Vector"*, %"class.base::OnceCallback.85"*)***
  %21 = load void (%"class.device::mojom::blink::HidConnection"*, i8, %"class.WTF::Vector"*, %"class.base::OnceCallback.85"*)**, void (%"class.device::mojom::blink::HidConnection"*, i8, %"class.WTF::Vector"*, %"class.base::OnceCallback.85"*)*** %20, align 8
  %22 = getelementptr inbounds void (%"class.device::mojom::blink::HidConnection"*, i8, %"class.WTF::Vector"*, %"class.base::OnceCallback.85"*)*, void (%"class.device::mojom::blink::HidConnection"*, i8, %"class.WTF::Vector"*, %"class.base::OnceCallback.85"*)** %21, i64 3
  %23 = load void (%"class.device::mojom::blink::HidConnection"*, i8, %"class.WTF::Vector"*, %"class.base::OnceCallback.85"*)*, void (%"class.device::mojom::blink::HidConnection"*, i8, %"class.WTF::Vector"*, %"class.base::OnceCallback.85"*)** %22, align 8
  call void %23(%"class.device::mojom::blink::HidConnection"* %11, i8 zeroext %1, %"class.WTF::Vector"* dereferenceable(16) %2, %"class.base::OnceCallback.85"* nonnull %6) #10
  %24 = getelementptr inbounds %"class.base::OnceCallback.85", %"class.base::OnceCallback.85"* %6, i64 0, i32 0
  call void @_ZN4base8internal12CallbackBaseD2Ev(%"class.base::internal::CallbackBase"* nonnull %24) #10
  %25 = bitcast %"class.base::Location"* %7 to i8*
  call void @llvm.lifetime.start.p0i8(i64 32, i8* nonnull %25) #10
  call void @_ZN4base8Location7CurrentEPKcS2_i(%"class.base::Location"* nonnull sret %7, i8* getelementptr inbounds ([6 x i8], [6 x i8]* @.str.5, i64 0, i64 0), i8* getelementptr inbounds ([63 x i8], [63 x i8]* @.str.1, i64 0, i64 0), i32 167) #10
  call void @_ZN4base7RunLoop3RunERKNS_8LocationE(%"class.base::RunLoop"* nonnull %5, %"class.base::Location"* nonnull dereferenceable(32) %7) #10
  call void @llvm.lifetime.end.p0i8(i64 32, i8* nonnull %25) #10
  call void @_ZN4base7RunLoopD1Ev(%"class.base::RunLoop"* nonnull %5) #10
  call void @llvm.lifetime.end.p0i8(i64 48, i8* nonnull %9) #10
  ret void
}

; Function Attrs: nounwind ssp uwtable
define hidden void @_ZN6device5mojom5blink24HidConnectionAsyncWaiter16GetFeatureReportEhPbPN4absl8optionalIN3WTF6VectorIhLj0ENS6_18PartitionAllocatorEEEEE(%"class.device::mojom::blink::HidConnectionAsyncWaiter"* nocapture readonly, i8 zeroext, i8*, %"class.absl::optional"*) local_unnamed_addr #0 align 2 {
  %5 = alloca %"class.base::RunLoop", align 8
  %6 = alloca %"class.base::OnceCallback.86", align 8
  %7 = alloca %"class.base::Location", align 8
  %8 = ptrtoint i8* %2 to i64
  %9 = ptrtoint %"class.absl::optional"* %3 to i64
  %10 = bitcast %"class.base::RunLoop"* %5 to i8*
  call void @llvm.lifetime.start.p0i8(i64 48, i8* nonnull %10) #10
  call void @llvm.memset.p0i8.i64(i8* nonnull align 8 %10, i8 -86, i64 48, i1 false)
  call void @_ZN4base7RunLoopC1ENS0_4TypeE(%"class.base::RunLoop"* nonnull %5, i32 0) #10
  %11 = getelementptr inbounds %"class.device::mojom::blink::HidConnectionAsyncWaiter", %"class.device::mojom::blink::HidConnectionAsyncWaiter"* %0, i64 0, i32 0
  %12 = load %"class.device::mojom::blink::HidConnection"*, %"class.device::mojom::blink::HidConnection"** %11, align 8
  %13 = ptrtoint %"class.base::RunLoop"* %5 to i64
  %14 = call i8* @_Znwm(i64 64) #11, !noalias !27
  %15 = bitcast i8* %14 to %"class.base::internal::BindStateBase"*
  call void @_ZN4base8internal13BindStateBaseC2EPFvvEPFvPKS1_E(%"class.base::internal::BindStateBase"* nonnull %15, void ()* bitcast (void (%"class.base::internal::BindStateBase"*, i1, %"class.absl::optional"*)* @"_ZN4base8internal7InvokerINS0_9BindStateIZN6device5mojom5blink24HidConnectionAsyncWaiter16GetFeatureReportEhPbPN4absl8optionalIN3WTF6VectorIhLj0ENSA_18PartitionAllocatorEEEEEE3$_5JPNS_7RunLoopES7_SF_EEEFvbRKSE_EE7RunOnceEPNS0_13BindStateBaseEbSL_" to void ()*), void (%"class.base::internal::BindStateBase"*)* nonnull @"_ZN4base8internal9BindStateIZN6device5mojom5blink24HidConnectionAsyncWaiter16GetFeatureReportEhPbPN4absl8optionalIN3WTF6VectorIhLj0ENS9_18PartitionAllocatorEEEEEE3$_5JPNS_7RunLoopES6_SE_EE7DestroyEPKNS0_13BindStateBaseE") #10, !noalias !27
  %16 = getelementptr inbounds i8, i8* %14, i64 40
  %17 = bitcast i8* %16 to i64*
  store i64 %13, i64* %17, align 8, !noalias !27
  %18 = getelementptr inbounds i8, i8* %14, i64 48
  %19 = bitcast i8* %18 to i64*
  store i64 %8, i64* %19, align 8, !noalias !27
  %20 = getelementptr inbounds i8, i8* %14, i64 56
  %21 = bitcast i8* %20 to i64*
  store i64 %9, i64* %21, align 8, !noalias !27
  %22 = bitcast %"class.base::OnceCallback.86"* %6 to i8**
  store i8* %14, i8** %22, align 8, !alias.scope !27
  %23 = bitcast %"class.device::mojom::blink::HidConnection"* %12 to void (%"class.device::mojom::blink::HidConnection"*, i8, %"class.base::OnceCallback.86"*)***
  %24 = load void (%"class.device::mojom::blink::HidConnection"*, i8, %"class.base::OnceCallback.86"*)**, void (%"class.device::mojom::blink::HidConnection"*, i8, %"class.base::OnceCallback.86"*)*** %23, align 8
  %25 = getelementptr inbounds void (%"class.device::mojom::blink::HidConnection"*, i8, %"class.base::OnceCallback.86"*)*, void (%"class.device::mojom::blink::HidConnection"*, i8, %"class.base::OnceCallback.86"*)** %24, i64 4
  %26 = load void (%"class.device::mojom::blink::HidConnection"*, i8, %"class.base::OnceCallback.86"*)*, void (%"class.device::mojom::blink::HidConnection"*, i8, %"class.base::OnceCallback.86"*)** %25, align 8
  call void %26(%"class.device::mojom::blink::HidConnection"* %12, i8 zeroext %1, %"class.base::OnceCallback.86"* nonnull %6) #10
  %27 = getelementptr inbounds %"class.base::OnceCallback.86", %"class.base::OnceCallback.86"* %6, i64 0, i32 0
  call void @_ZN4base8internal12CallbackBaseD2Ev(%"class.base::internal::CallbackBase"* nonnull %27) #10
  %28 = bitcast %"class.base::Location"* %7 to i8*
  call void @llvm.lifetime.start.p0i8(i64 32, i8* nonnull %28) #10
  call void @_ZN4base8Location7CurrentEPKcS2_i(%"class.base::Location"* nonnull sret %7, i8* getelementptr inbounds ([17 x i8], [17 x i8]* @.str.6, i64 0, i64 0), i8* getelementptr inbounds ([63 x i8], [63 x i8]* @.str.1, i64 0, i64 0), i32 186) #10
  call void @_ZN4base7RunLoop3RunERKNS_8LocationE(%"class.base::RunLoop"* nonnull %5, %"class.base::Location"* nonnull dereferenceable(32) %7) #10
  call void @llvm.lifetime.end.p0i8(i64 32, i8* nonnull %28) #10
  call void @_ZN4base7RunLoopD1Ev(%"class.base::RunLoop"* nonnull %5) #10
  call void @llvm.lifetime.end.p0i8(i64 48, i8* nonnull %10) #10
  ret void
}

; Function Attrs: nounwind ssp uwtable
define hidden void @_ZN6device5mojom5blink24HidConnectionAsyncWaiter17SendFeatureReportEhRKN3WTF6VectorIhLj0ENS3_18PartitionAllocatorEEEPb(%"class.device::mojom::blink::HidConnectionAsyncWaiter"* nocapture readonly, i8 zeroext, %"class.WTF::Vector"* dereferenceable(16), i8*) local_unnamed_addr #0 align 2 {
  %5 = alloca %"class.base::RunLoop", align 8
  %6 = alloca %"class.base::OnceCallback.85", align 8
  %7 = alloca %"class.base::Location", align 8
  %8 = ptrtoint i8* %3 to i64
  %9 = bitcast %"class.base::RunLoop"* %5 to i8*
  call void @llvm.lifetime.start.p0i8(i64 48, i8* nonnull %9) #10
  call void @llvm.memset.p0i8.i64(i8* nonnull align 8 %9, i8 -86, i64 48, i1 false)
  call void @_ZN4base7RunLoopC1ENS0_4TypeE(%"class.base::RunLoop"* nonnull %5, i32 0) #10
  %10 = getelementptr inbounds %"class.device::mojom::blink::HidConnectionAsyncWaiter", %"class.device::mojom::blink::HidConnectionAsyncWaiter"* %0, i64 0, i32 0
  %11 = load %"class.device::mojom::blink::HidConnection"*, %"class.device::mojom::blink::HidConnection"** %10, align 8
  %12 = ptrtoint %"class.base::RunLoop"* %5 to i64
  %13 = call i8* @_Znwm(i64 56) #11, !noalias !32
  %14 = bitcast i8* %13 to %"class.base::internal::BindStateBase"*
  call void @_ZN4base8internal13BindStateBaseC2EPFvvEPFvPKS1_E(%"class.base::internal::BindStateBase"* nonnull %14, void ()* bitcast (void (%"class.base::internal::BindStateBase"*, i1)* @"_ZN4base8internal7InvokerINS0_9BindStateIZN6device5mojom5blink24HidConnectionAsyncWaiter17SendFeatureReportEhRKN3WTF6VectorIhLj0ENS7_18PartitionAllocatorEEEPbE3$_6JPNS_7RunLoopESD_EEEFvbEE7RunOnceEPNS0_13BindStateBaseEb" to void ()*), void (%"class.base::internal::BindStateBase"*)* nonnull @"_ZN4base8internal9BindStateIZN6device5mojom5blink24HidConnectionAsyncWaiter17SendFeatureReportEhRKN3WTF6VectorIhLj0ENS6_18PartitionAllocatorEEEPbE3$_6JPNS_7RunLoopESC_EE7DestroyEPKNS0_13BindStateBaseE") #10, !noalias !32
  %15 = getelementptr inbounds i8, i8* %13, i64 40
  %16 = bitcast i8* %15 to i64*
  store i64 %12, i64* %16, align 8, !noalias !32
  %17 = getelementptr inbounds i8, i8* %13, i64 48
  %18 = bitcast i8* %17 to i64*
  store i64 %8, i64* %18, align 8, !noalias !32
  %19 = bitcast %"class.base::OnceCallback.85"* %6 to i8**
  store i8* %13, i8** %19, align 8, !alias.scope !32
  %20 = bitcast %"class.device::mojom::blink::HidConnection"* %11 to void (%"class.device::mojom::blink::HidConnection"*, i8, %"class.WTF::Vector"*, %"class.base::OnceCallback.85"*)***
  %21 = load void (%"class.device::mojom::blink::HidConnection"*, i8, %"class.WTF::Vector"*, %"class.base::OnceCallback.85"*)**, void (%"class.device::mojom::blink::HidConnection"*, i8, %"class.WTF::Vector"*, %"class.base::OnceCallback.85"*)*** %20, align 8
  %22 = getelementptr inbounds void (%"class.device::mojom::blink::HidConnection"*, i8, %"class.WTF::Vector"*, %"class.base::OnceCallback.85"*)*, void (%"class.device::mojom::blink::HidConnection"*, i8, %"class.WTF::Vector"*, %"class.base::OnceCallback.85"*)** %21, i64 5
  %23 = load void (%"class.device::mojom::blink::HidConnection"*, i8, %"class.WTF::Vector"*, %"class.base::OnceCallback.85"*)*, void (%"class.device::mojom::blink::HidConnection"*, i8, %"class.WTF::Vector"*, %"class.base::OnceCallback.85"*)** %22, align 8
  call void %23(%"class.device::mojom::blink::HidConnection"* %11, i8 zeroext %1, %"class.WTF::Vector"* dereferenceable(16) %2, %"class.base::OnceCallback.85"* nonnull %6) #10
  %24 = getelementptr inbounds %"class.base::OnceCallback.85", %"class.base::OnceCallback.85"* %6, i64 0, i32 0
  call void @_ZN4base8internal12CallbackBaseD2Ev(%"class.base::internal::CallbackBase"* nonnull %24) #10
  %25 = bitcast %"class.base::Location"* %7 to i8*
  call void @llvm.lifetime.start.p0i8(i64 32, i8* nonnull %25) #10
  call void @_ZN4base8Location7CurrentEPKcS2_i(%"class.base::Location"* nonnull sret %7, i8* getelementptr inbounds ([18 x i8], [18 x i8]* @.str.7, i64 0, i64 0), i8* getelementptr inbounds ([63 x i8], [63 x i8]* @.str.1, i64 0, i64 0), i32 201) #10
  call void @_ZN4base7RunLoop3RunERKNS_8LocationE(%"class.base::RunLoop"* nonnull %5, %"class.base::Location"* nonnull dereferenceable(32) %7) #10
  call void @llvm.lifetime.end.p0i8(i64 32, i8* nonnull %25) #10
  call void @_ZN4base7RunLoopD1Ev(%"class.base::RunLoop"* nonnull %5) #10
  call void @llvm.lifetime.end.p0i8(i64 48, i8* nonnull %9) #10
  ret void
}

; Function Attrs: nounwind ssp uwtable
define hidden void @_ZN6device5mojom5blink40HidConnectionClientInterceptorForTesting13OnInputReportEhRKN3WTF6VectorIhLj0ENS3_18PartitionAllocatorEEE(%"class.device::mojom::blink::HidConnectionClientInterceptorForTesting"*, i8 zeroext, %"class.WTF::Vector"* dereferenceable(16)) unnamed_addr #0 align 2 {
  %4 = bitcast %"class.device::mojom::blink::HidConnectionClientInterceptorForTesting"* %0 to %"class.device::mojom::blink::HidConnectionClient"* (%"class.device::mojom::blink::HidConnectionClientInterceptorForTesting"*)***
  %5 = load %"class.device::mojom::blink::HidConnectionClient"* (%"class.device::mojom::blink::HidConnectionClientInterceptorForTesting"*)**, %"class.device::mojom::blink::HidConnectionClient"* (%"class.device::mojom::blink::HidConnectionClientInterceptorForTesting"*)*** %4, align 8
  %6 = getelementptr inbounds %"class.device::mojom::blink::HidConnectionClient"* (%"class.device::mojom::blink::HidConnectionClientInterceptorForTesting"*)*, %"class.device::mojom::blink::HidConnectionClient"* (%"class.device::mojom::blink::HidConnectionClientInterceptorForTesting"*)** %5, i64 3
  %7 = load %"class.device::mojom::blink::HidConnectionClient"* (%"class.device::mojom::blink::HidConnectionClientInterceptorForTesting"*)*, %"class.device::mojom::blink::HidConnectionClient"* (%"class.device::mojom::blink::HidConnectionClientInterceptorForTesting"*)** %6, align 8
  %8 = tail call %"class.device::mojom::blink::HidConnectionClient"* %7(%"class.device::mojom::blink::HidConnectionClientInterceptorForTesting"* %0) #10
  %9 = bitcast %"class.device::mojom::blink::HidConnectionClient"* %8 to void (%"class.device::mojom::blink::HidConnectionClient"*, i8, %"class.WTF::Vector"*)***
  %10 = load void (%"class.device::mojom::blink::HidConnectionClient"*, i8, %"class.WTF::Vector"*)**, void (%"class.device::mojom::blink::HidConnectionClient"*, i8, %"class.WTF::Vector"*)*** %9, align 8
  %11 = getelementptr inbounds void (%"class.device::mojom::blink::HidConnectionClient"*, i8, %"class.WTF::Vector"*)*, void (%"class.device::mojom::blink::HidConnectionClient"*, i8, %"class.WTF::Vector"*)** %10, i64 2
  %12 = load void (%"class.device::mojom::blink::HidConnectionClient"*, i8, %"class.WTF::Vector"*)*, void (%"class.device::mojom::blink::HidConnectionClient"*, i8, %"class.WTF::Vector"*)** %11, align 8
  tail call void %12(%"class.device::mojom::blink::HidConnectionClient"* %8, i8 zeroext %1, %"class.WTF::Vector"* dereferenceable(16) %2) #10
  ret void
}

; Function Attrs: nofree norecurse nounwind ssp uwtable writeonly
define hidden void @_ZN6device5mojom5blink30HidConnectionClientAsyncWaiterC2EPNS1_19HidConnectionClientE(%"class.device::mojom::blink::HidConnectionClientAsyncWaiter"* nocapture, %"class.device::mojom::blink::HidConnectionClient"*) unnamed_addr #1 align 2 {
  %3 = getelementptr inbounds %"class.device::mojom::blink::HidConnectionClientAsyncWaiter", %"class.device::mojom::blink::HidConnectionClientAsyncWaiter"* %0, i64 0, i32 0
  store %"class.device::mojom::blink::HidConnectionClient"* %1, %"class.device::mojom::blink::HidConnectionClient"** %3, align 8
  ret void
}

; Function Attrs: norecurse nounwind readnone ssp uwtable
define hidden void @_ZN6device5mojom5blink30HidConnectionClientAsyncWaiterD2Ev(%"class.device::mojom::blink::HidConnectionClientAsyncWaiter"* nocapture) unnamed_addr #2 align 2 {
  ret void
}

; Function Attrs: nofree norecurse nounwind ssp uwtable writeonly
define hidden void @_ZN6device5mojom5blink31HidConnectionWatcherAsyncWaiterC2EPNS1_20HidConnectionWatcherE(%"class.device::mojom::blink::HidConnectionWatcherAsyncWaiter"* nocapture, %"class.device::mojom::blink::HidConnectionWatcher"*) unnamed_addr #1 align 2 {
  %3 = getelementptr inbounds %"class.device::mojom::blink::HidConnectionWatcherAsyncWaiter", %"class.device::mojom::blink::HidConnectionWatcherAsyncWaiter"* %0, i64 0, i32 0
  store %"class.device::mojom::blink::HidConnectionWatcher"* %1, %"class.device::mojom::blink::HidConnectionWatcher"** %3, align 8
  ret void
}

; Function Attrs: norecurse nounwind readnone ssp uwtable
define hidden void @_ZN6device5mojom5blink31HidConnectionWatcherAsyncWaiterD2Ev(%"class.device::mojom::blink::HidConnectionWatcherAsyncWaiter"* nocapture) unnamed_addr #2 align 2 {
  ret void
}

; Function Attrs: nounwind ssp uwtable
define linkonce_odr hidden void @_ZN6device5mojom5blink16HidManagerClientD2Ev(%"class.device::mojom::blink::HidManagerClient"*) unnamed_addr #0 comdat align 2 {
  ret void
}

; Function Attrs: inlinehint nounwind ssp uwtable
define linkonce_odr hidden void @_ZN6device5mojom5blink37HidManagerClientInterceptorForTestingD0Ev(%"class.device::mojom::blink::HidManagerClientInterceptorForTesting"*) unnamed_addr #6 comdat align 2 {
  tail call void @llvm.trap() #12
  unreachable
}

declare void @__cxa_pure_virtual() unnamed_addr

; Function Attrs: nounwind ssp uwtable
define linkonce_odr hidden void @_ZN6device5mojom5blink10HidManagerD2Ev(%"class.device::mojom::blink::HidManager"*) unnamed_addr #0 comdat align 2 {
  ret void
}

; Function Attrs: inlinehint nounwind ssp uwtable
define linkonce_odr hidden void @_ZN6device5mojom5blink31HidManagerInterceptorForTestingD0Ev(%"class.device::mojom::blink::HidManagerInterceptorForTesting"*) unnamed_addr #6 comdat align 2 {
  tail call void @llvm.trap() #12
  unreachable
}

; Function Attrs: nounwind ssp uwtable
define linkonce_odr hidden void @_ZN6device5mojom5blink13HidConnectionD2Ev(%"class.device::mojom::blink::HidConnection"*) unnamed_addr #0 comdat align 2 {
  ret void
}

; Function Attrs: inlinehint nounwind ssp uwtable
define linkonce_odr hidden void @_ZN6device5mojom5blink34HidConnectionInterceptorForTestingD0Ev(%"class.device::mojom::blink::HidConnectionInterceptorForTesting"*) unnamed_addr #6 comdat align 2 {
  tail call void @llvm.trap() #12
  unreachable
}

; Function Attrs: nounwind ssp uwtable
define linkonce_odr hidden void @_ZN6device5mojom5blink19HidConnectionClientD2Ev(%"class.device::mojom::blink::HidConnectionClient"*) unnamed_addr #0 comdat align 2 {
  ret void
}

; Function Attrs: inlinehint nounwind ssp uwtable
define linkonce_odr hidden void @_ZN6device5mojom5blink40HidConnectionClientInterceptorForTestingD0Ev(%"class.device::mojom::blink::HidConnectionClientInterceptorForTesting"*) unnamed_addr #6 comdat align 2 {
  tail call void @llvm.trap() #12
  unreachable
}

; Function Attrs: nounwind
declare void @_ZN6device5mojom5blink13HidDeviceInfoD1Ev(%"class.device::mojom::blink::HidDeviceInfo"*) unnamed_addr #5

; Function Attrs: nobuiltin nounwind
declare void @_ZdlPv(i8*) local_unnamed_addr #7

; Function Attrs: nounwind
declare void @_ZN4mojo29ScopedInterfaceEndpointHandleD1Ev(%"class.mojo::ScopedInterfaceEndpointHandle"*) unnamed_addr #5

; Function Attrs: nounwind
declare void @_ZN4mojo8internal18PendingRemoteStateC1EOS1_(%"struct.mojo::internal::PendingRemoteState"*, %"struct.mojo::internal::PendingRemoteState"* dereferenceable(8)) unnamed_addr #5

; Function Attrs: nounwind
declare void @_ZN4mojo8internal18PendingRemoteStateD1Ev(%"struct.mojo::internal::PendingRemoteState"*) unnamed_addr #5

; Function Attrs: nounwind
declare void @_ZN4mojo8internal20PendingReceiverStateC1EOS1_(%"struct.mojo::internal::PendingReceiverState"*, %"struct.mojo::internal::PendingReceiverState"* dereferenceable(24)) unnamed_addr #5

; Function Attrs: nounwind
declare void @_ZN4mojo8internal20PendingReceiverStateD1Ev(%"struct.mojo::internal::PendingReceiverState"*) unnamed_addr #5

; Function Attrs: cold noreturn nounwind
declare void @llvm.trap() #8

declare void @_ZN4mojo29ScopedInterfaceEndpointHandleC1EOS0_(%"class.mojo::ScopedInterfaceEndpointHandle"*, %"class.mojo::ScopedInterfaceEndpointHandle"* dereferenceable(8)) unnamed_addr #4

; Function Attrs: nounwind ssp uwtable
define internal void @"_ZN4base8internal7InvokerINS0_9BindStateIZN6device5mojom5blink21HidManagerAsyncWaiter22GetDevicesAndSetClientEN4mojo23PendingAssociatedRemoteINS5_16HidManagerClientEEEPN3WTF6VectorINS7_9StructPtrINS5_13HidDeviceInfoEEELj0ENSB_18PartitionAllocatorEEEE3$_0JPNS_7RunLoopESI_EEEFvSH_EE7RunOnceEPNS0_13BindStateBaseEOSH_"(%"class.base::internal::BindStateBase"* nocapture readonly, %"class.WTF::Vector.56"* nocapture dereferenceable(16)) #0 align 2 {
  %3 = getelementptr inbounds %"class.base::internal::BindStateBase", %"class.base::internal::BindStateBase"* %0, i64 1, i32 1
  %4 = bitcast void ()** %3 to %"class.base::RunLoop"**
  %5 = getelementptr inbounds void ()*, void ()** %3, i64 1
  %6 = bitcast void ()** %5 to %"class.WTF::Vector.56"**
  %7 = load %"class.base::RunLoop"*, %"class.base::RunLoop"** %4, align 8
  %8 = load %"class.WTF::Vector.56"*, %"class.WTF::Vector.56"** %6, align 8
  %9 = bitcast %"class.WTF::Vector.56"* %1 to i64*
  %10 = load i64, i64* %9, align 8
  store atomic i64 0, i64* %9 monotonic, align 8
  %11 = getelementptr inbounds %"class.WTF::Vector.56", %"class.WTF::Vector.56"* %1, i64 0, i32 0, i32 0, i32 1
  %12 = load i32, i32* %11, align 4
  store i32 0, i32* %11, align 4
  %13 = getelementptr inbounds %"class.WTF::Vector.56", %"class.WTF::Vector.56"* %1, i64 0, i32 0, i32 0, i32 2
  %14 = load i32, i32* %13, align 4
  store i32 0, i32* %13, align 4
  %15 = bitcast %"class.WTF::Vector.56"* %8 to i64*
  %16 = load i64, i64* %15, align 8
  store atomic i64 %10, i64* %15 monotonic, align 8
  %17 = getelementptr inbounds %"class.WTF::Vector.56", %"class.WTF::Vector.56"* %8, i64 0, i32 0, i32 0, i32 1
  store i32 %12, i32* %17, align 4
  %18 = getelementptr inbounds %"class.WTF::Vector.56", %"class.WTF::Vector.56"* %8, i64 0, i32 0, i32 0, i32 2
  %19 = load i32, i32* %18, align 4
  store i32 %14, i32* %18, align 4
  tail call void @_ZN4base7RunLoop4QuitEv(%"class.base::RunLoop"* %7) #10
  %20 = inttoptr i64 %16 to %"class.mojo::StructPtr"*
  %21 = icmp eq i64 %16, 0
  br i1 %21, label %39, label %22, !prof !37

22:                                               ; preds = %2
  %23 = icmp eq i32 %19, 0
  br i1 %23, label %37, label %24, !prof !38

24:                                               ; preds = %22
  %25 = zext i32 %19 to i64
  %26 = getelementptr inbounds %"class.mojo::StructPtr", %"class.mojo::StructPtr"* %20, i64 %25
  br label %27

27:                                               ; preds = %34, %24
  %28 = phi %"class.mojo::StructPtr"* [ %35, %34 ], [ %20, %24 ]
  %29 = getelementptr inbounds %"class.mojo::StructPtr", %"class.mojo::StructPtr"* %28, i64 0, i32 0, i32 0, i32 0, i32 0
  %30 = load %"class.device::mojom::blink::HidDeviceInfo"*, %"class.device::mojom::blink::HidDeviceInfo"** %29, align 8
  store %"class.device::mojom::blink::HidDeviceInfo"* null, %"class.device::mojom::blink::HidDeviceInfo"** %29, align 8
  %31 = icmp eq %"class.device::mojom::blink::HidDeviceInfo"* %30, null
  br i1 %31, label %34, label %32

32:                                               ; preds = %27
  tail call void @_ZN6device5mojom5blink13HidDeviceInfoD1Ev(%"class.device::mojom::blink::HidDeviceInfo"* nonnull %30) #10
  %33 = bitcast %"class.device::mojom::blink::HidDeviceInfo"* %30 to i8*
  tail call void @_ZdlPv(i8* %33) #11
  br label %34

34:                                               ; preds = %32, %27
  %35 = getelementptr inbounds %"class.mojo::StructPtr", %"class.mojo::StructPtr"* %28, i64 1
  %36 = icmp eq %"class.mojo::StructPtr"* %35, %26
  br i1 %36, label %37, label %27

37:                                               ; preds = %34, %22
  %38 = inttoptr i64 %16 to i8*
  tail call void @_ZN3WTF18PartitionAllocator11FreeBackingEPv(i8* %38) #10
  br label %39

39:                                               ; preds = %2, %37
  ret void
}

declare void @_ZN4base7RunLoop4QuitEv(%"class.base::RunLoop"*) local_unnamed_addr #4

declare void @_ZN3WTF18PartitionAllocator11FreeBackingEPv(i8*) local_unnamed_addr #4

; Function Attrs: nobuiltin nofree
declare noalias nonnull i8* @_Znwm(i64) local_unnamed_addr #9

; Function Attrs: nounwind ssp uwtable
define internal void @"_ZN4base8internal9BindStateIZN6device5mojom5blink21HidManagerAsyncWaiter22GetDevicesAndSetClientEN4mojo23PendingAssociatedRemoteINS4_16HidManagerClientEEEPN3WTF6VectorINS6_9StructPtrINS4_13HidDeviceInfoEEELj0ENSA_18PartitionAllocatorEEEE3$_0JPNS_7RunLoopESH_EE7DestroyEPKNS0_13BindStateBaseE"(%"class.base::internal::BindStateBase"*) #0 align 2 {
  %2 = icmp eq %"class.base::internal::BindStateBase"* %0, null
  br i1 %2, label %5, label %3

3:                                                ; preds = %1
  %4 = bitcast %"class.base::internal::BindStateBase"* %0 to i8*
  tail call void @_ZdlPv(i8* %4) #11
  br label %5

5:                                                ; preds = %3, %1
  ret void
}

declare void @_ZN4base8internal13BindStateBaseC2EPFvvEPFvPKS1_E(%"class.base::internal::BindStateBase"*, void ()*, void (%"class.base::internal::BindStateBase"*)*) unnamed_addr #4

; Function Attrs: nounwind ssp uwtable
define internal void @"_ZN4base8internal7InvokerINS0_9BindStateIZN6device5mojom5blink21HidManagerAsyncWaiter10GetDevicesEPN3WTF6VectorIN4mojo9StructPtrINS5_13HidDeviceInfoEEELj0ENS7_18PartitionAllocatorEEEE3$_1JPNS_7RunLoopESF_EEEFvSE_EE7RunOnceEPNS0_13BindStateBaseEOSE_"(%"class.base::internal::BindStateBase"* nocapture readonly, %"class.WTF::Vector.56"* nocapture dereferenceable(16)) #0 align 2 {
  %3 = getelementptr inbounds %"class.base::internal::BindStateBase", %"class.base::internal::BindStateBase"* %0, i64 1, i32 1
  %4 = bitcast void ()** %3 to %"class.base::RunLoop"**
  %5 = getelementptr inbounds void ()*, void ()** %3, i64 1
  %6 = bitcast void ()** %5 to %"class.WTF::Vector.56"**
  %7 = load %"class.base::RunLoop"*, %"class.base::RunLoop"** %4, align 8
  %8 = load %"class.WTF::Vector.56"*, %"class.WTF::Vector.56"** %6, align 8
  %9 = bitcast %"class.WTF::Vector.56"* %1 to i64*
  %10 = load i64, i64* %9, align 8
  store atomic i64 0, i64* %9 monotonic, align 8
  %11 = getelementptr inbounds %"class.WTF::Vector.56", %"class.WTF::Vector.56"* %1, i64 0, i32 0, i32 0, i32 1
  %12 = load i32, i32* %11, align 4
  store i32 0, i32* %11, align 4
  %13 = getelementptr inbounds %"class.WTF::Vector.56", %"class.WTF::Vector.56"* %1, i64 0, i32 0, i32 0, i32 2
  %14 = load i32, i32* %13, align 4
  store i32 0, i32* %13, align 4
  %15 = bitcast %"class.WTF::Vector.56"* %8 to i64*
  %16 = load i64, i64* %15, align 8
  store atomic i64 %10, i64* %15 monotonic, align 8
  %17 = getelementptr inbounds %"class.WTF::Vector.56", %"class.WTF::Vector.56"* %8, i64 0, i32 0, i32 0, i32 1
  store i32 %12, i32* %17, align 4
  %18 = getelementptr inbounds %"class.WTF::Vector.56", %"class.WTF::Vector.56"* %8, i64 0, i32 0, i32 0, i32 2
  %19 = load i32, i32* %18, align 4
  store i32 %14, i32* %18, align 4
  tail call void @_ZN4base7RunLoop4QuitEv(%"class.base::RunLoop"* %7) #10
  %20 = inttoptr i64 %16 to %"class.mojo::StructPtr"*
  %21 = icmp eq i64 %16, 0
  br i1 %21, label %39, label %22, !prof !37

22:                                               ; preds = %2
  %23 = icmp eq i32 %19, 0
  br i1 %23, label %37, label %24, !prof !38

24:                                               ; preds = %22
  %25 = zext i32 %19 to i64
  %26 = getelementptr inbounds %"class.mojo::StructPtr", %"class.mojo::StructPtr"* %20, i64 %25
  br label %27

27:                                               ; preds = %34, %24
  %28 = phi %"class.mojo::StructPtr"* [ %35, %34 ], [ %20, %24 ]
  %29 = getelementptr inbounds %"class.mojo::StructPtr", %"class.mojo::StructPtr"* %28, i64 0, i32 0, i32 0, i32 0, i32 0
  %30 = load %"class.device::mojom::blink::HidDeviceInfo"*, %"class.device::mojom::blink::HidDeviceInfo"** %29, align 8
  store %"class.device::mojom::blink::HidDeviceInfo"* null, %"class.device::mojom::blink::HidDeviceInfo"** %29, align 8
  %31 = icmp eq %"class.device::mojom::blink::HidDeviceInfo"* %30, null
  br i1 %31, label %34, label %32

32:                                               ; preds = %27
  tail call void @_ZN6device5mojom5blink13HidDeviceInfoD1Ev(%"class.device::mojom::blink::HidDeviceInfo"* nonnull %30) #10
  %33 = bitcast %"class.device::mojom::blink::HidDeviceInfo"* %30 to i8*
  tail call void @_ZdlPv(i8* %33) #11
  br label %34

34:                                               ; preds = %32, %27
  %35 = getelementptr inbounds %"class.mojo::StructPtr", %"class.mojo::StructPtr"* %28, i64 1
  %36 = icmp eq %"class.mojo::StructPtr"* %35, %26
  br i1 %36, label %37, label %27

37:                                               ; preds = %34, %22
  %38 = inttoptr i64 %16 to i8*
  tail call void @_ZN3WTF18PartitionAllocator11FreeBackingEPv(i8* %38) #10
  br label %39

39:                                               ; preds = %2, %37
  ret void
}

; Function Attrs: nounwind ssp uwtable
define internal void @"_ZN4base8internal9BindStateIZN6device5mojom5blink21HidManagerAsyncWaiter10GetDevicesEPN3WTF6VectorIN4mojo9StructPtrINS4_13HidDeviceInfoEEELj0ENS6_18PartitionAllocatorEEEE3$_1JPNS_7RunLoopESE_EE7DestroyEPKNS0_13BindStateBaseE"(%"class.base::internal::BindStateBase"*) #0 align 2 {
  %2 = icmp eq %"class.base::internal::BindStateBase"* %0, null
  br i1 %2, label %5, label %3

3:                                                ; preds = %1
  %4 = bitcast %"class.base::internal::BindStateBase"* %0 to i8*
  tail call void @_ZdlPv(i8* %4) #11
  br label %5

5:                                                ; preds = %3, %1
  ret void
}

; Function Attrs: nounwind ssp uwtable
define internal void @"_ZN4base8internal7InvokerINS0_9BindStateIZN6device5mojom5blink21HidManagerAsyncWaiter7ConnectERKN3WTF6StringEN4mojo13PendingRemoteINS5_19HidConnectionClientEEENSC_INS5_20HidConnectionWatcherEEEbPNSC_INS5_13HidConnectionEEEE3$_2JPNS_7RunLoopESJ_EEEFvSI_EE7RunOnceEPNS0_13BindStateBaseEOSI_"(%"class.base::internal::BindStateBase"* nocapture readonly, %"class.mojo::PendingRemote.81"* dereferenceable(8)) #0 align 2 {
  %3 = alloca %"class.mojo::PendingRemote.81", align 4
  %4 = getelementptr inbounds %"class.base::internal::BindStateBase", %"class.base::internal::BindStateBase"* %0, i64 1, i32 1
  %5 = bitcast void ()** %4 to %"class.base::RunLoop"**
  %6 = getelementptr inbounds void ()*, void ()** %4, i64 1
  %7 = bitcast void ()** %6 to %"class.mojo::PendingRemote.81"**
  %8 = bitcast %"class.mojo::PendingRemote.81"* %3 to i8*
  call void @llvm.lifetime.start.p0i8(i64 8, i8* nonnull %8) #10
  %9 = load %"class.base::RunLoop"*, %"class.base::RunLoop"** %5, align 8
  %10 = load %"class.mojo::PendingRemote.81"*, %"class.mojo::PendingRemote.81"** %7, align 8
  %11 = getelementptr inbounds %"class.mojo::PendingRemote.81", %"class.mojo::PendingRemote.81"* %3, i64 0, i32 0
  %12 = getelementptr inbounds %"class.mojo::PendingRemote.81", %"class.mojo::PendingRemote.81"* %1, i64 0, i32 0
  call void @_ZN4mojo8internal18PendingRemoteStateC1EOS1_(%"struct.mojo::internal::PendingRemoteState"* nonnull %11, %"struct.mojo::internal::PendingRemoteState"* dereferenceable(8) %12) #10
  %13 = getelementptr inbounds %"class.mojo::PendingRemote.81", %"class.mojo::PendingRemote.81"* %10, i64 0, i32 0
  %14 = call dereferenceable(8) %"struct.mojo::internal::PendingRemoteState"* @_ZN4mojo8internal18PendingRemoteStateaSEOS1_(%"struct.mojo::internal::PendingRemoteState"* %13, %"struct.mojo::internal::PendingRemoteState"* nonnull dereferenceable(8) %11) #10
  call void @_ZN4base7RunLoop4QuitEv(%"class.base::RunLoop"* %9) #10
  call void @_ZN4mojo8internal18PendingRemoteStateD1Ev(%"struct.mojo::internal::PendingRemoteState"* nonnull %11) #10
  call void @llvm.lifetime.end.p0i8(i64 8, i8* nonnull %8) #10
  ret void
}

; Function Attrs: nounwind
declare dereferenceable(8) %"struct.mojo::internal::PendingRemoteState"* @_ZN4mojo8internal18PendingRemoteStateaSEOS1_(%"struct.mojo::internal::PendingRemoteState"*, %"struct.mojo::internal::PendingRemoteState"* dereferenceable(8)) local_unnamed_addr #5

; Function Attrs: nounwind ssp uwtable
define internal void @"_ZN4base8internal9BindStateIZN6device5mojom5blink21HidManagerAsyncWaiter7ConnectERKN3WTF6StringEN4mojo13PendingRemoteINS4_19HidConnectionClientEEENSB_INS4_20HidConnectionWatcherEEEbPNSB_INS4_13HidConnectionEEEE3$_2JPNS_7RunLoopESI_EE7DestroyEPKNS0_13BindStateBaseE"(%"class.base::internal::BindStateBase"*) #0 align 2 {
  %2 = icmp eq %"class.base::internal::BindStateBase"* %0, null
  br i1 %2, label %5, label %3

3:                                                ; preds = %1
  %4 = bitcast %"class.base::internal::BindStateBase"* %0 to i8*
  tail call void @_ZdlPv(i8* %4) #11
  br label %5

5:                                                ; preds = %3, %1
  ret void
}

; Function Attrs: nounwind ssp uwtable
define internal void @"_ZN4base8internal7InvokerINS0_9BindStateIZN6device5mojom5blink24HidConnectionAsyncWaiter4ReadEPbPhPN4absl8optionalIN3WTF6VectorIhLj0ENSB_18PartitionAllocatorEEEEEE3$_3JPNS_7RunLoopES7_S8_SG_EEEFvbhRKSF_EE7RunOnceEPNS0_13BindStateBaseEbhSM_"(%"class.base::internal::BindStateBase"* nocapture readonly, i1 zeroext, i8 zeroext, %"class.absl::optional"* dereferenceable(24)) #0 align 2 {
  %5 = zext i1 %1 to i8
  %6 = getelementptr inbounds %"class.base::internal::BindStateBase", %"class.base::internal::BindStateBase"* %0, i64 1, i32 1
  %7 = bitcast void ()** %6 to %"class.base::RunLoop"**
  %8 = getelementptr inbounds void ()*, void ()** %6, i64 1
  %9 = bitcast void ()** %8 to i8**
  %10 = getelementptr inbounds void ()*, void ()** %6, i64 2
  %11 = bitcast void ()** %10 to i8**
  %12 = getelementptr inbounds void ()*, void ()** %6, i64 3
  %13 = bitcast void ()** %12 to %"class.absl::optional"**
  %14 = load %"class.base::RunLoop"*, %"class.base::RunLoop"** %7, align 8
  %15 = load i8*, i8** %9, align 8
  %16 = load i8*, i8** %11, align 8
  %17 = load %"class.absl::optional"*, %"class.absl::optional"** %13, align 8
  store i8 %5, i8* %15, align 1
  store i8 %2, i8* %16, align 1
  %18 = getelementptr inbounds %"class.absl::optional", %"class.absl::optional"* %17, i64 0, i32 0
  %19 = getelementptr inbounds %"class.absl::optional", %"class.absl::optional"* %3, i64 0, i32 0
  %20 = tail call dereferenceable(24) %"class.absl::optional_internal::optional_data"* @_ZN4absl17optional_internal13optional_dataIN3WTF6VectorIhLj0ENS2_18PartitionAllocatorEEELb0EEaSERKS6_(%"class.absl::optional_internal::optional_data"* %18, %"class.absl::optional_internal::optional_data"* dereferenceable(24) %19) #10
  tail call void @_ZN4base7RunLoop4QuitEv(%"class.base::RunLoop"* %14) #10
  ret void
}

; Function Attrs: nounwind ssp uwtable
define linkonce_odr hidden dereferenceable(24) %"class.absl::optional_internal::optional_data"* @_ZN4absl17optional_internal13optional_dataIN3WTF6VectorIhLj0ENS2_18PartitionAllocatorEEELb0EEaSERKS6_(%"class.absl::optional_internal::optional_data"*, %"class.absl::optional_internal::optional_data"* dereferenceable(24)) local_unnamed_addr #0 comdat align 2 {
  %3 = getelementptr inbounds %"class.absl::optional_internal::optional_data", %"class.absl::optional_internal::optional_data"* %1, i64 0, i32 0, i32 0, i32 0
  %4 = load i8, i8* %3, align 8, !range !39
  %5 = icmp eq i8 %4, 0
  br i1 %5, label %41, label %6

6:                                                ; preds = %2
  %7 = getelementptr inbounds %"class.absl::optional_internal::optional_data", %"class.absl::optional_internal::optional_data"* %1, i64 0, i32 0, i32 0, i32 1, i32 0
  %8 = getelementptr inbounds %"class.absl::optional_internal::optional_data", %"class.absl::optional_internal::optional_data"* %0, i64 0, i32 0, i32 0, i32 0
  %9 = load i8, i8* %8, align 8, !range !39
  %10 = icmp eq i8 %9, 0
  %11 = getelementptr inbounds %"class.absl::optional_internal::optional_data", %"class.absl::optional_internal::optional_data"* %0, i64 0, i32 0, i32 0, i32 1, i32 0
  br i1 %10, label %14, label %12

12:                                               ; preds = %6
  %13 = tail call dereferenceable(16) %"class.WTF::Vector"* @_ZN3WTF6VectorIhLj0ENS_18PartitionAllocatorEEaSERKS2_(%"class.WTF::Vector"* %11, %"class.WTF::Vector"* dereferenceable(16) %7) #10
  br label %56

14:                                               ; preds = %6
  %15 = getelementptr inbounds %"class.absl::optional_internal::optional_data", %"class.absl::optional_internal::optional_data"* %1, i64 0, i32 0, i32 0, i32 1, i32 0, i32 0, i32 0, i32 1
  %16 = load i32, i32* %15, align 8
  %17 = getelementptr inbounds %"class.WTF::Vector", %"class.WTF::Vector"* %11, i64 0, i32 0, i32 0, i32 0
  store i8* null, i8** %17, align 8
  %18 = getelementptr inbounds %"class.absl::optional_internal::optional_data", %"class.absl::optional_internal::optional_data"* %0, i64 0, i32 0, i32 0, i32 1, i32 0, i32 0, i32 0, i32 1
  store i32 0, i32* %18, align 8
  %19 = icmp eq i32 %16, 0
  br i1 %19, label %27, label %20

20:                                               ; preds = %14
  %21 = zext i32 %16 to i64
  %22 = tail call i64 @_ZN3WTF18PartitionAllocator13QuantizedSizeIhEEmm(i64 %21) #10
  %23 = tail call i8* @_ZN3WTF18PartitionAllocator15AllocateBackingEmPKc(i64 %22, i8* getelementptr inbounds ([61 x i8], [61 x i8]* @__PRETTY_FUNCTION__._ZN3WTF21GetStringWithTypeNameIhEEPKcv, i64 0, i64 0)) #10
  %24 = ptrtoint i8* %23 to i64
  %25 = bitcast %"class.WTF::Vector"* %11 to i64*
  store atomic i64 %24, i64* %25 monotonic, align 8
  %26 = trunc i64 %22 to i32
  store i32 %26, i32* %18, align 8
  br label %27

27:                                               ; preds = %20, %14
  %28 = phi i8* [ null, %14 ], [ %23, %20 ]
  %29 = getelementptr inbounds %"class.absl::optional_internal::optional_data", %"class.absl::optional_internal::optional_data"* %1, i64 0, i32 0, i32 0, i32 1, i32 0, i32 0, i32 0, i32 2
  %30 = load i32, i32* %29, align 4
  %31 = getelementptr inbounds %"class.absl::optional_internal::optional_data", %"class.absl::optional_internal::optional_data"* %0, i64 0, i32 0, i32 0, i32 1, i32 0, i32 0, i32 0, i32 2
  store i32 %30, i32* %31, align 4
  %32 = getelementptr inbounds %"class.WTF::Vector", %"class.WTF::Vector"* %7, i64 0, i32 0, i32 0, i32 0
  %33 = load i8*, i8** %32, align 8
  %34 = icmp ne i8* %28, null
  %35 = icmp ne i8* %33, null
  %36 = and i1 %34, %35
  br i1 %36, label %37, label %40, !prof !37

37:                                               ; preds = %27
  %38 = load i32, i32* %29, align 4
  %39 = zext i32 %38 to i64
  tail call void @llvm.memcpy.p0i8.p0i8.i64(i8* nonnull align 1 %28, i8* nonnull align 1 %33, i64 %39, i1 false) #10
  br label %40

40:                                               ; preds = %37, %27
  store i8 1, i8* %8, align 8
  br label %56

41:                                               ; preds = %2
  %42 = getelementptr inbounds %"class.absl::optional_internal::optional_data", %"class.absl::optional_internal::optional_data"* %0, i64 0, i32 0, i32 0, i32 0
  %43 = load i8, i8* %42, align 8, !range !39
  %44 = icmp eq i8 %43, 0
  br i1 %44, label %56, label %45

45:                                               ; preds = %41
  %46 = getelementptr inbounds %"class.absl::optional_internal::optional_data", %"class.absl::optional_internal::optional_data"* %0, i64 0, i32 0, i32 0, i32 1, i32 0, i32 0, i32 0, i32 0
  %47 = load i8*, i8** %46, align 8
  %48 = icmp eq i8* %47, null
  br i1 %48, label %55, label %49, !prof !37

49:                                               ; preds = %45
  %50 = getelementptr inbounds %"class.absl::optional_internal::optional_data", %"class.absl::optional_internal::optional_data"* %0, i64 0, i32 0, i32 0, i32 1, i32 0, i32 0, i32 0, i32 2
  %51 = load i32, i32* %50, align 4
  %52 = icmp eq i32 %51, 0
  br i1 %52, label %54, label %53, !prof !38

53:                                               ; preds = %49
  store i32 0, i32* %50, align 4
  br label %54

54:                                               ; preds = %53, %49
  tail call void @_ZN3WTF18PartitionAllocator11FreeBackingEPv(i8* nonnull %47) #10
  store i8* null, i8** %46, align 8
  br label %55

55:                                               ; preds = %54, %45
  store i8 0, i8* %42, align 8
  br label %56

56:                                               ; preds = %55, %41, %40, %12
  ret %"class.absl::optional_internal::optional_data"* %0
}

; Function Attrs: nounwind ssp uwtable
define linkonce_odr hidden dereferenceable(16) %"class.WTF::Vector"* @_ZN3WTF6VectorIhLj0ENS_18PartitionAllocatorEEaSERKS2_(%"class.WTF::Vector"*, %"class.WTF::Vector"* dereferenceable(16)) local_unnamed_addr #0 comdat align 2 {
  %3 = icmp eq %"class.WTF::Vector"* %1, %0
  br i1 %3, label %79, label %4, !prof !38

4:                                                ; preds = %2
  %5 = getelementptr inbounds %"class.WTF::Vector", %"class.WTF::Vector"* %0, i64 0, i32 0, i32 0, i32 2
  %6 = load i32, i32* %5, align 4
  %7 = getelementptr inbounds %"class.WTF::Vector", %"class.WTF::Vector"* %1, i64 0, i32 0, i32 0, i32 2
  %8 = load i32, i32* %7, align 4
  %9 = icmp ugt i32 %6, %8
  br i1 %9, label %10, label %11

10:                                               ; preds = %4
  store i32 %8, i32* %5, align 4
  br label %54

11:                                               ; preds = %4
  %12 = getelementptr inbounds %"class.WTF::Vector", %"class.WTF::Vector"* %0, i64 0, i32 0, i32 0, i32 1
  %13 = load i32, i32* %12, align 8
  %14 = icmp ugt i32 %8, %13
  br i1 %14, label %15, label %54

15:                                               ; preds = %11
  %16 = icmp eq i32 %13, 0
  br i1 %16, label %26, label %17

17:                                               ; preds = %15
  %18 = icmp eq i32 %6, 0
  br i1 %18, label %20, label %19

19:                                               ; preds = %17
  store i32 0, i32* %5, align 4
  br label %20

20:                                               ; preds = %19, %17
  %21 = getelementptr inbounds %"class.WTF::Vector", %"class.WTF::Vector"* %0, i64 0, i32 0, i32 0, i32 0
  %22 = load i8*, i8** %21, align 8
  %23 = bitcast %"class.WTF::Vector"* %0 to i64*
  store atomic i64 0, i64* %23 monotonic, align 8
  store i32 0, i32* %12, align 8
  tail call void @_ZN3WTF18PartitionAllocator11FreeBackingEPv(i8* %22) #10
  %24 = load i32, i32* %7, align 4
  %25 = load i32, i32* %12, align 8
  br label %26

26:                                               ; preds = %15, %20
  %27 = phi i32 [ 0, %15 ], [ %25, %20 ]
  %28 = phi i32 [ %8, %15 ], [ %24, %20 ]
  %29 = icmp ult i32 %27, %28
  br i1 %29, label %30, label %54, !prof !37

30:                                               ; preds = %26
  %31 = getelementptr inbounds %"class.WTF::Vector", %"class.WTF::Vector"* %0, i64 0, i32 0, i32 0, i32 0
  %32 = load i8*, i8** %31, align 8
  %33 = icmp eq i8* %32, null
  %34 = zext i32 %28 to i64
  %35 = tail call i64 @_ZN3WTF18PartitionAllocator13QuantizedSizeIhEEmm(i64 %34) #10
  %36 = tail call i8* @_ZN3WTF18PartitionAllocator15AllocateBackingEmPKc(i64 %35, i8* getelementptr inbounds ([61 x i8], [61 x i8]* @__PRETTY_FUNCTION__._ZN3WTF21GetStringWithTypeNameIhEEPKcv, i64 0, i64 0)) #10
  %37 = ptrtoint i8* %36 to i64
  br i1 %33, label %38, label %41

38:                                               ; preds = %30
  %39 = bitcast %"class.WTF::Vector"* %0 to i64*
  store atomic i64 %37, i64* %39 monotonic, align 8
  %40 = trunc i64 %35 to i32
  store i32 %40, i32* %12, align 8
  br label %54

41:                                               ; preds = %30
  %42 = load i8*, i8** %31, align 8
  %43 = icmp ne i8* %36, null
  %44 = icmp ne i8* %42, null
  %45 = and i1 %43, %44
  br i1 %45, label %46, label %50, !prof !37

46:                                               ; preds = %41
  %47 = load i32, i32* %5, align 4
  %48 = zext i32 %47 to i64
  tail call void @llvm.memcpy.p0i8.p0i8.i64(i8* nonnull align 1 %36, i8* nonnull align 1 %42, i64 %48, i1 false) #10
  %49 = load i8*, i8** %31, align 8
  br label %50

50:                                               ; preds = %46, %41
  %51 = phi i8* [ %42, %41 ], [ %49, %46 ]
  tail call void @_ZN3WTF18PartitionAllocator11FreeBackingEPv(i8* %51) #10
  %52 = bitcast %"class.WTF::Vector"* %0 to i64*
  store atomic i64 %37, i64* %52 monotonic, align 8
  %53 = trunc i64 %35 to i32
  store i32 %53, i32* %12, align 8
  br label %54

54:                                               ; preds = %50, %38, %26, %11, %10
  %55 = getelementptr inbounds %"class.WTF::Vector", %"class.WTF::Vector"* %1, i64 0, i32 0, i32 0, i32 0
  %56 = load i8*, i8** %55, align 8
  %57 = load i32, i32* %5, align 4
  %58 = zext i32 %57 to i64
  %59 = getelementptr inbounds %"class.WTF::Vector", %"class.WTF::Vector"* %0, i64 0, i32 0, i32 0, i32 0
  %60 = load i8*, i8** %59, align 8
  tail call void @llvm.memcpy.p0i8.p0i8.i64(i8* align 1 %60, i8* align 1 %56, i64 %58, i1 false) #10
  %61 = load i8*, i8** %55, align 8
  %62 = load i32, i32* %5, align 4
  %63 = zext i32 %62 to i64
  %64 = getelementptr inbounds i8, i8* %61, i64 %63
  %65 = load i8*, i8** %59, align 8
  %66 = getelementptr inbounds i8, i8* %65, i64 %63
  %67 = icmp ne i8* %66, null
  %68 = icmp ne i8* %64, null
  %69 = and i1 %68, %67
  br i1 %69, label %70, label %77, !prof !37

70:                                               ; preds = %54
  %71 = load i32, i32* %7, align 4
  %72 = zext i32 %71 to i64
  %73 = getelementptr inbounds i8, i8* %61, i64 %72
  %74 = ptrtoint i8* %73 to i64
  %75 = ptrtoint i8* %64 to i64
  %76 = sub i64 %74, %75
  tail call void @llvm.memcpy.p0i8.p0i8.i64(i8* nonnull align 1 %66, i8* nonnull align 1 %64, i64 %76, i1 false) #10
  br label %77

77:                                               ; preds = %54, %70
  %78 = load i32, i32* %7, align 4
  store i32 %78, i32* %5, align 4
  br label %79

79:                                               ; preds = %2, %77
  ret %"class.WTF::Vector"* %0
}

; Function Attrs: nounwind ssp uwtable
define linkonce_odr hidden i64 @_ZN3WTF18PartitionAllocator13QuantizedSizeIhEEmm(i64) local_unnamed_addr #0 comdat align 2 {
  %2 = alloca %"class.logging::CheckOpResult", align 8
  %3 = alloca %"class.logging::CheckOpResult", align 8
  %4 = alloca %"class.logging::CheckError", align 8
  %5 = bitcast %"class.logging::CheckOpResult"* %3 to i8*
  call void @llvm.lifetime.start.p0i8(i64 8, i8* nonnull %5) #10
  %6 = getelementptr inbounds %"class.logging::CheckOpResult", %"class.logging::CheckOpResult"* %3, i64 0, i32 0
  store i8* inttoptr (i64 -6148914691236517206 to i8*), i8** %6, align 8
  %7 = bitcast %"class.logging::CheckOpResult"* %2 to i8*
  call void @llvm.lifetime.start.p0i8(i64 8, i8* nonnull %7)
  %8 = icmp ugt i64 %0, 2145386496
  br i1 %8, label %10, label %9

9:                                                ; preds = %1
  call void @llvm.lifetime.end.p0i8(i64 8, i8* nonnull %7)
  store i8* null, i8** %6, align 8
  br label %19

10:                                               ; preds = %1
  %11 = tail call i8* @_ZN7logging15CheckOpValueStrEm(i64 %0) #10
  %12 = tail call i8* @_ZN7logging15CheckOpValueStrEm(i64 2145386496) #10
  call void @_ZN7logging13CheckOpResultC1EPKcPcS3_(%"class.logging::CheckOpResult"* nonnull %2, i8* getelementptr inbounds ([44 x i8], [44 x i8]* @.str.8, i64 0, i64 0), i8* %11, i8* %12) #10
  %13 = getelementptr inbounds %"class.logging::CheckOpResult", %"class.logging::CheckOpResult"* %2, i64 0, i32 0
  %14 = load i8*, i8** %13, align 8
  call void @llvm.lifetime.end.p0i8(i64 8, i8* nonnull %7)
  store i8* %14, i8** %6, align 8
  %15 = icmp eq i8* %14, null
  br i1 %15, label %19, label %16

16:                                               ; preds = %10
  %17 = bitcast %"class.logging::CheckError"* %4 to i8*
  call void @llvm.lifetime.start.p0i8(i64 8, i8* nonnull %17) #10
  call void @_ZN7logging10CheckError7CheckOpEPKciPNS_13CheckOpResultE(%"class.logging::CheckError"* nonnull sret %4, i8* getelementptr inbounds ([78 x i8], [78 x i8]* @.str.9, i64 0, i64 0), i32 31, %"class.logging::CheckOpResult"* nonnull %3) #10
  %18 = call dereferenceable(160) %"class.std::__1::basic_ostream"* @_ZN7logging10CheckError6streamEv(%"class.logging::CheckError"* nonnull %4) #10
  call void @_ZN7logging10CheckErrorD1Ev(%"class.logging::CheckError"* nonnull %4) #10
  call void @llvm.lifetime.end.p0i8(i64 8, i8* nonnull %17) #10
  br label %19

19:                                               ; preds = %9, %10, %16
  call void @llvm.lifetime.end.p0i8(i64 8, i8* nonnull %5) #10
  %20 = call i64 @_ZN3WTF10Partitions23BufferPotentialCapacityEm(i64 %0) #10
  ret i64 %20
}

declare void @_ZN7logging10CheckError7CheckOpEPKciPNS_13CheckOpResultE(%"class.logging::CheckError"* sret, i8*, i32, %"class.logging::CheckOpResult"*) local_unnamed_addr #4

declare dereferenceable(160) %"class.std::__1::basic_ostream"* @_ZN7logging10CheckError6streamEv(%"class.logging::CheckError"*) local_unnamed_addr #4

; Function Attrs: nounwind
declare void @_ZN7logging10CheckErrorD1Ev(%"class.logging::CheckError"*) unnamed_addr #5

declare i64 @_ZN3WTF10Partitions23BufferPotentialCapacityEm(i64) local_unnamed_addr #4

declare i8* @_ZN7logging15CheckOpValueStrEm(i64) local_unnamed_addr #4

declare void @_ZN7logging13CheckOpResultC1EPKcPcS3_(%"class.logging::CheckOpResult"*, i8*, i8*, i8*) unnamed_addr #4

; Function Attrs: argmemonly nounwind
declare void @llvm.memcpy.p0i8.p0i8.i64(i8* nocapture writeonly, i8* nocapture readonly, i64, i1 immarg) #3

declare i8* @_ZN3WTF18PartitionAllocator15AllocateBackingEmPKc(i64, i8*) local_unnamed_addr #4

; Function Attrs: nounwind ssp uwtable
define internal void @"_ZN4base8internal9BindStateIZN6device5mojom5blink24HidConnectionAsyncWaiter4ReadEPbPhPN4absl8optionalIN3WTF6VectorIhLj0ENSA_18PartitionAllocatorEEEEEE3$_3JPNS_7RunLoopES6_S7_SF_EE7DestroyEPKNS0_13BindStateBaseE"(%"class.base::internal::BindStateBase"*) #0 align 2 {
  %2 = icmp eq %"class.base::internal::BindStateBase"* %0, null
  br i1 %2, label %5, label %3

3:                                                ; preds = %1
  %4 = bitcast %"class.base::internal::BindStateBase"* %0 to i8*
  tail call void @_ZdlPv(i8* %4) #11
  br label %5

5:                                                ; preds = %3, %1
  ret void
}

; Function Attrs: nounwind ssp uwtable
define internal void @"_ZN4base8internal7InvokerINS0_9BindStateIZN6device5mojom5blink24HidConnectionAsyncWaiter5WriteEhRKN3WTF6VectorIhLj0ENS7_18PartitionAllocatorEEEPbE3$_4JPNS_7RunLoopESD_EEEFvbEE7RunOnceEPNS0_13BindStateBaseEb"(%"class.base::internal::BindStateBase"* nocapture readonly, i1 zeroext) #0 align 2 {
  %3 = zext i1 %1 to i8
  %4 = getelementptr inbounds %"class.base::internal::BindStateBase", %"class.base::internal::BindStateBase"* %0, i64 1, i32 1
  %5 = bitcast void ()** %4 to %"class.base::RunLoop"**
  %6 = getelementptr inbounds void ()*, void ()** %4, i64 1
  %7 = bitcast void ()** %6 to i8**
  %8 = load %"class.base::RunLoop"*, %"class.base::RunLoop"** %5, align 8
  %9 = load i8*, i8** %7, align 8
  store i8 %3, i8* %9, align 1
  tail call void @_ZN4base7RunLoop4QuitEv(%"class.base::RunLoop"* %8) #10
  ret void
}

; Function Attrs: nounwind ssp uwtable
define internal void @"_ZN4base8internal9BindStateIZN6device5mojom5blink24HidConnectionAsyncWaiter5WriteEhRKN3WTF6VectorIhLj0ENS6_18PartitionAllocatorEEEPbE3$_4JPNS_7RunLoopESC_EE7DestroyEPKNS0_13BindStateBaseE"(%"class.base::internal::BindStateBase"*) #0 align 2 {
  %2 = icmp eq %"class.base::internal::BindStateBase"* %0, null
  br i1 %2, label %5, label %3

3:                                                ; preds = %1
  %4 = bitcast %"class.base::internal::BindStateBase"* %0 to i8*
  tail call void @_ZdlPv(i8* %4) #11
  br label %5

5:                                                ; preds = %3, %1
  ret void
}

; Function Attrs: nounwind ssp uwtable
define internal void @"_ZN4base8internal7InvokerINS0_9BindStateIZN6device5mojom5blink24HidConnectionAsyncWaiter16GetFeatureReportEhPbPN4absl8optionalIN3WTF6VectorIhLj0ENSA_18PartitionAllocatorEEEEEE3$_5JPNS_7RunLoopES7_SF_EEEFvbRKSE_EE7RunOnceEPNS0_13BindStateBaseEbSL_"(%"class.base::internal::BindStateBase"* nocapture readonly, i1 zeroext, %"class.absl::optional"* dereferenceable(24)) #0 align 2 {
  %4 = zext i1 %1 to i8
  %5 = getelementptr inbounds %"class.base::internal::BindStateBase", %"class.base::internal::BindStateBase"* %0, i64 1, i32 1
  %6 = bitcast void ()** %5 to %"class.base::RunLoop"**
  %7 = getelementptr inbounds void ()*, void ()** %5, i64 1
  %8 = bitcast void ()** %7 to i8**
  %9 = getelementptr inbounds void ()*, void ()** %5, i64 2
  %10 = bitcast void ()** %9 to %"class.absl::optional"**
  %11 = load %"class.base::RunLoop"*, %"class.base::RunLoop"** %6, align 8
  %12 = load i8*, i8** %8, align 8
  %13 = load %"class.absl::optional"*, %"class.absl::optional"** %10, align 8
  store i8 %4, i8* %12, align 1
  %14 = getelementptr inbounds %"class.absl::optional", %"class.absl::optional"* %13, i64 0, i32 0
  %15 = getelementptr inbounds %"class.absl::optional", %"class.absl::optional"* %2, i64 0, i32 0
  %16 = tail call dereferenceable(24) %"class.absl::optional_internal::optional_data"* @_ZN4absl17optional_internal13optional_dataIN3WTF6VectorIhLj0ENS2_18PartitionAllocatorEEELb0EEaSERKS6_(%"class.absl::optional_internal::optional_data"* %14, %"class.absl::optional_internal::optional_data"* dereferenceable(24) %15) #10
  tail call void @_ZN4base7RunLoop4QuitEv(%"class.base::RunLoop"* %11) #10
  ret void
}

; Function Attrs: nounwind ssp uwtable
define internal void @"_ZN4base8internal9BindStateIZN6device5mojom5blink24HidConnectionAsyncWaiter16GetFeatureReportEhPbPN4absl8optionalIN3WTF6VectorIhLj0ENS9_18PartitionAllocatorEEEEEE3$_5JPNS_7RunLoopES6_SE_EE7DestroyEPKNS0_13BindStateBaseE"(%"class.base::internal::BindStateBase"*) #0 align 2 {
  %2 = icmp eq %"class.base::internal::BindStateBase"* %0, null
  br i1 %2, label %5, label %3

3:                                                ; preds = %1
  %4 = bitcast %"class.base::internal::BindStateBase"* %0 to i8*
  tail call void @_ZdlPv(i8* %4) #11
  br label %5

5:                                                ; preds = %3, %1
  ret void
}

; Function Attrs: nounwind ssp uwtable
define internal void @"_ZN4base8internal7InvokerINS0_9BindStateIZN6device5mojom5blink24HidConnectionAsyncWaiter17SendFeatureReportEhRKN3WTF6VectorIhLj0ENS7_18PartitionAllocatorEEEPbE3$_6JPNS_7RunLoopESD_EEEFvbEE7RunOnceEPNS0_13BindStateBaseEb"(%"class.base::internal::BindStateBase"* nocapture readonly, i1 zeroext) #0 align 2 {
  %3 = zext i1 %1 to i8
  %4 = getelementptr inbounds %"class.base::internal::BindStateBase", %"class.base::internal::BindStateBase"* %0, i64 1, i32 1
  %5 = bitcast void ()** %4 to %"class.base::RunLoop"**
  %6 = getelementptr inbounds void ()*, void ()** %4, i64 1
  %7 = bitcast void ()** %6 to i8**
  %8 = load %"class.base::RunLoop"*, %"class.base::RunLoop"** %5, align 8
  %9 = load i8*, i8** %7, align 8
  store i8 %3, i8* %9, align 1
  tail call void @_ZN4base7RunLoop4QuitEv(%"class.base::RunLoop"* %8) #10
  ret void
}

; Function Attrs: nounwind ssp uwtable
define internal void @"_ZN4base8internal9BindStateIZN6device5mojom5blink24HidConnectionAsyncWaiter17SendFeatureReportEhRKN3WTF6VectorIhLj0ENS6_18PartitionAllocatorEEEPbE3$_6JPNS_7RunLoopESC_EE7DestroyEPKNS0_13BindStateBaseE"(%"class.base::internal::BindStateBase"*) #0 align 2 {
  %2 = icmp eq %"class.base::internal::BindStateBase"* %0, null
  br i1 %2, label %5, label %3

3:                                                ; preds = %1
  %4 = bitcast %"class.base::internal::BindStateBase"* %0 to i8*
  tail call void @_ZdlPv(i8* %4) #11
  br label %5

5:                                                ; preds = %3, %1
  ret void
}

attributes #0 = { nounwind ssp uwtable "correctly-rounded-divide-sqrt-fp-math"="false" "disable-tail-calls"="false" "less-precise-fpmad"="false" "min-legal-vector-width"="0" "no-frame-pointer-elim"="false" "no-frame-pointer-elim-non-leaf" "no-infs-fp-math"="false" "no-jump-tables"="false" "no-nans-fp-math"="false" "no-signed-zeros-fp-math"="false" "no-trapping-math"="false" "null-pointer-is-valid"="true" "stack-protector-buffer-size"="4" "target-cpu"="x86-64" "target-features"="+cx8,+fxsr,+mmx,+sse,+sse2,+sse3,+x87" "unsafe-fp-math"="false" "use-soft-float"="false" }
attributes #1 = { nofree norecurse nounwind ssp uwtable writeonly "correctly-rounded-divide-sqrt-fp-math"="false" "disable-tail-calls"="false" "less-precise-fpmad"="false" "min-legal-vector-width"="0" "no-frame-pointer-elim"="false" "no-frame-pointer-elim-non-leaf" "no-infs-fp-math"="false" "no-jump-tables"="false" "no-nans-fp-math"="false" "no-signed-zeros-fp-math"="false" "no-trapping-math"="false" "null-pointer-is-valid"="true" "stack-protector-buffer-size"="4" "target-cpu"="x86-64" "target-features"="+cx8,+fxsr,+mmx,+sse,+sse2,+sse3,+x87" "unsafe-fp-math"="false" "use-soft-float"="false" }
attributes #2 = { norecurse nounwind readnone ssp uwtable "correctly-rounded-divide-sqrt-fp-math"="false" "disable-tail-calls"="false" "less-precise-fpmad"="false" "min-legal-vector-width"="0" "no-frame-pointer-elim"="false" "no-frame-pointer-elim-non-leaf" "no-infs-fp-math"="false" "no-jump-tables"="false" "no-nans-fp-math"="false" "no-signed-zeros-fp-math"="false" "no-trapping-math"="false" "null-pointer-is-valid"="true" "stack-protector-buffer-size"="4" "target-cpu"="x86-64" "target-features"="+cx8,+fxsr,+mmx,+sse,+sse2,+sse3,+x87" "unsafe-fp-math"="false" "use-soft-float"="false" }
attributes #3 = { argmemonly nounwind }
attributes #4 = { "correctly-rounded-divide-sqrt-fp-math"="false" "disable-tail-calls"="false" "less-precise-fpmad"="false" "no-frame-pointer-elim"="false" "no-frame-pointer-elim-non-leaf" "no-infs-fp-math"="false" "no-nans-fp-math"="false" "no-signed-zeros-fp-math"="false" "no-trapping-math"="false" "null-pointer-is-valid"="true" "stack-protector-buffer-size"="4" "target-cpu"="x86-64" "target-features"="+cx8,+fxsr,+mmx,+sse,+sse2,+sse3,+x87" "unsafe-fp-math"="false" "use-soft-float"="false" }
attributes #5 = { nounwind "correctly-rounded-divide-sqrt-fp-math"="false" "disable-tail-calls"="false" "less-precise-fpmad"="false" "no-frame-pointer-elim"="false" "no-frame-pointer-elim-non-leaf" "no-infs-fp-math"="false" "no-nans-fp-math"="false" "no-signed-zeros-fp-math"="false" "no-trapping-math"="false" "null-pointer-is-valid"="true" "stack-protector-buffer-size"="4" "target-cpu"="x86-64" "target-features"="+cx8,+fxsr,+mmx,+sse,+sse2,+sse3,+x87" "unsafe-fp-math"="false" "use-soft-float"="false" }
attributes #6 = { inlinehint nounwind ssp uwtable "correctly-rounded-divide-sqrt-fp-math"="false" "disable-tail-calls"="false" "less-precise-fpmad"="false" "min-legal-vector-width"="0" "no-frame-pointer-elim"="false" "no-frame-pointer-elim-non-leaf" "no-infs-fp-math"="false" "no-jump-tables"="false" "no-nans-fp-math"="false" "no-signed-zeros-fp-math"="false" "no-trapping-math"="false" "null-pointer-is-valid"="true" "stack-protector-buffer-size"="4" "target-cpu"="x86-64" "target-features"="+cx8,+fxsr,+mmx,+sse,+sse2,+sse3,+x87" "unsafe-fp-math"="false" "use-soft-float"="false" }
attributes #7 = { nobuiltin nounwind "correctly-rounded-divide-sqrt-fp-math"="false" "disable-tail-calls"="false" "less-precise-fpmad"="false" "no-frame-pointer-elim"="false" "no-frame-pointer-elim-non-leaf" "no-infs-fp-math"="false" "no-nans-fp-math"="false" "no-signed-zeros-fp-math"="false" "no-trapping-math"="false" "null-pointer-is-valid"="true" "stack-protector-buffer-size"="4" "target-cpu"="x86-64" "target-features"="+cx8,+fxsr,+mmx,+sse,+sse2,+sse3,+x87" "unsafe-fp-math"="false" "use-soft-float"="false" }
attributes #8 = { cold noreturn nounwind }
attributes #9 = { nobuiltin nofree "correctly-rounded-divide-sqrt-fp-math"="false" "disable-tail-calls"="false" "less-precise-fpmad"="false" "no-frame-pointer-elim"="false" "no-frame-pointer-elim-non-leaf" "no-infs-fp-math"="false" "no-nans-fp-math"="false" "no-signed-zeros-fp-math"="false" "no-trapping-math"="false" "null-pointer-is-valid"="true" "stack-protector-buffer-size"="4" "target-cpu"="x86-64" "target-features"="+cx8,+fxsr,+mmx,+sse,+sse2,+sse3,+x87" "unsafe-fp-math"="false" "use-soft-float"="false" }
attributes #10 = { nounwind }
attributes #11 = { builtin nounwind }
attributes #12 = { noreturn nounwind }

!llvm.module.flags = !{!0, !1}

!0 = !{i32 1, !"wchar_size", i32 4}
!1 = !{i32 7, !"PIC Level", i32 2}
!2 = !{!3, !5}
!3 = distinct !{!3, !4, !"_ZN4base8internal8BindImplINS_12OnceCallbackEZN6device5mojom5blink21HidManagerAsyncWaiter22GetDevicesAndSetClientEN4mojo23PendingAssociatedRemoteINS5_16HidManagerClientEEEPN3WTF6VectorINS7_9StructPtrINS5_13HidDeviceInfoEEELj0ENSB_18PartitionAllocatorEEEE3$_0JPNS_7RunLoopERSI_EEEDcOT0_DpOT1_: argument 0"}
!4 = distinct !{!4, !"_ZN4base8internal8BindImplINS_12OnceCallbackEZN6device5mojom5blink21HidManagerAsyncWaiter22GetDevicesAndSetClientEN4mojo23PendingAssociatedRemoteINS5_16HidManagerClientEEEPN3WTF6VectorINS7_9StructPtrINS5_13HidDeviceInfoEEELj0ENSB_18PartitionAllocatorEEEE3$_0JPNS_7RunLoopERSI_EEEDcOT0_DpOT1_"}
!5 = distinct !{!5, !6, !"_ZN4base8BindOnceIZN6device5mojom5blink21HidManagerAsyncWaiter22GetDevicesAndSetClientEN4mojo23PendingAssociatedRemoteINS3_16HidManagerClientEEEPN3WTF6VectorINS5_9StructPtrINS3_13HidDeviceInfoEEELj0ENS9_18PartitionAllocatorEEEE3$_0JPNS_7RunLoopERSG_EEENS_12OnceCallbackINS_8internal14BindTypeHelperIT_JDpT0_EE14UnboundRunTypeEEEOSO_DpOSP_: argument 0"}
!6 = distinct !{!6, !"_ZN4base8BindOnceIZN6device5mojom5blink21HidManagerAsyncWaiter22GetDevicesAndSetClientEN4mojo23PendingAssociatedRemoteINS3_16HidManagerClientEEEPN3WTF6VectorINS5_9StructPtrINS3_13HidDeviceInfoEEELj0ENS9_18PartitionAllocatorEEEE3$_0JPNS_7RunLoopERSG_EEENS_12OnceCallbackINS_8internal14BindTypeHelperIT_JDpT0_EE14UnboundRunTypeEEEOSO_DpOSP_"}
!7 = !{!8, !10}
!8 = distinct !{!8, !9, !"_ZN4base8internal8BindImplINS_12OnceCallbackEZN6device5mojom5blink21HidManagerAsyncWaiter10GetDevicesEPN3WTF6VectorIN4mojo9StructPtrINS5_13HidDeviceInfoEEELj0ENS7_18PartitionAllocatorEEEE3$_1JPNS_7RunLoopERSF_EEEDcOT0_DpOT1_: argument 0"}
!9 = distinct !{!9, !"_ZN4base8internal8BindImplINS_12OnceCallbackEZN6device5mojom5blink21HidManagerAsyncWaiter10GetDevicesEPN3WTF6VectorIN4mojo9StructPtrINS5_13HidDeviceInfoEEELj0ENS7_18PartitionAllocatorEEEE3$_1JPNS_7RunLoopERSF_EEEDcOT0_DpOT1_"}
!10 = distinct !{!10, !11, !"_ZN4base8BindOnceIZN6device5mojom5blink21HidManagerAsyncWaiter10GetDevicesEPN3WTF6VectorIN4mojo9StructPtrINS3_13HidDeviceInfoEEELj0ENS5_18PartitionAllocatorEEEE3$_1JPNS_7RunLoopERSD_EEENS_12OnceCallbackINS_8internal14BindTypeHelperIT_JDpT0_EE14UnboundRunTypeEEEOSL_DpOSM_: argument 0"}
!11 = distinct !{!11, !"_ZN4base8BindOnceIZN6device5mojom5blink21HidManagerAsyncWaiter10GetDevicesEPN3WTF6VectorIN4mojo9StructPtrINS3_13HidDeviceInfoEEELj0ENS5_18PartitionAllocatorEEEE3$_1JPNS_7RunLoopERSD_EEENS_12OnceCallbackINS_8internal14BindTypeHelperIT_JDpT0_EE14UnboundRunTypeEEEOSL_DpOSM_"}
!12 = !{!13, !15}
!13 = distinct !{!13, !14, !"_ZN4base8internal8BindImplINS_12OnceCallbackEZN6device5mojom5blink21HidManagerAsyncWaiter7ConnectERKN3WTF6StringEN4mojo13PendingRemoteINS5_19HidConnectionClientEEENSC_INS5_20HidConnectionWatcherEEEbPNSC_INS5_13HidConnectionEEEE3$_2JPNS_7RunLoopERSJ_EEEDcOT0_DpOT1_: argument 0"}
!14 = distinct !{!14, !"_ZN4base8internal8BindImplINS_12OnceCallbackEZN6device5mojom5blink21HidManagerAsyncWaiter7ConnectERKN3WTF6StringEN4mojo13PendingRemoteINS5_19HidConnectionClientEEENSC_INS5_20HidConnectionWatcherEEEbPNSC_INS5_13HidConnectionEEEE3$_2JPNS_7RunLoopERSJ_EEEDcOT0_DpOT1_"}
!15 = distinct !{!15, !16, !"_ZN4base8BindOnceIZN6device5mojom5blink21HidManagerAsyncWaiter7ConnectERKN3WTF6StringEN4mojo13PendingRemoteINS3_19HidConnectionClientEEENSA_INS3_20HidConnectionWatcherEEEbPNSA_INS3_13HidConnectionEEEE3$_2JPNS_7RunLoopERSH_EEENS_12OnceCallbackINS_8internal14BindTypeHelperIT_JDpT0_EE14UnboundRunTypeEEEOSP_DpOSQ_: argument 0"}
!16 = distinct !{!16, !"_ZN4base8BindOnceIZN6device5mojom5blink21HidManagerAsyncWaiter7ConnectERKN3WTF6StringEN4mojo13PendingRemoteINS3_19HidConnectionClientEEENSA_INS3_20HidConnectionWatcherEEEbPNSA_INS3_13HidConnectionEEEE3$_2JPNS_7RunLoopERSH_EEENS_12OnceCallbackINS_8internal14BindTypeHelperIT_JDpT0_EE14UnboundRunTypeEEEOSP_DpOSQ_"}
!17 = !{!18, !20}
!18 = distinct !{!18, !19, !"_ZN4base8internal8BindImplINS_12OnceCallbackEZN6device5mojom5blink24HidConnectionAsyncWaiter4ReadEPbPhPN4absl8optionalIN3WTF6VectorIhLj0ENSB_18PartitionAllocatorEEEEEE3$_3JPNS_7RunLoopERS7_RS8_RSG_EEEDcOT0_DpOT1_: argument 0"}
!19 = distinct !{!19, !"_ZN4base8internal8BindImplINS_12OnceCallbackEZN6device5mojom5blink24HidConnectionAsyncWaiter4ReadEPbPhPN4absl8optionalIN3WTF6VectorIhLj0ENSB_18PartitionAllocatorEEEEEE3$_3JPNS_7RunLoopERS7_RS8_RSG_EEEDcOT0_DpOT1_"}
!20 = distinct !{!20, !21, !"_ZN4base8BindOnceIZN6device5mojom5blink24HidConnectionAsyncWaiter4ReadEPbPhPN4absl8optionalIN3WTF6VectorIhLj0ENS9_18PartitionAllocatorEEEEEE3$_3JPNS_7RunLoopERS5_RS6_RSE_EEENS_12OnceCallbackINS_8internal14BindTypeHelperIT_JDpT0_EE14UnboundRunTypeEEEOSO_DpOSP_: argument 0"}
!21 = distinct !{!21, !"_ZN4base8BindOnceIZN6device5mojom5blink24HidConnectionAsyncWaiter4ReadEPbPhPN4absl8optionalIN3WTF6VectorIhLj0ENS9_18PartitionAllocatorEEEEEE3$_3JPNS_7RunLoopERS5_RS6_RSE_EEENS_12OnceCallbackINS_8internal14BindTypeHelperIT_JDpT0_EE14UnboundRunTypeEEEOSO_DpOSP_"}
!22 = !{!23, !25}
!23 = distinct !{!23, !24, !"_ZN4base8internal8BindImplINS_12OnceCallbackEZN6device5mojom5blink24HidConnectionAsyncWaiter5WriteEhRKN3WTF6VectorIhLj0ENS7_18PartitionAllocatorEEEPbE3$_4JPNS_7RunLoopERSD_EEEDcOT0_DpOT1_: argument 0"}
!24 = distinct !{!24, !"_ZN4base8internal8BindImplINS_12OnceCallbackEZN6device5mojom5blink24HidConnectionAsyncWaiter5WriteEhRKN3WTF6VectorIhLj0ENS7_18PartitionAllocatorEEEPbE3$_4JPNS_7RunLoopERSD_EEEDcOT0_DpOT1_"}
!25 = distinct !{!25, !26, !"_ZN4base8BindOnceIZN6device5mojom5blink24HidConnectionAsyncWaiter5WriteEhRKN3WTF6VectorIhLj0ENS5_18PartitionAllocatorEEEPbE3$_4JPNS_7RunLoopERSB_EEENS_12OnceCallbackINS_8internal14BindTypeHelperIT_JDpT0_EE14UnboundRunTypeEEEOSJ_DpOSK_: argument 0"}
!26 = distinct !{!26, !"_ZN4base8BindOnceIZN6device5mojom5blink24HidConnectionAsyncWaiter5WriteEhRKN3WTF6VectorIhLj0ENS5_18PartitionAllocatorEEEPbE3$_4JPNS_7RunLoopERSB_EEENS_12OnceCallbackINS_8internal14BindTypeHelperIT_JDpT0_EE14UnboundRunTypeEEEOSJ_DpOSK_"}
!27 = !{!28, !30}
!28 = distinct !{!28, !29, !"_ZN4base8internal8BindImplINS_12OnceCallbackEZN6device5mojom5blink24HidConnectionAsyncWaiter16GetFeatureReportEhPbPN4absl8optionalIN3WTF6VectorIhLj0ENSA_18PartitionAllocatorEEEEEE3$_5JPNS_7RunLoopERS7_RSF_EEEDcOT0_DpOT1_: argument 0"}
!29 = distinct !{!29, !"_ZN4base8internal8BindImplINS_12OnceCallbackEZN6device5mojom5blink24HidConnectionAsyncWaiter16GetFeatureReportEhPbPN4absl8optionalIN3WTF6VectorIhLj0ENSA_18PartitionAllocatorEEEEEE3$_5JPNS_7RunLoopERS7_RSF_EEEDcOT0_DpOT1_"}
!30 = distinct !{!30, !31, !"_ZN4base8BindOnceIZN6device5mojom5blink24HidConnectionAsyncWaiter16GetFeatureReportEhPbPN4absl8optionalIN3WTF6VectorIhLj0ENS8_18PartitionAllocatorEEEEEE3$_5JPNS_7RunLoopERS5_RSD_EEENS_12OnceCallbackINS_8internal14BindTypeHelperIT_JDpT0_EE14UnboundRunTypeEEEOSM_DpOSN_: argument 0"}
!31 = distinct !{!31, !"_ZN4base8BindOnceIZN6device5mojom5blink24HidConnectionAsyncWaiter16GetFeatureReportEhPbPN4absl8optionalIN3WTF6VectorIhLj0ENS8_18PartitionAllocatorEEEEEE3$_5JPNS_7RunLoopERS5_RSD_EEENS_12OnceCallbackINS_8internal14BindTypeHelperIT_JDpT0_EE14UnboundRunTypeEEEOSM_DpOSN_"}
!32 = !{!33, !35}
!33 = distinct !{!33, !34, !"_ZN4base8internal8BindImplINS_12OnceCallbackEZN6device5mojom5blink24HidConnectionAsyncWaiter17SendFeatureReportEhRKN3WTF6VectorIhLj0ENS7_18PartitionAllocatorEEEPbE3$_6JPNS_7RunLoopERSD_EEEDcOT0_DpOT1_: argument 0"}
!34 = distinct !{!34, !"_ZN4base8internal8BindImplINS_12OnceCallbackEZN6device5mojom5blink24HidConnectionAsyncWaiter17SendFeatureReportEhRKN3WTF6VectorIhLj0ENS7_18PartitionAllocatorEEEPbE3$_6JPNS_7RunLoopERSD_EEEDcOT0_DpOT1_"}
!35 = distinct !{!35, !36, !"_ZN4base8BindOnceIZN6device5mojom5blink24HidConnectionAsyncWaiter17SendFeatureReportEhRKN3WTF6VectorIhLj0ENS5_18PartitionAllocatorEEEPbE3$_6JPNS_7RunLoopERSB_EEENS_12OnceCallbackINS_8internal14BindTypeHelperIT_JDpT0_EE14UnboundRunTypeEEEOSJ_DpOSK_: argument 0"}
!36 = distinct !{!36, !"_ZN4base8BindOnceIZN6device5mojom5blink24HidConnectionAsyncWaiter17SendFeatureReportEhRKN3WTF6VectorIhLj0ENS5_18PartitionAllocatorEEEPbE3$_6JPNS_7RunLoopERSB_EEENS_12OnceCallbackINS_8internal14BindTypeHelperIT_JDpT0_EE14UnboundRunTypeEEEOSJ_DpOSK_"}
!37 = !{!"branch_weights", i32 2000, i32 1}
!38 = !{!"branch_weights", i32 1, i32 2000}
!39 = !{i8 0, i8 2}
