; ModuleID = '../../content/browser/metrics/histogram_synchronizer.cc'
source_filename = "../../content/browser/metrics/histogram_synchronizer.cc"
target datalayout = "e-m:e-i64:64-f80:128-n8:16:32:64-S128"
target triple = "x86_64-unknown-linux-gnu"

module asm ".symver exp, exp@GLIBC_2.2.5"
module asm ".symver exp2, exp2@GLIBC_2.2.5"
module asm ".symver exp2f, exp2f@GLIBC_2.2.5"
module asm ".symver expf, expf@GLIBC_2.2.5"
module asm ".symver lgamma, lgamma@GLIBC_2.2.5"
module asm ".symver lgammaf, lgammaf@GLIBC_2.2.5"
module asm ".symver lgammal, lgammal@GLIBC_2.2.5"
module asm ".symver log, log@GLIBC_2.2.5"
module asm ".symver log2, log2@GLIBC_2.2.5"
module asm ".symver log2f, log2f@GLIBC_2.2.5"
module asm ".symver logf, logf@GLIBC_2.2.5"
module asm ".symver pow, pow@GLIBC_2.2.5"
module asm ".symver powf, powf@GLIBC_2.2.5"

%"class.base::LazyInstance" = type { i64, [24 x i8] }
%"struct.base::TaskTraitsExtensionStorage" = type { i8, %"struct.std::__1::array" }
%"struct.std::__1::array" = type { [8 x i8] }
%"struct.std::__1::atomic.42" = type { %"struct.std::__1::__atomic_base.43" }
%"struct.std::__1::__atomic_base.43" = type { %"struct.std::__1::__atomic_base.44" }
%"struct.std::__1::__atomic_base.44" = type { %"struct.std::__1::__cxx_atomic_impl.45" }
%"struct.std::__1::__cxx_atomic_impl.45" = type { %"struct.std::__1::__cxx_atomic_base_impl.46" }
%"struct.std::__1::__cxx_atomic_base_impl.46" = type { i64 }
%"class.content::HistogramSynchronizer" = type { %"class.content::HistogramSubscriber", %"class.base::Lock", %"class.base::OnceCallback", %class.scoped_refptr.1, i32, i32 }
%"class.content::HistogramSubscriber" = type { i32 (...)** }
%"class.base::Lock" = type { %"class.base::internal::LockImpl" }
%"class.base::internal::LockImpl" = type { %union.pthread_mutex_t }
%union.pthread_mutex_t = type { %struct.__pthread_mutex_s }
%struct.__pthread_mutex_s = type { i32, i32, i32, i32, i32, i16, i16, %struct.__pthread_internal_list }
%struct.__pthread_internal_list = type { %struct.__pthread_internal_list*, %struct.__pthread_internal_list* }
%"class.base::OnceCallback" = type { %"class.base::internal::CallbackBase" }
%"class.base::internal::CallbackBase" = type { %class.scoped_refptr }
%class.scoped_refptr = type { %"class.base::internal::BindStateBase"* }
%"class.base::internal::BindStateBase" = type { %"class.base::RefCountedThreadSafe", void ()*, void (%"class.base::internal::BindStateBase"*)*, i1 (%"class.base::internal::BindStateBase"*, i32)* }
%"class.base::RefCountedThreadSafe" = type { %"class.base::subtle::RefCountedThreadSafeBase" }
%"class.base::subtle::RefCountedThreadSafeBase" = type { %"class.base::AtomicRefCount" }
%"class.base::AtomicRefCount" = type { %"struct.std::__1::atomic" }
%"struct.std::__1::atomic" = type { %"struct.std::__1::__atomic_base" }
%"struct.std::__1::__atomic_base" = type { %"struct.std::__1::__atomic_base.0" }
%"struct.std::__1::__atomic_base.0" = type { %"struct.std::__1::__cxx_atomic_impl" }
%"struct.std::__1::__cxx_atomic_impl" = type { %"struct.std::__1::__cxx_atomic_base_impl" }
%"struct.std::__1::__cxx_atomic_base_impl" = type { i32 }
%class.scoped_refptr.1 = type { %"class.base::TaskRunner"* }
%"class.base::TaskRunner" = type <{ i32 (...)**, %"class.base::RefCountedThreadSafe.2", [4 x i8] }>
%"class.base::RefCountedThreadSafe.2" = type { %"class.base::subtle::RefCountedThreadSafeBase" }
%"class.content::HistogramController" = type { i32 (...)**, %"class.content::HistogramSubscriber"*, %"class.std::__1::map", %"class.std::__1::map.7" }
%"class.std::__1::map" = type { %"class.std::__1::__tree" }
%"class.std::__1::__tree" = type { %"class.std::__1::__tree_end_node"*, %"class.std::__1::__compressed_pair", %"class.std::__1::__compressed_pair.4" }
%"class.std::__1::__tree_end_node" = type { %"class.std::__1::__tree_node_base"* }
%"class.std::__1::__tree_node_base" = type <{ %"class.std::__1::__tree_end_node", %"class.std::__1::__tree_node_base"*, %"class.std::__1::__tree_end_node"*, i8, [7 x i8] }>
%"class.std::__1::__compressed_pair" = type { %"struct.std::__1::__compressed_pair_elem" }
%"struct.std::__1::__compressed_pair_elem" = type { %"class.std::__1::__tree_end_node" }
%"class.std::__1::__compressed_pair.4" = type { %"struct.std::__1::__compressed_pair_elem.5" }
%"struct.std::__1::__compressed_pair_elem.5" = type { i64 }
%"class.std::__1::map.7" = type { %"class.std::__1::__tree.8" }
%"class.std::__1::__tree.8" = type { %"class.std::__1::__tree_end_node"*, %"class.std::__1::__compressed_pair.9", %"class.std::__1::__compressed_pair.13" }
%"class.std::__1::__compressed_pair.9" = type { %"struct.std::__1::__compressed_pair_elem" }
%"class.std::__1::__compressed_pair.13" = type { %"struct.std::__1::__compressed_pair_elem.5" }
%"class.std::__1::map.19" = type { %"class.std::__1::__tree.20" }
%"class.std::__1::__tree.20" = type { %"class.std::__1::__tree_end_node"*, %"class.std::__1::__compressed_pair.21", %"class.std::__1::__compressed_pair.25" }
%"class.std::__1::__compressed_pair.21" = type { %"struct.std::__1::__compressed_pair_elem" }
%"class.std::__1::__compressed_pair.25" = type { %"struct.std::__1::__compressed_pair_elem.5" }
%"class.content::HistogramSynchronizer::RequestContext" = type <{ %"class.base::OnceCallback", i32, i8, [3 x i8], i32, [4 x i8] }>
%"class.base::Location" = type { i8*, i8*, i32, i8* }
%"class.base::SingleThreadTaskRunner" = type { %"class.base::SequencedTaskRunner.base", [4 x i8] }
%"class.base::SequencedTaskRunner.base" = type { %"class.base::TaskRunner.base" }
%"class.base::TaskRunner.base" = type <{ i32 (...)**, %"class.base::RefCountedThreadSafe.2" }>
%"class.content::BrowserTaskTraits" = type { %"class.base::TaskTraits" }
%"class.base::TaskTraits" = type { %"struct.base::TaskTraitsExtensionStorage", i8, i8, i8, i8, i8, i8 }
%"class.std::__1::__tree_node" = type { %"class.std::__1::__tree_node_base.base", %"struct.std::__1::__value_type" }
%"class.std::__1::__tree_node_base.base" = type <{ %"class.std::__1::__tree_end_node", %"class.std::__1::__tree_node_base"*, %"class.std::__1::__tree_end_node"*, i8 }>
%"struct.std::__1::__value_type" = type { %"struct.std::__1::pair" }
%"struct.std::__1::pair" = type { i32, %"class.content::HistogramSynchronizer::RequestContext"* }
%"class.base::HistogramBase" = type <{ i32 (...)**, i8*, %"struct.std::__1::atomic.47", [4 x i8] }>
%"struct.std::__1::atomic.47" = type { %"struct.std::__1::__atomic_base.48" }
%"struct.std::__1::__atomic_base.48" = type { %"struct.std::__1::__atomic_base.49" }
%"struct.std::__1::__atomic_base.49" = type { %"struct.std::__1::__cxx_atomic_impl.50" }
%"struct.std::__1::__cxx_atomic_impl.50" = type { %"struct.std::__1::__cxx_atomic_base_impl.51" }
%"struct.std::__1::__cxx_atomic_base_impl.51" = type { i32 }
%"class.std::__1::vector" = type opaque

$_ZN7content21HistogramSynchronizer14RequestContext10OnShutdownEv = comdat any

$_ZN4base9SingletonIN7content21HistogramSynchronizerENS_20LeakySingletonTraitsIS2_EES2_E3getEv = comdat any

$_ZN7content21HistogramSynchronizer14RequestContext8RegisterEN4base12OnceCallbackIFvvEEEi = comdat any

$_ZN7content21HistogramSynchronizer14RequestContext10UnregisterEi = comdat any

$_ZN7content21HistogramSynchronizer14RequestContext17GetRequestContextEi = comdat any

$_ZNSt3__113__tree_removeIPNS_16__tree_node_baseIPvEEEEvT_S5_ = comdat any

$_ZNSt3__127__tree_balance_after_insertIPNS_16__tree_node_baseIPvEEEEvT_S5_ = comdat any

$_ZN4base8internal7InvokerINS0_9BindStateIPFvvEJEEES3_E7RunOnceEPNS0_13BindStateBaseE = comdat any

$_ZN4base8internal9BindStateIPFvvEJEE7DestroyEPKNS0_13BindStateBaseE = comdat any

$_ZN4base8internal7InvokerINS0_9BindStateIMN7content21HistogramSynchronizerEFviEJNS0_17UnretainedWrapperIS4_EEiEEEFvvEE7RunOnceEPNS0_13BindStateBaseE = comdat any

$_ZN4base8internal9BindStateIMN7content21HistogramSynchronizerEFviEJNS0_17UnretainedWrapperIS3_EEiEE7DestroyEPKNS0_13BindStateBaseE = comdat any

$_ZN4base8internal7InvokerINS0_9BindStateIPFviEJiEEEFvvEE7RunOnceEPNS0_13BindStateBaseE = comdat any

$_ZN4base8internal9BindStateIPFviEJiEE7DestroyEPKNS0_13BindStateBaseE = comdat any

$_ZZN7content21HistogramSynchronizer14RequestContext10UnregisterEiE24atomic_histogram_pointer = comdat any

$_ZZN7content21HistogramSynchronizer14RequestContext10UnregisterEiE24atomic_histogram_pointer_0 = comdat any

$_ZN4base9SingletonIN7content21HistogramSynchronizerENS_20LeakySingletonTraitsIS2_EES2_E9instance_E = comdat any

@_ZN7content21HistogramSynchronizer14RequestContext21outstanding_requests_E = hidden global %"class.base::LazyInstance" zeroinitializer, align 8
@_ZTVN7content21HistogramSynchronizerE = hidden unnamed_addr constant { [6 x i8*] } { [6 x i8*] [i8* null, i8* null, i8* bitcast (void (%"class.content::HistogramSynchronizer"*)* @_ZN7content21HistogramSynchronizerD2Ev to i8*), i8* bitcast (void (%"class.content::HistogramSynchronizer"*)* @_ZN7content21HistogramSynchronizerD0Ev to i8*), i8* bitcast (void (%"class.content::HistogramSynchronizer"*, i32, i32, i1)* @_ZN7content21HistogramSynchronizer18OnPendingProcessesEiib to i8*), i8* bitcast (void (%"class.content::HistogramSynchronizer"*, i32, %"class.std::__1::vector"*)* @_ZN7content21HistogramSynchronizer24OnHistogramDataCollectedEiRKNSt3__16vectorINS1_12basic_stringIcNS1_11char_traitsIcEENS1_9allocatorIcEEEENS6_IS8_EEEE to i8*)] }, align 8
@.ref.tmp = private constant { %"struct.base::TaskTraitsExtensionStorage", i8, i8, i8, i8, i8, i8 } { %"struct.base::TaskTraitsExtensionStorage" zeroinitializer, i8 2, i8 1, i8 0, i8 0, i8 0, i8 0 }, align 1
@.str = private unnamed_addr constant [16 x i8] c"FetchHistograms\00", align 1
@.str.1 = private unnamed_addr constant [56 x i8] c"../../content/browser/metrics/histogram_synchronizer.cc\00", align 1
@.ref.tmp.2 = private constant { %"struct.base::TaskTraitsExtensionStorage", i8, i8, i8, i8, i8, i8 } { %"struct.base::TaskTraitsExtensionStorage" zeroinitializer, i8 2, i8 1, i8 0, i8 0, i8 0, i8 0 }, align 1
@.str.3 = private unnamed_addr constant [30 x i8] c"RegisterAndNotifyAllProcesses\00", align 1
@.str.4 = private unnamed_addr constant [17 x i8] c"InternalPostTask\00", align 1
@_ZN7content44kHistogramSynchronizerReservedSequenceNumberE = external local_unnamed_addr constant i32, align 4
@_ZZN7content21HistogramSynchronizer14RequestContext10UnregisterEiE24atomic_histogram_pointer = linkonce_odr hidden local_unnamed_addr global %"struct.std::__1::atomic.42" zeroinitializer, comdat, align 8
@.str.6 = private unnamed_addr constant [36 x i8] c"Histogram.ReceivedProcessGroupCount\00", align 1
@_ZZN7content21HistogramSynchronizer14RequestContext10UnregisterEiE24atomic_histogram_pointer_0 = linkonce_odr hidden local_unnamed_addr global %"struct.std::__1::atomic.42" zeroinitializer, comdat, align 8
@.str.7 = private unnamed_addr constant [38 x i8] c"Histogram.PendingProcessNotResponding\00", align 1
@_ZN4base9SingletonIN7content21HistogramSynchronizerENS_20LeakySingletonTraitsIS2_EES2_E9instance_E = linkonce_odr hidden global i64 0, comdat, align 8

@_ZN7content21HistogramSynchronizerC1Ev = hidden unnamed_addr alias void (%"class.content::HistogramSynchronizer"*), void (%"class.content::HistogramSynchronizer"*)* @_ZN7content21HistogramSynchronizerC2Ev
@_ZN7content21HistogramSynchronizerD1Ev = hidden unnamed_addr alias void (%"class.content::HistogramSynchronizer"*), void (%"class.content::HistogramSynchronizer"*)* @_ZN7content21HistogramSynchronizerD2Ev

; Function Attrs: nounwind ssp uwtable
define hidden void @_ZN7content21HistogramSynchronizerC2Ev(%"class.content::HistogramSynchronizer"*) unnamed_addr #0 align 2 {
  %2 = getelementptr inbounds %"class.content::HistogramSynchronizer", %"class.content::HistogramSynchronizer"* %0, i64 0, i32 0
  %3 = getelementptr inbounds %"class.content::HistogramSynchronizer", %"class.content::HistogramSynchronizer"* %0, i64 0, i32 0, i32 0
  store i32 (...)** bitcast (i8** getelementptr inbounds ({ [6 x i8*] }, { [6 x i8*] }* @_ZTVN7content21HistogramSynchronizerE, i64 0, inrange i32 0, i64 2) to i32 (...)**), i32 (...)*** %3, align 8
  %4 = getelementptr inbounds %"class.content::HistogramSynchronizer", %"class.content::HistogramSynchronizer"* %0, i64 0, i32 1, i32 0
  tail call void @_ZN4base8internal8LockImplC1Ev(%"class.base::internal::LockImpl"* %4) #6
  %5 = getelementptr inbounds %"class.content::HistogramSynchronizer", %"class.content::HistogramSynchronizer"* %0, i64 0, i32 2, i32 0, i32 0, i32 0
  %6 = getelementptr inbounds %"class.content::HistogramSynchronizer", %"class.content::HistogramSynchronizer"* %0, i64 0, i32 4
  %7 = bitcast %"class.base::internal::BindStateBase"** %5 to i8*
  call void @llvm.memset.p0i8.i64(i8* align 8 %7, i8 0, i64 16, i1 false)
  store i32 -2, i32* %6, align 8
  %8 = getelementptr inbounds %"class.content::HistogramSynchronizer", %"class.content::HistogramSynchronizer"* %0, i64 0, i32 5
  store i32 -2, i32* %8, align 4
  %9 = tail call %"class.content::HistogramController"* @_ZN7content19HistogramController11GetInstanceEv() #6
  tail call void @_ZN7content19HistogramController8RegisterEPNS_19HistogramSubscriberE(%"class.content::HistogramController"* %9, %"class.content::HistogramSubscriber"* %2) #6
  ret void
}

declare %"class.content::HistogramController"* @_ZN7content19HistogramController11GetInstanceEv() local_unnamed_addr #1

declare void @_ZN7content19HistogramController8RegisterEPNS_19HistogramSubscriberE(%"class.content::HistogramController"*, %"class.content::HistogramSubscriber"*) local_unnamed_addr #1

; Function Attrs: nounwind ssp uwtable
define hidden void @_ZN7content21HistogramSynchronizerD2Ev(%"class.content::HistogramSynchronizer"*) unnamed_addr #0 align 2 {
  %2 = alloca %"class.base::OnceCallback", align 8
  %3 = getelementptr inbounds %"class.content::HistogramSynchronizer", %"class.content::HistogramSynchronizer"* %0, i64 0, i32 0, i32 0
  store i32 (...)** bitcast (i8** getelementptr inbounds ({ [6 x i8*] }, { [6 x i8*] }* @_ZTVN7content21HistogramSynchronizerE, i64 0, inrange i32 0, i64 2) to i32 (...)**), i32 (...)*** %3, align 8
  tail call void @_ZN7content21HistogramSynchronizer14RequestContext10OnShutdownEv()
  %4 = getelementptr inbounds %"class.base::OnceCallback", %"class.base::OnceCallback"* %2, i64 0, i32 0, i32 0, i32 0
  store %"class.base::internal::BindStateBase"* null, %"class.base::internal::BindStateBase"** %4, align 8, !alias.scope !2
  call void @_ZN7content21HistogramSynchronizer24SetTaskRunnerAndCallbackE13scoped_refptrIN4base10TaskRunnerEENS2_12OnceCallbackIFvvEEE(%"class.content::HistogramSynchronizer"* %0, %"class.base::TaskRunner"* null, %"class.base::OnceCallback"* nonnull %2)
  %5 = getelementptr inbounds %"class.base::OnceCallback", %"class.base::OnceCallback"* %2, i64 0, i32 0
  call void @_ZN4base8internal12CallbackBaseD2Ev(%"class.base::internal::CallbackBase"* nonnull %5) #6
  %6 = getelementptr inbounds %"class.content::HistogramSynchronizer", %"class.content::HistogramSynchronizer"* %0, i64 0, i32 3, i32 0
  %7 = load %"class.base::TaskRunner"*, %"class.base::TaskRunner"** %6, align 8
  %8 = icmp eq %"class.base::TaskRunner"* %7, null
  br i1 %8, label %17, label %9

9:                                                ; preds = %1
  %10 = getelementptr inbounds %"class.base::TaskRunner", %"class.base::TaskRunner"* %7, i64 0, i32 1
  %11 = getelementptr inbounds %"class.base::RefCountedThreadSafe.2", %"class.base::RefCountedThreadSafe.2"* %10, i64 0, i32 0, i32 0, i32 0, i32 0, i32 0, i32 0, i32 0, i32 0
  %12 = atomicrmw sub i32* %11, i32 1 acq_rel
  %13 = icmp eq i32 %12, 1
  br i1 %13, label %14, label %17

14:                                               ; preds = %9
  %15 = getelementptr inbounds %"class.base::RefCountedThreadSafe.2", %"class.base::RefCountedThreadSafe.2"* %10, i64 -2
  %16 = bitcast %"class.base::RefCountedThreadSafe.2"* %15 to %"class.base::TaskRunner"*
  call void @_ZN4base16TaskRunnerTraits8DestructEPKNS_10TaskRunnerE(%"class.base::TaskRunner"* %16) #6
  br label %17

17:                                               ; preds = %1, %9, %14
  %18 = getelementptr inbounds %"class.content::HistogramSynchronizer", %"class.content::HistogramSynchronizer"* %0, i64 0, i32 2, i32 0
  call void @_ZN4base8internal12CallbackBaseD2Ev(%"class.base::internal::CallbackBase"* %18) #6
  %19 = getelementptr inbounds %"class.content::HistogramSynchronizer", %"class.content::HistogramSynchronizer"* %0, i64 0, i32 1, i32 0
  call void @_ZN4base8internal8LockImplD1Ev(%"class.base::internal::LockImpl"* %19) #6
  ret void
}

; Function Attrs: nounwind ssp uwtable
define linkonce_odr hidden void @_ZN7content21HistogramSynchronizer14RequestContext10OnShutdownEv() local_unnamed_addr #0 comdat align 2 {
  br label %1

1:                                                ; preds = %81, %0
  %2 = load atomic i64, i64* getelementptr inbounds (%"class.base::LazyInstance", %"class.base::LazyInstance"* @_ZN7content21HistogramSynchronizer14RequestContext21outstanding_requests_E, i64 0, i32 0) acquire, align 8
  %3 = icmp ugt i64 %2, 1
  br i1 %3, label %9, label %4

4:                                                ; preds = %1
  %5 = tail call zeroext i1 @_ZN4base8internal17NeedsLazyInstanceEPl(i64* getelementptr inbounds (%"class.base::LazyInstance", %"class.base::LazyInstance"* @_ZN7content21HistogramSynchronizer14RequestContext21outstanding_requests_E, i64 0, i32 0)) #6
  br i1 %5, label %6, label %7

6:                                                ; preds = %4
  tail call void @llvm.memset.p0i8.i64(i8* align 8 getelementptr inbounds (%"class.base::LazyInstance", %"class.base::LazyInstance"* @_ZN7content21HistogramSynchronizer14RequestContext21outstanding_requests_E, i64 0, i32 1, i64 8), i8 0, i64 16, i1 false) #6
  store i8* getelementptr inbounds (%"class.base::LazyInstance", %"class.base::LazyInstance"* @_ZN7content21HistogramSynchronizer14RequestContext21outstanding_requests_E, i64 0, i32 1, i64 8), i8** bitcast (i8* getelementptr inbounds (%"class.base::LazyInstance", %"class.base::LazyInstance"* @_ZN7content21HistogramSynchronizer14RequestContext21outstanding_requests_E, i64 0, i32 1, i64 0) to i8**), align 8
  tail call void @_ZN4base8internal20CompleteLazyInstanceEPllPFvPvES2_(i64* getelementptr inbounds (%"class.base::LazyInstance", %"class.base::LazyInstance"* @_ZN7content21HistogramSynchronizer14RequestContext21outstanding_requests_E, i64 0, i32 0), i64 ptrtoint (i8* getelementptr inbounds (%"class.base::LazyInstance", %"class.base::LazyInstance"* @_ZN7content21HistogramSynchronizer14RequestContext21outstanding_requests_E, i64 0, i32 1, i64 0) to i64), void (i8*)* null, i8* bitcast (%"class.base::LazyInstance"* @_ZN7content21HistogramSynchronizer14RequestContext21outstanding_requests_E to i8*)) #6
  br label %9

7:                                                ; preds = %4
  %8 = load atomic i64, i64* getelementptr inbounds (%"class.base::LazyInstance", %"class.base::LazyInstance"* @_ZN7content21HistogramSynchronizer14RequestContext21outstanding_requests_E, i64 0, i32 0) acquire, align 8
  br label %9

9:                                                ; preds = %1, %6, %7
  %10 = phi i64 [ %2, %1 ], [ ptrtoint (i8* getelementptr inbounds (%"class.base::LazyInstance", %"class.base::LazyInstance"* @_ZN7content21HistogramSynchronizer14RequestContext21outstanding_requests_E, i64 0, i32 1, i64 0) to i64), %6 ], [ %8, %7 ]
  %11 = inttoptr i64 %10 to %"class.std::__1::map.19"*
  %12 = getelementptr inbounds %"class.std::__1::map.19", %"class.std::__1::map.19"* %11, i64 0, i32 0, i32 2, i32 0, i32 0
  %13 = load i64, i64* %12, align 8
  %14 = icmp eq i64 %13, 0
  br i1 %14, label %89, label %15

15:                                               ; preds = %9
  %16 = load atomic i64, i64* getelementptr inbounds (%"class.base::LazyInstance", %"class.base::LazyInstance"* @_ZN7content21HistogramSynchronizer14RequestContext21outstanding_requests_E, i64 0, i32 0) acquire, align 8
  %17 = icmp ugt i64 %16, 1
  br i1 %17, label %23, label %18

18:                                               ; preds = %15
  %19 = tail call zeroext i1 @_ZN4base8internal17NeedsLazyInstanceEPl(i64* getelementptr inbounds (%"class.base::LazyInstance", %"class.base::LazyInstance"* @_ZN7content21HistogramSynchronizer14RequestContext21outstanding_requests_E, i64 0, i32 0)) #6
  br i1 %19, label %20, label %21

20:                                               ; preds = %18
  tail call void @llvm.memset.p0i8.i64(i8* align 8 getelementptr inbounds (%"class.base::LazyInstance", %"class.base::LazyInstance"* @_ZN7content21HistogramSynchronizer14RequestContext21outstanding_requests_E, i64 0, i32 1, i64 8), i8 0, i64 16, i1 false) #6
  store i8* getelementptr inbounds (%"class.base::LazyInstance", %"class.base::LazyInstance"* @_ZN7content21HistogramSynchronizer14RequestContext21outstanding_requests_E, i64 0, i32 1, i64 8), i8** bitcast (i8* getelementptr inbounds (%"class.base::LazyInstance", %"class.base::LazyInstance"* @_ZN7content21HistogramSynchronizer14RequestContext21outstanding_requests_E, i64 0, i32 1, i64 0) to i8**), align 8
  tail call void @_ZN4base8internal20CompleteLazyInstanceEPllPFvPvES2_(i64* getelementptr inbounds (%"class.base::LazyInstance", %"class.base::LazyInstance"* @_ZN7content21HistogramSynchronizer14RequestContext21outstanding_requests_E, i64 0, i32 0), i64 ptrtoint (i8* getelementptr inbounds (%"class.base::LazyInstance", %"class.base::LazyInstance"* @_ZN7content21HistogramSynchronizer14RequestContext21outstanding_requests_E, i64 0, i32 1, i64 0) to i64), void (i8*)* null, i8* bitcast (%"class.base::LazyInstance"* @_ZN7content21HistogramSynchronizer14RequestContext21outstanding_requests_E to i8*)) #6
  br label %23

21:                                               ; preds = %18
  %22 = load atomic i64, i64* getelementptr inbounds (%"class.base::LazyInstance", %"class.base::LazyInstance"* @_ZN7content21HistogramSynchronizer14RequestContext21outstanding_requests_E, i64 0, i32 0) acquire, align 8
  br label %23

23:                                               ; preds = %15, %20, %21
  %24 = phi i64 [ %16, %15 ], [ ptrtoint (i8* getelementptr inbounds (%"class.base::LazyInstance", %"class.base::LazyInstance"* @_ZN7content21HistogramSynchronizer14RequestContext21outstanding_requests_E, i64 0, i32 1, i64 0) to i64), %20 ], [ %22, %21 ]
  %25 = inttoptr i64 %24 to %"class.std::__1::map.19"*
  %26 = getelementptr inbounds %"class.std::__1::map.19", %"class.std::__1::map.19"* %25, i64 0, i32 0, i32 0
  %27 = load %"class.std::__1::__tree_end_node"*, %"class.std::__1::__tree_end_node"** %26, align 8
  %28 = getelementptr inbounds %"class.std::__1::__tree_end_node", %"class.std::__1::__tree_end_node"* %27, i64 5
  %29 = bitcast %"class.std::__1::__tree_end_node"* %28 to %"class.content::HistogramSynchronizer::RequestContext"**
  %30 = load %"class.content::HistogramSynchronizer::RequestContext"*, %"class.content::HistogramSynchronizer::RequestContext"** %29, align 8
  %31 = icmp eq %"class.content::HistogramSynchronizer::RequestContext"* %30, null
  br i1 %31, label %35, label %32

32:                                               ; preds = %23
  %33 = getelementptr inbounds %"class.content::HistogramSynchronizer::RequestContext", %"class.content::HistogramSynchronizer::RequestContext"* %30, i64 0, i32 0, i32 0
  tail call void @_ZN4base8internal12CallbackBaseD2Ev(%"class.base::internal::CallbackBase"* %33) #6
  %34 = bitcast %"class.content::HistogramSynchronizer::RequestContext"* %30 to i8*
  tail call void @_ZdlPv(i8* %34) #7
  br label %35

35:                                               ; preds = %32, %23
  %36 = load atomic i64, i64* getelementptr inbounds (%"class.base::LazyInstance", %"class.base::LazyInstance"* @_ZN7content21HistogramSynchronizer14RequestContext21outstanding_requests_E, i64 0, i32 0) acquire, align 8
  %37 = icmp ugt i64 %36, 1
  br i1 %37, label %43, label %38

38:                                               ; preds = %35
  %39 = tail call zeroext i1 @_ZN4base8internal17NeedsLazyInstanceEPl(i64* getelementptr inbounds (%"class.base::LazyInstance", %"class.base::LazyInstance"* @_ZN7content21HistogramSynchronizer14RequestContext21outstanding_requests_E, i64 0, i32 0)) #6
  br i1 %39, label %40, label %41

40:                                               ; preds = %38
  tail call void @llvm.memset.p0i8.i64(i8* align 8 getelementptr inbounds (%"class.base::LazyInstance", %"class.base::LazyInstance"* @_ZN7content21HistogramSynchronizer14RequestContext21outstanding_requests_E, i64 0, i32 1, i64 8), i8 0, i64 16, i1 false) #6
  store i8* getelementptr inbounds (%"class.base::LazyInstance", %"class.base::LazyInstance"* @_ZN7content21HistogramSynchronizer14RequestContext21outstanding_requests_E, i64 0, i32 1, i64 8), i8** bitcast (i8* getelementptr inbounds (%"class.base::LazyInstance", %"class.base::LazyInstance"* @_ZN7content21HistogramSynchronizer14RequestContext21outstanding_requests_E, i64 0, i32 1, i64 0) to i8**), align 8
  tail call void @_ZN4base8internal20CompleteLazyInstanceEPllPFvPvES2_(i64* getelementptr inbounds (%"class.base::LazyInstance", %"class.base::LazyInstance"* @_ZN7content21HistogramSynchronizer14RequestContext21outstanding_requests_E, i64 0, i32 0), i64 ptrtoint (i8* getelementptr inbounds (%"class.base::LazyInstance", %"class.base::LazyInstance"* @_ZN7content21HistogramSynchronizer14RequestContext21outstanding_requests_E, i64 0, i32 1, i64 0) to i64), void (i8*)* null, i8* bitcast (%"class.base::LazyInstance"* @_ZN7content21HistogramSynchronizer14RequestContext21outstanding_requests_E to i8*)) #6
  br label %43

41:                                               ; preds = %38
  %42 = load atomic i64, i64* getelementptr inbounds (%"class.base::LazyInstance", %"class.base::LazyInstance"* @_ZN7content21HistogramSynchronizer14RequestContext21outstanding_requests_E, i64 0, i32 0) acquire, align 8
  br label %43

43:                                               ; preds = %35, %40, %41
  %44 = phi i64 [ %36, %35 ], [ ptrtoint (i8* getelementptr inbounds (%"class.base::LazyInstance", %"class.base::LazyInstance"* @_ZN7content21HistogramSynchronizer14RequestContext21outstanding_requests_E, i64 0, i32 1, i64 0) to i64), %40 ], [ %42, %41 ]
  %45 = inttoptr i64 %44 to %"class.std::__1::map.19"*
  %46 = getelementptr inbounds %"class.std::__1::__tree_end_node", %"class.std::__1::__tree_end_node"* %27, i64 1, i32 0
  %47 = load %"class.std::__1::__tree_node_base"*, %"class.std::__1::__tree_node_base"** %46, align 8
  %48 = icmp eq %"class.std::__1::__tree_node_base"* %47, null
  br i1 %48, label %49, label %57

49:                                               ; preds = %43
  %50 = bitcast %"class.std::__1::__tree_end_node"* %27 to %"class.std::__1::__tree_node_base"*
  %51 = getelementptr inbounds %"class.std::__1::__tree_end_node", %"class.std::__1::__tree_end_node"* %27, i64 2
  %52 = bitcast %"class.std::__1::__tree_end_node"* %51 to %"class.std::__1::__tree_end_node"**
  %53 = load %"class.std::__1::__tree_end_node"*, %"class.std::__1::__tree_end_node"** %52, align 8
  %54 = getelementptr inbounds %"class.std::__1::__tree_end_node", %"class.std::__1::__tree_end_node"* %53, i64 0, i32 0
  %55 = load %"class.std::__1::__tree_node_base"*, %"class.std::__1::__tree_node_base"** %54, align 8
  %56 = icmp eq %"class.std::__1::__tree_node_base"* %55, %50
  br i1 %56, label %73, label %64

57:                                               ; preds = %43, %57
  %58 = phi %"class.std::__1::__tree_node_base"* [ %60, %57 ], [ %47, %43 ]
  %59 = getelementptr inbounds %"class.std::__1::__tree_node_base", %"class.std::__1::__tree_node_base"* %58, i64 0, i32 0, i32 0
  %60 = load %"class.std::__1::__tree_node_base"*, %"class.std::__1::__tree_node_base"** %59, align 8
  %61 = icmp eq %"class.std::__1::__tree_node_base"* %60, null
  br i1 %61, label %62, label %57

62:                                               ; preds = %57
  %63 = getelementptr inbounds %"class.std::__1::__tree_node_base", %"class.std::__1::__tree_node_base"* %58, i64 0, i32 0
  br label %73

64:                                               ; preds = %49, %64
  %65 = phi %"class.std::__1::__tree_end_node"** [ %68, %64 ], [ %52, %49 ]
  %66 = bitcast %"class.std::__1::__tree_end_node"** %65 to %"class.std::__1::__tree_node_base"**
  %67 = load %"class.std::__1::__tree_node_base"*, %"class.std::__1::__tree_node_base"** %66, align 8
  %68 = getelementptr inbounds %"class.std::__1::__tree_node_base", %"class.std::__1::__tree_node_base"* %67, i64 0, i32 2
  %69 = load %"class.std::__1::__tree_end_node"*, %"class.std::__1::__tree_end_node"** %68, align 8
  %70 = getelementptr inbounds %"class.std::__1::__tree_end_node", %"class.std::__1::__tree_end_node"* %69, i64 0, i32 0
  %71 = load %"class.std::__1::__tree_node_base"*, %"class.std::__1::__tree_node_base"** %70, align 8
  %72 = icmp eq %"class.std::__1::__tree_node_base"* %71, %67
  br i1 %72, label %73, label %64

73:                                               ; preds = %64, %62, %49
  %74 = phi %"class.std::__1::__tree_end_node"* [ %63, %62 ], [ %53, %49 ], [ %69, %64 ]
  %75 = getelementptr inbounds %"class.std::__1::map.19", %"class.std::__1::map.19"* %45, i64 0, i32 0, i32 0
  %76 = load %"class.std::__1::__tree_end_node"*, %"class.std::__1::__tree_end_node"** %75, align 8
  %77 = icmp eq %"class.std::__1::__tree_end_node"* %76, %27
  br i1 %77, label %78, label %81

78:                                               ; preds = %73
  %79 = ptrtoint %"class.std::__1::__tree_end_node"* %74 to i64
  %80 = inttoptr i64 %44 to i64*
  store i64 %79, i64* %80, align 8
  br label %81

81:                                               ; preds = %73, %78
  %82 = getelementptr inbounds %"class.std::__1::map.19", %"class.std::__1::map.19"* %45, i64 0, i32 0, i32 2, i32 0, i32 0
  %83 = load i64, i64* %82, align 8
  %84 = add i64 %83, -1
  store i64 %84, i64* %82, align 8
  %85 = getelementptr inbounds %"class.std::__1::map.19", %"class.std::__1::map.19"* %45, i64 0, i32 0, i32 1, i32 0, i32 0, i32 0
  %86 = load %"class.std::__1::__tree_node_base"*, %"class.std::__1::__tree_node_base"** %85, align 8
  %87 = bitcast %"class.std::__1::__tree_end_node"* %27 to %"class.std::__1::__tree_node_base"*
  tail call void @_ZNSt3__113__tree_removeIPNS_16__tree_node_baseIPvEEEEvT_S5_(%"class.std::__1::__tree_node_base"* %86, %"class.std::__1::__tree_node_base"* %87) #6
  %88 = bitcast %"class.std::__1::__tree_end_node"* %27 to i8*
  tail call void @_ZdlPv(i8* %88) #7
  br label %1

89:                                               ; preds = %9
  ret void
}

; Function Attrs: nounwind ssp uwtable
define hidden void @_ZN7content21HistogramSynchronizer24SetTaskRunnerAndCallbackE13scoped_refptrIN4base10TaskRunnerEENS2_12OnceCallbackIFvvEEE(%"class.content::HistogramSynchronizer"*, %"class.base::TaskRunner"*, %"class.base::OnceCallback"*) local_unnamed_addr #0 align 2 {
  %4 = alloca %"class.base::Location", align 8
  %5 = alloca %"class.base::OnceCallback", align 8
  %6 = alloca %"class.base::OnceCallback", align 8
  %7 = alloca %"class.base::OnceCallback", align 8
  %8 = ptrtoint %"class.base::TaskRunner"* %1 to i64
  %9 = bitcast %"class.base::OnceCallback"* %6 to i8*
  call void @llvm.lifetime.start.p0i8(i64 8, i8* nonnull %9) #6
  %10 = getelementptr inbounds %"class.base::OnceCallback", %"class.base::OnceCallback"* %6, i64 0, i32 0, i32 0, i32 0
  store %"class.base::internal::BindStateBase"* null, %"class.base::internal::BindStateBase"** %10, align 8
  %11 = getelementptr inbounds %"class.content::HistogramSynchronizer", %"class.content::HistogramSynchronizer"* %0, i64 0, i32 1
  %12 = getelementptr inbounds %"class.base::Lock", %"class.base::Lock"* %11, i64 0, i32 0, i32 0
  %13 = tail call i32 @pthread_mutex_trylock(%union.pthread_mutex_t* %12) #6
  %14 = icmp eq i32 %13, 0
  br i1 %14, label %17, label %15, !prof !5

15:                                               ; preds = %3
  %16 = getelementptr inbounds %"class.base::Lock", %"class.base::Lock"* %11, i64 0, i32 0
  tail call void @_ZN4base8internal8LockImpl24LockInternalWithTrackingEv(%"class.base::internal::LockImpl"* %16) #6
  br label %17

17:                                               ; preds = %15, %3
  %18 = getelementptr inbounds %"class.base::OnceCallback", %"class.base::OnceCallback"* %6, i64 0, i32 0
  %19 = getelementptr inbounds %"class.content::HistogramSynchronizer", %"class.content::HistogramSynchronizer"* %0, i64 0, i32 2, i32 0
  %20 = call dereferenceable(8) %"class.base::internal::CallbackBase"* @_ZN4base8internal12CallbackBaseaSEOS1_(%"class.base::internal::CallbackBase"* nonnull %18, %"class.base::internal::CallbackBase"* dereferenceable(8) %19) #6
  %21 = getelementptr inbounds %"class.base::OnceCallback", %"class.base::OnceCallback"* %2, i64 0, i32 0
  %22 = call dereferenceable(8) %"class.base::internal::CallbackBase"* @_ZN4base8internal12CallbackBaseaSEOS1_(%"class.base::internal::CallbackBase"* %19, %"class.base::internal::CallbackBase"* dereferenceable(8) %21) #6
  %23 = getelementptr inbounds %"class.content::HistogramSynchronizer", %"class.content::HistogramSynchronizer"* %0, i64 0, i32 3
  %24 = getelementptr inbounds %class.scoped_refptr.1, %class.scoped_refptr.1* %23, i64 0, i32 0
  %25 = bitcast %class.scoped_refptr.1* %23 to i64*
  %26 = load %"class.base::TaskRunner"*, %"class.base::TaskRunner"** %24, align 8
  store i64 %8, i64* %25, align 8
  %27 = getelementptr inbounds %"class.content::HistogramSynchronizer", %"class.content::HistogramSynchronizer"* %0, i64 0, i32 5
  store i32 -2, i32* %27, align 4
  %28 = call i32 @pthread_mutex_unlock(%union.pthread_mutex_t* %12) #6
  %29 = bitcast %"class.base::OnceCallback"* %6 to i64*
  %30 = load i64, i64* %29, align 8
  %31 = bitcast %"class.base::OnceCallback"* %7 to i64*
  store i64 %30, i64* %31, align 8
  store %"class.base::internal::BindStateBase"* null, %"class.base::internal::BindStateBase"** %10, align 8
  %32 = bitcast %"class.base::OnceCallback"* %5 to i8*
  call void @llvm.lifetime.start.p0i8(i64 8, i8* nonnull %32)
  %33 = getelementptr inbounds %"class.base::OnceCallback", %"class.base::OnceCallback"* %7, i64 0, i32 0, i32 0, i32 0
  %34 = icmp eq i64 %30, 0
  %35 = icmp eq %"class.base::TaskRunner"* %26, null
  br i1 %34, label %43, label %36

36:                                               ; preds = %17
  br i1 %35, label %52, label %37

37:                                               ; preds = %36
  %38 = bitcast %"class.base::Location"* %4 to i8*
  call void @llvm.lifetime.start.p0i8(i64 32, i8* nonnull %38) #6
  call void @_ZN4base8Location7CurrentEPKcS2_i(%"class.base::Location"* nonnull sret %4, i8* getelementptr inbounds ([17 x i8], [17 x i8]* @.str.4, i64 0, i64 0), i8* getelementptr inbounds ([56 x i8], [56 x i8]* @.str.1, i64 0, i64 0), i32 321) #6
  %39 = load i64, i64* %31, align 8
  %40 = bitcast %"class.base::OnceCallback"* %5 to i64*
  store i64 %39, i64* %40, align 8
  store %"class.base::internal::BindStateBase"* null, %"class.base::internal::BindStateBase"** %33, align 8
  %41 = call zeroext i1 @_ZN4base10TaskRunner8PostTaskERKNS_8LocationENS_12OnceCallbackIFvvEEE(%"class.base::TaskRunner"* nonnull %26, %"class.base::Location"* nonnull dereferenceable(32) %4, %"class.base::OnceCallback"* nonnull %5) #6
  %42 = getelementptr inbounds %"class.base::OnceCallback", %"class.base::OnceCallback"* %5, i64 0, i32 0
  call void @_ZN4base8internal12CallbackBaseD2Ev(%"class.base::internal::CallbackBase"* nonnull %42) #6
  call void @llvm.lifetime.end.p0i8(i64 32, i8* nonnull %38) #6
  br label %44

43:                                               ; preds = %17
  br i1 %35, label %52, label %44

44:                                               ; preds = %43, %37
  %45 = getelementptr inbounds %"class.base::TaskRunner", %"class.base::TaskRunner"* %26, i64 0, i32 1
  %46 = getelementptr inbounds %"class.base::RefCountedThreadSafe.2", %"class.base::RefCountedThreadSafe.2"* %45, i64 0, i32 0, i32 0, i32 0, i32 0, i32 0, i32 0, i32 0, i32 0
  %47 = atomicrmw sub i32* %46, i32 1 acq_rel
  %48 = icmp eq i32 %47, 1
  br i1 %48, label %49, label %52

49:                                               ; preds = %44
  %50 = getelementptr inbounds %"class.base::RefCountedThreadSafe.2", %"class.base::RefCountedThreadSafe.2"* %45, i64 -2
  %51 = bitcast %"class.base::RefCountedThreadSafe.2"* %50 to %"class.base::TaskRunner"*
  call void @_ZN4base16TaskRunnerTraits8DestructEPKNS_10TaskRunnerE(%"class.base::TaskRunner"* %51) #6
  br label %52

52:                                               ; preds = %36, %43, %44, %49
  call void @llvm.lifetime.end.p0i8(i64 8, i8* nonnull %32)
  %53 = getelementptr inbounds %"class.base::OnceCallback", %"class.base::OnceCallback"* %7, i64 0, i32 0
  call void @_ZN4base8internal12CallbackBaseD2Ev(%"class.base::internal::CallbackBase"* nonnull %53) #6
  call void @_ZN4base8internal12CallbackBaseD2Ev(%"class.base::internal::CallbackBase"* nonnull %18) #6
  call void @llvm.lifetime.end.p0i8(i64 8, i8* nonnull %9) #6
  ret void
}

; Function Attrs: argmemonly nounwind
declare void @llvm.lifetime.start.p0i8(i64 immarg, i8* nocapture) #2

; Function Attrs: nounwind
declare void @_ZN4base8internal12CallbackBaseD2Ev(%"class.base::internal::CallbackBase"*) unnamed_addr #3

; Function Attrs: argmemonly nounwind
declare void @llvm.lifetime.end.p0i8(i64 immarg, i8* nocapture) #2

; Function Attrs: nounwind ssp uwtable
define hidden void @_ZN7content21HistogramSynchronizerD0Ev(%"class.content::HistogramSynchronizer"*) unnamed_addr #0 align 2 {
  tail call void @_ZN7content21HistogramSynchronizerD2Ev(%"class.content::HistogramSynchronizer"* %0) #6
  %2 = bitcast %"class.content::HistogramSynchronizer"* %0 to i8*
  tail call void @_ZdlPv(i8* %2) #7
  ret void
}

; Function Attrs: nobuiltin nounwind
declare void @_ZdlPv(i8*) local_unnamed_addr #4

; Function Attrs: nounwind ssp uwtable
define hidden %"class.content::HistogramSynchronizer"* @_ZN7content21HistogramSynchronizer11GetInstanceEv() local_unnamed_addr #0 align 2 {
  %1 = tail call %"class.content::HistogramSynchronizer"* @_ZN4base9SingletonIN7content21HistogramSynchronizerENS_20LeakySingletonTraitsIS2_EES2_E3getEv()
  ret %"class.content::HistogramSynchronizer"* %1
}

; Function Attrs: nounwind ssp uwtable
define linkonce_odr hidden %"class.content::HistogramSynchronizer"* @_ZN4base9SingletonIN7content21HistogramSynchronizerENS_20LeakySingletonTraitsIS2_EES2_E3getEv() local_unnamed_addr #0 comdat align 2 {
  %1 = load atomic i64, i64* @_ZN4base9SingletonIN7content21HistogramSynchronizerENS_20LeakySingletonTraitsIS2_EES2_E9instance_E acquire, align 8
  %2 = icmp ugt i64 %1, 1
  br i1 %2, label %20, label %3

3:                                                ; preds = %0
  %4 = tail call zeroext i1 @_ZN4base8internal17NeedsLazyInstanceEPl(i64* nonnull @_ZN4base9SingletonIN7content21HistogramSynchronizerENS_20LeakySingletonTraitsIS2_EES2_E9instance_E) #6
  br i1 %4, label %5, label %18

5:                                                ; preds = %3
  %6 = tail call i8* @_Znwm(i64 72) #7
  %7 = bitcast i8* %6 to %"class.content::HistogramSubscriber"*
  %8 = bitcast i8* %6 to i32 (...)***
  store i32 (...)** bitcast (i8** getelementptr inbounds ({ [6 x i8*] }, { [6 x i8*] }* @_ZTVN7content21HistogramSynchronizerE, i64 0, inrange i32 0, i64 2) to i32 (...)**), i32 (...)*** %8, align 8
  %9 = getelementptr inbounds i8, i8* %6, i64 8
  %10 = bitcast i8* %9 to %"class.base::internal::LockImpl"*
  tail call void @_ZN4base8internal8LockImplC1Ev(%"class.base::internal::LockImpl"* %10) #6
  %11 = getelementptr inbounds i8, i8* %6, i64 48
  %12 = getelementptr inbounds i8, i8* %6, i64 64
  %13 = bitcast i8* %12 to i32*
  tail call void @llvm.memset.p0i8.i64(i8* align 8 %11, i8 0, i64 16, i1 false) #6
  store i32 -2, i32* %13, align 8
  %14 = getelementptr inbounds i8, i8* %6, i64 68
  %15 = bitcast i8* %14 to i32*
  store i32 -2, i32* %15, align 4
  %16 = tail call %"class.content::HistogramController"* @_ZN7content19HistogramController11GetInstanceEv() #6
  tail call void @_ZN7content19HistogramController8RegisterEPNS_19HistogramSubscriberE(%"class.content::HistogramController"* %16, %"class.content::HistogramSubscriber"* nonnull %7) #6
  %17 = ptrtoint i8* %6 to i64
  tail call void @_ZN4base8internal20CompleteLazyInstanceEPllPFvPvES2_(i64* nonnull @_ZN4base9SingletonIN7content21HistogramSynchronizerENS_20LeakySingletonTraitsIS2_EES2_E9instance_E, i64 %17, void (i8*)* null, i8* null) #6
  br label %20

18:                                               ; preds = %3
  %19 = load atomic i64, i64* @_ZN4base9SingletonIN7content21HistogramSynchronizerENS_20LeakySingletonTraitsIS2_EES2_E9instance_E acquire, align 8
  br label %20

20:                                               ; preds = %0, %5, %18
  %21 = phi i64 [ %1, %0 ], [ %17, %5 ], [ %19, %18 ]
  %22 = inttoptr i64 %21 to %"class.content::HistogramSynchronizer"*
  ret %"class.content::HistogramSynchronizer"* %22
}

; Function Attrs: nounwind ssp uwtable
define hidden void @_ZN7content21HistogramSynchronizer15FetchHistogramsEv() #0 align 2 {
  %1 = alloca %"class.base::Location", align 8
  %2 = alloca %"class.base::OnceCallback", align 8
  %3 = tail call zeroext i1 @_ZN7content13BrowserThread11CurrentlyOnENS0_2IDE(i32 0) #6
  br i1 %3, label %24, label %4

4:                                                ; preds = %0
  %5 = tail call %"class.base::SingleThreadTaskRunner"* @_ZN7content21GetUIThreadTaskRunnerERKNS_17BrowserTaskTraitsE(%"class.content::BrowserTaskTraits"* dereferenceable(15) bitcast ({ %"struct.base::TaskTraitsExtensionStorage", i8, i8, i8, i8, i8, i8 }* @.ref.tmp to %"class.content::BrowserTaskTraits"*)) #6
  %6 = bitcast %"class.base::SingleThreadTaskRunner"* %5 to %"class.base::TaskRunner"*
  %7 = bitcast %"class.base::Location"* %1 to i8*
  call void @llvm.lifetime.start.p0i8(i64 32, i8* nonnull %7) #6
  call void @_ZN4base8Location7CurrentEPKcS2_i(%"class.base::Location"* nonnull sret %1, i8* getelementptr inbounds ([16 x i8], [16 x i8]* @.str, i64 0, i64 0), i8* getelementptr inbounds ([56 x i8], [56 x i8]* @.str.1, i64 0, i64 0), i32 192) #6
  %8 = call i8* @_Znwm(i64 48) #7, !noalias !6
  %9 = bitcast i8* %8 to %"class.base::internal::BindStateBase"*
  call void @_ZN4base8internal13BindStateBaseC2EPFvvEPFvPKS1_E(%"class.base::internal::BindStateBase"* nonnull %9, void ()* bitcast (void (%"class.base::internal::BindStateBase"*)* @_ZN4base8internal7InvokerINS0_9BindStateIPFvvEJEEES3_E7RunOnceEPNS0_13BindStateBaseE to void ()*), void (%"class.base::internal::BindStateBase"*)* nonnull @_ZN4base8internal9BindStateIPFvvEJEE7DestroyEPKNS0_13BindStateBaseE) #6, !noalias !6
  %10 = getelementptr inbounds i8, i8* %8, i64 32
  %11 = bitcast i8* %10 to i64*
  store i64 ptrtoint (void ()* @_ZN7content21HistogramSynchronizer15FetchHistogramsEv to i64), i64* %11, align 8, !noalias !6
  %12 = bitcast %"class.base::OnceCallback"* %2 to i8**
  store i8* %8, i8** %12, align 8, !alias.scope !6
  %13 = call zeroext i1 @_ZN4base10TaskRunner8PostTaskERKNS_8LocationENS_12OnceCallbackIFvvEEE(%"class.base::TaskRunner"* %6, %"class.base::Location"* nonnull dereferenceable(32) %1, %"class.base::OnceCallback"* nonnull %2) #6
  %14 = getelementptr inbounds %"class.base::OnceCallback", %"class.base::OnceCallback"* %2, i64 0, i32 0
  call void @_ZN4base8internal12CallbackBaseD2Ev(%"class.base::internal::CallbackBase"* nonnull %14) #6
  call void @llvm.lifetime.end.p0i8(i64 32, i8* nonnull %7) #6
  %15 = icmp eq %"class.base::SingleThreadTaskRunner"* %5, null
  br i1 %15, label %28, label %16

16:                                               ; preds = %4
  %17 = getelementptr inbounds %"class.base::SingleThreadTaskRunner", %"class.base::SingleThreadTaskRunner"* %5, i64 0, i32 0, i32 0, i32 1
  %18 = getelementptr inbounds %"class.base::RefCountedThreadSafe.2", %"class.base::RefCountedThreadSafe.2"* %17, i64 0, i32 0, i32 0, i32 0, i32 0, i32 0, i32 0, i32 0, i32 0
  %19 = atomicrmw sub i32* %18, i32 1 acq_rel
  %20 = icmp eq i32 %19, 1
  br i1 %20, label %21, label %28

21:                                               ; preds = %16
  %22 = getelementptr inbounds %"class.base::RefCountedThreadSafe.2", %"class.base::RefCountedThreadSafe.2"* %17, i64 -2
  %23 = bitcast %"class.base::RefCountedThreadSafe.2"* %22 to %"class.base::TaskRunner"*
  call void @_ZN4base16TaskRunnerTraits8DestructEPKNS_10TaskRunnerE(%"class.base::TaskRunner"* %23) #6
  br label %28

24:                                               ; preds = %0
  %25 = tail call %"class.content::HistogramSynchronizer"* @_ZN4base9SingletonIN7content21HistogramSynchronizerENS_20LeakySingletonTraitsIS2_EES2_E3getEv() #6
  %26 = icmp eq %"class.content::HistogramSynchronizer"* %25, null
  br i1 %26, label %28, label %27

27:                                               ; preds = %24
  tail call void @_ZN7content21HistogramSynchronizer29RegisterAndNotifyAllProcessesENS0_25ProcessHistogramRequesterEN4base9TimeDeltaE(%"class.content::HistogramSynchronizer"* nonnull %25, i32 0, i64 60000000)
  br label %28

28:                                               ; preds = %21, %16, %4, %27, %24
  ret void
}

declare zeroext i1 @_ZN7content13BrowserThread11CurrentlyOnENS0_2IDE(i32) local_unnamed_addr #1

declare %"class.base::SingleThreadTaskRunner"* @_ZN7content21GetUIThreadTaskRunnerERKNS_17BrowserTaskTraitsE(%"class.content::BrowserTaskTraits"* dereferenceable(15)) local_unnamed_addr #1

declare zeroext i1 @_ZN4base10TaskRunner8PostTaskERKNS_8LocationENS_12OnceCallbackIFvvEEE(%"class.base::TaskRunner"*, %"class.base::Location"* dereferenceable(32), %"class.base::OnceCallback"*) local_unnamed_addr #1

declare void @_ZN4base8Location7CurrentEPKcS2_i(%"class.base::Location"* sret, i8*, i8*, i32) local_unnamed_addr #1

; Function Attrs: nounwind ssp uwtable
define hidden void @_ZN7content21HistogramSynchronizer29RegisterAndNotifyAllProcessesENS0_25ProcessHistogramRequesterEN4base9TimeDeltaE(%"class.content::HistogramSynchronizer"*, i32, i64) local_unnamed_addr #0 align 2 {
  %4 = alloca %"class.base::OnceCallback", align 8
  %5 = alloca %"class.base::OnceCallback", align 8
  %6 = alloca %"class.base::Location", align 8
  %7 = alloca %"class.base::OnceCallback", align 8
  %8 = getelementptr inbounds %"class.content::HistogramSynchronizer", %"class.content::HistogramSynchronizer"* %0, i64 0, i32 1
  %9 = getelementptr inbounds %"class.base::Lock", %"class.base::Lock"* %8, i64 0, i32 0, i32 0
  %10 = tail call i32 @pthread_mutex_trylock(%union.pthread_mutex_t* %9) #6
  %11 = icmp eq i32 %10, 0
  br i1 %11, label %14, label %12, !prof !5

12:                                               ; preds = %3
  %13 = getelementptr inbounds %"class.base::Lock", %"class.base::Lock"* %8, i64 0, i32 0
  tail call void @_ZN4base8internal8LockImpl24LockInternalWithTrackingEv(%"class.base::internal::LockImpl"* %13) #6
  br label %14

14:                                               ; preds = %12, %3
  %15 = getelementptr inbounds %"class.content::HistogramSynchronizer", %"class.content::HistogramSynchronizer"* %0, i64 0, i32 4
  %16 = load i32, i32* %15, align 8
  %17 = add nsw i32 %16, 1
  store i32 %17, i32* %15, align 8
  %18 = icmp slt i32 %17, 0
  br i1 %18, label %19, label %22

19:                                               ; preds = %14
  %20 = load i32, i32* @_ZN7content44kHistogramSynchronizerReservedSequenceNumberE, align 4
  %21 = add nsw i32 %20, 1
  store i32 %21, i32* %15, align 8
  br label %22

22:                                               ; preds = %19, %14
  %23 = phi i32 [ %21, %19 ], [ %17, %14 ]
  %24 = icmp eq i32 %1, 1
  br i1 %24, label %25, label %27

25:                                               ; preds = %22
  %26 = getelementptr inbounds %"class.content::HistogramSynchronizer", %"class.content::HistogramSynchronizer"* %0, i64 0, i32 5
  store i32 %23, i32* %26, align 4
  br label %27

27:                                               ; preds = %22, %25
  %28 = tail call i32 @pthread_mutex_unlock(%union.pthread_mutex_t* %9) #6
  %29 = bitcast %"class.base::OnceCallback"* %4 to i8*
  call void @llvm.lifetime.start.p0i8(i64 8, i8* nonnull %29) #6
  %30 = getelementptr inbounds %"class.base::OnceCallback", %"class.base::OnceCallback"* %4, i64 0, i32 0, i32 0, i32 0
  %31 = ptrtoint %"class.content::HistogramSynchronizer"* %0 to i64
  %32 = tail call i8* @_Znwm(i64 64) #7, !noalias !11
  %33 = bitcast i8* %32 to %"class.base::internal::BindStateBase"*
  tail call void @_ZN4base8internal13BindStateBaseC2EPFvvEPFvPKS1_E(%"class.base::internal::BindStateBase"* nonnull %33, void ()* bitcast (void (%"class.base::internal::BindStateBase"*)* @_ZN4base8internal7InvokerINS0_9BindStateIMN7content21HistogramSynchronizerEFviEJNS0_17UnretainedWrapperIS4_EEiEEEFvvEE7RunOnceEPNS0_13BindStateBaseE to void ()*), void (%"class.base::internal::BindStateBase"*)* nonnull @_ZN4base8internal9BindStateIMN7content21HistogramSynchronizerEFviEJNS0_17UnretainedWrapperIS3_EEiEE7DestroyEPKNS0_13BindStateBaseE) #6, !noalias !11
  %34 = getelementptr inbounds i8, i8* %32, i64 32
  %35 = bitcast i8* %34 to <2 x i64>*
  store <2 x i64> <i64 ptrtoint (void (%"class.content::HistogramSynchronizer"*, i32)* @_ZN7content21HistogramSynchronizer41ForceHistogramSynchronizationDoneCallbackEi to i64), i64 0>, <2 x i64>* %35, align 8, !noalias !11
  %36 = getelementptr inbounds i8, i8* %32, i64 48
  %37 = bitcast i8* %36 to i64*
  store i64 %31, i64* %37, align 8, !noalias !11
  %38 = getelementptr inbounds i8, i8* %32, i64 56
  %39 = bitcast i8* %38 to i32*
  store i32 %23, i32* %39, align 4, !noalias !11
  %40 = ptrtoint i8* %32 to i64
  %41 = bitcast %"class.base::OnceCallback"* %5 to i64*
  store i64 %40, i64* %41, align 8
  store %"class.base::internal::BindStateBase"* null, %"class.base::internal::BindStateBase"** %30, align 8
  call void @_ZN7content21HistogramSynchronizer14RequestContext8RegisterEN4base12OnceCallbackIFvvEEEi(%"class.base::OnceCallback"* nonnull %5, i32 %23)
  %42 = getelementptr inbounds %"class.base::OnceCallback", %"class.base::OnceCallback"* %5, i64 0, i32 0
  call void @_ZN4base8internal12CallbackBaseD2Ev(%"class.base::internal::CallbackBase"* nonnull %42) #6
  %43 = call %"class.content::HistogramController"* @_ZN7content19HistogramController11GetInstanceEv() #6
  call void @_ZN7content19HistogramController16GetHistogramDataEi(%"class.content::HistogramController"* %43, i32 %23) #6
  %44 = call %"class.base::SingleThreadTaskRunner"* @_ZN7content21GetUIThreadTaskRunnerERKNS_17BrowserTaskTraitsE(%"class.content::BrowserTaskTraits"* dereferenceable(15) bitcast ({ %"struct.base::TaskTraitsExtensionStorage", i8, i8, i8, i8, i8, i8 }* @.ref.tmp.2 to %"class.content::BrowserTaskTraits"*)) #6
  %45 = bitcast %"class.base::SingleThreadTaskRunner"* %44 to %"class.base::TaskRunner"*
  %46 = bitcast %"class.base::Location"* %6 to i8*
  call void @llvm.lifetime.start.p0i8(i64 32, i8* nonnull %46) #6
  call void @_ZN4base8Location7CurrentEPKcS2_i(%"class.base::Location"* nonnull sret %6, i8* getelementptr inbounds ([30 x i8], [30 x i8]* @.str.3, i64 0, i64 0), i8* getelementptr inbounds ([56 x i8], [56 x i8]* @.str.1, i64 0, i64 0), i32 249) #6
  %47 = call i8* @_Znwm(i64 48) #7, !noalias !16
  %48 = bitcast i8* %47 to %"class.base::internal::BindStateBase"*
  call void @_ZN4base8internal13BindStateBaseC2EPFvvEPFvPKS1_E(%"class.base::internal::BindStateBase"* nonnull %48, void ()* bitcast (void (%"class.base::internal::BindStateBase"*)* @_ZN4base8internal7InvokerINS0_9BindStateIPFviEJiEEEFvvEE7RunOnceEPNS0_13BindStateBaseE to void ()*), void (%"class.base::internal::BindStateBase"*)* nonnull @_ZN4base8internal9BindStateIPFviEJiEE7DestroyEPKNS0_13BindStateBaseE) #6, !noalias !16
  %49 = getelementptr inbounds i8, i8* %47, i64 32
  %50 = bitcast i8* %49 to i64*
  store i64 ptrtoint (void (i32)* @_ZN7content21HistogramSynchronizer14RequestContext10UnregisterEi to i64), i64* %50, align 8, !noalias !16
  %51 = getelementptr inbounds i8, i8* %47, i64 40
  %52 = bitcast i8* %51 to i32*
  store i32 %23, i32* %52, align 4, !noalias !16
  %53 = bitcast %"class.base::OnceCallback"* %7 to i8**
  store i8* %47, i8** %53, align 8, !alias.scope !16
  %54 = bitcast %"class.base::SingleThreadTaskRunner"* %44 to i1 (%"class.base::TaskRunner"*, %"class.base::Location"*, %"class.base::OnceCallback"*, i64)***
  %55 = load i1 (%"class.base::TaskRunner"*, %"class.base::Location"*, %"class.base::OnceCallback"*, i64)**, i1 (%"class.base::TaskRunner"*, %"class.base::Location"*, %"class.base::OnceCallback"*, i64)*** %54, align 8
  %56 = load i1 (%"class.base::TaskRunner"*, %"class.base::Location"*, %"class.base::OnceCallback"*, i64)*, i1 (%"class.base::TaskRunner"*, %"class.base::Location"*, %"class.base::OnceCallback"*, i64)** %55, align 8
  %57 = call zeroext i1 %56(%"class.base::TaskRunner"* %45, %"class.base::Location"* nonnull dereferenceable(32) %6, %"class.base::OnceCallback"* nonnull %7, i64 %2) #6
  %58 = getelementptr inbounds %"class.base::OnceCallback", %"class.base::OnceCallback"* %7, i64 0, i32 0
  call void @_ZN4base8internal12CallbackBaseD2Ev(%"class.base::internal::CallbackBase"* nonnull %58) #6
  call void @llvm.lifetime.end.p0i8(i64 32, i8* nonnull %46) #6
  %59 = icmp eq %"class.base::SingleThreadTaskRunner"* %44, null
  br i1 %59, label %68, label %60

60:                                               ; preds = %27
  %61 = getelementptr inbounds %"class.base::SingleThreadTaskRunner", %"class.base::SingleThreadTaskRunner"* %44, i64 0, i32 0, i32 0, i32 1
  %62 = getelementptr inbounds %"class.base::RefCountedThreadSafe.2", %"class.base::RefCountedThreadSafe.2"* %61, i64 0, i32 0, i32 0, i32 0, i32 0, i32 0, i32 0, i32 0, i32 0
  %63 = atomicrmw sub i32* %62, i32 1 acq_rel
  %64 = icmp eq i32 %63, 1
  br i1 %64, label %65, label %68

65:                                               ; preds = %60
  %66 = getelementptr inbounds %"class.base::RefCountedThreadSafe.2", %"class.base::RefCountedThreadSafe.2"* %61, i64 -2
  %67 = bitcast %"class.base::RefCountedThreadSafe.2"* %66 to %"class.base::TaskRunner"*
  call void @_ZN4base16TaskRunnerTraits8DestructEPKNS_10TaskRunnerE(%"class.base::TaskRunner"* %67) #6
  br label %68

68:                                               ; preds = %27, %60, %65
  %69 = getelementptr inbounds %"class.base::OnceCallback", %"class.base::OnceCallback"* %4, i64 0, i32 0
  call void @_ZN4base8internal12CallbackBaseD2Ev(%"class.base::internal::CallbackBase"* nonnull %69) #6
  call void @llvm.lifetime.end.p0i8(i64 8, i8* nonnull %29) #6
  ret void
}

; Function Attrs: nounwind ssp uwtable
define hidden void @_ZN7content29FetchHistogramsAsynchronouslyE13scoped_refptrIN4base10TaskRunnerEENS1_12OnceCallbackIFvvEEENS1_9TimeDeltaE(%"class.base::TaskRunner"*, %"class.base::OnceCallback"* nocapture, i64) local_unnamed_addr #0 {
  %4 = alloca %"class.base::OnceCallback", align 8
  %5 = alloca %"class.base::OnceCallback", align 8
  %6 = getelementptr inbounds %"class.base::OnceCallback", %"class.base::OnceCallback"* %1, i64 0, i32 0, i32 0, i32 0
  %7 = bitcast %"class.base::OnceCallback"* %1 to i64*
  %8 = load i64, i64* %7, align 8
  store %"class.base::internal::BindStateBase"* null, %"class.base::internal::BindStateBase"** %6, align 8
  %9 = bitcast %"class.base::OnceCallback"* %4 to i8*
  call void @llvm.lifetime.start.p0i8(i64 8, i8* nonnull %9)
  %10 = tail call %"class.content::HistogramSynchronizer"* @_ZN4base9SingletonIN7content21HistogramSynchronizerENS_20LeakySingletonTraitsIS2_EES2_E3getEv() #6
  %11 = getelementptr inbounds %"class.base::OnceCallback", %"class.base::OnceCallback"* %5, i64 0, i32 0, i32 0, i32 0
  %12 = bitcast %"class.base::OnceCallback"* %4 to i64*
  store i64 %8, i64* %12, align 8
  store %"class.base::internal::BindStateBase"* null, %"class.base::internal::BindStateBase"** %11, align 8
  call void @_ZN7content21HistogramSynchronizer24SetTaskRunnerAndCallbackE13scoped_refptrIN4base10TaskRunnerEENS2_12OnceCallbackIFvvEEE(%"class.content::HistogramSynchronizer"* %10, %"class.base::TaskRunner"* %0, %"class.base::OnceCallback"* nonnull %4) #6
  %13 = getelementptr inbounds %"class.base::OnceCallback", %"class.base::OnceCallback"* %4, i64 0, i32 0
  call void @_ZN4base8internal12CallbackBaseD2Ev(%"class.base::internal::CallbackBase"* nonnull %13) #6
  call void @_ZN7content21HistogramSynchronizer29RegisterAndNotifyAllProcessesENS0_25ProcessHistogramRequesterEN4base9TimeDeltaE(%"class.content::HistogramSynchronizer"* %10, i32 1, i64 %2) #6
  call void @llvm.lifetime.end.p0i8(i64 8, i8* nonnull %9)
  %14 = getelementptr inbounds %"class.base::OnceCallback", %"class.base::OnceCallback"* %5, i64 0, i32 0
  call void @_ZN4base8internal12CallbackBaseD2Ev(%"class.base::internal::CallbackBase"* nonnull %14) #6
  ret void
}

; Function Attrs: nounwind ssp uwtable
define hidden void @_ZN7content21HistogramSynchronizer29FetchHistogramsAsynchronouslyE13scoped_refptrIN4base10TaskRunnerEENS2_12OnceCallbackIFvvEEENS2_9TimeDeltaE(%"class.base::TaskRunner"*, %"class.base::OnceCallback"* nocapture, i64) local_unnamed_addr #0 align 2 {
  %4 = alloca %"class.base::OnceCallback", align 8
  %5 = tail call %"class.content::HistogramSynchronizer"* @_ZN4base9SingletonIN7content21HistogramSynchronizerENS_20LeakySingletonTraitsIS2_EES2_E3getEv() #6
  %6 = getelementptr inbounds %"class.base::OnceCallback", %"class.base::OnceCallback"* %1, i64 0, i32 0, i32 0, i32 0
  %7 = bitcast %"class.base::OnceCallback"* %1 to i64*
  %8 = load i64, i64* %7, align 8
  %9 = bitcast %"class.base::OnceCallback"* %4 to i64*
  store i64 %8, i64* %9, align 8
  store %"class.base::internal::BindStateBase"* null, %"class.base::internal::BindStateBase"** %6, align 8
  call void @_ZN7content21HistogramSynchronizer24SetTaskRunnerAndCallbackE13scoped_refptrIN4base10TaskRunnerEENS2_12OnceCallbackIFvvEEE(%"class.content::HistogramSynchronizer"* %5, %"class.base::TaskRunner"* %0, %"class.base::OnceCallback"* nonnull %4)
  %10 = getelementptr inbounds %"class.base::OnceCallback", %"class.base::OnceCallback"* %4, i64 0, i32 0
  call void @_ZN4base8internal12CallbackBaseD2Ev(%"class.base::internal::CallbackBase"* nonnull %10) #6
  call void @_ZN7content21HistogramSynchronizer29RegisterAndNotifyAllProcessesENS0_25ProcessHistogramRequesterEN4base9TimeDeltaE(%"class.content::HistogramSynchronizer"* %5, i32 1, i64 %2)
  ret void
}

; Function Attrs: nounwind ssp uwtable
define hidden i32 @_ZN7content21HistogramSynchronizer30GetNextAvailableSequenceNumberENS0_25ProcessHistogramRequesterE(%"class.content::HistogramSynchronizer"*, i32) local_unnamed_addr #0 align 2 {
  %3 = getelementptr inbounds %"class.content::HistogramSynchronizer", %"class.content::HistogramSynchronizer"* %0, i64 0, i32 1
  %4 = getelementptr inbounds %"class.base::Lock", %"class.base::Lock"* %3, i64 0, i32 0, i32 0
  %5 = tail call i32 @pthread_mutex_trylock(%union.pthread_mutex_t* %4) #6
  %6 = icmp eq i32 %5, 0
  br i1 %6, label %9, label %7, !prof !5

7:                                                ; preds = %2
  %8 = getelementptr inbounds %"class.base::Lock", %"class.base::Lock"* %3, i64 0, i32 0
  tail call void @_ZN4base8internal8LockImpl24LockInternalWithTrackingEv(%"class.base::internal::LockImpl"* %8) #6
  br label %9

9:                                                ; preds = %2, %7
  %10 = getelementptr inbounds %"class.content::HistogramSynchronizer", %"class.content::HistogramSynchronizer"* %0, i64 0, i32 4
  %11 = load i32, i32* %10, align 8
  %12 = add nsw i32 %11, 1
  store i32 %12, i32* %10, align 8
  %13 = icmp slt i32 %12, 0
  br i1 %13, label %14, label %17

14:                                               ; preds = %9
  %15 = load i32, i32* @_ZN7content44kHistogramSynchronizerReservedSequenceNumberE, align 4
  %16 = add nsw i32 %15, 1
  store i32 %16, i32* %10, align 8
  br label %17

17:                                               ; preds = %14, %9
  %18 = phi i32 [ %16, %14 ], [ %12, %9 ]
  %19 = icmp eq i32 %1, 1
  br i1 %19, label %20, label %22

20:                                               ; preds = %17
  %21 = getelementptr inbounds %"class.content::HistogramSynchronizer", %"class.content::HistogramSynchronizer"* %0, i64 0, i32 5
  store i32 %18, i32* %21, align 4
  br label %22

22:                                               ; preds = %20, %17
  %23 = tail call i32 @pthread_mutex_unlock(%union.pthread_mutex_t* %4) #6
  ret i32 %18
}

; Function Attrs: nounwind ssp uwtable
define hidden void @_ZN7content21HistogramSynchronizer41ForceHistogramSynchronizationDoneCallbackEi(%"class.content::HistogramSynchronizer"*, i32) #0 align 2 {
  %3 = alloca %"class.base::Location", align 8
  %4 = alloca %"class.base::OnceCallback", align 8
  %5 = alloca %"class.base::OnceCallback", align 8
  %6 = alloca %"class.base::OnceCallback", align 8
  %7 = bitcast %"class.base::OnceCallback"* %5 to i8*
  call void @llvm.lifetime.start.p0i8(i64 8, i8* nonnull %7) #6
  %8 = getelementptr inbounds %"class.base::OnceCallback", %"class.base::OnceCallback"* %5, i64 0, i32 0, i32 0, i32 0
  store %"class.base::internal::BindStateBase"* null, %"class.base::internal::BindStateBase"** %8, align 8
  %9 = getelementptr inbounds %"class.content::HistogramSynchronizer", %"class.content::HistogramSynchronizer"* %0, i64 0, i32 1
  %10 = getelementptr inbounds %"class.base::Lock", %"class.base::Lock"* %9, i64 0, i32 0, i32 0
  %11 = tail call i32 @pthread_mutex_trylock(%union.pthread_mutex_t* %10) #6
  %12 = icmp eq i32 %11, 0
  br i1 %12, label %15, label %13, !prof !5

13:                                               ; preds = %2
  %14 = getelementptr inbounds %"class.base::Lock", %"class.base::Lock"* %9, i64 0, i32 0
  tail call void @_ZN4base8internal8LockImpl24LockInternalWithTrackingEv(%"class.base::internal::LockImpl"* %14) #6
  br label %15

15:                                               ; preds = %2, %13
  %16 = getelementptr inbounds %"class.content::HistogramSynchronizer", %"class.content::HistogramSynchronizer"* %0, i64 0, i32 5
  %17 = load i32, i32* %16, align 4
  %18 = icmp eq i32 %17, %1
  br i1 %18, label %19, label %51

19:                                               ; preds = %15
  %20 = getelementptr inbounds %"class.base::OnceCallback", %"class.base::OnceCallback"* %5, i64 0, i32 0
  %21 = getelementptr inbounds %"class.content::HistogramSynchronizer", %"class.content::HistogramSynchronizer"* %0, i64 0, i32 2, i32 0
  %22 = call dereferenceable(8) %"class.base::internal::CallbackBase"* @_ZN4base8internal12CallbackBaseaSEOS1_(%"class.base::internal::CallbackBase"* nonnull %20, %"class.base::internal::CallbackBase"* dereferenceable(8) %21) #6
  %23 = getelementptr inbounds %"class.content::HistogramSynchronizer", %"class.content::HistogramSynchronizer"* %0, i64 0, i32 3, i32 0
  %24 = load %"class.base::TaskRunner"*, %"class.base::TaskRunner"** %23, align 8
  store %"class.base::TaskRunner"* null, %"class.base::TaskRunner"** %23, align 8
  call void @_ZN4base8internal12CallbackBase5ResetEv(%"class.base::internal::CallbackBase"* %21) #6
  %25 = call i32 @pthread_mutex_unlock(%union.pthread_mutex_t* %10) #6
  %26 = bitcast %"class.base::OnceCallback"* %5 to i64*
  %27 = load i64, i64* %26, align 8
  %28 = bitcast %"class.base::OnceCallback"* %6 to i64*
  store i64 %27, i64* %28, align 8
  store %"class.base::internal::BindStateBase"* null, %"class.base::internal::BindStateBase"** %8, align 8
  %29 = bitcast %"class.base::OnceCallback"* %4 to i8*
  call void @llvm.lifetime.start.p0i8(i64 8, i8* nonnull %29)
  %30 = getelementptr inbounds %"class.base::OnceCallback", %"class.base::OnceCallback"* %6, i64 0, i32 0, i32 0, i32 0
  %31 = icmp eq i64 %27, 0
  %32 = icmp eq %"class.base::TaskRunner"* %24, null
  br i1 %31, label %40, label %33

33:                                               ; preds = %19
  br i1 %32, label %49, label %34

34:                                               ; preds = %33
  %35 = bitcast %"class.base::Location"* %3 to i8*
  call void @llvm.lifetime.start.p0i8(i64 32, i8* nonnull %35) #6
  call void @_ZN4base8Location7CurrentEPKcS2_i(%"class.base::Location"* nonnull sret %3, i8* getelementptr inbounds ([17 x i8], [17 x i8]* @.str.4, i64 0, i64 0), i8* getelementptr inbounds ([56 x i8], [56 x i8]* @.str.1, i64 0, i64 0), i32 321) #6
  %36 = load i64, i64* %28, align 8
  %37 = bitcast %"class.base::OnceCallback"* %4 to i64*
  store i64 %36, i64* %37, align 8
  store %"class.base::internal::BindStateBase"* null, %"class.base::internal::BindStateBase"** %30, align 8
  %38 = call zeroext i1 @_ZN4base10TaskRunner8PostTaskERKNS_8LocationENS_12OnceCallbackIFvvEEE(%"class.base::TaskRunner"* nonnull %24, %"class.base::Location"* nonnull dereferenceable(32) %3, %"class.base::OnceCallback"* nonnull %4) #6
  %39 = getelementptr inbounds %"class.base::OnceCallback", %"class.base::OnceCallback"* %4, i64 0, i32 0
  call void @_ZN4base8internal12CallbackBaseD2Ev(%"class.base::internal::CallbackBase"* nonnull %39) #6
  call void @llvm.lifetime.end.p0i8(i64 32, i8* nonnull %35) #6
  br label %41

40:                                               ; preds = %19
  br i1 %32, label %49, label %41

41:                                               ; preds = %40, %34
  %42 = getelementptr inbounds %"class.base::TaskRunner", %"class.base::TaskRunner"* %24, i64 0, i32 1
  %43 = getelementptr inbounds %"class.base::RefCountedThreadSafe.2", %"class.base::RefCountedThreadSafe.2"* %42, i64 0, i32 0, i32 0, i32 0, i32 0, i32 0, i32 0, i32 0, i32 0
  %44 = atomicrmw sub i32* %43, i32 1 acq_rel
  %45 = icmp eq i32 %44, 1
  br i1 %45, label %46, label %49

46:                                               ; preds = %41
  %47 = getelementptr inbounds %"class.base::RefCountedThreadSafe.2", %"class.base::RefCountedThreadSafe.2"* %42, i64 -2
  %48 = bitcast %"class.base::RefCountedThreadSafe.2"* %47 to %"class.base::TaskRunner"*
  call void @_ZN4base16TaskRunnerTraits8DestructEPKNS_10TaskRunnerE(%"class.base::TaskRunner"* %48) #6
  br label %49

49:                                               ; preds = %33, %40, %41, %46
  call void @llvm.lifetime.end.p0i8(i64 8, i8* nonnull %29)
  %50 = getelementptr inbounds %"class.base::OnceCallback", %"class.base::OnceCallback"* %6, i64 0, i32 0
  call void @_ZN4base8internal12CallbackBaseD2Ev(%"class.base::internal::CallbackBase"* nonnull %50) #6
  br label %53

51:                                               ; preds = %15
  %52 = tail call i32 @pthread_mutex_unlock(%union.pthread_mutex_t* %10) #6
  br label %53

53:                                               ; preds = %49, %51
  %54 = getelementptr inbounds %"class.base::OnceCallback", %"class.base::OnceCallback"* %5, i64 0, i32 0
  call void @_ZN4base8internal12CallbackBaseD2Ev(%"class.base::internal::CallbackBase"* nonnull %54) #6
  call void @llvm.lifetime.end.p0i8(i64 8, i8* nonnull %7) #6
  ret void
}

; Function Attrs: nounwind ssp uwtable
define linkonce_odr hidden void @_ZN7content21HistogramSynchronizer14RequestContext8RegisterEN4base12OnceCallbackIFvvEEEi(%"class.base::OnceCallback"*, i32) local_unnamed_addr #0 comdat align 2 {
  %3 = alloca %"class.base::OnceCallback", align 8
  %4 = tail call i8* @_Znwm(i64 24) #7
  %5 = getelementptr inbounds %"class.base::OnceCallback", %"class.base::OnceCallback"* %0, i64 0, i32 0, i32 0, i32 0
  %6 = bitcast %"class.base::OnceCallback"* %0 to i64*
  %7 = load i64, i64* %6, align 8
  store %"class.base::internal::BindStateBase"* null, %"class.base::internal::BindStateBase"** %5, align 8
  %8 = getelementptr inbounds %"class.base::OnceCallback", %"class.base::OnceCallback"* %3, i64 0, i32 0, i32 0, i32 0
  %9 = bitcast i8* %4 to i64*
  store i64 %7, i64* %9, align 8
  store %"class.base::internal::BindStateBase"* null, %"class.base::internal::BindStateBase"** %8, align 8
  %10 = getelementptr inbounds i8, i8* %4, i64 8
  %11 = bitcast i8* %10 to i32*
  store i32 %1, i32* %11, align 8
  %12 = getelementptr inbounds i8, i8* %4, i64 12
  store i8 0, i8* %12, align 4
  %13 = getelementptr inbounds i8, i8* %4, i64 16
  %14 = bitcast i8* %13 to i32*
  store i32 0, i32* %14, align 8
  %15 = getelementptr inbounds %"class.base::OnceCallback", %"class.base::OnceCallback"* %3, i64 0, i32 0
  call void @_ZN4base8internal12CallbackBaseD2Ev(%"class.base::internal::CallbackBase"* nonnull %15) #6
  %16 = load atomic i64, i64* getelementptr inbounds (%"class.base::LazyInstance", %"class.base::LazyInstance"* @_ZN7content21HistogramSynchronizer14RequestContext21outstanding_requests_E, i64 0, i32 0) acquire, align 8
  %17 = icmp ugt i64 %16, 1
  br i1 %17, label %23, label %18

18:                                               ; preds = %2
  %19 = call zeroext i1 @_ZN4base8internal17NeedsLazyInstanceEPl(i64* getelementptr inbounds (%"class.base::LazyInstance", %"class.base::LazyInstance"* @_ZN7content21HistogramSynchronizer14RequestContext21outstanding_requests_E, i64 0, i32 0)) #6
  br i1 %19, label %20, label %21

20:                                               ; preds = %18
  call void @llvm.memset.p0i8.i64(i8* align 8 getelementptr inbounds (%"class.base::LazyInstance", %"class.base::LazyInstance"* @_ZN7content21HistogramSynchronizer14RequestContext21outstanding_requests_E, i64 0, i32 1, i64 8), i8 0, i64 16, i1 false) #6
  store i8* getelementptr inbounds (%"class.base::LazyInstance", %"class.base::LazyInstance"* @_ZN7content21HistogramSynchronizer14RequestContext21outstanding_requests_E, i64 0, i32 1, i64 8), i8** bitcast (i8* getelementptr inbounds (%"class.base::LazyInstance", %"class.base::LazyInstance"* @_ZN7content21HistogramSynchronizer14RequestContext21outstanding_requests_E, i64 0, i32 1, i64 0) to i8**), align 8
  call void @_ZN4base8internal20CompleteLazyInstanceEPllPFvPvES2_(i64* getelementptr inbounds (%"class.base::LazyInstance", %"class.base::LazyInstance"* @_ZN7content21HistogramSynchronizer14RequestContext21outstanding_requests_E, i64 0, i32 0), i64 ptrtoint (i8* getelementptr inbounds (%"class.base::LazyInstance", %"class.base::LazyInstance"* @_ZN7content21HistogramSynchronizer14RequestContext21outstanding_requests_E, i64 0, i32 1, i64 0) to i64), void (i8*)* null, i8* bitcast (%"class.base::LazyInstance"* @_ZN7content21HistogramSynchronizer14RequestContext21outstanding_requests_E to i8*)) #6
  br label %23

21:                                               ; preds = %18
  %22 = load atomic i64, i64* getelementptr inbounds (%"class.base::LazyInstance", %"class.base::LazyInstance"* @_ZN7content21HistogramSynchronizer14RequestContext21outstanding_requests_E, i64 0, i32 0) acquire, align 8
  br label %23

23:                                               ; preds = %2, %20, %21
  %24 = phi i64 [ %16, %2 ], [ ptrtoint (i8* getelementptr inbounds (%"class.base::LazyInstance", %"class.base::LazyInstance"* @_ZN7content21HistogramSynchronizer14RequestContext21outstanding_requests_E, i64 0, i32 1, i64 0) to i64), %20 ], [ %22, %21 ]
  %25 = inttoptr i64 %24 to %"class.std::__1::map.19"*
  %26 = getelementptr inbounds %"class.std::__1::map.19", %"class.std::__1::map.19"* %25, i64 0, i32 0, i32 1, i32 0, i32 0
  %27 = bitcast %"class.std::__1::__tree_end_node"* %26 to %"class.std::__1::__tree_node"**
  %28 = load %"class.std::__1::__tree_node"*, %"class.std::__1::__tree_node"** %27, align 8
  %29 = icmp eq %"class.std::__1::__tree_node"* %28, null
  br i1 %29, label %58, label %30

30:                                               ; preds = %23
  %31 = getelementptr inbounds %"class.std::__1::map.19", %"class.std::__1::map.19"* %25, i64 0, i32 0, i32 1, i32 0, i32 0, i32 0
  br label %32

32:                                               ; preds = %54, %30
  %33 = phi %"class.std::__1::__tree_node"* [ %57, %54 ], [ %28, %30 ]
  %34 = phi %"class.std::__1::__tree_node_base"** [ %56, %54 ], [ %31, %30 ]
  %35 = getelementptr inbounds %"class.std::__1::__tree_node", %"class.std::__1::__tree_node"* %33, i64 0, i32 1, i32 0, i32 0
  %36 = load i32, i32* %35, align 4
  %37 = icmp sgt i32 %36, %1
  br i1 %37, label %38, label %44

38:                                               ; preds = %32
  %39 = getelementptr inbounds %"class.std::__1::__tree_node", %"class.std::__1::__tree_node"* %33, i64 0, i32 0, i32 0, i32 0
  %40 = load %"class.std::__1::__tree_node_base"*, %"class.std::__1::__tree_node_base"** %39, align 8
  %41 = icmp eq %"class.std::__1::__tree_node_base"* %40, null
  br i1 %41, label %42, label %54

42:                                               ; preds = %38
  %43 = getelementptr inbounds %"class.std::__1::__tree_node", %"class.std::__1::__tree_node"* %33, i64 0, i32 0, i32 0
  br label %60

44:                                               ; preds = %32
  %45 = icmp slt i32 %36, %1
  br i1 %45, label %46, label %52

46:                                               ; preds = %44
  %47 = getelementptr inbounds %"class.std::__1::__tree_node", %"class.std::__1::__tree_node"* %33, i64 0, i32 0, i32 1
  %48 = load %"class.std::__1::__tree_node_base"*, %"class.std::__1::__tree_node_base"** %47, align 8
  %49 = icmp eq %"class.std::__1::__tree_node_base"* %48, null
  br i1 %49, label %50, label %54

50:                                               ; preds = %46
  %51 = getelementptr inbounds %"class.std::__1::__tree_node", %"class.std::__1::__tree_node"* %33, i64 0, i32 0, i32 0
  br label %60

52:                                               ; preds = %44
  %53 = getelementptr inbounds %"class.std::__1::__tree_node", %"class.std::__1::__tree_node"* %33, i64 0, i32 0, i32 0
  br label %60

54:                                               ; preds = %46, %38
  %55 = phi %"class.std::__1::__tree_node_base"* [ %40, %38 ], [ %48, %46 ]
  %56 = phi %"class.std::__1::__tree_node_base"** [ %39, %38 ], [ %47, %46 ]
  %57 = bitcast %"class.std::__1::__tree_node_base"* %55 to %"class.std::__1::__tree_node"*
  br label %32

58:                                               ; preds = %23
  %59 = getelementptr inbounds %"class.std::__1::__tree_end_node", %"class.std::__1::__tree_end_node"* %26, i64 0, i32 0
  br label %60

60:                                               ; preds = %58, %52, %50, %42
  %61 = phi %"class.std::__1::__tree_end_node"* [ %26, %58 ], [ %43, %42 ], [ %51, %50 ], [ %53, %52 ]
  %62 = phi %"class.std::__1::__tree_node_base"** [ %59, %58 ], [ %39, %42 ], [ %47, %50 ], [ %34, %52 ]
  %63 = bitcast %"class.std::__1::__tree_node_base"** %62 to %"class.std::__1::__tree_node"**
  %64 = load %"class.std::__1::__tree_node"*, %"class.std::__1::__tree_node"** %63, align 8
  %65 = icmp eq %"class.std::__1::__tree_node"* %64, null
  br i1 %65, label %66, label %93

66:                                               ; preds = %60
  %67 = call i8* @_Znwm(i64 48) #7, !noalias !21
  %68 = getelementptr inbounds i8, i8* %67, i64 32
  %69 = bitcast i8* %68 to i32*
  store i32 %1, i32* %69, align 8, !noalias !21
  %70 = getelementptr inbounds i8, i8* %67, i64 40
  %71 = bitcast i8* %70 to %"class.content::HistogramSynchronizer::RequestContext"**
  store %"class.content::HistogramSynchronizer::RequestContext"* null, %"class.content::HistogramSynchronizer::RequestContext"** %71, align 8, !noalias !21
  %72 = bitcast i8* %67 to %"class.std::__1::__tree_node"*
  %73 = bitcast i8* %67 to %"class.std::__1::__tree_node_base"*
  %74 = getelementptr inbounds i8, i8* %67, i64 16
  %75 = bitcast i8* %74 to %"class.std::__1::__tree_end_node"**
  call void @llvm.memset.p0i8.i64(i8* nonnull align 8 %67, i8 0, i64 16, i1 false) #6
  store %"class.std::__1::__tree_end_node"* %61, %"class.std::__1::__tree_end_node"** %75, align 8
  %76 = bitcast %"class.std::__1::__tree_node_base"** %62 to i8**
  store i8* %67, i8** %76, align 8
  %77 = getelementptr inbounds %"class.std::__1::map.19", %"class.std::__1::map.19"* %25, i64 0, i32 0, i32 0
  %78 = load %"class.std::__1::__tree_end_node"*, %"class.std::__1::__tree_end_node"** %77, align 8
  %79 = getelementptr inbounds %"class.std::__1::__tree_end_node", %"class.std::__1::__tree_end_node"* %78, i64 0, i32 0
  %80 = load %"class.std::__1::__tree_node_base"*, %"class.std::__1::__tree_node_base"** %79, align 8
  %81 = icmp eq %"class.std::__1::__tree_node_base"* %80, null
  br i1 %81, label %86, label %82

82:                                               ; preds = %66
  %83 = ptrtoint %"class.std::__1::__tree_node_base"* %80 to i64
  %84 = inttoptr i64 %24 to i64*
  store i64 %83, i64* %84, align 8
  %85 = load %"class.std::__1::__tree_node_base"*, %"class.std::__1::__tree_node_base"** %62, align 8
  br label %86

86:                                               ; preds = %82, %66
  %87 = phi %"class.std::__1::__tree_node_base"* [ %73, %66 ], [ %85, %82 ]
  %88 = getelementptr inbounds %"class.std::__1::map.19", %"class.std::__1::map.19"* %25, i64 0, i32 0, i32 1, i32 0, i32 0, i32 0
  %89 = load %"class.std::__1::__tree_node_base"*, %"class.std::__1::__tree_node_base"** %88, align 8
  call void @_ZNSt3__127__tree_balance_after_insertIPNS_16__tree_node_baseIPvEEEEvT_S5_(%"class.std::__1::__tree_node_base"* %89, %"class.std::__1::__tree_node_base"* %87) #6
  %90 = getelementptr inbounds %"class.std::__1::map.19", %"class.std::__1::map.19"* %25, i64 0, i32 0, i32 2, i32 0, i32 0
  %91 = load i64, i64* %90, align 8
  %92 = add i64 %91, 1
  store i64 %92, i64* %90, align 8
  br label %93

93:                                               ; preds = %60, %86
  %94 = phi %"class.std::__1::__tree_node"* [ %72, %86 ], [ %64, %60 ]
  %95 = getelementptr inbounds %"class.std::__1::__tree_node", %"class.std::__1::__tree_node"* %94, i64 0, i32 1, i32 0, i32 1
  %96 = bitcast %"class.content::HistogramSynchronizer::RequestContext"** %95 to i8**
  store i8* %4, i8** %96, align 8
  ret void
}

declare void @_ZN7content19HistogramController16GetHistogramDataEi(%"class.content::HistogramController"*, i32) local_unnamed_addr #1

; Function Attrs: nounwind ssp uwtable
define linkonce_odr hidden void @_ZN7content21HistogramSynchronizer14RequestContext10UnregisterEi(i32) #0 comdat align 2 {
  %2 = alloca %"class.base::OnceCallback", align 8
  %3 = load atomic i64, i64* getelementptr inbounds (%"class.base::LazyInstance", %"class.base::LazyInstance"* @_ZN7content21HistogramSynchronizer14RequestContext21outstanding_requests_E, i64 0, i32 0) acquire, align 8
  %4 = icmp ugt i64 %3, 1
  br i1 %4, label %10, label %5

5:                                                ; preds = %1
  %6 = tail call zeroext i1 @_ZN4base8internal17NeedsLazyInstanceEPl(i64* getelementptr inbounds (%"class.base::LazyInstance", %"class.base::LazyInstance"* @_ZN7content21HistogramSynchronizer14RequestContext21outstanding_requests_E, i64 0, i32 0)) #6
  br i1 %6, label %7, label %8

7:                                                ; preds = %5
  tail call void @llvm.memset.p0i8.i64(i8* align 8 getelementptr inbounds (%"class.base::LazyInstance", %"class.base::LazyInstance"* @_ZN7content21HistogramSynchronizer14RequestContext21outstanding_requests_E, i64 0, i32 1, i64 8), i8 0, i64 16, i1 false) #6
  store i8* getelementptr inbounds (%"class.base::LazyInstance", %"class.base::LazyInstance"* @_ZN7content21HistogramSynchronizer14RequestContext21outstanding_requests_E, i64 0, i32 1, i64 8), i8** bitcast (i8* getelementptr inbounds (%"class.base::LazyInstance", %"class.base::LazyInstance"* @_ZN7content21HistogramSynchronizer14RequestContext21outstanding_requests_E, i64 0, i32 1, i64 0) to i8**), align 8
  tail call void @_ZN4base8internal20CompleteLazyInstanceEPllPFvPvES2_(i64* getelementptr inbounds (%"class.base::LazyInstance", %"class.base::LazyInstance"* @_ZN7content21HistogramSynchronizer14RequestContext21outstanding_requests_E, i64 0, i32 0), i64 ptrtoint (i8* getelementptr inbounds (%"class.base::LazyInstance", %"class.base::LazyInstance"* @_ZN7content21HistogramSynchronizer14RequestContext21outstanding_requests_E, i64 0, i32 1, i64 0) to i64), void (i8*)* null, i8* bitcast (%"class.base::LazyInstance"* @_ZN7content21HistogramSynchronizer14RequestContext21outstanding_requests_E to i8*)) #6
  br label %10

8:                                                ; preds = %5
  %9 = load atomic i64, i64* getelementptr inbounds (%"class.base::LazyInstance", %"class.base::LazyInstance"* @_ZN7content21HistogramSynchronizer14RequestContext21outstanding_requests_E, i64 0, i32 0) acquire, align 8
  br label %10

10:                                               ; preds = %1, %7, %8
  %11 = phi i64 [ %3, %1 ], [ ptrtoint (i8* getelementptr inbounds (%"class.base::LazyInstance", %"class.base::LazyInstance"* @_ZN7content21HistogramSynchronizer14RequestContext21outstanding_requests_E, i64 0, i32 1, i64 0) to i64), %7 ], [ %9, %8 ]
  %12 = inttoptr i64 %11 to %"class.std::__1::map.19"*
  %13 = getelementptr inbounds %"class.std::__1::map.19", %"class.std::__1::map.19"* %12, i64 0, i32 0, i32 1, i32 0, i32 0
  %14 = bitcast %"class.std::__1::__tree_end_node"* %13 to %"class.std::__1::__tree_node"**
  %15 = load %"class.std::__1::__tree_node"*, %"class.std::__1::__tree_node"** %14, align 8
  %16 = icmp eq %"class.std::__1::__tree_node"* %15, null
  br i1 %16, label %38, label %17

17:                                               ; preds = %10, %17
  %18 = phi %"class.std::__1::__tree_end_node"* [ %28, %17 ], [ %13, %10 ]
  %19 = phi %"class.std::__1::__tree_node"* [ %29, %17 ], [ %15, %10 ]
  %20 = getelementptr inbounds %"class.std::__1::__tree_node", %"class.std::__1::__tree_node"* %19, i64 0, i32 1, i32 0, i32 0
  %21 = load i32, i32* %20, align 4
  %22 = icmp slt i32 %21, %0
  %23 = getelementptr inbounds %"class.std::__1::__tree_node", %"class.std::__1::__tree_node"* %19, i64 0, i32 0, i32 1
  %24 = bitcast %"class.std::__1::__tree_node_base"** %23 to %"class.std::__1::__tree_node"**
  %25 = getelementptr inbounds %"class.std::__1::__tree_node", %"class.std::__1::__tree_node"* %19, i64 0, i32 0, i32 0
  %26 = bitcast %"class.std::__1::__tree_node"* %19 to %"class.std::__1::__tree_node"**
  %27 = select i1 %22, %"class.std::__1::__tree_node"** %24, %"class.std::__1::__tree_node"** %26
  %28 = select i1 %22, %"class.std::__1::__tree_end_node"* %18, %"class.std::__1::__tree_end_node"* %25
  %29 = load %"class.std::__1::__tree_node"*, %"class.std::__1::__tree_node"** %27, align 8
  %30 = icmp eq %"class.std::__1::__tree_node"* %29, null
  br i1 %30, label %31, label %17

31:                                               ; preds = %17
  %32 = icmp eq %"class.std::__1::__tree_end_node"* %28, %13
  br i1 %32, label %38, label %33

33:                                               ; preds = %31
  %34 = getelementptr inbounds %"class.std::__1::__tree_end_node", %"class.std::__1::__tree_end_node"* %28, i64 4
  %35 = bitcast %"class.std::__1::__tree_end_node"* %34 to i32*
  %36 = load i32, i32* %35, align 4
  %37 = icmp sgt i32 %36, %0
  br i1 %37, label %38, label %39

38:                                               ; preds = %33, %31, %10
  br label %39

39:                                               ; preds = %33, %38
  %40 = phi %"class.std::__1::__tree_end_node"* [ %13, %38 ], [ %28, %33 ]
  %41 = load atomic i64, i64* getelementptr inbounds (%"class.base::LazyInstance", %"class.base::LazyInstance"* @_ZN7content21HistogramSynchronizer14RequestContext21outstanding_requests_E, i64 0, i32 0) acquire, align 8
  %42 = icmp ugt i64 %41, 1
  br i1 %42, label %48, label %43

43:                                               ; preds = %39
  %44 = tail call zeroext i1 @_ZN4base8internal17NeedsLazyInstanceEPl(i64* getelementptr inbounds (%"class.base::LazyInstance", %"class.base::LazyInstance"* @_ZN7content21HistogramSynchronizer14RequestContext21outstanding_requests_E, i64 0, i32 0)) #6
  br i1 %44, label %45, label %46

45:                                               ; preds = %43
  tail call void @llvm.memset.p0i8.i64(i8* align 8 getelementptr inbounds (%"class.base::LazyInstance", %"class.base::LazyInstance"* @_ZN7content21HistogramSynchronizer14RequestContext21outstanding_requests_E, i64 0, i32 1, i64 8), i8 0, i64 16, i1 false) #6
  store i8* getelementptr inbounds (%"class.base::LazyInstance", %"class.base::LazyInstance"* @_ZN7content21HistogramSynchronizer14RequestContext21outstanding_requests_E, i64 0, i32 1, i64 8), i8** bitcast (i8* getelementptr inbounds (%"class.base::LazyInstance", %"class.base::LazyInstance"* @_ZN7content21HistogramSynchronizer14RequestContext21outstanding_requests_E, i64 0, i32 1, i64 0) to i8**), align 8
  tail call void @_ZN4base8internal20CompleteLazyInstanceEPllPFvPvES2_(i64* getelementptr inbounds (%"class.base::LazyInstance", %"class.base::LazyInstance"* @_ZN7content21HistogramSynchronizer14RequestContext21outstanding_requests_E, i64 0, i32 0), i64 ptrtoint (i8* getelementptr inbounds (%"class.base::LazyInstance", %"class.base::LazyInstance"* @_ZN7content21HistogramSynchronizer14RequestContext21outstanding_requests_E, i64 0, i32 1, i64 0) to i64), void (i8*)* null, i8* bitcast (%"class.base::LazyInstance"* @_ZN7content21HistogramSynchronizer14RequestContext21outstanding_requests_E to i8*)) #6
  br label %48

46:                                               ; preds = %43
  %47 = load atomic i64, i64* getelementptr inbounds (%"class.base::LazyInstance", %"class.base::LazyInstance"* @_ZN7content21HistogramSynchronizer14RequestContext21outstanding_requests_E, i64 0, i32 0) acquire, align 8
  br label %48

48:                                               ; preds = %39, %45, %46
  %49 = phi i64 [ %41, %39 ], [ ptrtoint (i8* getelementptr inbounds (%"class.base::LazyInstance", %"class.base::LazyInstance"* @_ZN7content21HistogramSynchronizer14RequestContext21outstanding_requests_E, i64 0, i32 1, i64 0) to i64), %45 ], [ %47, %46 ]
  %50 = inttoptr i64 %49 to %"class.std::__1::map.19"*
  %51 = getelementptr inbounds %"class.std::__1::map.19", %"class.std::__1::map.19"* %50, i64 0, i32 0, i32 1, i32 0, i32 0
  %52 = icmp eq %"class.std::__1::__tree_end_node"* %40, %51
  br i1 %52, label %150, label %53

53:                                               ; preds = %48
  %54 = getelementptr inbounds %"class.std::__1::__tree_end_node", %"class.std::__1::__tree_end_node"* %40, i64 5
  %55 = bitcast %"class.std::__1::__tree_end_node"* %54 to %"class.content::HistogramSynchronizer::RequestContext"**
  %56 = load %"class.content::HistogramSynchronizer::RequestContext"*, %"class.content::HistogramSynchronizer::RequestContext"** %55, align 8
  %57 = getelementptr inbounds %"class.content::HistogramSynchronizer::RequestContext", %"class.content::HistogramSynchronizer::RequestContext"* %56, i64 0, i32 2
  %58 = load i8, i8* %57, align 4, !range !24
  %59 = icmp ne i8 %58, 0
  %60 = getelementptr inbounds %"class.content::HistogramSynchronizer::RequestContext", %"class.content::HistogramSynchronizer::RequestContext"* %56, i64 0, i32 4
  %61 = load i32, i32* %60, align 8
  %62 = bitcast %"class.base::OnceCallback"* %2 to i8*
  call void @llvm.lifetime.start.p0i8(i64 8, i8* nonnull %62) #6
  %63 = getelementptr inbounds %"class.content::HistogramSynchronizer::RequestContext", %"class.content::HistogramSynchronizer::RequestContext"* %56, i64 0, i32 0, i32 0, i32 0, i32 0
  %64 = bitcast %"class.content::HistogramSynchronizer::RequestContext"* %56 to i64*
  %65 = load i64, i64* %64, align 8
  %66 = bitcast %"class.base::OnceCallback"* %2 to i64*
  store i64 %65, i64* %66, align 8
  store %"class.base::internal::BindStateBase"* null, %"class.base::internal::BindStateBase"** %63, align 8
  %67 = getelementptr inbounds %"class.base::OnceCallback", %"class.base::OnceCallback"* %2, i64 0, i32 0
  %68 = inttoptr i64 %65 to %"class.base::internal::BindStateBase"*
  %69 = getelementptr inbounds %"class.base::internal::BindStateBase", %"class.base::internal::BindStateBase"* %68, i64 0, i32 1
  %70 = bitcast void ()** %69 to void (%"class.base::internal::BindStateBase"*)**
  %71 = load void (%"class.base::internal::BindStateBase"*)*, void (%"class.base::internal::BindStateBase"*)** %70, align 8
  tail call void %71(%"class.base::internal::BindStateBase"* %68) #6
  call void @_ZN4base8internal12CallbackBaseD2Ev(%"class.base::internal::CallbackBase"* nonnull %67) #6
  call void @llvm.lifetime.end.p0i8(i64 8, i8* nonnull %62) #6
  %72 = icmp eq %"class.content::HistogramSynchronizer::RequestContext"* %56, null
  br i1 %72, label %76, label %73

73:                                               ; preds = %53
  %74 = getelementptr inbounds %"class.content::HistogramSynchronizer::RequestContext", %"class.content::HistogramSynchronizer::RequestContext"* %56, i64 0, i32 0, i32 0
  call void @_ZN4base8internal12CallbackBaseD2Ev(%"class.base::internal::CallbackBase"* %74) #6
  %75 = bitcast %"class.content::HistogramSynchronizer::RequestContext"* %56 to i8*
  call void @_ZdlPv(i8* %75) #7
  br label %76

76:                                               ; preds = %73, %53
  %77 = load atomic i64, i64* getelementptr inbounds (%"class.base::LazyInstance", %"class.base::LazyInstance"* @_ZN7content21HistogramSynchronizer14RequestContext21outstanding_requests_E, i64 0, i32 0) acquire, align 8
  %78 = icmp ugt i64 %77, 1
  br i1 %78, label %84, label %79

79:                                               ; preds = %76
  %80 = call zeroext i1 @_ZN4base8internal17NeedsLazyInstanceEPl(i64* getelementptr inbounds (%"class.base::LazyInstance", %"class.base::LazyInstance"* @_ZN7content21HistogramSynchronizer14RequestContext21outstanding_requests_E, i64 0, i32 0)) #6
  br i1 %80, label %81, label %82

81:                                               ; preds = %79
  call void @llvm.memset.p0i8.i64(i8* align 8 getelementptr inbounds (%"class.base::LazyInstance", %"class.base::LazyInstance"* @_ZN7content21HistogramSynchronizer14RequestContext21outstanding_requests_E, i64 0, i32 1, i64 8), i8 0, i64 16, i1 false) #6
  store i8* getelementptr inbounds (%"class.base::LazyInstance", %"class.base::LazyInstance"* @_ZN7content21HistogramSynchronizer14RequestContext21outstanding_requests_E, i64 0, i32 1, i64 8), i8** bitcast (i8* getelementptr inbounds (%"class.base::LazyInstance", %"class.base::LazyInstance"* @_ZN7content21HistogramSynchronizer14RequestContext21outstanding_requests_E, i64 0, i32 1, i64 0) to i8**), align 8
  call void @_ZN4base8internal20CompleteLazyInstanceEPllPFvPvES2_(i64* getelementptr inbounds (%"class.base::LazyInstance", %"class.base::LazyInstance"* @_ZN7content21HistogramSynchronizer14RequestContext21outstanding_requests_E, i64 0, i32 0), i64 ptrtoint (i8* getelementptr inbounds (%"class.base::LazyInstance", %"class.base::LazyInstance"* @_ZN7content21HistogramSynchronizer14RequestContext21outstanding_requests_E, i64 0, i32 1, i64 0) to i64), void (i8*)* null, i8* bitcast (%"class.base::LazyInstance"* @_ZN7content21HistogramSynchronizer14RequestContext21outstanding_requests_E to i8*)) #6
  br label %84

82:                                               ; preds = %79
  %83 = load atomic i64, i64* getelementptr inbounds (%"class.base::LazyInstance", %"class.base::LazyInstance"* @_ZN7content21HistogramSynchronizer14RequestContext21outstanding_requests_E, i64 0, i32 0) acquire, align 8
  br label %84

84:                                               ; preds = %76, %81, %82
  %85 = phi i64 [ %77, %76 ], [ ptrtoint (i8* getelementptr inbounds (%"class.base::LazyInstance", %"class.base::LazyInstance"* @_ZN7content21HistogramSynchronizer14RequestContext21outstanding_requests_E, i64 0, i32 1, i64 0) to i64), %81 ], [ %83, %82 ]
  %86 = inttoptr i64 %85 to %"class.std::__1::map.19"*
  %87 = getelementptr inbounds %"class.std::__1::__tree_end_node", %"class.std::__1::__tree_end_node"* %40, i64 1, i32 0
  %88 = load %"class.std::__1::__tree_node_base"*, %"class.std::__1::__tree_node_base"** %87, align 8
  %89 = icmp eq %"class.std::__1::__tree_node_base"* %88, null
  br i1 %89, label %90, label %98

90:                                               ; preds = %84
  %91 = bitcast %"class.std::__1::__tree_end_node"* %40 to %"class.std::__1::__tree_node_base"*
  %92 = getelementptr inbounds %"class.std::__1::__tree_end_node", %"class.std::__1::__tree_end_node"* %40, i64 2
  %93 = bitcast %"class.std::__1::__tree_end_node"* %92 to %"class.std::__1::__tree_end_node"**
  %94 = load %"class.std::__1::__tree_end_node"*, %"class.std::__1::__tree_end_node"** %93, align 8
  %95 = getelementptr inbounds %"class.std::__1::__tree_end_node", %"class.std::__1::__tree_end_node"* %94, i64 0, i32 0
  %96 = load %"class.std::__1::__tree_node_base"*, %"class.std::__1::__tree_node_base"** %95, align 8
  %97 = icmp eq %"class.std::__1::__tree_node_base"* %96, %91
  br i1 %97, label %114, label %105

98:                                               ; preds = %84, %98
  %99 = phi %"class.std::__1::__tree_node_base"* [ %101, %98 ], [ %88, %84 ]
  %100 = getelementptr inbounds %"class.std::__1::__tree_node_base", %"class.std::__1::__tree_node_base"* %99, i64 0, i32 0, i32 0
  %101 = load %"class.std::__1::__tree_node_base"*, %"class.std::__1::__tree_node_base"** %100, align 8
  %102 = icmp eq %"class.std::__1::__tree_node_base"* %101, null
  br i1 %102, label %103, label %98

103:                                              ; preds = %98
  %104 = getelementptr inbounds %"class.std::__1::__tree_node_base", %"class.std::__1::__tree_node_base"* %99, i64 0, i32 0
  br label %114

105:                                              ; preds = %90, %105
  %106 = phi %"class.std::__1::__tree_end_node"** [ %109, %105 ], [ %93, %90 ]
  %107 = bitcast %"class.std::__1::__tree_end_node"** %106 to %"class.std::__1::__tree_node_base"**
  %108 = load %"class.std::__1::__tree_node_base"*, %"class.std::__1::__tree_node_base"** %107, align 8
  %109 = getelementptr inbounds %"class.std::__1::__tree_node_base", %"class.std::__1::__tree_node_base"* %108, i64 0, i32 2
  %110 = load %"class.std::__1::__tree_end_node"*, %"class.std::__1::__tree_end_node"** %109, align 8
  %111 = getelementptr inbounds %"class.std::__1::__tree_end_node", %"class.std::__1::__tree_end_node"* %110, i64 0, i32 0
  %112 = load %"class.std::__1::__tree_node_base"*, %"class.std::__1::__tree_node_base"** %111, align 8
  %113 = icmp eq %"class.std::__1::__tree_node_base"* %112, %108
  br i1 %113, label %114, label %105

114:                                              ; preds = %105, %103, %90
  %115 = phi %"class.std::__1::__tree_end_node"* [ %104, %103 ], [ %94, %90 ], [ %110, %105 ]
  %116 = getelementptr inbounds %"class.std::__1::map.19", %"class.std::__1::map.19"* %86, i64 0, i32 0, i32 0
  %117 = load %"class.std::__1::__tree_end_node"*, %"class.std::__1::__tree_end_node"** %116, align 8
  %118 = icmp eq %"class.std::__1::__tree_end_node"* %117, %40
  br i1 %118, label %119, label %122

119:                                              ; preds = %114
  %120 = ptrtoint %"class.std::__1::__tree_end_node"* %115 to i64
  %121 = inttoptr i64 %85 to i64*
  store i64 %120, i64* %121, align 8
  br label %122

122:                                              ; preds = %114, %119
  %123 = getelementptr inbounds %"class.std::__1::map.19", %"class.std::__1::map.19"* %86, i64 0, i32 0, i32 2, i32 0, i32 0
  %124 = load i64, i64* %123, align 8
  %125 = add i64 %124, -1
  store i64 %125, i64* %123, align 8
  %126 = getelementptr inbounds %"class.std::__1::map.19", %"class.std::__1::map.19"* %86, i64 0, i32 0, i32 1, i32 0, i32 0, i32 0
  %127 = load %"class.std::__1::__tree_node_base"*, %"class.std::__1::__tree_node_base"** %126, align 8
  %128 = bitcast %"class.std::__1::__tree_end_node"* %40 to %"class.std::__1::__tree_node_base"*
  call void @_ZNSt3__113__tree_removeIPNS_16__tree_node_baseIPvEEEEvT_S5_(%"class.std::__1::__tree_node_base"* %127, %"class.std::__1::__tree_node_base"* %128) #6
  %129 = bitcast %"class.std::__1::__tree_end_node"* %40 to i8*
  call void @_ZdlPv(i8* %129) #7
  %130 = load atomic i64, i64* getelementptr inbounds (%"struct.std::__1::atomic.42", %"struct.std::__1::atomic.42"* @_ZZN7content21HistogramSynchronizer14RequestContext10UnregisterEiE24atomic_histogram_pointer, i64 0, i32 0, i32 0, i32 0, i32 0, i32 0) acquire, align 8
  %131 = inttoptr i64 %130 to %"class.base::HistogramBase"*
  %132 = icmp eq i64 %130, 0
  br i1 %132, label %133, label %136

133:                                              ; preds = %122
  %134 = call %"class.base::HistogramBase"* @_ZN4base16BooleanHistogram10FactoryGetEPKci(i8* getelementptr inbounds ([36 x i8], [36 x i8]* @.str.6, i64 0, i64 0), i32 1) #6
  %135 = ptrtoint %"class.base::HistogramBase"* %134 to i64
  store atomic i64 %135, i64* getelementptr inbounds (%"struct.std::__1::atomic.42", %"struct.std::__1::atomic.42"* @_ZZN7content21HistogramSynchronizer14RequestContext10UnregisterEiE24atomic_histogram_pointer, i64 0, i32 0, i32 0, i32 0, i32 0, i32 0) release, align 8
  br label %136

136:                                              ; preds = %122, %133
  %137 = phi %"class.base::HistogramBase"* [ %131, %122 ], [ %134, %133 ]
  call void @_ZN4base13HistogramBase10AddBooleanEb(%"class.base::HistogramBase"* %137, i1 zeroext %59) #6
  %138 = load atomic i64, i64* getelementptr inbounds (%"struct.std::__1::atomic.42", %"struct.std::__1::atomic.42"* @_ZZN7content21HistogramSynchronizer14RequestContext10UnregisterEiE24atomic_histogram_pointer_0, i64 0, i32 0, i32 0, i32 0, i32 0, i32 0) acquire, align 8
  %139 = inttoptr i64 %138 to %"class.base::HistogramBase"*
  %140 = icmp eq i64 %138, 0
  br i1 %140, label %141, label %144

141:                                              ; preds = %136
  %142 = call %"class.base::HistogramBase"* @_ZN4base9Histogram10FactoryGetEPKciiji(i8* getelementptr inbounds ([38 x i8], [38 x i8]* @.str.7, i64 0, i64 0), i32 1, i32 1000000, i32 50, i32 1) #6
  %143 = ptrtoint %"class.base::HistogramBase"* %142 to i64
  store atomic i64 %143, i64* getelementptr inbounds (%"struct.std::__1::atomic.42", %"struct.std::__1::atomic.42"* @_ZZN7content21HistogramSynchronizer14RequestContext10UnregisterEiE24atomic_histogram_pointer_0, i64 0, i32 0, i32 0, i32 0, i32 0, i32 0) release, align 8
  br label %144

144:                                              ; preds = %136, %141
  %145 = phi %"class.base::HistogramBase"* [ %139, %136 ], [ %142, %141 ]
  %146 = bitcast %"class.base::HistogramBase"* %145 to void (%"class.base::HistogramBase"*, i32)***
  %147 = load void (%"class.base::HistogramBase"*, i32)**, void (%"class.base::HistogramBase"*, i32)*** %146, align 8
  %148 = getelementptr inbounds void (%"class.base::HistogramBase"*, i32)*, void (%"class.base::HistogramBase"*, i32)** %147, i64 6
  %149 = load void (%"class.base::HistogramBase"*, i32)*, void (%"class.base::HistogramBase"*, i32)** %148, align 8
  call void %149(%"class.base::HistogramBase"* %145, i32 %61) #6
  br label %150

150:                                              ; preds = %48, %144
  ret void
}

; Function Attrs: nounwind ssp uwtable
define hidden void @_ZN7content21HistogramSynchronizer18OnPendingProcessesEiib(%"class.content::HistogramSynchronizer"* nocapture readnone, i32, i32, i1 zeroext) unnamed_addr #0 align 2 {
  %5 = tail call %"class.content::HistogramSynchronizer::RequestContext"* @_ZN7content21HistogramSynchronizer14RequestContext17GetRequestContextEi(i32 %1)
  %6 = icmp eq %"class.content::HistogramSynchronizer::RequestContext"* %5, null
  br i1 %6, label %19, label %7

7:                                                ; preds = %4
  %8 = getelementptr inbounds %"class.content::HistogramSynchronizer::RequestContext", %"class.content::HistogramSynchronizer::RequestContext"* %5, i64 0, i32 4
  %9 = load i32, i32* %8, align 8
  %10 = add nsw i32 %9, %2
  store i32 %10, i32* %8, align 8
  %11 = zext i1 %3 to i8
  %12 = getelementptr inbounds %"class.content::HistogramSynchronizer::RequestContext", %"class.content::HistogramSynchronizer::RequestContext"* %5, i64 0, i32 2
  store i8 %11, i8* %12, align 4
  %13 = icmp sgt i32 %10, 0
  %14 = xor i1 %3, true
  %15 = or i1 %13, %14
  br i1 %15, label %19, label %16

16:                                               ; preds = %7
  %17 = getelementptr inbounds %"class.content::HistogramSynchronizer::RequestContext", %"class.content::HistogramSynchronizer::RequestContext"* %5, i64 0, i32 1
  %18 = load i32, i32* %17, align 8
  tail call void @_ZN7content21HistogramSynchronizer14RequestContext10UnregisterEi(i32 %18) #6
  br label %19

19:                                               ; preds = %7, %16, %4
  ret void
}

; Function Attrs: nounwind ssp uwtable
define linkonce_odr hidden %"class.content::HistogramSynchronizer::RequestContext"* @_ZN7content21HistogramSynchronizer14RequestContext17GetRequestContextEi(i32) local_unnamed_addr #0 comdat align 2 {
  %2 = load atomic i64, i64* getelementptr inbounds (%"class.base::LazyInstance", %"class.base::LazyInstance"* @_ZN7content21HistogramSynchronizer14RequestContext21outstanding_requests_E, i64 0, i32 0) acquire, align 8
  %3 = icmp ugt i64 %2, 1
  br i1 %3, label %9, label %4

4:                                                ; preds = %1
  %5 = tail call zeroext i1 @_ZN4base8internal17NeedsLazyInstanceEPl(i64* getelementptr inbounds (%"class.base::LazyInstance", %"class.base::LazyInstance"* @_ZN7content21HistogramSynchronizer14RequestContext21outstanding_requests_E, i64 0, i32 0)) #6
  br i1 %5, label %6, label %7

6:                                                ; preds = %4
  tail call void @llvm.memset.p0i8.i64(i8* align 8 getelementptr inbounds (%"class.base::LazyInstance", %"class.base::LazyInstance"* @_ZN7content21HistogramSynchronizer14RequestContext21outstanding_requests_E, i64 0, i32 1, i64 8), i8 0, i64 16, i1 false) #6
  store i8* getelementptr inbounds (%"class.base::LazyInstance", %"class.base::LazyInstance"* @_ZN7content21HistogramSynchronizer14RequestContext21outstanding_requests_E, i64 0, i32 1, i64 8), i8** bitcast (i8* getelementptr inbounds (%"class.base::LazyInstance", %"class.base::LazyInstance"* @_ZN7content21HistogramSynchronizer14RequestContext21outstanding_requests_E, i64 0, i32 1, i64 0) to i8**), align 8
  tail call void @_ZN4base8internal20CompleteLazyInstanceEPllPFvPvES2_(i64* getelementptr inbounds (%"class.base::LazyInstance", %"class.base::LazyInstance"* @_ZN7content21HistogramSynchronizer14RequestContext21outstanding_requests_E, i64 0, i32 0), i64 ptrtoint (i8* getelementptr inbounds (%"class.base::LazyInstance", %"class.base::LazyInstance"* @_ZN7content21HistogramSynchronizer14RequestContext21outstanding_requests_E, i64 0, i32 1, i64 0) to i64), void (i8*)* null, i8* bitcast (%"class.base::LazyInstance"* @_ZN7content21HistogramSynchronizer14RequestContext21outstanding_requests_E to i8*)) #6
  br label %9

7:                                                ; preds = %4
  %8 = load atomic i64, i64* getelementptr inbounds (%"class.base::LazyInstance", %"class.base::LazyInstance"* @_ZN7content21HistogramSynchronizer14RequestContext21outstanding_requests_E, i64 0, i32 0) acquire, align 8
  br label %9

9:                                                ; preds = %1, %6, %7
  %10 = phi i64 [ %2, %1 ], [ ptrtoint (i8* getelementptr inbounds (%"class.base::LazyInstance", %"class.base::LazyInstance"* @_ZN7content21HistogramSynchronizer14RequestContext21outstanding_requests_E, i64 0, i32 1, i64 0) to i64), %6 ], [ %8, %7 ]
  %11 = inttoptr i64 %10 to %"class.std::__1::map.19"*
  %12 = getelementptr inbounds %"class.std::__1::map.19", %"class.std::__1::map.19"* %11, i64 0, i32 0, i32 1, i32 0, i32 0
  %13 = bitcast %"class.std::__1::__tree_end_node"* %12 to %"class.std::__1::__tree_node"**
  %14 = load %"class.std::__1::__tree_node"*, %"class.std::__1::__tree_node"** %13, align 8
  %15 = icmp eq %"class.std::__1::__tree_node"* %14, null
  br i1 %15, label %37, label %16

16:                                               ; preds = %9, %16
  %17 = phi %"class.std::__1::__tree_end_node"* [ %27, %16 ], [ %12, %9 ]
  %18 = phi %"class.std::__1::__tree_node"* [ %28, %16 ], [ %14, %9 ]
  %19 = getelementptr inbounds %"class.std::__1::__tree_node", %"class.std::__1::__tree_node"* %18, i64 0, i32 1, i32 0, i32 0
  %20 = load i32, i32* %19, align 4
  %21 = icmp slt i32 %20, %0
  %22 = getelementptr inbounds %"class.std::__1::__tree_node", %"class.std::__1::__tree_node"* %18, i64 0, i32 0, i32 1
  %23 = bitcast %"class.std::__1::__tree_node_base"** %22 to %"class.std::__1::__tree_node"**
  %24 = getelementptr inbounds %"class.std::__1::__tree_node", %"class.std::__1::__tree_node"* %18, i64 0, i32 0, i32 0
  %25 = bitcast %"class.std::__1::__tree_node"* %18 to %"class.std::__1::__tree_node"**
  %26 = select i1 %21, %"class.std::__1::__tree_node"** %23, %"class.std::__1::__tree_node"** %25
  %27 = select i1 %21, %"class.std::__1::__tree_end_node"* %17, %"class.std::__1::__tree_end_node"* %24
  %28 = load %"class.std::__1::__tree_node"*, %"class.std::__1::__tree_node"** %26, align 8
  %29 = icmp eq %"class.std::__1::__tree_node"* %28, null
  br i1 %29, label %30, label %16

30:                                               ; preds = %16
  %31 = icmp eq %"class.std::__1::__tree_end_node"* %27, %12
  br i1 %31, label %37, label %32

32:                                               ; preds = %30
  %33 = getelementptr inbounds %"class.std::__1::__tree_end_node", %"class.std::__1::__tree_end_node"* %27, i64 4
  %34 = bitcast %"class.std::__1::__tree_end_node"* %33 to i32*
  %35 = load i32, i32* %34, align 4
  %36 = icmp sgt i32 %35, %0
  br i1 %36, label %37, label %38

37:                                               ; preds = %32, %30, %9
  br label %38

38:                                               ; preds = %32, %37
  %39 = phi %"class.std::__1::__tree_end_node"* [ %12, %37 ], [ %27, %32 ]
  %40 = load atomic i64, i64* getelementptr inbounds (%"class.base::LazyInstance", %"class.base::LazyInstance"* @_ZN7content21HistogramSynchronizer14RequestContext21outstanding_requests_E, i64 0, i32 0) acquire, align 8
  %41 = icmp ugt i64 %40, 1
  br i1 %41, label %47, label %42

42:                                               ; preds = %38
  %43 = tail call zeroext i1 @_ZN4base8internal17NeedsLazyInstanceEPl(i64* getelementptr inbounds (%"class.base::LazyInstance", %"class.base::LazyInstance"* @_ZN7content21HistogramSynchronizer14RequestContext21outstanding_requests_E, i64 0, i32 0)) #6
  br i1 %43, label %44, label %45

44:                                               ; preds = %42
  tail call void @llvm.memset.p0i8.i64(i8* align 8 getelementptr inbounds (%"class.base::LazyInstance", %"class.base::LazyInstance"* @_ZN7content21HistogramSynchronizer14RequestContext21outstanding_requests_E, i64 0, i32 1, i64 8), i8 0, i64 16, i1 false) #6
  store i8* getelementptr inbounds (%"class.base::LazyInstance", %"class.base::LazyInstance"* @_ZN7content21HistogramSynchronizer14RequestContext21outstanding_requests_E, i64 0, i32 1, i64 8), i8** bitcast (i8* getelementptr inbounds (%"class.base::LazyInstance", %"class.base::LazyInstance"* @_ZN7content21HistogramSynchronizer14RequestContext21outstanding_requests_E, i64 0, i32 1, i64 0) to i8**), align 8
  tail call void @_ZN4base8internal20CompleteLazyInstanceEPllPFvPvES2_(i64* getelementptr inbounds (%"class.base::LazyInstance", %"class.base::LazyInstance"* @_ZN7content21HistogramSynchronizer14RequestContext21outstanding_requests_E, i64 0, i32 0), i64 ptrtoint (i8* getelementptr inbounds (%"class.base::LazyInstance", %"class.base::LazyInstance"* @_ZN7content21HistogramSynchronizer14RequestContext21outstanding_requests_E, i64 0, i32 1, i64 0) to i64), void (i8*)* null, i8* bitcast (%"class.base::LazyInstance"* @_ZN7content21HistogramSynchronizer14RequestContext21outstanding_requests_E to i8*)) #6
  br label %47

45:                                               ; preds = %42
  %46 = load atomic i64, i64* getelementptr inbounds (%"class.base::LazyInstance", %"class.base::LazyInstance"* @_ZN7content21HistogramSynchronizer14RequestContext21outstanding_requests_E, i64 0, i32 0) acquire, align 8
  br label %47

47:                                               ; preds = %38, %44, %45
  %48 = phi i64 [ %40, %38 ], [ ptrtoint (i8* getelementptr inbounds (%"class.base::LazyInstance", %"class.base::LazyInstance"* @_ZN7content21HistogramSynchronizer14RequestContext21outstanding_requests_E, i64 0, i32 1, i64 0) to i64), %44 ], [ %46, %45 ]
  %49 = inttoptr i64 %48 to %"class.std::__1::map.19"*
  %50 = getelementptr inbounds %"class.std::__1::map.19", %"class.std::__1::map.19"* %49, i64 0, i32 0, i32 1, i32 0, i32 0
  %51 = icmp eq %"class.std::__1::__tree_end_node"* %39, %50
  br i1 %51, label %56, label %52

52:                                               ; preds = %47
  %53 = getelementptr inbounds %"class.std::__1::__tree_end_node", %"class.std::__1::__tree_end_node"* %39, i64 5
  %54 = bitcast %"class.std::__1::__tree_end_node"* %53 to %"class.content::HistogramSynchronizer::RequestContext"**
  %55 = load %"class.content::HistogramSynchronizer::RequestContext"*, %"class.content::HistogramSynchronizer::RequestContext"** %54, align 8
  br label %56

56:                                               ; preds = %47, %52
  %57 = phi %"class.content::HistogramSynchronizer::RequestContext"* [ %55, %52 ], [ null, %47 ]
  ret %"class.content::HistogramSynchronizer::RequestContext"* %57
}

; Function Attrs: nounwind ssp uwtable
define hidden void @_ZN7content21HistogramSynchronizer24OnHistogramDataCollectedEiRKNSt3__16vectorINS1_12basic_stringIcNS1_11char_traitsIcEENS1_9allocatorIcEEEENS6_IS8_EEEE(%"class.content::HistogramSynchronizer"* nocapture readnone, i32, %"class.std::__1::vector"*) unnamed_addr #0 align 2 {
  tail call void @_ZN4base27HistogramDeltaSerialization24DeserializeAndAddSamplesERKNSt3__16vectorINS1_12basic_stringIcNS1_11char_traitsIcEENS1_9allocatorIcEEEENS6_IS8_EEEE(%"class.std::__1::vector"* %2) #6
  %4 = tail call %"class.content::HistogramSynchronizer::RequestContext"* @_ZN7content21HistogramSynchronizer14RequestContext17GetRequestContextEi(i32 %1)
  %5 = icmp eq %"class.content::HistogramSynchronizer::RequestContext"* %4, null
  br i1 %5, label %18, label %6

6:                                                ; preds = %3
  %7 = getelementptr inbounds %"class.content::HistogramSynchronizer::RequestContext", %"class.content::HistogramSynchronizer::RequestContext"* %4, i64 0, i32 4
  %8 = load i32, i32* %7, align 8
  %9 = add nsw i32 %8, -1
  store i32 %9, i32* %7, align 8
  %10 = icmp slt i32 %8, 2
  br i1 %10, label %11, label %18

11:                                               ; preds = %6
  %12 = getelementptr inbounds %"class.content::HistogramSynchronizer::RequestContext", %"class.content::HistogramSynchronizer::RequestContext"* %4, i64 0, i32 2
  %13 = load i8, i8* %12, align 4, !range !24
  %14 = icmp eq i8 %13, 0
  br i1 %14, label %18, label %15

15:                                               ; preds = %11
  %16 = getelementptr inbounds %"class.content::HistogramSynchronizer::RequestContext", %"class.content::HistogramSynchronizer::RequestContext"* %4, i64 0, i32 1
  %17 = load i32, i32* %16, align 8
  tail call void @_ZN7content21HistogramSynchronizer14RequestContext10UnregisterEi(i32 %17) #6
  br label %18

18:                                               ; preds = %15, %11, %6, %3
  ret void
}

declare void @_ZN4base27HistogramDeltaSerialization24DeserializeAndAddSamplesERKNSt3__16vectorINS1_12basic_stringIcNS1_11char_traitsIcEENS1_9allocatorIcEEEENS6_IS8_EEEE(%"class.std::__1::vector"*) local_unnamed_addr #1

; Function Attrs: nounwind ssp uwtable
define hidden void @_ZN7content21HistogramSynchronizer16InternalPostTaskE13scoped_refptrIN4base10TaskRunnerEENS2_12OnceCallbackIFvvEEE(%"class.content::HistogramSynchronizer"* nocapture readnone, %"class.base::TaskRunner"*, %"class.base::OnceCallback"* nocapture) local_unnamed_addr #0 align 2 {
  %4 = alloca %"class.base::Location", align 8
  %5 = alloca %"class.base::OnceCallback", align 8
  %6 = getelementptr inbounds %"class.base::OnceCallback", %"class.base::OnceCallback"* %2, i64 0, i32 0, i32 0, i32 0
  %7 = load %"class.base::internal::BindStateBase"*, %"class.base::internal::BindStateBase"** %6, align 8
  %8 = icmp eq %"class.base::internal::BindStateBase"* %7, null
  %9 = icmp eq %"class.base::TaskRunner"* %1, null
  br i1 %8, label %18, label %10

10:                                               ; preds = %3
  br i1 %9, label %27, label %11

11:                                               ; preds = %10
  %12 = bitcast %"class.base::Location"* %4 to i8*
  call void @llvm.lifetime.start.p0i8(i64 32, i8* nonnull %12) #6
  call void @_ZN4base8Location7CurrentEPKcS2_i(%"class.base::Location"* nonnull sret %4, i8* getelementptr inbounds ([17 x i8], [17 x i8]* @.str.4, i64 0, i64 0), i8* getelementptr inbounds ([56 x i8], [56 x i8]* @.str.1, i64 0, i64 0), i32 321) #6
  %13 = bitcast %"class.base::OnceCallback"* %2 to i64*
  %14 = load i64, i64* %13, align 8
  %15 = bitcast %"class.base::OnceCallback"* %5 to i64*
  store i64 %14, i64* %15, align 8
  store %"class.base::internal::BindStateBase"* null, %"class.base::internal::BindStateBase"** %6, align 8
  %16 = call zeroext i1 @_ZN4base10TaskRunner8PostTaskERKNS_8LocationENS_12OnceCallbackIFvvEEE(%"class.base::TaskRunner"* nonnull %1, %"class.base::Location"* nonnull dereferenceable(32) %4, %"class.base::OnceCallback"* nonnull %5) #6
  %17 = getelementptr inbounds %"class.base::OnceCallback", %"class.base::OnceCallback"* %5, i64 0, i32 0
  call void @_ZN4base8internal12CallbackBaseD2Ev(%"class.base::internal::CallbackBase"* nonnull %17) #6
  call void @llvm.lifetime.end.p0i8(i64 32, i8* nonnull %12) #6
  br label %19

18:                                               ; preds = %3
  br i1 %9, label %27, label %19

19:                                               ; preds = %11, %18
  %20 = getelementptr inbounds %"class.base::TaskRunner", %"class.base::TaskRunner"* %1, i64 0, i32 1
  %21 = getelementptr inbounds %"class.base::RefCountedThreadSafe.2", %"class.base::RefCountedThreadSafe.2"* %20, i64 0, i32 0, i32 0, i32 0, i32 0, i32 0, i32 0, i32 0, i32 0
  %22 = atomicrmw sub i32* %21, i32 1 acq_rel
  %23 = icmp eq i32 %22, 1
  br i1 %23, label %24, label %27

24:                                               ; preds = %19
  %25 = getelementptr inbounds %"class.base::RefCountedThreadSafe.2", %"class.base::RefCountedThreadSafe.2"* %20, i64 -2
  %26 = bitcast %"class.base::RefCountedThreadSafe.2"* %25 to %"class.base::TaskRunner"*
  call void @_ZN4base16TaskRunnerTraits8DestructEPKNS_10TaskRunnerE(%"class.base::TaskRunner"* %26) #6
  br label %27

27:                                               ; preds = %10, %18, %19, %24
  ret void
}

declare void @_ZN4base8internal12CallbackBase5ResetEv(%"class.base::internal::CallbackBase"*) local_unnamed_addr #1

declare void @_ZN4base8internal8LockImplC1Ev(%"class.base::internal::LockImpl"*) unnamed_addr #1

declare zeroext i1 @_ZN4base8internal17NeedsLazyInstanceEPl(i64*) local_unnamed_addr #1

declare void @_ZN4base8internal20CompleteLazyInstanceEPllPFvPvES2_(i64*, i64, void (i8*)*, i8*) local_unnamed_addr #1

; Function Attrs: nounwind ssp uwtable
define linkonce_odr hidden void @_ZNSt3__113__tree_removeIPNS_16__tree_node_baseIPvEEEEvT_S5_(%"class.std::__1::__tree_node_base"*, %"class.std::__1::__tree_node_base"*) local_unnamed_addr #0 comdat {
  %3 = getelementptr inbounds %"class.std::__1::__tree_node_base", %"class.std::__1::__tree_node_base"* %1, i64 0, i32 0, i32 0
  %4 = load %"class.std::__1::__tree_node_base"*, %"class.std::__1::__tree_node_base"** %3, align 8
  %5 = icmp eq %"class.std::__1::__tree_node_base"* %4, null
  br i1 %5, label %17, label %6

6:                                                ; preds = %2
  %7 = getelementptr inbounds %"class.std::__1::__tree_node_base", %"class.std::__1::__tree_node_base"* %1, i64 0, i32 1
  %8 = load %"class.std::__1::__tree_node_base"*, %"class.std::__1::__tree_node_base"** %7, align 8
  %9 = icmp eq %"class.std::__1::__tree_node_base"* %8, null
  br i1 %9, label %15, label %10

10:                                               ; preds = %6, %10
  %11 = phi %"class.std::__1::__tree_node_base"* [ %13, %10 ], [ %8, %6 ]
  %12 = getelementptr inbounds %"class.std::__1::__tree_node_base", %"class.std::__1::__tree_node_base"* %11, i64 0, i32 0, i32 0
  %13 = load %"class.std::__1::__tree_node_base"*, %"class.std::__1::__tree_node_base"** %12, align 8
  %14 = icmp eq %"class.std::__1::__tree_node_base"* %13, null
  br i1 %14, label %17, label %10

15:                                               ; preds = %6
  %16 = getelementptr inbounds %"class.std::__1::__tree_node_base", %"class.std::__1::__tree_node_base"* %1, i64 0, i32 0, i32 0
  br label %23

17:                                               ; preds = %10, %2
  %18 = phi %"class.std::__1::__tree_node_base"* [ %1, %2 ], [ %11, %10 ]
  %19 = getelementptr inbounds %"class.std::__1::__tree_node_base", %"class.std::__1::__tree_node_base"* %18, i64 0, i32 0, i32 0
  %20 = getelementptr inbounds %"class.std::__1::__tree_node_base", %"class.std::__1::__tree_node_base"* %18, i64 0, i32 1
  %21 = load %"class.std::__1::__tree_node_base"*, %"class.std::__1::__tree_node_base"** %20, align 8
  %22 = icmp eq %"class.std::__1::__tree_node_base"* %21, null
  br i1 %22, label %32, label %23

23:                                               ; preds = %15, %17
  %24 = phi %"class.std::__1::__tree_node_base"** [ %19, %17 ], [ %16, %15 ]
  %25 = phi %"class.std::__1::__tree_node_base"* [ %18, %17 ], [ %1, %15 ]
  %26 = phi %"class.std::__1::__tree_node_base"* [ %21, %17 ], [ %4, %15 ]
  %27 = getelementptr inbounds %"class.std::__1::__tree_node_base", %"class.std::__1::__tree_node_base"* %25, i64 0, i32 2
  %28 = bitcast %"class.std::__1::__tree_end_node"** %27 to i64*
  %29 = load i64, i64* %28, align 8
  %30 = getelementptr inbounds %"class.std::__1::__tree_node_base", %"class.std::__1::__tree_node_base"* %26, i64 0, i32 2
  %31 = bitcast %"class.std::__1::__tree_end_node"** %30 to i64*
  store i64 %29, i64* %31, align 8
  br label %32

32:                                               ; preds = %17, %23
  %33 = phi %"class.std::__1::__tree_node_base"** [ %24, %23 ], [ %19, %17 ]
  %34 = phi %"class.std::__1::__tree_node_base"* [ %25, %23 ], [ %18, %17 ]
  %35 = phi i1 [ true, %23 ], [ false, %17 ]
  %36 = phi %"class.std::__1::__tree_node_base"* [ %26, %23 ], [ null, %17 ]
  %37 = getelementptr inbounds %"class.std::__1::__tree_node_base", %"class.std::__1::__tree_node_base"* %34, i64 0, i32 2
  %38 = load %"class.std::__1::__tree_end_node"*, %"class.std::__1::__tree_end_node"** %37, align 8
  %39 = getelementptr inbounds %"class.std::__1::__tree_end_node", %"class.std::__1::__tree_end_node"* %38, i64 0, i32 0
  %40 = load %"class.std::__1::__tree_node_base"*, %"class.std::__1::__tree_node_base"** %39, align 8
  %41 = icmp eq %"class.std::__1::__tree_node_base"* %40, %34
  br i1 %41, label %42, label %48

42:                                               ; preds = %32
  store %"class.std::__1::__tree_node_base"* %36, %"class.std::__1::__tree_node_base"** %39, align 8
  %43 = icmp eq %"class.std::__1::__tree_node_base"* %34, %0
  br i1 %43, label %55, label %44

44:                                               ; preds = %42
  %45 = bitcast %"class.std::__1::__tree_end_node"** %37 to %"class.std::__1::__tree_node_base"**
  %46 = load %"class.std::__1::__tree_node_base"*, %"class.std::__1::__tree_node_base"** %45, align 8
  %47 = getelementptr inbounds %"class.std::__1::__tree_node_base", %"class.std::__1::__tree_node_base"* %46, i64 0, i32 1
  br label %52

48:                                               ; preds = %32
  %49 = getelementptr inbounds %"class.std::__1::__tree_end_node", %"class.std::__1::__tree_end_node"* %38, i64 1, i32 0
  store %"class.std::__1::__tree_node_base"* %36, %"class.std::__1::__tree_node_base"** %49, align 8
  %50 = load %"class.std::__1::__tree_end_node"*, %"class.std::__1::__tree_end_node"** %37, align 8
  %51 = getelementptr inbounds %"class.std::__1::__tree_end_node", %"class.std::__1::__tree_end_node"* %50, i64 0, i32 0
  br label %52

52:                                               ; preds = %48, %44
  %53 = phi %"class.std::__1::__tree_node_base"** [ %47, %44 ], [ %51, %48 ]
  %54 = load %"class.std::__1::__tree_node_base"*, %"class.std::__1::__tree_node_base"** %53, align 8
  br label %55

55:                                               ; preds = %52, %42
  %56 = phi %"class.std::__1::__tree_node_base"* [ %36, %42 ], [ %0, %52 ]
  %57 = phi %"class.std::__1::__tree_node_base"* [ null, %42 ], [ %54, %52 ]
  %58 = getelementptr inbounds %"class.std::__1::__tree_node_base", %"class.std::__1::__tree_node_base"* %34, i64 0, i32 3
  %59 = load i8, i8* %58, align 8, !range !24
  %60 = icmp ne i8 %59, 0
  %61 = icmp eq %"class.std::__1::__tree_node_base"* %34, %1
  br i1 %61, label %90, label %62

62:                                               ; preds = %55
  %63 = getelementptr inbounds %"class.std::__1::__tree_node_base", %"class.std::__1::__tree_node_base"* %1, i64 0, i32 2
  %64 = bitcast %"class.std::__1::__tree_end_node"** %63 to i64*
  %65 = load i64, i64* %64, align 8
  %66 = bitcast %"class.std::__1::__tree_end_node"** %37 to i64*
  store i64 %65, i64* %66, align 8
  %67 = load %"class.std::__1::__tree_end_node"*, %"class.std::__1::__tree_end_node"** %63, align 8
  %68 = getelementptr inbounds %"class.std::__1::__tree_end_node", %"class.std::__1::__tree_end_node"* %67, i64 0, i32 0
  %69 = load %"class.std::__1::__tree_node_base"*, %"class.std::__1::__tree_node_base"** %68, align 8
  %70 = icmp eq %"class.std::__1::__tree_node_base"* %69, %1
  %71 = inttoptr i64 %65 to %"class.std::__1::__tree_node_base"*
  %72 = getelementptr inbounds %"class.std::__1::__tree_node_base", %"class.std::__1::__tree_node_base"* %71, i64 0, i32 1
  %73 = inttoptr i64 %65 to %"class.std::__1::__tree_end_node"*
  %74 = getelementptr inbounds %"class.std::__1::__tree_end_node", %"class.std::__1::__tree_end_node"* %73, i64 0, i32 0
  %75 = select i1 %70, %"class.std::__1::__tree_node_base"** %74, %"class.std::__1::__tree_node_base"** %72
  store %"class.std::__1::__tree_node_base"* %34, %"class.std::__1::__tree_node_base"** %75, align 8
  %76 = load %"class.std::__1::__tree_node_base"*, %"class.std::__1::__tree_node_base"** %3, align 8
  store %"class.std::__1::__tree_node_base"* %76, %"class.std::__1::__tree_node_base"** %33, align 8
  %77 = getelementptr inbounds %"class.std::__1::__tree_node_base", %"class.std::__1::__tree_node_base"* %34, i64 0, i32 0
  %78 = getelementptr inbounds %"class.std::__1::__tree_node_base", %"class.std::__1::__tree_node_base"* %76, i64 0, i32 2
  store %"class.std::__1::__tree_end_node"* %77, %"class.std::__1::__tree_end_node"** %78, align 8
  %79 = getelementptr inbounds %"class.std::__1::__tree_node_base", %"class.std::__1::__tree_node_base"* %1, i64 0, i32 1
  %80 = load %"class.std::__1::__tree_node_base"*, %"class.std::__1::__tree_node_base"** %79, align 8
  %81 = getelementptr inbounds %"class.std::__1::__tree_node_base", %"class.std::__1::__tree_node_base"* %34, i64 0, i32 1
  store %"class.std::__1::__tree_node_base"* %80, %"class.std::__1::__tree_node_base"** %81, align 8
  %82 = icmp eq %"class.std::__1::__tree_node_base"* %80, null
  br i1 %82, label %85, label %83

83:                                               ; preds = %62
  %84 = getelementptr inbounds %"class.std::__1::__tree_node_base", %"class.std::__1::__tree_node_base"* %80, i64 0, i32 2
  store %"class.std::__1::__tree_end_node"* %77, %"class.std::__1::__tree_end_node"** %84, align 8
  br label %85

85:                                               ; preds = %62, %83
  %86 = getelementptr inbounds %"class.std::__1::__tree_node_base", %"class.std::__1::__tree_node_base"* %1, i64 0, i32 3
  %87 = load i8, i8* %86, align 8, !range !24
  store i8 %87, i8* %58, align 8
  %88 = icmp eq %"class.std::__1::__tree_node_base"* %56, %1
  %89 = select i1 %88, %"class.std::__1::__tree_node_base"* %34, %"class.std::__1::__tree_node_base"* %56
  br label %90

90:                                               ; preds = %85, %55
  %91 = phi %"class.std::__1::__tree_node_base"* [ %56, %55 ], [ %89, %85 ]
  %92 = icmp ne %"class.std::__1::__tree_node_base"* %91, null
  %93 = and i1 %60, %92
  br i1 %93, label %94, label %382

94:                                               ; preds = %90
  br i1 %35, label %95, label %97

95:                                               ; preds = %94
  %96 = getelementptr inbounds %"class.std::__1::__tree_node_base", %"class.std::__1::__tree_node_base"* %36, i64 0, i32 3
  store i8 1, i8* %96, align 8
  br label %382

97:                                               ; preds = %94, %371
  %98 = phi %"class.std::__1::__tree_node_base"* [ %373, %371 ], [ %91, %94 ]
  %99 = phi %"class.std::__1::__tree_node_base"* [ %381, %371 ], [ %57, %94 ]
  %100 = getelementptr inbounds %"class.std::__1::__tree_node_base", %"class.std::__1::__tree_node_base"* %99, i64 0, i32 2
  %101 = load %"class.std::__1::__tree_end_node"*, %"class.std::__1::__tree_end_node"** %100, align 8
  %102 = getelementptr inbounds %"class.std::__1::__tree_end_node", %"class.std::__1::__tree_end_node"* %101, i64 0, i32 0
  %103 = load %"class.std::__1::__tree_node_base"*, %"class.std::__1::__tree_node_base"** %102, align 8
  %104 = icmp eq %"class.std::__1::__tree_node_base"* %103, %99
  %105 = getelementptr inbounds %"class.std::__1::__tree_node_base", %"class.std::__1::__tree_node_base"* %99, i64 0, i32 3
  %106 = load i8, i8* %105, align 8, !range !24
  %107 = icmp ne i8 %106, 0
  br i1 %104, label %242, label %108

108:                                              ; preds = %97
  br i1 %107, label %141, label %109

109:                                              ; preds = %108
  store i8 1, i8* %105, align 8
  %110 = bitcast %"class.std::__1::__tree_end_node"** %100 to %"class.std::__1::__tree_node_base"**
  %111 = getelementptr inbounds %"class.std::__1::__tree_end_node", %"class.std::__1::__tree_end_node"* %101, i64 3
  %112 = bitcast %"class.std::__1::__tree_end_node"* %111 to i8*
  store i8 0, i8* %112, align 8
  %113 = load %"class.std::__1::__tree_node_base"*, %"class.std::__1::__tree_node_base"** %110, align 8
  %114 = getelementptr inbounds %"class.std::__1::__tree_node_base", %"class.std::__1::__tree_node_base"* %113, i64 0, i32 1
  %115 = load %"class.std::__1::__tree_node_base"*, %"class.std::__1::__tree_node_base"** %114, align 8
  %116 = getelementptr inbounds %"class.std::__1::__tree_node_base", %"class.std::__1::__tree_node_base"* %115, i64 0, i32 0, i32 0
  %117 = load %"class.std::__1::__tree_node_base"*, %"class.std::__1::__tree_node_base"** %116, align 8
  store %"class.std::__1::__tree_node_base"* %117, %"class.std::__1::__tree_node_base"** %114, align 8
  %118 = icmp eq %"class.std::__1::__tree_node_base"* %117, null
  br i1 %118, label %122, label %119

119:                                              ; preds = %109
  %120 = getelementptr inbounds %"class.std::__1::__tree_node_base", %"class.std::__1::__tree_node_base"* %113, i64 0, i32 0
  %121 = getelementptr inbounds %"class.std::__1::__tree_node_base", %"class.std::__1::__tree_node_base"* %117, i64 0, i32 2
  store %"class.std::__1::__tree_end_node"* %120, %"class.std::__1::__tree_end_node"** %121, align 8
  br label %122

122:                                              ; preds = %119, %109
  %123 = getelementptr inbounds %"class.std::__1::__tree_node_base", %"class.std::__1::__tree_node_base"* %113, i64 0, i32 2
  %124 = bitcast %"class.std::__1::__tree_end_node"** %123 to i64*
  %125 = load i64, i64* %124, align 8
  %126 = getelementptr inbounds %"class.std::__1::__tree_node_base", %"class.std::__1::__tree_node_base"* %115, i64 0, i32 2
  %127 = bitcast %"class.std::__1::__tree_end_node"** %126 to i64*
  store i64 %125, i64* %127, align 8
  %128 = load %"class.std::__1::__tree_end_node"*, %"class.std::__1::__tree_end_node"** %123, align 8
  %129 = getelementptr inbounds %"class.std::__1::__tree_end_node", %"class.std::__1::__tree_end_node"* %128, i64 0, i32 0
  %130 = load %"class.std::__1::__tree_node_base"*, %"class.std::__1::__tree_node_base"** %129, align 8
  %131 = icmp eq %"class.std::__1::__tree_node_base"* %130, %113
  %132 = getelementptr inbounds %"class.std::__1::__tree_end_node", %"class.std::__1::__tree_end_node"* %128, i64 1, i32 0
  %133 = select i1 %131, %"class.std::__1::__tree_node_base"** %129, %"class.std::__1::__tree_node_base"** %132
  store %"class.std::__1::__tree_node_base"* %115, %"class.std::__1::__tree_node_base"** %133, align 8
  store %"class.std::__1::__tree_node_base"* %113, %"class.std::__1::__tree_node_base"** %116, align 8
  %134 = getelementptr inbounds %"class.std::__1::__tree_node_base", %"class.std::__1::__tree_node_base"* %115, i64 0, i32 0
  store %"class.std::__1::__tree_end_node"* %134, %"class.std::__1::__tree_end_node"** %123, align 8
  %135 = getelementptr inbounds %"class.std::__1::__tree_node_base", %"class.std::__1::__tree_node_base"* %99, i64 0, i32 0, i32 0
  %136 = load %"class.std::__1::__tree_node_base"*, %"class.std::__1::__tree_node_base"** %135, align 8
  %137 = icmp eq %"class.std::__1::__tree_node_base"* %98, %136
  %138 = select i1 %137, %"class.std::__1::__tree_node_base"* %99, %"class.std::__1::__tree_node_base"* %98
  %139 = getelementptr inbounds %"class.std::__1::__tree_node_base", %"class.std::__1::__tree_node_base"* %136, i64 0, i32 1
  %140 = load %"class.std::__1::__tree_node_base"*, %"class.std::__1::__tree_node_base"** %139, align 8
  br label %141

141:                                              ; preds = %122, %108
  %142 = phi %"class.std::__1::__tree_node_base"* [ %98, %108 ], [ %138, %122 ]
  %143 = phi %"class.std::__1::__tree_node_base"* [ %99, %108 ], [ %140, %122 ]
  %144 = getelementptr inbounds %"class.std::__1::__tree_node_base", %"class.std::__1::__tree_node_base"* %143, i64 0, i32 0, i32 0
  %145 = load %"class.std::__1::__tree_node_base"*, %"class.std::__1::__tree_node_base"** %144, align 8
  %146 = icmp eq %"class.std::__1::__tree_node_base"* %145, null
  br i1 %146, label %151, label %147

147:                                              ; preds = %141
  %148 = getelementptr inbounds %"class.std::__1::__tree_node_base", %"class.std::__1::__tree_node_base"* %145, i64 0, i32 3
  %149 = load i8, i8* %148, align 8, !range !24
  %150 = icmp eq i8 %149, 0
  br i1 %150, label %172, label %151

151:                                              ; preds = %147, %141
  %152 = getelementptr inbounds %"class.std::__1::__tree_node_base", %"class.std::__1::__tree_node_base"* %143, i64 0, i32 1
  %153 = load %"class.std::__1::__tree_node_base"*, %"class.std::__1::__tree_node_base"** %152, align 8
  %154 = icmp eq %"class.std::__1::__tree_node_base"* %153, null
  br i1 %154, label %159, label %155

155:                                              ; preds = %151
  %156 = getelementptr inbounds %"class.std::__1::__tree_node_base", %"class.std::__1::__tree_node_base"* %153, i64 0, i32 3
  %157 = load i8, i8* %156, align 8, !range !24
  %158 = icmp eq i8 %157, 0
  br i1 %158, label %177, label %159

159:                                              ; preds = %155, %151
  %160 = getelementptr inbounds %"class.std::__1::__tree_node_base", %"class.std::__1::__tree_node_base"* %143, i64 0, i32 3
  store i8 0, i8* %160, align 8
  %161 = getelementptr inbounds %"class.std::__1::__tree_node_base", %"class.std::__1::__tree_node_base"* %143, i64 0, i32 2
  %162 = bitcast %"class.std::__1::__tree_end_node"** %161 to %"class.std::__1::__tree_node_base"**
  %163 = load %"class.std::__1::__tree_node_base"*, %"class.std::__1::__tree_node_base"** %162, align 8
  %164 = icmp eq %"class.std::__1::__tree_node_base"* %163, %142
  br i1 %164, label %169, label %165

165:                                              ; preds = %159
  %166 = getelementptr inbounds %"class.std::__1::__tree_node_base", %"class.std::__1::__tree_node_base"* %163, i64 0, i32 3
  %167 = load i8, i8* %166, align 8, !range !24
  %168 = icmp eq i8 %167, 0
  br i1 %168, label %169, label %371

169:                                              ; preds = %165, %159
  %170 = phi %"class.std::__1::__tree_node_base"* [ %163, %165 ], [ %142, %159 ]
  %171 = getelementptr inbounds %"class.std::__1::__tree_node_base", %"class.std::__1::__tree_node_base"* %170, i64 0, i32 3
  store i8 1, i8* %171, align 8
  br label %382

172:                                              ; preds = %147
  %173 = getelementptr inbounds %"class.std::__1::__tree_node_base", %"class.std::__1::__tree_node_base"* %143, i64 0, i32 0, i32 0
  %174 = getelementptr inbounds %"class.std::__1::__tree_node_base", %"class.std::__1::__tree_node_base"* %143, i64 0, i32 1
  %175 = load %"class.std::__1::__tree_node_base"*, %"class.std::__1::__tree_node_base"** %174, align 8
  %176 = icmp eq %"class.std::__1::__tree_node_base"* %175, null
  br i1 %176, label %185, label %179

177:                                              ; preds = %155
  %178 = getelementptr inbounds %"class.std::__1::__tree_node_base", %"class.std::__1::__tree_node_base"* %143, i64 0, i32 0, i32 0
  br label %179

179:                                              ; preds = %177, %172
  %180 = phi %"class.std::__1::__tree_node_base"** [ %173, %172 ], [ %178, %177 ]
  %181 = phi %"class.std::__1::__tree_node_base"* [ %175, %172 ], [ %153, %177 ]
  %182 = getelementptr inbounds %"class.std::__1::__tree_node_base", %"class.std::__1::__tree_node_base"* %181, i64 0, i32 3
  %183 = load i8, i8* %182, align 8, !range !24
  %184 = icmp eq i8 %183, 0
  br i1 %184, label %209, label %185

185:                                              ; preds = %179, %172
  %186 = phi %"class.std::__1::__tree_node_base"** [ %180, %179 ], [ %173, %172 ]
  %187 = getelementptr inbounds %"class.std::__1::__tree_node_base", %"class.std::__1::__tree_node_base"* %145, i64 0, i32 3
  store i8 1, i8* %187, align 8
  %188 = getelementptr inbounds %"class.std::__1::__tree_node_base", %"class.std::__1::__tree_node_base"* %143, i64 0, i32 3
  store i8 0, i8* %188, align 8
  %189 = load %"class.std::__1::__tree_node_base"*, %"class.std::__1::__tree_node_base"** %186, align 8
  %190 = getelementptr inbounds %"class.std::__1::__tree_node_base", %"class.std::__1::__tree_node_base"* %189, i64 0, i32 1
  %191 = load %"class.std::__1::__tree_node_base"*, %"class.std::__1::__tree_node_base"** %190, align 8
  store %"class.std::__1::__tree_node_base"* %191, %"class.std::__1::__tree_node_base"** %186, align 8
  %192 = icmp eq %"class.std::__1::__tree_node_base"* %191, null
  br i1 %192, label %196, label %193

193:                                              ; preds = %185
  %194 = getelementptr inbounds %"class.std::__1::__tree_node_base", %"class.std::__1::__tree_node_base"* %143, i64 0, i32 0
  %195 = getelementptr inbounds %"class.std::__1::__tree_node_base", %"class.std::__1::__tree_node_base"* %191, i64 0, i32 2
  store %"class.std::__1::__tree_end_node"* %194, %"class.std::__1::__tree_end_node"** %195, align 8
  br label %196

196:                                              ; preds = %193, %185
  %197 = getelementptr inbounds %"class.std::__1::__tree_node_base", %"class.std::__1::__tree_node_base"* %143, i64 0, i32 2
  %198 = bitcast %"class.std::__1::__tree_end_node"** %197 to i64*
  %199 = load i64, i64* %198, align 8
  %200 = getelementptr inbounds %"class.std::__1::__tree_node_base", %"class.std::__1::__tree_node_base"* %189, i64 0, i32 2
  %201 = bitcast %"class.std::__1::__tree_end_node"** %200 to i64*
  store i64 %199, i64* %201, align 8
  %202 = load %"class.std::__1::__tree_end_node"*, %"class.std::__1::__tree_end_node"** %197, align 8
  %203 = getelementptr inbounds %"class.std::__1::__tree_end_node", %"class.std::__1::__tree_end_node"* %202, i64 0, i32 0
  %204 = load %"class.std::__1::__tree_node_base"*, %"class.std::__1::__tree_node_base"** %203, align 8
  %205 = icmp eq %"class.std::__1::__tree_node_base"* %204, %143
  %206 = getelementptr inbounds %"class.std::__1::__tree_end_node", %"class.std::__1::__tree_end_node"* %202, i64 1, i32 0
  %207 = select i1 %205, %"class.std::__1::__tree_node_base"** %203, %"class.std::__1::__tree_node_base"** %206
  store %"class.std::__1::__tree_node_base"* %189, %"class.std::__1::__tree_node_base"** %207, align 8
  store %"class.std::__1::__tree_node_base"* %143, %"class.std::__1::__tree_node_base"** %190, align 8
  %208 = getelementptr inbounds %"class.std::__1::__tree_node_base", %"class.std::__1::__tree_node_base"* %189, i64 0, i32 0
  store %"class.std::__1::__tree_end_node"* %208, %"class.std::__1::__tree_end_node"** %197, align 8
  br label %209

209:                                              ; preds = %179, %196
  %210 = phi %"class.std::__1::__tree_node_base"* [ %189, %196 ], [ %143, %179 ]
  %211 = getelementptr inbounds %"class.std::__1::__tree_node_base", %"class.std::__1::__tree_node_base"* %210, i64 0, i32 2
  %212 = bitcast %"class.std::__1::__tree_end_node"** %211 to %"class.std::__1::__tree_node_base"**
  %213 = load %"class.std::__1::__tree_node_base"*, %"class.std::__1::__tree_node_base"** %212, align 8
  %214 = getelementptr inbounds %"class.std::__1::__tree_node_base", %"class.std::__1::__tree_node_base"* %213, i64 0, i32 3
  %215 = load i8, i8* %214, align 8, !range !24
  %216 = getelementptr inbounds %"class.std::__1::__tree_node_base", %"class.std::__1::__tree_node_base"* %210, i64 0, i32 3
  store i8 %215, i8* %216, align 8
  store i8 1, i8* %214, align 8
  %217 = getelementptr inbounds %"class.std::__1::__tree_node_base", %"class.std::__1::__tree_node_base"* %210, i64 0, i32 1
  %218 = load %"class.std::__1::__tree_node_base"*, %"class.std::__1::__tree_node_base"** %217, align 8
  %219 = getelementptr inbounds %"class.std::__1::__tree_node_base", %"class.std::__1::__tree_node_base"* %218, i64 0, i32 3
  store i8 1, i8* %219, align 8
  %220 = load %"class.std::__1::__tree_node_base"*, %"class.std::__1::__tree_node_base"** %212, align 8
  %221 = getelementptr inbounds %"class.std::__1::__tree_node_base", %"class.std::__1::__tree_node_base"* %220, i64 0, i32 1
  %222 = load %"class.std::__1::__tree_node_base"*, %"class.std::__1::__tree_node_base"** %221, align 8
  %223 = getelementptr inbounds %"class.std::__1::__tree_node_base", %"class.std::__1::__tree_node_base"* %222, i64 0, i32 0, i32 0
  %224 = load %"class.std::__1::__tree_node_base"*, %"class.std::__1::__tree_node_base"** %223, align 8
  store %"class.std::__1::__tree_node_base"* %224, %"class.std::__1::__tree_node_base"** %221, align 8
  %225 = icmp eq %"class.std::__1::__tree_node_base"* %224, null
  br i1 %225, label %229, label %226

226:                                              ; preds = %209
  %227 = getelementptr inbounds %"class.std::__1::__tree_node_base", %"class.std::__1::__tree_node_base"* %220, i64 0, i32 0
  %228 = getelementptr inbounds %"class.std::__1::__tree_node_base", %"class.std::__1::__tree_node_base"* %224, i64 0, i32 2
  store %"class.std::__1::__tree_end_node"* %227, %"class.std::__1::__tree_end_node"** %228, align 8
  br label %229

229:                                              ; preds = %226, %209
  %230 = getelementptr inbounds %"class.std::__1::__tree_node_base", %"class.std::__1::__tree_node_base"* %220, i64 0, i32 2
  %231 = bitcast %"class.std::__1::__tree_end_node"** %230 to i64*
  %232 = load i64, i64* %231, align 8
  %233 = getelementptr inbounds %"class.std::__1::__tree_node_base", %"class.std::__1::__tree_node_base"* %222, i64 0, i32 2
  %234 = bitcast %"class.std::__1::__tree_end_node"** %233 to i64*
  store i64 %232, i64* %234, align 8
  %235 = load %"class.std::__1::__tree_end_node"*, %"class.std::__1::__tree_end_node"** %230, align 8
  %236 = getelementptr inbounds %"class.std::__1::__tree_end_node", %"class.std::__1::__tree_end_node"* %235, i64 0, i32 0
  %237 = load %"class.std::__1::__tree_node_base"*, %"class.std::__1::__tree_node_base"** %236, align 8
  %238 = icmp eq %"class.std::__1::__tree_node_base"* %237, %220
  %239 = getelementptr inbounds %"class.std::__1::__tree_end_node", %"class.std::__1::__tree_end_node"* %235, i64 1, i32 0
  %240 = select i1 %238, %"class.std::__1::__tree_node_base"** %236, %"class.std::__1::__tree_node_base"** %239
  store %"class.std::__1::__tree_node_base"* %222, %"class.std::__1::__tree_node_base"** %240, align 8
  store %"class.std::__1::__tree_node_base"* %220, %"class.std::__1::__tree_node_base"** %223, align 8
  %241 = getelementptr inbounds %"class.std::__1::__tree_node_base", %"class.std::__1::__tree_node_base"* %222, i64 0, i32 0
  store %"class.std::__1::__tree_end_node"* %241, %"class.std::__1::__tree_end_node"** %230, align 8
  br label %382

242:                                              ; preds = %97
  br i1 %107, label %275, label %243

243:                                              ; preds = %242
  store i8 1, i8* %105, align 8
  %244 = bitcast %"class.std::__1::__tree_end_node"** %100 to %"class.std::__1::__tree_node_base"**
  %245 = getelementptr inbounds %"class.std::__1::__tree_end_node", %"class.std::__1::__tree_end_node"* %101, i64 3
  %246 = bitcast %"class.std::__1::__tree_end_node"* %245 to i8*
  store i8 0, i8* %246, align 8
  %247 = load %"class.std::__1::__tree_node_base"*, %"class.std::__1::__tree_node_base"** %244, align 8
  %248 = getelementptr inbounds %"class.std::__1::__tree_node_base", %"class.std::__1::__tree_node_base"* %247, i64 0, i32 0, i32 0
  %249 = load %"class.std::__1::__tree_node_base"*, %"class.std::__1::__tree_node_base"** %248, align 8
  %250 = getelementptr inbounds %"class.std::__1::__tree_node_base", %"class.std::__1::__tree_node_base"* %249, i64 0, i32 1
  %251 = load %"class.std::__1::__tree_node_base"*, %"class.std::__1::__tree_node_base"** %250, align 8
  store %"class.std::__1::__tree_node_base"* %251, %"class.std::__1::__tree_node_base"** %248, align 8
  %252 = icmp eq %"class.std::__1::__tree_node_base"* %251, null
  br i1 %252, label %256, label %253

253:                                              ; preds = %243
  %254 = getelementptr inbounds %"class.std::__1::__tree_node_base", %"class.std::__1::__tree_node_base"* %247, i64 0, i32 0
  %255 = getelementptr inbounds %"class.std::__1::__tree_node_base", %"class.std::__1::__tree_node_base"* %251, i64 0, i32 2
  store %"class.std::__1::__tree_end_node"* %254, %"class.std::__1::__tree_end_node"** %255, align 8
  br label %256

256:                                              ; preds = %253, %243
  %257 = getelementptr inbounds %"class.std::__1::__tree_node_base", %"class.std::__1::__tree_node_base"* %247, i64 0, i32 2
  %258 = bitcast %"class.std::__1::__tree_end_node"** %257 to i64*
  %259 = load i64, i64* %258, align 8
  %260 = getelementptr inbounds %"class.std::__1::__tree_node_base", %"class.std::__1::__tree_node_base"* %249, i64 0, i32 2
  %261 = bitcast %"class.std::__1::__tree_end_node"** %260 to i64*
  store i64 %259, i64* %261, align 8
  %262 = load %"class.std::__1::__tree_end_node"*, %"class.std::__1::__tree_end_node"** %257, align 8
  %263 = getelementptr inbounds %"class.std::__1::__tree_end_node", %"class.std::__1::__tree_end_node"* %262, i64 0, i32 0
  %264 = load %"class.std::__1::__tree_node_base"*, %"class.std::__1::__tree_node_base"** %263, align 8
  %265 = icmp eq %"class.std::__1::__tree_node_base"* %264, %247
  %266 = getelementptr inbounds %"class.std::__1::__tree_end_node", %"class.std::__1::__tree_end_node"* %262, i64 1, i32 0
  %267 = select i1 %265, %"class.std::__1::__tree_node_base"** %263, %"class.std::__1::__tree_node_base"** %266
  store %"class.std::__1::__tree_node_base"* %249, %"class.std::__1::__tree_node_base"** %267, align 8
  store %"class.std::__1::__tree_node_base"* %247, %"class.std::__1::__tree_node_base"** %250, align 8
  %268 = getelementptr inbounds %"class.std::__1::__tree_node_base", %"class.std::__1::__tree_node_base"* %249, i64 0, i32 0
  store %"class.std::__1::__tree_end_node"* %268, %"class.std::__1::__tree_end_node"** %257, align 8
  %269 = getelementptr inbounds %"class.std::__1::__tree_node_base", %"class.std::__1::__tree_node_base"* %99, i64 0, i32 1
  %270 = load %"class.std::__1::__tree_node_base"*, %"class.std::__1::__tree_node_base"** %269, align 8
  %271 = icmp eq %"class.std::__1::__tree_node_base"* %98, %270
  %272 = select i1 %271, %"class.std::__1::__tree_node_base"* %99, %"class.std::__1::__tree_node_base"* %98
  %273 = getelementptr inbounds %"class.std::__1::__tree_node_base", %"class.std::__1::__tree_node_base"* %270, i64 0, i32 0, i32 0
  %274 = load %"class.std::__1::__tree_node_base"*, %"class.std::__1::__tree_node_base"** %273, align 8
  br label %275

275:                                              ; preds = %256, %242
  %276 = phi %"class.std::__1::__tree_node_base"* [ %98, %242 ], [ %272, %256 ]
  %277 = phi %"class.std::__1::__tree_node_base"* [ %99, %242 ], [ %274, %256 ]
  %278 = getelementptr inbounds %"class.std::__1::__tree_node_base", %"class.std::__1::__tree_node_base"* %277, i64 0, i32 0, i32 0
  %279 = load %"class.std::__1::__tree_node_base"*, %"class.std::__1::__tree_node_base"** %278, align 8
  %280 = icmp eq %"class.std::__1::__tree_node_base"* %279, null
  br i1 %280, label %285, label %281

281:                                              ; preds = %275
  %282 = getelementptr inbounds %"class.std::__1::__tree_node_base", %"class.std::__1::__tree_node_base"* %279, i64 0, i32 3
  %283 = load i8, i8* %282, align 8, !range !24
  %284 = icmp eq i8 %283, 0
  br i1 %284, label %338, label %285

285:                                              ; preds = %281, %275
  %286 = getelementptr inbounds %"class.std::__1::__tree_node_base", %"class.std::__1::__tree_node_base"* %277, i64 0, i32 1
  %287 = load %"class.std::__1::__tree_node_base"*, %"class.std::__1::__tree_node_base"** %286, align 8
  %288 = icmp eq %"class.std::__1::__tree_node_base"* %287, null
  br i1 %288, label %293, label %289

289:                                              ; preds = %285
  %290 = getelementptr inbounds %"class.std::__1::__tree_node_base", %"class.std::__1::__tree_node_base"* %287, i64 0, i32 3
  %291 = load i8, i8* %290, align 8, !range !24
  %292 = icmp eq i8 %291, 0
  br i1 %292, label %305, label %293

293:                                              ; preds = %289, %285
  %294 = getelementptr inbounds %"class.std::__1::__tree_node_base", %"class.std::__1::__tree_node_base"* %277, i64 0, i32 3
  store i8 0, i8* %294, align 8
  %295 = getelementptr inbounds %"class.std::__1::__tree_node_base", %"class.std::__1::__tree_node_base"* %277, i64 0, i32 2
  %296 = bitcast %"class.std::__1::__tree_end_node"** %295 to %"class.std::__1::__tree_node_base"**
  %297 = load %"class.std::__1::__tree_node_base"*, %"class.std::__1::__tree_node_base"** %296, align 8
  %298 = getelementptr inbounds %"class.std::__1::__tree_node_base", %"class.std::__1::__tree_node_base"* %297, i64 0, i32 3
  %299 = load i8, i8* %298, align 8, !range !24
  %300 = icmp eq i8 %299, 0
  %301 = icmp eq %"class.std::__1::__tree_node_base"* %297, %276
  %302 = or i1 %301, %300
  br i1 %302, label %303, label %371

303:                                              ; preds = %293
  %304 = getelementptr inbounds %"class.std::__1::__tree_node_base", %"class.std::__1::__tree_node_base"* %297, i64 0, i32 3
  store i8 1, i8* %304, align 8
  br label %382

305:                                              ; preds = %289
  br i1 %280, label %313, label %306

306:                                              ; preds = %305
  %307 = getelementptr inbounds %"class.std::__1::__tree_node_base", %"class.std::__1::__tree_node_base"* %279, i64 0, i32 3
  %308 = load i8, i8* %307, align 8, !range !24
  %309 = icmp eq i8 %308, 0
  br i1 %309, label %338, label %310

310:                                              ; preds = %306
  %311 = getelementptr inbounds %"class.std::__1::__tree_node_base", %"class.std::__1::__tree_node_base"* %277, i64 0, i32 1
  %312 = load %"class.std::__1::__tree_node_base"*, %"class.std::__1::__tree_node_base"** %311, align 8
  br label %313

313:                                              ; preds = %310, %305
  %314 = phi %"class.std::__1::__tree_node_base"* [ %312, %310 ], [ %287, %305 ]
  %315 = getelementptr inbounds %"class.std::__1::__tree_node_base", %"class.std::__1::__tree_node_base"* %277, i64 0, i32 1
  %316 = getelementptr inbounds %"class.std::__1::__tree_node_base", %"class.std::__1::__tree_node_base"* %314, i64 0, i32 3
  store i8 1, i8* %316, align 8
  %317 = getelementptr inbounds %"class.std::__1::__tree_node_base", %"class.std::__1::__tree_node_base"* %277, i64 0, i32 3
  store i8 0, i8* %317, align 8
  %318 = load %"class.std::__1::__tree_node_base"*, %"class.std::__1::__tree_node_base"** %315, align 8
  %319 = getelementptr inbounds %"class.std::__1::__tree_node_base", %"class.std::__1::__tree_node_base"* %318, i64 0, i32 0, i32 0
  %320 = load %"class.std::__1::__tree_node_base"*, %"class.std::__1::__tree_node_base"** %319, align 8
  store %"class.std::__1::__tree_node_base"* %320, %"class.std::__1::__tree_node_base"** %315, align 8
  %321 = icmp eq %"class.std::__1::__tree_node_base"* %320, null
  br i1 %321, label %325, label %322

322:                                              ; preds = %313
  %323 = getelementptr inbounds %"class.std::__1::__tree_node_base", %"class.std::__1::__tree_node_base"* %277, i64 0, i32 0
  %324 = getelementptr inbounds %"class.std::__1::__tree_node_base", %"class.std::__1::__tree_node_base"* %320, i64 0, i32 2
  store %"class.std::__1::__tree_end_node"* %323, %"class.std::__1::__tree_end_node"** %324, align 8
  br label %325

325:                                              ; preds = %322, %313
  %326 = getelementptr inbounds %"class.std::__1::__tree_node_base", %"class.std::__1::__tree_node_base"* %277, i64 0, i32 2
  %327 = bitcast %"class.std::__1::__tree_end_node"** %326 to i64*
  %328 = load i64, i64* %327, align 8
  %329 = getelementptr inbounds %"class.std::__1::__tree_node_base", %"class.std::__1::__tree_node_base"* %318, i64 0, i32 2
  %330 = bitcast %"class.std::__1::__tree_end_node"** %329 to i64*
  store i64 %328, i64* %330, align 8
  %331 = load %"class.std::__1::__tree_end_node"*, %"class.std::__1::__tree_end_node"** %326, align 8
  %332 = getelementptr inbounds %"class.std::__1::__tree_end_node", %"class.std::__1::__tree_end_node"* %331, i64 0, i32 0
  %333 = load %"class.std::__1::__tree_node_base"*, %"class.std::__1::__tree_node_base"** %332, align 8
  %334 = icmp eq %"class.std::__1::__tree_node_base"* %333, %277
  %335 = getelementptr inbounds %"class.std::__1::__tree_end_node", %"class.std::__1::__tree_end_node"* %331, i64 1, i32 0
  %336 = select i1 %334, %"class.std::__1::__tree_node_base"** %332, %"class.std::__1::__tree_node_base"** %335
  store %"class.std::__1::__tree_node_base"* %318, %"class.std::__1::__tree_node_base"** %336, align 8
  store %"class.std::__1::__tree_node_base"* %277, %"class.std::__1::__tree_node_base"** %319, align 8
  %337 = getelementptr inbounds %"class.std::__1::__tree_node_base", %"class.std::__1::__tree_node_base"* %318, i64 0, i32 0
  store %"class.std::__1::__tree_end_node"* %337, %"class.std::__1::__tree_end_node"** %326, align 8
  br label %338

338:                                              ; preds = %281, %306, %325
  %339 = phi %"class.std::__1::__tree_node_base"* [ %318, %325 ], [ %277, %306 ], [ %277, %281 ]
  %340 = getelementptr inbounds %"class.std::__1::__tree_node_base", %"class.std::__1::__tree_node_base"* %339, i64 0, i32 2
  %341 = bitcast %"class.std::__1::__tree_end_node"** %340 to %"class.std::__1::__tree_node_base"**
  %342 = load %"class.std::__1::__tree_node_base"*, %"class.std::__1::__tree_node_base"** %341, align 8
  %343 = getelementptr inbounds %"class.std::__1::__tree_node_base", %"class.std::__1::__tree_node_base"* %342, i64 0, i32 3
  %344 = load i8, i8* %343, align 8, !range !24
  %345 = getelementptr inbounds %"class.std::__1::__tree_node_base", %"class.std::__1::__tree_node_base"* %339, i64 0, i32 3
  store i8 %344, i8* %345, align 8
  store i8 1, i8* %343, align 8
  %346 = getelementptr inbounds %"class.std::__1::__tree_node_base", %"class.std::__1::__tree_node_base"* %339, i64 0, i32 0, i32 0
  %347 = load %"class.std::__1::__tree_node_base"*, %"class.std::__1::__tree_node_base"** %346, align 8
  %348 = getelementptr inbounds %"class.std::__1::__tree_node_base", %"class.std::__1::__tree_node_base"* %347, i64 0, i32 3
  store i8 1, i8* %348, align 8
  %349 = load %"class.std::__1::__tree_node_base"*, %"class.std::__1::__tree_node_base"** %341, align 8
  %350 = getelementptr inbounds %"class.std::__1::__tree_node_base", %"class.std::__1::__tree_node_base"* %349, i64 0, i32 0, i32 0
  %351 = load %"class.std::__1::__tree_node_base"*, %"class.std::__1::__tree_node_base"** %350, align 8
  %352 = getelementptr inbounds %"class.std::__1::__tree_node_base", %"class.std::__1::__tree_node_base"* %351, i64 0, i32 1
  %353 = load %"class.std::__1::__tree_node_base"*, %"class.std::__1::__tree_node_base"** %352, align 8
  store %"class.std::__1::__tree_node_base"* %353, %"class.std::__1::__tree_node_base"** %350, align 8
  %354 = icmp eq %"class.std::__1::__tree_node_base"* %353, null
  br i1 %354, label %358, label %355

355:                                              ; preds = %338
  %356 = getelementptr inbounds %"class.std::__1::__tree_node_base", %"class.std::__1::__tree_node_base"* %349, i64 0, i32 0
  %357 = getelementptr inbounds %"class.std::__1::__tree_node_base", %"class.std::__1::__tree_node_base"* %353, i64 0, i32 2
  store %"class.std::__1::__tree_end_node"* %356, %"class.std::__1::__tree_end_node"** %357, align 8
  br label %358

358:                                              ; preds = %355, %338
  %359 = getelementptr inbounds %"class.std::__1::__tree_node_base", %"class.std::__1::__tree_node_base"* %349, i64 0, i32 2
  %360 = bitcast %"class.std::__1::__tree_end_node"** %359 to i64*
  %361 = load i64, i64* %360, align 8
  %362 = getelementptr inbounds %"class.std::__1::__tree_node_base", %"class.std::__1::__tree_node_base"* %351, i64 0, i32 2
  %363 = bitcast %"class.std::__1::__tree_end_node"** %362 to i64*
  store i64 %361, i64* %363, align 8
  %364 = load %"class.std::__1::__tree_end_node"*, %"class.std::__1::__tree_end_node"** %359, align 8
  %365 = getelementptr inbounds %"class.std::__1::__tree_end_node", %"class.std::__1::__tree_end_node"* %364, i64 0, i32 0
  %366 = load %"class.std::__1::__tree_node_base"*, %"class.std::__1::__tree_node_base"** %365, align 8
  %367 = icmp eq %"class.std::__1::__tree_node_base"* %366, %349
  %368 = getelementptr inbounds %"class.std::__1::__tree_end_node", %"class.std::__1::__tree_end_node"* %364, i64 1, i32 0
  %369 = select i1 %367, %"class.std::__1::__tree_node_base"** %365, %"class.std::__1::__tree_node_base"** %368
  store %"class.std::__1::__tree_node_base"* %351, %"class.std::__1::__tree_node_base"** %369, align 8
  store %"class.std::__1::__tree_node_base"* %349, %"class.std::__1::__tree_node_base"** %352, align 8
  %370 = getelementptr inbounds %"class.std::__1::__tree_node_base", %"class.std::__1::__tree_node_base"* %351, i64 0, i32 0
  store %"class.std::__1::__tree_end_node"* %370, %"class.std::__1::__tree_end_node"** %359, align 8
  br label %382

371:                                              ; preds = %293, %165
  %372 = phi %"class.std::__1::__tree_node_base"* [ %163, %165 ], [ %297, %293 ]
  %373 = phi %"class.std::__1::__tree_node_base"* [ %142, %165 ], [ %276, %293 ]
  %374 = getelementptr inbounds %"class.std::__1::__tree_node_base", %"class.std::__1::__tree_node_base"* %372, i64 0, i32 2
  %375 = load %"class.std::__1::__tree_end_node"*, %"class.std::__1::__tree_end_node"** %374, align 8
  %376 = getelementptr inbounds %"class.std::__1::__tree_end_node", %"class.std::__1::__tree_end_node"* %375, i64 0, i32 0
  %377 = load %"class.std::__1::__tree_node_base"*, %"class.std::__1::__tree_node_base"** %376, align 8
  %378 = icmp eq %"class.std::__1::__tree_node_base"* %377, %372
  %379 = getelementptr inbounds %"class.std::__1::__tree_end_node", %"class.std::__1::__tree_end_node"* %375, i64 1, i32 0
  %380 = select i1 %378, %"class.std::__1::__tree_node_base"** %379, %"class.std::__1::__tree_node_base"** %376
  %381 = load %"class.std::__1::__tree_node_base"*, %"class.std::__1::__tree_node_base"** %380, align 8
  br label %97

382:                                              ; preds = %95, %358, %303, %229, %169, %90
  ret void
}

; Function Attrs: nounwind
declare void @_ZN4base8internal8LockImplD1Ev(%"class.base::internal::LockImpl"*) unnamed_addr #3

; Function Attrs: nobuiltin nofree
declare noalias nonnull i8* @_Znwm(i64) local_unnamed_addr #5

; Function Attrs: nounwind ssp uwtable
define linkonce_odr hidden void @_ZNSt3__127__tree_balance_after_insertIPNS_16__tree_node_baseIPvEEEEvT_S5_(%"class.std::__1::__tree_node_base"*, %"class.std::__1::__tree_node_base"*) local_unnamed_addr #0 comdat {
  %3 = icmp eq %"class.std::__1::__tree_node_base"* %1, %0
  %4 = getelementptr inbounds %"class.std::__1::__tree_node_base", %"class.std::__1::__tree_node_base"* %1, i64 0, i32 3
  %5 = zext i1 %3 to i8
  store i8 %5, i8* %4, align 8
  br i1 %3, label %156, label %6

6:                                                ; preds = %2, %149
  %7 = phi %"class.std::__1::__tree_node_base"* [ %20, %149 ], [ %1, %2 ]
  %8 = getelementptr inbounds %"class.std::__1::__tree_node_base", %"class.std::__1::__tree_node_base"* %7, i64 0, i32 2
  %9 = bitcast %"class.std::__1::__tree_end_node"** %8 to %"class.std::__1::__tree_node_base"**
  %10 = load %"class.std::__1::__tree_node_base"*, %"class.std::__1::__tree_node_base"** %9, align 8
  %11 = getelementptr inbounds %"class.std::__1::__tree_node_base", %"class.std::__1::__tree_node_base"* %10, i64 0, i32 3
  %12 = load i8, i8* %11, align 8, !range !24
  %13 = icmp eq i8 %12, 0
  br i1 %13, label %14, label %156

14:                                               ; preds = %6
  %15 = getelementptr inbounds %"class.std::__1::__tree_node_base", %"class.std::__1::__tree_node_base"* %10, i64 0, i32 2
  %16 = load %"class.std::__1::__tree_end_node"*, %"class.std::__1::__tree_end_node"** %15, align 8
  %17 = getelementptr inbounds %"class.std::__1::__tree_end_node", %"class.std::__1::__tree_end_node"* %16, i64 0, i32 0
  %18 = load %"class.std::__1::__tree_node_base"*, %"class.std::__1::__tree_node_base"** %17, align 8
  %19 = icmp eq %"class.std::__1::__tree_node_base"* %18, %10
  %20 = bitcast %"class.std::__1::__tree_end_node"* %16 to %"class.std::__1::__tree_node_base"*
  br i1 %19, label %21, label %87

21:                                               ; preds = %14
  %22 = getelementptr inbounds %"class.std::__1::__tree_end_node", %"class.std::__1::__tree_end_node"* %16, i64 1, i32 0
  %23 = load %"class.std::__1::__tree_node_base"*, %"class.std::__1::__tree_node_base"** %22, align 8
  %24 = icmp eq %"class.std::__1::__tree_node_base"* %23, null
  br i1 %24, label %29, label %25

25:                                               ; preds = %21
  %26 = getelementptr inbounds %"class.std::__1::__tree_node_base", %"class.std::__1::__tree_node_base"* %23, i64 0, i32 3
  %27 = load i8, i8* %26, align 8, !range !24
  %28 = icmp eq i8 %27, 0
  br i1 %28, label %149, label %29

29:                                               ; preds = %25, %21
  %30 = getelementptr inbounds %"class.std::__1::__tree_node_base", %"class.std::__1::__tree_node_base"* %10, i64 0, i32 2
  %31 = bitcast %"class.std::__1::__tree_end_node"* %16 to %"class.std::__1::__tree_node_base"*
  %32 = getelementptr inbounds %"class.std::__1::__tree_node_base", %"class.std::__1::__tree_node_base"* %10, i64 0, i32 0, i32 0
  %33 = load %"class.std::__1::__tree_node_base"*, %"class.std::__1::__tree_node_base"** %32, align 8
  %34 = icmp eq %"class.std::__1::__tree_node_base"* %33, %7
  br i1 %34, label %61, label %35

35:                                               ; preds = %29
  %36 = ptrtoint %"class.std::__1::__tree_end_node"* %16 to i64
  %37 = getelementptr inbounds %"class.std::__1::__tree_node_base", %"class.std::__1::__tree_node_base"* %10, i64 0, i32 1
  %38 = load %"class.std::__1::__tree_node_base"*, %"class.std::__1::__tree_node_base"** %37, align 8
  %39 = getelementptr inbounds %"class.std::__1::__tree_node_base", %"class.std::__1::__tree_node_base"* %38, i64 0, i32 0, i32 0
  %40 = load %"class.std::__1::__tree_node_base"*, %"class.std::__1::__tree_node_base"** %39, align 8
  store %"class.std::__1::__tree_node_base"* %40, %"class.std::__1::__tree_node_base"** %37, align 8
  %41 = icmp eq %"class.std::__1::__tree_node_base"* %40, null
  br i1 %41, label %47, label %42

42:                                               ; preds = %35
  %43 = getelementptr inbounds %"class.std::__1::__tree_node_base", %"class.std::__1::__tree_node_base"* %10, i64 0, i32 0
  %44 = getelementptr inbounds %"class.std::__1::__tree_node_base", %"class.std::__1::__tree_node_base"* %40, i64 0, i32 2
  store %"class.std::__1::__tree_end_node"* %43, %"class.std::__1::__tree_end_node"** %44, align 8
  %45 = bitcast %"class.std::__1::__tree_end_node"** %30 to i64*
  %46 = load i64, i64* %45, align 8
  br label %47

47:                                               ; preds = %35, %42
  %48 = phi i64 [ %46, %42 ], [ %36, %35 ]
  %49 = getelementptr inbounds %"class.std::__1::__tree_node_base", %"class.std::__1::__tree_node_base"* %38, i64 0, i32 2
  %50 = bitcast %"class.std::__1::__tree_end_node"** %49 to i64*
  store i64 %48, i64* %50, align 8
  %51 = load %"class.std::__1::__tree_end_node"*, %"class.std::__1::__tree_end_node"** %30, align 8
  %52 = getelementptr inbounds %"class.std::__1::__tree_end_node", %"class.std::__1::__tree_end_node"* %51, i64 0, i32 0
  %53 = load %"class.std::__1::__tree_node_base"*, %"class.std::__1::__tree_node_base"** %52, align 8
  %54 = icmp eq %"class.std::__1::__tree_node_base"* %53, %10
  %55 = getelementptr inbounds %"class.std::__1::__tree_end_node", %"class.std::__1::__tree_end_node"* %51, i64 1, i32 0
  %56 = select i1 %54, %"class.std::__1::__tree_node_base"** %52, %"class.std::__1::__tree_node_base"** %55
  store %"class.std::__1::__tree_node_base"* %38, %"class.std::__1::__tree_node_base"** %56, align 8
  store %"class.std::__1::__tree_node_base"* %10, %"class.std::__1::__tree_node_base"** %39, align 8
  %57 = getelementptr inbounds %"class.std::__1::__tree_node_base", %"class.std::__1::__tree_node_base"* %38, i64 0, i32 0
  store %"class.std::__1::__tree_end_node"* %57, %"class.std::__1::__tree_end_node"** %30, align 8
  %58 = getelementptr inbounds %"class.std::__1::__tree_node_base", %"class.std::__1::__tree_node_base"* %38, i64 0, i32 2
  %59 = bitcast %"class.std::__1::__tree_end_node"** %58 to %"class.std::__1::__tree_node_base"**
  %60 = load %"class.std::__1::__tree_node_base"*, %"class.std::__1::__tree_node_base"** %59, align 8
  br label %61

61:                                               ; preds = %47, %29
  %62 = phi %"class.std::__1::__tree_node_base"* [ %31, %29 ], [ %60, %47 ]
  %63 = phi %"class.std::__1::__tree_node_base"* [ %10, %29 ], [ %38, %47 ]
  %64 = getelementptr inbounds %"class.std::__1::__tree_node_base", %"class.std::__1::__tree_node_base"* %63, i64 0, i32 3
  store i8 1, i8* %64, align 8
  %65 = getelementptr inbounds %"class.std::__1::__tree_node_base", %"class.std::__1::__tree_node_base"* %62, i64 0, i32 3
  store i8 0, i8* %65, align 8
  %66 = getelementptr inbounds %"class.std::__1::__tree_node_base", %"class.std::__1::__tree_node_base"* %62, i64 0, i32 0, i32 0
  %67 = load %"class.std::__1::__tree_node_base"*, %"class.std::__1::__tree_node_base"** %66, align 8
  %68 = getelementptr inbounds %"class.std::__1::__tree_node_base", %"class.std::__1::__tree_node_base"* %67, i64 0, i32 1
  %69 = load %"class.std::__1::__tree_node_base"*, %"class.std::__1::__tree_node_base"** %68, align 8
  store %"class.std::__1::__tree_node_base"* %69, %"class.std::__1::__tree_node_base"** %66, align 8
  %70 = icmp eq %"class.std::__1::__tree_node_base"* %69, null
  br i1 %70, label %74, label %71

71:                                               ; preds = %61
  %72 = getelementptr inbounds %"class.std::__1::__tree_node_base", %"class.std::__1::__tree_node_base"* %62, i64 0, i32 0
  %73 = getelementptr inbounds %"class.std::__1::__tree_node_base", %"class.std::__1::__tree_node_base"* %69, i64 0, i32 2
  store %"class.std::__1::__tree_end_node"* %72, %"class.std::__1::__tree_end_node"** %73, align 8
  br label %74

74:                                               ; preds = %71, %61
  %75 = getelementptr inbounds %"class.std::__1::__tree_node_base", %"class.std::__1::__tree_node_base"* %62, i64 0, i32 2
  %76 = bitcast %"class.std::__1::__tree_end_node"** %75 to i64*
  %77 = load i64, i64* %76, align 8
  %78 = getelementptr inbounds %"class.std::__1::__tree_node_base", %"class.std::__1::__tree_node_base"* %67, i64 0, i32 2
  %79 = bitcast %"class.std::__1::__tree_end_node"** %78 to i64*
  store i64 %77, i64* %79, align 8
  %80 = load %"class.std::__1::__tree_end_node"*, %"class.std::__1::__tree_end_node"** %75, align 8
  %81 = getelementptr inbounds %"class.std::__1::__tree_end_node", %"class.std::__1::__tree_end_node"* %80, i64 0, i32 0
  %82 = load %"class.std::__1::__tree_node_base"*, %"class.std::__1::__tree_node_base"** %81, align 8
  %83 = icmp eq %"class.std::__1::__tree_node_base"* %82, %62
  %84 = getelementptr inbounds %"class.std::__1::__tree_end_node", %"class.std::__1::__tree_end_node"* %80, i64 1, i32 0
  %85 = select i1 %83, %"class.std::__1::__tree_node_base"** %81, %"class.std::__1::__tree_node_base"** %84
  store %"class.std::__1::__tree_node_base"* %67, %"class.std::__1::__tree_node_base"** %85, align 8
  store %"class.std::__1::__tree_node_base"* %62, %"class.std::__1::__tree_node_base"** %68, align 8
  %86 = getelementptr inbounds %"class.std::__1::__tree_node_base", %"class.std::__1::__tree_node_base"* %67, i64 0, i32 0
  store %"class.std::__1::__tree_end_node"* %86, %"class.std::__1::__tree_end_node"** %75, align 8
  br label %156

87:                                               ; preds = %14
  %88 = icmp eq %"class.std::__1::__tree_node_base"* %18, null
  br i1 %88, label %93, label %89

89:                                               ; preds = %87
  %90 = getelementptr inbounds %"class.std::__1::__tree_node_base", %"class.std::__1::__tree_node_base"* %18, i64 0, i32 3
  %91 = load i8, i8* %90, align 8, !range !24
  %92 = icmp eq i8 %91, 0
  br i1 %92, label %149, label %93

93:                                               ; preds = %89, %87
  %94 = getelementptr inbounds %"class.std::__1::__tree_node_base", %"class.std::__1::__tree_node_base"* %10, i64 0, i32 2
  %95 = bitcast %"class.std::__1::__tree_end_node"* %16 to %"class.std::__1::__tree_node_base"*
  %96 = getelementptr inbounds %"class.std::__1::__tree_node_base", %"class.std::__1::__tree_node_base"* %10, i64 0, i32 0, i32 0
  %97 = load %"class.std::__1::__tree_node_base"*, %"class.std::__1::__tree_node_base"** %96, align 8
  %98 = icmp eq %"class.std::__1::__tree_node_base"* %97, %7
  br i1 %98, label %99, label %123

99:                                               ; preds = %93
  %100 = ptrtoint %"class.std::__1::__tree_end_node"* %16 to i64
  %101 = getelementptr inbounds %"class.std::__1::__tree_node_base", %"class.std::__1::__tree_node_base"* %10, i64 0, i32 0, i32 0
  %102 = getelementptr inbounds %"class.std::__1::__tree_node_base", %"class.std::__1::__tree_node_base"* %7, i64 0, i32 1
  %103 = load %"class.std::__1::__tree_node_base"*, %"class.std::__1::__tree_node_base"** %102, align 8
  store %"class.std::__1::__tree_node_base"* %103, %"class.std::__1::__tree_node_base"** %101, align 8
  %104 = icmp eq %"class.std::__1::__tree_node_base"* %103, null
  br i1 %104, label %110, label %105

105:                                              ; preds = %99
  %106 = getelementptr inbounds %"class.std::__1::__tree_node_base", %"class.std::__1::__tree_node_base"* %10, i64 0, i32 0
  %107 = getelementptr inbounds %"class.std::__1::__tree_node_base", %"class.std::__1::__tree_node_base"* %103, i64 0, i32 2
  store %"class.std::__1::__tree_end_node"* %106, %"class.std::__1::__tree_end_node"** %107, align 8
  %108 = bitcast %"class.std::__1::__tree_end_node"** %94 to i64*
  %109 = load i64, i64* %108, align 8
  br label %110

110:                                              ; preds = %99, %105
  %111 = phi i64 [ %109, %105 ], [ %100, %99 ]
  %112 = bitcast %"class.std::__1::__tree_end_node"** %8 to i64*
  store i64 %111, i64* %112, align 8
  %113 = load %"class.std::__1::__tree_end_node"*, %"class.std::__1::__tree_end_node"** %94, align 8
  %114 = getelementptr inbounds %"class.std::__1::__tree_end_node", %"class.std::__1::__tree_end_node"* %113, i64 0, i32 0
  %115 = load %"class.std::__1::__tree_node_base"*, %"class.std::__1::__tree_node_base"** %114, align 8
  %116 = icmp eq %"class.std::__1::__tree_node_base"* %115, %10
  %117 = getelementptr inbounds %"class.std::__1::__tree_end_node", %"class.std::__1::__tree_end_node"* %113, i64 1, i32 0
  %118 = select i1 %116, %"class.std::__1::__tree_node_base"** %114, %"class.std::__1::__tree_node_base"** %117
  store %"class.std::__1::__tree_node_base"* %7, %"class.std::__1::__tree_node_base"** %118, align 8
  store %"class.std::__1::__tree_node_base"* %10, %"class.std::__1::__tree_node_base"** %102, align 8
  %119 = getelementptr inbounds %"class.std::__1::__tree_node_base", %"class.std::__1::__tree_node_base"* %7, i64 0, i32 0
  store %"class.std::__1::__tree_end_node"* %119, %"class.std::__1::__tree_end_node"** %94, align 8
  %120 = getelementptr inbounds %"class.std::__1::__tree_node_base", %"class.std::__1::__tree_node_base"* %7, i64 0, i32 2
  %121 = bitcast %"class.std::__1::__tree_end_node"** %120 to %"class.std::__1::__tree_node_base"**
  %122 = load %"class.std::__1::__tree_node_base"*, %"class.std::__1::__tree_node_base"** %121, align 8
  br label %123

123:                                              ; preds = %93, %110
  %124 = phi %"class.std::__1::__tree_node_base"* [ %122, %110 ], [ %95, %93 ]
  %125 = phi %"class.std::__1::__tree_node_base"* [ %7, %110 ], [ %10, %93 ]
  %126 = getelementptr inbounds %"class.std::__1::__tree_node_base", %"class.std::__1::__tree_node_base"* %125, i64 0, i32 3
  store i8 1, i8* %126, align 8
  %127 = getelementptr inbounds %"class.std::__1::__tree_node_base", %"class.std::__1::__tree_node_base"* %124, i64 0, i32 3
  store i8 0, i8* %127, align 8
  %128 = getelementptr inbounds %"class.std::__1::__tree_node_base", %"class.std::__1::__tree_node_base"* %124, i64 0, i32 1
  %129 = load %"class.std::__1::__tree_node_base"*, %"class.std::__1::__tree_node_base"** %128, align 8
  %130 = getelementptr inbounds %"class.std::__1::__tree_node_base", %"class.std::__1::__tree_node_base"* %129, i64 0, i32 0, i32 0
  %131 = load %"class.std::__1::__tree_node_base"*, %"class.std::__1::__tree_node_base"** %130, align 8
  store %"class.std::__1::__tree_node_base"* %131, %"class.std::__1::__tree_node_base"** %128, align 8
  %132 = icmp eq %"class.std::__1::__tree_node_base"* %131, null
  br i1 %132, label %136, label %133

133:                                              ; preds = %123
  %134 = getelementptr inbounds %"class.std::__1::__tree_node_base", %"class.std::__1::__tree_node_base"* %124, i64 0, i32 0
  %135 = getelementptr inbounds %"class.std::__1::__tree_node_base", %"class.std::__1::__tree_node_base"* %131, i64 0, i32 2
  store %"class.std::__1::__tree_end_node"* %134, %"class.std::__1::__tree_end_node"** %135, align 8
  br label %136

136:                                              ; preds = %133, %123
  %137 = getelementptr inbounds %"class.std::__1::__tree_node_base", %"class.std::__1::__tree_node_base"* %124, i64 0, i32 2
  %138 = bitcast %"class.std::__1::__tree_end_node"** %137 to i64*
  %139 = load i64, i64* %138, align 8
  %140 = getelementptr inbounds %"class.std::__1::__tree_node_base", %"class.std::__1::__tree_node_base"* %129, i64 0, i32 2
  %141 = bitcast %"class.std::__1::__tree_end_node"** %140 to i64*
  store i64 %139, i64* %141, align 8
  %142 = load %"class.std::__1::__tree_end_node"*, %"class.std::__1::__tree_end_node"** %137, align 8
  %143 = getelementptr inbounds %"class.std::__1::__tree_end_node", %"class.std::__1::__tree_end_node"* %142, i64 0, i32 0
  %144 = load %"class.std::__1::__tree_node_base"*, %"class.std::__1::__tree_node_base"** %143, align 8
  %145 = icmp eq %"class.std::__1::__tree_node_base"* %144, %124
  %146 = getelementptr inbounds %"class.std::__1::__tree_end_node", %"class.std::__1::__tree_end_node"* %142, i64 1, i32 0
  %147 = select i1 %145, %"class.std::__1::__tree_node_base"** %143, %"class.std::__1::__tree_node_base"** %146
  store %"class.std::__1::__tree_node_base"* %129, %"class.std::__1::__tree_node_base"** %147, align 8
  store %"class.std::__1::__tree_node_base"* %124, %"class.std::__1::__tree_node_base"** %130, align 8
  %148 = getelementptr inbounds %"class.std::__1::__tree_node_base", %"class.std::__1::__tree_node_base"* %129, i64 0, i32 0
  store %"class.std::__1::__tree_end_node"* %148, %"class.std::__1::__tree_end_node"** %137, align 8
  br label %156

149:                                              ; preds = %89, %25
  %150 = phi i8* [ %26, %25 ], [ %90, %89 ]
  store i8 1, i8* %11, align 8
  %151 = icmp eq %"class.std::__1::__tree_node_base"* %20, %0
  %152 = getelementptr inbounds %"class.std::__1::__tree_end_node", %"class.std::__1::__tree_end_node"* %16, i64 3
  %153 = bitcast %"class.std::__1::__tree_end_node"* %152 to i8*
  %154 = zext i1 %151 to i8
  store i8 %154, i8* %153, align 8
  store i8 1, i8* %150, align 8
  %155 = icmp eq %"class.std::__1::__tree_node_base"* %20, %0
  br i1 %155, label %156, label %6

156:                                              ; preds = %6, %149, %2, %136, %74
  ret void
}

declare %"class.base::HistogramBase"* @_ZN4base16BooleanHistogram10FactoryGetEPKci(i8*, i32) local_unnamed_addr #1

declare void @_ZN4base13HistogramBase10AddBooleanEb(%"class.base::HistogramBase"*, i1 zeroext) local_unnamed_addr #1

declare %"class.base::HistogramBase"* @_ZN4base9Histogram10FactoryGetEPKciiji(i8*, i32, i32, i32, i32) local_unnamed_addr #1

; Function Attrs: nounwind
declare dereferenceable(8) %"class.base::internal::CallbackBase"* @_ZN4base8internal12CallbackBaseaSEOS1_(%"class.base::internal::CallbackBase"*, %"class.base::internal::CallbackBase"* dereferenceable(8)) local_unnamed_addr #3

declare void @_ZN4base16TaskRunnerTraits8DestructEPKNS_10TaskRunnerE(%"class.base::TaskRunner"*) local_unnamed_addr #1

; Function Attrs: argmemonly nounwind
declare void @llvm.memset.p0i8.i64(i8* nocapture writeonly, i8, i64, i1 immarg) #2

; Function Attrs: nounwind ssp uwtable
define linkonce_odr hidden void @_ZN4base8internal7InvokerINS0_9BindStateIPFvvEJEEES3_E7RunOnceEPNS0_13BindStateBaseE(%"class.base::internal::BindStateBase"*) #0 comdat align 2 {
  %2 = getelementptr inbounds %"class.base::internal::BindStateBase", %"class.base::internal::BindStateBase"* %0, i64 1
  %3 = bitcast %"class.base::internal::BindStateBase"* %2 to void ()**
  %4 = load void ()*, void ()** %3, align 8
  tail call void %4() #6
  ret void
}

; Function Attrs: nounwind ssp uwtable
define linkonce_odr hidden void @_ZN4base8internal9BindStateIPFvvEJEE7DestroyEPKNS0_13BindStateBaseE(%"class.base::internal::BindStateBase"*) #0 comdat align 2 {
  %2 = icmp eq %"class.base::internal::BindStateBase"* %0, null
  br i1 %2, label %5, label %3

3:                                                ; preds = %1
  %4 = bitcast %"class.base::internal::BindStateBase"* %0 to i8*
  tail call void @_ZdlPv(i8* %4) #7
  br label %5

5:                                                ; preds = %3, %1
  ret void
}

declare void @_ZN4base8internal13BindStateBaseC2EPFvvEPFvPKS1_E(%"class.base::internal::BindStateBase"*, void ()*, void (%"class.base::internal::BindStateBase"*)*) unnamed_addr #1

; Function Attrs: nounwind ssp uwtable
define linkonce_odr hidden void @_ZN4base8internal7InvokerINS0_9BindStateIMN7content21HistogramSynchronizerEFviEJNS0_17UnretainedWrapperIS4_EEiEEEFvvEE7RunOnceEPNS0_13BindStateBaseE(%"class.base::internal::BindStateBase"*) #0 comdat align 2 {
  %2 = getelementptr inbounds %"class.base::internal::BindStateBase", %"class.base::internal::BindStateBase"* %0, i64 1
  %3 = getelementptr inbounds %"class.base::internal::BindStateBase", %"class.base::internal::BindStateBase"* %0, i64 1, i32 2
  %4 = bitcast void (%"class.base::internal::BindStateBase"*)** %3 to i8**
  %5 = load i8*, i8** %4, align 8
  %6 = getelementptr inbounds void (%"class.base::internal::BindStateBase"*)*, void (%"class.base::internal::BindStateBase"*)** %3, i64 1
  %7 = bitcast void (%"class.base::internal::BindStateBase"*)** %6 to i32*
  %8 = bitcast %"class.base::internal::BindStateBase"* %2 to i64*
  %9 = load i64, i64* %8, align 8
  %10 = getelementptr inbounds %"class.base::internal::BindStateBase", %"class.base::internal::BindStateBase"* %0, i64 1, i32 1
  %11 = bitcast void ()** %10 to i64*
  %12 = load i64, i64* %11, align 8
  %13 = getelementptr inbounds i8, i8* %5, i64 %12
  %14 = bitcast i8* %13 to %"class.content::HistogramSynchronizer"*
  %15 = and i64 %9, 1
  %16 = icmp eq i64 %15, 0
  br i1 %16, label %24, label %17

17:                                               ; preds = %1
  %18 = bitcast i8* %13 to i8**
  %19 = load i8*, i8** %18, align 8
  %20 = add i64 %9, -1
  %21 = getelementptr i8, i8* %19, i64 %20
  %22 = bitcast i8* %21 to void (%"class.content::HistogramSynchronizer"*, i32)**
  %23 = load void (%"class.content::HistogramSynchronizer"*, i32)*, void (%"class.content::HistogramSynchronizer"*, i32)** %22, align 8
  br label %26

24:                                               ; preds = %1
  %25 = inttoptr i64 %9 to void (%"class.content::HistogramSynchronizer"*, i32)*
  br label %26

26:                                               ; preds = %17, %24
  %27 = phi void (%"class.content::HistogramSynchronizer"*, i32)* [ %23, %17 ], [ %25, %24 ]
  %28 = load i32, i32* %7, align 4
  tail call void %27(%"class.content::HistogramSynchronizer"* %14, i32 %28) #6
  ret void
}

; Function Attrs: nounwind ssp uwtable
define linkonce_odr hidden void @_ZN4base8internal9BindStateIMN7content21HistogramSynchronizerEFviEJNS0_17UnretainedWrapperIS3_EEiEE7DestroyEPKNS0_13BindStateBaseE(%"class.base::internal::BindStateBase"*) #0 comdat align 2 {
  %2 = icmp eq %"class.base::internal::BindStateBase"* %0, null
  br i1 %2, label %5, label %3

3:                                                ; preds = %1
  %4 = bitcast %"class.base::internal::BindStateBase"* %0 to i8*
  tail call void @_ZdlPv(i8* %4) #7
  br label %5

5:                                                ; preds = %3, %1
  ret void
}

; Function Attrs: nounwind ssp uwtable
define linkonce_odr hidden void @_ZN4base8internal7InvokerINS0_9BindStateIPFviEJiEEEFvvEE7RunOnceEPNS0_13BindStateBaseE(%"class.base::internal::BindStateBase"*) #0 comdat align 2 {
  %2 = getelementptr inbounds %"class.base::internal::BindStateBase", %"class.base::internal::BindStateBase"* %0, i64 1
  %3 = bitcast %"class.base::internal::BindStateBase"* %2 to void (i32)**
  %4 = getelementptr inbounds %"class.base::internal::BindStateBase", %"class.base::internal::BindStateBase"* %0, i64 1, i32 1
  %5 = bitcast void ()** %4 to i32*
  %6 = load void (i32)*, void (i32)** %3, align 8
  %7 = load i32, i32* %5, align 4
  tail call void %6(i32 %7) #6
  ret void
}

; Function Attrs: nounwind ssp uwtable
define linkonce_odr hidden void @_ZN4base8internal9BindStateIPFviEJiEE7DestroyEPKNS0_13BindStateBaseE(%"class.base::internal::BindStateBase"*) #0 comdat align 2 {
  %2 = icmp eq %"class.base::internal::BindStateBase"* %0, null
  br i1 %2, label %5, label %3

3:                                                ; preds = %1
  %4 = bitcast %"class.base::internal::BindStateBase"* %0 to i8*
  tail call void @_ZdlPv(i8* %4) #7
  br label %5

5:                                                ; preds = %3, %1
  ret void
}

declare void @_ZN4base8internal8LockImpl24LockInternalWithTrackingEv(%"class.base::internal::LockImpl"*) local_unnamed_addr #1

; Function Attrs: nounwind
declare i32 @pthread_mutex_trylock(%union.pthread_mutex_t*) local_unnamed_addr #3

; Function Attrs: nounwind
declare i32 @pthread_mutex_unlock(%union.pthread_mutex_t*) local_unnamed_addr #3

attributes #0 = { nounwind ssp uwtable "correctly-rounded-divide-sqrt-fp-math"="false" "disable-tail-calls"="false" "less-precise-fpmad"="false" "min-legal-vector-width"="0" "no-frame-pointer-elim"="false" "no-frame-pointer-elim-non-leaf" "no-infs-fp-math"="false" "no-jump-tables"="false" "no-nans-fp-math"="false" "no-signed-zeros-fp-math"="false" "no-trapping-math"="false" "null-pointer-is-valid"="true" "stack-protector-buffer-size"="4" "target-cpu"="x86-64" "target-features"="+cx8,+fxsr,+mmx,+sse,+sse2,+sse3,+x87" "unsafe-fp-math"="false" "use-soft-float"="false" }
attributes #1 = { "correctly-rounded-divide-sqrt-fp-math"="false" "disable-tail-calls"="false" "less-precise-fpmad"="false" "no-frame-pointer-elim"="false" "no-frame-pointer-elim-non-leaf" "no-infs-fp-math"="false" "no-nans-fp-math"="false" "no-signed-zeros-fp-math"="false" "no-trapping-math"="false" "null-pointer-is-valid"="true" "stack-protector-buffer-size"="4" "target-cpu"="x86-64" "target-features"="+cx8,+fxsr,+mmx,+sse,+sse2,+sse3,+x87" "unsafe-fp-math"="false" "use-soft-float"="false" }
attributes #2 = { argmemonly nounwind }
attributes #3 = { nounwind "correctly-rounded-divide-sqrt-fp-math"="false" "disable-tail-calls"="false" "less-precise-fpmad"="false" "no-frame-pointer-elim"="false" "no-frame-pointer-elim-non-leaf" "no-infs-fp-math"="false" "no-nans-fp-math"="false" "no-signed-zeros-fp-math"="false" "no-trapping-math"="false" "null-pointer-is-valid"="true" "stack-protector-buffer-size"="4" "target-cpu"="x86-64" "target-features"="+cx8,+fxsr,+mmx,+sse,+sse2,+sse3,+x87" "unsafe-fp-math"="false" "use-soft-float"="false" }
attributes #4 = { nobuiltin nounwind "correctly-rounded-divide-sqrt-fp-math"="false" "disable-tail-calls"="false" "less-precise-fpmad"="false" "no-frame-pointer-elim"="false" "no-frame-pointer-elim-non-leaf" "no-infs-fp-math"="false" "no-nans-fp-math"="false" "no-signed-zeros-fp-math"="false" "no-trapping-math"="false" "null-pointer-is-valid"="true" "stack-protector-buffer-size"="4" "target-cpu"="x86-64" "target-features"="+cx8,+fxsr,+mmx,+sse,+sse2,+sse3,+x87" "unsafe-fp-math"="false" "use-soft-float"="false" }
attributes #5 = { nobuiltin nofree "correctly-rounded-divide-sqrt-fp-math"="false" "disable-tail-calls"="false" "less-precise-fpmad"="false" "no-frame-pointer-elim"="false" "no-frame-pointer-elim-non-leaf" "no-infs-fp-math"="false" "no-nans-fp-math"="false" "no-signed-zeros-fp-math"="false" "no-trapping-math"="false" "null-pointer-is-valid"="true" "stack-protector-buffer-size"="4" "target-cpu"="x86-64" "target-features"="+cx8,+fxsr,+mmx,+sse,+sse2,+sse3,+x87" "unsafe-fp-math"="false" "use-soft-float"="false" }
attributes #6 = { nounwind }
attributes #7 = { builtin nounwind }

!llvm.module.flags = !{!0, !1}

!0 = !{i32 1, !"wchar_size", i32 4}
!1 = !{i32 7, !"PIC Level", i32 2}
!2 = !{!3}
!3 = distinct !{!3, !4, !"_ZNK4base12NullCallbackcvNS_12OnceCallbackIFT_DpT0_EEEIvJEEEv: argument 0"}
!4 = distinct !{!4, !"_ZNK4base12NullCallbackcvNS_12OnceCallbackIFT_DpT0_EEEIvJEEEv"}
!5 = !{!"branch_weights", i32 2000, i32 1}
!6 = !{!7, !9}
!7 = distinct !{!7, !8, !"_ZN4base8internal8BindImplINS_12OnceCallbackEPFvvEJEEEDcOT0_DpOT1_: argument 0"}
!8 = distinct !{!8, !"_ZN4base8internal8BindImplINS_12OnceCallbackEPFvvEJEEEDcOT0_DpOT1_"}
!9 = distinct !{!9, !10, !"_ZN4base8BindOnceIPFvvEJEEENS_12OnceCallbackINS_8internal14BindTypeHelperIT_JDpT0_EE14UnboundRunTypeEEEOS6_DpOS7_: argument 0"}
!10 = distinct !{!10, !"_ZN4base8BindOnceIPFvvEJEEENS_12OnceCallbackINS_8internal14BindTypeHelperIT_JDpT0_EE14UnboundRunTypeEEEOS6_DpOS7_"}
!11 = !{!12, !14}
!12 = distinct !{!12, !13, !"_ZN4base8internal8BindImplINS_12OnceCallbackEMN7content21HistogramSynchronizerEFviEJNS0_17UnretainedWrapperIS4_EERiEEEDcOT0_DpOT1_: argument 0"}
!13 = distinct !{!13, !"_ZN4base8internal8BindImplINS_12OnceCallbackEMN7content21HistogramSynchronizerEFviEJNS0_17UnretainedWrapperIS4_EERiEEEDcOT0_DpOT1_"}
!14 = distinct !{!14, !15, !"_ZN4base8BindOnceIMN7content21HistogramSynchronizerEFviEJNS_8internal17UnretainedWrapperIS2_EERiEEENS_12OnceCallbackINS5_14BindTypeHelperIT_JDpT0_EE14UnboundRunTypeEEEOSB_DpOSC_: argument 0"}
!15 = distinct !{!15, !"_ZN4base8BindOnceIMN7content21HistogramSynchronizerEFviEJNS_8internal17UnretainedWrapperIS2_EERiEEENS_12OnceCallbackINS5_14BindTypeHelperIT_JDpT0_EE14UnboundRunTypeEEEOSB_DpOSC_"}
!16 = !{!17, !19}
!17 = distinct !{!17, !18, !"_ZN4base8internal8BindImplINS_12OnceCallbackEPFviEJRiEEEDcOT0_DpOT1_: argument 0"}
!18 = distinct !{!18, !"_ZN4base8internal8BindImplINS_12OnceCallbackEPFviEJRiEEEDcOT0_DpOT1_"}
!19 = distinct !{!19, !20, !"_ZN4base8BindOnceIPFviEJRiEEENS_12OnceCallbackINS_8internal14BindTypeHelperIT_JDpT0_EE14UnboundRunTypeEEEOS7_DpOS8_: argument 0"}
!20 = distinct !{!20, !"_ZN4base8BindOnceIPFviEJRiEEENS_12OnceCallbackINS_8internal14BindTypeHelperIT_JDpT0_EE14UnboundRunTypeEEEOS7_DpOS8_"}
!21 = !{!22}
!22 = distinct !{!22, !23, !"_ZNSt3__16__treeINS_12__value_typeIiPN7content21HistogramSynchronizer14RequestContextEEENS_19__map_value_compareIiS6_NS_4lessIiEELb1EEENS_9allocatorIS6_EEE16__construct_nodeIJRKNS_21piecewise_construct_tENS_5tupleIJRKiEEENSI_IJEEEEEENS_10unique_ptrINS_11__tree_nodeIS6_PvEENS_22__tree_node_destructorINSB_ISQ_EEEEEEDpOT_: argument 0"}
!23 = distinct !{!23, !"_ZNSt3__16__treeINS_12__value_typeIiPN7content21HistogramSynchronizer14RequestContextEEENS_19__map_value_compareIiS6_NS_4lessIiEELb1EEENS_9allocatorIS6_EEE16__construct_nodeIJRKNS_21piecewise_construct_tENS_5tupleIJRKiEEENSI_IJEEEEEENS_10unique_ptrINS_11__tree_nodeIS6_PvEENS_22__tree_node_destructorINSB_ISQ_EEEEEEDpOT_"}
!24 = !{i8 0, i8 2}
