; ModuleID = '../../components/content_settings/core/browser/host_content_settings_map.cc'
source_filename = "../../components/content_settings/core/browser/host_content_settings_map.cc"
target datalayout = "e-m:e-i64:64-f80:128-n8:16:32:64-S128"
target triple = "x86_64-unknown-linux-gnu"

module asm ".symver exp, exp@GLIBC_2.2.5"
module asm ".symver exp2, exp2@GLIBC_2.2.5"
module asm ".symver exp2f, exp2f@GLIBC_2.2.5"
module asm ".symver expf, expf@GLIBC_2.2.5"
module asm ".symver lgamma, lgamma@GLIBC_2.2.5"
module asm ".symver lgammaf, lgammaf@GLIBC_2.2.5"
module asm ".symver lgammal, lgammal@GLIBC_2.2.5"
module asm ".symver log, log@GLIBC_2.2.5"
module asm ".symver log2, log2@GLIBC_2.2.5"
module asm ".symver log2f, log2f@GLIBC_2.2.5"
module asm ".symver logf, logf@GLIBC_2.2.5"
module asm ".symver pow, pow@GLIBC_2.2.5"
module asm ".symver powf, powf@GLIBC_2.2.5"

%"struct.base::trace_event::TraceCategory" = type { i8, i32, i8* }
%"struct.(anonymous namespace)::ProviderNamesSourceMapEntry" = type { i8*, i32 }
%class.HostContentSettingsMap = type { %"class.content_settings::Observer", %class.RefcountedKeyedService, %class.PrefService*, i8, i8, %"class.std::__1::map.78", %"class.std::__1::vector", %"class.content_settings::PrefProvider"*, %"class.base::ThreadChecker", [7 x i8], %"class.base::ObserverList.121", i8, %"class.base::WeakPtrFactory" }
%"class.content_settings::Observer" = type { i32 (...)** }
%class.RefcountedKeyedService = type { i32 (...)**, %"class.base::RefCountedThreadSafe", %class.scoped_refptr }
%"class.base::RefCountedThreadSafe" = type { %"class.base::subtle::RefCountedThreadSafeBase" }
%"class.base::subtle::RefCountedThreadSafeBase" = type { %"class.base::AtomicRefCount" }
%"class.base::AtomicRefCount" = type { %"struct.std::__1::atomic" }
%"struct.std::__1::atomic" = type { %"struct.std::__1::__atomic_base" }
%"struct.std::__1::__atomic_base" = type { %"struct.std::__1::__atomic_base.0" }
%"struct.std::__1::__atomic_base.0" = type { %"struct.std::__1::__cxx_atomic_impl" }
%"struct.std::__1::__cxx_atomic_impl" = type { %"struct.std::__1::__cxx_atomic_base_impl" }
%"struct.std::__1::__cxx_atomic_base_impl" = type { i32 }
%class.scoped_refptr = type { %"class.base::SequencedTaskRunner"* }
%"class.base::SequencedTaskRunner" = type { %"class.base::TaskRunner.base", [4 x i8] }
%"class.base::TaskRunner.base" = type <{ i32 (...)**, %"class.base::RefCountedThreadSafe.1" }>
%"class.base::RefCountedThreadSafe.1" = type { %"class.base::subtle::RefCountedThreadSafeBase" }
%"class.std::__1::map.78" = type { %"class.std::__1::__tree.79" }
%"class.std::__1::__tree.79" = type { %"class.std::__1::__tree_end_node"*, %"class.std::__1::__compressed_pair.80", %"class.std::__1::__compressed_pair.84" }
%"class.std::__1::__tree_end_node" = type { %"class.std::__1::__tree_node_base"* }
%"class.std::__1::__tree_node_base" = type <{ %"class.std::__1::__tree_end_node", %"class.std::__1::__tree_node_base"*, %"class.std::__1::__tree_end_node"*, i8, [7 x i8] }>
%"class.std::__1::__compressed_pair.80" = type { %"struct.std::__1::__compressed_pair_elem.10" }
%"struct.std::__1::__compressed_pair_elem.10" = type { %"class.std::__1::__tree_end_node" }
%"class.std::__1::__compressed_pair.84" = type { %"struct.std::__1::__compressed_pair_elem.13" }
%"struct.std::__1::__compressed_pair_elem.13" = type { i64 }
%"class.std::__1::vector" = type { %"class.std::__1::__vector_base" }
%"class.std::__1::__vector_base" = type { %"class.content_settings::UserModifiableProvider"**, %"class.content_settings::UserModifiableProvider"**, %"class.std::__1::__compressed_pair.96" }
%"class.content_settings::UserModifiableProvider" = type { %"class.content_settings::ObservableProvider" }
%"class.content_settings::ObservableProvider" = type { %"class.content_settings::ProviderInterface", %"class.base::ThreadChecker", [7 x i8], %"class.base::ObserverList" }
%"class.content_settings::ProviderInterface" = type { i32 (...)** }
%"class.base::ObserverList" = type <{ %"class.std::__1::vector.89", %"class.base::LinkedList", i64, i32, [4 x i8] }>
%"class.std::__1::vector.89" = type { %"class.std::__1::__vector_base.90" }
%"class.std::__1::__vector_base.90" = type { %"class.base::internal::UncheckedObserverAdapter"*, %"class.base::internal::UncheckedObserverAdapter"*, %"class.std::__1::__compressed_pair.91" }
%"class.base::internal::UncheckedObserverAdapter" = type { i8* }
%"class.std::__1::__compressed_pair.91" = type { %"struct.std::__1::__compressed_pair_elem.92" }
%"struct.std::__1::__compressed_pair_elem.92" = type { %"class.base::internal::UncheckedObserverAdapter"* }
%"class.base::LinkedList" = type { %"class.base::LinkNode" }
%"class.base::LinkNode" = type { %"class.base::internal::LinkNodeBase" }
%"class.base::internal::LinkNodeBase" = type { %"class.base::internal::LinkNodeBase"*, %"class.base::internal::LinkNodeBase"* }
%"class.std::__1::__compressed_pair.96" = type { %"struct.std::__1::__compressed_pair_elem.97" }
%"struct.std::__1::__compressed_pair_elem.97" = type { %"class.content_settings::UserModifiableProvider"** }
%"class.content_settings::PrefProvider" = type { %"class.content_settings::UserModifiableProvider", %class.PrefService*, i8, i8, %class.PrefChangeRegistrar, %"class.std::__1::map.110", %"class.base::ThreadChecker", %"class.base::Clock"* }
%class.PrefChangeRegistrar = type { %class.PrefObserver, %"class.std::__1::map.101", %class.PrefService* }
%class.PrefObserver = type { i32 (...)** }
%"class.std::__1::map.101" = type { %"class.std::__1::__tree.102" }
%"class.std::__1::__tree.102" = type { %"class.std::__1::__tree_end_node"*, %"class.std::__1::__compressed_pair.103", %"class.std::__1::__compressed_pair.107" }
%"class.std::__1::__compressed_pair.103" = type { %"struct.std::__1::__compressed_pair_elem.10" }
%"class.std::__1::__compressed_pair.107" = type { %"struct.std::__1::__compressed_pair_elem.13" }
%"class.std::__1::map.110" = type { %"class.std::__1::__tree.111" }
%"class.std::__1::__tree.111" = type { %"class.std::__1::__tree_end_node"*, %"class.std::__1::__compressed_pair.112", %"class.std::__1::__compressed_pair.116" }
%"class.std::__1::__compressed_pair.112" = type { %"struct.std::__1::__compressed_pair_elem.10" }
%"class.std::__1::__compressed_pair.116" = type { %"struct.std::__1::__compressed_pair_elem.13" }
%"class.base::Clock" = type { i32 (...)** }
%"class.base::ThreadChecker" = type { i8 }
%"class.base::ObserverList.121" = type <{ %"class.std::__1::vector.89", %"class.base::LinkedList.122", i64, i32, [4 x i8] }>
%"class.base::LinkedList.122" = type { %"class.base::LinkNode.123" }
%"class.base::LinkNode.123" = type { %"class.base::internal::LinkNodeBase" }
%"class.base::WeakPtrFactory" = type { %"class.base::internal::WeakPtrFactoryBase" }
%"class.base::internal::WeakPtrFactoryBase" = type { %"class.base::internal::WeakReferenceOwner", i64 }
%"class.base::internal::WeakReferenceOwner" = type { %class.scoped_refptr.125 }
%class.scoped_refptr.125 = type { %"class.base::internal::WeakReference::Flag"* }
%"class.base::internal::WeakReference::Flag" = type <{ %"class.base::RefCountedThreadSafe.126", %"class.base::AtomicFlag", [3 x i8] }>
%"class.base::RefCountedThreadSafe.126" = type { %"class.base::subtle::RefCountedThreadSafeBase" }
%"class.base::AtomicFlag" = type { %"struct.std::__1::atomic.127" }
%"struct.std::__1::atomic.127" = type { %"struct.std::__1::__atomic_base.128" }
%"struct.std::__1::__atomic_base.128" = type { %"struct.std::__1::__atomic_base.129" }
%"struct.std::__1::__atomic_base.129" = type { %"struct.std::__1::__cxx_atomic_impl.130" }
%"struct.std::__1::__cxx_atomic_impl.130" = type { %"struct.std::__1::__cxx_atomic_base_impl.131" }
%"struct.std::__1::__cxx_atomic_base_impl.131" = type { i8 }
%class.PrefService = type { i32 (...)**, %"class.std::__1::unique_ptr", %"class.std::__1::unique_ptr.3", %class.scoped_refptr.24, %"class.base::RepeatingCallback.25", %class.scoped_refptr.26, %"class.std::__1::unordered_map.54" }
%"class.std::__1::unique_ptr" = type { %"class.std::__1::__compressed_pair" }
%"class.std::__1::__compressed_pair" = type { %"struct.std::__1::__compressed_pair_elem" }
%"struct.std::__1::__compressed_pair_elem" = type { %class.PrefNotifierImpl* }
%class.PrefNotifierImpl = type opaque
%"class.std::__1::unique_ptr.3" = type { %"class.std::__1::__compressed_pair.4" }
%"class.std::__1::__compressed_pair.4" = type { %"struct.std::__1::__compressed_pair_elem.5" }
%"struct.std::__1::__compressed_pair_elem.5" = type { %class.PrefValueStore* }
%class.PrefValueStore = type { i32 (...)**, [7 x %"class.PrefValueStore::PrefStoreKeeper"], %"class.base::RepeatingCallback", %class.PrefNotifier*, %"class.std::__1::map", i8, %"class.std::__1::unique_ptr.15" }
%"class.PrefValueStore::PrefStoreKeeper" = type <{ %"class.PrefStore::Observer", %class.PrefValueStore*, %class.scoped_refptr.6, i32, [4 x i8] }>
%"class.PrefStore::Observer" = type { i32 (...)** }
%class.scoped_refptr.6 = type { %class.PrefStore* }
%class.PrefStore = type <{ i32 (...)**, %"class.base::RefCounted", [4 x i8] }>
%"class.base::RefCounted" = type { %"class.base::subtle::RefCountedBase" }
%"class.base::subtle::RefCountedBase" = type { i32 }
%"class.base::RepeatingCallback" = type { %"class.base::internal::CallbackBaseCopyable" }
%"class.base::internal::CallbackBaseCopyable" = type { %"class.base::internal::CallbackBase" }
%"class.base::internal::CallbackBase" = type { %class.scoped_refptr.7 }
%class.scoped_refptr.7 = type { %"class.base::internal::BindStateBase"* }
%"class.base::internal::BindStateBase" = type { %"class.base::RefCountedThreadSafe.8", void ()*, void (%"class.base::internal::BindStateBase"*)*, i1 (%"class.base::internal::BindStateBase"*, i32)* }
%"class.base::RefCountedThreadSafe.8" = type { %"class.base::subtle::RefCountedThreadSafeBase" }
%class.PrefNotifier = type opaque
%"class.std::__1::map" = type { %"class.std::__1::__tree" }
%"class.std::__1::__tree" = type { %"class.std::__1::__tree_end_node"*, %"class.std::__1::__compressed_pair.9", %"class.std::__1::__compressed_pair.12" }
%"class.std::__1::__compressed_pair.9" = type { %"struct.std::__1::__compressed_pair_elem.10" }
%"class.std::__1::__compressed_pair.12" = type { %"struct.std::__1::__compressed_pair_elem.13" }
%"class.std::__1::unique_ptr.15" = type { %"class.std::__1::__compressed_pair.16" }
%"class.std::__1::__compressed_pair.16" = type { %"struct.std::__1::__compressed_pair_elem.17" }
%"struct.std::__1::__compressed_pair_elem.17" = type { %"class.PrefValueStore::Delegate"* }
%"class.PrefValueStore::Delegate" = type { i32 (...)** }
%class.scoped_refptr.24 = type { %class.PersistentPrefStore* }
%class.PersistentPrefStore = type { %class.WriteablePrefStore.base, [4 x i8] }
%class.WriteablePrefStore.base = type { %class.PrefStore.base }
%class.PrefStore.base = type <{ i32 (...)**, %"class.base::RefCounted" }>
%"class.base::RepeatingCallback.25" = type { %"class.base::internal::CallbackBaseCopyable" }
%class.scoped_refptr.26 = type { %class.PrefRegistry* }
%class.PrefRegistry = type { i32 (...)**, %"class.base::RefCounted.27", %class.scoped_refptr.28, %"class.std::__1::unordered_map", %"class.std::__1::set" }
%"class.base::RefCounted.27" = type { %"class.base::subtle::RefCountedBase" }
%class.scoped_refptr.28 = type { %class.DefaultPrefStore* }
%class.DefaultPrefStore = type opaque
%"class.std::__1::unordered_map" = type { %"class.std::__1::__hash_table" }
%"class.std::__1::__hash_table" = type <{ %"class.std::__1::unique_ptr.29", %"class.std::__1::__compressed_pair.37", %"class.std::__1::__compressed_pair.42", %"class.std::__1::__compressed_pair.44", [4 x i8] }>
%"class.std::__1::unique_ptr.29" = type { %"class.std::__1::__compressed_pair.30" }
%"class.std::__1::__compressed_pair.30" = type { %"struct.std::__1::__compressed_pair_elem.31", %"struct.std::__1::__compressed_pair_elem.32" }
%"struct.std::__1::__compressed_pair_elem.31" = type { %"struct.std::__1::__hash_node_base"** }
%"struct.std::__1::__hash_node_base" = type { %"struct.std::__1::__hash_node_base"* }
%"struct.std::__1::__compressed_pair_elem.32" = type { %"class.std::__1::__bucket_list_deallocator" }
%"class.std::__1::__bucket_list_deallocator" = type { %"class.std::__1::__compressed_pair.33" }
%"class.std::__1::__compressed_pair.33" = type { %"struct.std::__1::__compressed_pair_elem.13" }
%"class.std::__1::__compressed_pair.37" = type { %"struct.std::__1::__compressed_pair_elem.38" }
%"struct.std::__1::__compressed_pair_elem.38" = type { %"struct.std::__1::__hash_node_base" }
%"class.std::__1::__compressed_pair.42" = type { %"struct.std::__1::__compressed_pair_elem.13" }
%"class.std::__1::__compressed_pair.44" = type { %"struct.std::__1::__compressed_pair_elem.45" }
%"struct.std::__1::__compressed_pair_elem.45" = type { float }
%"class.std::__1::set" = type { %"class.std::__1::__tree.47" }
%"class.std::__1::__tree.47" = type { %"class.std::__1::__tree_end_node"*, %"class.std::__1::__compressed_pair.48", %"class.std::__1::__compressed_pair.52" }
%"class.std::__1::__compressed_pair.48" = type { %"struct.std::__1::__compressed_pair_elem.10" }
%"class.std::__1::__compressed_pair.52" = type { %"struct.std::__1::__compressed_pair_elem.13" }
%"class.std::__1::unordered_map.54" = type { %"class.std::__1::__hash_table.55" }
%"class.std::__1::__hash_table.55" = type <{ %"class.std::__1::unique_ptr.56", %"class.std::__1::__compressed_pair.66", %"class.std::__1::__compressed_pair.71", %"class.std::__1::__compressed_pair.74", [4 x i8] }>
%"class.std::__1::unique_ptr.56" = type { %"class.std::__1::__compressed_pair.57" }
%"class.std::__1::__compressed_pair.57" = type { %"struct.std::__1::__compressed_pair_elem.58", %"struct.std::__1::__compressed_pair_elem.60" }
%"struct.std::__1::__compressed_pair_elem.58" = type { %"struct.std::__1::__hash_node_base.59"** }
%"struct.std::__1::__hash_node_base.59" = type { %"struct.std::__1::__hash_node_base.59"* }
%"struct.std::__1::__compressed_pair_elem.60" = type { %"class.std::__1::__bucket_list_deallocator.61" }
%"class.std::__1::__bucket_list_deallocator.61" = type { %"class.std::__1::__compressed_pair.62" }
%"class.std::__1::__compressed_pair.62" = type { %"struct.std::__1::__compressed_pair_elem.13" }
%"class.std::__1::__compressed_pair.66" = type { %"struct.std::__1::__compressed_pair_elem.67" }
%"struct.std::__1::__compressed_pair_elem.67" = type { %"struct.std::__1::__hash_node_base.59" }
%"class.std::__1::__compressed_pair.71" = type { %"struct.std::__1::__compressed_pair_elem.13" }
%"class.std::__1::__compressed_pair.74" = type { %"struct.std::__1::__compressed_pair_elem.45" }
%"class.base::TimeTicks" = type { %"class.base::time_internal::TimeBase.314" }
%"class.base::time_internal::TimeBase.314" = type { i64 }
%class.scoped_refptr.132 = type { %"class.base::SingleThreadTaskRunner"* }
%"class.base::SingleThreadTaskRunner" = type { %"class.base::SequencedTaskRunner.base", [4 x i8] }
%"class.base::SequencedTaskRunner.base" = type { %"class.base::TaskRunner.base" }
%"class.base::trace_event::TraceArguments" = type { i8, [2 x i8], [2 x i8*], [2 x %"union.base::trace_event::TraceValue"] }
%"union.base::trace_event::TraceValue" = type { i64 }
%"class.content_settings::PolicyProvider" = type { %"class.content_settings::ObservableProvider", %"class.content_settings::OriginIdentifierValueMap", %class.PrefService*, %class.PrefChangeRegistrar, %"class.base::Lock" }
%"class.content_settings::OriginIdentifierValueMap" = type { %"class.std::__1::map.136" }
%"class.std::__1::map.136" = type { %"class.std::__1::__tree.137" }
%"class.std::__1::__tree.137" = type { %"class.std::__1::__tree_end_node"*, %"class.std::__1::__compressed_pair.138", %"class.std::__1::__compressed_pair.142" }
%"class.std::__1::__compressed_pair.138" = type { %"struct.std::__1::__compressed_pair_elem.10" }
%"class.std::__1::__compressed_pair.142" = type { %"struct.std::__1::__compressed_pair_elem.13" }
%"class.base::Lock" = type { %"class.base::internal::LockImpl" }
%"class.base::internal::LockImpl" = type { %union.pthread_mutex_t }
%union.pthread_mutex_t = type { %struct.__pthread_mutex_s }
%struct.__pthread_mutex_s = type { i32, i32, i32, i32, i32, i16, i16, %struct.__pthread_internal_list }
%struct.__pthread_internal_list = type { %struct.__pthread_internal_list*, %struct.__pthread_internal_list* }
%"class.std::__1::__tree_node" = type { %"class.std::__1::__tree_node_base.base", %"struct.std::__1::__value_type" }
%"class.std::__1::__tree_node_base.base" = type <{ %"class.std::__1::__tree_end_node", %"class.std::__1::__tree_node_base"*, %"class.std::__1::__tree_end_node"*, i8 }>
%"struct.std::__1::__value_type" = type { %"struct.std::__1::pair.246" }
%"struct.std::__1::pair.246" = type { i32, %"class.std::__1::unique_ptr.148" }
%"class.std::__1::unique_ptr.148" = type { %"class.std::__1::__compressed_pair.149" }
%"class.std::__1::__compressed_pair.149" = type { %"struct.std::__1::__compressed_pair_elem.150" }
%"struct.std::__1::__compressed_pair_elem.150" = type { %"class.content_settings::ProviderInterface"* }
%"class.std::__1::__vector_base_common" = type { i8 }
%"class.content_settings::DefaultProvider" = type <{ %"class.content_settings::ObservableProvider", %"class.std::__1::map.163", %class.PrefService*, i8, [7 x i8], %"class.base::Lock", %class.PrefChangeRegistrar, i8, [7 x i8] }>
%"class.std::__1::map.163" = type { %"class.std::__1::__tree.164" }
%"class.std::__1::__tree.164" = type { %"class.std::__1::__tree_end_node"*, %"class.std::__1::__compressed_pair.165", %"class.std::__1::__compressed_pair.169" }
%"class.std::__1::__compressed_pair.165" = type { %"struct.std::__1::__compressed_pair_elem.10" }
%"class.std::__1::__compressed_pair.169" = type { %"struct.std::__1::__compressed_pair_elem.13" }
%"class.content_settings::ContentSettingsRegistry" = type { %"class.std::__1::map.176", %"class.content_settings::WebsiteSettingsRegistry"* }
%"class.std::__1::map.176" = type { %"class.std::__1::__tree.177" }
%"class.std::__1::__tree.177" = type { %"class.std::__1::__tree_end_node"*, %"class.std::__1::__compressed_pair.178", %"class.std::__1::__compressed_pair.182" }
%"class.std::__1::__compressed_pair.178" = type { %"struct.std::__1::__compressed_pair_elem.10" }
%"class.std::__1::__compressed_pair.182" = type { %"struct.std::__1::__compressed_pair_elem.13" }
%"class.content_settings::WebsiteSettingsRegistry" = type { %"class.std::__1::map.185" }
%"class.std::__1::map.185" = type { %"class.std::__1::__tree.186" }
%"class.std::__1::__tree.186" = type { %"class.std::__1::__tree_end_node"*, %"class.std::__1::__compressed_pair.187", %"class.std::__1::__compressed_pair.191" }
%"class.std::__1::__compressed_pair.187" = type { %"struct.std::__1::__compressed_pair_elem.10" }
%"class.std::__1::__compressed_pair.191" = type { %"struct.std::__1::__compressed_pair_elem.13" }
%"class.content_settings::ContentSettingsInfo" = type <{ %"class.content_settings::WebsiteSettingsInfo"*, %"class.std::__1::vector.267", %"class.std::__1::set.274", i32, i32, i32, [4 x i8] }>
%"class.content_settings::WebsiteSettingsInfo" = type { i32, %"class.std::__1::basic_string", %"class.std::__1::basic_string", %"class.std::__1::basic_string", %"class.std::__1::unique_ptr.247", i32, i32, i32, i32 }
%"class.std::__1::basic_string" = type { %"class.std::__1::__compressed_pair.194" }
%"class.std::__1::__compressed_pair.194" = type { %"struct.std::__1::__compressed_pair_elem.195" }
%"struct.std::__1::__compressed_pair_elem.195" = type { %"struct.std::__1::basic_string<char, std::__1::char_traits<char>, std::__1::allocator<char> >::__rep" }
%"struct.std::__1::basic_string<char, std::__1::char_traits<char>, std::__1::allocator<char> >::__rep" = type { %union.anon }
%union.anon = type { %"struct.std::__1::basic_string<char, std::__1::char_traits<char>, std::__1::allocator<char> >::__long" }
%"struct.std::__1::basic_string<char, std::__1::char_traits<char>, std::__1::allocator<char> >::__long" = type { i8*, i64, i64 }
%"class.std::__1::unique_ptr.247" = type { %"class.std::__1::__compressed_pair.248" }
%"class.std::__1::__compressed_pair.248" = type { %"struct.std::__1::__compressed_pair_elem.241" }
%"struct.std::__1::__compressed_pair_elem.241" = type { %"class.base::Value"* }
%"class.base::Value" = type { %"class.absl::variant" }
%"class.absl::variant" = type { %"class.absl::variant_internal::VariantCopyAssignBaseNontrivial" }
%"class.absl::variant_internal::VariantCopyAssignBaseNontrivial" = type { %"class.absl::variant_internal::VariantMoveAssignBaseNontrivial" }
%"class.absl::variant_internal::VariantMoveAssignBaseNontrivial" = type { %"class.absl::variant_internal::VariantCopyBaseNontrivial" }
%"class.absl::variant_internal::VariantCopyBaseNontrivial" = type { %"class.absl::variant_internal::VariantMoveBaseNontrivial" }
%"class.absl::variant_internal::VariantMoveBaseNontrivial" = type { %"class.absl::variant_internal::VariantStateBaseDestructorNontrivial" }
%"class.absl::variant_internal::VariantStateBaseDestructorNontrivial" = type { %"class.absl::variant_internal::VariantStateBase" }
%"class.absl::variant_internal::VariantStateBase" = type { %"union.absl::variant_internal::DestructibleUnionImpl", i64 }
%"union.absl::variant_internal::DestructibleUnionImpl" = type { %"union.absl::variant_internal::DestructibleUnionImpl.217" }
%"union.absl::variant_internal::DestructibleUnionImpl.217" = type { %"union.absl::variant_internal::DestructibleUnionImpl.218" }
%"union.absl::variant_internal::DestructibleUnionImpl.218" = type { %"union.absl::variant_internal::DestructibleUnionImpl.219" }
%"union.absl::variant_internal::DestructibleUnionImpl.219" = type { %"union.absl::variant_internal::DestructibleUnionImpl.220" }
%"union.absl::variant_internal::DestructibleUnionImpl.220" = type { %"class.std::__1::basic_string" }
%"class.std::__1::vector.267" = type { %"class.std::__1::__vector_base.268" }
%"class.std::__1::__vector_base.268" = type { %"class.std::__1::basic_string"*, %"class.std::__1::basic_string"*, %"class.std::__1::__compressed_pair.269" }
%"class.std::__1::__compressed_pair.269" = type { %"struct.std::__1::__compressed_pair_elem.270" }
%"struct.std::__1::__compressed_pair_elem.270" = type { %"class.std::__1::basic_string"* }
%"class.std::__1::set.274" = type { %"class.std::__1::__tree.275" }
%"class.std::__1::__tree.275" = type { %"class.std::__1::__tree_end_node"*, %"class.std::__1::__compressed_pair.276", %"class.std::__1::__compressed_pair.280" }
%"class.std::__1::__compressed_pair.276" = type { %"struct.std::__1::__compressed_pair_elem.10" }
%"class.std::__1::__compressed_pair.280" = type { %"struct.std::__1::__compressed_pair_elem.13" }
%"class.std::__1::vector.258" = type { %"class.std::__1::__vector_base.259" }
%"class.std::__1::__vector_base.259" = type { %struct.ContentSettingPatternSource*, %struct.ContentSettingPatternSource*, %"class.std::__1::__compressed_pair.260" }
%struct.ContentSettingPatternSource = type <{ %class.ContentSettingsPattern, %class.ContentSettingsPattern, %"class.base::Value", %"class.base::Time", %"class.std::__1::basic_string", i8, [7 x i8] }>
%class.ContentSettingsPattern = type { %"struct.ContentSettingsPattern::PatternParts", i8, [7 x i8] }
%"struct.ContentSettingsPattern::PatternParts" = type <{ %"class.std::__1::basic_string", i8, [7 x i8], %"class.std::__1::basic_string", i8, [7 x i8], %"class.std::__1::basic_string", i8, [7 x i8], %"class.std::__1::basic_string", i8, [7 x i8] }>
%"class.base::Time" = type { %"class.base::time_internal::TimeBase" }
%"class.base::time_internal::TimeBase" = type { i64 }
%"class.std::__1::__compressed_pair.260" = type { %"struct.std::__1::__compressed_pair_elem.261" }
%"struct.std::__1::__compressed_pair_elem.261" = type { %struct.ContentSettingPatternSource* }
%"class.base::flat_map.287" = type { %"class.base::internal::flat_tree.288" }
%"class.base::internal::flat_tree.288" = type { %"class.std::__1::vector.289" }
%"class.std::__1::vector.289" = type { %"class.std::__1::__vector_base.290" }
%"class.std::__1::__vector_base.290" = type { %"struct.std::__1::pair.291"*, %"struct.std::__1::pair.291"*, %"class.std::__1::__compressed_pair.292" }
%"struct.std::__1::pair.291" = type { i32, i64 }
%"class.std::__1::__compressed_pair.292" = type { %"struct.std::__1::__compressed_pair_elem.293" }
%"struct.std::__1::__compressed_pair_elem.293" = type { %"struct.std::__1::pair.291"* }
%"struct.std::__1::basic_string<char, std::__1::char_traits<char>, std::__1::allocator<char> >::__short" = type { [23 x i8], %struct.anon }
%struct.anon = type { i8 }
%"class.base::HistogramBase" = type <{ i32 (...)**, i8*, %"struct.std::__1::atomic.303", [4 x i8] }>
%"struct.std::__1::atomic.303" = type { %"struct.std::__1::__atomic_base.304" }
%"struct.std::__1::__atomic_base.304" = type { %"struct.std::__1::__atomic_base.305" }
%"struct.std::__1::__atomic_base.305" = type { %"struct.std::__1::__cxx_atomic_impl.306" }
%"struct.std::__1::__cxx_atomic_impl.306" = type { %"struct.std::__1::__cxx_atomic_base_impl.307" }
%"struct.std::__1::__cxx_atomic_base_impl.307" = type { i32 }
%"class.std::__1::__basic_string_common" = type { i8 }
%"class.user_prefs::PrefRegistrySyncable" = type { %class.PrefRegistrySimple, %"class.base::RepeatingCallback.175" }
%class.PrefRegistrySimple = type { %class.PrefRegistry }
%"class.base::RepeatingCallback.175" = type { %"class.base::internal::CallbackBaseCopyable" }
%"struct.content_settings::Rule" = type <{ %class.ContentSettingsPattern, %class.ContentSettingsPattern, %"class.base::Value", %"class.base::Time", i32, [4 x i8] }>
%"class.content_settings::RuleIterator" = type { i32 (...)** }
%class.GURL = type { %"class.std::__1::basic_string", i8, %"struct.url::Parsed", %"class.std::__1::unique_ptr.252" }
%"struct.url::Parsed" = type { %"struct.url::Component", %"struct.url::Component", %"struct.url::Component", %"struct.url::Component", %"struct.url::Component", %"struct.url::Component", %"struct.url::Component", %"struct.url::Component", i8, %"struct.url::Parsed"* }
%"struct.url::Component" = type { i32, i32 }
%"class.std::__1::unique_ptr.252" = type { %"class.std::__1::__compressed_pair.253" }
%"class.std::__1::__compressed_pair.253" = type { %"struct.std::__1::__compressed_pair_elem.254" }
%"struct.std::__1::__compressed_pair_elem.254" = type { %class.GURL* }
%"struct.content_settings::SettingInfo" = type { i32, [4 x i8], %class.ContentSettingsPattern, %class.ContentSettingsPattern, i32, [4 x i8] }
%"class.std::__1::allocator.263" = type { i8 }
%"struct.content_settings::ContentSettingConstraints" = type <{ %"class.base::Time", i32, [4 x i8] }>
%"struct.std::__1::pair.266" = type { %class.ContentSettingsPattern, %class.ContentSettingsPattern }
%"class.base::WeakPtr" = type { %"class.base::internal::WeakPtrBase" }
%"class.base::internal::WeakPtrBase" = type { %"class.base::internal::WeakReference", i64 }
%"class.base::internal::WeakReference" = type { %class.scoped_refptr.284 }
%class.scoped_refptr.284 = type { %"class.base::internal::WeakReference::Flag"* }
%"class.base::RepeatingCallback.309" = type { %"class.base::internal::CallbackBaseCopyable" }
%"class.base::ObserverList<content_settings::Observer, false, true, base::internal::UncheckedObserverAdapter>::Iter" = type { %"class.base::internal::WeakLinkNode", i64, i64 }
%"class.base::internal::WeakLinkNode" = type { %"class.base::LinkNode.123", %"class.base::ObserverList.121"* }
%"struct.std::__1::__split_buffer.362" = type { %"struct.std::__1::pair.291"*, %"struct.std::__1::pair.291"*, %"struct.std::__1::pair.291"*, %"class.std::__1::__compressed_pair.363" }
%"class.std::__1::__compressed_pair.363" = type { %"struct.std::__1::__compressed_pair_elem.293", %"struct.std::__1::__compressed_pair_elem.364" }
%"struct.std::__1::__compressed_pair_elem.364" = type { %"class.std::__1::allocator.295"* }
%"class.std::__1::allocator.295" = type { i8 }

$_ZN16content_settings8ObserverD2Ev = comdat any

$_ZN16content_settings8ObserverD0Ev = comdat any

$_ZNSt3__16__treeINS_12__value_typeIN22HostContentSettingsMap12ProviderTypeENS_10unique_ptrIN16content_settings17ProviderInterfaceENS_14default_deleteIS6_EEEEEENS_19__map_value_compareIS3_SA_NS_4lessIS3_EELb1EEENS_9allocatorISA_EEE7destroyEPNS_11__tree_nodeISA_PvEE = comdat any

$_ZNSt3__127__tree_balance_after_insertIPNS_16__tree_node_baseIPvEEEEvT_S5_ = comdat any

$_ZNSt3__16vectorINS_4pairI14ContentSettingmEENS_9allocatorIS3_EEE7emplaceIJS2_mEEENS_11__wrap_iterIPS3_EENS8_IPKS3_EEDpOT_ = comdat any

$_ZNSt3__114__split_bufferINS_4pairI14ContentSettingmEERNS_9allocatorIS3_EEE12emplace_backIJS2_mEEEvDpOT_ = comdat any

$_ZNSt3__16vectorINS_4pairI14ContentSettingmEENS_9allocatorIS3_EEE7emplaceIJRKS2_mEEENS_11__wrap_iterIPS3_EENSA_IPKS3_EEDpOT_ = comdat any

$_ZNSt3__114__split_bufferINS_4pairI14ContentSettingmEERNS_9allocatorIS3_EEE12emplace_backIJRKS2_mEEEvDpOT_ = comdat any

$_ZNSt3__16vectorI27ContentSettingPatternSourceNS_9allocatorIS1_EEE24__emplace_back_slow_pathIJR22ContentSettingsPatternS7_N4base5ValueERKPKcRbRNS8_4TimeEEEEvDpOT_ = comdat any

$_ZNSt3__19allocatorI27ContentSettingPatternSourceE9constructIS1_JR22ContentSettingsPatternS5_N4base5ValueERKPKcRbRNS6_4TimeEEEEvPT_DpOT0_ = comdat any

$_ZTVN16content_settings8ObserverE = comdat any

@_ZTV22HostContentSettingsMap = hidden unnamed_addr constant { [6 x i8*], [5 x i8*] } { [6 x i8*] [i8* null, i8* null, i8* bitcast (void (%class.HostContentSettingsMap*, %class.ContentSettingsPattern*, %class.ContentSettingsPattern*, i32)* @_ZN22HostContentSettingsMap23OnContentSettingChangedERK22ContentSettingsPatternS2_19ContentSettingsType to i8*), i8* bitcast (void (%class.HostContentSettingsMap*)* @_ZN22HostContentSettingsMapD2Ev to i8*), i8* bitcast (void (%class.HostContentSettingsMap*)* @_ZN22HostContentSettingsMapD0Ev to i8*), i8* bitcast (void (%class.HostContentSettingsMap*)* @_ZN22HostContentSettingsMap18ShutdownOnUIThreadEv to i8*)], [5 x i8*] [i8* inttoptr (i64 -8 to i8*), i8* null, i8* bitcast (void (%class.HostContentSettingsMap*)* @_ZThn8_N22HostContentSettingsMap18ShutdownOnUIThreadEv to i8*), i8* bitcast (void (%class.HostContentSettingsMap*)* @_ZThn8_N22HostContentSettingsMapD1Ev to i8*), i8* bitcast (void (%class.HostContentSettingsMap*)* @_ZThn8_N22HostContentSettingsMapD0Ev to i8*)] }, align 8
@_ZN4base11trace_event16CategoryRegistry11categories_E = external global [300 x %"struct.base::trace_event::TraceCategory"], align 16
@.str = private unnamed_addr constant [47 x i8] c"HostContentSettingsMap::HostContentSettingsMap\00", align 1
@_ZN5prefs34kContentSettingsWindowLastTabIndexE = external constant [0 x i8], align 1
@_ZN12_GLOBAL__N_123kProviderNamesSourceMapE = internal constant [11 x %"struct.(anonymous namespace)::ProviderNamesSourceMapEntry"] [%"struct.(anonymous namespace)::ProviderNamesSourceMapEntry" { i8* getelementptr inbounds ([16 x i8], [16 x i8]* @.str.15, i32 0, i32 0), i32 4 }, %"struct.(anonymous namespace)::ProviderNamesSourceMapEntry" { i8* getelementptr inbounds ([7 x i8], [7 x i8]* @.str.16, i32 0, i32 0), i32 1 }, %"struct.(anonymous namespace)::ProviderNamesSourceMapEntry" { i8* getelementptr inbounds ([16 x i8], [16 x i8]* @.str.17, i32 0, i32 0), i32 5 }, %"struct.(anonymous namespace)::ProviderNamesSourceMapEntry" { i8* getelementptr inbounds ([10 x i8], [10 x i8]* @.str.18, i32 0, i32 0), i32 2 }, %"struct.(anonymous namespace)::ProviderNamesSourceMapEntry" { i8* getelementptr inbounds ([26 x i8], [26 x i8]* @.str.19, i32 0, i32 0), i32 6 }, %"struct.(anonymous namespace)::ProviderNamesSourceMapEntry" { i8* getelementptr inbounds ([21 x i8], [21 x i8]* @.str.20, i32 0, i32 0), i32 3 }, %"struct.(anonymous namespace)::ProviderNamesSourceMapEntry" { i8* getelementptr inbounds ([9 x i8], [9 x i8]* @.str.21, i32 0, i32 0), i32 3 }, %"struct.(anonymous namespace)::ProviderNamesSourceMapEntry" { i8* getelementptr inbounds ([11 x i8], [11 x i8]* @.str.5, i32 0, i32 0), i32 3 }, %"struct.(anonymous namespace)::ProviderNamesSourceMapEntry" { i8* getelementptr inbounds ([8 x i8], [8 x i8]* @.str.22, i32 0, i32 0), i32 3 }, %"struct.(anonymous namespace)::ProviderNamesSourceMapEntry" { i8* getelementptr inbounds ([6 x i8], [6 x i8]* @.str.23, i32 0, i32 0), i32 3 }, %"struct.(anonymous namespace)::ProviderNamesSourceMapEntry" { i8* getelementptr inbounds ([12 x i8], [12 x i8]* @.str.24, i32 0, i32 0), i32 3 }], align 16
@.ref.tmp = private constant { { i64 }, i32 } zeroinitializer, align 8
@.str.1 = private unnamed_addr constant [32 x i8] c"ContentSettings.ExceptionScheme\00", align 1
@.str.2 = private unnamed_addr constant [44 x i8] c"ContentSettings.ExceptionSchemeFile.HasPath\00", align 1
@.str.3 = private unnamed_addr constant [50 x i8] c"ContentSettings.ExceptionSchemeFile.Type.WithPath\00", align 1
@.str.4 = private unnamed_addr constant [53 x i8] c"ContentSettings.ExceptionSchemeFile.Type.WithoutPath\00", align 1
@.str.5 = private unnamed_addr constant [11 x i8] c"preference\00", align 1
@.str.6 = private unnamed_addr constant [28 x i8] c"ContentSettings.Exceptions.\00", align 1
@.str.7 = private unnamed_addr constant [2 x i8] c".\00", align 1
@.str.8 = private unnamed_addr constant [51 x i8] c"ContentSettings.Exceptions.cookies.AllowThirdParty\00", align 1
@.ref.tmp.9 = private constant { { i64 }, i32 } zeroinitializer, align 8
@.ref.tmp.10 = private constant { { i64 }, i32 } zeroinitializer, align 8
@.ref.tmp.11 = private constant { { i64 }, i32 } zeroinitializer, align 8
@.ref.tmp.12 = private constant { { i64 }, i32 } zeroinitializer, align 8
@.ref.tmp.13 = private constant { { i64 }, i32 } zeroinitializer, align 8
@.ref.tmp.14 = private constant { { i64 }, i32 } zeroinitializer, align 8
@_ZTVN16content_settings8ObserverE = linkonce_odr hidden unnamed_addr constant { [5 x i8*] } { [5 x i8*] [i8* null, i8* null, i8* bitcast (void ()* @__cxa_pure_virtual to i8*), i8* bitcast (void (%"class.content_settings::Observer"*)* @_ZN16content_settings8ObserverD2Ev to i8*), i8* bitcast (void (%"class.content_settings::Observer"*)* @_ZN16content_settings8ObserverD0Ev to i8*)] }, comdat, align 8
@.str.15 = private unnamed_addr constant [16 x i8] c"webui_allowlist\00", align 1
@.str.16 = private unnamed_addr constant [7 x i8] c"policy\00", align 1
@.str.17 = private unnamed_addr constant [16 x i8] c"supervised_user\00", align 1
@.str.18 = private unnamed_addr constant [10 x i8] c"extension\00", align 1
@.str.19 = private unnamed_addr constant [26 x i8] c"installed_webapp_provider\00", align 1
@.str.20 = private unnamed_addr constant [21 x i8] c"notification_android\00", align 1
@.str.21 = private unnamed_addr constant [9 x i8] c"one_time\00", align 1
@.str.22 = private unnamed_addr constant [8 x i8] c"default\00", align 1
@.str.23 = private unnamed_addr constant [6 x i8] c"tests\00", align 1
@.str.24 = private unnamed_addr constant [12 x i8] c"tests_other\00", align 1
@.str.25 = private unnamed_addr constant [6 x i8] c"Allow\00", align 1
@.str.26 = private unnamed_addr constant [6 x i8] c"Block\00", align 1
@.str.27 = private unnamed_addr constant [4 x i8] c"Ask\00", align 1
@.str.28 = private unnamed_addr constant [12 x i8] c"SessionOnly\00", align 1
@.str.29 = private unnamed_addr constant [23 x i8] c"DetectImportantContent\00", align 1
@_ZZN22HostContentSettingsMap22RecordExceptionMetricsEvE24atomic_histogram_pointer.0.0.0.0.0 = internal unnamed_addr global i64 0, align 8
@_ZZN22HostContentSettingsMap22RecordExceptionMetricsEvE24atomic_histogram_pointer_0.0.0.0.0.0 = internal unnamed_addr global i64 0, align 8
@_ZZN22HostContentSettingsMap22RecordExceptionMetricsEvE24atomic_histogram_pointer_1.0.0.0.0.0 = internal unnamed_addr global i64 0, align 8
@_ZZN22HostContentSettingsMap22RecordExceptionMetricsEvE24atomic_histogram_pointer_2.0.0.0.0.0 = internal unnamed_addr global i64 0, align 8
@switch.table._ZN22HostContentSettingsMap22RecordExceptionMetricsEv = private unnamed_addr constant [7 x i8*] [i8* null, i8* getelementptr inbounds ([6 x i8], [6 x i8]* @.str.25, i64 0, i64 0), i8* getelementptr inbounds ([6 x i8], [6 x i8]* @.str.26, i64 0, i64 0), i8* getelementptr inbounds ([4 x i8], [4 x i8]* @.str.27, i64 0, i64 0), i8* getelementptr inbounds ([12 x i8], [12 x i8]* @.str.28, i64 0, i64 0), i8* getelementptr inbounds ([23 x i8], [23 x i8]* @.str.29, i64 0, i64 0), i8* null], align 8

@_ZN22HostContentSettingsMapC1EP11PrefServicebbb = hidden unnamed_addr alias void (%class.HostContentSettingsMap*, %class.PrefService*, i1, i1, i1), void (%class.HostContentSettingsMap*, %class.PrefService*, i1, i1, i1)* @_ZN22HostContentSettingsMapC2EP11PrefServicebbb
@_ZN22HostContentSettingsMapD1Ev = hidden unnamed_addr alias void (%class.HostContentSettingsMap*), void (%class.HostContentSettingsMap*)* @_ZN22HostContentSettingsMapD2Ev

; Function Attrs: nounwind ssp uwtable
define hidden void @_ZN22HostContentSettingsMapC2EP11PrefServicebbb(%class.HostContentSettingsMap*, %class.PrefService*, i1 zeroext, i1 zeroext, i1 zeroext) unnamed_addr #0 align 2 {
  %6 = alloca %"class.base::TimeTicks", align 8
  %7 = zext i1 %2 to i8
  %8 = zext i1 %3 to i8
  %9 = getelementptr inbounds %class.HostContentSettingsMap, %class.HostContentSettingsMap* %0, i64 0, i32 0
  %10 = getelementptr inbounds %class.HostContentSettingsMap, %class.HostContentSettingsMap* %0, i64 0, i32 0, i32 0
  store i32 (...)** bitcast (i8** getelementptr inbounds ({ [5 x i8*] }, { [5 x i8*] }* @_ZTVN16content_settings8ObserverE, i64 0, inrange i32 0, i64 2) to i32 (...)**), i32 (...)*** %10, align 8
  %11 = getelementptr inbounds %class.HostContentSettingsMap, %class.HostContentSettingsMap* %0, i64 0, i32 1
  %12 = tail call dereferenceable(8) %class.scoped_refptr.132* @_ZN4base22ThreadTaskRunnerHandle3GetEv() #13
  %13 = bitcast %class.scoped_refptr.132* %12 to %"class.base::SequencedTaskRunner"**
  %14 = load %"class.base::SequencedTaskRunner"*, %"class.base::SequencedTaskRunner"** %13, align 8
  %15 = icmp eq %"class.base::SequencedTaskRunner"* %14, null
  br i1 %15, label %19, label %16

16:                                               ; preds = %5
  %17 = getelementptr inbounds %"class.base::SequencedTaskRunner", %"class.base::SequencedTaskRunner"* %14, i64 0, i32 0, i32 1, i32 0, i32 0, i32 0, i32 0, i32 0, i32 0, i32 0, i32 0
  %18 = atomicrmw add i32* %17, i32 1 monotonic
  br label %19

19:                                               ; preds = %5, %16
  tail call void @_ZN22RefcountedKeyedServiceC2E13scoped_refptrIN4base19SequencedTaskRunnerEE(%class.RefcountedKeyedService* %11, %"class.base::SequencedTaskRunner"* %14) #13
  %20 = bitcast %class.HostContentSettingsMap* %0 to <2 x i32 (...)**>*
  store <2 x i32 (...)**> <i32 (...)** bitcast (i8** getelementptr inbounds ({ [6 x i8*], [5 x i8*] }, { [6 x i8*], [5 x i8*] }* @_ZTV22HostContentSettingsMap, i64 0, inrange i32 0, i64 2) to i32 (...)**), i32 (...)** bitcast (i8** getelementptr inbounds ({ [6 x i8*], [5 x i8*] }, { [6 x i8*], [5 x i8*] }* @_ZTV22HostContentSettingsMap, i64 0, inrange i32 1, i64 2) to i32 (...)**)>, <2 x i32 (...)**>* %20, align 8
  %21 = getelementptr inbounds %class.HostContentSettingsMap, %class.HostContentSettingsMap* %0, i64 0, i32 2
  store %class.PrefService* %1, %class.PrefService** %21, align 8
  %22 = getelementptr inbounds %class.HostContentSettingsMap, %class.HostContentSettingsMap* %0, i64 0, i32 3
  store i8 %7, i8* %22, align 8
  %23 = getelementptr inbounds %class.HostContentSettingsMap, %class.HostContentSettingsMap* %0, i64 0, i32 4
  store i8 %8, i8* %23, align 1
  %24 = getelementptr inbounds %class.HostContentSettingsMap, %class.HostContentSettingsMap* %0, i64 0, i32 5
  %25 = getelementptr inbounds %class.HostContentSettingsMap, %class.HostContentSettingsMap* %0, i64 0, i32 5, i32 0, i32 1, i32 0, i32 0, i32 0
  %26 = getelementptr inbounds %class.HostContentSettingsMap, %class.HostContentSettingsMap* %0, i64 0, i32 5, i32 0, i32 1, i32 0, i32 0
  %27 = getelementptr inbounds %"class.std::__1::map.78", %"class.std::__1::map.78"* %24, i64 0, i32 0, i32 0
  %28 = bitcast %"class.std::__1::__tree_node_base"** %25 to i8*
  tail call void @llvm.memset.p0i8.i64(i8* align 8 %28, i8 0, i64 16, i1 false) #13
  store %"class.std::__1::__tree_end_node"* %26, %"class.std::__1::__tree_end_node"** %27, align 8
  %29 = getelementptr inbounds %class.HostContentSettingsMap, %class.HostContentSettingsMap* %0, i64 0, i32 6
  %30 = getelementptr inbounds %class.HostContentSettingsMap, %class.HostContentSettingsMap* %0, i64 0, i32 7
  %31 = getelementptr inbounds %class.HostContentSettingsMap, %class.HostContentSettingsMap* %0, i64 0, i32 10
  %32 = bitcast %"class.base::ObserverList.121"* %31 to i8*
  tail call void @llvm.memset.p0i8.i64(i8* align 8 %32, i8 0, i64 24, i1 false) #13
  %33 = getelementptr inbounds %class.HostContentSettingsMap, %class.HostContentSettingsMap* %0, i64 0, i32 10, i32 1, i32 0, i32 0
  %34 = bitcast %"class.std::__1::vector"* %29 to i8*
  call void @llvm.memset.p0i8.i64(i8* align 8 %34, i8 0, i64 32, i1 false)
  tail call void @_ZN4base8internal12LinkNodeBaseC2EPS1_S2_(%"class.base::internal::LinkNodeBase"* %33, %"class.base::internal::LinkNodeBase"* %33, %"class.base::internal::LinkNodeBase"* %33) #13
  %35 = getelementptr inbounds %class.HostContentSettingsMap, %class.HostContentSettingsMap* %0, i64 0, i32 10, i32 2
  store i64 0, i64* %35, align 8
  %36 = getelementptr inbounds %class.HostContentSettingsMap, %class.HostContentSettingsMap* %0, i64 0, i32 10, i32 3
  store i32 0, i32* %36, align 8
  %37 = getelementptr inbounds %class.HostContentSettingsMap, %class.HostContentSettingsMap* %0, i64 0, i32 11
  store i8 0, i8* %37, align 8
  %38 = getelementptr inbounds %class.HostContentSettingsMap, %class.HostContentSettingsMap* %0, i64 0, i32 12, i32 0
  %39 = ptrtoint %class.HostContentSettingsMap* %0 to i64
  tail call void @_ZN4base8internal18WeakPtrFactoryBaseC2Em(%"class.base::internal::WeakPtrFactoryBase"* %38, i64 %39) #13
  %40 = load i8, i8* getelementptr inbounds ([300 x %"struct.base::trace_event::TraceCategory"], [300 x %"struct.base::trace_event::TraceCategory"]* @_ZN4base11trace_event16CategoryRegistry11categories_E, i64 0, i64 123, i32 0), align 16
  %41 = and i8 %40, 25
  %42 = icmp eq i8 %41, 0
  br i1 %42, label %49, label %43, !prof !2

43:                                               ; preds = %19
  %44 = tail call i32 @_ZN4base14PlatformThread9CurrentIdEv() #13
  %45 = bitcast %"class.base::TimeTicks"* %6 to i8*
  call void @llvm.lifetime.start.p0i8(i64 8, i8* nonnull %45) #13
  %46 = getelementptr inbounds %"class.base::TimeTicks", %"class.base::TimeTicks"* %6, i64 0, i32 0, i32 0
  %47 = tail call i64 @_ZN4base6subtle28TimeTicksNowIgnoringOverrideEv() #13
  store i64 %47, i64* %46, align 8
  %48 = call i64 @_ZN20trace_event_internal37AddTraceEventWithThreadIdAndTimestampEcPKhPKcS3_yyiRKN4base9TimeTicksEPNS4_11trace_event14TraceArgumentsEj(i8 signext 88, i8* getelementptr inbounds ([300 x %"struct.base::trace_event::TraceCategory"], [300 x %"struct.base::trace_event::TraceCategory"]* @_ZN4base11trace_event16CategoryRegistry11categories_E, i64 0, i64 123, i32 0), i8* getelementptr inbounds ([47 x i8], [47 x i8]* @.str, i64 0, i64 0), i8* null, i64 0, i64 0, i32 %44, %"class.base::TimeTicks"* nonnull dereferenceable(8) %6, %"class.base::trace_event::TraceArguments"* null, i32 0) #13
  call void @llvm.lifetime.end.p0i8(i64 8, i8* nonnull %45) #13
  br label %49

49:                                               ; preds = %19, %43
  %50 = phi i8* [ null, %19 ], [ getelementptr inbounds ([300 x %"struct.base::trace_event::TraceCategory"], [300 x %"struct.base::trace_event::TraceCategory"]* @_ZN4base11trace_event16CategoryRegistry11categories_E, i64 0, i64 123, i32 0), %43 ]
  %51 = phi i8* [ inttoptr (i64 -6148914691236517206 to i8*), %19 ], [ getelementptr inbounds ([47 x i8], [47 x i8]* @.str, i64 0, i64 0), %43 ]
  %52 = phi i64 [ -6148914691236517206, %19 ], [ %48, %43 ]
  %53 = call i8* @_Znwm(i64 184) #14
  %54 = bitcast i8* %53 to %"class.content_settings::PolicyProvider"*
  %55 = load %class.PrefService*, %class.PrefService** %21, align 8
  call void @_ZN16content_settings14PolicyProviderC1EP11PrefService(%"class.content_settings::PolicyProvider"* nonnull %54, %class.PrefService* %55) #13
  %56 = bitcast %"class.std::__1::__tree_end_node"* %26 to %"class.std::__1::__tree_node"**
  %57 = load %"class.std::__1::__tree_node"*, %"class.std::__1::__tree_node"** %56, align 8
  %58 = icmp eq %"class.std::__1::__tree_node"* %57, null
  br i1 %58, label %85, label %59

59:                                               ; preds = %49, %81
  %60 = phi %"class.std::__1::__tree_node"* [ %84, %81 ], [ %57, %49 ]
  %61 = phi %"class.std::__1::__tree_node_base"** [ %83, %81 ], [ %25, %49 ]
  %62 = getelementptr inbounds %"class.std::__1::__tree_node", %"class.std::__1::__tree_node"* %60, i64 0, i32 1, i32 0, i32 0
  %63 = load i32, i32* %62, align 4
  %64 = icmp sgt i32 %63, 1
  br i1 %64, label %65, label %71

65:                                               ; preds = %59
  %66 = getelementptr inbounds %"class.std::__1::__tree_node", %"class.std::__1::__tree_node"* %60, i64 0, i32 0, i32 0, i32 0
  %67 = load %"class.std::__1::__tree_node_base"*, %"class.std::__1::__tree_node_base"** %66, align 8
  %68 = icmp eq %"class.std::__1::__tree_node_base"* %67, null
  br i1 %68, label %69, label %81

69:                                               ; preds = %65
  %70 = getelementptr inbounds %"class.std::__1::__tree_node", %"class.std::__1::__tree_node"* %60, i64 0, i32 0, i32 0
  br label %87

71:                                               ; preds = %59
  %72 = icmp eq i32 %63, 1
  br i1 %72, label %79, label %73

73:                                               ; preds = %71
  %74 = getelementptr inbounds %"class.std::__1::__tree_node", %"class.std::__1::__tree_node"* %60, i64 0, i32 0, i32 1
  %75 = load %"class.std::__1::__tree_node_base"*, %"class.std::__1::__tree_node_base"** %74, align 8
  %76 = icmp eq %"class.std::__1::__tree_node_base"* %75, null
  br i1 %76, label %77, label %81

77:                                               ; preds = %73
  %78 = getelementptr inbounds %"class.std::__1::__tree_node", %"class.std::__1::__tree_node"* %60, i64 0, i32 0, i32 0
  br label %87

79:                                               ; preds = %71
  %80 = getelementptr inbounds %"class.std::__1::__tree_node", %"class.std::__1::__tree_node"* %60, i64 0, i32 0, i32 0
  br label %87

81:                                               ; preds = %73, %65
  %82 = phi %"class.std::__1::__tree_node_base"* [ %67, %65 ], [ %75, %73 ]
  %83 = phi %"class.std::__1::__tree_node_base"** [ %66, %65 ], [ %74, %73 ]
  %84 = bitcast %"class.std::__1::__tree_node_base"* %82 to %"class.std::__1::__tree_node"*
  br label %59

85:                                               ; preds = %49
  %86 = getelementptr inbounds %"class.std::__1::__tree_end_node", %"class.std::__1::__tree_end_node"* %26, i64 0, i32 0
  br label %87

87:                                               ; preds = %85, %79, %77, %69
  %88 = phi %"class.std::__1::__tree_end_node"* [ %26, %85 ], [ %70, %69 ], [ %78, %77 ], [ %80, %79 ]
  %89 = phi %"class.std::__1::__tree_node_base"** [ %86, %85 ], [ %66, %69 ], [ %74, %77 ], [ %61, %79 ]
  %90 = bitcast %"class.std::__1::__tree_node_base"** %89 to %"class.std::__1::__tree_node"**
  %91 = load %"class.std::__1::__tree_node"*, %"class.std::__1::__tree_node"** %90, align 8
  %92 = icmp eq %"class.std::__1::__tree_node"* %91, null
  br i1 %92, label %93, label %118

93:                                               ; preds = %87
  %94 = call i8* @_Znwm(i64 48) #14, !noalias !3
  %95 = getelementptr inbounds i8, i8* %94, i64 32
  %96 = bitcast i8* %95 to i32*
  store i32 1, i32* %96, align 8, !noalias !3
  %97 = getelementptr inbounds i8, i8* %94, i64 40
  %98 = bitcast i8* %97 to i64*
  store i64 0, i64* %98, align 8, !noalias !3
  %99 = bitcast i8* %94 to %"class.std::__1::__tree_node"*
  %100 = bitcast i8* %94 to %"class.std::__1::__tree_node_base"*
  %101 = getelementptr inbounds i8, i8* %94, i64 16
  %102 = bitcast i8* %101 to %"class.std::__1::__tree_end_node"**
  call void @llvm.memset.p0i8.i64(i8* nonnull align 8 %94, i8 0, i64 16, i1 false) #13
  store %"class.std::__1::__tree_end_node"* %88, %"class.std::__1::__tree_end_node"** %102, align 8
  %103 = bitcast %"class.std::__1::__tree_node_base"** %89 to i8**
  store i8* %94, i8** %103, align 8
  %104 = load %"class.std::__1::__tree_end_node"*, %"class.std::__1::__tree_end_node"** %27, align 8
  %105 = getelementptr inbounds %"class.std::__1::__tree_end_node", %"class.std::__1::__tree_end_node"* %104, i64 0, i32 0
  %106 = load %"class.std::__1::__tree_node_base"*, %"class.std::__1::__tree_node_base"** %105, align 8
  %107 = icmp eq %"class.std::__1::__tree_node_base"* %106, null
  br i1 %107, label %112, label %108

108:                                              ; preds = %93
  %109 = ptrtoint %"class.std::__1::__tree_node_base"* %106 to i64
  %110 = bitcast %"class.std::__1::map.78"* %24 to i64*
  store i64 %109, i64* %110, align 8
  %111 = load %"class.std::__1::__tree_node_base"*, %"class.std::__1::__tree_node_base"** %89, align 8
  br label %112

112:                                              ; preds = %108, %93
  %113 = phi %"class.std::__1::__tree_node_base"* [ %100, %93 ], [ %111, %108 ]
  %114 = load %"class.std::__1::__tree_node_base"*, %"class.std::__1::__tree_node_base"** %25, align 8
  call void @_ZNSt3__127__tree_balance_after_insertIPNS_16__tree_node_baseIPvEEEEvT_S5_(%"class.std::__1::__tree_node_base"* %114, %"class.std::__1::__tree_node_base"* %113) #13
  %115 = getelementptr inbounds %class.HostContentSettingsMap, %class.HostContentSettingsMap* %0, i64 0, i32 5, i32 0, i32 2, i32 0, i32 0
  %116 = load i64, i64* %115, align 8
  %117 = add i64 %116, 1
  store i64 %117, i64* %115, align 8
  br label %118

118:                                              ; preds = %87, %112
  %119 = phi %"class.std::__1::__tree_node"* [ %99, %112 ], [ %91, %87 ]
  %120 = getelementptr inbounds %"class.std::__1::__tree_node", %"class.std::__1::__tree_node"* %119, i64 0, i32 1, i32 0, i32 1, i32 0, i32 0, i32 0
  %121 = load %"class.content_settings::ProviderInterface"*, %"class.content_settings::ProviderInterface"** %120, align 8
  %122 = bitcast %"class.content_settings::ProviderInterface"** %120 to i8**
  store i8* %53, i8** %122, align 8
  %123 = icmp eq %"class.content_settings::ProviderInterface"* %121, null
  br i1 %123, label %129, label %124

124:                                              ; preds = %118
  %125 = bitcast %"class.content_settings::ProviderInterface"* %121 to void (%"class.content_settings::ProviderInterface"*)***
  %126 = load void (%"class.content_settings::ProviderInterface"*)**, void (%"class.content_settings::ProviderInterface"*)*** %125, align 8
  %127 = getelementptr inbounds void (%"class.content_settings::ProviderInterface"*)*, void (%"class.content_settings::ProviderInterface"*)** %126, i64 1
  %128 = load void (%"class.content_settings::ProviderInterface"*)*, void (%"class.content_settings::ProviderInterface"*)** %127, align 8
  call void %128(%"class.content_settings::ProviderInterface"* nonnull %121) #13
  br label %129

129:                                              ; preds = %118, %124
  %130 = bitcast i8* %53 to %"class.content_settings::ObservableProvider"*
  call void @_ZN16content_settings18ObservableProvider11AddObserverEPNS_8ObserverE(%"class.content_settings::ObservableProvider"* nonnull %130, %"class.content_settings::Observer"* %9) #13
  %131 = call i8* @_Znwm(i64 168) #14
  %132 = bitcast i8* %131 to %"class.content_settings::PrefProvider"*
  %133 = load %class.PrefService*, %class.PrefService** %21, align 8
  %134 = load i8, i8* %22, align 1, !range !6
  %135 = icmp ne i8 %134, 0
  %136 = load i8, i8* %23, align 1, !range !6
  %137 = icmp ne i8 %136, 0
  call void @_ZN16content_settings12PrefProviderC1EP11PrefServicebbb(%"class.content_settings::PrefProvider"* nonnull %132, %class.PrefService* %133, i1 zeroext %135, i1 zeroext %137, i1 zeroext %4) #13
  %138 = bitcast %"class.content_settings::PrefProvider"** %30 to i8**
  store i8* %131, i8** %138, align 8
  %139 = load %"class.std::__1::__tree_node"*, %"class.std::__1::__tree_node"** %56, align 8
  %140 = icmp eq %"class.std::__1::__tree_node"* %139, null
  br i1 %140, label %167, label %141

141:                                              ; preds = %129, %163
  %142 = phi %"class.std::__1::__tree_node"* [ %166, %163 ], [ %139, %129 ]
  %143 = phi %"class.std::__1::__tree_node_base"** [ %165, %163 ], [ %25, %129 ]
  %144 = getelementptr inbounds %"class.std::__1::__tree_node", %"class.std::__1::__tree_node"* %142, i64 0, i32 1, i32 0, i32 0
  %145 = load i32, i32* %144, align 4
  %146 = icmp sgt i32 %145, 7
  br i1 %146, label %147, label %153

147:                                              ; preds = %141
  %148 = getelementptr inbounds %"class.std::__1::__tree_node", %"class.std::__1::__tree_node"* %142, i64 0, i32 0, i32 0, i32 0
  %149 = load %"class.std::__1::__tree_node_base"*, %"class.std::__1::__tree_node_base"** %148, align 8
  %150 = icmp eq %"class.std::__1::__tree_node_base"* %149, null
  br i1 %150, label %151, label %163

151:                                              ; preds = %147
  %152 = getelementptr inbounds %"class.std::__1::__tree_node", %"class.std::__1::__tree_node"* %142, i64 0, i32 0, i32 0
  br label %169

153:                                              ; preds = %141
  %154 = icmp eq i32 %145, 7
  br i1 %154, label %161, label %155

155:                                              ; preds = %153
  %156 = getelementptr inbounds %"class.std::__1::__tree_node", %"class.std::__1::__tree_node"* %142, i64 0, i32 0, i32 1
  %157 = load %"class.std::__1::__tree_node_base"*, %"class.std::__1::__tree_node_base"** %156, align 8
  %158 = icmp eq %"class.std::__1::__tree_node_base"* %157, null
  br i1 %158, label %159, label %163

159:                                              ; preds = %155
  %160 = getelementptr inbounds %"class.std::__1::__tree_node", %"class.std::__1::__tree_node"* %142, i64 0, i32 0, i32 0
  br label %169

161:                                              ; preds = %153
  %162 = getelementptr inbounds %"class.std::__1::__tree_node", %"class.std::__1::__tree_node"* %142, i64 0, i32 0, i32 0
  br label %169

163:                                              ; preds = %155, %147
  %164 = phi %"class.std::__1::__tree_node_base"* [ %149, %147 ], [ %157, %155 ]
  %165 = phi %"class.std::__1::__tree_node_base"** [ %148, %147 ], [ %156, %155 ]
  %166 = bitcast %"class.std::__1::__tree_node_base"* %164 to %"class.std::__1::__tree_node"*
  br label %141

167:                                              ; preds = %129
  %168 = getelementptr inbounds %"class.std::__1::__tree_end_node", %"class.std::__1::__tree_end_node"* %26, i64 0, i32 0
  br label %169

169:                                              ; preds = %167, %161, %159, %151
  %170 = phi %"class.std::__1::__tree_end_node"* [ %26, %167 ], [ %152, %151 ], [ %160, %159 ], [ %162, %161 ]
  %171 = phi %"class.std::__1::__tree_node_base"** [ %168, %167 ], [ %148, %151 ], [ %156, %159 ], [ %143, %161 ]
  %172 = bitcast %"class.std::__1::__tree_node_base"** %171 to %"class.std::__1::__tree_node"**
  %173 = load %"class.std::__1::__tree_node"*, %"class.std::__1::__tree_node"** %172, align 8
  %174 = icmp eq %"class.std::__1::__tree_node"* %173, null
  br i1 %174, label %175, label %200

175:                                              ; preds = %169
  %176 = call i8* @_Znwm(i64 48) #14, !noalias !7
  %177 = getelementptr inbounds i8, i8* %176, i64 32
  %178 = bitcast i8* %177 to i32*
  store i32 7, i32* %178, align 8, !noalias !7
  %179 = getelementptr inbounds i8, i8* %176, i64 40
  %180 = bitcast i8* %179 to i64*
  store i64 0, i64* %180, align 8, !noalias !7
  %181 = bitcast i8* %176 to %"class.std::__1::__tree_node"*
  %182 = bitcast i8* %176 to %"class.std::__1::__tree_node_base"*
  %183 = getelementptr inbounds i8, i8* %176, i64 16
  %184 = bitcast i8* %183 to %"class.std::__1::__tree_end_node"**
  call void @llvm.memset.p0i8.i64(i8* nonnull align 8 %176, i8 0, i64 16, i1 false) #13
  store %"class.std::__1::__tree_end_node"* %170, %"class.std::__1::__tree_end_node"** %184, align 8
  %185 = bitcast %"class.std::__1::__tree_node_base"** %171 to i8**
  store i8* %176, i8** %185, align 8
  %186 = load %"class.std::__1::__tree_end_node"*, %"class.std::__1::__tree_end_node"** %27, align 8
  %187 = getelementptr inbounds %"class.std::__1::__tree_end_node", %"class.std::__1::__tree_end_node"* %186, i64 0, i32 0
  %188 = load %"class.std::__1::__tree_node_base"*, %"class.std::__1::__tree_node_base"** %187, align 8
  %189 = icmp eq %"class.std::__1::__tree_node_base"* %188, null
  br i1 %189, label %194, label %190

190:                                              ; preds = %175
  %191 = ptrtoint %"class.std::__1::__tree_node_base"* %188 to i64
  %192 = bitcast %"class.std::__1::map.78"* %24 to i64*
  store i64 %191, i64* %192, align 8
  %193 = load %"class.std::__1::__tree_node_base"*, %"class.std::__1::__tree_node_base"** %171, align 8
  br label %194

194:                                              ; preds = %190, %175
  %195 = phi %"class.std::__1::__tree_node_base"* [ %182, %175 ], [ %193, %190 ]
  %196 = load %"class.std::__1::__tree_node_base"*, %"class.std::__1::__tree_node_base"** %25, align 8
  call void @_ZNSt3__127__tree_balance_after_insertIPNS_16__tree_node_baseIPvEEEEvT_S5_(%"class.std::__1::__tree_node_base"* %196, %"class.std::__1::__tree_node_base"* %195) #13
  %197 = getelementptr inbounds %class.HostContentSettingsMap, %class.HostContentSettingsMap* %0, i64 0, i32 5, i32 0, i32 2, i32 0, i32 0
  %198 = load i64, i64* %197, align 8
  %199 = add i64 %198, 1
  store i64 %199, i64* %197, align 8
  br label %200

200:                                              ; preds = %169, %194
  %201 = phi %"class.std::__1::__tree_node"* [ %181, %194 ], [ %173, %169 ]
  %202 = getelementptr inbounds %"class.std::__1::__tree_node", %"class.std::__1::__tree_node"* %201, i64 0, i32 1, i32 0, i32 1, i32 0, i32 0, i32 0
  %203 = load %"class.content_settings::ProviderInterface"*, %"class.content_settings::ProviderInterface"** %202, align 8
  %204 = bitcast %"class.content_settings::ProviderInterface"** %202 to i8**
  store i8* %131, i8** %204, align 8
  %205 = icmp eq %"class.content_settings::ProviderInterface"* %203, null
  br i1 %205, label %211, label %206

206:                                              ; preds = %200
  %207 = bitcast %"class.content_settings::ProviderInterface"* %203 to void (%"class.content_settings::ProviderInterface"*)***
  %208 = load void (%"class.content_settings::ProviderInterface"*)**, void (%"class.content_settings::ProviderInterface"*)*** %207, align 8
  %209 = getelementptr inbounds void (%"class.content_settings::ProviderInterface"*)*, void (%"class.content_settings::ProviderInterface"*)** %208, i64 1
  %210 = load void (%"class.content_settings::ProviderInterface"*)*, void (%"class.content_settings::ProviderInterface"*)** %209, align 8
  call void %210(%"class.content_settings::ProviderInterface"* nonnull %203) #13
  br label %211

211:                                              ; preds = %200, %206
  %212 = bitcast %"class.content_settings::PrefProvider"** %30 to i64*
  %213 = load i64, i64* %212, align 8
  %214 = getelementptr inbounds %class.HostContentSettingsMap, %class.HostContentSettingsMap* %0, i64 0, i32 6, i32 0, i32 1
  %215 = load %"class.content_settings::UserModifiableProvider"**, %"class.content_settings::UserModifiableProvider"*** %214, align 8
  %216 = getelementptr inbounds %class.HostContentSettingsMap, %class.HostContentSettingsMap* %0, i64 0, i32 6, i32 0, i32 2, i32 0, i32 0
  %217 = load %"class.content_settings::UserModifiableProvider"**, %"class.content_settings::UserModifiableProvider"*** %216, align 8
  %218 = icmp ult %"class.content_settings::UserModifiableProvider"** %215, %217
  %219 = ptrtoint %"class.content_settings::UserModifiableProvider"** %217 to i64
  br i1 %218, label %220, label %225

220:                                              ; preds = %211
  %221 = bitcast %"class.content_settings::UserModifiableProvider"** %215 to i64*
  store i64 %213, i64* %221, align 8
  %222 = getelementptr inbounds %"class.content_settings::UserModifiableProvider"*, %"class.content_settings::UserModifiableProvider"** %215, i64 1
  %223 = ptrtoint %"class.content_settings::UserModifiableProvider"** %222 to i64
  %224 = bitcast %"class.content_settings::UserModifiableProvider"*** %214 to i64*
  store i64 %223, i64* %224, align 8
  br label %282

225:                                              ; preds = %211
  %226 = ptrtoint %"class.content_settings::UserModifiableProvider"** %215 to i64
  %227 = bitcast %"class.content_settings::UserModifiableProvider"*** %214 to i64*
  %228 = bitcast %"class.std::__1::vector"* %29 to i64*
  %229 = load i64, i64* %228, align 8
  %230 = sub i64 %226, %229
  %231 = ashr exact i64 %230, 3
  %232 = add nsw i64 %231, 1
  %233 = icmp ugt i64 %232, 2305843009213693951
  br i1 %233, label %234, label %236

234:                                              ; preds = %225
  %235 = bitcast %"class.std::__1::vector"* %29 to %"class.std::__1::__vector_base_common"*
  call void @_ZNKSt3__120__vector_base_commonILb1EE20__throw_length_errorEv(%"class.std::__1::__vector_base_common"* %235) #15
  unreachable

236:                                              ; preds = %225
  %237 = bitcast %"class.content_settings::UserModifiableProvider"*** %216 to i64*
  %238 = sub i64 %219, %229
  %239 = ashr exact i64 %238, 3
  %240 = icmp ult i64 %239, 1152921504606846975
  br i1 %240, label %241, label %249

241:                                              ; preds = %236
  %242 = ashr exact i64 %238, 2
  %243 = icmp ult i64 %242, %232
  %244 = select i1 %243, i64 %232, i64 %242
  %245 = icmp eq i64 %244, 0
  br i1 %245, label %254, label %246

246:                                              ; preds = %241
  %247 = icmp ugt i64 %244, 2305843009213693951
  br i1 %247, label %248, label %249

248:                                              ; preds = %246
  call void @abort() #15
  unreachable

249:                                              ; preds = %246, %236
  %250 = phi i64 [ %244, %246 ], [ 2305843009213693951, %236 ]
  %251 = shl i64 %250, 3
  %252 = call i8* @_Znwm(i64 %251) #14
  %253 = bitcast i8* %252 to %"class.content_settings::UserModifiableProvider"**
  br label %254

254:                                              ; preds = %249, %241
  %255 = phi i64 [ %250, %249 ], [ 0, %241 ]
  %256 = phi %"class.content_settings::UserModifiableProvider"** [ %253, %249 ], [ null, %241 ]
  %257 = getelementptr inbounds %"class.content_settings::UserModifiableProvider"*, %"class.content_settings::UserModifiableProvider"** %256, i64 %231
  %258 = getelementptr inbounds %"class.content_settings::UserModifiableProvider"*, %"class.content_settings::UserModifiableProvider"** %256, i64 %255
  %259 = ptrtoint %"class.content_settings::UserModifiableProvider"** %258 to i64
  %260 = bitcast %"class.content_settings::UserModifiableProvider"** %257 to i64*
  store i64 %213, i64* %260, align 8
  %261 = getelementptr inbounds %"class.content_settings::UserModifiableProvider"*, %"class.content_settings::UserModifiableProvider"** %257, i64 1
  %262 = ptrtoint %"class.content_settings::UserModifiableProvider"** %261 to i64
  %263 = getelementptr inbounds %"class.std::__1::vector", %"class.std::__1::vector"* %29, i64 0, i32 0, i32 0
  %264 = load %"class.content_settings::UserModifiableProvider"**, %"class.content_settings::UserModifiableProvider"*** %263, align 8
  %265 = load i64, i64* %227, align 8
  %266 = ptrtoint %"class.content_settings::UserModifiableProvider"** %264 to i64
  %267 = sub i64 %265, %266
  %268 = ashr exact i64 %267, 3
  %269 = sub nsw i64 0, %268
  %270 = getelementptr inbounds %"class.content_settings::UserModifiableProvider"*, %"class.content_settings::UserModifiableProvider"** %257, i64 %269
  %271 = ptrtoint %"class.content_settings::UserModifiableProvider"** %270 to i64
  %272 = icmp sgt i64 %267, 0
  br i1 %272, label %273, label %277

273:                                              ; preds = %254
  %274 = bitcast %"class.content_settings::UserModifiableProvider"** %270 to i8*
  %275 = bitcast %"class.content_settings::UserModifiableProvider"** %264 to i8*
  call void @llvm.memcpy.p0i8.p0i8.i64(i8* align 8 %274, i8* align 8 %275, i64 %267, i1 false) #13
  %276 = load %"class.content_settings::UserModifiableProvider"**, %"class.content_settings::UserModifiableProvider"*** %263, align 8
  br label %277

277:                                              ; preds = %273, %254
  %278 = phi %"class.content_settings::UserModifiableProvider"** [ %264, %254 ], [ %276, %273 ]
  store i64 %271, i64* %228, align 8
  store i64 %262, i64* %227, align 8
  store i64 %259, i64* %237, align 8
  %279 = icmp eq %"class.content_settings::UserModifiableProvider"** %278, null
  br i1 %279, label %282, label %280

280:                                              ; preds = %277
  %281 = bitcast %"class.content_settings::UserModifiableProvider"** %278 to i8*
  call void @_ZdlPv(i8* %281) #14
  br label %282

282:                                              ; preds = %220, %277, %280
  %283 = bitcast %"class.content_settings::PrefProvider"** %30 to %"class.content_settings::ObservableProvider"**
  %284 = load %"class.content_settings::ObservableProvider"*, %"class.content_settings::ObservableProvider"** %283, align 8
  call void @_ZN16content_settings18ObservableProvider11AddObserverEPNS_8ObserverE(%"class.content_settings::ObservableProvider"* %284, %"class.content_settings::Observer"* %9) #13
  %285 = call i8* @_Znwm(i64 200) #14
  %286 = bitcast i8* %285 to %"class.content_settings::DefaultProvider"*
  %287 = load %class.PrefService*, %class.PrefService** %21, align 8
  %288 = load i8, i8* %22, align 1, !range !6
  %289 = icmp ne i8 %288, 0
  call void @_ZN16content_settings15DefaultProviderC1EP11PrefServiceb(%"class.content_settings::DefaultProvider"* nonnull %286, %class.PrefService* %287, i1 zeroext %289) #13
  %290 = bitcast i8* %285 to %"class.content_settings::ObservableProvider"*
  call void @_ZN16content_settings18ObservableProvider11AddObserverEPNS_8ObserverE(%"class.content_settings::ObservableProvider"* nonnull %290, %"class.content_settings::Observer"* %9) #13
  %291 = load %"class.std::__1::__tree_node"*, %"class.std::__1::__tree_node"** %56, align 8
  %292 = icmp eq %"class.std::__1::__tree_node"* %291, null
  br i1 %292, label %319, label %293

293:                                              ; preds = %282, %315
  %294 = phi %"class.std::__1::__tree_node"* [ %318, %315 ], [ %291, %282 ]
  %295 = phi %"class.std::__1::__tree_node_base"** [ %317, %315 ], [ %25, %282 ]
  %296 = getelementptr inbounds %"class.std::__1::__tree_node", %"class.std::__1::__tree_node"* %294, i64 0, i32 1, i32 0, i32 0
  %297 = load i32, i32* %296, align 4
  %298 = icmp sgt i32 %297, 8
  br i1 %298, label %299, label %305

299:                                              ; preds = %293
  %300 = getelementptr inbounds %"class.std::__1::__tree_node", %"class.std::__1::__tree_node"* %294, i64 0, i32 0, i32 0, i32 0
  %301 = load %"class.std::__1::__tree_node_base"*, %"class.std::__1::__tree_node_base"** %300, align 8
  %302 = icmp eq %"class.std::__1::__tree_node_base"* %301, null
  br i1 %302, label %303, label %315

303:                                              ; preds = %299
  %304 = getelementptr inbounds %"class.std::__1::__tree_node", %"class.std::__1::__tree_node"* %294, i64 0, i32 0, i32 0
  br label %321

305:                                              ; preds = %293
  %306 = icmp eq i32 %297, 8
  br i1 %306, label %313, label %307

307:                                              ; preds = %305
  %308 = getelementptr inbounds %"class.std::__1::__tree_node", %"class.std::__1::__tree_node"* %294, i64 0, i32 0, i32 1
  %309 = load %"class.std::__1::__tree_node_base"*, %"class.std::__1::__tree_node_base"** %308, align 8
  %310 = icmp eq %"class.std::__1::__tree_node_base"* %309, null
  br i1 %310, label %311, label %315

311:                                              ; preds = %307
  %312 = getelementptr inbounds %"class.std::__1::__tree_node", %"class.std::__1::__tree_node"* %294, i64 0, i32 0, i32 0
  br label %321

313:                                              ; preds = %305
  %314 = getelementptr inbounds %"class.std::__1::__tree_node", %"class.std::__1::__tree_node"* %294, i64 0, i32 0, i32 0
  br label %321

315:                                              ; preds = %307, %299
  %316 = phi %"class.std::__1::__tree_node_base"* [ %301, %299 ], [ %309, %307 ]
  %317 = phi %"class.std::__1::__tree_node_base"** [ %300, %299 ], [ %308, %307 ]
  %318 = bitcast %"class.std::__1::__tree_node_base"* %316 to %"class.std::__1::__tree_node"*
  br label %293

319:                                              ; preds = %282
  %320 = getelementptr inbounds %"class.std::__1::__tree_end_node", %"class.std::__1::__tree_end_node"* %26, i64 0, i32 0
  br label %321

321:                                              ; preds = %319, %313, %311, %303
  %322 = phi %"class.std::__1::__tree_end_node"* [ %26, %319 ], [ %304, %303 ], [ %312, %311 ], [ %314, %313 ]
  %323 = phi %"class.std::__1::__tree_node_base"** [ %320, %319 ], [ %300, %303 ], [ %308, %311 ], [ %295, %313 ]
  %324 = bitcast %"class.std::__1::__tree_node_base"** %323 to %"class.std::__1::__tree_node"**
  %325 = load %"class.std::__1::__tree_node"*, %"class.std::__1::__tree_node"** %324, align 8
  %326 = icmp eq %"class.std::__1::__tree_node"* %325, null
  br i1 %326, label %327, label %352

327:                                              ; preds = %321
  %328 = call i8* @_Znwm(i64 48) #14, !noalias !10
  %329 = getelementptr inbounds i8, i8* %328, i64 32
  %330 = bitcast i8* %329 to i32*
  store i32 8, i32* %330, align 8, !noalias !10
  %331 = getelementptr inbounds i8, i8* %328, i64 40
  %332 = bitcast i8* %331 to i64*
  store i64 0, i64* %332, align 8, !noalias !10
  %333 = bitcast i8* %328 to %"class.std::__1::__tree_node"*
  %334 = bitcast i8* %328 to %"class.std::__1::__tree_node_base"*
  %335 = getelementptr inbounds i8, i8* %328, i64 16
  %336 = bitcast i8* %335 to %"class.std::__1::__tree_end_node"**
  call void @llvm.memset.p0i8.i64(i8* nonnull align 8 %328, i8 0, i64 16, i1 false) #13
  store %"class.std::__1::__tree_end_node"* %322, %"class.std::__1::__tree_end_node"** %336, align 8
  %337 = bitcast %"class.std::__1::__tree_node_base"** %323 to i8**
  store i8* %328, i8** %337, align 8
  %338 = load %"class.std::__1::__tree_end_node"*, %"class.std::__1::__tree_end_node"** %27, align 8
  %339 = getelementptr inbounds %"class.std::__1::__tree_end_node", %"class.std::__1::__tree_end_node"* %338, i64 0, i32 0
  %340 = load %"class.std::__1::__tree_node_base"*, %"class.std::__1::__tree_node_base"** %339, align 8
  %341 = icmp eq %"class.std::__1::__tree_node_base"* %340, null
  br i1 %341, label %346, label %342

342:                                              ; preds = %327
  %343 = ptrtoint %"class.std::__1::__tree_node_base"* %340 to i64
  %344 = bitcast %"class.std::__1::map.78"* %24 to i64*
  store i64 %343, i64* %344, align 8
  %345 = load %"class.std::__1::__tree_node_base"*, %"class.std::__1::__tree_node_base"** %323, align 8
  br label %346

346:                                              ; preds = %342, %327
  %347 = phi %"class.std::__1::__tree_node_base"* [ %334, %327 ], [ %345, %342 ]
  %348 = load %"class.std::__1::__tree_node_base"*, %"class.std::__1::__tree_node_base"** %25, align 8
  call void @_ZNSt3__127__tree_balance_after_insertIPNS_16__tree_node_baseIPvEEEEvT_S5_(%"class.std::__1::__tree_node_base"* %348, %"class.std::__1::__tree_node_base"* %347) #13
  %349 = getelementptr inbounds %class.HostContentSettingsMap, %class.HostContentSettingsMap* %0, i64 0, i32 5, i32 0, i32 2, i32 0, i32 0
  %350 = load i64, i64* %349, align 8
  %351 = add i64 %350, 1
  store i64 %351, i64* %349, align 8
  br label %352

352:                                              ; preds = %321, %346
  %353 = phi %"class.std::__1::__tree_node"* [ %333, %346 ], [ %325, %321 ]
  %354 = getelementptr inbounds %"class.std::__1::__tree_node", %"class.std::__1::__tree_node"* %353, i64 0, i32 1, i32 0, i32 1, i32 0, i32 0, i32 0
  %355 = load %"class.content_settings::ProviderInterface"*, %"class.content_settings::ProviderInterface"** %354, align 8
  %356 = bitcast %"class.content_settings::ProviderInterface"** %354 to i8**
  store i8* %285, i8** %356, align 8
  %357 = icmp eq %"class.content_settings::ProviderInterface"* %355, null
  br i1 %357, label %363, label %358

358:                                              ; preds = %352
  %359 = bitcast %"class.content_settings::ProviderInterface"* %355 to void (%"class.content_settings::ProviderInterface"*)***
  %360 = load void (%"class.content_settings::ProviderInterface"*)**, void (%"class.content_settings::ProviderInterface"*)*** %359, align 8
  %361 = getelementptr inbounds void (%"class.content_settings::ProviderInterface"*)*, void (%"class.content_settings::ProviderInterface"*)** %360, i64 1
  %362 = load void (%"class.content_settings::ProviderInterface"*)*, void (%"class.content_settings::ProviderInterface"*)** %361, align 8
  call void %362(%"class.content_settings::ProviderInterface"* nonnull %355) #13
  br label %363

363:                                              ; preds = %358, %352
  call void @_ZN22HostContentSettingsMap54MigrateSettingsPrecedingPermissionDelegationActivationEv(%class.HostContentSettingsMap* %0)
  call void @_ZN22HostContentSettingsMap22RecordExceptionMetricsEv(%class.HostContentSettingsMap* %0)
  %364 = icmp eq i8* %50, null
  br i1 %364, label %369, label %365

365:                                              ; preds = %363
  %366 = load i8, i8* %50, align 1
  %367 = icmp eq i8 %366, 0
  br i1 %367, label %369, label %368

368:                                              ; preds = %365
  call void @_ZN20trace_event_internal24UpdateTraceEventDurationEPKhPKcN4base11trace_event16TraceEventHandleE(i8* nonnull %50, i8* %51, i64 %52) #13
  br label %369

369:                                              ; preds = %363, %365, %368
  ret void
}

declare dereferenceable(8) %class.scoped_refptr.132* @_ZN4base22ThreadTaskRunnerHandle3GetEv() local_unnamed_addr #1

declare void @_ZN22RefcountedKeyedServiceC2E13scoped_refptrIN4base19SequencedTaskRunnerEE(%class.RefcountedKeyedService*, %"class.base::SequencedTaskRunner"*) unnamed_addr #1

; Function Attrs: argmemonly nounwind
declare void @llvm.lifetime.start.p0i8(i64 immarg, i8* nocapture) #2

; Function Attrs: argmemonly nounwind
declare void @llvm.memcpy.p0i8.p0i8.i64(i8* nocapture writeonly, i8* nocapture readonly, i64, i1 immarg) #2

; Function Attrs: argmemonly nounwind
declare void @llvm.lifetime.end.p0i8(i64 immarg, i8* nocapture) #2

declare void @_ZN16content_settings18ObservableProvider11AddObserverEPNS_8ObserverE(%"class.content_settings::ObservableProvider"*, %"class.content_settings::Observer"*) local_unnamed_addr #1

; Function Attrs: nounwind ssp uwtable
define hidden void @_ZN22HostContentSettingsMap54MigrateSettingsPrecedingPermissionDelegationActivationEv(%class.HostContentSettingsMap*) local_unnamed_addr #0 align 2 {
  %2 = tail call %"class.content_settings::ContentSettingsRegistry"* @_ZN16content_settings23ContentSettingsRegistry11GetInstanceEv() #13
  %3 = tail call %"class.std::__1::__tree_end_node"* @_ZNK16content_settings23ContentSettingsRegistry5beginEv(%"class.content_settings::ContentSettingsRegistry"* %2) #13
  %4 = tail call %"class.std::__1::__tree_end_node"* @_ZNK16content_settings23ContentSettingsRegistry3endEv(%"class.content_settings::ContentSettingsRegistry"* %2) #13
  %5 = icmp eq %"class.std::__1::__tree_end_node"* %3, %4
  br i1 %5, label %6, label %11

6:                                                ; preds = %45, %1
  %7 = tail call %"class.content_settings::WebsiteSettingsRegistry"* @_ZN16content_settings23WebsiteSettingsRegistry11GetInstanceEv() #13
  %8 = tail call %"class.std::__1::__tree_end_node"* @_ZNK16content_settings23WebsiteSettingsRegistry5beginEv(%"class.content_settings::WebsiteSettingsRegistry"* %7) #13
  %9 = tail call %"class.std::__1::__tree_end_node"* @_ZNK16content_settings23WebsiteSettingsRegistry3endEv(%"class.content_settings::WebsiteSettingsRegistry"* %7) #13
  %10 = icmp eq %"class.std::__1::__tree_end_node"* %8, %9
  br i1 %10, label %48, label %49

11:                                               ; preds = %1, %45
  %12 = phi %"class.std::__1::__tree_end_node"* [ %46, %45 ], [ %3, %1 ]
  %13 = getelementptr inbounds %"class.std::__1::__tree_end_node", %"class.std::__1::__tree_end_node"* %12, i64 5
  %14 = bitcast %"class.std::__1::__tree_end_node"* %13 to %"class.content_settings::ContentSettingsInfo"**
  %15 = load %"class.content_settings::ContentSettingsInfo"*, %"class.content_settings::ContentSettingsInfo"** %14, align 8
  %16 = getelementptr inbounds %"class.content_settings::ContentSettingsInfo", %"class.content_settings::ContentSettingsInfo"* %15, i64 0, i32 0
  %17 = load %"class.content_settings::WebsiteSettingsInfo"*, %"class.content_settings::WebsiteSettingsInfo"** %16, align 8
  tail call void @_ZN22HostContentSettingsMap59MigrateSingleSettingPrecedingPermissionDelegationActivationEPKN16content_settings19WebsiteSettingsInfoE(%class.HostContentSettingsMap* %0, %"class.content_settings::WebsiteSettingsInfo"* %17)
  %18 = getelementptr inbounds %"class.std::__1::__tree_end_node", %"class.std::__1::__tree_end_node"* %12, i64 1, i32 0
  %19 = load %"class.std::__1::__tree_node_base"*, %"class.std::__1::__tree_node_base"** %18, align 8
  %20 = icmp eq %"class.std::__1::__tree_node_base"* %19, null
  br i1 %20, label %21, label %29

21:                                               ; preds = %11
  %22 = bitcast %"class.std::__1::__tree_end_node"* %12 to %"class.std::__1::__tree_node_base"*
  %23 = getelementptr inbounds %"class.std::__1::__tree_end_node", %"class.std::__1::__tree_end_node"* %12, i64 2
  %24 = bitcast %"class.std::__1::__tree_end_node"* %23 to %"class.std::__1::__tree_end_node"**
  %25 = load %"class.std::__1::__tree_end_node"*, %"class.std::__1::__tree_end_node"** %24, align 8
  %26 = getelementptr inbounds %"class.std::__1::__tree_end_node", %"class.std::__1::__tree_end_node"* %25, i64 0, i32 0
  %27 = load %"class.std::__1::__tree_node_base"*, %"class.std::__1::__tree_node_base"** %26, align 8
  %28 = icmp eq %"class.std::__1::__tree_node_base"* %27, %22
  br i1 %28, label %45, label %36

29:                                               ; preds = %11, %29
  %30 = phi %"class.std::__1::__tree_node_base"* [ %32, %29 ], [ %19, %11 ]
  %31 = getelementptr inbounds %"class.std::__1::__tree_node_base", %"class.std::__1::__tree_node_base"* %30, i64 0, i32 0, i32 0
  %32 = load %"class.std::__1::__tree_node_base"*, %"class.std::__1::__tree_node_base"** %31, align 8
  %33 = icmp eq %"class.std::__1::__tree_node_base"* %32, null
  br i1 %33, label %34, label %29

34:                                               ; preds = %29
  %35 = getelementptr inbounds %"class.std::__1::__tree_node_base", %"class.std::__1::__tree_node_base"* %30, i64 0, i32 0
  br label %45

36:                                               ; preds = %21, %36
  %37 = phi %"class.std::__1::__tree_end_node"** [ %40, %36 ], [ %24, %21 ]
  %38 = bitcast %"class.std::__1::__tree_end_node"** %37 to %"class.std::__1::__tree_node_base"**
  %39 = load %"class.std::__1::__tree_node_base"*, %"class.std::__1::__tree_node_base"** %38, align 8
  %40 = getelementptr inbounds %"class.std::__1::__tree_node_base", %"class.std::__1::__tree_node_base"* %39, i64 0, i32 2
  %41 = load %"class.std::__1::__tree_end_node"*, %"class.std::__1::__tree_end_node"** %40, align 8
  %42 = getelementptr inbounds %"class.std::__1::__tree_end_node", %"class.std::__1::__tree_end_node"* %41, i64 0, i32 0
  %43 = load %"class.std::__1::__tree_node_base"*, %"class.std::__1::__tree_node_base"** %42, align 8
  %44 = icmp eq %"class.std::__1::__tree_node_base"* %43, %39
  br i1 %44, label %45, label %36

45:                                               ; preds = %36, %21, %34
  %46 = phi %"class.std::__1::__tree_end_node"* [ %35, %34 ], [ %25, %21 ], [ %41, %36 ]
  %47 = icmp eq %"class.std::__1::__tree_end_node"* %46, %4
  br i1 %47, label %6, label %11

48:                                               ; preds = %81, %6
  ret void

49:                                               ; preds = %6, %81
  %50 = phi %"class.std::__1::__tree_end_node"* [ %82, %81 ], [ %8, %6 ]
  %51 = getelementptr inbounds %"class.std::__1::__tree_end_node", %"class.std::__1::__tree_end_node"* %50, i64 5
  %52 = bitcast %"class.std::__1::__tree_end_node"* %51 to %"class.content_settings::WebsiteSettingsInfo"**
  %53 = load %"class.content_settings::WebsiteSettingsInfo"*, %"class.content_settings::WebsiteSettingsInfo"** %52, align 8
  tail call void @_ZN22HostContentSettingsMap59MigrateSingleSettingPrecedingPermissionDelegationActivationEPKN16content_settings19WebsiteSettingsInfoE(%class.HostContentSettingsMap* %0, %"class.content_settings::WebsiteSettingsInfo"* %53)
  %54 = getelementptr inbounds %"class.std::__1::__tree_end_node", %"class.std::__1::__tree_end_node"* %50, i64 1, i32 0
  %55 = load %"class.std::__1::__tree_node_base"*, %"class.std::__1::__tree_node_base"** %54, align 8
  %56 = icmp eq %"class.std::__1::__tree_node_base"* %55, null
  br i1 %56, label %57, label %65

57:                                               ; preds = %49
  %58 = bitcast %"class.std::__1::__tree_end_node"* %50 to %"class.std::__1::__tree_node_base"*
  %59 = getelementptr inbounds %"class.std::__1::__tree_end_node", %"class.std::__1::__tree_end_node"* %50, i64 2
  %60 = bitcast %"class.std::__1::__tree_end_node"* %59 to %"class.std::__1::__tree_end_node"**
  %61 = load %"class.std::__1::__tree_end_node"*, %"class.std::__1::__tree_end_node"** %60, align 8
  %62 = getelementptr inbounds %"class.std::__1::__tree_end_node", %"class.std::__1::__tree_end_node"* %61, i64 0, i32 0
  %63 = load %"class.std::__1::__tree_node_base"*, %"class.std::__1::__tree_node_base"** %62, align 8
  %64 = icmp eq %"class.std::__1::__tree_node_base"* %63, %58
  br i1 %64, label %81, label %72

65:                                               ; preds = %49, %65
  %66 = phi %"class.std::__1::__tree_node_base"* [ %68, %65 ], [ %55, %49 ]
  %67 = getelementptr inbounds %"class.std::__1::__tree_node_base", %"class.std::__1::__tree_node_base"* %66, i64 0, i32 0, i32 0
  %68 = load %"class.std::__1::__tree_node_base"*, %"class.std::__1::__tree_node_base"** %67, align 8
  %69 = icmp eq %"class.std::__1::__tree_node_base"* %68, null
  br i1 %69, label %70, label %65

70:                                               ; preds = %65
  %71 = getelementptr inbounds %"class.std::__1::__tree_node_base", %"class.std::__1::__tree_node_base"* %66, i64 0, i32 0
  br label %81

72:                                               ; preds = %57, %72
  %73 = phi %"class.std::__1::__tree_end_node"** [ %76, %72 ], [ %60, %57 ]
  %74 = bitcast %"class.std::__1::__tree_end_node"** %73 to %"class.std::__1::__tree_node_base"**
  %75 = load %"class.std::__1::__tree_node_base"*, %"class.std::__1::__tree_node_base"** %74, align 8
  %76 = getelementptr inbounds %"class.std::__1::__tree_node_base", %"class.std::__1::__tree_node_base"* %75, i64 0, i32 2
  %77 = load %"class.std::__1::__tree_end_node"*, %"class.std::__1::__tree_end_node"** %76, align 8
  %78 = getelementptr inbounds %"class.std::__1::__tree_end_node", %"class.std::__1::__tree_end_node"* %77, i64 0, i32 0
  %79 = load %"class.std::__1::__tree_node_base"*, %"class.std::__1::__tree_node_base"** %78, align 8
  %80 = icmp eq %"class.std::__1::__tree_node_base"* %79, %75
  br i1 %80, label %81, label %72

81:                                               ; preds = %72, %57, %70
  %82 = phi %"class.std::__1::__tree_end_node"* [ %71, %70 ], [ %61, %57 ], [ %77, %72 ]
  %83 = icmp eq %"class.std::__1::__tree_end_node"* %82, %9
  br i1 %83, label %48, label %49
}

; Function Attrs: nounwind ssp uwtable
define hidden void @_ZN22HostContentSettingsMap22RecordExceptionMetricsEv(%class.HostContentSettingsMap*) local_unnamed_addr #0 align 2 {
  %2 = alloca i64, align 8
  %3 = alloca i64, align 8
  %4 = alloca %"class.std::__1::basic_string", align 8
  %5 = alloca %"class.std::__1::vector.258", align 8
  %6 = alloca %"class.base::flat_map.287", align 8
  %7 = alloca %class.ContentSettingsPattern, align 8
  %8 = alloca %class.ContentSettingsPattern, align 8
  %9 = alloca i64, align 8
  %10 = alloca i32, align 4
  %11 = alloca %"class.std::__1::basic_string", align 8
  %12 = alloca i32, align 4
  %13 = alloca %"class.std::__1::basic_string", align 8
  %14 = alloca %"class.std::__1::basic_string", align 8
  %15 = tail call %"class.content_settings::ContentSettingsRegistry"* @_ZN16content_settings23ContentSettingsRegistry11GetInstanceEv() #13
  %16 = tail call %"class.content_settings::WebsiteSettingsRegistry"* @_ZN16content_settings23WebsiteSettingsRegistry11GetInstanceEv() #13
  %17 = tail call %"class.std::__1::__tree_end_node"* @_ZNK16content_settings23WebsiteSettingsRegistry5beginEv(%"class.content_settings::WebsiteSettingsRegistry"* %16) #13
  %18 = tail call %"class.std::__1::__tree_end_node"* @_ZNK16content_settings23WebsiteSettingsRegistry3endEv(%"class.content_settings::WebsiteSettingsRegistry"* %16) #13
  %19 = icmp eq %"class.std::__1::__tree_end_node"* %17, %18
  br i1 %19, label %61, label %20

20:                                               ; preds = %1
  %21 = bitcast %"class.std::__1::basic_string"* %4 to i8*
  %22 = getelementptr inbounds %"class.std::__1::basic_string", %"class.std::__1::basic_string"* %4, i64 0, i32 0, i32 0, i32 0, i32 0, i32 0, i32 0
  %23 = bitcast %"class.std::__1::vector.258"* %5 to i8*
  %24 = getelementptr inbounds %"class.std::__1::vector.258", %"class.std::__1::vector.258"* %5, i64 0, i32 0, i32 0
  %25 = getelementptr inbounds %"class.std::__1::vector.258", %"class.std::__1::vector.258"* %5, i64 0, i32 0, i32 1
  %26 = bitcast %"class.base::flat_map.287"* %6 to i8*
  %27 = getelementptr inbounds %"class.base::flat_map.287", %"class.base::flat_map.287"* %6, i64 0, i32 0, i32 0, i32 0, i32 0
  %28 = getelementptr inbounds %"class.base::flat_map.287", %"class.base::flat_map.287"* %6, i64 0, i32 0, i32 0, i32 0, i32 1
  %29 = bitcast %class.ContentSettingsPattern* %7 to i8*
  %30 = getelementptr inbounds %class.ContentSettingsPattern, %class.ContentSettingsPattern* %7, i64 0, i32 0
  %31 = bitcast %class.ContentSettingsPattern* %8 to i8*
  %32 = getelementptr inbounds %class.ContentSettingsPattern, %class.ContentSettingsPattern* %8, i64 0, i32 0
  %33 = bitcast i64* %9 to i8*
  %34 = bitcast i32* %10 to i8*
  %35 = bitcast %"struct.std::__1::pair.291"** %28 to i64*
  %36 = bitcast i64* %2 to i8*
  %37 = getelementptr inbounds %"class.base::flat_map.287", %"class.base::flat_map.287"* %6, i64 0, i32 0, i32 0
  %38 = bitcast %"class.std::__1::basic_string"* %11 to i8*
  %39 = getelementptr inbounds %"class.std::__1::basic_string", %"class.std::__1::basic_string"* %11, i64 0, i32 0, i32 0, i32 0, i32 0, i32 0, i32 0
  %40 = getelementptr inbounds %"class.std::__1::basic_string", %"class.std::__1::basic_string"* %11, i64 0, i32 0, i32 0, i32 0, i32 0, i32 0, i32 1
  %41 = bitcast i32* %12 to i8*
  %42 = bitcast %"class.std::__1::basic_string"* %13 to i8*
  %43 = getelementptr inbounds %"class.std::__1::basic_string", %"class.std::__1::basic_string"* %13, i64 0, i32 0, i32 0, i32 0, i32 0, i32 0, i32 0
  %44 = bitcast %"class.std::__1::basic_string"* %14 to i8*
  %45 = getelementptr inbounds %"class.std::__1::basic_string", %"class.std::__1::basic_string"* %14, i64 0, i32 0, i32 0, i32 0, i32 0, i32 0, i32 0
  %46 = getelementptr inbounds %"class.std::__1::basic_string", %"class.std::__1::basic_string"* %14, i64 0, i32 0, i32 0, i32 0, i32 0, i32 0, i32 1
  %47 = getelementptr inbounds %"class.std::__1::basic_string", %"class.std::__1::basic_string"* %14, i64 0, i32 0, i32 0, i32 0, i32 0, i32 0, i32 2
  %48 = bitcast %"class.std::__1::basic_string"* %11 to %"struct.std::__1::basic_string<char, std::__1::char_traits<char>, std::__1::allocator<char> >::__short"*
  %49 = getelementptr inbounds %"struct.std::__1::basic_string<char, std::__1::char_traits<char>, std::__1::allocator<char> >::__short", %"struct.std::__1::basic_string<char, std::__1::char_traits<char>, std::__1::allocator<char> >::__short"* %48, i64 0, i32 1, i32 0
  %50 = bitcast %"class.std::__1::basic_string"* %14 to %"struct.std::__1::basic_string<char, std::__1::char_traits<char>, std::__1::allocator<char> >::__short"*
  %51 = getelementptr inbounds %"struct.std::__1::basic_string<char, std::__1::char_traits<char>, std::__1::allocator<char> >::__short", %"struct.std::__1::basic_string<char, std::__1::char_traits<char>, std::__1::allocator<char> >::__short"* %50, i64 0, i32 1, i32 0
  %52 = bitcast i64* %3 to i8*
  %53 = bitcast %"class.std::__1::basic_string"* %13 to %"struct.std::__1::basic_string<char, std::__1::char_traits<char>, std::__1::allocator<char> >::__short"*
  %54 = getelementptr inbounds %"struct.std::__1::basic_string<char, std::__1::char_traits<char>, std::__1::allocator<char> >::__short", %"struct.std::__1::basic_string<char, std::__1::char_traits<char>, std::__1::allocator<char> >::__short"* %53, i64 0, i32 1, i32 0
  %55 = bitcast %"class.std::__1::vector.258"* %5 to i8**
  %56 = bitcast %"class.std::__1::basic_string"* %4 to %"struct.std::__1::basic_string<char, std::__1::char_traits<char>, std::__1::allocator<char> >::__short"*
  %57 = getelementptr inbounds %"struct.std::__1::basic_string<char, std::__1::char_traits<char>, std::__1::allocator<char> >::__short", %"struct.std::__1::basic_string<char, std::__1::char_traits<char>, std::__1::allocator<char> >::__short"* %56, i64 0, i32 1, i32 0
  %58 = bitcast %"class.std::__1::basic_string"* %4 to i8*
  %59 = bitcast %"class.std::__1::basic_string"* %11 to i8*
  %60 = bitcast %"class.std::__1::basic_string"* %13 to i8*
  br label %62

61:                                               ; preds = %386, %1
  ret void

62:                                               ; preds = %20, %386
  %63 = phi %"class.std::__1::__tree_end_node"* [ %17, %20 ], [ %387, %386 ]
  %64 = getelementptr inbounds %"class.std::__1::__tree_end_node", %"class.std::__1::__tree_end_node"* %63, i64 5
  %65 = bitcast %"class.std::__1::__tree_end_node"* %64 to %"class.content_settings::WebsiteSettingsInfo"**
  %66 = load %"class.content_settings::WebsiteSettingsInfo"*, %"class.content_settings::WebsiteSettingsInfo"** %65, align 8
  %67 = getelementptr inbounds %"class.content_settings::WebsiteSettingsInfo", %"class.content_settings::WebsiteSettingsInfo"* %66, i64 0, i32 0
  %68 = load i32, i32* %67, align 8
  call void @llvm.lifetime.start.p0i8(i64 24, i8* nonnull %21) #13
  %69 = getelementptr inbounds %"class.content_settings::WebsiteSettingsInfo", %"class.content_settings::WebsiteSettingsInfo"* %66, i64 0, i32 1
  %70 = bitcast %"class.std::__1::basic_string"* %69 to %"struct.std::__1::basic_string<char, std::__1::char_traits<char>, std::__1::allocator<char> >::__short"*
  %71 = getelementptr inbounds %"struct.std::__1::basic_string<char, std::__1::char_traits<char>, std::__1::allocator<char> >::__short", %"struct.std::__1::basic_string<char, std::__1::char_traits<char>, std::__1::allocator<char> >::__short"* %70, i64 0, i32 1, i32 0
  call void @llvm.memset.p0i8.i64(i8* nonnull align 8 %58, i8 -86, i64 24, i1 false)
  %72 = load i8, i8* %71, align 1
  %73 = icmp slt i8 %72, 0
  br i1 %73, label %76, label %74

74:                                               ; preds = %62
  %75 = bitcast %"class.std::__1::basic_string"* %69 to i8*
  call void @llvm.memcpy.p0i8.p0i8.i64(i8* nonnull align 8 %21, i8* align 8 %75, i64 24, i1 false) #13
  br label %81

76:                                               ; preds = %62
  %77 = getelementptr inbounds %"class.std::__1::basic_string", %"class.std::__1::basic_string"* %69, i64 0, i32 0, i32 0, i32 0, i32 0, i32 0, i32 0
  %78 = load i8*, i8** %77, align 8
  %79 = getelementptr inbounds %"class.content_settings::WebsiteSettingsInfo", %"class.content_settings::WebsiteSettingsInfo"* %66, i64 0, i32 1, i32 0, i32 0, i32 0, i32 0, i32 0, i32 1
  %80 = load i64, i64* %79, align 8
  call void @_ZNSt3__112basic_stringIcNS_11char_traitsIcEENS_9allocatorIcEEE25__init_copy_ctor_externalEPKcm(%"class.std::__1::basic_string"* nonnull %4, i8* %78, i64 %80) #13
  br label %81

81:                                               ; preds = %74, %76
  call void @llvm.lifetime.start.p0i8(i64 24, i8* nonnull %23) #13
  call void @llvm.memset.p0i8.i64(i8* nonnull align 8 %23, i8 0, i64 24, i1 false) #13
  call void @_ZNK22HostContentSettingsMap21GetSettingsForOneTypeE19ContentSettingsTypePNSt3__16vectorI27ContentSettingPatternSourceNS1_9allocatorIS3_EEEEN4absl8optionalIN16content_settings12SessionModelEEE(%class.HostContentSettingsMap* %0, i32 %68, %"class.std::__1::vector.258"* nonnull %5, i64 0)
  call void @llvm.lifetime.start.p0i8(i64 24, i8* nonnull %26) #13
  call void @llvm.memset.p0i8.i64(i8* nonnull align 8 %26, i8 0, i64 24, i1 false) #13
  %82 = call %"class.content_settings::ContentSettingsInfo"* @_ZNK16content_settings23ContentSettingsRegistry3GetE19ContentSettingsType(%"class.content_settings::ContentSettingsRegistry"* %15, i32 %68) #13
  %83 = load %struct.ContentSettingPatternSource*, %struct.ContentSettingPatternSource** %24, align 8
  %84 = load %struct.ContentSettingPatternSource*, %struct.ContentSettingPatternSource** %25, align 8
  %85 = icmp eq %struct.ContentSettingPatternSource* %83, %84
  br i1 %85, label %89, label %86

86:                                               ; preds = %81
  %87 = icmp eq %"class.content_settings::ContentSettingsInfo"* %82, null
  %88 = icmp eq i32 %68, 0
  br label %94

89:                                               ; preds = %229, %81
  %90 = phi i64 [ 0, %81 ], [ %230, %229 ]
  %91 = phi i64 [ 0, %81 ], [ %231, %229 ]
  call void @llvm.lifetime.start.p0i8(i64 24, i8* nonnull %38) #13
  call void @llvm.memset.p0i8.i64(i8* nonnull align 8 %59, i8 -86, i64 24, i1 false)
  call void @_ZNSt3__1plIcNS_11char_traitsIcEENS_9allocatorIcEEEENS_12basic_stringIT_T0_T1_EEPKS6_RKS9_(%"class.std::__1::basic_string"* nonnull sret %11, i8* getelementptr inbounds ([28 x i8], [28 x i8]* @.str.6, i64 0, i64 0), %"class.std::__1::basic_string"* nonnull dereferenceable(24) %4) #13
  %92 = trunc i64 %90 to i32
  call void @_ZN4base24UmaHistogramCustomCountsERKNSt3__112basic_stringIcNS0_11char_traitsIcEENS0_9allocatorIcEEEEiiii(%"class.std::__1::basic_string"* nonnull dereferenceable(24) %11, i32 %92, i32 1, i32 1000, i32 30) #13
  switch i32 %68, label %327 [
    i32 0, label %93
    i32 3, label %93
    i32 25, label %93
  ]

93:                                               ; preds = %89, %89, %89
  br label %234

94:                                               ; preds = %86, %229
  %95 = phi i64 [ 0, %86 ], [ %231, %229 ]
  %96 = phi i64 [ 0, %86 ], [ %230, %229 ]
  %97 = phi %struct.ContentSettingPatternSource* [ %83, %86 ], [ %232, %229 ]
  %98 = getelementptr inbounds %struct.ContentSettingPatternSource, %struct.ContentSettingPatternSource* %97, i64 0, i32 0
  call void @llvm.lifetime.start.p0i8(i64 136, i8* nonnull %29) #13
  call void @_ZN22ContentSettingsPattern8WildcardEv(%class.ContentSettingsPattern* nonnull sret %7) #13
  %99 = call zeroext i1 @_ZNK22ContentSettingsPatterneqERKS_(%class.ContentSettingsPattern* %98, %class.ContentSettingsPattern* nonnull dereferenceable(136) %7) #13
  br i1 %99, label %100, label %103

100:                                              ; preds = %94
  %101 = getelementptr inbounds %struct.ContentSettingPatternSource, %struct.ContentSettingPatternSource* %97, i64 0, i32 1
  call void @llvm.lifetime.start.p0i8(i64 136, i8* nonnull %31) #13
  call void @_ZN22ContentSettingsPattern8WildcardEv(%class.ContentSettingsPattern* nonnull sret %8) #13
  %102 = call zeroext i1 @_ZNK22ContentSettingsPatterneqERKS_(%class.ContentSettingsPattern* %101, %class.ContentSettingsPattern* nonnull dereferenceable(136) %8) #13
  call void @_ZN22ContentSettingsPattern12PatternPartsD1Ev(%"struct.ContentSettingsPattern::PatternParts"* nonnull %32) #13
  call void @llvm.lifetime.end.p0i8(i64 136, i8* nonnull %31) #13
  call void @_ZN22ContentSettingsPattern12PatternPartsD1Ev(%"struct.ContentSettingsPattern::PatternParts"* nonnull %30) #13
  call void @llvm.lifetime.end.p0i8(i64 136, i8* nonnull %29) #13
  br i1 %102, label %229, label %104

103:                                              ; preds = %94
  call void @_ZN22ContentSettingsPattern12PatternPartsD1Ev(%"struct.ContentSettingsPattern::PatternParts"* nonnull %30) #13
  call void @llvm.lifetime.end.p0i8(i64 136, i8* nonnull %29) #13
  br label %104

104:                                              ; preds = %103, %100
  %105 = call i32 @_ZNK22ContentSettingsPattern9GetSchemeEv(%class.ContentSettingsPattern* %98) #13
  %106 = load atomic i64, i64* @_ZZN22HostContentSettingsMap22RecordExceptionMetricsEvE24atomic_histogram_pointer.0.0.0.0.0 acquire, align 8
  %107 = inttoptr i64 %106 to %"class.base::HistogramBase"*
  %108 = icmp eq i64 %106, 0
  br i1 %108, label %109, label %112

109:                                              ; preds = %104
  %110 = call %"class.base::HistogramBase"* @_ZN4base15LinearHistogram10FactoryGetEPKciiji(i8* getelementptr inbounds ([32 x i8], [32 x i8]* @.str.1, i64 0, i64 0), i32 1, i32 10, i32 11, i32 1) #13
  %111 = ptrtoint %"class.base::HistogramBase"* %110 to i64
  store atomic i64 %111, i64* @_ZZN22HostContentSettingsMap22RecordExceptionMetricsEvE24atomic_histogram_pointer.0.0.0.0.0 release, align 8
  br label %112

112:                                              ; preds = %104, %109
  %113 = phi %"class.base::HistogramBase"* [ %107, %104 ], [ %110, %109 ]
  %114 = bitcast %"class.base::HistogramBase"* %113 to void (%"class.base::HistogramBase"*, i32)***
  %115 = load void (%"class.base::HistogramBase"*, i32)**, void (%"class.base::HistogramBase"*, i32)*** %114, align 8
  %116 = getelementptr inbounds void (%"class.base::HistogramBase"*, i32)*, void (%"class.base::HistogramBase"*, i32)** %115, i64 6
  %117 = load void (%"class.base::HistogramBase"*, i32)*, void (%"class.base::HistogramBase"*, i32)** %116, align 8
  call void %117(%"class.base::HistogramBase"* %113, i32 %105) #13
  %118 = icmp eq i32 %105, 4
  br i1 %118, label %119, label %164

119:                                              ; preds = %112
  %120 = load atomic i64, i64* @_ZZN22HostContentSettingsMap22RecordExceptionMetricsEvE24atomic_histogram_pointer_0.0.0.0.0.0 acquire, align 8
  %121 = inttoptr i64 %120 to %"class.base::HistogramBase"*
  %122 = icmp eq i64 %120, 0
  br i1 %122, label %123, label %126

123:                                              ; preds = %119
  %124 = call %"class.base::HistogramBase"* @_ZN4base16BooleanHistogram10FactoryGetEPKci(i8* getelementptr inbounds ([44 x i8], [44 x i8]* @.str.2, i64 0, i64 0), i32 1) #13
  %125 = ptrtoint %"class.base::HistogramBase"* %124 to i64
  store atomic i64 %125, i64* @_ZZN22HostContentSettingsMap22RecordExceptionMetricsEvE24atomic_histogram_pointer_0.0.0.0.0.0 release, align 8
  br label %126

126:                                              ; preds = %119, %123
  %127 = phi %"class.base::HistogramBase"* [ %121, %119 ], [ %124, %123 ]
  %128 = call zeroext i1 @_ZNK22ContentSettingsPattern7HasPathEv(%class.ContentSettingsPattern* %98) #13
  call void @_ZN4base13HistogramBase10AddBooleanEb(%"class.base::HistogramBase"* %127, i1 zeroext %128) #13
  call void @llvm.lifetime.start.p0i8(i64 8, i8* nonnull %33) #13
  store i64 -6148914691236517206, i64* %9, align 8
  %129 = call i32 @_Z34ContentSettingTypeToHistogramValue19ContentSettingsTypePm(i32 %68, i64* nonnull %9) #13
  %130 = call zeroext i1 @_ZNK22ContentSettingsPattern7HasPathEv(%class.ContentSettingsPattern* %98) #13
  br i1 %130, label %131, label %147

131:                                              ; preds = %126
  %132 = load atomic i64, i64* @_ZZN22HostContentSettingsMap22RecordExceptionMetricsEvE24atomic_histogram_pointer_1.0.0.0.0.0 acquire, align 8
  %133 = inttoptr i64 %132 to %"class.base::HistogramBase"*
  %134 = icmp eq i64 %132, 0
  br i1 %134, label %135, label %141

135:                                              ; preds = %131
  %136 = load i64, i64* %9, align 8
  %137 = trunc i64 %136 to i32
  %138 = add i32 %137, 1
  %139 = call %"class.base::HistogramBase"* @_ZN4base15LinearHistogram10FactoryGetEPKciiji(i8* getelementptr inbounds ([50 x i8], [50 x i8]* @.str.3, i64 0, i64 0), i32 1, i32 %137, i32 %138, i32 1) #13
  %140 = ptrtoint %"class.base::HistogramBase"* %139 to i64
  store atomic i64 %140, i64* @_ZZN22HostContentSettingsMap22RecordExceptionMetricsEvE24atomic_histogram_pointer_1.0.0.0.0.0 release, align 8
  br label %141

141:                                              ; preds = %131, %135
  %142 = phi %"class.base::HistogramBase"* [ %133, %131 ], [ %139, %135 ]
  %143 = bitcast %"class.base::HistogramBase"* %142 to void (%"class.base::HistogramBase"*, i32)***
  %144 = load void (%"class.base::HistogramBase"*, i32)**, void (%"class.base::HistogramBase"*, i32)*** %143, align 8
  %145 = getelementptr inbounds void (%"class.base::HistogramBase"*, i32)*, void (%"class.base::HistogramBase"*, i32)** %144, i64 6
  %146 = load void (%"class.base::HistogramBase"*, i32)*, void (%"class.base::HistogramBase"*, i32)** %145, align 8
  call void %146(%"class.base::HistogramBase"* %142, i32 %129) #13
  br label %163

147:                                              ; preds = %126
  %148 = load atomic i64, i64* @_ZZN22HostContentSettingsMap22RecordExceptionMetricsEvE24atomic_histogram_pointer_2.0.0.0.0.0 acquire, align 8
  %149 = inttoptr i64 %148 to %"class.base::HistogramBase"*
  %150 = icmp eq i64 %148, 0
  br i1 %150, label %151, label %157

151:                                              ; preds = %147
  %152 = load i64, i64* %9, align 8
  %153 = trunc i64 %152 to i32
  %154 = add i32 %153, 1
  %155 = call %"class.base::HistogramBase"* @_ZN4base15LinearHistogram10FactoryGetEPKciiji(i8* getelementptr inbounds ([53 x i8], [53 x i8]* @.str.4, i64 0, i64 0), i32 1, i32 %153, i32 %154, i32 1) #13
  %156 = ptrtoint %"class.base::HistogramBase"* %155 to i64
  store atomic i64 %156, i64* @_ZZN22HostContentSettingsMap22RecordExceptionMetricsEvE24atomic_histogram_pointer_2.0.0.0.0.0 release, align 8
  br label %157

157:                                              ; preds = %147, %151
  %158 = phi %"class.base::HistogramBase"* [ %149, %147 ], [ %155, %151 ]
  %159 = bitcast %"class.base::HistogramBase"* %158 to void (%"class.base::HistogramBase"*, i32)***
  %160 = load void (%"class.base::HistogramBase"*, i32)**, void (%"class.base::HistogramBase"*, i32)*** %159, align 8
  %161 = getelementptr inbounds void (%"class.base::HistogramBase"*, i32)*, void (%"class.base::HistogramBase"*, i32)** %160, i64 6
  %162 = load void (%"class.base::HistogramBase"*, i32)*, void (%"class.base::HistogramBase"*, i32)** %161, align 8
  call void %162(%"class.base::HistogramBase"* %158, i32 %129) #13
  br label %163

163:                                              ; preds = %157, %141
  call void @llvm.lifetime.end.p0i8(i64 8, i8* nonnull %33) #13
  br label %164

164:                                              ; preds = %163, %112
  %165 = getelementptr inbounds %struct.ContentSettingPatternSource, %struct.ContentSettingPatternSource* %97, i64 0, i32 4
  %166 = bitcast %"class.std::__1::basic_string"* %165 to %"struct.std::__1::basic_string<char, std::__1::char_traits<char>, std::__1::allocator<char> >::__short"*
  %167 = getelementptr inbounds %"struct.std::__1::basic_string<char, std::__1::char_traits<char>, std::__1::allocator<char> >::__short", %"struct.std::__1::basic_string<char, std::__1::char_traits<char>, std::__1::allocator<char> >::__short"* %166, i64 0, i32 1, i32 0
  %168 = load i8, i8* %167, align 1
  %169 = icmp slt i8 %168, 0
  %170 = getelementptr inbounds %struct.ContentSettingPatternSource, %struct.ContentSettingPatternSource* %97, i64 0, i32 4, i32 0, i32 0, i32 0, i32 0, i32 0, i32 1
  %171 = load i64, i64* %170, align 8
  %172 = zext i8 %168 to i64
  %173 = select i1 %169, i64 %171, i64 %172
  %174 = icmp eq i64 %173, 10
  br i1 %174, label %175, label %229

175:                                              ; preds = %164
  %176 = call i32 @_ZNKSt3__112basic_stringIcNS_11char_traitsIcEENS_9allocatorIcEEE7compareEmmPKcm(%"class.std::__1::basic_string"* %165, i64 0, i64 -1, i8* getelementptr inbounds ([11 x i8], [11 x i8]* @.str.5, i64 0, i64 0), i64 10) #13
  %177 = icmp eq i32 %176, 0
  br i1 %177, label %178, label %229

178:                                              ; preds = %175
  br i1 %87, label %217, label %179

179:                                              ; preds = %178
  call void @llvm.lifetime.start.p0i8(i64 4, i8* nonnull %34) #13
  %180 = call i32 @_ZNK27ContentSettingPatternSource17GetContentSettingEv(%struct.ContentSettingPatternSource* %97) #13
  store i32 %180, i32* %10, align 4
  %181 = load %"struct.std::__1::pair.291"*, %"struct.std::__1::pair.291"** %27, align 8
  %182 = load i64, i64* %35, align 8
  %183 = ptrtoint %"struct.std::__1::pair.291"* %181 to i64
  %184 = sub i64 %182, %183
  %185 = icmp eq i64 %184, 0
  %186 = inttoptr i64 %182 to %"struct.std::__1::pair.291"*
  br i1 %185, label %203, label %187

187:                                              ; preds = %179
  %188 = ashr exact i64 %184, 4
  br label %189

189:                                              ; preds = %189, %187
  %190 = phi %"struct.std::__1::pair.291"* [ %181, %187 ], [ %201, %189 ]
  %191 = phi i64 [ %188, %187 ], [ %200, %189 ]
  %192 = lshr i64 %191, 1
  %193 = getelementptr inbounds %"struct.std::__1::pair.291", %"struct.std::__1::pair.291"* %190, i64 %192
  %194 = getelementptr inbounds %"struct.std::__1::pair.291", %"struct.std::__1::pair.291"* %193, i64 0, i32 0
  %195 = load i32, i32* %194, align 4
  %196 = icmp slt i32 %195, %180
  %197 = getelementptr inbounds %"struct.std::__1::pair.291", %"struct.std::__1::pair.291"* %193, i64 1
  %198 = xor i64 %192, -1
  %199 = add i64 %191, %198
  %200 = select i1 %196, i64 %199, i64 %192
  %201 = select i1 %196, %"struct.std::__1::pair.291"* %197, %"struct.std::__1::pair.291"* %190
  %202 = icmp eq i64 %200, 0
  br i1 %202, label %203, label %189

203:                                              ; preds = %189, %179
  %204 = phi %"struct.std::__1::pair.291"* [ %181, %179 ], [ %201, %189 ]
  %205 = icmp eq %"struct.std::__1::pair.291"* %204, %186
  br i1 %205, label %210, label %206

206:                                              ; preds = %203
  %207 = getelementptr inbounds %"struct.std::__1::pair.291", %"struct.std::__1::pair.291"* %204, i64 0, i32 0
  %208 = load i32, i32* %207, align 4
  %209 = icmp slt i32 %180, %208
  br i1 %209, label %210, label %212

210:                                              ; preds = %206, %203
  call void @llvm.lifetime.start.p0i8(i64 8, i8* nonnull %36) #13
  store i64 0, i64* %2, align 8
  %211 = call %"struct.std::__1::pair.291"* @_ZNSt3__16vectorINS_4pairI14ContentSettingmEENS_9allocatorIS3_EEE7emplaceIJS2_mEEENS_11__wrap_iterIPS3_EENS8_IPKS3_EEDpOT_(%"class.std::__1::vector.289"* nonnull %37, %"struct.std::__1::pair.291"* %204, i32* nonnull dereferenceable(4) %10, i64* nonnull dereferenceable(8) %2) #13
  call void @llvm.lifetime.end.p0i8(i64 8, i8* nonnull %36) #13
  br label %212

212:                                              ; preds = %206, %210
  %213 = phi %"struct.std::__1::pair.291"* [ %211, %210 ], [ %204, %206 ]
  %214 = getelementptr inbounds %"struct.std::__1::pair.291", %"struct.std::__1::pair.291"* %213, i64 0, i32 1
  %215 = load i64, i64* %214, align 8
  %216 = add i64 %215, 1
  store i64 %216, i64* %214, align 8
  call void @llvm.lifetime.end.p0i8(i64 4, i8* nonnull %34) #13
  br label %217

217:                                              ; preds = %178, %212
  %218 = add i64 %96, 1
  br i1 %88, label %219, label %229

219:                                              ; preds = %217
  %220 = call zeroext i1 @_ZNK22ContentSettingsPattern15MatchesAllHostsEv(%class.ContentSettingsPattern* %98) #13
  br i1 %220, label %221, label %229

221:                                              ; preds = %219
  %222 = getelementptr inbounds %struct.ContentSettingPatternSource, %struct.ContentSettingPatternSource* %97, i64 0, i32 1
  %223 = call zeroext i1 @_ZNK22ContentSettingsPattern15MatchesAllHostsEv(%class.ContentSettingsPattern* %222) #13
  br i1 %223, label %229, label %224

224:                                              ; preds = %221
  %225 = call i32 @_ZNK27ContentSettingPatternSource17GetContentSettingEv(%struct.ContentSettingPatternSource* %97) #13
  %226 = icmp eq i32 %225, 1
  %227 = zext i1 %226 to i64
  %228 = add i64 %95, %227
  br label %229

229:                                              ; preds = %164, %224, %175, %221, %219, %217, %100
  %230 = phi i64 [ %96, %100 ], [ %218, %221 ], [ %218, %219 ], [ %218, %217 ], [ %96, %175 ], [ %218, %224 ], [ %96, %164 ]
  %231 = phi i64 [ %95, %100 ], [ %95, %221 ], [ %95, %219 ], [ %95, %217 ], [ %95, %175 ], [ %228, %224 ], [ %95, %164 ]
  %232 = getelementptr inbounds %struct.ContentSettingPatternSource, %struct.ContentSettingPatternSource* %97, i64 1
  %233 = icmp eq %struct.ContentSettingPatternSource* %232, %84
  br i1 %233, label %89, label %94

234:                                              ; preds = %93, %320
  %235 = phi i32 [ %321, %320 ], [ 0, %93 ]
  call void @llvm.lifetime.start.p0i8(i64 4, i8* nonnull %41) #13
  store i32 -1431655766, i32* %12, align 4
  %236 = call i32 @_Z19IntToContentSettingi(i32 %235) #13
  store i32 %236, i32* %12, align 4
  %237 = call zeroext i1 @_ZNK16content_settings19ContentSettingsInfo14IsSettingValidE14ContentSetting(%"class.content_settings::ContentSettingsInfo"* %82, i32 %236) #13
  br i1 %237, label %238, label %320

238:                                              ; preds = %234
  call void @llvm.lifetime.start.p0i8(i64 24, i8* nonnull %42) #13
  call void @llvm.memset.p0i8.i64(i8* nonnull align 8 %60, i8 -86, i64 24, i1 false)
  call void @llvm.lifetime.start.p0i8(i64 24, i8* nonnull %44) #13
  call void @llvm.memset.p0i8.i64(i8* nonnull align 8 %44, i8 0, i64 24, i1 false) #13, !alias.scope !13
  %239 = load i8, i8* %49, align 1, !noalias !13
  %240 = icmp slt i8 %239, 0
  %241 = load i64, i64* %40, align 8
  %242 = load i8*, i8** %39, align 8
  %243 = zext i8 %239 to i64
  %244 = select i1 %240, i64 %241, i64 %243
  %245 = select i1 %240, i8* %242, i8* %38
  %246 = add i64 %244, 1
  %247 = icmp ugt i64 %246, -17
  br i1 %247, label %248, label %250

248:                                              ; preds = %238
  %249 = bitcast %"class.std::__1::basic_string"* %14 to %"class.std::__1::__basic_string_common"*
  call void @_ZNKSt3__121__basic_string_commonILb1EE20__throw_length_errorEv(%"class.std::__1::__basic_string_common"* nonnull %249) #15
  unreachable

250:                                              ; preds = %238
  %251 = icmp ult i64 %246, 23
  br i1 %251, label %257, label %252

252:                                              ; preds = %250
  %253 = add nuw i64 %244, 17
  %254 = and i64 %253, -16
  %255 = call i8* @_Znwm(i64 %254) #14
  store i8* %255, i8** %45, align 8, !alias.scope !13
  %256 = or i64 %254, -9223372036854775808
  store i64 %256, i64* %47, align 8, !alias.scope !13
  store i64 %244, i64* %46, align 8, !alias.scope !13
  br label %260

257:                                              ; preds = %250
  %258 = trunc i64 %244 to i8
  store i8 %258, i8* %51, align 1, !alias.scope !13
  %259 = icmp eq i64 %244, 0
  br i1 %259, label %262, label %260

260:                                              ; preds = %252, %257
  %261 = phi i8* [ %255, %252 ], [ %44, %257 ]
  call void @llvm.memcpy.p0i8.p0i8.i64(i8* nonnull align 1 %261, i8* align 1 %245, i64 %244, i1 false) #13
  br label %262

262:                                              ; preds = %257, %260
  %263 = phi i8* [ %44, %257 ], [ %261, %260 ]
  %264 = getelementptr inbounds i8, i8* %263, i64 %244
  store i8 0, i8* %264, align 1
  %265 = call dereferenceable(24) %"class.std::__1::basic_string"* @_ZNSt3__112basic_stringIcNS_11char_traitsIcEENS_9allocatorIcEEE6appendEPKcm(%"class.std::__1::basic_string"* nonnull %14, i8* getelementptr inbounds ([2 x i8], [2 x i8]* @.str.7, i64 0, i64 0), i64 1) #13
  %266 = load i32, i32* %12, align 4
  %267 = sext i32 %266 to i64
  %268 = getelementptr inbounds [7 x i8*], [7 x i8*]* @switch.table._ZN22HostContentSettingsMap22RecordExceptionMetricsEv, i64 0, i64 %267
  %269 = load i8*, i8** %268, align 8
  %270 = call dereferenceable(24) %"class.std::__1::basic_string"* @_ZNSt3__112basic_stringIcNS_11char_traitsIcEENS_9allocatorIcEEE6appendEPKc(%"class.std::__1::basic_string"* nonnull %14, i8* %269) #13, !noalias !16
  %271 = bitcast %"class.std::__1::basic_string"* %270 to i8*
  call void @llvm.memcpy.p0i8.p0i8.i64(i8* nonnull align 8 %42, i8* align 8 %271, i64 24, i1 false) #13
  call void @llvm.memset.p0i8.i64(i8* align 8 %271, i8 0, i64 24, i1 false) #13, !noalias !16
  %272 = load i8, i8* %51, align 1
  %273 = icmp slt i8 %272, 0
  br i1 %273, label %274, label %276

274:                                              ; preds = %262
  %275 = load i8*, i8** %45, align 8
  call void @_ZdlPv(i8* %275) #14
  br label %276

276:                                              ; preds = %262, %274
  call void @llvm.lifetime.end.p0i8(i64 24, i8* nonnull %44) #13
  %277 = load %"struct.std::__1::pair.291"*, %"struct.std::__1::pair.291"** %27, align 8
  %278 = load i64, i64* %35, align 8
  %279 = ptrtoint %"struct.std::__1::pair.291"* %277 to i64
  %280 = sub i64 %278, %279
  %281 = icmp eq i64 %280, 0
  %282 = inttoptr i64 %278 to %"struct.std::__1::pair.291"*
  br i1 %281, label %300, label %283

283:                                              ; preds = %276
  %284 = ashr exact i64 %280, 4
  %285 = load i32, i32* %12, align 4
  br label %286

286:                                              ; preds = %286, %283
  %287 = phi %"struct.std::__1::pair.291"* [ %277, %283 ], [ %298, %286 ]
  %288 = phi i64 [ %284, %283 ], [ %297, %286 ]
  %289 = lshr i64 %288, 1
  %290 = getelementptr inbounds %"struct.std::__1::pair.291", %"struct.std::__1::pair.291"* %287, i64 %289
  %291 = getelementptr inbounds %"struct.std::__1::pair.291", %"struct.std::__1::pair.291"* %290, i64 0, i32 0
  %292 = load i32, i32* %291, align 4
  %293 = icmp slt i32 %292, %285
  %294 = getelementptr inbounds %"struct.std::__1::pair.291", %"struct.std::__1::pair.291"* %290, i64 1
  %295 = xor i64 %289, -1
  %296 = add i64 %288, %295
  %297 = select i1 %293, i64 %296, i64 %289
  %298 = select i1 %293, %"struct.std::__1::pair.291"* %294, %"struct.std::__1::pair.291"* %287
  %299 = icmp eq i64 %297, 0
  br i1 %299, label %300, label %286

300:                                              ; preds = %286, %276
  %301 = phi %"struct.std::__1::pair.291"* [ %277, %276 ], [ %298, %286 ]
  %302 = icmp eq %"struct.std::__1::pair.291"* %301, %282
  br i1 %302, label %308, label %303

303:                                              ; preds = %300
  %304 = getelementptr inbounds %"struct.std::__1::pair.291", %"struct.std::__1::pair.291"* %301, i64 0, i32 0
  %305 = load i32, i32* %12, align 4
  %306 = load i32, i32* %304, align 4
  %307 = icmp slt i32 %305, %306
  br i1 %307, label %308, label %310

308:                                              ; preds = %303, %300
  call void @llvm.lifetime.start.p0i8(i64 8, i8* nonnull %52) #13
  store i64 0, i64* %3, align 8
  %309 = call %"struct.std::__1::pair.291"* @_ZNSt3__16vectorINS_4pairI14ContentSettingmEENS_9allocatorIS3_EEE7emplaceIJRKS2_mEEENS_11__wrap_iterIPS3_EENSA_IPKS3_EEDpOT_(%"class.std::__1::vector.289"* nonnull %37, %"struct.std::__1::pair.291"* %301, i32* nonnull dereferenceable(4) %12, i64* nonnull dereferenceable(8) %3) #13
  call void @llvm.lifetime.end.p0i8(i64 8, i8* nonnull %52) #13
  br label %310

310:                                              ; preds = %303, %308
  %311 = phi %"struct.std::__1::pair.291"* [ %309, %308 ], [ %301, %303 ]
  %312 = getelementptr inbounds %"struct.std::__1::pair.291", %"struct.std::__1::pair.291"* %311, i64 0, i32 1
  %313 = load i64, i64* %312, align 8
  %314 = trunc i64 %313 to i32
  call void @_ZN4base24UmaHistogramCustomCountsERKNSt3__112basic_stringIcNS0_11char_traitsIcEENS0_9allocatorIcEEEEiiii(%"class.std::__1::basic_string"* nonnull dereferenceable(24) %13, i32 %314, i32 1, i32 1000, i32 30) #13
  %315 = load i8, i8* %54, align 1
  %316 = icmp slt i8 %315, 0
  br i1 %316, label %317, label %319

317:                                              ; preds = %310
  %318 = load i8*, i8** %43, align 8
  call void @_ZdlPv(i8* %318) #14
  br label %319

319:                                              ; preds = %310, %317
  call void @llvm.lifetime.end.p0i8(i64 24, i8* nonnull %42) #13
  br label %320

320:                                              ; preds = %234, %319
  call void @llvm.lifetime.end.p0i8(i64 4, i8* nonnull %41) #13
  %321 = add nuw nsw i32 %235, 1
  %322 = icmp eq i32 %321, 6
  br i1 %322, label %323, label %234

323:                                              ; preds = %320
  %324 = icmp eq i32 %68, 0
  br i1 %324, label %325, label %327

325:                                              ; preds = %323
  %326 = trunc i64 %91 to i32
  call void @_ZN4base24UmaHistogramCustomCountsEPKciiii(i8* getelementptr inbounds ([51 x i8], [51 x i8]* @.str.8, i64 0, i64 0), i32 %326, i32 1, i32 1000, i32 30) #13
  br label %327

327:                                              ; preds = %89, %325, %323
  %328 = load i8, i8* %49, align 1
  %329 = icmp slt i8 %328, 0
  br i1 %329, label %330, label %332

330:                                              ; preds = %327
  %331 = load i8*, i8** %39, align 8
  call void @_ZdlPv(i8* %331) #14
  br label %332

332:                                              ; preds = %327, %330
  call void @llvm.lifetime.end.p0i8(i64 24, i8* nonnull %38) #13
  %333 = load %"struct.std::__1::pair.291"*, %"struct.std::__1::pair.291"** %27, align 8
  %334 = icmp eq %"struct.std::__1::pair.291"* %333, null
  br i1 %334, label %338, label %335

335:                                              ; preds = %332
  %336 = ptrtoint %"struct.std::__1::pair.291"* %333 to i64
  store i64 %336, i64* %35, align 8
  %337 = bitcast %"struct.std::__1::pair.291"* %333 to i8*
  call void @_ZdlPv(i8* %337) #14
  br label %338

338:                                              ; preds = %332, %335
  call void @llvm.lifetime.end.p0i8(i64 24, i8* nonnull %26) #13
  %339 = load %struct.ContentSettingPatternSource*, %struct.ContentSettingPatternSource** %24, align 8
  %340 = icmp eq %struct.ContentSettingPatternSource* %339, null
  br i1 %340, label %353, label %341

341:                                              ; preds = %338
  %342 = bitcast %struct.ContentSettingPatternSource* %339 to i8*
  %343 = load %struct.ContentSettingPatternSource*, %struct.ContentSettingPatternSource** %25, align 8
  %344 = icmp eq %struct.ContentSettingPatternSource* %343, %339
  br i1 %344, label %351, label %345

345:                                              ; preds = %341, %345
  %346 = phi %struct.ContentSettingPatternSource* [ %347, %345 ], [ %343, %341 ]
  %347 = getelementptr inbounds %struct.ContentSettingPatternSource, %struct.ContentSettingPatternSource* %346, i64 -1
  call void @_ZN27ContentSettingPatternSourceD1Ev(%struct.ContentSettingPatternSource* %347) #13
  %348 = icmp eq %struct.ContentSettingPatternSource* %347, %339
  br i1 %348, label %349, label %345

349:                                              ; preds = %345
  %350 = load i8*, i8** %55, align 8
  br label %351

351:                                              ; preds = %349, %341
  %352 = phi i8* [ %350, %349 ], [ %342, %341 ]
  store %struct.ContentSettingPatternSource* %339, %struct.ContentSettingPatternSource** %25, align 8
  call void @_ZdlPv(i8* %352) #14
  br label %353

353:                                              ; preds = %338, %351
  call void @llvm.lifetime.end.p0i8(i64 24, i8* nonnull %23) #13
  %354 = load i8, i8* %57, align 1
  %355 = icmp slt i8 %354, 0
  br i1 %355, label %356, label %358

356:                                              ; preds = %353
  %357 = load i8*, i8** %22, align 8
  call void @_ZdlPv(i8* %357) #14
  br label %358

358:                                              ; preds = %353, %356
  call void @llvm.lifetime.end.p0i8(i64 24, i8* nonnull %21) #13
  %359 = getelementptr inbounds %"class.std::__1::__tree_end_node", %"class.std::__1::__tree_end_node"* %63, i64 1, i32 0
  %360 = load %"class.std::__1::__tree_node_base"*, %"class.std::__1::__tree_node_base"** %359, align 8
  %361 = icmp eq %"class.std::__1::__tree_node_base"* %360, null
  br i1 %361, label %362, label %370

362:                                              ; preds = %358
  %363 = bitcast %"class.std::__1::__tree_end_node"* %63 to %"class.std::__1::__tree_node_base"*
  %364 = getelementptr inbounds %"class.std::__1::__tree_end_node", %"class.std::__1::__tree_end_node"* %63, i64 2
  %365 = bitcast %"class.std::__1::__tree_end_node"* %364 to %"class.std::__1::__tree_end_node"**
  %366 = load %"class.std::__1::__tree_end_node"*, %"class.std::__1::__tree_end_node"** %365, align 8
  %367 = getelementptr inbounds %"class.std::__1::__tree_end_node", %"class.std::__1::__tree_end_node"* %366, i64 0, i32 0
  %368 = load %"class.std::__1::__tree_node_base"*, %"class.std::__1::__tree_node_base"** %367, align 8
  %369 = icmp eq %"class.std::__1::__tree_node_base"* %368, %363
  br i1 %369, label %386, label %377

370:                                              ; preds = %358, %370
  %371 = phi %"class.std::__1::__tree_node_base"* [ %373, %370 ], [ %360, %358 ]
  %372 = getelementptr inbounds %"class.std::__1::__tree_node_base", %"class.std::__1::__tree_node_base"* %371, i64 0, i32 0, i32 0
  %373 = load %"class.std::__1::__tree_node_base"*, %"class.std::__1::__tree_node_base"** %372, align 8
  %374 = icmp eq %"class.std::__1::__tree_node_base"* %373, null
  br i1 %374, label %375, label %370

375:                                              ; preds = %370
  %376 = getelementptr inbounds %"class.std::__1::__tree_node_base", %"class.std::__1::__tree_node_base"* %371, i64 0, i32 0
  br label %386

377:                                              ; preds = %362, %377
  %378 = phi %"class.std::__1::__tree_end_node"** [ %381, %377 ], [ %365, %362 ]
  %379 = bitcast %"class.std::__1::__tree_end_node"** %378 to %"class.std::__1::__tree_node_base"**
  %380 = load %"class.std::__1::__tree_node_base"*, %"class.std::__1::__tree_node_base"** %379, align 8
  %381 = getelementptr inbounds %"class.std::__1::__tree_node_base", %"class.std::__1::__tree_node_base"* %380, i64 0, i32 2
  %382 = load %"class.std::__1::__tree_end_node"*, %"class.std::__1::__tree_end_node"** %381, align 8
  %383 = getelementptr inbounds %"class.std::__1::__tree_end_node", %"class.std::__1::__tree_end_node"* %382, i64 0, i32 0
  %384 = load %"class.std::__1::__tree_node_base"*, %"class.std::__1::__tree_node_base"** %383, align 8
  %385 = icmp eq %"class.std::__1::__tree_node_base"* %384, %380
  br i1 %385, label %386, label %377

386:                                              ; preds = %377, %362, %375
  %387 = phi %"class.std::__1::__tree_end_node"* [ %376, %375 ], [ %366, %362 ], [ %382, %377 ]
  %388 = icmp eq %"class.std::__1::__tree_end_node"* %387, %18
  br i1 %388, label %61, label %62
}

; Function Attrs: nounwind ssp uwtable
define hidden void @_ZN22HostContentSettingsMap20RegisterProfilePrefsEPN10user_prefs20PrefRegistrySyncableE(%"class.user_prefs::PrefRegistrySyncable"*) local_unnamed_addr #0 align 2 {
  %2 = alloca %"class.std::__1::basic_string", align 8
  %3 = tail call %"class.content_settings::ContentSettingsRegistry"* @_ZN16content_settings23ContentSettingsRegistry11GetInstanceEv() #13
  %4 = getelementptr inbounds %"class.user_prefs::PrefRegistrySyncable", %"class.user_prefs::PrefRegistrySyncable"* %0, i64 0, i32 0
  %5 = bitcast %"class.std::__1::basic_string"* %2 to i8*
  call void @llvm.lifetime.start.p0i8(i64 24, i8* nonnull %5) #13
  %6 = tail call i64 @strlen(i8* getelementptr inbounds ([0 x i8], [0 x i8]* @_ZN5prefs34kContentSettingsWindowLastTabIndexE, i64 0, i64 0)) #13
  %7 = icmp ugt i64 %6, -17
  br i1 %7, label %8, label %10

8:                                                ; preds = %1
  %9 = bitcast %"class.std::__1::basic_string"* %2 to %"class.std::__1::__basic_string_common"*
  call void @_ZNKSt3__121__basic_string_commonILb1EE20__throw_length_errorEv(%"class.std::__1::__basic_string_common"* nonnull %9) #15
  unreachable

10:                                               ; preds = %1
  %11 = icmp ult i64 %6, 23
  br i1 %11, label %21, label %12

12:                                               ; preds = %10
  %13 = add nuw i64 %6, 16
  %14 = and i64 %13, -16
  %15 = tail call i8* @_Znwm(i64 %14) #14
  %16 = getelementptr inbounds %"class.std::__1::basic_string", %"class.std::__1::basic_string"* %2, i64 0, i32 0, i32 0, i32 0, i32 0, i32 0, i32 0
  store i8* %15, i8** %16, align 8
  %17 = or i64 %14, -9223372036854775808
  %18 = getelementptr inbounds %"class.std::__1::basic_string", %"class.std::__1::basic_string"* %2, i64 0, i32 0, i32 0, i32 0, i32 0, i32 0, i32 2
  store i64 %17, i64* %18, align 8
  %19 = getelementptr inbounds %"class.std::__1::basic_string", %"class.std::__1::basic_string"* %2, i64 0, i32 0, i32 0, i32 0, i32 0, i32 0, i32 1
  store i64 %6, i64* %19, align 8
  %20 = bitcast %"class.std::__1::basic_string"* %2 to %"struct.std::__1::basic_string<char, std::__1::char_traits<char>, std::__1::allocator<char> >::__short"*
  br label %26

21:                                               ; preds = %10
  %22 = trunc i64 %6 to i8
  %23 = bitcast %"class.std::__1::basic_string"* %2 to %"struct.std::__1::basic_string<char, std::__1::char_traits<char>, std::__1::allocator<char> >::__short"*
  %24 = getelementptr inbounds %"struct.std::__1::basic_string<char, std::__1::char_traits<char>, std::__1::allocator<char> >::__short", %"struct.std::__1::basic_string<char, std::__1::char_traits<char>, std::__1::allocator<char> >::__short"* %23, i64 0, i32 1, i32 0
  store i8 %22, i8* %24, align 1
  %25 = icmp eq i64 %6, 0
  br i1 %25, label %29, label %26

26:                                               ; preds = %21, %12
  %27 = phi %"struct.std::__1::basic_string<char, std::__1::char_traits<char>, std::__1::allocator<char> >::__short"* [ %23, %21 ], [ %20, %12 ]
  %28 = phi i8* [ %5, %21 ], [ %15, %12 ]
  call void @llvm.memcpy.p0i8.p0i8.i64(i8* nonnull align 1 %28, i8* align 1 getelementptr inbounds ([0 x i8], [0 x i8]* @_ZN5prefs34kContentSettingsWindowLastTabIndexE, i64 0, i64 0), i64 %6, i1 false) #13
  br label %29

29:                                               ; preds = %21, %26
  %30 = phi %"struct.std::__1::basic_string<char, std::__1::char_traits<char>, std::__1::allocator<char> >::__short"* [ %23, %21 ], [ %27, %26 ]
  %31 = phi i8* [ %5, %21 ], [ %28, %26 ]
  %32 = getelementptr inbounds i8, i8* %31, i64 %6
  store i8 0, i8* %32, align 1
  call void @_ZN18PrefRegistrySimple19RegisterIntegerPrefERKNSt3__112basic_stringIcNS0_11char_traitsIcEENS0_9allocatorIcEEEEij(%class.PrefRegistrySimple* %4, %"class.std::__1::basic_string"* nonnull dereferenceable(24) %2, i32 0, i32 0) #13
  %33 = getelementptr inbounds %"struct.std::__1::basic_string<char, std::__1::char_traits<char>, std::__1::allocator<char> >::__short", %"struct.std::__1::basic_string<char, std::__1::char_traits<char>, std::__1::allocator<char> >::__short"* %30, i64 0, i32 1, i32 0
  %34 = load i8, i8* %33, align 1
  %35 = icmp slt i8 %34, 0
  br i1 %35, label %36, label %39

36:                                               ; preds = %29
  %37 = getelementptr inbounds %"class.std::__1::basic_string", %"class.std::__1::basic_string"* %2, i64 0, i32 0, i32 0, i32 0, i32 0, i32 0, i32 0
  %38 = load i8*, i8** %37, align 8
  call void @_ZdlPv(i8* %38) #14
  br label %39

39:                                               ; preds = %29, %36
  call void @llvm.lifetime.end.p0i8(i64 24, i8* nonnull %5) #13
  call void @_ZN16content_settings15DefaultProvider20RegisterProfilePrefsEPN10user_prefs20PrefRegistrySyncableE(%"class.user_prefs::PrefRegistrySyncable"* %0) #13
  call void @_ZN16content_settings12PrefProvider20RegisterProfilePrefsEPN10user_prefs20PrefRegistrySyncableE(%"class.user_prefs::PrefRegistrySyncable"* %0) #13
  call void @_ZN16content_settings14PolicyProvider20RegisterProfilePrefsEPN10user_prefs20PrefRegistrySyncableE(%"class.user_prefs::PrefRegistrySyncable"* %0) #13
  ret void
}

declare %"class.content_settings::ContentSettingsRegistry"* @_ZN16content_settings23ContentSettingsRegistry11GetInstanceEv() local_unnamed_addr #1

declare void @_ZN18PrefRegistrySimple19RegisterIntegerPrefERKNSt3__112basic_stringIcNS0_11char_traitsIcEENS0_9allocatorIcEEEEij(%class.PrefRegistrySimple*, %"class.std::__1::basic_string"* dereferenceable(24), i32, i32) local_unnamed_addr #1

declare void @_ZN16content_settings15DefaultProvider20RegisterProfilePrefsEPN10user_prefs20PrefRegistrySyncableE(%"class.user_prefs::PrefRegistrySyncable"*) local_unnamed_addr #1

declare void @_ZN16content_settings12PrefProvider20RegisterProfilePrefsEPN10user_prefs20PrefRegistrySyncableE(%"class.user_prefs::PrefRegistrySyncable"*) local_unnamed_addr #1

declare void @_ZN16content_settings14PolicyProvider20RegisterProfilePrefsEPN10user_prefs20PrefRegistrySyncableE(%"class.user_prefs::PrefRegistrySyncable"*) local_unnamed_addr #1

; Function Attrs: nounwind ssp uwtable
define hidden void @_ZN22HostContentSettingsMap30RegisterUserModifiableProviderENS_12ProviderTypeENSt3__110unique_ptrIN16content_settings22UserModifiableProviderENS1_14default_deleteIS4_EEEE(%class.HostContentSettingsMap*, i32, %"class.content_settings::UserModifiableProvider"*) local_unnamed_addr #0 align 2 {
  %4 = ptrtoint %"class.content_settings::UserModifiableProvider"* %2 to i64
  %5 = getelementptr inbounds %class.HostContentSettingsMap, %class.HostContentSettingsMap* %0, i64 0, i32 6
  %6 = getelementptr inbounds %class.HostContentSettingsMap, %class.HostContentSettingsMap* %0, i64 0, i32 6, i32 0, i32 1
  %7 = load %"class.content_settings::UserModifiableProvider"**, %"class.content_settings::UserModifiableProvider"*** %6, align 8
  %8 = getelementptr inbounds %class.HostContentSettingsMap, %class.HostContentSettingsMap* %0, i64 0, i32 6, i32 0, i32 2, i32 0, i32 0
  %9 = load %"class.content_settings::UserModifiableProvider"**, %"class.content_settings::UserModifiableProvider"*** %8, align 8
  %10 = icmp ult %"class.content_settings::UserModifiableProvider"** %7, %9
  %11 = ptrtoint %"class.content_settings::UserModifiableProvider"** %9 to i64
  br i1 %10, label %12, label %17

12:                                               ; preds = %3
  %13 = bitcast %"class.content_settings::UserModifiableProvider"** %7 to i64*
  store i64 %4, i64* %13, align 8
  %14 = getelementptr inbounds %"class.content_settings::UserModifiableProvider"*, %"class.content_settings::UserModifiableProvider"** %7, i64 1
  %15 = ptrtoint %"class.content_settings::UserModifiableProvider"** %14 to i64
  %16 = bitcast %"class.content_settings::UserModifiableProvider"*** %6 to i64*
  store i64 %15, i64* %16, align 8
  br label %74

17:                                               ; preds = %3
  %18 = ptrtoint %"class.content_settings::UserModifiableProvider"** %7 to i64
  %19 = bitcast %"class.content_settings::UserModifiableProvider"*** %6 to i64*
  %20 = bitcast %"class.std::__1::vector"* %5 to i64*
  %21 = load i64, i64* %20, align 8
  %22 = sub i64 %18, %21
  %23 = ashr exact i64 %22, 3
  %24 = add nsw i64 %23, 1
  %25 = icmp ugt i64 %24, 2305843009213693951
  br i1 %25, label %26, label %28

26:                                               ; preds = %17
  %27 = bitcast %"class.std::__1::vector"* %5 to %"class.std::__1::__vector_base_common"*
  tail call void @_ZNKSt3__120__vector_base_commonILb1EE20__throw_length_errorEv(%"class.std::__1::__vector_base_common"* %27) #15
  unreachable

28:                                               ; preds = %17
  %29 = bitcast %"class.content_settings::UserModifiableProvider"*** %8 to i64*
  %30 = sub i64 %11, %21
  %31 = ashr exact i64 %30, 3
  %32 = icmp ult i64 %31, 1152921504606846975
  br i1 %32, label %33, label %41

33:                                               ; preds = %28
  %34 = ashr exact i64 %30, 2
  %35 = icmp ult i64 %34, %24
  %36 = select i1 %35, i64 %24, i64 %34
  %37 = icmp eq i64 %36, 0
  br i1 %37, label %46, label %38

38:                                               ; preds = %33
  %39 = icmp ugt i64 %36, 2305843009213693951
  br i1 %39, label %40, label %41

40:                                               ; preds = %38
  tail call void @abort() #15
  unreachable

41:                                               ; preds = %38, %28
  %42 = phi i64 [ %36, %38 ], [ 2305843009213693951, %28 ]
  %43 = shl i64 %42, 3
  %44 = tail call i8* @_Znwm(i64 %43) #14
  %45 = bitcast i8* %44 to %"class.content_settings::UserModifiableProvider"**
  br label %46

46:                                               ; preds = %41, %33
  %47 = phi i64 [ %42, %41 ], [ 0, %33 ]
  %48 = phi %"class.content_settings::UserModifiableProvider"** [ %45, %41 ], [ null, %33 ]
  %49 = getelementptr inbounds %"class.content_settings::UserModifiableProvider"*, %"class.content_settings::UserModifiableProvider"** %48, i64 %23
  %50 = getelementptr inbounds %"class.content_settings::UserModifiableProvider"*, %"class.content_settings::UserModifiableProvider"** %48, i64 %47
  %51 = ptrtoint %"class.content_settings::UserModifiableProvider"** %50 to i64
  %52 = bitcast %"class.content_settings::UserModifiableProvider"** %49 to i64*
  store i64 %4, i64* %52, align 8
  %53 = getelementptr inbounds %"class.content_settings::UserModifiableProvider"*, %"class.content_settings::UserModifiableProvider"** %49, i64 1
  %54 = ptrtoint %"class.content_settings::UserModifiableProvider"** %53 to i64
  %55 = getelementptr inbounds %"class.std::__1::vector", %"class.std::__1::vector"* %5, i64 0, i32 0, i32 0
  %56 = load %"class.content_settings::UserModifiableProvider"**, %"class.content_settings::UserModifiableProvider"*** %55, align 8
  %57 = load i64, i64* %19, align 8
  %58 = ptrtoint %"class.content_settings::UserModifiableProvider"** %56 to i64
  %59 = sub i64 %57, %58
  %60 = ashr exact i64 %59, 3
  %61 = sub nsw i64 0, %60
  %62 = getelementptr inbounds %"class.content_settings::UserModifiableProvider"*, %"class.content_settings::UserModifiableProvider"** %49, i64 %61
  %63 = ptrtoint %"class.content_settings::UserModifiableProvider"** %62 to i64
  %64 = icmp sgt i64 %59, 0
  br i1 %64, label %65, label %69

65:                                               ; preds = %46
  %66 = bitcast %"class.content_settings::UserModifiableProvider"** %62 to i8*
  %67 = bitcast %"class.content_settings::UserModifiableProvider"** %56 to i8*
  tail call void @llvm.memcpy.p0i8.p0i8.i64(i8* align 8 %66, i8* align 8 %67, i64 %59, i1 false) #13
  %68 = load %"class.content_settings::UserModifiableProvider"**, %"class.content_settings::UserModifiableProvider"*** %55, align 8
  br label %69

69:                                               ; preds = %65, %46
  %70 = phi %"class.content_settings::UserModifiableProvider"** [ %56, %46 ], [ %68, %65 ]
  store i64 %63, i64* %20, align 8
  store i64 %54, i64* %19, align 8
  store i64 %51, i64* %29, align 8
  %71 = icmp eq %"class.content_settings::UserModifiableProvider"** %70, null
  br i1 %71, label %74, label %72

72:                                               ; preds = %69
  %73 = bitcast %"class.content_settings::UserModifiableProvider"** %70 to i8*
  tail call void @_ZdlPv(i8* %73) #14
  br label %74

74:                                               ; preds = %72, %69, %12
  %75 = getelementptr inbounds %"class.content_settings::UserModifiableProvider", %"class.content_settings::UserModifiableProvider"* %2, i64 0, i32 0
  tail call void @_ZN22HostContentSettingsMap16RegisterProviderENS_12ProviderTypeENSt3__110unique_ptrIN16content_settings18ObservableProviderENS1_14default_deleteIS4_EEEE(%class.HostContentSettingsMap* %0, i32 %1, %"class.content_settings::ObservableProvider"* %75)
  ret void
}

; Function Attrs: nounwind ssp uwtable
define hidden void @_ZN22HostContentSettingsMap16RegisterProviderENS_12ProviderTypeENSt3__110unique_ptrIN16content_settings18ObservableProviderENS1_14default_deleteIS4_EEEE(%class.HostContentSettingsMap*, i32, %"class.content_settings::ObservableProvider"*) local_unnamed_addr #0 align 2 {
  %4 = alloca %class.ContentSettingsPattern, align 8
  %5 = alloca %class.ContentSettingsPattern, align 8
  %6 = getelementptr inbounds %class.HostContentSettingsMap, %class.HostContentSettingsMap* %0, i64 0, i32 0
  tail call void @_ZN16content_settings18ObservableProvider11AddObserverEPNS_8ObserverE(%"class.content_settings::ObservableProvider"* %2, %"class.content_settings::Observer"* %6) #13
  %7 = getelementptr inbounds %class.HostContentSettingsMap, %class.HostContentSettingsMap* %0, i64 0, i32 5
  %8 = getelementptr inbounds %class.HostContentSettingsMap, %class.HostContentSettingsMap* %0, i64 0, i32 5, i32 0, i32 1, i32 0, i32 0
  %9 = bitcast %"class.std::__1::__tree_end_node"* %8 to %"class.std::__1::__tree_node"**
  %10 = load %"class.std::__1::__tree_node"*, %"class.std::__1::__tree_node"** %9, align 8
  %11 = icmp eq %"class.std::__1::__tree_node"* %10, null
  br i1 %11, label %40, label %12

12:                                               ; preds = %3
  %13 = getelementptr inbounds %class.HostContentSettingsMap, %class.HostContentSettingsMap* %0, i64 0, i32 5, i32 0, i32 1, i32 0, i32 0, i32 0
  br label %14

14:                                               ; preds = %36, %12
  %15 = phi %"class.std::__1::__tree_node"* [ %39, %36 ], [ %10, %12 ]
  %16 = phi %"class.std::__1::__tree_node_base"** [ %38, %36 ], [ %13, %12 ]
  %17 = getelementptr inbounds %"class.std::__1::__tree_node", %"class.std::__1::__tree_node"* %15, i64 0, i32 1, i32 0, i32 0
  %18 = load i32, i32* %17, align 4
  %19 = icmp sgt i32 %18, %1
  br i1 %19, label %20, label %26

20:                                               ; preds = %14
  %21 = getelementptr inbounds %"class.std::__1::__tree_node", %"class.std::__1::__tree_node"* %15, i64 0, i32 0, i32 0, i32 0
  %22 = load %"class.std::__1::__tree_node_base"*, %"class.std::__1::__tree_node_base"** %21, align 8
  %23 = icmp eq %"class.std::__1::__tree_node_base"* %22, null
  br i1 %23, label %24, label %36

24:                                               ; preds = %20
  %25 = getelementptr inbounds %"class.std::__1::__tree_node", %"class.std::__1::__tree_node"* %15, i64 0, i32 0, i32 0
  br label %42

26:                                               ; preds = %14
  %27 = icmp slt i32 %18, %1
  br i1 %27, label %28, label %34

28:                                               ; preds = %26
  %29 = getelementptr inbounds %"class.std::__1::__tree_node", %"class.std::__1::__tree_node"* %15, i64 0, i32 0, i32 1
  %30 = load %"class.std::__1::__tree_node_base"*, %"class.std::__1::__tree_node_base"** %29, align 8
  %31 = icmp eq %"class.std::__1::__tree_node_base"* %30, null
  br i1 %31, label %32, label %36

32:                                               ; preds = %28
  %33 = getelementptr inbounds %"class.std::__1::__tree_node", %"class.std::__1::__tree_node"* %15, i64 0, i32 0, i32 0
  br label %42

34:                                               ; preds = %26
  %35 = getelementptr inbounds %"class.std::__1::__tree_node", %"class.std::__1::__tree_node"* %15, i64 0, i32 0, i32 0
  br label %42

36:                                               ; preds = %28, %20
  %37 = phi %"class.std::__1::__tree_node_base"* [ %22, %20 ], [ %30, %28 ]
  %38 = phi %"class.std::__1::__tree_node_base"** [ %21, %20 ], [ %29, %28 ]
  %39 = bitcast %"class.std::__1::__tree_node_base"* %37 to %"class.std::__1::__tree_node"*
  br label %14

40:                                               ; preds = %3
  %41 = getelementptr inbounds %"class.std::__1::__tree_end_node", %"class.std::__1::__tree_end_node"* %8, i64 0, i32 0
  br label %42

42:                                               ; preds = %40, %34, %32, %24
  %43 = phi %"class.std::__1::__tree_end_node"* [ %8, %40 ], [ %25, %24 ], [ %33, %32 ], [ %35, %34 ]
  %44 = phi %"class.std::__1::__tree_node_base"** [ %41, %40 ], [ %21, %24 ], [ %29, %32 ], [ %16, %34 ]
  %45 = bitcast %"class.std::__1::__tree_node_base"** %44 to %"class.std::__1::__tree_node"**
  %46 = load %"class.std::__1::__tree_node"*, %"class.std::__1::__tree_node"** %45, align 8
  %47 = icmp eq %"class.std::__1::__tree_node"* %46, null
  br i1 %47, label %48, label %75

48:                                               ; preds = %42
  %49 = tail call i8* @_Znwm(i64 48) #14, !noalias !19
  %50 = getelementptr inbounds i8, i8* %49, i64 32
  %51 = bitcast i8* %50 to i32*
  store i32 %1, i32* %51, align 8, !noalias !19
  %52 = getelementptr inbounds i8, i8* %49, i64 40
  %53 = bitcast i8* %52 to i64*
  store i64 0, i64* %53, align 8, !noalias !19
  %54 = bitcast i8* %49 to %"class.std::__1::__tree_node"*
  %55 = bitcast i8* %49 to %"class.std::__1::__tree_node_base"*
  %56 = getelementptr inbounds i8, i8* %49, i64 16
  %57 = bitcast i8* %56 to %"class.std::__1::__tree_end_node"**
  tail call void @llvm.memset.p0i8.i64(i8* nonnull align 8 %49, i8 0, i64 16, i1 false) #13
  store %"class.std::__1::__tree_end_node"* %43, %"class.std::__1::__tree_end_node"** %57, align 8
  %58 = bitcast %"class.std::__1::__tree_node_base"** %44 to i8**
  store i8* %49, i8** %58, align 8
  %59 = getelementptr inbounds %"class.std::__1::map.78", %"class.std::__1::map.78"* %7, i64 0, i32 0, i32 0
  %60 = load %"class.std::__1::__tree_end_node"*, %"class.std::__1::__tree_end_node"** %59, align 8
  %61 = getelementptr inbounds %"class.std::__1::__tree_end_node", %"class.std::__1::__tree_end_node"* %60, i64 0, i32 0
  %62 = load %"class.std::__1::__tree_node_base"*, %"class.std::__1::__tree_node_base"** %61, align 8
  %63 = icmp eq %"class.std::__1::__tree_node_base"* %62, null
  br i1 %63, label %68, label %64

64:                                               ; preds = %48
  %65 = ptrtoint %"class.std::__1::__tree_node_base"* %62 to i64
  %66 = bitcast %"class.std::__1::map.78"* %7 to i64*
  store i64 %65, i64* %66, align 8
  %67 = load %"class.std::__1::__tree_node_base"*, %"class.std::__1::__tree_node_base"** %44, align 8
  br label %68

68:                                               ; preds = %64, %48
  %69 = phi %"class.std::__1::__tree_node_base"* [ %55, %48 ], [ %67, %64 ]
  %70 = getelementptr inbounds %class.HostContentSettingsMap, %class.HostContentSettingsMap* %0, i64 0, i32 5, i32 0, i32 1, i32 0, i32 0, i32 0
  %71 = load %"class.std::__1::__tree_node_base"*, %"class.std::__1::__tree_node_base"** %70, align 8
  tail call void @_ZNSt3__127__tree_balance_after_insertIPNS_16__tree_node_baseIPvEEEEvT_S5_(%"class.std::__1::__tree_node_base"* %71, %"class.std::__1::__tree_node_base"* %69) #13
  %72 = getelementptr inbounds %class.HostContentSettingsMap, %class.HostContentSettingsMap* %0, i64 0, i32 5, i32 0, i32 2, i32 0, i32 0
  %73 = load i64, i64* %72, align 8
  %74 = add i64 %73, 1
  store i64 %74, i64* %72, align 8
  br label %75

75:                                               ; preds = %42, %68
  %76 = phi %"class.std::__1::__tree_node"* [ %54, %68 ], [ %46, %42 ]
  %77 = getelementptr inbounds %"class.content_settings::ObservableProvider", %"class.content_settings::ObservableProvider"* %2, i64 0, i32 0
  %78 = getelementptr inbounds %"class.std::__1::__tree_node", %"class.std::__1::__tree_node"* %76, i64 0, i32 1, i32 0, i32 1, i32 0, i32 0, i32 0
  %79 = load %"class.content_settings::ProviderInterface"*, %"class.content_settings::ProviderInterface"** %78, align 8
  store %"class.content_settings::ProviderInterface"* %77, %"class.content_settings::ProviderInterface"** %78, align 8
  %80 = icmp eq %"class.content_settings::ProviderInterface"* %79, null
  br i1 %80, label %86, label %81

81:                                               ; preds = %75
  %82 = bitcast %"class.content_settings::ProviderInterface"* %79 to void (%"class.content_settings::ProviderInterface"*)***
  %83 = load void (%"class.content_settings::ProviderInterface"*)**, void (%"class.content_settings::ProviderInterface"*)*** %82, align 8
  %84 = getelementptr inbounds void (%"class.content_settings::ProviderInterface"*)*, void (%"class.content_settings::ProviderInterface"*)** %83, i64 1
  %85 = load void (%"class.content_settings::ProviderInterface"*)*, void (%"class.content_settings::ProviderInterface"*)** %84, align 8
  tail call void %85(%"class.content_settings::ProviderInterface"* nonnull %79) #13
  br label %86

86:                                               ; preds = %81, %75
  %87 = bitcast %class.ContentSettingsPattern* %4 to i8*
  call void @llvm.lifetime.start.p0i8(i64 136, i8* nonnull %87) #13
  call void @_ZN22ContentSettingsPatternC1Ev(%class.ContentSettingsPattern* nonnull %4) #13
  %88 = bitcast %class.ContentSettingsPattern* %5 to i8*
  call void @llvm.lifetime.start.p0i8(i64 136, i8* nonnull %88) #13
  call void @_ZN22ContentSettingsPatternC1Ev(%class.ContentSettingsPattern* nonnull %5) #13
  %89 = bitcast %class.HostContentSettingsMap* %0 to void (%class.HostContentSettingsMap*, %class.ContentSettingsPattern*, %class.ContentSettingsPattern*, i32)***
  %90 = load void (%class.HostContentSettingsMap*, %class.ContentSettingsPattern*, %class.ContentSettingsPattern*, i32)**, void (%class.HostContentSettingsMap*, %class.ContentSettingsPattern*, %class.ContentSettingsPattern*, i32)*** %89, align 8
  %91 = load void (%class.HostContentSettingsMap*, %class.ContentSettingsPattern*, %class.ContentSettingsPattern*, i32)*, void (%class.HostContentSettingsMap*, %class.ContentSettingsPattern*, %class.ContentSettingsPattern*, i32)** %90, align 8
  call void %91(%class.HostContentSettingsMap* %0, %class.ContentSettingsPattern* nonnull dereferenceable(136) %4, %class.ContentSettingsPattern* nonnull dereferenceable(136) %5, i32 -1) #13
  %92 = getelementptr inbounds %class.ContentSettingsPattern, %class.ContentSettingsPattern* %5, i64 0, i32 0
  call void @_ZN22ContentSettingsPattern12PatternPartsD1Ev(%"struct.ContentSettingsPattern::PatternParts"* nonnull %92) #13
  call void @llvm.lifetime.end.p0i8(i64 136, i8* nonnull %88) #13
  %93 = getelementptr inbounds %class.ContentSettingsPattern, %class.ContentSettingsPattern* %4, i64 0, i32 0
  call void @_ZN22ContentSettingsPattern12PatternPartsD1Ev(%"struct.ContentSettingsPattern::PatternParts"* nonnull %93) #13
  call void @llvm.lifetime.end.p0i8(i64 136, i8* nonnull %87) #13
  ret void
}

declare void @_ZN22ContentSettingsPatternC1Ev(%class.ContentSettingsPattern*) unnamed_addr #1

; Function Attrs: nounwind ssp uwtable
define hidden i32 @_ZNK22HostContentSettingsMap36GetDefaultContentSettingFromProviderE19ContentSettingsTypePN16content_settings17ProviderInterfaceE(%class.HostContentSettingsMap* nocapture readnone, i32, %"class.content_settings::ProviderInterface"*) local_unnamed_addr #0 align 2 {
  %4 = alloca %class.ContentSettingsPattern, align 8
  %5 = alloca %"struct.content_settings::Rule", align 8
  %6 = bitcast %"class.content_settings::ProviderInterface"* %2 to %"class.content_settings::RuleIterator"* (%"class.content_settings::ProviderInterface"*, i32, i1)***
  %7 = load %"class.content_settings::RuleIterator"* (%"class.content_settings::ProviderInterface"*, i32, i1)**, %"class.content_settings::RuleIterator"* (%"class.content_settings::ProviderInterface"*, i32, i1)*** %6, align 8
  %8 = getelementptr inbounds %"class.content_settings::RuleIterator"* (%"class.content_settings::ProviderInterface"*, i32, i1)*, %"class.content_settings::RuleIterator"* (%"class.content_settings::ProviderInterface"*, i32, i1)** %7, i64 2
  %9 = load %"class.content_settings::RuleIterator"* (%"class.content_settings::ProviderInterface"*, i32, i1)*, %"class.content_settings::RuleIterator"* (%"class.content_settings::ProviderInterface"*, i32, i1)** %8, align 8
  %10 = tail call %"class.content_settings::RuleIterator"* %9(%"class.content_settings::ProviderInterface"* %2, i32 %1, i1 zeroext false) #13
  %11 = icmp eq %"class.content_settings::RuleIterator"* %10, null
  br i1 %11, label %42, label %12

12:                                               ; preds = %3
  %13 = bitcast %class.ContentSettingsPattern* %4 to i8*
  call void @llvm.lifetime.start.p0i8(i64 136, i8* nonnull %13) #13
  call void @llvm.memset.p0i8.i64(i8* nonnull align 8 %13, i8 -86, i64 136, i1 false)
  call void @_ZN22ContentSettingsPattern8WildcardEv(%class.ContentSettingsPattern* nonnull sret %4) #13
  %14 = bitcast %"class.content_settings::RuleIterator"* %10 to i1 (%"class.content_settings::RuleIterator"*)***
  %15 = bitcast %"struct.content_settings::Rule"* %5 to i8*
  %16 = bitcast %"class.content_settings::RuleIterator"* %10 to void (%"struct.content_settings::Rule"*, %"class.content_settings::RuleIterator"*)***
  %17 = getelementptr inbounds %"struct.content_settings::Rule", %"struct.content_settings::Rule"* %5, i64 0, i32 0
  %18 = getelementptr inbounds %"struct.content_settings::Rule", %"struct.content_settings::Rule"* %5, i64 0, i32 1
  %19 = getelementptr inbounds %"struct.content_settings::Rule", %"struct.content_settings::Rule"* %5, i64 0, i32 2
  %20 = load i1 (%"class.content_settings::RuleIterator"*)**, i1 (%"class.content_settings::RuleIterator"*)*** %14, align 8
  %21 = getelementptr inbounds i1 (%"class.content_settings::RuleIterator"*)*, i1 (%"class.content_settings::RuleIterator"*)** %20, i64 2
  %22 = load i1 (%"class.content_settings::RuleIterator"*)*, i1 (%"class.content_settings::RuleIterator"*)** %21, align 8
  %23 = call zeroext i1 %22(%"class.content_settings::RuleIterator"* nonnull %10) #13
  br i1 %23, label %24, label %38

24:                                               ; preds = %12, %33
  call void @llvm.lifetime.start.p0i8(i64 320, i8* nonnull %15) #13
  call void @llvm.memset.p0i8.i64(i8* nonnull align 8 %15, i8 -86, i64 320, i1 false)
  %25 = load void (%"struct.content_settings::Rule"*, %"class.content_settings::RuleIterator"*)**, void (%"struct.content_settings::Rule"*, %"class.content_settings::RuleIterator"*)*** %16, align 8
  %26 = getelementptr inbounds void (%"struct.content_settings::Rule"*, %"class.content_settings::RuleIterator"*)*, void (%"struct.content_settings::Rule"*, %"class.content_settings::RuleIterator"*)** %25, i64 3
  %27 = load void (%"struct.content_settings::Rule"*, %"class.content_settings::RuleIterator"*)*, void (%"struct.content_settings::Rule"*, %"class.content_settings::RuleIterator"*)** %26, align 8
  call void %27(%"struct.content_settings::Rule"* nonnull sret %5, %"class.content_settings::RuleIterator"* nonnull %10) #13
  %28 = call zeroext i1 @_ZNK22ContentSettingsPatterneqERKS_(%class.ContentSettingsPattern* nonnull %17, %class.ContentSettingsPattern* nonnull dereferenceable(136) %4) #13
  br i1 %28, label %29, label %33

29:                                               ; preds = %24
  %30 = call zeroext i1 @_ZNK22ContentSettingsPatterneqERKS_(%class.ContentSettingsPattern* %18, %class.ContentSettingsPattern* nonnull dereferenceable(136) %4) #13
  br i1 %30, label %31, label %33

31:                                               ; preds = %29
  %32 = call i32 @_ZN16content_settings21ValueToContentSettingEPKN4base5ValueE(%"class.base::Value"* %19) #13
  call void @_ZN16content_settings4RuleD1Ev(%"struct.content_settings::Rule"* nonnull %5) #13
  call void @llvm.lifetime.end.p0i8(i64 320, i8* nonnull %15) #13
  br label %38

33:                                               ; preds = %24, %29
  call void @_ZN16content_settings4RuleD1Ev(%"struct.content_settings::Rule"* nonnull %5) #13
  call void @llvm.lifetime.end.p0i8(i64 320, i8* nonnull %15) #13
  %34 = load i1 (%"class.content_settings::RuleIterator"*)**, i1 (%"class.content_settings::RuleIterator"*)*** %14, align 8
  %35 = getelementptr inbounds i1 (%"class.content_settings::RuleIterator"*)*, i1 (%"class.content_settings::RuleIterator"*)** %34, i64 2
  %36 = load i1 (%"class.content_settings::RuleIterator"*)*, i1 (%"class.content_settings::RuleIterator"*)** %35, align 8
  %37 = call zeroext i1 %36(%"class.content_settings::RuleIterator"* nonnull %10) #13
  br i1 %37, label %24, label %38

38:                                               ; preds = %33, %12, %31
  %39 = phi i32 [ %32, %31 ], [ undef, %12 ], [ undef, %33 ]
  %40 = phi i1 [ false, %31 ], [ true, %12 ], [ true, %33 ]
  %41 = getelementptr inbounds %class.ContentSettingsPattern, %class.ContentSettingsPattern* %4, i64 0, i32 0
  call void @_ZN22ContentSettingsPattern12PatternPartsD1Ev(%"struct.ContentSettingsPattern::PatternParts"* nonnull %41) #13
  call void @llvm.lifetime.end.p0i8(i64 136, i8* nonnull %13) #13
  br i1 %40, label %42, label %43

42:                                               ; preds = %3, %38
  br label %43

43:                                               ; preds = %38, %42
  %44 = phi i32 [ 0, %42 ], [ %39, %38 ]
  br i1 %11, label %50, label %45

45:                                               ; preds = %43
  %46 = bitcast %"class.content_settings::RuleIterator"* %10 to void (%"class.content_settings::RuleIterator"*)***
  %47 = load void (%"class.content_settings::RuleIterator"*)**, void (%"class.content_settings::RuleIterator"*)*** %46, align 8
  %48 = getelementptr inbounds void (%"class.content_settings::RuleIterator"*)*, void (%"class.content_settings::RuleIterator"*)** %47, i64 1
  %49 = load void (%"class.content_settings::RuleIterator"*)*, void (%"class.content_settings::RuleIterator"*)** %48, align 8
  call void %49(%"class.content_settings::RuleIterator"* nonnull %10) #13
  br label %50

50:                                               ; preds = %43, %45
  ret i32 %44
}

; Function Attrs: argmemonly nounwind
declare void @llvm.memset.p0i8.i64(i8* nocapture writeonly, i8, i64, i1 immarg) #2

declare void @_ZN22ContentSettingsPattern8WildcardEv(%class.ContentSettingsPattern* sret) local_unnamed_addr #1

declare zeroext i1 @_ZNK22ContentSettingsPatterneqERKS_(%class.ContentSettingsPattern*, %class.ContentSettingsPattern* dereferenceable(136)) local_unnamed_addr #1

declare i32 @_ZN16content_settings21ValueToContentSettingEPKN4base5ValueE(%"class.base::Value"*) local_unnamed_addr #1

; Function Attrs: nounwind
declare void @_ZN16content_settings4RuleD1Ev(%"struct.content_settings::Rule"*) unnamed_addr #3

; Function Attrs: nounwind ssp uwtable
define hidden i32 @_ZNK22HostContentSettingsMap32GetDefaultContentSettingInternalE19ContentSettingsTypePNS_12ProviderTypeE(%class.HostContentSettingsMap*, i32, i32* nocapture) local_unnamed_addr #0 align 2 {
  %4 = getelementptr inbounds %class.HostContentSettingsMap, %class.HostContentSettingsMap* %0, i64 0, i32 5, i32 0, i32 0
  %5 = load %"class.std::__1::__tree_end_node"*, %"class.std::__1::__tree_end_node"** %4, align 8
  %6 = getelementptr inbounds %class.HostContentSettingsMap, %class.HostContentSettingsMap* %0, i64 0, i32 5, i32 0, i32 1, i32 0, i32 0
  %7 = icmp eq %"class.std::__1::__tree_end_node"* %5, %6
  br i1 %7, label %67, label %8

8:                                                ; preds = %3
  %9 = getelementptr inbounds %class.HostContentSettingsMap, %class.HostContentSettingsMap* %0, i64 0, i32 3
  br label %10

10:                                               ; preds = %8, %61
  %11 = phi %"class.std::__1::__tree_end_node"* [ %5, %8 ], [ %62, %61 ]
  %12 = getelementptr inbounds %"class.std::__1::__tree_end_node", %"class.std::__1::__tree_end_node"* %11, i64 4
  %13 = bitcast %"class.std::__1::__tree_end_node"* %12 to i32*
  %14 = load i32, i32* %13, align 8
  %15 = icmp eq i32 %14, 7
  br i1 %15, label %33, label %16

16:                                               ; preds = %10
  %17 = getelementptr inbounds %"class.std::__1::__tree_end_node", %"class.std::__1::__tree_end_node"* %11, i64 5
  %18 = bitcast %"class.std::__1::__tree_end_node"* %17 to %"class.content_settings::ProviderInterface"**
  %19 = load %"class.content_settings::ProviderInterface"*, %"class.content_settings::ProviderInterface"** %18, align 8
  %20 = tail call i32 @_ZNK22HostContentSettingsMap36GetDefaultContentSettingFromProviderE19ContentSettingsTypePN16content_settings17ProviderInterfaceE(%class.HostContentSettingsMap* undef, i32 %1, %"class.content_settings::ProviderInterface"* %19)
  %21 = load i8, i8* %9, align 8, !range !6
  %22 = icmp eq i8 %21, 0
  br i1 %22, label %30, label %23

23:                                               ; preds = %16
  %24 = tail call %"class.base::Value"* @_ZN16content_settings21ContentSettingToValueE14ContentSetting(i32 %20) #13
  %25 = tail call fastcc %"class.base::Value"* @_ZN12_GLOBAL__N_135ProcessIncognitoInheritanceBehaviorE19ContentSettingsTypeNSt3__110unique_ptrIN4base5ValueENS1_14default_deleteIS4_EEEE(i32 %1, %"class.base::Value"* %24)
  %26 = tail call i32 @_ZN16content_settings21ValueToContentSettingEPKN4base5ValueE(%"class.base::Value"* %25) #13
  %27 = icmp eq %"class.base::Value"* %25, null
  br i1 %27, label %30, label %28

28:                                               ; preds = %23
  tail call void @_ZN4base5ValueD1Ev(%"class.base::Value"* nonnull %25) #13
  %29 = bitcast %"class.base::Value"* %25 to i8*
  tail call void @_ZdlPv(i8* %29) #14
  br label %30

30:                                               ; preds = %28, %23, %16
  %31 = phi i32 [ %20, %16 ], [ %26, %23 ], [ %26, %28 ]
  %32 = icmp eq i32 %31, 0
  br i1 %32, label %33, label %64

33:                                               ; preds = %30, %10
  %34 = getelementptr inbounds %"class.std::__1::__tree_end_node", %"class.std::__1::__tree_end_node"* %11, i64 1, i32 0
  %35 = load %"class.std::__1::__tree_node_base"*, %"class.std::__1::__tree_node_base"** %34, align 8
  %36 = icmp eq %"class.std::__1::__tree_node_base"* %35, null
  br i1 %36, label %37, label %45

37:                                               ; preds = %33
  %38 = bitcast %"class.std::__1::__tree_end_node"* %11 to %"class.std::__1::__tree_node_base"*
  %39 = getelementptr inbounds %"class.std::__1::__tree_end_node", %"class.std::__1::__tree_end_node"* %11, i64 2
  %40 = bitcast %"class.std::__1::__tree_end_node"* %39 to %"class.std::__1::__tree_end_node"**
  %41 = load %"class.std::__1::__tree_end_node"*, %"class.std::__1::__tree_end_node"** %40, align 8
  %42 = getelementptr inbounds %"class.std::__1::__tree_end_node", %"class.std::__1::__tree_end_node"* %41, i64 0, i32 0
  %43 = load %"class.std::__1::__tree_node_base"*, %"class.std::__1::__tree_node_base"** %42, align 8
  %44 = icmp eq %"class.std::__1::__tree_node_base"* %43, %38
  br i1 %44, label %61, label %52

45:                                               ; preds = %33, %45
  %46 = phi %"class.std::__1::__tree_node_base"* [ %48, %45 ], [ %35, %33 ]
  %47 = getelementptr inbounds %"class.std::__1::__tree_node_base", %"class.std::__1::__tree_node_base"* %46, i64 0, i32 0, i32 0
  %48 = load %"class.std::__1::__tree_node_base"*, %"class.std::__1::__tree_node_base"** %47, align 8
  %49 = icmp eq %"class.std::__1::__tree_node_base"* %48, null
  br i1 %49, label %50, label %45

50:                                               ; preds = %45
  %51 = getelementptr inbounds %"class.std::__1::__tree_node_base", %"class.std::__1::__tree_node_base"* %46, i64 0, i32 0
  br label %61

52:                                               ; preds = %37, %52
  %53 = phi %"class.std::__1::__tree_end_node"** [ %56, %52 ], [ %40, %37 ]
  %54 = bitcast %"class.std::__1::__tree_end_node"** %53 to %"class.std::__1::__tree_node_base"**
  %55 = load %"class.std::__1::__tree_node_base"*, %"class.std::__1::__tree_node_base"** %54, align 8
  %56 = getelementptr inbounds %"class.std::__1::__tree_node_base", %"class.std::__1::__tree_node_base"* %55, i64 0, i32 2
  %57 = load %"class.std::__1::__tree_end_node"*, %"class.std::__1::__tree_end_node"** %56, align 8
  %58 = getelementptr inbounds %"class.std::__1::__tree_end_node", %"class.std::__1::__tree_end_node"* %57, i64 0, i32 0
  %59 = load %"class.std::__1::__tree_node_base"*, %"class.std::__1::__tree_node_base"** %58, align 8
  %60 = icmp eq %"class.std::__1::__tree_node_base"* %59, %55
  br i1 %60, label %61, label %52

61:                                               ; preds = %52, %37, %50
  %62 = phi %"class.std::__1::__tree_end_node"* [ %51, %50 ], [ %41, %37 ], [ %57, %52 ]
  %63 = icmp eq %"class.std::__1::__tree_end_node"* %62, %6
  br i1 %63, label %67, label %10

64:                                               ; preds = %30
  %65 = bitcast %"class.std::__1::__tree_end_node"* %12 to i32*
  %66 = load i32, i32* %65, align 8
  store i32 %66, i32* %2, align 4
  br label %67

67:                                               ; preds = %61, %3, %64
  %68 = phi i32 [ %31, %64 ], [ 0, %3 ], [ 0, %61 ]
  ret i32 %68
}

; Function Attrs: norecurse nounwind readnone ssp uwtable
define hidden void @_ZNK22HostContentSettingsMap28UsedContentSettingsProvidersEv(%class.HostContentSettingsMap* nocapture) local_unnamed_addr #4 align 2 {
  ret void
}

; Function Attrs: nounwind ssp uwtable
define internal fastcc %"class.base::Value"* @_ZN12_GLOBAL__N_135ProcessIncognitoInheritanceBehaviorE19ContentSettingsTypeNSt3__110unique_ptrIN4base5ValueENS1_14default_deleteIS4_EEEE(i32, %"class.base::Value"*) unnamed_addr #0 {
  %3 = ptrtoint %"class.base::Value"* %1 to i64
  %4 = tail call %"class.content_settings::WebsiteSettingsRegistry"* @_ZN16content_settings23WebsiteSettingsRegistry11GetInstanceEv() #13
  %5 = tail call %"class.content_settings::WebsiteSettingsInfo"* @_ZNK16content_settings23WebsiteSettingsRegistry3GetE19ContentSettingsType(%"class.content_settings::WebsiteSettingsRegistry"* %4, i32 %0) #13
  %6 = icmp eq %"class.content_settings::WebsiteSettingsInfo"* %5, null
  br i1 %6, label %11, label %7

7:                                                ; preds = %2
  %8 = getelementptr inbounds %"class.content_settings::WebsiteSettingsInfo", %"class.content_settings::WebsiteSettingsInfo"* %5, i64 0, i32 8
  %9 = load i32, i32* %8, align 4
  %10 = icmp eq i32 %9, 1
  br i1 %10, label %30, label %11

11:                                               ; preds = %2, %7
  %12 = tail call %"class.content_settings::ContentSettingsRegistry"* @_ZN16content_settings23ContentSettingsRegistry11GetInstanceEv() #13
  %13 = tail call %"class.content_settings::ContentSettingsInfo"* @_ZNK16content_settings23ContentSettingsRegistry3GetE19ContentSettingsType(%"class.content_settings::ContentSettingsRegistry"* %12, i32 %0) #13
  %14 = icmp eq %"class.content_settings::ContentSettingsInfo"* %13, null
  br i1 %14, label %35, label %15

15:                                               ; preds = %11
  %16 = getelementptr inbounds %"class.content_settings::ContentSettingsInfo", %"class.content_settings::ContentSettingsInfo"* %13, i64 0, i32 3
  %17 = load i32, i32* %16, align 8
  %18 = icmp eq i32 %17, 1
  br i1 %18, label %19, label %35

19:                                               ; preds = %15
  %20 = tail call i32 @_ZN16content_settings21ValueToContentSettingEPKN4base5ValueE(%"class.base::Value"* %1) #13
  %21 = getelementptr inbounds %"class.content_settings::ContentSettingsInfo", %"class.content_settings::ContentSettingsInfo"* %13, i64 0, i32 0
  %22 = load %"class.content_settings::WebsiteSettingsInfo"*, %"class.content_settings::WebsiteSettingsInfo"** %21, align 8
  %23 = getelementptr inbounds %"class.content_settings::WebsiteSettingsInfo", %"class.content_settings::WebsiteSettingsInfo"* %22, i64 0, i32 4, i32 0, i32 0, i32 0
  %24 = load %"class.base::Value"*, %"class.base::Value"** %23, align 8
  %25 = tail call i32 @_ZN16content_settings21ValueToContentSettingEPKN4base5ValueE(%"class.base::Value"* %24) #13
  %26 = tail call zeroext i1 @_ZN16content_settings16IsMorePermissiveE14ContentSettingS0_(i32 %20, i32 %25) #13
  br i1 %26, label %27, label %35

27:                                               ; preds = %19
  %28 = tail call %"class.base::Value"* @_ZN16content_settings21ContentSettingToValueE14ContentSetting(i32 %25) #13
  %29 = ptrtoint %"class.base::Value"* %28 to i64
  br label %30

30:                                               ; preds = %7, %27
  %31 = phi i64 [ %29, %27 ], [ 0, %7 ]
  %32 = icmp eq %"class.base::Value"* %1, null
  br i1 %32, label %35, label %33

33:                                               ; preds = %30
  tail call void @_ZN4base5ValueD1Ev(%"class.base::Value"* nonnull %1) #13
  %34 = bitcast %"class.base::Value"* %1 to i8*
  tail call void @_ZdlPv(i8* %34) #14
  br label %35

35:                                               ; preds = %15, %11, %19, %30, %33
  %36 = phi i64 [ %31, %30 ], [ %31, %33 ], [ %3, %15 ], [ %3, %19 ], [ %3, %11 ]
  %37 = inttoptr i64 %36 to %"class.base::Value"*
  ret %"class.base::Value"* %37
}

declare %"class.base::Value"* @_ZN16content_settings21ContentSettingToValueE14ContentSetting(i32) local_unnamed_addr #1

; Function Attrs: nounwind ssp uwtable
define hidden i32 @_ZNK22HostContentSettingsMap24GetDefaultContentSettingE19ContentSettingsTypePNSt3__112basic_stringIcNS1_11char_traitsIcEENS1_9allocatorIcEEEE(%class.HostContentSettingsMap*, i32, %"class.std::__1::basic_string"*) local_unnamed_addr #0 align 2 {
  %4 = alloca i32, align 4
  %5 = bitcast i32* %4 to i8*
  call void @llvm.lifetime.start.p0i8(i64 4, i8* nonnull %5) #13
  store i32 11, i32* %4, align 4
  %6 = call i32 @_ZNK22HostContentSettingsMap32GetDefaultContentSettingInternalE19ContentSettingsTypePNS_12ProviderTypeE(%class.HostContentSettingsMap* %0, i32 %1, i32* nonnull %4)
  %7 = icmp ne i32 %6, 0
  %8 = icmp ne %"class.std::__1::basic_string"* %2, null
  %9 = and i1 %8, %7
  br i1 %9, label %10, label %42

10:                                               ; preds = %3
  %11 = load i32, i32* %4, align 4
  %12 = zext i32 %11 to i64
  %13 = getelementptr inbounds [11 x %"struct.(anonymous namespace)::ProviderNamesSourceMapEntry"], [11 x %"struct.(anonymous namespace)::ProviderNamesSourceMapEntry"]* @_ZN12_GLOBAL__N_123kProviderNamesSourceMapE, i64 0, i64 %12, i32 0
  %14 = load i8*, i8** %13, align 16
  %15 = load i8, i8* %14, align 1
  %16 = tail call i1 @llvm.is.constant.i8(i8 %15) #13
  br i1 %16, label %17, label %40

17:                                               ; preds = %10
  %18 = tail call i64 @strlen(i8* %14) #13
  %19 = icmp ult i64 %18, 23
  br i1 %19, label %20, label %38

20:                                               ; preds = %17
  %21 = bitcast %"class.std::__1::basic_string"* %2 to %"struct.std::__1::basic_string<char, std::__1::char_traits<char>, std::__1::allocator<char> >::__short"*
  %22 = getelementptr inbounds %"struct.std::__1::basic_string<char, std::__1::char_traits<char>, std::__1::allocator<char> >::__short", %"struct.std::__1::basic_string<char, std::__1::char_traits<char>, std::__1::allocator<char> >::__short"* %21, i64 0, i32 1, i32 0
  %23 = load i8, i8* %22, align 1
  %24 = icmp slt i8 %23, 0
  br i1 %24, label %25, label %29

25:                                               ; preds = %20
  %26 = getelementptr inbounds %"class.std::__1::basic_string", %"class.std::__1::basic_string"* %2, i64 0, i32 0, i32 0, i32 0, i32 0, i32 0, i32 1
  store i64 %18, i64* %26, align 8
  %27 = getelementptr inbounds %"class.std::__1::basic_string", %"class.std::__1::basic_string"* %2, i64 0, i32 0, i32 0, i32 0, i32 0, i32 0, i32 0
  %28 = load i8*, i8** %27, align 8
  br label %32

29:                                               ; preds = %20
  %30 = trunc i64 %18 to i8
  store i8 %30, i8* %22, align 1
  %31 = bitcast %"class.std::__1::basic_string"* %2 to i8*
  br label %32

32:                                               ; preds = %29, %25
  %33 = phi i8* [ %28, %25 ], [ %31, %29 ]
  %34 = icmp eq i64 %18, 0
  br i1 %34, label %36, label %35

35:                                               ; preds = %32
  tail call void @llvm.memmove.p0i8.p0i8.i64(i8* align 1 %33, i8* align 1 %14, i64 %18, i1 false) #13
  br label %36

36:                                               ; preds = %35, %32
  %37 = getelementptr inbounds i8, i8* %33, i64 %18
  store i8 0, i8* %37, align 1
  br label %42

38:                                               ; preds = %17
  %39 = tail call dereferenceable(24) %"class.std::__1::basic_string"* @_ZNSt3__112basic_stringIcNS_11char_traitsIcEENS_9allocatorIcEEE17__assign_externalEPKcm(%"class.std::__1::basic_string"* nonnull %2, i8* %14, i64 %18) #13
  br label %42

40:                                               ; preds = %10
  %41 = tail call dereferenceable(24) %"class.std::__1::basic_string"* @_ZNSt3__112basic_stringIcNS_11char_traitsIcEENS_9allocatorIcEEE17__assign_externalEPKc(%"class.std::__1::basic_string"* nonnull %2, i8* %14) #13
  br label %42

42:                                               ; preds = %40, %38, %36, %3
  call void @llvm.lifetime.end.p0i8(i64 4, i8* nonnull %5) #13
  ret i32 %6
}

; Function Attrs: nounwind ssp uwtable
define hidden i32 @_ZNK22HostContentSettingsMap17GetContentSettingERK4GURLS2_19ContentSettingsType(%class.HostContentSettingsMap*, %class.GURL* dereferenceable(120), %class.GURL* dereferenceable(120), i32) local_unnamed_addr #0 align 2 {
  %5 = tail call %"class.base::Value"* @_ZNK22HostContentSettingsMap17GetWebsiteSettingERK4GURLS2_19ContentSettingsTypePN16content_settings11SettingInfoE(%class.HostContentSettingsMap* %0, %class.GURL* dereferenceable(120) %1, %class.GURL* dereferenceable(120) %2, i32 %3, %"struct.content_settings::SettingInfo"* null)
  %6 = tail call i32 @_ZN16content_settings21ValueToContentSettingEPKN4base5ValueE(%"class.base::Value"* %5) #13
  %7 = icmp eq %"class.base::Value"* %5, null
  br i1 %7, label %10, label %8

8:                                                ; preds = %4
  tail call void @_ZN4base5ValueD1Ev(%"class.base::Value"* nonnull %5) #13
  %9 = bitcast %"class.base::Value"* %5 to i8*
  tail call void @_ZdlPv(i8* %9) #14
  br label %10

10:                                               ; preds = %4, %8
  ret i32 %6
}

; Function Attrs: nounwind ssp uwtable
define hidden %"class.base::Value"* @_ZNK22HostContentSettingsMap17GetWebsiteSettingERK4GURLS2_19ContentSettingsTypePN16content_settings11SettingInfoE(%class.HostContentSettingsMap*, %class.GURL* dereferenceable(120), %class.GURL* dereferenceable(120), i32, %"struct.content_settings::SettingInfo"*) local_unnamed_addr #0 align 2 {
  %6 = alloca %class.ContentSettingsPattern, align 8
  %7 = alloca %class.ContentSettingsPattern, align 8
  %8 = tail call %"class.content_settings::ContentSettingsRegistry"* @_ZN16content_settings23ContentSettingsRegistry11GetInstanceEv() #13
  %9 = tail call %"class.content_settings::ContentSettingsInfo"* @_ZNK16content_settings23ContentSettingsRegistry3GetE19ContentSettingsType(%"class.content_settings::ContentSettingsRegistry"* %8, i32 %3) #13
  %10 = icmp eq %"class.content_settings::ContentSettingsInfo"* %9, null
  br i1 %10, label %56, label %11

11:                                               ; preds = %5
  %12 = getelementptr inbounds %"class.content_settings::ContentSettingsInfo", %"class.content_settings::ContentSettingsInfo"* %9, i64 0, i32 1, i32 0, i32 0
  %13 = load %"class.std::__1::basic_string"*, %"class.std::__1::basic_string"** %12, align 8
  %14 = getelementptr inbounds %"class.content_settings::ContentSettingsInfo", %"class.content_settings::ContentSettingsInfo"* %9, i64 0, i32 1, i32 0, i32 1
  %15 = load %"class.std::__1::basic_string"*, %"class.std::__1::basic_string"** %14, align 8
  %16 = icmp eq %"class.std::__1::basic_string"* %13, %15
  br i1 %16, label %56, label %19

17:                                               ; preds = %19
  %18 = icmp eq %"class.std::__1::basic_string"* %34, %15
  br i1 %18, label %56, label %19

19:                                               ; preds = %11, %17
  %20 = phi %"class.std::__1::basic_string"* [ %34, %17 ], [ %13, %11 ]
  %21 = bitcast %"class.std::__1::basic_string"* %20 to %"struct.std::__1::basic_string<char, std::__1::char_traits<char>, std::__1::allocator<char> >::__short"*
  %22 = getelementptr inbounds %"struct.std::__1::basic_string<char, std::__1::char_traits<char>, std::__1::allocator<char> >::__short", %"struct.std::__1::basic_string<char, std::__1::char_traits<char>, std::__1::allocator<char> >::__short"* %21, i64 0, i32 1, i32 0
  %23 = load i8, i8* %22, align 1
  %24 = icmp slt i8 %23, 0
  %25 = getelementptr inbounds %"class.std::__1::basic_string", %"class.std::__1::basic_string"* %20, i64 0, i32 0, i32 0, i32 0, i32 0, i32 0, i32 0
  %26 = load i8*, i8** %25, align 8
  %27 = bitcast %"class.std::__1::basic_string"* %20 to i8*
  %28 = select i1 %24, i8* %26, i8* %27
  %29 = getelementptr inbounds %"class.std::__1::basic_string", %"class.std::__1::basic_string"* %20, i64 0, i32 0, i32 0, i32 0, i32 0, i32 0, i32 1
  %30 = load i64, i64* %29, align 8
  %31 = zext i8 %23 to i64
  %32 = select i1 %24, i64 %30, i64 %31
  %33 = tail call zeroext i1 @_ZNK4GURL8SchemeIsEN4base16BasicStringPieceIcNSt3__111char_traitsIcEEEE(%class.GURL* %1, i8* %28, i64 %32) #13
  %34 = getelementptr inbounds %"class.std::__1::basic_string", %"class.std::__1::basic_string"* %20, i64 1
  br i1 %33, label %35, label %17

35:                                               ; preds = %19
  %36 = icmp eq %"struct.content_settings::SettingInfo"* %4, null
  br i1 %36, label %53, label %37

37:                                               ; preds = %35
  %38 = getelementptr inbounds %"struct.content_settings::SettingInfo", %"struct.content_settings::SettingInfo"* %4, i64 0, i32 0
  store i32 4, i32* %38, align 8
  %39 = bitcast %class.ContentSettingsPattern* %6 to i8*
  call void @llvm.lifetime.start.p0i8(i64 136, i8* nonnull %39) #13
  call void @_ZN22ContentSettingsPattern8WildcardEv(%class.ContentSettingsPattern* nonnull sret %6) #13
  %40 = getelementptr inbounds %"struct.content_settings::SettingInfo", %"struct.content_settings::SettingInfo"* %4, i64 0, i32 2, i32 0
  %41 = getelementptr inbounds %class.ContentSettingsPattern, %class.ContentSettingsPattern* %6, i64 0, i32 0
  %42 = call dereferenceable(128) %"struct.ContentSettingsPattern::PatternParts"* @_ZN22ContentSettingsPattern12PatternPartsaSEOS0_(%"struct.ContentSettingsPattern::PatternParts"* %40, %"struct.ContentSettingsPattern::PatternParts"* nonnull dereferenceable(128) %41) #13
  %43 = getelementptr inbounds %class.ContentSettingsPattern, %class.ContentSettingsPattern* %6, i64 0, i32 1
  %44 = load i8, i8* %43, align 8, !range !6
  %45 = getelementptr inbounds %"struct.content_settings::SettingInfo", %"struct.content_settings::SettingInfo"* %4, i64 0, i32 2, i32 1
  store i8 %44, i8* %45, align 8
  call void @_ZN22ContentSettingsPattern12PatternPartsD1Ev(%"struct.ContentSettingsPattern::PatternParts"* nonnull %41) #13
  call void @llvm.lifetime.end.p0i8(i64 136, i8* nonnull %39) #13
  %46 = bitcast %class.ContentSettingsPattern* %7 to i8*
  call void @llvm.lifetime.start.p0i8(i64 136, i8* nonnull %46) #13
  call void @_ZN22ContentSettingsPattern8WildcardEv(%class.ContentSettingsPattern* nonnull sret %7) #13
  %47 = getelementptr inbounds %"struct.content_settings::SettingInfo", %"struct.content_settings::SettingInfo"* %4, i64 0, i32 3, i32 0
  %48 = getelementptr inbounds %class.ContentSettingsPattern, %class.ContentSettingsPattern* %7, i64 0, i32 0
  %49 = call dereferenceable(128) %"struct.ContentSettingsPattern::PatternParts"* @_ZN22ContentSettingsPattern12PatternPartsaSEOS0_(%"struct.ContentSettingsPattern::PatternParts"* %47, %"struct.ContentSettingsPattern::PatternParts"* nonnull dereferenceable(128) %48) #13
  %50 = getelementptr inbounds %class.ContentSettingsPattern, %class.ContentSettingsPattern* %7, i64 0, i32 1
  %51 = load i8, i8* %50, align 8, !range !6
  %52 = getelementptr inbounds %"struct.content_settings::SettingInfo", %"struct.content_settings::SettingInfo"* %4, i64 0, i32 3, i32 1
  store i8 %51, i8* %52, align 8
  call void @_ZN22ContentSettingsPattern12PatternPartsD1Ev(%"struct.ContentSettingsPattern::PatternParts"* nonnull %48) #13
  call void @llvm.lifetime.end.p0i8(i64 136, i8* nonnull %46) #13
  br label %53

53:                                               ; preds = %35, %37
  %54 = call i8* @_Znwm(i64 32) #14
  %55 = bitcast i8* %54 to %"class.base::Value"*
  call void @_ZN4base5ValueC1Ei(%"class.base::Value"* nonnull %55, i32 1) #13
  br label %58

56:                                               ; preds = %17, %11, %5
  %57 = tail call %"class.base::Value"* @_ZNK22HostContentSettingsMap25GetWebsiteSettingInternalERK4GURLS2_19ContentSettingsTypeNS_12ProviderTypeEPN16content_settings11SettingInfoE(%class.HostContentSettingsMap* %0, %class.GURL* dereferenceable(120) %1, %class.GURL* dereferenceable(120) %2, i32 %3, i32 0, %"struct.content_settings::SettingInfo"* %4)
  br label %58

58:                                               ; preds = %53, %56
  %59 = phi %"class.base::Value"* [ %57, %56 ], [ %55, %53 ]
  ret %"class.base::Value"* %59
}

; Function Attrs: nounwind ssp uwtable
define hidden i32 @_ZNK22HostContentSettingsMap31GetUserModifiableContentSettingERK4GURLS2_19ContentSettingsType(%class.HostContentSettingsMap* readonly, %class.GURL* dereferenceable(120), %class.GURL* dereferenceable(120), i32) local_unnamed_addr #0 align 2 {
  %5 = getelementptr inbounds %class.HostContentSettingsMap, %class.HostContentSettingsMap* %0, i64 0, i32 5, i32 0, i32 1, i32 0, i32 0
  %6 = bitcast %"class.std::__1::__tree_end_node"* %5 to %"class.std::__1::__tree_node"**
  %7 = load %"class.std::__1::__tree_node"*, %"class.std::__1::__tree_node"** %6, align 8
  %8 = icmp eq %"class.std::__1::__tree_node"* %7, null
  br i1 %8, label %67, label %9

9:                                                ; preds = %4, %9
  %10 = phi %"class.std::__1::__tree_end_node"* [ %20, %9 ], [ %5, %4 ]
  %11 = phi %"class.std::__1::__tree_node"* [ %21, %9 ], [ %7, %4 ]
  %12 = getelementptr inbounds %"class.std::__1::__tree_node", %"class.std::__1::__tree_node"* %11, i64 0, i32 1, i32 0, i32 0
  %13 = load i32, i32* %12, align 4
  %14 = icmp slt i32 %13, 5
  %15 = getelementptr inbounds %"class.std::__1::__tree_node", %"class.std::__1::__tree_node"* %11, i64 0, i32 0, i32 1
  %16 = bitcast %"class.std::__1::__tree_node_base"** %15 to %"class.std::__1::__tree_node"**
  %17 = getelementptr inbounds %"class.std::__1::__tree_node", %"class.std::__1::__tree_node"* %11, i64 0, i32 0, i32 0
  %18 = bitcast %"class.std::__1::__tree_node"* %11 to %"class.std::__1::__tree_node"**
  %19 = select i1 %14, %"class.std::__1::__tree_node"** %16, %"class.std::__1::__tree_node"** %18
  %20 = select i1 %14, %"class.std::__1::__tree_end_node"* %10, %"class.std::__1::__tree_end_node"* %17
  %21 = load %"class.std::__1::__tree_node"*, %"class.std::__1::__tree_node"** %19, align 8
  %22 = icmp eq %"class.std::__1::__tree_node"* %21, null
  br i1 %22, label %23, label %9

23:                                               ; preds = %9
  %24 = icmp eq %"class.std::__1::__tree_end_node"* %20, %5
  br i1 %24, label %67, label %25

25:                                               ; preds = %23
  %26 = getelementptr inbounds %class.HostContentSettingsMap, %class.HostContentSettingsMap* %0, i64 0, i32 3
  br label %27

27:                                               ; preds = %64, %25
  %28 = phi %"class.std::__1::__tree_end_node"* [ %20, %25 ], [ %65, %64 ]
  %29 = getelementptr inbounds %"class.std::__1::__tree_end_node", %"class.std::__1::__tree_end_node"* %28, i64 5
  %30 = bitcast %"class.std::__1::__tree_end_node"* %29 to %"class.content_settings::ProviderInterface"**
  %31 = load %"class.content_settings::ProviderInterface"*, %"class.content_settings::ProviderInterface"** %30, align 8
  %32 = load i8, i8* %26, align 8, !range !6
  %33 = icmp ne i8 %32, 0
  %34 = tail call %"class.base::Value"* @_ZN22HostContentSettingsMap33GetContentSettingValueAndPatternsEPKN16content_settings17ProviderInterfaceERK4GURLS6_19ContentSettingsTypebP22ContentSettingsPatternS9_PNS0_12SessionModelE(%"class.content_settings::ProviderInterface"* %31, %class.GURL* dereferenceable(120) %1, %class.GURL* dereferenceable(120) %2, i32 %3, i1 zeroext %33, %class.ContentSettingsPattern* null, %class.ContentSettingsPattern* null, i32* null) #13
  %35 = icmp eq %"class.base::Value"* %34, null
  br i1 %35, label %36, label %69

36:                                               ; preds = %27
  %37 = getelementptr inbounds %"class.std::__1::__tree_end_node", %"class.std::__1::__tree_end_node"* %28, i64 1, i32 0
  %38 = load %"class.std::__1::__tree_node_base"*, %"class.std::__1::__tree_node_base"** %37, align 8
  %39 = icmp eq %"class.std::__1::__tree_node_base"* %38, null
  br i1 %39, label %40, label %48

40:                                               ; preds = %36
  %41 = bitcast %"class.std::__1::__tree_end_node"* %28 to %"class.std::__1::__tree_node_base"*
  %42 = getelementptr inbounds %"class.std::__1::__tree_end_node", %"class.std::__1::__tree_end_node"* %28, i64 2
  %43 = bitcast %"class.std::__1::__tree_end_node"* %42 to %"class.std::__1::__tree_end_node"**
  %44 = load %"class.std::__1::__tree_end_node"*, %"class.std::__1::__tree_end_node"** %43, align 8
  %45 = getelementptr inbounds %"class.std::__1::__tree_end_node", %"class.std::__1::__tree_end_node"* %44, i64 0, i32 0
  %46 = load %"class.std::__1::__tree_node_base"*, %"class.std::__1::__tree_node_base"** %45, align 8
  %47 = icmp eq %"class.std::__1::__tree_node_base"* %46, %41
  br i1 %47, label %64, label %55

48:                                               ; preds = %36, %48
  %49 = phi %"class.std::__1::__tree_node_base"* [ %51, %48 ], [ %38, %36 ]
  %50 = getelementptr inbounds %"class.std::__1::__tree_node_base", %"class.std::__1::__tree_node_base"* %49, i64 0, i32 0, i32 0
  %51 = load %"class.std::__1::__tree_node_base"*, %"class.std::__1::__tree_node_base"** %50, align 8
  %52 = icmp eq %"class.std::__1::__tree_node_base"* %51, null
  br i1 %52, label %53, label %48

53:                                               ; preds = %48
  %54 = getelementptr inbounds %"class.std::__1::__tree_node_base", %"class.std::__1::__tree_node_base"* %49, i64 0, i32 0
  br label %64

55:                                               ; preds = %40, %55
  %56 = phi %"class.std::__1::__tree_end_node"** [ %59, %55 ], [ %43, %40 ]
  %57 = bitcast %"class.std::__1::__tree_end_node"** %56 to %"class.std::__1::__tree_node_base"**
  %58 = load %"class.std::__1::__tree_node_base"*, %"class.std::__1::__tree_node_base"** %57, align 8
  %59 = getelementptr inbounds %"class.std::__1::__tree_node_base", %"class.std::__1::__tree_node_base"* %58, i64 0, i32 2
  %60 = load %"class.std::__1::__tree_end_node"*, %"class.std::__1::__tree_end_node"** %59, align 8
  %61 = getelementptr inbounds %"class.std::__1::__tree_end_node", %"class.std::__1::__tree_end_node"* %60, i64 0, i32 0
  %62 = load %"class.std::__1::__tree_node_base"*, %"class.std::__1::__tree_node_base"** %61, align 8
  %63 = icmp eq %"class.std::__1::__tree_node_base"* %62, %58
  br i1 %63, label %64, label %55

64:                                               ; preds = %55, %53, %40
  %65 = phi %"class.std::__1::__tree_end_node"* [ %54, %53 ], [ %44, %40 ], [ %60, %55 ]
  %66 = icmp eq %"class.std::__1::__tree_end_node"* %65, %5
  br i1 %66, label %67, label %27

67:                                               ; preds = %64, %23, %4
  %68 = tail call i32 @_ZN16content_settings21ValueToContentSettingEPKN4base5ValueE(%"class.base::Value"* null) #13
  br label %72

69:                                               ; preds = %27
  %70 = tail call i32 @_ZN16content_settings21ValueToContentSettingEPKN4base5ValueE(%"class.base::Value"* nonnull %34) #13
  tail call void @_ZN4base5ValueD1Ev(%"class.base::Value"* nonnull %34) #13
  %71 = bitcast %"class.base::Value"* %34 to i8*
  tail call void @_ZdlPv(i8* %71) #14
  br label %72

72:                                               ; preds = %67, %69
  %73 = phi i32 [ %68, %67 ], [ %70, %69 ]
  ret i32 %73
}

; Function Attrs: nounwind ssp uwtable
define hidden %"class.base::Value"* @_ZNK22HostContentSettingsMap25GetWebsiteSettingInternalERK4GURLS2_19ContentSettingsTypeNS_12ProviderTypeEPN16content_settings11SettingInfoE(%class.HostContentSettingsMap*, %class.GURL* dereferenceable(120), %class.GURL* dereferenceable(120), i32, i32, %"struct.content_settings::SettingInfo"*) local_unnamed_addr #0 align 2 {
  %7 = alloca %class.ContentSettingsPattern, align 8
  %8 = alloca %class.ContentSettingsPattern, align 8
  %9 = icmp ne %"struct.content_settings::SettingInfo"* %5, null
  %10 = getelementptr inbounds %"struct.content_settings::SettingInfo", %"struct.content_settings::SettingInfo"* %5, i64 0, i32 2
  %11 = getelementptr inbounds %"struct.content_settings::SettingInfo", %"struct.content_settings::SettingInfo"* %5, i64 0, i32 3
  %12 = getelementptr inbounds %"struct.content_settings::SettingInfo", %"struct.content_settings::SettingInfo"* %5, i64 0, i32 4
  %13 = select i1 %9, %class.ContentSettingsPattern* %10, %class.ContentSettingsPattern* null
  %14 = select i1 %9, %class.ContentSettingsPattern* %11, %class.ContentSettingsPattern* null
  %15 = select i1 %9, i32* %12, i32* null
  %16 = getelementptr inbounds %class.HostContentSettingsMap, %class.HostContentSettingsMap* %0, i64 0, i32 5, i32 0, i32 1, i32 0, i32 0
  %17 = bitcast %"class.std::__1::__tree_end_node"* %16 to %"class.std::__1::__tree_node"**
  %18 = load %"class.std::__1::__tree_node"*, %"class.std::__1::__tree_node"** %17, align 8
  %19 = icmp eq %"class.std::__1::__tree_node"* %18, null
  br i1 %19, label %90, label %20

20:                                               ; preds = %6, %20
  %21 = phi %"class.std::__1::__tree_end_node"* [ %31, %20 ], [ %16, %6 ]
  %22 = phi %"class.std::__1::__tree_node"* [ %32, %20 ], [ %18, %6 ]
  %23 = getelementptr inbounds %"class.std::__1::__tree_node", %"class.std::__1::__tree_node"* %22, i64 0, i32 1, i32 0, i32 0
  %24 = load i32, i32* %23, align 4
  %25 = icmp slt i32 %24, %4
  %26 = getelementptr inbounds %"class.std::__1::__tree_node", %"class.std::__1::__tree_node"* %22, i64 0, i32 0, i32 1
  %27 = bitcast %"class.std::__1::__tree_node_base"** %26 to %"class.std::__1::__tree_node"**
  %28 = getelementptr inbounds %"class.std::__1::__tree_node", %"class.std::__1::__tree_node"* %22, i64 0, i32 0, i32 0
  %29 = bitcast %"class.std::__1::__tree_node"* %22 to %"class.std::__1::__tree_node"**
  %30 = select i1 %25, %"class.std::__1::__tree_node"** %27, %"class.std::__1::__tree_node"** %29
  %31 = select i1 %25, %"class.std::__1::__tree_end_node"* %21, %"class.std::__1::__tree_end_node"* %28
  %32 = load %"class.std::__1::__tree_node"*, %"class.std::__1::__tree_node"** %30, align 8
  %33 = icmp eq %"class.std::__1::__tree_node"* %32, null
  br i1 %33, label %34, label %20

34:                                               ; preds = %20
  %35 = icmp eq %"class.std::__1::__tree_end_node"* %31, %16
  br i1 %35, label %90, label %36

36:                                               ; preds = %34
  %37 = getelementptr inbounds %class.HostContentSettingsMap, %class.HostContentSettingsMap* %0, i64 0, i32 3
  %38 = xor i1 %9, true
  br label %39

39:                                               ; preds = %36, %87
  %40 = phi %"class.std::__1::__tree_end_node"* [ %31, %36 ], [ %88, %87 ]
  %41 = getelementptr inbounds %"class.std::__1::__tree_end_node", %"class.std::__1::__tree_end_node"* %40, i64 5
  %42 = bitcast %"class.std::__1::__tree_end_node"* %41 to %"class.content_settings::ProviderInterface"**
  %43 = load %"class.content_settings::ProviderInterface"*, %"class.content_settings::ProviderInterface"** %42, align 8
  %44 = load i8, i8* %37, align 8, !range !6
  %45 = icmp ne i8 %44, 0
  %46 = tail call %"class.base::Value"* @_ZN22HostContentSettingsMap33GetContentSettingValueAndPatternsEPKN16content_settings17ProviderInterfaceERK4GURLS6_19ContentSettingsTypebP22ContentSettingsPatternS9_PNS0_12SessionModelE(%"class.content_settings::ProviderInterface"* %43, %class.GURL* dereferenceable(120) %1, %class.GURL* dereferenceable(120) %2, i32 %3, i1 zeroext %45, %class.ContentSettingsPattern* %13, %class.ContentSettingsPattern* %14, i32* %15)
  %47 = icmp eq %"class.base::Value"* %46, null
  %48 = or i1 %47, %38
  br i1 %48, label %58, label %49

49:                                               ; preds = %39
  %50 = ptrtoint %"class.base::Value"* %46 to i64
  %51 = getelementptr inbounds %"class.std::__1::__tree_end_node", %"class.std::__1::__tree_end_node"* %40, i64 4
  %52 = bitcast %"class.std::__1::__tree_end_node"* %51 to i32*
  %53 = load i32, i32* %52, align 8
  %54 = zext i32 %53 to i64
  %55 = getelementptr inbounds [11 x %"struct.(anonymous namespace)::ProviderNamesSourceMapEntry"], [11 x %"struct.(anonymous namespace)::ProviderNamesSourceMapEntry"]* @_ZN12_GLOBAL__N_123kProviderNamesSourceMapE, i64 0, i64 %54, i32 1
  %56 = load i32, i32* %55, align 8
  %57 = getelementptr inbounds %"struct.content_settings::SettingInfo", %"struct.content_settings::SettingInfo"* %5, i64 0, i32 0
  store i32 %56, i32* %57, align 8
  br label %109

58:                                               ; preds = %39
  br i1 %47, label %59, label %107

59:                                               ; preds = %58
  %60 = getelementptr inbounds %"class.std::__1::__tree_end_node", %"class.std::__1::__tree_end_node"* %40, i64 1, i32 0
  %61 = load %"class.std::__1::__tree_node_base"*, %"class.std::__1::__tree_node_base"** %60, align 8
  %62 = icmp eq %"class.std::__1::__tree_node_base"* %61, null
  br i1 %62, label %63, label %71

63:                                               ; preds = %59
  %64 = bitcast %"class.std::__1::__tree_end_node"* %40 to %"class.std::__1::__tree_node_base"*
  %65 = getelementptr inbounds %"class.std::__1::__tree_end_node", %"class.std::__1::__tree_end_node"* %40, i64 2
  %66 = bitcast %"class.std::__1::__tree_end_node"* %65 to %"class.std::__1::__tree_end_node"**
  %67 = load %"class.std::__1::__tree_end_node"*, %"class.std::__1::__tree_end_node"** %66, align 8
  %68 = getelementptr inbounds %"class.std::__1::__tree_end_node", %"class.std::__1::__tree_end_node"* %67, i64 0, i32 0
  %69 = load %"class.std::__1::__tree_node_base"*, %"class.std::__1::__tree_node_base"** %68, align 8
  %70 = icmp eq %"class.std::__1::__tree_node_base"* %69, %64
  br i1 %70, label %87, label %78

71:                                               ; preds = %59, %71
  %72 = phi %"class.std::__1::__tree_node_base"* [ %74, %71 ], [ %61, %59 ]
  %73 = getelementptr inbounds %"class.std::__1::__tree_node_base", %"class.std::__1::__tree_node_base"* %72, i64 0, i32 0, i32 0
  %74 = load %"class.std::__1::__tree_node_base"*, %"class.std::__1::__tree_node_base"** %73, align 8
  %75 = icmp eq %"class.std::__1::__tree_node_base"* %74, null
  br i1 %75, label %76, label %71

76:                                               ; preds = %71
  %77 = getelementptr inbounds %"class.std::__1::__tree_node_base", %"class.std::__1::__tree_node_base"* %72, i64 0, i32 0
  br label %87

78:                                               ; preds = %63, %78
  %79 = phi %"class.std::__1::__tree_end_node"** [ %82, %78 ], [ %66, %63 ]
  %80 = bitcast %"class.std::__1::__tree_end_node"** %79 to %"class.std::__1::__tree_node_base"**
  %81 = load %"class.std::__1::__tree_node_base"*, %"class.std::__1::__tree_node_base"** %80, align 8
  %82 = getelementptr inbounds %"class.std::__1::__tree_node_base", %"class.std::__1::__tree_node_base"* %81, i64 0, i32 2
  %83 = load %"class.std::__1::__tree_end_node"*, %"class.std::__1::__tree_end_node"** %82, align 8
  %84 = getelementptr inbounds %"class.std::__1::__tree_end_node", %"class.std::__1::__tree_end_node"* %83, i64 0, i32 0
  %85 = load %"class.std::__1::__tree_node_base"*, %"class.std::__1::__tree_node_base"** %84, align 8
  %86 = icmp eq %"class.std::__1::__tree_node_base"* %85, %81
  br i1 %86, label %87, label %78

87:                                               ; preds = %78, %63, %76
  %88 = phi %"class.std::__1::__tree_end_node"* [ %77, %76 ], [ %67, %63 ], [ %83, %78 ]
  %89 = icmp eq %"class.std::__1::__tree_end_node"* %88, %16
  br i1 %89, label %90, label %39

90:                                               ; preds = %87, %6, %34
  br i1 %9, label %91, label %109

91:                                               ; preds = %90
  %92 = getelementptr inbounds %"struct.content_settings::SettingInfo", %"struct.content_settings::SettingInfo"* %5, i64 0, i32 0
  store i32 0, i32* %92, align 8
  %93 = bitcast %class.ContentSettingsPattern* %7 to i8*
  call void @llvm.lifetime.start.p0i8(i64 136, i8* nonnull %93) #13
  call void @_ZN22ContentSettingsPatternC1Ev(%class.ContentSettingsPattern* nonnull %7) #13
  %94 = getelementptr inbounds %class.ContentSettingsPattern, %class.ContentSettingsPattern* %10, i64 0, i32 0
  %95 = getelementptr inbounds %class.ContentSettingsPattern, %class.ContentSettingsPattern* %7, i64 0, i32 0
  %96 = call dereferenceable(128) %"struct.ContentSettingsPattern::PatternParts"* @_ZN22ContentSettingsPattern12PatternPartsaSEOS0_(%"struct.ContentSettingsPattern::PatternParts"* %94, %"struct.ContentSettingsPattern::PatternParts"* nonnull dereferenceable(128) %95) #13
  %97 = getelementptr inbounds %class.ContentSettingsPattern, %class.ContentSettingsPattern* %7, i64 0, i32 1
  %98 = load i8, i8* %97, align 8, !range !6
  %99 = getelementptr inbounds %"struct.content_settings::SettingInfo", %"struct.content_settings::SettingInfo"* %5, i64 0, i32 2, i32 1
  store i8 %98, i8* %99, align 8
  call void @_ZN22ContentSettingsPattern12PatternPartsD1Ev(%"struct.ContentSettingsPattern::PatternParts"* nonnull %95) #13
  call void @llvm.lifetime.end.p0i8(i64 136, i8* nonnull %93) #13
  %100 = bitcast %class.ContentSettingsPattern* %8 to i8*
  call void @llvm.lifetime.start.p0i8(i64 136, i8* nonnull %100) #13
  call void @_ZN22ContentSettingsPatternC1Ev(%class.ContentSettingsPattern* nonnull %8) #13
  %101 = getelementptr inbounds %class.ContentSettingsPattern, %class.ContentSettingsPattern* %11, i64 0, i32 0
  %102 = getelementptr inbounds %class.ContentSettingsPattern, %class.ContentSettingsPattern* %8, i64 0, i32 0
  %103 = call dereferenceable(128) %"struct.ContentSettingsPattern::PatternParts"* @_ZN22ContentSettingsPattern12PatternPartsaSEOS0_(%"struct.ContentSettingsPattern::PatternParts"* %101, %"struct.ContentSettingsPattern::PatternParts"* nonnull dereferenceable(128) %102) #13
  %104 = getelementptr inbounds %class.ContentSettingsPattern, %class.ContentSettingsPattern* %8, i64 0, i32 1
  %105 = load i8, i8* %104, align 8, !range !6
  %106 = getelementptr inbounds %"struct.content_settings::SettingInfo", %"struct.content_settings::SettingInfo"* %5, i64 0, i32 3, i32 1
  store i8 %105, i8* %106, align 8
  call void @_ZN22ContentSettingsPattern12PatternPartsD1Ev(%"struct.ContentSettingsPattern::PatternParts"* nonnull %102) #13
  call void @llvm.lifetime.end.p0i8(i64 136, i8* nonnull %100) #13
  br label %109

107:                                              ; preds = %58
  %108 = ptrtoint %"class.base::Value"* %46 to i64
  br label %109

109:                                              ; preds = %107, %90, %91, %49
  %110 = phi i64 [ %50, %49 ], [ 0, %91 ], [ 0, %90 ], [ %108, %107 ]
  %111 = inttoptr i64 %110 to %"class.base::Value"*
  ret %"class.base::Value"* %111
}

; Function Attrs: nounwind ssp uwtable
define hidden void @_ZNK22HostContentSettingsMap21GetSettingsForOneTypeE19ContentSettingsTypePNSt3__16vectorI27ContentSettingPatternSourceNS1_9allocatorIS3_EEEEN4absl8optionalIN16content_settings12SessionModelEEE(%class.HostContentSettingsMap*, i32, %"class.std::__1::vector.258"*, i64) local_unnamed_addr #0 align 2 {
  %5 = getelementptr inbounds %"class.std::__1::vector.258", %"class.std::__1::vector.258"* %2, i64 0, i32 0, i32 0
  %6 = load %struct.ContentSettingPatternSource*, %struct.ContentSettingPatternSource** %5, align 8
  %7 = getelementptr inbounds %"class.std::__1::vector.258", %"class.std::__1::vector.258"* %2, i64 0, i32 0, i32 1
  %8 = load %struct.ContentSettingPatternSource*, %struct.ContentSettingPatternSource** %7, align 8
  %9 = icmp eq %struct.ContentSettingPatternSource* %8, %6
  br i1 %9, label %14, label %10

10:                                               ; preds = %4, %10
  %11 = phi %struct.ContentSettingPatternSource* [ %12, %10 ], [ %8, %4 ]
  %12 = getelementptr inbounds %struct.ContentSettingPatternSource, %struct.ContentSettingPatternSource* %11, i64 -1
  tail call void @_ZN27ContentSettingPatternSourceD1Ev(%struct.ContentSettingPatternSource* %12) #13
  %13 = icmp eq %struct.ContentSettingPatternSource* %12, %6
  br i1 %13, label %14, label %10

14:                                               ; preds = %10, %4
  store %struct.ContentSettingPatternSource* %6, %struct.ContentSettingPatternSource** %7, align 8
  %15 = getelementptr inbounds %class.HostContentSettingsMap, %class.HostContentSettingsMap* %0, i64 0, i32 5, i32 0, i32 0
  %16 = load %"class.std::__1::__tree_end_node"*, %"class.std::__1::__tree_end_node"** %15, align 8
  %17 = getelementptr inbounds %class.HostContentSettingsMap, %class.HostContentSettingsMap* %0, i64 0, i32 5, i32 0, i32 1, i32 0, i32 0
  %18 = icmp eq %"class.std::__1::__tree_end_node"* %16, %17
  br i1 %18, label %21, label %19

19:                                               ; preds = %14
  %20 = getelementptr inbounds %class.HostContentSettingsMap, %class.HostContentSettingsMap* %0, i64 0, i32 3
  br label %22

21:                                               ; preds = %68, %14
  ret void

22:                                               ; preds = %19, %68
  %23 = phi %"class.std::__1::__tree_end_node"* [ %16, %19 ], [ %69, %68 ]
  %24 = getelementptr inbounds %"class.std::__1::__tree_end_node", %"class.std::__1::__tree_end_node"* %23, i64 4
  %25 = load i8, i8* %20, align 8, !range !6
  %26 = icmp eq i8 %25, 0
  br i1 %26, label %27, label %29

27:                                               ; preds = %22
  %28 = bitcast %"class.std::__1::__tree_end_node"* %24 to i32*
  br label %35

29:                                               ; preds = %22
  %30 = getelementptr inbounds %"class.std::__1::__tree_end_node", %"class.std::__1::__tree_end_node"* %23, i64 5
  %31 = bitcast %"class.std::__1::__tree_end_node"* %30 to %"class.content_settings::ProviderInterface"**
  %32 = load %"class.content_settings::ProviderInterface"*, %"class.content_settings::ProviderInterface"** %31, align 8
  %33 = bitcast %"class.std::__1::__tree_end_node"* %24 to i32*
  %34 = load i32, i32* %33, align 8
  tail call void @_ZNK22HostContentSettingsMap21AddSettingsForOneTypeEPKN16content_settings17ProviderInterfaceENS_12ProviderTypeE19ContentSettingsTypePNSt3__16vectorI27ContentSettingPatternSourceNS6_9allocatorIS8_EEEEbN4absl8optionalINS0_12SessionModelEEE(%class.HostContentSettingsMap* %0, %"class.content_settings::ProviderInterface"* %32, i32 %34, i32 %1, %"class.std::__1::vector.258"* %2, i1 zeroext true, i64 %3)
  br label %35

35:                                               ; preds = %27, %29
  %36 = phi i32* [ %28, %27 ], [ %33, %29 ]
  %37 = getelementptr inbounds %"class.std::__1::__tree_end_node", %"class.std::__1::__tree_end_node"* %23, i64 5
  %38 = bitcast %"class.std::__1::__tree_end_node"* %37 to %"class.content_settings::ProviderInterface"**
  %39 = load %"class.content_settings::ProviderInterface"*, %"class.content_settings::ProviderInterface"** %38, align 8
  %40 = load i32, i32* %36, align 8
  tail call void @_ZNK22HostContentSettingsMap21AddSettingsForOneTypeEPKN16content_settings17ProviderInterfaceENS_12ProviderTypeE19ContentSettingsTypePNSt3__16vectorI27ContentSettingPatternSourceNS6_9allocatorIS8_EEEEbN4absl8optionalINS0_12SessionModelEEE(%class.HostContentSettingsMap* %0, %"class.content_settings::ProviderInterface"* %39, i32 %40, i32 %1, %"class.std::__1::vector.258"* %2, i1 zeroext false, i64 %3)
  %41 = getelementptr inbounds %"class.std::__1::__tree_end_node", %"class.std::__1::__tree_end_node"* %23, i64 1, i32 0
  %42 = load %"class.std::__1::__tree_node_base"*, %"class.std::__1::__tree_node_base"** %41, align 8
  %43 = icmp eq %"class.std::__1::__tree_node_base"* %42, null
  br i1 %43, label %44, label %52

44:                                               ; preds = %35
  %45 = bitcast %"class.std::__1::__tree_end_node"* %23 to %"class.std::__1::__tree_node_base"*
  %46 = getelementptr inbounds %"class.std::__1::__tree_end_node", %"class.std::__1::__tree_end_node"* %23, i64 2
  %47 = bitcast %"class.std::__1::__tree_end_node"* %46 to %"class.std::__1::__tree_end_node"**
  %48 = load %"class.std::__1::__tree_end_node"*, %"class.std::__1::__tree_end_node"** %47, align 8
  %49 = getelementptr inbounds %"class.std::__1::__tree_end_node", %"class.std::__1::__tree_end_node"* %48, i64 0, i32 0
  %50 = load %"class.std::__1::__tree_node_base"*, %"class.std::__1::__tree_node_base"** %49, align 8
  %51 = icmp eq %"class.std::__1::__tree_node_base"* %50, %45
  br i1 %51, label %68, label %59

52:                                               ; preds = %35, %52
  %53 = phi %"class.std::__1::__tree_node_base"* [ %55, %52 ], [ %42, %35 ]
  %54 = getelementptr inbounds %"class.std::__1::__tree_node_base", %"class.std::__1::__tree_node_base"* %53, i64 0, i32 0, i32 0
  %55 = load %"class.std::__1::__tree_node_base"*, %"class.std::__1::__tree_node_base"** %54, align 8
  %56 = icmp eq %"class.std::__1::__tree_node_base"* %55, null
  br i1 %56, label %57, label %52

57:                                               ; preds = %52
  %58 = getelementptr inbounds %"class.std::__1::__tree_node_base", %"class.std::__1::__tree_node_base"* %53, i64 0, i32 0
  br label %68

59:                                               ; preds = %44, %59
  %60 = phi %"class.std::__1::__tree_end_node"** [ %63, %59 ], [ %47, %44 ]
  %61 = bitcast %"class.std::__1::__tree_end_node"** %60 to %"class.std::__1::__tree_node_base"**
  %62 = load %"class.std::__1::__tree_node_base"*, %"class.std::__1::__tree_node_base"** %61, align 8
  %63 = getelementptr inbounds %"class.std::__1::__tree_node_base", %"class.std::__1::__tree_node_base"* %62, i64 0, i32 2
  %64 = load %"class.std::__1::__tree_end_node"*, %"class.std::__1::__tree_end_node"** %63, align 8
  %65 = getelementptr inbounds %"class.std::__1::__tree_end_node", %"class.std::__1::__tree_end_node"* %64, i64 0, i32 0
  %66 = load %"class.std::__1::__tree_node_base"*, %"class.std::__1::__tree_node_base"** %65, align 8
  %67 = icmp eq %"class.std::__1::__tree_node_base"* %66, %62
  br i1 %67, label %68, label %59

68:                                               ; preds = %59, %44, %57
  %69 = phi %"class.std::__1::__tree_end_node"* [ %58, %57 ], [ %48, %44 ], [ %64, %59 ]
  %70 = icmp eq %"class.std::__1::__tree_end_node"* %69, %17
  br i1 %70, label %21, label %22
}

; Function Attrs: nounwind ssp uwtable
define hidden void @_ZNK22HostContentSettingsMap21AddSettingsForOneTypeEPKN16content_settings17ProviderInterfaceENS_12ProviderTypeE19ContentSettingsTypePNSt3__16vectorI27ContentSettingPatternSourceNS6_9allocatorIS8_EEEEbN4absl8optionalINS0_12SessionModelEEE(%class.HostContentSettingsMap* nocapture readonly, %"class.content_settings::ProviderInterface"*, i32, i32, %"class.std::__1::vector.258"*, i1 zeroext, i64) local_unnamed_addr #0 align 2 {
  %8 = alloca i8, align 1
  %9 = alloca %"struct.content_settings::Rule", align 8
  %10 = alloca %"class.base::Value", align 8
  %11 = alloca %"class.base::Value", align 8
  %12 = trunc i64 %6 to i8
  %13 = lshr i64 %6, 32
  %14 = trunc i64 %13 to i32
  %15 = zext i1 %5 to i8
  store i8 %15, i8* %8, align 1
  %16 = bitcast %"class.content_settings::ProviderInterface"* %1 to %"class.content_settings::RuleIterator"* (%"class.content_settings::ProviderInterface"*, i32, i1)***
  %17 = load %"class.content_settings::RuleIterator"* (%"class.content_settings::ProviderInterface"*, i32, i1)**, %"class.content_settings::RuleIterator"* (%"class.content_settings::ProviderInterface"*, i32, i1)*** %16, align 8
  %18 = getelementptr inbounds %"class.content_settings::RuleIterator"* (%"class.content_settings::ProviderInterface"*, i32, i1)*, %"class.content_settings::RuleIterator"* (%"class.content_settings::ProviderInterface"*, i32, i1)** %17, i64 2
  %19 = load %"class.content_settings::RuleIterator"* (%"class.content_settings::ProviderInterface"*, i32, i1)*, %"class.content_settings::RuleIterator"* (%"class.content_settings::ProviderInterface"*, i32, i1)** %18, align 8
  %20 = tail call %"class.content_settings::RuleIterator"* %19(%"class.content_settings::ProviderInterface"* %1, i32 %3, i1 zeroext %5) #13
  %21 = icmp eq %"class.content_settings::RuleIterator"* %20, null
  br i1 %21, label %93, label %22

22:                                               ; preds = %7
  %23 = bitcast %"class.content_settings::RuleIterator"* %20 to i1 (%"class.content_settings::RuleIterator"*)***
  %24 = load i1 (%"class.content_settings::RuleIterator"*)**, i1 (%"class.content_settings::RuleIterator"*)*** %23, align 8
  %25 = getelementptr inbounds i1 (%"class.content_settings::RuleIterator"*)*, i1 (%"class.content_settings::RuleIterator"*)** %24, i64 2
  %26 = load i1 (%"class.content_settings::RuleIterator"*)*, i1 (%"class.content_settings::RuleIterator"*)** %25, align 8
  %27 = call zeroext i1 %26(%"class.content_settings::RuleIterator"* nonnull %20) #13
  br i1 %27, label %28, label %88

28:                                               ; preds = %22
  %29 = bitcast %"struct.content_settings::Rule"* %9 to i8*
  %30 = bitcast %"class.content_settings::RuleIterator"* %20 to void (%"struct.content_settings::Rule"*, %"class.content_settings::RuleIterator"*)***
  %31 = bitcast %"class.base::Value"* %10 to i8*
  %32 = getelementptr inbounds %"struct.content_settings::Rule", %"struct.content_settings::Rule"* %9, i64 0, i32 2
  %33 = getelementptr inbounds %"struct.content_settings::Rule", %"struct.content_settings::Rule"* %9, i64 0, i32 3
  %34 = getelementptr inbounds %"class.base::Time", %"class.base::Time"* %33, i64 0, i32 0, i32 0
  %35 = icmp eq i8 %12, 0
  %36 = getelementptr inbounds %"struct.content_settings::Rule", %"struct.content_settings::Rule"* %9, i64 0, i32 4
  %37 = getelementptr inbounds %class.HostContentSettingsMap, %class.HostContentSettingsMap* %0, i64 0, i32 3
  %38 = getelementptr inbounds %"struct.content_settings::Rule", %"struct.content_settings::Rule"* %9, i64 0, i32 0
  %39 = getelementptr inbounds %"struct.content_settings::Rule", %"struct.content_settings::Rule"* %9, i64 0, i32 1
  %40 = zext i32 %2 to i64
  %41 = getelementptr inbounds [11 x %"struct.(anonymous namespace)::ProviderNamesSourceMapEntry"], [11 x %"struct.(anonymous namespace)::ProviderNamesSourceMapEntry"]* @_ZN12_GLOBAL__N_123kProviderNamesSourceMapE, i64 0, i64 %40, i32 0
  %42 = getelementptr inbounds %"class.std::__1::vector.258", %"class.std::__1::vector.258"* %4, i64 0, i32 0, i32 1
  %43 = getelementptr inbounds %"class.std::__1::vector.258", %"class.std::__1::vector.258"* %4, i64 0, i32 0, i32 2, i32 0, i32 0
  %44 = getelementptr inbounds %"class.std::__1::vector.258", %"class.std::__1::vector.258"* %4, i64 0, i32 0, i32 2
  %45 = bitcast %"class.std::__1::__compressed_pair.260"* %44 to %"class.std::__1::allocator.263"*
  %46 = bitcast %struct.ContentSettingPatternSource** %42 to i64*
  %47 = bitcast %"class.base::Value"* %10 to i8*
  br label %48

48:                                               ; preds = %28, %83
  call void @llvm.lifetime.start.p0i8(i64 320, i8* nonnull %29) #13
  call void @llvm.memset.p0i8.i64(i8* nonnull align 8 %29, i8 -86, i64 320, i1 false)
  %49 = load void (%"struct.content_settings::Rule"*, %"class.content_settings::RuleIterator"*)**, void (%"struct.content_settings::Rule"*, %"class.content_settings::RuleIterator"*)*** %30, align 8
  %50 = getelementptr inbounds void (%"struct.content_settings::Rule"*, %"class.content_settings::RuleIterator"*)*, void (%"struct.content_settings::Rule"*, %"class.content_settings::RuleIterator"*)** %49, i64 3
  %51 = load void (%"struct.content_settings::Rule"*, %"class.content_settings::RuleIterator"*)*, void (%"struct.content_settings::Rule"*, %"class.content_settings::RuleIterator"*)** %50, align 8
  call void %51(%"struct.content_settings::Rule"* nonnull sret %9, %"class.content_settings::RuleIterator"* nonnull %20) #13
  call void @llvm.lifetime.start.p0i8(i64 32, i8* nonnull %31) #13
  call void @llvm.memset.p0i8.i64(i8* nonnull align 8 %47, i8 -86, i64 32, i1 false)
  call void @_ZN4base5ValueC1EOS0_(%"class.base::Value"* nonnull %10, %"class.base::Value"* dereferenceable(32) %32) #13
  %52 = load i64, i64* %34, align 8
  %53 = icmp eq i64 %52, 0
  br i1 %53, label %58, label %54

54:                                               ; preds = %48
  %55 = call i64 @_ZN4base4Time3NowEv() #13
  %56 = load i64, i64* %34, align 8
  %57 = icmp slt i64 %56, %55
  br i1 %57, label %83, label %58

58:                                               ; preds = %54, %48
  %59 = load i32, i32* %36, align 8
  %60 = icmp eq i32 %59, %14
  %61 = or i1 %35, %60
  br i1 %61, label %62, label %83

62:                                               ; preds = %58
  %63 = load i8, i8* %8, align 1, !range !6
  %64 = icmp eq i8 %63, 0
  br i1 %64, label %65, label %75

65:                                               ; preds = %62
  %66 = load i8, i8* %37, align 8, !range !6
  %67 = icmp eq i8 %66, 0
  br i1 %67, label %75, label %68

68:                                               ; preds = %65
  call void @_ZN4base5ValueC1EOS0_(%"class.base::Value"* nonnull %11, %"class.base::Value"* nonnull dereferenceable(32) %10) #13
  %69 = call %"class.base::Value"* @_ZN4base5Value16ToUniquePtrValueES0_(%"class.base::Value"* nonnull %11) #13
  %70 = call fastcc %"class.base::Value"* @_ZN12_GLOBAL__N_135ProcessIncognitoInheritanceBehaviorE19ContentSettingsTypeNSt3__110unique_ptrIN4base5ValueENS1_14default_deleteIS4_EEEE(i32 %3, %"class.base::Value"* %69)
  call void @_ZN4base5ValueD1Ev(%"class.base::Value"* nonnull %11) #13
  %71 = icmp eq %"class.base::Value"* %70, null
  br i1 %71, label %83, label %72

72:                                               ; preds = %68
  %73 = call dereferenceable(32) %"class.base::Value"* @_ZN4base5ValueaSEOS0_(%"class.base::Value"* nonnull %10, %"class.base::Value"* nonnull dereferenceable(32) %70) #13
  call void @_ZN4base5ValueD1Ev(%"class.base::Value"* nonnull %70) #13
  %74 = bitcast %"class.base::Value"* %70 to i8*
  call void @_ZdlPv(i8* %74) #14
  br label %75

75:                                               ; preds = %72, %65, %62
  %76 = load %struct.ContentSettingPatternSource*, %struct.ContentSettingPatternSource** %42, align 8
  %77 = load %struct.ContentSettingPatternSource*, %struct.ContentSettingPatternSource** %43, align 8
  %78 = icmp ult %struct.ContentSettingPatternSource* %76, %77
  br i1 %78, label %79, label %82

79:                                               ; preds = %75
  call void @_ZNSt3__19allocatorI27ContentSettingPatternSourceE9constructIS1_JR22ContentSettingsPatternS5_N4base5ValueERKPKcRbRNS6_4TimeEEEEvPT_DpOT0_(%"class.std::__1::allocator.263"* %45, %struct.ContentSettingPatternSource* %76, %class.ContentSettingsPattern* nonnull dereferenceable(136) %38, %class.ContentSettingsPattern* dereferenceable(136) %39, %"class.base::Value"* nonnull dereferenceable(32) %10, i8** dereferenceable(8) %41, i8* nonnull dereferenceable(1) %8, %"class.base::Time"* dereferenceable(8) %33) #13
  %80 = getelementptr inbounds %struct.ContentSettingPatternSource, %struct.ContentSettingPatternSource* %76, i64 1
  %81 = ptrtoint %struct.ContentSettingPatternSource* %80 to i64
  store i64 %81, i64* %46, align 8
  br label %83

82:                                               ; preds = %75
  call void @_ZNSt3__16vectorI27ContentSettingPatternSourceNS_9allocatorIS1_EEE24__emplace_back_slow_pathIJR22ContentSettingsPatternS7_N4base5ValueERKPKcRbRNS8_4TimeEEEEvDpOT_(%"class.std::__1::vector.258"* %4, %class.ContentSettingsPattern* nonnull dereferenceable(136) %38, %class.ContentSettingsPattern* dereferenceable(136) %39, %"class.base::Value"* nonnull dereferenceable(32) %10, i8** dereferenceable(8) %41, i8* nonnull dereferenceable(1) %8, %"class.base::Time"* dereferenceable(8) %33) #13
  br label %83

83:                                               ; preds = %58, %68, %82, %79, %54
  call void @_ZN4base5ValueD1Ev(%"class.base::Value"* nonnull %10) #13
  call void @llvm.lifetime.end.p0i8(i64 32, i8* nonnull %31) #13
  call void @_ZN16content_settings4RuleD1Ev(%"struct.content_settings::Rule"* nonnull %9) #13
  call void @llvm.lifetime.end.p0i8(i64 320, i8* nonnull %29) #13
  %84 = load i1 (%"class.content_settings::RuleIterator"*)**, i1 (%"class.content_settings::RuleIterator"*)*** %23, align 8
  %85 = getelementptr inbounds i1 (%"class.content_settings::RuleIterator"*)*, i1 (%"class.content_settings::RuleIterator"*)** %84, i64 2
  %86 = load i1 (%"class.content_settings::RuleIterator"*)*, i1 (%"class.content_settings::RuleIterator"*)** %85, align 8
  %87 = call zeroext i1 %86(%"class.content_settings::RuleIterator"* nonnull %20) #13
  br i1 %87, label %48, label %88

88:                                               ; preds = %83, %22
  %89 = bitcast %"class.content_settings::RuleIterator"* %20 to void (%"class.content_settings::RuleIterator"*)***
  %90 = load void (%"class.content_settings::RuleIterator"*)**, void (%"class.content_settings::RuleIterator"*)*** %89, align 8
  %91 = getelementptr inbounds void (%"class.content_settings::RuleIterator"*)*, void (%"class.content_settings::RuleIterator"*)** %90, i64 1
  %92 = load void (%"class.content_settings::RuleIterator"*)*, void (%"class.content_settings::RuleIterator"*)** %91, align 8
  call void %92(%"class.content_settings::RuleIterator"* nonnull %20) #13
  br label %93

93:                                               ; preds = %7, %88
  ret void
}

; Function Attrs: nounwind ssp uwtable
define hidden void @_ZN22HostContentSettingsMap24SetDefaultContentSettingE19ContentSettingsType14ContentSetting(%class.HostContentSettingsMap* readonly, i32, i32) local_unnamed_addr #0 align 2 {
  %4 = alloca %"class.std::__1::unique_ptr.247", align 8
  %5 = alloca %class.ContentSettingsPattern, align 8
  %6 = alloca %class.ContentSettingsPattern, align 8
  %7 = icmp eq i32 %2, 0
  br i1 %7, label %11, label %8

8:                                                ; preds = %3
  %9 = tail call i8* @_Znwm(i64 32) #14
  %10 = bitcast i8* %9 to %"class.base::Value"*
  tail call void @_ZN4base5ValueC1Ei(%"class.base::Value"* nonnull %10, i32 %2) #13
  br label %11

11:                                               ; preds = %3, %8
  %12 = phi i8* [ null, %3 ], [ %9, %8 ]
  %13 = phi %"class.base::Value"* [ null, %3 ], [ %10, %8 ]
  %14 = bitcast %class.ContentSettingsPattern* %5 to i8*
  call void @llvm.lifetime.start.p0i8(i64 136, i8* nonnull %14) #13
  call void @_ZN22ContentSettingsPattern8WildcardEv(%class.ContentSettingsPattern* nonnull sret %5) #13
  %15 = bitcast %class.ContentSettingsPattern* %6 to i8*
  call void @llvm.lifetime.start.p0i8(i64 136, i8* nonnull %15) #13
  call void @_ZN22ContentSettingsPattern8WildcardEv(%class.ContentSettingsPattern* nonnull sret %6) #13
  %16 = bitcast %"class.std::__1::unique_ptr.247"* %4 to i8*
  call void @llvm.lifetime.start.p0i8(i64 8, i8* nonnull %16)
  %17 = getelementptr inbounds %"class.std::__1::unique_ptr.247", %"class.std::__1::unique_ptr.247"* %4, i64 0, i32 0, i32 0, i32 0
  %18 = bitcast %"class.std::__1::unique_ptr.247"* %4 to i8**
  store i8* %12, i8** %18, align 8
  %19 = getelementptr inbounds %class.HostContentSettingsMap, %class.HostContentSettingsMap* %0, i64 0, i32 5, i32 0, i32 0
  %20 = load %"class.std::__1::__tree_end_node"*, %"class.std::__1::__tree_end_node"** %19, align 8
  %21 = getelementptr inbounds %class.HostContentSettingsMap, %class.HostContentSettingsMap* %0, i64 0, i32 5, i32 0, i32 1, i32 0, i32 0
  %22 = icmp eq %"class.std::__1::__tree_end_node"* %20, %21
  br i1 %22, label %67, label %23

23:                                               ; preds = %11, %61
  %24 = phi %"class.std::__1::__tree_end_node"* [ %62, %61 ], [ %20, %11 ]
  %25 = getelementptr inbounds %"class.std::__1::__tree_end_node", %"class.std::__1::__tree_end_node"* %24, i64 5
  %26 = bitcast %"class.std::__1::__tree_end_node"* %25 to %"class.content_settings::ProviderInterface"**
  %27 = load %"class.content_settings::ProviderInterface"*, %"class.content_settings::ProviderInterface"** %26, align 8
  %28 = bitcast %"class.content_settings::ProviderInterface"* %27 to i1 (%"class.content_settings::ProviderInterface"*, %class.ContentSettingsPattern*, %class.ContentSettingsPattern*, i32, %"class.std::__1::unique_ptr.247"*, %"struct.content_settings::ContentSettingConstraints"*)***
  %29 = load i1 (%"class.content_settings::ProviderInterface"*, %class.ContentSettingsPattern*, %class.ContentSettingsPattern*, i32, %"class.std::__1::unique_ptr.247"*, %"struct.content_settings::ContentSettingConstraints"*)**, i1 (%"class.content_settings::ProviderInterface"*, %class.ContentSettingsPattern*, %class.ContentSettingsPattern*, i32, %"class.std::__1::unique_ptr.247"*, %"struct.content_settings::ContentSettingConstraints"*)*** %28, align 8
  %30 = getelementptr inbounds i1 (%"class.content_settings::ProviderInterface"*, %class.ContentSettingsPattern*, %class.ContentSettingsPattern*, i32, %"class.std::__1::unique_ptr.247"*, %"struct.content_settings::ContentSettingConstraints"*)*, i1 (%"class.content_settings::ProviderInterface"*, %class.ContentSettingsPattern*, %class.ContentSettingsPattern*, i32, %"class.std::__1::unique_ptr.247"*, %"struct.content_settings::ContentSettingConstraints"*)** %29, i64 3
  %31 = load i1 (%"class.content_settings::ProviderInterface"*, %class.ContentSettingsPattern*, %class.ContentSettingsPattern*, i32, %"class.std::__1::unique_ptr.247"*, %"struct.content_settings::ContentSettingConstraints"*)*, i1 (%"class.content_settings::ProviderInterface"*, %class.ContentSettingsPattern*, %class.ContentSettingsPattern*, i32, %"class.std::__1::unique_ptr.247"*, %"struct.content_settings::ContentSettingConstraints"*)** %30, align 8
  %32 = call zeroext i1 %31(%"class.content_settings::ProviderInterface"* %27, %class.ContentSettingsPattern* nonnull dereferenceable(136) %5, %class.ContentSettingsPattern* nonnull dereferenceable(136) %6, i32 %1, %"class.std::__1::unique_ptr.247"* nonnull dereferenceable(8) %4, %"struct.content_settings::ContentSettingConstraints"* dereferenceable(16) bitcast ({ { i64 }, i32 }* @.ref.tmp to %"struct.content_settings::ContentSettingConstraints"*)) #13
  br i1 %32, label %64, label %33

33:                                               ; preds = %23
  %34 = getelementptr inbounds %"class.std::__1::__tree_end_node", %"class.std::__1::__tree_end_node"* %24, i64 1, i32 0
  %35 = load %"class.std::__1::__tree_node_base"*, %"class.std::__1::__tree_node_base"** %34, align 8
  %36 = icmp eq %"class.std::__1::__tree_node_base"* %35, null
  br i1 %36, label %37, label %45

37:                                               ; preds = %33
  %38 = bitcast %"class.std::__1::__tree_end_node"* %24 to %"class.std::__1::__tree_node_base"*
  %39 = getelementptr inbounds %"class.std::__1::__tree_end_node", %"class.std::__1::__tree_end_node"* %24, i64 2
  %40 = bitcast %"class.std::__1::__tree_end_node"* %39 to %"class.std::__1::__tree_end_node"**
  %41 = load %"class.std::__1::__tree_end_node"*, %"class.std::__1::__tree_end_node"** %40, align 8
  %42 = getelementptr inbounds %"class.std::__1::__tree_end_node", %"class.std::__1::__tree_end_node"* %41, i64 0, i32 0
  %43 = load %"class.std::__1::__tree_node_base"*, %"class.std::__1::__tree_node_base"** %42, align 8
  %44 = icmp eq %"class.std::__1::__tree_node_base"* %43, %38
  br i1 %44, label %61, label %52

45:                                               ; preds = %33, %45
  %46 = phi %"class.std::__1::__tree_node_base"* [ %48, %45 ], [ %35, %33 ]
  %47 = getelementptr inbounds %"class.std::__1::__tree_node_base", %"class.std::__1::__tree_node_base"* %46, i64 0, i32 0, i32 0
  %48 = load %"class.std::__1::__tree_node_base"*, %"class.std::__1::__tree_node_base"** %47, align 8
  %49 = icmp eq %"class.std::__1::__tree_node_base"* %48, null
  br i1 %49, label %50, label %45

50:                                               ; preds = %45
  %51 = getelementptr inbounds %"class.std::__1::__tree_node_base", %"class.std::__1::__tree_node_base"* %46, i64 0, i32 0
  br label %61

52:                                               ; preds = %37, %52
  %53 = phi %"class.std::__1::__tree_end_node"** [ %56, %52 ], [ %40, %37 ]
  %54 = bitcast %"class.std::__1::__tree_end_node"** %53 to %"class.std::__1::__tree_node_base"**
  %55 = load %"class.std::__1::__tree_node_base"*, %"class.std::__1::__tree_node_base"** %54, align 8
  %56 = getelementptr inbounds %"class.std::__1::__tree_node_base", %"class.std::__1::__tree_node_base"* %55, i64 0, i32 2
  %57 = load %"class.std::__1::__tree_end_node"*, %"class.std::__1::__tree_end_node"** %56, align 8
  %58 = getelementptr inbounds %"class.std::__1::__tree_end_node", %"class.std::__1::__tree_end_node"* %57, i64 0, i32 0
  %59 = load %"class.std::__1::__tree_node_base"*, %"class.std::__1::__tree_node_base"** %58, align 8
  %60 = icmp eq %"class.std::__1::__tree_node_base"* %59, %55
  br i1 %60, label %61, label %52

61:                                               ; preds = %52, %50, %37
  %62 = phi %"class.std::__1::__tree_end_node"* [ %51, %50 ], [ %41, %37 ], [ %57, %52 ]
  %63 = icmp eq %"class.std::__1::__tree_end_node"* %62, %21
  br i1 %63, label %64, label %23

64:                                               ; preds = %61, %23
  %65 = load %"class.base::Value"*, %"class.base::Value"** %17, align 8
  %66 = bitcast %"class.base::Value"* %65 to i8*
  br label %67

67:                                               ; preds = %64, %11
  %68 = phi i8* [ %66, %64 ], [ %12, %11 ]
  %69 = phi %"class.base::Value"* [ %65, %64 ], [ %13, %11 ]
  store %"class.base::Value"* null, %"class.base::Value"** %17, align 8
  %70 = icmp eq %"class.base::Value"* %69, null
  br i1 %70, label %72, label %71

71:                                               ; preds = %67
  call void @_ZN4base5ValueD1Ev(%"class.base::Value"* nonnull %69) #13
  call void @_ZdlPv(i8* %68) #14
  br label %72

72:                                               ; preds = %71, %67
  call void @llvm.lifetime.end.p0i8(i64 8, i8* nonnull %16)
  %73 = getelementptr inbounds %class.ContentSettingsPattern, %class.ContentSettingsPattern* %6, i64 0, i32 0
  call void @_ZN22ContentSettingsPattern12PatternPartsD1Ev(%"struct.ContentSettingsPattern::PatternParts"* nonnull %73) #13
  call void @llvm.lifetime.end.p0i8(i64 136, i8* nonnull %15) #13
  %74 = getelementptr inbounds %class.ContentSettingsPattern, %class.ContentSettingsPattern* %5, i64 0, i32 0
  call void @_ZN22ContentSettingsPattern12PatternPartsD1Ev(%"struct.ContentSettingsPattern::PatternParts"* nonnull %74) #13
  call void @llvm.lifetime.end.p0i8(i64 136, i8* nonnull %14) #13
  ret void
}

; Function Attrs: nounwind ssp uwtable
define hidden void @_ZN22HostContentSettingsMap28SetWebsiteSettingCustomScopeERK22ContentSettingsPatternS2_19ContentSettingsTypeNSt3__110unique_ptrIN4base5ValueENS4_14default_deleteIS7_EEEERKN16content_settings25ContentSettingConstraintsE(%class.HostContentSettingsMap*, %class.ContentSettingsPattern* dereferenceable(136), %class.ContentSettingsPattern* dereferenceable(136), i32, %"class.base::Value"*, %"struct.content_settings::ContentSettingConstraints"* dereferenceable(16)) local_unnamed_addr #0 align 2 {
  %7 = alloca %"class.std::__1::unique_ptr.247", align 8
  %8 = getelementptr inbounds %"class.std::__1::unique_ptr.247", %"class.std::__1::unique_ptr.247"* %7, i64 0, i32 0, i32 0, i32 0
  store %"class.base::Value"* %4, %"class.base::Value"** %8, align 8
  %9 = getelementptr inbounds %class.HostContentSettingsMap, %class.HostContentSettingsMap* %0, i64 0, i32 5, i32 0, i32 0
  %10 = load %"class.std::__1::__tree_end_node"*, %"class.std::__1::__tree_end_node"** %9, align 8
  %11 = getelementptr inbounds %class.HostContentSettingsMap, %class.HostContentSettingsMap* %0, i64 0, i32 5, i32 0, i32 1, i32 0, i32 0
  %12 = icmp eq %"class.std::__1::__tree_end_node"* %10, %11
  br i1 %12, label %56, label %13

13:                                               ; preds = %6, %51
  %14 = phi %"class.std::__1::__tree_end_node"* [ %52, %51 ], [ %10, %6 ]
  %15 = getelementptr inbounds %"class.std::__1::__tree_end_node", %"class.std::__1::__tree_end_node"* %14, i64 5
  %16 = bitcast %"class.std::__1::__tree_end_node"* %15 to %"class.content_settings::ProviderInterface"**
  %17 = load %"class.content_settings::ProviderInterface"*, %"class.content_settings::ProviderInterface"** %16, align 8
  %18 = bitcast %"class.content_settings::ProviderInterface"* %17 to i1 (%"class.content_settings::ProviderInterface"*, %class.ContentSettingsPattern*, %class.ContentSettingsPattern*, i32, %"class.std::__1::unique_ptr.247"*, %"struct.content_settings::ContentSettingConstraints"*)***
  %19 = load i1 (%"class.content_settings::ProviderInterface"*, %class.ContentSettingsPattern*, %class.ContentSettingsPattern*, i32, %"class.std::__1::unique_ptr.247"*, %"struct.content_settings::ContentSettingConstraints"*)**, i1 (%"class.content_settings::ProviderInterface"*, %class.ContentSettingsPattern*, %class.ContentSettingsPattern*, i32, %"class.std::__1::unique_ptr.247"*, %"struct.content_settings::ContentSettingConstraints"*)*** %18, align 8
  %20 = getelementptr inbounds i1 (%"class.content_settings::ProviderInterface"*, %class.ContentSettingsPattern*, %class.ContentSettingsPattern*, i32, %"class.std::__1::unique_ptr.247"*, %"struct.content_settings::ContentSettingConstraints"*)*, i1 (%"class.content_settings::ProviderInterface"*, %class.ContentSettingsPattern*, %class.ContentSettingsPattern*, i32, %"class.std::__1::unique_ptr.247"*, %"struct.content_settings::ContentSettingConstraints"*)** %19, i64 3
  %21 = load i1 (%"class.content_settings::ProviderInterface"*, %class.ContentSettingsPattern*, %class.ContentSettingsPattern*, i32, %"class.std::__1::unique_ptr.247"*, %"struct.content_settings::ContentSettingConstraints"*)*, i1 (%"class.content_settings::ProviderInterface"*, %class.ContentSettingsPattern*, %class.ContentSettingsPattern*, i32, %"class.std::__1::unique_ptr.247"*, %"struct.content_settings::ContentSettingConstraints"*)** %20, align 8
  %22 = call zeroext i1 %21(%"class.content_settings::ProviderInterface"* %17, %class.ContentSettingsPattern* dereferenceable(136) %1, %class.ContentSettingsPattern* dereferenceable(136) %2, i32 %3, %"class.std::__1::unique_ptr.247"* nonnull dereferenceable(8) %7, %"struct.content_settings::ContentSettingConstraints"* dereferenceable(16) %5) #13
  br i1 %22, label %54, label %23

23:                                               ; preds = %13
  %24 = getelementptr inbounds %"class.std::__1::__tree_end_node", %"class.std::__1::__tree_end_node"* %14, i64 1, i32 0
  %25 = load %"class.std::__1::__tree_node_base"*, %"class.std::__1::__tree_node_base"** %24, align 8
  %26 = icmp eq %"class.std::__1::__tree_node_base"* %25, null
  br i1 %26, label %27, label %35

27:                                               ; preds = %23
  %28 = bitcast %"class.std::__1::__tree_end_node"* %14 to %"class.std::__1::__tree_node_base"*
  %29 = getelementptr inbounds %"class.std::__1::__tree_end_node", %"class.std::__1::__tree_end_node"* %14, i64 2
  %30 = bitcast %"class.std::__1::__tree_end_node"* %29 to %"class.std::__1::__tree_end_node"**
  %31 = load %"class.std::__1::__tree_end_node"*, %"class.std::__1::__tree_end_node"** %30, align 8
  %32 = getelementptr inbounds %"class.std::__1::__tree_end_node", %"class.std::__1::__tree_end_node"* %31, i64 0, i32 0
  %33 = load %"class.std::__1::__tree_node_base"*, %"class.std::__1::__tree_node_base"** %32, align 8
  %34 = icmp eq %"class.std::__1::__tree_node_base"* %33, %28
  br i1 %34, label %51, label %42

35:                                               ; preds = %23, %35
  %36 = phi %"class.std::__1::__tree_node_base"* [ %38, %35 ], [ %25, %23 ]
  %37 = getelementptr inbounds %"class.std::__1::__tree_node_base", %"class.std::__1::__tree_node_base"* %36, i64 0, i32 0, i32 0
  %38 = load %"class.std::__1::__tree_node_base"*, %"class.std::__1::__tree_node_base"** %37, align 8
  %39 = icmp eq %"class.std::__1::__tree_node_base"* %38, null
  br i1 %39, label %40, label %35

40:                                               ; preds = %35
  %41 = getelementptr inbounds %"class.std::__1::__tree_node_base", %"class.std::__1::__tree_node_base"* %36, i64 0, i32 0
  br label %51

42:                                               ; preds = %27, %42
  %43 = phi %"class.std::__1::__tree_end_node"** [ %46, %42 ], [ %30, %27 ]
  %44 = bitcast %"class.std::__1::__tree_end_node"** %43 to %"class.std::__1::__tree_node_base"**
  %45 = load %"class.std::__1::__tree_node_base"*, %"class.std::__1::__tree_node_base"** %44, align 8
  %46 = getelementptr inbounds %"class.std::__1::__tree_node_base", %"class.std::__1::__tree_node_base"* %45, i64 0, i32 2
  %47 = load %"class.std::__1::__tree_end_node"*, %"class.std::__1::__tree_end_node"** %46, align 8
  %48 = getelementptr inbounds %"class.std::__1::__tree_end_node", %"class.std::__1::__tree_end_node"* %47, i64 0, i32 0
  %49 = load %"class.std::__1::__tree_node_base"*, %"class.std::__1::__tree_node_base"** %48, align 8
  %50 = icmp eq %"class.std::__1::__tree_node_base"* %49, %45
  br i1 %50, label %51, label %42

51:                                               ; preds = %42, %27, %40
  %52 = phi %"class.std::__1::__tree_end_node"* [ %41, %40 ], [ %31, %27 ], [ %47, %42 ]
  %53 = icmp eq %"class.std::__1::__tree_end_node"* %52, %11
  br i1 %53, label %54, label %13

54:                                               ; preds = %13, %51
  %55 = load %"class.base::Value"*, %"class.base::Value"** %8, align 8
  br label %56

56:                                               ; preds = %54, %6
  %57 = phi %"class.base::Value"* [ %55, %54 ], [ %4, %6 ]
  store %"class.base::Value"* null, %"class.base::Value"** %8, align 8
  %58 = icmp eq %"class.base::Value"* %57, null
  br i1 %58, label %61, label %59

59:                                               ; preds = %56
  call void @_ZN4base5ValueD1Ev(%"class.base::Value"* nonnull %57) #13
  %60 = bitcast %"class.base::Value"* %57 to i8*
  call void @_ZdlPv(i8* %60) #14
  br label %61

61:                                               ; preds = %56, %59
  ret void
}

; Function Attrs: nounwind ssp uwtable
define hidden void @_ZN22HostContentSettingsMap29SetWebsiteSettingDefaultScopeERK4GURLS2_19ContentSettingsTypeNSt3__110unique_ptrIN4base5ValueENS4_14default_deleteIS7_EEEERKN16content_settings25ContentSettingConstraintsE(%class.HostContentSettingsMap* readonly, %class.GURL* dereferenceable(120), %class.GURL* dereferenceable(120), i32, %"class.base::Value"*, %"struct.content_settings::ContentSettingConstraints"* dereferenceable(16)) local_unnamed_addr #0 align 2 {
  %7 = alloca %"class.std::__1::unique_ptr.247", align 8
  %8 = alloca %"struct.std::__1::pair.266", align 8
  %9 = alloca %class.ContentSettingsPattern, align 8
  %10 = alloca %class.ContentSettingsPattern, align 8
  %11 = ptrtoint %"class.base::Value"* %4 to i64
  %12 = bitcast %"struct.std::__1::pair.266"* %8 to i8*
  call void @llvm.lifetime.start.p0i8(i64 272, i8* nonnull %12) #13
  call void @llvm.memset.p0i8.i64(i8* nonnull align 8 %12, i8 -86, i64 272, i1 false)
  call fastcc void @_ZN12_GLOBAL__N_133GetPatternsForContentSettingsTypeERK4GURLS2_19ContentSettingsType(%"struct.std::__1::pair.266"* nonnull sret %8, %class.GURL* dereferenceable(120) %1, %class.GURL* dereferenceable(120) %2, i32 %3)
  %13 = bitcast %class.ContentSettingsPattern* %9 to i8*
  call void @llvm.lifetime.start.p0i8(i64 136, i8* nonnull %13) #13
  call void @llvm.memset.p0i8.i64(i8* nonnull align 8 %13, i8 -86, i64 136, i1 false)
  %14 = getelementptr inbounds %class.ContentSettingsPattern, %class.ContentSettingsPattern* %9, i64 0, i32 0
  %15 = getelementptr inbounds %"struct.std::__1::pair.266", %"struct.std::__1::pair.266"* %8, i64 0, i32 0, i32 0
  call void @_ZN22ContentSettingsPattern12PatternPartsC1ERKS0_(%"struct.ContentSettingsPattern::PatternParts"* nonnull %14, %"struct.ContentSettingsPattern::PatternParts"* nonnull dereferenceable(128) %15) #13
  %16 = getelementptr inbounds %class.ContentSettingsPattern, %class.ContentSettingsPattern* %9, i64 0, i32 1
  %17 = getelementptr inbounds %"struct.std::__1::pair.266", %"struct.std::__1::pair.266"* %8, i64 0, i32 0, i32 1
  %18 = load i8, i8* %17, align 8, !range !6
  store i8 %18, i8* %16, align 8
  %19 = bitcast %class.ContentSettingsPattern* %10 to i8*
  call void @llvm.lifetime.start.p0i8(i64 136, i8* nonnull %19) #13
  call void @llvm.memset.p0i8.i64(i8* nonnull align 8 %19, i8 -86, i64 136, i1 false)
  %20 = getelementptr inbounds %class.ContentSettingsPattern, %class.ContentSettingsPattern* %10, i64 0, i32 0
  %21 = getelementptr inbounds %"struct.std::__1::pair.266", %"struct.std::__1::pair.266"* %8, i64 0, i32 1, i32 0
  call void @_ZN22ContentSettingsPattern12PatternPartsC1ERKS0_(%"struct.ContentSettingsPattern::PatternParts"* nonnull %20, %"struct.ContentSettingsPattern::PatternParts"* dereferenceable(128) %21) #13
  %22 = getelementptr inbounds %class.ContentSettingsPattern, %class.ContentSettingsPattern* %10, i64 0, i32 1
  %23 = getelementptr inbounds %"struct.std::__1::pair.266", %"struct.std::__1::pair.266"* %8, i64 0, i32 1, i32 1
  %24 = load i8, i8* %23, align 8, !range !6
  store i8 %24, i8* %22, align 8
  %25 = load i8, i8* %16, align 8, !range !6
  %26 = icmp ne i8 %25, 0
  %27 = icmp ne i8 %24, 0
  %28 = and i1 %27, %26
  br i1 %28, label %29, label %85

29:                                               ; preds = %6
  %30 = bitcast %"class.std::__1::unique_ptr.247"* %7 to i8*
  call void @llvm.lifetime.start.p0i8(i64 8, i8* nonnull %30)
  %31 = getelementptr inbounds %"class.std::__1::unique_ptr.247", %"class.std::__1::unique_ptr.247"* %7, i64 0, i32 0, i32 0, i32 0
  store %"class.base::Value"* %4, %"class.base::Value"** %31, align 8
  %32 = getelementptr inbounds %class.HostContentSettingsMap, %class.HostContentSettingsMap* %0, i64 0, i32 5, i32 0, i32 0
  %33 = load %"class.std::__1::__tree_end_node"*, %"class.std::__1::__tree_end_node"** %32, align 8
  %34 = getelementptr inbounds %class.HostContentSettingsMap, %class.HostContentSettingsMap* %0, i64 0, i32 5, i32 0, i32 1, i32 0, i32 0
  %35 = icmp eq %"class.std::__1::__tree_end_node"* %33, %34
  br i1 %35, label %79, label %36

36:                                               ; preds = %29, %74
  %37 = phi %"class.std::__1::__tree_end_node"* [ %75, %74 ], [ %33, %29 ]
  %38 = getelementptr inbounds %"class.std::__1::__tree_end_node", %"class.std::__1::__tree_end_node"* %37, i64 5
  %39 = bitcast %"class.std::__1::__tree_end_node"* %38 to %"class.content_settings::ProviderInterface"**
  %40 = load %"class.content_settings::ProviderInterface"*, %"class.content_settings::ProviderInterface"** %39, align 8
  %41 = bitcast %"class.content_settings::ProviderInterface"* %40 to i1 (%"class.content_settings::ProviderInterface"*, %class.ContentSettingsPattern*, %class.ContentSettingsPattern*, i32, %"class.std::__1::unique_ptr.247"*, %"struct.content_settings::ContentSettingConstraints"*)***
  %42 = load i1 (%"class.content_settings::ProviderInterface"*, %class.ContentSettingsPattern*, %class.ContentSettingsPattern*, i32, %"class.std::__1::unique_ptr.247"*, %"struct.content_settings::ContentSettingConstraints"*)**, i1 (%"class.content_settings::ProviderInterface"*, %class.ContentSettingsPattern*, %class.ContentSettingsPattern*, i32, %"class.std::__1::unique_ptr.247"*, %"struct.content_settings::ContentSettingConstraints"*)*** %41, align 8
  %43 = getelementptr inbounds i1 (%"class.content_settings::ProviderInterface"*, %class.ContentSettingsPattern*, %class.ContentSettingsPattern*, i32, %"class.std::__1::unique_ptr.247"*, %"struct.content_settings::ContentSettingConstraints"*)*, i1 (%"class.content_settings::ProviderInterface"*, %class.ContentSettingsPattern*, %class.ContentSettingsPattern*, i32, %"class.std::__1::unique_ptr.247"*, %"struct.content_settings::ContentSettingConstraints"*)** %42, i64 3
  %44 = load i1 (%"class.content_settings::ProviderInterface"*, %class.ContentSettingsPattern*, %class.ContentSettingsPattern*, i32, %"class.std::__1::unique_ptr.247"*, %"struct.content_settings::ContentSettingConstraints"*)*, i1 (%"class.content_settings::ProviderInterface"*, %class.ContentSettingsPattern*, %class.ContentSettingsPattern*, i32, %"class.std::__1::unique_ptr.247"*, %"struct.content_settings::ContentSettingConstraints"*)** %43, align 8
  %45 = call zeroext i1 %44(%"class.content_settings::ProviderInterface"* %40, %class.ContentSettingsPattern* nonnull dereferenceable(136) %9, %class.ContentSettingsPattern* nonnull dereferenceable(136) %10, i32 %3, %"class.std::__1::unique_ptr.247"* nonnull dereferenceable(8) %7, %"struct.content_settings::ContentSettingConstraints"* dereferenceable(16) %5) #13
  br i1 %45, label %77, label %46

46:                                               ; preds = %36
  %47 = getelementptr inbounds %"class.std::__1::__tree_end_node", %"class.std::__1::__tree_end_node"* %37, i64 1, i32 0
  %48 = load %"class.std::__1::__tree_node_base"*, %"class.std::__1::__tree_node_base"** %47, align 8
  %49 = icmp eq %"class.std::__1::__tree_node_base"* %48, null
  br i1 %49, label %50, label %58

50:                                               ; preds = %46
  %51 = bitcast %"class.std::__1::__tree_end_node"* %37 to %"class.std::__1::__tree_node_base"*
  %52 = getelementptr inbounds %"class.std::__1::__tree_end_node", %"class.std::__1::__tree_end_node"* %37, i64 2
  %53 = bitcast %"class.std::__1::__tree_end_node"* %52 to %"class.std::__1::__tree_end_node"**
  %54 = load %"class.std::__1::__tree_end_node"*, %"class.std::__1::__tree_end_node"** %53, align 8
  %55 = getelementptr inbounds %"class.std::__1::__tree_end_node", %"class.std::__1::__tree_end_node"* %54, i64 0, i32 0
  %56 = load %"class.std::__1::__tree_node_base"*, %"class.std::__1::__tree_node_base"** %55, align 8
  %57 = icmp eq %"class.std::__1::__tree_node_base"* %56, %51
  br i1 %57, label %74, label %65

58:                                               ; preds = %46, %58
  %59 = phi %"class.std::__1::__tree_node_base"* [ %61, %58 ], [ %48, %46 ]
  %60 = getelementptr inbounds %"class.std::__1::__tree_node_base", %"class.std::__1::__tree_node_base"* %59, i64 0, i32 0, i32 0
  %61 = load %"class.std::__1::__tree_node_base"*, %"class.std::__1::__tree_node_base"** %60, align 8
  %62 = icmp eq %"class.std::__1::__tree_node_base"* %61, null
  br i1 %62, label %63, label %58

63:                                               ; preds = %58
  %64 = getelementptr inbounds %"class.std::__1::__tree_node_base", %"class.std::__1::__tree_node_base"* %59, i64 0, i32 0
  br label %74

65:                                               ; preds = %50, %65
  %66 = phi %"class.std::__1::__tree_end_node"** [ %69, %65 ], [ %53, %50 ]
  %67 = bitcast %"class.std::__1::__tree_end_node"** %66 to %"class.std::__1::__tree_node_base"**
  %68 = load %"class.std::__1::__tree_node_base"*, %"class.std::__1::__tree_node_base"** %67, align 8
  %69 = getelementptr inbounds %"class.std::__1::__tree_node_base", %"class.std::__1::__tree_node_base"* %68, i64 0, i32 2
  %70 = load %"class.std::__1::__tree_end_node"*, %"class.std::__1::__tree_end_node"** %69, align 8
  %71 = getelementptr inbounds %"class.std::__1::__tree_end_node", %"class.std::__1::__tree_end_node"* %70, i64 0, i32 0
  %72 = load %"class.std::__1::__tree_node_base"*, %"class.std::__1::__tree_node_base"** %71, align 8
  %73 = icmp eq %"class.std::__1::__tree_node_base"* %72, %68
  br i1 %73, label %74, label %65

74:                                               ; preds = %65, %63, %50
  %75 = phi %"class.std::__1::__tree_end_node"* [ %64, %63 ], [ %54, %50 ], [ %70, %65 ]
  %76 = icmp eq %"class.std::__1::__tree_end_node"* %75, %34
  br i1 %76, label %77, label %36

77:                                               ; preds = %74, %36
  %78 = load %"class.base::Value"*, %"class.base::Value"** %31, align 8
  br label %79

79:                                               ; preds = %77, %29
  %80 = phi %"class.base::Value"* [ %78, %77 ], [ %4, %29 ]
  store %"class.base::Value"* null, %"class.base::Value"** %31, align 8
  %81 = icmp eq %"class.base::Value"* %80, null
  br i1 %81, label %84, label %82

82:                                               ; preds = %79
  call void @_ZN4base5ValueD1Ev(%"class.base::Value"* nonnull %80) #13
  %83 = bitcast %"class.base::Value"* %80 to i8*
  call void @_ZdlPv(i8* %83) #14
  br label %84

84:                                               ; preds = %79, %82
  call void @llvm.lifetime.end.p0i8(i64 8, i8* nonnull %30)
  br label %85

85:                                               ; preds = %6, %84
  %86 = phi i64 [ 0, %84 ], [ %11, %6 ]
  call void @_ZN22ContentSettingsPattern12PatternPartsD1Ev(%"struct.ContentSettingsPattern::PatternParts"* nonnull %20) #13
  call void @llvm.lifetime.end.p0i8(i64 136, i8* nonnull %19) #13
  call void @_ZN22ContentSettingsPattern12PatternPartsD1Ev(%"struct.ContentSettingsPattern::PatternParts"* nonnull %14) #13
  call void @llvm.lifetime.end.p0i8(i64 136, i8* nonnull %13) #13
  call void @_ZN22ContentSettingsPattern12PatternPartsD1Ev(%"struct.ContentSettingsPattern::PatternParts"* %21) #13
  call void @_ZN22ContentSettingsPattern12PatternPartsD1Ev(%"struct.ContentSettingsPattern::PatternParts"* nonnull %15) #13
  call void @llvm.lifetime.end.p0i8(i64 272, i8* nonnull %12) #13
  %87 = icmp eq i64 %86, 0
  br i1 %87, label %91, label %88

88:                                               ; preds = %85
  %89 = inttoptr i64 %86 to %"class.base::Value"*
  call void @_ZN4base5ValueD1Ev(%"class.base::Value"* nonnull %89) #13
  %90 = inttoptr i64 %86 to i8*
  call void @_ZdlPv(i8* %90) #14
  br label %91

91:                                               ; preds = %85, %88
  ret void
}

; Function Attrs: nounwind ssp uwtable
define internal fastcc void @_ZN12_GLOBAL__N_133GetPatternsForContentSettingsTypeERK4GURLS2_19ContentSettingsType(%"struct.std::__1::pair.266"* noalias sret, %class.GURL* dereferenceable(120), %class.GURL* dereferenceable(120), i32) unnamed_addr #0 {
  %5 = alloca %class.ContentSettingsPattern, align 8
  %6 = alloca %class.ContentSettingsPattern, align 8
  %7 = alloca %class.ContentSettingsPattern, align 8
  %8 = alloca %class.ContentSettingsPattern, align 8
  %9 = alloca %class.ContentSettingsPattern, align 8
  %10 = alloca %class.ContentSettingsPattern, align 8
  %11 = tail call %"class.content_settings::WebsiteSettingsRegistry"* @_ZN16content_settings23WebsiteSettingsRegistry11GetInstanceEv() #13
  %12 = tail call %"class.content_settings::WebsiteSettingsInfo"* @_ZNK16content_settings23WebsiteSettingsRegistry3GetE19ContentSettingsType(%"class.content_settings::WebsiteSettingsRegistry"* %11, i32 %3) #13
  %13 = bitcast %"struct.std::__1::pair.266"* %0 to i8*
  tail call void @llvm.memset.p0i8.i64(i8* align 8 %13, i8 -86, i64 272, i1 false)
  %14 = getelementptr inbounds %"class.content_settings::WebsiteSettingsInfo", %"class.content_settings::WebsiteSettingsInfo"* %12, i64 0, i32 7
  %15 = load i32, i32* %14, align 8
  tail call void @llvm.memset.p0i8.i64(i8* align 8 %13, i8 -86, i64 272, i1 false) #13, !alias.scope !22
  %16 = getelementptr inbounds %"struct.std::__1::pair.266", %"struct.std::__1::pair.266"* %0, i64 0, i32 0
  tail call void @_ZN22ContentSettingsPatternC1Ev(%class.ContentSettingsPattern* %16) #13
  %17 = getelementptr inbounds %"struct.std::__1::pair.266", %"struct.std::__1::pair.266"* %0, i64 0, i32 1
  tail call void @_ZN22ContentSettingsPatternC1Ev(%class.ContentSettingsPattern* %17) #13
  switch i32 %15, label %61 [
    i32 0, label %18
    i32 1, label %30
    i32 2, label %42
    i32 3, label %42
  ]

18:                                               ; preds = %4
  %19 = bitcast %class.ContentSettingsPattern* %5 to i8*
  call void @llvm.lifetime.start.p0i8(i64 136, i8* nonnull %19) #13, !noalias !22
  call void @_ZN22ContentSettingsPattern7FromURLERK4GURL(%class.ContentSettingsPattern* nonnull sret %5, %class.GURL* dereferenceable(120) %1) #13
  %20 = getelementptr inbounds %"struct.std::__1::pair.266", %"struct.std::__1::pair.266"* %0, i64 0, i32 0, i32 0
  %21 = getelementptr inbounds %class.ContentSettingsPattern, %class.ContentSettingsPattern* %5, i64 0, i32 0
  %22 = call dereferenceable(128) %"struct.ContentSettingsPattern::PatternParts"* @_ZN22ContentSettingsPattern12PatternPartsaSEOS0_(%"struct.ContentSettingsPattern::PatternParts"* %20, %"struct.ContentSettingsPattern::PatternParts"* nonnull dereferenceable(128) %21) #13
  %23 = getelementptr inbounds %class.ContentSettingsPattern, %class.ContentSettingsPattern* %5, i64 0, i32 1
  %24 = load i8, i8* %23, align 8, !range !6, !noalias !22
  %25 = getelementptr inbounds %"struct.std::__1::pair.266", %"struct.std::__1::pair.266"* %0, i64 0, i32 0, i32 1
  store i8 %24, i8* %25, align 8, !alias.scope !22
  call void @_ZN22ContentSettingsPattern12PatternPartsD1Ev(%"struct.ContentSettingsPattern::PatternParts"* nonnull %21) #13
  call void @llvm.lifetime.end.p0i8(i64 136, i8* nonnull %19) #13, !noalias !22
  %26 = bitcast %class.ContentSettingsPattern* %6 to i8*
  call void @llvm.lifetime.start.p0i8(i64 136, i8* nonnull %26) #13, !noalias !22
  call void @_ZN22ContentSettingsPattern8WildcardEv(%class.ContentSettingsPattern* nonnull sret %6) #13
  %27 = getelementptr inbounds %class.ContentSettingsPattern, %class.ContentSettingsPattern* %17, i64 0, i32 0
  %28 = getelementptr inbounds %class.ContentSettingsPattern, %class.ContentSettingsPattern* %6, i64 0, i32 0
  %29 = call dereferenceable(128) %"struct.ContentSettingsPattern::PatternParts"* @_ZN22ContentSettingsPattern12PatternPartsaSEOS0_(%"struct.ContentSettingsPattern::PatternParts"* %27, %"struct.ContentSettingsPattern::PatternParts"* nonnull dereferenceable(128) %28) #13
  br label %54

30:                                               ; preds = %4
  %31 = bitcast %class.ContentSettingsPattern* %7 to i8*
  call void @llvm.lifetime.start.p0i8(i64 136, i8* nonnull %31) #13, !noalias !22
  call void @_ZN22ContentSettingsPattern17FromURLNoWildcardERK4GURL(%class.ContentSettingsPattern* nonnull sret %7, %class.GURL* dereferenceable(120) %1) #13
  %32 = getelementptr inbounds %"struct.std::__1::pair.266", %"struct.std::__1::pair.266"* %0, i64 0, i32 0, i32 0
  %33 = getelementptr inbounds %class.ContentSettingsPattern, %class.ContentSettingsPattern* %7, i64 0, i32 0
  %34 = call dereferenceable(128) %"struct.ContentSettingsPattern::PatternParts"* @_ZN22ContentSettingsPattern12PatternPartsaSEOS0_(%"struct.ContentSettingsPattern::PatternParts"* %32, %"struct.ContentSettingsPattern::PatternParts"* nonnull dereferenceable(128) %33) #13
  %35 = getelementptr inbounds %class.ContentSettingsPattern, %class.ContentSettingsPattern* %7, i64 0, i32 1
  %36 = load i8, i8* %35, align 8, !range !6, !noalias !22
  %37 = getelementptr inbounds %"struct.std::__1::pair.266", %"struct.std::__1::pair.266"* %0, i64 0, i32 0, i32 1
  store i8 %36, i8* %37, align 8, !alias.scope !22
  call void @_ZN22ContentSettingsPattern12PatternPartsD1Ev(%"struct.ContentSettingsPattern::PatternParts"* nonnull %33) #13
  call void @llvm.lifetime.end.p0i8(i64 136, i8* nonnull %31) #13, !noalias !22
  %38 = bitcast %class.ContentSettingsPattern* %8 to i8*
  call void @llvm.lifetime.start.p0i8(i64 136, i8* nonnull %38) #13, !noalias !22
  call void @_ZN22ContentSettingsPattern17FromURLNoWildcardERK4GURL(%class.ContentSettingsPattern* nonnull sret %8, %class.GURL* dereferenceable(120) %2) #13
  %39 = getelementptr inbounds %class.ContentSettingsPattern, %class.ContentSettingsPattern* %17, i64 0, i32 0
