; ModuleID = '../../net/third_party/quiche/src/http2/decoder/http2_structure_decoder.cc'
source_filename = "../../net/third_party/quiche/src/http2/decoder/http2_structure_decoder.cc"
target datalayout = "e-m:e-i64:64-f80:128-n8:16:32:64-S128"
target triple = "x86_64-unknown-linux-gnu"

%"class.std::__1::locale::id" = type <{ %"struct.std::__1::once_flag", i32, [4 x i8] }>
%"struct.std::__1::once_flag" = type { i64 }
%"class.http2::Http2StructureDecoder" = type <{ i32, [9 x i8], [3 x i8] }>
%"class.http2::DecodeBuffer" = type { i8*, i8*, i8*, %"class.http2::DecodeBufferSubset"* }
%"class.http2::DecodeBufferSubset" = type { %"class.http2::DecodeBuffer", %"class.http2::DecodeBuffer"* }
%"class.logging::LogMessage" = type { i32 (...)**, i32, %"class.std::__1::basic_ostringstream", i64, i8*, i32, %"class.base::ScopedClearLastErrorBase" }
%"class.std::__1::basic_ostringstream" = type { %"class.std::__1::basic_ostream.base", %"class.std::__1::basic_stringbuf", %"class.std::__1::basic_ios.base" }
%"class.std::__1::basic_ostream.base" = type { i32 (...)** }
%"class.std::__1::basic_stringbuf" = type <{ %"class.std::__1::basic_streambuf", %"class.std::__1::basic_string", i8*, i32, [4 x i8] }>
%"class.std::__1::basic_streambuf" = type { i32 (...)**, %"class.std::__1::locale", i8*, i8*, i8*, i8*, i8*, i8* }
%"class.std::__1::locale" = type { %"class.std::__1::locale::__imp"* }
%"class.std::__1::locale::__imp" = type opaque
%"class.std::__1::basic_string" = type { %"class.std::__1::__compressed_pair" }
%"class.std::__1::__compressed_pair" = type { %"struct.std::__1::__compressed_pair_elem" }
%"struct.std::__1::__compressed_pair_elem" = type { %"struct.std::__1::basic_string<char, std::__1::char_traits<char>, std::__1::allocator<char> >::__rep" }
%"struct.std::__1::basic_string<char, std::__1::char_traits<char>, std::__1::allocator<char> >::__rep" = type { %union.anon }
%union.anon = type { %"struct.std::__1::basic_string<char, std::__1::char_traits<char>, std::__1::allocator<char> >::__long" }
%"struct.std::__1::basic_string<char, std::__1::char_traits<char>, std::__1::allocator<char> >::__long" = type { i8*, i64, i64 }
%"class.std::__1::basic_ios.base" = type <{ %"class.std::__1::ios_base", %"class.std::__1::basic_ostream"*, i32 }>
%"class.std::__1::ios_base" = type { i32 (...)**, i32, i64, i64, i32, i32, i8*, i8*, void (i32, %"class.std::__1::ios_base"*, i32)**, i32*, i64, i64, i64*, i64, i64, i8**, i64, i64 }
%"class.std::__1::basic_ostream" = type { i32 (...)**, %"class.std::__1::basic_ios.base" }
%"class.base::ScopedClearLastErrorBase" = type { i32 }
%"class.std::__1::basic_ostream<char, std::__1::char_traits<char> >::sentry" = type { i8, %"class.std::__1::basic_ostream"* }
%"class.std::__1::locale::facet" = type { %"class.std::__1::__shared_count" }
%"class.std::__1::__shared_count" = type { i32 (...)**, i64 }
%"class.std::__1::ctype" = type <{ %"class.std::__1::locale::facet", i16*, i8, [7 x i8] }>
%"struct.std::__1::basic_string<char, std::__1::char_traits<char>, std::__1::allocator<char> >::__short" = type { [23 x i8], %struct.anon }
%struct.anon = type { i8 }

$_ZNSt3__124__put_character_sequenceIcNS_11char_traitsIcEEEERNS_13basic_ostreamIT_T0_EES7_PKS4_m = comdat any

$_ZNSt3__116__pad_and_outputIcNS_11char_traitsIcEEEENS_19ostreambuf_iteratorIT_T0_EES6_PKS4_S8_S8_RNS_8ios_baseES4_ = comdat any

@.str = private unnamed_addr constant [74 x i8] c"../../net/third_party/quiche/src/http2/decoder/http2_structure_decoder.cc\00", align 1
@.str.1 = private unnamed_addr constant [35 x i8] c"target_size too large for buffer: \00", align 1
@.str.2 = private unnamed_addr constant [37 x i8] c"Already filled buffer_! target_size=\00", align 1
@.str.3 = private unnamed_addr constant [13 x i8] c"    offset_=\00", align 1
@_ZNSt3__15ctypeIcE2idE = external global %"class.std::__1::locale::id", align 8

; Function Attrs: nounwind ssp uwtable
define hidden i32 @_ZN5http221Http2StructureDecoder15IncompleteStartEPNS_12DecodeBufferEj(%"class.http2::Http2StructureDecoder"* nocapture, %"class.http2::DecodeBuffer"* nocapture, i32) local_unnamed_addr #0 align 2 {
  %4 = alloca %"class.logging::LogMessage", align 8
  %5 = icmp ugt i32 %2, 9
  br i1 %5, label %6, label %14

6:                                                ; preds = %3
  %7 = tail call zeroext i1 @_ZN7logging22ShouldCreateLogMessageEi(i32 2) #6
  br i1 %7, label %8, label %31

8:                                                ; preds = %6
  %9 = bitcast %"class.logging::LogMessage"* %4 to i8*
  call void @llvm.lifetime.start.p0i8(i64 304, i8* nonnull %9) #6
  call void @_ZN7logging10LogMessageC1EPKcii(%"class.logging::LogMessage"* nonnull %4, i8* getelementptr inbounds ([74 x i8], [74 x i8]* @.str, i64 0, i64 0), i32 24, i32 2) #6
  %10 = getelementptr inbounds %"class.logging::LogMessage", %"class.logging::LogMessage"* %4, i64 0, i32 2
  %11 = bitcast %"class.std::__1::basic_ostringstream"* %10 to %"class.std::__1::basic_ostream"*
  %12 = call dereferenceable(160) %"class.std::__1::basic_ostream"* @_ZNSt3__124__put_character_sequenceIcNS_11char_traitsIcEEEERNS_13basic_ostreamIT_T0_EES7_PKS4_m(%"class.std::__1::basic_ostream"* dereferenceable(160) %11, i8* getelementptr inbounds ([35 x i8], [35 x i8]* @.str.1, i64 0, i64 0), i64 34) #6
  %13 = call dereferenceable(160) %"class.std::__1::basic_ostream"* @_ZNSt3__113basic_ostreamIcNS_11char_traitsIcEEElsEj(%"class.std::__1::basic_ostream"* %12, i32 %2) #6
  call void @_ZN7logging10LogMessageD1Ev(%"class.logging::LogMessage"* nonnull %4) #6
  call void @llvm.lifetime.end.p0i8(i64 304, i8* nonnull %9) #6
  br label %31

14:                                               ; preds = %3
  %15 = zext i32 %2 to i64
  %16 = getelementptr inbounds %"class.http2::DecodeBuffer", %"class.http2::DecodeBuffer"* %1, i64 0, i32 2
  %17 = bitcast i8** %16 to i64*
  %18 = load i64, i64* %17, align 8
  %19 = getelementptr inbounds %"class.http2::DecodeBuffer", %"class.http2::DecodeBuffer"* %1, i64 0, i32 1
  %20 = bitcast i8** %19 to i64*
  %21 = load i64, i64* %20, align 8
  %22 = sub i64 %18, %21
  %23 = icmp ult i64 %22, %15
  %24 = select i1 %23, i64 %22, i64 %15
  %25 = trunc i64 %24 to i32
  %26 = getelementptr inbounds %"class.http2::Http2StructureDecoder", %"class.http2::Http2StructureDecoder"* %0, i64 0, i32 1, i64 0
  %27 = inttoptr i64 %21 to i8*
  tail call void @llvm.memcpy.p0i8.p0i8.i64(i8* align 4 %26, i8* align 1 %27, i64 %24, i1 false)
  %28 = getelementptr inbounds %"class.http2::Http2StructureDecoder", %"class.http2::Http2StructureDecoder"* %0, i64 0, i32 0
  store i32 %25, i32* %28, align 4
  %29 = load i8*, i8** %19, align 8
  %30 = getelementptr inbounds i8, i8* %29, i64 %24
  store i8* %30, i8** %19, align 8
  br label %31

31:                                               ; preds = %8, %6, %14
  %32 = phi i32 [ %25, %14 ], [ 0, %6 ], [ 0, %8 ]
  ret i32 %32
}

declare zeroext i1 @_ZN7logging22ShouldCreateLogMessageEi(i32) local_unnamed_addr #1

; Function Attrs: argmemonly nounwind
declare void @llvm.lifetime.start.p0i8(i64 immarg, i8* nocapture) #2

declare void @_ZN7logging10LogMessageC1EPKcii(%"class.logging::LogMessage"*, i8*, i32, i32) unnamed_addr #1

declare dereferenceable(160) %"class.std::__1::basic_ostream"* @_ZNSt3__113basic_ostreamIcNS_11char_traitsIcEEElsEj(%"class.std::__1::basic_ostream"*, i32) local_unnamed_addr #1

; Function Attrs: nounwind
declare void @_ZN7logging10LogMessageD1Ev(%"class.logging::LogMessage"*) unnamed_addr #3

; Function Attrs: argmemonly nounwind
declare void @llvm.lifetime.end.p0i8(i64 immarg, i8* nocapture) #2

; Function Attrs: argmemonly nounwind
declare void @llvm.memcpy.p0i8.p0i8.i64(i8* nocapture writeonly, i8* nocapture readonly, i64, i1 immarg) #2

; Function Attrs: nounwind ssp uwtable
define hidden i32 @_ZN5http221Http2StructureDecoder15IncompleteStartEPNS_12DecodeBufferEPjj(%"class.http2::Http2StructureDecoder"* nocapture, %"class.http2::DecodeBuffer"* nocapture, i32* nocapture, i32) local_unnamed_addr #0 align 2 {
  %5 = load i32, i32* %2, align 4
  %6 = icmp ult i32 %5, %3
  %7 = select i1 %6, i32 %5, i32 %3
  %8 = tail call i32 @_ZN5http221Http2StructureDecoder15IncompleteStartEPNS_12DecodeBufferEj(%"class.http2::Http2StructureDecoder"* %0, %"class.http2::DecodeBuffer"* %1, i32 %7)
  %9 = load i32, i32* %2, align 4
  %10 = sub i32 %9, %8
  store i32 %10, i32* %2, align 4
  %11 = icmp eq i32 %10, 0
  br i1 %11, label %18, label %12

12:                                               ; preds = %4
  %13 = getelementptr inbounds %"class.http2::DecodeBuffer", %"class.http2::DecodeBuffer"* %1, i64 0, i32 1
  %14 = load i8*, i8** %13, align 8
  %15 = getelementptr inbounds %"class.http2::DecodeBuffer", %"class.http2::DecodeBuffer"* %1, i64 0, i32 2
  %16 = load i8*, i8** %15, align 8
  %17 = icmp ult i8* %14, %16
  br i1 %17, label %18, label %19

18:                                               ; preds = %12, %4
  br label %19

19:                                               ; preds = %12, %18
  %20 = phi i32 [ 2, %18 ], [ 1, %12 ]
  ret i32 %20
}

; Function Attrs: nounwind ssp uwtable
define hidden zeroext i1 @_ZN5http221Http2StructureDecoder19ResumeFillingBufferEPNS_12DecodeBufferEj(%"class.http2::Http2StructureDecoder"* nocapture, %"class.http2::DecodeBuffer"* nocapture, i32) local_unnamed_addr #0 align 2 {
  %4 = alloca %"class.logging::LogMessage", align 8
  %5 = getelementptr inbounds %"class.http2::Http2StructureDecoder", %"class.http2::Http2StructureDecoder"* %0, i64 0, i32 0
  %6 = load i32, i32* %5, align 4
  %7 = icmp ugt i32 %6, %2
  br i1 %7, label %8, label %19

8:                                                ; preds = %3
  %9 = tail call zeroext i1 @_ZN7logging22ShouldCreateLogMessageEi(i32 2) #6
  br i1 %9, label %10, label %40

10:                                               ; preds = %8
  %11 = bitcast %"class.logging::LogMessage"* %4 to i8*
  call void @llvm.lifetime.start.p0i8(i64 304, i8* nonnull %11) #6
  call void @_ZN7logging10LogMessageC1EPKcii(%"class.logging::LogMessage"* nonnull %4, i8* getelementptr inbounds ([74 x i8], [74 x i8]* @.str, i64 0, i64 0), i32 57, i32 2) #6
  %12 = getelementptr inbounds %"class.logging::LogMessage", %"class.logging::LogMessage"* %4, i64 0, i32 2
  %13 = bitcast %"class.std::__1::basic_ostringstream"* %12 to %"class.std::__1::basic_ostream"*
  %14 = call dereferenceable(160) %"class.std::__1::basic_ostream"* @_ZNSt3__124__put_character_sequenceIcNS_11char_traitsIcEEEERNS_13basic_ostreamIT_T0_EES7_PKS4_m(%"class.std::__1::basic_ostream"* dereferenceable(160) %13, i8* getelementptr inbounds ([37 x i8], [37 x i8]* @.str.2, i64 0, i64 0), i64 36) #6
  %15 = call dereferenceable(160) %"class.std::__1::basic_ostream"* @_ZNSt3__113basic_ostreamIcNS_11char_traitsIcEEElsEj(%"class.std::__1::basic_ostream"* %14, i32 %2) #6
  %16 = call dereferenceable(160) %"class.std::__1::basic_ostream"* @_ZNSt3__124__put_character_sequenceIcNS_11char_traitsIcEEEERNS_13basic_ostreamIT_T0_EES7_PKS4_m(%"class.std::__1::basic_ostream"* dereferenceable(160) %15, i8* getelementptr inbounds ([13 x i8], [13 x i8]* @.str.3, i64 0, i64 0), i64 12) #6
  %17 = load i32, i32* %5, align 4
  %18 = call dereferenceable(160) %"class.std::__1::basic_ostream"* @_ZNSt3__113basic_ostreamIcNS_11char_traitsIcEEElsEj(%"class.std::__1::basic_ostream"* %16, i32 %17) #6
  call void @_ZN7logging10LogMessageD1Ev(%"class.logging::LogMessage"* nonnull %4) #6
  call void @llvm.lifetime.end.p0i8(i64 304, i8* nonnull %11) #6
  br label %40

19:                                               ; preds = %3
  %20 = sub i32 %2, %6
  %21 = zext i32 %20 to i64
  %22 = getelementptr inbounds %"class.http2::DecodeBuffer", %"class.http2::DecodeBuffer"* %1, i64 0, i32 2
  %23 = bitcast i8** %22 to i64*
  %24 = load i64, i64* %23, align 8
  %25 = getelementptr inbounds %"class.http2::DecodeBuffer", %"class.http2::DecodeBuffer"* %1, i64 0, i32 1
  %26 = bitcast i8** %25 to i64*
  %27 = load i64, i64* %26, align 8
  %28 = sub i64 %24, %27
  %29 = icmp ult i64 %28, %21
  %30 = select i1 %29, i64 %28, i64 %21
  %31 = trunc i64 %30 to i32
  %32 = zext i32 %6 to i64
  %33 = getelementptr inbounds %"class.http2::Http2StructureDecoder", %"class.http2::Http2StructureDecoder"* %0, i64 0, i32 1, i64 %32
  %34 = inttoptr i64 %27 to i8*
  tail call void @llvm.memcpy.p0i8.p0i8.i64(i8* align 1 %33, i8* align 1 %34, i64 %30, i1 false)
  %35 = load i8*, i8** %25, align 8
  %36 = getelementptr inbounds i8, i8* %35, i64 %30
  store i8* %36, i8** %25, align 8
  %37 = load i32, i32* %5, align 4
  %38 = add i32 %37, %31
  store i32 %38, i32* %5, align 4
  %39 = icmp eq i32 %20, %31
  br label %40

40:                                               ; preds = %10, %8, %19
  %41 = phi i1 [ %39, %19 ], [ false, %8 ], [ false, %10 ]
  ret i1 %41
}

; Function Attrs: nounwind ssp uwtable
define hidden zeroext i1 @_ZN5http221Http2StructureDecoder19ResumeFillingBufferEPNS_12DecodeBufferEPjj(%"class.http2::Http2StructureDecoder"* nocapture, %"class.http2::DecodeBuffer"* nocapture, i32* nocapture, i32) local_unnamed_addr #0 align 2 {
  %5 = alloca %"class.logging::LogMessage", align 8
  %6 = getelementptr inbounds %"class.http2::Http2StructureDecoder", %"class.http2::Http2StructureDecoder"* %0, i64 0, i32 0
  %7 = load i32, i32* %6, align 4
  %8 = icmp ugt i32 %7, %3
  br i1 %8, label %9, label %20

9:                                                ; preds = %4
  %10 = tail call zeroext i1 @_ZN7logging22ShouldCreateLogMessageEi(i32 2) #6
  br i1 %10, label %11, label %46

11:                                               ; preds = %9
  %12 = bitcast %"class.logging::LogMessage"* %5 to i8*
  call void @llvm.lifetime.start.p0i8(i64 304, i8* nonnull %12) #6
  call void @_ZN7logging10LogMessageC1EPKcii(%"class.logging::LogMessage"* nonnull %5, i8* getelementptr inbounds ([74 x i8], [74 x i8]* @.str, i64 0, i64 0), i32 79, i32 2) #6
  %13 = getelementptr inbounds %"class.logging::LogMessage", %"class.logging::LogMessage"* %5, i64 0, i32 2
  %14 = bitcast %"class.std::__1::basic_ostringstream"* %13 to %"class.std::__1::basic_ostream"*
  %15 = call dereferenceable(160) %"class.std::__1::basic_ostream"* @_ZNSt3__124__put_character_sequenceIcNS_11char_traitsIcEEEERNS_13basic_ostreamIT_T0_EES7_PKS4_m(%"class.std::__1::basic_ostream"* dereferenceable(160) %14, i8* getelementptr inbounds ([37 x i8], [37 x i8]* @.str.2, i64 0, i64 0), i64 36) #6
  %16 = call dereferenceable(160) %"class.std::__1::basic_ostream"* @_ZNSt3__113basic_ostreamIcNS_11char_traitsIcEEElsEj(%"class.std::__1::basic_ostream"* %15, i32 %3) #6
  %17 = call dereferenceable(160) %"class.std::__1::basic_ostream"* @_ZNSt3__124__put_character_sequenceIcNS_11char_traitsIcEEEERNS_13basic_ostreamIT_T0_EES7_PKS4_m(%"class.std::__1::basic_ostream"* dereferenceable(160) %16, i8* getelementptr inbounds ([13 x i8], [13 x i8]* @.str.3, i64 0, i64 0), i64 12) #6
  %18 = load i32, i32* %6, align 4
  %19 = call dereferenceable(160) %"class.std::__1::basic_ostream"* @_ZNSt3__113basic_ostreamIcNS_11char_traitsIcEEElsEj(%"class.std::__1::basic_ostream"* %17, i32 %18) #6
  call void @_ZN7logging10LogMessageD1Ev(%"class.logging::LogMessage"* nonnull %5) #6
  call void @llvm.lifetime.end.p0i8(i64 304, i8* nonnull %12) #6
  br label %46

20:                                               ; preds = %4
  %21 = sub i32 %3, %7
  %22 = load i32, i32* %2, align 4
  %23 = icmp ult i32 %22, %21
  %24 = select i1 %23, i32 %22, i32 %21
  %25 = zext i32 %24 to i64
  %26 = getelementptr inbounds %"class.http2::DecodeBuffer", %"class.http2::DecodeBuffer"* %1, i64 0, i32 2
  %27 = bitcast i8** %26 to i64*
  %28 = load i64, i64* %27, align 8
  %29 = getelementptr inbounds %"class.http2::DecodeBuffer", %"class.http2::DecodeBuffer"* %1, i64 0, i32 1
  %30 = bitcast i8** %29 to i64*
  %31 = load i64, i64* %30, align 8
  %32 = sub i64 %28, %31
  %33 = icmp ult i64 %32, %25
  %34 = select i1 %33, i64 %32, i64 %25
  %35 = trunc i64 %34 to i32
  %36 = zext i32 %7 to i64
  %37 = getelementptr inbounds %"class.http2::Http2StructureDecoder", %"class.http2::Http2StructureDecoder"* %0, i64 0, i32 1, i64 %36
  %38 = inttoptr i64 %31 to i8*
  tail call void @llvm.memcpy.p0i8.p0i8.i64(i8* align 1 %37, i8* align 1 %38, i64 %34, i1 false)
  %39 = load i8*, i8** %29, align 8
  %40 = getelementptr inbounds i8, i8* %39, i64 %34
  store i8* %40, i8** %29, align 8
  %41 = load i32, i32* %6, align 4
  %42 = add i32 %41, %35
  store i32 %42, i32* %6, align 4
  %43 = load i32, i32* %2, align 4
  %44 = sub i32 %43, %35
  store i32 %44, i32* %2, align 4
  %45 = icmp eq i32 %21, %35
  br label %46

46:                                               ; preds = %11, %9, %20
  %47 = phi i1 [ %45, %20 ], [ false, %9 ], [ false, %11 ]
  ret i1 %47
}

; Function Attrs: nounwind ssp uwtable
define linkonce_odr hidden dereferenceable(160) %"class.std::__1::basic_ostream"* @_ZNSt3__124__put_character_sequenceIcNS_11char_traitsIcEEEERNS_13basic_ostreamIT_T0_EES7_PKS4_m(%"class.std::__1::basic_ostream"* dereferenceable(160), i8*, i64) local_unnamed_addr #0 comdat {
  %4 = alloca %"class.std::__1::locale", align 8
  %5 = alloca %"class.std::__1::basic_ostream<char, std::__1::char_traits<char> >::sentry", align 8
  %6 = getelementptr inbounds %"class.std::__1::basic_ostream<char, std::__1::char_traits<char> >::sentry", %"class.std::__1::basic_ostream<char, std::__1::char_traits<char> >::sentry"* %5, i64 0, i32 0
  call void @llvm.lifetime.start.p0i8(i64 16, i8* nonnull %6) #6
  call void @llvm.memset.p0i8.i64(i8* nonnull align 8 %6, i8 -86, i64 16, i1 false)
  call void @_ZNSt3__113basic_ostreamIcNS_11char_traitsIcEEE6sentryC1ERS3_(%"class.std::__1::basic_ostream<char, std::__1::char_traits<char> >::sentry"* nonnull %5, %"class.std::__1::basic_ostream"* dereferenceable(160) %0) #6
  %7 = load i8, i8* %6, align 8, !range !2
  %8 = icmp eq i8 %7, 0
  br i1 %8, label %58, label %9

9:                                                ; preds = %3
  %10 = bitcast %"class.std::__1::basic_ostream"* %0 to i8**
  %11 = load i8*, i8** %10, align 8
  %12 = getelementptr i8, i8* %11, i64 -24
  %13 = bitcast i8* %12 to i64*
  %14 = load i64, i64* %13, align 8
  %15 = bitcast %"class.std::__1::basic_ostream"* %0 to i8*
  %16 = getelementptr inbounds i8, i8* %15, i64 %14
  %17 = getelementptr inbounds i8, i8* %16, i64 40
  %18 = bitcast i8* %17 to %"class.std::__1::basic_streambuf"**
  %19 = load %"class.std::__1::basic_streambuf"*, %"class.std::__1::basic_streambuf"** %18, align 8
  %20 = bitcast i8* %16 to %"class.std::__1::ios_base"*
  %21 = getelementptr inbounds i8, i8* %16, i64 8
  %22 = bitcast i8* %21 to i32*
  %23 = load i32, i32* %22, align 8
  %24 = and i32 %23, 176
  %25 = icmp eq i32 %24, 32
  %26 = getelementptr inbounds i8, i8* %1, i64 %2
  %27 = select i1 %25, i8* %26, i8* %1
  %28 = getelementptr inbounds i8, i8* %16, i64 144
  %29 = bitcast i8* %28 to i32*
  %30 = load i32, i32* %29, align 8
  %31 = icmp eq i32 %30, -1
  br i1 %31, label %32, label %42

32:                                               ; preds = %9
  %33 = bitcast %"class.std::__1::locale"* %4 to i8*
  call void @llvm.lifetime.start.p0i8(i64 8, i8* nonnull %33) #6
  call void @_ZNKSt3__18ios_base6getlocEv(%"class.std::__1::locale"* nonnull sret %4, %"class.std::__1::ios_base"* %20) #6
  %34 = call %"class.std::__1::locale::facet"* @_ZNKSt3__16locale9use_facetERNS0_2idE(%"class.std::__1::locale"* nonnull %4, %"class.std::__1::locale::id"* nonnull dereferenceable(16) @_ZNSt3__15ctypeIcE2idE) #6
  %35 = bitcast %"class.std::__1::locale::facet"* %34 to %"class.std::__1::ctype"*
  %36 = bitcast %"class.std::__1::locale::facet"* %34 to i8 (%"class.std::__1::ctype"*, i8)***
  %37 = load i8 (%"class.std::__1::ctype"*, i8)**, i8 (%"class.std::__1::ctype"*, i8)*** %36, align 8
  %38 = getelementptr inbounds i8 (%"class.std::__1::ctype"*, i8)*, i8 (%"class.std::__1::ctype"*, i8)** %37, i64 7
  %39 = load i8 (%"class.std::__1::ctype"*, i8)*, i8 (%"class.std::__1::ctype"*, i8)** %38, align 8
  %40 = call signext i8 %39(%"class.std::__1::ctype"* %35, i8 signext 32) #6
  call void @_ZNSt3__16localeD1Ev(%"class.std::__1::locale"* nonnull %4) #6
  call void @llvm.lifetime.end.p0i8(i64 8, i8* nonnull %33) #6
  %41 = sext i8 %40 to i32
  store i32 %41, i32* %29, align 8
  br label %42

42:                                               ; preds = %9, %32
  %43 = phi i32 [ %41, %32 ], [ %30, %9 ]
  %44 = trunc i32 %43 to i8
  %45 = call %"class.std::__1::basic_streambuf"* @_ZNSt3__116__pad_and_outputIcNS_11char_traitsIcEEEENS_19ostreambuf_iteratorIT_T0_EES6_PKS4_S8_S8_RNS_8ios_baseES4_(%"class.std::__1::basic_streambuf"* %19, i8* %1, i8* %27, i8* %26, %"class.std::__1::ios_base"* dereferenceable(136) %20, i8 signext %44)
  %46 = icmp eq %"class.std::__1::basic_streambuf"* %45, null
  br i1 %46, label %47, label %58

47:                                               ; preds = %42
  %48 = load i8*, i8** %10, align 8
  %49 = getelementptr i8, i8* %48, i64 -24
  %50 = bitcast i8* %49 to i64*
  %51 = load i64, i64* %50, align 8
  %52 = getelementptr inbounds i8, i8* %15, i64 %51
  %53 = bitcast i8* %52 to %"class.std::__1::ios_base"*
  %54 = getelementptr inbounds i8, i8* %52, i64 32
  %55 = bitcast i8* %54 to i32*
  %56 = load i32, i32* %55, align 8
  %57 = or i32 %56, 5
  call void @_ZNSt3__18ios_base5clearEj(%"class.std::__1::ios_base"* %53, i32 %57) #6
  br label %58

58:                                               ; preds = %3, %42, %47
  call void @_ZNSt3__113basic_ostreamIcNS_11char_traitsIcEEE6sentryD1Ev(%"class.std::__1::basic_ostream<char, std::__1::char_traits<char> >::sentry"* nonnull %5) #6
  call void @llvm.lifetime.end.p0i8(i64 16, i8* nonnull %6) #6
  ret %"class.std::__1::basic_ostream"* %0
}

declare void @_ZNSt3__113basic_ostreamIcNS_11char_traitsIcEEE6sentryC1ERS3_(%"class.std::__1::basic_ostream<char, std::__1::char_traits<char> >::sentry"*, %"class.std::__1::basic_ostream"* dereferenceable(160)) unnamed_addr #1

; Function Attrs: nounwind ssp uwtable
define linkonce_odr hidden %"class.std::__1::basic_streambuf"* @_ZNSt3__116__pad_and_outputIcNS_11char_traitsIcEEEENS_19ostreambuf_iteratorIT_T0_EES6_PKS4_S8_S8_RNS_8ios_baseES4_(%"class.std::__1::basic_streambuf"*, i8*, i8*, i8*, %"class.std::__1::ios_base"* dereferenceable(136), i8 signext) local_unnamed_addr #0 comdat {
  %7 = alloca %"class.std::__1::basic_string", align 8
  %8 = icmp eq %"class.std::__1::basic_streambuf"* %0, null
  br i1 %8, label %78, label %9

9:                                                ; preds = %6
  %10 = ptrtoint i8* %3 to i64
  %11 = ptrtoint i8* %1 to i64
  %12 = sub i64 %10, %11
  %13 = getelementptr inbounds %"class.std::__1::ios_base", %"class.std::__1::ios_base"* %4, i64 0, i32 3
  %14 = load i64, i64* %13, align 8
  %15 = icmp sgt i64 %14, %12
  %16 = sub nsw i64 %14, %12
  %17 = select i1 %15, i64 %16, i64 0
  %18 = ptrtoint i8* %2 to i64
  %19 = sub i64 %18, %11
  %20 = icmp sgt i64 %19, 0
  br i1 %20, label %21, label %28

21:                                               ; preds = %9
  %22 = bitcast %"class.std::__1::basic_streambuf"* %0 to i64 (%"class.std::__1::basic_streambuf"*, i8*, i64)***
  %23 = load i64 (%"class.std::__1::basic_streambuf"*, i8*, i64)**, i64 (%"class.std::__1::basic_streambuf"*, i8*, i64)*** %22, align 8
  %24 = getelementptr inbounds i64 (%"class.std::__1::basic_streambuf"*, i8*, i64)*, i64 (%"class.std::__1::basic_streambuf"*, i8*, i64)** %23, i64 12
  %25 = load i64 (%"class.std::__1::basic_streambuf"*, i8*, i64)*, i64 (%"class.std::__1::basic_streambuf"*, i8*, i64)** %24, align 8
  %26 = tail call i64 %25(%"class.std::__1::basic_streambuf"* nonnull %0, i8* %1, i64 %19) #6
  %27 = icmp eq i64 %26, %19
  br i1 %27, label %28, label %78

28:                                               ; preds = %21, %9
  %29 = icmp sgt i64 %17, 0
  br i1 %29, label %30, label %67

30:                                               ; preds = %28
  %31 = bitcast %"class.std::__1::basic_string"* %7 to i8*
  call void @llvm.lifetime.start.p0i8(i64 24, i8* nonnull %31) #6
  %32 = getelementptr inbounds %"class.std::__1::basic_string", %"class.std::__1::basic_string"* %7, i64 0, i32 0, i32 0, i32 0, i32 0, i32 0, i32 0
  %33 = icmp ult i64 %17, 23
  %34 = bitcast %"class.std::__1::basic_string"* %7 to i8*
  call void @llvm.memset.p0i8.i64(i8* nonnull align 8 %34, i8 -86, i64 24, i1 false)
  br i1 %33, label %43, label %35

35:                                               ; preds = %30
  %36 = getelementptr inbounds %"class.std::__1::basic_string", %"class.std::__1::basic_string"* %7, i64 0, i32 0, i32 0, i32 0, i32 0, i32 0, i32 2
  %37 = getelementptr inbounds %"class.std::__1::basic_string", %"class.std::__1::basic_string"* %7, i64 0, i32 0, i32 0, i32 0, i32 0, i32 0, i32 1
  %38 = add nuw i64 %17, 16
  %39 = and i64 %38, -16
  %40 = tail call i8* @_Znwm(i64 %39) #7
  store i8* %40, i8** %32, align 8
  %41 = or i64 %39, -9223372036854775808
  store i64 %41, i64* %36, align 8
  store i64 %17, i64* %37, align 8
  %42 = bitcast %"class.std::__1::basic_string"* %7 to %"struct.std::__1::basic_string<char, std::__1::char_traits<char>, std::__1::allocator<char> >::__short"*
  br label %47

43:                                               ; preds = %30
  %44 = trunc i64 %17 to i8
  %45 = bitcast %"class.std::__1::basic_string"* %7 to %"struct.std::__1::basic_string<char, std::__1::char_traits<char>, std::__1::allocator<char> >::__short"*
  %46 = getelementptr inbounds %"struct.std::__1::basic_string<char, std::__1::char_traits<char>, std::__1::allocator<char> >::__short", %"struct.std::__1::basic_string<char, std::__1::char_traits<char>, std::__1::allocator<char> >::__short"* %45, i64 0, i32 1, i32 0
  store i8 %44, i8* %46, align 1
  br label %47

47:                                               ; preds = %35, %43
  %48 = phi %"struct.std::__1::basic_string<char, std::__1::char_traits<char>, std::__1::allocator<char> >::__short"* [ %42, %35 ], [ %45, %43 ]
  %49 = phi i8* [ %40, %35 ], [ %31, %43 ]
  call void @llvm.memset.p0i8.i64(i8* nonnull align 1 %49, i8 %5, i64 %17, i1 false) #6
  %50 = getelementptr inbounds i8, i8* %49, i64 %17
  store i8 0, i8* %50, align 1
  %51 = getelementptr inbounds %"struct.std::__1::basic_string<char, std::__1::char_traits<char>, std::__1::allocator<char> >::__short", %"struct.std::__1::basic_string<char, std::__1::char_traits<char>, std::__1::allocator<char> >::__short"* %48, i64 0, i32 1, i32 0
  %52 = load i8, i8* %51, align 1
  %53 = icmp slt i8 %52, 0
  %54 = load i8*, i8** %32, align 8
  %55 = select i1 %53, i8* %54, i8* %31
  %56 = bitcast %"class.std::__1::basic_streambuf"* %0 to i64 (%"class.std::__1::basic_streambuf"*, i8*, i64)***
  %57 = load i64 (%"class.std::__1::basic_streambuf"*, i8*, i64)**, i64 (%"class.std::__1::basic_streambuf"*, i8*, i64)*** %56, align 8
  %58 = getelementptr inbounds i64 (%"class.std::__1::basic_streambuf"*, i8*, i64)*, i64 (%"class.std::__1::basic_streambuf"*, i8*, i64)** %57, i64 12
  %59 = load i64 (%"class.std::__1::basic_streambuf"*, i8*, i64)*, i64 (%"class.std::__1::basic_streambuf"*, i8*, i64)** %58, align 8
  %60 = call i64 %59(%"class.std::__1::basic_streambuf"* nonnull %0, i8* %55, i64 %17) #6
  %61 = icmp eq i64 %60, %17
  %62 = load i8, i8* %51, align 1
  %63 = icmp slt i8 %62, 0
  br i1 %63, label %64, label %66

64:                                               ; preds = %47
  %65 = load i8*, i8** %32, align 8
  call void @_ZdlPv(i8* %65) #7
  br label %66

66:                                               ; preds = %47, %64
  call void @llvm.lifetime.end.p0i8(i64 24, i8* nonnull %31) #6
  br i1 %61, label %67, label %78

67:                                               ; preds = %66, %28
  %68 = sub i64 %10, %18
  %69 = icmp sgt i64 %68, 0
  br i1 %69, label %70, label %77

70:                                               ; preds = %67
  %71 = bitcast %"class.std::__1::basic_streambuf"* %0 to i64 (%"class.std::__1::basic_streambuf"*, i8*, i64)***
  %72 = load i64 (%"class.std::__1::basic_streambuf"*, i8*, i64)**, i64 (%"class.std::__1::basic_streambuf"*, i8*, i64)*** %71, align 8
  %73 = getelementptr inbounds i64 (%"class.std::__1::basic_streambuf"*, i8*, i64)*, i64 (%"class.std::__1::basic_streambuf"*, i8*, i64)** %72, i64 12
  %74 = load i64 (%"class.std::__1::basic_streambuf"*, i8*, i64)*, i64 (%"class.std::__1::basic_streambuf"*, i8*, i64)** %73, align 8
  %75 = call i64 %74(%"class.std::__1::basic_streambuf"* nonnull %0, i8* %2, i64 %68) #6
  %76 = icmp eq i64 %75, %68
  br i1 %76, label %77, label %78

77:                                               ; preds = %70, %67
  store i64 0, i64* %13, align 8
  br label %78

78:                                               ; preds = %77, %66, %21, %70, %6
  %79 = phi %"class.std::__1::basic_streambuf"* [ null, %6 ], [ %0, %77 ], [ null, %66 ], [ null, %21 ], [ null, %70 ]
  ret %"class.std::__1::basic_streambuf"* %79
}

; Function Attrs: nounwind
declare void @_ZNSt3__113basic_ostreamIcNS_11char_traitsIcEEE6sentryD1Ev(%"class.std::__1::basic_ostream<char, std::__1::char_traits<char> >::sentry"*) unnamed_addr #3

; Function Attrs: nobuiltin nofree
declare noalias nonnull i8* @_Znwm(i64) local_unnamed_addr #4

; Function Attrs: argmemonly nounwind
declare void @llvm.memset.p0i8.i64(i8* nocapture writeonly, i8, i64, i1 immarg) #2

; Function Attrs: nobuiltin nounwind
declare void @_ZdlPv(i8*) local_unnamed_addr #5

declare void @_ZNKSt3__18ios_base6getlocEv(%"class.std::__1::locale"* sret, %"class.std::__1::ios_base"*) local_unnamed_addr #1

; Function Attrs: nounwind
declare void @_ZNSt3__16localeD1Ev(%"class.std::__1::locale"*) unnamed_addr #3

declare %"class.std::__1::locale::facet"* @_ZNKSt3__16locale9use_facetERNS0_2idE(%"class.std::__1::locale"*, %"class.std::__1::locale::id"* dereferenceable(16)) local_unnamed_addr #1

declare void @_ZNSt3__18ios_base5clearEj(%"class.std::__1::ios_base"*, i32) local_unnamed_addr #1

attributes #0 = { nounwind ssp uwtable "correctly-rounded-divide-sqrt-fp-math"="false" "disable-tail-calls"="false" "less-precise-fpmad"="false" "min-legal-vector-width"="0" "no-frame-pointer-elim"="false" "no-frame-pointer-elim-non-leaf" "no-infs-fp-math"="false" "no-jump-tables"="false" "no-nans-fp-math"="false" "no-signed-zeros-fp-math"="false" "no-trapping-math"="false" "null-pointer-is-valid"="true" "stack-protector-buffer-size"="4" "target-cpu"="x86-64" "target-features"="+cx8,+fxsr,+mmx,+sse,+sse2,+sse3,+x87" "unsafe-fp-math"="false" "use-soft-float"="false" }
attributes #1 = { "correctly-rounded-divide-sqrt-fp-math"="false" "disable-tail-calls"="false" "less-precise-fpmad"="false" "no-frame-pointer-elim"="false" "no-frame-pointer-elim-non-leaf" "no-infs-fp-math"="false" "no-nans-fp-math"="false" "no-signed-zeros-fp-math"="false" "no-trapping-math"="false" "null-pointer-is-valid"="true" "stack-protector-buffer-size"="4" "target-cpu"="x86-64" "target-features"="+cx8,+fxsr,+mmx,+sse,+sse2,+sse3,+x87" "unsafe-fp-math"="false" "use-soft-float"="false" }
attributes #2 = { argmemonly nounwind }
attributes #3 = { nounwind "correctly-rounded-divide-sqrt-fp-math"="false" "disable-tail-calls"="false" "less-precise-fpmad"="false" "no-frame-pointer-elim"="false" "no-frame-pointer-elim-non-leaf" "no-infs-fp-math"="false" "no-nans-fp-math"="false" "no-signed-zeros-fp-math"="false" "no-trapping-math"="false" "null-pointer-is-valid"="true" "stack-protector-buffer-size"="4" "target-cpu"="x86-64" "target-features"="+cx8,+fxsr,+mmx,+sse,+sse2,+sse3,+x87" "unsafe-fp-math"="false" "use-soft-float"="false" }
attributes #4 = { nobuiltin nofree "correctly-rounded-divide-sqrt-fp-math"="false" "disable-tail-calls"="false" "less-precise-fpmad"="false" "no-frame-pointer-elim"="false" "no-frame-pointer-elim-non-leaf" "no-infs-fp-math"="false" "no-nans-fp-math"="false" "no-signed-zeros-fp-math"="false" "no-trapping-math"="false" "null-pointer-is-valid"="true" "stack-protector-buffer-size"="4" "target-cpu"="x86-64" "target-features"="+cx8,+fxsr,+mmx,+sse,+sse2,+sse3,+x87" "unsafe-fp-math"="false" "use-soft-float"="false" }
attributes #5 = { nobuiltin nounwind "correctly-rounded-divide-sqrt-fp-math"="false" "disable-tail-calls"="false" "less-precise-fpmad"="false" "no-frame-pointer-elim"="false" "no-frame-pointer-elim-non-leaf" "no-infs-fp-math"="false" "no-nans-fp-math"="false" "no-signed-zeros-fp-math"="false" "no-trapping-math"="false" "null-pointer-is-valid"="true" "stack-protector-buffer-size"="4" "target-cpu"="x86-64" "target-features"="+cx8,+fxsr,+mmx,+sse,+sse2,+sse3,+x87" "unsafe-fp-math"="false" "use-soft-float"="false" }
attributes #6 = { nounwind }
attributes #7 = { builtin nounwind }

!llvm.module.flags = !{!0, !1}

!0 = !{i32 1, !"wchar_size", i32 4}
!1 = !{i32 7, !"PIC Level", i32 2}
!2 = !{i8 0, i8 2}
