; ModuleID = '../../third_party/swiftshader/third_party/subzero/src/IceClFlags.cpp'
source_filename = "../../third_party/swiftshader/third_party/subzero/src/IceClFlags.cpp"
target datalayout = "e-m:e-i64:64-f80:128-n8:16:32:64-S128"
target triple = "x86_64-unknown-linux-gnu"

module asm ".symver exp, exp@GLIBC_2.2.5"
module asm ".symver exp2, exp2@GLIBC_2.2.5"
module asm ".symver exp2f, exp2f@GLIBC_2.2.5"
module asm ".symver expf, expf@GLIBC_2.2.5"
module asm ".symver lgamma, lgamma@GLIBC_2.2.5"
module asm ".symver lgammaf, lgammaf@GLIBC_2.2.5"
module asm ".symver lgammal, lgammal@GLIBC_2.2.5"
module asm ".symver log, log@GLIBC_2.2.5"
module asm ".symver log2, log2@GLIBC_2.2.5"
module asm ".symver log2f, log2f@GLIBC_2.2.5"
module asm ".symver logf, logf@GLIBC_2.2.5"
module asm ".symver pow, pow@GLIBC_2.2.5"
module asm ".symver powf, powf@GLIBC_2.2.5"

%"class.llvm::cl::opt" = type { %"class.llvm::cl::Option.base", %"class.llvm::cl::opt_storage", %"class.llvm::cl::parser" }
%"class.llvm::cl::Option.base" = type <{ i32 (...)**, i32, i16, [2 x i8], i32, i32, %"class.llvm::StringRef", %"class.llvm::StringRef", %"class.llvm::StringRef", %"class.llvm::cl::OptionCategory"*, %"class.llvm::SmallPtrSet", i8 }>
%"class.llvm::StringRef" = type { i8*, i64 }
%"class.llvm::cl::OptionCategory" = type { %"class.llvm::StringRef", %"class.llvm::StringRef" }
%"class.llvm::SmallPtrSet" = type { %"class.llvm::SmallPtrSetImpl.base", [4 x i8*] }
%"class.llvm::SmallPtrSetImpl.base" = type { %"class.llvm::SmallPtrSetImplBase.base" }
%"class.llvm::SmallPtrSetImplBase.base" = type <{ i8**, i8**, i32, i32, i32 }>
%"class.llvm::cl::opt_storage" = type { %"class.std::__1::basic_string", %"struct.llvm::cl::OptionValue" }
%"class.std::__1::basic_string" = type { %"class.std::__1::__compressed_pair" }
%"class.std::__1::__compressed_pair" = type { %"struct.std::__1::__compressed_pair_elem" }
%"struct.std::__1::__compressed_pair_elem" = type { %"struct.std::__1::basic_string<char, std::__1::char_traits<char>, std::__1::allocator<char> >::__rep" }
%"struct.std::__1::basic_string<char, std::__1::char_traits<char>, std::__1::allocator<char> >::__rep" = type { %union.anon }
%union.anon = type { %"struct.std::__1::basic_string<char, std::__1::char_traits<char>, std::__1::allocator<char> >::__long" }
%"struct.std::__1::basic_string<char, std::__1::char_traits<char>, std::__1::allocator<char> >::__long" = type { i8*, i64, i64 }
%"struct.llvm::cl::OptionValue" = type { %"class.llvm::cl::OptionValueCopy.base", [7 x i8] }
%"class.llvm::cl::OptionValueCopy.base" = type <{ %"struct.llvm::cl::GenericOptionValue", %"class.std::__1::basic_string", i8 }>
%"struct.llvm::cl::GenericOptionValue" = type { i32 (...)** }
%"class.llvm::cl::parser" = type { %"class.llvm::cl::basic_parser" }
%"class.llvm::cl::basic_parser" = type { %"class.llvm::cl::basic_parser_impl" }
%"class.llvm::cl::basic_parser_impl" = type { i32 (...)** }
%"class.llvm::cl::opt.1" = type { %"class.llvm::cl::Option.base", [7 x i8], %"class.llvm::cl::opt_storage.2", %"class.llvm::cl::parser.6" }
%"class.llvm::cl::opt_storage.2" = type { i32, [4 x i8], %"struct.llvm::cl::OptionValue.3" }
%"struct.llvm::cl::OptionValue.3" = type { %"struct.llvm::cl::OptionValueBase.base", [3 x i8] }
%"struct.llvm::cl::OptionValueBase.base" = type { %"class.llvm::cl::OptionValueCopy.base.5" }
%"class.llvm::cl::OptionValueCopy.base.5" = type <{ %"struct.llvm::cl::GenericOptionValue", i32, i8 }>
%"class.llvm::cl::parser.6" = type { %"class.llvm::cl::basic_parser.7" }
%"class.llvm::cl::basic_parser.7" = type { %"class.llvm::cl::basic_parser_impl" }
%"class.llvm::cl::opt.9" = type { %"class.llvm::cl::Option.base", [7 x i8], %"class.llvm::cl::opt_storage.10", %"class.llvm::cl::parser.16" }
%"class.llvm::cl::opt_storage.10" = type { i32, [4 x i8], %"struct.llvm::cl::OptionValue.11" }
%"struct.llvm::cl::OptionValue.11" = type { %"struct.llvm::cl::OptionValueBase.base.15", [3 x i8] }
%"struct.llvm::cl::OptionValueBase.base.15" = type { %"class.llvm::cl::OptionValueCopy.base.14" }
%"class.llvm::cl::OptionValueCopy.base.14" = type <{ %"struct.llvm::cl::GenericOptionValue", i32, i8 }>
%"class.llvm::cl::parser.16" = type { %"class.llvm::cl::generic_parser_base", %"class.llvm::SmallVector" }
%"class.llvm::cl::generic_parser_base" = type { i32 (...)**, %"class.llvm::cl::Option"* }
%"class.llvm::cl::Option" = type <{ i32 (...)**, i32, i16, [2 x i8], i32, i32, %"class.llvm::StringRef", %"class.llvm::StringRef", %"class.llvm::StringRef", %"class.llvm::cl::OptionCategory"*, %"class.llvm::SmallPtrSet", i8, [7 x i8] }>
%"class.llvm::SmallVector" = type { %"class.llvm::SmallVectorImpl", %"struct.llvm::SmallVectorStorage" }
%"class.llvm::SmallVectorImpl" = type { %"class.llvm::SmallVectorTemplateBase" }
%"class.llvm::SmallVectorTemplateBase" = type { %"class.llvm::SmallVectorTemplateCommon" }
%"class.llvm::SmallVectorTemplateCommon" = type { %"class.llvm::SmallVectorBase", %"struct.llvm::AlignedCharArrayUnion" }
%"class.llvm::SmallVectorBase" = type { i8*, i8*, i8* }
%"struct.llvm::AlignedCharArrayUnion" = type { %"struct.llvm::AlignedCharArray" }
%"struct.llvm::AlignedCharArray" = type { [48 x i8] }
%"struct.llvm::SmallVectorStorage" = type { [7 x %"struct.llvm::AlignedCharArrayUnion"] }
%"class.llvm::cl::opt.25" = type { %"class.llvm::cl::Option.base", [7 x i8], %"class.llvm::cl::opt_storage.26", %"class.llvm::cl::parser.32" }
%"class.llvm::cl::opt_storage.26" = type { i32, [4 x i8], %"struct.llvm::cl::OptionValue.27" }
%"struct.llvm::cl::OptionValue.27" = type { %"struct.llvm::cl::OptionValueBase.base.31", [3 x i8] }
%"struct.llvm::cl::OptionValueBase.base.31" = type { %"class.llvm::cl::OptionValueCopy.base.30" }
%"class.llvm::cl::OptionValueCopy.base.30" = type <{ %"struct.llvm::cl::GenericOptionValue", i32, i8 }>
%"class.llvm::cl::parser.32" = type { %"class.llvm::cl::generic_parser_base", %"class.llvm::SmallVector.33" }
%"class.llvm::SmallVector.33" = type { %"class.llvm::SmallVectorImpl.34", %"struct.llvm::SmallVectorStorage.38" }
%"class.llvm::SmallVectorImpl.34" = type { %"class.llvm::SmallVectorTemplateBase.35" }
%"class.llvm::SmallVectorTemplateBase.35" = type { %"class.llvm::SmallVectorTemplateCommon.36" }
%"class.llvm::SmallVectorTemplateCommon.36" = type { %"class.llvm::SmallVectorBase", %"struct.llvm::AlignedCharArrayUnion.37" }
%"struct.llvm::AlignedCharArrayUnion.37" = type { %"struct.llvm::AlignedCharArray" }
%"struct.llvm::SmallVectorStorage.38" = type { [7 x %"struct.llvm::AlignedCharArrayUnion.37"] }
%"class.llvm::cl::opt.40" = type { %"class.llvm::cl::Option.base", [7 x i8], %"class.llvm::cl::opt_storage.41", %"class.llvm::cl::parser.47" }
%"class.llvm::cl::opt_storage.41" = type { i8, [7 x i8], %"struct.llvm::cl::OptionValue.42" }
%"struct.llvm::cl::OptionValue.42" = type { %"struct.llvm::cl::OptionValueBase.base.46", [6 x i8] }
%"struct.llvm::cl::OptionValueBase.base.46" = type { %"class.llvm::cl::OptionValueCopy.base.45" }
%"class.llvm::cl::OptionValueCopy.base.45" = type <{ %"struct.llvm::cl::GenericOptionValue", i8, i8 }>
%"class.llvm::cl::parser.47" = type { %"class.llvm::cl::basic_parser.48" }
%"class.llvm::cl::basic_parser.48" = type { %"class.llvm::cl::basic_parser_impl" }
%"class.llvm::cl::opt.52" = type { %"class.llvm::cl::Option.base", [7 x i8], %"class.llvm::cl::opt_storage.53", %"class.llvm::cl::parser.59" }
%"class.llvm::cl::opt_storage.53" = type { i32, [4 x i8], %"struct.llvm::cl::OptionValue.54" }
%"struct.llvm::cl::OptionValue.54" = type { %"struct.llvm::cl::OptionValueBase.base.58", [3 x i8] }
%"struct.llvm::cl::OptionValueBase.base.58" = type { %"class.llvm::cl::OptionValueCopy.base.57" }
%"class.llvm::cl::OptionValueCopy.base.57" = type <{ %"struct.llvm::cl::GenericOptionValue", i32, i8 }>
%"class.llvm::cl::parser.59" = type { %"class.llvm::cl::generic_parser_base", %"class.llvm::SmallVector.60" }
%"class.llvm::SmallVector.60" = type { %"class.llvm::SmallVectorImpl.61", %"struct.llvm::SmallVectorStorage.65" }
%"class.llvm::SmallVectorImpl.61" = type { %"class.llvm::SmallVectorTemplateBase.62" }
%"class.llvm::SmallVectorTemplateBase.62" = type { %"class.llvm::SmallVectorTemplateCommon.63" }
%"class.llvm::SmallVectorTemplateCommon.63" = type { %"class.llvm::SmallVectorBase", %"struct.llvm::AlignedCharArrayUnion.64" }
%"struct.llvm::AlignedCharArrayUnion.64" = type { %"struct.llvm::AlignedCharArray" }
%"struct.llvm::SmallVectorStorage.65" = type { [7 x %"struct.llvm::AlignedCharArrayUnion.64"] }
%"class.llvm::cl::list" = type { %"class.llvm::cl::Option.base", %"class.llvm::cl::list_storage", %"class.std::__1::vector.72", %"class.llvm::cl::parser" }
%"class.llvm::cl::list_storage" = type { %"class.std::__1::vector" }
%"class.std::__1::vector" = type { %"class.std::__1::__vector_base" }
%"class.std::__1::__vector_base" = type { %"class.std::__1::basic_string"*, %"class.std::__1::basic_string"*, %"class.std::__1::__compressed_pair.67" }
%"class.std::__1::__compressed_pair.67" = type { %"struct.std::__1::__compressed_pair_elem.68" }
%"struct.std::__1::__compressed_pair_elem.68" = type { %"class.std::__1::basic_string"* }
%"class.std::__1::vector.72" = type { %"class.std::__1::__vector_base.73" }
%"class.std::__1::__vector_base.73" = type { i32*, i32*, %"class.std::__1::__compressed_pair.74" }
%"class.std::__1::__compressed_pair.74" = type { %"struct.std::__1::__compressed_pair_elem.75" }
%"struct.std::__1::__compressed_pair_elem.75" = type { i32* }
%"class.llvm::cl::opt.80" = type { %"class.llvm::cl::Option.base", [7 x i8], %"class.llvm::cl::opt_storage.81", %"class.llvm::cl::parser.87" }
%"class.llvm::cl::opt_storage.81" = type { i32, [4 x i8], %"struct.llvm::cl::OptionValue.82" }
%"struct.llvm::cl::OptionValue.82" = type { %"struct.llvm::cl::OptionValueBase.base.86", [3 x i8] }
%"struct.llvm::cl::OptionValueBase.base.86" = type { %"class.llvm::cl::OptionValueCopy.base.85" }
%"class.llvm::cl::OptionValueCopy.base.85" = type <{ %"struct.llvm::cl::GenericOptionValue", i32, i8 }>
%"class.llvm::cl::parser.87" = type { %"class.llvm::cl::generic_parser_base", %"class.llvm::SmallVector.88" }
%"class.llvm::SmallVector.88" = type { %"class.llvm::SmallVectorImpl.89", %"struct.llvm::SmallVectorStorage.93" }
%"class.llvm::SmallVectorImpl.89" = type { %"class.llvm::SmallVectorTemplateBase.90" }
%"class.llvm::SmallVectorTemplateBase.90" = type { %"class.llvm::SmallVectorTemplateCommon.91" }
%"class.llvm::SmallVectorTemplateCommon.91" = type { %"class.llvm::SmallVectorBase", %"struct.llvm::AlignedCharArrayUnion.92" }
%"struct.llvm::AlignedCharArrayUnion.92" = type { %"struct.llvm::AlignedCharArray" }
%"struct.llvm::SmallVectorStorage.93" = type { [7 x %"struct.llvm::AlignedCharArrayUnion.92"] }
%"class.llvm::cl::opt.95" = type { %"class.llvm::cl::Option.base", [7 x i8], %"class.llvm::cl::opt_storage.96", %"class.llvm::cl::parser.102" }
%"class.llvm::cl::opt_storage.96" = type { i32, [4 x i8], %"struct.llvm::cl::OptionValue.97" }
%"struct.llvm::cl::OptionValue.97" = type { %"struct.llvm::cl::OptionValueBase.base.101", [3 x i8] }
%"struct.llvm::cl::OptionValueBase.base.101" = type { %"class.llvm::cl::OptionValueCopy.base.100" }
%"class.llvm::cl::OptionValueCopy.base.100" = type <{ %"struct.llvm::cl::GenericOptionValue", i32, i8 }>
%"class.llvm::cl::parser.102" = type { %"class.llvm::cl::basic_parser.103" }
%"class.llvm::cl::basic_parser.103" = type { %"class.llvm::cl::basic_parser_impl" }
%"class.llvm::cl::opt.104" = type { %"class.llvm::cl::Option.base", [7 x i8], %"class.llvm::cl::opt_storage.105", %"class.llvm::cl::parser.111" }
%"class.llvm::cl::opt_storage.105" = type { i32, [4 x i8], %"struct.llvm::cl::OptionValue.106" }
%"struct.llvm::cl::OptionValue.106" = type { %"struct.llvm::cl::OptionValueBase.base.110", [3 x i8] }
%"struct.llvm::cl::OptionValueBase.base.110" = type { %"class.llvm::cl::OptionValueCopy.base.109" }
%"class.llvm::cl::OptionValueCopy.base.109" = type <{ %"struct.llvm::cl::GenericOptionValue", i32, i8 }>
%"class.llvm::cl::parser.111" = type { %"class.llvm::cl::generic_parser_base", %"class.llvm::SmallVector.112" }
%"class.llvm::SmallVector.112" = type { %"class.llvm::SmallVectorImpl.113", %"struct.llvm::SmallVectorStorage.117" }
%"class.llvm::SmallVectorImpl.113" = type { %"class.llvm::SmallVectorTemplateBase.114" }
%"class.llvm::SmallVectorTemplateBase.114" = type { %"class.llvm::SmallVectorTemplateCommon.115" }
%"class.llvm::SmallVectorTemplateCommon.115" = type { %"class.llvm::SmallVectorBase", %"struct.llvm::AlignedCharArrayUnion.116" }
%"struct.llvm::AlignedCharArrayUnion.116" = type { %"struct.llvm::AlignedCharArray" }
%"struct.llvm::SmallVectorStorage.117" = type { [7 x %"struct.llvm::AlignedCharArrayUnion.116"] }
%"class.llvm::cl::opt.119" = type { %"class.llvm::cl::Option.base", [7 x i8], %"class.llvm::cl::opt_storage.120", %"class.llvm::cl::parser.126" }
%"class.llvm::cl::opt_storage.120" = type { i32, [4 x i8], %"struct.llvm::cl::OptionValue.121" }
%"struct.llvm::cl::OptionValue.121" = type { %"struct.llvm::cl::OptionValueBase.base.125", [3 x i8] }
%"struct.llvm::cl::OptionValueBase.base.125" = type { %"class.llvm::cl::OptionValueCopy.base.124" }
%"class.llvm::cl::OptionValueCopy.base.124" = type <{ %"struct.llvm::cl::GenericOptionValue", i32, i8 }>
%"class.llvm::cl::parser.126" = type { %"class.llvm::cl::generic_parser_base", %"class.llvm::SmallVector.127" }
%"class.llvm::SmallVector.127" = type { %"class.llvm::SmallVectorImpl.128", %"struct.llvm::SmallVectorStorage.132" }
%"class.llvm::SmallVectorImpl.128" = type { %"class.llvm::SmallVectorTemplateBase.129" }
%"class.llvm::SmallVectorTemplateBase.129" = type { %"class.llvm::SmallVectorTemplateCommon.130" }
%"class.llvm::SmallVectorTemplateCommon.130" = type { %"class.llvm::SmallVectorBase", %"struct.llvm::AlignedCharArrayUnion.131" }
%"struct.llvm::AlignedCharArrayUnion.131" = type { %"struct.llvm::AlignedCharArray" }
%"struct.llvm::SmallVectorStorage.132" = type { [7 x %"struct.llvm::AlignedCharArrayUnion.131"] }
%"class.llvm::cl::opt.134" = type { %"class.llvm::cl::Option.base", [7 x i8], %"class.llvm::cl::opt_storage.135", %"class.llvm::cl::parser.141" }
%"class.llvm::cl::opt_storage.135" = type { i32, [4 x i8], %"struct.llvm::cl::OptionValue.136" }
%"struct.llvm::cl::OptionValue.136" = type { %"struct.llvm::cl::OptionValueBase.base.140", [3 x i8] }
%"struct.llvm::cl::OptionValueBase.base.140" = type { %"class.llvm::cl::OptionValueCopy.base.139" }
%"class.llvm::cl::OptionValueCopy.base.139" = type <{ %"struct.llvm::cl::GenericOptionValue", i32, i8 }>
%"class.llvm::cl::parser.141" = type { %"class.llvm::cl::generic_parser_base", %"class.llvm::SmallVector.142" }
%"class.llvm::SmallVector.142" = type { %"class.llvm::SmallVectorImpl.143", %"struct.llvm::SmallVectorStorage.147" }
%"class.llvm::SmallVectorImpl.143" = type { %"class.llvm::SmallVectorTemplateBase.144" }
%"class.llvm::SmallVectorTemplateBase.144" = type { %"class.llvm::SmallVectorTemplateCommon.145" }
%"class.llvm::SmallVectorTemplateCommon.145" = type { %"class.llvm::SmallVectorBase", %"struct.llvm::AlignedCharArrayUnion.146" }
%"struct.llvm::AlignedCharArrayUnion.146" = type { %"struct.llvm::AlignedCharArray" }
%"struct.llvm::SmallVectorStorage.147" = type { [7 x %"struct.llvm::AlignedCharArrayUnion.146"] }
%"class.llvm::cl::list.149" = type { %"class.llvm::cl::Option.base", %"class.llvm::cl::list_storage.150", %"class.std::__1::vector.72", %"class.llvm::cl::parser.158" }
%"class.llvm::cl::list_storage.150" = type { %"class.std::__1::vector.151" }
%"class.std::__1::vector.151" = type { %"class.std::__1::__vector_base.152" }
%"class.std::__1::__vector_base.152" = type { i32*, i32*, %"class.std::__1::__compressed_pair.153" }
%"class.std::__1::__compressed_pair.153" = type { %"struct.std::__1::__compressed_pair_elem.154" }
%"struct.std::__1::__compressed_pair_elem.154" = type { i32* }
%"class.llvm::cl::parser.158" = type { %"class.llvm::cl::generic_parser_base", %"class.llvm::SmallVector.159" }
%"class.llvm::SmallVector.159" = type { %"class.llvm::SmallVectorImpl.160", %"struct.llvm::SmallVectorStorage.164" }
%"class.llvm::SmallVectorImpl.160" = type { %"class.llvm::SmallVectorTemplateBase.161" }
%"class.llvm::SmallVectorTemplateBase.161" = type { %"class.llvm::SmallVectorTemplateCommon.162" }
%"class.llvm::SmallVectorTemplateCommon.162" = type { %"class.llvm::SmallVectorBase", %"struct.llvm::AlignedCharArrayUnion.163" }
%"struct.llvm::AlignedCharArrayUnion.163" = type { %"struct.llvm::AlignedCharArray" }
%"struct.llvm::SmallVectorStorage.164" = type { [7 x %"struct.llvm::AlignedCharArrayUnion.163"] }
%"class.llvm::cl::alias" = type { %"class.llvm::cl::Option.base", %"class.llvm::cl::Option"* }
%"class.Ice::ClFlags" = type { %"class.std::__1::basic_string", i32, i32, %"class.std::__1::basic_string", i32, i8, i8, i8, i8, i8, i8, i8, i8, i8, i8, %"class.std::__1::basic_string", %"class.std::__1::basic_string", i8, i8, i8, i8, i8, i8, i32, i8, i8, i8, %"class.std::__1::vector", i8, %"class.std::__1::basic_string", %"class.std::__1::basic_string", i8, i8, i8, i32, i8, i8, i32, i8, %"class.std::__1::basic_string", i32, i8, i32, i32, i32, i8, i8, i8, i8, i8, i8, i8, i32, %"class.std::__1::basic_string", i32, %"class.std::__1::basic_string", i8, %"class.std::__1::basic_string", %"class.std::__1::basic_string", i8, %"class.std::__1::vector", i8, i32, %"class.std::__1::basic_string", i8, %"class.std::__1::basic_string", i8, [7 x i8], %"class.Ice::RangeSpec", %"class.Ice::RangeSpec", %"class.Ice::RangeSpec", %"class.Ice::RangeSpec", %"class.Ice::RangeSpec", %"class.Ice::RangeSpec" }
%"class.Ice::RangeSpec" = type { %"struct.Ice::RangeSpec::Desc", %"struct.Ice::RangeSpec::Desc" }
%"struct.Ice::RangeSpec::Desc" = type <{ %"class.std::__1::unordered_set", %"class.llvm::BitVector", i32, i8, [3 x i8] }>
%"class.std::__1::unordered_set" = type { %"class.std::__1::__hash_table" }
%"class.std::__1::__hash_table" = type <{ %"class.std::__1::unique_ptr", %"class.std::__1::__compressed_pair.173", %"class.std::__1::__compressed_pair.178", %"class.std::__1::__compressed_pair.180", [4 x i8] }>
%"class.std::__1::unique_ptr" = type { %"class.std::__1::__compressed_pair.165" }
%"class.std::__1::__compressed_pair.165" = type { %"struct.std::__1::__compressed_pair_elem.166", %"struct.std::__1::__compressed_pair_elem.167" }
%"struct.std::__1::__compressed_pair_elem.166" = type { %"struct.std::__1::__hash_node_base"** }
%"struct.std::__1::__hash_node_base" = type { %"struct.std::__1::__hash_node_base"* }
%"struct.std::__1::__compressed_pair_elem.167" = type { %"class.std::__1::__bucket_list_deallocator" }
%"class.std::__1::__bucket_list_deallocator" = type { %"class.std::__1::__compressed_pair.168" }
%"class.std::__1::__compressed_pair.168" = type { %"struct.std::__1::__compressed_pair_elem.169" }
%"struct.std::__1::__compressed_pair_elem.169" = type { i64 }
%"class.std::__1::__compressed_pair.173" = type { %"struct.std::__1::__compressed_pair_elem.174" }
%"struct.std::__1::__compressed_pair_elem.174" = type { %"struct.std::__1::__hash_node_base" }
%"class.std::__1::__compressed_pair.178" = type { %"struct.std::__1::__compressed_pair_elem.169" }
%"class.std::__1::__compressed_pair.180" = type { %"struct.std::__1::__compressed_pair_elem.181" }
%"struct.std::__1::__compressed_pair_elem.181" = type { float }
%"class.llvm::BitVector" = type { i64*, i32, i32 }
%"struct.llvm::cl::desc" = type { %"class.llvm::StringRef" }
%"struct.llvm::cl::initializer" = type { [2 x i8]* }
%"struct.std::__1::basic_string<char, std::__1::char_traits<char>, std::__1::allocator<char> >::__short" = type { [23 x i8], %struct.anon }
%struct.anon = type { i8 }
%"struct.llvm::cl::initializer.8" = type { i32* }
%"struct.llvm::cl::initializer.17" = type { i32* }
%"struct.llvm::cl::value_desc" = type { %"class.llvm::StringRef" }
%"class.llvm::cl::ValuesClass" = type { %"class.llvm::SmallVector.18" }
%"class.llvm::SmallVector.18" = type { %"class.llvm::SmallVectorImpl.19", %"struct.llvm::SmallVectorStorage.24" }
%"class.llvm::SmallVectorImpl.19" = type { %"class.llvm::SmallVectorTemplateBase.20" }
%"class.llvm::SmallVectorTemplateBase.20" = type { %"class.llvm::SmallVectorTemplateCommon.21" }
%"class.llvm::SmallVectorTemplateCommon.21" = type { %"class.llvm::SmallVectorBase", %"struct.llvm::AlignedCharArrayUnion.22" }
%"struct.llvm::AlignedCharArrayUnion.22" = type { %"struct.llvm::AlignedCharArray.23" }
%"struct.llvm::AlignedCharArray.23" = type { [40 x i8] }
%"struct.llvm::SmallVectorStorage.24" = type { [3 x %"struct.llvm::AlignedCharArrayUnion.22"] }
%"struct.llvm::cl::OptionEnumValue" = type { %"class.llvm::StringRef", i32, %"class.llvm::StringRef" }
%"struct.llvm::cl::initializer.39" = type { i32* }
%"struct.llvm::cl::initializer.49" = type { i8* }
%"struct.llvm::cl::initializer.50" = type { [9 x i8]* }
%"struct.llvm::cl::initializer.51" = type { [7 x i8]* }
%"struct.llvm::cl::initializer.66" = type { i32* }
%"struct.llvm::cl::initializer.79" = type { [1 x i8]* }
%"struct.llvm::cl::initializer.94" = type { i32* }
%"struct.llvm::cl::initializer.118" = type { i32* }
%"struct.llvm::cl::initializer.133" = type { i32* }
%"struct.llvm::cl::initializer.148" = type { i32* }
%"struct.llvm::cl::aliasopt" = type { %"class.llvm::cl::Option"* }
%"class.llvm::cl::OptionValueCopy" = type <{ %"struct.llvm::cl::GenericOptionValue", %"class.std::__1::basic_string", i8, [7 x i8] }>
%"class.llvm::SmallVectorImpl.183" = type { %"class.llvm::SmallVectorTemplateBase.184" }
%"class.llvm::SmallVectorTemplateBase.184" = type { %"class.llvm::SmallVectorTemplateCommon.185" }
%"class.llvm::SmallVectorTemplateCommon.185" = type { %"class.llvm::SmallVectorBase", %"struct.llvm::AlignedCharArrayUnion.186" }
%"struct.llvm::AlignedCharArrayUnion.186" = type { %"struct.llvm::AlignedCharArray.187" }
%"struct.llvm::AlignedCharArray.187" = type { [16 x i8] }
%"class.llvm::cl::parser<Ice::OptLevel>::OptionInfo" = type { %"class.llvm::cl::generic_parser_base::GenericOptionInfo", %"struct.llvm::cl::OptionValue.11" }
%"class.llvm::cl::generic_parser_base::GenericOptionInfo" = type { %"class.llvm::StringRef", %"class.llvm::StringRef" }
%"class.llvm::Twine" = type <{ %"union.llvm::Twine::Child", %"union.llvm::Twine::Child", i8, i8, [6 x i8] }>
%"union.llvm::Twine::Child" = type { %"class.llvm::Twine"* }
%"class.llvm::cl::OptionValueCopy.13" = type <{ %"struct.llvm::cl::GenericOptionValue", i32, i8, [3 x i8] }>
%"class.llvm::cl::parser<Ice::TargetArch>::OptionInfo" = type { %"class.llvm::cl::generic_parser_base::GenericOptionInfo", %"struct.llvm::cl::OptionValue.27" }
%"class.llvm::cl::OptionValueCopy.29" = type <{ %"struct.llvm::cl::GenericOptionValue", i32, i8, [3 x i8] }>
%"class.llvm::cl::parser<Ice::LCSEOptions>::OptionInfo" = type { %"class.llvm::cl::generic_parser_base::GenericOptionInfo", %"struct.llvm::cl::OptionValue.54" }
%"class.llvm::cl::OptionValueCopy.56" = type <{ %"struct.llvm::cl::GenericOptionValue", i32, i8, [3 x i8] }>
%"class.std::__1::__vector_base_common" = type { i8 }
%"class.std::__1::__basic_string_common" = type { i8 }
%"struct.std::__1::__split_buffer" = type { %"class.std::__1::basic_string"*, %"class.std::__1::basic_string"*, %"class.std::__1::basic_string"*, %"class.std::__1::__compressed_pair.193" }
%"class.std::__1::__compressed_pair.193" = type { %"struct.std::__1::__compressed_pair_elem.68", %"struct.std::__1::__compressed_pair_elem.194" }
%"struct.std::__1::__compressed_pair_elem.194" = type { %"class.std::__1::allocator.70"* }
%"class.std::__1::allocator.70" = type { i8 }
%"class.llvm::cl::parser<llvm::NaClFileFormat>::OptionInfo" = type { %"class.llvm::cl::generic_parser_base::GenericOptionInfo", %"struct.llvm::cl::OptionValue.82" }
%"class.llvm::cl::OptionValueCopy.84" = type <{ %"struct.llvm::cl::GenericOptionValue", i32, i8, [3 x i8] }>
%"class.llvm::cl::parser<Ice::FileType>::OptionInfo" = type { %"class.llvm::cl::generic_parser_base::GenericOptionInfo", %"struct.llvm::cl::OptionValue.106" }
%"class.llvm::cl::OptionValueCopy.108" = type <{ %"struct.llvm::cl::GenericOptionValue", i32, i8, [3 x i8] }>
%"class.llvm::cl::parser<Ice::ABI>::OptionInfo" = type { %"class.llvm::cl::generic_parser_base::GenericOptionInfo", %"struct.llvm::cl::OptionValue.121" }
%"class.llvm::cl::OptionValueCopy.123" = type <{ %"struct.llvm::cl::GenericOptionValue", i32, i8, [3 x i8] }>
%"class.llvm::cl::parser<Ice::TargetInstructionSet>::OptionInfo" = type { %"class.llvm::cl::generic_parser_base::GenericOptionInfo", %"struct.llvm::cl::OptionValue.136" }
%"class.llvm::cl::OptionValueCopy.138" = type <{ %"struct.llvm::cl::GenericOptionValue", i32, i8, [3 x i8] }>
%"class.llvm::cl::parser<Ice::VerboseItem>::OptionInfo" = type { %"class.llvm::cl::generic_parser_base::GenericOptionInfo", %"struct.llvm::cl::OptionValue.198" }
%"struct.llvm::cl::OptionValue.198" = type { %"struct.llvm::cl::OptionValueBase.base.202", [3 x i8] }
%"struct.llvm::cl::OptionValueBase.base.202" = type { %"class.llvm::cl::OptionValueCopy.base.201" }
%"class.llvm::cl::OptionValueCopy.base.201" = type <{ %"struct.llvm::cl::GenericOptionValue", i32, i8 }>
%"class.llvm::cl::OptionValueCopy.4" = type <{ %"struct.llvm::cl::GenericOptionValue", i32, i8, [3 x i8] }>
%"class.llvm::cl::OptionValueCopy.44" = type <{ %"struct.llvm::cl::GenericOptionValue", i8, i8, [6 x i8] }>
%"class.llvm::cl::OptionValueCopy.99" = type <{ %"struct.llvm::cl::GenericOptionValue", i32, i8, [3 x i8] }>
%"class.llvm::cl::OptionValueCopy.200" = type <{ %"struct.llvm::cl::GenericOptionValue", i32, i8, [3 x i8] }>
%"class.llvm::SmallPtrSetImplBase" = type <{ i8**, i8**, i32, i32, i32, [4 x i8] }>

$_ZN4llvm2cl3optINSt3__112basic_stringIcNS2_11char_traitsIcEENS2_9allocatorIcEEEELb0ENS0_6parserIS8_EEEC2IJNS0_15FormattingFlagsENS0_4descENS0_11initializerIA2_cEEEEEDpRKT_ = comdat any

$_ZN4llvm2cl3optINSt3__112basic_stringIcNS2_11char_traitsIcEENS2_9allocatorIcEEEELb0ENS0_6parserIS8_EEED2Ev = comdat any

$_ZN4llvm2cl3optIjLb0ENS0_6parserIjEEEC2IJA12_cNS0_4descENS0_11initializerIiEEEEEDpRKT_ = comdat any

$_ZN4llvm2cl6OptionD2Ev = comdat any

$_ZN4llvm2cl3optIN3Ice8OptLevelELb0ENS0_6parserIS3_EEEC2IJNS0_4descENS0_11initializerIS3_EENS0_10value_descENS0_11ValuesClassEEEEDpRKT_ = comdat any

$_ZN4llvm2cl3optIN3Ice8OptLevelELb0ENS0_6parserIS3_EEED2Ev = comdat any

$_ZN4llvm2cl3optINSt3__112basic_stringIcNS2_11char_traitsIcEENS2_9allocatorIcEEEELb0ENS0_6parserIS8_EEEC2IJA2_cNS0_4descENS0_11initializerISD_EENS0_10value_descEEEEDpRKT_ = comdat any

$_ZN4llvm2cl3optIN3Ice10TargetArchELb0ENS0_6parserIS3_EEEC2IJA7_cNS0_4descENS0_11initializerIS3_EENS0_11ValuesClassEEEEDpRKT_ = comdat any

$_ZN4llvm2cl3optIN3Ice10TargetArchELb0ENS0_6parserIS3_EEED2Ev = comdat any

$_ZN4llvm2cl3optIbLb0ENS0_6parserIbEEEC2IJA34_cNS0_4descENS0_11initializerIbEEEEEDpRKT_ = comdat any

$_ZN4llvm2cl3optIbLb0ENS0_6parserIbEEEC2IJA33_cNS0_4descENS0_11initializerIbEEEEEDpRKT_ = comdat any

$_ZN4llvm2cl3optIbLb0ENS0_6parserIbEEEC2IJA17_cNS0_4descENS0_11initializerIbEEEEEDpRKT_ = comdat any

$_ZN4llvm2cl3optIbLb0ENS0_6parserIbEEEC2IJA28_cNS0_4descEEEEDpRKT_ = comdat any

$_ZN4llvm2cl3optIbLb0ENS0_6parserIbEEEC2IJA13_cNS0_4descENS0_11initializerIbEEEEEDpRKT_ = comdat any

$_ZN4llvm2cl3optIbLb0ENS0_6parserIbEEEC2IJA15_cNS0_4descENS0_11initializerIbEEEEEDpRKT_ = comdat any

$_ZN4llvm2cl3optIbLb0ENS0_6parserIbEEEC2IJA16_cNS0_4descENS0_11initializerIbEEEEEDpRKT_ = comdat any

$_ZN4llvm2cl3optIbLb0ENS0_6parserIbEEEC2IJA14_cNS0_4descENS0_11initializerIbEEEEEDpRKT_ = comdat any

$_ZN4llvm2cl3optIbLb0ENS0_6parserIbEEEC2IJA15_cNS0_4descEEEEDpRKT_ = comdat any

$_ZN4llvm2cl3optIbLb0ENS0_6parserIbEEEC2IJA12_cNS0_4descEEEEDpRKT_ = comdat any

$_ZN4llvm2cl3optINSt3__112basic_stringIcNS2_11char_traitsIcEENS2_9allocatorIcEEEELb0ENS0_6parserIS8_EEEC2IJA24_cNS0_4descENS0_11initializerIA9_cEEEEEDpRKT_ = comdat any

$_ZN4llvm2cl3optINSt3__112basic_stringIcNS2_11char_traitsIcEENS2_9allocatorIcEEEELb0ENS0_6parserIS8_EEEC2IJA22_cNS0_4descENS0_11initializerIA7_cEEEEEDpRKT_ = comdat any

$_ZN4llvm2cl3optIbLb0ENS0_6parserIbEEEC2IJA8_cNS0_4descEEEEDpRKT_ = comdat any

$_ZN4llvm2cl3optIbLb0ENS0_6parserIbEEEC2IJA21_cNS0_4descENS0_11initializerIbEEEEEDpRKT_ = comdat any

$_ZN4llvm2cl3optIN3Ice11LCSEOptionsELb0ENS0_6parserIS3_EEEC2IJA5_cNS0_4descENS0_11initializerIS3_EENS0_11ValuesClassEEEEDpRKT_ = comdat any

$_ZN4llvm2cl3optIN3Ice11LCSEOptionsELb0ENS0_6parserIS3_EEED2Ev = comdat any

$_ZN4llvm2cl3optIbLb0ENS0_6parserIbEEEC2IJA10_cNS0_4descENS0_11initializerIbEEEEEDpRKT_ = comdat any

$_ZN4llvm2cl4listINSt3__112basic_stringIcNS2_11char_traitsIcEENS2_9allocatorIcEEEEbNS0_6parserIS8_EEEC2IJA12_cNS0_9MiscFlagsENS0_4descEEEEDpRKT_ = comdat any

$_ZN4llvm2cl4listINSt3__112basic_stringIcNS2_11char_traitsIcEENS2_9allocatorIcEEEEbNS0_6parserIS8_EEED2Ev = comdat any

$_ZN4llvm2cl3optIbLb0ENS0_6parserIbEEEC2IJA16_cNS0_4descEEEEDpRKT_ = comdat any

$_ZN4llvm2cl3optINSt3__112basic_stringIcNS2_11char_traitsIcEENS2_9allocatorIcEEEELb0ENS0_6parserIS8_EEEC2IJA9_cNS0_4descENS0_11initializerIA1_cEEEEEDpRKT_ = comdat any

$_ZN4llvm2cl3optINSt3__112basic_stringIcNS2_11char_traitsIcEENS2_9allocatorIcEEEELb0ENS0_6parserIS8_EEEC2IJA11_cNS0_4descENS0_11initializerIA2_cEEEEEDpRKT_ = comdat any

$_ZN4llvm2cl3optIbLb0ENS0_6parserIbEEEC2IJA19_cNS0_4descEEEEDpRKT_ = comdat any

$_ZN4llvm2cl3optIbLb0ENS0_6parserIbEEEC2IJA11_cNS0_4descENS0_11initializerIbEEEEEDpRKT_ = comdat any

$_ZN4llvm2cl3optIbLb0ENS0_6parserIbEEEC2IJA18_cNS0_4descENS0_11initializerIbEEEEEDpRKT_ = comdat any

$_ZN4llvm2cl3optINS_14NaClFileFormatELb0ENS0_6parserIS2_EEEC2IJA15_cNS0_4descENS0_11ValuesClassENS0_11initializerIS2_EEEEEDpRKT_ = comdat any

$_ZN4llvm2cl3optINS_14NaClFileFormatELb0ENS0_6parserIS2_EEED2Ev = comdat any

$_ZN4llvm2cl3optIbLb0ENS0_6parserIbEEEC2IJA19_cNS0_4descENS0_11initializerIbEEEEEDpRKT_ = comdat any

$_ZN4llvm2cl3optIbLb0ENS0_6parserIbEEEC2IJA26_cNS0_4descENS0_11initializerIbEEEEEDpRKT_ = comdat any

$_ZN4llvm2cl3optIjLb0ENS0_6parserIjEEEC2IJA15_cNS0_4descENS0_11initializerIiEEEEEDpRKT_ = comdat any

$_ZN4llvm2cl3optIbLb0ENS0_6parserIbEEEC2IJA5_cNS0_4descENS0_11initializerIbEEEEEDpRKT_ = comdat any

$_ZN4llvm2cl3optINSt3__112basic_stringIcNS2_11char_traitsIcEENS2_9allocatorIcEEEELb0ENS0_6parserIS8_EEEC2IJA4_cNS0_4descENS0_11initializerIA2_cEENS0_10value_descEEEEDpRKT_ = comdat any

$_ZN4llvm2cl3optIiLb0ENS0_6parserIiEEEC2IJA25_cNS0_4descENS0_11initializerIiEEEEEDpRKT_ = comdat any

$_ZN4llvm2cl3optIbLb0ENS0_6parserIbEEEC2IJA18_cNS0_4descEEEEDpRKT_ = comdat any

$_ZN4llvm2cl3optIN3Ice8FileTypeELb0ENS0_6parserIS3_EEEC2IJA9_cNS0_4descENS0_11initializerIS3_EENS0_11ValuesClassEEEEDpRKT_ = comdat any

$_ZN4llvm2cl3optIN3Ice8FileTypeELb0ENS0_6parserIS3_EEED2Ev = comdat any

$_ZN4llvm2cl3optIN3Ice3ABIELb0ENS0_6parserIS3_EEEC2IJA4_cNS0_4descENS0_11initializerIS3_EENS0_11ValuesClassEEEEDpRKT_ = comdat any

$_ZN4llvm2cl3optIN3Ice3ABIELb0ENS0_6parserIS3_EEED2Ev = comdat any

$_ZN4llvm2cl3optIbLb0ENS0_6parserIbEEEC2IJA17_cNS0_11initializerIbEENS0_4descEEEEDpRKT_ = comdat any

$_ZN4llvm2cl3optIbLb0ENS0_6parserIbEEEC2IJA12_cNS0_4descENS0_11initializerIbEEEEEDpRKT_ = comdat any

$_ZN4llvm2cl3optIbLb0ENS0_6parserIbEEEC2IJA7_cNS0_4descEEEEDpRKT_ = comdat any

$_ZN4llvm2cl3optIN3Ice20TargetInstructionSetELb0ENS0_6parserIS3_EEEC2IJA6_cNS0_4descENS0_11initializerIS3_EENS0_11ValuesClassEEEEDpRKT_ = comdat any

$_ZN4llvm2cl3optIN3Ice20TargetInstructionSetELb0ENS0_6parserIS3_EEED2Ev = comdat any

$_ZN4llvm2cl3optINSt3__112basic_stringIcNS2_11char_traitsIcEENS2_9allocatorIcEEEELb0ENS0_6parserIS8_EEEC2IJA7_cNS0_4descENS0_11initializerIA1_cEENS0_10value_descEEEEDpRKT_ = comdat any

$_ZN4llvm2cl3optIjLb0ENS0_6parserIjEEEC2IJA17_cNS0_4descENS0_11initializerIiEEEEEDpRKT_ = comdat any

$_ZN4llvm2cl3optINSt3__112basic_stringIcNS2_11char_traitsIcEENS2_9allocatorIcEEEELb0ENS0_6parserIS8_EEEC2IJA12_cNS0_4descENS0_11initializerIA2_cEEEEEDpRKT_ = comdat any

$_ZN4llvm2cl3optIbLb0ENS0_6parserIbEEEC2IJA13_cNS0_4descEEEEDpRKT_ = comdat any

$_ZN4llvm2cl3optINSt3__112basic_stringIcNS2_11char_traitsIcEENS2_9allocatorIcEEEELb0ENS0_6parserIS8_EEEC2IJA13_cNS0_4descENS0_11initializerIA1_cEEEEEDpRKT_ = comdat any

$_ZN4llvm2cl3optINSt3__112basic_stringIcNS2_11char_traitsIcEENS2_9allocatorIcEEEELb0ENS0_6parserIS8_EEEC2IJA15_cNS0_4descENS0_11initializerIA2_cEEEEEDpRKT_ = comdat any

$_ZN4llvm2cl4listINSt3__112basic_stringIcNS2_11char_traitsIcEENS2_9allocatorIcEEEEbNS0_6parserIS8_EEEC2IJA8_cNS0_9MiscFlagsENS0_4descEEEEDpRKT_ = comdat any

$_ZN4llvm2cl4listIN3Ice11VerboseItemEbNS0_6parserIS3_EEEC2IJA8_cNS0_9MiscFlagsENS0_4descENS0_11ValuesClassEEEEDpRKT_ = comdat any

$_ZN4llvm2cl4listIN3Ice11VerboseItemEbNS0_6parserIS3_EEED2Ev = comdat any

$_ZN4llvm2cl3optINSt3__112basic_stringIcNS2_11char_traitsIcEENS2_9allocatorIcEEEELb0ENS0_6parserIS8_EEEC2IJA14_cNS0_4descENS0_11initializerIA2_cEEEEEDpRKT_ = comdat any

$_ZN4llvm2cl5aliasC2IJA13_cNS0_4descENS0_12OptionHiddenENS0_8aliasoptEEEEDpRKT_ = comdat any

$_ZN3Ice7ClFlagsC2Ev = comdat any

$_ZN3Ice7ClFlagsD2Ev = comdat any

$_ZNK4llvm2cl15OptionValueCopyINSt3__112basic_stringIcNS2_11char_traitsIcEENS2_9allocatorIcEEEEE7compareERKNS0_18GenericOptionValueE = comdat any

$_ZN4llvm2cl6parserIN3Ice8OptLevelEED2Ev = comdat any

$_ZN4llvm2cl3optIN3Ice8OptLevelELb0ENS0_6parserIS3_EEE16handleOccurrenceEjNS_9StringRefES7_ = comdat any

$_ZNK4llvm2cl3optIN3Ice8OptLevelELb0ENS0_6parserIS3_EEE27getValueExpectedFlagDefaultEv = comdat any

$_ZN4llvm2cl3optIN3Ice8OptLevelELb0ENS0_6parserIS3_EEED0Ev = comdat any

$_ZNK4llvm2cl3optIN3Ice8OptLevelELb0ENS0_6parserIS3_EEE14getOptionWidthEv = comdat any

$_ZNK4llvm2cl3optIN3Ice8OptLevelELb0ENS0_6parserIS3_EEE15printOptionInfoEm = comdat any

$_ZNK4llvm2cl3optIN3Ice8OptLevelELb0ENS0_6parserIS3_EEE16printOptionValueEmb = comdat any

$_ZN4llvm2cl3optIN3Ice8OptLevelELb0ENS0_6parserIS3_EEE19getExtraOptionNamesERNS_15SmallVectorImplINS_9StringRefEEE = comdat any

$_ZN4llvm2cl6parserIN3Ice8OptLevelEED0Ev = comdat any

$_ZNK4llvm2cl6parserIN3Ice8OptLevelEE13getNumOptionsEv = comdat any

$_ZNK4llvm2cl6parserIN3Ice8OptLevelEE9getOptionEj = comdat any

$_ZNK4llvm2cl6parserIN3Ice8OptLevelEE14getDescriptionEj = comdat any

$_ZNK4llvm2cl6parserIN3Ice8OptLevelEE14getOptionValueEj = comdat any

$_ZN4llvm2cl6parserIN3Ice8OptLevelEE5parseERNS0_6OptionENS_9StringRefES7_RS3_ = comdat any

$_ZNK4llvm2cl15OptionValueCopyIN3Ice8OptLevelEE7compareERKNS0_18GenericOptionValueE = comdat any

$_ZN4llvm2cl19generic_parser_base19getExtraOptionNamesERNS_15SmallVectorImplINS_9StringRefEEE = comdat any

$_ZN4llvm23SmallVectorTemplateBaseINS_9StringRefELb1EE9push_backERKS1_ = comdat any

$_ZN4llvm2cl6parserIN3Ice10TargetArchEED2Ev = comdat any

$_ZN4llvm2cl3optIN3Ice10TargetArchELb0ENS0_6parserIS3_EEE16handleOccurrenceEjNS_9StringRefES7_ = comdat any

$_ZNK4llvm2cl3optIN3Ice10TargetArchELb0ENS0_6parserIS3_EEE27getValueExpectedFlagDefaultEv = comdat any

$_ZN4llvm2cl3optIN3Ice10TargetArchELb0ENS0_6parserIS3_EEED0Ev = comdat any

$_ZNK4llvm2cl3optIN3Ice10TargetArchELb0ENS0_6parserIS3_EEE14getOptionWidthEv = comdat any

$_ZNK4llvm2cl3optIN3Ice10TargetArchELb0ENS0_6parserIS3_EEE15printOptionInfoEm = comdat any

$_ZNK4llvm2cl3optIN3Ice10TargetArchELb0ENS0_6parserIS3_EEE16printOptionValueEmb = comdat any

$_ZN4llvm2cl3optIN3Ice10TargetArchELb0ENS0_6parserIS3_EEE19getExtraOptionNamesERNS_15SmallVectorImplINS_9StringRefEEE = comdat any

$_ZN4llvm2cl6parserIN3Ice10TargetArchEED0Ev = comdat any

$_ZNK4llvm2cl6parserIN3Ice10TargetArchEE13getNumOptionsEv = comdat any

$_ZNK4llvm2cl6parserIN3Ice10TargetArchEE9getOptionEj = comdat any

$_ZNK4llvm2cl6parserIN3Ice10TargetArchEE14getDescriptionEj = comdat any

$_ZNK4llvm2cl6parserIN3Ice10TargetArchEE14getOptionValueEj = comdat any

$_ZN4llvm2cl6parserIN3Ice10TargetArchEE5parseERNS0_6OptionENS_9StringRefES7_RS3_ = comdat any

$_ZNK4llvm2cl15OptionValueCopyIN3Ice10TargetArchEE7compareERKNS0_18GenericOptionValueE = comdat any

$_ZN4llvm2cl6parserIN3Ice11LCSEOptionsEED2Ev = comdat any

$_ZN4llvm2cl3optIN3Ice11LCSEOptionsELb0ENS0_6parserIS3_EEE16handleOccurrenceEjNS_9StringRefES7_ = comdat any

$_ZNK4llvm2cl3optIN3Ice11LCSEOptionsELb0ENS0_6parserIS3_EEE27getValueExpectedFlagDefaultEv = comdat any

$_ZN4llvm2cl3optIN3Ice11LCSEOptionsELb0ENS0_6parserIS3_EEED0Ev = comdat any

$_ZNK4llvm2cl3optIN3Ice11LCSEOptionsELb0ENS0_6parserIS3_EEE14getOptionWidthEv = comdat any

$_ZNK4llvm2cl3optIN3Ice11LCSEOptionsELb0ENS0_6parserIS3_EEE15printOptionInfoEm = comdat any

$_ZNK4llvm2cl3optIN3Ice11LCSEOptionsELb0ENS0_6parserIS3_EEE16printOptionValueEmb = comdat any

$_ZN4llvm2cl3optIN3Ice11LCSEOptionsELb0ENS0_6parserIS3_EEE19getExtraOptionNamesERNS_15SmallVectorImplINS_9StringRefEEE = comdat any

$_ZN4llvm2cl6parserIN3Ice11LCSEOptionsEED0Ev = comdat any

$_ZNK4llvm2cl6parserIN3Ice11LCSEOptionsEE13getNumOptionsEv = comdat any

$_ZNK4llvm2cl6parserIN3Ice11LCSEOptionsEE9getOptionEj = comdat any

$_ZNK4llvm2cl6parserIN3Ice11LCSEOptionsEE14getDescriptionEj = comdat any

$_ZNK4llvm2cl6parserIN3Ice11LCSEOptionsEE14getOptionValueEj = comdat any

$_ZN4llvm2cl6parserIN3Ice11LCSEOptionsEE5parseERNS0_6OptionENS_9StringRefES7_RS3_ = comdat any

$_ZNK4llvm2cl15OptionValueCopyIN3Ice11LCSEOptionsEE7compareERKNS0_18GenericOptionValueE = comdat any

$_ZN4llvm2cl4listINSt3__112basic_stringIcNS2_11char_traitsIcEENS2_9allocatorIcEEEEbNS0_6parserIS8_EEE16handleOccurrenceEjNS_9StringRefESC_ = comdat any

$_ZNK4llvm2cl4listINSt3__112basic_stringIcNS2_11char_traitsIcEENS2_9allocatorIcEEEEbNS0_6parserIS8_EEE27getValueExpectedFlagDefaultEv = comdat any

$_ZN4llvm2cl4listINSt3__112basic_stringIcNS2_11char_traitsIcEENS2_9allocatorIcEEEEbNS0_6parserIS8_EEED0Ev = comdat any

$_ZNK4llvm2cl4listINSt3__112basic_stringIcNS2_11char_traitsIcEENS2_9allocatorIcEEEEbNS0_6parserIS8_EEE14getOptionWidthEv = comdat any

$_ZNK4llvm2cl4listINSt3__112basic_stringIcNS2_11char_traitsIcEENS2_9allocatorIcEEEEbNS0_6parserIS8_EEE15printOptionInfoEm = comdat any

$_ZNK4llvm2cl4listINSt3__112basic_stringIcNS2_11char_traitsIcEENS2_9allocatorIcEEEEbNS0_6parserIS8_EEE16printOptionValueEmb = comdat any

$_ZN4llvm2cl4listINSt3__112basic_stringIcNS2_11char_traitsIcEENS2_9allocatorIcEEEEbNS0_6parserIS8_EEE19getExtraOptionNamesERNS_15SmallVectorImplINS_9StringRefEEE = comdat any

$_ZN4llvm2cl6parserINSt3__112basic_stringIcNS2_11char_traitsIcEENS2_9allocatorIcEEEEE5parseERNS0_6OptionENS_9StringRefESC_RS8_ = comdat any

$_ZNSt3__16vectorINS_12basic_stringIcNS_11char_traitsIcEENS_9allocatorIcEEEENS4_IS6_EEE21__push_back_slow_pathIRKS6_EEvOT_ = comdat any

$_ZNSt3__114__split_bufferINS_12basic_stringIcNS_11char_traitsIcEENS_9allocatorIcEEEERNS4_IS6_EEEC2EmmS8_ = comdat any

$_ZNSt3__114__split_bufferINS_12basic_stringIcNS_11char_traitsIcEENS_9allocatorIcEEEERNS4_IS6_EEED2Ev = comdat any

$_ZNSt3__114__split_bufferINS_12basic_stringIcNS_11char_traitsIcEENS_9allocatorIcEEEERNS4_IS6_EEE17__destruct_at_endEPS6_ = comdat any

$_ZN4llvm2cl6parserINS_14NaClFileFormatEED2Ev = comdat any

$_ZN4llvm2cl3optINS_14NaClFileFormatELb0ENS0_6parserIS2_EEE16handleOccurrenceEjNS_9StringRefES6_ = comdat any

$_ZNK4llvm2cl3optINS_14NaClFileFormatELb0ENS0_6parserIS2_EEE27getValueExpectedFlagDefaultEv = comdat any

$_ZN4llvm2cl3optINS_14NaClFileFormatELb0ENS0_6parserIS2_EEED0Ev = comdat any

$_ZNK4llvm2cl3optINS_14NaClFileFormatELb0ENS0_6parserIS2_EEE14getOptionWidthEv = comdat any

$_ZNK4llvm2cl3optINS_14NaClFileFormatELb0ENS0_6parserIS2_EEE15printOptionInfoEm = comdat any

$_ZNK4llvm2cl3optINS_14NaClFileFormatELb0ENS0_6parserIS2_EEE16printOptionValueEmb = comdat any

$_ZN4llvm2cl3optINS_14NaClFileFormatELb0ENS0_6parserIS2_EEE19getExtraOptionNamesERNS_15SmallVectorImplINS_9StringRefEEE = comdat any

$_ZN4llvm2cl6parserINS_14NaClFileFormatEED0Ev = comdat any

$_ZNK4llvm2cl6parserINS_14NaClFileFormatEE13getNumOptionsEv = comdat any

$_ZNK4llvm2cl6parserINS_14NaClFileFormatEE9getOptionEj = comdat any

$_ZNK4llvm2cl6parserINS_14NaClFileFormatEE14getDescriptionEj = comdat any

$_ZNK4llvm2cl6parserINS_14NaClFileFormatEE14getOptionValueEj = comdat any

$_ZN4llvm2cl6parserINS_14NaClFileFormatEE5parseERNS0_6OptionENS_9StringRefES6_RS2_ = comdat any

$_ZNK4llvm2cl15OptionValueCopyINS_14NaClFileFormatEE7compareERKNS0_18GenericOptionValueE = comdat any

$_ZN4llvm2cl6parserIN3Ice8FileTypeEED2Ev = comdat any

$_ZN4llvm2cl3optIN3Ice8FileTypeELb0ENS0_6parserIS3_EEE16handleOccurrenceEjNS_9StringRefES7_ = comdat any

$_ZNK4llvm2cl3optIN3Ice8FileTypeELb0ENS0_6parserIS3_EEE27getValueExpectedFlagDefaultEv = comdat any

$_ZN4llvm2cl3optIN3Ice8FileTypeELb0ENS0_6parserIS3_EEED0Ev = comdat any

$_ZNK4llvm2cl3optIN3Ice8FileTypeELb0ENS0_6parserIS3_EEE14getOptionWidthEv = comdat any

$_ZNK4llvm2cl3optIN3Ice8FileTypeELb0ENS0_6parserIS3_EEE15printOptionInfoEm = comdat any

$_ZNK4llvm2cl3optIN3Ice8FileTypeELb0ENS0_6parserIS3_EEE16printOptionValueEmb = comdat any

$_ZN4llvm2cl3optIN3Ice8FileTypeELb0ENS0_6parserIS3_EEE19getExtraOptionNamesERNS_15SmallVectorImplINS_9StringRefEEE = comdat any

$_ZN4llvm2cl6parserIN3Ice8FileTypeEED0Ev = comdat any

$_ZNK4llvm2cl6parserIN3Ice8FileTypeEE13getNumOptionsEv = comdat any

$_ZNK4llvm2cl6parserIN3Ice8FileTypeEE9getOptionEj = comdat any

$_ZNK4llvm2cl6parserIN3Ice8FileTypeEE14getDescriptionEj = comdat any

$_ZNK4llvm2cl6parserIN3Ice8FileTypeEE14getOptionValueEj = comdat any

$_ZN4llvm2cl6parserIN3Ice8FileTypeEE5parseERNS0_6OptionENS_9StringRefES7_RS3_ = comdat any

$_ZNK4llvm2cl15OptionValueCopyIN3Ice8FileTypeEE7compareERKNS0_18GenericOptionValueE = comdat any

$_ZN4llvm2cl6parserIN3Ice3ABIEED2Ev = comdat any

$_ZN4llvm2cl3optIN3Ice3ABIELb0ENS0_6parserIS3_EEE16handleOccurrenceEjNS_9StringRefES7_ = comdat any

$_ZNK4llvm2cl3optIN3Ice3ABIELb0ENS0_6parserIS3_EEE27getValueExpectedFlagDefaultEv = comdat any

$_ZN4llvm2cl3optIN3Ice3ABIELb0ENS0_6parserIS3_EEED0Ev = comdat any

$_ZNK4llvm2cl3optIN3Ice3ABIELb0ENS0_6parserIS3_EEE14getOptionWidthEv = comdat any

$_ZNK4llvm2cl3optIN3Ice3ABIELb0ENS0_6parserIS3_EEE15printOptionInfoEm = comdat any

$_ZNK4llvm2cl3optIN3Ice3ABIELb0ENS0_6parserIS3_EEE16printOptionValueEmb = comdat any

$_ZN4llvm2cl3optIN3Ice3ABIELb0ENS0_6parserIS3_EEE19getExtraOptionNamesERNS_15SmallVectorImplINS_9StringRefEEE = comdat any

$_ZN4llvm2cl6parserIN3Ice3ABIEED0Ev = comdat any

$_ZNK4llvm2cl6parserIN3Ice3ABIEE13getNumOptionsEv = comdat any

$_ZNK4llvm2cl6parserIN3Ice3ABIEE9getOptionEj = comdat any

$_ZNK4llvm2cl6parserIN3Ice3ABIEE14getDescriptionEj = comdat any

$_ZNK4llvm2cl6parserIN3Ice3ABIEE14getOptionValueEj = comdat any

$_ZN4llvm2cl6parserIN3Ice3ABIEE5parseERNS0_6OptionENS_9StringRefES7_RS3_ = comdat any

$_ZNK4llvm2cl15OptionValueCopyIN3Ice3ABIEE7compareERKNS0_18GenericOptionValueE = comdat any

$_ZN4llvm2cl6parserIN3Ice20TargetInstructionSetEED2Ev = comdat any

$_ZN4llvm2cl3optIN3Ice20TargetInstructionSetELb0ENS0_6parserIS3_EEE16handleOccurrenceEjNS_9StringRefES7_ = comdat any

$_ZNK4llvm2cl3optIN3Ice20TargetInstructionSetELb0ENS0_6parserIS3_EEE27getValueExpectedFlagDefaultEv = comdat any

$_ZN4llvm2cl3optIN3Ice20TargetInstructionSetELb0ENS0_6parserIS3_EEED0Ev = comdat any

$_ZNK4llvm2cl3optIN3Ice20TargetInstructionSetELb0ENS0_6parserIS3_EEE14getOptionWidthEv = comdat any

$_ZNK4llvm2cl3optIN3Ice20TargetInstructionSetELb0ENS0_6parserIS3_EEE15printOptionInfoEm = comdat any

$_ZNK4llvm2cl3optIN3Ice20TargetInstructionSetELb0ENS0_6parserIS3_EEE16printOptionValueEmb = comdat any

$_ZN4llvm2cl3optIN3Ice20TargetInstructionSetELb0ENS0_6parserIS3_EEE19getExtraOptionNamesERNS_15SmallVectorImplINS_9StringRefEEE = comdat any

$_ZN4llvm2cl6parserIN3Ice20TargetInstructionSetEED0Ev = comdat any

$_ZNK4llvm2cl6parserIN3Ice20TargetInstructionSetEE13getNumOptionsEv = comdat any

$_ZNK4llvm2cl6parserIN3Ice20TargetInstructionSetEE9getOptionEj = comdat any

$_ZNK4llvm2cl6parserIN3Ice20TargetInstructionSetEE14getDescriptionEj = comdat any

$_ZNK4llvm2cl6parserIN3Ice20TargetInstructionSetEE14getOptionValueEj = comdat any

$_ZN4llvm2cl6parserIN3Ice20TargetInstructionSetEE5parseERNS0_6OptionENS_9StringRefES7_RS3_ = comdat any

$_ZNK4llvm2cl15OptionValueCopyIN3Ice20TargetInstructionSetEE7compareERKNS0_18GenericOptionValueE = comdat any

$_ZN4llvm2cl6parserIN3Ice11VerboseItemEED2Ev = comdat any

$_ZN4llvm2cl4listIN3Ice11VerboseItemEbNS0_6parserIS3_EEE16handleOccurrenceEjNS_9StringRefES7_ = comdat any

$_ZNK4llvm2cl4listIN3Ice11VerboseItemEbNS0_6parserIS3_EEE27getValueExpectedFlagDefaultEv = comdat any

$_ZN4llvm2cl4listIN3Ice11VerboseItemEbNS0_6parserIS3_EEED0Ev = comdat any

$_ZNK4llvm2cl4listIN3Ice11VerboseItemEbNS0_6parserIS3_EEE14getOptionWidthEv = comdat any

$_ZNK4llvm2cl4listIN3Ice11VerboseItemEbNS0_6parserIS3_EEE15printOptionInfoEm = comdat any

$_ZNK4llvm2cl4listIN3Ice11VerboseItemEbNS0_6parserIS3_EEE16printOptionValueEmb = comdat any

$_ZN4llvm2cl4listIN3Ice11VerboseItemEbNS0_6parserIS3_EEE19getExtraOptionNamesERNS_15SmallVectorImplINS_9StringRefEEE = comdat any

$_ZN4llvm2cl6parserIN3Ice11VerboseItemEED0Ev = comdat any

$_ZNK4llvm2cl6parserIN3Ice11VerboseItemEE13getNumOptionsEv = comdat any

$_ZNK4llvm2cl6parserIN3Ice11VerboseItemEE9getOptionEj = comdat any

$_ZNK4llvm2cl6parserIN3Ice11VerboseItemEE14getDescriptionEj = comdat any

$_ZNK4llvm2cl6parserIN3Ice11VerboseItemEE14getOptionValueEj = comdat any

$_ZN4llvm2cl6parserIN3Ice11VerboseItemEE5parseERNS0_6OptionENS_9StringRefES7_RS3_ = comdat any

$_ZNSt3__112__hash_tableINS_12basic_stringIcNS_11char_traitsIcEENS_9allocatorIcEEEENS_4hashIS6_EENS_8equal_toIS6_EENS4_IS6_EEED2Ev = comdat any

$_ZNSt3__112__hash_tableINS_12basic_stringIcNS_11char_traitsIcEENS_9allocatorIcEEEENS_4hashIS6_EENS_8equal_toIS6_EENS4_IS6_EEE17__deallocate_nodeEPNS_16__hash_node_baseIPNS_11__hash_nodeIS6_PvEEEE = comdat any

$_ZNSt3__16vectorINS_12basic_stringIcNS_11char_traitsIcEENS_9allocatorIcEEEENS4_IS6_EEEC2ERKS8_ = comdat any

$_ZNSt3__16vectorINS_12basic_stringIcNS_11char_traitsIcEENS_9allocatorIcEEEENS4_IS6_EEE11__vallocateEm = comdat any

$_ZNSt3__16vectorINS_12basic_stringIcNS_11char_traitsIcEENS_9allocatorIcEEEENS4_IS6_EEE18__construct_at_endIPS6_EENS_9enable_ifIXsr27__is_cpp17_forward_iteratorIT_EE5valueEvE4typeESC_SC_m = comdat any

$_ZNSt3__113__vector_baseINS_12basic_stringIcNS_11char_traitsIcEENS_9allocatorIcEEEENS4_IS6_EEED2Ev = comdat any

$_ZNSt3__113__vector_baseINS_12basic_stringIcNS_11char_traitsIcEENS_9allocatorIcEEEENS4_IS6_EEE5clearEv = comdat any

$_ZNK4llvm2cl11initializerIA2_cE5applyINS0_3optINSt3__112basic_stringIcNS6_11char_traitsIcEENS6_9allocatorIcEEEELb0ENS0_6parserISC_EEEEEEvRT_ = comdat any

$_ZNSt3__112basic_stringIcNS_11char_traitsIcEENS_9allocatorIcEEEC2IDnEEPKc = comdat any

$_ZNSt3__112basic_stringIcNS_11char_traitsIcEENS_9allocatorIcEEEaSERKS5_ = comdat any

$_ZN4llvm2cl5applyINS0_3optIjLb0ENS0_6parserIjEEEEA12_cJNS0_4descENS0_11initializerIiEEEEEvPT_RKT0_DpRKT1_ = comdat any

$_ZNK4llvm2cl15OptionValueCopyIjE7compareERKNS0_18GenericOptionValueE = comdat any

$_ZN4llvm15SmallVectorImplINS_2cl15OptionEnumValueEE6appendIPKS2_EEvT_S7_ = comdat any

$_ZNK4llvm2cl11ValuesClass5applyINS0_3optIN3Ice8OptLevelELb0ENS0_6parserIS5_EEEEEEvRT_ = comdat any

$_ZN4llvm2cl6parserIN3Ice8OptLevelEE16addLiteralOptionIiEEvNS_9StringRefERKT_S6_ = comdat any

$_ZN4llvm23SmallVectorTemplateBaseINS_2cl6parserIN3Ice8OptLevelEE10OptionInfoELb0EE9push_backERKS6_ = comdat any

$_ZN4llvm23SmallVectorTemplateBaseINS_2cl6parserIN3Ice8OptLevelEE10OptionInfoELb0EE4growEm = comdat any

$_ZN4llvm2cl5applyINS0_3optINSt3__112basic_stringIcNS3_11char_traitsIcEENS3_9allocatorIcEEEELb0ENS0_6parserIS9_EEEEA2_cJNS0_4descENS0_11initializerISD_EENS0_10value_descEEEEvPT_RKT0_DpRKT1_ = comdat any

$_ZN4llvm2cl5applyINS0_3optIN3Ice10TargetArchELb0ENS0_6parserIS4_EEEEA7_cJNS0_4descENS0_11initializerIS4_EENS0_11ValuesClassEEEEvPT_RKT0_DpRKT1_ = comdat any

$_ZNK4llvm2cl11ValuesClass5applyINS0_3optIN3Ice10TargetArchELb0ENS0_6parserIS5_EEEEEEvRT_ = comdat any

$_ZN4llvm2cl6parserIN3Ice10TargetArchEE16addLiteralOptionIiEEvNS_9StringRefERKT_S6_ = comdat any

$_ZN4llvm23SmallVectorTemplateBaseINS_2cl6parserIN3Ice10TargetArchEE10OptionInfoELb0EE9push_backERKS6_ = comdat any

$_ZN4llvm23SmallVectorTemplateBaseINS_2cl6parserIN3Ice10TargetArchEE10OptionInfoELb0EE4growEm = comdat any

$_ZN4llvm2cl5applyINS0_3optIbLb0ENS0_6parserIbEEEEA34_cJNS0_4descENS0_11initializerIbEEEEEvPT_RKT0_DpRKT1_ = comdat any

$_ZNK4llvm2cl15OptionValueCopyIbE7compareERKNS0_18GenericOptionValueE = comdat any

$_ZN4llvm2cl5applyINS0_3optIbLb0ENS0_6parserIbEEEEA33_cJNS0_4descENS0_11initializerIbEEEEEvPT_RKT0_DpRKT1_ = comdat any

$_ZN4llvm2cl5applyINS0_3optIbLb0ENS0_6parserIbEEEEA17_cJNS0_4descENS0_11initializerIbEEEEEvPT_RKT0_DpRKT1_ = comdat any

$_ZN4llvm2cl5applyINS0_3optIbLb0ENS0_6parserIbEEEEA28_cJNS0_4descEEEEvPT_RKT0_DpRKT1_ = comdat any

$_ZN4llvm2cl5applyINS0_3optIbLb0ENS0_6parserIbEEEEA13_cJNS0_4descENS0_11initializerIbEEEEEvPT_RKT0_DpRKT1_ = comdat any

$_ZN4llvm2cl5applyINS0_3optIbLb0ENS0_6parserIbEEEEA15_cJNS0_4descENS0_11initializerIbEEEEEvPT_RKT0_DpRKT1_ = comdat any

$_ZN4llvm2cl5applyINS0_3optIbLb0ENS0_6parserIbEEEEA16_cJNS0_4descENS0_11initializerIbEEEEEvPT_RKT0_DpRKT1_ = comdat any

$_ZN4llvm2cl5applyINS0_3optIbLb0ENS0_6parserIbEEEEA14_cJNS0_4descENS0_11initializerIbEEEEEvPT_RKT0_DpRKT1_ = comdat any

$_ZN4llvm2cl5applyINS0_3optIbLb0ENS0_6parserIbEEEEA15_cJNS0_4descEEEEvPT_RKT0_DpRKT1_ = comdat any

$_ZN4llvm2cl5applyINS0_3optIbLb0ENS0_6parserIbEEEEA12_cJNS0_4descEEEEvPT_RKT0_DpRKT1_ = comdat any

$_ZN4llvm2cl5applyINS0_3optINSt3__112basic_stringIcNS3_11char_traitsIcEENS3_9allocatorIcEEEELb0ENS0_6parserIS9_EEEEA24_cJNS0_4descENS0_11initializerIA9_cEEEEEvPT_RKT0_DpRKT1_ = comdat any

$_ZNK4llvm2cl11initializerIA9_cE5applyINS0_3optINSt3__112basic_stringIcNS6_11char_traitsIcEENS6_9allocatorIcEEEELb0ENS0_6parserISC_EEEEEEvRT_ = comdat any

$_ZN4llvm2cl5applyINS0_3optINSt3__112basic_stringIcNS3_11char_traitsIcEENS3_9allocatorIcEEEELb0ENS0_6parserIS9_EEEEA22_cJNS0_4descENS0_11initializerIA7_cEEEEEvPT_RKT0_DpRKT1_ = comdat any

$_ZNK4llvm2cl11initializerIA7_cE5applyINS0_3optINSt3__112basic_stringIcNS6_11char_traitsIcEENS6_9allocatorIcEEEELb0ENS0_6parserISC_EEEEEEvRT_ = comdat any

$_ZN4llvm2cl5applyINS0_3optIbLb0ENS0_6parserIbEEEEA8_cJNS0_4descEEEEvPT_RKT0_DpRKT1_ = comdat any

$_ZN4llvm2cl5applyINS0_3optIbLb0ENS0_6parserIbEEEEA21_cJNS0_4descENS0_11initializerIbEEEEEvPT_RKT0_DpRKT1_ = comdat any

$_ZN4llvm2cl5applyINS0_3optIN3Ice11LCSEOptionsELb0ENS0_6parserIS4_EEEEA5_cJNS0_4descENS0_11initializerIS4_EENS0_11ValuesClassEEEEvPT_RKT0_DpRKT1_ = comdat any

$_ZNK4llvm2cl11ValuesClass5applyINS0_3optIN3Ice11LCSEOptionsELb0ENS0_6parserIS5_EEEEEEvRT_ = comdat any

$_ZN4llvm2cl6parserIN3Ice11LCSEOptionsEE16addLiteralOptionIiEEvNS_9StringRefERKT_S6_ = comdat any

$_ZN4llvm23SmallVectorTemplateBaseINS_2cl6parserIN3Ice11LCSEOptionsEE10OptionInfoELb0EE9push_backERKS6_ = comdat any

$_ZN4llvm23SmallVectorTemplateBaseINS_2cl6parserIN3Ice11LCSEOptionsEE10OptionInfoELb0EE4growEm = comdat any

$_ZN4llvm2cl5applyINS0_3optIbLb0ENS0_6parserIbEEEEA10_cJNS0_4descENS0_11initializerIbEEEEEvPT_RKT0_DpRKT1_ = comdat any

$_ZN4llvm2cl5applyINS0_4listINSt3__112basic_stringIcNS3_11char_traitsIcEENS3_9allocatorIcEEEEbNS0_6parserIS9_EEEEA12_cJNS0_9MiscFlagsENS0_4descEEEEvPT_RKT0_DpRKT1_ = comdat any

$_ZN4llvm2cl5applyINS0_3optIbLb0ENS0_6parserIbEEEEA16_cJNS0_4descEEEEvPT_RKT0_DpRKT1_ = comdat any

$_ZN4llvm2cl5applyINS0_3optINSt3__112basic_stringIcNS3_11char_traitsIcEENS3_9allocatorIcEEEELb0ENS0_6parserIS9_EEEEA9_cJNS0_4descENS0_11initializerIA1_cEEEEEvPT_RKT0_DpRKT1_ = comdat any

$_ZNK4llvm2cl11initializerIA1_cE5applyINS0_3optINSt3__112basic_stringIcNS6_11char_traitsIcEENS6_9allocatorIcEEEELb0ENS0_6parserISC_EEEEEEvRT_ = comdat any

$_ZN4llvm2cl5applyINS0_3optINSt3__112basic_stringIcNS3_11char_traitsIcEENS3_9allocatorIcEEEELb0ENS0_6parserIS9_EEEEA11_cJNS0_4descENS0_11initializerIA2_cEEEEEvPT_RKT0_DpRKT1_ = comdat any

$_ZN4llvm2cl5applyINS0_3optIbLb0ENS0_6parserIbEEEEA19_cJNS0_4descEEEEvPT_RKT0_DpRKT1_ = comdat any

$_ZN4llvm2cl5applyINS0_3optIbLb0ENS0_6parserIbEEEEA11_cJNS0_4descENS0_11initializerIbEEEEEvPT_RKT0_DpRKT1_ = comdat any

$_ZN4llvm2cl5applyINS0_3optIbLb0ENS0_6parserIbEEEEA18_cJNS0_4descENS0_11initializerIbEEEEEvPT_RKT0_DpRKT1_ = comdat any

$_ZN4llvm2cl5applyINS0_3optINS_14NaClFileFormatELb0ENS0_6parserIS3_EEEEA15_cJNS0_4descENS0_11ValuesClassENS0_11initializerIS3_EEEEEvPT_RKT0_DpRKT1_ = comdat any

$_ZNK4llvm2cl11ValuesClass5applyINS0_3optINS_14NaClFileFormatELb0ENS0_6parserIS4_EEEEEEvRT_ = comdat any

$_ZN4llvm2cl6parserINS_14NaClFileFormatEE16addLiteralOptionIiEEvNS_9StringRefERKT_S5_ = comdat any

$_ZN4llvm23SmallVectorTemplateBaseINS_2cl6parserINS_14NaClFileFormatEE10OptionInfoELb0EE9push_backERKS5_ = comdat any

$_ZN4llvm23SmallVectorTemplateBaseINS_2cl6parserINS_14NaClFileFormatEE10OptionInfoELb0EE4growEm = comdat any

$_ZN4llvm2cl5applyINS0_3optIbLb0ENS0_6parserIbEEEEA19_cJNS0_4descENS0_11initializerIbEEEEEvPT_RKT0_DpRKT1_ = comdat any

$_ZN4llvm2cl5applyINS0_3optIbLb0ENS0_6parserIbEEEEA26_cJNS0_4descENS0_11initializerIbEEEEEvPT_RKT0_DpRKT1_ = comdat any

$_ZN4llvm2cl5applyINS0_3optIjLb0ENS0_6parserIjEEEEA15_cJNS0_4descENS0_11initializerIiEEEEEvPT_RKT0_DpRKT1_ = comdat any

$_ZN4llvm2cl5applyINS0_3optIbLb0ENS0_6parserIbEEEEA5_cJNS0_4descENS0_11initializerIbEEEEEvPT_RKT0_DpRKT1_ = comdat any

$_ZN4llvm2cl5applyINS0_3optINSt3__112basic_stringIcNS3_11char_traitsIcEENS3_9allocatorIcEEEELb0ENS0_6parserIS9_EEEEA4_cJNS0_4descENS0_11initializerIA2_cEENS0_10value_descEEEEvPT_RKT0_DpRKT1_ = comdat any

$_ZN4llvm2cl5applyINS0_3optIiLb0ENS0_6parserIiEEEEA25_cJNS0_4descENS0_11initializerIiEEEEEvPT_RKT0_DpRKT1_ = comdat any

$_ZNK4llvm2cl15OptionValueCopyIiE7compareERKNS0_18GenericOptionValueE = comdat any

$_ZN4llvm2cl5applyINS0_3optIbLb0ENS0_6parserIbEEEEA18_cJNS0_4descEEEEvPT_RKT0_DpRKT1_ = comdat any

$_ZN4llvm2cl5applyINS0_3optIN3Ice8FileTypeELb0ENS0_6parserIS4_EEEEA9_cJNS0_4descENS0_11initializerIS4_EENS0_11ValuesClassEEEEvPT_RKT0_DpRKT1_ = comdat any

$_ZNK4llvm2cl11ValuesClass5applyINS0_3optIN3Ice8FileTypeELb0ENS0_6parserIS5_EEEEEEvRT_ = comdat any

$_ZN4llvm2cl6parserIN3Ice8FileTypeEE16addLiteralOptionIiEEvNS_9StringRefERKT_S6_ = comdat any

$_ZN4llvm23SmallVectorTemplateBaseINS_2cl6parserIN3Ice8FileTypeEE10OptionInfoELb0EE9push_backERKS6_ = comdat any

$_ZN4llvm23SmallVectorTemplateBaseINS_2cl6parserIN3Ice8FileTypeEE10OptionInfoELb0EE4growEm = comdat any

$_ZN4llvm2cl5applyINS0_3optIN3Ice3ABIELb0ENS0_6parserIS4_EEEEA4_cJNS0_4descENS0_11initializerIS4_EENS0_11ValuesClassEEEEvPT_RKT0_DpRKT1_ = comdat any

$_ZNK4llvm2cl11ValuesClass5applyINS0_3optIN3Ice3ABIELb0ENS0_6parserIS5_EEEEEEvRT_ = comdat any

$_ZN4llvm2cl6parserIN3Ice3ABIEE16addLiteralOptionIiEEvNS_9StringRefERKT_S6_ = comdat any

$_ZN4llvm23SmallVectorTemplateBaseINS_2cl6parserIN3Ice3ABIEE10OptionInfoELb0EE9push_backERKS6_ = comdat any

$_ZN4llvm23SmallVectorTemplateBaseINS_2cl6parserIN3Ice3ABIEE10OptionInfoELb0EE4growEm = comdat any

$_ZN4llvm2cl5applyINS0_3optIbLb0ENS0_6parserIbEEEEA17_cJNS0_11initializerIbEENS0_4descEEEEvPT_RKT0_DpRKT1_ = comdat any

$_ZN4llvm2cl5applyINS0_3optIbLb0ENS0_6parserIbEEEEA12_cJNS0_4descENS0_11initializerIbEEEEEvPT_RKT0_DpRKT1_ = comdat any

$_ZN4llvm2cl5applyINS0_3optIbLb0ENS0_6parserIbEEEEA7_cJNS0_4descEEEEvPT_RKT0_DpRKT1_ = comdat any

$_ZN4llvm2cl5applyINS0_3optIN3Ice20TargetInstructionSetELb0ENS0_6parserIS4_EEEEA6_cJNS0_4descENS0_11initializerIS4_EENS0_11ValuesClassEEEEvPT_RKT0_DpRKT1_ = comdat any

$_ZNK4llvm2cl11ValuesClass5applyINS0_3optIN3Ice20TargetInstructionSetELb0ENS0_6parserIS5_EEEEEEvRT_ = comdat any

$_ZN4llvm2cl6parserIN3Ice20TargetInstructionSetEE16addLiteralOptionIiEEvNS_9StringRefERKT_S6_ = comdat any

$_ZN4llvm23SmallVectorTemplateBaseINS_2cl6parserIN3Ice20TargetInstructionSetEE10OptionInfoELb0EE9push_backERKS6_ = comdat any

$_ZN4llvm23SmallVectorTemplateBaseINS_2cl6parserIN3Ice20TargetInstructionSetEE10OptionInfoELb0EE4growEm = comdat any

$_ZN4llvm2cl5applyINS0_3optINSt3__112basic_stringIcNS3_11char_traitsIcEENS3_9allocatorIcEEEELb0ENS0_6parserIS9_EEEEA7_cJNS0_4descENS0_11initializerIA1_cEENS0_10value_descEEEEvPT_RKT0_DpRKT1_ = comdat any

$_ZN4llvm2cl5applyINS0_3optIjLb0ENS0_6parserIjEEEEA17_cJNS0_4descENS0_11initializerIiEEEEEvPT_RKT0_DpRKT1_ = comdat any

$_ZN4llvm2cl5applyINS0_3optINSt3__112basic_stringIcNS3_11char_traitsIcEENS3_9allocatorIcEEEELb0ENS0_6parserIS9_EEEEA12_cJNS0_4descENS0_11initializerIA2_cEEEEEvPT_RKT0_DpRKT1_ = comdat any

$_ZN4llvm2cl5applyINS0_3optIbLb0ENS0_6parserIbEEEEA13_cJNS0_4descEEEEvPT_RKT0_DpRKT1_ = comdat any

$_ZN4llvm2cl5applyINS0_3optINSt3__112basic_stringIcNS3_11char_traitsIcEENS3_9allocatorIcEEEELb0ENS0_6parserIS9_EEEEA13_cJNS0_4descENS0_11initializerIA1_cEEEEEvPT_RKT0_DpRKT1_ = comdat any

$_ZN4llvm2cl5applyINS0_3optINSt3__112basic_stringIcNS3_11char_traitsIcEENS3_9allocatorIcEEEELb0ENS0_6parserIS9_EEEEA15_cJNS0_4descENS0_11initializerIA2_cEEEEEvPT_RKT0_DpRKT1_ = comdat any

$_ZN4llvm2cl5applyINS0_4listINSt3__112basic_stringIcNS3_11char_traitsIcEENS3_9allocatorIcEEEEbNS0_6parserIS9_EEEEA8_cJNS0_9MiscFlagsENS0_4descEEEEvPT_RKT0_DpRKT1_ = comdat any

$_ZN4llvm2cl5applyINS0_4listIN3Ice11VerboseItemEbNS0_6parserIS4_EEEEA8_cJNS0_9MiscFlagsENS0_4descENS0_11ValuesClassEEEEvPT_RKT0_DpRKT1_ = comdat any

$_ZNK4llvm2cl11ValuesClass5applyINS0_4listIN3Ice11VerboseItemEbNS0_6parserIS5_EEEEEEvRT_ = comdat any

$_ZN4llvm2cl6parserIN3Ice11VerboseItemEE16addLiteralOptionIiEEvNS_9StringRefERKT_S6_ = comdat any

$_ZN4llvm23SmallVectorTemplateBaseINS_2cl6parserIN3Ice11VerboseItemEE10OptionInfoELb0EE9push_backERKS6_ = comdat any

$_ZNK4llvm2cl15OptionValueCopyIN3Ice11VerboseItemEE7compareERKNS0_18GenericOptionValueE = comdat any

$_ZN4llvm23SmallVectorTemplateBaseINS_2cl6parserIN3Ice11VerboseItemEE10OptionInfoELb0EE4growEm = comdat any

$_ZN4llvm2cl5applyINS0_3optINSt3__112basic_stringIcNS3_11char_traitsIcEENS3_9allocatorIcEEEELb0ENS0_6parserIS9_EEEEA14_cJNS0_4descENS0_11initializerIA2_cEEEEEvPT_RKT0_DpRKT1_ = comdat any

$_ZN4llvm2cl5applyINS0_5aliasEA13_cJNS0_4descENS0_12OptionHiddenENS0_8aliasoptEEEEvPT_RKT0_DpRKT1_ = comdat any

$_ZN4llvm2cl5alias4doneEv = comdat any

$_ZN4llvm2cl5alias11setAliasForERNS0_6OptionE = comdat any

$_ZNSt3__112basic_stringIcNS_11char_traitsIcEENS_9allocatorIcEEE6assignEPKc = comdat any

$_ZNSt3__16vectorINS_12basic_stringIcNS_11char_traitsIcEENS_9allocatorIcEEEENS4_IS6_EEE13__vdeallocateEv = comdat any

$_ZTVN4llvm2cl15OptionValueCopyINSt3__112basic_stringIcNS2_11char_traitsIcEENS2_9allocatorIcEEEEEE = comdat any

$_ZTVN4llvm2cl3optIN3Ice8OptLevelELb0ENS0_6parserIS3_EEEE = comdat any

$_ZTVN4llvm2cl6parserIN3Ice8OptLevelEEE = comdat any

$_ZTVN4llvm2cl11OptionValueIN3Ice8OptLevelEEE = comdat any

$_ZTVN4llvm2cl15OptionValueCopyIN3Ice8OptLevelEEE = comdat any

$_ZTVN4llvm2cl3optIN3Ice10TargetArchELb0ENS0_6parserIS3_EEEE = comdat any

$_ZTVN4llvm2cl6parserIN3Ice10TargetArchEEE = comdat any

$_ZTVN4llvm2cl11OptionValueIN3Ice10TargetArchEEE = comdat any

$_ZTVN4llvm2cl15OptionValueCopyIN3Ice10TargetArchEEE = comdat any

$_ZTVN4llvm2cl3optIN3Ice11LCSEOptionsELb0ENS0_6parserIS3_EEEE = comdat any

$_ZTVN4llvm2cl6parserIN3Ice11LCSEOptionsEEE = comdat any

$_ZTVN4llvm2cl11OptionValueIN3Ice11LCSEOptionsEEE = comdat any

$_ZTVN4llvm2cl15OptionValueCopyIN3Ice11LCSEOptionsEEE = comdat any

$_ZTVN4llvm2cl4listINSt3__112basic_stringIcNS2_11char_traitsIcEENS2_9allocatorIcEEEEbNS0_6parserIS8_EEEE = comdat any

$_ZTVN4llvm2cl3optINS_14NaClFileFormatELb0ENS0_6parserIS2_EEEE = comdat any

$_ZTVN4llvm2cl6parserINS_14NaClFileFormatEEE = comdat any

$_ZTVN4llvm2cl11OptionValueINS_14NaClFileFormatEEE = comdat any

$_ZTVN4llvm2cl15OptionValueCopyINS_14NaClFileFormatEEE = comdat any

$_ZTVN4llvm2cl3optIN3Ice8FileTypeELb0ENS0_6parserIS3_EEEE = comdat any

$_ZTVN4llvm2cl6parserIN3Ice8FileTypeEEE = comdat any

$_ZTVN4llvm2cl11OptionValueIN3Ice8FileTypeEEE = comdat any

$_ZTVN4llvm2cl15OptionValueCopyIN3Ice8FileTypeEEE = comdat any

$_ZTVN4llvm2cl3optIN3Ice3ABIELb0ENS0_6parserIS3_EEEE = comdat any

$_ZTVN4llvm2cl6parserIN3Ice3ABIEEE = comdat any

$_ZTVN4llvm2cl11OptionValueIN3Ice3ABIEEE = comdat any

$_ZTVN4llvm2cl15OptionValueCopyIN3Ice3ABIEEE = comdat any

$_ZTVN4llvm2cl3optIN3Ice20TargetInstructionSetELb0ENS0_6parserIS3_EEEE = comdat any

$_ZTVN4llvm2cl6parserIN3Ice20TargetInstructionSetEEE = comdat any

$_ZTVN4llvm2cl11OptionValueIN3Ice20TargetInstructionSetEEE = comdat any

$_ZTVN4llvm2cl15OptionValueCopyIN3Ice20TargetInstructionSetEEE = comdat any

$_ZTVN4llvm2cl4listIN3Ice11VerboseItemEbNS0_6parserIS3_EEEE = comdat any

$_ZTVN4llvm2cl6parserIN3Ice11VerboseItemEEE = comdat any

$_ZTVN4llvm2cl11OptionValueIjEE = comdat any

$_ZTVN4llvm2cl11OptionValueIbEE = comdat any

$_ZTVN4llvm2cl11OptionValueIiEE = comdat any

$_ZTVN4llvm2cl11OptionValueIN3Ice11VerboseItemEEE = comdat any

$_ZTVN4llvm2cl15OptionValueCopyIN3Ice11VerboseItemEEE = comdat any

@_ZN12_GLOBAL__N_113IRFilenameObjE = internal global %"class.llvm::cl::opt" zeroinitializer, align 8
@.str = private unnamed_addr constant [8 x i8] c"IR File\00", align 1
@.str.1 = private unnamed_addr constant [2 x i8] c"-\00", align 1
@__dso_handle = external hidden global i8
@_ZN12_GLOBAL__N_124NumTranslationThreadsObjE = internal global %"class.llvm::cl::opt.1" zeroinitializer, align 8
@.str.3 = private unnamed_addr constant [12 x i8] c"num_threads\00", align 1
@.str.4 = private unnamed_addr constant [56 x i8] c"Number of translation threads (0 for purely sequential)\00", align 1
@_ZN12_GLOBAL__N_111OptLevelObjE = internal global %"class.llvm::cl::opt.9" zeroinitializer, align 8
@.str.6 = private unnamed_addr constant [19 x i8] c"Optimization level\00", align 1
@.str.7 = private unnamed_addr constant [6 x i8] c"level\00", align 1
@.str.8 = private unnamed_addr constant [4 x i8] c"Om1\00", align 1
@.str.9 = private unnamed_addr constant [3 x i8] c"-1\00", align 1
@.str.10 = private unnamed_addr constant [4 x i8] c"O-1\00", align 1
@.str.11 = private unnamed_addr constant [3 x i8] c"O0\00", align 1
@.str.12 = private unnamed_addr constant [2 x i8] c"0\00", align 1
@.str.13 = private unnamed_addr constant [3 x i8] c"O1\00", align 1
@.str.14 = private unnamed_addr constant [2 x i8] c"1\00", align 1
@.str.15 = private unnamed_addr constant [3 x i8] c"O2\00", align 1
@.str.16 = private unnamed_addr constant [2 x i8] c"2\00", align 1
@_ZN12_GLOBAL__N_117OutputFilenameObjE = internal global %"class.llvm::cl::opt" zeroinitializer, align 8
@.str.18 = private unnamed_addr constant [2 x i8] c"o\00", align 1
@.str.19 = private unnamed_addr constant [25 x i8] c"Override output filename\00", align 1
@.str.20 = private unnamed_addr constant [9 x i8] c"filename\00", align 1
@_ZN12_GLOBAL__N_113TargetArchObjE = internal global %"class.llvm::cl::opt.25" zeroinitializer, align 8
@.str.22 = private unnamed_addr constant [7 x i8] c"target\00", align 1
@.str.23 = private unnamed_addr constant [21 x i8] c"Target architecture:\00", align 1
@.str.24 = private unnamed_addr constant [6 x i8] c"x8632\00", align 1
@.str.25 = private unnamed_addr constant [7 x i8] c"x86-32\00", align 1
@.str.26 = private unnamed_addr constant [23 x i8] c"x86-32 (same as x8632)\00", align 1
@.str.27 = private unnamed_addr constant [7 x i8] c"x86_32\00", align 1
@.str.28 = private unnamed_addr constant [6 x i8] c"x8664\00", align 1
@.str.29 = private unnamed_addr constant [7 x i8] c"x86-64\00", align 1
@.str.30 = private unnamed_addr constant [23 x i8] c"x86-64 (same as x8664)\00", align 1
@.str.31 = private unnamed_addr constant [7 x i8] c"x86_64\00", align 1
@.str.32 = private unnamed_addr constant [4 x i8] c"arm\00", align 1
@.str.33 = private unnamed_addr constant [6 x i8] c"arm32\00", align 1
@.str.34 = private unnamed_addr constant [20 x i8] c"arm32 (same as arm)\00", align 1
@.str.35 = private unnamed_addr constant [6 x i8] c"arm64\00", align 1
@.str.36 = private unnamed_addr constant [5 x i8] c"mips\00", align 1
@.str.37 = private unnamed_addr constant [7 x i8] c"mips32\00", align 1
@.str.38 = private unnamed_addr constant [22 x i8] c"mips32 (same as mips)\00", align 1
@_ZN12_GLOBAL__N_121AllowErrorRecoveryObjE = internal global %"class.llvm::cl::opt.40" zeroinitializer, align 8
@.str.40 = private unnamed_addr constant [34 x i8] c"allow-pnacl-reader-error-recovery\00", align 1
@.str.41 = private unnamed_addr constant [49 x i8] c"Allow error recovery when reading PNaCl bitcode.\00", align 1
@_ZN12_GLOBAL__N_128AllowExternDefinedSymbolsObjE = internal global %"class.llvm::cl::opt.40" zeroinitializer, align 8
@.str.43 = private unnamed_addr constant [33 x i8] c"allow-externally-defined-symbols\00", align 1
@.str.44 = private unnamed_addr constant [88 x i8] c"Allow global symbols to be externally defined (other than _start and __pnacl_pso_root).\00", align 1
@_ZN12_GLOBAL__N_117AllowIacaMarksObjE = internal global %"class.llvm::cl::opt.40" zeroinitializer, align 8
@.str.46 = private unnamed_addr constant [17 x i8] c"allow-iaca-marks\00", align 1
@.str.47 = private unnamed_addr constant [103 x i8] c"Allow IACA (Intel Architecture Code Analyzer) marks to be inserted. These binaries are not executable.\00", align 1
@_ZN12_GLOBAL__N_128AllowUninitializedGlobalsObjE = internal global %"class.llvm::cl::opt.40" zeroinitializer, align 8
@.str.49 = private unnamed_addr constant [28 x i8] c"allow-uninitialized-globals\00", align 1
@.str.50 = private unnamed_addr constant [43 x i8] c"Allow global variables to be uninitialized\00", align 1
@_ZN12_GLOBAL__N_120AlwaysExitSuccessObjE = internal global %"class.llvm::cl::opt.40" zeroinitializer, align 8
@.str.52 = private unnamed_addr constant [13 x i8] c"exit-success\00", align 1
@.str.53 = private unnamed_addr constant [47 x i8] c"Exit with success status, even if errors found\00", align 1
@_ZN12_GLOBAL__N_116AggressiveLeaObjE = internal global %"class.llvm::cl::opt.40" zeroinitializer, align 8
@.str.55 = private unnamed_addr constant [15 x i8] c"aggressive-lea\00", align 1
@.str.56 = private unnamed_addr constant [51 x i8] c"Convert additions to lea when it reduces code size\00", align 1
@_ZN12_GLOBAL__N_116BitcodeAsTextObjE = internal global %"class.llvm::cl::opt.40" zeroinitializer, align 8
@.str.58 = private unnamed_addr constant [16 x i8] c"bitcode-as-text\00", align 1
@.str.59 = private unnamed_addr constant [69 x i8] c"Accept textual form of PNaCl bitcode records (i.e. not .ll assembly)\00", align 1
@_ZN12_GLOBAL__N_114BuildOnReadObjE = internal global %"class.llvm::cl::opt.40" zeroinitializer, align 8
@.str.61 = private unnamed_addr constant [14 x i8] c"build-on-read\00", align 1
@.str.62 = private unnamed_addr constant [44 x i8] c"Build ICE instructions when reading bitcode\00", align 1
@_ZN12_GLOBAL__N_115DataSectionsObjE = internal global %"class.llvm::cl::opt.40" zeroinitializer, align 8
@.str.64 = private unnamed_addr constant [15 x i8] c"fdata-sections\00", align 1
@.str.65 = private unnamed_addr constant [42 x i8] c"Emit (global) data into separate sections\00", align 1
@_ZN12_GLOBAL__N_114DecorateAsmObjE = internal global %"class.llvm::cl::opt.40" zeroinitializer, align 8
@.str.67 = private unnamed_addr constant [12 x i8] c"asm-verbose\00", align 1
@.str.68 = private unnamed_addr constant [56 x i8] c"Decorate textual asm output with register liveness info\00", align 1
@_ZN12_GLOBAL__N_124DefaultFunctionPrefixObjE = internal global %"class.llvm::cl::opt" zeroinitializer, align 8
@.str.70 = private unnamed_addr constant [24 x i8] c"default-function-prefix\00", align 1
@.str.71 = private unnamed_addr constant [60 x i8] c"Define default function prefix for naming unnamed functions\00", align 1
@.str.72 = private unnamed_addr constant [9 x i8] c"Function\00", align 1
@_ZN12_GLOBAL__N_122DefaultGlobalPrefixObjE = internal global %"class.llvm::cl::opt" zeroinitializer, align 8
@.str.74 = private unnamed_addr constant [22 x i8] c"default-global-prefix\00", align 1
@.str.75 = private unnamed_addr constant [56 x i8] c"Define default global prefix for naming unnamed globals\00", align 1
@.str.76 = private unnamed_addr constant [7 x i8] c"Global\00", align 1
@_ZN12_GLOBAL__N_124DisableHybridAssemblyObjE = internal global %"class.llvm::cl::opt.40" zeroinitializer, align 8
@.str.78 = private unnamed_addr constant [14 x i8] c"no-hybrid-asm\00", align 1
@.str.79 = private unnamed_addr constant [44 x i8] c"Disable hybrid assembly when -filetype=iasm\00", align 1
@_ZN12_GLOBAL__N_118DisableInternalObjE = internal global %"class.llvm::cl::opt.40" zeroinitializer, align 8
@.str.81 = private unnamed_addr constant [12 x i8] c"externalize\00", align 1
@.str.82 = private unnamed_addr constant [24 x i8] c"Externalize all symbols\00", align 1
@_ZN12_GLOBAL__N_121DisableTranslationObjE = internal global %"class.llvm::cl::opt.40" zeroinitializer, align 8
@.str.84 = private unnamed_addr constant [12 x i8] c"notranslate\00", align 1
@.str.85 = private unnamed_addr constant [28 x i8] c"Disable Subzero translation\00", align 1
@_ZN12_GLOBAL__N_112DumpStatsObjE = internal global %"class.llvm::cl::opt.40" zeroinitializer, align 8
@.str.87 = private unnamed_addr constant [8 x i8] c"szstats\00", align 1
@.str.88 = private unnamed_addr constant [49 x i8] c"Print statistics after translating each function\00", align 1
@_ZN12_GLOBAL__N_114DumpStringsObjE = internal global %"class.llvm::cl::opt.40" zeroinitializer, align 8
@.str.90 = private unnamed_addr constant [13 x i8] c"dump-strings\00", align 1
@.str.91 = private unnamed_addr constant [37 x i8] c"Dump string pools during compilation\00", align 1
@_ZN12_GLOBAL__N_121EnableBlockProfileObjE = internal global %"class.llvm::cl::opt.40" zeroinitializer, align 8
@.str.93 = private unnamed_addr constant [21 x i8] c"enable-block-profile\00", align 1
@.str.94 = private unnamed_addr constant [101 x i8] c"Instrument basic blocks, and output profiling information to stdout at the end of program execution.\00", align 1
@_ZN12_GLOBAL__N_111LocalCSEObjE = internal global %"class.llvm::cl::opt.52" zeroinitializer, align 8
@.str.96 = private unnamed_addr constant [5 x i8] c"lcse\00", align 1
@.str.97 = private unnamed_addr constant [39 x i8] c"Local common subexpression elimination\00", align 1
@.str.98 = private unnamed_addr constant [9 x i8] c"disabled\00", align 1
@.str.99 = private unnamed_addr constant [8 x i8] c"enabled\00", align 1
@.str.100 = private unnamed_addr constant [11 x i8] c"assume-ssa\00", align 1
@.str.101 = private unnamed_addr constant [7 x i8] c"no-ssa\00", align 1
@.str.102 = private unnamed_addr constant [14 x i8] c"no-assume-ssa\00", align 1
@_ZN12_GLOBAL__N_115EmitRevisionObjE = internal global %"class.llvm::cl::opt.40" zeroinitializer, align 8
@.str.104 = private unnamed_addr constant [14 x i8] c"emit-revision\00", align 1
@.str.105 = private unnamed_addr constant [45 x i8] c"Emit Subzero revision string into the output\00", align 1
@_ZN12_GLOBAL__N_121EnablePhiEdgeSplitObjE = internal global %"class.llvm::cl::opt.40" zeroinitializer, align 8
@.str.107 = private unnamed_addr constant [15 x i8] c"phi-edge-split\00", align 1
@.str.108 = private unnamed_addr constant [39 x i8] c"Enable edge splitting for Phi lowering\00", align 1
@_ZN12_GLOBAL__N_121EnableShortCircuitObjE = internal global %"class.llvm::cl::opt.40" zeroinitializer, align 8
@.str.110 = private unnamed_addr constant [10 x i8] c"enable-sc\00", align 1
@.str.111 = private unnamed_addr constant [41 x i8] c"Split Nodes for short circuit evaluation\00", align 1
@_ZN12_GLOBAL__N_120ExcludedRegistersObjE = internal global %"class.llvm::cl::list" zeroinitializer, align 8
@.str.113 = private unnamed_addr constant [12 x i8] c"reg-exclude\00", align 1
@.str.114 = private unnamed_addr constant [30 x i8] c"Don't use specified registers\00", align 1
@_ZN12_GLOBAL__N_120ForceMemIntrinOptObjE = internal global %"class.llvm::cl::opt.40" zeroinitializer, align 8
@.str.116 = private unnamed_addr constant [16 x i8] c"fmem-intrin-opt\00", align 1
@.str.117 = private unnamed_addr constant [41 x i8] c"Force optimization of memory intrinsics.\00", align 1
@_ZN12_GLOBAL__N_116ForceO2StringObjE = internal global %"class.llvm::cl::opt" zeroinitializer, align 8
@.str.119 = private unnamed_addr constant [9 x i8] c"force-O2\00", align 1
@.str.120 = private unnamed_addr constant [47 x i8] c"Force -O2 for certain functions (assumes -Om1)\00", align 1
@.str.121 = private unnamed_addr constant [1 x i8] zeroinitializer, align 1
@_ZN12_GLOBAL__N_118SplitInstStringObjE = internal global %"class.llvm::cl::opt" zeroinitializer, align 8
@.str.123 = private unnamed_addr constant [11 x i8] c"split-inst\00", align 1
@.str.124 = private unnamed_addr constant [47 x i8] c"Restrict local var splitting to specific insts\00", align 1
@.str.125 = private unnamed_addr constant [2 x i8] c":\00", align 1
@_ZN12_GLOBAL__N_119FunctionSectionsObjE = internal global %"class.llvm::cl::opt.40" zeroinitializer, align 8
@.str.127 = private unnamed_addr constant [19 x i8] c"ffunction-sections\00", align 1
@.str.128 = private unnamed_addr constant [38 x i8] c"Emit functions into separate sections\00", align 1
@_ZN12_GLOBAL__N_120GenerateBuildAttsObjE = internal global %"class.llvm::cl::opt.40" zeroinitializer, align 8
@.str.130 = private unnamed_addr constant [11 x i8] c"build-atts\00", align 1
@.str.131 = private unnamed_addr constant [67 x i8] c"Generate list of build attributes associated with this executable.\00", align 1
@_ZN12_GLOBAL__N_118SplitGlobalVarsObjE = internal global %"class.llvm::cl::opt.40" zeroinitializer, align 8
@.str.133 = private unnamed_addr constant [18 x i8] c"split-global-vars\00", align 1
@.str.134 = private unnamed_addr constant [28 x i8] c"Global live range splitting\00", align 1
@_ZN12_GLOBAL__N_118InputFileFormatObjE = internal global %"class.llvm::cl::opt.80" zeroinitializer, align 8
@.str.136 = private unnamed_addr constant [15 x i8] c"bitcode-format\00", align 1
@.str.137 = private unnamed_addr constant [29 x i8] c"Define format of input file:\00", align 1
@.str.138 = private unnamed_addr constant [5 x i8] c"llvm\00", align 1
@.str.139 = private unnamed_addr constant [20 x i8] c"LLVM file (default)\00", align 1
@.str.140 = private unnamed_addr constant [6 x i8] c"pnacl\00", align 1
@.str.141 = private unnamed_addr constant [19 x i8] c"PNaCl bitcode file\00", align 1
@_ZN12_GLOBAL__N_119KeepDeletedInstsObjE = internal global %"class.llvm::cl::opt.40" zeroinitializer, align 8
@.str.143 = private unnamed_addr constant [19 x i8] c"keep-deleted-insts\00", align 1
@.str.144 = private unnamed_addr constant [39 x i8] c"Retain deleted instructions in the Cfg\00", align 1
@_ZN12_GLOBAL__N_120LLVMVerboseErrorsObjE = internal global %"class.llvm::cl::opt.40" zeroinitializer, align 8
@.str.146 = private unnamed_addr constant [26 x i8] c"verbose-llvm-parse-errors\00", align 1
@.str.147 = private unnamed_addr constant [82 x i8] c"Print out more descriptive PNaCl bitcode parse errors when building LLVM IR first\00", align 1
@_ZN12_GLOBAL__N_124LocalCseMaxIterationsObjE = internal global %"class.llvm::cl::opt.1" zeroinitializer, align 8
@.str.149 = private unnamed_addr constant [15 x i8] c"lcse-max-iters\00", align 1
@.str.150 = private unnamed_addr constant [44 x i8] c"Number of times local-cse is run on a block\00", align 1
@_ZN12_GLOBAL__N_126LoopInvariantCodeMotionObjE = internal global %"class.llvm::cl::opt.40" zeroinitializer, align 8
@.str.152 = private unnamed_addr constant [5 x i8] c"licm\00", align 1
@.str.153 = private unnamed_addr constant [43 x i8] c"Hoist loop invariant arithmetic operations\00", align 1
@_ZN12_GLOBAL__N_114LogFilenameObjE = internal global %"class.llvm::cl::opt" zeroinitializer, align 8
@.str.155 = private unnamed_addr constant [4 x i8] c"log\00", align 1
@.str.156 = private unnamed_addr constant [17 x i8] c"Set log filename\00", align 1
@_ZN12_GLOBAL__N_124MaxNopsPerInstructionObjE = internal global %"class.llvm::cl::opt.95" zeroinitializer, align 8
@.str.158 = private unnamed_addr constant [25 x i8] c"max-nops-per-instruction\00", align 1
@.str.159 = private unnamed_addr constant [45 x i8] c"Max number of nops to insert per instruction\00", align 1
@_ZN12_GLOBAL__N_118MockBoundsCheckObjE = internal global %"class.llvm::cl::opt.40" zeroinitializer, align 8
@.str.161 = private unnamed_addr constant [18 x i8] c"mock-bounds-check\00", align 1
@.str.162 = private unnamed_addr constant [37 x i8] c"Mock bounds checking on loads/stores\00", align 1
@_ZN12_GLOBAL__N_129NopProbabilityAsPercentageObjE = internal global %"class.llvm::cl::opt.95" zeroinitializer, align 8
@.str.164 = private unnamed_addr constant [25 x i8] c"nop-insertion-percentage\00", align 1
@.str.165 = private unnamed_addr constant [40 x i8] c"Nop insertion probability as percentage\00", align 1
@_ZN12_GLOBAL__N_114OutFileTypeObjE = internal global %"class.llvm::cl::opt.104" zeroinitializer, align 8
@.str.167 = private unnamed_addr constant [9 x i8] c"filetype\00", align 1
@.str.168 = private unnamed_addr constant [17 x i8] c"Output file type\00", align 1
@.str.169 = private unnamed_addr constant [4 x i8] c"obj\00", align 1
@.str.170 = private unnamed_addr constant [30 x i8] c"Native ELF object ('.o') file\00", align 1
@.str.171 = private unnamed_addr constant [4 x i8] c"asm\00", align 1
@.str.172 = private unnamed_addr constant [21 x i8] c"Assembly ('.s') file\00", align 1
@.str.173 = private unnamed_addr constant [5 x i8] c"iasm\00", align 1
@.str.174 = private unnamed_addr constant [42 x i8] c"Low-level integrated assembly ('.s') file\00", align 1
@_ZN12_GLOBAL__N_129ApplicationBinaryInterfaceObjE = internal global %"class.llvm::cl::opt.119" zeroinitializer, align 8
@.str.176 = private unnamed_addr constant [4 x i8] c"abi\00", align 1
@.str.177 = private unnamed_addr constant [9 x i8] c"ABI type\00", align 1
@.str.178 = private unnamed_addr constant [31 x i8] c"x32 for unsandboxed 64-bit x86\00", align 1
@.str.179 = private unnamed_addr constant [9 x i8] c"platform\00", align 1
@.str.180 = private unnamed_addr constant [22 x i8] c"Native executable ABI\00", align 1
@_ZN12_GLOBAL__N_116ParseParallelObjE = internal global %"class.llvm::cl::opt.40" zeroinitializer, align 8
@.str.182 = private unnamed_addr constant [15 x i8] c"parse-parallel\00", align 1
@.str.183 = private unnamed_addr constant [34 x i8] c"Parse function blocks in parallel\00", align 1
@_ZN12_GLOBAL__N_117SplitLocalVarsObjE = internal global %"class.llvm::cl::opt.40" zeroinitializer, align 8
@.str.185 = private unnamed_addr constant [17 x i8] c"split-local-vars\00", align 1
@.str.186 = private unnamed_addr constant [41 x i8] c"Block-local variable splitting (O2 only)\00", align 1
@_ZN12_GLOBAL__N_118RegAllocReserveObjE = internal global %"class.llvm::cl::opt.40" zeroinitializer, align 8
@.str.188 = private unnamed_addr constant [12 x i8] c"reg-reserve\00", align 1
@.str.189 = private unnamed_addr constant [46 x i8] c"Let register allocation use reserve registers\00", align 1
@_ZN12_GLOBAL__N_117RepeatRegAllocObjE = internal global %"class.llvm::cl::opt.40" zeroinitializer, align 8
@.str.191 = private unnamed_addr constant [16 x i8] c"regalloc-repeat\00", align 1
@.str.192 = private unnamed_addr constant [45 x i8] c"Repeat register allocation until convergence\00", align 1
@_ZN12_GLOBAL__N_120SanitizeAddressesObjE = internal global %"class.llvm::cl::opt.40" zeroinitializer, align 8
@.str.194 = private unnamed_addr constant [18 x i8] c"fsanitize-address\00", align 1
@.str.195 = private unnamed_addr constant [48 x i8] c"Instrument compiled code with Address Sanitizer\00", align 1
@_ZN12_GLOBAL__N_120SkipUnimplementedObjE = internal global %"class.llvm::cl::opt.40" zeroinitializer, align 8
@.str.197 = private unnamed_addr constant [19 x i8] c"skip-unimplemented\00", align 1
@.str.198 = private unnamed_addr constant [62 x i8] c"Skip through unimplemented lowering code instead of aborting.\00", align 1
@_ZN12_GLOBAL__N_123SubzeroTimingEnabledObjE = internal global %"class.llvm::cl::opt.40" zeroinitializer, align 8
@.str.200 = private unnamed_addr constant [7 x i8] c"timing\00", align 1
@.str.201 = private unnamed_addr constant [47 x i8] c"Enable breakdown timing of Subzero translation\00", align 1
@_ZN12_GLOBAL__N_123TargetInstructionSetObjE = internal global %"class.llvm::cl::opt.134" zeroinitializer, align 8
@.str.203 = private unnamed_addr constant [6 x i8] c"mattr\00", align 1
@.str.204 = private unnamed_addr constant [31 x i8] c"Target architecture attributes\00", align 1
@.str.205 = private unnamed_addr constant [5 x i8] c"base\00", align 1
@.str.206 = private unnamed_addr constant [50 x i8] c"Target chooses baseline instruction set (default)\00", align 1
@.str.207 = private unnamed_addr constant [5 x i8] c"sse2\00", align 1
@.str.208 = private unnamed_addr constant [29 x i8] c"Enable X86 SSE2 instructions\00", align 1
@.str.209 = private unnamed_addr constant [7 x i8] c"sse4.1\00", align 1
@.str.210 = private unnamed_addr constant [32 x i8] c"Enable X86 SSE 4.1 instructions\00", align 1
@.str.211 = private unnamed_addr constant [5 x i8] c"neon\00", align 1
@.str.212 = private unnamed_addr constant [29 x i8] c"Enable ARM Neon instructions\00", align 1
@.str.213 = private unnamed_addr constant [10 x i8] c"hwdiv-arm\00", align 1
@.str.214 = private unnamed_addr constant [51 x i8] c"Enable ARM integer divide instructions in ARM mode\00", align 1
@_ZN12_GLOBAL__N_113TestPrefixObjE = internal global %"class.llvm::cl::opt" zeroinitializer, align 8
@.str.216 = private unnamed_addr constant [7 x i8] c"prefix\00", align 1
@.str.217 = private unnamed_addr constant [45 x i8] c"Prepend a prefix to symbol names for testing\00", align 1
@_ZN12_GLOBAL__N_117TestStackExtraObjE = internal global %"class.llvm::cl::opt.1" zeroinitializer, align 8
@.str.219 = private unnamed_addr constant [17 x i8] c"test-stack-extra\00", align 1
@.str.220 = private unnamed_addr constant [66 x i8] c"Extra amount of stack to add to the frame in bytes (for testing).\00", align 1
@_ZN12_GLOBAL__N_119TestStatusStringObjE = internal global %"class.llvm::cl::opt" zeroinitializer, align 8
@.str.222 = private unnamed_addr constant [12 x i8] c"test-status\00", align 1
@.str.223 = private unnamed_addr constant [33 x i8] c"Testing flag for -verbose=status\00", align 1
@_ZN12_GLOBAL__N_119TimeEachFunctionObjE = internal global %"class.llvm::cl::opt.40" zeroinitializer, align 8
@.str.225 = private unnamed_addr constant [13 x i8] c"timing-funcs\00", align 1
@.str.226 = private unnamed_addr constant [47 x i8] c"Print total translation time for each function\00", align 1
@_ZN12_GLOBAL__N_122TimingFocusOnStringObjE = internal global %"class.llvm::cl::opt" zeroinitializer, align 8
@.str.228 = private unnamed_addr constant [13 x i8] c"timing-focus\00", align 1
@.str.229 = private unnamed_addr constant [59 x i8] c"Break down timing for specific functions (use ':' for all)\00", align 1
@_ZN12_GLOBAL__N_122TranslateOnlyStringObjE = internal global %"class.llvm::cl::opt" zeroinitializer, align 8
@.str.231 = private unnamed_addr constant [15 x i8] c"translate-only\00", align 1
@.str.232 = private unnamed_addr constant [35 x i8] c"Translate only the given functions\00", align 1
@_ZN12_GLOBAL__N_112UseNonsfiObjE = internal global %"class.llvm::cl::opt.40" zeroinitializer, align 8
@.str.234 = private unnamed_addr constant [7 x i8] c"nonsfi\00", align 1
@.str.235 = private unnamed_addr constant [20 x i8] c"Enable Non-SFI mode\00", align 1
@_ZN12_GLOBAL__N_125UseRestrictedRegistersObjE = internal global %"class.llvm::cl::list" zeroinitializer, align 8
@.str.237 = private unnamed_addr constant [8 x i8] c"reg-use\00", align 1
@.str.238 = private unnamed_addr constant [64 x i8] c"Only use specified registers for corresponding register classes\00", align 1
@_ZN12_GLOBAL__N_116UseSandboxingObjE = internal global %"class.llvm::cl::opt.40" zeroinitializer, align 8
@.str.240 = private unnamed_addr constant [8 x i8] c"sandbox\00", align 1
@.str.241 = private unnamed_addr constant [15 x i8] c"Use sandboxing\00", align 1
@_ZN12_GLOBAL__N_110VerboseObjE = internal global %"class.llvm::cl::list.149" zeroinitializer, align 8
@.str.243 = private unnamed_addr constant [8 x i8] c"verbose\00", align 1
@.str.244 = private unnamed_addr constant [42 x i8] c"Verbose options (can be comma-separated):\00", align 1
@.str.245 = private unnamed_addr constant [5 x i8] c"inst\00", align 1
@.str.246 = private unnamed_addr constant [25 x i8] c"Print basic instructions\00", align 1
@.str.247 = private unnamed_addr constant [4 x i8] c"del\00", align 1
@.str.248 = private unnamed_addr constant [29 x i8] c"Include deleted instructions\00", align 1
@.str.249 = private unnamed_addr constant [8 x i8] c"instnum\00", align 1
@.str.250 = private unnamed_addr constant [26 x i8] c"Print instruction numbers\00", align 1
@.str.251 = private unnamed_addr constant [5 x i8] c"pred\00", align 1
@.str.252 = private unnamed_addr constant [18 x i8] c"Show predecessors\00", align 1
@.str.253 = private unnamed_addr constant [5 x i8] c"succ\00", align 1
@.str.254 = private unnamed_addr constant [16 x i8] c"Show successors\00", align 1
@.str.255 = private unnamed_addr constant [5 x i8] c"live\00", align 1
@.str.256 = private unnamed_addr constant [21 x i8] c"Liveness information\00", align 1
@.str.257 = private unnamed_addr constant [5 x i8] c"orig\00", align 1
@.str.258 = private unnamed_addr constant [26 x i8] c"Physical register origins\00", align 1
@.str.259 = private unnamed_addr constant [9 x i8] c"regalloc\00", align 1
@.str.260 = private unnamed_addr constant [20 x i8] c"Linear scan details\00", align 1
@.str.261 = private unnamed_addr constant [6 x i8] c"frame\00", align 1
@.str.262 = private unnamed_addr constant [27 x i8] c"Stack frame layout details\00", align 1
@.str.263 = private unnamed_addr constant [8 x i8] c"addropt\00", align 1
@.str.264 = private unnamed_addr constant [26 x i8] c"Address mode optimization\00", align 1
@.str.265 = private unnamed_addr constant [5 x i8] c"fold\00", align 1
@.str.266 = private unnamed_addr constant [28 x i8] c"Instruction folding details\00", align 1
@.str.267 = private unnamed_addr constant [4 x i8] c"rmw\00", align 1
@.str.268 = private unnamed_addr constant [29 x i8] c"ReadModifyWrite optimization\00", align 1
@.str.269 = private unnamed_addr constant [5 x i8] c"loop\00", align 1
@.str.270 = private unnamed_addr constant [25 x i8] c"Loop nest depth analysis\00", align 1
@.str.271 = private unnamed_addr constant [4 x i8] c"mem\00", align 1
@.str.272 = private unnamed_addr constant [21 x i8] c"Memory usage details\00", align 1
@.str.273 = private unnamed_addr constant [8 x i8] c"shufvec\00", align 1
@.str.274 = private unnamed_addr constant [32 x i8] c"Shufflevector rematerialization\00", align 1
@.str.275 = private unnamed_addr constant [7 x i8] c"status\00", align 1
@.str.276 = private unnamed_addr constant [48 x i8] c"Print the name of the function being translated\00", align 1
@.str.277 = private unnamed_addr constant [10 x i8] c"registers\00", align 1
@.str.278 = private unnamed_addr constant [49 x i8] c"Show available registers for register allocation\00", align 1
@.str.279 = private unnamed_addr constant [12 x i8] c"global_init\00", align 1
@.str.280 = private unnamed_addr constant [20 x i8] c"Global initializers\00", align 1
@.str.281 = private unnamed_addr constant [6 x i8] c"cpool\00", align 1
@.str.282 = private unnamed_addr constant [23 x i8] c"Constant pool counters\00", align 1
@.str.283 = private unnamed_addr constant [5 x i8] c"wasm\00", align 1
@.str.284 = private unnamed_addr constant [20 x i8] c"WebAssembly builder\00", align 1
@.str.285 = private unnamed_addr constant [4 x i8] c"all\00", align 1
@.str.286 = private unnamed_addr constant [24 x i8] c"Use all verbose options\00", align 1
@.str.287 = private unnamed_addr constant [5 x i8] c"most\00", align 1
@.str.288 = private unnamed_addr constant [54 x i8] c"Use all verbose options except 'regalloc,global_init'\00", align 1
@.str.289 = private unnamed_addr constant [5 x i8] c"none\00", align 1
@.str.290 = private unnamed_addr constant [13 x i8] c"No verbosity\00", align 1
@_ZN12_GLOBAL__N_123VerboseFocusOnStringObjE = internal global %"class.llvm::cl::opt" zeroinitializer, align 8
@.str.292 = private unnamed_addr constant [14 x i8] c"verbose-focus\00", align 1
@.str.293 = private unnamed_addr constant [59 x i8] c"Override with -verbose=none except for specified functions\00", align 1
@_ZN12_GLOBAL__N_118WasmBoundsCheckObjE = internal global %"class.llvm::cl::opt.40" zeroinitializer, align 8
@.str.295 = private unnamed_addr constant [18 x i8] c"wasm-bounds-check\00", align 1
@.str.296 = private unnamed_addr constant [42 x i8] c"Add bounds checking code in WASM frontend\00", align 1
@_ZN12_GLOBAL__N_126AllowExternDefinedSymbolsAE = internal global %"class.llvm::cl::alias" zeroinitializer, align 8
@.str.298 = private unnamed_addr constant [13 x i8] c"allow-extern\00", align 1
@.str.299 = private unnamed_addr constant [45 x i8] c"Alias for --allow-externally-defined-symbols\00", align 1
@_ZN12_GLOBAL__N_110AppNameObjE = internal global %"class.std::__1::basic_string" zeroinitializer, align 8
@_ZN3Ice7ClFlags5FlagsE = hidden global %"class.Ice::ClFlags" zeroinitializer, align 8
@_ZTVN4llvm2cl15OptionValueCopyINSt3__112basic_stringIcNS2_11char_traitsIcEENS2_9allocatorIcEEEEEE = linkonce_odr hidden unnamed_addr constant { [4 x i8*] } { [4 x i8*] [i8* null, i8* null, i8* bitcast (i1 (%"class.llvm::cl::OptionValueCopy"*, %"struct.llvm::cl::GenericOptionValue"*)* @_ZNK4llvm2cl15OptionValueCopyINSt3__112basic_stringIcNS2_11char_traitsIcEENS2_9allocatorIcEEEEE7compareERKNS0_18GenericOptionValueE to i8*), i8* bitcast (void (%"struct.llvm::cl::GenericOptionValue"*)* @_ZN4llvm2cl18GenericOptionValue6anchorEv to i8*)] }, comdat, align 8
@_ZTVN4llvm2cl6OptionE = external unnamed_addr constant { [12 x i8*] }, align 8
@_ZTVN4llvm2cl3optIN3Ice8OptLevelELb0ENS0_6parserIS3_EEEE = linkonce_odr hidden unnamed_addr constant { [12 x i8*] } { [12 x i8*] [i8* null, i8* null, i8* bitcast (i1 (%"class.llvm::cl::opt.9"*, i32, i8*, i64, i8*, i64)* @_ZN4llvm2cl3optIN3Ice8OptLevelELb0ENS0_6parserIS3_EEE16handleOccurrenceEjNS_9StringRefES7_ to i8*), i8* bitcast (i32 (%"class.llvm::cl::opt.9"*)* @_ZNK4llvm2cl3optIN3Ice8OptLevelELb0ENS0_6parserIS3_EEE27getValueExpectedFlagDefaultEv to i8*), i8* bitcast (void (%"class.llvm::cl::Option"*)* @_ZN4llvm2cl6Option6anchorEv to i8*), i8* bitcast (void (%"class.llvm::cl::opt.9"*)* @_ZN4llvm2cl3optIN3Ice8OptLevelELb0ENS0_6parserIS3_EEED2Ev to i8*), i8* bitcast (void (%"class.llvm::cl::opt.9"*)* @_ZN4llvm2cl3optIN3Ice8OptLevelELb0ENS0_6parserIS3_EEED0Ev to i8*), i8* bitcast (i64 (%"class.llvm::cl::opt.9"*)* @_ZNK4llvm2cl3optIN3Ice8OptLevelELb0ENS0_6parserIS3_EEE14getOptionWidthEv to i8*), i8* bitcast (void (%"class.llvm::cl::opt.9"*, i64)* @_ZNK4llvm2cl3optIN3Ice8OptLevelELb0ENS0_6parserIS3_EEE15printOptionInfoEm to i8*), i8* bitcast (void (%"class.llvm::cl::opt.9"*, i64, i1)* @_ZNK4llvm2cl3optIN3Ice8OptLevelELb0ENS0_6parserIS3_EEE16printOptionValueEmb to i8*), i8* bitcast (void (%"class.llvm::cl::opt.9"*, %"class.llvm::SmallVectorImpl.183"*)* @_ZN4llvm2cl3optIN3Ice8OptLevelELb0ENS0_6parserIS3_EEE19getExtraOptionNamesERNS_15SmallVectorImplINS_9StringRefEEE to i8*), i8* bitcast (i1 (%"class.llvm::cl::Option"*, i32, i8*, i64, i8*, i64, i1)* @_ZN4llvm2cl6Option13addOccurrenceEjNS_9StringRefES2_b to i8*)] }, comdat, align 8
@_ZTVN4llvm2cl6parserIN3Ice8OptLevelEEE = linkonce_odr hidden unnamed_addr constant { [10 x i8*] } { [10 x i8*] [i8* null, i8* null, i8* bitcast (void (%"class.llvm::cl::parser.16"*)* @_ZN4llvm2cl6parserIN3Ice8OptLevelEED2Ev to i8*), i8* bitcast (void (%"class.llvm::cl::parser.16"*)* @_ZN4llvm2cl6parserIN3Ice8OptLevelEED0Ev to i8*), i8* bitcast (i32 (%"class.llvm::cl::parser.16"*)* @_ZNK4llvm2cl6parserIN3Ice8OptLevelEE13getNumOptionsEv to i8*), i8* bitcast ({ i8*, i64 } (%"class.llvm::cl::parser.16"*, i32)* @_ZNK4llvm2cl6parserIN3Ice8OptLevelEE9getOptionEj to i8*), i8* bitcast ({ i8*, i64 } (%"class.llvm::cl::parser.16"*, i32)* @_ZNK4llvm2cl6parserIN3Ice8OptLevelEE14getDescriptionEj to i8*), i8* bitcast (i64 (%"class.llvm::cl::generic_parser_base"*, %"class.llvm::cl::Option"*)* @_ZNK4llvm2cl19generic_parser_base14getOptionWidthERKNS0_6OptionE to i8*), i8* bitcast (%"struct.llvm::cl::GenericOptionValue"* (%"class.llvm::cl::parser.16"*, i32)* @_ZNK4llvm2cl6parserIN3Ice8OptLevelEE14getOptionValueEj to i8*), i8* bitcast (void (%"class.llvm::cl::generic_parser_base"*, %"class.llvm::cl::Option"*, i64)* @_ZNK4llvm2cl19generic_parser_base15printOptionInfoERKNS0_6OptionEm to i8*)] }, comdat, align 8
@.str.302 = private unnamed_addr constant [27 x i8] c"Cannot find option named '\00", align 1
@.str.303 = private unnamed_addr constant [3 x i8] c"'!\00", align 1
@_ZTVN4llvm2cl11OptionValueIN3Ice8OptLevelEEE = linkonce_odr hidden unnamed_addr constant { [4 x i8*] } { [4 x i8*] [i8* null, i8* null, i8* bitcast (i1 (%"class.llvm::cl::OptionValueCopy.13"*, %"struct.llvm::cl::GenericOptionValue"*)* @_ZNK4llvm2cl15OptionValueCopyIN3Ice8OptLevelEE7compareERKNS0_18GenericOptionValueE to i8*), i8* bitcast (void (%"struct.llvm::cl::GenericOptionValue"*)* @_ZN4llvm2cl18GenericOptionValue6anchorEv to i8*)] }, comdat, align 8
@_ZTVN4llvm2cl15OptionValueCopyIN3Ice8OptLevelEEE = linkonce_odr hidden unnamed_addr constant { [4 x i8*] } { [4 x i8*] [i8* null, i8* null, i8* bitcast (i1 (%"class.llvm::cl::OptionValueCopy.13"*, %"struct.llvm::cl::GenericOptionValue"*)* @_ZNK4llvm2cl15OptionValueCopyIN3Ice8OptLevelEE7compareERKNS0_18GenericOptionValueE to i8*), i8* bitcast (void (%"struct.llvm::cl::GenericOptionValue"*)* @_ZN4llvm2cl18GenericOptionValue6anchorEv to i8*)] }, comdat, align 8
@_ZTVN4llvm2cl3optIN3Ice10TargetArchELb0ENS0_6parserIS3_EEEE = linkonce_odr hidden unnamed_addr constant { [12 x i8*] } { [12 x i8*] [i8* null, i8* null, i8* bitcast (i1 (%"class.llvm::cl::opt.25"*, i32, i8*, i64, i8*, i64)* @_ZN4llvm2cl3optIN3Ice10TargetArchELb0ENS0_6parserIS3_EEE16handleOccurrenceEjNS_9StringRefES7_ to i8*), i8* bitcast (i32 (%"class.llvm::cl::opt.25"*)* @_ZNK4llvm2cl3optIN3Ice10TargetArchELb0ENS0_6parserIS3_EEE27getValueExpectedFlagDefaultEv to i8*), i8* bitcast (void (%"class.llvm::cl::Option"*)* @_ZN4llvm2cl6Option6anchorEv to i8*), i8* bitcast (void (%"class.llvm::cl::opt.25"*)* @_ZN4llvm2cl3optIN3Ice10TargetArchELb0ENS0_6parserIS3_EEED2Ev to i8*), i8* bitcast (void (%"class.llvm::cl::opt.25"*)* @_ZN4llvm2cl3optIN3Ice10TargetArchELb0ENS0_6parserIS3_EEED0Ev to i8*), i8* bitcast (i64 (%"class.llvm::cl::opt.25"*)* @_ZNK4llvm2cl3optIN3Ice10TargetArchELb0ENS0_6parserIS3_EEE14getOptionWidthEv to i8*), i8* bitcast (void (%"class.llvm::cl::opt.25"*, i64)* @_ZNK4llvm2cl3optIN3Ice10TargetArchELb0ENS0_6parserIS3_EEE15printOptionInfoEm to i8*), i8* bitcast (void (%"class.llvm::cl::opt.25"*, i64, i1)* @_ZNK4llvm2cl3optIN3Ice10TargetArchELb0ENS0_6parserIS3_EEE16printOptionValueEmb to i8*), i8* bitcast (void (%"class.llvm::cl::opt.25"*, %"class.llvm::SmallVectorImpl.183"*)* @_ZN4llvm2cl3optIN3Ice10TargetArchELb0ENS0_6parserIS3_EEE19getExtraOptionNamesERNS_15SmallVectorImplINS_9StringRefEEE to i8*), i8* bitcast (i1 (%"class.llvm::cl::Option"*, i32, i8*, i64, i8*, i64, i1)* @_ZN4llvm2cl6Option13addOccurrenceEjNS_9StringRefES2_b to i8*)] }, comdat, align 8
@_ZTVN4llvm2cl6parserIN3Ice10TargetArchEEE = linkonce_odr hidden unnamed_addr constant { [10 x i8*] } { [10 x i8*] [i8* null, i8* null, i8* bitcast (void (%"class.llvm::cl::parser.32"*)* @_ZN4llvm2cl6parserIN3Ice10TargetArchEED2Ev to i8*), i8* bitcast (void (%"class.llvm::cl::parser.32"*)* @_ZN4llvm2cl6parserIN3Ice10TargetArchEED0Ev to i8*), i8* bitcast (i32 (%"class.llvm::cl::parser.32"*)* @_ZNK4llvm2cl6parserIN3Ice10TargetArchEE13getNumOptionsEv to i8*), i8* bitcast ({ i8*, i64 } (%"class.llvm::cl::parser.32"*, i32)* @_ZNK4llvm2cl6parserIN3Ice10TargetArchEE9getOptionEj to i8*), i8* bitcast ({ i8*, i64 } (%"class.llvm::cl::parser.32"*, i32)* @_ZNK4llvm2cl6parserIN3Ice10TargetArchEE14getDescriptionEj to i8*), i8* bitcast (i64 (%"class.llvm::cl::generic_parser_base"*, %"class.llvm::cl::Option"*)* @_ZNK4llvm2cl19generic_parser_base14getOptionWidthERKNS0_6OptionE to i8*), i8* bitcast (%"struct.llvm::cl::GenericOptionValue"* (%"class.llvm::cl::parser.32"*, i32)* @_ZNK4llvm2cl6parserIN3Ice10TargetArchEE14getOptionValueEj to i8*), i8* bitcast (void (%"class.llvm::cl::generic_parser_base"*, %"class.llvm::cl::Option"*, i64)* @_ZNK4llvm2cl19generic_parser_base15printOptionInfoERKNS0_6OptionEm to i8*)] }, comdat, align 8
@_ZTVN4llvm2cl11OptionValueIN3Ice10TargetArchEEE = linkonce_odr hidden unnamed_addr constant { [4 x i8*] } { [4 x i8*] [i8* null, i8* null, i8* bitcast (i1 (%"class.llvm::cl::OptionValueCopy.29"*, %"struct.llvm::cl::GenericOptionValue"*)* @_ZNK4llvm2cl15OptionValueCopyIN3Ice10TargetArchEE7compareERKNS0_18GenericOptionValueE to i8*), i8* bitcast (void (%"struct.llvm::cl::GenericOptionValue"*)* @_ZN4llvm2cl18GenericOptionValue6anchorEv to i8*)] }, comdat, align 8
@_ZTVN4llvm2cl15OptionValueCopyIN3Ice10TargetArchEEE = linkonce_odr hidden unnamed_addr constant { [4 x i8*] } { [4 x i8*] [i8* null, i8* null, i8* bitcast (i1 (%"class.llvm::cl::OptionValueCopy.29"*, %"struct.llvm::cl::GenericOptionValue"*)* @_ZNK4llvm2cl15OptionValueCopyIN3Ice10TargetArchEE7compareERKNS0_18GenericOptionValueE to i8*), i8* bitcast (void (%"struct.llvm::cl::GenericOptionValue"*)* @_ZN4llvm2cl18GenericOptionValue6anchorEv to i8*)] }, comdat, align 8
@_ZTVN4llvm2cl3optIN3Ice11LCSEOptionsELb0ENS0_6parserIS3_EEEE = linkonce_odr hidden unnamed_addr constant { [12 x i8*] } { [12 x i8*] [i8* null, i8* null, i8* bitcast (i1 (%"class.llvm::cl::opt.52"*, i32, i8*, i64, i8*, i64)* @_ZN4llvm2cl3optIN3Ice11LCSEOptionsELb0ENS0_6parserIS3_EEE16handleOccurrenceEjNS_9StringRefES7_ to i8*), i8* bitcast (i32 (%"class.llvm::cl::opt.52"*)* @_ZNK4llvm2cl3optIN3Ice11LCSEOptionsELb0ENS0_6parserIS3_EEE27getValueExpectedFlagDefaultEv to i8*), i8* bitcast (void (%"class.llvm::cl::Option"*)* @_ZN4llvm2cl6Option6anchorEv to i8*), i8* bitcast (void (%"class.llvm::cl::opt.52"*)* @_ZN4llvm2cl3optIN3Ice11LCSEOptionsELb0ENS0_6parserIS3_EEED2Ev to i8*), i8* bitcast (void (%"class.llvm::cl::opt.52"*)* @_ZN4llvm2cl3optIN3Ice11LCSEOptionsELb0ENS0_6parserIS3_EEED0Ev to i8*), i8* bitcast (i64 (%"class.llvm::cl::opt.52"*)* @_ZNK4llvm2cl3optIN3Ice11LCSEOptionsELb0ENS0_6parserIS3_EEE14getOptionWidthEv to i8*), i8* bitcast (void (%"class.llvm::cl::opt.52"*, i64)* @_ZNK4llvm2cl3optIN3Ice11LCSEOptionsELb0ENS0_6parserIS3_EEE15printOptionInfoEm to i8*), i8* bitcast (void (%"class.llvm::cl::opt.52"*, i64, i1)* @_ZNK4llvm2cl3optIN3Ice11LCSEOptionsELb0ENS0_6parserIS3_EEE16printOptionValueEmb to i8*), i8* bitcast (void (%"class.llvm::cl::opt.52"*, %"class.llvm::SmallVectorImpl.183"*)* @_ZN4llvm2cl3optIN3Ice11LCSEOptionsELb0ENS0_6parserIS3_EEE19getExtraOptionNamesERNS_15SmallVectorImplINS_9StringRefEEE to i8*), i8* bitcast (i1 (%"class.llvm::cl::Option"*, i32, i8*, i64, i8*, i64, i1)* @_ZN4llvm2cl6Option13addOccurrenceEjNS_9StringRefES2_b to i8*)] }, comdat, align 8
@_ZTVN4llvm2cl6parserIN3Ice11LCSEOptionsEEE = linkonce_odr hidden unnamed_addr constant { [10 x i8*] } { [10 x i8*] [i8* null, i8* null, i8* bitcast (void (%"class.llvm::cl::parser.59"*)* @_ZN4llvm2cl6parserIN3Ice11LCSEOptionsEED2Ev to i8*), i8* bitcast (void (%"class.llvm::cl::parser.59"*)* @_ZN4llvm2cl6parserIN3Ice11LCSEOptionsEED0Ev to i8*), i8* bitcast (i32 (%"class.llvm::cl::parser.59"*)* @_ZNK4llvm2cl6parserIN3Ice11LCSEOptionsEE13getNumOptionsEv to i8*), i8* bitcast ({ i8*, i64 } (%"class.llvm::cl::parser.59"*, i32)* @_ZNK4llvm2cl6parserIN3Ice11LCSEOptionsEE9getOptionEj to i8*), i8* bitcast ({ i8*, i64 } (%"class.llvm::cl::parser.59"*, i32)* @_ZNK4llvm2cl6parserIN3Ice11LCSEOptionsEE14getDescriptionEj to i8*), i8* bitcast (i64 (%"class.llvm::cl::generic_parser_base"*, %"class.llvm::cl::Option"*)* @_ZNK4llvm2cl19generic_parser_base14getOptionWidthERKNS0_6OptionE to i8*), i8* bitcast (%"struct.llvm::cl::GenericOptionValue"* (%"class.llvm::cl::parser.59"*, i32)* @_ZNK4llvm2cl6parserIN3Ice11LCSEOptionsEE14getOptionValueEj to i8*), i8* bitcast (void (%"class.llvm::cl::generic_parser_base"*, %"class.llvm::cl::Option"*, i64)* @_ZNK4llvm2cl19generic_parser_base15printOptionInfoERKNS0_6OptionEm to i8*)] }, comdat, align 8
@_ZTVN4llvm2cl11OptionValueIN3Ice11LCSEOptionsEEE = linkonce_odr hidden unnamed_addr constant { [4 x i8*] } { [4 x i8*] [i8* null, i8* null, i8* bitcast (i1 (%"class.llvm::cl::OptionValueCopy.56"*, %"struct.llvm::cl::GenericOptionValue"*)* @_ZNK4llvm2cl15OptionValueCopyIN3Ice11LCSEOptionsEE7compareERKNS0_18GenericOptionValueE to i8*), i8* bitcast (void (%"struct.llvm::cl::GenericOptionValue"*)* @_ZN4llvm2cl18GenericOptionValue6anchorEv to i8*)] }, comdat, align 8
@_ZTVN4llvm2cl15OptionValueCopyIN3Ice11LCSEOptionsEEE = linkonce_odr hidden unnamed_addr constant { [4 x i8*] } { [4 x i8*] [i8* null, i8* null, i8* bitcast (i1 (%"class.llvm::cl::OptionValueCopy.56"*, %"struct.llvm::cl::GenericOptionValue"*)* @_ZNK4llvm2cl15OptionValueCopyIN3Ice11LCSEOptionsEE7compareERKNS0_18GenericOptionValueE to i8*), i8* bitcast (void (%"struct.llvm::cl::GenericOptionValue"*)* @_ZN4llvm2cl18GenericOptionValue6anchorEv to i8*)] }, comdat, align 8
@_ZTVN4llvm2cl4listINSt3__112basic_stringIcNS2_11char_traitsIcEENS2_9allocatorIcEEEEbNS0_6parserIS8_EEEE = linkonce_odr hidden unnamed_addr constant { [12 x i8*] } { [12 x i8*] [i8* null, i8* null, i8* bitcast (i1 (%"class.llvm::cl::list"*, i32, i8*, i64, i8*, i64)* @_ZN4llvm2cl4listINSt3__112basic_stringIcNS2_11char_traitsIcEENS2_9allocatorIcEEEEbNS0_6parserIS8_EEE16handleOccurrenceEjNS_9StringRefESC_ to i8*), i8* bitcast (i32 (%"class.llvm::cl::list"*)* @_ZNK4llvm2cl4listINSt3__112basic_stringIcNS2_11char_traitsIcEENS2_9allocatorIcEEEEbNS0_6parserIS8_EEE27getValueExpectedFlagDefaultEv to i8*), i8* bitcast (void (%"class.llvm::cl::Option"*)* @_ZN4llvm2cl6Option6anchorEv to i8*), i8* bitcast (void (%"class.llvm::cl::list"*)* @_ZN4llvm2cl4listINSt3__112basic_stringIcNS2_11char_traitsIcEENS2_9allocatorIcEEEEbNS0_6parserIS8_EEED2Ev to i8*), i8* bitcast (void (%"class.llvm::cl::list"*)* @_ZN4llvm2cl4listINSt3__112basic_stringIcNS2_11char_traitsIcEENS2_9allocatorIcEEEEbNS0_6parserIS8_EEED0Ev to i8*), i8* bitcast (i64 (%"class.llvm::cl::list"*)* @_ZNK4llvm2cl4listINSt3__112basic_stringIcNS2_11char_traitsIcEENS2_9allocatorIcEEEEbNS0_6parserIS8_EEE14getOptionWidthEv to i8*), i8* bitcast (void (%"class.llvm::cl::list"*, i64)* @_ZNK4llvm2cl4listINSt3__112basic_stringIcNS2_11char_traitsIcEENS2_9allocatorIcEEEEbNS0_6parserIS8_EEE15printOptionInfoEm to i8*), i8* bitcast (void (%"class.llvm::cl::list"*, i64, i1)* @_ZNK4llvm2cl4listINSt3__112basic_stringIcNS2_11char_traitsIcEENS2_9allocatorIcEEEEbNS0_6parserIS8_EEE16printOptionValueEmb to i8*), i8* bitcast (void (%"class.llvm::cl::list"*, %"class.llvm::SmallVectorImpl.183"*)* @_ZN4llvm2cl4listINSt3__112basic_stringIcNS2_11char_traitsIcEENS2_9allocatorIcEEEEbNS0_6parserIS8_EEE19getExtraOptionNamesERNS_15SmallVectorImplINS_9StringRefEEE to i8*), i8* bitcast (i1 (%"class.llvm::cl::Option"*, i32, i8*, i64, i8*, i64, i1)* @_ZN4llvm2cl6Option13addOccurrenceEjNS_9StringRefES2_b to i8*)] }, comdat, align 8
@_ZTVN4llvm2cl3optINS_14NaClFileFormatELb0ENS0_6parserIS2_EEEE = linkonce_odr hidden unnamed_addr constant { [12 x i8*] } { [12 x i8*] [i8* null, i8* null, i8* bitcast (i1 (%"class.llvm::cl::opt.80"*, i32, i8*, i64, i8*, i64)* @_ZN4llvm2cl3optINS_14NaClFileFormatELb0ENS0_6parserIS2_EEE16handleOccurrenceEjNS_9StringRefES6_ to i8*), i8* bitcast (i32 (%"class.llvm::cl::opt.80"*)* @_ZNK4llvm2cl3optINS_14NaClFileFormatELb0ENS0_6parserIS2_EEE27getValueExpectedFlagDefaultEv to i8*), i8* bitcast (void (%"class.llvm::cl::Option"*)* @_ZN4llvm2cl6Option6anchorEv to i8*), i8* bitcast (void (%"class.llvm::cl::opt.80"*)* @_ZN4llvm2cl3optINS_14NaClFileFormatELb0ENS0_6parserIS2_EEED2Ev to i8*), i8* bitcast (void (%"class.llvm::cl::opt.80"*)* @_ZN4llvm2cl3optINS_14NaClFileFormatELb0ENS0_6parserIS2_EEED0Ev to i8*), i8* bitcast (i64 (%"class.llvm::cl::opt.80"*)* @_ZNK4llvm2cl3optINS_14NaClFileFormatELb0ENS0_6parserIS2_EEE14getOptionWidthEv to i8*), i8* bitcast (void (%"class.llvm::cl::opt.80"*, i64)* @_ZNK4llvm2cl3optINS_14NaClFileFormatELb0ENS0_6parserIS2_EEE15printOptionInfoEm to i8*), i8* bitcast (void (%"class.llvm::cl::opt.80"*, i64, i1)* @_ZNK4llvm2cl3optINS_14NaClFileFormatELb0ENS0_6parserIS2_EEE16printOptionValueEmb to i8*), i8* bitcast (void (%"class.llvm::cl::opt.80"*, %"class.llvm::SmallVectorImpl.183"*)* @_ZN4llvm2cl3optINS_14NaClFileFormatELb0ENS0_6parserIS2_EEE19getExtraOptionNamesERNS_15SmallVectorImplINS_9StringRefEEE to i8*), i8* bitcast (i1 (%"class.llvm::cl::Option"*, i32, i8*, i64, i8*, i64, i1)* @_ZN4llvm2cl6Option13addOccurrenceEjNS_9StringRefES2_b to i8*)] }, comdat, align 8
@_ZTVN4llvm2cl6parserINS_14NaClFileFormatEEE = linkonce_odr hidden unnamed_addr constant { [10 x i8*] } { [10 x i8*] [i8* null, i8* null, i8* bitcast (void (%"class.llvm::cl::parser.87"*)* @_ZN4llvm2cl6parserINS_14NaClFileFormatEED2Ev to i8*), i8* bitcast (void (%"class.llvm::cl::parser.87"*)* @_ZN4llvm2cl6parserINS_14NaClFileFormatEED0Ev to i8*), i8* bitcast (i32 (%"class.llvm::cl::parser.87"*)* @_ZNK4llvm2cl6parserINS_14NaClFileFormatEE13getNumOptionsEv to i8*), i8* bitcast ({ i8*, i64 } (%"class.llvm::cl::parser.87"*, i32)* @_ZNK4llvm2cl6parserINS_14NaClFileFormatEE9getOptionEj to i8*), i8* bitcast ({ i8*, i64 } (%"class.llvm::cl::parser.87"*, i32)* @_ZNK4llvm2cl6parserINS_14NaClFileFormatEE14getDescriptionEj to i8*), i8* bitcast (i64 (%"class.llvm::cl::generic_parser_base"*, %"class.llvm::cl::Option"*)* @_ZNK4llvm2cl19generic_parser_base14getOptionWidthERKNS0_6OptionE to i8*), i8* bitcast (%"struct.llvm::cl::GenericOptionValue"* (%"class.llvm::cl::parser.87"*, i32)* @_ZNK4llvm2cl6parserINS_14NaClFileFormatEE14getOptionValueEj to i8*), i8* bitcast (void (%"class.llvm::cl::generic_parser_base"*, %"class.llvm::cl::Option"*, i64)* @_ZNK4llvm2cl19generic_parser_base15printOptionInfoERKNS0_6OptionEm to i8*)] }, comdat, align 8
@_ZTVN4llvm2cl11OptionValueINS_14NaClFileFormatEEE = linkonce_odr hidden unnamed_addr constant { [4 x i8*] } { [4 x i8*] [i8* null, i8* null, i8* bitcast (i1 (%"class.llvm::cl::OptionValueCopy.84"*, %"struct.llvm::cl::GenericOptionValue"*)* @_ZNK4llvm2cl15OptionValueCopyINS_14NaClFileFormatEE7compareERKNS0_18GenericOptionValueE to i8*), i8* bitcast (void (%"struct.llvm::cl::GenericOptionValue"*)* @_ZN4llvm2cl18GenericOptionValue6anchorEv to i8*)] }, comdat, align 8
@_ZTVN4llvm2cl15OptionValueCopyINS_14NaClFileFormatEEE = linkonce_odr hidden unnamed_addr constant { [4 x i8*] } { [4 x i8*] [i8* null, i8* null, i8* bitcast (i1 (%"class.llvm::cl::OptionValueCopy.84"*, %"struct.llvm::cl::GenericOptionValue"*)* @_ZNK4llvm2cl15OptionValueCopyINS_14NaClFileFormatEE7compareERKNS0_18GenericOptionValueE to i8*), i8* bitcast (void (%"struct.llvm::cl::GenericOptionValue"*)* @_ZN4llvm2cl18GenericOptionValue6anchorEv to i8*)] }, comdat, align 8
@_ZTVN4llvm2cl3optIN3Ice8FileTypeELb0ENS0_6parserIS3_EEEE = linkonce_odr hidden unnamed_addr constant { [12 x i8*] } { [12 x i8*] [i8* null, i8* null, i8* bitcast (i1 (%"class.llvm::cl::opt.104"*, i32, i8*, i64, i8*, i64)* @_ZN4llvm2cl3optIN3Ice8FileTypeELb0ENS0_6parserIS3_EEE16handleOccurrenceEjNS_9StringRefES7_ to i8*), i8* bitcast (i32 (%"class.llvm::cl::opt.104"*)* @_ZNK4llvm2cl3optIN3Ice8FileTypeELb0ENS0_6parserIS3_EEE27getValueExpectedFlagDefaultEv to i8*), i8* bitcast (void (%"class.llvm::cl::Option"*)* @_ZN4llvm2cl6Option6anchorEv to i8*), i8* bitcast (void (%"class.llvm::cl::opt.104"*)* @_ZN4llvm2cl3optIN3Ice8FileTypeELb0ENS0_6parserIS3_EEED2Ev to i8*), i8* bitcast (void (%"class.llvm::cl::opt.104"*)* @_ZN4llvm2cl3optIN3Ice8FileTypeELb0ENS0_6parserIS3_EEED0Ev to i8*), i8* bitcast (i64 (%"class.llvm::cl::opt.104"*)* @_ZNK4llvm2cl3optIN3Ice8FileTypeELb0ENS0_6parserIS3_EEE14getOptionWidthEv to i8*), i8* bitcast (void (%"class.llvm::cl::opt.104"*, i64)* @_ZNK4llvm2cl3optIN3Ice8FileTypeELb0ENS0_6parserIS3_EEE15printOptionInfoEm to i8*), i8* bitcast (void (%"class.llvm::cl::opt.104"*, i64, i1)* @_ZNK4llvm2cl3optIN3Ice8FileTypeELb0ENS0_6parserIS3_EEE16printOptionValueEmb to i8*), i8* bitcast (void (%"class.llvm::cl::opt.104"*, %"class.llvm::SmallVectorImpl.183"*)* @_ZN4llvm2cl3optIN3Ice8FileTypeELb0ENS0_6parserIS3_EEE19getExtraOptionNamesERNS_15SmallVectorImplINS_9StringRefEEE to i8*), i8* bitcast (i1 (%"class.llvm::cl::Option"*, i32, i8*, i64, i8*, i64, i1)* @_ZN4llvm2cl6Option13addOccurrenceEjNS_9StringRefES2_b to i8*)] }, comdat, align 8
@_ZTVN4llvm2cl6parserIN3Ice8FileTypeEEE = linkonce_odr hidden unnamed_addr constant { [10 x i8*] } { [10 x i8*] [i8* null, i8* null, i8* bitcast (void (%"class.llvm::cl::parser.111"*)* @_ZN4llvm2cl6parserIN3Ice8FileTypeEED2Ev to i8*), i8* bitcast (void (%"class.llvm::cl::parser.111"*)* @_ZN4llvm2cl6parserIN3Ice8FileTypeEED0Ev to i8*), i8* bitcast (i32 (%"class.llvm::cl::parser.111"*)* @_ZNK4llvm2cl6parserIN3Ice8FileTypeEE13getNumOptionsEv to i8*), i8* bitcast ({ i8*, i64 } (%"class.llvm::cl::parser.111"*, i32)* @_ZNK4llvm2cl6parserIN3Ice8FileTypeEE9getOptionEj to i8*), i8* bitcast ({ i8*, i64 } (%"class.llvm::cl::parser.111"*, i32)* @_ZNK4llvm2cl6parserIN3Ice8FileTypeEE14getDescriptionEj to i8*), i8* bitcast (i64 (%"class.llvm::cl::generic_parser_base"*, %"class.llvm::cl::Option"*)* @_ZNK4llvm2cl19generic_parser_base14getOptionWidthERKNS0_6OptionE to i8*), i8* bitcast (%"struct.llvm::cl::GenericOptionValue"* (%"class.llvm::cl::parser.111"*, i32)* @_ZNK4llvm2cl6parserIN3Ice8FileTypeEE14getOptionValueEj to i8*), i8* bitcast (void (%"class.llvm::cl::generic_parser_base"*, %"class.llvm::cl::Option"*, i64)* @_ZNK4llvm2cl19generic_parser_base15printOptionInfoERKNS0_6OptionEm to i8*)] }, comdat, align 8
@_ZTVN4llvm2cl11OptionValueIN3Ice8FileTypeEEE = linkonce_odr hidden unnamed_addr constant { [4 x i8*] } { [4 x i8*] [i8* null, i8* null, i8* bitcast (i1 (%"class.llvm::cl::OptionValueCopy.108"*, %"struct.llvm::cl::GenericOptionValue"*)* @_ZNK4llvm2cl15OptionValueCopyIN3Ice8FileTypeEE7compareERKNS0_18GenericOptionValueE to i8*), i8* bitcast (void (%"struct.llvm::cl::GenericOptionValue"*)* @_ZN4llvm2cl18GenericOptionValue6anchorEv to i8*)] }, comdat, align 8
@_ZTVN4llvm2cl15OptionValueCopyIN3Ice8FileTypeEEE = linkonce_odr hidden unnamed_addr constant { [4 x i8*] } { [4 x i8*] [i8* null, i8* null, i8* bitcast (i1 (%"class.llvm::cl::OptionValueCopy.108"*, %"struct.llvm::cl::GenericOptionValue"*)* @_ZNK4llvm2cl15OptionValueCopyIN3Ice8FileTypeEE7compareERKNS0_18GenericOptionValueE to i8*), i8* bitcast (void (%"struct.llvm::cl::GenericOptionValue"*)* @_ZN4llvm2cl18GenericOptionValue6anchorEv to i8*)] }, comdat, align 8
@_ZTVN4llvm2cl3optIN3Ice3ABIELb0ENS0_6parserIS3_EEEE = linkonce_odr hidden unnamed_addr constant { [12 x i8*] } { [12 x i8*] [i8* null, i8* null, i8* bitcast (i1 (%"class.llvm::cl::opt.119"*, i32, i8*, i64, i8*, i64)* @_ZN4llvm2cl3optIN3Ice3ABIELb0ENS0_6parserIS3_EEE16handleOccurrenceEjNS_9StringRefES7_ to i8*), i8* bitcast (i32 (%"class.llvm::cl::opt.119"*)* @_ZNK4llvm2cl3optIN3Ice3ABIELb0ENS0_6parserIS3_EEE27getValueExpectedFlagDefaultEv to i8*), i8* bitcast (void (%"class.llvm::cl::Option"*)* @_ZN4llvm2cl6Option6anchorEv to i8*), i8* bitcast (void (%"class.llvm::cl::opt.119"*)* @_ZN4llvm2cl3optIN3Ice3ABIELb0ENS0_6parserIS3_EEED2Ev to i8*), i8* bitcast (void (%"class.llvm::cl::opt.119"*)* @_ZN4llvm2cl3optIN3Ice3ABIELb0ENS0_6parserIS3_EEED0Ev to i8*), i8* bitcast (i64 (%"class.llvm::cl::opt.119"*)* @_ZNK4llvm2cl3optIN3Ice3ABIELb0ENS0_6parserIS3_EEE14getOptionWidthEv to i8*), i8* bitcast (void (%"class.llvm::cl::opt.119"*, i64)* @_ZNK4llvm2cl3optIN3Ice3ABIELb0ENS0_6parserIS3_EEE15printOptionInfoEm to i8*), i8* bitcast (void (%"class.llvm::cl::opt.119"*, i64, i1)* @_ZNK4llvm2cl3optIN3Ice3ABIELb0ENS0_6parserIS3_EEE16printOptionValueEmb to i8*), i8* bitcast (void (%"class.llvm::cl::opt.119"*, %"class.llvm::SmallVectorImpl.183"*)* @_ZN4llvm2cl3optIN3Ice3ABIELb0ENS0_6parserIS3_EEE19getExtraOptionNamesERNS_15SmallVectorImplINS_9StringRefEEE to i8*), i8* bitcast (i1 (%"class.llvm::cl::Option"*, i32, i8*, i64, i8*, i64, i1)* @_ZN4llvm2cl6Option13addOccurrenceEjNS_9StringRefES2_b to i8*)] }, comdat, align 8
@_ZTVN4llvm2cl6parserIN3Ice3ABIEEE = linkonce_odr hidden unnamed_addr constant { [10 x i8*] } { [10 x i8*] [i8* null, i8* null, i8* bitcast (void (%"class.llvm::cl::parser.126"*)* @_ZN4llvm2cl6parserIN3Ice3ABIEED2Ev to i8*), i8* bitcast (void (%"class.llvm::cl::parser.126"*)* @_ZN4llvm2cl6parserIN3Ice3ABIEED0Ev to i8*), i8* bitcast (i32 (%"class.llvm::cl::parser.126"*)* @_ZNK4llvm2cl6parserIN3Ice3ABIEE13getNumOptionsEv to i8*), i8* bitcast ({ i8*, i64 } (%"class.llvm::cl::parser.126"*, i32)* @_ZNK4llvm2cl6parserIN3Ice3ABIEE9getOptionEj to i8*), i8* bitcast ({ i8*, i64 } (%"class.llvm::cl::parser.126"*, i32)* @_ZNK4llvm2cl6parserIN3Ice3ABIEE14getDescriptionEj to i8*), i8* bitcast (i64 (%"class.llvm::cl::generic_parser_base"*, %"class.llvm::cl::Option"*)* @_ZNK4llvm2cl19generic_parser_base14getOptionWidthERKNS0_6OptionE to i8*), i8* bitcast (%"struct.llvm::cl::GenericOptionValue"* (%"class.llvm::cl::parser.126"*, i32)* @_ZNK4llvm2cl6parserIN3Ice3ABIEE14getOptionValueEj to i8*), i8* bitcast (void (%"class.llvm::cl::generic_parser_base"*, %"class.llvm::cl::Option"*, i64)* @_ZNK4llvm2cl19generic_parser_base15printOptionInfoERKNS0_6OptionEm to i8*)] }, comdat, align 8
@_ZTVN4llvm2cl11OptionValueIN3Ice3ABIEEE = linkonce_odr hidden unnamed_addr constant { [4 x i8*] } { [4 x i8*] [i8* null, i8* null, i8* bitcast (i1 (%"class.llvm::cl::OptionValueCopy.123"*, %"struct.llvm::cl::GenericOptionValue"*)* @_ZNK4llvm2cl15OptionValueCopyIN3Ice3ABIEE7compareERKNS0_18GenericOptionValueE to i8*), i8* bitcast (void (%"struct.llvm::cl::GenericOptionValue"*)* @_ZN4llvm2cl18GenericOptionValue6anchorEv to i8*)] }, comdat, align 8
@_ZTVN4llvm2cl15OptionValueCopyIN3Ice3ABIEEE = linkonce_odr hidden unnamed_addr constant { [4 x i8*] } { [4 x i8*] [i8* null, i8* null, i8* bitcast (i1 (%"class.llvm::cl::OptionValueCopy.123"*, %"struct.llvm::cl::GenericOptionValue"*)* @_ZNK4llvm2cl15OptionValueCopyIN3Ice3ABIEE7compareERKNS0_18GenericOptionValueE to i8*), i8* bitcast (void (%"struct.llvm::cl::GenericOptionValue"*)* @_ZN4llvm2cl18GenericOptionValue6anchorEv to i8*)] }, comdat, align 8
@_ZTVN4llvm2cl3optIN3Ice20TargetInstructionSetELb0ENS0_6parserIS3_EEEE = linkonce_odr hidden unnamed_addr constant { [12 x i8*] } { [12 x i8*] [i8* null, i8* null, i8* bitcast (i1 (%"class.llvm::cl::opt.134"*, i32, i8*, i64, i8*, i64)* @_ZN4llvm2cl3optIN3Ice20TargetInstructionSetELb0ENS0_6parserIS3_EEE16handleOccurrenceEjNS_9StringRefES7_ to i8*), i8* bitcast (i32 (%"class.llvm::cl::opt.134"*)* @_ZNK4llvm2cl3optIN3Ice20TargetInstructionSetELb0ENS0_6parserIS3_EEE27getValueExpectedFlagDefaultEv to i8*), i8* bitcast (void (%"class.llvm::cl::Option"*)* @_ZN4llvm2cl6Option6anchorEv to i8*), i8* bitcast (void (%"class.llvm::cl::opt.134"*)* @_ZN4llvm2cl3optIN3Ice20TargetInstructionSetELb0ENS0_6parserIS3_EEED2Ev to i8*), i8* bitcast (void (%"class.llvm::cl::opt.134"*)* @_ZN4llvm2cl3optIN3Ice20TargetInstructionSetELb0ENS0_6parserIS3_EEED0Ev to i8*), i8* bitcast (i64 (%"class.llvm::cl::opt.134"*)* @_ZNK4llvm2cl3optIN3Ice20TargetInstructionSetELb0ENS0_6parserIS3_EEE14getOptionWidthEv to i8*), i8* bitcast (void (%"class.llvm::cl::opt.134"*, i64)* @_ZNK4llvm2cl3optIN3Ice20TargetInstructionSetELb0ENS0_6parserIS3_EEE15printOptionInfoEm to i8*), i8* bitcast (void (%"class.llvm::cl::opt.134"*, i64, i1)* @_ZNK4llvm2cl3optIN3Ice20TargetInstructionSetELb0ENS0_6parserIS3_EEE16printOptionValueEmb to i8*), i8* bitcast (void (%"class.llvm::cl::opt.134"*, %"class.llvm::SmallVectorImpl.183"*)* @_ZN4llvm2cl3optIN3Ice20TargetInstructionSetELb0ENS0_6parserIS3_EEE19getExtraOptionNamesERNS_15SmallVectorImplINS_9StringRefEEE to i8*), i8* bitcast (i1 (%"class.llvm::cl::Option"*, i32, i8*, i64, i8*, i64, i1)* @_ZN4llvm2cl6Option13addOccurrenceEjNS_9StringRefES2_b to i8*)] }, comdat, align 8
@_ZTVN4llvm2cl6parserIN3Ice20TargetInstructionSetEEE = linkonce_odr hidden unnamed_addr constant { [10 x i8*] } { [10 x i8*] [i8* null, i8* null, i8* bitcast (void (%"class.llvm::cl::parser.141"*)* @_ZN4llvm2cl6parserIN3Ice20TargetInstructionSetEED2Ev to i8*), i8* bitcast (void (%"class.llvm::cl::parser.141"*)* @_ZN4llvm2cl6parserIN3Ice20TargetInstructionSetEED0Ev to i8*), i8* bitcast (i32 (%"class.llvm::cl::parser.141"*)* @_ZNK4llvm2cl6parserIN3Ice20TargetInstructionSetEE13getNumOptionsEv to i8*), i8* bitcast ({ i8*, i64 } (%"class.llvm::cl::parser.141"*, i32)* @_ZNK4llvm2cl6parserIN3Ice20TargetInstructionSetEE9getOptionEj to i8*), i8* bitcast ({ i8*, i64 } (%"class.llvm::cl::parser.141"*, i32)* @_ZNK4llvm2cl6parserIN3Ice20TargetInstructionSetEE14getDescriptionEj to i8*), i8* bitcast (i64 (%"class.llvm::cl::generic_parser_base"*, %"class.llvm::cl::Option"*)* @_ZNK4llvm2cl19generic_parser_base14getOptionWidthERKNS0_6OptionE to i8*), i8* bitcast (%"struct.llvm::cl::GenericOptionValue"* (%"class.llvm::cl::parser.141"*, i32)* @_ZNK4llvm2cl6parserIN3Ice20TargetInstructionSetEE14getOptionValueEj to i8*), i8* bitcast (void (%"class.llvm::cl::generic_parser_base"*, %"class.llvm::cl::Option"*, i64)* @_ZNK4llvm2cl19generic_parser_base15printOptionInfoERKNS0_6OptionEm to i8*)] }, comdat, align 8
@_ZTVN4llvm2cl11OptionValueIN3Ice20TargetInstructionSetEEE = linkonce_odr hidden unnamed_addr constant { [4 x i8*] } { [4 x i8*] [i8* null, i8* null, i8* bitcast (i1 (%"class.llvm::cl::OptionValueCopy.138"*, %"struct.llvm::cl::GenericOptionValue"*)* @_ZNK4llvm2cl15OptionValueCopyIN3Ice20TargetInstructionSetEE7compareERKNS0_18GenericOptionValueE to i8*), i8* bitcast (void (%"struct.llvm::cl::GenericOptionValue"*)* @_ZN4llvm2cl18GenericOptionValue6anchorEv to i8*)] }, comdat, align 8
@_ZTVN4llvm2cl15OptionValueCopyIN3Ice20TargetInstructionSetEEE = linkonce_odr hidden unnamed_addr constant { [4 x i8*] } { [4 x i8*] [i8* null, i8* null, i8* bitcast (i1 (%"class.llvm::cl::OptionValueCopy.138"*, %"struct.llvm::cl::GenericOptionValue"*)* @_ZNK4llvm2cl15OptionValueCopyIN3Ice20TargetInstructionSetEE7compareERKNS0_18GenericOptionValueE to i8*), i8* bitcast (void (%"struct.llvm::cl::GenericOptionValue"*)* @_ZN4llvm2cl18GenericOptionValue6anchorEv to i8*)] }, comdat, align 8
@_ZTVN4llvm2cl4listIN3Ice11VerboseItemEbNS0_6parserIS3_EEEE = linkonce_odr hidden unnamed_addr constant { [12 x i8*] } { [12 x i8*] [i8* null, i8* null, i8* bitcast (i1 (%"class.llvm::cl::list.149"*, i32, i8*, i64, i8*, i64)* @_ZN4llvm2cl4listIN3Ice11VerboseItemEbNS0_6parserIS3_EEE16handleOccurrenceEjNS_9StringRefES7_ to i8*), i8* bitcast (i32 (%"class.llvm::cl::list.149"*)* @_ZNK4llvm2cl4listIN3Ice11VerboseItemEbNS0_6parserIS3_EEE27getValueExpectedFlagDefaultEv to i8*), i8* bitcast (void (%"class.llvm::cl::Option"*)* @_ZN4llvm2cl6Option6anchorEv to i8*), i8* bitcast (void (%"class.llvm::cl::list.149"*)* @_ZN4llvm2cl4listIN3Ice11VerboseItemEbNS0_6parserIS3_EEED2Ev to i8*), i8* bitcast (void (%"class.llvm::cl::list.149"*)* @_ZN4llvm2cl4listIN3Ice11VerboseItemEbNS0_6parserIS3_EEED0Ev to i8*), i8* bitcast (i64 (%"class.llvm::cl::list.149"*)* @_ZNK4llvm2cl4listIN3Ice11VerboseItemEbNS0_6parserIS3_EEE14getOptionWidthEv to i8*), i8* bitcast (void (%"class.llvm::cl::list.149"*, i64)* @_ZNK4llvm2cl4listIN3Ice11VerboseItemEbNS0_6parserIS3_EEE15printOptionInfoEm to i8*), i8* bitcast (void (%"class.llvm::cl::list.149"*, i64, i1)* @_ZNK4llvm2cl4listIN3Ice11VerboseItemEbNS0_6parserIS3_EEE16printOptionValueEmb to i8*), i8* bitcast (void (%"class.llvm::cl::list.149"*, %"class.llvm::SmallVectorImpl.183"*)* @_ZN4llvm2cl4listIN3Ice11VerboseItemEbNS0_6parserIS3_EEE19getExtraOptionNamesERNS_15SmallVectorImplINS_9StringRefEEE to i8*), i8* bitcast (i1 (%"class.llvm::cl::Option"*, i32, i8*, i64, i8*, i64, i1)* @_ZN4llvm2cl6Option13addOccurrenceEjNS_9StringRefES2_b to i8*)] }, comdat, align 8
@_ZTVN4llvm2cl6parserIN3Ice11VerboseItemEEE = linkonce_odr hidden unnamed_addr constant { [10 x i8*] } { [10 x i8*] [i8* null, i8* null, i8* bitcast (void (%"class.llvm::cl::parser.158"*)* @_ZN4llvm2cl6parserIN3Ice11VerboseItemEED2Ev to i8*), i8* bitcast (void (%"class.llvm::cl::parser.158"*)* @_ZN4llvm2cl6parserIN3Ice11VerboseItemEED0Ev to i8*), i8* bitcast (i32 (%"class.llvm::cl::parser.158"*)* @_ZNK4llvm2cl6parserIN3Ice11VerboseItemEE13getNumOptionsEv to i8*), i8* bitcast ({ i8*, i64 } (%"class.llvm::cl::parser.158"*, i32)* @_ZNK4llvm2cl6parserIN3Ice11VerboseItemEE9getOptionEj to i8*), i8* bitcast ({ i8*, i64 } (%"class.llvm::cl::parser.158"*, i32)* @_ZNK4llvm2cl6parserIN3Ice11VerboseItemEE14getDescriptionEj to i8*), i8* bitcast (i64 (%"class.llvm::cl::generic_parser_base"*, %"class.llvm::cl::Option"*)* @_ZNK4llvm2cl19generic_parser_base14getOptionWidthERKNS0_6OptionE to i8*), i8* bitcast (%"struct.llvm::cl::GenericOptionValue"* (%"class.llvm::cl::parser.158"*, i32)* @_ZNK4llvm2cl6parserIN3Ice11VerboseItemEE14getOptionValueEj to i8*), i8* bitcast (void (%"class.llvm::cl::generic_parser_base"*, %"class.llvm::cl::Option"*, i64)* @_ZNK4llvm2cl19generic_parser_base15printOptionInfoERKNS0_6OptionEm to i8*)] }, comdat, align 8
@_ZTVN4llvm2cl3optINSt3__112basic_stringIcNS2_11char_traitsIcEENS2_9allocatorIcEEEELb0ENS0_6parserIS8_EEEE = external unnamed_addr constant { [12 x i8*] }, align 8
@_ZN4llvm2cl15GeneralCategoryE = external global %"class.llvm::cl::OptionCategory", align 8
@_ZTVN4llvm2cl11OptionValueINSt3__112basic_stringIcNS2_11char_traitsIcEENS2_9allocatorIcEEEEEE = external unnamed_addr constant { [4 x i8*] }, align 8
@_ZTVN4llvm2cl6parserINSt3__112basic_stringIcNS2_11char_traitsIcEENS2_9allocatorIcEEEEEE = external unnamed_addr constant { [4 x i8*] }, align 8
@_ZTVN4llvm2cl3optIjLb0ENS0_6parserIjEEEE = external unnamed_addr constant { [12 x i8*] }, align 8
@_ZTVN4llvm2cl11OptionValueIjEE = linkonce_odr hidden unnamed_addr constant { [4 x i8*] } { [4 x i8*] [i8* null, i8* null, i8* bitcast (i1 (%"class.llvm::cl::OptionValueCopy.4"*, %"struct.llvm::cl::GenericOptionValue"*)* @_ZNK4llvm2cl15OptionValueCopyIjE7compareERKNS0_18GenericOptionValueE to i8*), i8* bitcast (void (%"struct.llvm::cl::GenericOptionValue"*)* @_ZN4llvm2cl18GenericOptionValue6anchorEv to i8*)] }, comdat, align 8
@_ZTVN4llvm2cl6parserIjEE = external unnamed_addr constant { [4 x i8*] }, align 8
@_ZTVN4llvm2cl3optIbLb0ENS0_6parserIbEEEE = external unnamed_addr constant { [12 x i8*] }, align 8
@_ZTVN4llvm2cl11OptionValueIbEE = linkonce_odr hidden unnamed_addr constant { [4 x i8*] } { [4 x i8*] [i8* null, i8* null, i8* bitcast (i1 (%"class.llvm::cl::OptionValueCopy.44"*, %"struct.llvm::cl::GenericOptionValue"*)* @_ZNK4llvm2cl15OptionValueCopyIbE7compareERKNS0_18GenericOptionValueE to i8*), i8* bitcast (void (%"struct.llvm::cl::GenericOptionValue"*)* @_ZN4llvm2cl18GenericOptionValue6anchorEv to i8*)] }, comdat, align 8
@_ZTVN4llvm2cl6parserIbEE = external unnamed_addr constant { [4 x i8*] }, align 8
@_ZTVN4llvm2cl3optIiLb0ENS0_6parserIiEEEE = external unnamed_addr constant { [12 x i8*] }, align 8
@_ZTVN4llvm2cl11OptionValueIiEE = linkonce_odr hidden unnamed_addr constant { [4 x i8*] } { [4 x i8*] [i8* null, i8* null, i8* bitcast (i1 (%"class.llvm::cl::OptionValueCopy.99"*, %"struct.llvm::cl::GenericOptionValue"*)* @_ZNK4llvm2cl15OptionValueCopyIiE7compareERKNS0_18GenericOptionValueE to i8*), i8* bitcast (void (%"struct.llvm::cl::GenericOptionValue"*)* @_ZN4llvm2cl18GenericOptionValue6anchorEv to i8*)] }, comdat, align 8
@_ZTVN4llvm2cl6parserIiEE = external unnamed_addr constant { [4 x i8*] }, align 8
@_ZTVN4llvm2cl11OptionValueIN3Ice11VerboseItemEEE = linkonce_odr hidden unnamed_addr constant { [4 x i8*] } { [4 x i8*] [i8* null, i8* null, i8* bitcast (i1 (%"class.llvm::cl::OptionValueCopy.200"*, %"struct.llvm::cl::GenericOptionValue"*)* @_ZNK4llvm2cl15OptionValueCopyIN3Ice11VerboseItemEE7compareERKNS0_18GenericOptionValueE to i8*), i8* bitcast (void (%"struct.llvm::cl::GenericOptionValue"*)* @_ZN4llvm2cl18GenericOptionValue6anchorEv to i8*)] }, comdat, align 8
@_ZTVN4llvm2cl15OptionValueCopyIN3Ice11VerboseItemEEE = linkonce_odr hidden unnamed_addr constant { [4 x i8*] } { [4 x i8*] [i8* null, i8* null, i8* bitcast (i1 (%"class.llvm::cl::OptionValueCopy.200"*, %"struct.llvm::cl::GenericOptionValue"*)* @_ZNK4llvm2cl15OptionValueCopyIN3Ice11VerboseItemEE7compareERKNS0_18GenericOptionValueE to i8*), i8* bitcast (void (%"struct.llvm::cl::GenericOptionValue"*)* @_ZN4llvm2cl18GenericOptionValue6anchorEv to i8*)] }, comdat, align 8
@_ZTVN4llvm2cl5aliasE = external unnamed_addr constant { [12 x i8*] }, align 8
@.str.305 = private unnamed_addr constant [58 x i8] c"cl::alias must only have one cl::aliasopt(...) specified!\00", align 1
@.str.306 = private unnamed_addr constant [45 x i8] c"cl::alias must have argument name specified!\00", align 1
@.str.307 = private unnamed_addr constant [55 x i8] c"cl::alias must have an cl::aliasopt(option) specified!\00", align 1
@llvm.global_ctors = appending global [1 x { i32, void ()*, i8* }] [{ i32, void ()*, i8* } { i32 65535, void ()* @_GLOBAL__sub_I_IceClFlags.cpp, i8* null }]

; Function Attrs: argmemonly nounwind
declare void @llvm.lifetime.start.p0i8(i64 immarg, i8* nocapture) #0

; Function Attrs: nounwind optsize ssp uwtable
define linkonce_odr hidden void @_ZN4llvm2cl3optINSt3__112basic_stringIcNS2_11char_traitsIcEENS2_9allocatorIcEEEELb0ENS0_6parserIS8_EEEC2IJNS0_15FormattingFlagsENS0_4descENS0_11initializerIA2_cEEEEEDpRKT_(%"class.llvm::cl::opt"*, i32* dereferenceable(4), %"struct.llvm::cl::desc"* dereferenceable(16), %"struct.llvm::cl::initializer"* dereferenceable(8)) unnamed_addr #1 comdat align 2 {
  %5 = bitcast %"class.llvm::cl::opt"* %0 to %"class.llvm::cl::Option"*
  %6 = getelementptr inbounds %"class.llvm::cl::opt", %"class.llvm::cl::opt"* %0, i64 0, i32 0, i32 0
  %7 = getelementptr inbounds %"class.llvm::cl::opt", %"class.llvm::cl::opt"* %0, i64 0, i32 0, i32 1
  store i32 0, i32* %7, align 8
  %8 = getelementptr inbounds %"class.llvm::cl::opt", %"class.llvm::cl::opt"* %0, i64 0, i32 0, i32 2
  %9 = load i16, i16* %8, align 4
  %10 = and i16 %9, -4096
  store i16 %10, i16* %8, align 4
  %11 = getelementptr inbounds %"class.llvm::cl::opt", %"class.llvm::cl::opt"* %0, i64 0, i32 0, i32 4
  %12 = getelementptr inbounds %"class.llvm::cl::opt", %"class.llvm::cl::opt"* %0, i64 0, i32 0, i32 9
  %13 = bitcast i32* %11 to i8*
  tail call void @llvm.memset.p0i8.i64(i8* align 8 %13, i8 0, i64 56, i1 false) #14
  store %"class.llvm::cl::OptionCategory"* @_ZN4llvm2cl15GeneralCategoryE, %"class.llvm::cl::OptionCategory"** %12, align 8
  %14 = getelementptr inbounds %"class.llvm::cl::opt", %"class.llvm::cl::opt"* %0, i64 0, i32 0, i32 10, i32 1, i64 0
  %15 = getelementptr inbounds %"class.llvm::cl::opt", %"class.llvm::cl::opt"* %0, i64 0, i32 0, i32 10, i32 0, i32 0, i32 0
  store i8** %14, i8*** %15, align 8
  %16 = getelementptr inbounds %"class.llvm::cl::opt", %"class.llvm::cl::opt"* %0, i64 0, i32 0, i32 10, i32 0, i32 0, i32 1
  store i8** %14, i8*** %16, align 8
  %17 = getelementptr inbounds %"class.llvm::cl::opt", %"class.llvm::cl::opt"* %0, i64 0, i32 0, i32 10, i32 0, i32 0, i32 2
  store i32 4, i32* %17, align 8
  %18 = getelementptr inbounds %"class.llvm::cl::opt", %"class.llvm::cl::opt"* %0, i64 0, i32 0, i32 10, i32 0, i32 0, i32 3
  store i32 0, i32* %18, align 4
  %19 = getelementptr inbounds %"class.llvm::cl::opt", %"class.llvm::cl::opt"* %0, i64 0, i32 0, i32 10, i32 0, i32 0, i32 4
  store i32 0, i32* %19, align 8
  %20 = getelementptr inbounds %"class.llvm::cl::opt", %"class.llvm::cl::opt"* %0, i64 0, i32 0, i32 11
  store i8 0, i8* %20, align 8
  %21 = getelementptr inbounds %"class.llvm::cl::opt", %"class.llvm::cl::opt"* %0, i64 0, i32 1
  %22 = bitcast %"class.llvm::cl::opt_storage"* %21 to i8*
  tail call void @llvm.memset.p0i8.i64(i8* align 8 %22, i8 0, i64 24, i1 false) #14
  %23 = getelementptr inbounds %"class.llvm::cl::opt", %"class.llvm::cl::opt"* %0, i64 0, i32 1, i32 1, i32 0, i32 0, i32 0
  %24 = getelementptr inbounds %"class.llvm::cl::opt", %"class.llvm::cl::opt"* %0, i64 0, i32 1, i32 1, i32 0, i32 1
  %25 = bitcast %"class.std::__1::basic_string"* %24 to i8*
  tail call void @llvm.memset.p0i8.i64(i8* align 8 %25, i8 0, i64 25, i1 false) #14
  store i32 (...)** bitcast (i8** getelementptr inbounds ({ [4 x i8*] }, { [4 x i8*] }* @_ZTVN4llvm2cl11OptionValueINSt3__112basic_stringIcNS2_11char_traitsIcEENS2_9allocatorIcEEEEEE, i64 0, inrange i32 0, i64 2) to i32 (...)**), i32 (...)*** %23, align 8
  store i32 (...)** bitcast (i8** getelementptr inbounds ({ [12 x i8*] }, { [12 x i8*] }* @_ZTVN4llvm2cl3optINSt3__112basic_stringIcNS2_11char_traitsIcEENS2_9allocatorIcEEEELb0ENS0_6parserIS8_EEEE, i64 0, inrange i32 0, i64 2) to i32 (...)**), i32 (...)*** %6, align 8
  %26 = getelementptr inbounds %"class.llvm::cl::opt", %"class.llvm::cl::opt"* %0, i64 0, i32 2, i32 0, i32 0, i32 0
  store i32 (...)** bitcast (i8** getelementptr inbounds ({ [4 x i8*] }, { [4 x i8*] }* @_ZTVN4llvm2cl6parserINSt3__112basic_stringIcNS2_11char_traitsIcEENS2_9allocatorIcEEEEEE, i64 0, inrange i32 0, i64 2) to i32 (...)**), i32 (...)*** %26, align 8
  %27 = load i32, i32* %1, align 4
  %28 = trunc i32 %27 to i16
  %29 = shl i16 %28, 7
  %30 = and i16 %29, 384
  %31 = or i16 %30, %10
  store i16 %31, i16* %8, align 4
  %32 = bitcast %"struct.llvm::cl::desc"* %2 to <2 x i64>*
  %33 = load <2 x i64>, <2 x i64>* %32, align 8
  %34 = getelementptr inbounds %"class.llvm::cl::opt", %"class.llvm::cl::opt"* %0, i64 0, i32 0, i32 7, i32 0
  %35 = bitcast i8** %34 to <2 x i64>*
  store <2 x i64> %33, <2 x i64>* %35, align 8
  tail call void @_ZNK4llvm2cl11initializerIA2_cE5applyINS0_3optINSt3__112basic_stringIcNS6_11char_traitsIcEENS6_9allocatorIcEEEELb0ENS0_6parserISC_EEEEEEvRT_(%"struct.llvm::cl::initializer"* %3, %"class.llvm::cl::opt"* dereferenceable(224) %0) #15
  tail call void @_ZN4llvm2cl6Option11addArgumentEv(%"class.llvm::cl::Option"* %5) #15
  ret void
}

; Function Attrs: argmemonly nounwind
declare void @llvm.lifetime.end.p0i8(i64 immarg, i8* nocapture) #0

; Function Attrs: inlinehint nounwind optsize ssp uwtable
define linkonce_odr hidden void @_ZN4llvm2cl3optINSt3__112basic_stringIcNS2_11char_traitsIcEENS2_9allocatorIcEEEELb0ENS0_6parserIS8_EEED2Ev(%"class.llvm::cl::opt"*) unnamed_addr #2 comdat align 2 {
  %2 = getelementptr inbounds %"class.llvm::cl::opt", %"class.llvm::cl::opt"* %0, i64 0, i32 1
  %3 = getelementptr inbounds %"class.llvm::cl::opt", %"class.llvm::cl::opt"* %0, i64 0, i32 1, i32 1, i32 0, i32 0, i32 0
  store i32 (...)** bitcast (i8** getelementptr inbounds ({ [4 x i8*] }, { [4 x i8*] }* @_ZTVN4llvm2cl15OptionValueCopyINSt3__112basic_stringIcNS2_11char_traitsIcEENS2_9allocatorIcEEEEEE, i64 0, inrange i32 0, i64 2) to i32 (...)**), i32 (...)*** %3, align 8
  %4 = getelementptr inbounds %"class.llvm::cl::opt", %"class.llvm::cl::opt"* %0, i64 0, i32 1, i32 1, i32 0, i32 1
  %5 = bitcast %"class.std::__1::basic_string"* %4 to %"struct.std::__1::basic_string<char, std::__1::char_traits<char>, std::__1::allocator<char> >::__short"*
  %6 = getelementptr inbounds %"struct.std::__1::basic_string<char, std::__1::char_traits<char>, std::__1::allocator<char> >::__short", %"struct.std::__1::basic_string<char, std::__1::char_traits<char>, std::__1::allocator<char> >::__short"* %5, i64 0, i32 1, i32 0
  %7 = load i8, i8* %6, align 1
  %8 = icmp slt i8 %7, 0
  br i1 %8, label %9, label %12

9:                                                ; preds = %1
  %10 = getelementptr inbounds %"class.std::__1::basic_string", %"class.std::__1::basic_string"* %4, i64 0, i32 0, i32 0, i32 0, i32 0, i32 0, i32 0
  %11 = load i8*, i8** %10, align 8
  tail call void @_ZdlPv(i8* %11) #16
  br label %12

12:                                               ; preds = %9, %1
  %13 = bitcast %"class.llvm::cl::opt_storage"* %2 to %"struct.std::__1::basic_string<char, std::__1::char_traits<char>, std::__1::allocator<char> >::__short"*
  %14 = getelementptr inbounds %"struct.std::__1::basic_string<char, std::__1::char_traits<char>, std::__1::allocator<char> >::__short", %"struct.std::__1::basic_string<char, std::__1::char_traits<char>, std::__1::allocator<char> >::__short"* %13, i64 0, i32 1, i32 0
  %15 = load i8, i8* %14, align 1
  %16 = icmp slt i8 %15, 0
  br i1 %16, label %17, label %20

17:                                               ; preds = %12
  %18 = getelementptr inbounds %"class.llvm::cl::opt_storage", %"class.llvm::cl::opt_storage"* %2, i64 0, i32 0, i32 0, i32 0, i32 0, i32 0, i32 0, i32 0
  %19 = load i8*, i8** %18, align 8
  tail call void @_ZdlPv(i8* %19) #16
  br label %20

20:                                               ; preds = %12, %17
  %21 = getelementptr inbounds %"class.llvm::cl::opt", %"class.llvm::cl::opt"* %0, i64 0, i32 0, i32 0
  store i32 (...)** bitcast (i8** getelementptr inbounds ({ [12 x i8*] }, { [12 x i8*] }* @_ZTVN4llvm2cl6OptionE, i64 0, inrange i32 0, i64 2) to i32 (...)**), i32 (...)*** %21, align 8
  %22 = getelementptr inbounds %"class.llvm::cl::opt", %"class.llvm::cl::opt"* %0, i64 0, i32 0, i32 10, i32 0, i32 0, i32 1
  %23 = load i8**, i8*** %22, align 8
  %24 = getelementptr inbounds %"class.llvm::cl::opt", %"class.llvm::cl::opt"* %0, i64 0, i32 0, i32 10, i32 0, i32 0, i32 0
  %25 = load i8**, i8*** %24, align 8
  %26 = icmp eq i8** %23, %25
  br i1 %26, label %29, label %27

27:                                               ; preds = %20
  %28 = bitcast i8** %23 to i8*
  tail call void @free(i8* %28) #15
  br label %29

29:                                               ; preds = %20, %27
  ret void
}

; Function Attrs: nofree nounwind
declare i32 @__cxa_atexit(void (i8*)*, i8*, i8*) local_unnamed_addr #3

; Function Attrs: nounwind optsize ssp uwtable
define linkonce_odr hidden void @_ZN4llvm2cl3optIjLb0ENS0_6parserIjEEEC2IJA12_cNS0_4descENS0_11initializerIiEEEEEDpRKT_(%"class.llvm::cl::opt.1"*, [12 x i8]* dereferenceable(12), %"struct.llvm::cl::desc"* dereferenceable(16), %"struct.llvm::cl::initializer.8"* dereferenceable(8)) unnamed_addr #1 comdat align 2 {
  %5 = bitcast %"class.llvm::cl::opt.1"* %0 to %"class.llvm::cl::Option"*
  %6 = getelementptr inbounds %"class.llvm::cl::opt.1", %"class.llvm::cl::opt.1"* %0, i64 0, i32 0, i32 0
  %7 = getelementptr inbounds %"class.llvm::cl::opt.1", %"class.llvm::cl::opt.1"* %0, i64 0, i32 0, i32 1
  store i32 0, i32* %7, align 8
  %8 = getelementptr inbounds %"class.llvm::cl::opt.1", %"class.llvm::cl::opt.1"* %0, i64 0, i32 0, i32 2
  %9 = load i16, i16* %8, align 4
  %10 = and i16 %9, -4096
  store i16 %10, i16* %8, align 4
  %11 = getelementptr inbounds %"class.llvm::cl::opt.1", %"class.llvm::cl::opt.1"* %0, i64 0, i32 0, i32 4
  %12 = getelementptr inbounds %"class.llvm::cl::opt.1", %"class.llvm::cl::opt.1"* %0, i64 0, i32 0, i32 9
  %13 = bitcast i32* %11 to i8*
  tail call void @llvm.memset.p0i8.i64(i8* align 8 %13, i8 0, i64 56, i1 false) #14
  store %"class.llvm::cl::OptionCategory"* @_ZN4llvm2cl15GeneralCategoryE, %"class.llvm::cl::OptionCategory"** %12, align 8
  %14 = getelementptr inbounds %"class.llvm::cl::opt.1", %"class.llvm::cl::opt.1"* %0, i64 0, i32 0, i32 10, i32 1, i64 0
  %15 = getelementptr inbounds %"class.llvm::cl::opt.1", %"class.llvm::cl::opt.1"* %0, i64 0, i32 0, i32 10, i32 0, i32 0, i32 0
  store i8** %14, i8*** %15, align 8
  %16 = getelementptr inbounds %"class.llvm::cl::opt.1", %"class.llvm::cl::opt.1"* %0, i64 0, i32 0, i32 10, i32 0, i32 0, i32 1
  store i8** %14, i8*** %16, align 8
  %17 = getelementptr inbounds %"class.llvm::cl::opt.1", %"class.llvm::cl::opt.1"* %0, i64 0, i32 0, i32 10, i32 0, i32 0, i32 2
  store i32 4, i32* %17, align 8
  %18 = getelementptr inbounds %"class.llvm::cl::opt.1", %"class.llvm::cl::opt.1"* %0, i64 0, i32 0, i32 10, i32 0, i32 0, i32 3
  store i32 0, i32* %18, align 4
  %19 = getelementptr inbounds %"class.llvm::cl::opt.1", %"class.llvm::cl::opt.1"* %0, i64 0, i32 0, i32 10, i32 0, i32 0, i32 4
  store i32 0, i32* %19, align 8
  %20 = getelementptr inbounds %"class.llvm::cl::opt.1", %"class.llvm::cl::opt.1"* %0, i64 0, i32 0, i32 11
  store i8 0, i8* %20, align 8
  %21 = getelementptr inbounds %"class.llvm::cl::opt.1", %"class.llvm::cl::opt.1"* %0, i64 0, i32 2, i32 0
  store i32 0, i32* %21, align 8
  %22 = getelementptr inbounds %"class.llvm::cl::opt.1", %"class.llvm::cl::opt.1"* %0, i64 0, i32 2, i32 2, i32 0, i32 0, i32 2
  %23 = getelementptr inbounds %"class.llvm::cl::opt.1", %"class.llvm::cl::opt.1"* %0, i64 0, i32 2, i32 2, i32 0, i32 0, i32 0, i32 0
  store i32 (...)** bitcast (i8** getelementptr inbounds ({ [4 x i8*] }, { [4 x i8*] }* @_ZTVN4llvm2cl11OptionValueIjEE, i64 0, inrange i32 0, i64 2) to i32 (...)**), i32 (...)*** %23, align 8
  store i8 1, i8* %22, align 4
  %24 = getelementptr inbounds %"class.llvm::cl::opt.1", %"class.llvm::cl::opt.1"* %0, i64 0, i32 2, i32 2, i32 0, i32 0, i32 1
  store i32 0, i32* %24, align 8
  store i32 (...)** bitcast (i8** getelementptr inbounds ({ [12 x i8*] }, { [12 x i8*] }* @_ZTVN4llvm2cl3optIjLb0ENS0_6parserIjEEEE, i64 0, inrange i32 0, i64 2) to i32 (...)**), i32 (...)*** %6, align 8
  %25 = getelementptr inbounds %"class.llvm::cl::opt.1", %"class.llvm::cl::opt.1"* %0, i64 0, i32 3, i32 0, i32 0, i32 0
  store i32 (...)** bitcast (i8** getelementptr inbounds ({ [4 x i8*] }, { [4 x i8*] }* @_ZTVN4llvm2cl6parserIjEE, i64 0, inrange i32 0, i64 2) to i32 (...)**), i32 (...)*** %25, align 8
  tail call void @_ZN4llvm2cl5applyINS0_3optIjLb0ENS0_6parserIjEEEEA12_cJNS0_4descENS0_11initializerIiEEEEEvPT_RKT0_DpRKT1_(%"class.llvm::cl::opt.1"* %0, [12 x i8]* dereferenceable(12) %1, %"struct.llvm::cl::desc"* dereferenceable(16) %2, %"struct.llvm::cl::initializer.8"* dereferenceable(8) %3) #17
  tail call void @_ZN4llvm2cl6Option11addArgumentEv(%"class.llvm::cl::Option"* %5) #15
  ret void
}

; Function Attrs: nounwind optsize ssp uwtable
define linkonce_odr hidden void @_ZN4llvm2cl6OptionD2Ev(%"class.llvm::cl::Option"*) unnamed_addr #1 comdat align 2 {
  %2 = getelementptr inbounds %"class.llvm::cl::Option", %"class.llvm::cl::Option"* %0, i64 0, i32 0
  store i32 (...)** bitcast (i8** getelementptr inbounds ({ [12 x i8*] }, { [12 x i8*] }* @_ZTVN4llvm2cl6OptionE, i64 0, inrange i32 0, i64 2) to i32 (...)**), i32 (...)*** %2, align 8
  %3 = getelementptr inbounds %"class.llvm::cl::Option", %"class.llvm::cl::Option"* %0, i64 0, i32 10, i32 0, i32 0, i32 1
  %4 = load i8**, i8*** %3, align 8
  %5 = getelementptr inbounds %"class.llvm::cl::Option", %"class.llvm::cl::Option"* %0, i64 0, i32 10, i32 0, i32 0, i32 0
  %6 = load i8**, i8*** %5, align 8
  %7 = icmp eq i8** %4, %6
  br i1 %7, label %10, label %8

8:                                                ; preds = %1
  %9 = bitcast i8** %4 to i8*
  tail call void @free(i8* %9) #15
  br label %10

10:                                               ; preds = %1, %8
  ret void
}

; Function Attrs: nounwind optsize ssp uwtable
define linkonce_odr hidden void @_ZN4llvm2cl3optIN3Ice8OptLevelELb0ENS0_6parserIS3_EEEC2IJNS0_4descENS0_11initializerIS3_EENS0_10value_descENS0_11ValuesClassEEEEDpRKT_(%"class.llvm::cl::opt.9"*, %"struct.llvm::cl::desc"* dereferenceable(16), %"struct.llvm::cl::initializer.17"* dereferenceable(8), %"struct.llvm::cl::value_desc"* dereferenceable(16), %"class.llvm::cl::ValuesClass"* dereferenceable(184)) unnamed_addr #1 comdat align 2 {
  %6 = bitcast %"class.llvm::cl::opt.9"* %0 to %"class.llvm::cl::Option"*
  %7 = getelementptr inbounds %"class.llvm::cl::opt.9", %"class.llvm::cl::opt.9"* %0, i64 0, i32 0, i32 0
  %8 = getelementptr inbounds %"class.llvm::cl::opt.9", %"class.llvm::cl::opt.9"* %0, i64 0, i32 0, i32 1
  store i32 0, i32* %8, align 8
  %9 = getelementptr inbounds %"class.llvm::cl::opt.9", %"class.llvm::cl::opt.9"* %0, i64 0, i32 0, i32 2
  %10 = load i16, i16* %9, align 4
  %11 = and i16 %10, -4096
  store i16 %11, i16* %9, align 4
  %12 = getelementptr inbounds %"class.llvm::cl::opt.9", %"class.llvm::cl::opt.9"* %0, i64 0, i32 0, i32 4
  %13 = getelementptr inbounds %"class.llvm::cl::opt.9", %"class.llvm::cl::opt.9"* %0, i64 0, i32 0, i32 9
  %14 = bitcast i32* %12 to i8*
  tail call void @llvm.memset.p0i8.i64(i8* align 8 %14, i8 0, i64 56, i1 false) #14
  store %"class.llvm::cl::OptionCategory"* @_ZN4llvm2cl15GeneralCategoryE, %"class.llvm::cl::OptionCategory"** %13, align 8
  %15 = getelementptr inbounds %"class.llvm::cl::opt.9", %"class.llvm::cl::opt.9"* %0, i64 0, i32 0, i32 10, i32 1, i64 0
  %16 = getelementptr inbounds %"class.llvm::cl::opt.9", %"class.llvm::cl::opt.9"* %0, i64 0, i32 0, i32 10, i32 0, i32 0, i32 0
  store i8** %15, i8*** %16, align 8
  %17 = getelementptr inbounds %"class.llvm::cl::opt.9", %"class.llvm::cl::opt.9"* %0, i64 0, i32 0, i32 10, i32 0, i32 0, i32 1
  store i8** %15, i8*** %17, align 8
  %18 = getelementptr inbounds %"class.llvm::cl::opt.9", %"class.llvm::cl::opt.9"* %0, i64 0, i32 0, i32 10, i32 0, i32 0, i32 2
  store i32 4, i32* %18, align 8
  %19 = getelementptr inbounds %"class.llvm::cl::opt.9", %"class.llvm::cl::opt.9"* %0, i64 0, i32 0, i32 10, i32 0, i32 0, i32 3
  store i32 0, i32* %19, align 4
  %20 = getelementptr inbounds %"class.llvm::cl::opt.9", %"class.llvm::cl::opt.9"* %0, i64 0, i32 0, i32 10, i32 0, i32 0, i32 4
  store i32 0, i32* %20, align 8
  %21 = getelementptr inbounds %"class.llvm::cl::opt.9", %"class.llvm::cl::opt.9"* %0, i64 0, i32 0, i32 11
  store i8 0, i8* %21, align 8
  %22 = getelementptr inbounds %"class.llvm::cl::opt.9", %"class.llvm::cl::opt.9"* %0, i64 0, i32 2, i32 0
  store i32 0, i32* %22, align 8
  %23 = getelementptr inbounds %"class.llvm::cl::opt.9", %"class.llvm::cl::opt.9"* %0, i64 0, i32 2, i32 2, i32 0, i32 0, i32 2
  %24 = getelementptr inbounds %"class.llvm::cl::opt.9", %"class.llvm::cl::opt.9"* %0, i64 0, i32 2, i32 2, i32 0, i32 0, i32 0, i32 0
  store i32 (...)** bitcast (i8** getelementptr inbounds ({ [4 x i8*] }, { [4 x i8*] }* @_ZTVN4llvm2cl11OptionValueIN3Ice8OptLevelEEE, i64 0, inrange i32 0, i64 2) to i32 (...)**), i32 (...)*** %24, align 8
  store i8 1, i8* %23, align 4
  %25 = getelementptr inbounds %"class.llvm::cl::opt.9", %"class.llvm::cl::opt.9"* %0, i64 0, i32 2, i32 2, i32 0, i32 0, i32 1
  store i32 0, i32* %25, align 8
  store i32 (...)** bitcast (i8** getelementptr inbounds ({ [12 x i8*] }, { [12 x i8*] }* @_ZTVN4llvm2cl3optIN3Ice8OptLevelELb0ENS0_6parserIS3_EEEE, i64 0, inrange i32 0, i64 2) to i32 (...)**), i32 (...)*** %7, align 8
  %26 = getelementptr inbounds %"class.llvm::cl::opt.9", %"class.llvm::cl::opt.9"* %0, i64 0, i32 3, i32 0, i32 0
  %27 = getelementptr inbounds %"class.llvm::cl::opt.9", %"class.llvm::cl::opt.9"* %0, i64 0, i32 3, i32 0, i32 1
  %28 = bitcast %"class.llvm::cl::Option"** %27 to %"class.llvm::cl::opt.9"**
  store %"class.llvm::cl::opt.9"* %0, %"class.llvm::cl::opt.9"** %28, align 8
  store i32 (...)** bitcast (i8** getelementptr inbounds ({ [10 x i8*] }, { [10 x i8*] }* @_ZTVN4llvm2cl6parserIN3Ice8OptLevelEEE, i64 0, inrange i32 0, i64 2) to i32 (...)**), i32 (...)*** %26, align 8
  %29 = getelementptr inbounds %"class.llvm::cl::opt.9", %"class.llvm::cl::opt.9"* %0, i64 0, i32 3, i32 1, i32 0, i32 0, i32 0, i32 1, i32 0, i32 0, i64 0
  %30 = getelementptr inbounds %"class.llvm::cl::opt.9", %"class.llvm::cl::opt.9"* %0, i64 0, i32 3, i32 1, i32 0, i32 0, i32 0, i32 0, i32 0
  store i8* %29, i8** %30, align 8
  %31 = getelementptr inbounds %"class.llvm::cl::opt.9", %"class.llvm::cl::opt.9"* %0, i64 0, i32 3, i32 1, i32 0, i32 0, i32 0, i32 0, i32 1
  store i8* %29, i8** %31, align 8
  %32 = getelementptr inbounds %"class.llvm::cl::opt.9", %"class.llvm::cl::opt.9"* %0, i64 0, i32 3, i32 1, i32 0, i32 0, i32 0, i32 0, i32 2
  %33 = getelementptr inbounds %"class.llvm::cl::opt.9", %"class.llvm::cl::opt.9"* %0, i64 0, i32 3, i32 1, i32 0, i32 0, i32 0, i32 1, i32 0, i32 0, i64 384
  store i8* %33, i8** %32, align 8
  %34 = bitcast %"struct.llvm::cl::desc"* %1 to <2 x i64>*
  %35 = load <2 x i64>, <2 x i64>* %34, align 8
  %36 = getelementptr inbounds %"class.llvm::cl::opt.9", %"class.llvm::cl::opt.9"* %0, i64 0, i32 0, i32 7, i32 0
  %37 = bitcast i8** %36 to <2 x i64>*
  store <2 x i64> %35, <2 x i64>* %37, align 8
  %38 = getelementptr inbounds %"struct.llvm::cl::initializer.17", %"struct.llvm::cl::initializer.17"* %2, i64 0, i32 0
  %39 = load i32*, i32** %38, align 8
  %40 = load i32, i32* %39, align 4
  store i32 %40, i32* %22, align 8
  store i8 1, i8* %23, align 4
  %41 = load i32, i32* %39, align 4
  store i32 %41, i32* %25, align 8
  %42 = bitcast %"struct.llvm::cl::value_desc"* %3 to <2 x i64>*
  %43 = load <2 x i64>, <2 x i64>* %42, align 8
  %44 = getelementptr inbounds %"class.llvm::cl::opt.9", %"class.llvm::cl::opt.9"* %0, i64 0, i32 0, i32 8, i32 0
  %45 = bitcast i8** %44 to <2 x i64>*
  store <2 x i64> %43, <2 x i64>* %45, align 8
  tail call void @_ZNK4llvm2cl11ValuesClass5applyINS0_3optIN3Ice8OptLevelELb0ENS0_6parserIS5_EEEEEEvRT_(%"class.llvm::cl::ValuesClass"* %4, %"class.llvm::cl::opt.9"* dereferenceable(600) %0) #15
  tail call void @_ZN4llvm2cl6Option11addArgumentEv(%"class.llvm::cl::Option"* %6) #15
  ret void
}

; Function Attrs: inlinehint nounwind optsize ssp uwtable
define linkonce_odr hidden void @_ZN4llvm2cl3optIN3Ice8OptLevelELb0ENS0_6parserIS3_EEED2Ev(%"class.llvm::cl::opt.9"*) unnamed_addr #2 comdat align 2 {
  %2 = getelementptr inbounds %"class.llvm::cl::opt.9", %"class.llvm::cl::opt.9"* %0, i64 0, i32 0, i32 0
  store i32 (...)** bitcast (i8** getelementptr inbounds ({ [12 x i8*] }, { [12 x i8*] }* @_ZTVN4llvm2cl3optIN3Ice8OptLevelELb0ENS0_6parserIS3_EEEE, i64 0, inrange i32 0, i64 2) to i32 (...)**), i32 (...)*** %2, align 8
  %3 = getelementptr inbounds %"class.llvm::cl::opt.9", %"class.llvm::cl::opt.9"* %0, i64 0, i32 3, i32 0, i32 0
  store i32 (...)** bitcast (i8** getelementptr inbounds ({ [10 x i8*] }, { [10 x i8*] }* @_ZTVN4llvm2cl6parserIN3Ice8OptLevelEEE, i64 0, inrange i32 0, i64 2) to i32 (...)**), i32 (...)*** %3, align 8
  %4 = getelementptr inbounds %"class.llvm::cl::opt.9", %"class.llvm::cl::opt.9"* %0, i64 0, i32 3, i32 1, i32 0, i32 0, i32 0, i32 0, i32 0
  %5 = load i8*, i8** %4, align 8
  %6 = getelementptr inbounds %"class.llvm::cl::opt.9", %"class.llvm::cl::opt.9"* %0, i64 0, i32 3, i32 1, i32 0, i32 0, i32 0, i32 1, i32 0, i32 0, i64 0
  %7 = icmp eq i8* %5, %6
  br i1 %7, label %9, label %8

8:                                                ; preds = %1
  tail call void @free(i8* %5) #15
  br label %9

9:                                                ; preds = %1, %8
  store i32 (...)** bitcast (i8** getelementptr inbounds ({ [12 x i8*] }, { [12 x i8*] }* @_ZTVN4llvm2cl6OptionE, i64 0, inrange i32 0, i64 2) to i32 (...)**), i32 (...)*** %2, align 8
  %10 = getelementptr inbounds %"class.llvm::cl::opt.9", %"class.llvm::cl::opt.9"* %0, i64 0, i32 0, i32 10, i32 0, i32 0, i32 1
  %11 = load i8**, i8*** %10, align 8
  %12 = getelementptr inbounds %"class.llvm::cl::opt.9", %"class.llvm::cl::opt.9"* %0, i64 0, i32 0, i32 10, i32 0, i32 0, i32 0
  %13 = load i8**, i8*** %12, align 8
  %14 = icmp eq i8** %11, %13
  br i1 %14, label %17, label %15

15:                                               ; preds = %9
  %16 = bitcast i8** %11 to i8*
  tail call void @free(i8* %16) #15
  br label %17

17:                                               ; preds = %9, %15
  ret void
}

; Function Attrs: nounwind optsize ssp uwtable
define linkonce_odr hidden void @_ZN4llvm2cl3optINSt3__112basic_stringIcNS2_11char_traitsIcEENS2_9allocatorIcEEEELb0ENS0_6parserIS8_EEEC2IJA2_cNS0_4descENS0_11initializerISD_EENS0_10value_descEEEEDpRKT_(%"class.llvm::cl::opt"*, [2 x i8]* dereferenceable(2), %"struct.llvm::cl::desc"* dereferenceable(16), %"struct.llvm::cl::initializer"* dereferenceable(8), %"struct.llvm::cl::value_desc"* dereferenceable(16)) unnamed_addr #1 comdat align 2 {
  %6 = bitcast %"class.llvm::cl::opt"* %0 to %"class.llvm::cl::Option"*
  %7 = getelementptr inbounds %"class.llvm::cl::opt", %"class.llvm::cl::opt"* %0, i64 0, i32 0, i32 0
  %8 = getelementptr inbounds %"class.llvm::cl::opt", %"class.llvm::cl::opt"* %0, i64 0, i32 0, i32 1
  store i32 0, i32* %8, align 8
  %9 = getelementptr inbounds %"class.llvm::cl::opt", %"class.llvm::cl::opt"* %0, i64 0, i32 0, i32 2
  %10 = load i16, i16* %9, align 4
  %11 = and i16 %10, -4096
  store i16 %11, i16* %9, align 4
  %12 = getelementptr inbounds %"class.llvm::cl::opt", %"class.llvm::cl::opt"* %0, i64 0, i32 0, i32 4
  %13 = getelementptr inbounds %"class.llvm::cl::opt", %"class.llvm::cl::opt"* %0, i64 0, i32 0, i32 9
  %14 = bitcast i32* %12 to i8*
  tail call void @llvm.memset.p0i8.i64(i8* align 8 %14, i8 0, i64 56, i1 false) #14
  store %"class.llvm::cl::OptionCategory"* @_ZN4llvm2cl15GeneralCategoryE, %"class.llvm::cl::OptionCategory"** %13, align 8
  %15 = getelementptr inbounds %"class.llvm::cl::opt", %"class.llvm::cl::opt"* %0, i64 0, i32 0, i32 10, i32 1, i64 0
  %16 = getelementptr inbounds %"class.llvm::cl::opt", %"class.llvm::cl::opt"* %0, i64 0, i32 0, i32 10, i32 0, i32 0, i32 0
  store i8** %15, i8*** %16, align 8
  %17 = getelementptr inbounds %"class.llvm::cl::opt", %"class.llvm::cl::opt"* %0, i64 0, i32 0, i32 10, i32 0, i32 0, i32 1
  store i8** %15, i8*** %17, align 8
  %18 = getelementptr inbounds %"class.llvm::cl::opt", %"class.llvm::cl::opt"* %0, i64 0, i32 0, i32 10, i32 0, i32 0, i32 2
  store i32 4, i32* %18, align 8
  %19 = getelementptr inbounds %"class.llvm::cl::opt", %"class.llvm::cl::opt"* %0, i64 0, i32 0, i32 10, i32 0, i32 0, i32 3
  store i32 0, i32* %19, align 4
  %20 = getelementptr inbounds %"class.llvm::cl::opt", %"class.llvm::cl::opt"* %0, i64 0, i32 0, i32 10, i32 0, i32 0, i32 4
  store i32 0, i32* %20, align 8
  %21 = getelementptr inbounds %"class.llvm::cl::opt", %"class.llvm::cl::opt"* %0, i64 0, i32 0, i32 11
  store i8 0, i8* %21, align 8
  %22 = getelementptr inbounds %"class.llvm::cl::opt", %"class.llvm::cl::opt"* %0, i64 0, i32 1
  %23 = bitcast %"class.llvm::cl::opt_storage"* %22 to i8*
  tail call void @llvm.memset.p0i8.i64(i8* align 8 %23, i8 0, i64 24, i1 false) #14
  %24 = getelementptr inbounds %"class.llvm::cl::opt", %"class.llvm::cl::opt"* %0, i64 0, i32 1, i32 1, i32 0, i32 0, i32 0
  %25 = getelementptr inbounds %"class.llvm::cl::opt", %"class.llvm::cl::opt"* %0, i64 0, i32 1, i32 1, i32 0, i32 1
  %26 = bitcast %"class.std::__1::basic_string"* %25 to i8*
  tail call void @llvm.memset.p0i8.i64(i8* align 8 %26, i8 0, i64 25, i1 false) #14
  store i32 (...)** bitcast (i8** getelementptr inbounds ({ [4 x i8*] }, { [4 x i8*] }* @_ZTVN4llvm2cl11OptionValueINSt3__112basic_stringIcNS2_11char_traitsIcEENS2_9allocatorIcEEEEEE, i64 0, inrange i32 0, i64 2) to i32 (...)**), i32 (...)*** %24, align 8
  store i32 (...)** bitcast (i8** getelementptr inbounds ({ [12 x i8*] }, { [12 x i8*] }* @_ZTVN4llvm2cl3optINSt3__112basic_stringIcNS2_11char_traitsIcEENS2_9allocatorIcEEEELb0ENS0_6parserIS8_EEEE, i64 0, inrange i32 0, i64 2) to i32 (...)**), i32 (...)*** %7, align 8
  %27 = getelementptr inbounds %"class.llvm::cl::opt", %"class.llvm::cl::opt"* %0, i64 0, i32 2, i32 0, i32 0, i32 0
  store i32 (...)** bitcast (i8** getelementptr inbounds ({ [4 x i8*] }, { [4 x i8*] }* @_ZTVN4llvm2cl6parserINSt3__112basic_stringIcNS2_11char_traitsIcEENS2_9allocatorIcEEEEEE, i64 0, inrange i32 0, i64 2) to i32 (...)**), i32 (...)*** %27, align 8
  tail call void @_ZN4llvm2cl5applyINS0_3optINSt3__112basic_stringIcNS3_11char_traitsIcEENS3_9allocatorIcEEEELb0ENS0_6parserIS9_EEEEA2_cJNS0_4descENS0_11initializerISD_EENS0_10value_descEEEEvPT_RKT0_DpRKT1_(%"class.llvm::cl::opt"* %0, [2 x i8]* dereferenceable(2) %1, %"struct.llvm::cl::desc"* dereferenceable(16) %2, %"struct.llvm::cl::initializer"* dereferenceable(8) %3, %"struct.llvm::cl::value_desc"* dereferenceable(16) %4) #17
  tail call void @_ZN4llvm2cl6Option11addArgumentEv(%"class.llvm::cl::Option"* %6) #15
  ret void
}

; Function Attrs: nounwind optsize ssp uwtable
define internal fastcc void @_ZN12_GLOBAL__N_12cl6valuesIJN4llvm2cl15OptionEnumValueES4_S4_S4_S4_S4_S4_S4_S4_S4_S4_EEENS3_11ValuesClassEDpOT_(%"class.llvm::cl::ValuesClass"* noalias sret, %"struct.llvm::cl::OptionEnumValue"* nocapture readonly dereferenceable(40), %"struct.llvm::cl::OptionEnumValue"* nocapture readonly dereferenceable(40), %"struct.llvm::cl::OptionEnumValue"* nocapture readonly dereferenceable(40), %"struct.llvm::cl::OptionEnumValue"* nocapture readonly dereferenceable(40), %"struct.llvm::cl::OptionEnumValue"* nocapture readonly dereferenceable(40), %"struct.llvm::cl::OptionEnumValue"* nocapture readonly dereferenceable(40), %"struct.llvm::cl::OptionEnumValue"* nocapture readonly dereferenceable(40), %"struct.llvm::cl::OptionEnumValue"* nocapture readonly dereferenceable(40), %"struct.llvm::cl::OptionEnumValue"* nocapture readonly dereferenceable(40), %"struct.llvm::cl::OptionEnumValue"* nocapture readonly dereferenceable(40), %"struct.llvm::cl::OptionEnumValue"* nocapture readonly dereferenceable(40)) unnamed_addr #1 {
  %13 = alloca [11 x %"struct.llvm::cl::OptionEnumValue"], align 8
  %14 = alloca %"struct.llvm::cl::OptionEnumValue", align 8
  %15 = alloca %"struct.llvm::cl::OptionEnumValue", align 8
  %16 = alloca %"struct.llvm::cl::OptionEnumValue", align 8
  %17 = alloca %"struct.llvm::cl::OptionEnumValue", align 8
  %18 = alloca %"struct.llvm::cl::OptionEnumValue", align 8
  %19 = alloca %"struct.llvm::cl::OptionEnumValue", align 8
  %20 = alloca %"struct.llvm::cl::OptionEnumValue", align 8
  %21 = alloca %"struct.llvm::cl::OptionEnumValue", align 8
  %22 = alloca %"struct.llvm::cl::OptionEnumValue", align 8
  %23 = alloca %"struct.llvm::cl::OptionEnumValue", align 8
  %24 = bitcast %"struct.llvm::cl::OptionEnumValue"* %14 to i8*
  %25 = bitcast %"struct.llvm::cl::OptionEnumValue"* %1 to i8*
  call void @llvm.memcpy.p0i8.p0i8.i64(i8* nonnull align 8 %24, i8* align 8 %25, i64 40, i1 false)
  %26 = bitcast %"struct.llvm::cl::OptionEnumValue"* %15 to i8*
  %27 = bitcast %"struct.llvm::cl::OptionEnumValue"* %2 to i8*
  call void @llvm.memcpy.p0i8.p0i8.i64(i8* nonnull align 8 %26, i8* align 8 %27, i64 40, i1 false)
  %28 = bitcast %"struct.llvm::cl::OptionEnumValue"* %16 to i8*
  %29 = bitcast %"struct.llvm::cl::OptionEnumValue"* %3 to i8*
  call void @llvm.memcpy.p0i8.p0i8.i64(i8* nonnull align 8 %28, i8* align 8 %29, i64 40, i1 false)
  %30 = bitcast %"struct.llvm::cl::OptionEnumValue"* %17 to i8*
  %31 = bitcast %"struct.llvm::cl::OptionEnumValue"* %4 to i8*
  call void @llvm.memcpy.p0i8.p0i8.i64(i8* nonnull align 8 %30, i8* align 8 %31, i64 40, i1 false)
  %32 = bitcast %"struct.llvm::cl::OptionEnumValue"* %18 to i8*
  %33 = bitcast %"struct.llvm::cl::OptionEnumValue"* %5 to i8*
  call void @llvm.memcpy.p0i8.p0i8.i64(i8* nonnull align 8 %32, i8* align 8 %33, i64 40, i1 false)
  %34 = bitcast %"struct.llvm::cl::OptionEnumValue"* %19 to i8*
  %35 = bitcast %"struct.llvm::cl::OptionEnumValue"* %6 to i8*
  call void @llvm.memcpy.p0i8.p0i8.i64(i8* nonnull align 8 %34, i8* align 8 %35, i64 40, i1 false)
  %36 = bitcast %"struct.llvm::cl::OptionEnumValue"* %20 to i8*
  %37 = bitcast %"struct.llvm::cl::OptionEnumValue"* %7 to i8*
  call void @llvm.memcpy.p0i8.p0i8.i64(i8* nonnull align 8 %36, i8* align 8 %37, i64 40, i1 false)
  %38 = bitcast %"struct.llvm::cl::OptionEnumValue"* %21 to i8*
  %39 = bitcast %"struct.llvm::cl::OptionEnumValue"* %8 to i8*
  call void @llvm.memcpy.p0i8.p0i8.i64(i8* nonnull align 8 %38, i8* align 8 %39, i64 40, i1 false)
  %40 = bitcast %"struct.llvm::cl::OptionEnumValue"* %22 to i8*
  %41 = bitcast %"struct.llvm::cl::OptionEnumValue"* %9 to i8*
  call void @llvm.memcpy.p0i8.p0i8.i64(i8* nonnull align 8 %40, i8* align 8 %41, i64 40, i1 false)
  %42 = bitcast %"struct.llvm::cl::OptionEnumValue"* %23 to i8*
  %43 = bitcast %"struct.llvm::cl::OptionEnumValue"* %10 to i8*
  call void @llvm.memcpy.p0i8.p0i8.i64(i8* nonnull align 8 %42, i8* align 8 %43, i64 40, i1 false)
  %44 = bitcast %"struct.llvm::cl::OptionEnumValue"* %11 to i8*
  %45 = bitcast [11 x %"struct.llvm::cl::OptionEnumValue"]* %13 to i8*
  call void @llvm.lifetime.start.p0i8(i64 440, i8* nonnull %45) #14, !noalias !2
  %46 = getelementptr inbounds [11 x %"struct.llvm::cl::OptionEnumValue"], [11 x %"struct.llvm::cl::OptionEnumValue"]* %13, i64 0, i64 0
  call void @llvm.memcpy.p0i8.p0i8.i64(i8* nonnull align 8 %45, i8* nonnull align 8 %24, i64 40, i1 false)
  %47 = getelementptr inbounds [11 x %"struct.llvm::cl::OptionEnumValue"], [11 x %"struct.llvm::cl::OptionEnumValue"]* %13, i64 0, i64 1
  %48 = bitcast %"struct.llvm::cl::OptionEnumValue"* %47 to i8*
  call void @llvm.memcpy.p0i8.p0i8.i64(i8* align 8 %48, i8* nonnull align 8 %26, i64 40, i1 false)
  %49 = getelementptr inbounds [11 x %"struct.llvm::cl::OptionEnumValue"], [11 x %"struct.llvm::cl::OptionEnumValue"]* %13, i64 0, i64 2
  %50 = bitcast %"struct.llvm::cl::OptionEnumValue"* %49 to i8*
  call void @llvm.memcpy.p0i8.p0i8.i64(i8* align 8 %50, i8* nonnull align 8 %28, i64 40, i1 false)
  %51 = getelementptr inbounds [11 x %"struct.llvm::cl::OptionEnumValue"], [11 x %"struct.llvm::cl::OptionEnumValue"]* %13, i64 0, i64 3
  %52 = bitcast %"struct.llvm::cl::OptionEnumValue"* %51 to i8*
  call void @llvm.memcpy.p0i8.p0i8.i64(i8* align 8 %52, i8* nonnull align 8 %30, i64 40, i1 false)
  %53 = getelementptr inbounds [11 x %"struct.llvm::cl::OptionEnumValue"], [11 x %"struct.llvm::cl::OptionEnumValue"]* %13, i64 0, i64 4
  %54 = bitcast %"struct.llvm::cl::OptionEnumValue"* %53 to i8*
  call void @llvm.memcpy.p0i8.p0i8.i64(i8* align 8 %54, i8* nonnull align 8 %32, i64 40, i1 false)
  %55 = getelementptr inbounds [11 x %"struct.llvm::cl::OptionEnumValue"], [11 x %"struct.llvm::cl::OptionEnumValue"]* %13, i64 0, i64 5
  %56 = bitcast %"struct.llvm::cl::OptionEnumValue"* %55 to i8*
  call void @llvm.memcpy.p0i8.p0i8.i64(i8* align 8 %56, i8* nonnull align 8 %34, i64 40, i1 false)
  %57 = getelementptr inbounds [11 x %"struct.llvm::cl::OptionEnumValue"], [11 x %"struct.llvm::cl::OptionEnumValue"]* %13, i64 0, i64 6
  %58 = bitcast %"struct.llvm::cl::OptionEnumValue"* %57 to i8*
  call void @llvm.memcpy.p0i8.p0i8.i64(i8* align 8 %58, i8* nonnull align 8 %36, i64 40, i1 false)
  %59 = getelementptr inbounds [11 x %"struct.llvm::cl::OptionEnumValue"], [11 x %"struct.llvm::cl::OptionEnumValue"]* %13, i64 0, i64 7
  %60 = bitcast %"struct.llvm::cl::OptionEnumValue"* %59 to i8*
  call void @llvm.memcpy.p0i8.p0i8.i64(i8* align 8 %60, i8* nonnull align 8 %38, i64 40, i1 false)
  %61 = getelementptr inbounds [11 x %"struct.llvm::cl::OptionEnumValue"], [11 x %"struct.llvm::cl::OptionEnumValue"]* %13, i64 0, i64 8
  %62 = bitcast %"struct.llvm::cl::OptionEnumValue"* %61 to i8*
  call void @llvm.memcpy.p0i8.p0i8.i64(i8* align 8 %62, i8* nonnull align 8 %40, i64 40, i1 false)
  %63 = getelementptr inbounds [11 x %"struct.llvm::cl::OptionEnumValue"], [11 x %"struct.llvm::cl::OptionEnumValue"]* %13, i64 0, i64 9
  %64 = bitcast %"struct.llvm::cl::OptionEnumValue"* %63 to i8*
  call void @llvm.memcpy.p0i8.p0i8.i64(i8* align 8 %64, i8* nonnull align 8 %42, i64 40, i1 false)
  %65 = getelementptr inbounds [11 x %"struct.llvm::cl::OptionEnumValue"], [11 x %"struct.llvm::cl::OptionEnumValue"]* %13, i64 0, i64 10
  %66 = bitcast %"struct.llvm::cl::OptionEnumValue"* %65 to i8*
  call void @llvm.memcpy.p0i8.p0i8.i64(i8* align 8 %66, i8* align 8 %44, i64 40, i1 false)
  %67 = getelementptr inbounds %"class.llvm::cl::ValuesClass", %"class.llvm::cl::ValuesClass"* %0, i64 0, i32 0, i32 0
  %68 = getelementptr inbounds %"class.llvm::cl::ValuesClass", %"class.llvm::cl::ValuesClass"* %0, i64 0, i32 0, i32 0, i32 0, i32 0, i32 1, i32 0, i32 0, i64 0
  %69 = getelementptr inbounds %"class.llvm::cl::ValuesClass", %"class.llvm::cl::ValuesClass"* %0, i64 0, i32 0, i32 0, i32 0, i32 0, i32 0, i32 0
  store i8* %68, i8** %69, align 8, !alias.scope !2
  %70 = getelementptr inbounds %"class.llvm::cl::ValuesClass", %"class.llvm::cl::ValuesClass"* %0, i64 0, i32 0, i32 0, i32 0, i32 0, i32 0, i32 1
  %71 = getelementptr inbounds %"class.llvm::cl::ValuesClass", %"class.llvm::cl::ValuesClass"* %0, i64 0, i32 0, i32 0, i32 0, i32 0, i32 0, i32 2
  %72 = getelementptr inbounds %"class.llvm::cl::ValuesClass", %"class.llvm::cl::ValuesClass"* %0, i64 0, i32 0, i32 0, i32 0, i32 0, i32 1, i32 0, i32 0, i64 160
  store i8* %72, i8** %71, align 8, !alias.scope !2
  %73 = ptrtoint i8* %68 to i64
  %74 = bitcast i8** %70 to i64*
  store i64 %73, i64* %74, align 8, !alias.scope !2
  %75 = getelementptr inbounds [11 x %"struct.llvm::cl::OptionEnumValue"], [11 x %"struct.llvm::cl::OptionEnumValue"]* %13, i64 0, i64 11
  call void @_ZN4llvm15SmallVectorImplINS_2cl15OptionEnumValueEE6appendIPKS2_EEvT_S7_(%"class.llvm::SmallVectorImpl.19"* %67, %"struct.llvm::cl::OptionEnumValue"* nonnull %46, %"struct.llvm::cl::OptionEnumValue"* %75) #15
  call void @llvm.lifetime.end.p0i8(i64 440, i8* nonnull %45) #14, !noalias !2
  ret void
}

; Function Attrs: nounwind optsize ssp uwtable
define linkonce_odr hidden void @_ZN4llvm2cl3optIN3Ice10TargetArchELb0ENS0_6parserIS3_EEEC2IJA7_cNS0_4descENS0_11initializerIS3_EENS0_11ValuesClassEEEEDpRKT_(%"class.llvm::cl::opt.25"*, [7 x i8]* dereferenceable(7), %"struct.llvm::cl::desc"* dereferenceable(16), %"struct.llvm::cl::initializer.39"* dereferenceable(8), %"class.llvm::cl::ValuesClass"* dereferenceable(184)) unnamed_addr #1 comdat align 2 {
  %6 = bitcast %"class.llvm::cl::opt.25"* %0 to %"class.llvm::cl::Option"*
  %7 = getelementptr inbounds %"class.llvm::cl::opt.25", %"class.llvm::cl::opt.25"* %0, i64 0, i32 0, i32 0
  %8 = getelementptr inbounds %"class.llvm::cl::opt.25", %"class.llvm::cl::opt.25"* %0, i64 0, i32 0, i32 1
  store i32 0, i32* %8, align 8
  %9 = getelementptr inbounds %"class.llvm::cl::opt.25", %"class.llvm::cl::opt.25"* %0, i64 0, i32 0, i32 2
  %10 = load i16, i16* %9, align 4
  %11 = and i16 %10, -4096
  store i16 %11, i16* %9, align 4
  %12 = getelementptr inbounds %"class.llvm::cl::opt.25", %"class.llvm::cl::opt.25"* %0, i64 0, i32 0, i32 4
  %13 = getelementptr inbounds %"class.llvm::cl::opt.25", %"class.llvm::cl::opt.25"* %0, i64 0, i32 0, i32 9
  %14 = bitcast i32* %12 to i8*
  tail call void @llvm.memset.p0i8.i64(i8* align 8 %14, i8 0, i64 56, i1 false) #14
  store %"class.llvm::cl::OptionCategory"* @_ZN4llvm2cl15GeneralCategoryE, %"class.llvm::cl::OptionCategory"** %13, align 8
  %15 = getelementptr inbounds %"class.llvm::cl::opt.25", %"class.llvm::cl::opt.25"* %0, i64 0, i32 0, i32 10, i32 1, i64 0
  %16 = getelementptr inbounds %"class.llvm::cl::opt.25", %"class.llvm::cl::opt.25"* %0, i64 0, i32 0, i32 10, i32 0, i32 0, i32 0
  store i8** %15, i8*** %16, align 8
  %17 = getelementptr inbounds %"class.llvm::cl::opt.25", %"class.llvm::cl::opt.25"* %0, i64 0, i32 0, i32 10, i32 0, i32 0, i32 1
  store i8** %15, i8*** %17, align 8
  %18 = getelementptr inbounds %"class.llvm::cl::opt.25", %"class.llvm::cl::opt.25"* %0, i64 0, i32 0, i32 10, i32 0, i32 0, i32 2
  store i32 4, i32* %18, align 8
  %19 = getelementptr inbounds %"class.llvm::cl::opt.25", %"class.llvm::cl::opt.25"* %0, i64 0, i32 0, i32 10, i32 0, i32 0, i32 3
  store i32 0, i32* %19, align 4
  %20 = getelementptr inbounds %"class.llvm::cl::opt.25", %"class.llvm::cl::opt.25"* %0, i64 0, i32 0, i32 10, i32 0, i32 0, i32 4
  store i32 0, i32* %20, align 8
  %21 = getelementptr inbounds %"class.llvm::cl::opt.25", %"class.llvm::cl::opt.25"* %0, i64 0, i32 0, i32 11
  store i8 0, i8* %21, align 8
  %22 = getelementptr inbounds %"class.llvm::cl::opt.25", %"class.llvm::cl::opt.25"* %0, i64 0, i32 2, i32 0
  store i32 0, i32* %22, align 8
  %23 = getelementptr inbounds %"class.llvm::cl::opt.25", %"class.llvm::cl::opt.25"* %0, i64 0, i32 2, i32 2, i32 0, i32 0, i32 2
  %24 = getelementptr inbounds %"class.llvm::cl::opt.25", %"class.llvm::cl::opt.25"* %0, i64 0, i32 2, i32 2, i32 0, i32 0, i32 0, i32 0
  store i32 (...)** bitcast (i8** getelementptr inbounds ({ [4 x i8*] }, { [4 x i8*] }* @_ZTVN4llvm2cl11OptionValueIN3Ice10TargetArchEEE, i64 0, inrange i32 0, i64 2) to i32 (...)**), i32 (...)*** %24, align 8
  store i8 1, i8* %23, align 4
  %25 = getelementptr inbounds %"class.llvm::cl::opt.25", %"class.llvm::cl::opt.25"* %0, i64 0, i32 2, i32 2, i32 0, i32 0, i32 1
  store i32 0, i32* %25, align 8
  store i32 (...)** bitcast (i8** getelementptr inbounds ({ [12 x i8*] }, { [12 x i8*] }* @_ZTVN4llvm2cl3optIN3Ice10TargetArchELb0ENS0_6parserIS3_EEEE, i64 0, inrange i32 0, i64 2) to i32 (...)**), i32 (...)*** %7, align 8
  %26 = getelementptr inbounds %"class.llvm::cl::opt.25", %"class.llvm::cl::opt.25"* %0, i64 0, i32 3, i32 0, i32 0
  %27 = getelementptr inbounds %"class.llvm::cl::opt.25", %"class.llvm::cl::opt.25"* %0, i64 0, i32 3, i32 0, i32 1
  %28 = bitcast %"class.llvm::cl::Option"** %27 to %"class.llvm::cl::opt.25"**
  store %"class.llvm::cl::opt.25"* %0, %"class.llvm::cl::opt.25"** %28, align 8
  store i32 (...)** bitcast (i8** getelementptr inbounds ({ [10 x i8*] }, { [10 x i8*] }* @_ZTVN4llvm2cl6parserIN3Ice10TargetArchEEE, i64 0, inrange i32 0, i64 2) to i32 (...)**), i32 (...)*** %26, align 8
  %29 = getelementptr inbounds %"class.llvm::cl::opt.25", %"class.llvm::cl::opt.25"* %0, i64 0, i32 3, i32 1, i32 0, i32 0, i32 0, i32 1, i32 0, i32 0, i64 0
  %30 = getelementptr inbounds %"class.llvm::cl::opt.25", %"class.llvm::cl::opt.25"* %0, i64 0, i32 3, i32 1, i32 0, i32 0, i32 0, i32 0, i32 0
  store i8* %29, i8** %30, align 8
  %31 = getelementptr inbounds %"class.llvm::cl::opt.25", %"class.llvm::cl::opt.25"* %0, i64 0, i32 3, i32 1, i32 0, i32 0, i32 0, i32 0, i32 1
  store i8* %29, i8** %31, align 8
  %32 = getelementptr inbounds %"class.llvm::cl::opt.25", %"class.llvm::cl::opt.25"* %0, i64 0, i32 3, i32 1, i32 0, i32 0, i32 0, i32 0, i32 2
  %33 = getelementptr inbounds %"class.llvm::cl::opt.25", %"class.llvm::cl::opt.25"* %0, i64 0, i32 3, i32 1, i32 0, i32 0, i32 0, i32 1, i32 0, i32 0, i64 384
  store i8* %33, i8** %32, align 8
  tail call void @_ZN4llvm2cl5applyINS0_3optIN3Ice10TargetArchELb0ENS0_6parserIS4_EEEEA7_cJNS0_4descENS0_11initializerIS4_EENS0_11ValuesClassEEEEvPT_RKT0_DpRKT1_(%"class.llvm::cl::opt.25"* %0, [7 x i8]* dereferenceable(7) %1, %"struct.llvm::cl::desc"* dereferenceable(16) %2, %"struct.llvm::cl::initializer.39"* dereferenceable(8) %3, %"class.llvm::cl::ValuesClass"* dereferenceable(184) %4) #17
  tail call void @_ZN4llvm2cl6Option11addArgumentEv(%"class.llvm::cl::Option"* %6) #15
  ret void
}

; Function Attrs: inlinehint nounwind optsize ssp uwtable
define linkonce_odr hidden void @_ZN4llvm2cl3optIN3Ice10TargetArchELb0ENS0_6parserIS3_EEED2Ev(%"class.llvm::cl::opt.25"*) unnamed_addr #2 comdat align 2 {
  %2 = getelementptr inbounds %"class.llvm::cl::opt.25", %"class.llvm::cl::opt.25"* %0, i64 0, i32 0, i32 0
  store i32 (...)** bitcast (i8** getelementptr inbounds ({ [12 x i8*] }, { [12 x i8*] }* @_ZTVN4llvm2cl3optIN3Ice10TargetArchELb0ENS0_6parserIS3_EEEE, i64 0, inrange i32 0, i64 2) to i32 (...)**), i32 (...)*** %2, align 8
  %3 = getelementptr inbounds %"class.llvm::cl::opt.25", %"class.llvm::cl::opt.25"* %0, i64 0, i32 3, i32 0, i32 0
  store i32 (...)** bitcast (i8** getelementptr inbounds ({ [10 x i8*] }, { [10 x i8*] }* @_ZTVN4llvm2cl6parserIN3Ice10TargetArchEEE, i64 0, inrange i32 0, i64 2) to i32 (...)**), i32 (...)*** %3, align 8
  %4 = getelementptr inbounds %"class.llvm::cl::opt.25", %"class.llvm::cl::opt.25"* %0, i64 0, i32 3, i32 1, i32 0, i32 0, i32 0, i32 0, i32 0
  %5 = load i8*, i8** %4, align 8
  %6 = getelementptr inbounds %"class.llvm::cl::opt.25", %"class.llvm::cl::opt.25"* %0, i64 0, i32 3, i32 1, i32 0, i32 0, i32 0, i32 1, i32 0, i32 0, i64 0
  %7 = icmp eq i8* %5, %6
  br i1 %7, label %9, label %8

8:                                                ; preds = %1
  tail call void @free(i8* %5) #15
  br label %9

9:                                                ; preds = %1, %8
  store i32 (...)** bitcast (i8** getelementptr inbounds ({ [12 x i8*] }, { [12 x i8*] }* @_ZTVN4llvm2cl6OptionE, i64 0, inrange i32 0, i64 2) to i32 (...)**), i32 (...)*** %2, align 8
  %10 = getelementptr inbounds %"class.llvm::cl::opt.25", %"class.llvm::cl::opt.25"* %0, i64 0, i32 0, i32 10, i32 0, i32 0, i32 1
  %11 = load i8**, i8*** %10, align 8
  %12 = getelementptr inbounds %"class.llvm::cl::opt.25", %"class.llvm::cl::opt.25"* %0, i64 0, i32 0, i32 10, i32 0, i32 0, i32 0
  %13 = load i8**, i8*** %12, align 8
  %14 = icmp eq i8** %11, %13
  br i1 %14, label %17, label %15

15:                                               ; preds = %9
  %16 = bitcast i8** %11 to i8*
  tail call void @free(i8* %16) #15
  br label %17

17:                                               ; preds = %9, %15
  ret void
}

; Function Attrs: nounwind optsize ssp uwtable
define linkonce_odr hidden void @_ZN4llvm2cl3optIbLb0ENS0_6parserIbEEEC2IJA34_cNS0_4descENS0_11initializerIbEEEEEDpRKT_(%"class.llvm::cl::opt.40"*, [34 x i8]* dereferenceable(34), %"struct.llvm::cl::desc"* dereferenceable(16), %"struct.llvm::cl::initializer.49"* dereferenceable(8)) unnamed_addr #1 comdat align 2 {
  %5 = bitcast %"class.llvm::cl::opt.40"* %0 to %"class.llvm::cl::Option"*
  %6 = getelementptr inbounds %"class.llvm::cl::opt.40", %"class.llvm::cl::opt.40"* %0, i64 0, i32 0, i32 0
  %7 = getelementptr inbounds %"class.llvm::cl::opt.40", %"class.llvm::cl::opt.40"* %0, i64 0, i32 0, i32 1
  store i32 0, i32* %7, align 8
  %8 = getelementptr inbounds %"class.llvm::cl::opt.40", %"class.llvm::cl::opt.40"* %0, i64 0, i32 0, i32 2
  %9 = load i16, i16* %8, align 4
  %10 = and i16 %9, -4096
  store i16 %10, i16* %8, align 4
  %11 = getelementptr inbounds %"class.llvm::cl::opt.40", %"class.llvm::cl::opt.40"* %0, i64 0, i32 0, i32 4
  %12 = getelementptr inbounds %"class.llvm::cl::opt.40", %"class.llvm::cl::opt.40"* %0, i64 0, i32 0, i32 9
  %13 = bitcast i32* %11 to i8*
  tail call void @llvm.memset.p0i8.i64(i8* align 8 %13, i8 0, i64 56, i1 false) #14
  store %"class.llvm::cl::OptionCategory"* @_ZN4llvm2cl15GeneralCategoryE, %"class.llvm::cl::OptionCategory"** %12, align 8
  %14 = getelementptr inbounds %"class.llvm::cl::opt.40", %"class.llvm::cl::opt.40"* %0, i64 0, i32 0, i32 10, i32 1, i64 0
  %15 = getelementptr inbounds %"class.llvm::cl::opt.40", %"class.llvm::cl::opt.40"* %0, i64 0, i32 0, i32 10, i32 0, i32 0, i32 0
  store i8** %14, i8*** %15, align 8
  %16 = getelementptr inbounds %"class.llvm::cl::opt.40", %"class.llvm::cl::opt.40"* %0, i64 0, i32 0, i32 10, i32 0, i32 0, i32 1
  store i8** %14, i8*** %16, align 8
  %17 = getelementptr inbounds %"class.llvm::cl::opt.40", %"class.llvm::cl::opt.40"* %0, i64 0, i32 0, i32 10, i32 0, i32 0, i32 2
  store i32 4, i32* %17, align 8
  %18 = getelementptr inbounds %"class.llvm::cl::opt.40", %"class.llvm::cl::opt.40"* %0, i64 0, i32 0, i32 10, i32 0, i32 0, i32 3
  store i32 0, i32* %18, align 4
  %19 = getelementptr inbounds %"class.llvm::cl::opt.40", %"class.llvm::cl::opt.40"* %0, i64 0, i32 0, i32 10, i32 0, i32 0, i32 4
  store i32 0, i32* %19, align 8
  %20 = getelementptr inbounds %"class.llvm::cl::opt.40", %"class.llvm::cl::opt.40"* %0, i64 0, i32 0, i32 11
  store i8 0, i8* %20, align 8
  %21 = getelementptr inbounds %"class.llvm::cl::opt.40", %"class.llvm::cl::opt.40"* %0, i64 0, i32 2, i32 0
  store i8 0, i8* %21, align 8
  %22 = getelementptr inbounds i8, i8* %21, i64 17
  %23 = getelementptr inbounds i8, i8* %21, i64 8
  %24 = bitcast i8* %23 to i32 (...)***
  store i32 (...)** bitcast (i8** getelementptr inbounds ({ [4 x i8*] }, { [4 x i8*] }* @_ZTVN4llvm2cl11OptionValueIbEE, i64 0, inrange i32 0, i64 2) to i32 (...)**), i32 (...)*** %24, align 8
  store i8 1, i8* %22, align 1
  %25 = getelementptr inbounds i8, i8* %21, i64 16
  store i8 0, i8* %25, align 8
  store i32 (...)** bitcast (i8** getelementptr inbounds ({ [12 x i8*] }, { [12 x i8*] }* @_ZTVN4llvm2cl3optIbLb0ENS0_6parserIbEEEE, i64 0, inrange i32 0, i64 2) to i32 (...)**), i32 (...)*** %6, align 8
  %26 = getelementptr inbounds %"class.llvm::cl::opt.40", %"class.llvm::cl::opt.40"* %0, i64 0, i32 3, i32 0, i32 0, i32 0
  store i32 (...)** bitcast (i8** getelementptr inbounds ({ [4 x i8*] }, { [4 x i8*] }* @_ZTVN4llvm2cl6parserIbEE, i64 0, inrange i32 0, i64 2) to i32 (...)**), i32 (...)*** %26, align 8
  tail call void @_ZN4llvm2cl5applyINS0_3optIbLb0ENS0_6parserIbEEEEA34_cJNS0_4descENS0_11initializerIbEEEEEvPT_RKT0_DpRKT1_(%"class.llvm::cl::opt.40"* %0, [34 x i8]* dereferenceable(34) %1, %"struct.llvm::cl::desc"* dereferenceable(16) %2, %"struct.llvm::cl::initializer.49"* dereferenceable(8) %3) #17
  tail call void @_ZN4llvm2cl6Option11addArgumentEv(%"class.llvm::cl::Option"* %5) #15
  ret void
}

; Function Attrs: nounwind optsize ssp uwtable
define linkonce_odr hidden void @_ZN4llvm2cl3optIbLb0ENS0_6parserIbEEEC2IJA33_cNS0_4descENS0_11initializerIbEEEEEDpRKT_(%"class.llvm::cl::opt.40"*, [33 x i8]* dereferenceable(33), %"struct.llvm::cl::desc"* dereferenceable(16), %"struct.llvm::cl::initializer.49"* dereferenceable(8)) unnamed_addr #1 comdat align 2 {
  %5 = bitcast %"class.llvm::cl::opt.40"* %0 to %"class.llvm::cl::Option"*
  %6 = getelementptr inbounds %"class.llvm::cl::opt.40", %"class.llvm::cl::opt.40"* %0, i64 0, i32 0, i32 0
  %7 = getelementptr inbounds %"class.llvm::cl::opt.40", %"class.llvm::cl::opt.40"* %0, i64 0, i32 0, i32 1
  store i32 0, i32* %7, align 8
  %8 = getelementptr inbounds %"class.llvm::cl::opt.40", %"class.llvm::cl::opt.40"* %0, i64 0, i32 0, i32 2
  %9 = load i16, i16* %8, align 4
  %10 = and i16 %9, -4096
  store i16 %10, i16* %8, align 4
  %11 = getelementptr inbounds %"class.llvm::cl::opt.40", %"class.llvm::cl::opt.40"* %0, i64 0, i32 0, i32 4
  %12 = getelementptr inbounds %"class.llvm::cl::opt.40", %"class.llvm::cl::opt.40"* %0, i64 0, i32 0, i32 9
  %13 = bitcast i32* %11 to i8*
  tail call void @llvm.memset.p0i8.i64(i8* align 8 %13, i8 0, i64 56, i1 false) #14
  store %"class.llvm::cl::OptionCategory"* @_ZN4llvm2cl15GeneralCategoryE, %"class.llvm::cl::OptionCategory"** %12, align 8
  %14 = getelementptr inbounds %"class.llvm::cl::opt.40", %"class.llvm::cl::opt.40"* %0, i64 0, i32 0, i32 10, i32 1, i64 0
  %15 = getelementptr inbounds %"class.llvm::cl::opt.40", %"class.llvm::cl::opt.40"* %0, i64 0, i32 0, i32 10, i32 0, i32 0, i32 0
  store i8** %14, i8*** %15, align 8
  %16 = getelementptr inbounds %"class.llvm::cl::opt.40", %"class.llvm::cl::opt.40"* %0, i64 0, i32 0, i32 10, i32 0, i32 0, i32 1
  store i8** %14, i8*** %16, align 8
  %17 = getelementptr inbounds %"class.llvm::cl::opt.40", %"class.llvm::cl::opt.40"* %0, i64 0, i32 0, i32 10, i32 0, i32 0, i32 2
  store i32 4, i32* %17, align 8
  %18 = getelementptr inbounds %"class.llvm::cl::opt.40", %"class.llvm::cl::opt.40"* %0, i64 0, i32 0, i32 10, i32 0, i32 0, i32 3
  store i32 0, i32* %18, align 4
  %19 = getelementptr inbounds %"class.llvm::cl::opt.40", %"class.llvm::cl::opt.40"* %0, i64 0, i32 0, i32 10, i32 0, i32 0, i32 4
  store i32 0, i32* %19, align 8
  %20 = getelementptr inbounds %"class.llvm::cl::opt.40", %"class.llvm::cl::opt.40"* %0, i64 0, i32 0, i32 11
  store i8 0, i8* %20, align 8
  %21 = getelementptr inbounds %"class.llvm::cl::opt.40", %"class.llvm::cl::opt.40"* %0, i64 0, i32 2, i32 0
  store i8 0, i8* %21, align 8
  %22 = getelementptr inbounds i8, i8* %21, i64 17
  %23 = getelementptr inbounds i8, i8* %21, i64 8
  %24 = bitcast i8* %23 to i32 (...)***
  store i32 (...)** bitcast (i8** getelementptr inbounds ({ [4 x i8*] }, { [4 x i8*] }* @_ZTVN4llvm2cl11OptionValueIbEE, i64 0, inrange i32 0, i64 2) to i32 (...)**), i32 (...)*** %24, align 8
  store i8 1, i8* %22, align 1
  %25 = getelementptr inbounds i8, i8* %21, i64 16
  store i8 0, i8* %25, align 8
  store i32 (...)** bitcast (i8** getelementptr inbounds ({ [12 x i8*] }, { [12 x i8*] }* @_ZTVN4llvm2cl3optIbLb0ENS0_6parserIbEEEE, i64 0, inrange i32 0, i64 2) to i32 (...)**), i32 (...)*** %6, align 8
  %26 = getelementptr inbounds %"class.llvm::cl::opt.40", %"class.llvm::cl::opt.40"* %0, i64 0, i32 3, i32 0, i32 0, i32 0
  store i32 (...)** bitcast (i8** getelementptr inbounds ({ [4 x i8*] }, { [4 x i8*] }* @_ZTVN4llvm2cl6parserIbEE, i64 0, inrange i32 0, i64 2) to i32 (...)**), i32 (...)*** %26, align 8
  tail call void @_ZN4llvm2cl5applyINS0_3optIbLb0ENS0_6parserIbEEEEA33_cJNS0_4descENS0_11initializerIbEEEEEvPT_RKT0_DpRKT1_(%"class.llvm::cl::opt.40"* %0, [33 x i8]* dereferenceable(33) %1, %"struct.llvm::cl::desc"* dereferenceable(16) %2, %"struct.llvm::cl::initializer.49"* dereferenceable(8) %3) #17
  tail call void @_ZN4llvm2cl6Option11addArgumentEv(%"class.llvm::cl::Option"* %5) #15
  ret void
}

; Function Attrs: nounwind optsize ssp uwtable
define linkonce_odr hidden void @_ZN4llvm2cl3optIbLb0ENS0_6parserIbEEEC2IJA17_cNS0_4descENS0_11initializerIbEEEEEDpRKT_(%"class.llvm::cl::opt.40"*, [17 x i8]* dereferenceable(17), %"struct.llvm::cl::desc"* dereferenceable(16), %"struct.llvm::cl::initializer.49"* dereferenceable(8)) unnamed_addr #1 comdat align 2 {
  %5 = bitcast %"class.llvm::cl::opt.40"* %0 to %"class.llvm::cl::Option"*
  %6 = getelementptr inbounds %"class.llvm::cl::opt.40", %"class.llvm::cl::opt.40"* %0, i64 0, i32 0, i32 0
  %7 = getelementptr inbounds %"class.llvm::cl::opt.40", %"class.llvm::cl::opt.40"* %0, i64 0, i32 0, i32 1
  store i32 0, i32* %7, align 8
  %8 = getelementptr inbounds %"class.llvm::cl::opt.40", %"class.llvm::cl::opt.40"* %0, i64 0, i32 0, i32 2
  %9 = load i16, i16* %8, align 4
  %10 = and i16 %9, -4096
  store i16 %10, i16* %8, align 4
  %11 = getelementptr inbounds %"class.llvm::cl::opt.40", %"class.llvm::cl::opt.40"* %0, i64 0, i32 0, i32 4
  %12 = getelementptr inbounds %"class.llvm::cl::opt.40", %"class.llvm::cl::opt.40"* %0, i64 0, i32 0, i32 9
  %13 = bitcast i32* %11 to i8*
  tail call void @llvm.memset.p0i8.i64(i8* align 8 %13, i8 0, i64 56, i1 false) #14
  store %"class.llvm::cl::OptionCategory"* @_ZN4llvm2cl15GeneralCategoryE, %"class.llvm::cl::OptionCategory"** %12, align 8
  %14 = getelementptr inbounds %"class.llvm::cl::opt.40", %"class.llvm::cl::opt.40"* %0, i64 0, i32 0, i32 10, i32 1, i64 0
  %15 = getelementptr inbounds %"class.llvm::cl::opt.40", %"class.llvm::cl::opt.40"* %0, i64 0, i32 0, i32 10, i32 0, i32 0, i32 0
  store i8** %14, i8*** %15, align 8
  %16 = getelementptr inbounds %"class.llvm::cl::opt.40", %"class.llvm::cl::opt.40"* %0, i64 0, i32 0, i32 10, i32 0, i32 0, i32 1
  store i8** %14, i8*** %16, align 8
  %17 = getelementptr inbounds %"class.llvm::cl::opt.40", %"class.llvm::cl::opt.40"* %0, i64 0, i32 0, i32 10, i32 0, i32 0, i32 2
  store i32 4, i32* %17, align 8
  %18 = getelementptr inbounds %"class.llvm::cl::opt.40", %"class.llvm::cl::opt.40"* %0, i64 0, i32 0, i32 10, i32 0, i32 0, i32 3
  store i32 0, i32* %18, align 4
  %19 = getelementptr inbounds %"class.llvm::cl::opt.40", %"class.llvm::cl::opt.40"* %0, i64 0, i32 0, i32 10, i32 0, i32 0, i32 4
  store i32 0, i32* %19, align 8
  %20 = getelementptr inbounds %"class.llvm::cl::opt.40", %"class.llvm::cl::opt.40"* %0, i64 0, i32 0, i32 11
  store i8 0, i8* %20, align 8
  %21 = getelementptr inbounds %"class.llvm::cl::opt.40", %"class.llvm::cl::opt.40"* %0, i64 0, i32 2, i32 0
  store i8 0, i8* %21, align 8
  %22 = getelementptr inbounds i8, i8* %21, i64 17
  %23 = getelementptr inbounds i8, i8* %21, i64 8
  %24 = bitcast i8* %23 to i32 (...)***
  store i32 (...)** bitcast (i8** getelementptr inbounds ({ [4 x i8*] }, { [4 x i8*] }* @_ZTVN4llvm2cl11OptionValueIbEE, i64 0, inrange i32 0, i64 2) to i32 (...)**), i32 (...)*** %24, align 8
  store i8 1, i8* %22, align 1
  %25 = getelementptr inbounds i8, i8* %21, i64 16
  store i8 0, i8* %25, align 8
  store i32 (...)** bitcast (i8** getelementptr inbounds ({ [12 x i8*] }, { [12 x i8*] }* @_ZTVN4llvm2cl3optIbLb0ENS0_6parserIbEEEE, i64 0, inrange i32 0, i64 2) to i32 (...)**), i32 (...)*** %6, align 8
  %26 = getelementptr inbounds %"class.llvm::cl::opt.40", %"class.llvm::cl::opt.40"* %0, i64 0, i32 3, i32 0, i32 0, i32 0
  store i32 (...)** bitcast (i8** getelementptr inbounds ({ [4 x i8*] }, { [4 x i8*] }* @_ZTVN4llvm2cl6parserIbEE, i64 0, inrange i32 0, i64 2) to i32 (...)**), i32 (...)*** %26, align 8
  tail call void @_ZN4llvm2cl5applyINS0_3optIbLb0ENS0_6parserIbEEEEA17_cJNS0_4descENS0_11initializerIbEEEEEvPT_RKT0_DpRKT1_(%"class.llvm::cl::opt.40"* %0, [17 x i8]* dereferenceable(17) %1, %"struct.llvm::cl::desc"* dereferenceable(16) %2, %"struct.llvm::cl::initializer.49"* dereferenceable(8) %3) #17
  tail call void @_ZN4llvm2cl6Option11addArgumentEv(%"class.llvm::cl::Option"* %5) #15
  ret void
}

; Function Attrs: nounwind optsize ssp uwtable
define linkonce_odr hidden void @_ZN4llvm2cl3optIbLb0ENS0_6parserIbEEEC2IJA28_cNS0_4descEEEEDpRKT_(%"class.llvm::cl::opt.40"*, [28 x i8]* dereferenceable(28), %"struct.llvm::cl::desc"* dereferenceable(16)) unnamed_addr #1 comdat align 2 {
  %4 = bitcast %"class.llvm::cl::opt.40"* %0 to %"class.llvm::cl::Option"*
  %5 = getelementptr inbounds %"class.llvm::cl::opt.40", %"class.llvm::cl::opt.40"* %0, i64 0, i32 0, i32 0
  %6 = getelementptr inbounds %"class.llvm::cl::opt.40", %"class.llvm::cl::opt.40"* %0, i64 0, i32 0, i32 1
  store i32 0, i32* %6, align 8
  %7 = getelementptr inbounds %"class.llvm::cl::opt.40", %"class.llvm::cl::opt.40"* %0, i64 0, i32 0, i32 2
  %8 = load i16, i16* %7, align 4
  %9 = and i16 %8, -4096
  store i16 %9, i16* %7, align 4
  %10 = getelementptr inbounds %"class.llvm::cl::opt.40", %"class.llvm::cl::opt.40"* %0, i64 0, i32 0, i32 4
  %11 = getelementptr inbounds %"class.llvm::cl::opt.40", %"class.llvm::cl::opt.40"* %0, i64 0, i32 0, i32 9
  %12 = bitcast i32* %10 to i8*
  tail call void @llvm.memset.p0i8.i64(i8* align 8 %12, i8 0, i64 56, i1 false) #14
  store %"class.llvm::cl::OptionCategory"* @_ZN4llvm2cl15GeneralCategoryE, %"class.llvm::cl::OptionCategory"** %11, align 8
  %13 = getelementptr inbounds %"class.llvm::cl::opt.40", %"class.llvm::cl::opt.40"* %0, i64 0, i32 0, i32 10, i32 1, i64 0
  %14 = getelementptr inbounds %"class.llvm::cl::opt.40", %"class.llvm::cl::opt.40"* %0, i64 0, i32 0, i32 10, i32 0, i32 0, i32 0
  store i8** %13, i8*** %14, align 8
  %15 = getelementptr inbounds %"class.llvm::cl::opt.40", %"class.llvm::cl::opt.40"* %0, i64 0, i32 0, i32 10, i32 0, i32 0, i32 1
  store i8** %13, i8*** %15, align 8
  %16 = getelementptr inbounds %"class.llvm::cl::opt.40", %"class.llvm::cl::opt.40"* %0, i64 0, i32 0, i32 10, i32 0, i32 0, i32 2
  store i32 4, i32* %16, align 8
  %17 = getelementptr inbounds %"class.llvm::cl::opt.40", %"class.llvm::cl::opt.40"* %0, i64 0, i32 0, i32 10, i32 0, i32 0, i32 3
  store i32 0, i32* %17, align 4
  %18 = getelementptr inbounds %"class.llvm::cl::opt.40", %"class.llvm::cl::opt.40"* %0, i64 0, i32 0, i32 10, i32 0, i32 0, i32 4
  store i32 0, i32* %18, align 8
  %19 = getelementptr inbounds %"class.llvm::cl::opt.40", %"class.llvm::cl::opt.40"* %0, i64 0, i32 0, i32 11
  store i8 0, i8* %19, align 8
  %20 = getelementptr inbounds %"class.llvm::cl::opt.40", %"class.llvm::cl::opt.40"* %0, i64 0, i32 2, i32 0
  store i8 0, i8* %20, align 8
  %21 = getelementptr inbounds i8, i8* %20, i64 17
  %22 = getelementptr inbounds i8, i8* %20, i64 8
  %23 = bitcast i8* %22 to i32 (...)***
  store i32 (...)** bitcast (i8** getelementptr inbounds ({ [4 x i8*] }, { [4 x i8*] }* @_ZTVN4llvm2cl11OptionValueIbEE, i64 0, inrange i32 0, i64 2) to i32 (...)**), i32 (...)*** %23, align 8
  store i8 1, i8* %21, align 1
  %24 = getelementptr inbounds i8, i8* %20, i64 16
  store i8 0, i8* %24, align 8
  store i32 (...)** bitcast (i8** getelementptr inbounds ({ [12 x i8*] }, { [12 x i8*] }* @_ZTVN4llvm2cl3optIbLb0ENS0_6parserIbEEEE, i64 0, inrange i32 0, i64 2) to i32 (...)**), i32 (...)*** %5, align 8
  %25 = getelementptr inbounds %"class.llvm::cl::opt.40", %"class.llvm::cl::opt.40"* %0, i64 0, i32 3, i32 0, i32 0, i32 0
  store i32 (...)** bitcast (i8** getelementptr inbounds ({ [4 x i8*] }, { [4 x i8*] }* @_ZTVN4llvm2cl6parserIbEE, i64 0, inrange i32 0, i64 2) to i32 (...)**), i32 (...)*** %25, align 8
  tail call void @_ZN4llvm2cl5applyINS0_3optIbLb0ENS0_6parserIbEEEEA28_cJNS0_4descEEEEvPT_RKT0_DpRKT1_(%"class.llvm::cl::opt.40"* %0, [28 x i8]* dereferenceable(28) %1, %"struct.llvm::cl::desc"* dereferenceable(16) %2) #17
  tail call void @_ZN4llvm2cl6Option11addArgumentEv(%"class.llvm::cl::Option"* %4) #15
  ret void
}

; Function Attrs: nounwind optsize ssp uwtable
define linkonce_odr hidden void @_ZN4llvm2cl3optIbLb0ENS0_6parserIbEEEC2IJA13_cNS0_4descENS0_11initializerIbEEEEEDpRKT_(%"class.llvm::cl::opt.40"*, [13 x i8]* dereferenceable(13), %"struct.llvm::cl::desc"* dereferenceable(16), %"struct.llvm::cl::initializer.49"* dereferenceable(8)) unnamed_addr #1 comdat align 2 {
  %5 = bitcast %"class.llvm::cl::opt.40"* %0 to %"class.llvm::cl::Option"*
  %6 = getelementptr inbounds %"class.llvm::cl::opt.40", %"class.llvm::cl::opt.40"* %0, i64 0, i32 0, i32 0
  %7 = getelementptr inbounds %"class.llvm::cl::opt.40", %"class.llvm::cl::opt.40"* %0, i64 0, i32 0, i32 1
  store i32 0, i32* %7, align 8
  %8 = getelementptr inbounds %"class.llvm::cl::opt.40", %"class.llvm::cl::opt.40"* %0, i64 0, i32 0, i32 2
  %9 = load i16, i16* %8, align 4
  %10 = and i16 %9, -4096
  store i16 %10, i16* %8, align 4
  %11 = getelementptr inbounds %"class.llvm::cl::opt.40", %"class.llvm::cl::opt.40"* %0, i64 0, i32 0, i32 4
  %12 = getelementptr inbounds %"class.llvm::cl::opt.40", %"class.llvm::cl::opt.40"* %0, i64 0, i32 0, i32 9
  %13 = bitcast i32* %11 to i8*
  tail call void @llvm.memset.p0i8.i64(i8* align 8 %13, i8 0, i64 56, i1 false) #14
  store %"class.llvm::cl::OptionCategory"* @_ZN4llvm2cl15GeneralCategoryE, %"class.llvm::cl::OptionCategory"** %12, align 8
  %14 = getelementptr inbounds %"class.llvm::cl::opt.40", %"class.llvm::cl::opt.40"* %0, i64 0, i32 0, i32 10, i32 1, i64 0
  %15 = getelementptr inbounds %"class.llvm::cl::opt.40", %"class.llvm::cl::opt.40"* %0, i64 0, i32 0, i32 10, i32 0, i32 0, i32 0
  store i8** %14, i8*** %15, align 8
  %16 = getelementptr inbounds %"class.llvm::cl::opt.40", %"class.llvm::cl::opt.40"* %0, i64 0, i32 0, i32 10, i32 0, i32 0, i32 1
  store i8** %14, i8*** %16, align 8
  %17 = getelementptr inbounds %"class.llvm::cl::opt.40", %"class.llvm::cl::opt.40"* %0, i64 0, i32 0, i32 10, i32 0, i32 0, i32 2
  store i32 4, i32* %17, align 8
  %18 = getelementptr inbounds %"class.llvm::cl::opt.40", %"class.llvm::cl::opt.40"* %0, i64 0, i32 0, i32 10, i32 0, i32 0, i32 3
  store i32 0, i32* %18, align 4
  %19 = getelementptr inbounds %"class.llvm::cl::opt.40", %"class.llvm::cl::opt.40"* %0, i64 0, i32 0, i32 10, i32 0, i32 0, i32 4
  store i32 0, i32* %19, align 8
  %20 = getelementptr inbounds %"class.llvm::cl::opt.40", %"class.llvm::cl::opt.40"* %0, i64 0, i32 0, i32 11
  store i8 0, i8* %20, align 8
  %21 = getelementptr inbounds %"class.llvm::cl::opt.40", %"class.llvm::cl::opt.40"* %0, i64 0, i32 2, i32 0
  store i8 0, i8* %21, align 8
  %22 = getelementptr inbounds i8, i8* %21, i64 17
  %23 = getelementptr inbounds i8, i8* %21, i64 8
  %24 = bitcast i8* %23 to i32 (...)***
  store i32 (...)** bitcast (i8** getelementptr inbounds ({ [4 x i8*] }, { [4 x i8*] }* @_ZTVN4llvm2cl11OptionValueIbEE, i64 0, inrange i32 0, i64 2) to i32 (...)**), i32 (...)*** %24, align 8
  store i8 1, i8* %22, align 1
  %25 = getelementptr inbounds i8, i8* %21, i64 16
  store i8 0, i8* %25, align 8
  store i32 (...)** bitcast (i8** getelementptr inbounds ({ [12 x i8*] }, { [12 x i8*] }* @_ZTVN4llvm2cl3optIbLb0ENS0_6parserIbEEEE, i64 0, inrange i32 0, i64 2) to i32 (...)**), i32 (...)*** %6, align 8
  %26 = getelementptr inbounds %"class.llvm::cl::opt.40", %"class.llvm::cl::opt.40"* %0, i64 0, i32 3, i32 0, i32 0, i32 0
  store i32 (...)** bitcast (i8** getelementptr inbounds ({ [4 x i8*] }, { [4 x i8*] }* @_ZTVN4llvm2cl6parserIbEE, i64 0, inrange i32 0, i64 2) to i32 (...)**), i32 (...)*** %26, align 8
  tail call void @_ZN4llvm2cl5applyINS0_3optIbLb0ENS0_6parserIbEEEEA13_cJNS0_4descENS0_11initializerIbEEEEEvPT_RKT0_DpRKT1_(%"class.llvm::cl::opt.40"* %0, [13 x i8]* dereferenceable(13) %1, %"struct.llvm::cl::desc"* dereferenceable(16) %2, %"struct.llvm::cl::initializer.49"* dereferenceable(8) %3) #17
  tail call void @_ZN4llvm2cl6Option11addArgumentEv(%"class.llvm::cl::Option"* %5) #15
  ret void
}

; Function Attrs: nounwind optsize ssp uwtable
define linkonce_odr hidden void @_ZN4llvm2cl3optIbLb0ENS0_6parserIbEEEC2IJA15_cNS0_4descENS0_11initializerIbEEEEEDpRKT_(%"class.llvm::cl::opt.40"*, [15 x i8]* dereferenceable(15), %"struct.llvm::cl::desc"* dereferenceable(16), %"struct.llvm::cl::initializer.49"* dereferenceable(8)) unnamed_addr #1 comdat align 2 {
  %5 = bitcast %"class.llvm::cl::opt.40"* %0 to %"class.llvm::cl::Option"*
  %6 = getelementptr inbounds %"class.llvm::cl::opt.40", %"class.llvm::cl::opt.40"* %0, i64 0, i32 0, i32 0
  %7 = getelementptr inbounds %"class.llvm::cl::opt.40", %"class.llvm::cl::opt.40"* %0, i64 0, i32 0, i32 1
  store i32 0, i32* %7, align 8
  %8 = getelementptr inbounds %"class.llvm::cl::opt.40", %"class.llvm::cl::opt.40"* %0, i64 0, i32 0, i32 2
  %9 = load i16, i16* %8, align 4
  %10 = and i16 %9, -4096
  store i16 %10, i16* %8, align 4
  %11 = getelementptr inbounds %"class.llvm::cl::opt.40", %"class.llvm::cl::opt.40"* %0, i64 0, i32 0, i32 4
  %12 = getelementptr inbounds %"class.llvm::cl::opt.40", %"class.llvm::cl::opt.40"* %0, i64 0, i32 0, i32 9
  %13 = bitcast i32* %11 to i8*
  tail call void @llvm.memset.p0i8.i64(i8* align 8 %13, i8 0, i64 56, i1 false) #14
  store %"class.llvm::cl::OptionCategory"* @_ZN4llvm2cl15GeneralCategoryE, %"class.llvm::cl::OptionCategory"** %12, align 8
  %14 = getelementptr inbounds %"class.llvm::cl::opt.40", %"class.llvm::cl::opt.40"* %0, i64 0, i32 0, i32 10, i32 1, i64 0
  %15 = getelementptr inbounds %"class.llvm::cl::opt.40", %"class.llvm::cl::opt.40"* %0, i64 0, i32 0, i32 10, i32 0, i32 0, i32 0
  store i8** %14, i8*** %15, align 8
  %16 = getelementptr inbounds %"class.llvm::cl::opt.40", %"class.llvm::cl::opt.40"* %0, i64 0, i32 0, i32 10, i32 0, i32 0, i32 1
  store i8** %14, i8*** %16, align 8
  %17 = getelementptr inbounds %"class.llvm::cl::opt.40", %"class.llvm::cl::opt.40"* %0, i64 0, i32 0, i32 10, i32 0, i32 0, i32 2
  store i32 4, i32* %17, align 8
  %18 = getelementptr inbounds %"class.llvm::cl::opt.40", %"class.llvm::cl::opt.40"* %0, i64 0, i32 0, i32 10, i32 0, i32 0, i32 3
  store i32 0, i32* %18, align 4
  %19 = getelementptr inbounds %"class.llvm::cl::opt.40", %"class.llvm::cl::opt.40"* %0, i64 0, i32 0, i32 10, i32 0, i32 0, i32 4
  store i32 0, i32* %19, align 8
  %20 = getelementptr inbounds %"class.llvm::cl::opt.40", %"class.llvm::cl::opt.40"* %0, i64 0, i32 0, i32 11
  store i8 0, i8* %20, align 8
  %21 = getelementptr inbounds %"class.llvm::cl::opt.40", %"class.llvm::cl::opt.40"* %0, i64 0, i32 2, i32 0
  store i8 0, i8* %21, align 8
  %22 = getelementptr inbounds i8, i8* %21, i64 17
  %23 = getelementptr inbounds i8, i8* %21, i64 8
  %24 = bitcast i8* %23 to i32 (...)***
  store i32 (...)** bitcast (i8** getelementptr inbounds ({ [4 x i8*] }, { [4 x i8*] }* @_ZTVN4llvm2cl11OptionValueIbEE, i64 0, inrange i32 0, i64 2) to i32 (...)**), i32 (...)*** %24, align 8
  store i8 1, i8* %22, align 1
  %25 = getelementptr inbounds i8, i8* %21, i64 16
  store i8 0, i8* %25, align 8
  store i32 (...)** bitcast (i8** getelementptr inbounds ({ [12 x i8*] }, { [12 x i8*] }* @_ZTVN4llvm2cl3optIbLb0ENS0_6parserIbEEEE, i64 0, inrange i32 0, i64 2) to i32 (...)**), i32 (...)*** %6, align 8
  %26 = getelementptr inbounds %"class.llvm::cl::opt.40", %"class.llvm::cl::opt.40"* %0, i64 0, i32 3, i32 0, i32 0, i32 0
  store i32 (...)** bitcast (i8** getelementptr inbounds ({ [4 x i8*] }, { [4 x i8*] }* @_ZTVN4llvm2cl6parserIbEE, i64 0, inrange i32 0, i64 2) to i32 (...)**), i32 (...)*** %26, align 8
  tail call void @_ZN4llvm2cl5applyINS0_3optIbLb0ENS0_6parserIbEEEEA15_cJNS0_4descENS0_11initializerIbEEEEEvPT_RKT0_DpRKT1_(%"class.llvm::cl::opt.40"* %0, [15 x i8]* dereferenceable(15) %1, %"struct.llvm::cl::desc"* dereferenceable(16) %2, %"struct.llvm::cl::initializer.49"* dereferenceable(8) %3) #17
  tail call void @_ZN4llvm2cl6Option11addArgumentEv(%"class.llvm::cl::Option"* %5) #15
  ret void
}

; Function Attrs: nounwind optsize ssp uwtable
define linkonce_odr hidden void @_ZN4llvm2cl3optIbLb0ENS0_6parserIbEEEC2IJA16_cNS0_4descENS0_11initializerIbEEEEEDpRKT_(%"class.llvm::cl::opt.40"*, [16 x i8]* dereferenceable(16), %"struct.llvm::cl::desc"* dereferenceable(16), %"struct.llvm::cl::initializer.49"* dereferenceable(8)) unnamed_addr #1 comdat align 2 {
  %5 = bitcast %"class.llvm::cl::opt.40"* %0 to %"class.llvm::cl::Option"*
  %6 = getelementptr inbounds %"class.llvm::cl::opt.40", %"class.llvm::cl::opt.40"* %0, i64 0, i32 0, i32 0
  %7 = getelementptr inbounds %"class.llvm::cl::opt.40", %"class.llvm::cl::opt.40"* %0, i64 0, i32 0, i32 1
  store i32 0, i32* %7, align 8
  %8 = getelementptr inbounds %"class.llvm::cl::opt.40", %"class.llvm::cl::opt.40"* %0, i64 0, i32 0, i32 2
  %9 = load i16, i16* %8, align 4
  %10 = and i16 %9, -4096
  store i16 %10, i16* %8, align 4
  %11 = getelementptr inbounds %"class.llvm::cl::opt.40", %"class.llvm::cl::opt.40"* %0, i64 0, i32 0, i32 4
  %12 = getelementptr inbounds %"class.llvm::cl::opt.40", %"class.llvm::cl::opt.40"* %0, i64 0, i32 0, i32 9
  %13 = bitcast i32* %11 to i8*
  tail call void @llvm.memset.p0i8.i64(i8* align 8 %13, i8 0, i64 56, i1 false) #14
  store %"class.llvm::cl::OptionCategory"* @_ZN4llvm2cl15GeneralCategoryE, %"class.llvm::cl::OptionCategory"** %12, align 8
  %14 = getelementptr inbounds %"class.llvm::cl::opt.40", %"class.llvm::cl::opt.40"* %0, i64 0, i32 0, i32 10, i32 1, i64 0
  %15 = getelementptr inbounds %"class.llvm::cl::opt.40", %"class.llvm::cl::opt.40"* %0, i64 0, i32 0, i32 10, i32 0, i32 0, i32 0
  store i8** %14, i8*** %15, align 8
  %16 = getelementptr inbounds %"class.llvm::cl::opt.40", %"class.llvm::cl::opt.40"* %0, i64 0, i32 0, i32 10, i32 0, i32 0, i32 1
  store i8** %14, i8*** %16, align 8
  %17 = getelementptr inbounds %"class.llvm::cl::opt.40", %"class.llvm::cl::opt.40"* %0, i64 0, i32 0, i32 10, i32 0, i32 0, i32 2
  store i32 4, i32* %17, align 8
  %18 = getelementptr inbounds %"class.llvm::cl::opt.40", %"class.llvm::cl::opt.40"* %0, i64 0, i32 0, i32 10, i32 0, i32 0, i32 3
  store i32 0, i32* %18, align 4
  %19 = getelementptr inbounds %"class.llvm::cl::opt.40", %"class.llvm::cl::opt.40"* %0, i64 0, i32 0, i32 10, i32 0, i32 0, i32 4
  store i32 0, i32* %19, align 8
  %20 = getelementptr inbounds %"class.llvm::cl::opt.40", %"class.llvm::cl::opt.40"* %0, i64 0, i32 0, i32 11
  store i8 0, i8* %20, align 8
  %21 = getelementptr inbounds %"class.llvm::cl::opt.40", %"class.llvm::cl::opt.40"* %0, i64 0, i32 2, i32 0
  store i8 0, i8* %21, align 8
  %22 = getelementptr inbounds i8, i8* %21, i64 17
  %23 = getelementptr inbounds i8, i8* %21, i64 8
  %24 = bitcast i8* %23 to i32 (...)***
  store i32 (...)** bitcast (i8** getelementptr inbounds ({ [4 x i8*] }, { [4 x i8*] }* @_ZTVN4llvm2cl11OptionValueIbEE, i64 0, inrange i32 0, i64 2) to i32 (...)**), i32 (...)*** %24, align 8
  store i8 1, i8* %22, align 1
  %25 = getelementptr inbounds i8, i8* %21, i64 16
  store i8 0, i8* %25, align 8
  store i32 (...)** bitcast (i8** getelementptr inbounds ({ [12 x i8*] }, { [12 x i8*] }* @_ZTVN4llvm2cl3optIbLb0ENS0_6parserIbEEEE, i64 0, inrange i32 0, i64 2) to i32 (...)**), i32 (...)*** %6, align 8
  %26 = getelementptr inbounds %"class.llvm::cl::opt.40", %"class.llvm::cl::opt.40"* %0, i64 0, i32 3, i32 0, i32 0, i32 0
  store i32 (...)** bitcast (i8** getelementptr inbounds ({ [4 x i8*] }, { [4 x i8*] }* @_ZTVN4llvm2cl6parserIbEE, i64 0, inrange i32 0, i64 2) to i32 (...)**), i32 (...)*** %26, align 8
  tail call void @_ZN4llvm2cl5applyINS0_3optIbLb0ENS0_6parserIbEEEEA16_cJNS0_4descENS0_11initializerIbEEEEEvPT_RKT0_DpRKT1_(%"class.llvm::cl::opt.40"* %0, [16 x i8]* dereferenceable(16) %1, %"struct.llvm::cl::desc"* dereferenceable(16) %2, %"struct.llvm::cl::initializer.49"* dereferenceable(8) %3) #17
  tail call void @_ZN4llvm2cl6Option11addArgumentEv(%"class.llvm::cl::Option"* %5) #15
  ret void
}

; Function Attrs: nounwind optsize ssp uwtable
define linkonce_odr hidden void @_ZN4llvm2cl3optIbLb0ENS0_6parserIbEEEC2IJA14_cNS0_4descENS0_11initializerIbEEEEEDpRKT_(%"class.llvm::cl::opt.40"*, [14 x i8]* dereferenceable(14), %"struct.llvm::cl::desc"* dereferenceable(16), %"struct.llvm::cl::initializer.49"* dereferenceable(8)) unnamed_addr #1 comdat align 2 {
  %5 = bitcast %"class.llvm::cl::opt.40"* %0 to %"class.llvm::cl::Option"*
  %6 = getelementptr inbounds %"class.llvm::cl::opt.40", %"class.llvm::cl::opt.40"* %0, i64 0, i32 0, i32 0
  %7 = getelementptr inbounds %"class.llvm::cl::opt.40", %"class.llvm::cl::opt.40"* %0, i64 0, i32 0, i32 1
  store i32 0, i32* %7, align 8
  %8 = getelementptr inbounds %"class.llvm::cl::opt.40", %"class.llvm::cl::opt.40"* %0, i64 0, i32 0, i32 2
  %9 = load i16, i16* %8, align 4
  %10 = and i16 %9, -4096
  store i16 %10, i16* %8, align 4
  %11 = getelementptr inbounds %"class.llvm::cl::opt.40", %"class.llvm::cl::opt.40"* %0, i64 0, i32 0, i32 4
  %12 = getelementptr inbounds %"class.llvm::cl::opt.40", %"class.llvm::cl::opt.40"* %0, i64 0, i32 0, i32 9
  %13 = bitcast i32* %11 to i8*
  tail call void @llvm.memset.p0i8.i64(i8* align 8 %13, i8 0, i64 56, i1 false) #14
  store %"class.llvm::cl::OptionCategory"* @_ZN4llvm2cl15GeneralCategoryE, %"class.llvm::cl::OptionCategory"** %12, align 8
  %14 = getelementptr inbounds %"class.llvm::cl::opt.40", %"class.llvm::cl::opt.40"* %0, i64 0, i32 0, i32 10, i32 1, i64 0
  %15 = getelementptr inbounds %"class.llvm::cl::opt.40", %"class.llvm::cl::opt.40"* %0, i64 0, i32 0, i32 10, i32 0, i32 0, i32 0
  store i8** %14, i8*** %15, align 8
  %16 = getelementptr inbounds %"class.llvm::cl::opt.40", %"class.llvm::cl::opt.40"* %0, i64 0, i32 0, i32 10, i32 0, i32 0, i32 1
  store i8** %14, i8*** %16, align 8
  %17 = getelementptr inbounds %"class.llvm::cl::opt.40", %"class.llvm::cl::opt.40"* %0, i64 0, i32 0, i32 10, i32 0, i32 0, i32 2
  store i32 4, i32* %17, align 8
  %18 = getelementptr inbounds %"class.llvm::cl::opt.40", %"class.llvm::cl::opt.40"* %0, i64 0, i32 0, i32 10, i32 0, i32 0, i32 3
  store i32 0, i32* %18, align 4
  %19 = getelementptr inbounds %"class.llvm::cl::opt.40", %"class.llvm::cl::opt.40"* %0, i64 0, i32 0, i32 10, i32 0, i32 0, i32 4
  store i32 0, i32* %19, align 8
  %20 = getelementptr inbounds %"class.llvm::cl::opt.40", %"class.llvm::cl::opt.40"* %0, i64 0, i32 0, i32 11
  store i8 0, i8* %20, align 8
  %21 = getelementptr inbounds %"class.llvm::cl::opt.40", %"class.llvm::cl::opt.40"* %0, i64 0, i32 2, i32 0
  store i8 0, i8* %21, align 8
  %22 = getelementptr inbounds i8, i8* %21, i64 17
  %23 = getelementptr inbounds i8, i8* %21, i64 8
  %24 = bitcast i8* %23 to i32 (...)***
  store i32 (...)** bitcast (i8** getelementptr inbounds ({ [4 x i8*] }, { [4 x i8*] }* @_ZTVN4llvm2cl11OptionValueIbEE, i64 0, inrange i32 0, i64 2) to i32 (...)**), i32 (...)*** %24, align 8
  store i8 1, i8* %22, align 1
  %25 = getelementptr inbounds i8, i8* %21, i64 16
  store i8 0, i8* %25, align 8
  store i32 (...)** bitcast (i8** getelementptr inbounds ({ [12 x i8*] }, { [12 x i8*] }* @_ZTVN4llvm2cl3optIbLb0ENS0_6parserIbEEEE, i64 0, inrange i32 0, i64 2) to i32 (...)**), i32 (...)*** %6, align 8
  %26 = getelementptr inbounds %"class.llvm::cl::opt.40", %"class.llvm::cl::opt.40"* %0, i64 0, i32 3, i32 0, i32 0, i32 0
  store i32 (...)** bitcast (i8** getelementptr inbounds ({ [4 x i8*] }, { [4 x i8*] }* @_ZTVN4llvm2cl6parserIbEE, i64 0, inrange i32 0, i64 2) to i32 (...)**), i32 (...)*** %26, align 8
  tail call void @_ZN4llvm2cl5applyINS0_3optIbLb0ENS0_6parserIbEEEEA14_cJNS0_4descENS0_11initializerIbEEEEEvPT_RKT0_DpRKT1_(%"class.llvm::cl::opt.40"* %0, [14 x i8]* dereferenceable(14) %1, %"struct.llvm::cl::desc"* dereferenceable(16) %2, %"struct.llvm::cl::initializer.49"* dereferenceable(8) %3) #17
  tail call void @_ZN4llvm2cl6Option11addArgumentEv(%"class.llvm::cl::Option"* %5) #15
  ret void
}

; Function Attrs: nounwind optsize ssp uwtable
define linkonce_odr hidden void @_ZN4llvm2cl3optIbLb0ENS0_6parserIbEEEC2IJA15_cNS0_4descEEEEDpRKT_(%"class.llvm::cl::opt.40"*, [15 x i8]* dereferenceable(15), %"struct.llvm::cl::desc"* dereferenceable(16)) unnamed_addr #1 comdat align 2 {
  %4 = bitcast %"class.llvm::cl::opt.40"* %0 to %"class.llvm::cl::Option"*
  %5 = getelementptr inbounds %"class.llvm::cl::opt.40", %"class.llvm::cl::opt.40"* %0, i64 0, i32 0, i32 0
  %6 = getelementptr inbounds %"class.llvm::cl::opt.40", %"class.llvm::cl::opt.40"* %0, i64 0, i32 0, i32 1
  store i32 0, i32* %6, align 8
  %7 = getelementptr inbounds %"class.llvm::cl::opt.40", %"class.llvm::cl::opt.40"* %0, i64 0, i32 0, i32 2
  %8 = load i16, i16* %7, align 4
  %9 = and i16 %8, -4096
  store i16 %9, i16* %7, align 4
  %10 = getelementptr inbounds %"class.llvm::cl::opt.40", %"class.llvm::cl::opt.40"* %0, i64 0, i32 0, i32 4
  %11 = getelementptr inbounds %"class.llvm::cl::opt.40", %"class.llvm::cl::opt.40"* %0, i64 0, i32 0, i32 9
  %12 = bitcast i32* %10 to i8*
  tail call void @llvm.memset.p0i8.i64(i8* align 8 %12, i8 0, i64 56, i1 false) #14
  store %"class.llvm::cl::OptionCategory"* @_ZN4llvm2cl15GeneralCategoryE, %"class.llvm::cl::OptionCategory"** %11, align 8
  %13 = getelementptr inbounds %"class.llvm::cl::opt.40", %"class.llvm::cl::opt.40"* %0, i64 0, i32 0, i32 10, i32 1, i64 0
  %14 = getelementptr inbounds %"class.llvm::cl::opt.40", %"class.llvm::cl::opt.40"* %0, i64 0, i32 0, i32 10, i32 0, i32 0, i32 0
  store i8** %13, i8*** %14, align 8
  %15 = getelementptr inbounds %"class.llvm::cl::opt.40", %"class.llvm::cl::opt.40"* %0, i64 0, i32 0, i32 10, i32 0, i32 0, i32 1
  store i8** %13, i8*** %15, align 8
  %16 = getelementptr inbounds %"class.llvm::cl::opt.40", %"class.llvm::cl::opt.40"* %0, i64 0, i32 0, i32 10, i32 0, i32 0, i32 2
  store i32 4, i32* %16, align 8
  %17 = getelementptr inbounds %"class.llvm::cl::opt.40", %"class.llvm::cl::opt.40"* %0, i64 0, i32 0, i32 10, i32 0, i32 0, i32 3
  store i32 0, i32* %17, align 4
  %18 = getelementptr inbounds %"class.llvm::cl::opt.40", %"class.llvm::cl::opt.40"* %0, i64 0, i32 0, i32 10, i32 0, i32 0, i32 4
  store i32 0, i32* %18, align 8
  %19 = getelementptr inbounds %"class.llvm::cl::opt.40", %"class.llvm::cl::opt.40"* %0, i64 0, i32 0, i32 11
  store i8 0, i8* %19, align 8
  %20 = getelementptr inbounds %"class.llvm::cl::opt.40", %"class.llvm::cl::opt.40"* %0, i64 0, i32 2, i32 0
  store i8 0, i8* %20, align 8
  %21 = getelementptr inbounds i8, i8* %20, i64 17
  %22 = getelementptr inbounds i8, i8* %20, i64 8
  %23 = bitcast i8* %22 to i32 (...)***
  store i32 (...)** bitcast (i8** getelementptr inbounds ({ [4 x i8*] }, { [4 x i8*] }* @_ZTVN4llvm2cl11OptionValueIbEE, i64 0, inrange i32 0, i64 2) to i32 (...)**), i32 (...)*** %23, align 8
  store i8 1, i8* %21, align 1
  %24 = getelementptr inbounds i8, i8* %20, i64 16
  store i8 0, i8* %24, align 8
  store i32 (...)** bitcast (i8** getelementptr inbounds ({ [12 x i8*] }, { [12 x i8*] }* @_ZTVN4llvm2cl3optIbLb0ENS0_6parserIbEEEE, i64 0, inrange i32 0, i64 2) to i32 (...)**), i32 (...)*** %5, align 8
  %25 = getelementptr inbounds %"class.llvm::cl::opt.40", %"class.llvm::cl::opt.40"* %0, i64 0, i32 3, i32 0, i32 0, i32 0
  store i32 (...)** bitcast (i8** getelementptr inbounds ({ [4 x i8*] }, { [4 x i8*] }* @_ZTVN4llvm2cl6parserIbEE, i64 0, inrange i32 0, i64 2) to i32 (...)**), i32 (...)*** %25, align 8
  tail call void @_ZN4llvm2cl5applyINS0_3optIbLb0ENS0_6parserIbEEEEA15_cJNS0_4descEEEEvPT_RKT0_DpRKT1_(%"class.llvm::cl::opt.40"* %0, [15 x i8]* dereferenceable(15) %1, %"struct.llvm::cl::desc"* dereferenceable(16) %2) #17
  tail call void @_ZN4llvm2cl6Option11addArgumentEv(%"class.llvm::cl::Option"* %4) #15
  ret void
}

; Function Attrs: nounwind optsize ssp uwtable
define linkonce_odr hidden void @_ZN4llvm2cl3optIbLb0ENS0_6parserIbEEEC2IJA12_cNS0_4descEEEEDpRKT_(%"class.llvm::cl::opt.40"*, [12 x i8]* dereferenceable(12), %"struct.llvm::cl::desc"* dereferenceable(16)) unnamed_addr #1 comdat align 2 {
  %4 = bitcast %"class.llvm::cl::opt.40"* %0 to %"class.llvm::cl::Option"*
  %5 = getelementptr inbounds %"class.llvm::cl::opt.40", %"class.llvm::cl::opt.40"* %0, i64 0, i32 0, i32 0
  %6 = getelementptr inbounds %"class.llvm::cl::opt.40", %"class.llvm::cl::opt.40"* %0, i64 0, i32 0, i32 1
  store i32 0, i32* %6, align 8
  %7 = getelementptr inbounds %"class.llvm::cl::opt.40", %"class.llvm::cl::opt.40"* %0, i64 0, i32 0, i32 2
  %8 = load i16, i16* %7, align 4
  %9 = and i16 %8, -4096
  store i16 %9, i16* %7, align 4
  %10 = getelementptr inbounds %"class.llvm::cl::opt.40", %"class.llvm::cl::opt.40"* %0, i64 0, i32 0, i32 4
  %11 = getelementptr inbounds %"class.llvm::cl::opt.40", %"class.llvm::cl::opt.40"* %0, i64 0, i32 0, i32 9
  %12 = bitcast i32* %10 to i8*
  tail call void @llvm.memset.p0i8.i64(i8* align 8 %12, i8 0, i64 56, i1 false) #14
  store %"class.llvm::cl::OptionCategory"* @_ZN4llvm2cl15GeneralCategoryE, %"class.llvm::cl::OptionCategory"** %11, align 8
  %13 = getelementptr inbounds %"class.llvm::cl::opt.40", %"class.llvm::cl::opt.40"* %0, i64 0, i32 0, i32 10, i32 1, i64 0
  %14 = getelementptr inbounds %"class.llvm::cl::opt.40", %"class.llvm::cl::opt.40"* %0, i64 0, i32 0, i32 10, i32 0, i32 0, i32 0
  store i8** %13, i8*** %14, align 8
  %15 = getelementptr inbounds %"class.llvm::cl::opt.40", %"class.llvm::cl::opt.40"* %0, i64 0, i32 0, i32 10, i32 0, i32 0, i32 1
  store i8** %13, i8*** %15, align 8
  %16 = getelementptr inbounds %"class.llvm::cl::opt.40", %"class.llvm::cl::opt.40"* %0, i64 0, i32 0, i32 10, i32 0, i32 0, i32 2
  store i32 4, i32* %16, align 8
  %17 = getelementptr inbounds %"class.llvm::cl::opt.40", %"class.llvm::cl::opt.40"* %0, i64 0, i32 0, i32 10, i32 0, i32 0, i32 3
  store i32 0, i32* %17, align 4
  %18 = getelementptr inbounds %"class.llvm::cl::opt.40", %"class.llvm::cl::opt.40"* %0, i64 0, i32 0, i32 10, i32 0, i32 0, i32 4
  store i32 0, i32* %18, align 8
  %19 = getelementptr inbounds %"class.llvm::cl::opt.40", %"class.llvm::cl::opt.40"* %0, i64 0, i32 0, i32 11
  store i8 0, i8* %19, align 8
  %20 = getelementptr inbounds %"class.llvm::cl::opt.40", %"class.llvm::cl::opt.40"* %0, i64 0, i32 2, i32 0
  store i8 0, i8* %20, align 8
  %21 = getelementptr inbounds i8, i8* %20, i64 17
  %22 = getelementptr inbounds i8, i8* %20, i64 8
  %23 = bitcast i8* %22 to i32 (...)***
  store i32 (...)** bitcast (i8** getelementptr inbounds ({ [4 x i8*] }, { [4 x i8*] }* @_ZTVN4llvm2cl11OptionValueIbEE, i64 0, inrange i32 0, i64 2) to i32 (...)**), i32 (...)*** %23, align 8
  store i8 1, i8* %21, align 1
  %24 = getelementptr inbounds i8, i8* %20, i64 16
  store i8 0, i8* %24, align 8
  store i32 (...)** bitcast (i8** getelementptr inbounds ({ [12 x i8*] }, { [12 x i8*] }* @_ZTVN4llvm2cl3optIbLb0ENS0_6parserIbEEEE, i64 0, inrange i32 0, i64 2) to i32 (...)**), i32 (...)*** %5, align 8
  %25 = getelementptr inbounds %"class.llvm::cl::opt.40", %"class.llvm::cl::opt.40"* %0, i64 0, i32 3, i32 0, i32 0, i32 0
  store i32 (...)** bitcast (i8** getelementptr inbounds ({ [4 x i8*] }, { [4 x i8*] }* @_ZTVN4llvm2cl6parserIbEE, i64 0, inrange i32 0, i64 2) to i32 (...)**), i32 (...)*** %25, align 8
  tail call void @_ZN4llvm2cl5applyINS0_3optIbLb0ENS0_6parserIbEEEEA12_cJNS0_4descEEEEvPT_RKT0_DpRKT1_(%"class.llvm::cl::opt.40"* %0, [12 x i8]* dereferenceable(12) %1, %"struct.llvm::cl::desc"* dereferenceable(16) %2) #17
  tail call void @_ZN4llvm2cl6Option11addArgumentEv(%"class.llvm::cl::Option"* %4) #15
  ret void
}

; Function Attrs: nounwind optsize ssp uwtable
define linkonce_odr hidden void @_ZN4llvm2cl3optINSt3__112basic_stringIcNS2_11char_traitsIcEENS2_9allocatorIcEEEELb0ENS0_6parserIS8_EEEC2IJA24_cNS0_4descENS0_11initializerIA9_cEEEEEDpRKT_(%"class.llvm::cl::opt"*, [24 x i8]* dereferenceable(24), %"struct.llvm::cl::desc"* dereferenceable(16), %"struct.llvm::cl::initializer.50"* dereferenceable(8)) unnamed_addr #1 comdat align 2 {
  %5 = bitcast %"class.llvm::cl::opt"* %0 to %"class.llvm::cl::Option"*
  %6 = getelementptr inbounds %"class.llvm::cl::opt", %"class.llvm::cl::opt"* %0, i64 0, i32 0, i32 0
  %7 = getelementptr inbounds %"class.llvm::cl::opt", %"class.llvm::cl::opt"* %0, i64 0, i32 0, i32 1
  store i32 0, i32* %7, align 8
  %8 = getelementptr inbounds %"class.llvm::cl::opt", %"class.llvm::cl::opt"* %0, i64 0, i32 0, i32 2
  %9 = load i16, i16* %8, align 4
  %10 = and i16 %9, -4096
  store i16 %10, i16* %8, align 4
  %11 = getelementptr inbounds %"class.llvm::cl::opt", %"class.llvm::cl::opt"* %0, i64 0, i32 0, i32 4
  %12 = getelementptr inbounds %"class.llvm::cl::opt", %"class.llvm::cl::opt"* %0, i64 0, i32 0, i32 9
  %13 = bitcast i32* %11 to i8*
  tail call void @llvm.memset.p0i8.i64(i8* align 8 %13, i8 0, i64 56, i1 false) #14
  store %"class.llvm::cl::OptionCategory"* @_ZN4llvm2cl15GeneralCategoryE, %"class.llvm::cl::OptionCategory"** %12, align 8
  %14 = getelementptr inbounds %"class.llvm::cl::opt", %"class.llvm::cl::opt"* %0, i64 0, i32 0, i32 10, i32 1, i64 0
  %15 = getelementptr inbounds %"class.llvm::cl::opt", %"class.llvm::cl::opt"* %0, i64 0, i32 0, i32 10, i32 0, i32 0, i32 0
  store i8** %14, i8*** %15, align 8
  %16 = getelementptr inbounds %"class.llvm::cl::opt", %"class.llvm::cl::opt"* %0, i64 0, i32 0, i32 10, i32 0, i32 0, i32 1
  store i8** %14, i8*** %16, align 8
  %17 = getelementptr inbounds %"class.llvm::cl::opt", %"class.llvm::cl::opt"* %0, i64 0, i32 0, i32 10, i32 0, i32 0, i32 2
  store i32 4, i32* %17, align 8
  %18 = getelementptr inbounds %"class.llvm::cl::opt", %"class.llvm::cl::opt"* %0, i64 0, i32 0, i32 10, i32 0, i32 0, i32 3
  store i32 0, i32* %18, align 4
  %19 = getelementptr inbounds %"class.llvm::cl::opt", %"class.llvm::cl::opt"* %0, i64 0, i32 0, i32 10, i32 0, i32 0, i32 4
  store i32 0, i32* %19, align 8
  %20 = getelementptr inbounds %"class.llvm::cl::opt", %"class.llvm::cl::opt"* %0, i64 0, i32 0, i32 11
  store i8 0, i8* %20, align 8
  %21 = getelementptr inbounds %"class.llvm::cl::opt", %"class.llvm::cl::opt"* %0, i64 0, i32 1
  %22 = bitcast %"class.llvm::cl::opt_storage"* %21 to i8*
  tail call void @llvm.memset.p0i8.i64(i8* align 8 %22, i8 0, i64 24, i1 false) #14
  %23 = getelementptr inbounds %"class.llvm::cl::opt", %"class.llvm::cl::opt"* %0, i64 0, i32 1, i32 1, i32 0, i32 0, i32 0
  %24 = getelementptr inbounds %"class.llvm::cl::opt", %"class.llvm::cl::opt"* %0, i64 0, i32 1, i32 1, i32 0, i32 1
  %25 = bitcast %"class.std::__1::basic_string"* %24 to i8*
  tail call void @llvm.memset.p0i8.i64(i8* align 8 %25, i8 0, i64 25, i1 false) #14
  store i32 (...)** bitcast (i8** getelementptr inbounds ({ [4 x i8*] }, { [4 x i8*] }* @_ZTVN4llvm2cl11OptionValueINSt3__112basic_stringIcNS2_11char_traitsIcEENS2_9allocatorIcEEEEEE, i64 0, inrange i32 0, i64 2) to i32 (...)**), i32 (...)*** %23, align 8
  store i32 (...)** bitcast (i8** getelementptr inbounds ({ [12 x i8*] }, { [12 x i8*] }* @_ZTVN4llvm2cl3optINSt3__112basic_stringIcNS2_11char_traitsIcEENS2_9allocatorIcEEEELb0ENS0_6parserIS8_EEEE, i64 0, inrange i32 0, i64 2) to i32 (...)**), i32 (...)*** %6, align 8
  %26 = getelementptr inbounds %"class.llvm::cl::opt", %"class.llvm::cl::opt"* %0, i64 0, i32 2, i32 0, i32 0, i32 0
  store i32 (...)** bitcast (i8** getelementptr inbounds ({ [4 x i8*] }, { [4 x i8*] }* @_ZTVN4llvm2cl6parserINSt3__112basic_stringIcNS2_11char_traitsIcEENS2_9allocatorIcEEEEEE, i64 0, inrange i32 0, i64 2) to i32 (...)**), i32 (...)*** %26, align 8
  tail call void @_ZN4llvm2cl5applyINS0_3optINSt3__112basic_stringIcNS3_11char_traitsIcEENS3_9allocatorIcEEEELb0ENS0_6parserIS9_EEEEA24_cJNS0_4descENS0_11initializerIA9_cEEEEEvPT_RKT0_DpRKT1_(%"class.llvm::cl::opt"* %0, [24 x i8]* dereferenceable(24) %1, %"struct.llvm::cl::desc"* dereferenceable(16) %2, %"struct.llvm::cl::initializer.50"* dereferenceable(8) %3) #17
  tail call void @_ZN4llvm2cl6Option11addArgumentEv(%"class.llvm::cl::Option"* %5) #15
  ret void
}

; Function Attrs: nounwind optsize ssp uwtable
define linkonce_odr hidden void @_ZN4llvm2cl3optINSt3__112basic_stringIcNS2_11char_traitsIcEENS2_9allocatorIcEEEELb0ENS0_6parserIS8_EEEC2IJA22_cNS0_4descENS0_11initializerIA7_cEEEEEDpRKT_(%"class.llvm::cl::opt"*, [22 x i8]* dereferenceable(22), %"struct.llvm::cl::desc"* dereferenceable(16), %"struct.llvm::cl::initializer.51"* dereferenceable(8)) unnamed_addr #1 comdat align 2 {
  %5 = bitcast %"class.llvm::cl::opt"* %0 to %"class.llvm::cl::Option"*
  %6 = getelementptr inbounds %"class.llvm::cl::opt", %"class.llvm::cl::opt"* %0, i64 0, i32 0, i32 0
  %7 = getelementptr inbounds %"class.llvm::cl::opt", %"class.llvm::cl::opt"* %0, i64 0, i32 0, i32 1
  store i32 0, i32* %7, align 8
  %8 = getelementptr inbounds %"class.llvm::cl::opt", %"class.llvm::cl::opt"* %0, i64 0, i32 0, i32 2
  %9 = load i16, i16* %8, align 4
  %10 = and i16 %9, -4096
  store i16 %10, i16* %8, align 4
  %11 = getelementptr inbounds %"class.llvm::cl::opt", %"class.llvm::cl::opt"* %0, i64 0, i32 0, i32 4
  %12 = getelementptr inbounds %"class.llvm::cl::opt", %"class.llvm::cl::opt"* %0, i64 0, i32 0, i32 9
  %13 = bitcast i32* %11 to i8*
  tail call void @llvm.memset.p0i8.i64(i8* align 8 %13, i8 0, i64 56, i1 false) #14
  store %"class.llvm::cl::OptionCategory"* @_ZN4llvm2cl15GeneralCategoryE, %"class.llvm::cl::OptionCategory"** %12, align 8
  %14 = getelementptr inbounds %"class.llvm::cl::opt", %"class.llvm::cl::opt"* %0, i64 0, i32 0, i32 10, i32 1, i64 0
  %15 = getelementptr inbounds %"class.llvm::cl::opt", %"class.llvm::cl::opt"* %0, i64 0, i32 0, i32 10, i32 0, i32 0, i32 0
  store i8** %14, i8*** %15, align 8
  %16 = getelementptr inbounds %"class.llvm::cl::opt", %"class.llvm::cl::opt"* %0, i64 0, i32 0, i32 10, i32 0, i32 0, i32 1
  store i8** %14, i8*** %16, align 8
  %17 = getelementptr inbounds %"class.llvm::cl::opt", %"class.llvm::cl::opt"* %0, i64 0, i32 0, i32 10, i32 0, i32 0, i32 2
  store i32 4, i32* %17, align 8
  %18 = getelementptr inbounds %"class.llvm::cl::opt", %"class.llvm::cl::opt"* %0, i64 0, i32 0, i32 10, i32 0, i32 0, i32 3
  store i32 0, i32* %18, align 4
  %19 = getelementptr inbounds %"class.llvm::cl::opt", %"class.llvm::cl::opt"* %0, i64 0, i32 0, i32 10, i32 0, i32 0, i32 4
  store i32 0, i32* %19, align 8
  %20 = getelementptr inbounds %"class.llvm::cl::opt", %"class.llvm::cl::opt"* %0, i64 0, i32 0, i32 11
  store i8 0, i8* %20, align 8
  %21 = getelementptr inbounds %"class.llvm::cl::opt", %"class.llvm::cl::opt"* %0, i64 0, i32 1
  %22 = bitcast %"class.llvm::cl::opt_storage"* %21 to i8*
  tail call void @llvm.memset.p0i8.i64(i8* align 8 %22, i8 0, i64 24, i1 false) #14
  %23 = getelementptr inbounds %"class.llvm::cl::opt", %"class.llvm::cl::opt"* %0, i64 0, i32 1, i32 1, i32 0, i32 0, i32 0
  %24 = getelementptr inbounds %"class.llvm::cl::opt", %"class.llvm::cl::opt"* %0, i64 0, i32 1, i32 1, i32 0, i32 1
  %25 = bitcast %"class.std::__1::basic_string"* %24 to i8*
  tail call void @llvm.memset.p0i8.i64(i8* align 8 %25, i8 0, i64 25, i1 false) #14
  store i32 (...)** bitcast (i8** getelementptr inbounds ({ [4 x i8*] }, { [4 x i8*] }* @_ZTVN4llvm2cl11OptionValueINSt3__112basic_stringIcNS2_11char_traitsIcEENS2_9allocatorIcEEEEEE, i64 0, inrange i32 0, i64 2) to i32 (...)**), i32 (...)*** %23, align 8
  store i32 (...)** bitcast (i8** getelementptr inbounds ({ [12 x i8*] }, { [12 x i8*] }* @_ZTVN4llvm2cl3optINSt3__112basic_stringIcNS2_11char_traitsIcEENS2_9allocatorIcEEEELb0ENS0_6parserIS8_EEEE, i64 0, inrange i32 0, i64 2) to i32 (...)**), i32 (...)*** %6, align 8
  %26 = getelementptr inbounds %"class.llvm::cl::opt", %"class.llvm::cl::opt"* %0, i64 0, i32 2, i32 0, i32 0, i32 0
  store i32 (...)** bitcast (i8** getelementptr inbounds ({ [4 x i8*] }, { [4 x i8*] }* @_ZTVN4llvm2cl6parserINSt3__112basic_stringIcNS2_11char_traitsIcEENS2_9allocatorIcEEEEEE, i64 0, inrange i32 0, i64 2) to i32 (...)**), i32 (...)*** %26, align 8
  tail call void @_ZN4llvm2cl5applyINS0_3optINSt3__112basic_stringIcNS3_11char_traitsIcEENS3_9allocatorIcEEEELb0ENS0_6parserIS9_EEEEA22_cJNS0_4descENS0_11initializerIA7_cEEEEEvPT_RKT0_DpRKT1_(%"class.llvm::cl::opt"* %0, [22 x i8]* dereferenceable(22) %1, %"struct.llvm::cl::desc"* dereferenceable(16) %2, %"struct.llvm::cl::initializer.51"* dereferenceable(8) %3) #17
  tail call void @_ZN4llvm2cl6Option11addArgumentEv(%"class.llvm::cl::Option"* %5) #15
  ret void
}

; Function Attrs: nounwind optsize ssp uwtable
define linkonce_odr hidden void @_ZN4llvm2cl3optIbLb0ENS0_6parserIbEEEC2IJA8_cNS0_4descEEEEDpRKT_(%"class.llvm::cl::opt.40"*, [8 x i8]* dereferenceable(8), %"struct.llvm::cl::desc"* dereferenceable(16)) unnamed_addr #1 comdat align 2 {
  %4 = bitcast %"class.llvm::cl::opt.40"* %0 to %"class.llvm::cl::Option"*
  %5 = getelementptr inbounds %"class.llvm::cl::opt.40", %"class.llvm::cl::opt.40"* %0, i64 0, i32 0, i32 0
  %6 = getelementptr inbounds %"class.llvm::cl::opt.40", %"class.llvm::cl::opt.40"* %0, i64 0, i32 0, i32 1
  store i32 0, i32* %6, align 8
  %7 = getelementptr inbounds %"class.llvm::cl::opt.40", %"class.llvm::cl::opt.40"* %0, i64 0, i32 0, i32 2
  %8 = load i16, i16* %7, align 4
  %9 = and i16 %8, -4096
  store i16 %9, i16* %7, align 4
  %10 = getelementptr inbounds %"class.llvm::cl::opt.40", %"class.llvm::cl::opt.40"* %0, i64 0, i32 0, i32 4
  %11 = getelementptr inbounds %"class.llvm::cl::opt.40", %"class.llvm::cl::opt.40"* %0, i64 0, i32 0, i32 9
  %12 = bitcast i32* %10 to i8*
  tail call void @llvm.memset.p0i8.i64(i8* align 8 %12, i8 0, i64 56, i1 false) #14
  store %"class.llvm::cl::OptionCategory"* @_ZN4llvm2cl15GeneralCategoryE, %"class.llvm::cl::OptionCategory"** %11, align 8
  %13 = getelementptr inbounds %"class.llvm::cl::opt.40", %"class.llvm::cl::opt.40"* %0, i64 0, i32 0, i32 10, i32 1, i64 0
  %14 = getelementptr inbounds %"class.llvm::cl::opt.40", %"class.llvm::cl::opt.40"* %0, i64 0, i32 0, i32 10, i32 0, i32 0, i32 0
  store i8** %13, i8*** %14, align 8
  %15 = getelementptr inbounds %"class.llvm::cl::opt.40", %"class.llvm::cl::opt.40"* %0, i64 0, i32 0, i32 10, i32 0, i32 0, i32 1
  store i8** %13, i8*** %15, align 8
  %16 = getelementptr inbounds %"class.llvm::cl::opt.40", %"class.llvm::cl::opt.40"* %0, i64 0, i32 0, i32 10, i32 0, i32 0, i32 2
  store i32 4, i32* %16, align 8
  %17 = getelementptr inbounds %"class.llvm::cl::opt.40", %"class.llvm::cl::opt.40"* %0, i64 0, i32 0, i32 10, i32 0, i32 0, i32 3
  store i32 0, i32* %17, align 4
  %18 = getelementptr inbounds %"class.llvm::cl::opt.40", %"class.llvm::cl::opt.40"* %0, i64 0, i32 0, i32 10, i32 0, i32 0, i32 4
  store i32 0, i32* %18, align 8
  %19 = getelementptr inbounds %"class.llvm::cl::opt.40", %"class.llvm::cl::opt.40"* %0, i64 0, i32 0, i32 11
  store i8 0, i8* %19, align 8
  %20 = getelementptr inbounds %"class.llvm::cl::opt.40", %"class.llvm::cl::opt.40"* %0, i64 0, i32 2, i32 0
  store i8 0, i8* %20, align 8
  %21 = getelementptr inbounds i8, i8* %20, i64 17
  %22 = getelementptr inbounds i8, i8* %20, i64 8
  %23 = bitcast i8* %22 to i32 (...)***
  store i32 (...)** bitcast (i8** getelementptr inbounds ({ [4 x i8*] }, { [4 x i8*] }* @_ZTVN4llvm2cl11OptionValueIbEE, i64 0, inrange i32 0, i64 2) to i32 (...)**), i32 (...)*** %23, align 8
  store i8 1, i8* %21, align 1
  %24 = getelementptr inbounds i8, i8* %20, i64 16
  store i8 0, i8* %24, align 8
  store i32 (...)** bitcast (i8** getelementptr inbounds ({ [12 x i8*] }, { [12 x i8*] }* @_ZTVN4llvm2cl3optIbLb0ENS0_6parserIbEEEE, i64 0, inrange i32 0, i64 2) to i32 (...)**), i32 (...)*** %5, align 8
  %25 = getelementptr inbounds %"class.llvm::cl::opt.40", %"class.llvm::cl::opt.40"* %0, i64 0, i32 3, i32 0, i32 0, i32 0
  store i32 (...)** bitcast (i8** getelementptr inbounds ({ [4 x i8*] }, { [4 x i8*] }* @_ZTVN4llvm2cl6parserIbEE, i64 0, inrange i32 0, i64 2) to i32 (...)**), i32 (...)*** %25, align 8
  tail call void @_ZN4llvm2cl5applyINS0_3optIbLb0ENS0_6parserIbEEEEA8_cJNS0_4descEEEEvPT_RKT0_DpRKT1_(%"class.llvm::cl::opt.40"* %0, [8 x i8]* dereferenceable(8) %1, %"struct.llvm::cl::desc"* dereferenceable(16) %2) #17
  tail call void @_ZN4llvm2cl6Option11addArgumentEv(%"class.llvm::cl::Option"* %4) #15
  ret void
}

; Function Attrs: nounwind optsize ssp uwtable
define linkonce_odr hidden void @_ZN4llvm2cl3optIbLb0ENS0_6parserIbEEEC2IJA21_cNS0_4descENS0_11initializerIbEEEEEDpRKT_(%"class.llvm::cl::opt.40"*, [21 x i8]* dereferenceable(21), %"struct.llvm::cl::desc"* dereferenceable(16), %"struct.llvm::cl::initializer.49"* dereferenceable(8)) unnamed_addr #1 comdat align 2 {
  %5 = bitcast %"class.llvm::cl::opt.40"* %0 to %"class.llvm::cl::Option"*
  %6 = getelementptr inbounds %"class.llvm::cl::opt.40", %"class.llvm::cl::opt.40"* %0, i64 0, i32 0, i32 0
  %7 = getelementptr inbounds %"class.llvm::cl::opt.40", %"class.llvm::cl::opt.40"* %0, i64 0, i32 0, i32 1
  store i32 0, i32* %7, align 8
  %8 = getelementptr inbounds %"class.llvm::cl::opt.40", %"class.llvm::cl::opt.40"* %0, i64 0, i32 0, i32 2
  %9 = load i16, i16* %8, align 4
  %10 = and i16 %9, -4096
  store i16 %10, i16* %8, align 4
  %11 = getelementptr inbounds %"class.llvm::cl::opt.40", %"class.llvm::cl::opt.40"* %0, i64 0, i32 0, i32 4
  %12 = getelementptr inbounds %"class.llvm::cl::opt.40", %"class.llvm::cl::opt.40"* %0, i64 0, i32 0, i32 9
  %13 = bitcast i32* %11 to i8*
  tail call void @llvm.memset.p0i8.i64(i8* align 8 %13, i8 0, i64 56, i1 false) #14
  store %"class.llvm::cl::OptionCategory"* @_ZN4llvm2cl15GeneralCategoryE, %"class.llvm::cl::OptionCategory"** %12, align 8
  %14 = getelementptr inbounds %"class.llvm::cl::opt.40", %"class.llvm::cl::opt.40"* %0, i64 0, i32 0, i32 10, i32 1, i64 0
  %15 = getelementptr inbounds %"class.llvm::cl::opt.40", %"class.llvm::cl::opt.40"* %0, i64 0, i32 0, i32 10, i32 0, i32 0, i32 0
  store i8** %14, i8*** %15, align 8
  %16 = getelementptr inbounds %"class.llvm::cl::opt.40", %"class.llvm::cl::opt.40"* %0, i64 0, i32 0, i32 10, i32 0, i32 0, i32 1
  store i8** %14, i8*** %16, align 8
  %17 = getelementptr inbounds %"class.llvm::cl::opt.40", %"class.llvm::cl::opt.40"* %0, i64 0, i32 0, i32 10, i32 0, i32 0, i32 2
  store i32 4, i32* %17, align 8
  %18 = getelementptr inbounds %"class.llvm::cl::opt.40", %"class.llvm::cl::opt.40"* %0, i64 0, i32 0, i32 10, i32 0, i32 0, i32 3
  store i32 0, i32* %18, align 4
  %19 = getelementptr inbounds %"class.llvm::cl::opt.40", %"class.llvm::cl::opt.40"* %0, i64 0, i32 0, i32 10, i32 0, i32 0, i32 4
  store i32 0, i32* %19, align 8
  %20 = getelementptr inbounds %"class.llvm::cl::opt.40", %"class.llvm::cl::opt.40"* %0, i64 0, i32 0, i32 11
  store i8 0, i8* %20, align 8
  %21 = getelementptr inbounds %"class.llvm::cl::opt.40", %"class.llvm::cl::opt.40"* %0, i64 0, i32 2, i32 0
  store i8 0, i8* %21, align 8
  %22 = getelementptr inbounds i8, i8* %21, i64 17
  %23 = getelementptr inbounds i8, i8* %21, i64 8
  %24 = bitcast i8* %23 to i32 (...)***
  store i32 (...)** bitcast (i8** getelementptr inbounds ({ [4 x i8*] }, { [4 x i8*] }* @_ZTVN4llvm2cl11OptionValueIbEE, i64 0, inrange i32 0, i64 2) to i32 (...)**), i32 (...)*** %24, align 8
  store i8 1, i8* %22, align 1
  %25 = getelementptr inbounds i8, i8* %21, i64 16
  store i8 0, i8* %25, align 8
  store i32 (...)** bitcast (i8** getelementptr inbounds ({ [12 x i8*] }, { [12 x i8*] }* @_ZTVN4llvm2cl3optIbLb0ENS0_6parserIbEEEE, i64 0, inrange i32 0, i64 2) to i32 (...)**), i32 (...)*** %6, align 8
  %26 = getelementptr inbounds %"class.llvm::cl::opt.40", %"class.llvm::cl::opt.40"* %0, i64 0, i32 3, i32 0, i32 0, i32 0
  store i32 (...)** bitcast (i8** getelementptr inbounds ({ [4 x i8*] }, { [4 x i8*] }* @_ZTVN4llvm2cl6parserIbEE, i64 0, inrange i32 0, i64 2) to i32 (...)**), i32 (...)*** %26, align 8
  tail call void @_ZN4llvm2cl5applyINS0_3optIbLb0ENS0_6parserIbEEEEA21_cJNS0_4descENS0_11initializerIbEEEEEvPT_RKT0_DpRKT1_(%"class.llvm::cl::opt.40"* %0, [21 x i8]* dereferenceable(21) %1, %"struct.llvm::cl::desc"* dereferenceable(16) %2, %"struct.llvm::cl::initializer.49"* dereferenceable(8) %3) #17
  tail call void @_ZN4llvm2cl6Option11addArgumentEv(%"class.llvm::cl::Option"* %5) #15
  ret void
}

; Function Attrs: nounwind optsize ssp uwtable
define linkonce_odr hidden void @_ZN4llvm2cl3optIN3Ice11LCSEOptionsELb0ENS0_6parserIS3_EEEC2IJA5_cNS0_4descENS0_11initializerIS3_EENS0_11ValuesClassEEEEDpRKT_(%"class.llvm::cl::opt.52"*, [5 x i8]* dereferenceable(5), %"struct.llvm::cl::desc"* dereferenceable(16), %"struct.llvm::cl::initializer.66"* dereferenceable(8), %"class.llvm::cl::ValuesClass"* dereferenceable(184)) unnamed_addr #1 comdat align 2 {
  %6 = bitcast %"class.llvm::cl::opt.52"* %0 to %"class.llvm::cl::Option"*
  %7 = getelementptr inbounds %"class.llvm::cl::opt.52", %"class.llvm::cl::opt.52"* %0, i64 0, i32 0, i32 0
  %8 = getelementptr inbounds %"class.llvm::cl::opt.52", %"class.llvm::cl::opt.52"* %0, i64 0, i32 0, i32 1
  store i32 0, i32* %8, align 8
  %9 = getelementptr inbounds %"class.llvm::cl::opt.52", %"class.llvm::cl::opt.52"* %0, i64 0, i32 0, i32 2
  %10 = load i16, i16* %9, align 4
  %11 = and i16 %10, -4096
  store i16 %11, i16* %9, align 4
  %12 = getelementptr inbounds %"class.llvm::cl::opt.52", %"class.llvm::cl::opt.52"* %0, i64 0, i32 0, i32 4
  %13 = getelementptr inbounds %"class.llvm::cl::opt.52", %"class.llvm::cl::opt.52"* %0, i64 0, i32 0, i32 9
  %14 = bitcast i32* %12 to i8*
  tail call void @llvm.memset.p0i8.i64(i8* align 8 %14, i8 0, i64 56, i1 false) #14
  store %"class.llvm::cl::OptionCategory"* @_ZN4llvm2cl15GeneralCategoryE, %"class.llvm::cl::OptionCategory"** %13, align 8
  %15 = getelementptr inbounds %"class.llvm::cl::opt.52", %"class.llvm::cl::opt.52"* %0, i64 0, i32 0, i32 10, i32 1, i64 0
  %16 = getelementptr inbounds %"class.llvm::cl::opt.52", %"class.llvm::cl::opt.52"* %0, i64 0, i32 0, i32 10, i32 0, i32 0, i32 0
  store i8** %15, i8*** %16, align 8
  %17 = getelementptr inbounds %"class.llvm::cl::opt.52", %"class.llvm::cl::opt.52"* %0, i64 0, i32 0, i32 10, i32 0, i32 0, i32 1
  store i8** %15, i8*** %17, align 8
  %18 = getelementptr inbounds %"class.llvm::cl::opt.52", %"class.llvm::cl::opt.52"* %0, i64 0, i32 0, i32 10, i32 0, i32 0, i32 2
  store i32 4, i32* %18, align 8
  %19 = getelementptr inbounds %"class.llvm::cl::opt.52", %"class.llvm::cl::opt.52"* %0, i64 0, i32 0, i32 10, i32 0, i32 0, i32 3
  store i32 0, i32* %19, align 4
  %20 = getelementptr inbounds %"class.llvm::cl::opt.52", %"class.llvm::cl::opt.52"* %0, i64 0, i32 0, i32 10, i32 0, i32 0, i32 4
  store i32 0, i32* %20, align 8
  %21 = getelementptr inbounds %"class.llvm::cl::opt.52", %"class.llvm::cl::opt.52"* %0, i64 0, i32 0, i32 11
  store i8 0, i8* %21, align 8
  %22 = getelementptr inbounds %"class.llvm::cl::opt.52", %"class.llvm::cl::opt.52"* %0, i64 0, i32 2, i32 0
  store i32 0, i32* %22, align 8
  %23 = getelementptr inbounds %"class.llvm::cl::opt.52", %"class.llvm::cl::opt.52"* %0, i64 0, i32 2, i32 2, i32 0, i32 0, i32 2
  %24 = getelementptr inbounds %"class.llvm::cl::opt.52", %"class.llvm::cl::opt.52"* %0, i64 0, i32 2, i32 2, i32 0, i32 0, i32 0, i32 0
  store i32 (...)** bitcast (i8** getelementptr inbounds ({ [4 x i8*] }, { [4 x i8*] }* @_ZTVN4llvm2cl11OptionValueIN3Ice11LCSEOptionsEEE, i64 0, inrange i32 0, i64 2) to i32 (...)**), i32 (...)*** %24, align 8
  store i8 1, i8* %23, align 4
  %25 = getelementptr inbounds %"class.llvm::cl::opt.52", %"class.llvm::cl::opt.52"* %0, i64 0, i32 2, i32 2, i32 0, i32 0, i32 1
  store i32 0, i32* %25, align 8
  store i32 (...)** bitcast (i8** getelementptr inbounds ({ [12 x i8*] }, { [12 x i8*] }* @_ZTVN4llvm2cl3optIN3Ice11LCSEOptionsELb0ENS0_6parserIS3_EEEE, i64 0, inrange i32 0, i64 2) to i32 (...)**), i32 (...)*** %7, align 8
  %26 = getelementptr inbounds %"class.llvm::cl::opt.52", %"class.llvm::cl::opt.52"* %0, i64 0, i32 3, i32 0, i32 0
  %27 = getelementptr inbounds %"class.llvm::cl::opt.52", %"class.llvm::cl::opt.52"* %0, i64 0, i32 3, i32 0, i32 1
  %28 = bitcast %"class.llvm::cl::Option"** %27 to %"class.llvm::cl::opt.52"**
  store %"class.llvm::cl::opt.52"* %0, %"class.llvm::cl::opt.52"** %28, align 8
  store i32 (...)** bitcast (i8** getelementptr inbounds ({ [10 x i8*] }, { [10 x i8*] }* @_ZTVN4llvm2cl6parserIN3Ice11LCSEOptionsEEE, i64 0, inrange i32 0, i64 2) to i32 (...)**), i32 (...)*** %26, align 8
  %29 = getelementptr inbounds %"class.llvm::cl::opt.52", %"class.llvm::cl::opt.52"* %0, i64 0, i32 3, i32 1, i32 0, i32 0, i32 0, i32 1, i32 0, i32 0, i64 0
  %30 = getelementptr inbounds %"class.llvm::cl::opt.52", %"class.llvm::cl::opt.52"* %0, i64 0, i32 3, i32 1, i32 0, i32 0, i32 0, i32 0, i32 0
  store i8* %29, i8** %30, align 8
  %31 = getelementptr inbounds %"class.llvm::cl::opt.52", %"class.llvm::cl::opt.52"* %0, i64 0, i32 3, i32 1, i32 0, i32 0, i32 0, i32 0, i32 1
  store i8* %29, i8** %31, align 8
  %32 = getelementptr inbounds %"class.llvm::cl::opt.52", %"class.llvm::cl::opt.52"* %0, i64 0, i32 3, i32 1, i32 0, i32 0, i32 0, i32 0, i32 2
  %33 = getelementptr inbounds %"class.llvm::cl::opt.52", %"class.llvm::cl::opt.52"* %0, i64 0, i32 3, i32 1, i32 0, i32 0, i32 0, i32 1, i32 0, i32 0, i64 384
  store i8* %33, i8** %32, align 8
  tail call void @_ZN4llvm2cl5applyINS0_3optIN3Ice11LCSEOptionsELb0ENS0_6parserIS4_EEEEA5_cJNS0_4descENS0_11initializerIS4_EENS0_11ValuesClassEEEEvPT_RKT0_DpRKT1_(%"class.llvm::cl::opt.52"* %0, [5 x i8]* dereferenceable(5) %1, %"struct.llvm::cl::desc"* dereferenceable(16) %2, %"struct.llvm::cl::initializer.66"* dereferenceable(8) %3, %"class.llvm::cl::ValuesClass"* dereferenceable(184) %4) #17
  tail call void @_ZN4llvm2cl6Option11addArgumentEv(%"class.llvm::cl::Option"* %6) #15
  ret void
}

; Function Attrs: inlinehint nounwind optsize ssp uwtable
define linkonce_odr hidden void @_ZN4llvm2cl3optIN3Ice11LCSEOptionsELb0ENS0_6parserIS3_EEED2Ev(%"class.llvm::cl::opt.52"*) unnamed_addr #2 comdat align 2 {
  %2 = getelementptr inbounds %"class.llvm::cl::opt.52", %"class.llvm::cl::opt.52"* %0, i64 0, i32 0, i32 0
  store i32 (...)** bitcast (i8** getelementptr inbounds ({ [12 x i8*] }, { [12 x i8*] }* @_ZTVN4llvm2cl3optIN3Ice11LCSEOptionsELb0ENS0_6parserIS3_EEEE, i64 0, inrange i32 0, i64 2) to i32 (...)**), i32 (...)*** %2, align 8
  %3 = getelementptr inbounds %"class.llvm::cl::opt.52", %"class.llvm::cl::opt.52"* %0, i64 0, i32 3, i32 0, i32 0
  store i32 (...)** bitcast (i8** getelementptr inbounds ({ [10 x i8*] }, { [10 x i8*] }* @_ZTVN4llvm2cl6parserIN3Ice11LCSEOptionsEEE, i64 0, inrange i32 0, i64 2) to i32 (...)**), i32 (...)*** %3, align 8
  %4 = getelementptr inbounds %"class.llvm::cl::opt.52", %"class.llvm::cl::opt.52"* %0, i64 0, i32 3, i32 1, i32 0, i32 0, i32 0, i32 0, i32 0
  %5 = load i8*, i8** %4, align 8
  %6 = getelementptr inbounds %"class.llvm::cl::opt.52", %"class.llvm::cl::opt.52"* %0, i64 0, i32 3, i32 1, i32 0, i32 0, i32 0, i32 1, i32 0, i32 0, i64 0
  %7 = icmp eq i8* %5, %6
  br i1 %7, label %9, label %8

8:                                                ; preds = %1
  tail call void @free(i8* %5) #15
  br label %9

9:                                                ; preds = %1, %8
  store i32 (...)** bitcast (i8** getelementptr inbounds ({ [12 x i8*] }, { [12 x i8*] }* @_ZTVN4llvm2cl6OptionE, i64 0, inrange i32 0, i64 2) to i32 (...)**), i32 (...)*** %2, align 8
  %10 = getelementptr inbounds %"class.llvm::cl::opt.52", %"class.llvm::cl::opt.52"* %0, i64 0, i32 0, i32 10, i32 0, i32 0, i32 1
  %11 = load i8**, i8*** %10, align 8
  %12 = getelementptr inbounds %"class.llvm::cl::opt.52", %"class.llvm::cl::opt.52"* %0, i64 0, i32 0, i32 10, i32 0, i32 0, i32 0
  %13 = load i8**, i8*** %12, align 8
  %14 = icmp eq i8** %11, %13
  br i1 %14, label %17, label %15

15:                                               ; preds = %9
  %16 = bitcast i8** %11 to i8*
  tail call void @free(i8* %16) #15
  br label %17

17:                                               ; preds = %9, %15
  ret void
}

; Function Attrs: nounwind optsize ssp uwtable
define linkonce_odr hidden void @_ZN4llvm2cl3optIbLb0ENS0_6parserIbEEEC2IJA10_cNS0_4descENS0_11initializerIbEEEEEDpRKT_(%"class.llvm::cl::opt.40"*, [10 x i8]* dereferenceable(10), %"struct.llvm::cl::desc"* dereferenceable(16), %"struct.llvm::cl::initializer.49"* dereferenceable(8)) unnamed_addr #1 comdat align 2 {
  %5 = bitcast %"class.llvm::cl::opt.40"* %0 to %"class.llvm::cl::Option"*
  %6 = getelementptr inbounds %"class.llvm::cl::opt.40", %"class.llvm::cl::opt.40"* %0, i64 0, i32 0, i32 0
  %7 = getelementptr inbounds %"class.llvm::cl::opt.40", %"class.llvm::cl::opt.40"* %0, i64 0, i32 0, i32 1
  store i32 0, i32* %7, align 8
  %8 = getelementptr inbounds %"class.llvm::cl::opt.40", %"class.llvm::cl::opt.40"* %0, i64 0, i32 0, i32 2
  %9 = load i16, i16* %8, align 4
  %10 = and i16 %9, -4096
  store i16 %10, i16* %8, align 4
  %11 = getelementptr inbounds %"class.llvm::cl::opt.40", %"class.llvm::cl::opt.40"* %0, i64 0, i32 0, i32 4
  %12 = getelementptr inbounds %"class.llvm::cl::opt.40", %"class.llvm::cl::opt.40"* %0, i64 0, i32 0, i32 9
  %13 = bitcast i32* %11 to i8*
  tail call void @llvm.memset.p0i8.i64(i8* align 8 %13, i8 0, i64 56, i1 false) #14
  store %"class.llvm::cl::OptionCategory"* @_ZN4llvm2cl15GeneralCategoryE, %"class.llvm::cl::OptionCategory"** %12, align 8
  %14 = getelementptr inbounds %"class.llvm::cl::opt.40", %"class.llvm::cl::opt.40"* %0, i64 0, i32 0, i32 10, i32 1, i64 0
  %15 = getelementptr inbounds %"class.llvm::cl::opt.40", %"class.llvm::cl::opt.40"* %0, i64 0, i32 0, i32 10, i32 0, i32 0, i32 0
  store i8** %14, i8*** %15, align 8
  %16 = getelementptr inbounds %"class.llvm::cl::opt.40", %"class.llvm::cl::opt.40"* %0, i64 0, i32 0, i32 10, i32 0, i32 0, i32 1
  store i8** %14, i8*** %16, align 8
  %17 = getelementptr inbounds %"class.llvm::cl::opt.40", %"class.llvm::cl::opt.40"* %0, i64 0, i32 0, i32 10, i32 0, i32 0, i32 2
  store i32 4, i32* %17, align 8
  %18 = getelementptr inbounds %"class.llvm::cl::opt.40", %"class.llvm::cl::opt.40"* %0, i64 0, i32 0, i32 10, i32 0, i32 0, i32 3
  store i32 0, i32* %18, align 4
  %19 = getelementptr inbounds %"class.llvm::cl::opt.40", %"class.llvm::cl::opt.40"* %0, i64 0, i32 0, i32 10, i32 0, i32 0, i32 4
  store i32 0, i32* %19, align 8
  %20 = getelementptr inbounds %"class.llvm::cl::opt.40", %"class.llvm::cl::opt.40"* %0, i64 0, i32 0, i32 11
  store i8 0, i8* %20, align 8
  %21 = getelementptr inbounds %"class.llvm::cl::opt.40", %"class.llvm::cl::opt.40"* %0, i64 0, i32 2, i32 0
  store i8 0, i8* %21, align 8
  %22 = getelementptr inbounds i8, i8* %21, i64 17
  %23 = getelementptr inbounds i8, i8* %21, i64 8
  %24 = bitcast i8* %23 to i32 (...)***
  store i32 (...)** bitcast (i8** getelementptr inbounds ({ [4 x i8*] }, { [4 x i8*] }* @_ZTVN4llvm2cl11OptionValueIbEE, i64 0, inrange i32 0, i64 2) to i32 (...)**), i32 (...)*** %24, align 8
  store i8 1, i8* %22, align 1
  %25 = getelementptr inbounds i8, i8* %21, i64 16
  store i8 0, i8* %25, align 8
  store i32 (...)** bitcast (i8** getelementptr inbounds ({ [12 x i8*] }, { [12 x i8*] }* @_ZTVN4llvm2cl3optIbLb0ENS0_6parserIbEEEE, i64 0, inrange i32 0, i64 2) to i32 (...)**), i32 (...)*** %6, align 8
  %26 = getelementptr inbounds %"class.llvm::cl::opt.40", %"class.llvm::cl::opt.40"* %0, i64 0, i32 3, i32 0, i32 0, i32 0
  store i32 (...)** bitcast (i8** getelementptr inbounds ({ [4 x i8*] }, { [4 x i8*] }* @_ZTVN4llvm2cl6parserIbEE, i64 0, inrange i32 0, i64 2) to i32 (...)**), i32 (...)*** %26, align 8
  tail call void @_ZN4llvm2cl5applyINS0_3optIbLb0ENS0_6parserIbEEEEA10_cJNS0_4descENS0_11initializerIbEEEEEvPT_RKT0_DpRKT1_(%"class.llvm::cl::opt.40"* %0, [10 x i8]* dereferenceable(10) %1, %"struct.llvm::cl::desc"* dereferenceable(16) %2, %"struct.llvm::cl::initializer.49"* dereferenceable(8) %3) #17
  tail call void @_ZN4llvm2cl6Option11addArgumentEv(%"class.llvm::cl::Option"* %5) #15
  ret void
}

; Function Attrs: nounwind optsize ssp uwtable
define linkonce_odr hidden void @_ZN4llvm2cl4listINSt3__112basic_stringIcNS2_11char_traitsIcEENS2_9allocatorIcEEEEbNS0_6parserIS8_EEEC2IJA12_cNS0_9MiscFlagsENS0_4descEEEEDpRKT_(%"class.llvm::cl::list"*, [12 x i8]* dereferenceable(12), i32* dereferenceable(4), %"struct.llvm::cl::desc"* dereferenceable(16)) unnamed_addr #1 comdat align 2 {
  %5 = bitcast %"class.llvm::cl::list"* %0 to %"class.llvm::cl::Option"*
  %6 = getelementptr inbounds %"class.llvm::cl::list", %"class.llvm::cl::list"* %0, i64 0, i32 0, i32 0
  %7 = getelementptr inbounds %"class.llvm::cl::list", %"class.llvm::cl::list"* %0, i64 0, i32 0, i32 1
  store i32 0, i32* %7, align 8
  %8 = getelementptr inbounds %"class.llvm::cl::list", %"class.llvm::cl::list"* %0, i64 0, i32 0, i32 2
  %9 = load i16, i16* %8, align 4
  %10 = and i16 %9, -4096
  %11 = or i16 %10, 1
  store i16 %11, i16* %8, align 4
  %12 = getelementptr inbounds %"class.llvm::cl::list", %"class.llvm::cl::list"* %0, i64 0, i32 0, i32 4
  %13 = getelementptr inbounds %"class.llvm::cl::list", %"class.llvm::cl::list"* %0, i64 0, i32 0, i32 9
  %14 = bitcast i32* %12 to i8*
  tail call void @llvm.memset.p0i8.i64(i8* align 8 %14, i8 0, i64 56, i1 false) #14
  store %"class.llvm::cl::OptionCategory"* @_ZN4llvm2cl15GeneralCategoryE, %"class.llvm::cl::OptionCategory"** %13, align 8
  %15 = getelementptr inbounds %"class.llvm::cl::list", %"class.llvm::cl::list"* %0, i64 0, i32 0, i32 10, i32 1, i64 0
  %16 = getelementptr inbounds %"class.llvm::cl::list", %"class.llvm::cl::list"* %0, i64 0, i32 0, i32 10, i32 0, i32 0, i32 0
  store i8** %15, i8*** %16, align 8
  %17 = getelementptr inbounds %"class.llvm::cl::list", %"class.llvm::cl::list"* %0, i64 0, i32 0, i32 10, i32 0, i32 0, i32 1
  store i8** %15, i8*** %17, align 8
  %18 = getelementptr inbounds %"class.llvm::cl::list", %"class.llvm::cl::list"* %0, i64 0, i32 0, i32 10, i32 0, i32 0, i32 2
  store i32 4, i32* %18, align 8
  %19 = getelementptr inbounds %"class.llvm::cl::list", %"class.llvm::cl::list"* %0, i64 0, i32 0, i32 10, i32 0, i32 0, i32 3
  store i32 0, i32* %19, align 4
  %20 = getelementptr inbounds %"class.llvm::cl::list", %"class.llvm::cl::list"* %0, i64 0, i32 0, i32 10, i32 0, i32 0, i32 4
  store i32 0, i32* %20, align 8
  %21 = getelementptr inbounds %"class.llvm::cl::list", %"class.llvm::cl::list"* %0, i64 0, i32 0, i32 11
  store i8 0, i8* %21, align 8
  %22 = getelementptr inbounds %"class.llvm::cl::list", %"class.llvm::cl::list"* %0, i64 0, i32 1
  %23 = bitcast %"class.llvm::cl::list_storage"* %22 to i8*
  tail call void @llvm.memset.p0i8.i64(i8* align 8 %23, i8 0, i64 24, i1 false) #14
  store i32 (...)** bitcast (i8** getelementptr inbounds ({ [12 x i8*] }, { [12 x i8*] }* @_ZTVN4llvm2cl4listINSt3__112basic_stringIcNS2_11char_traitsIcEENS2_9allocatorIcEEEEbNS0_6parserIS8_EEEE, i64 0, inrange i32 0, i64 2) to i32 (...)**), i32 (...)*** %6, align 8
  %24 = getelementptr inbounds %"class.llvm::cl::list", %"class.llvm::cl::list"* %0, i64 0, i32 2
  %25 = bitcast %"class.std::__1::vector.72"* %24 to i8*
  tail call void @llvm.memset.p0i8.i64(i8* align 8 %25, i8 0, i64 24, i1 false) #14
  %26 = getelementptr inbounds %"class.llvm::cl::list", %"class.llvm::cl::list"* %0, i64 0, i32 3, i32 0, i32 0, i32 0
  store i32 (...)** bitcast (i8** getelementptr inbounds ({ [4 x i8*] }, { [4 x i8*] }* @_ZTVN4llvm2cl6parserINSt3__112basic_stringIcNS2_11char_traitsIcEENS2_9allocatorIcEEEEEE, i64 0, inrange i32 0, i64 2) to i32 (...)**), i32 (...)*** %26, align 8
  tail call void @_ZN4llvm2cl5applyINS0_4listINSt3__112basic_stringIcNS3_11char_traitsIcEENS3_9allocatorIcEEEEbNS0_6parserIS9_EEEEA12_cJNS0_9MiscFlagsENS0_4descEEEEvPT_RKT0_DpRKT1_(%"class.llvm::cl::list"* %0, [12 x i8]* dereferenceable(12) %1, i32* dereferenceable(4) %2, %"struct.llvm::cl::desc"* dereferenceable(16) %3) #17
  tail call void @_ZN4llvm2cl6Option11addArgumentEv(%"class.llvm::cl::Option"* %5) #15
  ret void
}

; Function Attrs: inlinehint nounwind optsize ssp uwtable
define linkonce_odr hidden void @_ZN4llvm2cl4listINSt3__112basic_stringIcNS2_11char_traitsIcEENS2_9allocatorIcEEEEbNS0_6parserIS8_EEED2Ev(%"class.llvm::cl::list"*) unnamed_addr #2 comdat align 2 {
  %2 = getelementptr inbounds %"class.llvm::cl::list", %"class.llvm::cl::list"* %0, i64 0, i32 0, i32 0
  store i32 (...)** bitcast (i8** getelementptr inbounds ({ [12 x i8*] }, { [12 x i8*] }* @_ZTVN4llvm2cl4listINSt3__112basic_stringIcNS2_11char_traitsIcEENS2_9allocatorIcEEEEbNS0_6parserIS8_EEEE, i64 0, inrange i32 0, i64 2) to i32 (...)**), i32 (...)*** %2, align 8
  %3 = getelementptr inbounds %"class.llvm::cl::list", %"class.llvm::cl::list"* %0, i64 0, i32 2, i32 0, i32 0
  %4 = load i32*, i32** %3, align 8
  %5 = icmp eq i32* %4, null
  br i1 %5, label %11, label %6

6:                                                ; preds = %1
  %7 = ptrtoint i32* %4 to i64
  %8 = getelementptr inbounds %"class.llvm::cl::list", %"class.llvm::cl::list"* %0, i64 0, i32 2, i32 0, i32 1
  %9 = bitcast i32** %8 to i64*
  store i64 %7, i64* %9, align 8
  %10 = bitcast i32* %4 to i8*
  tail call void @_ZdlPv(i8* %10) #16
  br label %11

11:                                               ; preds = %1, %6
  %12 = getelementptr inbounds %"class.llvm::cl::list", %"class.llvm::cl::list"* %0, i64 0, i32 1, i32 0, i32 0
  tail call void @_ZNSt3__113__vector_baseINS_12basic_stringIcNS_11char_traitsIcEENS_9allocatorIcEEEENS4_IS6_EEED2Ev(%"class.std::__1::__vector_base"* %12) #15
  store i32 (...)** bitcast (i8** getelementptr inbounds ({ [12 x i8*] }, { [12 x i8*] }* @_ZTVN4llvm2cl6OptionE, i64 0, inrange i32 0, i64 2) to i32 (...)**), i32 (...)*** %2, align 8
  %13 = getelementptr inbounds %"class.llvm::cl::list", %"class.llvm::cl::list"* %0, i64 0, i32 0, i32 10, i32 0, i32 0, i32 1
  %14 = load i8**, i8*** %13, align 8
  %15 = getelementptr inbounds %"class.llvm::cl::list", %"class.llvm::cl::list"* %0, i64 0, i32 0, i32 10, i32 0, i32 0, i32 0
  %16 = load i8**, i8*** %15, align 8
  %17 = icmp eq i8** %14, %16
  br i1 %17, label %20, label %18

18:                                               ; preds = %11
  %19 = bitcast i8** %14 to i8*
  tail call void @free(i8* %19) #15
  br label %20

20:                                               ; preds = %11, %18
  ret void
}

; Function Attrs: nounwind optsize ssp uwtable
define linkonce_odr hidden void @_ZN4llvm2cl3optIbLb0ENS0_6parserIbEEEC2IJA16_cNS0_4descEEEEDpRKT_(%"class.llvm::cl::opt.40"*, [16 x i8]* dereferenceable(16), %"struct.llvm::cl::desc"* dereferenceable(16)) unnamed_addr #1 comdat align 2 {
  %4 = bitcast %"class.llvm::cl::opt.40"* %0 to %"class.llvm::cl::Option"*
  %5 = getelementptr inbounds %"class.llvm::cl::opt.40", %"class.llvm::cl::opt.40"* %0, i64 0, i32 0, i32 0
  %6 = getelementptr inbounds %"class.llvm::cl::opt.40", %"class.llvm::cl::opt.40"* %0, i64 0, i32 0, i32 1
  store i32 0, i32* %6, align 8
  %7 = getelementptr inbounds %"class.llvm::cl::opt.40", %"class.llvm::cl::opt.40"* %0, i64 0, i32 0, i32 2
  %8 = load i16, i16* %7, align 4
  %9 = and i16 %8, -4096
  store i16 %9, i16* %7, align 4
  %10 = getelementptr inbounds %"class.llvm::cl::opt.40", %"class.llvm::cl::opt.40"* %0, i64 0, i32 0, i32 4
  %11 = getelementptr inbounds %"class.llvm::cl::opt.40", %"class.llvm::cl::opt.40"* %0, i64 0, i32 0, i32 9
  %12 = bitcast i32* %10 to i8*
  tail call void @llvm.memset.p0i8.i64(i8* align 8 %12, i8 0, i64 56, i1 false) #14
  store %"class.llvm::cl::OptionCategory"* @_ZN4llvm2cl15GeneralCategoryE, %"class.llvm::cl::OptionCategory"** %11, align 8
  %13 = getelementptr inbounds %"class.llvm::cl::opt.40", %"class.llvm::cl::opt.40"* %0, i64 0, i32 0, i32 10, i32 1, i64 0
  %14 = getelementptr inbounds %"class.llvm::cl::opt.40", %"class.llvm::cl::opt.40"* %0, i64 0, i32 0, i32 10, i32 0, i32 0, i32 0
  store i8** %13, i8*** %14, align 8
  %15 = getelementptr inbounds %"class.llvm::cl::opt.40", %"class.llvm::cl::opt.40"* %0, i64 0, i32 0, i32 10, i32 0, i32 0, i32 1
  store i8** %13, i8*** %15, align 8
  %16 = getelementptr inbounds %"class.llvm::cl::opt.40", %"class.llvm::cl::opt.40"* %0, i64 0, i32 0, i32 10, i32 0, i32 0, i32 2
  store i32 4, i32* %16, align 8
  %17 = getelementptr inbounds %"class.llvm::cl::opt.40", %"class.llvm::cl::opt.40"* %0, i64 0, i32 0, i32 10, i32 0, i32 0, i32 3
  store i32 0, i32* %17, align 4
  %18 = getelementptr inbounds %"class.llvm::cl::opt.40", %"class.llvm::cl::opt.40"* %0, i64 0, i32 0, i32 10, i32 0, i32 0, i32 4
  store i32 0, i32* %18, align 8
  %19 = getelementptr inbounds %"class.llvm::cl::opt.40", %"class.llvm::cl::opt.40"* %0, i64 0, i32 0, i32 11
  store i8 0, i8* %19, align 8
  %20 = getelementptr inbounds %"class.llvm::cl::opt.40", %"class.llvm::cl::opt.40"* %0, i64 0, i32 2, i32 0
  store i8 0, i8* %20, align 8
  %21 = getelementptr inbounds i8, i8* %20, i64 17
  %22 = getelementptr inbounds i8, i8* %20, i64 8
  %23 = bitcast i8* %22 to i32 (...)***
  store i32 (...)** bitcast (i8** getelementptr inbounds ({ [4 x i8*] }, { [4 x i8*] }* @_ZTVN4llvm2cl11OptionValueIbEE, i64 0, inrange i32 0, i64 2) to i32 (...)**), i32 (...)*** %23, align 8
  store i8 1, i8* %21, align 1
  %24 = getelementptr inbounds i8, i8* %20, i64 16
  store i8 0, i8* %24, align 8
  store i32 (...)** bitcast (i8** getelementptr inbounds ({ [12 x i8*] }, { [12 x i8*] }* @_ZTVN4llvm2cl3optIbLb0ENS0_6parserIbEEEE, i64 0, inrange i32 0, i64 2) to i32 (...)**), i32 (...)*** %5, align 8
  %25 = getelementptr inbounds %"class.llvm::cl::opt.40", %"class.llvm::cl::opt.40"* %0, i64 0, i32 3, i32 0, i32 0, i32 0
  store i32 (...)** bitcast (i8** getelementptr inbounds ({ [4 x i8*] }, { [4 x i8*] }* @_ZTVN4llvm2cl6parserIbEE, i64 0, inrange i32 0, i64 2) to i32 (...)**), i32 (...)*** %25, align 8
  tail call void @_ZN4llvm2cl5applyINS0_3optIbLb0ENS0_6parserIbEEEEA16_cJNS0_4descEEEEvPT_RKT0_DpRKT1_(%"class.llvm::cl::opt.40"* %0, [16 x i8]* dereferenceable(16) %1, %"struct.llvm::cl::desc"* dereferenceable(16) %2) #17
  tail call void @_ZN4llvm2cl6Option11addArgumentEv(%"class.llvm::cl::Option"* %4) #15
  ret void
}

; Function Attrs: nounwind optsize ssp uwtable
define linkonce_odr hidden void @_ZN4llvm2cl3optINSt3__112basic_stringIcNS2_11char_traitsIcEENS2_9allocatorIcEEEELb0ENS0_6parserIS8_EEEC2IJA9_cNS0_4descENS0_11initializerIA1_cEEEEEDpRKT_(%"class.llvm::cl::opt"*, [9 x i8]* dereferenceable(9), %"struct.llvm::cl::desc"* dereferenceable(16), %"struct.llvm::cl::initializer.79"* dereferenceable(8)) unnamed_addr #1 comdat align 2 {
  %5 = bitcast %"class.llvm::cl::opt"* %0 to %"class.llvm::cl::Option"*
  %6 = getelementptr inbounds %"class.llvm::cl::opt", %"class.llvm::cl::opt"* %0, i64 0, i32 0, i32 0
  %7 = getelementptr inbounds %"class.llvm::cl::opt", %"class.llvm::cl::opt"* %0, i64 0, i32 0, i32 1
  store i32 0, i32* %7, align 8
  %8 = getelementptr inbounds %"class.llvm::cl::opt", %"class.llvm::cl::opt"* %0, i64 0, i32 0, i32 2
  %9 = load i16, i16* %8, align 4
  %10 = and i16 %9, -4096
  store i16 %10, i16* %8, align 4
  %11 = getelementptr inbounds %"class.llvm::cl::opt", %"class.llvm::cl::opt"* %0, i64 0, i32 0, i32 4
  %12 = getelementptr inbounds %"class.llvm::cl::opt", %"class.llvm::cl::opt"* %0, i64 0, i32 0, i32 9
  %13 = bitcast i32* %11 to i8*
  tail call void @llvm.memset.p0i8.i64(i8* align 8 %13, i8 0, i64 56, i1 false) #14
  store %"class.llvm::cl::OptionCategory"* @_ZN4llvm2cl15GeneralCategoryE, %"class.llvm::cl::OptionCategory"** %12, align 8
  %14 = getelementptr inbounds %"class.llvm::cl::opt", %"class.llvm::cl::opt"* %0, i64 0, i32 0, i32 10, i32 1, i64 0
  %15 = getelementptr inbounds %"class.llvm::cl::opt", %"class.llvm::cl::opt"* %0, i64 0, i32 0, i32 10, i32 0, i32 0, i32 0
  store i8** %14, i8*** %15, align 8
  %16 = getelementptr inbounds %"class.llvm::cl::opt", %"class.llvm::cl::opt"* %0, i64 0, i32 0, i32 10, i32 0, i32 0, i32 1
  store i8** %14, i8*** %16, align 8
  %17 = getelementptr inbounds %"class.llvm::cl::opt", %"class.llvm::cl::opt"* %0, i64 0, i32 0, i32 10, i32 0, i32 0, i32 2
  store i32 4, i32* %17, align 8
  %18 = getelementptr inbounds %"class.llvm::cl::opt", %"class.llvm::cl::opt"* %0, i64 0, i32 0, i32 10, i32 0, i32 0, i32 3
  store i32 0, i32* %18, align 4
  %19 = getelementptr inbounds %"class.llvm::cl::opt", %"class.llvm::cl::opt"* %0, i64 0, i32 0, i32 10, i32 0, i32 0, i32 4
  store i32 0, i32* %19, align 8
  %20 = getelementptr inbounds %"class.llvm::cl::opt", %"class.llvm::cl::opt"* %0, i64 0, i32 0, i32 11
  store i8 0, i8* %20, align 8
  %21 = getelementptr inbounds %"class.llvm::cl::opt", %"class.llvm::cl::opt"* %0, i64 0, i32 1
  %22 = bitcast %"class.llvm::cl::opt_storage"* %21 to i8*
  tail call void @llvm.memset.p0i8.i64(i8* align 8 %22, i8 0, i64 24, i1 false) #14
  %23 = getelementptr inbounds %"class.llvm::cl::opt", %"class.llvm::cl::opt"* %0, i64 0, i32 1, i32 1, i32 0, i32 0, i32 0
  %24 = getelementptr inbounds %"class.llvm::cl::opt", %"class.llvm::cl::opt"* %0, i64 0, i32 1, i32 1, i32 0, i32 1
  %25 = bitcast %"class.std::__1::basic_string"* %24 to i8*
  tail call void @llvm.memset.p0i8.i64(i8* align 8 %25, i8 0, i64 25, i1 false) #14
  store i32 (...)** bitcast (i8** getelementptr inbounds ({ [4 x i8*] }, { [4 x i8*] }* @_ZTVN4llvm2cl11OptionValueINSt3__112basic_stringIcNS2_11char_traitsIcEENS2_9allocatorIcEEEEEE, i64 0, inrange i32 0, i64 2) to i32 (...)**), i32 (...)*** %23, align 8
  store i32 (...)** bitcast (i8** getelementptr inbounds ({ [12 x i8*] }, { [12 x i8*] }* @_ZTVN4llvm2cl3optINSt3__112basic_stringIcNS2_11char_traitsIcEENS2_9allocatorIcEEEELb0ENS0_6parserIS8_EEEE, i64 0, inrange i32 0, i64 2) to i32 (...)**), i32 (...)*** %6, align 8
  %26 = getelementptr inbounds %"class.llvm::cl::opt", %"class.llvm::cl::opt"* %0, i64 0, i32 2, i32 0, i32 0, i32 0
  store i32 (...)** bitcast (i8** getelementptr inbounds ({ [4 x i8*] }, { [4 x i8*] }* @_ZTVN4llvm2cl6parserINSt3__112basic_stringIcNS2_11char_traitsIcEENS2_9allocatorIcEEEEEE, i64 0, inrange i32 0, i64 2) to i32 (...)**), i32 (...)*** %26, align 8
  tail call void @_ZN4llvm2cl5applyINS0_3optINSt3__112basic_stringIcNS3_11char_traitsIcEENS3_9allocatorIcEEEELb0ENS0_6parserIS9_EEEEA9_cJNS0_4descENS0_11initializerIA1_cEEEEEvPT_RKT0_DpRKT1_(%"class.llvm::cl::opt"* %0, [9 x i8]* dereferenceable(9) %1, %"struct.llvm::cl::desc"* dereferenceable(16) %2, %"struct.llvm::cl::initializer.79"* dereferenceable(8) %3) #17
  tail call void @_ZN4llvm2cl6Option11addArgumentEv(%"class.llvm::cl::Option"* %5) #15
  ret void
}

; Function Attrs: nounwind optsize ssp uwtable
define linkonce_odr hidden void @_ZN4llvm2cl3optINSt3__112basic_stringIcNS2_11char_traitsIcEENS2_9allocatorIcEEEELb0ENS0_6parserIS8_EEEC2IJA11_cNS0_4descENS0_11initializerIA2_cEEEEEDpRKT_(%"class.llvm::cl::opt"*, [11 x i8]* dereferenceable(11), %"struct.llvm::cl::desc"* dereferenceable(16), %"struct.llvm::cl::initializer"* dereferenceable(8)) unnamed_addr #1 comdat align 2 {
  %5 = bitcast %"class.llvm::cl::opt"* %0 to %"class.llvm::cl::Option"*
  %6 = getelementptr inbounds %"class.llvm::cl::opt", %"class.llvm::cl::opt"* %0, i64 0, i32 0, i32 0
  %7 = getelementptr inbounds %"class.llvm::cl::opt", %"class.llvm::cl::opt"* %0, i64 0, i32 0, i32 1
  store i32 0, i32* %7, align 8
  %8 = getelementptr inbounds %"class.llvm::cl::opt", %"class.llvm::cl::opt"* %0, i64 0, i32 0, i32 2
  %9 = load i16, i16* %8, align 4
  %10 = and i16 %9, -4096
  store i16 %10, i16* %8, align 4
  %11 = getelementptr inbounds %"class.llvm::cl::opt", %"class.llvm::cl::opt"* %0, i64 0, i32 0, i32 4
  %12 = getelementptr inbounds %"class.llvm::cl::opt", %"class.llvm::cl::opt"* %0, i64 0, i32 0, i32 9
  %13 = bitcast i32* %11 to i8*
  tail call void @llvm.memset.p0i8.i64(i8* align 8 %13, i8 0, i64 56, i1 false) #14
  store %"class.llvm::cl::OptionCategory"* @_ZN4llvm2cl15GeneralCategoryE, %"class.llvm::cl::OptionCategory"** %12, align 8
  %14 = getelementptr inbounds %"class.llvm::cl::opt", %"class.llvm::cl::opt"* %0, i64 0, i32 0, i32 10, i32 1, i64 0
  %15 = getelementptr inbounds %"class.llvm::cl::opt", %"class.llvm::cl::opt"* %0, i64 0, i32 0, i32 10, i32 0, i32 0, i32 0
  store i8** %14, i8*** %15, align 8
  %16 = getelementptr inbounds %"class.llvm::cl::opt", %"class.llvm::cl::opt"* %0, i64 0, i32 0, i32 10, i32 0, i32 0, i32 1
  store i8** %14, i8*** %16, align 8
  %17 = getelementptr inbounds %"class.llvm::cl::opt", %"class.llvm::cl::opt"* %0, i64 0, i32 0, i32 10, i32 0, i32 0, i32 2
  store i32 4, i32* %17, align 8
  %18 = getelementptr inbounds %"class.llvm::cl::opt", %"class.llvm::cl::opt"* %0, i64 0, i32 0, i32 10, i32 0, i32 0, i32 3
  store i32 0, i32* %18, align 4
  %19 = getelementptr inbounds %"class.llvm::cl::opt", %"class.llvm::cl::opt"* %0, i64 0, i32 0, i32 10, i32 0, i32 0, i32 4
  store i32 0, i32* %19, align 8
  %20 = getelementptr inbounds %"class.llvm::cl::opt", %"class.llvm::cl::opt"* %0, i64 0, i32 0, i32 11
  store i8 0, i8* %20, align 8
  %21 = getelementptr inbounds %"class.llvm::cl::opt", %"class.llvm::cl::opt"* %0, i64 0, i32 1
  %22 = bitcast %"class.llvm::cl::opt_storage"* %21 to i8*
  tail call void @llvm.memset.p0i8.i64(i8* align 8 %22, i8 0, i64 24, i1 false) #14
  %23 = getelementptr inbounds %"class.llvm::cl::opt", %"class.llvm::cl::opt"* %0, i64 0, i32 1, i32 1, i32 0, i32 0, i32 0
  %24 = getelementptr inbounds %"class.llvm::cl::opt", %"class.llvm::cl::opt"* %0, i64 0, i32 1, i32 1, i32 0, i32 1
  %25 = bitcast %"class.std::__1::basic_string"* %24 to i8*
  tail call void @llvm.memset.p0i8.i64(i8* align 8 %25, i8 0, i64 25, i1 false) #14
  store i32 (...)** bitcast (i8** getelementptr inbounds ({ [4 x i8*] }, { [4 x i8*] }* @_ZTVN4llvm2cl11OptionValueINSt3__112basic_stringIcNS2_11char_traitsIcEENS2_9allocatorIcEEEEEE, i64 0, inrange i32 0, i64 2) to i32 (...)**), i32 (...)*** %23, align 8
  store i32 (...)** bitcast (i8** getelementptr inbounds ({ [12 x i8*] }, { [12 x i8*] }* @_ZTVN4llvm2cl3optINSt3__112basic_stringIcNS2_11char_traitsIcEENS2_9allocatorIcEEEELb0ENS0_6parserIS8_EEEE, i64 0, inrange i32 0, i64 2) to i32 (...)**), i32 (...)*** %6, align 8
  %26 = getelementptr inbounds %"class.llvm::cl::opt", %"class.llvm::cl::opt"* %0, i64 0, i32 2, i32 0, i32 0, i32 0
  store i32 (...)** bitcast (i8** getelementptr inbounds ({ [4 x i8*] }, { [4 x i8*] }* @_ZTVN4llvm2cl6parserINSt3__112basic_stringIcNS2_11char_traitsIcEENS2_9allocatorIcEEEEEE, i64 0, inrange i32 0, i64 2) to i32 (...)**), i32 (...)*** %26, align 8
  tail call void @_ZN4llvm2cl5applyINS0_3optINSt3__112basic_stringIcNS3_11char_traitsIcEENS3_9allocatorIcEEEELb0ENS0_6parserIS9_EEEEA11_cJNS0_4descENS0_11initializerIA2_cEEEEEvPT_RKT0_DpRKT1_(%"class.llvm::cl::opt"* %0, [11 x i8]* dereferenceable(11) %1, %"struct.llvm::cl::desc"* dereferenceable(16) %2, %"struct.llvm::cl::initializer"* dereferenceable(8) %3) #17
  tail call void @_ZN4llvm2cl6Option11addArgumentEv(%"class.llvm::cl::Option"* %5) #15
  ret void
}

; Function Attrs: nounwind optsize ssp uwtable
define linkonce_odr hidden void @_ZN4llvm2cl3optIbLb0ENS0_6parserIbEEEC2IJA19_cNS0_4descEEEEDpRKT_(%"class.llvm::cl::opt.40"*, [19 x i8]* dereferenceable(19), %"struct.llvm::cl::desc"* dereferenceable(16)) unnamed_addr #1 comdat align 2 {
  %4 = bitcast %"class.llvm::cl::opt.40"* %0 to %"class.llvm::cl::Option"*
  %5 = getelementptr inbounds %"class.llvm::cl::opt.40", %"class.llvm::cl::opt.40"* %0, i64 0, i32 0, i32 0
  %6 = getelementptr inbounds %"class.llvm::cl::opt.40", %"class.llvm::cl::opt.40"* %0, i64 0, i32 0, i32 1
  store i32 0, i32* %6, align 8
  %7 = getelementptr inbounds %"class.llvm::cl::opt.40", %"class.llvm::cl::opt.40"* %0, i64 0, i32 0, i32 2
  %8 = load i16, i16* %7, align 4
  %9 = and i16 %8, -4096
  store i16 %9, i16* %7, align 4
  %10 = getelementptr inbounds %"class.llvm::cl::opt.40", %"class.llvm::cl::opt.40"* %0, i64 0, i32 0, i32 4
  %11 = getelementptr inbounds %"class.llvm::cl::opt.40", %"class.llvm::cl::opt.40"* %0, i64 0, i32 0, i32 9
  %12 = bitcast i32* %10 to i8*
  tail call void @llvm.memset.p0i8.i64(i8* align 8 %12, i8 0, i64 56, i1 false) #14
  store %"class.llvm::cl::OptionCategory"* @_ZN4llvm2cl15GeneralCategoryE, %"class.llvm::cl::OptionCategory"** %11, align 8
  %13 = getelementptr inbounds %"class.llvm::cl::opt.40", %"class.llvm::cl::opt.40"* %0, i64 0, i32 0, i32 10, i32 1, i64 0
  %14 = getelementptr inbounds %"class.llvm::cl::opt.40", %"class.llvm::cl::opt.40"* %0, i64 0, i32 0, i32 10, i32 0, i32 0, i32 0
  store i8** %13, i8*** %14, align 8
  %15 = getelementptr inbounds %"class.llvm::cl::opt.40", %"class.llvm::cl::opt.40"* %0, i64 0, i32 0, i32 10, i32 0, i32 0, i32 1
  store i8** %13, i8*** %15, align 8
  %16 = getelementptr inbounds %"class.llvm::cl::opt.40", %"class.llvm::cl::opt.40"* %0, i64 0, i32 0, i32 10, i32 0, i32 0, i32 2
  store i32 4, i32* %16, align 8
  %17 = getelementptr inbounds %"class.llvm::cl::opt.40", %"class.llvm::cl::opt.40"* %0, i64 0, i32 0, i32 10, i32 0, i32 0, i32 3
  store i32 0, i32* %17, align 4
  %18 = getelementptr inbounds %"class.llvm::cl::opt.40", %"class.llvm::cl::opt.40"* %0, i64 0, i32 0, i32 10, i32 0, i32 0, i32 4
  store i32 0, i32* %18, align 8
  %19 = getelementptr inbounds %"class.llvm::cl::opt.40", %"class.llvm::cl::opt.40"* %0, i64 0, i32 0, i32 11
  store i8 0, i8* %19, align 8
  %20 = getelementptr inbounds %"class.llvm::cl::opt.40", %"class.llvm::cl::opt.40"* %0, i64 0, i32 2, i32 0
  store i8 0, i8* %20, align 8
  %21 = getelementptr inbounds i8, i8* %20, i64 17
  %22 = getelementptr inbounds i8, i8* %20, i64 8
  %23 = bitcast i8* %22 to i32 (...)***
  store i32 (...)** bitcast (i8** getelementptr inbounds ({ [4 x i8*] }, { [4 x i8*] }* @_ZTVN4llvm2cl11OptionValueIbEE, i64 0, inrange i32 0, i64 2) to i32 (...)**), i32 (...)*** %23, align 8
  store i8 1, i8* %21, align 1
  %24 = getelementptr inbounds i8, i8* %20, i64 16
  store i8 0, i8* %24, align 8
  store i32 (...)** bitcast (i8** getelementptr inbounds ({ [12 x i8*] }, { [12 x i8*] }* @_ZTVN4llvm2cl3optIbLb0ENS0_6parserIbEEEE, i64 0, inrange i32 0, i64 2) to i32 (...)**), i32 (...)*** %5, align 8
  %25 = getelementptr inbounds %"class.llvm::cl::opt.40", %"class.llvm::cl::opt.40"* %0, i64 0, i32 3, i32 0, i32 0, i32 0
  store i32 (...)** bitcast (i8** getelementptr inbounds ({ [4 x i8*] }, { [4 x i8*] }* @_ZTVN4llvm2cl6parserIbEE, i64 0, inrange i32 0, i64 2) to i32 (...)**), i32 (...)*** %25, align 8
  tail call void @_ZN4llvm2cl5applyINS0_3optIbLb0ENS0_6parserIbEEEEA19_cJNS0_4descEEEEvPT_RKT0_DpRKT1_(%"class.llvm::cl::opt.40"* %0, [19 x i8]* dereferenceable(19) %1, %"struct.llvm::cl::desc"* dereferenceable(16) %2) #17
  tail call void @_ZN4llvm2cl6Option11addArgumentEv(%"class.llvm::cl::Option"* %4) #15
  ret void
}

; Function Attrs: nounwind optsize ssp uwtable
define linkonce_odr hidden void @_ZN4llvm2cl3optIbLb0ENS0_6parserIbEEEC2IJA11_cNS0_4descENS0_11initializerIbEEEEEDpRKT_(%"class.llvm::cl::opt.40"*, [11 x i8]* dereferenceable(11), %"struct.llvm::cl::desc"* dereferenceable(16), %"struct.llvm::cl::initializer.49"* dereferenceable(8)) unnamed_addr #1 comdat align 2 {
  %5 = bitcast %"class.llvm::cl::opt.40"* %0 to %"class.llvm::cl::Option"*
  %6 = getelementptr inbounds %"class.llvm::cl::opt.40", %"class.llvm::cl::opt.40"* %0, i64 0, i32 0, i32 0
  %7 = getelementptr inbounds %"class.llvm::cl::opt.40", %"class.llvm::cl::opt.40"* %0, i64 0, i32 0, i32 1
  store i32 0, i32* %7, align 8
  %8 = getelementptr inbounds %"class.llvm::cl::opt.40", %"class.llvm::cl::opt.40"* %0, i64 0, i32 0, i32 2
  %9 = load i16, i16* %8, align 4
  %10 = and i16 %9, -4096
  store i16 %10, i16* %8, align 4
  %11 = getelementptr inbounds %"class.llvm::cl::opt.40", %"class.llvm::cl::opt.40"* %0, i64 0, i32 0, i32 4
  %12 = getelementptr inbounds %"class.llvm::cl::opt.40", %"class.llvm::cl::opt.40"* %0, i64 0, i32 0, i32 9
  %13 = bitcast i32* %11 to i8*
  tail call void @llvm.memset.p0i8.i64(i8* align 8 %13, i8 0, i64 56, i1 false) #14
  store %"class.llvm::cl::OptionCategory"* @_ZN4llvm2cl15GeneralCategoryE, %"class.llvm::cl::OptionCategory"** %12, align 8
  %14 = getelementptr inbounds %"class.llvm::cl::opt.40", %"class.llvm::cl::opt.40"* %0, i64 0, i32 0, i32 10, i32 1, i64 0
  %15 = getelementptr inbounds %"class.llvm::cl::opt.40", %"class.llvm::cl::opt.40"* %0, i64 0, i32 0, i32 10, i32 0, i32 0, i32 0
  store i8** %14, i8*** %15, align 8
  %16 = getelementptr inbounds %"class.llvm::cl::opt.40", %"class.llvm::cl::opt.40"* %0, i64 0, i32 0, i32 10, i32 0, i32 0, i32 1
  store i8** %14, i8*** %16, align 8
  %17 = getelementptr inbounds %"class.llvm::cl::opt.40", %"class.llvm::cl::opt.40"* %0, i64 0, i32 0, i32 10, i32 0, i32 0, i32 2
  store i32 4, i32* %17, align 8
  %18 = getelementptr inbounds %"class.llvm::cl::opt.40", %"class.llvm::cl::opt.40"* %0, i64 0, i32 0, i32 10, i32 0, i32 0, i32 3
  store i32 0, i32* %18, align 4
  %19 = getelementptr inbounds %"class.llvm::cl::opt.40", %"class.llvm::cl::opt.40"* %0, i64 0, i32 0, i32 10, i32 0, i32 0, i32 4
  store i32 0, i32* %19, align 8
  %20 = getelementptr inbounds %"class.llvm::cl::opt.40", %"class.llvm::cl::opt.40"* %0, i64 0, i32 0, i32 11
  store i8 0, i8* %20, align 8
  %21 = getelementptr inbounds %"class.llvm::cl::opt.40", %"class.llvm::cl::opt.40"* %0, i64 0, i32 2, i32 0
  store i8 0, i8* %21, align 8
  %22 = getelementptr inbounds i8, i8* %21, i64 17
  %23 = getelementptr inbounds i8, i8* %21, i64 8
  %24 = bitcast i8* %23 to i32 (...)***
  store i32 (...)** bitcast (i8** getelementptr inbounds ({ [4 x i8*] }, { [4 x i8*] }* @_ZTVN4llvm2cl11OptionValueIbEE, i64 0, inrange i32 0, i64 2) to i32 (...)**), i32 (...)*** %24, align 8
  store i8 1, i8* %22, align 1
  %25 = getelementptr inbounds i8, i8* %21, i64 16
  store i8 0, i8* %25, align 8
  store i32 (...)** bitcast (i8** getelementptr inbounds ({ [12 x i8*] }, { [12 x i8*] }* @_ZTVN4llvm2cl3optIbLb0ENS0_6parserIbEEEE, i64 0, inrange i32 0, i64 2) to i32 (...)**), i32 (...)*** %6, align 8
  %26 = getelementptr inbounds %"class.llvm::cl::opt.40", %"class.llvm::cl::opt.40"* %0, i64 0, i32 3, i32 0, i32 0, i32 0
  store i32 (...)** bitcast (i8** getelementptr inbounds ({ [4 x i8*] }, { [4 x i8*] }* @_ZTVN4llvm2cl6parserIbEE, i64 0, inrange i32 0, i64 2) to i32 (...)**), i32 (...)*** %26, align 8
  tail call void @_ZN4llvm2cl5applyINS0_3optIbLb0ENS0_6parserIbEEEEA11_cJNS0_4descENS0_11initializerIbEEEEEvPT_RKT0_DpRKT1_(%"class.llvm::cl::opt.40"* %0, [11 x i8]* dereferenceable(11) %1, %"struct.llvm::cl::desc"* dereferenceable(16) %2, %"struct.llvm::cl::initializer.49"* dereferenceable(8) %3) #17
  tail call void @_ZN4llvm2cl6Option11addArgumentEv(%"class.llvm::cl::Option"* %5) #15
  ret void
}

; Function Attrs: nounwind optsize ssp uwtable
define linkonce_odr hidden void @_ZN4llvm2cl3optIbLb0ENS0_6parserIbEEEC2IJA18_cNS0_4descENS0_11initializerIbEEEEEDpRKT_(%"class.llvm::cl::opt.40"*, [18 x i8]* dereferenceable(18), %"struct.llvm::cl::desc"* dereferenceable(16), %"struct.llvm::cl::initializer.49"* dereferenceable(8)) unnamed_addr #1 comdat align 2 {
  %5 = bitcast %"class.llvm::cl::opt.40"* %0 to %"class.llvm::cl::Option"*
  %6 = getelementptr inbounds %"class.llvm::cl::opt.40", %"class.llvm::cl::opt.40"* %0, i64 0, i32 0, i32 0
  %7 = getelementptr inbounds %"class.llvm::cl::opt.40", %"class.llvm::cl::opt.40"* %0, i64 0, i32 0, i32 1
  store i32 0, i32* %7, align 8
  %8 = getelementptr inbounds %"class.llvm::cl::opt.40", %"class.llvm::cl::opt.40"* %0, i64 0, i32 0, i32 2
  %9 = load i16, i16* %8, align 4
  %10 = and i16 %9, -4096
  store i16 %10, i16* %8, align 4
  %11 = getelementptr inbounds %"class.llvm::cl::opt.40", %"class.llvm::cl::opt.40"* %0, i64 0, i32 0, i32 4
  %12 = getelementptr inbounds %"class.llvm::cl::opt.40", %"class.llvm::cl::opt.40"* %0, i64 0, i32 0, i32 9
  %13 = bitcast i32* %11 to i8*
  tail call void @llvm.memset.p0i8.i64(i8* align 8 %13, i8 0, i64 56, i1 false) #14
  store %"class.llvm::cl::OptionCategory"* @_ZN4llvm2cl15GeneralCategoryE, %"class.llvm::cl::OptionCategory"** %12, align 8
  %14 = getelementptr inbounds %"class.llvm::cl::opt.40", %"class.llvm::cl::opt.40"* %0, i64 0, i32 0, i32 10, i32 1, i64 0
  %15 = getelementptr inbounds %"class.llvm::cl::opt.40", %"class.llvm::cl::opt.40"* %0, i64 0, i32 0, i32 10, i32 0, i32 0, i32 0
  store i8** %14, i8*** %15, align 8
  %16 = getelementptr inbounds %"class.llvm::cl::opt.40", %"class.llvm::cl::opt.40"* %0, i64 0, i32 0, i32 10, i32 0, i32 0, i32 1
  store i8** %14, i8*** %16, align 8
  %17 = getelementptr inbounds %"class.llvm::cl::opt.40", %"class.llvm::cl::opt.40"* %0, i64 0, i32 0, i32 10, i32 0, i32 0, i32 2
  store i32 4, i32* %17, align 8
  %18 = getelementptr inbounds %"class.llvm::cl::opt.40", %"class.llvm::cl::opt.40"* %0, i64 0, i32 0, i32 10, i32 0, i32 0, i32 3
  store i32 0, i32* %18, align 4
  %19 = getelementptr inbounds %"class.llvm::cl::opt.40", %"class.llvm::cl::opt.40"* %0, i64 0, i32 0, i32 10, i32 0, i32 0, i32 4
  store i32 0, i32* %19, align 8
  %20 = getelementptr inbounds %"class.llvm::cl::opt.40", %"class.llvm::cl::opt.40"* %0, i64 0, i32 0, i32 11
  store i8 0, i8* %20, align 8
  %21 = getelementptr inbounds %"class.llvm::cl::opt.40", %"class.llvm::cl::opt.40"* %0, i64 0, i32 2, i32 0
  store i8 0, i8* %21, align 8
  %22 = getelementptr inbounds i8, i8* %21, i64 17
  %23 = getelementptr inbounds i8, i8* %21, i64 8
  %24 = bitcast i8* %23 to i32 (...)***
  store i32 (...)** bitcast (i8** getelementptr inbounds ({ [4 x i8*] }, { [4 x i8*] }* @_ZTVN4llvm2cl11OptionValueIbEE, i64 0, inrange i32 0, i64 2) to i32 (...)**), i32 (...)*** %24, align 8
  store i8 1, i8* %22, align 1
  %25 = getelementptr inbounds i8, i8* %21, i64 16
  store i8 0, i8* %25, align 8
  store i32 (...)** bitcast (i8** getelementptr inbounds ({ [12 x i8*] }, { [12 x i8*] }* @_ZTVN4llvm2cl3optIbLb0ENS0_6parserIbEEEE, i64 0, inrange i32 0, i64 2) to i32 (...)**), i32 (...)*** %6, align 8
  %26 = getelementptr inbounds %"class.llvm::cl::opt.40", %"class.llvm::cl::opt.40"* %0, i64 0, i32 3, i32 0, i32 0, i32 0
  store i32 (...)** bitcast (i8** getelementptr inbounds ({ [4 x i8*] }, { [4 x i8*] }* @_ZTVN4llvm2cl6parserIbEE, i64 0, inrange i32 0, i64 2) to i32 (...)**), i32 (...)*** %26, align 8
  tail call void @_ZN4llvm2cl5applyINS0_3optIbLb0ENS0_6parserIbEEEEA18_cJNS0_4descENS0_11initializerIbEEEEEvPT_RKT0_DpRKT1_(%"class.llvm::cl::opt.40"* %0, [18 x i8]* dereferenceable(18) %1, %"struct.llvm::cl::desc"* dereferenceable(16) %2, %"struct.llvm::cl::initializer.49"* dereferenceable(8) %3) #17
  tail call void @_ZN4llvm2cl6Option11addArgumentEv(%"class.llvm::cl::Option"* %5) #15
  ret void
}

; Function Attrs: nounwind optsize ssp uwtable
define linkonce_odr hidden void @_ZN4llvm2cl3optINS_14NaClFileFormatELb0ENS0_6parserIS2_EEEC2IJA15_cNS0_4descENS0_11ValuesClassENS0_11initializerIS2_EEEEEDpRKT_(%"class.llvm::cl::opt.80"*, [15 x i8]* dereferenceable(15), %"struct.llvm::cl::desc"* dereferenceable(16), %"class.llvm::cl::ValuesClass"* dereferenceable(184), %"struct.llvm::cl::initializer.94"* dereferenceable(8)) unnamed_addr #1 comdat align 2 {
  %6 = bitcast %"class.llvm::cl::opt.80"* %0 to %"class.llvm::cl::Option"*
  %7 = getelementptr inbounds %"class.llvm::cl::opt.80", %"class.llvm::cl::opt.80"* %0, i64 0, i32 0, i32 0
  %8 = getelementptr inbounds %"class.llvm::cl::opt.80", %"class.llvm::cl::opt.80"* %0, i64 0, i32 0, i32 1
  store i32 0, i32* %8, align 8
  %9 = getelementptr inbounds %"class.llvm::cl::opt.80", %"class.llvm::cl::opt.80"* %0, i64 0, i32 0, i32 2
  %10 = load i16, i16* %9, align 4
  %11 = and i16 %10, -4096
  store i16 %11, i16* %9, align 4
  %12 = getelementptr inbounds %"class.llvm::cl::opt.80", %"class.llvm::cl::opt.80"* %0, i64 0, i32 0, i32 4
  %13 = getelementptr inbounds %"class.llvm::cl::opt.80", %"class.llvm::cl::opt.80"* %0, i64 0, i32 0, i32 9
  %14 = bitcast i32* %12 to i8*
  tail call void @llvm.memset.p0i8.i64(i8* align 8 %14, i8 0, i64 56, i1 false) #14
  store %"class.llvm::cl::OptionCategory"* @_ZN4llvm2cl15GeneralCategoryE, %"class.llvm::cl::OptionCategory"** %13, align 8
  %15 = getelementptr inbounds %"class.llvm::cl::opt.80", %"class.llvm::cl::opt.80"* %0, i64 0, i32 0, i32 10, i32 1, i64 0
  %16 = getelementptr inbounds %"class.llvm::cl::opt.80", %"class.llvm::cl::opt.80"* %0, i64 0, i32 0, i32 10, i32 0, i32 0, i32 0
  store i8** %15, i8*** %16, align 8
  %17 = getelementptr inbounds %"class.llvm::cl::opt.80", %"class.llvm::cl::opt.80"* %0, i64 0, i32 0, i32 10, i32 0, i32 0, i32 1
  store i8** %15, i8*** %17, align 8
  %18 = getelementptr inbounds %"class.llvm::cl::opt.80", %"class.llvm::cl::opt.80"* %0, i64 0, i32 0, i32 10, i32 0, i32 0, i32 2
  store i32 4, i32* %18, align 8
  %19 = getelementptr inbounds %"class.llvm::cl::opt.80", %"class.llvm::cl::opt.80"* %0, i64 0, i32 0, i32 10, i32 0, i32 0, i32 3
  store i32 0, i32* %19, align 4
  %20 = getelementptr inbounds %"class.llvm::cl::opt.80", %"class.llvm::cl::opt.80"* %0, i64 0, i32 0, i32 10, i32 0, i32 0, i32 4
  store i32 0, i32* %20, align 8
  %21 = getelementptr inbounds %"class.llvm::cl::opt.80", %"class.llvm::cl::opt.80"* %0, i64 0, i32 0, i32 11
  store i8 0, i8* %21, align 8
  %22 = getelementptr inbounds %"class.llvm::cl::opt.80", %"class.llvm::cl::opt.80"* %0, i64 0, i32 2, i32 0
  store i32 0, i32* %22, align 8
  %23 = getelementptr inbounds %"class.llvm::cl::opt.80", %"class.llvm::cl::opt.80"* %0, i64 0, i32 2, i32 2, i32 0, i32 0, i32 2
  %24 = getelementptr inbounds %"class.llvm::cl::opt.80", %"class.llvm::cl::opt.80"* %0, i64 0, i32 2, i32 2, i32 0, i32 0, i32 0, i32 0
  store i32 (...)** bitcast (i8** getelementptr inbounds ({ [4 x i8*] }, { [4 x i8*] }* @_ZTVN4llvm2cl11OptionValueINS_14NaClFileFormatEEE, i64 0, inrange i32 0, i64 2) to i32 (...)**), i32 (...)*** %24, align 8
  store i8 1, i8* %23, align 4
  %25 = getelementptr inbounds %"class.llvm::cl::opt.80", %"class.llvm::cl::opt.80"* %0, i64 0, i32 2, i32 2, i32 0, i32 0, i32 1
  store i32 0, i32* %25, align 8
  store i32 (...)** bitcast (i8** getelementptr inbounds ({ [12 x i8*] }, { [12 x i8*] }* @_ZTVN4llvm2cl3optINS_14NaClFileFormatELb0ENS0_6parserIS2_EEEE, i64 0, inrange i32 0, i64 2) to i32 (...)**), i32 (...)*** %7, align 8
  %26 = getelementptr inbounds %"class.llvm::cl::opt.80", %"class.llvm::cl::opt.80"* %0, i64 0, i32 3, i32 0, i32 0
  %27 = getelementptr inbounds %"class.llvm::cl::opt.80", %"class.llvm::cl::opt.80"* %0, i64 0, i32 3, i32 0, i32 1
  %28 = bitcast %"class.llvm::cl::Option"** %27 to %"class.llvm::cl::opt.80"**
  store %"class.llvm::cl::opt.80"* %0, %"class.llvm::cl::opt.80"** %28, align 8
  store i32 (...)** bitcast (i8** getelementptr inbounds ({ [10 x i8*] }, { [10 x i8*] }* @_ZTVN4llvm2cl6parserINS_14NaClFileFormatEEE, i64 0, inrange i32 0, i64 2) to i32 (...)**), i32 (...)*** %26, align 8
  %29 = getelementptr inbounds %"class.llvm::cl::opt.80", %"class.llvm::cl::opt.80"* %0, i64 0, i32 3, i32 1, i32 0, i32 0, i32 0, i32 1, i32 0, i32 0, i64 0
  %30 = getelementptr inbounds %"class.llvm::cl::opt.80", %"class.llvm::cl::opt.80"* %0, i64 0, i32 3, i32 1, i32 0, i32 0, i32 0, i32 0, i32 0
  store i8* %29, i8** %30, align 8
  %31 = getelementptr inbounds %"class.llvm::cl::opt.80", %"class.llvm::cl::opt.80"* %0, i64 0, i32 3, i32 1, i32 0, i32 0, i32 0, i32 0, i32 1
  store i8* %29, i8** %31, align 8
  %32 = getelementptr inbounds %"class.llvm::cl::opt.80", %"class.llvm::cl::opt.80"* %0, i64 0, i32 3, i32 1, i32 0, i32 0, i32 0, i32 0, i32 2
  %33 = getelementptr inbounds %"class.llvm::cl::opt.80", %"class.llvm::cl::opt.80"* %0, i64 0, i32 3, i32 1, i32 0, i32 0, i32 0, i32 1, i32 0, i32 0, i64 384
  store i8* %33, i8** %32, align 8
  tail call void @_ZN4llvm2cl5applyINS0_3optINS_14NaClFileFormatELb0ENS0_6parserIS3_EEEEA15_cJNS0_4descENS0_11ValuesClassENS0_11initializerIS3_EEEEEvPT_RKT0_DpRKT1_(%"class.llvm::cl::opt.80"* %0, [15 x i8]* dereferenceable(15) %1, %"struct.llvm::cl::desc"* dereferenceable(16) %2, %"class.llvm::cl::ValuesClass"* dereferenceable(184) %3, %"struct.llvm::cl::initializer.94"* dereferenceable(8) %4) #17
  tail call void @_ZN4llvm2cl6Option11addArgumentEv(%"class.llvm::cl::Option"* %6) #15
  ret void
}

; Function Attrs: inlinehint nounwind optsize ssp uwtable
define linkonce_odr hidden void @_ZN4llvm2cl3optINS_14NaClFileFormatELb0ENS0_6parserIS2_EEED2Ev(%"class.llvm::cl::opt.80"*) unnamed_addr #2 comdat align 2 {
  %2 = getelementptr inbounds %"class.llvm::cl::opt.80", %"class.llvm::cl::opt.80"* %0, i64 0, i32 0, i32 0
  store i32 (...)** bitcast (i8** getelementptr inbounds ({ [12 x i8*] }, { [12 x i8*] }* @_ZTVN4llvm2cl3optINS_14NaClFileFormatELb0ENS0_6parserIS2_EEEE, i64 0, inrange i32 0, i64 2) to i32 (...)**), i32 (...)*** %2, align 8
  %3 = getelementptr inbounds %"class.llvm::cl::opt.80", %"class.llvm::cl::opt.80"* %0, i64 0, i32 3, i32 0, i32 0
  store i32 (...)** bitcast (i8** getelementptr inbounds ({ [10 x i8*] }, { [10 x i8*] }* @_ZTVN4llvm2cl6parserINS_14NaClFileFormatEEE, i64 0, inrange i32 0, i64 2) to i32 (...)**), i32 (...)*** %3, align 8
  %4 = getelementptr inbounds %"class.llvm::cl::opt.80", %"class.llvm::cl::opt.80"* %0, i64 0, i32 3, i32 1, i32 0, i32 0, i32 0, i32 0, i32 0
  %5 = load i8*, i8** %4, align 8
  %6 = getelementptr inbounds %"class.llvm::cl::opt.80", %"class.llvm::cl::opt.80"* %0, i64 0, i32 3, i32 1, i32 0, i32 0, i32 0, i32 1, i32 0, i32 0, i64 0
  %7 = icmp eq i8* %5, %6
  br i1 %7, label %9, label %8

8:                                                ; preds = %1
  tail call void @free(i8* %5) #15
  br label %9

9:                                                ; preds = %1, %8
  store i32 (...)** bitcast (i8** getelementptr inbounds ({ [12 x i8*] }, { [12 x i8*] }* @_ZTVN4llvm2cl6OptionE, i64 0, inrange i32 0, i64 2) to i32 (...)**), i32 (...)*** %2, align 8
  %10 = getelementptr inbounds %"class.llvm::cl::opt.80", %"class.llvm::cl::opt.80"* %0, i64 0, i32 0, i32 10, i32 0, i32 0, i32 1
  %11 = load i8**, i8*** %10, align 8
  %12 = getelementptr inbounds %"class.llvm::cl::opt.80", %"class.llvm::cl::opt.80"* %0, i64 0, i32 0, i32 10, i32 0, i32 0, i32 0
  %13 = load i8**, i8*** %12, align 8
  %14 = icmp eq i8** %11, %13
  br i1 %14, label %17, label %15

15:                                               ; preds = %9
  %16 = bitcast i8** %11 to i8*
  tail call void @free(i8* %16) #15
  br label %17

17:                                               ; preds = %9, %15
  ret void
}

; Function Attrs: nounwind optsize ssp uwtable
define linkonce_odr hidden void @_ZN4llvm2cl3optIbLb0ENS0_6parserIbEEEC2IJA19_cNS0_4descENS0_11initializerIbEEEEEDpRKT_(%"class.llvm::cl::opt.40"*, [19 x i8]* dereferenceable(19), %"struct.llvm::cl::desc"* dereferenceable(16), %"struct.llvm::cl::initializer.49"* dereferenceable(8)) unnamed_addr #1 comdat align 2 {
  %5 = bitcast %"class.llvm::cl::opt.40"* %0 to %"class.llvm::cl::Option"*
  %6 = getelementptr inbounds %"class.llvm::cl::opt.40", %"class.llvm::cl::opt.40"* %0, i64 0, i32 0, i32 0
  %7 = getelementptr inbounds %"class.llvm::cl::opt.40", %"class.llvm::cl::opt.40"* %0, i64 0, i32 0, i32 1
  store i32 0, i32* %7, align 8
  %8 = getelementptr inbounds %"class.llvm::cl::opt.40", %"class.llvm::cl::opt.40"* %0, i64 0, i32 0, i32 2
  %9 = load i16, i16* %8, align 4
  %10 = and i16 %9, -4096
  store i16 %10, i16* %8, align 4
  %11 = getelementptr inbounds %"class.llvm::cl::opt.40", %"class.llvm::cl::opt.40"* %0, i64 0, i32 0, i32 4
  %12 = getelementptr inbounds %"class.llvm::cl::opt.40", %"class.llvm::cl::opt.40"* %0, i64 0, i32 0, i32 9
  %13 = bitcast i32* %11 to i8*
  tail call void @llvm.memset.p0i8.i64(i8* align 8 %13, i8 0, i64 56, i1 false) #14
  store %"class.llvm::cl::OptionCategory"* @_ZN4llvm2cl15GeneralCategoryE, %"class.llvm::cl::OptionCategory"** %12, align 8
  %14 = getelementptr inbounds %"class.llvm::cl::opt.40", %"class.llvm::cl::opt.40"* %0, i64 0, i32 0, i32 10, i32 1, i64 0
  %15 = getelementptr inbounds %"class.llvm::cl::opt.40", %"class.llvm::cl::opt.40"* %0, i64 0, i32 0, i32 10, i32 0, i32 0, i32 0
  store i8** %14, i8*** %15, align 8
  %16 = getelementptr inbounds %"class.llvm::cl::opt.40", %"class.llvm::cl::opt.40"* %0, i64 0, i32 0, i32 10, i32 0, i32 0, i32 1
  store i8** %14, i8*** %16, align 8
  %17 = getelementptr inbounds %"class.llvm::cl::opt.40", %"class.llvm::cl::opt.40"* %0, i64 0, i32 0, i32 10, i32 0, i32 0, i32 2
  store i32 4, i32* %17, align 8
  %18 = getelementptr inbounds %"class.llvm::cl::opt.40", %"class.llvm::cl::opt.40"* %0, i64 0, i32 0, i32 10, i32 0, i32 0, i32 3
  store i32 0, i32* %18, align 4
  %19 = getelementptr inbounds %"class.llvm::cl::opt.40", %"class.llvm::cl::opt.40"* %0, i64 0, i32 0, i32 10, i32 0, i32 0, i32 4
  store i32 0, i32* %19, align 8
  %20 = getelementptr inbounds %"class.llvm::cl::opt.40", %"class.llvm::cl::opt.40"* %0, i64 0, i32 0, i32 11
  store i8 0, i8* %20, align 8
  %21 = getelementptr inbounds %"class.llvm::cl::opt.40", %"class.llvm::cl::opt.40"* %0, i64 0, i32 2, i32 0
  store i8 0, i8* %21, align 8
  %22 = getelementptr inbounds i8, i8* %21, i64 17
  %23 = getelementptr inbounds i8, i8* %21, i64 8
  %24 = bitcast i8* %23 to i32 (...)***
  store i32 (...)** bitcast (i8** getelementptr inbounds ({ [4 x i8*] }, { [4 x i8*] }* @_ZTVN4llvm2cl11OptionValueIbEE, i64 0, inrange i32 0, i64 2) to i32 (...)**), i32 (...)*** %24, align 8
  store i8 1, i8* %22, align 1
  %25 = getelementptr inbounds i8, i8* %21, i64 16
  store i8 0, i8* %25, align 8
  store i32 (...)** bitcast (i8** getelementptr inbounds ({ [12 x i8*] }, { [12 x i8*] }* @_ZTVN4llvm2cl3optIbLb0ENS0_6parserIbEEEE, i64 0, inrange i32 0, i64 2) to i32 (...)**), i32 (...)*** %6, align 8
  %26 = getelementptr inbounds %"class.llvm::cl::opt.40", %"class.llvm::cl::opt.40"* %0, i64 0, i32 3, i32 0, i32 0, i32 0
  store i32 (...)** bitcast (i8** getelementptr inbounds ({ [4 x i8*] }, { [4 x i8*] }* @_ZTVN4llvm2cl6parserIbEE, i64 0, inrange i32 0, i64 2) to i32 (...)**), i32 (...)*** %26, align 8
  tail call void @_ZN4llvm2cl5applyINS0_3optIbLb0ENS0_6parserIbEEEEA19_cJNS0_4descENS0_11initializerIbEEEEEvPT_RKT0_DpRKT1_(%"class.llvm::cl::opt.40"* %0, [19 x i8]* dereferenceable(19) %1, %"struct.llvm::cl::desc"* dereferenceable(16) %2, %"struct.llvm::cl::initializer.49"* dereferenceable(8) %3) #17
  tail call void @_ZN4llvm2cl6Option11addArgumentEv(%"class.llvm::cl::Option"* %5) #15
  ret void
}

; Function Attrs: nounwind optsize ssp uwtable
define linkonce_odr hidden void @_ZN4llvm2cl3optIbLb0ENS0_6parserIbEEEC2IJA26_cNS0_4descENS0_11initializerIbEEEEEDpRKT_(%"class.llvm::cl::opt.40"*, [26 x i8]* dereferenceable(26), %"struct.llvm::cl::desc"* dereferenceable(16), %"struct.llvm::cl::initializer.49"* dereferenceable(8)) unnamed_addr #1 comdat align 2 {
  %5 = bitcast %"class.llvm::cl::opt.40"* %0 to %"class.llvm::cl::Option"*
  %6 = getelementptr inbounds %"class.llvm::cl::opt.40", %"class.llvm::cl::opt.40"* %0, i64 0, i32 0, i32 0
  %7 = getelementptr inbounds %"class.llvm::cl::opt.40", %"class.llvm::cl::opt.40"* %0, i64 0, i32 0, i32 1
  store i32 0, i32* %7, align 8
  %8 = getelementptr inbounds %"class.llvm::cl::opt.40", %"class.llvm::cl::opt.40"* %0, i64 0, i32 0, i32 2
  %9 = load i16, i16* %8, align 4
  %10 = and i16 %9, -4096
  store i16 %10, i16* %8, align 4
  %11 = getelementptr inbounds %"class.llvm::cl::opt.40", %"class.llvm::cl::opt.40"* %0, i64 0, i32 0, i32 4
  %12 = getelementptr inbounds %"class.llvm::cl::opt.40", %"class.llvm::cl::opt.40"* %0, i64 0, i32 0, i32 9
  %13 = bitcast i32* %11 to i8*
  tail call void @llvm.memset.p0i8.i64(i8* align 8 %13, i8 0, i64 56, i1 false) #14
  store %"class.llvm::cl::OptionCategory"* @_ZN4llvm2cl15GeneralCategoryE, %"class.llvm::cl::OptionCategory"** %12, align 8
  %14 = getelementptr inbounds %"class.llvm::cl::opt.40", %"class.llvm::cl::opt.40"* %0, i64 0, i32 0, i32 10, i32 1, i64 0
  %15 = getelementptr inbounds %"class.llvm::cl::opt.40", %"class.llvm::cl::opt.40"* %0, i64 0, i32 0, i32 10, i32 0, i32 0, i32 0
  store i8** %14, i8*** %15, align 8
  %16 = getelementptr inbounds %"class.llvm::cl::opt.40", %"class.llvm::cl::opt.40"* %0, i64 0, i32 0, i32 10, i32 0, i32 0, i32 1
  store i8** %14, i8*** %16, align 8
  %17 = getelementptr inbounds %"class.llvm::cl::opt.40", %"class.llvm::cl::opt.40"* %0, i64 0, i32 0, i32 10, i32 0, i32 0, i32 2
  store i32 4, i32* %17, align 8
  %18 = getelementptr inbounds %"class.llvm::cl::opt.40", %"class.llvm::cl::opt.40"* %0, i64 0, i32 0, i32 10, i32 0, i32 0, i32 3
  store i32 0, i32* %18, align 4
  %19 = getelementptr inbounds %"class.llvm::cl::opt.40", %"class.llvm::cl::opt.40"* %0, i64 0, i32 0, i32 10, i32 0, i32 0, i32 4
  store i32 0, i32* %19, align 8
  %20 = getelementptr inbounds %"class.llvm::cl::opt.40", %"class.llvm::cl::opt.40"* %0, i64 0, i32 0, i32 11
  store i8 0, i8* %20, align 8
  %21 = getelementptr inbounds %"class.llvm::cl::opt.40", %"class.llvm::cl::opt.40"* %0, i64 0, i32 2, i32 0
  store i8 0, i8* %21, align 8
  %22 = getelementptr inbounds i8, i8* %21, i64 17
  %23 = getelementptr inbounds i8, i8* %21, i64 8
  %24 = bitcast i8* %23 to i32 (...)***
  store i32 (...)** bitcast (i8** getelementptr inbounds ({ [4 x i8*] }, { [4 x i8*] }* @_ZTVN4llvm2cl11OptionValueIbEE, i64 0, inrange i32 0, i64 2) to i32 (...)**), i32 (...)*** %24, align 8
  store i8 1, i8* %22, align 1
  %25 = getelementptr inbounds i8, i8* %21, i64 16
  store i8 0, i8* %25, align 8
  store i32 (...)** bitcast (i8** getelementptr inbounds ({ [12 x i8*] }, { [12 x i8*] }* @_ZTVN4llvm2cl3optIbLb0ENS0_6parserIbEEEE, i64 0, inrange i32 0, i64 2) to i32 (...)**), i32 (...)*** %6, align 8
  %26 = getelementptr inbounds %"class.llvm::cl::opt.40", %"class.llvm::cl::opt.40"* %0, i64 0, i32 3, i32 0, i32 0, i32 0
  store i32 (...)** bitcast (i8** getelementptr inbounds ({ [4 x i8*] }, { [4 x i8*] }* @_ZTVN4llvm2cl6parserIbEE, i64 0, inrange i32 0, i64 2) to i32 (...)**), i32 (...)*** %26, align 8
  tail call void @_ZN4llvm2cl5applyINS0_3optIbLb0ENS0_6parserIbEEEEA26_cJNS0_4descENS0_11initializerIbEEEEEvPT_RKT0_DpRKT1_(%"class.llvm::cl::opt.40"* %0, [26 x i8]* dereferenceable(26) %1, %"struct.llvm::cl::desc"* dereferenceable(16) %2, %"struct.llvm::cl::initializer.49"* dereferenceable(8) %3) #17
  tail call void @_ZN4llvm2cl6Option11addArgumentEv(%"class.llvm::cl::Option"* %5) #15
  ret void
}

; Function Attrs: nounwind optsize ssp uwtable
define linkonce_odr hidden void @_ZN4llvm2cl3optIjLb0ENS0_6parserIjEEEC2IJA15_cNS0_4descENS0_11initializerIiEEEEEDpRKT_(%"class.llvm::cl::opt.1"*, [15 x i8]* dereferenceable(15), %"struct.llvm::cl::desc"* dereferenceable(16), %"struct.llvm::cl::initializer.8"* dereferenceable(8)) unnamed_addr #1 comdat align 2 {
  %5 = bitcast %"class.llvm::cl::opt.1"* %0 to %"class.llvm::cl::Option"*
  %6 = getelementptr inbounds %"class.llvm::cl::opt.1", %"class.llvm::cl::opt.1"* %0, i64 0, i32 0, i32 0
  %7 = getelementptr inbounds %"class.llvm::cl::opt.1", %"class.llvm::cl::opt.1"* %0, i64 0, i32 0, i32 1
  store i32 0, i32* %7, align 8
  %8 = getelementptr inbounds %"class.llvm::cl::opt.1", %"class.llvm::cl::opt.1"* %0, i64 0, i32 0, i32 2
  %9 = load i16, i16* %8, align 4
  %10 = and i16 %9, -4096
  store i16 %10, i16* %8, align 4
  %11 = getelementptr inbounds %"class.llvm::cl::opt.1", %"class.llvm::cl::opt.1"* %0, i64 0, i32 0, i32 4
  %12 = getelementptr inbounds %"class.llvm::cl::opt.1", %"class.llvm::cl::opt.1"* %0, i64 0, i32 0, i32 9
  %13 = bitcast i32* %11 to i8*
  tail call void @llvm.memset.p0i8.i64(i8* align 8 %13, i8 0, i64 56, i1 false) #14
  store %"class.llvm::cl::OptionCategory"* @_ZN4llvm2cl15GeneralCategoryE, %"class.llvm::cl::OptionCategory"** %12, align 8
  %14 = getelementptr inbounds %"class.llvm::cl::opt.1", %"class.llvm::cl::opt.1"* %0, i64 0, i32 0, i32 10, i32 1, i64 0
  %15 = getelementptr inbounds %"class.llvm::cl::opt.1", %"class.llvm::cl::opt.1"* %0, i64 0, i32 0, i32 10, i32 0, i32 0, i32 0
  store i8** %14, i8*** %15, align 8
  %16 = getelementptr inbounds %"class.llvm::cl::opt.1", %"class.llvm::cl::opt.1"* %0, i64 0, i32 0, i32 10, i32 0, i32 0, i32 1
  store i8** %14, i8*** %16, align 8
  %17 = getelementptr inbounds %"class.llvm::cl::opt.1", %"class.llvm::cl::opt.1"* %0, i64 0, i32 0, i32 10, i32 0, i32 0, i32 2
  store i32 4, i32* %17, align 8
  %18 = getelementptr inbounds %"class.llvm::cl::opt.1", %"class.llvm::cl::opt.1"* %0, i64 0, i32 0, i32 10, i32 0, i32 0, i32 3
  store i32 0, i32* %18, align 4
  %19 = getelementptr inbounds %"class.llvm::cl::opt.1", %"class.llvm::cl::opt.1"* %0, i64 0, i32 0, i32 10, i32 0, i32 0, i32 4
  store i32 0, i32* %19, align 8
  %20 = getelementptr inbounds %"class.llvm::cl::opt.1", %"class.llvm::cl::opt.1"* %0, i64 0, i32 0, i32 11
  store i8 0, i8* %20, align 8
  %21 = getelementptr inbounds %"class.llvm::cl::opt.1", %"class.llvm::cl::opt.1"* %0, i64 0, i32 2, i32 0
  store i32 0, i32* %21, align 8
  %22 = getelementptr inbounds %"class.llvm::cl::opt.1", %"class.llvm::cl::opt.1"* %0, i64 0, i32 2, i32 2, i32 0, i32 0, i32 2
  %23 = getelementptr inbounds %"class.llvm::cl::opt.1", %"class.llvm::cl::opt.1"* %0, i64 0, i32 2, i32 2, i32 0, i32 0, i32 0, i32 0
  store i32 (...)** bitcast (i8** getelementptr inbounds ({ [4 x i8*] }, { [4 x i8*] }* @_ZTVN4llvm2cl11OptionValueIjEE, i64 0, inrange i32 0, i64 2) to i32 (...)**), i32 (...)*** %23, align 8
  store i8 1, i8* %22, align 4
  %24 = getelementptr inbounds %"class.llvm::cl::opt.1", %"class.llvm::cl::opt.1"* %0, i64 0, i32 2, i32 2, i32 0, i32 0, i32 1
  store i32 0, i32* %24, align 8
  store i32 (...)** bitcast (i8** getelementptr inbounds ({ [12 x i8*] }, { [12 x i8*] }* @_ZTVN4llvm2cl3optIjLb0ENS0_6parserIjEEEE, i64 0, inrange i32 0, i64 2) to i32 (...)**), i32 (...)*** %6, align 8
  %25 = getelementptr inbounds %"class.llvm::cl::opt.1", %"class.llvm::cl::opt.1"* %0, i64 0, i32 3, i32 0, i32 0, i32 0
  store i32 (...)** bitcast (i8** getelementptr inbounds ({ [4 x i8*] }, { [4 x i8*] }* @_ZTVN4llvm2cl6parserIjEE, i64 0, inrange i32 0, i64 2) to i32 (...)**), i32 (...)*** %25, align 8
  tail call void @_ZN4llvm2cl5applyINS0_3optIjLb0ENS0_6parserIjEEEEA15_cJNS0_4descENS0_11initializerIiEEEEEvPT_RKT0_DpRKT1_(%"class.llvm::cl::opt.1"* %0, [15 x i8]* dereferenceable(15) %1, %"struct.llvm::cl::desc"* dereferenceable(16) %2, %"struct.llvm::cl::initializer.8"* dereferenceable(8) %3) #17
  tail call void @_ZN4llvm2cl6Option11addArgumentEv(%"class.llvm::cl::Option"* %5) #15
  ret void
}

; Function Attrs: nounwind optsize ssp uwtable
define linkonce_odr hidden void @_ZN4llvm2cl3optIbLb0ENS0_6parserIbEEEC2IJA5_cNS0_4descENS0_11initializerIbEEEEEDpRKT_(%"class.llvm::cl::opt.40"*, [5 x i8]* dereferenceable(5), %"struct.llvm::cl::desc"* dereferenceable(16), %"struct.llvm::cl::initializer.49"* dereferenceable(8)) unnamed_addr #1 comdat align 2 {
  %5 = bitcast %"class.llvm::cl::opt.40"* %0 to %"class.llvm::cl::Option"*
  %6 = getelementptr inbounds %"class.llvm::cl::opt.40", %"class.llvm::cl::opt.40"* %0, i64 0, i32 0, i32 0
  %7 = getelementptr inbounds %"class.llvm::cl::opt.40", %"class.llvm::cl::opt.40"* %0, i64 0, i32 0, i32 1
  store i32 0, i32* %7, align 8
  %8 = getelementptr inbounds %"class.llvm::cl::opt.40", %"class.llvm::cl::opt.40"* %0, i64 0, i32 0, i32 2
  %9 = load i16, i16* %8, align 4
  %10 = and i16 %9, -4096
  store i16 %10, i16* %8, align 4
  %11 = getelementptr inbounds %"class.llvm::cl::opt.40", %"class.llvm::cl::opt.40"* %0, i64 0, i32 0, i32 4
  %12 = getelementptr inbounds %"class.llvm::cl::opt.40", %"class.llvm::cl::opt.40"* %0, i64 0, i32 0, i32 9
  %13 = bitcast i32* %11 to i8*
  tail call void @llvm.memset.p0i8.i64(i8* align 8 %13, i8 0, i64 56, i1 false) #14
  store %"class.llvm::cl::OptionCategory"* @_ZN4llvm2cl15GeneralCategoryE, %"class.llvm::cl::OptionCategory"** %12, align 8
  %14 = getelementptr inbounds %"class.llvm::cl::opt.40", %"class.llvm::cl::opt.40"* %0, i64 0, i32 0, i32 10, i32 1, i64 0
  %15 = getelementptr inbounds %"class.llvm::cl::opt.40", %"class.llvm::cl::opt.40"* %0, i64 0, i32 0, i32 10, i32 0, i32 0, i32 0
  store i8** %14, i8*** %15, align 8
  %16 = getelementptr inbounds %"class.llvm::cl::opt.40", %"class.llvm::cl::opt.40"* %0, i64 0, i32 0, i32 10, i32 0, i32 0, i32 1
  store i8** %14, i8*** %16, align 8
  %17 = getelementptr inbounds %"class.llvm::cl::opt.40", %"class.llvm::cl::opt.40"* %0, i64 0, i32 0, i32 10, i32 0, i32 0, i32 2
  store i32 4, i32* %17, align 8
  %18 = getelementptr inbounds %"class.llvm::cl::opt.40", %"class.llvm::cl::opt.40"* %0, i64 0, i32 0, i32 10, i32 0, i32 0, i32 3
  store i32 0, i32* %18, align 4
  %19 = getelementptr inbounds %"class.llvm::cl::opt.40", %"class.llvm::cl::opt.40"* %0, i64 0, i32 0, i32 10, i32 0, i32 0, i32 4
  store i32 0, i32* %19, align 8
  %20 = getelementptr inbounds %"class.llvm::cl::opt.40", %"class.llvm::cl::opt.40"* %0, i64 0, i32 0, i32 11
  store i8 0, i8* %20, align 8
  %21 = getelementptr inbounds %"class.llvm::cl::opt.40", %"class.llvm::cl::opt.40"* %0, i64 0, i32 2, i32 0
  store i8 0, i8* %21, align 8
  %22 = getelementptr inbounds i8, i8* %21, i64 17
  %23 = getelementptr inbounds i8, i8* %21, i64 8
  %24 = bitcast i8* %23 to i32 (...)***
  store i32 (...)** bitcast (i8** getelementptr inbounds ({ [4 x i8*] }, { [4 x i8*] }* @_ZTVN4llvm2cl11OptionValueIbEE, i64 0, inrange i32 0, i64 2) to i32 (...)**), i32 (...)*** %24, align 8
  store i8 1, i8* %22, align 1
  %25 = getelementptr inbounds i8, i8* %21, i64 16
  store i8 0, i8* %25, align 8
  store i32 (...)** bitcast (i8** getelementptr inbounds ({ [12 x i8*] }, { [12 x i8*] }* @_ZTVN4llvm2cl3optIbLb0ENS0_6parserIbEEEE, i64 0, inrange i32 0, i64 2) to i32 (...)**), i32 (...)*** %6, align 8
  %26 = getelementptr inbounds %"class.llvm::cl::opt.40", %"class.llvm::cl::opt.40"* %0, i64 0, i32 3, i32 0, i32 0, i32 0
  store i32 (...)** bitcast (i8** getelementptr inbounds ({ [4 x i8*] }, { [4 x i8*] }* @_ZTVN4llvm2cl6parserIbEE, i64 0, inrange i32 0, i64 2) to i32 (...)**), i32 (...)*** %26, align 8
  tail call void @_ZN4llvm2cl5applyINS0_3optIbLb0ENS0_6parserIbEEEEA5_cJNS0_4descENS0_11initializerIbEEEEEvPT_RKT0_DpRKT1_(%"class.llvm::cl::opt.40"* %0, [5 x i8]* dereferenceable(5) %1, %"struct.llvm::cl::desc"* dereferenceable(16) %2, %"struct.llvm::cl::initializer.49"* dereferenceable(8) %3) #17
  tail call void @_ZN4llvm2cl6Option11addArgumentEv(%"class.llvm::cl::Option"* %5) #15
  ret void
}

; Function Attrs: nounwind optsize ssp uwtable
define linkonce_odr hidden void @_ZN4llvm2cl3optINSt3__112basic_stringIcNS2_11char_traitsIcEENS2_9allocatorIcEEEELb0ENS0_6parserIS8_EEEC2IJA4_cNS0_4descENS0_11initializerIA2_cEENS0_10value_descEEEEDpRKT_(%"class.llvm::cl::opt"*, [4 x i8]* dereferenceable(4), %"struct.llvm::cl::desc"* dereferenceable(16), %"struct.llvm::cl::initializer"* dereferenceable(8), %"struct.llvm::cl::value_desc"* dereferenceable(16)) unnamed_addr #1 comdat align 2 {
  %6 = bitcast %"class.llvm::cl::opt"* %0 to %"class.llvm::cl::Option"*
  %7 = getelementptr inbounds %"class.llvm::cl::opt", %"class.llvm::cl::opt"* %0, i64 0, i32 0, i32 0
  %8 = getelementptr inbounds %"class.llvm::cl::opt", %"class.llvm::cl::opt"* %0, i64 0, i32 0, i32 1
  store i32 0, i32* %8, align 8
  %9 = getelementptr inbounds %"class.llvm::cl::opt", %"class.llvm::cl::opt"* %0, i64 0, i32 0, i32 2
  %10 = load i16, i16* %9, align 4
  %11 = and i16 %10, -4096
  store i16 %11, i16* %9, align 4
  %12 = getelementptr inbounds %"class.llvm::cl::opt", %"class.llvm::cl::opt"* %0, i64 0, i32 0, i32 4
  %13 = getelementptr inbounds %"class.llvm::cl::opt", %"class.llvm::cl::opt"* %0, i64 0, i32 0, i32 9
  %14 = bitcast i32* %12 to i8*
  tail call void @llvm.memset.p0i8.i64(i8* align 8 %14, i8 0, i64 56, i1 false) #14
  store %"class.llvm::cl::OptionCategory"* @_ZN4llvm2cl15GeneralCategoryE, %"class.llvm::cl::OptionCategory"** %13, align 8
  %15 = getelementptr inbounds %"class.llvm::cl::opt", %"class.llvm::cl::opt"* %0, i64 0, i32 0, i32 10, i32 1, i64 0
  %16 = getelementptr inbounds %"class.llvm::cl::opt", %"class.llvm::cl::opt"* %0, i64 0, i32 0, i32 10, i32 0, i32 0, i32 0
  store i8** %15, i8*** %16, align 8
  %17 = getelementptr inbounds %"class.llvm::cl::opt", %"class.llvm::cl::opt"* %0, i64 0, i32 0, i32 10, i32 0, i32 0, i32 1
  store i8** %15, i8*** %17, align 8
  %18 = getelementptr inbounds %"class.llvm::cl::opt", %"class.llvm::cl::opt"* %0, i64 0, i32 0, i32 10, i32 0, i32 0, i32 2
  store i32 4, i32* %18, align 8
  %19 = getelementptr inbounds %"class.llvm::cl::opt", %"class.llvm::cl::opt"* %0, i64 0, i32 0, i32 10, i32 0, i32 0, i32 3
  store i32 0, i32* %19, align 4
  %20 = getelementptr inbounds %"class.llvm::cl::opt", %"class.llvm::cl::opt"* %0, i64 0, i32 0, i32 10, i32 0, i32 0, i32 4
  store i32 0, i32* %20, align 8
  %21 = getelementptr inbounds %"class.llvm::cl::opt", %"class.llvm::cl::opt"* %0, i64 0, i32 0, i32 11
  store i8 0, i8* %21, align 8
  %22 = getelementptr inbounds %"class.llvm::cl::opt", %"class.llvm::cl::opt"* %0, i64 0, i32 1
  %23 = bitcast %"class.llvm::cl::opt_storage"* %22 to i8*
  tail call void @llvm.memset.p0i8.i64(i8* align 8 %23, i8 0, i64 24, i1 false) #14
  %24 = getelementptr inbounds %"class.llvm::cl::opt", %"class.llvm::cl::opt"* %0, i64 0, i32 1, i32 1, i32 0, i32 0, i32 0
  %25 = getelementptr inbounds %"class.llvm::cl::opt", %"class.llvm::cl::opt"* %0, i64 0, i32 1, i32 1, i32 0, i32 1
  %26 = bitcast %"class.std::__1::basic_string"* %25 to i8*
  tail call void @llvm.memset.p0i8.i64(i8* align 8 %26, i8 0, i64 25, i1 false) #14
  store i32 (...)** bitcast (i8** getelementptr inbounds ({ [4 x i8*] }, { [4 x i8*] }* @_ZTVN4llvm2cl11OptionValueINSt3__112basic_stringIcNS2_11char_traitsIcEENS2_9allocatorIcEEEEEE, i64 0, inrange i32 0, i64 2) to i32 (...)**), i32 (...)*** %24, align 8
  store i32 (...)** bitcast (i8** getelementptr inbounds ({ [12 x i8*] }, { [12 x i8*] }* @_ZTVN4llvm2cl3optINSt3__112basic_stringIcNS2_11char_traitsIcEENS2_9allocatorIcEEEELb0ENS0_6parserIS8_EEEE, i64 0, inrange i32 0, i64 2) to i32 (...)**), i32 (...)*** %7, align 8
  %27 = getelementptr inbounds %"class.llvm::cl::opt", %"class.llvm::cl::opt"* %0, i64 0, i32 2, i32 0, i32 0, i32 0
  store i32 (...)** bitcast (i8** getelementptr inbounds ({ [4 x i8*] }, { [4 x i8*] }* @_ZTVN4llvm2cl6parserINSt3__112basic_stringIcNS2_11char_traitsIcEENS2_9allocatorIcEEEEEE, i64 0, inrange i32 0, i64 2) to i32 (...)**), i32 (...)*** %27, align 8
  tail call void @_ZN4llvm2cl5applyINS0_3optINSt3__112basic_stringIcNS3_11char_traitsIcEENS3_9allocatorIcEEEELb0ENS0_6parserIS9_EEEEA4_cJNS0_4descENS0_11initializerIA2_cEENS0_10value_descEEEEvPT_RKT0_DpRKT1_(%"class.llvm::cl::opt"* %0, [4 x i8]* dereferenceable(4) %1, %"struct.llvm::cl::desc"* dereferenceable(16) %2, %"struct.llvm::cl::initializer"* dereferenceable(8) %3, %"struct.llvm::cl::value_desc"* dereferenceable(16) %4) #17
  tail call void @_ZN4llvm2cl6Option11addArgumentEv(%"class.llvm::cl::Option"* %6) #15
  ret void
}

; Function Attrs: nounwind optsize ssp uwtable
define linkonce_odr hidden void @_ZN4llvm2cl3optIiLb0ENS0_6parserIiEEEC2IJA25_cNS0_4descENS0_11initializerIiEEEEEDpRKT_(%"class.llvm::cl::opt.95"*, [25 x i8]* dereferenceable(25), %"struct.llvm::cl::desc"* dereferenceable(16), %"struct.llvm::cl::initializer.8"* dereferenceable(8)) unnamed_addr #1 comdat align 2 {
  %5 = bitcast %"class.llvm::cl::opt.95"* %0 to %"class.llvm::cl::Option"*
  %6 = getelementptr inbounds %"class.llvm::cl::opt.95", %"class.llvm::cl::opt.95"* %0, i64 0, i32 0, i32 0
  %7 = getelementptr inbounds %"class.llvm::cl::opt.95", %"class.llvm::cl::opt.95"* %0, i64 0, i32 0, i32 1
  store i32 0, i32* %7, align 8
  %8 = getelementptr inbounds %"class.llvm::cl::opt.95", %"class.llvm::cl::opt.95"* %0, i64 0, i32 0, i32 2
  %9 = load i16, i16* %8, align 4
  %10 = and i16 %9, -4096
  store i16 %10, i16* %8, align 4
  %11 = getelementptr inbounds %"class.llvm::cl::opt.95", %"class.llvm::cl::opt.95"* %0, i64 0, i32 0, i32 4
  %12 = getelementptr inbounds %"class.llvm::cl::opt.95", %"class.llvm::cl::opt.95"* %0, i64 0, i32 0, i32 9
  %13 = bitcast i32* %11 to i8*
  tail call void @llvm.memset.p0i8.i64(i8* align 8 %13, i8 0, i64 56, i1 false) #14
  store %"class.llvm::cl::OptionCategory"* @_ZN4llvm2cl15GeneralCategoryE, %"class.llvm::cl::OptionCategory"** %12, align 8
  %14 = getelementptr inbounds %"class.llvm::cl::opt.95", %"class.llvm::cl::opt.95"* %0, i64 0, i32 0, i32 10, i32 1, i64 0
  %15 = getelementptr inbounds %"class.llvm::cl::opt.95", %"class.llvm::cl::opt.95"* %0, i64 0, i32 0, i32 10, i32 0, i32 0, i32 0
  store i8** %14, i8*** %15, align 8
  %16 = getelementptr inbounds %"class.llvm::cl::opt.95", %"class.llvm::cl::opt.95"* %0, i64 0, i32 0, i32 10, i32 0, i32 0, i32 1
  store i8** %14, i8*** %16, align 8
  %17 = getelementptr inbounds %"class.llvm::cl::opt.95", %"class.llvm::cl::opt.95"* %0, i64 0, i32 0, i32 10, i32 0, i32 0, i32 2
  store i32 4, i32* %17, align 8
  %18 = getelementptr inbounds %"class.llvm::cl::opt.95", %"class.llvm::cl::opt.95"* %0, i64 0, i32 0, i32 10, i32 0, i32 0, i32 3
  store i32 0, i32* %18, align 4
  %19 = getelementptr inbounds %"class.llvm::cl::opt.95", %"class.llvm::cl::opt.95"* %0, i64 0, i32 0, i32 10, i32 0, i32 0, i32 4
  store i32 0, i32* %19, align 8
  %20 = getelementptr inbounds %"class.llvm::cl::opt.95", %"class.llvm::cl::opt.95"* %0, i64 0, i32 0, i32 11
  store i8 0, i8* %20, align 8
  %21 = getelementptr inbounds %"class.llvm::cl::opt.95", %"class.llvm::cl::opt.95"* %0, i64 0, i32 2, i32 0
  store i32 0, i32* %21, align 8
  %22 = getelementptr inbounds %"class.llvm::cl::opt.95", %"class.llvm::cl::opt.95"* %0, i64 0, i32 2, i32 2, i32 0, i32 0, i32 2
  %23 = getelementptr inbounds %"class.llvm::cl::opt.95", %"class.llvm::cl::opt.95"* %0, i64 0, i32 2, i32 2, i32 0, i32 0, i32 0, i32 0
  store i32 (...)** bitcast (i8** getelementptr inbounds ({ [4 x i8*] }, { [4 x i8*] }* @_ZTVN4llvm2cl11OptionValueIiEE, i64 0, inrange i32 0, i64 2) to i32 (...)**), i32 (...)*** %23, align 8
  store i8 1, i8* %22, align 4
  %24 = getelementptr inbounds %"class.llvm::cl::opt.95", %"class.llvm::cl::opt.95"* %0, i64 0, i32 2, i32 2, i32 0, i32 0, i32 1
  store i32 0, i32* %24, align 8
  store i32 (...)** bitcast (i8** getelementptr inbounds ({ [12 x i8*] }, { [12 x i8*] }* @_ZTVN4llvm2cl3optIiLb0ENS0_6parserIiEEEE, i64 0, inrange i32 0, i64 2) to i32 (...)**), i32 (...)*** %6, align 8
  %25 = getelementptr inbounds %"class.llvm::cl::opt.95", %"class.llvm::cl::opt.95"* %0, i64 0, i32 3, i32 0, i32 0, i32 0
  store i32 (...)** bitcast (i8** getelementptr inbounds ({ [4 x i8*] }, { [4 x i8*] }* @_ZTVN4llvm2cl6parserIiEE, i64 0, inrange i32 0, i64 2) to i32 (...)**), i32 (...)*** %25, align 8
  tail call void @_ZN4llvm2cl5applyINS0_3optIiLb0ENS0_6parserIiEEEEA25_cJNS0_4descENS0_11initializerIiEEEEEvPT_RKT0_DpRKT1_(%"class.llvm::cl::opt.95"* %0, [25 x i8]* dereferenceable(25) %1, %"struct.llvm::cl::desc"* dereferenceable(16) %2, %"struct.llvm::cl::initializer.8"* dereferenceable(8) %3) #17
  tail call void @_ZN4llvm2cl6Option11addArgumentEv(%"class.llvm::cl::Option"* %5) #15
  ret void
}

; Function Attrs: nounwind optsize ssp uwtable
define linkonce_odr hidden void @_ZN4llvm2cl3optIbLb0ENS0_6parserIbEEEC2IJA18_cNS0_4descEEEEDpRKT_(%"class.llvm::cl::opt.40"*, [18 x i8]* dereferenceable(18), %"struct.llvm::cl::desc"* dereferenceable(16)) unnamed_addr #1 comdat align 2 {
  %4 = bitcast %"class.llvm::cl::opt.40"* %0 to %"class.llvm::cl::Option"*
  %5 = getelementptr inbounds %"class.llvm::cl::opt.40", %"class.llvm::cl::opt.40"* %0, i64 0, i32 0, i32 0
  %6 = getelementptr inbounds %"class.llvm::cl::opt.40", %"class.llvm::cl::opt.40"* %0, i64 0, i32 0, i32 1
  store i32 0, i32* %6, align 8
  %7 = getelementptr inbounds %"class.llvm::cl::opt.40", %"class.llvm::cl::opt.40"* %0, i64 0, i32 0, i32 2
  %8 = load i16, i16* %7, align 4
  %9 = and i16 %8, -4096
  store i16 %9, i16* %7, align 4
  %10 = getelementptr inbounds %"class.llvm::cl::opt.40", %"class.llvm::cl::opt.40"* %0, i64 0, i32 0, i32 4
  %11 = getelementptr inbounds %"class.llvm::cl::opt.40", %"class.llvm::cl::opt.40"* %0, i64 0, i32 0, i32 9
  %12 = bitcast i32* %10 to i8*
  tail call void @llvm.memset.p0i8.i64(i8* align 8 %12, i8 0, i64 56, i1 false) #14
  store %"class.llvm::cl::OptionCategory"* @_ZN4llvm2cl15GeneralCategoryE, %"class.llvm::cl::OptionCategory"** %11, align 8
  %13 = getelementptr inbounds %"class.llvm::cl::opt.40", %"class.llvm::cl::opt.40"* %0, i64 0, i32 0, i32 10, i32 1, i64 0
  %14 = getelementptr inbounds %"class.llvm::cl::opt.40", %"class.llvm::cl::opt.40"* %0, i64 0, i32 0, i32 10, i32 0, i32 0, i32 0
  store i8** %13, i8*** %14, align 8
  %15 = getelementptr inbounds %"class.llvm::cl::opt.40", %"class.llvm::cl::opt.40"* %0, i64 0, i32 0, i32 10, i32 0, i32 0, i32 1
  store i8** %13, i8*** %15, align 8
  %16 = getelementptr inbounds %"class.llvm::cl::opt.40", %"class.llvm::cl::opt.40"* %0, i64 0, i32 0, i32 10, i32 0, i32 0, i32 2
  store i32 4, i32* %16, align 8
  %17 = getelementptr inbounds %"class.llvm::cl::opt.40", %"class.llvm::cl::opt.40"* %0, i64 0, i32 0, i32 10, i32 0, i32 0, i32 3
  store i32 0, i32* %17, align 4
  %18 = getelementptr inbounds %"class.llvm::cl::opt.40", %"class.llvm::cl::opt.40"* %0, i64 0, i32 0, i32 10, i32 0, i32 0, i32 4
  store i32 0, i32* %18, align 8
  %19 = getelementptr inbounds %"class.llvm::cl::opt.40", %"class.llvm::cl::opt.40"* %0, i64 0, i32 0, i32 11
  store i8 0, i8* %19, align 8
  %20 = getelementptr inbounds %"class.llvm::cl::opt.40", %"class.llvm::cl::opt.40"* %0, i64 0, i32 2, i32 0
  store i8 0, i8* %20, align 8
  %21 = getelementptr inbounds i8, i8* %20, i64 17
  %22 = getelementptr inbounds i8, i8* %20, i64 8
  %23 = bitcast i8* %22 to i32 (...)***
  store i32 (...)** bitcast (i8** getelementptr inbounds ({ [4 x i8*] }, { [4 x i8*] }* @_ZTVN4llvm2cl11OptionValueIbEE, i64 0, inrange i32 0, i64 2) to i32 (...)**), i32 (...)*** %23, align 8
  store i8 1, i8* %21, align 1
  %24 = getelementptr inbounds i8, i8* %20, i64 16
  store i8 0, i8* %24, align 8
  store i32 (...)** bitcast (i8** getelementptr inbounds ({ [12 x i8*] }, { [12 x i8*] }* @_ZTVN4llvm2cl3optIbLb0ENS0_6parserIbEEEE, i64 0, inrange i32 0, i64 2) to i32 (...)**), i32 (...)*** %5, align 8
  %25 = getelementptr inbounds %"class.llvm::cl::opt.40", %"class.llvm::cl::opt.40"* %0, i64 0, i32 3, i32 0, i32 0, i32 0
  store i32 (...)** bitcast (i8** getelementptr inbounds ({ [4 x i8*] }, { [4 x i8*] }* @_ZTVN4llvm2cl6parserIbEE, i64 0, inrange i32 0, i64 2) to i32 (...)**), i32 (...)*** %25, align 8
  tail call void @_ZN4llvm2cl5applyINS0_3optIbLb0ENS0_6parserIbEEEEA18_cJNS0_4descEEEEvPT_RKT0_DpRKT1_(%"class.llvm::cl::opt.40"* %0, [18 x i8]* dereferenceable(18) %1, %"struct.llvm::cl::desc"* dereferenceable(16) %2) #17
  tail call void @_ZN4llvm2cl6Option11addArgumentEv(%"class.llvm::cl::Option"* %4) #15
  ret void
}

; Function Attrs: nounwind optsize ssp uwtable
define linkonce_odr hidden void @_ZN4llvm2cl3optIN3Ice8FileTypeELb0ENS0_6parserIS3_EEEC2IJA9_cNS0_4descENS0_11initializerIS3_EENS0_11ValuesClassEEEEDpRKT_(%"class.llvm::cl::opt.104"*, [9 x i8]* dereferenceable(9), %"struct.llvm::cl::desc"* dereferenceable(16), %"struct.llvm::cl::initializer.118"* dereferenceable(8), %"class.llvm::cl::ValuesClass"* dereferenceable(184)) unnamed_addr #1 comdat align 2 {
  %6 = bitcast %"class.llvm::cl::opt.104"* %0 to %"class.llvm::cl::Option"*
  %7 = getelementptr inbounds %"class.llvm::cl::opt.104", %"class.llvm::cl::opt.104"* %0, i64 0, i32 0, i32 0
  %8 = getelementptr inbounds %"class.llvm::cl::opt.104", %"class.llvm::cl::opt.104"* %0, i64 0, i32 0, i32 1
  store i32 0, i32* %8, align 8
  %9 = getelementptr inbounds %"class.llvm::cl::opt.104", %"class.llvm::cl::opt.104"* %0, i64 0, i32 0, i32 2
  %10 = load i16, i16* %9, align 4
  %11 = and i16 %10, -4096
  store i16 %11, i16* %9, align 4
  %12 = getelementptr inbounds %"class.llvm::cl::opt.104", %"class.llvm::cl::opt.104"* %0, i64 0, i32 0, i32 4
  %13 = getelementptr inbounds %"class.llvm::cl::opt.104", %"class.llvm::cl::opt.104"* %0, i64 0, i32 0, i32 9
  %14 = bitcast i32* %12 to i8*
  tail call void @llvm.memset.p0i8.i64(i8* align 8 %14, i8 0, i64 56, i1 false) #14
  store %"class.llvm::cl::OptionCategory"* @_ZN4llvm2cl15GeneralCategoryE, %"class.llvm::cl::OptionCategory"** %13, align 8
  %15 = getelementptr inbounds %"class.llvm::cl::opt.104", %"class.llvm::cl::opt.104"* %0, i64 0, i32 0, i32 10, i32 1, i64 0
  %16 = getelementptr inbounds %"class.llvm::cl::opt.104", %"class.llvm::cl::opt.104"* %0, i64 0, i32 0, i32 10, i32 0, i32 0, i32 0
  store i8** %15, i8*** %16, align 8
  %17 = getelementptr inbounds %"class.llvm::cl::opt.104", %"class.llvm::cl::opt.104"* %0, i64 0, i32 0, i32 10, i32 0, i32 0, i32 1
  store i8** %15, i8*** %17, align 8
  %18 = getelementptr inbounds %"class.llvm::cl::opt.104", %"class.llvm::cl::opt.104"* %0, i64 0, i32 0, i32 10, i32 0, i32 0, i32 2
  store i32 4, i32* %18, align 8
  %19 = getelementptr inbounds %"class.llvm::cl::opt.104", %"class.llvm::cl::opt.104"* %0, i64 0, i32 0, i32 10, i32 0, i32 0, i32 3
  store i32 0, i32* %19, align 4
  %20 = getelementptr inbounds %"class.llvm::cl::opt.104", %"class.llvm::cl::opt.104"* %0, i64 0, i32 0, i32 10, i32 0, i32 0, i32 4
  store i32 0, i32* %20, align 8
  %21 = getelementptr inbounds %"class.llvm::cl::opt.104", %"class.llvm::cl::opt.104"* %0, i64 0, i32 0, i32 11
  store i8 0, i8* %21, align 8
  %22 = getelementptr inbounds %"class.llvm::cl::opt.104", %"class.llvm::cl::opt.104"* %0, i64 0, i32 2, i32 0
  store i32 0, i32* %22, align 8
  %23 = getelementptr inbounds %"class.llvm::cl::opt.104", %"class.llvm::cl::opt.104"* %0, i64 0, i32 2, i32 2, i32 0, i32 0, i32 2
  %24 = getelementptr inbounds %"class.llvm::cl::opt.104", %"class.llvm::cl::opt.104"* %0, i64 0, i32 2, i32 2, i32 0, i32 0, i32 0, i32 0
  store i32 (...)** bitcast (i8** getelementptr inbounds ({ [4 x i8*] }, { [4 x i8*] }* @_ZTVN4llvm2cl11OptionValueIN3Ice8FileTypeEEE, i64 0, inrange i32 0, i64 2) to i32 (...)**), i32 (...)*** %24, align 8
  store i8 1, i8* %23, align 4
  %25 = getelementptr inbounds %"class.llvm::cl::opt.104", %"class.llvm::cl::opt.104"* %0, i64 0, i32 2, i32 2, i32 0, i32 0, i32 1
  store i32 0, i32* %25, align 8
  store i32 (...)** bitcast (i8** getelementptr inbounds ({ [12 x i8*] }, { [12 x i8*] }* @_ZTVN4llvm2cl3optIN3Ice8FileTypeELb0ENS0_6parserIS3_EEEE, i64 0, inrange i32 0, i64 2) to i32 (...)**), i32 (...)*** %7, align 8
  %26 = getelementptr inbounds %"class.llvm::cl::opt.104", %"class.llvm::cl::opt.104"* %0, i64 0, i32 3, i32 0, i32 0
  %27 = getelementptr inbounds %"class.llvm::cl::opt.104", %"class.llvm::cl::opt.104"* %0, i64 0, i32 3, i32 0, i32 1
  %28 = bitcast %"class.llvm::cl::Option"** %27 to %"class.llvm::cl::opt.104"**
  store %"class.llvm::cl::opt.104"* %0, %"class.llvm::cl::opt.104"** %28, align 8
  store i32 (...)** bitcast (i8** getelementptr inbounds ({ [10 x i8*] }, { [10 x i8*] }* @_ZTVN4llvm2cl6parserIN3Ice8FileTypeEEE, i64 0, inrange i32 0, i64 2) to i32 (...)**), i32 (...)*** %26, align 8
  %29 = getelementptr inbounds %"class.llvm::cl::opt.104", %"class.llvm::cl::opt.104"* %0, i64 0, i32 3, i32 1, i32 0, i32 0, i32 0, i32 1, i32 0, i32 0, i64 0
  %30 = getelementptr inbounds %"class.llvm::cl::opt.104", %"class.llvm::cl::opt.104"* %0, i64 0, i32 3, i32 1, i32 0, i32 0, i32 0, i32 0, i32 0
  store i8* %29, i8** %30, align 8
  %31 = getelementptr inbounds %"class.llvm::cl::opt.104", %"class.llvm::cl::opt.104"* %0, i64 0, i32 3, i32 1, i32 0, i32 0, i32 0, i32 0, i32 1
  store i8* %29, i8** %31, align 8
  %32 = getelementptr inbounds %"class.llvm::cl::opt.104", %"class.llvm::cl::opt.104"* %0, i64 0, i32 3, i32 1, i32 0, i32 0, i32 0, i32 0, i32 2
  %33 = getelementptr inbounds %"class.llvm::cl::opt.104", %"class.llvm::cl::opt.104"* %0, i64 0, i32 3, i32 1, i32 0, i32 0, i32 0, i32 1, i32 0, i32 0, i64 384
  store i8* %33, i8** %32, align 8
  tail call void @_ZN4llvm2cl5applyINS0_3optIN3Ice8FileTypeELb0ENS0_6parserIS4_EEEEA9_cJNS0_4descENS0_11initializerIS4_EENS0_11ValuesClassEEEEvPT_RKT0_DpRKT1_(%"class.llvm::cl::opt.104"* %0, [9 x i8]* dereferenceable(9) %1, %"struct.llvm::cl::desc"* dereferenceable(16) %2, %"struct.llvm::cl::initializer.118"* dereferenceable(8) %3, %"class.llvm::cl::ValuesClass"* dereferenceable(184) %4) #17
  tail call void @_ZN4llvm2cl6Option11addArgumentEv(%"class.llvm::cl::Option"* %6) #15
  ret void
}

; Function Attrs: inlinehint nounwind optsize ssp uwtable
define linkonce_odr hidden void @_ZN4llvm2cl3optIN3Ice8FileTypeELb0ENS0_6parserIS3_EEED2Ev(%"class.llvm::cl::opt.104"*) unnamed_addr #2 comdat align 2 {
  %2 = getelementptr inbounds %"class.llvm::cl::opt.104", %"class.llvm::cl::opt.104"* %0, i64 0, i32 0, i32 0
  store i32 (...)** bitcast (i8** getelementptr inbounds ({ [12 x i8*] }, { [12 x i8*] }* @_ZTVN4llvm2cl3optIN3Ice8FileTypeELb0ENS0_6parserIS3_EEEE, i64 0, inrange i32 0, i64 2) to i32 (...)**), i32 (...)*** %2, align 8
  %3 = getelementptr inbounds %"class.llvm::cl::opt.104", %"class.llvm::cl::opt.104"* %0, i64 0, i32 3, i32 0, i32 0
  store i32 (...)** bitcast (i8** getelementptr inbounds ({ [10 x i8*] }, { [10 x i8*] }* @_ZTVN4llvm2cl6parserIN3Ice8FileTypeEEE, i64 0, inrange i32 0, i64 2) to i32 (...)**), i32 (...)*** %3, align 8
  %4 = getelementptr inbounds %"class.llvm::cl::opt.104", %"class.llvm::cl::opt.104"* %0, i64 0, i32 3, i32 1, i32 0, i32 0, i32 0, i32 0, i32 0
  %5 = load i8*, i8** %4, align 8
  %6 = getelementptr inbounds %"class.llvm::cl::opt.104", %"class.llvm::cl::opt.104"* %0, i64 0, i32 3, i32 1, i32 0, i32 0, i32 0, i32 1, i32 0, i32 0, i64 0
  %7 = icmp eq i8* %5, %6
  br i1 %7, label %9, label %8

8:                                                ; preds = %1
  tail call void @free(i8* %5) #15
  br label %9

9:                                                ; preds = %1, %8
  store i32 (...)** bitcast (i8** getelementptr inbounds ({ [12 x i8*] }, { [12 x i8*] }* @_ZTVN4llvm2cl6OptionE, i64 0, inrange i32 0, i64 2) to i32 (...)**), i32 (...)*** %2, align 8
  %10 = getelementptr inbounds %"class.llvm::cl::opt.104", %"class.llvm::cl::opt.104"* %0, i64 0, i32 0, i32 10, i32 0, i32 0, i32 1
  %11 = load i8**, i8*** %10, align 8
  %12 = getelementptr inbounds %"class.llvm::cl::opt.104", %"class.llvm::cl::opt.104"* %0, i64 0, i32 0, i32 10, i32 0, i32 0, i32 0
  %13 = load i8**, i8*** %12, align 8
  %14 = icmp eq i8** %11, %13
  br i1 %14, label %17, label %15

15:                                               ; preds = %9
  %16 = bitcast i8** %11 to i8*
  tail call void @free(i8* %16) #15
  br label %17

17:                                               ; preds = %9, %15
  ret void
}

; Function Attrs: nounwind optsize ssp uwtable
define linkonce_odr hidden void @_ZN4llvm2cl3optIN3Ice3ABIELb0ENS0_6parserIS3_EEEC2IJA4_cNS0_4descENS0_11initializerIS3_EENS0_11ValuesClassEEEEDpRKT_(%"class.llvm::cl::opt.119"*, [4 x i8]* dereferenceable(4), %"struct.llvm::cl::desc"* dereferenceable(16), %"struct.llvm::cl::initializer.133"* dereferenceable(8), %"class.llvm::cl::ValuesClass"* dereferenceable(184)) unnamed_addr #1 comdat align 2 {
  %6 = bitcast %"class.llvm::cl::opt.119"* %0 to %"class.llvm::cl::Option"*
  %7 = getelementptr inbounds %"class.llvm::cl::opt.119", %"class.llvm::cl::opt.119"* %0, i64 0, i32 0, i32 0
  %8 = getelementptr inbounds %"class.llvm::cl::opt.119", %"class.llvm::cl::opt.119"* %0, i64 0, i32 0, i32 1
  store i32 0, i32* %8, align 8
  %9 = getelementptr inbounds %"class.llvm::cl::opt.119", %"class.llvm::cl::opt.119"* %0, i64 0, i32 0, i32 2
  %10 = load i16, i16* %9, align 4
  %11 = and i16 %10, -4096
  store i16 %11, i16* %9, align 4
  %12 = getelementptr inbounds %"class.llvm::cl::opt.119", %"class.llvm::cl::opt.119"* %0, i64 0, i32 0, i32 4
  %13 = getelementptr inbounds %"class.llvm::cl::opt.119", %"class.llvm::cl::opt.119"* %0, i64 0, i32 0, i32 9
  %14 = bitcast i32* %12 to i8*
  tail call void @llvm.memset.p0i8.i64(i8* align 8 %14, i8 0, i64 56, i1 false) #14
  store %"class.llvm::cl::OptionCategory"* @_ZN4llvm2cl15GeneralCategoryE, %"class.llvm::cl::OptionCategory"** %13, align 8
  %15 = getelementptr inbounds %"class.llvm::cl::opt.119", %"class.llvm::cl::opt.119"* %0, i64 0, i32 0, i32 10, i32 1, i64 0
  %16 = getelementptr inbounds %"class.llvm::cl::opt.119", %"class.llvm::cl::opt.119"* %0, i64 0, i32 0, i32 10, i32 0, i32 0, i32 0
  store i8** %15, i8*** %16, align 8
  %17 = getelementptr inbounds %"class.llvm::cl::opt.119", %"class.llvm::cl::opt.119"* %0, i64 0, i32 0, i32 10, i32 0, i32 0, i32 1
  store i8** %15, i8*** %17, align 8
  %18 = getelementptr inbounds %"class.llvm::cl::opt.119", %"class.llvm::cl::opt.119"* %0, i64 0, i32 0, i32 10, i32 0, i32 0, i32 2
  store i32 4, i32* %18, align 8
  %19 = getelementptr inbounds %"class.llvm::cl::opt.119", %"class.llvm::cl::opt.119"* %0, i64 0, i32 0, i32 10, i32 0, i32 0, i32 3
  store i32 0, i32* %19, align 4
  %20 = getelementptr inbounds %"class.llvm::cl::opt.119", %"class.llvm::cl::opt.119"* %0, i64 0, i32 0, i32 10, i32 0, i32 0, i32 4
  store i32 0, i32* %20, align 8
  %21 = getelementptr inbounds %"class.llvm::cl::opt.119", %"class.llvm::cl::opt.119"* %0, i64 0, i32 0, i32 11
  store i8 0, i8* %21, align 8
  %22 = getelementptr inbounds %"class.llvm::cl::opt.119", %"class.llvm::cl::opt.119"* %0, i64 0, i32 2, i32 0
  store i32 0, i32* %22, align 8
  %23 = getelementptr inbounds %"class.llvm::cl::opt.119", %"class.llvm::cl::opt.119"* %0, i64 0, i32 2, i32 2, i32 0, i32 0, i32 2
  %24 = getelementptr inbounds %"class.llvm::cl::opt.119", %"class.llvm::cl::opt.119"* %0, i64 0, i32 2, i32 2, i32 0, i32 0, i32 0, i32 0
  store i32 (...)** bitcast (i8** getelementptr inbounds ({ [4 x i8*] }, { [4 x i8*] }* @_ZTVN4llvm2cl11OptionValueIN3Ice3ABIEEE, i64 0, inrange i32 0, i64 2) to i32 (...)**), i32 (...)*** %24, align 8
  store i8 1, i8* %23, align 4
  %25 = getelementptr inbounds %"class.llvm::cl::opt.119", %"class.llvm::cl::opt.119"* %0, i64 0, i32 2, i32 2, i32 0, i32 0, i32 1
  store i32 0, i32* %25, align 8
  store i32 (...)** bitcast (i8** getelementptr inbounds ({ [12 x i8*] }, { [12 x i8*] }* @_ZTVN4llvm2cl3optIN3Ice3ABIELb0ENS0_6parserIS3_EEEE, i64 0, inrange i32 0, i64 2) to i32 (...)**), i32 (...)*** %7, align 8
  %26 = getelementptr inbounds %"class.llvm::cl::opt.119", %"class.llvm::cl::opt.119"* %0, i64 0, i32 3, i32 0, i32 0
  %27 = getelementptr inbounds %"class.llvm::cl::opt.119", %"class.llvm::cl::opt.119"* %0, i64 0, i32 3, i32 0, i32 1
  %28 = bitcast %"class.llvm::cl::Option"** %27 to %"class.llvm::cl::opt.119"**
  store %"class.llvm::cl::opt.119"* %0, %"class.llvm::cl::opt.119"** %28, align 8
  store i32 (...)** bitcast (i8** getelementptr inbounds ({ [10 x i8*] }, { [10 x i8*] }* @_ZTVN4llvm2cl6parserIN3Ice3ABIEEE, i64 0, inrange i32 0, i64 2) to i32 (...)**), i32 (...)*** %26, align 8
  %29 = getelementptr inbounds %"class.llvm::cl::opt.119", %"class.llvm::cl::opt.119"* %0, i64 0, i32 3, i32 1, i32 0, i32 0, i32 0, i32 1, i32 0, i32 0, i64 0
  %30 = getelementptr inbounds %"class.llvm::cl::opt.119", %"class.llvm::cl::opt.119"* %0, i64 0, i32 3, i32 1, i32 0, i32 0, i32 0, i32 0, i32 0
  store i8* %29, i8** %30, align 8
  %31 = getelementptr inbounds %"class.llvm::cl::opt.119", %"class.llvm::cl::opt.119"* %0, i64 0, i32 3, i32 1, i32 0, i32 0, i32 0, i32 0, i32 1
  store i8* %29, i8** %31, align 8
  %32 = getelementptr inbounds %"class.llvm::cl::opt.119", %"class.llvm::cl::opt.119"* %0, i64 0, i32 3, i32 1, i32 0, i32 0, i32 0, i32 0, i32 2
  %33 = getelementptr inbounds %"class.llvm::cl::opt.119", %"class.llvm::cl::opt.119"* %0, i64 0, i32 3, i32 1, i32 0, i32 0, i32 0, i32 1, i32 0, i32 0, i64 384
  store i8* %33, i8** %32, align 8
  tail call void @_ZN4llvm2cl5applyINS0_3optIN3Ice3ABIELb0ENS0_6parserIS4_EEEEA4_cJNS0_4descENS0_11initializerIS4_EENS0_11ValuesClassEEEEvPT_RKT0_DpRKT1_(%"class.llvm::cl::opt.119"* %0, [4 x i8]* dereferenceable(4) %1, %"struct.llvm::cl::desc"* dereferenceable(16) %2, %"struct.llvm::cl::initializer.133"* dereferenceable(8) %3, %"class.llvm::cl::ValuesClass"* dereferenceable(184) %4) #17
  tail call void @_ZN4llvm2cl6Option11addArgumentEv(%"class.llvm::cl::Option"* %6) #15
  ret void
}

; Function Attrs: inlinehint nounwind optsize ssp uwtable
define linkonce_odr hidden void @_ZN4llvm2cl3optIN3Ice3ABIELb0ENS0_6parserIS3_EEED2Ev(%"class.llvm::cl::opt.119"*) unnamed_addr #2 comdat align 2 {
  %2 = getelementptr inbounds %"class.llvm::cl::opt.119", %"class.llvm::cl::opt.119"* %0, i64 0, i32 0, i32 0
  store i32 (...)** bitcast (i8** getelementptr inbounds ({ [12 x i8*] }, { [12 x i8*] }* @_ZTVN4llvm2cl3optIN3Ice3ABIELb0ENS0_6parserIS3_EEEE, i64 0, inrange i32 0, i64 2) to i32 (...)**), i32 (...)*** %2, align 8
  %3 = getelementptr inbounds %"class.llvm::cl::opt.119", %"class.llvm::cl::opt.119"* %0, i64 0, i32 3, i32 0, i32 0
  store i32 (...)** bitcast (i8** getelementptr inbounds ({ [10 x i8*] }, { [10 x i8*] }* @_ZTVN4llvm2cl6parserIN3Ice3ABIEEE, i64 0, inrange i32 0, i64 2) to i32 (...)**), i32 (...)*** %3, align 8
  %4 = getelementptr inbounds %"class.llvm::cl::opt.119", %"class.llvm::cl::opt.119"* %0, i64 0, i32 3, i32 1, i32 0, i32 0, i32 0, i32 0, i32 0
  %5 = load i8*, i8** %4, align 8
  %6 = getelementptr inbounds %"class.llvm::cl::opt.119", %"class.llvm::cl::opt.119"* %0, i64 0, i32 3, i32 1, i32 0, i32 0, i32 0, i32 1, i32 0, i32 0, i64 0
  %7 = icmp eq i8* %5, %6
  br i1 %7, label %9, label %8

8:                                                ; preds = %1
  tail call void @free(i8* %5) #15
  br label %9

9:                                                ; preds = %1, %8
  store i32 (...)** bitcast (i8** getelementptr inbounds ({ [12 x i8*] }, { [12 x i8*] }* @_ZTVN4llvm2cl6OptionE, i64 0, inrange i32 0, i64 2) to i32 (...)**), i32 (...)*** %2, align 8
  %10 = getelementptr inbounds %"class.llvm::cl::opt.119", %"class.llvm::cl::opt.119"* %0, i64 0, i32 0, i32 10, i32 0, i32 0, i32 1
  %11 = load i8**, i8*** %10, align 8
  %12 = getelementptr inbounds %"class.llvm::cl::opt.119", %"class.llvm::cl::opt.119"* %0, i64 0, i32 0, i32 10, i32 0, i32 0, i32 0
  %13 = load i8**, i8*** %12, align 8
  %14 = icmp eq i8** %11, %13
  br i1 %14, label %17, label %15

15:                                               ; preds = %9
  %16 = bitcast i8** %11 to i8*
  tail call void @free(i8* %16) #15
  br label %17

17:                                               ; preds = %9, %15
  ret void
}

; Function Attrs: nounwind optsize ssp uwtable
define linkonce_odr hidden void @_ZN4llvm2cl3optIbLb0ENS0_6parserIbEEEC2IJA17_cNS0_11initializerIbEENS0_4descEEEEDpRKT_(%"class.llvm::cl::opt.40"*, [17 x i8]* dereferenceable(17), %"struct.llvm::cl::initializer.49"* dereferenceable(8), %"struct.llvm::cl::desc"* dereferenceable(16)) unnamed_addr #1 comdat align 2 {
  %5 = bitcast %"class.llvm::cl::opt.40"* %0 to %"class.llvm::cl::Option"*
  %6 = getelementptr inbounds %"class.llvm::cl::opt.40", %"class.llvm::cl::opt.40"* %0, i64 0, i32 0, i32 0
  %7 = getelementptr inbounds %"class.llvm::cl::opt.40", %"class.llvm::cl::opt.40"* %0, i64 0, i32 0, i32 1
  store i32 0, i32* %7, align 8
  %8 = getelementptr inbounds %"class.llvm::cl::opt.40", %"class.llvm::cl::opt.40"* %0, i64 0, i32 0, i32 2
  %9 = load i16, i16* %8, align 4
  %10 = and i16 %9, -4096
  store i16 %10, i16* %8, align 4
  %11 = getelementptr inbounds %"class.llvm::cl::opt.40", %"class.llvm::cl::opt.40"* %0, i64 0, i32 0, i32 4
  %12 = getelementptr inbounds %"class.llvm::cl::opt.40", %"class.llvm::cl::opt.40"* %0, i64 0, i32 0, i32 9
  %13 = bitcast i32* %11 to i8*
  tail call void @llvm.memset.p0i8.i64(i8* align 8 %13, i8 0, i64 56, i1 false) #14
  store %"class.llvm::cl::OptionCategory"* @_ZN4llvm2cl15GeneralCategoryE, %"class.llvm::cl::OptionCategory"** %12, align 8
  %14 = getelementptr inbounds %"class.llvm::cl::opt.40", %"class.llvm::cl::opt.40"* %0, i64 0, i32 0, i32 10, i32 1, i64 0
  %15 = getelementptr inbounds %"class.llvm::cl::opt.40", %"class.llvm::cl::opt.40"* %0, i64 0, i32 0, i32 10, i32 0, i32 0, i32 0
  store i8** %14, i8*** %15, align 8
  %16 = getelementptr inbounds %"class.llvm::cl::opt.40", %"class.llvm::cl::opt.40"* %0, i64 0, i32 0, i32 10, i32 0, i32 0, i32 1
  store i8** %14, i8*** %16, align 8
  %17 = getelementptr inbounds %"class.llvm::cl::opt.40", %"class.llvm::cl::opt.40"* %0, i64 0, i32 0, i32 10, i32 0, i32 0, i32 2
  store i32 4, i32* %17, align 8
  %18 = getelementptr inbounds %"class.llvm::cl::opt.40", %"class.llvm::cl::opt.40"* %0, i64 0, i32 0, i32 10, i32 0, i32 0, i32 3
  store i32 0, i32* %18, align 4
  %19 = getelementptr inbounds %"class.llvm::cl::opt.40", %"class.llvm::cl::opt.40"* %0, i64 0, i32 0, i32 10, i32 0, i32 0, i32 4
  store i32 0, i32* %19, align 8
  %20 = getelementptr inbounds %"class.llvm::cl::opt.40", %"class.llvm::cl::opt.40"* %0, i64 0, i32 0, i32 11
  store i8 0, i8* %20, align 8
  %21 = getelementptr inbounds %"class.llvm::cl::opt.40", %"class.llvm::cl::opt.40"* %0, i64 0, i32 2, i32 0
  store i8 0, i8* %21, align 8
  %22 = getelementptr inbounds i8, i8* %21, i64 17
  %23 = getelementptr inbounds i8, i8* %21, i64 8
  %24 = bitcast i8* %23 to i32 (...)***
  store i32 (...)** bitcast (i8** getelementptr inbounds ({ [4 x i8*] }, { [4 x i8*] }* @_ZTVN4llvm2cl11OptionValueIbEE, i64 0, inrange i32 0, i64 2) to i32 (...)**), i32 (...)*** %24, align 8
  store i8 1, i8* %22, align 1
  %25 = getelementptr inbounds i8, i8* %21, i64 16
  store i8 0, i8* %25, align 8
  store i32 (...)** bitcast (i8** getelementptr inbounds ({ [12 x i8*] }, { [12 x i8*] }* @_ZTVN4llvm2cl3optIbLb0ENS0_6parserIbEEEE, i64 0, inrange i32 0, i64 2) to i32 (...)**), i32 (...)*** %6, align 8
  %26 = getelementptr inbounds %"class.llvm::cl::opt.40", %"class.llvm::cl::opt.40"* %0, i64 0, i32 3, i32 0, i32 0, i32 0
  store i32 (...)** bitcast (i8** getelementptr inbounds ({ [4 x i8*] }, { [4 x i8*] }* @_ZTVN4llvm2cl6parserIbEE, i64 0, inrange i32 0, i64 2) to i32 (...)**), i32 (...)*** %26, align 8
  tail call void @_ZN4llvm2cl5applyINS0_3optIbLb0ENS0_6parserIbEEEEA17_cJNS0_11initializerIbEENS0_4descEEEEvPT_RKT0_DpRKT1_(%"class.llvm::cl::opt.40"* %0, [17 x i8]* dereferenceable(17) %1, %"struct.llvm::cl::initializer.49"* dereferenceable(8) %2, %"struct.llvm::cl::desc"* dereferenceable(16) %3) #17
  tail call void @_ZN4llvm2cl6Option11addArgumentEv(%"class.llvm::cl::Option"* %5) #15
  ret void
}

; Function Attrs: nounwind optsize ssp uwtable
define linkonce_odr hidden void @_ZN4llvm2cl3optIbLb0ENS0_6parserIbEEEC2IJA12_cNS0_4descENS0_11initializerIbEEEEEDpRKT_(%"class.llvm::cl::opt.40"*, [12 x i8]* dereferenceable(12), %"struct.llvm::cl::desc"* dereferenceable(16), %"struct.llvm::cl::initializer.49"* dereferenceable(8)) unnamed_addr #1 comdat align 2 {
  %5 = bitcast %"class.llvm::cl::opt.40"* %0 to %"class.llvm::cl::Option"*
  %6 = getelementptr inbounds %"class.llvm::cl::opt.40", %"class.llvm::cl::opt.40"* %0, i64 0, i32 0, i32 0
  %7 = getelementptr inbounds %"class.llvm::cl::opt.40", %"class.llvm::cl::opt.40"* %0, i64 0, i32 0, i32 1
  store i32 0, i32* %7, align 8
  %8 = getelementptr inbounds %"class.llvm::cl::opt.40", %"class.llvm::cl::opt.40"* %0, i64 0, i32 0, i32 2
  %9 = load i16, i16* %8, align 4
  %10 = and i16 %9, -4096
  store i16 %10, i16* %8, align 4
  %11 = getelementptr inbounds %"class.llvm::cl::opt.40", %"class.llvm::cl::opt.40"* %0, i64 0, i32 0, i32 4
  %12 = getelementptr inbounds %"class.llvm::cl::opt.40", %"class.llvm::cl::opt.40"* %0, i64 0, i32 0, i32 9
  %13 = bitcast i32* %11 to i8*
  tail call void @llvm.memset.p0i8.i64(i8* align 8 %13, i8 0, i64 56, i1 false) #14
  store %"class.llvm::cl::OptionCategory"* @_ZN4llvm2cl15GeneralCategoryE, %"class.llvm::cl::OptionCategory"** %12, align 8
  %14 = getelementptr inbounds %"class.llvm::cl::opt.40", %"class.llvm::cl::opt.40"* %0, i64 0, i32 0, i32 10, i32 1, i64 0
  %15 = getelementptr inbounds %"class.llvm::cl::opt.40", %"class.llvm::cl::opt.40"* %0, i64 0, i32 0, i32 10, i32 0, i32 0, i32 0
  store i8** %14, i8*** %15, align 8
  %16 = getelementptr inbounds %"class.llvm::cl::opt.40", %"class.llvm::cl::opt.40"* %0, i64 0, i32 0, i32 10, i32 0, i32 0, i32 1
  store i8** %14, i8*** %16, align 8
  %17 = getelementptr inbounds %"class.llvm::cl::opt.40", %"class.llvm::cl::opt.40"* %0, i64 0, i32 0, i32 10, i32 0, i32 0, i32 2
  store i32 4, i32* %17, align 8
  %18 = getelementptr inbounds %"class.llvm::cl::opt.40", %"class.llvm::cl::opt.40"* %0, i64 0, i32 0, i32 10, i32 0, i32 0, i32 3
  store i32 0, i32* %18, align 4
  %19 = getelementptr inbounds %"class.llvm::cl::opt.40", %"class.llvm::cl::opt.40"* %0, i64 0, i32 0, i32 10, i32 0, i32 0, i32 4
  store i32 0, i32* %19, align 8
  %20 = getelementptr inbounds %"class.llvm::cl::opt.40", %"class.llvm::cl::opt.40"* %0, i64 0, i32 0, i32 11
  store i8 0, i8* %20, align 8
  %21 = getelementptr inbounds %"class.llvm::cl::opt.40", %"class.llvm::cl::opt.40"* %0, i64 0, i32 2, i32 0
  store i8 0, i8* %21, align 8
  %22 = getelementptr inbounds i8, i8* %21, i64 17
  %23 = getelementptr inbounds i8, i8* %21, i64 8
  %24 = bitcast i8* %23 to i32 (...)***
  store i32 (...)** bitcast (i8** getelementptr inbounds ({ [4 x i8*] }, { [4 x i8*] }* @_ZTVN4llvm2cl11OptionValueIbEE, i64 0, inrange i32 0, i64 2) to i32 (...)**), i32 (...)*** %24, align 8
  store i8 1, i8* %22, align 1
  %25 = getelementptr inbounds i8, i8* %21, i64 16
  store i8 0, i8* %25, align 8
  store i32 (...)** bitcast (i8** getelementptr inbounds ({ [12 x i8*] }, { [12 x i8*] }* @_ZTVN4llvm2cl3optIbLb0ENS0_6parserIbEEEE, i64 0, inrange i32 0, i64 2) to i32 (...)**), i32 (...)*** %6, align 8
  %26 = getelementptr inbounds %"class.llvm::cl::opt.40", %"class.llvm::cl::opt.40"* %0, i64 0, i32 3, i32 0, i32 0, i32 0
  store i32 (...)** bitcast (i8** getelementptr inbounds ({ [4 x i8*] }, { [4 x i8*] }* @_ZTVN4llvm2cl6parserIbEE, i64 0, inrange i32 0, i64 2) to i32 (...)**), i32 (...)*** %26, align 8
  tail call void @_ZN4llvm2cl5applyINS0_3optIbLb0ENS0_6parserIbEEEEA12_cJNS0_4descENS0_11initializerIbEEEEEvPT_RKT0_DpRKT1_(%"class.llvm::cl::opt.40"* %0, [12 x i8]* dereferenceable(12) %1, %"struct.llvm::cl::desc"* dereferenceable(16) %2, %"struct.llvm::cl::initializer.49"* dereferenceable(8) %3) #17
  tail call void @_ZN4llvm2cl6Option11addArgumentEv(%"class.llvm::cl::Option"* %5) #15
  ret void
}

; Function Attrs: nounwind optsize ssp uwtable
define linkonce_odr hidden void @_ZN4llvm2cl3optIbLb0ENS0_6parserIbEEEC2IJA7_cNS0_4descEEEEDpRKT_(%"class.llvm::cl::opt.40"*, [7 x i8]* dereferenceable(7), %"struct.llvm::cl::desc"* dereferenceable(16)) unnamed_addr #1 comdat align 2 {
  %4 = bitcast %"class.llvm::cl::opt.40"* %0 to %"class.llvm::cl::Option"*
  %5 = getelementptr inbounds %"class.llvm::cl::opt.40", %"class.llvm::cl::opt.40"* %0, i64 0, i32 0, i32 0
  %6 = getelementptr inbounds %"class.llvm::cl::opt.40", %"class.llvm::cl::opt.40"* %0, i64 0, i32 0, i32 1
  store i32 0, i32* %6, align 8
  %7 = getelementptr inbounds %"class.llvm::cl::opt.40", %"class.llvm::cl::opt.40"* %0, i64 0, i32 0, i32 2
  %8 = load i16, i16* %7, align 4
  %9 = and i16 %8, -4096
  store i16 %9, i16* %7, align 4
  %10 = getelementptr inbounds %"class.llvm::cl::opt.40", %"class.llvm::cl::opt.40"* %0, i64 0, i32 0, i32 4
  %11 = getelementptr inbounds %"class.llvm::cl::opt.40", %"class.llvm::cl::opt.40"* %0, i64 0, i32 0, i32 9
  %12 = bitcast i32* %10 to i8*
  tail call void @llvm.memset.p0i8.i64(i8* align 8 %12, i8 0, i64 56, i1 false) #14
  store %"class.llvm::cl::OptionCategory"* @_ZN4llvm2cl15GeneralCategoryE, %"class.llvm::cl::OptionCategory"** %11, align 8
  %13 = getelementptr inbounds %"class.llvm::cl::opt.40", %"class.llvm::cl::opt.40"* %0, i64 0, i32 0, i32 10, i32 1, i64 0
  %14 = getelementptr inbounds %"class.llvm::cl::opt.40", %"class.llvm::cl::opt.40"* %0, i64 0, i32 0, i32 10, i32 0, i32 0, i32 0
  store i8** %13, i8*** %14, align 8
  %15 = getelementptr inbounds %"class.llvm::cl::opt.40", %"class.llvm::cl::opt.40"* %0, i64 0, i32 0, i32 10, i32 0, i32 0, i32 1
  store i8** %13, i8*** %15, align 8
  %16 = getelementptr inbounds %"class.llvm::cl::opt.40", %"class.llvm::cl::opt.40"* %0, i64 0, i32 0, i32 10, i32 0, i32 0, i32 2
  store i32 4, i32* %16, align 8
  %17 = getelementptr inbounds %"class.llvm::cl::opt.40", %"class.llvm::cl::opt.40"* %0, i64 0, i32 0, i32 10, i32 0, i32 0, i32 3
  store i32 0, i32* %17, align 4
  %18 = getelementptr inbounds %"class.llvm::cl::opt.40", %"class.llvm::cl::opt.40"* %0, i64 0, i32 0, i32 10, i32 0, i32 0, i32 4
  store i32 0, i32* %18, align 8
  %19 = getelementptr inbounds %"class.llvm::cl::opt.40", %"class.llvm::cl::opt.40"* %0, i64 0, i32 0, i32 11
  store i8 0, i8* %19, align 8
  %20 = getelementptr inbounds %"class.llvm::cl::opt.40", %"class.llvm::cl::opt.40"* %0, i64 0, i32 2, i32 0
  store i8 0, i8* %20, align 8
  %21 = getelementptr inbounds i8, i8* %20, i64 17
  %22 = getelementptr inbounds i8, i8* %20, i64 8
  %23 = bitcast i8* %22 to i32 (...)***
  store i32 (...)** bitcast (i8** getelementptr inbounds ({ [4 x i8*] }, { [4 x i8*] }* @_ZTVN4llvm2cl11OptionValueIbEE, i64 0, inrange i32 0, i64 2) to i32 (...)**), i32 (...)*** %23, align 8
  store i8 1, i8* %21, align 1
  %24 = getelementptr inbounds i8, i8* %20, i64 16
  store i8 0, i8* %24, align 8
  store i32 (...)** bitcast (i8** getelementptr inbounds ({ [12 x i8*] }, { [12 x i8*] }* @_ZTVN4llvm2cl3optIbLb0ENS0_6parserIbEEEE, i64 0, inrange i32 0, i64 2) to i32 (...)**), i32 (...)*** %5, align 8
  %25 = getelementptr inbounds %"class.llvm::cl::opt.40", %"class.llvm::cl::opt.40"* %0, i64 0, i32 3, i32 0, i32 0, i32 0
  store i32 (...)** bitcast (i8** getelementptr inbounds ({ [4 x i8*] }, { [4 x i8*] }* @_ZTVN4llvm2cl6parserIbEE, i64 0, inrange i32 0, i64 2) to i32 (...)**), i32 (...)*** %25, align 8
  tail call void @_ZN4llvm2cl5applyINS0_3optIbLb0ENS0_6parserIbEEEEA7_cJNS0_4descEEEEvPT_RKT0_DpRKT1_(%"class.llvm::cl::opt.40"* %0, [7 x i8]* dereferenceable(7) %1, %"struct.llvm::cl::desc"* dereferenceable(16) %2) #17
  tail call void @_ZN4llvm2cl6Option11addArgumentEv(%"class.llvm::cl::Option"* %4) #15
  ret void
}

; Function Attrs: nounwind optsize ssp uwtable
define linkonce_odr hidden void @_ZN4llvm2cl3optIN3Ice20TargetInstructionSetELb0ENS0_6parserIS3_EEEC2IJA6_cNS0_4descENS0_11initializerIS3_EENS0_11ValuesClassEEEEDpRKT_(%"class.llvm::cl::opt.134"*, [6 x i8]* dereferenceable(6), %"struct.llvm::cl::desc"* dereferenceable(16), %"struct.llvm::cl::initializer.148"* dereferenceable(8), %"class.llvm::cl::ValuesClass"* dereferenceable(184)) unnamed_addr #1 comdat align 2 {
  %6 = bitcast %"class.llvm::cl::opt.134"* %0 to %"class.llvm::cl::Option"*
  %7 = getelementptr inbounds %"class.llvm::cl::opt.134", %"class.llvm::cl::opt.134"* %0, i64 0, i32 0, i32 0
  %8 = getelementptr inbounds %"class.llvm::cl::opt.134", %"class.llvm::cl::opt.134"* %0, i64 0, i32 0, i32 1
  store i32 0, i32* %8, align 8
  %9 = getelementptr inbounds %"class.llvm::cl::opt.134", %"class.llvm::cl::opt.134"* %0, i64 0, i32 0, i32 2
  %10 = load i16, i16* %9, align 4
  %11 = and i16 %10, -4096
  store i16 %11, i16* %9, align 4
  %12 = getelementptr inbounds %"class.llvm::cl::opt.134", %"class.llvm::cl::opt.134"* %0, i64 0, i32 0, i32 4
  %13 = getelementptr inbounds %"class.llvm::cl::opt.134", %"class.llvm::cl::opt.134"* %0, i64 0, i32 0, i32 9
  %14 = bitcast i32* %12 to i8*
  tail call void @llvm.memset.p0i8.i64(i8* align 8 %14, i8 0, i64 56, i1 false) #14
  store %"class.llvm::cl::OptionCategory"* @_ZN4llvm2cl15GeneralCategoryE, %"class.llvm::cl::OptionCategory"** %13, align 8
  %15 = getelementptr inbounds %"class.llvm::cl::opt.134", %"class.llvm::cl::opt.134"* %0, i64 0, i32 0, i32 10, i32 1, i64 0
  %16 = getelementptr inbounds %"class.llvm::cl::opt.134", %"class.llvm::cl::opt.134"* %0, i64 0, i32 0, i32 10, i32 0, i32 0, i32 0
  store i8** %15, i8*** %16, align 8
  %17 = getelementptr inbounds %"class.llvm::cl::opt.134", %"class.llvm::cl::opt.134"* %0, i64 0, i32 0, i32 10, i32 0, i32 0, i32 1
  store i8** %15, i8*** %17, align 8
  %18 = getelementptr inbounds %"class.llvm::cl::opt.134", %"class.llvm::cl::opt.134"* %0, i64 0, i32 0, i32 10, i32 0, i32 0, i32 2
  store i32 4, i32* %18, align 8
  %19 = getelementptr inbounds %"class.llvm::cl::opt.134", %"class.llvm::cl::opt.134"* %0, i64 0, i32 0, i32 10, i32 0, i32 0, i32 3
  store i32 0, i32* %19, align 4
  %20 = getelementptr inbounds %"class.llvm::cl::opt.134", %"class.llvm::cl::opt.134"* %0, i64 0, i32 0, i32 10, i32 0, i32 0, i32 4
  store i32 0, i32* %20, align 8
  %21 = getelementptr inbounds %"class.llvm::cl::opt.134", %"class.llvm::cl::opt.134"* %0, i64 0, i32 0, i32 11
  store i8 0, i8* %21, align 8
  %22 = getelementptr inbounds %"class.llvm::cl::opt.134", %"class.llvm::cl::opt.134"* %0, i64 0, i32 2, i32 0
  store i32 0, i32* %22, align 8
  %23 = getelementptr inbounds %"class.llvm::cl::opt.134", %"class.llvm::cl::opt.134"* %0, i64 0, i32 2, i32 2, i32 0, i32 0, i32 2
  %24 = getelementptr inbounds %"class.llvm::cl::opt.134", %"class.llvm::cl::opt.134"* %0, i64 0, i32 2, i32 2, i32 0, i32 0, i32 0, i32 0
  store i32 (...)** bitcast (i8** getelementptr inbounds ({ [4 x i8*] }, { [4 x i8*] }* @_ZTVN4llvm2cl11OptionValueIN3Ice20TargetInstructionSetEEE, i64 0, inrange i32 0, i64 2) to i32 (...)**), i32 (...)*** %24, align 8
  store i8 1, i8* %23, align 4
  %25 = getelementptr inbounds %"class.llvm::cl::opt.134", %"class.llvm::cl::opt.134"* %0, i64 0, i32 2, i32 2, i32 0, i32 0, i32 1
  store i32 0, i32* %25, align 8
  store i32 (...)** bitcast (i8** getelementptr inbounds ({ [12 x i8*] }, { [12 x i8*] }* @_ZTVN4llvm2cl3optIN3Ice20TargetInstructionSetELb0ENS0_6parserIS3_EEEE, i64 0, inrange i32 0, i64 2) to i32 (...)**), i32 (...)*** %7, align 8
  %26 = getelementptr inbounds %"class.llvm::cl::opt.134", %"class.llvm::cl::opt.134"* %0, i64 0, i32 3, i32 0, i32 0
  %27 = getelementptr inbounds %"class.llvm::cl::opt.134", %"class.llvm::cl::opt.134"* %0, i64 0, i32 3, i32 0, i32 1
  %28 = bitcast %"class.llvm::cl::Option"** %27 to %"class.llvm::cl::opt.134"**
  store %"class.llvm::cl::opt.134"* %0, %"class.llvm::cl::opt.134"** %28, align 8
  store i32 (...)** bitcast (i8** getelementptr inbounds ({ [10 x i8*] }, { [10 x i8*] }* @_ZTVN4llvm2cl6parserIN3Ice20TargetInstructionSetEEE, i64 0, inrange i32 0, i64 2) to i32 (...)**), i32 (...)*** %26, align 8
  %29 = getelementptr inbounds %"class.llvm::cl::opt.134", %"class.llvm::cl::opt.134"* %0, i64 0, i32 3, i32 1, i32 0, i32 0, i32 0, i32 1, i32 0, i32 0, i64 0
  %30 = getelementptr inbounds %"class.llvm::cl::opt.134", %"class.llvm::cl::opt.134"* %0, i64 0, i32 3, i32 1, i32 0, i32 0, i32 0, i32 0, i32 0
  store i8* %29, i8** %30, align 8
  %31 = getelementptr inbounds %"class.llvm::cl::opt.134", %"class.llvm::cl::opt.134"* %0, i64 0, i32 3, i32 1, i32 0, i32 0, i32 0, i32 0, i32 1
  store i8* %29, i8** %31, align 8
  %32 = getelementptr inbounds %"class.llvm::cl::opt.134", %"class.llvm::cl::opt.134"* %0, i64 0, i32 3, i32 1, i32 0, i32 0, i32 0, i32 0, i32 2
  %33 = getelementptr inbounds %"class.llvm::cl::opt.134", %"class.llvm::cl::opt.134"* %0, i64 0, i32 3, i32 1, i32 0, i32 0, i32 0, i32 1, i32 0, i32 0, i64 384
  store i8* %33, i8** %32, align 8
  tail call void @_ZN4llvm2cl5applyINS0_3optIN3Ice20TargetInstructionSetELb0ENS0_6parserIS4_EEEEA6_cJNS0_4descENS0_11initializerIS4_EENS0_11ValuesClassEEEEvPT_RKT0_DpRKT1_(%"class.llvm::cl::opt.134"* %0, [6 x i8]* dereferenceable(6) %1, %"struct.llvm::cl::desc"* dereferenceable(16) %2, %"struct.llvm::cl::initializer.148"* dereferenceable(8) %3, %"class.llvm::cl::ValuesClass"* dereferenceable(184) %4) #17
  tail call void @_ZN4llvm2cl6Option11addArgumentEv(%"class.llvm::cl::Option"* %6) #15
  ret void
}

; Function Attrs: inlinehint nounwind optsize ssp uwtable
define linkonce_odr hidden void @_ZN4llvm2cl3optIN3Ice20TargetInstructionSetELb0ENS0_6parserIS3_EEED2Ev(%"class.llvm::cl::opt.134"*) unnamed_addr #2 comdat align 2 {
  %2 = getelementptr inbounds %"class.llvm::cl::opt.134", %"class.llvm::cl::opt.134"* %0, i64 0, i32 0, i32 0
  store i32 (...)** bitcast (i8** getelementptr inbounds ({ [12 x i8*] }, { [12 x i8*] }* @_ZTVN4llvm2cl3optIN3Ice20TargetInstructionSetELb0ENS0_6parserIS3_EEEE, i64 0, inrange i32 0, i64 2) to i32 (...)**), i32 (...)*** %2, align 8
  %3 = getelementptr inbounds %"class.llvm::cl::opt.134", %"class.llvm::cl::opt.134"* %0, i64 0, i32 3, i32 0, i32 0
  store i32 (...)** bitcast (i8** getelementptr inbounds ({ [10 x i8*] }, { [10 x i8*] }* @_ZTVN4llvm2cl6parserIN3Ice20TargetInstructionSetEEE, i64 0, inrange i32 0, i64 2) to i32 (...)**), i32 (...)*** %3, align 8
  %4 = getelementptr inbounds %"class.llvm::cl::opt.134", %"class.llvm::cl::opt.134"* %0, i64 0, i32 3, i32 1, i32 0, i32 0, i32 0, i32 0, i32 0
  %5 = load i8*, i8** %4, align 8
  %6 = getelementptr inbounds %"class.llvm::cl::opt.134", %"class.llvm::cl::opt.134"* %0, i64 0, i32 3, i32 1, i32 0, i32 0, i32 0, i32 1, i32 0, i32 0, i64 0
  %7 = icmp eq i8* %5, %6
  br i1 %7, label %9, label %8

8:                                                ; preds = %1
  tail call void @free(i8* %5) #15
  br label %9

9:                                                ; preds = %1, %8
  store i32 (...)** bitcast (i8** getelementptr inbounds ({ [12 x i8*] }, { [12 x i8*] }* @_ZTVN4llvm2cl6OptionE, i64 0, inrange i32 0, i64 2) to i32 (...)**), i32 (...)*** %2, align 8
  %10 = getelementptr inbounds %"class.llvm::cl::opt.134", %"class.llvm::cl::opt.134"* %0, i64 0, i32 0, i32 10, i32 0, i32 0, i32 1
  %11 = load i8**, i8*** %10, align 8
  %12 = getelementptr inbounds %"class.llvm::cl::opt.134", %"class.llvm::cl::opt.134"* %0, i64 0, i32 0, i32 10, i32 0, i32 0, i32 0
  %13 = load i8**, i8*** %12, align 8
  %14 = icmp eq i8** %11, %13
  br i1 %14, label %17, label %15

15:                                               ; preds = %9
  %16 = bitcast i8** %11 to i8*
  tail call void @free(i8* %16) #15
  br label %17

17:                                               ; preds = %9, %15
  ret void
}

; Function Attrs: nounwind optsize ssp uwtable
define linkonce_odr hidden void @_ZN4llvm2cl3optINSt3__112basic_stringIcNS2_11char_traitsIcEENS2_9allocatorIcEEEELb0ENS0_6parserIS8_EEEC2IJA7_cNS0_4descENS0_11initializerIA1_cEENS0_10value_descEEEEDpRKT_(%"class.llvm::cl::opt"*, [7 x i8]* dereferenceable(7), %"struct.llvm::cl::desc"* dereferenceable(16), %"struct.llvm::cl::initializer.79"* dereferenceable(8), %"struct.llvm::cl::value_desc"* dereferenceable(16)) unnamed_addr #1 comdat align 2 {
  %6 = bitcast %"class.llvm::cl::opt"* %0 to %"class.llvm::cl::Option"*
  %7 = getelementptr inbounds %"class.llvm::cl::opt", %"class.llvm::cl::opt"* %0, i64 0, i32 0, i32 0
  %8 = getelementptr inbounds %"class.llvm::cl::opt", %"class.llvm::cl::opt"* %0, i64 0, i32 0, i32 1
  store i32 0, i32* %8, align 8
  %9 = getelementptr inbounds %"class.llvm::cl::opt", %"class.llvm::cl::opt"* %0, i64 0, i32 0, i32 2
  %10 = load i16, i16* %9, align 4
  %11 = and i16 %10, -4096
  store i16 %11, i16* %9, align 4
  %12 = getelementptr inbounds %"class.llvm::cl::opt", %"class.llvm::cl::opt"* %0, i64 0, i32 0, i32 4
  %13 = getelementptr inbounds %"class.llvm::cl::opt", %"class.llvm::cl::opt"* %0, i64 0, i32 0, i32 9
  %14 = bitcast i32* %12 to i8*
  tail call void @llvm.memset.p0i8.i64(i8* align 8 %14, i8 0, i64 56, i1 false) #14
  store %"class.llvm::cl::OptionCategory"* @_ZN4llvm2cl15GeneralCategoryE, %"class.llvm::cl::OptionCategory"** %13, align 8
  %15 = getelementptr inbounds %"class.llvm::cl::opt", %"class.llvm::cl::opt"* %0, i64 0, i32 0, i32 10, i32 1, i64 0
  %16 = getelementptr inbounds %"class.llvm::cl::opt", %"class.llvm::cl::opt"* %0, i64 0, i32 0, i32 10, i32 0, i32 0, i32 0
  store i8** %15, i8*** %16, align 8
  %17 = getelementptr inbounds %"class.llvm::cl::opt", %"class.llvm::cl::opt"* %0, i64 0, i32 0, i32 10, i32 0, i32 0, i32 1
  store i8** %15, i8*** %17, align 8
  %18 = getelementptr inbounds %"class.llvm::cl::opt", %"class.llvm::cl::opt"* %0, i64 0, i32 0, i32 10, i32 0, i32 0, i32 2
  store i32 4, i32* %18, align 8
  %19 = getelementptr inbounds %"class.llvm::cl::opt", %"class.llvm::cl::opt"* %0, i64 0, i32 0, i32 10, i32 0, i32 0, i32 3
  store i32 0, i32* %19, align 4
  %20 = getelementptr inbounds %"class.llvm::cl::opt", %"class.llvm::cl::opt"* %0, i64 0, i32 0, i32 10, i32 0, i32 0, i32 4
  store i32 0, i32* %20, align 8
  %21 = getelementptr inbounds %"class.llvm::cl::opt", %"class.llvm::cl::opt"* %0, i64 0, i32 0, i32 11
  store i8 0, i8* %21, align 8
  %22 = getelementptr inbounds %"class.llvm::cl::opt", %"class.llvm::cl::opt"* %0, i64 0, i32 1
  %23 = bitcast %"class.llvm::cl::opt_storage"* %22 to i8*
  tail call void @llvm.memset.p0i8.i64(i8* align 8 %23, i8 0, i64 24, i1 false) #14
  %24 = getelementptr inbounds %"class.llvm::cl::opt", %"class.llvm::cl::opt"* %0, i64 0, i32 1, i32 1, i32 0, i32 0, i32 0
  %25 = getelementptr inbounds %"class.llvm::cl::opt", %"class.llvm::cl::opt"* %0, i64 0, i32 1, i32 1, i32 0, i32 1
  %26 = bitcast %"class.std::__1::basic_string"* %25 to i8*
  tail call void @llvm.memset.p0i8.i64(i8* align 8 %26, i8 0, i64 25, i1 false) #14
  store i32 (...)** bitcast (i8** getelementptr inbounds ({ [4 x i8*] }, { [4 x i8*] }* @_ZTVN4llvm2cl11OptionValueINSt3__112basic_stringIcNS2_11char_traitsIcEENS2_9allocatorIcEEEEEE, i64 0, inrange i32 0, i64 2) to i32 (...)**), i32 (...)*** %24, align 8
  store i32 (...)** bitcast (i8** getelementptr inbounds ({ [12 x i8*] }, { [12 x i8*] }* @_ZTVN4llvm2cl3optINSt3__112basic_stringIcNS2_11char_traitsIcEENS2_9allocatorIcEEEELb0ENS0_6parserIS8_EEEE, i64 0, inrange i32 0, i64 2) to i32 (...)**), i32 (...)*** %7, align 8
  %27 = getelementptr inbounds %"class.llvm::cl::opt", %"class.llvm::cl::opt"* %0, i64 0, i32 2, i32 0, i32 0, i32 0
  store i32 (...)** bitcast (i8** getelementptr inbounds ({ [4 x i8*] }, { [4 x i8*] }* @_ZTVN4llvm2cl6parserINSt3__112basic_stringIcNS2_11char_traitsIcEENS2_9allocatorIcEEEEEE, i64 0, inrange i32 0, i64 2) to i32 (...)**), i32 (...)*** %27, align 8
  tail call void @_ZN4llvm2cl5applyINS0_3optINSt3__112basic_stringIcNS3_11char_traitsIcEENS3_9allocatorIcEEEELb0ENS0_6parserIS9_EEEEA7_cJNS0_4descENS0_11initializerIA1_cEENS0_10value_descEEEEvPT_RKT0_DpRKT1_(%"class.llvm::cl::opt"* %0, [7 x i8]* dereferenceable(7) %1, %"struct.llvm::cl::desc"* dereferenceable(16) %2, %"struct.llvm::cl::initializer.79"* dereferenceable(8) %3, %"struct.llvm::cl::value_desc"* dereferenceable(16) %4) #17
  tail call void @_ZN4llvm2cl6Option11addArgumentEv(%"class.llvm::cl::Option"* %6) #15
  ret void
}

; Function Attrs: nounwind optsize ssp uwtable
define linkonce_odr hidden void @_ZN4llvm2cl3optIjLb0ENS0_6parserIjEEEC2IJA17_cNS0_4descENS0_11initializerIiEEEEEDpRKT_(%"class.llvm::cl::opt.1"*, [17 x i8]* dereferenceable(17), %"struct.llvm::cl::desc"* dereferenceable(16), %"struct.llvm::cl::initializer.8"* dereferenceable(8)) unnamed_addr #1 comdat align 2 {
  %5 = bitcast %"class.llvm::cl::opt.1"* %0 to %"class.llvm::cl::Option"*
  %6 = getelementptr inbounds %"class.llvm::cl::opt.1", %"class.llvm::cl::opt.1"* %0, i64 0, i32 0, i32 0
  %7 = getelementptr inbounds %"class.llvm::cl::opt.1", %"class.llvm::cl::opt.1"* %0, i64 0, i32 0, i32 1
  store i32 0, i32* %7, align 8
  %8 = getelementptr inbounds %"class.llvm::cl::opt.1", %"class.llvm::cl::opt.1"* %0, i64 0, i32 0, i32 2
  %9 = load i16, i16* %8, align 4
  %10 = and i16 %9, -4096
  store i16 %10, i16* %8, align 4
  %11 = getelementptr inbounds %"class.llvm::cl::opt.1", %"class.llvm::cl::opt.1"* %0, i64 0, i32 0, i32 4
  %12 = getelementptr inbounds %"class.llvm::cl::opt.1", %"class.llvm::cl::opt.1"* %0, i64 0, i32 0, i32 9
  %13 = bitcast i32* %11 to i8*
  tail call void @llvm.memset.p0i8.i64(i8* align 8 %13, i8 0, i64 56, i1 false) #14
  store %"class.llvm::cl::OptionCategory"* @_ZN4llvm2cl15GeneralCategoryE, %"class.llvm::cl::OptionCategory"** %12, align 8
  %14 = getelementptr inbounds %"class.llvm::cl::opt.1", %"class.llvm::cl::opt.1"* %0, i64 0, i32 0, i32 10, i32 1, i64 0
  %15 = getelementptr inbounds %"class.llvm::cl::opt.1", %"class.llvm::cl::opt.1"* %0, i64 0, i32 0, i32 10, i32 0, i32 0, i32 0
  store i8** %14, i8*** %15, align 8
  %16 = getelementptr inbounds %"class.llvm::cl::opt.1", %"class.llvm::cl::opt.1"* %0, i64 0, i32 0, i32 10, i32 0, i32 0, i32 1
  store i8** %14, i8*** %16, align 8
  %17 = getelementptr inbounds %"class.llvm::cl::opt.1", %"class.llvm::cl::opt.1"* %0, i64 0, i32 0, i32 10, i32 0, i32 0, i32 2
  store i32 4, i32* %17, align 8
  %18 = getelementptr inbounds %"class.llvm::cl::opt.1", %"class.llvm::cl::opt.1"* %0, i64 0, i32 0, i32 10, i32 0, i32 0, i32 3
  store i32 0, i32* %18, align 4
  %19 = getelementptr inbounds %"class.llvm::cl::opt.1", %"class.llvm::cl::opt.1"* %0, i64 0, i32 0, i32 10, i32 0, i32 0, i32 4
  store i32 0, i32* %19, align 8
  %20 = getelementptr inbounds %"class.llvm::cl::opt.1", %"class.llvm::cl::opt.1"* %0, i64 0, i32 0, i32 11
  store i8 0, i8* %20, align 8
  %21 = getelementptr inbounds %"class.llvm::cl::opt.1", %"class.llvm::cl::opt.1"* %0, i64 0, i32 2, i32 0
  store i32 0, i32* %21, align 8
  %22 = getelementptr inbounds %"class.llvm::cl::opt.1", %"class.llvm::cl::opt.1"* %0, i64 0, i32 2, i32 2, i32 0, i32 0, i32 2
  %23 = getelementptr inbounds %"class.llvm::cl::opt.1", %"class.llvm::cl::opt.1"* %0, i64 0, i32 2, i32 2, i32 0, i32 0, i32 0, i32 0
  store i32 (...)** bitcast (i8** getelementptr inbounds ({ [4 x i8*] }, { [4 x i8*] }* @_ZTVN4llvm2cl11OptionValueIjEE, i64 0, inrange i32 0, i64 2) to i32 (...)**), i32 (...)*** %23, align 8
  store i8 1, i8* %22, align 4
  %24 = getelementptr inbounds %"class.llvm::cl::opt.1", %"class.llvm::cl::opt.1"* %0, i64 0, i32 2, i32 2, i32 0, i32 0, i32 1
  store i32 0, i32* %24, align 8
  store i32 (...)** bitcast (i8** getelementptr inbounds ({ [12 x i8*] }, { [12 x i8*] }* @_ZTVN4llvm2cl3optIjLb0ENS0_6parserIjEEEE, i64 0, inrange i32 0, i64 2) to i32 (...)**), i32 (...)*** %6, align 8
  %25 = getelementptr inbounds %"class.llvm::cl::opt.1", %"class.llvm::cl::opt.1"* %0, i64 0, i32 3, i32 0, i32 0, i32 0
  store i32 (...)** bitcast (i8** getelementptr inbounds ({ [4 x i8*] }, { [4 x i8*] }* @_ZTVN4llvm2cl6parserIjEE, i64 0, inrange i32 0, i64 2) to i32 (...)**), i32 (...)*** %25, align 8
  tail call void @_ZN4llvm2cl5applyINS0_3optIjLb0ENS0_6parserIjEEEEA17_cJNS0_4descENS0_11initializerIiEEEEEvPT_RKT0_DpRKT1_(%"class.llvm::cl::opt.1"* %0, [17 x i8]* dereferenceable(17) %1, %"struct.llvm::cl::desc"* dereferenceable(16) %2, %"struct.llvm::cl::initializer.8"* dereferenceable(8) %3) #17
  tail call void @_ZN4llvm2cl6Option11addArgumentEv(%"class.llvm::cl::Option"* %5) #15
  ret void
}

; Function Attrs: nounwind optsize ssp uwtable
define linkonce_odr hidden void @_ZN4llvm2cl3optINSt3__112basic_stringIcNS2_11char_traitsIcEENS2_9allocatorIcEEEELb0ENS0_6parserIS8_EEEC2IJA12_cNS0_4descENS0_11initializerIA2_cEEEEEDpRKT_(%"class.llvm::cl::opt"*, [12 x i8]* dereferenceable(12), %"struct.llvm::cl::desc"* dereferenceable(16), %"struct.llvm::cl::initializer"* dereferenceable(8)) unnamed_addr #1 comdat align 2 {
  %5 = bitcast %"class.llvm::cl::opt"* %0 to %"class.llvm::cl::Option"*
  %6 = getelementptr inbounds %"class.llvm::cl::opt", %"class.llvm::cl::opt"* %0, i64 0, i32 0, i32 0
  %7 = getelementptr inbounds %"class.llvm::cl::opt", %"class.llvm::cl::opt"* %0, i64 0, i32 0, i32 1
  store i32 0, i32* %7, align 8
  %8 = getelementptr inbounds %"class.llvm::cl::opt", %"class.llvm::cl::opt"* %0, i64 0, i32 0, i32 2
  %9 = load i16, i16* %8, align 4
  %10 = and i16 %9, -4096
  store i16 %10, i16* %8, align 4
  %11 = getelementptr inbounds %"class.llvm::cl::opt", %"class.llvm::cl::opt"* %0, i64 0, i32 0, i32 4
  %12 = getelementptr inbounds %"class.llvm::cl::opt", %"class.llvm::cl::opt"* %0, i64 0, i32 0, i32 9
  %13 = bitcast i32* %11 to i8*
  tail call void @llvm.memset.p0i8.i64(i8* align 8 %13, i8 0, i64 56, i1 false) #14
  store %"class.llvm::cl::OptionCategory"* @_ZN4llvm2cl15GeneralCategoryE, %"class.llvm::cl::OptionCategory"** %12, align 8
  %14 = getelementptr inbounds %"class.llvm::cl::opt", %"class.llvm::cl::opt"* %0, i64 0, i32 0, i32 10, i32 1, i64 0
  %15 = getelementptr inbounds %"class.llvm::cl::opt", %"class.llvm::cl::opt"* %0, i64 0, i32 0, i32 10, i32 0, i32 0, i32 0
  store i8** %14, i8*** %15, align 8
  %16 = getelementptr inbounds %"class.llvm::cl::opt", %"class.llvm::cl::opt"* %0, i64 0, i32 0, i32 10, i32 0, i32 0, i32 1
  store i8** %14, i8*** %16, align 8
  %17 = getelementptr inbounds %"class.llvm::cl::opt", %"class.llvm::cl::opt"* %0, i64 0, i32 0, i32 10, i32 0, i32 0, i32 2
  store i32 4, i32* %17, align 8
  %18 = getelementptr inbounds %"class.llvm::cl::opt", %"class.llvm::cl::opt"* %0, i64 0, i32 0, i32 10, i32 0, i32 0, i32 3
  store i32 0, i32* %18, align 4
  %19 = getelementptr inbounds %"class.llvm::cl::opt", %"class.llvm::cl::opt"* %0, i64 0, i32 0, i32 10, i32 0, i32 0, i32 4
  store i32 0, i32* %19, align 8
  %20 = getelementptr inbounds %"class.llvm::cl::opt", %"class.llvm::cl::opt"* %0, i64 0, i32 0, i32 11
  store i8 0, i8* %20, align 8
  %21 = getelementptr inbounds %"class.llvm::cl::opt", %"class.llvm::cl::opt"* %0, i64 0, i32 1
  %22 = bitcast %"class.llvm::cl::opt_storage"* %21 to i8*
  tail call void @llvm.memset.p0i8.i64(i8* align 8 %22, i8 0, i64 24, i1 false) #14
  %23 = getelementptr inbounds %"class.llvm::cl::opt", %"class.llvm::cl::opt"* %0, i64 0, i32 1, i32 1, i32 0, i32 0, i32 0
  %24 = getelementptr inbounds %"class.llvm::cl::opt", %"class.llvm::cl::opt"* %0, i64 0, i32 1, i32 1, i32 0, i32 1
  %25 = bitcast %"class.std::__1::basic_string"* %24 to i8*
  tail call void @llvm.memset.p0i8.i64(i8* align 8 %25, i8 0, i64 25, i1 false) #14
  store i32 (...)** bitcast (i8** getelementptr inbounds ({ [4 x i8*] }, { [4 x i8*] }* @_ZTVN4llvm2cl11OptionValueINSt3__112basic_stringIcNS2_11char_traitsIcEENS2_9allocatorIcEEEEEE, i64 0, inrange i32 0, i64 2) to i32 (...)**), i32 (...)*** %23, align 8
  store i32 (...)** bitcast (i8** getelementptr inbounds ({ [12 x i8*] }, { [12 x i8*] }* @_ZTVN4llvm2cl3optINSt3__112basic_stringIcNS2_11char_traitsIcEENS2_9allocatorIcEEEELb0ENS0_6parserIS8_EEEE, i64 0, inrange i32 0, i64 2) to i32 (...)**), i32 (...)*** %6, align 8
  %26 = getelementptr inbounds %"class.llvm::cl::opt", %"class.llvm::cl::opt"* %0, i64 0, i32 2, i32 0, i32 0, i32 0
  store i32 (...)** bitcast (i8** getelementptr inbounds ({ [4 x i8*] }, { [4 x i8*] }* @_ZTVN4llvm2cl6parserINSt3__112basic_stringIcNS2_11char_traitsIcEENS2_9allocatorIcEEEEEE, i64 0, inrange i32 0, i64 2) to i32 (...)**), i32 (...)*** %26, align 8
  tail call void @_ZN4llvm2cl5applyINS0_3optINSt3__112basic_stringIcNS3_11char_traitsIcEENS3_9allocatorIcEEEELb0ENS0_6parserIS9_EEEEA12_cJNS0_4descENS0_11initializerIA2_cEEEEEvPT_RKT0_DpRKT1_(%"class.llvm::cl::opt"* %0, [12 x i8]* dereferenceable(12) %1, %"struct.llvm::cl::desc"* dereferenceable(16) %2, %"struct.llvm::cl::initializer"* dereferenceable(8) %3) #17
  tail call void @_ZN4llvm2cl6Option11addArgumentEv(%"class.llvm::cl::Option"* %5) #15
  ret void
}

; Function Attrs: nounwind optsize ssp uwtable
define linkonce_odr hidden void @_ZN4llvm2cl3optIbLb0ENS0_6parserIbEEEC2IJA13_cNS0_4descEEEEDpRKT_(%"class.llvm::cl::opt.40"*, [13 x i8]* dereferenceable(13), %"struct.llvm::cl::desc"* dereferenceable(16)) unnamed_addr #1 comdat align 2 {
  %4 = bitcast %"class.llvm::cl::opt.40"* %0 to %"class.llvm::cl::Option"*
  %5 = getelementptr inbounds %"class.llvm::cl::opt.40", %"class.llvm::cl::opt.40"* %0, i64 0, i32 0, i32 0
  %6 = getelementptr inbounds %"class.llvm::cl::opt.40", %"class.llvm::cl::opt.40"* %0, i64 0, i32 0, i32 1
  store i32 0, i32* %6, align 8
  %7 = getelementptr inbounds %"class.llvm::cl::opt.40", %"class.llvm::cl::opt.40"* %0, i64 0, i32 0, i32 2
  %8 = load i16, i16* %7, align 4
  %9 = and i16 %8, -4096
  store i16 %9, i16* %7, align 4
  %10 = getelementptr inbounds %"class.llvm::cl::opt.40", %"class.llvm::cl::opt.40"* %0, i64 0, i32 0, i32 4
  %11 = getelementptr inbounds %"class.llvm::cl::opt.40", %"class.llvm::cl::opt.40"* %0, i64 0, i32 0, i32 9
  %12 = bitcast i32* %10 to i8*
  tail call void @llvm.memset.p0i8.i64(i8* align 8 %12, i8 0, i64 56, i1 false) #14
  store %"class.llvm::cl::OptionCategory"* @_ZN4llvm2cl15GeneralCategoryE, %"class.llvm::cl::OptionCategory"** %11, align 8
  %13 = getelementptr inbounds %"class.llvm::cl::opt.40", %"class.llvm::cl::opt.40"* %0, i64 0, i32 0, i32 10, i32 1, i64 0
  %14 = getelementptr inbounds %"class.llvm::cl::opt.40", %"class.llvm::cl::opt.40"* %0, i64 0, i32 0, i32 10, i32 0, i32 0, i32 0
  store i8** %13, i8*** %14, align 8
  %15 = getelementptr inbounds %"class.llvm::cl::opt.40", %"class.llvm::cl::opt.40"* %0, i64 0, i32 0, i32 10, i32 0, i32 0, i32 1
  store i8** %13, i8*** %15, align 8
  %16 = getelementptr inbounds %"class.llvm::cl::opt.40", %"class.llvm::cl::opt.40"* %0, i64 0, i32 0, i32 10, i32 0, i32 0, i32 2
  store i32 4, i32* %16, align 8
  %17 = getelementptr inbounds %"class.llvm::cl::opt.40", %"class.llvm::cl::opt.40"* %0, i64 0, i32 0, i32 10, i32 0, i32 0, i32 3
  store i32 0, i32* %17, align 4
  %18 = getelementptr inbounds %"class.llvm::cl::opt.40", %"class.llvm::cl::opt.40"* %0, i64 0, i32 0, i32 10, i32 0, i32 0, i32 4
  store i32 0, i32* %18, align 8
  %19 = getelementptr inbounds %"class.llvm::cl::opt.40", %"class.llvm::cl::opt.40"* %0, i64 0, i32 0, i32 11
  store i8 0, i8* %19, align 8
  %20 = getelementptr inbounds %"class.llvm::cl::opt.40", %"class.llvm::cl::opt.40"* %0, i64 0, i32 2, i32 0
  store i8 0, i8* %20, align 8
  %21 = getelementptr inbounds i8, i8* %20, i64 17
  %22 = getelementptr inbounds i8, i8* %20, i64 8
  %23 = bitcast i8* %22 to i32 (...)***
  store i32 (...)** bitcast (i8** getelementptr inbounds ({ [4 x i8*] }, { [4 x i8*] }* @_ZTVN4llvm2cl11OptionValueIbEE, i64 0, inrange i32 0, i64 2) to i32 (...)**), i32 (...)*** %23, align 8
  store i8 1, i8* %21, align 1
  %24 = getelementptr inbounds i8, i8* %20, i64 16
  store i8 0, i8* %24, align 8
  store i32 (...)** bitcast (i8** getelementptr inbounds ({ [12 x i8*] }, { [12 x i8*] }* @_ZTVN4llvm2cl3optIbLb0ENS0_6parserIbEEEE, i64 0, inrange i32 0, i64 2) to i32 (...)**), i32 (...)*** %5, align 8
  %25 = getelementptr inbounds %"class.llvm::cl::opt.40", %"class.llvm::cl::opt.40"* %0, i64 0, i32 3, i32 0, i32 0, i32 0
  store i32 (...)** bitcast (i8** getelementptr inbounds ({ [4 x i8*] }, { [4 x i8*] }* @_ZTVN4llvm2cl6parserIbEE, i64 0, inrange i32 0, i64 2) to i32 (...)**), i32 (...)*** %25, align 8
  tail call void @_ZN4llvm2cl5applyINS0_3optIbLb0ENS0_6parserIbEEEEA13_cJNS0_4descEEEEvPT_RKT0_DpRKT1_(%"class.llvm::cl::opt.40"* %0, [13 x i8]* dereferenceable(13) %1, %"struct.llvm::cl::desc"* dereferenceable(16) %2) #17
  tail call void @_ZN4llvm2cl6Option11addArgumentEv(%"class.llvm::cl::Option"* %4) #15
  ret void
}

; Function Attrs: nounwind optsize ssp uwtable
define linkonce_odr hidden void @_ZN4llvm2cl3optINSt3__112basic_stringIcNS2_11char_traitsIcEENS2_9allocatorIcEEEELb0ENS0_6parserIS8_EEEC2IJA13_cNS0_4descENS0_11initializerIA1_cEEEEEDpRKT_(%"class.llvm::cl::opt"*, [13 x i8]* dereferenceable(13), %"struct.llvm::cl::desc"* dereferenceable(16), %"struct.llvm::cl::initializer.79"* dereferenceable(8)) unnamed_addr #1 comdat align 2 {
  %5 = bitcast %"class.llvm::cl::opt"* %0 to %"class.llvm::cl::Option"*
  %6 = getelementptr inbounds %"class.llvm::cl::opt", %"class.llvm::cl::opt"* %0, i64 0, i32 0, i32 0
  %7 = getelementptr inbounds %"class.llvm::cl::opt", %"class.llvm::cl::opt"* %0, i64 0, i32 0, i32 1
  store i32 0, i32* %7, align 8
  %8 = getelementptr inbounds %"class.llvm::cl::opt", %"class.llvm::cl::opt"* %0, i64 0, i32 0, i32 2
  %9 = load i16, i16* %8, align 4
  %10 = and i16 %9, -4096
  store i16 %10, i16* %8, align 4
  %11 = getelementptr inbounds %"class.llvm::cl::opt", %"class.llvm::cl::opt"* %0, i64 0, i32 0, i32 4
  %12 = getelementptr inbounds %"class.llvm::cl::opt", %"class.llvm::cl::opt"* %0, i64 0, i32 0, i32 9
  %13 = bitcast i32* %11 to i8*
  tail call void @llvm.memset.p0i8.i64(i8* align 8 %13, i8 0, i64 56, i1 false) #14
  store %"class.llvm::cl::OptionCategory"* @_ZN4llvm2cl15GeneralCategoryE, %"class.llvm::cl::OptionCategory"** %12, align 8
  %14 = getelementptr inbounds %"class.llvm::cl::opt", %"class.llvm::cl::opt"* %0, i64 0, i32 0, i32 10, i32 1, i64 0
  %15 = getelementptr inbounds %"class.llvm::cl::opt", %"class.llvm::cl::opt"* %0, i64 0, i32 0, i32 10, i32 0, i32 0, i32 0
  store i8** %14, i8*** %15, align 8
  %16 = getelementptr inbounds %"class.llvm::cl::opt", %"class.llvm::cl::opt"* %0, i64 0, i32 0, i32 10, i32 0, i32 0, i32 1
  store i8** %14, i8*** %16, align 8
  %17 = getelementptr inbounds %"class.llvm::cl::opt", %"class.llvm::cl::opt"* %0, i64 0, i32 0, i32 10, i32 0, i32 0, i32 2
  store i32 4, i32* %17, align 8
  %18 = getelementptr inbounds %"class.llvm::cl::opt", %"class.llvm::cl::opt"* %0, i64 0, i32 0, i32 10, i32 0, i32 0, i32 3
  store i32 0, i32* %18, align 4
  %19 = getelementptr inbounds %"class.llvm::cl::opt", %"class.llvm::cl::opt"* %0, i64 0, i32 0, i32 10, i32 0, i32 0, i32 4
  store i32 0, i32* %19, align 8
  %20 = getelementptr inbounds %"class.llvm::cl::opt", %"class.llvm::cl::opt"* %0, i64 0, i32 0, i32 11
  store i8 0, i8* %20, align 8
  %21 = getelementptr inbounds %"class.llvm::cl::opt", %"class.llvm::cl::opt"* %0, i64 0, i32 1
  %22 = bitcast %"class.llvm::cl::opt_storage"* %21 to i8*
  tail call void @llvm.memset.p0i8.i64(i8* align 8 %22, i8 0, i64 24, i1 false) #14
  %23 = getelementptr inbounds %"class.llvm::cl::opt", %"class.llvm::cl::opt"* %0, i64 0, i32 1, i32 1, i32 0, i32 0, i32 0
  %24 = getelementptr inbounds %"class.llvm::cl::opt", %"class.llvm::cl::opt"* %0, i64 0, i32 1, i32 1, i32 0, i32 1
  %25 = bitcast %"class.std::__1::basic_string"* %24 to i8*
  tail call void @llvm.memset.p0i8.i64(i8* align 8 %25, i8 0, i64 25, i1 false) #14
  store i32 (...)** bitcast (i8** getelementptr inbounds ({ [4 x i8*] }, { [4 x i8*] }* @_ZTVN4llvm2cl11OptionValueINSt3__112basic_stringIcNS2_11char_traitsIcEENS2_9allocatorIcEEEEEE, i64 0, inrange i32 0, i64 2) to i32 (...)**), i32 (...)*** %23, align 8
  store i32 (...)** bitcast (i8** getelementptr inbounds ({ [12 x i8*] }, { [12 x i8*] }* @_ZTVN4llvm2cl3optINSt3__112basic_stringIcNS2_11char_traitsIcEENS2_9allocatorIcEEEELb0ENS0_6parserIS8_EEEE, i64 0, inrange i32 0, i64 2) to i32 (...)**), i32 (...)*** %6, align 8
  %26 = getelementptr inbounds %"class.llvm::cl::opt", %"class.llvm::cl::opt"* %0, i64 0, i32 2, i32 0, i32 0, i32 0
  store i32 (...)** bitcast (i8** getelementptr inbounds ({ [4 x i8*] }, { [4 x i8*] }* @_ZTVN4llvm2cl6parserINSt3__112basic_stringIcNS2_11char_traitsIcEENS2_9allocatorIcEEEEEE, i64 0, inrange i32 0, i64 2) to i32 (...)**), i32 (...)*** %26, align 8
  tail call void @_ZN4llvm2cl5applyINS0_3optINSt3__112basic_stringIcNS3_11char_traitsIcEENS3_9allocatorIcEEEELb0ENS0_6parserIS9_EEEEA13_cJNS0_4descENS0_11initializerIA1_cEEEEEvPT_RKT0_DpRKT1_(%"class.llvm::cl::opt"* %0, [13 x i8]* dereferenceable(13) %1, %"struct.llvm::cl::desc"* dereferenceable(16) %2, %"struct.llvm::cl::initializer.79"* dereferenceable(8) %3) #17
  tail call void @_ZN4llvm2cl6Option11addArgumentEv(%"class.llvm::cl::Option"* %5) #15
  ret void
}

; Function Attrs: nounwind optsize ssp uwtable
define linkonce_odr hidden void @_ZN4llvm2cl3optINSt3__112basic_stringIcNS2_11char_traitsIcEENS2_9allocatorIcEEEELb0ENS0_6parserIS8_EEEC2IJA15_cNS0_4descENS0_11initializerIA2_cEEEEEDpRKT_(%"class.llvm::cl::opt"*, [15 x i8]* dereferenceable(15), %"struct.llvm::cl::desc"* dereferenceable(16), %"struct.llvm::cl::initializer"* dereferenceable(8)) unnamed_addr #1 comdat align 2 {
  %5 = bitcast %"class.llvm::cl::opt"* %0 to %"class.llvm::cl::Option"*
  %6 = getelementptr inbounds %"class.llvm::cl::opt", %"class.llvm::cl::opt"* %0, i64 0, i32 0, i32 0
  %7 = getelementptr inbounds %"class.llvm::cl::opt", %"class.llvm::cl::opt"* %0, i64 0, i32 0, i32 1
  store i32 0, i32* %7, align 8
  %8 = getelementptr inbounds %"class.llvm::cl::opt", %"class.llvm::cl::opt"* %0, i64 0, i32 0, i32 2
  %9 = load i16, i16* %8, align 4
  %10 = and i16 %9, -4096
  store i16 %10, i16* %8, align 4
  %11 = getelementptr inbounds %"class.llvm::cl::opt", %"class.llvm::cl::opt"* %0, i64 0, i32 0, i32 4
  %12 = getelementptr inbounds %"class.llvm::cl::opt", %"class.llvm::cl::opt"* %0, i64 0, i32 0, i32 9
  %13 = bitcast i32* %11 to i8*
  tail call void @llvm.memset.p0i8.i64(i8* align 8 %13, i8 0, i64 56, i1 false) #14
  store %"class.llvm::cl::OptionCategory"* @_ZN4llvm2cl15GeneralCategoryE, %"class.llvm::cl::OptionCategory"** %12, align 8
  %14 = getelementptr inbounds %"class.llvm::cl::opt", %"class.llvm::cl::opt"* %0, i64 0, i32 0, i32 10, i32 1, i64 0
  %15 = getelementptr inbounds %"class.llvm::cl::opt", %"class.llvm::cl::opt"* %0, i64 0, i32 0, i32 10, i32 0, i32 0, i32 0
  store i8** %14, i8*** %15, align 8
  %16 = getelementptr inbounds %"class.llvm::cl::opt", %"class.llvm::cl::opt"* %0, i64 0, i32 0, i32 10, i32 0, i32 0, i32 1
  store i8** %14, i8*** %16, align 8
  %17 = getelementptr inbounds %"class.llvm::cl::opt", %"class.llvm::cl::opt"* %0, i64 0, i32 0, i32 10, i32 0, i32 0, i32 2
  store i32 4, i32* %17, align 8
  %18 = getelementptr inbounds %"class.llvm::cl::opt", %"class.llvm::cl::opt"* %0, i64 0, i32 0, i32 10, i32 0, i32 0, i32 3
  store i32 0, i32* %18, align 4
  %19 = getelementptr inbounds %"class.llvm::cl::opt", %"class.llvm::cl::opt"* %0, i64 0, i32 0, i32 10, i32 0, i32 0, i32 4
  store i32 0, i32* %19, align 8
  %20 = getelementptr inbounds %"class.llvm::cl::opt", %"class.llvm::cl::opt"* %0, i64 0, i32 0, i32 11
  store i8 0, i8* %20, align 8
  %21 = getelementptr inbounds %"class.llvm::cl::opt", %"class.llvm::cl::opt"* %0, i64 0, i32 1
  %22 = bitcast %"class.llvm::cl::opt_storage"* %21 to i8*
  tail call void @llvm.memset.p0i8.i64(i8* align 8 %22, i8 0, i64 24, i1 false) #14
  %23 = getelementptr inbounds %"class.llvm::cl::opt", %"class.llvm::cl::opt"* %0, i64 0, i32 1, i32 1, i32 0, i32 0, i32 0
  %24 = getelementptr inbounds %"class.llvm::cl::opt", %"class.llvm::cl::opt"* %0, i64 0, i32 1, i32 1, i32 0, i32 1
  %25 = bitcast %"class.std::__1::basic_string"* %24 to i8*
  tail call void @llvm.memset.p0i8.i64(i8* align 8 %25, i8 0, i64 25, i1 false) #14
  store i32 (...)** bitcast (i8** getelementptr inbounds ({ [4 x i8*] }, { [4 x i8*] }* @_ZTVN4llvm2cl11OptionValueINSt3__112basic_stringIcNS2_11char_traitsIcEENS2_9allocatorIcEEEEEE, i64 0, inrange i32 0, i64 2) to i32 (...)**), i32 (...)*** %23, align 8
  store i32 (...)** bitcast (i8** getelementptr inbounds ({ [12 x i8*] }, { [12 x i8*] }* @_ZTVN4llvm2cl3optINSt3__112basic_stringIcNS2_11char_traitsIcEENS2_9allocatorIcEEEELb0ENS0_6parserIS8_EEEE, i64 0, inrange i32 0, i64 2) to i32 (...)**), i32 (...)*** %6, align 8
  %26 = getelementptr inbounds %"class.llvm::cl::opt", %"class.llvm::cl::opt"* %0, i64 0, i32 2, i32 0, i32 0, i32 0
  store i32 (...)** bitcast (i8** getelementptr inbounds ({ [4 x i8*] }, { [4 x i8*] }* @_ZTVN4llvm2cl6parserINSt3__112basic_stringIcNS2_11char_traitsIcEENS2_9allocatorIcEEEEEE, i64 0, inrange i32 0, i64 2) to i32 (...)**), i32 (...)*** %26, align 8
  tail call void @_ZN4llvm2cl5applyINS0_3optINSt3__112basic_stringIcNS3_11char_traitsIcEENS3_9allocatorIcEEEELb0ENS0_6parserIS9_EEEEA15_cJNS0_4descENS0_11initializerIA2_cEEEEEvPT_RKT0_DpRKT1_(%"class.llvm::cl::opt"* %0, [15 x i8]* dereferenceable(15) %1, %"struct.llvm::cl::desc"* dereferenceable(16) %2, %"struct.llvm::cl::initializer"* dereferenceable(8) %3) #17
  tail call void @_ZN4llvm2cl6Option11addArgumentEv(%"class.llvm::cl::Option"* %5) #15
  ret void
}

; Function Attrs: nounwind optsize ssp uwtable
define linkonce_odr hidden void @_ZN4llvm2cl4listINSt3__112basic_stringIcNS2_11char_traitsIcEENS2_9allocatorIcEEEEbNS0_6parserIS8_EEEC2IJA8_cNS0_9MiscFlagsENS0_4descEEEEDpRKT_(%"class.llvm::cl::list"*, [8 x i8]* dereferenceable(8), i32* dereferenceable(4), %"struct.llvm::cl::desc"* dereferenceable(16)) unnamed_addr #1 comdat align 2 {
  %5 = bitcast %"class.llvm::cl::list"* %0 to %"class.llvm::cl::Option"*
  %6 = getelementptr inbounds %"class.llvm::cl::list", %"class.llvm::cl::list"* %0, i64 0, i32 0, i32 0
  %7 = getelementptr inbounds %"class.llvm::cl::list", %"class.llvm::cl::list"* %0, i64 0, i32 0, i32 1
  store i32 0, i32* %7, align 8
  %8 = getelementptr inbounds %"class.llvm::cl::list", %"class.llvm::cl::list"* %0, i64 0, i32 0, i32 2
  %9 = load i16, i16* %8, align 4
  %10 = and i16 %9, -4096
  %11 = or i16 %10, 1
  store i16 %11, i16* %8, align 4
  %12 = getelementptr inbounds %"class.llvm::cl::list", %"class.llvm::cl::list"* %0, i64 0, i32 0, i32 4
  %13 = getelementptr inbounds %"class.llvm::cl::list", %"class.llvm::cl::list"* %0, i64 0, i32 0, i32 9
  %14 = bitcast i32* %12 to i8*
  tail call void @llvm.memset.p0i8.i64(i8* align 8 %14, i8 0, i64 56, i1 false) #14
  store %"class.llvm::cl::OptionCategory"* @_ZN4llvm2cl15GeneralCategoryE, %"class.llvm::cl::OptionCategory"** %13, align 8
  %15 = getelementptr inbounds %"class.llvm::cl::list", %"class.llvm::cl::list"* %0, i64 0, i32 0, i32 10, i32 1, i64 0
  %16 = getelementptr inbounds %"class.llvm::cl::list", %"class.llvm::cl::list"* %0, i64 0, i32 0, i32 10, i32 0, i32 0, i32 0
  store i8** %15, i8*** %16, align 8
  %17 = getelementptr inbounds %"class.llvm::cl::list", %"class.llvm::cl::list"* %0, i64 0, i32 0, i32 10, i32 0, i32 0, i32 1
  store i8** %15, i8*** %17, align 8
  %18 = getelementptr inbounds %"class.llvm::cl::list", %"class.llvm::cl::list"* %0, i64 0, i32 0, i32 10, i32 0, i32 0, i32 2
  store i32 4, i32* %18, align 8
  %19 = getelementptr inbounds %"class.llvm::cl::list", %"class.llvm::cl::list"* %0, i64 0, i32 0, i32 10, i32 0, i32 0, i32 3
  store i32 0, i32* %19, align 4
  %20 = getelementptr inbounds %"class.llvm::cl::list", %"class.llvm::cl::list"* %0, i64 0, i32 0, i32 10, i32 0, i32 0, i32 4
  store i32 0, i32* %20, align 8
  %21 = getelementptr inbounds %"class.llvm::cl::list", %"class.llvm::cl::list"* %0, i64 0, i32 0, i32 11
  store i8 0, i8* %21, align 8
  %22 = getelementptr inbounds %"class.llvm::cl::list", %"class.llvm::cl::list"* %0, i64 0, i32 1
  %23 = bitcast %"class.llvm::cl::list_storage"* %22 to i8*
  tail call void @llvm.memset.p0i8.i64(i8* align 8 %23, i8 0, i64 24, i1 false) #14
  store i32 (...)** bitcast (i8** getelementptr inbounds ({ [12 x i8*] }, { [12 x i8*] }* @_ZTVN4llvm2cl4listINSt3__112basic_stringIcNS2_11char_traitsIcEENS2_9allocatorIcEEEEbNS0_6parserIS8_EEEE, i64 0, inrange i32 0, i64 2) to i32 (...)**), i32 (...)*** %6, align 8
  %24 = getelementptr inbounds %"class.llvm::cl::list", %"class.llvm::cl::list"* %0, i64 0, i32 2
  %25 = bitcast %"class.std::__1::vector.72"* %24 to i8*
  tail call void @llvm.memset.p0i8.i64(i8* align 8 %25, i8 0, i64 24, i1 false) #14
  %26 = getelementptr inbounds %"class.llvm::cl::list", %"class.llvm::cl::list"* %0, i64 0, i32 3, i32 0, i32 0, i32 0
  store i32 (...)** bitcast (i8** getelementptr inbounds ({ [4 x i8*] }, { [4 x i8*] }* @_ZTVN4llvm2cl6parserINSt3__112basic_stringIcNS2_11char_traitsIcEENS2_9allocatorIcEEEEEE, i64 0, inrange i32 0, i64 2) to i32 (...)**), i32 (...)*** %26, align 8
  tail call void @_ZN4llvm2cl5applyINS0_4listINSt3__112basic_stringIcNS3_11char_traitsIcEENS3_9allocatorIcEEEEbNS0_6parserIS9_EEEEA8_cJNS0_9MiscFlagsENS0_4descEEEEvPT_RKT0_DpRKT1_(%"class.llvm::cl::list"* %0, [8 x i8]* dereferenceable(8) %1, i32* dereferenceable(4) %2, %"struct.llvm::cl::desc"* dereferenceable(16) %3) #17
  tail call void @_ZN4llvm2cl6Option11addArgumentEv(%"class.llvm::cl::Option"* %5) #15
  ret void
}

; Function Attrs: nounwind optsize ssp uwtable
define internal fastcc void @_ZN12_GLOBAL__N_12cl6valuesIJN4llvm2cl15OptionEnumValueES4_S4_S4_S4_S4_S4_S4_S4_S4_S4_S4_S4_S4_S4_S4_S4_S4_S4_S4_S4_S4_S4_EEENS3_11ValuesClassEDpOT_(%"class.llvm::cl::ValuesClass"* noalias sret, %"struct.llvm::cl::OptionEnumValue"* nocapture readonly dereferenceable(40), %"struct.llvm::cl::OptionEnumValue"* nocapture readonly dereferenceable(40), %"struct.llvm::cl::OptionEnumValue"* nocapture readonly dereferenceable(40), %"struct.llvm::cl::OptionEnumValue"* nocapture readonly dereferenceable(40), %"struct.llvm::cl::OptionEnumValue"* nocapture readonly dereferenceable(40), %"struct.llvm::cl::OptionEnumValue"* nocapture readonly dereferenceable(40), %"struct.llvm::cl::OptionEnumValue"* nocapture readonly dereferenceable(40), %"struct.llvm::cl::OptionEnumValue"* nocapture readonly dereferenceable(40), %"struct.llvm::cl::OptionEnumValue"* nocapture readonly dereferenceable(40), %"struct.llvm::cl::OptionEnumValue"* nocapture readonly dereferenceable(40), %"struct.llvm::cl::OptionEnumValue"* nocapture readonly dereferenceable(40), %"struct.llvm::cl::OptionEnumValue"* nocapture readonly dereferenceable(40), %"struct.llvm::cl::OptionEnumValue"* nocapture readonly dereferenceable(40), %"struct.llvm::cl::OptionEnumValue"* nocapture readonly dereferenceable(40), %"struct.llvm::cl::OptionEnumValue"* nocapture readonly dereferenceable(40), %"struct.llvm::cl::OptionEnumValue"* nocapture readonly dereferenceable(40), %"struct.llvm::cl::OptionEnumValue"* nocapture readonly dereferenceable(40), %"struct.llvm::cl::OptionEnumValue"* nocapture readonly dereferenceable(40), %"struct.llvm::cl::OptionEnumValue"* nocapture readonly dereferenceable(40), %"struct.llvm::cl::OptionEnumValue"* nocapture readonly dereferenceable(40), %"struct.llvm::cl::OptionEnumValue"* nocapture readonly dereferenceable(40), %"struct.llvm::cl::OptionEnumValue"* nocapture readonly dereferenceable(40), %"struct.llvm::cl::OptionEnumValue"* nocapture readonly dereferenceable(40)) unnamed_addr #1 {
  %25 = alloca [23 x %"struct.llvm::cl::OptionEnumValue"], align 8
  %26 = alloca %"struct.llvm::cl::OptionEnumValue", align 8
  %27 = alloca %"struct.llvm::cl::OptionEnumValue", align 8
  %28 = alloca %"struct.llvm::cl::OptionEnumValue", align 8
  %29 = alloca %"struct.llvm::cl::OptionEnumValue", align 8
  %30 = alloca %"struct.llvm::cl::OptionEnumValue", align 8
  %31 = alloca %"struct.llvm::cl::OptionEnumValue", align 8
  %32 = alloca %"struct.llvm::cl::OptionEnumValue", align 8
  %33 = alloca %"struct.llvm::cl::OptionEnumValue", align 8
  %34 = alloca %"struct.llvm::cl::OptionEnumValue", align 8
  %35 = alloca %"struct.llvm::cl::OptionEnumValue", align 8
  %36 = alloca %"struct.llvm::cl::OptionEnumValue", align 8
  %37 = alloca %"struct.llvm::cl::OptionEnumValue", align 8
  %38 = alloca %"struct.llvm::cl::OptionEnumValue", align 8
  %39 = alloca %"struct.llvm::cl::OptionEnumValue", align 8
  %40 = alloca %"struct.llvm::cl::OptionEnumValue", align 8
  %41 = alloca %"struct.llvm::cl::OptionEnumValue", align 8
  %42 = alloca %"struct.llvm::cl::OptionEnumValue", align 8
  %43 = alloca %"struct.llvm::cl::OptionEnumValue", align 8
  %44 = alloca %"struct.llvm::cl::OptionEnumValue", align 8
  %45 = alloca %"struct.llvm::cl::OptionEnumValue", align 8
  %46 = alloca %"struct.llvm::cl::OptionEnumValue", align 8
  %47 = alloca %"struct.llvm::cl::OptionEnumValue", align 8
  %48 = bitcast %"struct.llvm::cl::OptionEnumValue"* %26 to i8*
  %49 = bitcast %"struct.llvm::cl::OptionEnumValue"* %1 to i8*
  call void @llvm.memcpy.p0i8.p0i8.i64(i8* nonnull align 8 %48, i8* align 8 %49, i64 40, i1 false)
  %50 = bitcast %"struct.llvm::cl::OptionEnumValue"* %27 to i8*
  %51 = bitcast %"struct.llvm::cl::OptionEnumValue"* %2 to i8*
  call void @llvm.memcpy.p0i8.p0i8.i64(i8* nonnull align 8 %50, i8* align 8 %51, i64 40, i1 false)
  %52 = bitcast %"struct.llvm::cl::OptionEnumValue"* %28 to i8*
  %53 = bitcast %"struct.llvm::cl::OptionEnumValue"* %3 to i8*
  call void @llvm.memcpy.p0i8.p0i8.i64(i8* nonnull align 8 %52, i8* align 8 %53, i64 40, i1 false)
  %54 = bitcast %"struct.llvm::cl::OptionEnumValue"* %29 to i8*
  %55 = bitcast %"struct.llvm::cl::OptionEnumValue"* %4 to i8*
  call void @llvm.memcpy.p0i8.p0i8.i64(i8* nonnull align 8 %54, i8* align 8 %55, i64 40, i1 false)
  %56 = bitcast %"struct.llvm::cl::OptionEnumValue"* %30 to i8*
  %57 = bitcast %"struct.llvm::cl::OptionEnumValue"* %5 to i8*
  call void @llvm.memcpy.p0i8.p0i8.i64(i8* nonnull align 8 %56, i8* align 8 %57, i64 40, i1 false)
  %58 = bitcast %"struct.llvm::cl::OptionEnumValue"* %31 to i8*
  %59 = bitcast %"struct.llvm::cl::OptionEnumValue"* %6 to i8*
  call void @llvm.memcpy.p0i8.p0i8.i64(i8* nonnull align 8 %58, i8* align 8 %59, i64 40, i1 false)
  %60 = bitcast %"struct.llvm::cl::OptionEnumValue"* %32 to i8*
  %61 = bitcast %"struct.llvm::cl::OptionEnumValue"* %7 to i8*
  call void @llvm.memcpy.p0i8.p0i8.i64(i8* nonnull align 8 %60, i8* align 8 %61, i64 40, i1 false)
  %62 = bitcast %"struct.llvm::cl::OptionEnumValue"* %33 to i8*
  %63 = bitcast %"struct.llvm::cl::OptionEnumValue"* %8 to i8*
  call void @llvm.memcpy.p0i8.p0i8.i64(i8* nonnull align 8 %62, i8* align 8 %63, i64 40, i1 false)
  %64 = bitcast %"struct.llvm::cl::OptionEnumValue"* %34 to i8*
  %65 = bitcast %"struct.llvm::cl::OptionEnumValue"* %9 to i8*
  call void @llvm.memcpy.p0i8.p0i8.i64(i8* nonnull align 8 %64, i8* align 8 %65, i64 40, i1 false)
  %66 = bitcast %"struct.llvm::cl::OptionEnumValue"* %35 to i8*
  %67 = bitcast %"struct.llvm::cl::OptionEnumValue"* %10 to i8*
  call void @llvm.memcpy.p0i8.p0i8.i64(i8* nonnull align 8 %66, i8* align 8 %67, i64 40, i1 false)
  %68 = bitcast %"struct.llvm::cl::OptionEnumValue"* %36 to i8*
  %69 = bitcast %"struct.llvm::cl::OptionEnumValue"* %11 to i8*
  call void @llvm.memcpy.p0i8.p0i8.i64(i8* nonnull align 8 %68, i8* align 8 %69, i64 40, i1 false)
  %70 = bitcast %"struct.llvm::cl::OptionEnumValue"* %37 to i8*
  %71 = bitcast %"struct.llvm::cl::OptionEnumValue"* %12 to i8*
  call void @llvm.memcpy.p0i8.p0i8.i64(i8* nonnull align 8 %70, i8* align 8 %71, i64 40, i1 false)
  %72 = bitcast %"struct.llvm::cl::OptionEnumValue"* %38 to i8*
  %73 = bitcast %"struct.llvm::cl::OptionEnumValue"* %13 to i8*
  call void @llvm.memcpy.p0i8.p0i8.i64(i8* nonnull align 8 %72, i8* align 8 %73, i64 40, i1 false)
  %74 = bitcast %"struct.llvm::cl::OptionEnumValue"* %39 to i8*
  %75 = bitcast %"struct.llvm::cl::OptionEnumValue"* %14 to i8*
  call void @llvm.memcpy.p0i8.p0i8.i64(i8* nonnull align 8 %74, i8* align 8 %75, i64 40, i1 false)
  %76 = bitcast %"struct.llvm::cl::OptionEnumValue"* %40 to i8*
  %77 = bitcast %"struct.llvm::cl::OptionEnumValue"* %15 to i8*
  call void @llvm.memcpy.p0i8.p0i8.i64(i8* nonnull align 8 %76, i8* align 8 %77, i64 40, i1 false)
  %78 = bitcast %"struct.llvm::cl::OptionEnumValue"* %41 to i8*
  %79 = bitcast %"struct.llvm::cl::OptionEnumValue"* %16 to i8*
  call void @llvm.memcpy.p0i8.p0i8.i64(i8* nonnull align 8 %78, i8* align 8 %79, i64 40, i1 false)
  %80 = bitcast %"struct.llvm::cl::OptionEnumValue"* %42 to i8*
  %81 = bitcast %"struct.llvm::cl::OptionEnumValue"* %17 to i8*
  call void @llvm.memcpy.p0i8.p0i8.i64(i8* nonnull align 8 %80, i8* align 8 %81, i64 40, i1 false)
  %82 = bitcast %"struct.llvm::cl::OptionEnumValue"* %43 to i8*
  %83 = bitcast %"struct.llvm::cl::OptionEnumValue"* %18 to i8*
  call void @llvm.memcpy.p0i8.p0i8.i64(i8* nonnull align 8 %82, i8* align 8 %83, i64 40, i1 false)
  %84 = bitcast %"struct.llvm::cl::OptionEnumValue"* %44 to i8*
  %85 = bitcast %"struct.llvm::cl::OptionEnumValue"* %19 to i8*
  call void @llvm.memcpy.p0i8.p0i8.i64(i8* nonnull align 8 %84, i8* align 8 %85, i64 40, i1 false)
  %86 = bitcast %"struct.llvm::cl::OptionEnumValue"* %45 to i8*
  %87 = bitcast %"struct.llvm::cl::OptionEnumValue"* %20 to i8*
  call void @llvm.memcpy.p0i8.p0i8.i64(i8* nonnull align 8 %86, i8* align 8 %87, i64 40, i1 false)
  %88 = bitcast %"struct.llvm::cl::OptionEnumValue"* %46 to i8*
  %89 = bitcast %"struct.llvm::cl::OptionEnumValue"* %21 to i8*
  call void @llvm.memcpy.p0i8.p0i8.i64(i8* nonnull align 8 %88, i8* align 8 %89, i64 40, i1 false)
  %90 = bitcast %"struct.llvm::cl::OptionEnumValue"* %47 to i8*
  %91 = bitcast %"struct.llvm::cl::OptionEnumValue"* %22 to i8*
  call void @llvm.memcpy.p0i8.p0i8.i64(i8* nonnull align 8 %90, i8* align 8 %91, i64 40, i1 false)
  %92 = bitcast %"struct.llvm::cl::OptionEnumValue"* %23 to i8*
  %93 = bitcast [23 x %"struct.llvm::cl::OptionEnumValue"]* %25 to i8*
  call void @llvm.lifetime.start.p0i8(i64 920, i8* nonnull %93) #14, !noalias !5
  %94 = getelementptr inbounds [23 x %"struct.llvm::cl::OptionEnumValue"], [23 x %"struct.llvm::cl::OptionEnumValue"]* %25, i64 0, i64 0
  call void @llvm.memcpy.p0i8.p0i8.i64(i8* nonnull align 8 %93, i8* nonnull align 8 %48, i64 40, i1 false)
  %95 = getelementptr inbounds [23 x %"struct.llvm::cl::OptionEnumValue"], [23 x %"struct.llvm::cl::OptionEnumValue"]* %25, i64 0, i64 1
  %96 = bitcast %"struct.llvm::cl::OptionEnumValue"* %95 to i8*
  call void @llvm.memcpy.p0i8.p0i8.i64(i8* align 8 %96, i8* nonnull align 8 %50, i64 40, i1 false)
  %97 = getelementptr inbounds [23 x %"struct.llvm::cl::OptionEnumValue"], [23 x %"struct.llvm::cl::OptionEnumValue"]* %25, i64 0, i64 2
  %98 = bitcast %"struct.llvm::cl::OptionEnumValue"* %97 to i8*
  call void @llvm.memcpy.p0i8.p0i8.i64(i8* align 8 %98, i8* nonnull align 8 %52, i64 40, i1 false)
  %99 = getelementptr inbounds [23 x %"struct.llvm::cl::OptionEnumValue"], [23 x %"struct.llvm::cl::OptionEnumValue"]* %25, i64 0, i64 3
  %100 = bitcast %"struct.llvm::cl::OptionEnumValue"* %99 to i8*
  call void @llvm.memcpy.p0i8.p0i8.i64(i8* align 8 %100, i8* nonnull align 8 %54, i64 40, i1 false)
  %101 = getelementptr inbounds [23 x %"struct.llvm::cl::OptionEnumValue"], [23 x %"struct.llvm::cl::OptionEnumValue"]* %25, i64 0, i64 4
  %102 = bitcast %"struct.llvm::cl::OptionEnumValue"* %101 to i8*
  call void @llvm.memcpy.p0i8.p0i8.i64(i8* align 8 %102, i8* nonnull align 8 %56, i64 40, i1 false)
  %103 = getelementptr inbounds [23 x %"struct.llvm::cl::OptionEnumValue"], [23 x %"struct.llvm::cl::OptionEnumValue"]* %25, i64 0, i64 5
  %104 = bitcast %"struct.llvm::cl::OptionEnumValue"* %103 to i8*
  call void @llvm.memcpy.p0i8.p0i8.i64(i8* align 8 %104, i8* nonnull align 8 %58, i64 40, i1 false)
  %105 = getelementptr inbounds [23 x %"struct.llvm::cl::OptionEnumValue"], [23 x %"struct.llvm::cl::OptionEnumValue"]* %25, i64 0, i64 6
  %106 = bitcast %"struct.llvm::cl::OptionEnumValue"* %105 to i8*
  call void @llvm.memcpy.p0i8.p0i8.i64(i8* align 8 %106, i8* nonnull align 8 %60, i64 40, i1 false)
  %107 = getelementptr inbounds [23 x %"struct.llvm::cl::OptionEnumValue"], [23 x %"struct.llvm::cl::OptionEnumValue"]* %25, i64 0, i64 7
  %108 = bitcast %"struct.llvm::cl::OptionEnumValue"* %107 to i8*
  call void @llvm.memcpy.p0i8.p0i8.i64(i8* align 8 %108, i8* nonnull align 8 %62, i64 40, i1 false)
  %109 = getelementptr inbounds [23 x %"struct.llvm::cl::OptionEnumValue"], [23 x %"struct.llvm::cl::OptionEnumValue"]* %25, i64 0, i64 8
  %110 = bitcast %"struct.llvm::cl::OptionEnumValue"* %109 to i8*
  call void @llvm.memcpy.p0i8.p0i8.i64(i8* align 8 %110, i8* nonnull align 8 %64, i64 40, i1 false)
  %111 = getelementptr inbounds [23 x %"struct.llvm::cl::OptionEnumValue"], [23 x %"struct.llvm::cl::OptionEnumValue"]* %25, i64 0, i64 9
  %112 = bitcast %"struct.llvm::cl::OptionEnumValue"* %111 to i8*
  call void @llvm.memcpy.p0i8.p0i8.i64(i8* align 8 %112, i8* nonnull align 8 %66, i64 40, i1 false)
  %113 = getelementptr inbounds [23 x %"struct.llvm::cl::OptionEnumValue"], [23 x %"struct.llvm::cl::OptionEnumValue"]* %25, i64 0, i64 10
  %114 = bitcast %"struct.llvm::cl::OptionEnumValue"* %113 to i8*
  call void @llvm.memcpy.p0i8.p0i8.i64(i8* align 8 %114, i8* nonnull align 8 %68, i64 40, i1 false)
  %115 = getelementptr inbounds [23 x %"struct.llvm::cl::OptionEnumValue"], [23 x %"struct.llvm::cl::OptionEnumValue"]* %25, i64 0, i64 11
  %116 = bitcast %"struct.llvm::cl::OptionEnumValue"* %115 to i8*
  call void @llvm.memcpy.p0i8.p0i8.i64(i8* align 8 %116, i8* nonnull align 8 %70, i64 40, i1 false)
  %117 = getelementptr inbounds [23 x %"struct.llvm::cl::OptionEnumValue"], [23 x %"struct.llvm::cl::OptionEnumValue"]* %25, i64 0, i64 12
  %118 = bitcast %"struct.llvm::cl::OptionEnumValue"* %117 to i8*
  call void @llvm.memcpy.p0i8.p0i8.i64(i8* align 8 %118, i8* nonnull align 8 %72, i64 40, i1 false)
  %119 = getelementptr inbounds [23 x %"struct.llvm::cl::OptionEnumValue"], [23 x %"struct.llvm::cl::OptionEnumValue"]* %25, i64 0, i64 13
  %120 = bitcast %"struct.llvm::cl::OptionEnumValue"* %119 to i8*
  call void @llvm.memcpy.p0i8.p0i8.i64(i8* align 8 %120, i8* nonnull align 8 %74, i64 40, i1 false)
  %121 = getelementptr inbounds [23 x %"struct.llvm::cl::OptionEnumValue"], [23 x %"struct.llvm::cl::OptionEnumValue"]* %25, i64 0, i64 14
  %122 = bitcast %"struct.llvm::cl::OptionEnumValue"* %121 to i8*
  call void @llvm.memcpy.p0i8.p0i8.i64(i8* align 8 %122, i8* nonnull align 8 %76, i64 40, i1 false)
  %123 = getelementptr inbounds [23 x %"struct.llvm::cl::OptionEnumValue"], [23 x %"struct.llvm::cl::OptionEnumValue"]* %25, i64 0, i64 15
  %124 = bitcast %"struct.llvm::cl::OptionEnumValue"* %123 to i8*
  call void @llvm.memcpy.p0i8.p0i8.i64(i8* align 8 %124, i8* nonnull align 8 %78, i64 40, i1 false)
  %125 = getelementptr inbounds [23 x %"struct.llvm::cl::OptionEnumValue"], [23 x %"struct.llvm::cl::OptionEnumValue"]* %25, i64 0, i64 16
  %126 = bitcast %"struct.llvm::cl::OptionEnumValue"* %125 to i8*
  call void @llvm.memcpy.p0i8.p0i8.i64(i8* align 8 %126, i8* nonnull align 8 %80, i64 40, i1 false)
  %127 = getelementptr inbounds [23 x %"struct.llvm::cl::OptionEnumValue"], [23 x %"struct.llvm::cl::OptionEnumValue"]* %25, i64 0, i64 17
  %128 = bitcast %"struct.llvm::cl::OptionEnumValue"* %127 to i8*
  call void @llvm.memcpy.p0i8.p0i8.i64(i8* align 8 %128, i8* nonnull align 8 %82, i64 40, i1 false)
  %129 = getelementptr inbounds [23 x %"struct.llvm::cl::OptionEnumValue"], [23 x %"struct.llvm::cl::OptionEnumValue"]* %25, i64 0, i64 18
  %130 = bitcast %"struct.llvm::cl::OptionEnumValue"* %129 to i8*
  call void @llvm.memcpy.p0i8.p0i8.i64(i8* align 8 %130, i8* nonnull align 8 %84, i64 40, i1 false)
  %131 = getelementptr inbounds [23 x %"struct.llvm::cl::OptionEnumValue"], [23 x %"struct.llvm::cl::OptionEnumValue"]* %25, i64 0, i64 19
  %132 = bitcast %"struct.llvm::cl::OptionEnumValue"* %131 to i8*
  call void @llvm.memcpy.p0i8.p0i8.i64(i8* align 8 %132, i8* nonnull align 8 %86, i64 40, i1 false)
  %133 = getelementptr inbounds [23 x %"struct.llvm::cl::OptionEnumValue"], [23 x %"struct.llvm::cl::OptionEnumValue"]* %25, i64 0, i64 20
  %134 = bitcast %"struct.llvm::cl::OptionEnumValue"* %133 to i8*
  call void @llvm.memcpy.p0i8.p0i8.i64(i8* align 8 %134, i8* nonnull align 8 %88, i64 40, i1 false)
  %135 = getelementptr inbounds [23 x %"struct.llvm::cl::OptionEnumValue"], [23 x %"struct.llvm::cl::OptionEnumValue"]* %25, i64 0, i64 21
  %136 = bitcast %"struct.llvm::cl::OptionEnumValue"* %135 to i8*
  call void @llvm.memcpy.p0i8.p0i8.i64(i8* align 8 %136, i8* nonnull align 8 %90, i64 40, i1 false)
  %137 = getelementptr inbounds [23 x %"struct.llvm::cl::OptionEnumValue"], [23 x %"struct.llvm::cl::OptionEnumValue"]* %25, i64 0, i64 22
  %138 = bitcast %"struct.llvm::cl::OptionEnumValue"* %137 to i8*
  call void @llvm.memcpy.p0i8.p0i8.i64(i8* align 8 %138, i8* align 8 %92, i64 40, i1 false)
  %139 = getelementptr inbounds %"class.llvm::cl::ValuesClass", %"class.llvm::cl::ValuesClass"* %0, i64 0, i32 0, i32 0
  %140 = getelementptr inbounds %"class.llvm::cl::ValuesClass", %"class.llvm::cl::ValuesClass"* %0, i64 0, i32 0, i32 0, i32 0, i32 0, i32 1, i32 0, i32 0, i64 0
  %141 = getelementptr inbounds %"class.llvm::cl::ValuesClass", %"class.llvm::cl::ValuesClass"* %0, i64 0, i32 0, i32 0, i32 0, i32 0, i32 0, i32 0
  store i8* %140, i8** %141, align 8, !alias.scope !5
  %142 = getelementptr inbounds %"class.llvm::cl::ValuesClass", %"class.llvm::cl::ValuesClass"* %0, i64 0, i32 0, i32 0, i32 0, i32 0, i32 0, i32 1
  %143 = getelementptr inbounds %"class.llvm::cl::ValuesClass", %"class.llvm::cl::ValuesClass"* %0, i64 0, i32 0, i32 0, i32 0, i32 0, i32 0, i32 2
  %144 = getelementptr inbounds %"class.llvm::cl::ValuesClass", %"class.llvm::cl::ValuesClass"* %0, i64 0, i32 0, i32 0, i32 0, i32 0, i32 1, i32 0, i32 0, i64 160
  store i8* %144, i8** %143, align 8, !alias.scope !5
  %145 = ptrtoint i8* %140 to i64
  %146 = bitcast i8** %142 to i64*
  store i64 %145, i64* %146, align 8, !alias.scope !5
  %147 = getelementptr inbounds [23 x %"struct.llvm::cl::OptionEnumValue"], [23 x %"struct.llvm::cl::OptionEnumValue"]* %25, i64 0, i64 23
  call void @_ZN4llvm15SmallVectorImplINS_2cl15OptionEnumValueEE6appendIPKS2_EEvT_S7_(%"class.llvm::SmallVectorImpl.19"* %139, %"struct.llvm::cl::OptionEnumValue"* nonnull %94, %"struct.llvm::cl::OptionEnumValue"* %147) #15
  call void @llvm.lifetime.end.p0i8(i64 920, i8* nonnull %93) #14, !noalias !5
  ret void
}

; Function Attrs: nounwind optsize ssp uwtable
define linkonce_odr hidden void @_ZN4llvm2cl4listIN3Ice11VerboseItemEbNS0_6parserIS3_EEEC2IJA8_cNS0_9MiscFlagsENS0_4descENS0_11ValuesClassEEEEDpRKT_(%"class.llvm::cl::list.149"*, [8 x i8]* dereferenceable(8), i32* dereferenceable(4), %"struct.llvm::cl::desc"* dereferenceable(16), %"class.llvm::cl::ValuesClass"* dereferenceable(184)) unnamed_addr #1 comdat align 2 {
  %6 = bitcast %"class.llvm::cl::list.149"* %0 to %"class.llvm::cl::Option"*
  %7 = getelementptr inbounds %"class.llvm::cl::list.149", %"class.llvm::cl::list.149"* %0, i64 0, i32 0, i32 0
  %8 = getelementptr inbounds %"class.llvm::cl::list.149", %"class.llvm::cl::list.149"* %0, i64 0, i32 0, i32 1
  store i32 0, i32* %8, align 8
  %9 = getelementptr inbounds %"class.llvm::cl::list.149", %"class.llvm::cl::list.149"* %0, i64 0, i32 0, i32 2
  %10 = load i16, i16* %9, align 4
  %11 = and i16 %10, -4096
  %12 = or i16 %11, 1
  store i16 %12, i16* %9, align 4
  %13 = getelementptr inbounds %"class.llvm::cl::list.149", %"class.llvm::cl::list.149"* %0, i64 0, i32 0, i32 4
  %14 = getelementptr inbounds %"class.llvm::cl::list.149", %"class.llvm::cl::list.149"* %0, i64 0, i32 0, i32 9
  %15 = bitcast i32* %13 to i8*
  tail call void @llvm.memset.p0i8.i64(i8* align 8 %15, i8 0, i64 56, i1 false) #14
  store %"class.llvm::cl::OptionCategory"* @_ZN4llvm2cl15GeneralCategoryE, %"class.llvm::cl::OptionCategory"** %14, align 8
  %16 = getelementptr inbounds %"class.llvm::cl::list.149", %"class.llvm::cl::list.149"* %0, i64 0, i32 0, i32 10, i32 1, i64 0
  %17 = getelementptr inbounds %"class.llvm::cl::list.149", %"class.llvm::cl::list.149"* %0, i64 0, i32 0, i32 10, i32 0, i32 0, i32 0
  store i8** %16, i8*** %17, align 8
  %18 = getelementptr inbounds %"class.llvm::cl::list.149", %"class.llvm::cl::list.149"* %0, i64 0, i32 0, i32 10, i32 0, i32 0, i32 1
  store i8** %16, i8*** %18, align 8
  %19 = getelementptr inbounds %"class.llvm::cl::list.149", %"class.llvm::cl::list.149"* %0, i64 0, i32 0, i32 10, i32 0, i32 0, i32 2
  store i32 4, i32* %19, align 8
  %20 = getelementptr inbounds %"class.llvm::cl::list.149", %"class.llvm::cl::list.149"* %0, i64 0, i32 0, i32 10, i32 0, i32 0, i32 3
  store i32 0, i32* %20, align 4
  %21 = getelementptr inbounds %"class.llvm::cl::list.149", %"class.llvm::cl::list.149"* %0, i64 0, i32 0, i32 10, i32 0, i32 0, i32 4
  store i32 0, i32* %21, align 8
  %22 = getelementptr inbounds %"class.llvm::cl::list.149", %"class.llvm::cl::list.149"* %0, i64 0, i32 0, i32 11
  store i8 0, i8* %22, align 8
  %23 = getelementptr inbounds %"class.llvm::cl::list.149", %"class.llvm::cl::list.149"* %0, i64 0, i32 1
  %24 = bitcast %"class.llvm::cl::list_storage.150"* %23 to i8*
  tail call void @llvm.memset.p0i8.i64(i8* align 8 %24, i8 0, i64 24, i1 false) #14
  store i32 (...)** bitcast (i8** getelementptr inbounds ({ [12 x i8*] }, { [12 x i8*] }* @_ZTVN4llvm2cl4listIN3Ice11VerboseItemEbNS0_6parserIS3_EEEE, i64 0, inrange i32 0, i64 2) to i32 (...)**), i32 (...)*** %7, align 8
  %25 = getelementptr inbounds %"class.llvm::cl::list.149", %"class.llvm::cl::list.149"* %0, i64 0, i32 2
  %26 = bitcast %"class.std::__1::vector.72"* %25 to i8*
  tail call void @llvm.memset.p0i8.i64(i8* align 8 %26, i8 0, i64 24, i1 false) #14
  %27 = getelementptr inbounds %"class.llvm::cl::list.149", %"class.llvm::cl::list.149"* %0, i64 0, i32 3, i32 0, i32 0
  %28 = getelementptr inbounds %"class.llvm::cl::list.149", %"class.llvm::cl::list.149"* %0, i64 0, i32 3, i32 0, i32 1
  %29 = bitcast %"class.llvm::cl::Option"** %28 to %"class.llvm::cl::list.149"**
  store %"class.llvm::cl::list.149"* %0, %"class.llvm::cl::list.149"** %29, align 8
  store i32 (...)** bitcast (i8** getelementptr inbounds ({ [10 x i8*] }, { [10 x i8*] }* @_ZTVN4llvm2cl6parserIN3Ice11VerboseItemEEE, i64 0, inrange i32 0, i64 2) to i32 (...)**), i32 (...)*** %27, align 8
  %30 = getelementptr inbounds %"class.llvm::cl::list.149", %"class.llvm::cl::list.149"* %0, i64 0, i32 3, i32 1, i32 0, i32 0, i32 0, i32 1, i32 0, i32 0, i64 0
  %31 = getelementptr inbounds %"class.llvm::cl::list.149", %"class.llvm::cl::list.149"* %0, i64 0, i32 3, i32 1, i32 0, i32 0, i32 0, i32 0, i32 0
  store i8* %30, i8** %31, align 8
  %32 = getelementptr inbounds %"class.llvm::cl::list.149", %"class.llvm::cl::list.149"* %0, i64 0, i32 3, i32 1, i32 0, i32 0, i32 0, i32 0, i32 1
  store i8* %30, i8** %32, align 8
  %33 = getelementptr inbounds %"class.llvm::cl::list.149", %"class.llvm::cl::list.149"* %0, i64 0, i32 3, i32 1, i32 0, i32 0, i32 0, i32 0, i32 2
  %34 = getelementptr inbounds %"class.llvm::cl::list.149", %"class.llvm::cl::list.149"* %0, i64 0, i32 3, i32 1, i32 0, i32 0, i32 0, i32 1, i32 0, i32 0, i64 384
  store i8* %34, i8** %33, align 8
  tail call void @_ZN4llvm2cl5applyINS0_4listIN3Ice11VerboseItemEbNS0_6parserIS4_EEEEA8_cJNS0_9MiscFlagsENS0_4descENS0_11ValuesClassEEEEvPT_RKT0_DpRKT1_(%"class.llvm::cl::list.149"* %0, [8 x i8]* dereferenceable(8) %1, i32* dereferenceable(4) %2, %"struct.llvm::cl::desc"* dereferenceable(16) %3, %"class.llvm::cl::ValuesClass"* dereferenceable(184) %4) #17
  tail call void @_ZN4llvm2cl6Option11addArgumentEv(%"class.llvm::cl::Option"* %6) #15
  ret void
}

; Function Attrs: inlinehint nounwind optsize ssp uwtable
define linkonce_odr hidden void @_ZN4llvm2cl4listIN3Ice11VerboseItemEbNS0_6parserIS3_EEED2Ev(%"class.llvm::cl::list.149"*) unnamed_addr #2 comdat align 2 {
  %2 = getelementptr inbounds %"class.llvm::cl::list.149", %"class.llvm::cl::list.149"* %0, i64 0, i32 0, i32 0
  store i32 (...)** bitcast (i8** getelementptr inbounds ({ [12 x i8*] }, { [12 x i8*] }* @_ZTVN4llvm2cl4listIN3Ice11VerboseItemEbNS0_6parserIS3_EEEE, i64 0, inrange i32 0, i64 2) to i32 (...)**), i32 (...)*** %2, align 8
  %3 = getelementptr inbounds %"class.llvm::cl::list.149", %"class.llvm::cl::list.149"* %0, i64 0, i32 3, i32 0, i32 0
  store i32 (...)** bitcast (i8** getelementptr inbounds ({ [10 x i8*] }, { [10 x i8*] }* @_ZTVN4llvm2cl6parserIN3Ice11VerboseItemEEE, i64 0, inrange i32 0, i64 2) to i32 (...)**), i32 (...)*** %3, align 8
  %4 = getelementptr inbounds %"class.llvm::cl::list.149", %"class.llvm::cl::list.149"* %0, i64 0, i32 3, i32 1, i32 0, i32 0, i32 0, i32 0, i32 0
  %5 = load i8*, i8** %4, align 8
  %6 = getelementptr inbounds %"class.llvm::cl::list.149", %"class.llvm::cl::list.149"* %0, i64 0, i32 3, i32 1, i32 0, i32 0, i32 0, i32 1, i32 0, i32 0, i64 0
  %7 = icmp eq i8* %5, %6
  br i1 %7, label %9, label %8

8:                                                ; preds = %1
  tail call void @free(i8* %5) #15
  br label %9

9:                                                ; preds = %1, %8
  %10 = getelementptr inbounds %"class.llvm::cl::list.149", %"class.llvm::cl::list.149"* %0, i64 0, i32 2, i32 0, i32 0
  %11 = load i32*, i32** %10, align 8
  %12 = icmp eq i32* %11, null
  br i1 %12, label %18, label %13

13:                                               ; preds = %9
  %14 = ptrtoint i32* %11 to i64
  %15 = getelementptr inbounds %"class.llvm::cl::list.149", %"class.llvm::cl::list.149"* %0, i64 0, i32 2, i32 0, i32 1
  %16 = bitcast i32** %15 to i64*
  store i64 %14, i64* %16, align 8
  %17 = bitcast i32* %11 to i8*
  tail call void @_ZdlPv(i8* %17) #16
  br label %18

18:                                               ; preds = %9, %13
  %19 = getelementptr inbounds %"class.llvm::cl::list.149", %"class.llvm::cl::list.149"* %0, i64 0, i32 1, i32 0, i32 0, i32 0
  %20 = load i32*, i32** %19, align 8
  %21 = icmp eq i32* %20, null
  br i1 %21, label %27, label %22

22:                                               ; preds = %18
  %23 = ptrtoint i32* %20 to i64
  %24 = getelementptr inbounds %"class.llvm::cl::list.149", %"class.llvm::cl::list.149"* %0, i64 0, i32 1, i32 0, i32 0, i32 1
  %25 = bitcast i32** %24 to i64*
  store i64 %23, i64* %25, align 8
  %26 = bitcast i32* %20 to i8*
  tail call void @_ZdlPv(i8* %26) #16
  br label %27

27:                                               ; preds = %18, %22
  store i32 (...)** bitcast (i8** getelementptr inbounds ({ [12 x i8*] }, { [12 x i8*] }* @_ZTVN4llvm2cl6OptionE, i64 0, inrange i32 0, i64 2) to i32 (...)**), i32 (...)*** %2, align 8
  %28 = getelementptr inbounds %"class.llvm::cl::list.149", %"class.llvm::cl::list.149"* %0, i64 0, i32 0, i32 10, i32 0, i32 0, i32 1
  %29 = load i8**, i8*** %28, align 8
  %30 = getelementptr inbounds %"class.llvm::cl::list.149", %"class.llvm::cl::list.149"* %0, i64 0, i32 0, i32 10, i32 0, i32 0, i32 0
  %31 = load i8**, i8*** %30, align 8
  %32 = icmp eq i8** %29, %31
  br i1 %32, label %35, label %33

33:                                               ; preds = %27
  %34 = bitcast i8** %29 to i8*
  tail call void @free(i8* %34) #15
  br label %35

35:                                               ; preds = %27, %33
  ret void
}

; Function Attrs: nounwind optsize ssp uwtable
define linkonce_odr hidden void @_ZN4llvm2cl3optINSt3__112basic_stringIcNS2_11char_traitsIcEENS2_9allocatorIcEEEELb0ENS0_6parserIS8_EEEC2IJA14_cNS0_4descENS0_11initializerIA2_cEEEEEDpRKT_(%"class.llvm::cl::opt"*, [14 x i8]* dereferenceable(14), %"struct.llvm::cl::desc"* dereferenceable(16), %"struct.llvm::cl::initializer"* dereferenceable(8)) unnamed_addr #1 comdat align 2 {
  %5 = bitcast %"class.llvm::cl::opt"* %0 to %"class.llvm::cl::Option"*
  %6 = getelementptr inbounds %"class.llvm::cl::opt", %"class.llvm::cl::opt"* %0, i64 0, i32 0, i32 0
  %7 = getelementptr inbounds %"class.llvm::cl::opt", %"class.llvm::cl::opt"* %0, i64 0, i32 0, i32 1
  store i32 0, i32* %7, align 8
  %8 = getelementptr inbounds %"class.llvm::cl::opt", %"class.llvm::cl::opt"* %0, i64 0, i32 0, i32 2
  %9 = load i16, i16* %8, align 4
  %10 = and i16 %9, -4096
  store i16 %10, i16* %8, align 4
  %11 = getelementptr inbounds %"class.llvm::cl::opt", %"class.llvm::cl::opt"* %0, i64 0, i32 0, i32 4
  %12 = getelementptr inbounds %"class.llvm::cl::opt", %"class.llvm::cl::opt"* %0, i64 0, i32 0, i32 9
  %13 = bitcast i32* %11 to i8*
  tail call void @llvm.memset.p0i8.i64(i8* align 8 %13, i8 0, i64 56, i1 false) #14
  store %"class.llvm::cl::OptionCategory"* @_ZN4llvm2cl15GeneralCategoryE, %"class.llvm::cl::OptionCategory"** %12, align 8
  %14 = getelementptr inbounds %"class.llvm::cl::opt", %"class.llvm::cl::opt"* %0, i64 0, i32 0, i32 10, i32 1, i64 0
  %15 = getelementptr inbounds %"class.llvm::cl::opt", %"class.llvm::cl::opt"* %0, i64 0, i32 0, i32 10, i32 0, i32 0, i32 0
  store i8** %14, i8*** %15, align 8
  %16 = getelementptr inbounds %"class.llvm::cl::opt", %"class.llvm::cl::opt"* %0, i64 0, i32 0, i32 10, i32 0, i32 0, i32 1
  store i8** %14, i8*** %16, align 8
  %17 = getelementptr inbounds %"class.llvm::cl::opt", %"class.llvm::cl::opt"* %0, i64 0, i32 0, i32 10, i32 0, i32 0, i32 2
  store i32 4, i32* %17, align 8
  %18 = getelementptr inbounds %"class.llvm::cl::opt", %"class.llvm::cl::opt"* %0, i64 0, i32 0, i32 10, i32 0, i32 0, i32 3
  store i32 0, i32* %18, align 4
  %19 = getelementptr inbounds %"class.llvm::cl::opt", %"class.llvm::cl::opt"* %0, i64 0, i32 0, i32 10, i32 0, i32 0, i32 4
  store i32 0, i32* %19, align 8
  %20 = getelementptr inbounds %"class.llvm::cl::opt", %"class.llvm::cl::opt"* %0, i64 0, i32 0, i32 11
  store i8 0, i8* %20, align 8
  %21 = getelementptr inbounds %"class.llvm::cl::opt", %"class.llvm::cl::opt"* %0, i64 0, i32 1
  %22 = bitcast %"class.llvm::cl::opt_storage"* %21 to i8*
  tail call void @llvm.memset.p0i8.i64(i8* align 8 %22, i8 0, i64 24, i1 false) #14
  %23 = getelementptr inbounds %"class.llvm::cl::opt", %"class.llvm::cl::opt"* %0, i64 0, i32 1, i32 1, i32 0, i32 0, i32 0
  %24 = getelementptr inbounds %"class.llvm::cl::opt", %"class.llvm::cl::opt"* %0, i64 0, i32 1, i32 1, i32 0, i32 1
  %25 = bitcast %"class.std::__1::basic_string"* %24 to i8*
  tail call void @llvm.memset.p0i8.i64(i8* align 8 %25, i8 0, i64 25, i1 false) #14
  store i32 (...)** bitcast (i8** getelementptr inbounds ({ [4 x i8*] }, { [4 x i8*] }* @_ZTVN4llvm2cl11OptionValueINSt3__112basic_stringIcNS2_11char_traitsIcEENS2_9allocatorIcEEEEEE, i64 0, inrange i32 0, i64 2) to i32 (...)**), i32 (...)*** %23, align 8
  store i32 (...)** bitcast (i8** getelementptr inbounds ({ [12 x i8*] }, { [12 x i8*] }* @_ZTVN4llvm2cl3optINSt3__112basic_stringIcNS2_11char_traitsIcEENS2_9allocatorIcEEEELb0ENS0_6parserIS8_EEEE, i64 0, inrange i32 0, i64 2) to i32 (...)**), i32 (...)*** %6, align 8
  %26 = getelementptr inbounds %"class.llvm::cl::opt", %"class.llvm::cl::opt"* %0, i64 0, i32 2, i32 0, i32 0, i32 0
  store i32 (...)** bitcast (i8** getelementptr inbounds ({ [4 x i8*] }, { [4 x i8*] }* @_ZTVN4llvm2cl6parserINSt3__112basic_stringIcNS2_11char_traitsIcEENS2_9allocatorIcEEEEEE, i64 0, inrange i32 0, i64 2) to i32 (...)**), i32 (...)*** %26, align 8
  tail call void @_ZN4llvm2cl5applyINS0_3optINSt3__112basic_stringIcNS3_11char_traitsIcEENS3_9allocatorIcEEEELb0ENS0_6parserIS9_EEEEA14_cJNS0_4descENS0_11initializerIA2_cEEEEEvPT_RKT0_DpRKT1_(%"class.llvm::cl::opt"* %0, [14 x i8]* dereferenceable(14) %1, %"struct.llvm::cl::desc"* dereferenceable(16) %2, %"struct.llvm::cl::initializer"* dereferenceable(8) %3) #17
  tail call void @_ZN4llvm2cl6Option11addArgumentEv(%"class.llvm::cl::Option"* %5) #15
  ret void
}

; Function Attrs: nounwind optsize ssp uwtable
define linkonce_odr hidden void @_ZN4llvm2cl5aliasC2IJA13_cNS0_4descENS0_12OptionHiddenENS0_8aliasoptEEEEDpRKT_(%"class.llvm::cl::alias"*, [13 x i8]* dereferenceable(13), %"struct.llvm::cl::desc"* dereferenceable(16), i32* dereferenceable(4), %"struct.llvm::cl::aliasopt"* dereferenceable(8)) unnamed_addr #1 comdat align 2 {
  %6 = getelementptr inbounds %"class.llvm::cl::alias", %"class.llvm::cl::alias"* %0, i64 0, i32 0, i32 0
  %7 = getelementptr inbounds %"class.llvm::cl::alias", %"class.llvm::cl::alias"* %0, i64 0, i32 0, i32 1
  store i32 0, i32* %7, align 8
  %8 = getelementptr inbounds %"class.llvm::cl::alias", %"class.llvm::cl::alias"* %0, i64 0, i32 0, i32 2
  %9 = load i16, i16* %8, align 4
  %10 = and i16 %9, -4096
  %11 = or i16 %10, 32
  store i16 %11, i16* %8, align 4
  %12 = getelementptr inbounds %"class.llvm::cl::alias", %"class.llvm::cl::alias"* %0, i64 0, i32 0, i32 4
  %13 = getelementptr inbounds %"class.llvm::cl::alias", %"class.llvm::cl::alias"* %0, i64 0, i32 0, i32 9
  %14 = bitcast i32* %12 to i8*
  tail call void @llvm.memset.p0i8.i64(i8* align 8 %14, i8 0, i64 56, i1 false) #14
  store %"class.llvm::cl::OptionCategory"* @_ZN4llvm2cl15GeneralCategoryE, %"class.llvm::cl::OptionCategory"** %13, align 8
  %15 = getelementptr inbounds %"class.llvm::cl::alias", %"class.llvm::cl::alias"* %0, i64 0, i32 0, i32 10, i32 1, i64 0
  %16 = getelementptr inbounds %"class.llvm::cl::alias", %"class.llvm::cl::alias"* %0, i64 0, i32 0, i32 10, i32 0, i32 0, i32 0
  store i8** %15, i8*** %16, align 8
  %17 = getelementptr inbounds %"class.llvm::cl::alias", %"class.llvm::cl::alias"* %0, i64 0, i32 0, i32 10, i32 0, i32 0, i32 1
  store i8** %15, i8*** %17, align 8
  %18 = getelementptr inbounds %"class.llvm::cl::alias", %"class.llvm::cl::alias"* %0, i64 0, i32 0, i32 10, i32 0, i32 0, i32 2
  store i32 4, i32* %18, align 8
  %19 = getelementptr inbounds %"class.llvm::cl::alias", %"class.llvm::cl::alias"* %0, i64 0, i32 0, i32 10, i32 0, i32 0, i32 3
  store i32 0, i32* %19, align 4
  %20 = getelementptr inbounds %"class.llvm::cl::alias", %"class.llvm::cl::alias"* %0, i64 0, i32 0, i32 10, i32 0, i32 0, i32 4
  store i32 0, i32* %20, align 8
  %21 = getelementptr inbounds %"class.llvm::cl::alias", %"class.llvm::cl::alias"* %0, i64 0, i32 0, i32 11
  store i8 0, i8* %21, align 8
  store i32 (...)** bitcast (i8** getelementptr inbounds ({ [12 x i8*] }, { [12 x i8*] }* @_ZTVN4llvm2cl5aliasE, i64 0, inrange i32 0, i64 2) to i32 (...)**), i32 (...)*** %6, align 8
  %22 = getelementptr inbounds %"class.llvm::cl::alias", %"class.llvm::cl::alias"* %0, i64 0, i32 1
  store %"class.llvm::cl::Option"* null, %"class.llvm::cl::Option"** %22, align 8
  tail call void @_ZN4llvm2cl5applyINS0_5aliasEA13_cJNS0_4descENS0_12OptionHiddenENS0_8aliasoptEEEEvPT_RKT0_DpRKT1_(%"class.llvm::cl::alias"* %0, [13 x i8]* dereferenceable(13) %1, %"struct.llvm::cl::desc"* dereferenceable(16) %2, i32* dereferenceable(4) %3, %"struct.llvm::cl::aliasopt"* dereferenceable(8) %4) #17
  tail call void @_ZN4llvm2cl5alias4doneEv(%"class.llvm::cl::alias"* %0) #17
  ret void
}

; Function Attrs: inlinehint nounwind optsize ssp uwtable
declare void @_ZNSt3__112basic_stringIcNS_11char_traitsIcEENS_9allocatorIcEEED2Ev(%"class.std::__1::basic_string"*) unnamed_addr #2 align 2

; Function Attrs: nounwind optsize ssp uwtable
define linkonce_odr hidden void @_ZN3Ice7ClFlagsC2Ev(%"class.Ice::ClFlags"*) unnamed_addr #1 comdat align 2 {
  %2 = bitcast %"class.Ice::ClFlags"* %0 to i8*
  tail call void @llvm.memset.p0i8.i64(i8* align 8 %2, i8 0, i64 24, i1 false) #14
  %3 = getelementptr inbounds %"class.Ice::ClFlags", %"class.Ice::ClFlags"* %0, i64 0, i32 3
  %4 = bitcast %"class.std::__1::basic_string"* %3 to i8*
  tail call void @llvm.memset.p0i8.i64(i8* align 8 %4, i8 0, i64 24, i1 false) #14
  %5 = getelementptr inbounds %"class.Ice::ClFlags", %"class.Ice::ClFlags"* %0, i64 0, i32 15
  %6 = getelementptr inbounds %"class.Ice::ClFlags", %"class.Ice::ClFlags"* %0, i64 0, i32 27
  %7 = bitcast %"class.std::__1::vector"* %6 to i8*
  tail call void @llvm.memset.p0i8.i64(i8* align 8 %7, i8 0, i64 24, i1 false) #14
  %8 = getelementptr inbounds %"class.Ice::ClFlags", %"class.Ice::ClFlags"* %0, i64 0, i32 29
  %9 = getelementptr inbounds %"class.Ice::ClFlags", %"class.Ice::ClFlags"* %0, i64 0, i32 39
  %10 = bitcast %"class.std::__1::basic_string"* %9 to i8*
  tail call void @llvm.memset.p0i8.i64(i8* align 8 %10, i8 0, i64 24, i1 false) #14
  %11 = getelementptr inbounds %"class.Ice::ClFlags", %"class.Ice::ClFlags"* %0, i64 0, i32 53
  %12 = bitcast %"class.std::__1::basic_string"* %11 to i8*
  tail call void @llvm.memset.p0i8.i64(i8* align 8 %12, i8 0, i64 24, i1 false) #14
  %13 = getelementptr inbounds %"class.Ice::ClFlags", %"class.Ice::ClFlags"* %0, i64 0, i32 55
  %14 = bitcast %"class.std::__1::basic_string"* %13 to i8*
  tail call void @llvm.memset.p0i8.i64(i8* align 8 %14, i8 0, i64 24, i1 false) #14
  %15 = getelementptr inbounds %"class.Ice::ClFlags", %"class.Ice::ClFlags"* %0, i64 0, i32 57
  %16 = getelementptr inbounds %"class.Ice::ClFlags", %"class.Ice::ClFlags"* %0, i64 0, i32 60
  %17 = bitcast %"class.std::__1::vector"* %16 to i8*
  tail call void @llvm.memset.p0i8.i64(i8* align 8 %17, i8 0, i64 24, i1 false) #14
  %18 = getelementptr inbounds %"class.Ice::ClFlags", %"class.Ice::ClFlags"* %0, i64 0, i32 63
  %19 = bitcast %"class.std::__1::basic_string"* %18 to i8*
  tail call void @llvm.memset.p0i8.i64(i8* align 8 %19, i8 0, i64 24, i1 false) #14
  %20 = getelementptr inbounds %"class.Ice::ClFlags", %"class.Ice::ClFlags"* %0, i64 0, i32 65
  %21 = bitcast %"class.std::__1::basic_string"* %20 to i8*
  tail call void @llvm.memset.p0i8.i64(i8* align 8 %21, i8 0, i64 24, i1 false) #14
  %22 = getelementptr inbounds %"class.Ice::ClFlags", %"class.Ice::ClFlags"* %0, i64 0, i32 68
  %23 = getelementptr inbounds %"class.Ice::ClFlags", %"class.Ice::ClFlags"* %0, i64 0, i32 68, i32 0, i32 0, i32 0, i32 3
  %24 = bitcast %"class.std::__1::__compressed_pair.180"* %23 to i32*
  %25 = bitcast %"class.Ice::RangeSpec"* %22 to i8*
  tail call void @llvm.memset.p0i8.i64(i8* align 8 %25, i8 0, i64 32, i1 false) #14
  %26 = bitcast %"class.std::__1::basic_string"* %5 to i8*
  call void @llvm.memset.p0i8.i64(i8* align 8 %26, i8 0, i64 48, i1 false)
  %27 = bitcast %"class.std::__1::basic_string"* %8 to i8*
  call void @llvm.memset.p0i8.i64(i8* align 8 %27, i8 0, i64 48, i1 false)
  %28 = bitcast %"class.std::__1::basic_string"* %15 to i8*
  call void @llvm.memset.p0i8.i64(i8* align 8 %28, i8 0, i64 48, i1 false)
  store i32 1065353216, i32* %24, align 4
  %29 = getelementptr inbounds %"class.Ice::ClFlags", %"class.Ice::ClFlags"* %0, i64 0, i32 68, i32 0, i32 1
  %30 = bitcast %"class.llvm::BitVector"* %29 to i8*
  tail call void @llvm.memset.p0i8.i64(i8* align 8 %30, i8 0, i64 16, i1 false) #14
  %31 = getelementptr inbounds %"class.Ice::ClFlags", %"class.Ice::ClFlags"* %0, i64 0, i32 68, i32 0, i32 2
  store i32 -1, i32* %31, align 8
  %32 = getelementptr inbounds %"class.Ice::ClFlags", %"class.Ice::ClFlags"* %0, i64 0, i32 68, i32 0, i32 3
  store i8 0, i8* %32, align 4
  %33 = getelementptr inbounds %"class.Ice::ClFlags", %"class.Ice::ClFlags"* %0, i64 0, i32 68, i32 1
  %34 = getelementptr inbounds %"class.Ice::ClFlags", %"class.Ice::ClFlags"* %0, i64 0, i32 68, i32 1, i32 0, i32 0, i32 3
  %35 = bitcast %"class.std::__1::__compressed_pair.180"* %34 to i32*
  %36 = bitcast %"struct.Ice::RangeSpec::Desc"* %33 to i8*
  tail call void @llvm.memset.p0i8.i64(i8* align 8 %36, i8 0, i64 32, i1 false) #14
  store i32 1065353216, i32* %35, align 4
  %37 = getelementptr inbounds %"class.Ice::ClFlags", %"class.Ice::ClFlags"* %0, i64 0, i32 68, i32 1, i32 1
  %38 = bitcast %"class.llvm::BitVector"* %37 to i8*
  tail call void @llvm.memset.p0i8.i64(i8* align 8 %38, i8 0, i64 16, i1 false) #14
  %39 = getelementptr inbounds %"class.Ice::ClFlags", %"class.Ice::ClFlags"* %0, i64 0, i32 68, i32 1, i32 2
  store i32 -1, i32* %39, align 8
  %40 = getelementptr inbounds %"class.Ice::ClFlags", %"class.Ice::ClFlags"* %0, i64 0, i32 68, i32 1, i32 3
  store i8 0, i8* %40, align 4
  %41 = getelementptr inbounds %"class.Ice::ClFlags", %"class.Ice::ClFlags"* %0, i64 0, i32 69
  %42 = getelementptr inbounds %"class.Ice::ClFlags", %"class.Ice::ClFlags"* %0, i64 0, i32 69, i32 0, i32 0, i32 0, i32 3
  %43 = bitcast %"class.std::__1::__compressed_pair.180"* %42 to i32*
  %44 = bitcast %"class.Ice::RangeSpec"* %41 to i8*
  tail call void @llvm.memset.p0i8.i64(i8* align 8 %44, i8 0, i64 32, i1 false) #14
  store i32 1065353216, i32* %43, align 4
  %45 = getelementptr inbounds %"class.Ice::ClFlags", %"class.Ice::ClFlags"* %0, i64 0, i32 69, i32 0, i32 1
  %46 = bitcast %"class.llvm::BitVector"* %45 to i8*
  tail call void @llvm.memset.p0i8.i64(i8* align 8 %46, i8 0, i64 16, i1 false) #14
  %47 = getelementptr inbounds %"class.Ice::ClFlags", %"class.Ice::ClFlags"* %0, i64 0, i32 69, i32 0, i32 2
  store i32 -1, i32* %47, align 8
  %48 = getelementptr inbounds %"class.Ice::ClFlags", %"class.Ice::ClFlags"* %0, i64 0, i32 69, i32 0, i32 3
  store i8 0, i8* %48, align 4
  %49 = getelementptr inbounds %"class.Ice::ClFlags", %"class.Ice::ClFlags"* %0, i64 0, i32 69, i32 1
  %50 = getelementptr inbounds %"class.Ice::ClFlags", %"class.Ice::ClFlags"* %0, i64 0, i32 69, i32 1, i32 0, i32 0, i32 3
  %51 = bitcast %"class.std::__1::__compressed_pair.180"* %50 to i32*
  %52 = bitcast %"struct.Ice::RangeSpec::Desc"* %49 to i8*
  tail call void @llvm.memset.p0i8.i64(i8* align 8 %52, i8 0, i64 32, i1 false) #14
  store i32 1065353216, i32* %51, align 4
  %53 = getelementptr inbounds %"class.Ice::ClFlags", %"class.Ice::ClFlags"* %0, i64 0, i32 69, i32 1, i32 1
  %54 = bitcast %"class.llvm::BitVector"* %53 to i8*
  tail call void @llvm.memset.p0i8.i64(i8* align 8 %54, i8 0, i64 16, i1 false) #14
  %55 = getelementptr inbounds %"class.Ice::ClFlags", %"class.Ice::ClFlags"* %0, i64 0, i32 69, i32 1, i32 2
  store i32 -1, i32* %55, align 8
  %56 = getelementptr inbounds %"class.Ice::ClFlags", %"class.Ice::ClFlags"* %0, i64 0, i32 69, i32 1, i32 3
  store i8 0, i8* %56, align 4
  %57 = getelementptr inbounds %"class.Ice::ClFlags", %"class.Ice::ClFlags"* %0, i64 0, i32 70
  %58 = getelementptr inbounds %"class.Ice::ClFlags", %"class.Ice::ClFlags"* %0, i64 0, i32 70, i32 0, i32 0, i32 0, i32 3
  %59 = bitcast %"class.std::__1::__compressed_pair.180"* %58 to i32*
  %60 = bitcast %"class.Ice::RangeSpec"* %57 to i8*
  tail call void @llvm.memset.p0i8.i64(i8* align 8 %60, i8 0, i64 32, i1 false) #14
  store i32 1065353216, i32* %59, align 4
  %61 = getelementptr inbounds %"class.Ice::ClFlags", %"class.Ice::ClFlags"* %0, i64 0, i32 70, i32 0, i32 1
  %62 = bitcast %"class.llvm::BitVector"* %61 to i8*
  tail call void @llvm.memset.p0i8.i64(i8* align 8 %62, i8 0, i64 16, i1 false) #14
  %63 = getelementptr inbounds %"class.Ice::ClFlags", %"class.Ice::ClFlags"* %0, i64 0, i32 70, i32 0, i32 2
  store i32 -1, i32* %63, align 8
  %64 = getelementptr inbounds %"class.Ice::ClFlags", %"class.Ice::ClFlags"* %0, i64 0, i32 70, i32 0, i32 3
  store i8 0, i8* %64, align 4
  %65 = getelementptr inbounds %"class.Ice::ClFlags", %"class.Ice::ClFlags"* %0, i64 0, i32 70, i32 1
  %66 = getelementptr inbounds %"class.Ice::ClFlags", %"class.Ice::ClFlags"* %0, i64 0, i32 70, i32 1, i32 0, i32 0, i32 3
  %67 = bitcast %"class.std::__1::__compressed_pair.180"* %66 to i32*
  %68 = bitcast %"struct.Ice::RangeSpec::Desc"* %65 to i8*
  tail call void @llvm.memset.p0i8.i64(i8* align 8 %68, i8 0, i64 32, i1 false) #14
  store i32 1065353216, i32* %67, align 4
  %69 = getelementptr inbounds %"class.Ice::ClFlags", %"class.Ice::ClFlags"* %0, i64 0, i32 70, i32 1, i32 1
  %70 = bitcast %"class.llvm::BitVector"* %69 to i8*
  tail call void @llvm.memset.p0i8.i64(i8* align 8 %70, i8 0, i64 16, i1 false) #14
  %71 = getelementptr inbounds %"class.Ice::ClFlags", %"class.Ice::ClFlags"* %0, i64 0, i32 70, i32 1, i32 2
  store i32 -1, i32* %71, align 8
  %72 = getelementptr inbounds %"class.Ice::ClFlags", %"class.Ice::ClFlags"* %0, i64 0, i32 70, i32 1, i32 3
  store i8 0, i8* %72, align 4
  %73 = getelementptr inbounds %"class.Ice::ClFlags", %"class.Ice::ClFlags"* %0, i64 0, i32 71
  %74 = getelementptr inbounds %"class.Ice::ClFlags", %"class.Ice::ClFlags"* %0, i64 0, i32 71, i32 0, i32 0, i32 0, i32 3
  %75 = bitcast %"class.std::__1::__compressed_pair.180"* %74 to i32*
  %76 = bitcast %"class.Ice::RangeSpec"* %73 to i8*
  tail call void @llvm.memset.p0i8.i64(i8* align 8 %76, i8 0, i64 32, i1 false) #14
  store i32 1065353216, i32* %75, align 4
  %77 = getelementptr inbounds %"class.Ice::ClFlags", %"class.Ice::ClFlags"* %0, i64 0, i32 71, i32 0, i32 1
  %78 = bitcast %"class.llvm::BitVector"* %77 to i8*
  tail call void @llvm.memset.p0i8.i64(i8* align 8 %78, i8 0, i64 16, i1 false) #14
  %79 = getelementptr inbounds %"class.Ice::ClFlags", %"class.Ice::ClFlags"* %0, i64 0, i32 71, i32 0, i32 2
  store i32 -1, i32* %79, align 8
  %80 = getelementptr inbounds %"class.Ice::ClFlags", %"class.Ice::ClFlags"* %0, i64 0, i32 71, i32 0, i32 3
  store i8 0, i8* %80, align 4
  %81 = getelementptr inbounds %"class.Ice::ClFlags", %"class.Ice::ClFlags"* %0, i64 0, i32 71, i32 1
  %82 = getelementptr inbounds %"class.Ice::ClFlags", %"class.Ice::ClFlags"* %0, i64 0, i32 71, i32 1, i32 0, i32 0, i32 3
  %83 = bitcast %"class.std::__1::__compressed_pair.180"* %82 to i32*
  %84 = bitcast %"struct.Ice::RangeSpec::Desc"* %81 to i8*
  tail call void @llvm.memset.p0i8.i64(i8* align 8 %84, i8 0, i64 32, i1 false) #14
  store i32 1065353216, i32* %83, align 4
  %85 = getelementptr inbounds %"class.Ice::ClFlags", %"class.Ice::ClFlags"* %0, i64 0, i32 71, i32 1, i32 1
  %86 = bitcast %"class.llvm::BitVector"* %85 to i8*
  tail call void @llvm.memset.p0i8.i64(i8* align 8 %86, i8 0, i64 16, i1 false) #14
  %87 = getelementptr inbounds %"class.Ice::ClFlags", %"class.Ice::ClFlags"* %0, i64 0, i32 71, i32 1, i32 2
  store i32 -1, i32* %87, align 8
  %88 = getelementptr inbounds %"class.Ice::ClFlags", %"class.Ice::ClFlags"* %0, i64 0, i32 71, i32 1, i32 3
  store i8 0, i8* %88, align 4
  %89 = getelementptr inbounds %"class.Ice::ClFlags", %"class.Ice::ClFlags"* %0, i64 0, i32 72
  %90 = getelementptr inbounds %"class.Ice::ClFlags", %"class.Ice::ClFlags"* %0, i64 0, i32 72, i32 0, i32 0, i32 0, i32 3
  %91 = bitcast %"class.std::__1::__compressed_pair.180"* %90 to i32*
  %92 = bitcast %"class.Ice::RangeSpec"* %89 to i8*
  tail call void @llvm.memset.p0i8.i64(i8* align 8 %92, i8 0, i64 32, i1 false) #14
  store i32 1065353216, i32* %91, align 4
  %93 = getelementptr inbounds %"class.Ice::ClFlags", %"class.Ice::ClFlags"* %0, i64 0, i32 72, i32 0, i32 1
  %94 = bitcast %"class.llvm::BitVector"* %93 to i8*
  tail call void @llvm.memset.p0i8.i64(i8* align 8 %94, i8 0, i64 16, i1 false) #14
  %95 = getelementptr inbounds %"class.Ice::ClFlags", %"class.Ice::ClFlags"* %0, i64 0, i32 72, i32 0, i32 2
  store i32 -1, i32* %95, align 8
  %96 = getelementptr inbounds %"class.Ice::ClFlags", %"class.Ice::ClFlags"* %0, i64 0, i32 72, i32 0, i32 3
  store i8 0, i8* %96, align 4
  %97 = getelementptr inbounds %"class.Ice::ClFlags", %"class.Ice::ClFlags"* %0, i64 0, i32 72, i32 1
  %98 = getelementptr inbounds %"class.Ice::ClFlags", %"class.Ice::ClFlags"* %0, i64 0, i32 72, i32 1, i32 0, i32 0, i32 3
  %99 = bitcast %"class.std::__1::__compressed_pair.180"* %98 to i32*
  %100 = bitcast %"struct.Ice::RangeSpec::Desc"* %97 to i8*
  tail call void @llvm.memset.p0i8.i64(i8* align 8 %100, i8 0, i64 32, i1 false) #14
  store i32 1065353216, i32* %99, align 4
  %101 = getelementptr inbounds %"class.Ice::ClFlags", %"class.Ice::ClFlags"* %0, i64 0, i32 72, i32 1, i32 1
  %102 = bitcast %"class.llvm::BitVector"* %101 to i8*
  tail call void @llvm.memset.p0i8.i64(i8* align 8 %102, i8 0, i64 16, i1 false) #14
  %103 = getelementptr inbounds %"class.Ice::ClFlags", %"class.Ice::ClFlags"* %0, i64 0, i32 72, i32 1, i32 2
  store i32 -1, i32* %103, align 8
  %104 = getelementptr inbounds %"class.Ice::ClFlags", %"class.Ice::ClFlags"* %0, i64 0, i32 72, i32 1, i32 3
  store i8 0, i8* %104, align 4
  %105 = getelementptr inbounds %"class.Ice::ClFlags", %"class.Ice::ClFlags"* %0, i64 0, i32 73
  %106 = getelementptr inbounds %"class.Ice::ClFlags", %"class.Ice::ClFlags"* %0, i64 0, i32 73, i32 0, i32 0, i32 0, i32 3
  %107 = bitcast %"class.std::__1::__compressed_pair.180"* %106 to i32*
  %108 = bitcast %"class.Ice::RangeSpec"* %105 to i8*
  tail call void @llvm.memset.p0i8.i64(i8* align 8 %108, i8 0, i64 32, i1 false) #14
  store i32 1065353216, i32* %107, align 4
  %109 = getelementptr inbounds %"class.Ice::ClFlags", %"class.Ice::ClFlags"* %0, i64 0, i32 73, i32 0, i32 1
  %110 = bitcast %"class.llvm::BitVector"* %109 to i8*
  tail call void @llvm.memset.p0i8.i64(i8* align 8 %110, i8 0, i64 16, i1 false) #14
  %111 = getelementptr inbounds %"class.Ice::ClFlags", %"class.Ice::ClFlags"* %0, i64 0, i32 73, i32 0, i32 2
  store i32 -1, i32* %111, align 8
  %112 = getelementptr inbounds %"class.Ice::ClFlags", %"class.Ice::ClFlags"* %0, i64 0, i32 73, i32 0, i32 3
  store i8 0, i8* %112, align 4
  %113 = getelementptr inbounds %"class.Ice::ClFlags", %"class.Ice::ClFlags"* %0, i64 0, i32 73, i32 1
  %114 = getelementptr inbounds %"class.Ice::ClFlags", %"class.Ice::ClFlags"* %0, i64 0, i32 73, i32 1, i32 0, i32 0, i32 3
  %115 = bitcast %"class.std::__1::__compressed_pair.180"* %114 to i32*
  %116 = bitcast %"struct.Ice::RangeSpec::Desc"* %113 to i8*
  tail call void @llvm.memset.p0i8.i64(i8* align 8 %116, i8 0, i64 32, i1 false) #14
  store i32 1065353216, i32* %115, align 4
  %117 = getelementptr inbounds %"class.Ice::ClFlags", %"class.Ice::ClFlags"* %0, i64 0, i32 73, i32 1, i32 1
  %118 = bitcast %"class.llvm::BitVector"* %117 to i8*
  tail call void @llvm.memset.p0i8.i64(i8* align 8 %118, i8 0, i64 16, i1 false) #14
  %119 = getelementptr inbounds %"class.Ice::ClFlags", %"class.Ice::ClFlags"* %0, i64 0, i32 73, i32 1, i32 2
  store i32 -1, i32* %119, align 8
  %120 = getelementptr inbounds %"class.Ice::ClFlags", %"class.Ice::ClFlags"* %0, i64 0, i32 73, i32 1, i32 3
  store i8 0, i8* %120, align 4
  tail call void @_ZN3Ice7ClFlags12resetClFlagsEv(%"class.Ice::ClFlags"* %0) #17
  ret void
}

; Function Attrs: inlinehint nounwind optsize ssp uwtable
define linkonce_odr hidden void @_ZN3Ice7ClFlagsD2Ev(%"class.Ice::ClFlags"*) unnamed_addr #2 comdat align 2 {
  %2 = getelementptr inbounds %"class.Ice::ClFlags", %"class.Ice::ClFlags"* %0, i64 0, i32 73, i32 1, i32 1
  %3 = bitcast %"class.llvm::BitVector"* %2 to i8**
  %4 = load i8*, i8** %3, align 8
  tail call void @free(i8* %4) #15
  %5 = getelementptr inbounds %"class.Ice::ClFlags", %"class.Ice::ClFlags"* %0, i64 0, i32 73, i32 1, i32 0, i32 0
  tail call void @_ZNSt3__112__hash_tableINS_12basic_stringIcNS_11char_traitsIcEENS_9allocatorIcEEEENS_4hashIS6_EENS_8equal_toIS6_EENS4_IS6_EEED2Ev(%"class.std::__1::__hash_table"* %5) #15
  %6 = getelementptr inbounds %"class.Ice::ClFlags", %"class.Ice::ClFlags"* %0, i64 0, i32 73, i32 0, i32 1
  %7 = bitcast %"class.llvm::BitVector"* %6 to i8**
  %8 = load i8*, i8** %7, align 8
  tail call void @free(i8* %8) #15
  %9 = getelementptr inbounds %"class.Ice::ClFlags", %"class.Ice::ClFlags"* %0, i64 0, i32 73, i32 0, i32 0, i32 0
  tail call void @_ZNSt3__112__hash_tableINS_12basic_stringIcNS_11char_traitsIcEENS_9allocatorIcEEEENS_4hashIS6_EENS_8equal_toIS6_EENS4_IS6_EEED2Ev(%"class.std::__1::__hash_table"* %9) #15
  %10 = getelementptr inbounds %"class.Ice::ClFlags", %"class.Ice::ClFlags"* %0, i64 0, i32 72, i32 1, i32 1
  %11 = bitcast %"class.llvm::BitVector"* %10 to i8**
  %12 = load i8*, i8** %11, align 8
  tail call void @free(i8* %12) #15
  %13 = getelementptr inbounds %"class.Ice::ClFlags", %"class.Ice::ClFlags"* %0, i64 0, i32 72, i32 1, i32 0, i32 0
  tail call void @_ZNSt3__112__hash_tableINS_12basic_stringIcNS_11char_traitsIcEENS_9allocatorIcEEEENS_4hashIS6_EENS_8equal_toIS6_EENS4_IS6_EEED2Ev(%"class.std::__1::__hash_table"* %13) #15
  %14 = getelementptr inbounds %"class.Ice::ClFlags", %"class.Ice::ClFlags"* %0, i64 0, i32 72, i32 0, i32 1
  %15 = bitcast %"class.llvm::BitVector"* %14 to i8**
  %16 = load i8*, i8** %15, align 8
  tail call void @free(i8* %16) #15
  %17 = getelementptr inbounds %"class.Ice::ClFlags", %"class.Ice::ClFlags"* %0, i64 0, i32 72, i32 0, i32 0, i32 0
  tail call void @_ZNSt3__112__hash_tableINS_12basic_stringIcNS_11char_traitsIcEENS_9allocatorIcEEEENS_4hashIS6_EENS_8equal_toIS6_EENS4_IS6_EEED2Ev(%"class.std::__1::__hash_table"* %17) #15
  %18 = getelementptr inbounds %"class.Ice::ClFlags", %"class.Ice::ClFlags"* %0, i64 0, i32 71, i32 1, i32 1
  %19 = bitcast %"class.llvm::BitVector"* %18 to i8**
  %20 = load i8*, i8** %19, align 8
  tail call void @free(i8* %20) #15
  %21 = getelementptr inbounds %"class.Ice::ClFlags", %"class.Ice::ClFlags"* %0, i64 0, i32 71, i32 1, i32 0, i32 0
  tail call void @_ZNSt3__112__hash_tableINS_12basic_stringIcNS_11char_traitsIcEENS_9allocatorIcEEEENS_4hashIS6_EENS_8equal_toIS6_EENS4_IS6_EEED2Ev(%"class.std::__1::__hash_table"* %21) #15
  %22 = getelementptr inbounds %"class.Ice::ClFlags", %"class.Ice::ClFlags"* %0, i64 0, i32 71, i32 0, i32 1
  %23 = bitcast %"class.llvm::BitVector"* %22 to i8**
  %24 = load i8*, i8** %23, align 8
  tail call void @free(i8* %24) #15
  %25 = getelementptr inbounds %"class.Ice::ClFlags", %"class.Ice::ClFlags"* %0, i64 0, i32 71, i32 0, i32 0, i32 0
  tail call void @_ZNSt3__112__hash_tableINS_12basic_stringIcNS_11char_traitsIcEENS_9allocatorIcEEEENS_4hashIS6_EENS_8equal_toIS6_EENS4_IS6_EEED2Ev(%"class.std::__1::__hash_table"* %25) #15
  %26 = getelementptr inbounds %"class.Ice::ClFlags", %"class.Ice::ClFlags"* %0, i64 0, i32 70, i32 1, i32 1
  %27 = bitcast %"class.llvm::BitVector"* %26 to i8**
  %28 = load i8*, i8** %27, align 8
  tail call void @free(i8* %28) #15
  %29 = getelementptr inbounds %"class.Ice::ClFlags", %"class.Ice::ClFlags"* %0, i64 0, i32 70, i32 1, i32 0, i32 0
  tail call void @_ZNSt3__112__hash_tableINS_12basic_stringIcNS_11char_traitsIcEENS_9allocatorIcEEEENS_4hashIS6_EENS_8equal_toIS6_EENS4_IS6_EEED2Ev(%"class.std::__1::__hash_table"* %29) #15
  %30 = getelementptr inbounds %"class.Ice::ClFlags", %"class.Ice::ClFlags"* %0, i64 0, i32 70, i32 0, i32 1
  %31 = bitcast %"class.llvm::BitVector"* %30 to i8**
  %32 = load i8*, i8** %31, align 8
  tail call void @free(i8* %32) #15
  %33 = getelementptr inbounds %"class.Ice::ClFlags", %"class.Ice::ClFlags"* %0, i64 0, i32 70, i32 0, i32 0, i32 0
  tail call void @_ZNSt3__112__hash_tableINS_12basic_stringIcNS_11char_traitsIcEENS_9allocatorIcEEEENS_4hashIS6_EENS_8equal_toIS6_EENS4_IS6_EEED2Ev(%"class.std::__1::__hash_table"* %33) #15
  %34 = getelementptr inbounds %"class.Ice::ClFlags", %"class.Ice::ClFlags"* %0, i64 0, i32 69, i32 1, i32 1
  %35 = bitcast %"class.llvm::BitVector"* %34 to i8**
  %36 = load i8*, i8** %35, align 8
  tail call void @free(i8* %36) #15
  %37 = getelementptr inbounds %"class.Ice::ClFlags", %"class.Ice::ClFlags"* %0, i64 0, i32 69, i32 1, i32 0, i32 0
  tail call void @_ZNSt3__112__hash_tableINS_12basic_stringIcNS_11char_traitsIcEENS_9allocatorIcEEEENS_4hashIS6_EENS_8equal_toIS6_EENS4_IS6_EEED2Ev(%"class.std::__1::__hash_table"* %37) #15
  %38 = getelementptr inbounds %"class.Ice::ClFlags", %"class.Ice::ClFlags"* %0, i64 0, i32 69, i32 0, i32 1
  %39 = bitcast %"class.llvm::BitVector"* %38 to i8**
  %40 = load i8*, i8** %39, align 8
  tail call void @free(i8* %40) #15
  %41 = getelementptr inbounds %"class.Ice::ClFlags", %"class.Ice::ClFlags"* %0, i64 0, i32 69, i32 0, i32 0, i32 0
  tail call void @_ZNSt3__112__hash_tableINS_12basic_stringIcNS_11char_traitsIcEENS_9allocatorIcEEEENS_4hashIS6_EENS_8equal_toIS6_EENS4_IS6_EEED2Ev(%"class.std::__1::__hash_table"* %41) #15
  %42 = getelementptr inbounds %"class.Ice::ClFlags", %"class.Ice::ClFlags"* %0, i64 0, i32 68, i32 1, i32 1
  %43 = bitcast %"class.llvm::BitVector"* %42 to i8**
  %44 = load i8*, i8** %43, align 8
  tail call void @free(i8* %44) #15
  %45 = getelementptr inbounds %"class.Ice::ClFlags", %"class.Ice::ClFlags"* %0, i64 0, i32 68, i32 1, i32 0, i32 0
  tail call void @_ZNSt3__112__hash_tableINS_12basic_stringIcNS_11char_traitsIcEENS_9allocatorIcEEEENS_4hashIS6_EENS_8equal_toIS6_EENS4_IS6_EEED2Ev(%"class.std::__1::__hash_table"* %45) #15
  %46 = getelementptr inbounds %"class.Ice::ClFlags", %"class.Ice::ClFlags"* %0, i64 0, i32 68, i32 0, i32 1
  %47 = bitcast %"class.llvm::BitVector"* %46 to i8**
  %48 = load i8*, i8** %47, align 8
  tail call void @free(i8* %48) #15
  %49 = getelementptr inbounds %"class.Ice::ClFlags", %"class.Ice::ClFlags"* %0, i64 0, i32 68, i32 0, i32 0, i32 0
  tail call void @_ZNSt3__112__hash_tableINS_12basic_stringIcNS_11char_traitsIcEENS_9allocatorIcEEEENS_4hashIS6_EENS_8equal_toIS6_EENS4_IS6_EEED2Ev(%"class.std::__1::__hash_table"* %49) #15
  %50 = getelementptr inbounds %"class.Ice::ClFlags", %"class.Ice::ClFlags"* %0, i64 0, i32 65
  %51 = bitcast %"class.std::__1::basic_string"* %50 to %"struct.std::__1::basic_string<char, std::__1::char_traits<char>, std::__1::allocator<char> >::__short"*
  %52 = getelementptr inbounds %"struct.std::__1::basic_string<char, std::__1::char_traits<char>, std::__1::allocator<char> >::__short", %"struct.std::__1::basic_string<char, std::__1::char_traits<char>, std::__1::allocator<char> >::__short"* %51, i64 0, i32 1, i32 0
  %53 = load i8, i8* %52, align 1
  %54 = icmp slt i8 %53, 0
  br i1 %54, label %55, label %58

55:                                               ; preds = %1
  %56 = getelementptr inbounds %"class.std::__1::basic_string", %"class.std::__1::basic_string"* %50, i64 0, i32 0, i32 0, i32 0, i32 0, i32 0, i32 0
  %57 = load i8*, i8** %56, align 8
  tail call void @_ZdlPv(i8* %57) #16
  br label %58

58:                                               ; preds = %1, %55
  %59 = getelementptr inbounds %"class.Ice::ClFlags", %"class.Ice::ClFlags"* %0, i64 0, i32 63
  %60 = bitcast %"class.std::__1::basic_string"* %59 to %"struct.std::__1::basic_string<char, std::__1::char_traits<char>, std::__1::allocator<char> >::__short"*
  %61 = getelementptr inbounds %"struct.std::__1::basic_string<char, std::__1::char_traits<char>, std::__1::allocator<char> >::__short", %"struct.std::__1::basic_string<char, std::__1::char_traits<char>, std::__1::allocator<char> >::__short"* %60, i64 0, i32 1, i32 0
  %62 = load i8, i8* %61, align 1
  %63 = icmp slt i8 %62, 0
  br i1 %63, label %64, label %67

64:                                               ; preds = %58
  %65 = getelementptr inbounds %"class.std::__1::basic_string", %"class.std::__1::basic_string"* %59, i64 0, i32 0, i32 0, i32 0, i32 0, i32 0, i32 0
  %66 = load i8*, i8** %65, align 8
  tail call void @_ZdlPv(i8* %66) #16
  br label %67

67:                                               ; preds = %58, %64
  %68 = getelementptr inbounds %"class.Ice::ClFlags", %"class.Ice::ClFlags"* %0, i64 0, i32 60, i32 0
  tail call void @_ZNSt3__113__vector_baseINS_12basic_stringIcNS_11char_traitsIcEENS_9allocatorIcEEEENS4_IS6_EEED2Ev(%"class.std::__1::__vector_base"* %68) #15
  %69 = getelementptr inbounds %"class.Ice::ClFlags", %"class.Ice::ClFlags"* %0, i64 0, i32 58
  %70 = bitcast %"class.std::__1::basic_string"* %69 to %"struct.std::__1::basic_string<char, std::__1::char_traits<char>, std::__1::allocator<char> >::__short"*
  %71 = getelementptr inbounds %"struct.std::__1::basic_string<char, std::__1::char_traits<char>, std::__1::allocator<char> >::__short", %"struct.std::__1::basic_string<char, std::__1::char_traits<char>, std::__1::allocator<char> >::__short"* %70, i64 0, i32 1, i32 0
  %72 = load i8, i8* %71, align 1
  %73 = icmp slt i8 %72, 0
  br i1 %73, label %74, label %77

74:                                               ; preds = %67
  %75 = getelementptr inbounds %"class.std::__1::basic_string", %"class.std::__1::basic_string"* %69, i64 0, i32 0, i32 0, i32 0, i32 0, i32 0, i32 0
  %76 = load i8*, i8** %75, align 8
  tail call void @_ZdlPv(i8* %76) #16
  br label %77

77:                                               ; preds = %67, %74
  %78 = getelementptr inbounds %"class.Ice::ClFlags", %"class.Ice::ClFlags"* %0, i64 0, i32 57
  %79 = bitcast %"class.std::__1::basic_string"* %78 to %"struct.std::__1::basic_string<char, std::__1::char_traits<char>, std::__1::allocator<char> >::__short"*
  %80 = getelementptr inbounds %"struct.std::__1::basic_string<char, std::__1::char_traits<char>, std::__1::allocator<char> >::__short", %"struct.std::__1::basic_string<char, std::__1::char_traits<char>, std::__1::allocator<char> >::__short"* %79, i64 0, i32 1, i32 0
  %81 = load i8, i8* %80, align 1
  %82 = icmp slt i8 %81, 0
  br i1 %82, label %83, label %86

83:                                               ; preds = %77
  %84 = getelementptr inbounds %"class.std::__1::basic_string", %"class.std::__1::basic_string"* %78, i64 0, i32 0, i32 0, i32 0, i32 0, i32 0, i32 0
  %85 = load i8*, i8** %84, align 8
  tail call void @_ZdlPv(i8* %85) #16
  br label %86

86:                                               ; preds = %77, %83
  %87 = getelementptr inbounds %"class.Ice::ClFlags", %"class.Ice::ClFlags"* %0, i64 0, i32 55
  %88 = bitcast %"class.std::__1::basic_string"* %87 to %"struct.std::__1::basic_string<char, std::__1::char_traits<char>, std::__1::allocator<char> >::__short"*
  %89 = getelementptr inbounds %"struct.std::__1::basic_string<char, std::__1::char_traits<char>, std::__1::allocator<char> >::__short", %"struct.std::__1::basic_string<char, std::__1::char_traits<char>, std::__1::allocator<char> >::__short"* %88, i64 0, i32 1, i32 0
  %90 = load i8, i8* %89, align 1
  %91 = icmp slt i8 %90, 0
  br i1 %91, label %92, label %95

92:                                               ; preds = %86
  %93 = getelementptr inbounds %"class.std::__1::basic_string", %"class.std::__1::basic_string"* %87, i64 0, i32 0, i32 0, i32 0, i32 0, i32 0, i32 0
  %94 = load i8*, i8** %93, align 8
  tail call void @_ZdlPv(i8* %94) #16
  br label %95

95:                                               ; preds = %86, %92
  %96 = getelementptr inbounds %"class.Ice::ClFlags", %"class.Ice::ClFlags"* %0, i64 0, i32 53
  %97 = bitcast %"class.std::__1::basic_string"* %96 to %"struct.std::__1::basic_string<char, std::__1::char_traits<char>, std::__1::allocator<char> >::__short"*
  %98 = getelementptr inbounds %"struct.std::__1::basic_string<char, std::__1::char_traits<char>, std::__1::allocator<char> >::__short", %"struct.std::__1::basic_string<char, std::__1::char_traits<char>, std::__1::allocator<char> >::__short"* %97, i64 0, i32 1, i32 0
  %99 = load i8, i8* %98, align 1
  %100 = icmp slt i8 %99, 0
  br i1 %100, label %101, label %104

101:                                              ; preds = %95
  %102 = getelementptr inbounds %"class.std::__1::basic_string", %"class.std::__1::basic_string"* %96, i64 0, i32 0, i32 0, i32 0, i32 0, i32 0, i32 0
  %103 = load i8*, i8** %102, align 8
  tail call void @_ZdlPv(i8* %103) #16
  br label %104

104:                                              ; preds = %95, %101
  %105 = getelementptr inbounds %"class.Ice::ClFlags", %"class.Ice::ClFlags"* %0, i64 0, i32 39
  %106 = bitcast %"class.std::__1::basic_string"* %105 to %"struct.std::__1::basic_string<char, std::__1::char_traits<char>, std::__1::allocator<char> >::__short"*
  %107 = getelementptr inbounds %"struct.std::__1::basic_string<char, std::__1::char_traits<char>, std::__1::allocator<char> >::__short", %"struct.std::__1::basic_string<char, std::__1::char_traits<char>, std::__1::allocator<char> >::__short"* %106, i64 0, i32 1, i32 0
  %108 = load i8, i8* %107, align 1
  %109 = icmp slt i8 %108, 0
  br i1 %109, label %110, label %113

110:                                              ; preds = %104
  %111 = getelementptr inbounds %"class.std::__1::basic_string", %"class.std::__1::basic_string"* %105, i64 0, i32 0, i32 0, i32 0, i32 0, i32 0, i32 0
  %112 = load i8*, i8** %111, align 8
  tail call void @_ZdlPv(i8* %112) #16
  br label %113

113:                                              ; preds = %104, %110
  %114 = getelementptr inbounds %"class.Ice::ClFlags", %"class.Ice::ClFlags"* %0, i64 0, i32 30
  %115 = bitcast %"class.std::__1::basic_string"* %114 to %"struct.std::__1::basic_string<char, std::__1::char_traits<char>, std::__1::allocator<char> >::__short"*
  %116 = getelementptr inbounds %"struct.std::__1::basic_string<char, std::__1::char_traits<char>, std::__1::allocator<char> >::__short", %"struct.std::__1::basic_string<char, std::__1::char_traits<char>, std::__1::allocator<char> >::__short"* %115, i64 0, i32 1, i32 0
  %117 = load i8, i8* %116, align 1
  %118 = icmp slt i8 %117, 0
  br i1 %118, label %119, label %122

119:                                              ; preds = %113
  %120 = getelementptr inbounds %"class.std::__1::basic_string", %"class.std::__1::basic_string"* %114, i64 0, i32 0, i32 0, i32 0, i32 0, i32 0, i32 0
  %121 = load i8*, i8** %120, align 8
  tail call void @_ZdlPv(i8* %121) #16
  br label %122

122:                                              ; preds = %113, %119
  %123 = getelementptr inbounds %"class.Ice::ClFlags", %"class.Ice::ClFlags"* %0, i64 0, i32 29
  %124 = bitcast %"class.std::__1::basic_string"* %123 to %"struct.std::__1::basic_string<char, std::__1::char_traits<char>, std::__1::allocator<char> >::__short"*
  %125 = getelementptr inbounds %"struct.std::__1::basic_string<char, std::__1::char_traits<char>, std::__1::allocator<char> >::__short", %"struct.std::__1::basic_string<char, std::__1::char_traits<char>, std::__1::allocator<char> >::__short"* %124, i64 0, i32 1, i32 0
  %126 = load i8, i8* %125, align 1
  %127 = icmp slt i8 %126, 0
  br i1 %127, label %128, label %131

128:                                              ; preds = %122
  %129 = getelementptr inbounds %"class.std::__1::basic_string", %"class.std::__1::basic_string"* %123, i64 0, i32 0, i32 0, i32 0, i32 0, i32 0, i32 0
  %130 = load i8*, i8** %129, align 8
  tail call void @_ZdlPv(i8* %130) #16
  br label %131

131:                                              ; preds = %122, %128
  %132 = getelementptr inbounds %"class.Ice::ClFlags", %"class.Ice::ClFlags"* %0, i64 0, i32 27, i32 0
  tail call void @_ZNSt3__113__vector_baseINS_12basic_stringIcNS_11char_traitsIcEENS_9allocatorIcEEEENS4_IS6_EEED2Ev(%"class.std::__1::__vector_base"* %132) #15
  %133 = getelementptr inbounds %"class.Ice::ClFlags", %"class.Ice::ClFlags"* %0, i64 0, i32 16
  %134 = bitcast %"class.std::__1::basic_string"* %133 to %"struct.std::__1::basic_string<char, std::__1::char_traits<char>, std::__1::allocator<char> >::__short"*
  %135 = getelementptr inbounds %"struct.std::__1::basic_string<char, std::__1::char_traits<char>, std::__1::allocator<char> >::__short", %"struct.std::__1::basic_string<char, std::__1::char_traits<char>, std::__1::allocator<char> >::__short"* %134, i64 0, i32 1, i32 0
  %136 = load i8, i8* %135, align 1
  %137 = icmp slt i8 %136, 0
  br i1 %137, label %138, label %141

138:                                              ; preds = %131
  %139 = getelementptr inbounds %"class.std::__1::basic_string", %"class.std::__1::basic_string"* %133, i64 0, i32 0, i32 0, i32 0, i32 0, i32 0, i32 0
  %140 = load i8*, i8** %139, align 8
  tail call void @_ZdlPv(i8* %140) #16
  br label %141

141:                                              ; preds = %131, %138
  %142 = getelementptr inbounds %"class.Ice::ClFlags", %"class.Ice::ClFlags"* %0, i64 0, i32 15
  %143 = bitcast %"class.std::__1::basic_string"* %142 to %"struct.std::__1::basic_string<char, std::__1::char_traits<char>, std::__1::allocator<char> >::__short"*
  %144 = getelementptr inbounds %"struct.std::__1::basic_string<char, std::__1::char_traits<char>, std::__1::allocator<char> >::__short", %"struct.std::__1::basic_string<char, std::__1::char_traits<char>, std::__1::allocator<char> >::__short"* %143, i64 0, i32 1, i32 0
  %145 = load i8, i8* %144, align 1
  %146 = icmp slt i8 %145, 0
  br i1 %146, label %147, label %150

147:                                              ; preds = %141
  %148 = getelementptr inbounds %"class.std::__1::basic_string", %"class.std::__1::basic_string"* %142, i64 0, i32 0, i32 0, i32 0, i32 0, i32 0, i32 0
  %149 = load i8*, i8** %148, align 8
  tail call void @_ZdlPv(i8* %149) #16
  br label %150

150:                                              ; preds = %141, %147
  %151 = getelementptr inbounds %"class.Ice::ClFlags", %"class.Ice::ClFlags"* %0, i64 0, i32 3
  %152 = bitcast %"class.std::__1::basic_string"* %151 to %"struct.std::__1::basic_string<char, std::__1::char_traits<char>, std::__1::allocator<char> >::__short"*
  %153 = getelementptr inbounds %"struct.std::__1::basic_string<char, std::__1::char_traits<char>, std::__1::allocator<char> >::__short", %"struct.std::__1::basic_string<char, std::__1::char_traits<char>, std::__1::allocator<char> >::__short"* %152, i64 0, i32 1, i32 0
  %154 = load i8, i8* %153, align 1
  %155 = icmp slt i8 %154, 0
  br i1 %155, label %156, label %159

156:                                              ; preds = %150
  %157 = getelementptr inbounds %"class.std::__1::basic_string", %"class.std::__1::basic_string"* %151, i64 0, i32 0, i32 0, i32 0, i32 0, i32 0, i32 0
  %158 = load i8*, i8** %157, align 8
  tail call void @_ZdlPv(i8* %158) #16
  br label %159

159:                                              ; preds = %150, %156
  %160 = bitcast %"class.Ice::ClFlags"* %0 to %"struct.std::__1::basic_string<char, std::__1::char_traits<char>, std::__1::allocator<char> >::__short"*
  %161 = getelementptr inbounds %"struct.std::__1::basic_string<char, std::__1::char_traits<char>, std::__1::allocator<char> >::__short", %"struct.std::__1::basic_string<char, std::__1::char_traits<char>, std::__1::allocator<char> >::__short"* %160, i64 0, i32 1, i32 0
  %162 = load i8, i8* %161, align 1
  %163 = icmp slt i8 %162, 0
  br i1 %163, label %164, label %167

164:                                              ; preds = %159
  %165 = getelementptr inbounds %"class.Ice::ClFlags", %"class.Ice::ClFlags"* %0, i64 0, i32 0, i32 0, i32 0, i32 0, i32 0, i32 0, i32 0
  %166 = load i8*, i8** %165, align 8
  tail call void @_ZdlPv(i8* %166) #16
  br label %167

167:                                              ; preds = %159, %164
  ret void
}

; Function Attrs: nounwind optsize ssp uwtable
define hidden void @_ZN3Ice7ClFlags10parseFlagsEiPKPKc(i32, i8**) local_unnamed_addr #1 align 2 {
  %3 = tail call zeroext i1 @_ZN4llvm2cl23ParseCommandLineOptionsEiPKPKcNS_9StringRefEb(i32 %0, i8** %1, i8* getelementptr inbounds ([1 x i8], [1 x i8]* @.str.121, i64 0, i64 0), i64 0, i1 zeroext false) #15
  %4 = load i8*, i8** %1, align 8
  %5 = tail call dereferenceable(24) %"class.std::__1::basic_string"* @_ZNSt3__112basic_stringIcNS_11char_traitsIcEENS_9allocatorIcEEE6assignEPKc(%"class.std::__1::basic_string"* nonnull @_ZN12_GLOBAL__N_110AppNameObjE, i8* %4) #15
  ret void
}

; Function Attrs: optsize
declare zeroext i1 @_ZN4llvm2cl23ParseCommandLineOptionsEiPKPKcNS_9StringRefEb(i32, i8**, i8*, i64, i1 zeroext) local_unnamed_addr #4

; Function Attrs: nounwind optsize ssp uwtable
define hidden void @_ZN3Ice7ClFlags12resetClFlagsEv(%"class.Ice::ClFlags"*) local_unnamed_addr #1 align 2 {
  %2 = alloca [2 x %"struct.llvm::cl::OptionEnumValue"], align 8
  %3 = alloca [3 x %"struct.llvm::cl::OptionEnumValue"], align 8
  %4 = alloca [5 x %"struct.llvm::cl::OptionEnumValue"], align 8
  %5 = alloca %"class.std::__1::basic_string", align 8
  %6 = alloca %"class.llvm::cl::ValuesClass", align 8
  %7 = alloca %"class.std::__1::basic_string", align 8
  %8 = alloca %"class.llvm::cl::ValuesClass", align 8
  %9 = alloca %"struct.llvm::cl::OptionEnumValue", align 8
  %10 = alloca %"struct.llvm::cl::OptionEnumValue", align 8
  %11 = alloca %"struct.llvm::cl::OptionEnumValue", align 8
  %12 = alloca %"struct.llvm::cl::OptionEnumValue", align 8
  %13 = alloca %"struct.llvm::cl::OptionEnumValue", align 8
  %14 = alloca %"struct.llvm::cl::OptionEnumValue", align 8
  %15 = alloca %"struct.llvm::cl::OptionEnumValue", align 8
  %16 = alloca %"struct.llvm::cl::OptionEnumValue", align 8
  %17 = alloca %"struct.llvm::cl::OptionEnumValue", align 8
  %18 = alloca %"struct.llvm::cl::OptionEnumValue", align 8
  %19 = alloca %"struct.llvm::cl::OptionEnumValue", align 8
  %20 = alloca %"class.std::__1::basic_string", align 8
  %21 = alloca %"class.std::__1::basic_string", align 8
  %22 = alloca %"class.llvm::cl::ValuesClass", align 8
  %23 = alloca %"class.std::__1::vector", align 8
  %24 = alloca %"class.std::__1::basic_string", align 8
  %25 = alloca %"class.std::__1::basic_string", align 8
  %26 = alloca %"class.llvm::cl::ValuesClass", align 8
  %27 = alloca %"class.std::__1::basic_string", align 8
  %28 = alloca %"class.llvm::cl::ValuesClass", align 8
  %29 = alloca %"class.llvm::cl::ValuesClass", align 8
  %30 = alloca %"class.llvm::cl::ValuesClass", align 8
  %31 = alloca %"class.std::__1::basic_string", align 8
  %32 = alloca %"class.std::__1::basic_string", align 8
  %33 = alloca %"class.std::__1::basic_string", align 8
  %34 = alloca %"class.std::__1::basic_string", align 8
  %35 = alloca %"class.std::__1::vector", align 8
  %36 = alloca %"class.llvm::cl::ValuesClass", align 8
  %37 = alloca %"struct.llvm::cl::OptionEnumValue", align 8
  %38 = alloca %"struct.llvm::cl::OptionEnumValue", align 8
  %39 = alloca %"struct.llvm::cl::OptionEnumValue", align 8
  %40 = alloca %"struct.llvm::cl::OptionEnumValue", align 8
  %41 = alloca %"struct.llvm::cl::OptionEnumValue", align 8
  %42 = alloca %"struct.llvm::cl::OptionEnumValue", align 8
  %43 = alloca %"struct.llvm::cl::OptionEnumValue", align 8
  %44 = alloca %"struct.llvm::cl::OptionEnumValue", align 8
  %45 = alloca %"struct.llvm::cl::OptionEnumValue", align 8
  %46 = alloca %"struct.llvm::cl::OptionEnumValue", align 8
  %47 = alloca %"struct.llvm::cl::OptionEnumValue", align 8
  %48 = alloca %"struct.llvm::cl::OptionEnumValue", align 8
  %49 = alloca %"struct.llvm::cl::OptionEnumValue", align 8
  %50 = alloca %"struct.llvm::cl::OptionEnumValue", align 8
  %51 = alloca %"struct.llvm::cl::OptionEnumValue", align 8
  %52 = alloca %"struct.llvm::cl::OptionEnumValue", align 8
  %53 = alloca %"struct.llvm::cl::OptionEnumValue", align 8
  %54 = alloca %"struct.llvm::cl::OptionEnumValue", align 8
  %55 = alloca %"struct.llvm::cl::OptionEnumValue", align 8
  %56 = alloca %"struct.llvm::cl::OptionEnumValue", align 8
  %57 = alloca %"struct.llvm::cl::OptionEnumValue", align 8
  %58 = alloca %"struct.llvm::cl::OptionEnumValue", align 8
  %59 = alloca %"struct.llvm::cl::OptionEnumValue", align 8
  %60 = alloca %"class.std::__1::basic_string", align 8
  %61 = bitcast %"class.std::__1::basic_string"* %5 to i8*
  call void @llvm.lifetime.start.p0i8(i64 24, i8* nonnull %61) #14
  call void @_ZNSt3__112basic_stringIcNS_11char_traitsIcEENS_9allocatorIcEEEC2IDnEEPKc(%"class.std::__1::basic_string"* nonnull %5, i8* getelementptr inbounds ([2 x i8], [2 x i8]* @.str.1, i64 0, i64 0)) #15
  %62 = bitcast %"class.Ice::ClFlags"* %0 to %"struct.std::__1::basic_string<char, std::__1::char_traits<char>, std::__1::allocator<char> >::__short"*
  %63 = getelementptr inbounds %"struct.std::__1::basic_string<char, std::__1::char_traits<char>, std::__1::allocator<char> >::__short", %"struct.std::__1::basic_string<char, std::__1::char_traits<char>, std::__1::allocator<char> >::__short"* %62, i64 0, i32 1, i32 0
  %64 = load i8, i8* %63, align 1
  %65 = icmp slt i8 %64, 0
  br i1 %65, label %66, label %69

66:                                               ; preds = %1
  %67 = getelementptr inbounds %"class.Ice::ClFlags", %"class.Ice::ClFlags"* %0, i64 0, i32 0, i32 0, i32 0, i32 0, i32 0, i32 0, i32 0
  %68 = load i8*, i8** %67, align 8
  call void @_ZdlPv(i8* %68) #16
  br label %69

69:                                               ; preds = %66, %1
  %70 = bitcast %"class.Ice::ClFlags"* %0 to i8*
  call void @llvm.memcpy.p0i8.p0i8.i64(i8* align 8 %70, i8* nonnull align 8 %61, i64 24, i1 false) #14
  call void @llvm.lifetime.end.p0i8(i64 24, i8* nonnull %61) #14
  %71 = getelementptr inbounds %"class.Ice::ClFlags", %"class.Ice::ClFlags"* %0, i64 0, i32 1
  store i32 2, i32* %71, align 8
  %72 = bitcast %"class.llvm::cl::ValuesClass"* %6 to i8*
  call void @llvm.lifetime.start.p0i8(i64 184, i8* nonnull %72) #14
  %73 = bitcast [5 x %"struct.llvm::cl::OptionEnumValue"]* %4 to i8*
  call void @llvm.lifetime.start.p0i8(i64 200, i8* nonnull %73) #14, !noalias !8
  %74 = getelementptr inbounds [5 x %"struct.llvm::cl::OptionEnumValue"], [5 x %"struct.llvm::cl::OptionEnumValue"]* %4, i64 0, i64 0
  %75 = getelementptr inbounds [5 x %"struct.llvm::cl::OptionEnumValue"], [5 x %"struct.llvm::cl::OptionEnumValue"]* %4, i64 0, i64 0, i32 0, i32 0
  store i8* getelementptr inbounds ([4 x i8], [4 x i8]* @.str.8, i64 0, i64 0), i8** %75, align 8, !noalias !13
  %76 = getelementptr inbounds [5 x %"struct.llvm::cl::OptionEnumValue"], [5 x %"struct.llvm::cl::OptionEnumValue"]* %4, i64 0, i64 0, i32 0, i32 1
  store i64 3, i64* %76, align 8, !noalias !13
  %77 = getelementptr inbounds [5 x %"struct.llvm::cl::OptionEnumValue"], [5 x %"struct.llvm::cl::OptionEnumValue"]* %4, i64 0, i64 0, i32 1
  store i32 0, i32* %77, align 8, !noalias !13
  %78 = getelementptr inbounds [5 x %"struct.llvm::cl::OptionEnumValue"], [5 x %"struct.llvm::cl::OptionEnumValue"]* %4, i64 0, i64 0, i32 2, i32 0
  store i8* getelementptr inbounds ([3 x i8], [3 x i8]* @.str.9, i64 0, i64 0), i8** %78, align 8, !noalias !13
  %79 = getelementptr inbounds [5 x %"struct.llvm::cl::OptionEnumValue"], [5 x %"struct.llvm::cl::OptionEnumValue"]* %4, i64 0, i64 0, i32 2, i32 1
  store i64 2, i64* %79, align 8, !noalias !13
  %80 = getelementptr inbounds [5 x %"struct.llvm::cl::OptionEnumValue"], [5 x %"struct.llvm::cl::OptionEnumValue"]* %4, i64 0, i64 1, i32 0, i32 0
  store i8* getelementptr inbounds ([4 x i8], [4 x i8]* @.str.10, i64 0, i64 0), i8** %80, align 8, !noalias !13
  %81 = getelementptr inbounds [5 x %"struct.llvm::cl::OptionEnumValue"], [5 x %"struct.llvm::cl::OptionEnumValue"]* %4, i64 0, i64 1, i32 0, i32 1
  store i64 3, i64* %81, align 8, !noalias !13
  %82 = getelementptr inbounds [5 x %"struct.llvm::cl::OptionEnumValue"], [5 x %"struct.llvm::cl::OptionEnumValue"]* %4, i64 0, i64 1, i32 1
  store i32 0, i32* %82, align 8, !noalias !13
  %83 = getelementptr inbounds [5 x %"struct.llvm::cl::OptionEnumValue"], [5 x %"struct.llvm::cl::OptionEnumValue"]* %4, i64 0, i64 1, i32 2, i32 0
  store i8* getelementptr inbounds ([3 x i8], [3 x i8]* @.str.9, i64 0, i64 0), i8** %83, align 8, !noalias !13
  %84 = getelementptr inbounds [5 x %"struct.llvm::cl::OptionEnumValue"], [5 x %"struct.llvm::cl::OptionEnumValue"]* %4, i64 0, i64 1, i32 2, i32 1
  store i64 2, i64* %84, align 8, !noalias !13
  %85 = getelementptr inbounds [5 x %"struct.llvm::cl::OptionEnumValue"], [5 x %"struct.llvm::cl::OptionEnumValue"]* %4, i64 0, i64 2, i32 0, i32 0
  store i8* getelementptr inbounds ([3 x i8], [3 x i8]* @.str.11, i64 0, i64 0), i8** %85, align 8, !noalias !13
  %86 = getelementptr inbounds [5 x %"struct.llvm::cl::OptionEnumValue"], [5 x %"struct.llvm::cl::OptionEnumValue"]* %4, i64 0, i64 2, i32 0, i32 1
  store i64 2, i64* %86, align 8, !noalias !13
  %87 = getelementptr inbounds [5 x %"struct.llvm::cl::OptionEnumValue"], [5 x %"struct.llvm::cl::OptionEnumValue"]* %4, i64 0, i64 2, i32 1
  store i32 1, i32* %87, align 8, !noalias !13
  %88 = getelementptr inbounds [5 x %"struct.llvm::cl::OptionEnumValue"], [5 x %"struct.llvm::cl::OptionEnumValue"]* %4, i64 0, i64 2, i32 2, i32 0
  store i8* getelementptr inbounds ([2 x i8], [2 x i8]* @.str.12, i64 0, i64 0), i8** %88, align 8, !noalias !13
  %89 = getelementptr inbounds [5 x %"struct.llvm::cl::OptionEnumValue"], [5 x %"struct.llvm::cl::OptionEnumValue"]* %4, i64 0, i64 2, i32 2, i32 1
  store i64 1, i64* %89, align 8, !noalias !13
  %90 = getelementptr inbounds [5 x %"struct.llvm::cl::OptionEnumValue"], [5 x %"struct.llvm::cl::OptionEnumValue"]* %4, i64 0, i64 3, i32 0, i32 0
  store i8* getelementptr inbounds ([3 x i8], [3 x i8]* @.str.13, i64 0, i64 0), i8** %90, align 8, !noalias !13
  %91 = getelementptr inbounds [5 x %"struct.llvm::cl::OptionEnumValue"], [5 x %"struct.llvm::cl::OptionEnumValue"]* %4, i64 0, i64 3, i32 0, i32 1
  store i64 2, i64* %91, align 8, !noalias !13
  %92 = getelementptr inbounds [5 x %"struct.llvm::cl::OptionEnumValue"], [5 x %"struct.llvm::cl::OptionEnumValue"]* %4, i64 0, i64 3, i32 1
  store i32 2, i32* %92, align 8, !noalias !13
  %93 = getelementptr inbounds [5 x %"struct.llvm::cl::OptionEnumValue"], [5 x %"struct.llvm::cl::OptionEnumValue"]* %4, i64 0, i64 3, i32 2, i32 0
  store i8* getelementptr inbounds ([2 x i8], [2 x i8]* @.str.14, i64 0, i64 0), i8** %93, align 8, !noalias !13
  %94 = getelementptr inbounds [5 x %"struct.llvm::cl::OptionEnumValue"], [5 x %"struct.llvm::cl::OptionEnumValue"]* %4, i64 0, i64 3, i32 2, i32 1
  store i64 1, i64* %94, align 8, !noalias !13
  %95 = getelementptr inbounds [5 x %"struct.llvm::cl::OptionEnumValue"], [5 x %"struct.llvm::cl::OptionEnumValue"]* %4, i64 0, i64 4, i32 0, i32 0
  store i8* getelementptr inbounds ([3 x i8], [3 x i8]* @.str.15, i64 0, i64 0), i8** %95, align 8, !noalias !13
  %96 = getelementptr inbounds [5 x %"struct.llvm::cl::OptionEnumValue"], [5 x %"struct.llvm::cl::OptionEnumValue"]* %4, i64 0, i64 4, i32 0, i32 1
  store i64 2, i64* %96, align 8, !noalias !13
  %97 = getelementptr inbounds [5 x %"struct.llvm::cl::OptionEnumValue"], [5 x %"struct.llvm::cl::OptionEnumValue"]* %4, i64 0, i64 4, i32 1
  store i32 3, i32* %97, align 8, !noalias !13
  %98 = getelementptr inbounds [5 x %"struct.llvm::cl::OptionEnumValue"], [5 x %"struct.llvm::cl::OptionEnumValue"]* %4, i64 0, i64 4, i32 2, i32 0
  store i8* getelementptr inbounds ([2 x i8], [2 x i8]* @.str.16, i64 0, i64 0), i8** %98, align 8, !noalias !13
  %99 = getelementptr inbounds [5 x %"struct.llvm::cl::OptionEnumValue"], [5 x %"struct.llvm::cl::OptionEnumValue"]* %4, i64 0, i64 4, i32 2, i32 1
  store i64 1, i64* %99, align 8, !noalias !13
  %100 = getelementptr inbounds %"class.llvm::cl::ValuesClass", %"class.llvm::cl::ValuesClass"* %6, i64 0, i32 0, i32 0
  %101 = getelementptr inbounds %"class.llvm::cl::ValuesClass", %"class.llvm::cl::ValuesClass"* %6, i64 0, i32 0, i32 0, i32 0, i32 0, i32 1, i32 0, i32 0, i64 0
  %102 = getelementptr inbounds %"class.llvm::cl::ValuesClass", %"class.llvm::cl::ValuesClass"* %6, i64 0, i32 0, i32 0, i32 0, i32 0, i32 0, i32 0
  store i8* %101, i8** %102, align 8, !alias.scope !8
  %103 = getelementptr inbounds %"class.llvm::cl::ValuesClass", %"class.llvm::cl::ValuesClass"* %6, i64 0, i32 0, i32 0, i32 0, i32 0, i32 0, i32 1
  %104 = getelementptr inbounds %"class.llvm::cl::ValuesClass", %"class.llvm::cl::ValuesClass"* %6, i64 0, i32 0, i32 0, i32 0, i32 0, i32 0, i32 2
  %105 = getelementptr inbounds %"class.llvm::cl::ValuesClass", %"class.llvm::cl::ValuesClass"* %6, i64 0, i32 0, i32 0, i32 0, i32 0, i32 1, i32 0, i32 0, i64 160
  store i8* %105, i8** %104, align 8, !alias.scope !8
  %106 = ptrtoint i8* %101 to i64
  %107 = bitcast i8** %103 to i64*
  store i64 %106, i64* %107, align 8, !alias.scope !8
  %108 = getelementptr inbounds [5 x %"struct.llvm::cl::OptionEnumValue"], [5 x %"struct.llvm::cl::OptionEnumValue"]* %4, i64 0, i64 5
  call void @_ZN4llvm15SmallVectorImplINS_2cl15OptionEnumValueEE6appendIPKS2_EEvT_S7_(%"class.llvm::SmallVectorImpl.19"* nonnull %100, %"struct.llvm::cl::OptionEnumValue"* nonnull %74, %"struct.llvm::cl::OptionEnumValue"* %108) #15
  call void @llvm.lifetime.end.p0i8(i64 200, i8* nonnull %73) #14, !noalias !8
  %109 = getelementptr inbounds %"class.Ice::ClFlags", %"class.Ice::ClFlags"* %0, i64 0, i32 2
  store i32 0, i32* %109, align 4
  %110 = load i8*, i8** %102, align 8
  %111 = icmp eq i8* %110, %101
  br i1 %111, label %113, label %112

112:                                              ; preds = %69
  call void @free(i8* %110) #15
  br label %113

113:                                              ; preds = %69, %112
  call void @llvm.lifetime.end.p0i8(i64 184, i8* nonnull %72) #14
  %114 = bitcast %"class.std::__1::basic_string"* %7 to i8*
  call void @llvm.lifetime.start.p0i8(i64 24, i8* nonnull %114) #14
  call void @_ZNSt3__112basic_stringIcNS_11char_traitsIcEENS_9allocatorIcEEEC2IDnEEPKc(%"class.std::__1::basic_string"* nonnull %7, i8* getelementptr inbounds ([2 x i8], [2 x i8]* @.str.1, i64 0, i64 0)) #15
  %115 = getelementptr inbounds %"class.Ice::ClFlags", %"class.Ice::ClFlags"* %0, i64 0, i32 3
  %116 = bitcast %"class.std::__1::basic_string"* %115 to %"struct.std::__1::basic_string<char, std::__1::char_traits<char>, std::__1::allocator<char> >::__short"*
  %117 = getelementptr inbounds %"struct.std::__1::basic_string<char, std::__1::char_traits<char>, std::__1::allocator<char> >::__short", %"struct.std::__1::basic_string<char, std::__1::char_traits<char>, std::__1::allocator<char> >::__short"* %116, i64 0, i32 1, i32 0
  %118 = load i8, i8* %117, align 1
  %119 = icmp slt i8 %118, 0
  br i1 %119, label %120, label %123

120:                                              ; preds = %113
  %121 = getelementptr inbounds %"class.std::__1::basic_string", %"class.std::__1::basic_string"* %115, i64 0, i32 0, i32 0, i32 0, i32 0, i32 0, i32 0
  %122 = load i8*, i8** %121, align 8
  call void @_ZdlPv(i8* %122) #16
  br label %123

123:                                              ; preds = %120, %113
  %124 = bitcast %"class.std::__1::basic_string"* %115 to i8*
  call void @llvm.memcpy.p0i8.p0i8.i64(i8* align 8 %124, i8* nonnull align 8 %114, i64 24, i1 false) #14
  call void @llvm.lifetime.end.p0i8(i64 24, i8* nonnull %114) #14
  %125 = bitcast %"class.llvm::cl::ValuesClass"* %8 to i8*
  call void @llvm.lifetime.start.p0i8(i64 184, i8* nonnull %125) #14
  %126 = bitcast %"struct.llvm::cl::OptionEnumValue"* %9 to i8*
  call void @llvm.lifetime.start.p0i8(i64 40, i8* nonnull %126) #14
  %127 = getelementptr inbounds %"struct.llvm::cl::OptionEnumValue", %"struct.llvm::cl::OptionEnumValue"* %9, i64 0, i32 0, i32 0
  store i8* getelementptr inbounds ([6 x i8], [6 x i8]* @.str.24, i64 0, i64 0), i8** %127, align 8
  %128 = getelementptr inbounds %"struct.llvm::cl::OptionEnumValue", %"struct.llvm::cl::OptionEnumValue"* %9, i64 0, i32 0, i32 1
  store i64 5, i64* %128, align 8
  %129 = getelementptr inbounds %"struct.llvm::cl::OptionEnumValue", %"struct.llvm::cl::OptionEnumValue"* %9, i64 0, i32 1
  store i32 0, i32* %129, align 8
  %130 = getelementptr inbounds %"struct.llvm::cl::OptionEnumValue", %"struct.llvm::cl::OptionEnumValue"* %9, i64 0, i32 2, i32 0
  store i8* getelementptr inbounds ([7 x i8], [7 x i8]* @.str.25, i64 0, i64 0), i8** %130, align 8
  %131 = getelementptr inbounds %"struct.llvm::cl::OptionEnumValue", %"struct.llvm::cl::OptionEnumValue"* %9, i64 0, i32 2, i32 1
  store i64 6, i64* %131, align 8
  %132 = bitcast %"struct.llvm::cl::OptionEnumValue"* %10 to i8*
  call void @llvm.lifetime.start.p0i8(i64 40, i8* nonnull %132) #14
  %133 = getelementptr inbounds %"struct.llvm::cl::OptionEnumValue", %"struct.llvm::cl::OptionEnumValue"* %10, i64 0, i32 0, i32 0
  store i8* getelementptr inbounds ([7 x i8], [7 x i8]* @.str.25, i64 0, i64 0), i8** %133, align 8
  %134 = getelementptr inbounds %"struct.llvm::cl::OptionEnumValue", %"struct.llvm::cl::OptionEnumValue"* %10, i64 0, i32 0, i32 1
  store i64 6, i64* %134, align 8
  %135 = getelementptr inbounds %"struct.llvm::cl::OptionEnumValue", %"struct.llvm::cl::OptionEnumValue"* %10, i64 0, i32 1
  store i32 0, i32* %135, align 8
  %136 = getelementptr inbounds %"struct.llvm::cl::OptionEnumValue", %"struct.llvm::cl::OptionEnumValue"* %10, i64 0, i32 2, i32 0
  store i8* getelementptr inbounds ([23 x i8], [23 x i8]* @.str.26, i64 0, i64 0), i8** %136, align 8
  %137 = getelementptr inbounds %"struct.llvm::cl::OptionEnumValue", %"struct.llvm::cl::OptionEnumValue"* %10, i64 0, i32 2, i32 1
  store i64 22, i64* %137, align 8
  %138 = bitcast %"struct.llvm::cl::OptionEnumValue"* %11 to i8*
  call void @llvm.lifetime.start.p0i8(i64 40, i8* nonnull %138) #14
  %139 = getelementptr inbounds %"struct.llvm::cl::OptionEnumValue", %"struct.llvm::cl::OptionEnumValue"* %11, i64 0, i32 0, i32 0
  store i8* getelementptr inbounds ([7 x i8], [7 x i8]* @.str.27, i64 0, i64 0), i8** %139, align 8
  %140 = getelementptr inbounds %"struct.llvm::cl::OptionEnumValue", %"struct.llvm::cl::OptionEnumValue"* %11, i64 0, i32 0, i32 1
  store i64 6, i64* %140, align 8
  %141 = getelementptr inbounds %"struct.llvm::cl::OptionEnumValue", %"struct.llvm::cl::OptionEnumValue"* %11, i64 0, i32 1
  store i32 0, i32* %141, align 8
  %142 = getelementptr inbounds %"struct.llvm::cl::OptionEnumValue", %"struct.llvm::cl::OptionEnumValue"* %11, i64 0, i32 2, i32 0
  store i8* getelementptr inbounds ([23 x i8], [23 x i8]* @.str.26, i64 0, i64 0), i8** %142, align 8
  %143 = getelementptr inbounds %"struct.llvm::cl::OptionEnumValue", %"struct.llvm::cl::OptionEnumValue"* %11, i64 0, i32 2, i32 1
  store i64 22, i64* %143, align 8
  %144 = bitcast %"struct.llvm::cl::OptionEnumValue"* %12 to i8*
  call void @llvm.lifetime.start.p0i8(i64 40, i8* nonnull %144) #14
  %145 = getelementptr inbounds %"struct.llvm::cl::OptionEnumValue", %"struct.llvm::cl::OptionEnumValue"* %12, i64 0, i32 0, i32 0
  store i8* getelementptr inbounds ([6 x i8], [6 x i8]* @.str.28, i64 0, i64 0), i8** %145, align 8
  %146 = getelementptr inbounds %"struct.llvm::cl::OptionEnumValue", %"struct.llvm::cl::OptionEnumValue"* %12, i64 0, i32 0, i32 1
  store i64 5, i64* %146, align 8
  %147 = getelementptr inbounds %"struct.llvm::cl::OptionEnumValue", %"struct.llvm::cl::OptionEnumValue"* %12, i64 0, i32 1
  store i32 1, i32* %147, align 8
  %148 = getelementptr inbounds %"struct.llvm::cl::OptionEnumValue", %"struct.llvm::cl::OptionEnumValue"* %12, i64 0, i32 2, i32 0
  store i8* getelementptr inbounds ([7 x i8], [7 x i8]* @.str.29, i64 0, i64 0), i8** %148, align 8
  %149 = getelementptr inbounds %"struct.llvm::cl::OptionEnumValue", %"struct.llvm::cl::OptionEnumValue"* %12, i64 0, i32 2, i32 1
  store i64 6, i64* %149, align 8
  %150 = bitcast %"struct.llvm::cl::OptionEnumValue"* %13 to i8*
  call void @llvm.lifetime.start.p0i8(i64 40, i8* nonnull %150) #14
  %151 = getelementptr inbounds %"struct.llvm::cl::OptionEnumValue", %"struct.llvm::cl::OptionEnumValue"* %13, i64 0, i32 0, i32 0
  store i8* getelementptr inbounds ([7 x i8], [7 x i8]* @.str.29, i64 0, i64 0), i8** %151, align 8
  %152 = getelementptr inbounds %"struct.llvm::cl::OptionEnumValue", %"struct.llvm::cl::OptionEnumValue"* %13, i64 0, i32 0, i32 1
  store i64 6, i64* %152, align 8
  %153 = getelementptr inbounds %"struct.llvm::cl::OptionEnumValue", %"struct.llvm::cl::OptionEnumValue"* %13, i64 0, i32 1
  store i32 1, i32* %153, align 8
  %154 = getelementptr inbounds %"struct.llvm::cl::OptionEnumValue", %"struct.llvm::cl::OptionEnumValue"* %13, i64 0, i32 2, i32 0
  store i8* getelementptr inbounds ([23 x i8], [23 x i8]* @.str.30, i64 0, i64 0), i8** %154, align 8
  %155 = getelementptr inbounds %"struct.llvm::cl::OptionEnumValue", %"struct.llvm::cl::OptionEnumValue"* %13, i64 0, i32 2, i32 1
  store i64 22, i64* %155, align 8
  %156 = bitcast %"struct.llvm::cl::OptionEnumValue"* %14 to i8*
  call void @llvm.lifetime.start.p0i8(i64 40, i8* nonnull %156) #14
  %157 = getelementptr inbounds %"struct.llvm::cl::OptionEnumValue", %"struct.llvm::cl::OptionEnumValue"* %14, i64 0, i32 0, i32 0
  store i8* getelementptr inbounds ([7 x i8], [7 x i8]* @.str.31, i64 0, i64 0), i8** %157, align 8
  %158 = getelementptr inbounds %"struct.llvm::cl::OptionEnumValue", %"struct.llvm::cl::OptionEnumValue"* %14, i64 0, i32 0, i32 1
  store i64 6, i64* %158, align 8
  %159 = getelementptr inbounds %"struct.llvm::cl::OptionEnumValue", %"struct.llvm::cl::OptionEnumValue"* %14, i64 0, i32 1
  store i32 1, i32* %159, align 8
  %160 = getelementptr inbounds %"struct.llvm::cl::OptionEnumValue", %"struct.llvm::cl::OptionEnumValue"* %14, i64 0, i32 2, i32 0
  store i8* getelementptr inbounds ([23 x i8], [23 x i8]* @.str.30, i64 0, i64 0), i8** %160, align 8
  %161 = getelementptr inbounds %"struct.llvm::cl::OptionEnumValue", %"struct.llvm::cl::OptionEnumValue"* %14, i64 0, i32 2, i32 1
  store i64 22, i64* %161, align 8
  %162 = bitcast %"struct.llvm::cl::OptionEnumValue"* %15 to i8*
  call void @llvm.lifetime.start.p0i8(i64 40, i8* nonnull %162) #14
  %163 = getelementptr inbounds %"struct.llvm::cl::OptionEnumValue", %"struct.llvm::cl::OptionEnumValue"* %15, i64 0, i32 0, i32 0
  store i8* getelementptr inbounds ([4 x i8], [4 x i8]* @.str.32, i64 0, i64 0), i8** %163, align 8
  %164 = getelementptr inbounds %"struct.llvm::cl::OptionEnumValue", %"struct.llvm::cl::OptionEnumValue"* %15, i64 0, i32 0, i32 1
  store i64 3, i64* %164, align 8
  %165 = getelementptr inbounds %"struct.llvm::cl::OptionEnumValue", %"struct.llvm::cl::OptionEnumValue"* %15, i64 0, i32 1
  store i32 2, i32* %165, align 8
  %166 = getelementptr inbounds %"struct.llvm::cl::OptionEnumValue", %"struct.llvm::cl::OptionEnumValue"* %15, i64 0, i32 2, i32 0
  store i8* getelementptr inbounds ([6 x i8], [6 x i8]* @.str.33, i64 0, i64 0), i8** %166, align 8
  %167 = getelementptr inbounds %"struct.llvm::cl::OptionEnumValue", %"struct.llvm::cl::OptionEnumValue"* %15, i64 0, i32 2, i32 1
  store i64 5, i64* %167, align 8
  %168 = bitcast %"struct.llvm::cl::OptionEnumValue"* %16 to i8*
  call void @llvm.lifetime.start.p0i8(i64 40, i8* nonnull %168) #14
  %169 = getelementptr inbounds %"struct.llvm::cl::OptionEnumValue", %"struct.llvm::cl::OptionEnumValue"* %16, i64 0, i32 0, i32 0
  store i8* getelementptr inbounds ([6 x i8], [6 x i8]* @.str.33, i64 0, i64 0), i8** %169, align 8
  %170 = getelementptr inbounds %"struct.llvm::cl::OptionEnumValue", %"struct.llvm::cl::OptionEnumValue"* %16, i64 0, i32 0, i32 1
  store i64 5, i64* %170, align 8
  %171 = getelementptr inbounds %"struct.llvm::cl::OptionEnumValue", %"struct.llvm::cl::OptionEnumValue"* %16, i64 0, i32 1
  store i32 2, i32* %171, align 8
  %172 = getelementptr inbounds %"struct.llvm::cl::OptionEnumValue", %"struct.llvm::cl::OptionEnumValue"* %16, i64 0, i32 2, i32 0
  store i8* getelementptr inbounds ([20 x i8], [20 x i8]* @.str.34, i64 0, i64 0), i8** %172, align 8
  %173 = getelementptr inbounds %"struct.llvm::cl::OptionEnumValue", %"struct.llvm::cl::OptionEnumValue"* %16, i64 0, i32 2, i32 1
  store i64 19, i64* %173, align 8
  %174 = bitcast %"struct.llvm::cl::OptionEnumValue"* %17 to i8*
  call void @llvm.lifetime.start.p0i8(i64 40, i8* nonnull %174) #14
  %175 = getelementptr inbounds %"struct.llvm::cl::OptionEnumValue", %"struct.llvm::cl::OptionEnumValue"* %17, i64 0, i32 0, i32 0
  store i8* getelementptr inbounds ([6 x i8], [6 x i8]* @.str.35, i64 0, i64 0), i8** %175, align 8
  %176 = getelementptr inbounds %"struct.llvm::cl::OptionEnumValue", %"struct.llvm::cl::OptionEnumValue"* %17, i64 0, i32 0, i32 1
  store i64 5, i64* %176, align 8
  %177 = getelementptr inbounds %"struct.llvm::cl::OptionEnumValue", %"struct.llvm::cl::OptionEnumValue"* %17, i64 0, i32 1
  store i32 3, i32* %177, align 8
  %178 = getelementptr inbounds %"struct.llvm::cl::OptionEnumValue", %"struct.llvm::cl::OptionEnumValue"* %17, i64 0, i32 2, i32 0
  store i8* getelementptr inbounds ([6 x i8], [6 x i8]* @.str.35, i64 0, i64 0), i8** %178, align 8
  %179 = getelementptr inbounds %"struct.llvm::cl::OptionEnumValue", %"struct.llvm::cl::OptionEnumValue"* %17, i64 0, i32 2, i32 1
  store i64 5, i64* %179, align 8
  %180 = bitcast %"struct.llvm::cl::OptionEnumValue"* %18 to i8*
  call void @llvm.lifetime.start.p0i8(i64 40, i8* nonnull %180) #14
  %181 = getelementptr inbounds %"struct.llvm::cl::OptionEnumValue", %"struct.llvm::cl::OptionEnumValue"* %18, i64 0, i32 0, i32 0
  store i8* getelementptr inbounds ([5 x i8], [5 x i8]* @.str.36, i64 0, i64 0), i8** %181, align 8
  %182 = getelementptr inbounds %"struct.llvm::cl::OptionEnumValue", %"struct.llvm::cl::OptionEnumValue"* %18, i64 0, i32 0, i32 1
  store i64 4, i64* %182, align 8
  %183 = getelementptr inbounds %"struct.llvm::cl::OptionEnumValue", %"struct.llvm::cl::OptionEnumValue"* %18, i64 0, i32 1
  store i32 4, i32* %183, align 8
  %184 = getelementptr inbounds %"struct.llvm::cl::OptionEnumValue", %"struct.llvm::cl::OptionEnumValue"* %18, i64 0, i32 2, i32 0
  store i8* getelementptr inbounds ([7 x i8], [7 x i8]* @.str.37, i64 0, i64 0), i8** %184, align 8
  %185 = getelementptr inbounds %"struct.llvm::cl::OptionEnumValue", %"struct.llvm::cl::OptionEnumValue"* %18, i64 0, i32 2, i32 1
  store i64 6, i64* %185, align 8
  %186 = bitcast %"struct.llvm::cl::OptionEnumValue"* %19 to i8*
  call void @llvm.lifetime.start.p0i8(i64 40, i8* nonnull %186) #14
  %187 = getelementptr inbounds %"struct.llvm::cl::OptionEnumValue", %"struct.llvm::cl::OptionEnumValue"* %19, i64 0, i32 0, i32 0
  store i8* getelementptr inbounds ([7 x i8], [7 x i8]* @.str.37, i64 0, i64 0), i8** %187, align 8
  %188 = getelementptr inbounds %"struct.llvm::cl::OptionEnumValue", %"struct.llvm::cl::OptionEnumValue"* %19, i64 0, i32 0, i32 1
  store i64 6, i64* %188, align 8
  %189 = getelementptr inbounds %"struct.llvm::cl::OptionEnumValue", %"struct.llvm::cl::OptionEnumValue"* %19, i64 0, i32 1
  store i32 4, i32* %189, align 8
  %190 = getelementptr inbounds %"struct.llvm::cl::OptionEnumValue", %"struct.llvm::cl::OptionEnumValue"* %19, i64 0, i32 2, i32 0
  store i8* getelementptr inbounds ([22 x i8], [22 x i8]* @.str.38, i64 0, i64 0), i8** %190, align 8
  %191 = getelementptr inbounds %"struct.llvm::cl::OptionEnumValue", %"struct.llvm::cl::OptionEnumValue"* %19, i64 0, i32 2, i32 1
  store i64 21, i64* %191, align 8
  call fastcc void @_ZN12_GLOBAL__N_12cl6valuesIJN4llvm2cl15OptionEnumValueES4_S4_S4_S4_S4_S4_S4_S4_S4_S4_EEENS3_11ValuesClassEDpOT_(%"class.llvm::cl::ValuesClass"* nonnull sret %8, %"struct.llvm::cl::OptionEnumValue"* nonnull dereferenceable(40) %9, %"struct.llvm::cl::OptionEnumValue"* nonnull dereferenceable(40) %10, %"struct.llvm::cl::OptionEnumValue"* nonnull dereferenceable(40) %11, %"struct.llvm::cl::OptionEnumValue"* nonnull dereferenceable(40) %12, %"struct.llvm::cl::OptionEnumValue"* nonnull dereferenceable(40) %13, %"struct.llvm::cl::OptionEnumValue"* nonnull dereferenceable(40) %14, %"struct.llvm::cl::OptionEnumValue"* nonnull dereferenceable(40) %15, %"struct.llvm::cl::OptionEnumValue"* nonnull dereferenceable(40) %16, %"struct.llvm::cl::OptionEnumValue"* nonnull dereferenceable(40) %17, %"struct.llvm::cl::OptionEnumValue"* nonnull dereferenceable(40) %18, %"struct.llvm::cl::OptionEnumValue"* nonnull dereferenceable(40) %19) #17
  %192 = getelementptr inbounds %"class.Ice::ClFlags", %"class.Ice::ClFlags"* %0, i64 0, i32 4
  store i32 0, i32* %192, align 8
  %193 = getelementptr inbounds %"class.llvm::cl::ValuesClass", %"class.llvm::cl::ValuesClass"* %8, i64 0, i32 0, i32 0, i32 0, i32 0, i32 0, i32 0
  %194 = load i8*, i8** %193, align 8
  %195 = getelementptr inbounds %"class.llvm::cl::ValuesClass", %"class.llvm::cl::ValuesClass"* %8, i64 0, i32 0, i32 0, i32 0, i32 0, i32 1, i32 0, i32 0, i64 0
  %196 = icmp eq i8* %194, %195
  br i1 %196, label %198, label %197

197:                                              ; preds = %123
  call void @free(i8* %194) #15
  br label %198

198:                                              ; preds = %123, %197
  call void @llvm.lifetime.end.p0i8(i64 40, i8* nonnull %186) #14
  call void @llvm.lifetime.end.p0i8(i64 40, i8* nonnull %180) #14
  call void @llvm.lifetime.end.p0i8(i64 40, i8* nonnull %174) #14
  call void @llvm.lifetime.end.p0i8(i64 40, i8* nonnull %168) #14
  call void @llvm.lifetime.end.p0i8(i64 40, i8* nonnull %162) #14
  call void @llvm.lifetime.end.p0i8(i64 40, i8* nonnull %156) #14
  call void @llvm.lifetime.end.p0i8(i64 40, i8* nonnull %150) #14
  call void @llvm.lifetime.end.p0i8(i64 40, i8* nonnull %144) #14
  call void @llvm.lifetime.end.p0i8(i64 40, i8* nonnull %138) #14
  call void @llvm.lifetime.end.p0i8(i64 40, i8* nonnull %132) #14
  call void @llvm.lifetime.end.p0i8(i64 40, i8* nonnull %126) #14
  call void @llvm.lifetime.end.p0i8(i64 184, i8* nonnull %125) #14
  %199 = getelementptr inbounds %"class.Ice::ClFlags", %"class.Ice::ClFlags"* %0, i64 0, i32 5
  %200 = getelementptr inbounds %"class.Ice::ClFlags", %"class.Ice::ClFlags"* %0, i64 0, i32 12
  call void @llvm.memset.p0i8.i64(i8* align 4 %199, i8 0, i64 7, i1 false)
  store i8 1, i8* %200, align 1
  %201 = getelementptr inbounds %"class.Ice::ClFlags", %"class.Ice::ClFlags"* %0, i64 0, i32 13
  store i8 0, i8* %201, align 4
  %202 = getelementptr inbounds %"class.Ice::ClFlags", %"class.Ice::ClFlags"* %0, i64 0, i32 14
  store i8 0, i8* %202, align 1
  %203 = bitcast %"class.std::__1::basic_string"* %20 to i8*
  call void @llvm.lifetime.start.p0i8(i64 24, i8* nonnull %203) #14
  call void @_ZNSt3__112basic_stringIcNS_11char_traitsIcEENS_9allocatorIcEEEC2IDnEEPKc(%"class.std::__1::basic_string"* nonnull %20, i8* getelementptr inbounds ([9 x i8], [9 x i8]* @.str.72, i64 0, i64 0)) #15
  %204 = getelementptr inbounds %"class.Ice::ClFlags", %"class.Ice::ClFlags"* %0, i64 0, i32 15
  %205 = bitcast %"class.std::__1::basic_string"* %204 to %"struct.std::__1::basic_string<char, std::__1::char_traits<char>, std::__1::allocator<char> >::__short"*
  %206 = getelementptr inbounds %"struct.std::__1::basic_string<char, std::__1::char_traits<char>, std::__1::allocator<char> >::__short", %"struct.std::__1::basic_string<char, std::__1::char_traits<char>, std::__1::allocator<char> >::__short"* %205, i64 0, i32 1, i32 0
  %207 = load i8, i8* %206, align 1
  %208 = icmp slt i8 %207, 0
  br i1 %208, label %209, label %212

209:                                              ; preds = %198
  %210 = getelementptr inbounds %"class.std::__1::basic_string", %"class.std::__1::basic_string"* %204, i64 0, i32 0, i32 0, i32 0, i32 0, i32 0, i32 0
  %211 = load i8*, i8** %210, align 8
  call void @_ZdlPv(i8* %211) #16
  br label %212

212:                                              ; preds = %209, %198
  %213 = bitcast %"class.std::__1::basic_string"* %204 to i8*
  call void @llvm.memcpy.p0i8.p0i8.i64(i8* align 8 %213, i8* nonnull align 8 %203, i64 24, i1 false) #14
  call void @llvm.lifetime.end.p0i8(i64 24, i8* nonnull %203) #14
  %214 = bitcast %"class.std::__1::basic_string"* %21 to i8*
  call void @llvm.lifetime.start.p0i8(i64 24, i8* nonnull %214) #14
  call void @_ZNSt3__112basic_stringIcNS_11char_traitsIcEENS_9allocatorIcEEEC2IDnEEPKc(%"class.std::__1::basic_string"* nonnull %21, i8* getelementptr inbounds ([7 x i8], [7 x i8]* @.str.76, i64 0, i64 0)) #15
  %215 = getelementptr inbounds %"class.Ice::ClFlags", %"class.Ice::ClFlags"* %0, i64 0, i32 16
  %216 = bitcast %"class.std::__1::basic_string"* %215 to %"struct.std::__1::basic_string<char, std::__1::char_traits<char>, std::__1::allocator<char> >::__short"*
  %217 = getelementptr inbounds %"struct.std::__1::basic_string<char, std::__1::char_traits<char>, std::__1::allocator<char> >::__short", %"struct.std::__1::basic_string<char, std::__1::char_traits<char>, std::__1::allocator<char> >::__short"* %216, i64 0, i32 1, i32 0
  %218 = load i8, i8* %217, align 1
  %219 = icmp slt i8 %218, 0
  br i1 %219, label %220, label %223

220:                                              ; preds = %212
  %221 = getelementptr inbounds %"class.std::__1::basic_string", %"class.std::__1::basic_string"* %215, i64 0, i32 0, i32 0, i32 0, i32 0, i32 0, i32 0
  %222 = load i8*, i8** %221, align 8
  call void @_ZdlPv(i8* %222) #16
  br label %223

223:                                              ; preds = %220, %212
  %224 = bitcast %"class.std::__1::basic_string"* %215 to i8*
  call void @llvm.memcpy.p0i8.p0i8.i64(i8* align 8 %224, i8* nonnull align 8 %214, i64 24, i1 false) #14
  call void @llvm.lifetime.end.p0i8(i64 24, i8* nonnull %214) #14
  %225 = getelementptr inbounds %"class.Ice::ClFlags", %"class.Ice::ClFlags"* %0, i64 0, i32 17
  %226 = bitcast %"class.llvm::cl::ValuesClass"* %22 to i8*
  call void @llvm.memset.p0i8.i64(i8* align 8 %225, i8 0, i64 6, i1 false)
  call void @llvm.lifetime.start.p0i8(i64 184, i8* nonnull %226) #14
  %227 = bitcast [3 x %"struct.llvm::cl::OptionEnumValue"]* %3 to i8*
  call void @llvm.lifetime.start.p0i8(i64 120, i8* nonnull %227) #14, !noalias !14
  %228 = getelementptr inbounds [3 x %"struct.llvm::cl::OptionEnumValue"], [3 x %"struct.llvm::cl::OptionEnumValue"]* %3, i64 0, i64 0
  %229 = getelementptr inbounds [3 x %"struct.llvm::cl::OptionEnumValue"], [3 x %"struct.llvm::cl::OptionEnumValue"]* %3, i64 0, i64 0, i32 0, i32 0
  store i8* getelementptr inbounds ([2 x i8], [2 x i8]* @.str.12, i64 0, i64 0), i8** %229, align 8, !noalias !19
  %230 = getelementptr inbounds [3 x %"struct.llvm::cl::OptionEnumValue"], [3 x %"struct.llvm::cl::OptionEnumValue"]* %3, i64 0, i64 0, i32 0, i32 1
  store i64 1, i64* %230, align 8, !noalias !19
  %231 = getelementptr inbounds [3 x %"struct.llvm::cl::OptionEnumValue"], [3 x %"struct.llvm::cl::OptionEnumValue"]* %3, i64 0, i64 0, i32 1
  store i32 0, i32* %231, align 8, !noalias !19
  %232 = getelementptr inbounds [3 x %"struct.llvm::cl::OptionEnumValue"], [3 x %"struct.llvm::cl::OptionEnumValue"]* %3, i64 0, i64 0, i32 2, i32 0
  store i8* getelementptr inbounds ([9 x i8], [9 x i8]* @.str.98, i64 0, i64 0), i8** %232, align 8, !noalias !19
  %233 = getelementptr inbounds [3 x %"struct.llvm::cl::OptionEnumValue"], [3 x %"struct.llvm::cl::OptionEnumValue"]* %3, i64 0, i64 0, i32 2, i32 1
  store i64 8, i64* %233, align 8, !noalias !19
  %234 = getelementptr inbounds [3 x %"struct.llvm::cl::OptionEnumValue"], [3 x %"struct.llvm::cl::OptionEnumValue"]* %3, i64 0, i64 1, i32 0, i32 0
  store i8* getelementptr inbounds ([8 x i8], [8 x i8]* @.str.99, i64 0, i64 0), i8** %234, align 8, !noalias !19
  %235 = getelementptr inbounds [3 x %"struct.llvm::cl::OptionEnumValue"], [3 x %"struct.llvm::cl::OptionEnumValue"]* %3, i64 0, i64 1, i32 0, i32 1
  store i64 7, i64* %235, align 8, !noalias !19
  %236 = getelementptr inbounds [3 x %"struct.llvm::cl::OptionEnumValue"], [3 x %"struct.llvm::cl::OptionEnumValue"]* %3, i64 0, i64 1, i32 1
  store i32 1, i32* %236, align 8, !noalias !19
  %237 = getelementptr inbounds [3 x %"struct.llvm::cl::OptionEnumValue"], [3 x %"struct.llvm::cl::OptionEnumValue"]* %3, i64 0, i64 1, i32 2, i32 0
  store i8* getelementptr inbounds ([11 x i8], [11 x i8]* @.str.100, i64 0, i64 0), i8** %237, align 8, !noalias !19
  %238 = getelementptr inbounds [3 x %"struct.llvm::cl::OptionEnumValue"], [3 x %"struct.llvm::cl::OptionEnumValue"]* %3, i64 0, i64 1, i32 2, i32 1
  store i64 10, i64* %238, align 8, !noalias !19
  %239 = getelementptr inbounds [3 x %"struct.llvm::cl::OptionEnumValue"], [3 x %"struct.llvm::cl::OptionEnumValue"]* %3, i64 0, i64 2, i32 0, i32 0
  store i8* getelementptr inbounds ([7 x i8], [7 x i8]* @.str.101, i64 0, i64 0), i8** %239, align 8, !noalias !19
  %240 = getelementptr inbounds [3 x %"struct.llvm::cl::OptionEnumValue"], [3 x %"struct.llvm::cl::OptionEnumValue"]* %3, i64 0, i64 2, i32 0, i32 1
  store i64 6, i64* %240, align 8, !noalias !19
  %241 = getelementptr inbounds [3 x %"struct.llvm::cl::OptionEnumValue"], [3 x %"struct.llvm::cl::OptionEnumValue"]* %3, i64 0, i64 2, i32 1
  store i32 2, i32* %241, align 8, !noalias !19
  %242 = getelementptr inbounds [3 x %"struct.llvm::cl::OptionEnumValue"], [3 x %"struct.llvm::cl::OptionEnumValue"]* %3, i64 0, i64 2, i32 2, i32 0
  store i8* getelementptr inbounds ([14 x i8], [14 x i8]* @.str.102, i64 0, i64 0), i8** %242, align 8, !noalias !19
  %243 = getelementptr inbounds [3 x %"struct.llvm::cl::OptionEnumValue"], [3 x %"struct.llvm::cl::OptionEnumValue"]* %3, i64 0, i64 2, i32 2, i32 1
  store i64 13, i64* %243, align 8, !noalias !19
  %244 = getelementptr inbounds %"class.llvm::cl::ValuesClass", %"class.llvm::cl::ValuesClass"* %22, i64 0, i32 0, i32 0
  %245 = getelementptr inbounds %"class.llvm::cl::ValuesClass", %"class.llvm::cl::ValuesClass"* %22, i64 0, i32 0, i32 0, i32 0, i32 0, i32 1, i32 0, i32 0, i64 0
  %246 = getelementptr inbounds %"class.llvm::cl::ValuesClass", %"class.llvm::cl::ValuesClass"* %22, i64 0, i32 0, i32 0, i32 0, i32 0, i32 0, i32 0
  store i8* %245, i8** %246, align 8, !alias.scope !14
  %247 = getelementptr inbounds %"class.llvm::cl::ValuesClass", %"class.llvm::cl::ValuesClass"* %22, i64 0, i32 0, i32 0, i32 0, i32 0, i32 0, i32 1
  %248 = getelementptr inbounds %"class.llvm::cl::ValuesClass", %"class.llvm::cl::ValuesClass"* %22, i64 0, i32 0, i32 0, i32 0, i32 0, i32 0, i32 2
  %249 = getelementptr inbounds %"class.llvm::cl::ValuesClass", %"class.llvm::cl::ValuesClass"* %22, i64 0, i32 0, i32 0, i32 0, i32 0, i32 1, i32 0, i32 0, i64 160
  store i8* %249, i8** %248, align 8, !alias.scope !14
  %250 = ptrtoint i8* %245 to i64
  %251 = bitcast i8** %247 to i64*
  store i64 %250, i64* %251, align 8, !alias.scope !14
  %252 = getelementptr inbounds [3 x %"struct.llvm::cl::OptionEnumValue"], [3 x %"struct.llvm::cl::OptionEnumValue"]* %3, i64 0, i64 3
  call void @_ZN4llvm15SmallVectorImplINS_2cl15OptionEnumValueEE6appendIPKS2_EEvT_S7_(%"class.llvm::SmallVectorImpl.19"* nonnull %244, %"struct.llvm::cl::OptionEnumValue"* nonnull %228, %"struct.llvm::cl::OptionEnumValue"* %252) #15
  call void @llvm.lifetime.end.p0i8(i64 120, i8* nonnull %227) #14, !noalias !14
  %253 = getelementptr inbounds %"class.Ice::ClFlags", %"class.Ice::ClFlags"* %0, i64 0, i32 23
  store i32 1, i32* %253, align 8
  %254 = load i8*, i8** %246, align 8
  %255 = icmp eq i8* %254, %245
  br i1 %255, label %257, label %256

256:                                              ; preds = %223
  call void @free(i8* %254) #15
  br label %257

257:                                              ; preds = %223, %256
  call void @llvm.lifetime.end.p0i8(i64 184, i8* nonnull %226) #14
  %258 = getelementptr inbounds %"class.Ice::ClFlags", %"class.Ice::ClFlags"* %0, i64 0, i32 24
  store i8 1, i8* %258, align 4
  %259 = getelementptr inbounds %"class.Ice::ClFlags", %"class.Ice::ClFlags"* %0, i64 0, i32 25
  store i8 1, i8* %259, align 1
  %260 = getelementptr inbounds %"class.Ice::ClFlags", %"class.Ice::ClFlags"* %0, i64 0, i32 26
  store i8 0, i8* %260, align 2
  %261 = bitcast %"class.std::__1::vector"* %23 to i8*
  call void @llvm.lifetime.start.p0i8(i64 24, i8* nonnull %261) #14
  call void @llvm.memset.p0i8.i64(i8* nonnull align 8 %261, i8 0, i64 24, i1 false) #14, !alias.scope !20
  %262 = getelementptr inbounds %"class.Ice::ClFlags", %"class.Ice::ClFlags"* %0, i64 0, i32 27
  call void @_ZNSt3__16vectorINS_12basic_stringIcNS_11char_traitsIcEENS_9allocatorIcEEEENS4_IS6_EEE13__vdeallocateEv(%"class.std::__1::vector"* %262) #15
  %263 = bitcast %"class.std::__1::vector"* %262 to i8*
  call void @llvm.memset.p0i8.i64(i8* align 8 %263, i8 0, i64 24, i1 false)
  call void @llvm.memset.p0i8.i64(i8* nonnull align 8 %261, i8 0, i64 24, i1 false) #14
  %264 = getelementptr inbounds %"class.std::__1::vector", %"class.std::__1::vector"* %23, i64 0, i32 0
  call void @_ZNSt3__113__vector_baseINS_12basic_stringIcNS_11char_traitsIcEENS_9allocatorIcEEEENS4_IS6_EEED2Ev(%"class.std::__1::__vector_base"* nonnull %264) #15
  call void @llvm.lifetime.end.p0i8(i64 24, i8* nonnull %261) #14
  %265 = getelementptr inbounds %"class.Ice::ClFlags", %"class.Ice::ClFlags"* %0, i64 0, i32 28
  store i8 0, i8* %265, align 8
  %266 = bitcast %"class.std::__1::basic_string"* %24 to i8*
  call void @llvm.lifetime.start.p0i8(i64 24, i8* nonnull %266) #14
  call void @_ZNSt3__112basic_stringIcNS_11char_traitsIcEENS_9allocatorIcEEEC2IDnEEPKc(%"class.std::__1::basic_string"* nonnull %24, i8* getelementptr inbounds ([1 x i8], [1 x i8]* @.str.121, i64 0, i64 0)) #15
  %267 = getelementptr inbounds %"class.Ice::ClFlags", %"class.Ice::ClFlags"* %0, i64 0, i32 29
  %268 = bitcast %"class.std::__1::basic_string"* %267 to %"struct.std::__1::basic_string<char, std::__1::char_traits<char>, std::__1::allocator<char> >::__short"*
  %269 = getelementptr inbounds %"struct.std::__1::basic_string<char, std::__1::char_traits<char>, std::__1::allocator<char> >::__short", %"struct.std::__1::basic_string<char, std::__1::char_traits<char>, std::__1::allocator<char> >::__short"* %268, i64 0, i32 1, i32 0
  %270 = load i8, i8* %269, align 1
  %271 = icmp slt i8 %270, 0
  br i1 %271, label %272, label %275

272:                                              ; preds = %257
  %273 = getelementptr inbounds %"class.std::__1::basic_string", %"class.std::__1::basic_string"* %267, i64 0, i32 0, i32 0, i32 0, i32 0, i32 0, i32 0
  %274 = load i8*, i8** %273, align 8
  call void @_ZdlPv(i8* %274) #16
  br label %275

275:                                              ; preds = %272, %257
  %276 = bitcast %"class.std::__1::basic_string"* %267 to i8*
  call void @llvm.memcpy.p0i8.p0i8.i64(i8* align 8 %276, i8* nonnull align 8 %266, i64 24, i1 false) #14
  call void @llvm.lifetime.end.p0i8(i64 24, i8* nonnull %266) #14
  %277 = bitcast %"class.std::__1::basic_string"* %25 to i8*
  call void @llvm.lifetime.start.p0i8(i64 24, i8* nonnull %277) #14
  call void @_ZNSt3__112basic_stringIcNS_11char_traitsIcEENS_9allocatorIcEEEC2IDnEEPKc(%"class.std::__1::basic_string"* nonnull %25, i8* getelementptr inbounds ([2 x i8], [2 x i8]* @.str.125, i64 0, i64 0)) #15
  %278 = getelementptr inbounds %"class.Ice::ClFlags", %"class.Ice::ClFlags"* %0, i64 0, i32 30
  %279 = bitcast %"class.std::__1::basic_string"* %278 to %"struct.std::__1::basic_string<char, std::__1::char_traits<char>, std::__1::allocator<char> >::__short"*
  %280 = getelementptr inbounds %"struct.std::__1::basic_string<char, std::__1::char_traits<char>, std::__1::allocator<char> >::__short", %"struct.std::__1::basic_string<char, std::__1::char_traits<char>, std::__1::allocator<char> >::__short"* %279, i64 0, i32 1, i32 0
  %281 = load i8, i8* %280, align 1
  %282 = icmp slt i8 %281, 0
  br i1 %282, label %283, label %286

283:                                              ; preds = %275
  %284 = getelementptr inbounds %"class.std::__1::basic_string", %"class.std::__1::basic_string"* %278, i64 0, i32 0, i32 0, i32 0, i32 0, i32 0, i32 0
  %285 = load i8*, i8** %284, align 8
  call void @_ZdlPv(i8* %285) #16
  br label %286

286:                                              ; preds = %283, %275
  %287 = bitcast %"class.std::__1::basic_string"* %278 to i8*
  call void @llvm.memcpy.p0i8.p0i8.i64(i8* align 8 %287, i8* nonnull align 8 %277, i64 24, i1 false) #14
  call void @llvm.lifetime.end.p0i8(i64 24, i8* nonnull %277) #14
  %288 = getelementptr inbounds %"class.Ice::ClFlags", %"class.Ice::ClFlags"* %0, i64 0, i32 31
  store i8 0, i8* %288, align 8
  %289 = getelementptr inbounds %"class.Ice::ClFlags", %"class.Ice::ClFlags"* %0, i64 0, i32 32
  store i8 0, i8* %289, align 1
  %290 = getelementptr inbounds %"class.Ice::ClFlags", %"class.Ice::ClFlags"* %0, i64 0, i32 33
  store i8 0, i8* %290, align 2
  %291 = bitcast %"class.llvm::cl::ValuesClass"* %26 to i8*
  call void @llvm.lifetime.start.p0i8(i64 184, i8* nonnull %291) #14
  %292 = bitcast [2 x %"struct.llvm::cl::OptionEnumValue"]* %2 to i8*
  call void @llvm.lifetime.start.p0i8(i64 80, i8* nonnull %292) #14, !noalias !29
  %293 = getelementptr inbounds [2 x %"struct.llvm::cl::OptionEnumValue"], [2 x %"struct.llvm::cl::OptionEnumValue"]* %2, i64 0, i64 0
  %294 = getelementptr inbounds [2 x %"struct.llvm::cl::OptionEnumValue"], [2 x %"struct.llvm::cl::OptionEnumValue"]* %2, i64 0, i64 0, i32 0, i32 0
  store i8* getelementptr inbounds ([5 x i8], [5 x i8]* @.str.138, i64 0, i64 0), i8** %294, align 8, !noalias !34
  %295 = getelementptr inbounds [2 x %"struct.llvm::cl::OptionEnumValue"], [2 x %"struct.llvm::cl::OptionEnumValue"]* %2, i64 0, i64 0, i32 0, i32 1
  store i64 4, i64* %295, align 8, !noalias !34
  %296 = getelementptr inbounds [2 x %"struct.llvm::cl::OptionEnumValue"], [2 x %"struct.llvm::cl::OptionEnumValue"]* %2, i64 0, i64 0, i32 1
  store i32 0, i32* %296, align 8, !noalias !34
  %297 = getelementptr inbounds [2 x %"struct.llvm::cl::OptionEnumValue"], [2 x %"struct.llvm::cl::OptionEnumValue"]* %2, i64 0, i64 0, i32 2, i32 0
  store i8* getelementptr inbounds ([20 x i8], [20 x i8]* @.str.139, i64 0, i64 0), i8** %297, align 8, !noalias !34
  %298 = getelementptr inbounds [2 x %"struct.llvm::cl::OptionEnumValue"], [2 x %"struct.llvm::cl::OptionEnumValue"]* %2, i64 0, i64 0, i32 2, i32 1
  store i64 19, i64* %298, align 8, !noalias !34
  %299 = getelementptr inbounds [2 x %"struct.llvm::cl::OptionEnumValue"], [2 x %"struct.llvm::cl::OptionEnumValue"]* %2, i64 0, i64 1, i32 0, i32 0
  store i8* getelementptr inbounds ([6 x i8], [6 x i8]* @.str.140, i64 0, i64 0), i8** %299, align 8, !noalias !34
  %300 = getelementptr inbounds [2 x %"struct.llvm::cl::OptionEnumValue"], [2 x %"struct.llvm::cl::OptionEnumValue"]* %2, i64 0, i64 1, i32 0, i32 1
  store i64 5, i64* %300, align 8, !noalias !34
  %301 = getelementptr inbounds [2 x %"struct.llvm::cl::OptionEnumValue"], [2 x %"struct.llvm::cl::OptionEnumValue"]* %2, i64 0, i64 1, i32 1
  store i32 1, i32* %301, align 8, !noalias !34
  %302 = getelementptr inbounds [2 x %"struct.llvm::cl::OptionEnumValue"], [2 x %"struct.llvm::cl::OptionEnumValue"]* %2, i64 0, i64 1, i32 2, i32 0
  store i8* getelementptr inbounds ([19 x i8], [19 x i8]* @.str.141, i64 0, i64 0), i8** %302, align 8, !noalias !34
  %303 = getelementptr inbounds [2 x %"struct.llvm::cl::OptionEnumValue"], [2 x %"struct.llvm::cl::OptionEnumValue"]* %2, i64 0, i64 1, i32 2, i32 1
  store i64 18, i64* %303, align 8, !noalias !34
  %304 = getelementptr inbounds %"class.llvm::cl::ValuesClass", %"class.llvm::cl::ValuesClass"* %26, i64 0, i32 0, i32 0
  %305 = getelementptr inbounds %"class.llvm::cl::ValuesClass", %"class.llvm::cl::ValuesClass"* %26, i64 0, i32 0, i32 0, i32 0, i32 0, i32 1, i32 0, i32 0, i64 0
  %306 = getelementptr inbounds %"class.llvm::cl::ValuesClass", %"class.llvm::cl::ValuesClass"* %26, i64 0, i32 0, i32 0, i32 0, i32 0, i32 0, i32 0
  store i8* %305, i8** %306, align 8, !alias.scope !29
  %307 = getelementptr inbounds %"class.llvm::cl::ValuesClass", %"class.llvm::cl::ValuesClass"* %26, i64 0, i32 0, i32 0, i32 0, i32 0, i32 0, i32 1
  %308 = getelementptr inbounds %"class.llvm::cl::ValuesClass", %"class.llvm::cl::ValuesClass"* %26, i64 0, i32 0, i32 0, i32 0, i32 0, i32 0, i32 2
  %309 = getelementptr inbounds %"class.llvm::cl::ValuesClass", %"class.llvm::cl::ValuesClass"* %26, i64 0, i32 0, i32 0, i32 0, i32 0, i32 1, i32 0, i32 0, i64 160
  store i8* %309, i8** %308, align 8, !alias.scope !29
  %310 = ptrtoint i8* %305 to i64
  %311 = bitcast i8** %307 to i64*
  store i64 %310, i64* %311, align 8, !alias.scope !29
  %312 = getelementptr inbounds [2 x %"struct.llvm::cl::OptionEnumValue"], [2 x %"struct.llvm::cl::OptionEnumValue"]* %2, i64 0, i64 2
  call void @_ZN4llvm15SmallVectorImplINS_2cl15OptionEnumValueEE6appendIPKS2_EEvT_S7_(%"class.llvm::SmallVectorImpl.19"* nonnull %304, %"struct.llvm::cl::OptionEnumValue"* nonnull %293, %"struct.llvm::cl::OptionEnumValue"* %312) #15
  call void @llvm.lifetime.end.p0i8(i64 80, i8* nonnull %292) #14, !noalias !29
  %313 = getelementptr inbounds %"class.Ice::ClFlags", %"class.Ice::ClFlags"* %0, i64 0, i32 34
  store i32 0, i32* %313, align 4
  %314 = load i8*, i8** %306, align 8
  %315 = icmp eq i8* %314, %305
  br i1 %315, label %317, label %316

316:                                              ; preds = %286
  call void @free(i8* %314) #15
  br label %317

317:                                              ; preds = %286, %316
  call void @llvm.lifetime.end.p0i8(i64 184, i8* nonnull %291) #14
  %318 = getelementptr inbounds %"class.Ice::ClFlags", %"class.Ice::ClFlags"* %0, i64 0, i32 35
  store i8 0, i8* %318, align 8
  %319 = getelementptr inbounds %"class.Ice::ClFlags", %"class.Ice::ClFlags"* %0, i64 0, i32 36
  store i8 0, i8* %319, align 1
  %320 = getelementptr inbounds %"class.Ice::ClFlags", %"class.Ice::ClFlags"* %0, i64 0, i32 37
  store i32 1, i32* %320, align 4
  %321 = getelementptr inbounds %"class.Ice::ClFlags", %"class.Ice::ClFlags"* %0, i64 0, i32 38
  store i8 0, i8* %321, align 8
  %322 = bitcast %"class.std::__1::basic_string"* %27 to i8*
  call void @llvm.lifetime.start.p0i8(i64 24, i8* nonnull %322) #14
  call void @_ZNSt3__112basic_stringIcNS_11char_traitsIcEENS_9allocatorIcEEEC2IDnEEPKc(%"class.std::__1::basic_string"* nonnull %27, i8* getelementptr inbounds ([2 x i8], [2 x i8]* @.str.1, i64 0, i64 0)) #15
  %323 = getelementptr inbounds %"class.Ice::ClFlags", %"class.Ice::ClFlags"* %0, i64 0, i32 39
  %324 = bitcast %"class.std::__1::basic_string"* %323 to %"struct.std::__1::basic_string<char, std::__1::char_traits<char>, std::__1::allocator<char> >::__short"*
  %325 = getelementptr inbounds %"struct.std::__1::basic_string<char, std::__1::char_traits<char>, std::__1::allocator<char> >::__short", %"struct.std::__1::basic_string<char, std::__1::char_traits<char>, std::__1::allocator<char> >::__short"* %324, i64 0, i32 1, i32 0
  %326 = load i8, i8* %325, align 1
  %327 = icmp slt i8 %326, 0
  br i1 %327, label %328, label %331

328:                                              ; preds = %317
  %329 = getelementptr inbounds %"class.std::__1::basic_string", %"class.std::__1::basic_string"* %323, i64 0, i32 0, i32 0, i32 0, i32 0, i32 0, i32 0
  %330 = load i8*, i8** %329, align 8
  call void @_ZdlPv(i8* %330) #16
  br label %331

331:                                              ; preds = %328, %317
  %332 = bitcast %"class.std::__1::basic_string"* %323 to i8*
  call void @llvm.memcpy.p0i8.p0i8.i64(i8* align 8 %332, i8* nonnull align 8 %322, i64 24, i1 false) #14
  call void @llvm.lifetime.end.p0i8(i64 24, i8* nonnull %322) #14
  %333 = getelementptr inbounds %"class.Ice::ClFlags", %"class.Ice::ClFlags"* %0, i64 0, i32 40
  store i32 1, i32* %333, align 8
  %334 = getelementptr inbounds %"class.Ice::ClFlags", %"class.Ice::ClFlags"* %0, i64 0, i32 41
  store i8 0, i8* %334, align 4
  %335 = getelementptr inbounds %"class.Ice::ClFlags", %"class.Ice::ClFlags"* %0, i64 0, i32 42
  store i32 10, i32* %335, align 8
  %336 = bitcast %"class.llvm::cl::ValuesClass"* %28 to i8*
  call void @llvm.lifetime.start.p0i8(i64 184, i8* nonnull %336) #14
  call void @llvm.lifetime.start.p0i8(i64 120, i8* nonnull %227) #14, !noalias !35
  store i8* getelementptr inbounds ([4 x i8], [4 x i8]* @.str.169, i64 0, i64 0), i8** %229, align 8, !noalias !40
  store i64 3, i64* %230, align 8, !noalias !40
  store i32 0, i32* %231, align 8, !noalias !40
  store i8* getelementptr inbounds ([30 x i8], [30 x i8]* @.str.170, i64 0, i64 0), i8** %232, align 8, !noalias !40
  store i64 29, i64* %233, align 8, !noalias !40
  store i8* getelementptr inbounds ([4 x i8], [4 x i8]* @.str.171, i64 0, i64 0), i8** %234, align 8, !noalias !40
  store i64 3, i64* %235, align 8, !noalias !40
  store i32 1, i32* %236, align 8, !noalias !40
  store i8* getelementptr inbounds ([21 x i8], [21 x i8]* @.str.172, i64 0, i64 0), i8** %237, align 8, !noalias !40
  store i64 20, i64* %238, align 8, !noalias !40
  store i8* getelementptr inbounds ([5 x i8], [5 x i8]* @.str.173, i64 0, i64 0), i8** %239, align 8, !noalias !40
  store i64 4, i64* %240, align 8, !noalias !40
  store i32 2, i32* %241, align 8, !noalias !40
  store i8* getelementptr inbounds ([42 x i8], [42 x i8]* @.str.174, i64 0, i64 0), i8** %242, align 8, !noalias !40
  store i64 41, i64* %243, align 8, !noalias !40
  %337 = getelementptr inbounds %"class.llvm::cl::ValuesClass", %"class.llvm::cl::ValuesClass"* %28, i64 0, i32 0, i32 0
  %338 = getelementptr inbounds %"class.llvm::cl::ValuesClass", %"class.llvm::cl::ValuesClass"* %28, i64 0, i32 0, i32 0, i32 0, i32 0, i32 1, i32 0, i32 0, i64 0
  %339 = getelementptr inbounds %"class.llvm::cl::ValuesClass", %"class.llvm::cl::ValuesClass"* %28, i64 0, i32 0, i32 0, i32 0, i32 0, i32 0, i32 0
  store i8* %338, i8** %339, align 8, !alias.scope !35
  %340 = getelementptr inbounds %"class.llvm::cl::ValuesClass", %"class.llvm::cl::ValuesClass"* %28, i64 0, i32 0, i32 0, i32 0, i32 0, i32 0, i32 1
  %341 = getelementptr inbounds %"class.llvm::cl::ValuesClass", %"class.llvm::cl::ValuesClass"* %28, i64 0, i32 0, i32 0, i32 0, i32 0, i32 0, i32 2
  %342 = getelementptr inbounds %"class.llvm::cl::ValuesClass", %"class.llvm::cl::ValuesClass"* %28, i64 0, i32 0, i32 0, i32 0, i32 0, i32 1, i32 0, i32 0, i64 160
  store i8* %342, i8** %341, align 8, !alias.scope !35
  %343 = ptrtoint i8* %338 to i64
  %344 = bitcast i8** %340 to i64*
  store i64 %343, i64* %344, align 8, !alias.scope !35
  call void @_ZN4llvm15SmallVectorImplINS_2cl15OptionEnumValueEE6appendIPKS2_EEvT_S7_(%"class.llvm::SmallVectorImpl.19"* nonnull %337, %"struct.llvm::cl::OptionEnumValue"* nonnull %228, %"struct.llvm::cl::OptionEnumValue"* %252) #15
  call void @llvm.lifetime.end.p0i8(i64 120, i8* nonnull %227) #14, !noalias !35
  %345 = getelementptr inbounds %"class.Ice::ClFlags", %"class.Ice::ClFlags"* %0, i64 0, i32 43
  store i32 2, i32* %345, align 4
  %346 = load i8*, i8** %339, align 8
  %347 = icmp eq i8* %346, %338
  br i1 %347, label %349, label %348

348:                                              ; preds = %331
  call void @free(i8* %346) #15
  br label %349

349:                                              ; preds = %331, %348
  call void @llvm.lifetime.end.p0i8(i64 184, i8* nonnull %336) #14
  %350 = bitcast %"class.llvm::cl::ValuesClass"* %29 to i8*
  call void @llvm.lifetime.start.p0i8(i64 184, i8* nonnull %350) #14
  call void @llvm.lifetime.start.p0i8(i64 80, i8* nonnull %292) #14, !noalias !41
  store i8* getelementptr inbounds ([6 x i8], [6 x i8]* @.str.140, i64 0, i64 0), i8** %294, align 8, !noalias !46
  store i64 5, i64* %295, align 8, !noalias !46
  store i32 0, i32* %296, align 8, !noalias !46
  store i8* getelementptr inbounds ([31 x i8], [31 x i8]* @.str.178, i64 0, i64 0), i8** %297, align 8, !noalias !46
  store i64 30, i64* %298, align 8, !noalias !46
  store i8* getelementptr inbounds ([9 x i8], [9 x i8]* @.str.179, i64 0, i64 0), i8** %299, align 8, !noalias !46
  store i64 8, i64* %300, align 8, !noalias !46
  store i32 1, i32* %301, align 8, !noalias !46
  store i8* getelementptr inbounds ([22 x i8], [22 x i8]* @.str.180, i64 0, i64 0), i8** %302, align 8, !noalias !46
  store i64 21, i64* %303, align 8, !noalias !46
  %351 = getelementptr inbounds %"class.llvm::cl::ValuesClass", %"class.llvm::cl::ValuesClass"* %29, i64 0, i32 0, i32 0
  %352 = getelementptr inbounds %"class.llvm::cl::ValuesClass", %"class.llvm::cl::ValuesClass"* %29, i64 0, i32 0, i32 0, i32 0, i32 0, i32 1, i32 0, i32 0, i64 0
  %353 = getelementptr inbounds %"class.llvm::cl::ValuesClass", %"class.llvm::cl::ValuesClass"* %29, i64 0, i32 0, i32 0, i32 0, i32 0, i32 0, i32 0
  store i8* %352, i8** %353, align 8, !alias.scope !41
  %354 = getelementptr inbounds %"class.llvm::cl::ValuesClass", %"class.llvm::cl::ValuesClass"* %29, i64 0, i32 0, i32 0, i32 0, i32 0, i32 0, i32 1
  %355 = getelementptr inbounds %"class.llvm::cl::ValuesClass", %"class.llvm::cl::ValuesClass"* %29, i64 0, i32 0, i32 0, i32 0, i32 0, i32 0, i32 2
  %356 = getelementptr inbounds %"class.llvm::cl::ValuesClass", %"class.llvm::cl::ValuesClass"* %29, i64 0, i32 0, i32 0, i32 0, i32 0, i32 1, i32 0, i32 0, i64 160
  store i8* %356, i8** %355, align 8, !alias.scope !41
  %357 = ptrtoint i8* %352 to i64
  %358 = bitcast i8** %354 to i64*
  store i64 %357, i64* %358, align 8, !alias.scope !41
  call void @_ZN4llvm15SmallVectorImplINS_2cl15OptionEnumValueEE6appendIPKS2_EEvT_S7_(%"class.llvm::SmallVectorImpl.19"* nonnull %351, %"struct.llvm::cl::OptionEnumValue"* nonnull %293, %"struct.llvm::cl::OptionEnumValue"* %312) #15
  call void @llvm.lifetime.end.p0i8(i64 80, i8* nonnull %292) #14, !noalias !41
  %359 = getelementptr inbounds %"class.Ice::ClFlags", %"class.Ice::ClFlags"* %0, i64 0, i32 44
  store i32 0, i32* %359, align 8
  %360 = load i8*, i8** %353, align 8
  %361 = icmp eq i8* %360, %352
  br i1 %361, label %363, label %362

362:                                              ; preds = %349
  call void @free(i8* %360) #15
  br label %363

363:                                              ; preds = %349, %362
  call void @llvm.lifetime.end.p0i8(i64 184, i8* nonnull %350) #14
  %364 = getelementptr inbounds %"class.Ice::ClFlags", %"class.Ice::ClFlags"* %0, i64 0, i32 45
  store i8 1, i8* %364, align 4
  %365 = getelementptr inbounds %"class.Ice::ClFlags", %"class.Ice::ClFlags"* %0, i64 0, i32 46
  store i8 1, i8* %365, align 1
  %366 = getelementptr inbounds %"class.Ice::ClFlags", %"class.Ice::ClFlags"* %0, i64 0, i32 47
  store i8 0, i8* %366, align 2
  %367 = getelementptr inbounds %"class.Ice::ClFlags", %"class.Ice::ClFlags"* %0, i64 0, i32 48
  store i8 1, i8* %367, align 1
  %368 = getelementptr inbounds %"class.Ice::ClFlags", %"class.Ice::ClFlags"* %0, i64 0, i32 49
  store i8 0, i8* %368, align 8
  %369 = getelementptr inbounds %"class.Ice::ClFlags", %"class.Ice::ClFlags"* %0, i64 0, i32 50
  store i8 0, i8* %369, align 1
  %370 = getelementptr inbounds %"class.Ice::ClFlags", %"class.Ice::ClFlags"* %0, i64 0, i32 51
  store i8 0, i8* %370, align 2
  %371 = bitcast %"class.llvm::cl::ValuesClass"* %30 to i8*
  call void @llvm.lifetime.start.p0i8(i64 184, i8* nonnull %371) #14
  call void @llvm.lifetime.start.p0i8(i64 200, i8* nonnull %73) #14, !noalias !47
  store i8* getelementptr inbounds ([5 x i8], [5 x i8]* @.str.205, i64 0, i64 0), i8** %75, align 8, !noalias !52
  store i64 4, i64* %76, align 8, !noalias !52
  store i32 0, i32* %77, align 8, !noalias !52
  store i8* getelementptr inbounds ([50 x i8], [50 x i8]* @.str.206, i64 0, i64 0), i8** %78, align 8, !noalias !52
  store i64 49, i64* %79, align 8, !noalias !52
  store i8* getelementptr inbounds ([5 x i8], [5 x i8]* @.str.207, i64 0, i64 0), i8** %80, align 8, !noalias !52
  store i64 4, i64* %81, align 8, !noalias !52
  store i32 1, i32* %82, align 8, !noalias !52
  store i8* getelementptr inbounds ([29 x i8], [29 x i8]* @.str.208, i64 0, i64 0), i8** %83, align 8, !noalias !52
  store i64 28, i64* %84, align 8, !noalias !52
  store i8* getelementptr inbounds ([7 x i8], [7 x i8]* @.str.209, i64 0, i64 0), i8** %85, align 8, !noalias !52
  store i64 6, i64* %86, align 8, !noalias !52
  store i32 2, i32* %87, align 8, !noalias !52
  store i8* getelementptr inbounds ([32 x i8], [32 x i8]* @.str.210, i64 0, i64 0), i8** %88, align 8, !noalias !52
  store i64 31, i64* %89, align 8, !noalias !52
  store i8* getelementptr inbounds ([5 x i8], [5 x i8]* @.str.211, i64 0, i64 0), i8** %90, align 8, !noalias !52
  store i64 4, i64* %91, align 8, !noalias !52
  store i32 4, i32* %92, align 8, !noalias !52
  store i8* getelementptr inbounds ([29 x i8], [29 x i8]* @.str.212, i64 0, i64 0), i8** %93, align 8, !noalias !52
  store i64 28, i64* %94, align 8, !noalias !52
  store i8* getelementptr inbounds ([10 x i8], [10 x i8]* @.str.213, i64 0, i64 0), i8** %95, align 8, !noalias !52
  store i64 9, i64* %96, align 8, !noalias !52
  store i32 5, i32* %97, align 8, !noalias !52
  store i8* getelementptr inbounds ([51 x i8], [51 x i8]* @.str.214, i64 0, i64 0), i8** %98, align 8, !noalias !52
  store i64 50, i64* %99, align 8, !noalias !52
  %372 = getelementptr inbounds %"class.llvm::cl::ValuesClass", %"class.llvm::cl::ValuesClass"* %30, i64 0, i32 0, i32 0
  %373 = getelementptr inbounds %"class.llvm::cl::ValuesClass", %"class.llvm::cl::ValuesClass"* %30, i64 0, i32 0, i32 0, i32 0, i32 0, i32 1, i32 0, i32 0, i64 0
  %374 = getelementptr inbounds %"class.llvm::cl::ValuesClass", %"class.llvm::cl::ValuesClass"* %30, i64 0, i32 0, i32 0, i32 0, i32 0, i32 0, i32 0
  store i8* %373, i8** %374, align 8, !alias.scope !47
  %375 = getelementptr inbounds %"class.llvm::cl::ValuesClass", %"class.llvm::cl::ValuesClass"* %30, i64 0, i32 0, i32 0, i32 0, i32 0, i32 0, i32 1
  %376 = getelementptr inbounds %"class.llvm::cl::ValuesClass", %"class.llvm::cl::ValuesClass"* %30, i64 0, i32 0, i32 0, i32 0, i32 0, i32 0, i32 2
  %377 = getelementptr inbounds %"class.llvm::cl::ValuesClass", %"class.llvm::cl::ValuesClass"* %30, i64 0, i32 0, i32 0, i32 0, i32 0, i32 1, i32 0, i32 0, i64 160
  store i8* %377, i8** %376, align 8, !alias.scope !47
  %378 = ptrtoint i8* %373 to i64
  %379 = bitcast i8** %375 to i64*
  store i64 %378, i64* %379, align 8, !alias.scope !47
  call void @_ZN4llvm15SmallVectorImplINS_2cl15OptionEnumValueEE6appendIPKS2_EEvT_S7_(%"class.llvm::SmallVectorImpl.19"* nonnull %372, %"struct.llvm::cl::OptionEnumValue"* nonnull %74, %"struct.llvm::cl::OptionEnumValue"* %108) #15
  call void @llvm.lifetime.end.p0i8(i64 200, i8* nonnull %73) #14, !noalias !47
  %380 = getelementptr inbounds %"class.Ice::ClFlags", %"class.Ice::ClFlags"* %0, i64 0, i32 52
  store i32 0, i32* %380, align 4
  %381 = load i8*, i8** %374, align 8
  %382 = icmp eq i8* %381, %373
  br i1 %382, label %384, label %383

383:                                              ; preds = %363
  call void @free(i8* %381) #15
  br label %384

384:                                              ; preds = %363, %383
  call void @llvm.lifetime.end.p0i8(i64 184, i8* nonnull %371) #14
  %385 = bitcast %"class.std::__1::basic_string"* %31 to i8*
  call void @llvm.lifetime.start.p0i8(i64 24, i8* nonnull %385) #14
  call void @_ZNSt3__112basic_stringIcNS_11char_traitsIcEENS_9allocatorIcEEEC2IDnEEPKc(%"class.std::__1::basic_string"* nonnull %31, i8* getelementptr inbounds ([1 x i8], [1 x i8]* @.str.121, i64 0, i64 0)) #15
  %386 = getelementptr inbounds %"class.Ice::ClFlags", %"class.Ice::ClFlags"* %0, i64 0, i32 53
  %387 = bitcast %"class.std::__1::basic_string"* %386 to %"struct.std::__1::basic_string<char, std::__1::char_traits<char>, std::__1::allocator<char> >::__short"*
