; ModuleID = '../../third_party/flatbuffers/src/src/idl_gen_rust.cpp'
source_filename = "../../third_party/flatbuffers/src/src/idl_gen_rust.cpp"
target datalayout = "e-m:e-i64:64-f80:128-n8:16:32:64-S128"
target triple = "x86_64-unknown-linux-gnu"

%"struct.std::__1::piecewise_construct_t" = type { i8 }
%"class.std::__1::locale::id" = type <{ %"struct.std::__1::once_flag", i32, [4 x i8] }>
%"struct.std::__1::once_flag" = type { i64 }
%"struct.std::__1::__function::__policy" = type { i8* (i8*)*, void (i8*)*, i8, %"class.std::type_info"* }
%"class.std::type_info" = type { i32 (...)**, i8* }
%"class.std::__1::basic_string" = type { %"class.std::__1::__compressed_pair" }
%"class.std::__1::__compressed_pair" = type { %"struct.std::__1::__compressed_pair_elem" }
%"struct.std::__1::__compressed_pair_elem" = type { %"struct.std::__1::basic_string<char, std::__1::char_traits<char>, std::__1::allocator<char> >::__rep" }
%"struct.std::__1::basic_string<char, std::__1::char_traits<char>, std::__1::allocator<char> >::__rep" = type { %union.anon }
%union.anon = type { %"struct.std::__1::basic_string<char, std::__1::char_traits<char>, std::__1::allocator<char> >::__long" }
%"struct.std::__1::basic_string<char, std::__1::char_traits<char>, std::__1::allocator<char> >::__long" = type { i8*, i64, i64 }
%"struct.std::__1::basic_string<char, std::__1::char_traits<char>, std::__1::allocator<char> >::__short" = type { [23 x i8], %struct.anon }
%struct.anon = type { i8 }
%"struct.flatbuffers::Type" = type <{ i32, i32, %"struct.flatbuffers::StructDef"*, %"struct.flatbuffers::EnumDef"*, i16, [6 x i8] }>
%"struct.flatbuffers::StructDef" = type { %"struct.flatbuffers::Definition.base", %"class.flatbuffers::SymbolTable.21", i8, i8, i8, i8, i64, i64, %"class.std::__1::unique_ptr" }
%"struct.flatbuffers::Definition.base" = type <{ %"class.std::__1::basic_string", %"class.std::__1::basic_string", %"class.std::__1::vector", %"class.flatbuffers::SymbolTable", i8, [7 x i8], %"struct.flatbuffers::Namespace"*, i32, i32, i32 }>
%"class.std::__1::vector" = type { %"class.std::__1::__vector_base" }
%"class.std::__1::__vector_base" = type { %"class.std::__1::basic_string"*, %"class.std::__1::basic_string"*, %"class.std::__1::__compressed_pair.1" }
%"class.std::__1::__compressed_pair.1" = type { %"struct.std::__1::__compressed_pair_elem.2" }
%"struct.std::__1::__compressed_pair_elem.2" = type { %"class.std::__1::basic_string"* }
%"class.flatbuffers::SymbolTable" = type { %"class.std::__1::map", %"class.std::__1::vector.14" }
%"class.std::__1::map" = type { %"class.std::__1::__tree" }
%"class.std::__1::__tree" = type { %"class.std::__1::__tree_end_node"*, %"class.std::__1::__compressed_pair.6", %"class.std::__1::__compressed_pair.11" }
%"class.std::__1::__tree_end_node" = type { %"class.std::__1::__tree_node_base"* }
%"class.std::__1::__tree_node_base" = type <{ %"class.std::__1::__tree_end_node", %"class.std::__1::__tree_node_base"*, %"class.std::__1::__tree_end_node"*, i8, [7 x i8] }>
%"class.std::__1::__compressed_pair.6" = type { %"struct.std::__1::__compressed_pair_elem.7" }
%"struct.std::__1::__compressed_pair_elem.7" = type { %"class.std::__1::__tree_end_node" }
%"class.std::__1::__compressed_pair.11" = type { %"struct.std::__1::__compressed_pair_elem.12" }
%"struct.std::__1::__compressed_pair_elem.12" = type { i64 }
%"class.std::__1::vector.14" = type { %"class.std::__1::__vector_base.15" }
%"class.std::__1::__vector_base.15" = type { %"struct.flatbuffers::Value"**, %"struct.flatbuffers::Value"**, %"class.std::__1::__compressed_pair.16" }
%"struct.flatbuffers::Value" = type <{ %"struct.flatbuffers::Type", %"class.std::__1::basic_string", i16, [6 x i8] }>
%"class.std::__1::__compressed_pair.16" = type { %"struct.std::__1::__compressed_pair_elem.17" }
%"struct.std::__1::__compressed_pair_elem.17" = type { %"struct.flatbuffers::Value"** }
%"struct.flatbuffers::Namespace" = type { %"class.std::__1::vector", i64 }
%"class.flatbuffers::SymbolTable.21" = type { %"class.std::__1::map.22", %"class.std::__1::vector.31" }
%"class.std::__1::map.22" = type { %"class.std::__1::__tree.23" }
%"class.std::__1::__tree.23" = type { %"class.std::__1::__tree_end_node"*, %"class.std::__1::__compressed_pair.24", %"class.std::__1::__compressed_pair.28" }
%"class.std::__1::__compressed_pair.24" = type { %"struct.std::__1::__compressed_pair_elem.7" }
%"class.std::__1::__compressed_pair.28" = type { %"struct.std::__1::__compressed_pair_elem.12" }
%"class.std::__1::vector.31" = type { %"class.std::__1::__vector_base.32" }
%"class.std::__1::__vector_base.32" = type { %"struct.flatbuffers::FieldDef"**, %"struct.flatbuffers::FieldDef"**, %"class.std::__1::__compressed_pair.33" }
%"struct.flatbuffers::FieldDef" = type { %"struct.flatbuffers::Definition.base", [4 x i8], %"struct.flatbuffers::Value", i8, i8, i8, i8, i8, i8, %"struct.flatbuffers::StructDef"*, i64 }
%"class.std::__1::__compressed_pair.33" = type { %"struct.std::__1::__compressed_pair_elem.34" }
%"struct.std::__1::__compressed_pair_elem.34" = type { %"struct.flatbuffers::FieldDef"** }
%"class.std::__1::unique_ptr" = type { %"class.std::__1::__compressed_pair.38" }
%"class.std::__1::__compressed_pair.38" = type { %"struct.std::__1::__compressed_pair_elem.2" }
%"struct.flatbuffers::EnumDef" = type { %"struct.flatbuffers::Definition.base", i8, i8, [2 x i8], %"struct.flatbuffers::Type", %"class.flatbuffers::SymbolTable.40" }
%"class.flatbuffers::SymbolTable.40" = type { %"class.std::__1::map.41", %"class.std::__1::vector.50" }
%"class.std::__1::map.41" = type { %"class.std::__1::__tree.42" }
%"class.std::__1::__tree.42" = type { %"class.std::__1::__tree_end_node"*, %"class.std::__1::__compressed_pair.43", %"class.std::__1::__compressed_pair.47" }
%"class.std::__1::__compressed_pair.43" = type { %"struct.std::__1::__compressed_pair_elem.7" }
%"class.std::__1::__compressed_pair.47" = type { %"struct.std::__1::__compressed_pair_elem.12" }
%"class.std::__1::vector.50" = type { %"class.std::__1::__vector_base.51" }
%"class.std::__1::__vector_base.51" = type { %"struct.flatbuffers::EnumVal"**, %"struct.flatbuffers::EnumVal"**, %"class.std::__1::__compressed_pair.52" }
%"struct.flatbuffers::EnumVal" = type { %"class.std::__1::basic_string", %"class.std::__1::vector", %"struct.flatbuffers::Type", i64 }
%"class.std::__1::__compressed_pair.52" = type { %"struct.std::__1::__compressed_pair_elem.53" }
%"struct.std::__1::__compressed_pair_elem.53" = type { %"struct.flatbuffers::EnumVal"** }
%"class.std::__1::__basic_string_common" = type { i8 }
%"class.flatbuffers::Parser" = type { %"struct.flatbuffers::ParserState", %"class.flatbuffers::SymbolTable.57", %"class.flatbuffers::SymbolTable.74", %"class.flatbuffers::SymbolTable.91", %"class.flatbuffers::SymbolTable.108", %"class.std::__1::vector.142", %"struct.flatbuffers::Namespace"*, %"struct.flatbuffers::Namespace"*, %"class.std::__1::basic_string", %"class.flatbuffers::FlatBufferBuilder", %"class.flexbuffers::Builder", %"class.flexbuffers::Reference", %"struct.flatbuffers::StructDef"*, %"class.std::__1::basic_string", %"class.std::__1::basic_string", %"class.std::__1::map.187", %"class.std::__1::map.196", %"class.std::__1::vector", %"class.std::__1::map.205", %"struct.flatbuffers::IDLOptions", i8, i8*, %"class.std::__1::basic_string", %"class.std::__1::vector.214", i32, i32 }
%"struct.flatbuffers::ParserState" = type { i8*, i8*, i32, i32, i8, %"class.std::__1::basic_string", %"class.std::__1::vector" }
%"class.flatbuffers::SymbolTable.57" = type { %"class.std::__1::map.58", %"class.std::__1::vector.67" }
%"class.std::__1::map.58" = type { %"class.std::__1::__tree.59" }
%"class.std::__1::__tree.59" = type { %"class.std::__1::__tree_end_node"*, %"class.std::__1::__compressed_pair.60", %"class.std::__1::__compressed_pair.64" }
%"class.std::__1::__compressed_pair.60" = type { %"struct.std::__1::__compressed_pair_elem.7" }
%"class.std::__1::__compressed_pair.64" = type { %"struct.std::__1::__compressed_pair_elem.12" }
%"class.std::__1::vector.67" = type { %"class.std::__1::__vector_base.68" }
%"class.std::__1::__vector_base.68" = type { %"struct.flatbuffers::Type"**, %"struct.flatbuffers::Type"**, %"class.std::__1::__compressed_pair.69" }
%"class.std::__1::__compressed_pair.69" = type { %"struct.std::__1::__compressed_pair_elem.70" }
%"struct.std::__1::__compressed_pair_elem.70" = type { %"struct.flatbuffers::Type"** }
%"class.flatbuffers::SymbolTable.74" = type { %"class.std::__1::map.75", %"class.std::__1::vector.84" }
%"class.std::__1::map.75" = type { %"class.std::__1::__tree.76" }
%"class.std::__1::__tree.76" = type { %"class.std::__1::__tree_end_node"*, %"class.std::__1::__compressed_pair.77", %"class.std::__1::__compressed_pair.81" }
%"class.std::__1::__compressed_pair.77" = type { %"struct.std::__1::__compressed_pair_elem.7" }
%"class.std::__1::__compressed_pair.81" = type { %"struct.std::__1::__compressed_pair_elem.12" }
%"class.std::__1::vector.84" = type { %"class.std::__1::__vector_base.85" }
%"class.std::__1::__vector_base.85" = type { %"struct.flatbuffers::StructDef"**, %"struct.flatbuffers::StructDef"**, %"class.std::__1::__compressed_pair.86" }
%"class.std::__1::__compressed_pair.86" = type { %"struct.std::__1::__compressed_pair_elem.87" }
%"struct.std::__1::__compressed_pair_elem.87" = type { %"struct.flatbuffers::StructDef"** }
%"class.flatbuffers::SymbolTable.91" = type { %"class.std::__1::map.92", %"class.std::__1::vector.101" }
%"class.std::__1::map.92" = type { %"class.std::__1::__tree.93" }
%"class.std::__1::__tree.93" = type { %"class.std::__1::__tree_end_node"*, %"class.std::__1::__compressed_pair.94", %"class.std::__1::__compressed_pair.98" }
%"class.std::__1::__compressed_pair.94" = type { %"struct.std::__1::__compressed_pair_elem.7" }
%"class.std::__1::__compressed_pair.98" = type { %"struct.std::__1::__compressed_pair_elem.12" }
%"class.std::__1::vector.101" = type { %"class.std::__1::__vector_base.102" }
%"class.std::__1::__vector_base.102" = type { %"struct.flatbuffers::EnumDef"**, %"struct.flatbuffers::EnumDef"**, %"class.std::__1::__compressed_pair.103" }
%"class.std::__1::__compressed_pair.103" = type { %"struct.std::__1::__compressed_pair_elem.104" }
%"struct.std::__1::__compressed_pair_elem.104" = type { %"struct.flatbuffers::EnumDef"** }
%"class.flatbuffers::SymbolTable.108" = type { %"class.std::__1::map.109", %"class.std::__1::vector.118" }
%"class.std::__1::map.109" = type { %"class.std::__1::__tree.110" }
%"class.std::__1::__tree.110" = type { %"class.std::__1::__tree_end_node"*, %"class.std::__1::__compressed_pair.111", %"class.std::__1::__compressed_pair.115" }
%"class.std::__1::__compressed_pair.111" = type { %"struct.std::__1::__compressed_pair_elem.7" }
%"class.std::__1::__compressed_pair.115" = type { %"struct.std::__1::__compressed_pair_elem.12" }
%"class.std::__1::vector.118" = type { %"class.std::__1::__vector_base.119" }
%"class.std::__1::__vector_base.119" = type { %"struct.flatbuffers::ServiceDef"**, %"struct.flatbuffers::ServiceDef"**, %"class.std::__1::__compressed_pair.137" }
%"struct.flatbuffers::ServiceDef" = type { %"struct.flatbuffers::Definition.base", %"class.flatbuffers::SymbolTable.120" }
%"class.flatbuffers::SymbolTable.120" = type { %"class.std::__1::map.121", %"class.std::__1::vector.130" }
%"class.std::__1::map.121" = type { %"class.std::__1::__tree.122" }
%"class.std::__1::__tree.122" = type { %"class.std::__1::__tree_end_node"*, %"class.std::__1::__compressed_pair.123", %"class.std::__1::__compressed_pair.127" }
%"class.std::__1::__compressed_pair.123" = type { %"struct.std::__1::__compressed_pair_elem.7" }
%"class.std::__1::__compressed_pair.127" = type { %"struct.std::__1::__compressed_pair_elem.12" }
%"class.std::__1::vector.130" = type { %"class.std::__1::__vector_base.131" }
%"class.std::__1::__vector_base.131" = type { %"struct.flatbuffers::RPCCall"**, %"struct.flatbuffers::RPCCall"**, %"class.std::__1::__compressed_pair.132" }
%"struct.flatbuffers::RPCCall" = type { %"struct.flatbuffers::Definition.base", %"struct.flatbuffers::StructDef"*, %"struct.flatbuffers::StructDef"* }
%"class.std::__1::__compressed_pair.132" = type { %"struct.std::__1::__compressed_pair_elem.133" }
%"struct.std::__1::__compressed_pair_elem.133" = type { %"struct.flatbuffers::RPCCall"** }
%"class.std::__1::__compressed_pair.137" = type { %"struct.std::__1::__compressed_pair_elem.138" }
%"struct.std::__1::__compressed_pair_elem.138" = type { %"struct.flatbuffers::ServiceDef"** }
%"class.std::__1::vector.142" = type { %"class.std::__1::__vector_base.143" }
%"class.std::__1::__vector_base.143" = type { %"struct.flatbuffers::Namespace"**, %"struct.flatbuffers::Namespace"**, %"class.std::__1::__compressed_pair.144" }
%"class.std::__1::__compressed_pair.144" = type { %"struct.std::__1::__compressed_pair_elem.145" }
%"struct.std::__1::__compressed_pair_elem.145" = type { %"struct.flatbuffers::Namespace"** }
%"class.flatbuffers::FlatBufferBuilder" = type { %"class.flatbuffers::vector_downward", i32, i16, i8, i8, i64, i8, i8, %"class.std::__1::set"* }
%"class.flatbuffers::vector_downward" = type { %"class.flatbuffers::Allocator"*, i8, i64, i64, i64, i8*, i8*, i8* }
%"class.flatbuffers::Allocator" = type { i32 (...)** }
%"class.std::__1::set" = type { %"class.std::__1::__tree.149" }
%"class.std::__1::__tree.149" = type { %"class.std::__1::__tree_end_node"*, %"class.std::__1::__compressed_pair.150", %"class.std::__1::__compressed_pair.154" }
%"class.std::__1::__compressed_pair.150" = type { %"struct.std::__1::__compressed_pair_elem.7" }
%"class.std::__1::__compressed_pair.154" = type { %"struct.std::__1::__compressed_pair_elem.12", %"struct.std::__1::__compressed_pair_elem.155" }
%"struct.std::__1::__compressed_pair_elem.155" = type { %"struct.flatbuffers::FlatBufferBuilder::StringOffsetCompare" }
%"struct.flatbuffers::FlatBufferBuilder::StringOffsetCompare" = type { %"class.flatbuffers::vector_downward"* }
%"class.flexbuffers::Builder" = type { %"class.std::__1::vector.156", %"class.std::__1::vector.163", i8, i32, i32, %"class.std::__1::set.171", %"class.std::__1::set.179" }
%"class.std::__1::vector.156" = type { %"class.std::__1::__vector_base.157" }
%"class.std::__1::__vector_base.157" = type { i8*, i8*, %"class.std::__1::__compressed_pair.158" }
%"class.std::__1::__compressed_pair.158" = type { %"struct.std::__1::__compressed_pair_elem.159" }
%"struct.std::__1::__compressed_pair_elem.159" = type { i8* }
%"class.std::__1::vector.163" = type { %"class.std::__1::__vector_base.164" }
%"class.std::__1::__vector_base.164" = type { %"struct.flexbuffers::Builder::Value"*, %"struct.flexbuffers::Builder::Value"*, %"class.std::__1::__compressed_pair.166" }
%"struct.flexbuffers::Builder::Value" = type { %union.anon.165, i32, i32 }
%union.anon.165 = type { i64 }
%"class.std::__1::__compressed_pair.166" = type { %"struct.std::__1::__compressed_pair_elem.167" }
%"struct.std::__1::__compressed_pair_elem.167" = type { %"struct.flexbuffers::Builder::Value"* }
%"class.std::__1::set.171" = type { %"class.std::__1::__tree.172" }
%"class.std::__1::__tree.172" = type { %"class.std::__1::__tree_end_node"*, %"class.std::__1::__compressed_pair.173", %"class.std::__1::__compressed_pair.177" }
%"class.std::__1::__compressed_pair.173" = type { %"struct.std::__1::__compressed_pair_elem.7" }
%"class.std::__1::__compressed_pair.177" = type { %"struct.std::__1::__compressed_pair_elem.12", %"struct.std::__1::__compressed_pair_elem.178" }
%"struct.std::__1::__compressed_pair_elem.178" = type { %"struct.flexbuffers::Builder::KeyOffsetCompare" }
%"struct.flexbuffers::Builder::KeyOffsetCompare" = type { %"class.std::__1::vector.156"* }
%"class.std::__1::set.179" = type { %"class.std::__1::__tree.180" }
%"class.std::__1::__tree.180" = type { %"class.std::__1::__tree_end_node"*, %"class.std::__1::__compressed_pair.181", %"class.std::__1::__compressed_pair.185" }
%"class.std::__1::__compressed_pair.181" = type { %"struct.std::__1::__compressed_pair_elem.7" }
%"class.std::__1::__compressed_pair.185" = type { %"struct.std::__1::__compressed_pair_elem.12", %"struct.std::__1::__compressed_pair_elem.186" }
%"struct.std::__1::__compressed_pair_elem.186" = type { %"struct.flexbuffers::Builder::StringOffsetCompare" }
%"struct.flexbuffers::Builder::StringOffsetCompare" = type { %"class.std::__1::vector.156"* }
%"class.flexbuffers::Reference" = type { i8*, i8, i8, i32 }
%"class.std::__1::map.187" = type { %"class.std::__1::__tree.188" }
%"class.std::__1::__tree.188" = type { %"class.std::__1::__tree_end_node"*, %"class.std::__1::__compressed_pair.189", %"class.std::__1::__compressed_pair.193" }
%"class.std::__1::__compressed_pair.189" = type { %"struct.std::__1::__compressed_pair_elem.7" }
%"class.std::__1::__compressed_pair.193" = type { %"struct.std::__1::__compressed_pair_elem.12" }
%"class.std::__1::map.196" = type { %"class.std::__1::__tree.197" }
%"class.std::__1::__tree.197" = type { %"class.std::__1::__tree_end_node"*, %"class.std::__1::__compressed_pair.198", %"class.std::__1::__compressed_pair.202" }
%"class.std::__1::__compressed_pair.198" = type { %"struct.std::__1::__compressed_pair_elem.7" }
%"class.std::__1::__compressed_pair.202" = type { %"struct.std::__1::__compressed_pair_elem.12" }
%"class.std::__1::map.205" = type { %"class.std::__1::__tree.206" }
%"class.std::__1::__tree.206" = type { %"class.std::__1::__tree_end_node"*, %"class.std::__1::__compressed_pair.207", %"class.std::__1::__compressed_pair.211" }
%"class.std::__1::__compressed_pair.207" = type { %"struct.std::__1::__compressed_pair_elem.7" }
%"class.std::__1::__compressed_pair.211" = type { %"struct.std::__1::__compressed_pair_elem.12" }
%"struct.flatbuffers::IDLOptions" = type <{ i8, i8, i8, i8, i8, i8, [2 x i8], i32, i8, i8, i8, i8, i8, i8, i8, i8, i8, i8, i8, i8, i8, [7 x i8], %"class.std::__1::basic_string", %"class.std::__1::basic_string", i8, i8, i8, i8, [4 x i8], %"class.std::__1::basic_string", %"class.std::__1::basic_string", i8, i8, i8, [5 x i8], %"class.std::__1::basic_string", i8, i8, i8, i8, i8, [3 x i8], %"class.std::__1::basic_string", %"class.std::__1::basic_string", i8, i8, i8, i8, [4 x i8], %"class.std::__1::basic_string", i8, i8, i8, [5 x i8], %"class.std::__1::vector", %"class.std::__1::basic_string", %"class.std::__1::basic_string", %"class.std::__1::basic_string", %"class.std::__1::basic_string", i32, i32, i64, i8, i8, [6 x i8] }>
%"class.std::__1::vector.214" = type { %"class.std::__1::__vector_base.215" }
%"class.std::__1::__vector_base.215" = type { %"struct.std::__1::pair"*, %"struct.std::__1::pair"*, %"class.std::__1::__compressed_pair.216" }
%"struct.std::__1::pair" = type { %"struct.flatbuffers::Value", %"struct.flatbuffers::FieldDef"* }
%"class.std::__1::__compressed_pair.216" = type { %"struct.std::__1::__compressed_pair_elem.217" }
%"struct.std::__1::__compressed_pair_elem.217" = type { %"struct.std::__1::pair"* }
%"class.flatbuffers::rust::RustGenerator" = type { %"class.flatbuffers::BaseGenerator", %"class.flatbuffers::CodeWriter", %"class.std::__1::set.221", %"struct.flatbuffers::Namespace"* }
%"class.flatbuffers::BaseGenerator" = type { i32 (...)**, %"class.flatbuffers::Parser"*, %"class.std::__1::basic_string"*, %"class.std::__1::basic_string"*, %"class.std::__1::basic_string", %"class.std::__1::basic_string", %"class.std::__1::basic_string" }
%"class.flatbuffers::CodeWriter" = type <{ %"class.std::__1::map.187", %"class.std::__1::basic_stringstream", %"class.std::__1::basic_string", i32, i8, [3 x i8] }>
%"class.std::__1::basic_stringstream" = type { %"class.std::__1::basic_iostream.base", %"class.std::__1::basic_stringbuf", %"class.std::__1::basic_ios.base" }
%"class.std::__1::basic_iostream.base" = type { %"class.std::__1::basic_istream.base", %"class.std::__1::basic_ostream.base" }
%"class.std::__1::basic_istream.base" = type { i32 (...)**, i64 }
%"class.std::__1::basic_ostream.base" = type { i32 (...)** }
%"class.std::__1::basic_stringbuf" = type <{ %"class.std::__1::basic_streambuf", %"class.std::__1::basic_string", i8*, i32, [4 x i8] }>
%"class.std::__1::basic_streambuf" = type { i32 (...)**, %"class.std::__1::locale", i8*, i8*, i8*, i8*, i8*, i8* }
%"class.std::__1::locale" = type { %"class.std::__1::locale::__imp"* }
%"class.std::__1::locale::__imp" = type opaque
%"class.std::__1::basic_ios.base" = type <{ %"class.std::__1::ios_base", %"class.std::__1::basic_ostream"*, i32 }>
%"class.std::__1::ios_base" = type { i32 (...)**, i32, i64, i64, i32, i32, i8*, i8*, void (i32, %"class.std::__1::ios_base"*, i32)**, i32*, i64, i64, i64*, i64, i64, i8**, i64, i64 }
%"class.std::__1::basic_ostream" = type { i32 (...)**, %"class.std::__1::basic_ios.base" }
%"class.std::__1::set.221" = type { %"class.std::__1::__tree.222" }
%"class.std::__1::__tree.222" = type { %"class.std::__1::__tree_end_node"*, %"class.std::__1::__compressed_pair.223", %"class.std::__1::__compressed_pair.227" }
%"class.std::__1::__compressed_pair.223" = type { %"struct.std::__1::__compressed_pair_elem.7" }
%"class.std::__1::__compressed_pair.227" = type { %"struct.std::__1::__compressed_pair_elem.12" }
%"class.std::__1::__tree_node" = type { %"class.std::__1::__tree_node_base.base", %"class.std::__1::basic_string" }
%"class.std::__1::__tree_node_base.base" = type <{ %"class.std::__1::__tree_end_node", %"class.std::__1::__tree_node_base"*, %"class.std::__1::__tree_end_node"*, i8 }>
%"class.std::__1::basic_iostream" = type { %"class.std::__1::basic_istream.base", %"class.std::__1::basic_ostream.base", %"class.std::__1::basic_ios.base" }
%"class.std::__1::basic_ios" = type <{ %"class.std::__1::ios_base", %"class.std::__1::basic_ostream"*, i32, [4 x i8] }>
%"class.std::__1::__tree_node.240" = type { %"class.std::__1::__tree_node_base.base", %"struct.std::__1::__value_type" }
%"struct.std::__1::__value_type" = type { %"struct.std::__1::pair.239" }
%"struct.std::__1::pair.239" = type { %"class.std::__1::basic_string", %"class.std::__1::basic_string" }
%"class.std::__1::tuple" = type { %"struct.std::__1::__tuple_impl" }
%"struct.std::__1::__tuple_impl" = type { %"class.std::__1::__tuple_leaf" }
%"class.std::__1::__tuple_leaf" = type { %"class.std::__1::basic_string"* }
%"class.std::__1::tuple.245" = type { i8 }
%"class.std::__1::function" = type { %"class.std::__1::__function::__policy_func" }
%"class.std::__1::__function::__policy_func" = type { %"union.std::__1::__function::__policy_storage", %"struct.std::__1::__function::__policy_invoker", %"struct.std::__1::__function::__policy"* }
%"union.std::__1::__function::__policy_storage" = type { i8*, [8 x i8] }
%"struct.std::__1::__function::__policy_invoker" = type { void (%"union.std::__1::__function::__policy_storage"*, i32, %"class.std::__1::basic_string"*, i32*)* }
%"struct.flatbuffers::Definition" = type <{ %"class.std::__1::basic_string", %"class.std::__1::basic_string", %"class.std::__1::vector", %"class.flatbuffers::SymbolTable", i8, [7 x i8], %"struct.flatbuffers::Namespace"*, i32, i32, i32, [4 x i8] }>
%"struct.flatbuffers::CommentConfig" = type { i8*, i8*, i8* }
%"class.std::__1::basic_ostream<char, std::__1::char_traits<char> >::sentry" = type { i8, %"class.std::__1::basic_ostream"* }
%"class.std::__1::locale::facet" = type { %"class.std::__1::__shared_count" }
%"class.std::__1::__shared_count" = type { i32 (...)**, i64 }
%"class.std::__1::ctype" = type <{ %"class.std::__1::locale::facet", i16*, i8, [7 x i8] }>
%"class.std::__1::__tree_node.261" = type { %"class.std::__1::__tree_node_base.base", %"struct.std::__1::__value_type.262" }
%"struct.std::__1::__value_type.262" = type { %"struct.std::__1::pair.260" }
%"struct.std::__1::pair.260" = type { %"class.std::__1::basic_string", %"struct.flatbuffers::Value"* }

$_ZN11flatbuffers4rust13RustGeneratorC2ERKNS_6ParserERKNSt3__112basic_stringIcNS5_11char_traitsIcEENS5_9allocatorIcEEEESD_ = comdat any

$_ZN11flatbuffers4rust13RustGenerator8generateEv = comdat any

$_ZN11flatbuffers4rust13RustGeneratorD2Ev = comdat any

$_ZN11flatbuffers4rust13RustGeneratorD0Ev = comdat any

$_ZNK11flatbuffers4rust13RustGenerator16CurrentNameSpaceEv = comdat any

$_ZN11flatbuffers13BaseGeneratorD2Ev = comdat any

$_ZN11flatbuffers13BaseGeneratorD0Ev = comdat any

$_ZNK11flatbuffers13BaseGenerator16CurrentNameSpaceEv = comdat any

$_ZNSt3__16__treeINS_12basic_stringIcNS_11char_traitsIcEENS_9allocatorIcEEEENS_4lessIS6_EENS4_IS6_EEE12__find_equalIS6_EERPNS_16__tree_node_baseIPvEERPNS_15__tree_end_nodeISF_EERKT_ = comdat any

$_ZNSt3__127__tree_balance_after_insertIPNS_16__tree_node_baseIPvEEEEvT_S5_ = comdat any

$_ZN11flatbuffers4rust13RustGenerator19GenNamespaceImportsEi = comdat any

$_ZN11flatbuffers4rust13RustGenerator12SetNameSpaceEPKNS_9NamespaceE = comdat any

$_ZN11flatbuffers4rust13RustGenerator7GenEnumERKNS_7EnumDefE = comdat any

$_ZN11flatbuffers4rust13RustGenerator9GenStructERKNS_9StructDefE = comdat any

$_ZN11flatbuffers4rust13RustGenerator8GenTableERKNS_9StructDefE = comdat any

$_ZN11flatbuffers4rust13RustGenerator17GenRootTableFuncsERKNS_9StructDefE = comdat any

$_ZN11flatbuffers4rust13RustGenerator10GenCommentERKNSt3__16vectorINS2_12basic_stringIcNS2_11char_traitsIcEENS2_9allocatorIcEEEENS7_IS9_EEEEPKc = comdat any

$_ZN11flatbuffers11NumToStringImEENSt3__112basic_stringIcNS1_11char_traitsIcEENS1_9allocatorIcEEEET_ = comdat any

$_ZNK11flatbuffers4rust13RustGenerator13GetEnumValUseERKNS_7EnumDefERKNS_7EnumValE = comdat any

$_ZNSt3__16__treeINS_12__value_typeINS_12basic_stringIcNS_11char_traitsIcEENS_9allocatorIcEEEES7_EENS_19__map_value_compareIS7_S8_NS_4lessIS7_EELb1EEENS5_IS8_EEE25__emplace_unique_key_argsIS7_JRKNS_21piecewise_construct_tENS_5tupleIJRKS7_EEENSJ_IJEEEEEENS_4pairINS_15__tree_iteratorIS8_PNS_11__tree_nodeIS8_PvEElEEbEERKT_DpOT0_ = comdat any

$_ZNSt3__16__treeINS_12__value_typeINS_12basic_stringIcNS_11char_traitsIcEENS_9allocatorIcEEEES7_EENS_19__map_value_compareIS7_S8_NS_4lessIS7_EELb1EEENS5_IS8_EEE12__find_equalIS7_EERPNS_16__tree_node_baseIPvEERPNS_15__tree_end_nodeISJ_EERKT_ = comdat any

$_ZNK11flatbuffers4rust13RustGenerator13EscapeKeywordERKNSt3__112basic_stringIcNS2_11char_traitsIcEENS2_9allocatorIcEEEE = comdat any

$_ZNKSt3__16__treeINS_12basic_stringIcNS_11char_traitsIcEENS_9allocatorIcEEEENS_4lessIS6_EENS4_IS6_EEE4findIS6_EENS_21__tree_const_iteratorIS6_PNS_11__tree_nodeIS6_PvEElEERKT_ = comdat any

$_ZN11flatbuffers11NumToStringIlEENSt3__112basic_stringIcNS1_11char_traitsIcEENS1_9allocatorIcEEEET_ = comdat any

$_ZNK11flatbuffers4rust13RustGenerator10GetTypeGetERKNS_4TypeE = comdat any

$_ZN11flatbuffers4rust13RustGenerator17PaddingDefinitionEiPNSt3__112basic_stringIcNS2_11char_traitsIcEENS2_9allocatorIcEEEEPi = comdat any

$_ZN11flatbuffers4rust13RustGenerator18PaddingInitializerEiPNSt3__112basic_stringIcNS2_11char_traitsIcEENS2_9allocatorIcEEEEPi = comdat any

$_ZN11flatbuffers4rust13RustGenerator27GenFullyQualifiedNameGetterERKNS_9StructDefERKNSt3__112basic_stringIcNS5_11char_traitsIcEENS5_9allocatorIcEEEE = comdat any

$_ZN11flatbuffers4rust13RustGenerator27TableBuilderArgsAddFuncTypeERKNS_8FieldDefERKNSt3__112basic_stringIcNS5_11char_traitsIcEENS5_9allocatorIcEEEE = comdat any

$_ZN11flatbuffers4rust13RustGenerator18GenKeyFieldMethodsERKNS_8FieldDefE = comdat any

$_ZNK11flatbuffers4rust13RustGenerator12GetTypeBasicERKNS_4TypeE = comdat any

$_ZNK11flatbuffers4rust13RustGenerator15WrapInNameSpaceEPKNS_9NamespaceERKNSt3__112basic_stringIcNS5_11char_traitsIcEENS5_9allocatorIcEEEE = comdat any

$_ZNK11flatbuffers4rust13RustGenerator29GetRelativeNamespaceTraversalEPKNS_9NamespaceES4_ = comdat any

$_ZNSt3__124__put_character_sequenceIcNS_11char_traitsIcEEEERNS_13basic_ostreamIT_T0_EES7_PKS4_m = comdat any

$_ZNSt3__116__pad_and_outputIcNS_11char_traitsIcEEEENS_19ostreambuf_iteratorIT_T0_EES6_PKS4_S8_S8_RNS_8ios_baseES4_ = comdat any

$_ZN11flatbuffers11NumToStringIiEENSt3__112basic_stringIcNS1_11char_traitsIcEENS1_9allocatorIcEEEET_ = comdat any

$_ZNSt3__110__function16__policy_invokerIFviPNS_12basic_stringIcNS_11char_traitsIcEENS_9allocatorIcEEEEPiEE11__call_implINS0_20__default_alloc_funcIPSA_SA_EEEEvPKNS0_16__policy_storageEiS8_S9_ = comdat any

$_ZN11flatbuffers4rust13RustGenerator30GenTableAccessorFuncReturnTypeERKNS_8FieldDefERKNSt3__112basic_stringIcNS5_11char_traitsIcEENS5_9allocatorIcEEEE = comdat any

$_ZN11flatbuffers4rust13RustGenerator18GetFieldOffsetNameERKNS_8FieldDefE = comdat any

$_ZN11flatbuffers11NumToStringItEENSt3__112basic_stringIcNS1_11char_traitsIcEENS1_9allocatorIcEEEET_ = comdat any

$_ZN11flatbuffers4rust13RustGenerator24GenTableAccessorFuncBodyERKNS_8FieldDefERKNSt3__112basic_stringIcNS5_11char_traitsIcEENS5_9allocatorIcEEEESD_ = comdat any

$_ZN11flatbuffers4rust13RustGenerator24TableBuilderArgsDefnTypeERKNS_8FieldDefERKNSt3__112basic_stringIcNS5_11char_traitsIcEENS5_9allocatorIcEEEE = comdat any

$_ZN11flatbuffers4rust13RustGenerator27TableBuilderArgsAddFuncBodyERKNS_8FieldDefE = comdat any

$_ZN11flatbuffers4rust13RustGenerator21GetDefaultScalarValueERKNS_8FieldDefE = comdat any

$_ZNKSt3__16__treeINS_12__value_typeINS_12basic_stringIcNS_11char_traitsIcEENS_9allocatorIcEEEEPN11flatbuffers5ValueEEENS_19__map_value_compareIS7_SB_NS_4lessIS7_EELb1EEENS5_ISB_EEE4findIS7_EENS_21__tree_const_iteratorISB_PNS_11__tree_nodeISB_PvEElEERKT_ = comdat any

$_ZNSt3__16__treeINS_12__value_typeINS_12basic_stringIcNS_11char_traitsIcEENS_9allocatorIcEEEES7_EENS_19__map_value_compareIS7_S8_NS_4lessIS7_EELb1EEENS5_IS8_EEE7destroyEPNS_11__tree_nodeIS8_PvEE = comdat any

$_ZNSt3__16__treeINS_12basic_stringIcNS_11char_traitsIcEENS_9allocatorIcEEEENS_4lessIS6_EENS4_IS6_EEE7destroyEPNS_11__tree_nodeIS6_PvEE = comdat any

$_ZTVN11flatbuffers4rust13RustGeneratorE = comdat any

$_ZTVN11flatbuffers13BaseGeneratorE = comdat any

$_ZZN11flatbuffers4rust13RustGenerator18GetEnumTypeForDeclERKNS_4TypeEE9ctypename = comdat any

$_ZZNK11flatbuffers4rust13RustGenerator12GetTypeBasicERKNS_4TypeEE9ctypename = comdat any

$_ZZNSt3__110__function8__policy15__choose_policyINS0_20__default_alloc_funcIPFviPNS_12basic_stringIcNS_11char_traitsIcEENS_9allocatorIcEEEEPiESC_EEEEPKS1_NS_17integral_constantIbLb1EEEE9__policy_ = comdat any

@.str = private unnamed_addr constant [19 x i8] c"FlatBuffers 1.12.0\00", align 1
@_ZN11flatbuffers25flatbuffer_version_stringE = weak hidden local_unnamed_addr global i8* getelementptr inbounds ([19 x i8], [19 x i8]* @.str, i64 0, i64 0), align 8
@.str.1 = private unnamed_addr constant [8 x i8] c"Option<\00", align 1
@.str.2 = private unnamed_addr constant [2 x i8] c">\00", align 1
@.str.3 = private unnamed_addr constant [10 x i8] c".unwrap()\00", align 1
@.str.4 = private unnamed_addr constant [3 x i8] c": \00", align 1
@.str.5 = private unnamed_addr constant [2 x i8] c" \00", align 1
@.str.6 = private unnamed_addr constant [1 x i8] zeroinitializer, align 1
@.str.7 = private unnamed_addr constant [3 x i8] c"::\00", align 1
@_ZTVN11flatbuffers4rust13RustGeneratorE = linkonce_odr hidden unnamed_addr constant { [6 x i8*] } { [6 x i8*] [i8* null, i8* null, i8* bitcast (i1 (%"class.flatbuffers::rust::RustGenerator"*)* @_ZN11flatbuffers4rust13RustGenerator8generateEv to i8*), i8* bitcast (void (%"class.flatbuffers::rust::RustGenerator"*)* @_ZN11flatbuffers4rust13RustGeneratorD2Ev to i8*), i8* bitcast (void (%"class.flatbuffers::rust::RustGenerator"*)* @_ZN11flatbuffers4rust13RustGeneratorD0Ev to i8*), i8* bitcast (%"struct.flatbuffers::Namespace"* (%"class.flatbuffers::rust::RustGenerator"*)* @_ZNK11flatbuffers4rust13RustGenerator16CurrentNameSpaceEv to i8*)] }, comdat, align 8
@.str.9 = private unnamed_addr constant [3 x i8] c"as\00", align 1
@.str.10 = private unnamed_addr constant [6 x i8] c"break\00", align 1
@.str.11 = private unnamed_addr constant [6 x i8] c"const\00", align 1
@.str.12 = private unnamed_addr constant [9 x i8] c"continue\00", align 1
@.str.13 = private unnamed_addr constant [6 x i8] c"crate\00", align 1
@.str.14 = private unnamed_addr constant [5 x i8] c"else\00", align 1
@.str.15 = private unnamed_addr constant [5 x i8] c"enum\00", align 1
@.str.16 = private unnamed_addr constant [7 x i8] c"extern\00", align 1
@.str.17 = private unnamed_addr constant [6 x i8] c"false\00", align 1
@.str.18 = private unnamed_addr constant [3 x i8] c"fn\00", align 1
@.str.19 = private unnamed_addr constant [4 x i8] c"for\00", align 1
@.str.20 = private unnamed_addr constant [3 x i8] c"if\00", align 1
@.str.21 = private unnamed_addr constant [5 x i8] c"impl\00", align 1
@.str.22 = private unnamed_addr constant [3 x i8] c"in\00", align 1
@.str.23 = private unnamed_addr constant [4 x i8] c"let\00", align 1
@.str.24 = private unnamed_addr constant [5 x i8] c"loop\00", align 1
@.str.25 = private unnamed_addr constant [6 x i8] c"match\00", align 1
@.str.26 = private unnamed_addr constant [4 x i8] c"mod\00", align 1
@.str.27 = private unnamed_addr constant [5 x i8] c"move\00", align 1
@.str.28 = private unnamed_addr constant [4 x i8] c"mut\00", align 1
@.str.29 = private unnamed_addr constant [4 x i8] c"pub\00", align 1
@.str.30 = private unnamed_addr constant [4 x i8] c"ref\00", align 1
@.str.31 = private unnamed_addr constant [7 x i8] c"return\00", align 1
@.str.32 = private unnamed_addr constant [5 x i8] c"Self\00", align 1
@.str.33 = private unnamed_addr constant [5 x i8] c"self\00", align 1
@.str.34 = private unnamed_addr constant [7 x i8] c"static\00", align 1
@.str.35 = private unnamed_addr constant [7 x i8] c"struct\00", align 1
@.str.36 = private unnamed_addr constant [6 x i8] c"super\00", align 1
@.str.37 = private unnamed_addr constant [6 x i8] c"trait\00", align 1
@.str.38 = private unnamed_addr constant [5 x i8] c"true\00", align 1
@.str.39 = private unnamed_addr constant [5 x i8] c"type\00", align 1
@.str.40 = private unnamed_addr constant [7 x i8] c"unsafe\00", align 1
@.str.41 = private unnamed_addr constant [4 x i8] c"use\00", align 1
@.str.42 = private unnamed_addr constant [6 x i8] c"where\00", align 1
@.str.43 = private unnamed_addr constant [6 x i8] c"while\00", align 1
@.str.44 = private unnamed_addr constant [9 x i8] c"abstract\00", align 1
@.str.45 = private unnamed_addr constant [8 x i8] c"alignof\00", align 1
@.str.46 = private unnamed_addr constant [7 x i8] c"become\00", align 1
@.str.47 = private unnamed_addr constant [4 x i8] c"box\00", align 1
@.str.48 = private unnamed_addr constant [3 x i8] c"do\00", align 1
@.str.49 = private unnamed_addr constant [6 x i8] c"final\00", align 1
@.str.50 = private unnamed_addr constant [6 x i8] c"macro\00", align 1
@.str.51 = private unnamed_addr constant [9 x i8] c"offsetof\00", align 1
@.str.52 = private unnamed_addr constant [9 x i8] c"override\00", align 1
@.str.53 = private unnamed_addr constant [5 x i8] c"priv\00", align 1
@.str.54 = private unnamed_addr constant [5 x i8] c"proc\00", align 1
@.str.55 = private unnamed_addr constant [5 x i8] c"pure\00", align 1
@.str.56 = private unnamed_addr constant [7 x i8] c"sizeof\00", align 1
@.str.57 = private unnamed_addr constant [7 x i8] c"typeof\00", align 1
@.str.58 = private unnamed_addr constant [8 x i8] c"unsized\00", align 1
@.str.59 = private unnamed_addr constant [8 x i8] c"virtual\00", align 1
@.str.60 = private unnamed_addr constant [6 x i8] c"yield\00", align 1
@.str.61 = private unnamed_addr constant [4 x i8] c"std\00", align 1
@.str.62 = private unnamed_addr constant [6 x i8] c"usize\00", align 1
@.str.63 = private unnamed_addr constant [6 x i8] c"isize\00", align 1
@.str.64 = private unnamed_addr constant [3 x i8] c"u8\00", align 1
@.str.65 = private unnamed_addr constant [3 x i8] c"i8\00", align 1
@.str.66 = private unnamed_addr constant [4 x i8] c"u16\00", align 1
@.str.67 = private unnamed_addr constant [4 x i8] c"i16\00", align 1
@.str.68 = private unnamed_addr constant [4 x i8] c"u32\00", align 1
@.str.69 = private unnamed_addr constant [4 x i8] c"i32\00", align 1
@.str.70 = private unnamed_addr constant [4 x i8] c"u64\00", align 1
@.str.71 = private unnamed_addr constant [4 x i8] c"i64\00", align 1
@.str.72 = private unnamed_addr constant [5 x i8] c"u128\00", align 1
@.str.73 = private unnamed_addr constant [5 x i8] c"i128\00", align 1
@.str.74 = private unnamed_addr constant [4 x i8] c"f32\00", align 1
@.str.75 = private unnamed_addr constant [4 x i8] c"f64\00", align 1
@.str.76 = private unnamed_addr constant [7 x i8] c"follow\00", align 1
@.str.77 = private unnamed_addr constant [5 x i8] c"push\00", align 1
@.str.78 = private unnamed_addr constant [5 x i8] c"size\00", align 1
@.str.79 = private unnamed_addr constant [10 x i8] c"alignment\00", align 1
@.str.80 = private unnamed_addr constant [17 x i8] c"to_little_endian\00", align 1
@.str.81 = private unnamed_addr constant [19 x i8] c"from_little_endian\00", align 1
@__const.RustGenerator.keywords = private unnamed_addr constant [74 x i8*] [i8* getelementptr inbounds ([3 x i8], [3 x i8]* @.str.9, i32 0, i32 0), i8* getelementptr inbounds ([6 x i8], [6 x i8]* @.str.10, i32 0, i32 0), i8* getelementptr inbounds ([6 x i8], [6 x i8]* @.str.11, i32 0, i32 0), i8* getelementptr inbounds ([9 x i8], [9 x i8]* @.str.12, i32 0, i32 0), i8* getelementptr inbounds ([6 x i8], [6 x i8]* @.str.13, i32 0, i32 0), i8* getelementptr inbounds ([5 x i8], [5 x i8]* @.str.14, i32 0, i32 0), i8* getelementptr inbounds ([5 x i8], [5 x i8]* @.str.15, i32 0, i32 0), i8* getelementptr inbounds ([7 x i8], [7 x i8]* @.str.16, i32 0, i32 0), i8* getelementptr inbounds ([6 x i8], [6 x i8]* @.str.17, i32 0, i32 0), i8* getelementptr inbounds ([3 x i8], [3 x i8]* @.str.18, i32 0, i32 0), i8* getelementptr inbounds ([4 x i8], [4 x i8]* @.str.19, i32 0, i32 0), i8* getelementptr inbounds ([3 x i8], [3 x i8]* @.str.20, i32 0, i32 0), i8* getelementptr inbounds ([5 x i8], [5 x i8]* @.str.21, i32 0, i32 0), i8* getelementptr inbounds ([3 x i8], [3 x i8]* @.str.22, i32 0, i32 0), i8* getelementptr inbounds ([4 x i8], [4 x i8]* @.str.23, i32 0, i32 0), i8* getelementptr inbounds ([5 x i8], [5 x i8]* @.str.24, i32 0, i32 0), i8* getelementptr inbounds ([6 x i8], [6 x i8]* @.str.25, i32 0, i32 0), i8* getelementptr inbounds ([4 x i8], [4 x i8]* @.str.26, i32 0, i32 0), i8* getelementptr inbounds ([5 x i8], [5 x i8]* @.str.27, i32 0, i32 0), i8* getelementptr inbounds ([4 x i8], [4 x i8]* @.str.28, i32 0, i32 0), i8* getelementptr inbounds ([4 x i8], [4 x i8]* @.str.29, i32 0, i32 0), i8* getelementptr inbounds ([4 x i8], [4 x i8]* @.str.30, i32 0, i32 0), i8* getelementptr inbounds ([7 x i8], [7 x i8]* @.str.31, i32 0, i32 0), i8* getelementptr inbounds ([5 x i8], [5 x i8]* @.str.32, i32 0, i32 0), i8* getelementptr inbounds ([5 x i8], [5 x i8]* @.str.33, i32 0, i32 0), i8* getelementptr inbounds ([7 x i8], [7 x i8]* @.str.34, i32 0, i32 0), i8* getelementptr inbounds ([7 x i8], [7 x i8]* @.str.35, i32 0, i32 0), i8* getelementptr inbounds ([6 x i8], [6 x i8]* @.str.36, i32 0, i32 0), i8* getelementptr inbounds ([6 x i8], [6 x i8]* @.str.37, i32 0, i32 0), i8* getelementptr inbounds ([5 x i8], [5 x i8]* @.str.38, i32 0, i32 0), i8* getelementptr inbounds ([5 x i8], [5 x i8]* @.str.39, i32 0, i32 0), i8* getelementptr inbounds ([7 x i8], [7 x i8]* @.str.40, i32 0, i32 0), i8* getelementptr inbounds ([4 x i8], [4 x i8]* @.str.41, i32 0, i32 0), i8* getelementptr inbounds ([6 x i8], [6 x i8]* @.str.42, i32 0, i32 0), i8* getelementptr inbounds ([6 x i8], [6 x i8]* @.str.43, i32 0, i32 0), i8* getelementptr inbounds ([9 x i8], [9 x i8]* @.str.44, i32 0, i32 0), i8* getelementptr inbounds ([8 x i8], [8 x i8]* @.str.45, i32 0, i32 0), i8* getelementptr inbounds ([7 x i8], [7 x i8]* @.str.46, i32 0, i32 0), i8* getelementptr inbounds ([4 x i8], [4 x i8]* @.str.47, i32 0, i32 0), i8* getelementptr inbounds ([3 x i8], [3 x i8]* @.str.48, i32 0, i32 0), i8* getelementptr inbounds ([6 x i8], [6 x i8]* @.str.49, i32 0, i32 0), i8* getelementptr inbounds ([6 x i8], [6 x i8]* @.str.50, i32 0, i32 0), i8* getelementptr inbounds ([9 x i8], [9 x i8]* @.str.51, i32 0, i32 0), i8* getelementptr inbounds ([9 x i8], [9 x i8]* @.str.52, i32 0, i32 0), i8* getelementptr inbounds ([5 x i8], [5 x i8]* @.str.53, i32 0, i32 0), i8* getelementptr inbounds ([5 x i8], [5 x i8]* @.str.54, i32 0, i32 0), i8* getelementptr inbounds ([5 x i8], [5 x i8]* @.str.55, i32 0, i32 0), i8* getelementptr inbounds ([7 x i8], [7 x i8]* @.str.56, i32 0, i32 0), i8* getelementptr inbounds ([7 x i8], [7 x i8]* @.str.57, i32 0, i32 0), i8* getelementptr inbounds ([8 x i8], [8 x i8]* @.str.58, i32 0, i32 0), i8* getelementptr inbounds ([8 x i8], [8 x i8]* @.str.59, i32 0, i32 0), i8* getelementptr inbounds ([6 x i8], [6 x i8]* @.str.60, i32 0, i32 0), i8* getelementptr inbounds ([4 x i8], [4 x i8]* @.str.61, i32 0, i32 0), i8* getelementptr inbounds ([6 x i8], [6 x i8]* @.str.62, i32 0, i32 0), i8* getelementptr inbounds ([6 x i8], [6 x i8]* @.str.63, i32 0, i32 0), i8* getelementptr inbounds ([3 x i8], [3 x i8]* @.str.64, i32 0, i32 0), i8* getelementptr inbounds ([3 x i8], [3 x i8]* @.str.65, i32 0, i32 0), i8* getelementptr inbounds ([4 x i8], [4 x i8]* @.str.66, i32 0, i32 0), i8* getelementptr inbounds ([4 x i8], [4 x i8]* @.str.67, i32 0, i32 0), i8* getelementptr inbounds ([4 x i8], [4 x i8]* @.str.68, i32 0, i32 0), i8* getelementptr inbounds ([4 x i8], [4 x i8]* @.str.69, i32 0, i32 0), i8* getelementptr inbounds ([4 x i8], [4 x i8]* @.str.70, i32 0, i32 0), i8* getelementptr inbounds ([4 x i8], [4 x i8]* @.str.71, i32 0, i32 0), i8* getelementptr inbounds ([5 x i8], [5 x i8]* @.str.72, i32 0, i32 0), i8* getelementptr inbounds ([5 x i8], [5 x i8]* @.str.73, i32 0, i32 0), i8* getelementptr inbounds ([4 x i8], [4 x i8]* @.str.74, i32 0, i32 0), i8* getelementptr inbounds ([4 x i8], [4 x i8]* @.str.75, i32 0, i32 0), i8* getelementptr inbounds ([7 x i8], [7 x i8]* @.str.76, i32 0, i32 0), i8* getelementptr inbounds ([5 x i8], [5 x i8]* @.str.77, i32 0, i32 0), i8* getelementptr inbounds ([5 x i8], [5 x i8]* @.str.78, i32 0, i32 0), i8* getelementptr inbounds ([10 x i8], [10 x i8]* @.str.79, i32 0, i32 0), i8* getelementptr inbounds ([17 x i8], [17 x i8]* @.str.80, i32 0, i32 0), i8* getelementptr inbounds ([19 x i8], [19 x i8]* @.str.81, i32 0, i32 0), i8* null], align 16
@_ZTVN11flatbuffers13BaseGeneratorE = linkonce_odr hidden unnamed_addr constant { [6 x i8*] } { [6 x i8*] [i8* null, i8* null, i8* bitcast (void ()* @__cxa_pure_virtual to i8*), i8* bitcast (void (%"class.flatbuffers::BaseGenerator"*)* @_ZN11flatbuffers13BaseGeneratorD2Ev to i8*), i8* bitcast (void (%"class.flatbuffers::BaseGenerator"*)* @_ZN11flatbuffers13BaseGeneratorD0Ev to i8*), i8* bitcast (%"struct.flatbuffers::Namespace"* (%"class.flatbuffers::BaseGenerator"*)* @_ZNK11flatbuffers13BaseGenerator16CurrentNameSpaceEv to i8*)] }, comdat, align 8
@_ZTVNSt3__118basic_stringstreamIcNS_11char_traitsIcEENS_9allocatorIcEEEE = external unnamed_addr constant { [5 x i8*], [5 x i8*], [5 x i8*] }, align 8
@_ZTTNSt3__118basic_stringstreamIcNS_11char_traitsIcEENS_9allocatorIcEEEE = external unnamed_addr constant [10 x i8*], align 8
@_ZTVNSt3__115basic_stringbufIcNS_11char_traitsIcEENS_9allocatorIcEEEE = external unnamed_addr constant { [16 x i8*] }, align 8
@.str.83 = private unnamed_addr constant [4 x i8] c"// \00", align 1
@.str.84 = private unnamed_addr constant [3 x i8] c"\0A\0A\00", align 1
@.str.85 = private unnamed_addr constant [12 x i8] c"use crate::\00", align 1
@.str.86 = private unnamed_addr constant [15 x i8] c"_generated::*;\00", align 1
@.str.87 = private unnamed_addr constant [14 x i8] c"use std::mem;\00", align 1
@.str.88 = private unnamed_addr constant [24 x i8] c"use std::cmp::Ordering;\00", align 1
@.str.89 = private unnamed_addr constant [26 x i8] c"extern crate flatbuffers;\00", align 1
@.str.90 = private unnamed_addr constant [37 x i8] c"use self::flatbuffers::EndianScalar;\00", align 1
@.str.91 = private unnamed_addr constant [15 x i8] c"}  // pub mod \00", align 1
@.str.92 = private unnamed_addr constant [36 x i8] c"#[allow(unused_imports, dead_code)]\00", align 1
@.str.93 = private unnamed_addr constant [9 x i8] c"pub mod \00", align 1
@.str.94 = private unnamed_addr constant [3 x i8] c" {\00", align 1
@.str.95 = private unnamed_addr constant [10 x i8] c"ENUM_NAME\00", align 1
@.str.96 = private unnamed_addr constant [10 x i8] c"BASE_TYPE\00", align 1
@.str.97 = private unnamed_addr constant [31 x i8] c"#[allow(non_camel_case_types)]\00", align 1
@.str.98 = private unnamed_addr constant [23 x i8] c"#[repr({{BASE_TYPE}})]\00", align 1
@.str.99 = private unnamed_addr constant [68 x i8] c"#[derive(Clone, Copy, PartialEq, Eq, PartialOrd, Ord, Hash, Debug)]\00", align 1
@.str.100 = private unnamed_addr constant [10 x i8] c"pub enum \00", align 1
@.str.101 = private unnamed_addr constant [3 x i8] c"  \00", align 1
@.str.102 = private unnamed_addr constant [4 x i8] c"KEY\00", align 1
@.str.103 = private unnamed_addr constant [6 x i8] c"VALUE\00", align 1
@.str.104 = private unnamed_addr constant [23 x i8] c"  {{KEY}} = {{VALUE}},\00", align 1
@.str.106 = private unnamed_addr constant [16 x i8] c"ENUM_NAME_SNAKE\00", align 1
@.str.107 = private unnamed_addr constant [15 x i8] c"ENUM_NAME_CAPS\00", align 1
@.str.108 = private unnamed_addr constant [20 x i8] c"ENUM_MIN_BASE_VALUE\00", align 1
@.str.109 = private unnamed_addr constant [20 x i8] c"ENUM_MAX_BASE_VALUE\00", align 1
@.str.110 = private unnamed_addr constant [57 x i8] c"pub const ENUM_MIN_{{ENUM_NAME_CAPS}}: {{BASE_TYPE}} = \5C\00", align 1
@.str.111 = private unnamed_addr constant [25 x i8] c"{{ENUM_MIN_BASE_VALUE}};\00", align 1
@.str.112 = private unnamed_addr constant [57 x i8] c"pub const ENUM_MAX_{{ENUM_NAME_CAPS}}: {{BASE_TYPE}} = \5C\00", align 1
@.str.113 = private unnamed_addr constant [25 x i8] c"{{ENUM_MAX_BASE_VALUE}};\00", align 1
@.str.114 = private unnamed_addr constant [53 x i8] c"impl<'a> flatbuffers::Follow<'a> for {{ENUM_NAME}} {\00", align 1
@.str.115 = private unnamed_addr constant [21 x i8] c"  type Inner = Self;\00", align 1
@.str.116 = private unnamed_addr constant [12 x i8] c"  #[inline]\00", align 1
@.str.117 = private unnamed_addr constant [56 x i8] c"  fn follow(buf: &'a [u8], loc: usize) -> Self::Inner {\00", align 1
@.str.118 = private unnamed_addr constant [50 x i8] c"    flatbuffers::read_scalar_at::<Self>(buf, loc)\00", align 1
@.str.119 = private unnamed_addr constant [4 x i8] c"  }\00", align 1
@.str.120 = private unnamed_addr constant [51 x i8] c"impl flatbuffers::EndianScalar for {{ENUM_NAME}} {\00", align 1
@.str.121 = private unnamed_addr constant [38 x i8] c"  fn to_little_endian(self) -> Self {\00", align 1
@.str.122 = private unnamed_addr constant [57 x i8] c"    let n = {{BASE_TYPE}}::to_le(self as {{BASE_TYPE}});\00", align 1
@.str.123 = private unnamed_addr constant [64 x i8] c"    let p = &n as *const {{BASE_TYPE}} as *const {{ENUM_NAME}};\00", align 1
@.str.124 = private unnamed_addr constant [18 x i8] c"    unsafe { *p }\00", align 1
@.str.125 = private unnamed_addr constant [40 x i8] c"  fn from_little_endian(self) -> Self {\00", align 1
@.str.126 = private unnamed_addr constant [59 x i8] c"    let n = {{BASE_TYPE}}::from_le(self as {{BASE_TYPE}});\00", align 1
@.str.127 = private unnamed_addr constant [43 x i8] c"impl flatbuffers::Push for {{ENUM_NAME}} {\00", align 1
@.str.128 = private unnamed_addr constant [33 x i8] c"    type Output = {{ENUM_NAME}};\00", align 1
@.str.129 = private unnamed_addr constant [14 x i8] c"    #[inline]\00", align 1
@.str.130 = private unnamed_addr constant [51 x i8] c"    fn push(&self, dst: &mut [u8], _rest: &[u8]) {\00", align 1
@.str.131 = private unnamed_addr constant [66 x i8] c"        flatbuffers::emplace_scalar::<{{ENUM_NAME}}>(dst, *self);\00", align 1
@.str.132 = private unnamed_addr constant [6 x i8] c"    }\00", align 1
@.str.133 = private unnamed_addr constant [58 x i8] c"pub const ENUM_VALUES_{{ENUM_NAME_CAPS}}:[{{ENUM_NAME}}; \00", align 1
@.str.134 = private unnamed_addr constant [6 x i8] c"] = [\00", align 1
@.str.135 = private unnamed_addr constant [2 x i8] c",\00", align 1
@.str.137 = private unnamed_addr constant [56 x i8] c"pub const ENUM_NAMES_{{ENUM_NAME_CAPS}}:[&'static str; \00", align 1
@.str.138 = private unnamed_addr constant [8 x i8] c"    \22\22,\00", align 1
@.str.139 = private unnamed_addr constant [6 x i8] c"    \22\00", align 1
@.str.140 = private unnamed_addr constant [2 x i8] c"\22\00", align 1
@.str.141 = private unnamed_addr constant [73 x i8] c"pub fn enum_name_{{ENUM_NAME_SNAKE}}(e: {{ENUM_NAME}}) -> &'static str {\00", align 1
@.str.142 = private unnamed_addr constant [34 x i8] c"  let index = e as {{BASE_TYPE}}\5C\00", align 1
@.str.143 = private unnamed_addr constant [4 x i8] c" - \00", align 1
@.str.144 = private unnamed_addr constant [19 x i8] c" as {{BASE_TYPE}}\5C\00", align 1
@.str.146 = private unnamed_addr constant [48 x i8] c"  ENUM_NAMES_{{ENUM_NAME_CAPS}}[index as usize]\00", align 1
@.str.148 = private unnamed_addr constant [18 x i8] c"UNION_OFFSET_NAME\00", align 1
@.str.149 = private unnamed_addr constant [17 x i8] c"UnionTableOffset\00", align 1
@.str.150 = private unnamed_addr constant [36 x i8] c"pub struct {{UNION_OFFSET_NAME}} {}\00", align 1
@_ZNSt3__1L19piecewise_constructE = internal constant %"struct.std::__1::piecewise_construct_t" undef, align 1
@.str.151 = private unnamed_addr constant [2 x i8] c"_\00", align 1
@_ZZN11flatbuffers4rust13RustGenerator18GetEnumTypeForDeclERKNS_4TypeEE9ctypename = linkonce_odr hidden local_unnamed_addr global [18 x i8*] [i8* getelementptr inbounds ([3 x i8], [3 x i8]* @.str.64, i32 0, i32 0), i8* getelementptr inbounds ([3 x i8], [3 x i8]* @.str.64, i32 0, i32 0), i8* getelementptr inbounds ([5 x i8], [5 x i8]* @.str.152, i32 0, i32 0), i8* getelementptr inbounds ([3 x i8], [3 x i8]* @.str.65, i32 0, i32 0), i8* getelementptr inbounds ([3 x i8], [3 x i8]* @.str.64, i32 0, i32 0), i8* getelementptr inbounds ([4 x i8], [4 x i8]* @.str.67, i32 0, i32 0), i8* getelementptr inbounds ([4 x i8], [4 x i8]* @.str.66, i32 0, i32 0), i8* getelementptr inbounds ([4 x i8], [4 x i8]* @.str.69, i32 0, i32 0), i8* getelementptr inbounds ([4 x i8], [4 x i8]* @.str.68, i32 0, i32 0), i8* getelementptr inbounds ([4 x i8], [4 x i8]* @.str.71, i32 0, i32 0), i8* getelementptr inbounds ([4 x i8], [4 x i8]* @.str.70, i32 0, i32 0), i8* getelementptr inbounds ([4 x i8], [4 x i8]* @.str.74, i32 0, i32 0), i8* getelementptr inbounds ([4 x i8], [4 x i8]* @.str.75, i32 0, i32 0), i8* getelementptr inbounds ([7 x i8], [7 x i8]* @.str.153, i32 0, i32 0), i8* getelementptr inbounds ([7 x i8], [7 x i8]* @.str.153, i32 0, i32 0), i8* getelementptr inbounds ([7 x i8], [7 x i8]* @.str.153, i32 0, i32 0), i8* getelementptr inbounds ([7 x i8], [7 x i8]* @.str.153, i32 0, i32 0), i8* getelementptr inbounds ([7 x i8], [7 x i8]* @.str.153, i32 0, i32 0)], comdat, align 16
@.str.152 = private unnamed_addr constant [5 x i8] c"bool\00", align 1
@.str.153 = private unnamed_addr constant [7 x i8] c"unused\00", align 1
@.str.154 = private unnamed_addr constant [2 x i8] c"\5C\00", align 1
@.str.155 = private unnamed_addr constant [6 x i8] c"ALIGN\00", align 1
@.str.156 = private unnamed_addr constant [12 x i8] c"STRUCT_NAME\00", align 1
@.str.157 = private unnamed_addr constant [48 x i8] c"// struct {{STRUCT_NAME}}, aligned to {{ALIGN}}\00", align 1
@.str.158 = private unnamed_addr constant [29 x i8] c"#[repr(C, align({{ALIGN}}))]\00", align 1
@.str.159 = private unnamed_addr constant [41 x i8] c"#[derive(Clone, Copy, Debug, PartialEq)]\00", align 1
@.str.160 = private unnamed_addr constant [29 x i8] c"pub struct {{STRUCT_NAME}} {\00", align 1
@.str.161 = private unnamed_addr constant [11 x i8] c"FIELD_TYPE\00", align 1
@.str.162 = private unnamed_addr constant [11 x i8] c"FIELD_NAME\00", align 1
@.str.163 = private unnamed_addr constant [35 x i8] c"  {{FIELD_NAME}}_: {{FIELD_TYPE}},\00", align 1
@.str.164 = private unnamed_addr constant [32 x i8] c"} // pub struct {{STRUCT_NAME}}\00", align 1
@.str.165 = private unnamed_addr constant [57 x i8] c"impl flatbuffers::SafeSliceAccess for {{STRUCT_NAME}} {}\00", align 1
@.str.166 = private unnamed_addr constant [55 x i8] c"impl<'a> flatbuffers::Follow<'a> for {{STRUCT_NAME}} {\00", align 1
@.str.167 = private unnamed_addr constant [36 x i8] c"  type Inner = &'a {{STRUCT_NAME}};\00", align 1
@.str.168 = private unnamed_addr constant [44 x i8] c"    <&'a {{STRUCT_NAME}}>::follow(buf, loc)\00", align 1
@.str.169 = private unnamed_addr constant [59 x i8] c"impl<'a> flatbuffers::Follow<'a> for &'a {{STRUCT_NAME}} {\00", align 1
@.str.170 = private unnamed_addr constant [62 x i8] c"    flatbuffers::follow_cast_ref::<{{STRUCT_NAME}}>(buf, loc)\00", align 1
@.str.171 = private unnamed_addr constant [49 x i8] c"impl<'b> flatbuffers::Push for {{STRUCT_NAME}} {\00", align 1
@.str.172 = private unnamed_addr constant [35 x i8] c"    type Output = {{STRUCT_NAME}};\00", align 1
@.str.173 = private unnamed_addr constant [27 x i8] c"        let src = unsafe {\00", align 1
@.str.174 = private unnamed_addr constant [100 x i8] c"            ::std::slice::from_raw_parts(self as *const {{STRUCT_NAME}} as *const u8, Self::size())\00", align 1
@.str.175 = private unnamed_addr constant [11 x i8] c"        };\00", align 1
@.str.176 = private unnamed_addr constant [34 x i8] c"        dst.copy_from_slice(src);\00", align 1
@.str.177 = private unnamed_addr constant [53 x i8] c"impl<'b> flatbuffers::Push for &'b {{STRUCT_NAME}} {\00", align 1
@.str.178 = private unnamed_addr constant [101 x i8] c"            ::std::slice::from_raw_parts(*self as *const {{STRUCT_NAME}} as *const u8, Self::size())\00", align 1
@.str.179 = private unnamed_addr constant [23 x i8] c"impl {{STRUCT_NAME}} {\00", align 1
@.str.180 = private unnamed_addr constant [5 x i8] c"&'a \00", align 1
@.str.181 = private unnamed_addr constant [3 x i8] c", \00", align 1
@.str.182 = private unnamed_addr constant [7 x i8] c"      \00", align 1
@.str.183 = private unnamed_addr constant [22 x i8] c".to_little_endian(),\0A\00", align 1
@.str.184 = private unnamed_addr constant [4 x i8] c": *\00", align 1
@.str.185 = private unnamed_addr constant [3 x i8] c",\0A\00", align 1
@.str.187 = private unnamed_addr constant [10 x i8] c"INIT_LIST\00", align 1
@.str.188 = private unnamed_addr constant [41 x i8] c"  pub fn new<'a>({{ARG_LIST}}) -> Self {\00", align 1
@.str.189 = private unnamed_addr constant [22 x i8] c"    {{STRUCT_NAME}} {\00", align 1
@.str.190 = private unnamed_addr constant [14 x i8] c"{{INIT_LIST}}\00", align 1
@.str.192 = private unnamed_addr constant [6 x i8] c"self.\00", align 1
@.str.193 = private unnamed_addr constant [22 x i8] c".from_little_endian()\00", align 1
@.str.194 = private unnamed_addr constant [12 x i8] c"FIELD_VALUE\00", align 1
@.str.195 = private unnamed_addr constant [4 x i8] c"REF\00", align 1
@.str.196 = private unnamed_addr constant [2 x i8] c"&\00", align 1
@.str.197 = private unnamed_addr constant [58 x i8] c"  pub fn {{FIELD_NAME}}<'a>(&'a self) -> {{FIELD_TYPE}} {\00", align 1
@.str.198 = private unnamed_addr constant [27 x i8] c"    {{REF}}{{FIELD_VALUE}}\00", align 1
@.str.199 = private unnamed_addr constant [5 x i8] c"<'a>\00", align 1
@_ZZNK11flatbuffers4rust13RustGenerator12GetTypeBasicERKNS_4TypeEE9ctypename = linkonce_odr hidden local_unnamed_addr constant [18 x i8*] [i8* getelementptr inbounds ([3 x i8], [3 x i8]* @.str.64, i32 0, i32 0), i8* getelementptr inbounds ([3 x i8], [3 x i8]* @.str.64, i32 0, i32 0), i8* getelementptr inbounds ([5 x i8], [5 x i8]* @.str.152, i32 0, i32 0), i8* getelementptr inbounds ([3 x i8], [3 x i8]* @.str.65, i32 0, i32 0), i8* getelementptr inbounds ([3 x i8], [3 x i8]* @.str.64, i32 0, i32 0), i8* getelementptr inbounds ([4 x i8], [4 x i8]* @.str.67, i32 0, i32 0), i8* getelementptr inbounds ([4 x i8], [4 x i8]* @.str.66, i32 0, i32 0), i8* getelementptr inbounds ([4 x i8], [4 x i8]* @.str.69, i32 0, i32 0), i8* getelementptr inbounds ([4 x i8], [4 x i8]* @.str.68, i32 0, i32 0), i8* getelementptr inbounds ([4 x i8], [4 x i8]* @.str.71, i32 0, i32 0), i8* getelementptr inbounds ([4 x i8], [4 x i8]* @.str.70, i32 0, i32 0), i8* getelementptr inbounds ([4 x i8], [4 x i8]* @.str.74, i32 0, i32 0), i8* getelementptr inbounds ([4 x i8], [4 x i8]* @.str.75, i32 0, i32 0), i8* getelementptr inbounds ([7 x i8], [7 x i8]* @.str.153, i32 0, i32 0), i8* getelementptr inbounds ([7 x i8], [7 x i8]* @.str.153, i32 0, i32 0), i8* getelementptr inbounds ([7 x i8], [7 x i8]* @.str.153, i32 0, i32 0), i8* getelementptr inbounds ([7 x i8], [7 x i8]* @.str.153, i32 0, i32 0), i8* getelementptr inbounds ([7 x i8], [7 x i8]* @.str.153, i32 0, i32 0)], comdat, align 16
@.str.200 = private unnamed_addr constant [8 x i8] c"super::\00", align 1
@_ZNSt3__15ctypeIcE2idE = external global %"class.std::__1::locale::id", align 8
@.str.201 = private unnamed_addr constant [10 x i8] c"  padding\00", align 1
@.str.202 = private unnamed_addr constant [6 x i8] c"__: u\00", align 1
@_ZZNSt3__110__function8__policy15__choose_policyINS0_20__default_alloc_funcIPFviPNS_12basic_stringIcNS_11char_traitsIcEENS_9allocatorIcEEEEPiESC_EEEEPKS1_NS_17integral_constantIbLb1EEEE9__policy_ = linkonce_odr hidden constant %"struct.std::__1::__function::__policy" zeroinitializer, comdat, align 8
@.str.203 = private unnamed_addr constant [8 x i8] c"padding\00", align 1
@.str.204 = private unnamed_addr constant [7 x i8] c"__: 0,\00", align 1
@.str.205 = private unnamed_addr constant [62 x i8] c"    pub const fn get_fully_qualified_name() -> &'static str {\00", align 1
@.str.206 = private unnamed_addr constant [10 x i8] c"        \22\00", align 1
@.str.207 = private unnamed_addr constant [44 x i8] c"flatbuffers::WIPOffset<flatbuffers::Vector<\00", align 1
@.str.208 = private unnamed_addr constant [3 x i8] c">>\00", align 1
@.str.209 = private unnamed_addr constant [32 x i8] c", flatbuffers::ForwardsUOffset<\00", align 1
@.str.210 = private unnamed_addr constant [2 x i8] c"<\00", align 1
@.str.211 = private unnamed_addr constant [5 x i8] c">>>>\00", align 1
@.str.212 = private unnamed_addr constant [9 x i8] c", bool>>\00", align 1
@.str.213 = private unnamed_addr constant [33 x i8] c", flatbuffers::ForwardsUOffset<&\00", align 1
@.str.214 = private unnamed_addr constant [8 x i8] c" str>>>\00", align 1
@.str.215 = private unnamed_addr constant [51 x i8] c", flatbuffers::ForwardsUOffset<flatbuffers::Table<\00", align 1
@.str.216 = private unnamed_addr constant [4 x i8] c">>>\00", align 1
@.str.217 = private unnamed_addr constant [24 x i8] c"flatbuffers::WIPOffset<\00", align 1
@.str.218 = private unnamed_addr constant [25 x i8] c"flatbuffers::WIPOffset<&\00", align 1
@.str.219 = private unnamed_addr constant [6 x i8] c" str>\00", align 1
@.str.220 = private unnamed_addr constant [52 x i8] c"flatbuffers::WIPOffset<flatbuffers::UnionWIPOffset>\00", align 1
@.str.221 = private unnamed_addr constant [24 x i8] c"INVALID_CODE_GENERATION\00", align 1
@.str.223 = private unnamed_addr constant [70 x i8] c"  pub fn key_compare_less_than(&self, o: &{{STRUCT_NAME}}) ->  bool {\00", align 1
@.str.224 = private unnamed_addr constant [47 x i8] c"    self.{{FIELD_NAME}}() < o.{{FIELD_NAME}}()\00", align 1
@.str.225 = private unnamed_addr constant [85 x i8] c"  pub fn key_compare_with_value(&self, val: {{KEY_TYPE}}) ->  ::std::cmp::Ordering {\00", align 1
@.str.226 = private unnamed_addr constant [37 x i8] c"    let key = self.{{FIELD_NAME}}();\00", align 1
@.str.227 = private unnamed_addr constant [18 x i8] c"    key.cmp(&val)\00", align 1
@.str.228 = private unnamed_addr constant [20 x i8] c"flatbuffers::Table<\00", align 1
@.str.229 = private unnamed_addr constant [5 x i8] c" str\00", align 1
@.str.230 = private unnamed_addr constant [3 x i8] c" [\00", align 1
@.str.231 = private unnamed_addr constant [2 x i8] c"]\00", align 1
@.str.232 = private unnamed_addr constant [21 x i8] c"flatbuffers::Vector<\00", align 1
@.str.233 = private unnamed_addr constant [8 x i8] c" [bool]\00", align 1
@.str.234 = private unnamed_addr constant [7 x i8] c" str>>\00", align 1
@.str.235 = private unnamed_addr constant [17 x i8] c"OFFSET_TYPELABEL\00", align 1
@.str.236 = private unnamed_addr constant [7 x i8] c"Offset\00", align 1
@.str.237 = private unnamed_addr constant [22 x i8] c"STRUCT_NAME_SNAKECASE\00", align 1
@.str.238 = private unnamed_addr constant [33 x i8] c"pub enum {{OFFSET_TYPELABEL}} {}\00", align 1
@.str.239 = private unnamed_addr constant [41 x i8] c"#[derive(Copy, Clone, Debug, PartialEq)]\00", align 1
@.str.240 = private unnamed_addr constant [33 x i8] c"pub struct {{STRUCT_NAME}}<'a> {\00", align 1
@.str.241 = private unnamed_addr constant [36 x i8] c"  pub _tab: flatbuffers::Table<'a>,\00", align 1
@.str.242 = private unnamed_addr constant [59 x i8] c"impl<'a> flatbuffers::Follow<'a> for {{STRUCT_NAME}}<'a> {\00", align 1
@.str.243 = private unnamed_addr constant [38 x i8] c"    type Inner = {{STRUCT_NAME}}<'a>;\00", align 1
@.str.244 = private unnamed_addr constant [58 x i8] c"    fn follow(buf: &'a [u8], loc: usize) -> Self::Inner {\00", align 1
@.str.245 = private unnamed_addr constant [15 x i8] c"        Self {\00", align 1
@.str.246 = private unnamed_addr constant [61 x i8] c"            _tab: flatbuffers::Table { buf: buf, loc: loc },\00", align 1
@.str.247 = private unnamed_addr constant [10 x i8] c"        }\00", align 1
@.str.248 = private unnamed_addr constant [31 x i8] c"impl<'a> {{STRUCT_NAME}}<'a> {\00", align 1
@.str.249 = private unnamed_addr constant [68 x i8] c"    pub fn init_from_table(table: flatbuffers::Table<'a>) -> Self {\00", align 1
@.str.250 = private unnamed_addr constant [26 x i8] c"        {{STRUCT_NAME}} {\00", align 1
@.str.251 = private unnamed_addr constant [25 x i8] c"            _tab: table,\00", align 1
@.str.254 = private unnamed_addr constant [8 x i8] c"<'args>\00", align 1
@.str.255 = private unnamed_addr constant [25 x i8] c"    #[allow(unused_mut)]\00", align 1
@.str.256 = private unnamed_addr constant [62 x i8] c"    pub fn create<'bldr: 'args, 'args: 'mut_bldr, 'mut_bldr>(\00", align 1
@.str.257 = private unnamed_addr constant [68 x i8] c"        _fbb: &'mut_bldr mut flatbuffers::FlatBufferBuilder<'bldr>,\00", align 1
@.str.258 = private unnamed_addr constant [118 x i8] c"        {{MAYBE_US}}args: &'args {{STRUCT_NAME}}Args{{MAYBE_LT}}) -> flatbuffers::WIPOffset<{{STRUCT_NAME}}<'bldr>> {\00", align 1
@.str.259 = private unnamed_addr constant [59 x i8] c"      let mut builder = {{STRUCT_NAME}}Builder::new(_fbb);\00", align 1
@.str.260 = private unnamed_addr constant [78 x i8] c"      if let Some(x) = args.{{FIELD_NAME}} { builder.add_{{FIELD_NAME}}(x); }\00", align 1
@.str.261 = private unnamed_addr constant [55 x i8] c"      builder.add_{{FIELD_NAME}}(args.{{FIELD_NAME}});\00", align 1
@.str.262 = private unnamed_addr constant [23 x i8] c"      builder.finish()\00", align 1
@.str.263 = private unnamed_addr constant [12 x i8] c"OFFSET_NAME\00", align 1
@.str.264 = private unnamed_addr constant [13 x i8] c"OFFSET_VALUE\00", align 1
@.str.265 = private unnamed_addr constant [73 x i8] c"    pub const {{OFFSET_NAME}}: flatbuffers::VOffsetT = {{OFFSET_VALUE}};\00", align 1
@.str.266 = private unnamed_addr constant [12 x i8] c"RETURN_TYPE\00", align 1
@.str.267 = private unnamed_addr constant [10 x i8] c"FUNC_BODY\00", align 1
@.str.268 = private unnamed_addr constant [52 x i8] c"  pub fn {{FIELD_NAME}}(&self) -> {{RETURN_TYPE}} {\00", align 1
@.str.269 = private unnamed_addr constant [18 x i8] c"    {{FUNC_BODY}}\00", align 1
@.str.270 = private unnamed_addr constant [18 x i8] c"nested_flatbuffer\00", align 1
@.str.271 = private unnamed_addr constant [86 x i8] c"  pub fn {{FIELD_NAME}}_nested_flatbuffer(&'a self) ->  Option<{{STRUCT_NAME}}<'a>> {\00", align 1
@.str.272 = private unnamed_addr constant [35 x i8] c"     match self.{{FIELD_NAME}}() {\00", align 1
@.str.273 = private unnamed_addr constant [26 x i8] c"         None => { None }\00", align 1
@.str.274 = private unnamed_addr constant [25 x i8] c"         Some(data) => {\00", align 1
@.str.275 = private unnamed_addr constant [44 x i8] c"             use self::flatbuffers::Follow;\00", align 1
@.str.276 = private unnamed_addr constant [88 x i8] c"             Some(<flatbuffers::ForwardsUOffset<{{STRUCT_NAME}}<'a>>>::follow(data, 0))\00", align 1
@.str.277 = private unnamed_addr constant [12 x i8] c"         },\00", align 1
@.str.278 = private unnamed_addr constant [7 x i8] c"     }\00", align 1
@.str.279 = private unnamed_addr constant [22 x i8] c"FIELD_TYPE_FIELD_NAME\00", align 1
@.str.280 = private unnamed_addr constant [20 x i8] c"U_ELEMENT_ENUM_TYPE\00", align 1
@.str.281 = private unnamed_addr constant [21 x i8] c"U_ELEMENT_TABLE_TYPE\00", align 1
@.str.282 = private unnamed_addr constant [15 x i8] c"U_ELEMENT_NAME\00", align 1
@.str.283 = private unnamed_addr constant [27 x i8] c"  #[allow(non_snake_case)]\00", align 1
@.str.284 = private unnamed_addr constant [95 x i8] c"  pub fn {{FIELD_NAME}}_as_{{U_ELEMENT_NAME}}(&self) -> Option<{{U_ELEMENT_TABLE_TYPE}}<'a>> {\00", align 1
@.str.285 = private unnamed_addr constant [74 x i8] c"    if self.{{FIELD_TYPE_FIELD_NAME}}_type() == {{U_ELEMENT_ENUM_TYPE}} {\00", align 1
@.str.286 = private unnamed_addr constant [82 x i8] c"      self.{{FIELD_NAME}}().map(|u| {{U_ELEMENT_TABLE_TYPE}}::init_from_table(u))\00", align 1
@.str.287 = private unnamed_addr constant [13 x i8] c"    } else {\00", align 1
@.str.288 = private unnamed_addr constant [11 x i8] c"      None\00", align 1
@.str.289 = private unnamed_addr constant [45 x i8] c"pub struct {{STRUCT_NAME}}Args{{MAYBE_LT}} {\00", align 1
@.str.290 = private unnamed_addr constant [11 x i8] c"PARAM_NAME\00", align 1
@.str.291 = private unnamed_addr constant [11 x i8] c"PARAM_TYPE\00", align 1
@.str.292 = private unnamed_addr constant [4 x i8] c"'a \00", align 1
@.str.293 = private unnamed_addr constant [40 x i8] c"    pub {{PARAM_NAME}}: {{PARAM_TYPE}},\00", align 1
@.str.294 = private unnamed_addr constant [55 x i8] c"impl<'a> Default for {{STRUCT_NAME}}Args{{MAYBE_LT}} {\00", align 1
@.str.295 = private unnamed_addr constant [27 x i8] c"    fn default() -> Self {\00", align 1
@.str.296 = private unnamed_addr constant [30 x i8] c"        {{STRUCT_NAME}}Args {\00", align 1
@.str.297 = private unnamed_addr constant [12 x i8] c"PARAM_VALUE\00", align 1
@.str.298 = private unnamed_addr constant [4 x i8] c"REQ\00", align 1
@.str.299 = private unnamed_addr constant [19 x i8] c" // required field\00", align 1
@.str.300 = private unnamed_addr constant [52 x i8] c"            {{PARAM_NAME}}: {{PARAM_VALUE}},{{REQ}}\00", align 1
@.str.301 = private unnamed_addr constant [48 x i8] c"pub struct {{STRUCT_NAME}}Builder<'a: 'b, 'b> {\00", align 1
@.str.302 = private unnamed_addr constant [52 x i8] c"  fbb_: &'b mut flatbuffers::FlatBufferBuilder<'a>,\00", align 1
@.str.303 = private unnamed_addr constant [73 x i8] c"  start_: flatbuffers::WIPOffset<flatbuffers::TableUnfinishedWIPOffset>,\00", align 1
@.str.304 = private unnamed_addr constant [50 x i8] c"impl<'a: 'b, 'b> {{STRUCT_NAME}}Builder<'a, 'b> {\00", align 1
@.str.305 = private unnamed_addr constant [13 x i8] c"FIELD_OFFSET\00", align 1
@.str.306 = private unnamed_addr constant [4 x i8] c"'b \00", align 1
@.str.307 = private unnamed_addr constant [73 x i8] c"  pub fn add_{{FIELD_NAME}}(&mut self, {{FIELD_NAME}}: {{FIELD_TYPE}}) {\00", align 1
@.str.308 = private unnamed_addr constant [20 x i8] c"FIELD_DEFAULT_VALUE\00", align 1
@.str.309 = private unnamed_addr constant [78 x i8] c"    {{FUNC_BODY}}({{FIELD_OFFSET}}, {{FIELD_NAME}}, {{FIELD_DEFAULT_VALUE}});\00", align 1
@.str.310 = private unnamed_addr constant [53 x i8] c"    {{FUNC_BODY}}({{FIELD_OFFSET}}, {{FIELD_NAME}});\00", align 1
@.str.311 = private unnamed_addr constant [99 x i8] c"  pub fn new(_fbb: &'b mut flatbuffers::FlatBufferBuilder<'a>) -> {{STRUCT_NAME}}Builder<'a, 'b> {\00", align 1
@.str.312 = private unnamed_addr constant [11 x i8] c"NUM_FIELDS\00", align 1
@.str.313 = private unnamed_addr constant [36 x i8] c"    let start = _fbb.start_table();\00", align 1
@.str.314 = private unnamed_addr constant [29 x i8] c"    {{STRUCT_NAME}}Builder {\00", align 1
@.str.315 = private unnamed_addr constant [18 x i8] c"      fbb_: _fbb,\00", align 1
@.str.316 = private unnamed_addr constant [21 x i8] c"      start_: start,\00", align 1
@.str.317 = private unnamed_addr constant [71 x i8] c"  pub fn finish(self) -> flatbuffers::WIPOffset<{{STRUCT_NAME}}<'a>> {\00", align 1
@.str.318 = private unnamed_addr constant [46 x i8] c"    let o = self.fbb_.end_table(self.start_);\00", align 1
@.str.319 = private unnamed_addr constant [78 x i8] c"    self.fbb_.required(o, {{STRUCT_NAME}}::{{OFFSET_NAME}},\22{{FIELD_NAME}}\22);\00", align 1
@.str.320 = private unnamed_addr constant [43 x i8] c"    flatbuffers::WIPOffset::new(o.value())\00", align 1
@_ZN11flatbuffers10kTypeSizesE = external local_unnamed_addr constant [0 x i8], align 1
@.str.321 = private unnamed_addr constant [4 x i8] c"VT_\00", align 1
@.str.322 = private unnamed_addr constant [17 x i8] c"self._tab.get::<\00", align 1
@.str.323 = private unnamed_addr constant [3 x i8] c">(\00", align 1
@.str.324 = private unnamed_addr constant [8 x i8] c", Some(\00", align 1
@.str.325 = private unnamed_addr constant [12 x i8] c")).unwrap()\00", align 1
@.str.326 = private unnamed_addr constant [8 x i8] c", None)\00", align 1
@.str.327 = private unnamed_addr constant [46 x i8] c"self._tab.get::<flatbuffers::ForwardsUOffset<\00", align 1
@.str.328 = private unnamed_addr constant [5 x i8] c">>>(\00", align 1
@.str.329 = private unnamed_addr constant [65 x i8] c"self._tab.get::<flatbuffers::ForwardsUOffset<flatbuffers::Table<\00", align 1
@.str.330 = private unnamed_addr constant [53 x i8] c"self._tab.get::<flatbuffers::ForwardsUOffset<&str>>(\00", align 1
@.str.331 = private unnamed_addr constant [66 x i8] c"self._tab.get::<flatbuffers::ForwardsUOffset<flatbuffers::Vector<\00", align 1
@.str.332 = private unnamed_addr constant [25 x i8] c".map(|v| v.safe_slice())\00", align 1
@.str.333 = private unnamed_addr constant [11 x i8] c", bool>>>(\00", align 1
@.str.334 = private unnamed_addr constant [32 x i8] c", None).map(|v| v.safe_slice())\00", align 1
@.str.335 = private unnamed_addr constant [33 x i8] c", None).map(|v| v.safe_slice() )\00", align 1
@.str.336 = private unnamed_addr constant [95 x i8] c"self._tab.get::<flatbuffers::ForwardsUOffset<flatbuffers::Vector<flatbuffers::ForwardsUOffset<\00", align 1
@.str.337 = private unnamed_addr constant [7 x i8] c">>>>>(\00", align 1
@.str.338 = private unnamed_addr constant [96 x i8] c"self._tab.get::<flatbuffers::ForwardsUOffset<flatbuffers::Vector<flatbuffers::ForwardsUOffset<&\00", align 1
@.str.339 = private unnamed_addr constant [10 x i8] c" str>>>>(\00", align 1
@.str.340 = private unnamed_addr constant [2 x i8] c"0\00", align 1
@.str.342 = private unnamed_addr constant [9 x i8] c"Option<&\00", align 1
@.str.343 = private unnamed_addr constant [31 x i8] c"Option<flatbuffers::WIPOffset<\00", align 1
@.str.344 = private unnamed_addr constant [32 x i8] c"Option<flatbuffers::WIPOffset<&\00", align 1
@.str.345 = private unnamed_addr constant [60 x i8] c"Option<flatbuffers::WIPOffset<flatbuffers::UnionWIPOffset>>\00", align 1
@.str.346 = private unnamed_addr constant [51 x i8] c"Option<flatbuffers::WIPOffset<flatbuffers::Vector<\00", align 1
@.str.347 = private unnamed_addr constant [4 x i8] c",  \00", align 1
@.str.348 = private unnamed_addr constant [10 x i8] c", bool>>>\00", align 1
@.str.349 = private unnamed_addr constant [6 x i8] c">>>>>\00", align 1
@.str.350 = private unnamed_addr constant [9 x i8] c" str>>>>\00", align 1
@.str.351 = private unnamed_addr constant [23 x i8] c"self.fbb_.push_slot::<\00", align 1
@.str.352 = private unnamed_addr constant [28 x i8] c"self.fbb_.push_slot::<bool>\00", align 1
@.str.353 = private unnamed_addr constant [31 x i8] c"self.fbb_.push_slot_always::<&\00", align 1
@.str.354 = private unnamed_addr constant [53 x i8] c"self.fbb_.push_slot_always::<flatbuffers::WIPOffset<\00", align 1
@.str.355 = private unnamed_addr constant [56 x i8] c"self.fbb_.push_slot_always::<flatbuffers::WIPOffset<_>>\00", align 1
@.str.356 = private unnamed_addr constant [17 x i8] c"STRUCT_NAME_CAPS\00", align 1
@.str.357 = private unnamed_addr constant [10 x i8] c"#[inline]\00", align 1
@.str.358 = private unnamed_addr constant [89 x i8] c"pub fn get_root_as_{{STRUCT_NAME_SNAKECASE}}<'a>(buf: &'a [u8]) -> {{STRUCT_NAME}}<'a> {\00", align 1
@.str.359 = private unnamed_addr constant [52 x i8] c"  flatbuffers::get_root::<{{STRUCT_NAME}}<'a>>(buf)\00", align 1
@.str.360 = private unnamed_addr constant [103 x i8] c"pub fn get_size_prefixed_root_as_{{STRUCT_NAME_SNAKECASE}}<'a>(buf: &'a [u8]) -> {{STRUCT_NAME}}<'a> {\00", align 1
@.str.361 = private unnamed_addr constant [66 x i8] c"  flatbuffers::get_size_prefixed_root::<{{STRUCT_NAME}}<'a>>(buf)\00", align 1
@.str.362 = private unnamed_addr constant [57 x i8] c"pub const {{STRUCT_NAME_CAPS}}_IDENTIFIER: &'static str\5C\00", align 1
@.str.363 = private unnamed_addr constant [5 x i8] c" = \22\00", align 1
@.str.364 = private unnamed_addr constant [3 x i8] c"\22;\00", align 1
@.str.365 = private unnamed_addr constant [56 x i8] c"pub fn {{STRUCT_NAME_SNAKECASE}}_buffer_has_identifier\5C\00", align 1
@.str.366 = private unnamed_addr constant [23 x i8] c"(buf: &[u8]) -> bool {\00", align 1
@.str.367 = private unnamed_addr constant [51 x i8] c"  return flatbuffers::buffer_has_identifier(buf, \5C\00", align 1
@.str.368 = private unnamed_addr constant [41 x i8] c"{{STRUCT_NAME_CAPS}}_IDENTIFIER, false);\00", align 1
@.str.369 = private unnamed_addr constant [48 x i8] c"pub fn {{STRUCT_NAME_SNAKECASE}}_size_prefixed\5C\00", align 1
@.str.370 = private unnamed_addr constant [45 x i8] c"_buffer_has_identifier(buf: &[u8]) -> bool {\00", align 1
@.str.371 = private unnamed_addr constant [40 x i8] c"{{STRUCT_NAME_CAPS}}_IDENTIFIER, true);\00", align 1
@.str.372 = private unnamed_addr constant [59 x i8] c"pub const {{STRUCT_NAME_CAPS}}_EXTENSION: &'static str = \5C\00", align 1
@.str.373 = private unnamed_addr constant [56 x i8] c"pub fn finish_{{STRUCT_NAME_SNAKECASE}}_buffer<'a, 'b>(\00", align 1
@.str.374 = private unnamed_addr constant [53 x i8] c"    fbb: &'b mut flatbuffers::FlatBufferBuilder<'a>,\00", align 1
@.str.375 = private unnamed_addr constant [57 x i8] c"    root: flatbuffers::WIPOffset<{{STRUCT_NAME}}<'a>>) {\00", align 1
@.str.376 = private unnamed_addr constant [59 x i8] c"  fbb.finish(root, Some({{STRUCT_NAME_CAPS}}_IDENTIFIER));\00", align 1
@.str.377 = private unnamed_addr constant [26 x i8] c"  fbb.finish(root, None);\00", align 1
@.str.378 = private unnamed_addr constant [171 x i8] c"pub fn finish_size_prefixed_{{STRUCT_NAME_SNAKECASE}}_buffer<'a, 'b>(fbb: &'b mut flatbuffers::FlatBufferBuilder<'a>, root: flatbuffers::WIPOffset<{{STRUCT_NAME}}<'a>>) {\00", align 1
@.str.379 = private unnamed_addr constant [73 x i8] c"  fbb.finish_size_prefixed(root, Some({{STRUCT_NAME_CAPS}}_IDENTIFIER));\00", align 1
@.str.380 = private unnamed_addr constant [40 x i8] c"  fbb.finish_size_prefixed(root, None);\00", align 1
@switch.table._ZN11flatbuffers11GetFullTypeERKNS_4TypeE = private unnamed_addr constant [9 x i32] [i32 9, i32 10, i32 11, i32 13, i32 14, i32 12, i32 2, i32 2, i32 15], align 4
@switch.table._ZN11flatbuffers4rust13RustGenerator9GenStructERKNS_9StructDefE = private unnamed_addr constant [6 x i8*] [i8* getelementptr inbounds ([1 x i8], [1 x i8]* @.str.6, i64 0, i64 0), i8* getelementptr inbounds ([1 x i8], [1 x i8]* @.str.6, i64 0, i64 0), i8* getelementptr inbounds ([1 x i8], [1 x i8]* @.str.6, i64 0, i64 0), i8* getelementptr inbounds ([5 x i8], [5 x i8]* @.str.180, i64 0, i64 0), i8* getelementptr inbounds ([5 x i8], [5 x i8]* @.str.180, i64 0, i64 0), i8* getelementptr inbounds ([1 x i8], [1 x i8]* @.str.6, i64 0, i64 0)], align 8

; Function Attrs: nounwind ssp uwtable
define hidden void @_ZN11flatbuffers13MakeSnakeCaseERKNSt3__112basic_stringIcNS0_11char_traitsIcEENS0_9allocatorIcEEEE(%"class.std::__1::basic_string"* noalias sret, %"class.std::__1::basic_string"* nocapture readonly dereferenceable(24)) local_unnamed_addr #0 {
  %3 = bitcast %"class.std::__1::basic_string"* %0 to i8*
  tail call void @llvm.memset.p0i8.i64(i8* align 8 %3, i8 0, i64 24, i1 false) #14
  %4 = bitcast %"class.std::__1::basic_string"* %1 to %"struct.std::__1::basic_string<char, std::__1::char_traits<char>, std::__1::allocator<char> >::__short"*
  %5 = getelementptr inbounds %"struct.std::__1::basic_string<char, std::__1::char_traits<char>, std::__1::allocator<char> >::__short", %"struct.std::__1::basic_string<char, std::__1::char_traits<char>, std::__1::allocator<char> >::__short"* %4, i64 0, i32 1, i32 0
  %6 = load i8, i8* %5, align 1
  %7 = icmp slt i8 %6, 0
  %8 = getelementptr inbounds %"class.std::__1::basic_string", %"class.std::__1::basic_string"* %1, i64 0, i32 0, i32 0, i32 0, i32 0, i32 0, i32 1
  %9 = load i64, i64* %8, align 8
  %10 = zext i8 %6 to i64
  %11 = select i1 %7, i64 %9, i64 %10
  %12 = icmp eq i64 %11, 0
  br i1 %12, label %89, label %13

13:                                               ; preds = %2
  %14 = getelementptr inbounds %"class.std::__1::basic_string", %"class.std::__1::basic_string"* %1, i64 0, i32 0, i32 0, i32 0, i32 0, i32 0, i32 0
  %15 = bitcast %"class.std::__1::basic_string"* %1 to i8*
  br label %16

16:                                               ; preds = %13, %80
  %17 = phi i8 [ %6, %13 ], [ %83, %80 ]
  %18 = phi i1 [ %7, %13 ], [ %84, %80 ]
  %19 = phi i64 [ 0, %13 ], [ %82, %80 ]
  %20 = icmp eq i64 %19, 0
  %21 = load i8*, i8** %14, align 8
  %22 = select i1 %18, i8* %21, i8* %15
  br i1 %20, label %23, label %37

23:                                               ; preds = %16
  %24 = load i8, i8* %22, align 1
  %25 = sext i8 %24 to i32
  %26 = add nsw i32 %25, 128
  %27 = icmp ult i32 %26, 384
  br i1 %27, label %28, label %34

28:                                               ; preds = %23
  %29 = tail call i32** @__ctype_tolower_loc() #15
  %30 = load i32*, i32** %29, align 8
  %31 = sext i8 %24 to i64
  %32 = getelementptr inbounds i32, i32* %30, i64 %31
  %33 = load i32, i32* %32, align 4
  br label %34

34:                                               ; preds = %23, %28
  %35 = phi i32 [ %33, %28 ], [ %25, %23 ]
  %36 = trunc i32 %35 to i8
  br label %80

37:                                               ; preds = %16
  %38 = getelementptr inbounds i8, i8* %22, i64 %19
  %39 = load i8, i8* %38, align 1
  %40 = icmp eq i8 %39, 95
  br i1 %40, label %80, label %41

41:                                               ; preds = %37
  %42 = tail call i16** @__ctype_b_loc() #15
  %43 = load i16*, i16** %42, align 8
  %44 = sext i8 %39 to i64
  %45 = getelementptr inbounds i16, i16* %43, i64 %44
  %46 = load i16, i16* %45, align 2
  %47 = and i16 %46, 512
  %48 = icmp eq i16 %47, 0
  br i1 %48, label %49, label %80

49:                                               ; preds = %41
  %50 = add i64 %19, -1
  %51 = getelementptr inbounds i8, i8* %22, i64 %50
  %52 = load i8, i8* %51, align 1
  %53 = sext i8 %52 to i64
  %54 = getelementptr inbounds i16, i16* %43, i64 %53
  %55 = load i16, i16* %54, align 2
  %56 = and i16 %55, 512
  %57 = icmp eq i16 %56, 0
  br i1 %57, label %61, label %58

58:                                               ; preds = %49
  tail call void @_ZNSt3__112basic_stringIcNS_11char_traitsIcEENS_9allocatorIcEEE9push_backEc(%"class.std::__1::basic_string"* %0, i8 signext 95) #14
  %59 = load i8, i8* %5, align 1
  %60 = load i8*, i8** %14, align 8
  br label %61

61:                                               ; preds = %49, %58
  %62 = phi i8* [ %21, %49 ], [ %60, %58 ]
  %63 = phi i8 [ %17, %49 ], [ %59, %58 ]
  %64 = icmp slt i8 %63, 0
  %65 = select i1 %64, i8* %62, i8* %15
  %66 = getelementptr inbounds i8, i8* %65, i64 %19
  %67 = load i8, i8* %66, align 1
  %68 = sext i8 %67 to i32
  %69 = add nsw i32 %68, 128
  %70 = icmp ult i32 %69, 384
  br i1 %70, label %71, label %77

71:                                               ; preds = %61
  %72 = tail call i32** @__ctype_tolower_loc() #15
  %73 = load i32*, i32** %72, align 8
  %74 = sext i8 %67 to i64
  %75 = getelementptr inbounds i32, i32* %73, i64 %74
  %76 = load i32, i32* %75, align 4
  br label %77

77:                                               ; preds = %61, %71
  %78 = phi i32 [ %76, %71 ], [ %68, %61 ]
  %79 = trunc i32 %78 to i8
  br label %80

80:                                               ; preds = %41, %37, %34, %77
  %81 = phi i8 [ %36, %34 ], [ %79, %77 ], [ 95, %37 ], [ %39, %41 ]
  tail call void @_ZNSt3__112basic_stringIcNS_11char_traitsIcEENS_9allocatorIcEEE9push_backEc(%"class.std::__1::basic_string"* %0, i8 signext %81) #14
  %82 = add nuw i64 %19, 1
  %83 = load i8, i8* %5, align 1
  %84 = icmp slt i8 %83, 0
  %85 = load i64, i64* %8, align 8
  %86 = zext i8 %83 to i64
  %87 = select i1 %84, i64 %85, i64 %86
  %88 = icmp ult i64 %82, %87
  br i1 %88, label %16, label %89

89:                                               ; preds = %80, %2
  ret void
}

; Function Attrs: argmemonly nounwind
declare void @llvm.lifetime.start.p0i8(i64 immarg, i8* nocapture) #1

; Function Attrs: argmemonly nounwind
declare void @llvm.lifetime.end.p0i8(i64 immarg, i8* nocapture) #1

; Function Attrs: nounwind ssp uwtable
define hidden void @_ZN11flatbuffers9MakeUpperERKNSt3__112basic_stringIcNS0_11char_traitsIcEENS0_9allocatorIcEEEE(%"class.std::__1::basic_string"* noalias sret, %"class.std::__1::basic_string"* nocapture readonly dereferenceable(24)) local_unnamed_addr #0 {
  %3 = bitcast %"class.std::__1::basic_string"* %0 to i8*
  tail call void @llvm.memset.p0i8.i64(i8* align 8 %3, i8 0, i64 24, i1 false) #14
  %4 = bitcast %"class.std::__1::basic_string"* %1 to %"struct.std::__1::basic_string<char, std::__1::char_traits<char>, std::__1::allocator<char> >::__short"*
  %5 = getelementptr inbounds %"struct.std::__1::basic_string<char, std::__1::char_traits<char>, std::__1::allocator<char> >::__short", %"struct.std::__1::basic_string<char, std::__1::char_traits<char>, std::__1::allocator<char> >::__short"* %4, i64 0, i32 1, i32 0
  %6 = load i8, i8* %5, align 1
  %7 = icmp slt i8 %6, 0
  %8 = getelementptr inbounds %"class.std::__1::basic_string", %"class.std::__1::basic_string"* %1, i64 0, i32 0, i32 0, i32 0, i32 0, i32 0, i32 1
  %9 = load i64, i64* %8, align 8
  %10 = zext i8 %6 to i64
  %11 = select i1 %7, i64 %9, i64 %10
  %12 = icmp eq i64 %11, 0
  br i1 %12, label %42, label %13

13:                                               ; preds = %2
  %14 = getelementptr inbounds %"class.std::__1::basic_string", %"class.std::__1::basic_string"* %1, i64 0, i32 0, i32 0, i32 0, i32 0, i32 0, i32 0
  %15 = bitcast %"class.std::__1::basic_string"* %1 to i8*
  br label %16

16:                                               ; preds = %13, %32
  %17 = phi i1 [ %7, %13 ], [ %37, %32 ]
  %18 = phi i64 [ 0, %13 ], [ %35, %32 ]
  %19 = load i8*, i8** %14, align 8
  %20 = select i1 %17, i8* %19, i8* %15
  %21 = getelementptr inbounds i8, i8* %20, i64 %18
  %22 = load i8, i8* %21, align 1
  %23 = sext i8 %22 to i32
  %24 = add nsw i32 %23, 128
  %25 = icmp ult i32 %24, 384
  br i1 %25, label %26, label %32

26:                                               ; preds = %16
  %27 = tail call i32** @__ctype_toupper_loc() #15
  %28 = load i32*, i32** %27, align 8
  %29 = sext i8 %22 to i64
  %30 = getelementptr inbounds i32, i32* %28, i64 %29
  %31 = load i32, i32* %30, align 4
  br label %32

32:                                               ; preds = %16, %26
  %33 = phi i32 [ %31, %26 ], [ %23, %16 ]
  %34 = trunc i32 %33 to i8
  tail call void @_ZNSt3__112basic_stringIcNS_11char_traitsIcEENS_9allocatorIcEEE9push_backEc(%"class.std::__1::basic_string"* %0, i8 signext %34) #14
  %35 = add nuw i64 %18, 1
  %36 = load i8, i8* %5, align 1
  %37 = icmp slt i8 %36, 0
  %38 = load i64, i64* %8, align 8
  %39 = zext i8 %36 to i64
  %40 = select i1 %37, i64 %38, i64 %39
  %41 = icmp ult i64 %35, %40
  br i1 %41, label %16, label %42

42:                                               ; preds = %32, %2
  ret void
}

; Function Attrs: nounwind readonly ssp uwtable
define hidden i32 @_ZN11flatbuffers11GetFullTypeERKNS_4TypeE(%"struct.flatbuffers::Type"* nocapture readonly dereferenceable(32)) local_unnamed_addr #2 {
  %2 = alloca %"struct.flatbuffers::Type", align 8
  %3 = getelementptr inbounds %"struct.flatbuffers::Type", %"struct.flatbuffers::Type"* %0, i64 0, i32 0
  %4 = load i32, i32* %3, align 8
  switch i32 %4, label %28 [
    i32 13, label %54
    i32 15, label %5
    i32 14, label %12
  ]

5:                                                ; preds = %1
  %6 = getelementptr inbounds %"struct.flatbuffers::Type", %"struct.flatbuffers::Type"* %0, i64 0, i32 2
  %7 = load %"struct.flatbuffers::StructDef"*, %"struct.flatbuffers::StructDef"** %6, align 8
  %8 = getelementptr inbounds %"struct.flatbuffers::StructDef", %"struct.flatbuffers::StructDef"* %7, i64 0, i32 2
  %9 = load i8, i8* %8, align 8, !range !2
  %10 = icmp eq i8 %9, 0
  %11 = select i1 %10, i32 4, i32 3
  br label %54

12:                                               ; preds = %1
  %13 = bitcast %"struct.flatbuffers::Type"* %2 to i8*
  call void @llvm.lifetime.start.p0i8(i64 32, i8* nonnull %13) #14
  %14 = getelementptr inbounds %"struct.flatbuffers::Type", %"struct.flatbuffers::Type"* %0, i64 0, i32 1
  %15 = load i32, i32* %14, align 4, !noalias !3
  %16 = getelementptr inbounds %"struct.flatbuffers::Type", %"struct.flatbuffers::Type"* %0, i64 0, i32 2
  %17 = bitcast %"struct.flatbuffers::StructDef"** %16 to <2 x i64>*
  %18 = load <2 x i64>, <2 x i64>* %17, align 8, !noalias !3
  %19 = getelementptr inbounds %"struct.flatbuffers::Type", %"struct.flatbuffers::Type"* %0, i64 0, i32 4
  %20 = load i16, i16* %19, align 8, !noalias !3
  %21 = getelementptr inbounds %"struct.flatbuffers::Type", %"struct.flatbuffers::Type"* %2, i64 0, i32 0
  store i32 %15, i32* %21, align 8, !alias.scope !3
  %22 = getelementptr inbounds %"struct.flatbuffers::Type", %"struct.flatbuffers::Type"* %2, i64 0, i32 1
  store i32 0, i32* %22, align 4, !alias.scope !3
  %23 = getelementptr inbounds %"struct.flatbuffers::Type", %"struct.flatbuffers::Type"* %2, i64 0, i32 2
  %24 = bitcast %"struct.flatbuffers::StructDef"** %23 to <2 x i64>*
  store <2 x i64> %18, <2 x i64>* %24, align 8, !alias.scope !3
  %25 = getelementptr inbounds %"struct.flatbuffers::Type", %"struct.flatbuffers::Type"* %2, i64 0, i32 4
  store i16 %20, i16* %25, align 8, !alias.scope !3
  %26 = call i32 @_ZN11flatbuffers11GetFullTypeERKNS_4TypeE(%"struct.flatbuffers::Type"* nonnull dereferenceable(32) %2)
  call void @llvm.lifetime.end.p0i8(i64 32, i8* nonnull %13) #14
  %27 = icmp ult i32 %26, 9
  br i1 %27, label %50, label %49

28:                                               ; preds = %1
  %29 = getelementptr inbounds %"struct.flatbuffers::Type", %"struct.flatbuffers::Type"* %0, i64 0, i32 3
  %30 = load %"struct.flatbuffers::EnumDef"*, %"struct.flatbuffers::EnumDef"** %29, align 8
  %31 = icmp eq %"struct.flatbuffers::EnumDef"* %30, null
  br i1 %31, label %41, label %32

32:                                               ; preds = %28
  %33 = getelementptr inbounds %"struct.flatbuffers::EnumDef", %"struct.flatbuffers::EnumDef"* %30, i64 0, i32 1
  %34 = load i8, i8* %33, align 4, !range !2
  %35 = icmp eq i8 %34, 0
  br i1 %35, label %54, label %36

36:                                               ; preds = %32
  %37 = icmp eq i32 %4, 16
  br i1 %37, label %54, label %38

38:                                               ; preds = %36
  %39 = add i32 %4, -1
  %40 = icmp ult i32 %39, 10
  br i1 %40, label %54, label %49

41:                                               ; preds = %28
  %42 = add i32 %4, -1
  %43 = icmp ult i32 %42, 12
  br i1 %43, label %44, label %49

44:                                               ; preds = %41
  %45 = icmp eq i32 %4, 2
  br i1 %45, label %54, label %46

46:                                               ; preds = %44
  %47 = icmp ugt i32 %42, 9
  %48 = zext i1 %47 to i32
  ret i32 %48

49:                                               ; preds = %12, %38, %41
  br label %54

50:                                               ; preds = %12
  %51 = sext i32 %26 to i64
  %52 = getelementptr inbounds [9 x i32], [9 x i32]* @switch.table._ZN11flatbuffers11GetFullTypeERKNS_4TypeE, i64 0, i64 %51
  %53 = load i32, i32* %52, align 4
  ret i32 %53

54:                                               ; preds = %44, %32, %38, %36, %1, %5, %49
  %55 = phi i32 [ 2, %49 ], [ 8, %1 ], [ %11, %5 ], [ 7, %36 ], [ 6, %38 ], [ 5, %32 ], [ 2, %44 ]
  ret i32 %55
}

; Function Attrs: nounwind ssp uwtable
define hidden void @_ZN11flatbuffers25WrapInOptionIfNotRequiredENSt3__112basic_stringIcNS0_11char_traitsIcEENS0_9allocatorIcEEEEb(%"class.std::__1::basic_string"* noalias nocapture sret, %"class.std::__1::basic_string"*, i1 zeroext) local_unnamed_addr #0 {
  %4 = alloca %"class.std::__1::basic_string", align 8
  br i1 %2, label %5, label %8

5:                                                ; preds = %3
  %6 = bitcast %"class.std::__1::basic_string"* %0 to i8*
  %7 = bitcast %"class.std::__1::basic_string"* %1 to i8*
  tail call void @llvm.memcpy.p0i8.p0i8.i64(i8* align 8 %6, i8* align 8 %7, i64 24, i1 false) #14
  tail call void @llvm.memset.p0i8.i64(i8* align 8 %7, i8 0, i64 24, i1 false) #14
  br label %21

8:                                                ; preds = %3
  %9 = bitcast %"class.std::__1::basic_string"* %4 to i8*
  call void @llvm.lifetime.start.p0i8(i64 24, i8* nonnull %9) #14
  call void @_ZNSt3__1plIcNS_11char_traitsIcEENS_9allocatorIcEEEENS_12basic_stringIT_T0_T1_EEPKS6_RKS9_(%"class.std::__1::basic_string"* nonnull sret %4, i8* getelementptr inbounds ([8 x i8], [8 x i8]* @.str.1, i64 0, i64 0), %"class.std::__1::basic_string"* dereferenceable(24) %1) #14
  %10 = call dereferenceable(24) %"class.std::__1::basic_string"* @_ZNSt3__112basic_stringIcNS_11char_traitsIcEENS_9allocatorIcEEE6appendEPKc(%"class.std::__1::basic_string"* nonnull %4, i8* getelementptr inbounds ([2 x i8], [2 x i8]* @.str.2, i64 0, i64 0)) #14, !noalias !6
  %11 = bitcast %"class.std::__1::basic_string"* %0 to i8*
  %12 = bitcast %"class.std::__1::basic_string"* %10 to i8*
  call void @llvm.memcpy.p0i8.p0i8.i64(i8* align 8 %11, i8* align 8 %12, i64 24, i1 false) #14
  call void @llvm.memset.p0i8.i64(i8* align 8 %12, i8 0, i64 24, i1 false) #14, !noalias !6
  %13 = bitcast %"class.std::__1::basic_string"* %4 to %"struct.std::__1::basic_string<char, std::__1::char_traits<char>, std::__1::allocator<char> >::__short"*
  %14 = getelementptr inbounds %"struct.std::__1::basic_string<char, std::__1::char_traits<char>, std::__1::allocator<char> >::__short", %"struct.std::__1::basic_string<char, std::__1::char_traits<char>, std::__1::allocator<char> >::__short"* %13, i64 0, i32 1, i32 0
  %15 = load i8, i8* %14, align 1
  %16 = icmp slt i8 %15, 0
  br i1 %16, label %17, label %20

17:                                               ; preds = %8
  %18 = getelementptr inbounds %"class.std::__1::basic_string", %"class.std::__1::basic_string"* %4, i64 0, i32 0, i32 0, i32 0, i32 0, i32 0, i32 0
  %19 = load i8*, i8** %18, align 8
  call void @_ZdlPv(i8* %19) #16
  br label %20

20:                                               ; preds = %8, %17
  call void @llvm.lifetime.end.p0i8(i64 24, i8* nonnull %9) #14
  br label %21

21:                                               ; preds = %20, %5
  ret void
}

declare void @_ZNSt3__1plIcNS_11char_traitsIcEENS_9allocatorIcEEEENS_12basic_stringIT_T0_T1_EEPKS6_RKS9_(%"class.std::__1::basic_string"* sret, i8*, %"class.std::__1::basic_string"* dereferenceable(24)) local_unnamed_addr #3

; Function Attrs: nounwind ssp uwtable
define hidden void @_ZN11flatbuffers19AddUnwrapIfRequiredENSt3__112basic_stringIcNS0_11char_traitsIcEENS0_9allocatorIcEEEEb(%"class.std::__1::basic_string"* noalias sret, %"class.std::__1::basic_string"* nocapture, i1 zeroext) local_unnamed_addr #0 {
  br i1 %2, label %4, label %46

4:                                                ; preds = %3
  %5 = getelementptr inbounds %"class.std::__1::basic_string", %"class.std::__1::basic_string"* %0, i64 0, i32 0, i32 0, i32 0, i32 0, i32 0, i32 0
  %6 = getelementptr inbounds %"class.std::__1::basic_string", %"class.std::__1::basic_string"* %0, i64 0, i32 0, i32 0, i32 0, i32 0, i32 0, i32 1
  %7 = getelementptr inbounds %"class.std::__1::basic_string", %"class.std::__1::basic_string"* %0, i64 0, i32 0, i32 0, i32 0, i32 0, i32 0, i32 2
  %8 = bitcast %"class.std::__1::basic_string"* %0 to i8*
  tail call void @llvm.memset.p0i8.i64(i8* align 8 %8, i8 0, i64 24, i1 false) #14, !alias.scope !9
  %9 = bitcast %"class.std::__1::basic_string"* %1 to %"struct.std::__1::basic_string<char, std::__1::char_traits<char>, std::__1::allocator<char> >::__short"*
  %10 = getelementptr inbounds %"struct.std::__1::basic_string<char, std::__1::char_traits<char>, std::__1::allocator<char> >::__short", %"struct.std::__1::basic_string<char, std::__1::char_traits<char>, std::__1::allocator<char> >::__short"* %9, i64 0, i32 1, i32 0
  %11 = load i8, i8* %10, align 1, !noalias !9
  %12 = icmp slt i8 %11, 0
  br i1 %12, label %13, label %18

13:                                               ; preds = %4
  %14 = getelementptr inbounds %"class.std::__1::basic_string", %"class.std::__1::basic_string"* %1, i64 0, i32 0, i32 0, i32 0, i32 0, i32 0, i32 1
  %15 = load i64, i64* %14, align 8, !noalias !9
  %16 = getelementptr inbounds %"class.std::__1::basic_string", %"class.std::__1::basic_string"* %1, i64 0, i32 0, i32 0, i32 0, i32 0, i32 0, i32 0
  %17 = load i8*, i8** %16, align 8, !noalias !9
  br label %21

18:                                               ; preds = %4
  %19 = zext i8 %11 to i64
  %20 = bitcast %"class.std::__1::basic_string"* %1 to i8*
  br label %21

21:                                               ; preds = %18, %13
  %22 = phi i64 [ %15, %13 ], [ %19, %18 ]
  %23 = phi i8* [ %17, %13 ], [ %20, %18 ]
  %24 = add i64 %22, 9
  %25 = icmp ugt i64 %24, -17
  br i1 %25, label %26, label %28

26:                                               ; preds = %21
  %27 = bitcast %"class.std::__1::basic_string"* %0 to %"class.std::__1::__basic_string_common"*
  tail call void @_ZNKSt3__121__basic_string_commonILb1EE20__throw_length_errorEv(%"class.std::__1::__basic_string_common"* %27) #17
  unreachable

28:                                               ; preds = %21
  %29 = icmp ult i64 %24, 23
  br i1 %29, label %35, label %30

30:                                               ; preds = %28
  %31 = add nuw i64 %22, 25
  %32 = and i64 %31, -16
  %33 = tail call i8* @_Znwm(i64 %32) #16
  store i8* %33, i8** %5, align 8, !alias.scope !9
  %34 = or i64 %32, -9223372036854775808
  store i64 %34, i64* %7, align 8, !alias.scope !9
  store i64 %22, i64* %6, align 8, !alias.scope !9
  br label %40

35:                                               ; preds = %28
  %36 = trunc i64 %22 to i8
  %37 = bitcast %"class.std::__1::basic_string"* %0 to %"struct.std::__1::basic_string<char, std::__1::char_traits<char>, std::__1::allocator<char> >::__short"*
  %38 = getelementptr inbounds %"struct.std::__1::basic_string<char, std::__1::char_traits<char>, std::__1::allocator<char> >::__short", %"struct.std::__1::basic_string<char, std::__1::char_traits<char>, std::__1::allocator<char> >::__short"* %37, i64 0, i32 1, i32 0
  store i8 %36, i8* %38, align 1, !alias.scope !9
  %39 = icmp eq i64 %22, 0
  br i1 %39, label %42, label %40

40:                                               ; preds = %30, %35
  %41 = phi i8* [ %33, %30 ], [ %8, %35 ]
  tail call void @llvm.memcpy.p0i8.p0i8.i64(i8* align 1 %41, i8* align 1 %23, i64 %22, i1 false) #14
  br label %42

42:                                               ; preds = %35, %40
  %43 = phi i8* [ %8, %35 ], [ %41, %40 ]
  %44 = getelementptr inbounds i8, i8* %43, i64 %22
  store i8 0, i8* %44, align 1
  %45 = tail call dereferenceable(24) %"class.std::__1::basic_string"* @_ZNSt3__112basic_stringIcNS_11char_traitsIcEENS_9allocatorIcEEE6appendEPKcm(%"class.std::__1::basic_string"* %0, i8* getelementptr inbounds ([10 x i8], [10 x i8]* @.str.3, i64 0, i64 0), i64 9) #14
  br label %49

46:                                               ; preds = %3
  %47 = bitcast %"class.std::__1::basic_string"* %0 to i8*
  %48 = bitcast %"class.std::__1::basic_string"* %1 to i8*
  tail call void @llvm.memcpy.p0i8.p0i8.i64(i8* align 8 %47, i8* align 8 %48, i64 24, i1 false) #14
  tail call void @llvm.memset.p0i8.i64(i8* align 8 %48, i8 0, i64 24, i1 false) #14
  br label %49

49:                                               ; preds = %46, %42
  ret void
}

; Function Attrs: nounwind ssp uwtable
define hidden zeroext i1 @_ZN11flatbuffers12GenerateRustERKNS_6ParserERKNSt3__112basic_stringIcNS3_11char_traitsIcEENS3_9allocatorIcEEEESB_(%"class.flatbuffers::Parser"* dereferenceable(1208), %"class.std::__1::basic_string"* dereferenceable(24), %"class.std::__1::basic_string"* dereferenceable(24)) local_unnamed_addr #0 {
  %4 = alloca %"class.flatbuffers::rust::RustGenerator", align 8
  %5 = bitcast %"class.flatbuffers::rust::RustGenerator"* %4 to i8*
  call void @llvm.lifetime.start.p0i8(i64 472, i8* nonnull %5) #14
  call void @llvm.memset.p0i8.i64(i8* nonnull align 8 %5, i8 -86, i64 472, i1 false)
  call void @_ZN11flatbuffers4rust13RustGeneratorC2ERKNS_6ParserERKNSt3__112basic_stringIcNS5_11char_traitsIcEENS5_9allocatorIcEEEESD_(%"class.flatbuffers::rust::RustGenerator"* nonnull %4, %"class.flatbuffers::Parser"* dereferenceable(1208) %0, %"class.std::__1::basic_string"* dereferenceable(24) %1, %"class.std::__1::basic_string"* dereferenceable(24) %2)
  %6 = call zeroext i1 @_ZN11flatbuffers4rust13RustGenerator8generateEv(%"class.flatbuffers::rust::RustGenerator"* nonnull %4)
  call void @_ZN11flatbuffers4rust13RustGeneratorD2Ev(%"class.flatbuffers::rust::RustGenerator"* nonnull %4) #14
  call void @llvm.lifetime.end.p0i8(i64 472, i8* nonnull %5) #14
  ret i1 %6
}

; Function Attrs: argmemonly nounwind
declare void @llvm.memset.p0i8.i64(i8* nocapture writeonly, i8, i64, i1 immarg) #1

; Function Attrs: nounwind ssp uwtable
define linkonce_odr hidden void @_ZN11flatbuffers4rust13RustGeneratorC2ERKNS_6ParserERKNSt3__112basic_stringIcNS5_11char_traitsIcEENS5_9allocatorIcEEEESD_(%"class.flatbuffers::rust::RustGenerator"*, %"class.flatbuffers::Parser"* dereferenceable(1208), %"class.std::__1::basic_string"* dereferenceable(24), %"class.std::__1::basic_string"* dereferenceable(24)) unnamed_addr #0 comdat align 2 {
  %5 = alloca %"class.std::__1::__tree_end_node"*, align 8
  %6 = alloca %"class.std::__1::basic_string", align 8
  %7 = alloca %"class.std::__1::basic_string", align 8
  %8 = alloca %"class.std::__1::basic_string", align 8
  %9 = alloca [74 x i8*], align 16
  %10 = alloca %"class.std::__1::basic_string", align 8
  %11 = bitcast %"class.std::__1::basic_string"* %6 to %"struct.std::__1::basic_string<char, std::__1::char_traits<char>, std::__1::allocator<char> >::__short"*
  %12 = getelementptr inbounds %"struct.std::__1::basic_string<char, std::__1::char_traits<char>, std::__1::allocator<char> >::__short", %"struct.std::__1::basic_string<char, std::__1::char_traits<char>, std::__1::allocator<char> >::__short"* %11, i64 0, i32 1, i32 0
  store i8 0, i8* %12, align 1
  %13 = bitcast %"class.std::__1::basic_string"* %6 to i8*
  store i8 0, i8* %13, align 8
  %14 = bitcast %"class.std::__1::basic_string"* %7 to %"struct.std::__1::basic_string<char, std::__1::char_traits<char>, std::__1::allocator<char> >::__short"*
  %15 = getelementptr inbounds %"struct.std::__1::basic_string<char, std::__1::char_traits<char>, std::__1::allocator<char> >::__short", %"struct.std::__1::basic_string<char, std::__1::char_traits<char>, std::__1::allocator<char> >::__short"* %14, i64 0, i32 1, i32 0
  store i8 2, i8* %15, align 1
  %16 = bitcast %"class.std::__1::basic_string"* %7 to i8*
  %17 = bitcast %"class.std::__1::basic_string"* %7 to i16*
  store i16 14906, i16* %17, align 8
  %18 = getelementptr inbounds i8, i8* %16, i64 2
  store i8 0, i8* %18, align 2
  %19 = bitcast %"class.std::__1::basic_string"* %8 to %"struct.std::__1::basic_string<char, std::__1::char_traits<char>, std::__1::allocator<char> >::__short"*
  %20 = getelementptr inbounds %"struct.std::__1::basic_string<char, std::__1::char_traits<char>, std::__1::allocator<char> >::__short", %"struct.std::__1::basic_string<char, std::__1::char_traits<char>, std::__1::allocator<char> >::__short"* %19, i64 0, i32 1, i32 0
  store i8 2, i8* %20, align 1
  %21 = bitcast %"class.std::__1::basic_string"* %8 to i8*
  %22 = bitcast %"class.std::__1::basic_string"* %8 to i16*
  store i16 29554, i16* %22, align 8
  %23 = getelementptr inbounds i8, i8* %21, i64 2
  store i8 0, i8* %23, align 2
  %24 = getelementptr inbounds %"class.flatbuffers::rust::RustGenerator", %"class.flatbuffers::rust::RustGenerator"* %0, i64 0, i32 0, i32 0
  %25 = getelementptr inbounds %"class.flatbuffers::rust::RustGenerator", %"class.flatbuffers::rust::RustGenerator"* %0, i64 0, i32 0, i32 1
  store %"class.flatbuffers::Parser"* %1, %"class.flatbuffers::Parser"** %25, align 8
  %26 = getelementptr inbounds %"class.flatbuffers::rust::RustGenerator", %"class.flatbuffers::rust::RustGenerator"* %0, i64 0, i32 0, i32 2
  store %"class.std::__1::basic_string"* %2, %"class.std::__1::basic_string"** %26, align 8
  %27 = getelementptr inbounds %"class.flatbuffers::rust::RustGenerator", %"class.flatbuffers::rust::RustGenerator"* %0, i64 0, i32 0, i32 3
  store %"class.std::__1::basic_string"* %3, %"class.std::__1::basic_string"** %27, align 8
  %28 = getelementptr inbounds %"class.flatbuffers::rust::RustGenerator", %"class.flatbuffers::rust::RustGenerator"* %0, i64 0, i32 0, i32 4
  %29 = bitcast %"class.std::__1::basic_string"* %28 to i8*
  call void @llvm.memcpy.p0i8.p0i8.i64(i8* align 8 %29, i8* nonnull align 8 %13, i64 24, i1 false) #14
  %30 = getelementptr inbounds %"class.flatbuffers::rust::RustGenerator", %"class.flatbuffers::rust::RustGenerator"* %0, i64 0, i32 0, i32 5
  %31 = bitcast %"class.std::__1::basic_string"* %30 to i8*
  call void @llvm.memcpy.p0i8.p0i8.i64(i8* align 8 %31, i8* nonnull align 8 %16, i64 24, i1 false) #14
  %32 = getelementptr inbounds %"class.flatbuffers::rust::RustGenerator", %"class.flatbuffers::rust::RustGenerator"* %0, i64 0, i32 0, i32 6
  %33 = bitcast %"class.std::__1::basic_string"* %32 to i8*
  call void @llvm.memcpy.p0i8.p0i8.i64(i8* align 8 %33, i8* nonnull align 8 %21, i64 24, i1 false) #14
  store i32 (...)** bitcast (i8** getelementptr inbounds ({ [6 x i8*] }, { [6 x i8*] }* @_ZTVN11flatbuffers4rust13RustGeneratorE, i64 0, inrange i32 0, i64 2) to i32 (...)**), i32 (...)*** %24, align 8
  %34 = getelementptr inbounds %"class.flatbuffers::rust::RustGenerator", %"class.flatbuffers::rust::RustGenerator"* %0, i64 0, i32 1, i32 0, i32 0, i32 1, i32 0, i32 0, i32 0
  %35 = getelementptr inbounds %"class.flatbuffers::rust::RustGenerator", %"class.flatbuffers::rust::RustGenerator"* %0, i64 0, i32 1, i32 0, i32 0, i32 1, i32 0, i32 0
  %36 = getelementptr inbounds %"class.flatbuffers::rust::RustGenerator", %"class.flatbuffers::rust::RustGenerator"* %0, i64 0, i32 1, i32 0, i32 0, i32 0
  %37 = bitcast %"class.std::__1::__tree_node_base"** %34 to i8*
  tail call void @llvm.memset.p0i8.i64(i8* align 8 %37, i8 0, i64 16, i1 false) #14
  store %"class.std::__1::__tree_end_node"* %35, %"class.std::__1::__tree_end_node"** %36, align 8
  %38 = getelementptr inbounds %"class.flatbuffers::rust::RustGenerator", %"class.flatbuffers::rust::RustGenerator"* %0, i64 0, i32 1, i32 1
  %39 = getelementptr inbounds %"class.flatbuffers::rust::RustGenerator", %"class.flatbuffers::rust::RustGenerator"* %0, i64 0, i32 1, i32 1, i32 2, i32 0, i32 0
  %40 = getelementptr inbounds %"class.std::__1::basic_stringstream", %"class.std::__1::basic_stringstream"* %38, i64 0, i32 0, i32 0, i32 0
  store i32 (...)** bitcast (i8** getelementptr inbounds ({ [5 x i8*], [5 x i8*], [5 x i8*] }, { [5 x i8*], [5 x i8*], [5 x i8*] }* @_ZTVNSt3__118basic_stringstreamIcNS_11char_traitsIcEENS_9allocatorIcEEEE, i64 0, inrange i32 2, i64 3) to i32 (...)**), i32 (...)*** %39, align 8
  %41 = getelementptr inbounds %"class.flatbuffers::rust::RustGenerator", %"class.flatbuffers::rust::RustGenerator"* %0, i64 0, i32 1, i32 1, i32 0, i32 1, i32 0
  store i32 (...)** bitcast (i8** getelementptr inbounds ({ [5 x i8*], [5 x i8*], [5 x i8*] }, { [5 x i8*], [5 x i8*], [5 x i8*] }* @_ZTVNSt3__118basic_stringstreamIcNS_11char_traitsIcEENS_9allocatorIcEEEE, i64 0, inrange i32 1, i64 3) to i32 (...)**), i32 (...)*** %41, align 8
  %42 = getelementptr inbounds %"class.flatbuffers::rust::RustGenerator", %"class.flatbuffers::rust::RustGenerator"* %0, i64 0, i32 1, i32 1, i32 1
  %43 = getelementptr inbounds %"class.std::__1::basic_stringbuf", %"class.std::__1::basic_stringbuf"* %42, i64 0, i32 0
  %44 = load i64, i64* bitcast (i8** getelementptr inbounds ([10 x i8*], [10 x i8*]* @_ZTTNSt3__118basic_stringstreamIcNS_11char_traitsIcEENS_9allocatorIcEEEE, i64 0, i64 2) to i64*), align 8
  %45 = bitcast %"class.std::__1::basic_stringstream"* %38 to i64*
  store i64 %44, i64* %45, align 8
  %46 = load i64, i64* bitcast (i8** getelementptr inbounds ([10 x i8*], [10 x i8*]* @_ZTTNSt3__118basic_stringstreamIcNS_11char_traitsIcEENS_9allocatorIcEEEE, i64 0, i64 3) to i64*), align 8
  %47 = bitcast %"class.std::__1::basic_stringstream"* %38 to i8**
  %48 = inttoptr i64 %44 to i8*
  %49 = getelementptr i8, i8* %48, i64 -24
  %50 = bitcast i8* %49 to i64*
  %51 = load i64, i64* %50, align 8
  %52 = bitcast %"class.std::__1::basic_stringstream"* %38 to i8*
  %53 = getelementptr inbounds i8, i8* %52, i64 %51
  %54 = bitcast i8* %53 to i64*
  store i64 %46, i64* %54, align 8
  %55 = getelementptr inbounds %"class.flatbuffers::rust::RustGenerator", %"class.flatbuffers::rust::RustGenerator"* %0, i64 0, i32 1, i32 1, i32 0, i32 0, i32 1
  store i64 0, i64* %55, align 8
  %56 = load i8*, i8** %47, align 8
  %57 = getelementptr i8, i8* %56, i64 -24
  %58 = bitcast i8* %57 to i64*
  %59 = load i64, i64* %58, align 8
  %60 = getelementptr inbounds i8, i8* %52, i64 %59
  %61 = bitcast i8* %60 to %"class.std::__1::ios_base"*
  %62 = bitcast %"class.std::__1::basic_stringbuf"* %42 to i8*
  tail call void @_ZNSt3__18ios_base4initEPv(%"class.std::__1::ios_base"* %61, i8* %62) #14
  %63 = getelementptr inbounds i8, i8* %60, i64 136
  %64 = bitcast i8* %63 to %"class.std::__1::basic_ostream"**
  store %"class.std::__1::basic_ostream"* null, %"class.std::__1::basic_ostream"** %64, align 8
  %65 = getelementptr inbounds i8, i8* %60, i64 144
  %66 = bitcast i8* %65 to i32*
  store i32 -1, i32* %66, align 8
  %67 = getelementptr inbounds %"class.flatbuffers::rust::RustGenerator", %"class.flatbuffers::rust::RustGenerator"* %0, i64 0, i32 1, i32 1, i32 0, i32 1
  %68 = load i64, i64* bitcast (i8** getelementptr inbounds ([10 x i8*], [10 x i8*]* @_ZTTNSt3__118basic_stringstreamIcNS_11char_traitsIcEENS_9allocatorIcEEEE, i64 0, i64 4) to i64*), align 8
  %69 = bitcast %"class.std::__1::basic_ostream.base"* %67 to i64*
  store i64 %68, i64* %69, align 8
  %70 = load i64, i64* bitcast (i8** getelementptr inbounds ([10 x i8*], [10 x i8*]* @_ZTTNSt3__118basic_stringstreamIcNS_11char_traitsIcEENS_9allocatorIcEEEE, i64 0, i64 5) to i64*), align 8
  %71 = inttoptr i64 %68 to i8*
  %72 = getelementptr i8, i8* %71, i64 -24
  %73 = bitcast i8* %72 to i64*
  %74 = load i64, i64* %73, align 8
  %75 = bitcast %"class.std::__1::basic_ostream.base"* %67 to i8*
  %76 = getelementptr inbounds i8, i8* %75, i64 %74
  %77 = bitcast i8* %76 to i64*
  store i64 %70, i64* %77, align 8
  %78 = load i64, i64* bitcast (i8** getelementptr inbounds ([10 x i8*], [10 x i8*]* @_ZTTNSt3__118basic_stringstreamIcNS_11char_traitsIcEENS_9allocatorIcEEEE, i64 0, i64 1) to i64*), align 8
  store i64 %78, i64* %45, align 8
  %79 = load i64, i64* bitcast (i8** getelementptr inbounds ([10 x i8*], [10 x i8*]* @_ZTTNSt3__118basic_stringstreamIcNS_11char_traitsIcEENS_9allocatorIcEEEE, i64 0, i64 6) to i64*), align 8
  %80 = inttoptr i64 %78 to i8*
  %81 = getelementptr i8, i8* %80, i64 -24
  %82 = bitcast i8* %81 to i64*
  %83 = load i64, i64* %82, align 8
  %84 = getelementptr inbounds i8, i8* %52, i64 %83
  %85 = bitcast i8* %84 to i64*
  store i64 %79, i64* %85, align 8
  store i32 (...)** bitcast (i8** getelementptr inbounds ({ [5 x i8*], [5 x i8*], [5 x i8*] }, { [5 x i8*], [5 x i8*], [5 x i8*] }* @_ZTVNSt3__118basic_stringstreamIcNS_11char_traitsIcEENS_9allocatorIcEEEE, i64 0, inrange i32 0, i64 3) to i32 (...)**), i32 (...)*** %40, align 8
  store i32 (...)** bitcast (i8** getelementptr inbounds ({ [5 x i8*], [5 x i8*], [5 x i8*] }, { [5 x i8*], [5 x i8*], [5 x i8*] }* @_ZTVNSt3__118basic_stringstreamIcNS_11char_traitsIcEENS_9allocatorIcEEEE, i64 0, inrange i32 2, i64 3) to i32 (...)**), i32 (...)*** %39, align 8
  store i32 (...)** bitcast (i8** getelementptr inbounds ({ [5 x i8*], [5 x i8*], [5 x i8*] }, { [5 x i8*], [5 x i8*], [5 x i8*] }* @_ZTVNSt3__118basic_stringstreamIcNS_11char_traitsIcEENS_9allocatorIcEEEE, i64 0, inrange i32 1, i64 3) to i32 (...)**), i32 (...)*** %41, align 8
  tail call void @_ZNSt3__115basic_streambufIcNS_11char_traitsIcEEEC2Ev(%"class.std::__1::basic_streambuf"* %43) #14
  %86 = getelementptr inbounds %"class.std::__1::basic_stringbuf", %"class.std::__1::basic_stringbuf"* %42, i64 0, i32 0, i32 0
  store i32 (...)** bitcast (i8** getelementptr inbounds ({ [16 x i8*] }, { [16 x i8*] }* @_ZTVNSt3__115basic_stringbufIcNS_11char_traitsIcEENS_9allocatorIcEEEE, i64 0, inrange i32 0, i64 2) to i32 (...)**), i32 (...)*** %86, align 8
  %87 = getelementptr inbounds %"class.flatbuffers::rust::RustGenerator", %"class.flatbuffers::rust::RustGenerator"* %0, i64 0, i32 1, i32 1, i32 1, i32 1
  %88 = getelementptr inbounds %"class.flatbuffers::rust::RustGenerator", %"class.flatbuffers::rust::RustGenerator"* %0, i64 0, i32 1, i32 1, i32 1, i32 3
  %89 = bitcast %"class.std::__1::basic_string"* %87 to i8*
  tail call void @llvm.memset.p0i8.i64(i8* align 8 %89, i8 0, i64 32, i1 false) #14
  store i32 24, i32* %88, align 8
  %90 = getelementptr inbounds %"class.flatbuffers::rust::RustGenerator", %"class.flatbuffers::rust::RustGenerator"* %0, i64 0, i32 1, i32 2, i32 0, i32 0, i32 0, i32 0, i32 0, i32 0
  %91 = bitcast %"class.flatbuffers::rust::RustGenerator"* %0 to i8*
  %92 = getelementptr inbounds i8, i8* %91, i64 431
  %93 = bitcast i8** %90 to i8*
  call void @llvm.memset.p0i8.i64(i8* align 8 %93, i8 0, i64 23, i1 false)
  store i8 0, i8* %92, align 1
  %94 = getelementptr inbounds %"class.flatbuffers::rust::RustGenerator", %"class.flatbuffers::rust::RustGenerator"* %0, i64 0, i32 1, i32 3
  store i32 0, i32* %94, align 8
  %95 = getelementptr inbounds %"class.flatbuffers::rust::RustGenerator", %"class.flatbuffers::rust::RustGenerator"* %0, i64 0, i32 1, i32 4
  store i8 0, i8* %95, align 4
  %96 = getelementptr inbounds %"class.flatbuffers::rust::RustGenerator", %"class.flatbuffers::rust::RustGenerator"* %0, i64 0, i32 2
  %97 = getelementptr inbounds %"class.flatbuffers::rust::RustGenerator", %"class.flatbuffers::rust::RustGenerator"* %0, i64 0, i32 2, i32 0, i32 1, i32 0, i32 0, i32 0
  %98 = getelementptr inbounds %"class.flatbuffers::rust::RustGenerator", %"class.flatbuffers::rust::RustGenerator"* %0, i64 0, i32 2, i32 0, i32 1, i32 0, i32 0
  %99 = getelementptr inbounds %"class.std::__1::set.221", %"class.std::__1::set.221"* %96, i64 0, i32 0, i32 0
  %100 = bitcast %"class.std::__1::__tree_node_base"** %97 to i8*
  tail call void @llvm.memset.p0i8.i64(i8* align 8 %100, i8 0, i64 16, i1 false) #14
  store %"class.std::__1::__tree_end_node"* %98, %"class.std::__1::__tree_end_node"** %99, align 8
  %101 = getelementptr inbounds %"class.flatbuffers::rust::RustGenerator", %"class.flatbuffers::rust::RustGenerator"* %0, i64 0, i32 3
  store %"struct.flatbuffers::Namespace"* null, %"struct.flatbuffers::Namespace"** %101, align 8
  %102 = bitcast [74 x i8*]* %9 to i8*
  call void @llvm.lifetime.start.p0i8(i64 592, i8* nonnull %102) #14
  call void @llvm.memcpy.p0i8.p0i8.i64(i8* nonnull align 16 %102, i8* align 16 bitcast ([74 x i8*]* @__const.RustGenerator.keywords to i8*), i64 592, i1 false)
  %103 = getelementptr inbounds [74 x i8*], [74 x i8*]* %9, i64 0, i64 0
  %104 = bitcast %"class.std::__1::basic_string"* %10 to i8*
  %105 = getelementptr inbounds %"class.std::__1::basic_string", %"class.std::__1::basic_string"* %10, i64 0, i32 0, i32 0, i32 0, i32 0, i32 0, i32 0
  %106 = getelementptr inbounds %"class.std::__1::basic_string", %"class.std::__1::basic_string"* %10, i64 0, i32 0, i32 0, i32 0, i32 0, i32 0, i32 2
  %107 = getelementptr inbounds %"class.std::__1::basic_string", %"class.std::__1::basic_string"* %10, i64 0, i32 0, i32 0, i32 0, i32 0, i32 0, i32 1
  %108 = bitcast %"class.std::__1::basic_string"* %10 to %"struct.std::__1::basic_string<char, std::__1::char_traits<char>, std::__1::allocator<char> >::__short"*
  %109 = getelementptr inbounds %"struct.std::__1::basic_string<char, std::__1::char_traits<char>, std::__1::allocator<char> >::__short", %"struct.std::__1::basic_string<char, std::__1::char_traits<char>, std::__1::allocator<char> >::__short"* %108, i64 0, i32 1, i32 0
  %110 = getelementptr inbounds %"class.std::__1::set.221", %"class.std::__1::set.221"* %96, i64 0, i32 0
  %111 = bitcast %"class.std::__1::__tree_end_node"** %5 to i8*
  %112 = bitcast %"class.std::__1::__tree_end_node"** %5 to i64*
  %113 = bitcast %"class.std::__1::set.221"* %96 to i64*
  %114 = getelementptr inbounds %"class.flatbuffers::rust::RustGenerator", %"class.flatbuffers::rust::RustGenerator"* %0, i64 0, i32 2, i32 0, i32 2, i32 0, i32 0
  br label %116

115:                                              ; preds = %167
  call void @llvm.lifetime.end.p0i8(i64 592, i8* nonnull %102) #14
  ret void

116:                                              ; preds = %4, %167
  %117 = phi i8* [ getelementptr inbounds ([3 x i8], [3 x i8]* @.str.9, i64 0, i64 0), %4 ], [ %169, %167 ]
  %118 = phi i8** [ %103, %4 ], [ %168, %167 ]
  call void @llvm.lifetime.start.p0i8(i64 24, i8* nonnull %104) #14
  %119 = call i64 @strlen(i8* nonnull %117) #14
  %120 = icmp ugt i64 %119, -17
  br i1 %120, label %121, label %123

121:                                              ; preds = %116
  %122 = bitcast %"class.std::__1::basic_string"* %10 to %"class.std::__1::__basic_string_common"*
  call void @_ZNKSt3__121__basic_string_commonILb1EE20__throw_length_errorEv(%"class.std::__1::__basic_string_common"* nonnull %122) #17
  unreachable

123:                                              ; preds = %116
  %124 = icmp ult i64 %119, 23
  br i1 %124, label %130, label %125

125:                                              ; preds = %123
  %126 = add nuw i64 %119, 16
  %127 = and i64 %126, -16
  %128 = call i8* @_Znwm(i64 %127) #16
  store i8* %128, i8** %105, align 8
  %129 = or i64 %127, -9223372036854775808
  store i64 %129, i64* %106, align 8
  store i64 %119, i64* %107, align 8
  br label %133

130:                                              ; preds = %123
  %131 = trunc i64 %119 to i8
  store i8 %131, i8* %109, align 1
  %132 = icmp eq i64 %119, 0
  br i1 %132, label %135, label %133

133:                                              ; preds = %130, %125
  %134 = phi i8* [ %128, %125 ], [ %104, %130 ]
  call void @llvm.memcpy.p0i8.p0i8.i64(i8* nonnull align 1 %134, i8* align 1 %117, i64 %119, i1 false) #14
  br label %135

135:                                              ; preds = %130, %133
  %136 = phi i8* [ %104, %130 ], [ %134, %133 ]
  %137 = getelementptr inbounds i8, i8* %136, i64 %119
  store i8 0, i8* %137, align 1
  call void @llvm.lifetime.start.p0i8(i64 8, i8* nonnull %111) #14
  store %"class.std::__1::__tree_end_node"* inttoptr (i64 -6148914691236517206 to %"class.std::__1::__tree_end_node"*), %"class.std::__1::__tree_end_node"** %5, align 8
  %138 = call dereferenceable(8) %"class.std::__1::__tree_node_base"** @_ZNSt3__16__treeINS_12basic_stringIcNS_11char_traitsIcEENS_9allocatorIcEEEENS_4lessIS6_EENS4_IS6_EEE12__find_equalIS6_EERPNS_16__tree_node_baseIPvEERPNS_15__tree_end_nodeISF_EERKT_(%"class.std::__1::__tree.222"* %110, %"class.std::__1::__tree_end_node"** nonnull dereferenceable(8) %5, %"class.std::__1::basic_string"* nonnull dereferenceable(24) %10) #14
  %139 = bitcast %"class.std::__1::__tree_node_base"** %138 to %"class.std::__1::__tree_node"**
  %140 = load %"class.std::__1::__tree_node"*, %"class.std::__1::__tree_node"** %139, align 8
  %141 = icmp eq %"class.std::__1::__tree_node"* %140, null
  br i1 %141, label %142, label %162

142:                                              ; preds = %135
  %143 = call i8* @_Znwm(i64 56) #16, !noalias !12
  %144 = getelementptr inbounds i8, i8* %143, i64 32
  call void @llvm.memcpy.p0i8.p0i8.i64(i8* align 8 %144, i8* nonnull align 8 %104, i64 24, i1 false) #14, !noalias !12
  call void @llvm.memset.p0i8.i64(i8* nonnull align 8 %104, i8 0, i64 24, i1 false) #14, !noalias !12
  %145 = load i64, i64* %112, align 8
  %146 = bitcast i8* %143 to %"class.std::__1::__tree_node_base"*
  %147 = getelementptr inbounds i8, i8* %143, i64 16
  call void @llvm.memset.p0i8.i64(i8* nonnull align 8 %143, i8 0, i64 16, i1 false) #14
  %148 = bitcast i8* %147 to i64*
  store i64 %145, i64* %148, align 8
  %149 = bitcast %"class.std::__1::__tree_node_base"** %138 to i8**
  store i8* %143, i8** %149, align 8
  %150 = load %"class.std::__1::__tree_end_node"*, %"class.std::__1::__tree_end_node"** %99, align 8
  %151 = getelementptr inbounds %"class.std::__1::__tree_end_node", %"class.std::__1::__tree_end_node"* %150, i64 0, i32 0
  %152 = load %"class.std::__1::__tree_node_base"*, %"class.std::__1::__tree_node_base"** %151, align 8
  %153 = icmp eq %"class.std::__1::__tree_node_base"* %152, null
  br i1 %153, label %157, label %154

154:                                              ; preds = %142
  %155 = ptrtoint %"class.std::__1::__tree_node_base"* %152 to i64
  store i64 %155, i64* %113, align 8
  %156 = load %"class.std::__1::__tree_node_base"*, %"class.std::__1::__tree_node_base"** %138, align 8
  br label %157

157:                                              ; preds = %154, %142
  %158 = phi %"class.std::__1::__tree_node_base"* [ %146, %142 ], [ %156, %154 ]
  %159 = load %"class.std::__1::__tree_node_base"*, %"class.std::__1::__tree_node_base"** %97, align 8
  call void @_ZNSt3__127__tree_balance_after_insertIPNS_16__tree_node_baseIPvEEEEvT_S5_(%"class.std::__1::__tree_node_base"* %159, %"class.std::__1::__tree_node_base"* %158) #14
  %160 = load i64, i64* %114, align 8
  %161 = add i64 %160, 1
  store i64 %161, i64* %114, align 8
  br label %162

162:                                              ; preds = %135, %157
  call void @llvm.lifetime.end.p0i8(i64 8, i8* nonnull %111) #14
  %163 = load i8, i8* %109, align 1
  %164 = icmp slt i8 %163, 0
  br i1 %164, label %165, label %167

165:                                              ; preds = %162
  %166 = load i8*, i8** %105, align 8
  call void @_ZdlPv(i8* %166) #16
  br label %167

167:                                              ; preds = %162, %165
  call void @llvm.lifetime.end.p0i8(i64 24, i8* nonnull %104) #14
  %168 = getelementptr inbounds i8*, i8** %118, i64 1
  %169 = load i8*, i8** %168, align 8
  %170 = icmp eq i8* %169, null
  br i1 %170, label %115, label %116
}

; Function Attrs: nounwind ssp uwtable
define linkonce_odr hidden zeroext i1 @_ZN11flatbuffers4rust13RustGenerator8generateEv(%"class.flatbuffers::rust::RustGenerator"*) unnamed_addr #0 comdat align 2 {
  %2 = alloca %"class.std::__1::basic_string", align 8
  %3 = alloca %"class.std::__1::basic_string", align 8
  %4 = alloca %"class.std::__1::basic_string", align 8
  %5 = alloca %"class.std::__1::basic_string", align 8
  %6 = alloca %"class.std::__1::basic_string", align 8
  %7 = alloca %"class.std::__1::basic_string", align 8
  %8 = alloca %"class.std::__1::basic_string", align 8
  %9 = getelementptr inbounds %"class.flatbuffers::rust::RustGenerator", %"class.flatbuffers::rust::RustGenerator"* %0, i64 0, i32 1
  %10 = getelementptr inbounds %"class.flatbuffers::rust::RustGenerator", %"class.flatbuffers::rust::RustGenerator"* %0, i64 0, i32 1, i32 1
  %11 = bitcast %"class.std::__1::basic_string"* %2 to i8*
  call void @llvm.lifetime.start.p0i8(i64 24, i8* nonnull %11) #14
  %12 = bitcast %"class.std::__1::basic_string"* %2 to %"struct.std::__1::basic_string<char, std::__1::char_traits<char>, std::__1::allocator<char> >::__short"*
  %13 = getelementptr inbounds %"struct.std::__1::basic_string<char, std::__1::char_traits<char>, std::__1::allocator<char> >::__short", %"struct.std::__1::basic_string<char, std::__1::char_traits<char>, std::__1::allocator<char> >::__short"* %12, i64 0, i32 1, i32 0
  store i8 0, i8* %13, align 1
  store i8 0, i8* %11, align 8
  %14 = getelementptr inbounds %"class.flatbuffers::rust::RustGenerator", %"class.flatbuffers::rust::RustGenerator"* %0, i64 0, i32 1, i32 1, i32 1
  call void @_ZNSt3__115basic_stringbufIcNS_11char_traitsIcEENS_9allocatorIcEEE3strERKNS_12basic_stringIcS2_S4_EE(%"class.std::__1::basic_stringbuf"* %14, %"class.std::__1::basic_string"* nonnull dereferenceable(24) %2) #14
  %15 = load i8, i8* %13, align 1
  %16 = icmp slt i8 %15, 0
  br i1 %16, label %17, label %20

17:                                               ; preds = %1
  %18 = getelementptr inbounds %"class.std::__1::basic_string", %"class.std::__1::basic_string"* %2, i64 0, i32 0, i32 0, i32 0, i32 0, i32 0, i32 0
  %19 = load i8*, i8** %18, align 8
  call void @_ZdlPv(i8* %19) #16
  br label %20

20:                                               ; preds = %1, %17
  call void @llvm.lifetime.end.p0i8(i64 24, i8* nonnull %11) #14
  %21 = bitcast %"class.std::__1::basic_stringstream"* %10 to i8**
  %22 = load i8*, i8** %21, align 8
  %23 = getelementptr i8, i8* %22, i64 -24
  %24 = bitcast i8* %23 to i64*
  %25 = load i64, i64* %24, align 8
  %26 = bitcast %"class.std::__1::basic_stringstream"* %10 to i8*
  %27 = getelementptr inbounds i8, i8* %26, i64 %25
  %28 = bitcast i8* %27 to %"class.std::__1::ios_base"*
  call void @_ZNSt3__18ios_base5clearEj(%"class.std::__1::ios_base"* %28, i32 0) #14
  %29 = bitcast %"class.std::__1::basic_string"* %4 to i8*
  call void @llvm.lifetime.start.p0i8(i64 24, i8* nonnull %29) #14
  %30 = bitcast %"class.std::__1::basic_string"* %5 to i8*
  call void @llvm.lifetime.start.p0i8(i64 24, i8* nonnull %30) #14
  %31 = call i8* @_ZN11flatbuffers13BaseGenerator27FlatBuffersGeneratedWarningEv() #14
  %32 = call i64 @strlen(i8* %31) #14
  %33 = icmp ugt i64 %32, -17
  br i1 %33, label %34, label %36

34:                                               ; preds = %20
  %35 = bitcast %"class.std::__1::basic_string"* %5 to %"class.std::__1::__basic_string_common"*
  call void @_ZNKSt3__121__basic_string_commonILb1EE20__throw_length_errorEv(%"class.std::__1::__basic_string_common"* nonnull %35) #17
  unreachable

36:                                               ; preds = %20
  %37 = icmp ult i64 %32, 23
  br i1 %37, label %46, label %38

38:                                               ; preds = %36
  %39 = add nuw i64 %32, 16
  %40 = and i64 %39, -16
  %41 = call i8* @_Znwm(i64 %40) #16
  %42 = getelementptr inbounds %"class.std::__1::basic_string", %"class.std::__1::basic_string"* %5, i64 0, i32 0, i32 0, i32 0, i32 0, i32 0, i32 0
  store i8* %41, i8** %42, align 8
  %43 = or i64 %40, -9223372036854775808
  %44 = getelementptr inbounds %"class.std::__1::basic_string", %"class.std::__1::basic_string"* %5, i64 0, i32 0, i32 0, i32 0, i32 0, i32 0, i32 2
  store i64 %43, i64* %44, align 8
  %45 = getelementptr inbounds %"class.std::__1::basic_string", %"class.std::__1::basic_string"* %5, i64 0, i32 0, i32 0, i32 0, i32 0, i32 0, i32 1
  store i64 %32, i64* %45, align 8
  br label %51

46:                                               ; preds = %36
  %47 = trunc i64 %32 to i8
  %48 = bitcast %"class.std::__1::basic_string"* %5 to %"struct.std::__1::basic_string<char, std::__1::char_traits<char>, std::__1::allocator<char> >::__short"*
  %49 = getelementptr inbounds %"struct.std::__1::basic_string<char, std::__1::char_traits<char>, std::__1::allocator<char> >::__short", %"struct.std::__1::basic_string<char, std::__1::char_traits<char>, std::__1::allocator<char> >::__short"* %48, i64 0, i32 1, i32 0
  store i8 %47, i8* %49, align 1
  %50 = icmp eq i64 %32, 0
  br i1 %50, label %53, label %51

51:                                               ; preds = %46, %38
  %52 = phi i8* [ %41, %38 ], [ %30, %46 ]
  call void @llvm.memcpy.p0i8.p0i8.i64(i8* nonnull align 1 %52, i8* align 1 %31, i64 %32, i1 false) #14
  br label %53

53:                                               ; preds = %46, %51
  %54 = phi i8* [ %30, %46 ], [ %52, %51 ]
  %55 = getelementptr inbounds i8, i8* %54, i64 %32
  store i8 0, i8* %55, align 1
  %56 = call dereferenceable(24) %"class.std::__1::basic_string"* @_ZNSt3__112basic_stringIcNS_11char_traitsIcEENS_9allocatorIcEEE6insertEmPKc(%"class.std::__1::basic_string"* nonnull %5, i64 0, i8* getelementptr inbounds ([4 x i8], [4 x i8]* @.str.83, i64 0, i64 0)) #14, !noalias !15
  %57 = bitcast %"class.std::__1::basic_string"* %56 to i8*
  call void @llvm.memcpy.p0i8.p0i8.i64(i8* nonnull align 8 %29, i8* align 8 %57, i64 24, i1 false) #14
  call void @llvm.memset.p0i8.i64(i8* align 8 %57, i8 0, i64 24, i1 false) #14, !noalias !15
  %58 = call dereferenceable(24) %"class.std::__1::basic_string"* @_ZNSt3__112basic_stringIcNS_11char_traitsIcEENS_9allocatorIcEEE6appendEPKc(%"class.std::__1::basic_string"* nonnull %4, i8* getelementptr inbounds ([3 x i8], [3 x i8]* @.str.84, i64 0, i64 0)) #14, !noalias !18
  %59 = bitcast %"class.std::__1::basic_string"* %3 to i8*
  %60 = bitcast %"class.std::__1::basic_string"* %58 to i8*
  call void @llvm.memcpy.p0i8.p0i8.i64(i8* nonnull align 8 %59, i8* align 8 %60, i64 24, i1 false) #14
  call void @llvm.memset.p0i8.i64(i8* align 8 %60, i8 0, i64 24, i1 false) #14, !noalias !18
  call void @_ZN11flatbuffers10CodeWriterpLENSt3__112basic_stringIcNS1_11char_traitsIcEENS1_9allocatorIcEEEE(%"class.flatbuffers::CodeWriter"* %9, %"class.std::__1::basic_string"* nonnull %3) #14
  %61 = bitcast %"class.std::__1::basic_string"* %3 to %"struct.std::__1::basic_string<char, std::__1::char_traits<char>, std::__1::allocator<char> >::__short"*
  %62 = getelementptr inbounds %"struct.std::__1::basic_string<char, std::__1::char_traits<char>, std::__1::allocator<char> >::__short", %"struct.std::__1::basic_string<char, std::__1::char_traits<char>, std::__1::allocator<char> >::__short"* %61, i64 0, i32 1, i32 0
  %63 = load i8, i8* %62, align 1
  %64 = icmp slt i8 %63, 0
  br i1 %64, label %65, label %68

65:                                               ; preds = %53
  %66 = getelementptr inbounds %"class.std::__1::basic_string", %"class.std::__1::basic_string"* %3, i64 0, i32 0, i32 0, i32 0, i32 0, i32 0, i32 0
  %67 = load i8*, i8** %66, align 8
  call void @_ZdlPv(i8* %67) #16
  br label %68

68:                                               ; preds = %53, %65
  %69 = bitcast %"class.std::__1::basic_string"* %4 to %"struct.std::__1::basic_string<char, std::__1::char_traits<char>, std::__1::allocator<char> >::__short"*
  %70 = getelementptr inbounds %"struct.std::__1::basic_string<char, std::__1::char_traits<char>, std::__1::allocator<char> >::__short", %"struct.std::__1::basic_string<char, std::__1::char_traits<char>, std::__1::allocator<char> >::__short"* %69, i64 0, i32 1, i32 0
  %71 = load i8, i8* %70, align 1
  %72 = icmp slt i8 %71, 0
  br i1 %72, label %73, label %76

73:                                               ; preds = %68
  %74 = getelementptr inbounds %"class.std::__1::basic_string", %"class.std::__1::basic_string"* %4, i64 0, i32 0, i32 0, i32 0, i32 0, i32 0, i32 0
  %75 = load i8*, i8** %74, align 8
  call void @_ZdlPv(i8* %75) #16
  br label %76

76:                                               ; preds = %68, %73
  %77 = bitcast %"class.std::__1::basic_string"* %5 to %"struct.std::__1::basic_string<char, std::__1::char_traits<char>, std::__1::allocator<char> >::__short"*
  %78 = getelementptr inbounds %"struct.std::__1::basic_string<char, std::__1::char_traits<char>, std::__1::allocator<char> >::__short", %"struct.std::__1::basic_string<char, std::__1::char_traits<char>, std::__1::allocator<char> >::__short"* %77, i64 0, i32 1, i32 0
  %79 = load i8, i8* %78, align 1
  %80 = icmp slt i8 %79, 0
  br i1 %80, label %81, label %84

81:                                               ; preds = %76
  %82 = getelementptr inbounds %"class.std::__1::basic_string", %"class.std::__1::basic_string"* %5, i64 0, i32 0, i32 0, i32 0, i32 0, i32 0, i32 0
  %83 = load i8*, i8** %82, align 8
  call void @_ZdlPv(i8* %83) #16
  br label %84

84:                                               ; preds = %76, %81
  call void @llvm.lifetime.end.p0i8(i64 24, i8* nonnull %30) #14
  call void @llvm.lifetime.end.p0i8(i64 24, i8* nonnull %29) #14
  call void @_ZN11flatbuffers4rust13RustGenerator19GenNamespaceImportsEi(%"class.flatbuffers::rust::RustGenerator"* %0, i32 0)
  %85 = bitcast %"class.std::__1::basic_string"* %6 to %"struct.std::__1::basic_string<char, std::__1::char_traits<char>, std::__1::allocator<char> >::__short"*
  %86 = getelementptr inbounds %"struct.std::__1::basic_string<char, std::__1::char_traits<char>, std::__1::allocator<char> >::__short", %"struct.std::__1::basic_string<char, std::__1::char_traits<char>, std::__1::allocator<char> >::__short"* %85, i64 0, i32 1, i32 0
  store i8 0, i8* %86, align 1
  %87 = bitcast %"class.std::__1::basic_string"* %6 to i8*
  store i8 0, i8* %87, align 8
  call void @_ZN11flatbuffers10CodeWriterpLENSt3__112basic_stringIcNS1_11char_traitsIcEENS1_9allocatorIcEEEE(%"class.flatbuffers::CodeWriter"* %9, %"class.std::__1::basic_string"* nonnull %6) #14
  %88 = load i8, i8* %86, align 1
  %89 = icmp slt i8 %88, 0
  br i1 %89, label %90, label %93

90:                                               ; preds = %84
  %91 = getelementptr inbounds %"class.std::__1::basic_string", %"class.std::__1::basic_string"* %6, i64 0, i32 0, i32 0, i32 0, i32 0, i32 0, i32 0
  %92 = load i8*, i8** %91, align 8
  call void @_ZdlPv(i8* %92) #16
  br label %93

93:                                               ; preds = %84, %90
  %94 = getelementptr inbounds %"class.flatbuffers::rust::RustGenerator", %"class.flatbuffers::rust::RustGenerator"* %0, i64 0, i32 0
  %95 = getelementptr inbounds %"class.flatbuffers::rust::RustGenerator", %"class.flatbuffers::rust::RustGenerator"* %0, i64 0, i32 0, i32 1
  %96 = load %"class.flatbuffers::Parser"*, %"class.flatbuffers::Parser"** %95, align 8
  %97 = getelementptr inbounds %"class.flatbuffers::Parser", %"class.flatbuffers::Parser"* %96, i64 0, i32 5, i32 0, i32 0
  %98 = load %"struct.flatbuffers::Namespace"**, %"struct.flatbuffers::Namespace"*** %97, align 8
  %99 = getelementptr inbounds %"class.flatbuffers::Parser", %"class.flatbuffers::Parser"* %96, i64 0, i32 5, i32 0, i32 1
  %100 = load %"struct.flatbuffers::Namespace"**, %"struct.flatbuffers::Namespace"*** %99, align 8
  %101 = icmp eq %"struct.flatbuffers::Namespace"** %98, %100
  br i1 %101, label %102, label %107

102:                                              ; preds = %214, %93
  %103 = phi %"class.flatbuffers::Parser"* [ %96, %93 ], [ %215, %214 ]
  %104 = getelementptr inbounds %"class.flatbuffers::rust::RustGenerator", %"class.flatbuffers::rust::RustGenerator"* %0, i64 0, i32 3
  %105 = load %"struct.flatbuffers::Namespace"*, %"struct.flatbuffers::Namespace"** %104, align 8
  %106 = icmp eq %"struct.flatbuffers::Namespace"* %105, null
  br i1 %106, label %222, label %220

107:                                              ; preds = %93, %214
  %108 = phi %"class.flatbuffers::Parser"* [ %215, %214 ], [ %96, %93 ]
  %109 = phi %"struct.flatbuffers::Namespace"** [ %216, %214 ], [ %98, %93 ]
  %110 = getelementptr inbounds %"class.flatbuffers::Parser", %"class.flatbuffers::Parser"* %108, i64 0, i32 3, i32 1, i32 0, i32 0
  %111 = load %"struct.flatbuffers::EnumDef"**, %"struct.flatbuffers::EnumDef"*** %110, align 8
  %112 = getelementptr inbounds %"class.flatbuffers::Parser", %"class.flatbuffers::Parser"* %108, i64 0, i32 3, i32 1, i32 0, i32 1
  %113 = load %"struct.flatbuffers::EnumDef"**, %"struct.flatbuffers::EnumDef"*** %112, align 8
  %114 = icmp eq %"struct.flatbuffers::EnumDef"** %111, %113
  br i1 %114, label %115, label %123

115:                                              ; preds = %138, %107
  %116 = phi %"class.flatbuffers::Parser"* [ %108, %107 ], [ %139, %138 ]
  %117 = phi %"class.flatbuffers::Parser"* [ %108, %107 ], [ %140, %138 ]
  %118 = getelementptr inbounds %"class.flatbuffers::Parser", %"class.flatbuffers::Parser"* %117, i64 0, i32 2, i32 1, i32 0, i32 0
  %119 = load %"struct.flatbuffers::StructDef"**, %"struct.flatbuffers::StructDef"*** %118, align 8
  %120 = getelementptr inbounds %"class.flatbuffers::Parser", %"class.flatbuffers::Parser"* %117, i64 0, i32 2, i32 1, i32 0, i32 1
  %121 = load %"struct.flatbuffers::StructDef"**, %"struct.flatbuffers::StructDef"*** %120, align 8
  %122 = icmp eq %"struct.flatbuffers::StructDef"** %119, %121
  br i1 %122, label %175, label %149

123:                                              ; preds = %107, %138
  %124 = phi %"class.flatbuffers::Parser"* [ %139, %138 ], [ %108, %107 ]
  %125 = phi %"class.flatbuffers::Parser"* [ %140, %138 ], [ %108, %107 ]
  %126 = phi %"struct.flatbuffers::EnumDef"** [ %141, %138 ], [ %111, %107 ]
  %127 = load %"struct.flatbuffers::EnumDef"*, %"struct.flatbuffers::EnumDef"** %126, align 8
  %128 = getelementptr inbounds %"struct.flatbuffers::EnumDef", %"struct.flatbuffers::EnumDef"* %127, i64 0, i32 0, i32 6
  %129 = load %"struct.flatbuffers::Namespace"*, %"struct.flatbuffers::Namespace"** %128, align 8
  %130 = load %"struct.flatbuffers::Namespace"*, %"struct.flatbuffers::Namespace"** %109, align 8
  %131 = icmp eq %"struct.flatbuffers::Namespace"* %129, %130
  br i1 %131, label %132, label %138

132:                                              ; preds = %123
  %133 = getelementptr inbounds %"struct.flatbuffers::EnumDef", %"struct.flatbuffers::EnumDef"* %127, i64 0, i32 0, i32 4
  %134 = load i8, i8* %133, align 8, !range !2
  %135 = icmp eq i8 %134, 0
  br i1 %135, label %136, label %138

136:                                              ; preds = %132
  call void @_ZN11flatbuffers4rust13RustGenerator12SetNameSpaceEPKNS_9NamespaceE(%"class.flatbuffers::rust::RustGenerator"* %0, %"struct.flatbuffers::Namespace"* %129)
  call void @_ZN11flatbuffers4rust13RustGenerator7GenEnumERKNS_7EnumDefE(%"class.flatbuffers::rust::RustGenerator"* %0, %"struct.flatbuffers::EnumDef"* dereferenceable(232) %127)
  %137 = load %"class.flatbuffers::Parser"*, %"class.flatbuffers::Parser"** %95, align 8
  br label %138

138:                                              ; preds = %136, %132, %123
  %139 = phi %"class.flatbuffers::Parser"* [ %137, %136 ], [ %124, %132 ], [ %124, %123 ]
  %140 = phi %"class.flatbuffers::Parser"* [ %137, %136 ], [ %125, %132 ], [ %125, %123 ]
  %141 = getelementptr inbounds %"struct.flatbuffers::EnumDef"*, %"struct.flatbuffers::EnumDef"** %126, i64 1
  %142 = getelementptr inbounds %"class.flatbuffers::Parser", %"class.flatbuffers::Parser"* %140, i64 0, i32 3, i32 1, i32 0, i32 1
  %143 = load %"struct.flatbuffers::EnumDef"**, %"struct.flatbuffers::EnumDef"*** %142, align 8
  %144 = icmp eq %"struct.flatbuffers::EnumDef"** %141, %143
  br i1 %144, label %115, label %123

145:                                              ; preds = %168
  %146 = getelementptr inbounds %"class.flatbuffers::Parser", %"class.flatbuffers::Parser"* %170, i64 0, i32 2, i32 1, i32 0, i32 0
  %147 = load %"struct.flatbuffers::StructDef"**, %"struct.flatbuffers::StructDef"*** %146, align 8
  %148 = icmp eq %"struct.flatbuffers::StructDef"** %147, %171
  br i1 %148, label %175, label %181

149:                                              ; preds = %115, %168
  %150 = phi %"class.flatbuffers::Parser"* [ %169, %168 ], [ %116, %115 ]
  %151 = phi %"class.flatbuffers::Parser"* [ %170, %168 ], [ %117, %115 ]
  %152 = phi %"struct.flatbuffers::StructDef"** [ %171, %168 ], [ %119, %115 ]
  %153 = load %"struct.flatbuffers::StructDef"*, %"struct.flatbuffers::StructDef"** %152, align 8
  %154 = getelementptr inbounds %"struct.flatbuffers::StructDef", %"struct.flatbuffers::StructDef"* %153, i64 0, i32 0, i32 6
  %155 = load %"struct.flatbuffers::Namespace"*, %"struct.flatbuffers::Namespace"** %154, align 8
  %156 = load %"struct.flatbuffers::Namespace"*, %"struct.flatbuffers::Namespace"** %109, align 8
  %157 = icmp eq %"struct.flatbuffers::Namespace"* %155, %156
  br i1 %157, label %158, label %168

158:                                              ; preds = %149
  %159 = getelementptr inbounds %"struct.flatbuffers::StructDef", %"struct.flatbuffers::StructDef"* %153, i64 0, i32 2
  %160 = load i8, i8* %159, align 8, !range !2
  %161 = icmp eq i8 %160, 0
  br i1 %161, label %168, label %162

162:                                              ; preds = %158
  %163 = getelementptr inbounds %"struct.flatbuffers::StructDef", %"struct.flatbuffers::StructDef"* %153, i64 0, i32 0, i32 4
  %164 = load i8, i8* %163, align 8, !range !2
  %165 = icmp eq i8 %164, 0
  br i1 %165, label %166, label %168

166:                                              ; preds = %162
  call void @_ZN11flatbuffers4rust13RustGenerator12SetNameSpaceEPKNS_9NamespaceE(%"class.flatbuffers::rust::RustGenerator"* %0, %"struct.flatbuffers::Namespace"* %155)
  call void @_ZN11flatbuffers4rust13RustGenerator9GenStructERKNS_9StructDefE(%"class.flatbuffers::rust::RustGenerator"* %0, %"struct.flatbuffers::StructDef"* dereferenceable(232) %153)
  %167 = load %"class.flatbuffers::Parser"*, %"class.flatbuffers::Parser"** %95, align 8
  br label %168

168:                                              ; preds = %166, %158, %162, %149
  %169 = phi %"class.flatbuffers::Parser"* [ %167, %166 ], [ %150, %158 ], [ %150, %162 ], [ %150, %149 ]
  %170 = phi %"class.flatbuffers::Parser"* [ %167, %166 ], [ %151, %158 ], [ %151, %162 ], [ %151, %149 ]
  %171 = getelementptr inbounds %"struct.flatbuffers::StructDef"*, %"struct.flatbuffers::StructDef"** %152, i64 1
  %172 = getelementptr inbounds %"class.flatbuffers::Parser", %"class.flatbuffers::Parser"* %170, i64 0, i32 2, i32 1, i32 0, i32 1
  %173 = load %"struct.flatbuffers::StructDef"**, %"struct.flatbuffers::StructDef"*** %172, align 8
  %174 = icmp eq %"struct.flatbuffers::StructDef"** %171, %173
  br i1 %174, label %145, label %149

175:                                              ; preds = %200, %115, %145
  %176 = phi %"class.flatbuffers::Parser"* [ %169, %145 ], [ %116, %115 ], [ %201, %200 ]
  %177 = phi %"class.flatbuffers::Parser"* [ %170, %145 ], [ %117, %115 ], [ %202, %200 ]
  %178 = getelementptr inbounds %"class.flatbuffers::Parser", %"class.flatbuffers::Parser"* %177, i64 0, i32 12
  %179 = load %"struct.flatbuffers::StructDef"*, %"struct.flatbuffers::StructDef"** %178, align 8
  %180 = icmp eq %"struct.flatbuffers::StructDef"* %179, null
  br i1 %180, label %214, label %207

181:                                              ; preds = %145, %200
  %182 = phi %"class.flatbuffers::Parser"* [ %201, %200 ], [ %169, %145 ]
  %183 = phi %"class.flatbuffers::Parser"* [ %202, %200 ], [ %170, %145 ]
  %184 = phi %"struct.flatbuffers::StructDef"** [ %203, %200 ], [ %147, %145 ]
  %185 = load %"struct.flatbuffers::StructDef"*, %"struct.flatbuffers::StructDef"** %184, align 8
  %186 = getelementptr inbounds %"struct.flatbuffers::StructDef", %"struct.flatbuffers::StructDef"* %185, i64 0, i32 0, i32 6
  %187 = load %"struct.flatbuffers::Namespace"*, %"struct.flatbuffers::Namespace"** %186, align 8
  %188 = load %"struct.flatbuffers::Namespace"*, %"struct.flatbuffers::Namespace"** %109, align 8
  %189 = icmp eq %"struct.flatbuffers::Namespace"* %187, %188
  br i1 %189, label %190, label %200

190:                                              ; preds = %181
  %191 = getelementptr inbounds %"struct.flatbuffers::StructDef", %"struct.flatbuffers::StructDef"* %185, i64 0, i32 2
  %192 = load i8, i8* %191, align 8, !range !2
  %193 = icmp eq i8 %192, 0
  br i1 %193, label %194, label %200

194:                                              ; preds = %190
  %195 = getelementptr inbounds %"struct.flatbuffers::StructDef", %"struct.flatbuffers::StructDef"* %185, i64 0, i32 0, i32 4
  %196 = load i8, i8* %195, align 8, !range !2
  %197 = icmp eq i8 %196, 0
  br i1 %197, label %198, label %200

198:                                              ; preds = %194
  call void @_ZN11flatbuffers4rust13RustGenerator12SetNameSpaceEPKNS_9NamespaceE(%"class.flatbuffers::rust::RustGenerator"* %0, %"struct.flatbuffers::Namespace"* %187)
  call void @_ZN11flatbuffers4rust13RustGenerator8GenTableERKNS_9StructDefE(%"class.flatbuffers::rust::RustGenerator"* %0, %"struct.flatbuffers::StructDef"* dereferenceable(232) %185)
  %199 = load %"class.flatbuffers::Parser"*, %"class.flatbuffers::Parser"** %95, align 8
  br label %200

200:                                              ; preds = %198, %190, %194, %181
  %201 = phi %"class.flatbuffers::Parser"* [ %199, %198 ], [ %182, %190 ], [ %182, %194 ], [ %182, %181 ]
  %202 = phi %"class.flatbuffers::Parser"* [ %199, %198 ], [ %183, %190 ], [ %183, %194 ], [ %183, %181 ]
  %203 = getelementptr inbounds %"struct.flatbuffers::StructDef"*, %"struct.flatbuffers::StructDef"** %184, i64 1
  %204 = getelementptr inbounds %"class.flatbuffers::Parser", %"class.flatbuffers::Parser"* %202, i64 0, i32 2, i32 1, i32 0, i32 1
  %205 = load %"struct.flatbuffers::StructDef"**, %"struct.flatbuffers::StructDef"*** %204, align 8
  %206 = icmp eq %"struct.flatbuffers::StructDef"** %203, %205
  br i1 %206, label %175, label %181

207:                                              ; preds = %175
  %208 = getelementptr inbounds %"struct.flatbuffers::StructDef", %"struct.flatbuffers::StructDef"* %179, i64 0, i32 0, i32 6
  %209 = load %"struct.flatbuffers::Namespace"*, %"struct.flatbuffers::Namespace"** %208, align 8
  %210 = load %"struct.flatbuffers::Namespace"*, %"struct.flatbuffers::Namespace"** %109, align 8
  %211 = icmp eq %"struct.flatbuffers::Namespace"* %209, %210
  br i1 %211, label %212, label %214

212:                                              ; preds = %207
  call void @_ZN11flatbuffers4rust13RustGenerator12SetNameSpaceEPKNS_9NamespaceE(%"class.flatbuffers::rust::RustGenerator"* %0, %"struct.flatbuffers::Namespace"* %209)
  call void @_ZN11flatbuffers4rust13RustGenerator17GenRootTableFuncsERKNS_9StructDefE(%"class.flatbuffers::rust::RustGenerator"* %0, %"struct.flatbuffers::StructDef"* nonnull dereferenceable(232) %179)
  %213 = load %"class.flatbuffers::Parser"*, %"class.flatbuffers::Parser"** %95, align 8
  br label %214

214:                                              ; preds = %175, %212, %207
  %215 = phi %"class.flatbuffers::Parser"* [ %176, %175 ], [ %213, %212 ], [ %176, %207 ]
  %216 = getelementptr inbounds %"struct.flatbuffers::Namespace"*, %"struct.flatbuffers::Namespace"** %109, i64 1
  %217 = getelementptr inbounds %"class.flatbuffers::Parser", %"class.flatbuffers::Parser"* %215, i64 0, i32 5, i32 0, i32 1
  %218 = load %"struct.flatbuffers::Namespace"**, %"struct.flatbuffers::Namespace"*** %217, align 8
  %219 = icmp eq %"struct.flatbuffers::Namespace"** %216, %218
  br i1 %219, label %102, label %107

220:                                              ; preds = %102
  call void @_ZN11flatbuffers4rust13RustGenerator12SetNameSpaceEPKNS_9NamespaceE(%"class.flatbuffers::rust::RustGenerator"* %0, %"struct.flatbuffers::Namespace"* null)
  %221 = load %"class.flatbuffers::Parser"*, %"class.flatbuffers::Parser"** %95, align 8
  br label %222

222:                                              ; preds = %102, %220
  %223 = phi %"class.flatbuffers::Parser"* [ %103, %102 ], [ %221, %220 ]
  %224 = bitcast %"class.std::__1::basic_string"* %7 to i8*
  call void @llvm.lifetime.start.p0i8(i64 24, i8* nonnull %224) #14
  %225 = getelementptr inbounds %"class.std::__1::basic_string", %"class.std::__1::basic_string"* %7, i64 0, i32 0, i32 0, i32 0, i32 0, i32 0, i32 0
  %226 = getelementptr inbounds %"class.flatbuffers::rust::RustGenerator", %"class.flatbuffers::rust::RustGenerator"* %0, i64 0, i32 0, i32 2
  %227 = bitcast %"class.std::__1::basic_string"* %7 to i8*
  call void @llvm.memset.p0i8.i64(i8* nonnull align 8 %227, i8 -86, i64 24, i1 false)
  %228 = load %"class.std::__1::basic_string"*, %"class.std::__1::basic_string"** %226, align 8
  %229 = getelementptr inbounds %"class.flatbuffers::rust::RustGenerator", %"class.flatbuffers::rust::RustGenerator"* %0, i64 0, i32 0, i32 3
  %230 = load %"class.std::__1::basic_string"*, %"class.std::__1::basic_string"** %229, align 8
  %231 = getelementptr inbounds %"class.flatbuffers::Parser", %"class.flatbuffers::Parser"* %223, i64 0, i32 19
  call void @_ZNK11flatbuffers13BaseGenerator17GeneratedFileNameERKNSt3__112basic_stringIcNS1_11char_traitsIcEENS1_9allocatorIcEEEES9_RKNS_10IDLOptionsE(%"class.std::__1::basic_string"* nonnull sret %7, %"class.flatbuffers::BaseGenerator"* %94, %"class.std::__1::basic_string"* dereferenceable(24) %228, %"class.std::__1::basic_string"* dereferenceable(24) %230, %"struct.flatbuffers::IDLOptions"* dereferenceable(408) %231) #14
  %232 = bitcast %"class.std::__1::basic_string"* %8 to i8*
  call void @llvm.lifetime.start.p0i8(i64 24, i8* nonnull %232) #14
  %233 = getelementptr inbounds %"class.std::__1::basic_string", %"class.std::__1::basic_string"* %8, i64 0, i32 0, i32 0, i32 0, i32 0, i32 0, i32 0
  %234 = getelementptr inbounds %"class.std::__1::basic_string", %"class.std::__1::basic_string"* %8, i64 0, i32 0, i32 0, i32 0, i32 0, i32 0, i32 1
  %235 = bitcast %"class.std::__1::basic_string"* %8 to i8*
  call void @llvm.memset.p0i8.i64(i8* nonnull align 8 %235, i8 -86, i64 24, i1 false)
  call void @_ZNKSt3__115basic_stringbufIcNS_11char_traitsIcEENS_9allocatorIcEEE3strEv(%"class.std::__1::basic_string"* nonnull sret %8, %"class.std::__1::basic_stringbuf"* %14) #14
  %236 = bitcast %"class.std::__1::basic_string"* %7 to %"struct.std::__1::basic_string<char, std::__1::char_traits<char>, std::__1::allocator<char> >::__short"*
  %237 = getelementptr inbounds %"struct.std::__1::basic_string<char, std::__1::char_traits<char>, std::__1::allocator<char> >::__short", %"struct.std::__1::basic_string<char, std::__1::char_traits<char>, std::__1::allocator<char> >::__short"* %236, i64 0, i32 1, i32 0
  %238 = load i8, i8* %237, align 1
  %239 = icmp slt i8 %238, 0
  %240 = load i8*, i8** %225, align 8
  %241 = select i1 %239, i8* %240, i8* %224
  %242 = bitcast %"class.std::__1::basic_string"* %8 to %"struct.std::__1::basic_string<char, std::__1::char_traits<char>, std::__1::allocator<char> >::__short"*
  %243 = getelementptr inbounds %"struct.std::__1::basic_string<char, std::__1::char_traits<char>, std::__1::allocator<char> >::__short", %"struct.std::__1::basic_string<char, std::__1::char_traits<char>, std::__1::allocator<char> >::__short"* %242, i64 0, i32 1, i32 0
  %244 = load i8, i8* %243, align 1
  %245 = icmp slt i8 %244, 0
  %246 = load i8*, i8** %233, align 8
  %247 = load i64, i64* %234, align 8
  %248 = zext i8 %244 to i64
  %249 = select i1 %245, i8* %246, i8* %232
  %250 = select i1 %245, i64 %247, i64 %248
  %251 = call zeroext i1 @_ZN11flatbuffers8SaveFileEPKcS1_mb(i8* %241, i8* %249, i64 %250, i1 zeroext false) #14
  %252 = load i8, i8* %243, align 1
  %253 = icmp slt i8 %252, 0
  br i1 %253, label %254, label %256

254:                                              ; preds = %222
  %255 = load i8*, i8** %233, align 8
  call void @_ZdlPv(i8* %255) #16
  br label %256

256:                                              ; preds = %222, %254
  call void @llvm.lifetime.end.p0i8(i64 24, i8* nonnull %232) #14
  %257 = load i8, i8* %237, align 1
  %258 = icmp slt i8 %257, 0
  br i1 %258, label %259, label %261

259:                                              ; preds = %256
  %260 = load i8*, i8** %225, align 8
  call void @_ZdlPv(i8* %260) #16
  br label %261

261:                                              ; preds = %256, %259
  call void @llvm.lifetime.end.p0i8(i64 24, i8* nonnull %224) #14
  ret i1 %251
}

; Function Attrs: inlinehint nounwind ssp uwtable
define linkonce_odr hidden void @_ZN11flatbuffers4rust13RustGeneratorD2Ev(%"class.flatbuffers::rust::RustGenerator"*) unnamed_addr #4 comdat align 2 {
  %2 = getelementptr inbounds %"class.flatbuffers::rust::RustGenerator", %"class.flatbuffers::rust::RustGenerator"* %0, i64 0, i32 0, i32 0
  store i32 (...)** bitcast (i8** getelementptr inbounds ({ [6 x i8*] }, { [6 x i8*] }* @_ZTVN11flatbuffers4rust13RustGeneratorE, i64 0, inrange i32 0, i64 2) to i32 (...)**), i32 (...)*** %2, align 8
  %3 = getelementptr inbounds %"class.flatbuffers::rust::RustGenerator", %"class.flatbuffers::rust::RustGenerator"* %0, i64 0, i32 2, i32 0
  %4 = getelementptr inbounds %"class.flatbuffers::rust::RustGenerator", %"class.flatbuffers::rust::RustGenerator"* %0, i64 0, i32 2, i32 0, i32 1, i32 0, i32 0
  %5 = bitcast %"class.std::__1::__tree_end_node"* %4 to %"class.std::__1::__tree_node"**
  %6 = load %"class.std::__1::__tree_node"*, %"class.std::__1::__tree_node"** %5, align 8
  tail call void @_ZNSt3__16__treeINS_12basic_stringIcNS_11char_traitsIcEENS_9allocatorIcEEEENS_4lessIS6_EENS4_IS6_EEE7destroyEPNS_11__tree_nodeIS6_PvEE(%"class.std::__1::__tree.222"* %3, %"class.std::__1::__tree_node"* %6) #14
  %7 = getelementptr inbounds %"class.flatbuffers::rust::RustGenerator", %"class.flatbuffers::rust::RustGenerator"* %0, i64 0, i32 1, i32 2
  %8 = bitcast %"class.std::__1::basic_string"* %7 to %"struct.std::__1::basic_string<char, std::__1::char_traits<char>, std::__1::allocator<char> >::__short"*
  %9 = getelementptr inbounds %"struct.std::__1::basic_string<char, std::__1::char_traits<char>, std::__1::allocator<char> >::__short", %"struct.std::__1::basic_string<char, std::__1::char_traits<char>, std::__1::allocator<char> >::__short"* %8, i64 0, i32 1, i32 0
  %10 = load i8, i8* %9, align 1
  %11 = icmp slt i8 %10, 0
  br i1 %11, label %12, label %15

12:                                               ; preds = %1
  %13 = getelementptr inbounds %"class.std::__1::basic_string", %"class.std::__1::basic_string"* %7, i64 0, i32 0, i32 0, i32 0, i32 0, i32 0, i32 0
  %14 = load i8*, i8** %13, align 8
  tail call void @_ZdlPv(i8* %14) #16
  br label %15

15:                                               ; preds = %12, %1
  %16 = getelementptr inbounds %"class.flatbuffers::rust::RustGenerator", %"class.flatbuffers::rust::RustGenerator"* %0, i64 0, i32 1, i32 1
  %17 = load i64, i64* bitcast ([10 x i8*]* @_ZTTNSt3__118basic_stringstreamIcNS_11char_traitsIcEENS_9allocatorIcEEEE to i64*), align 8
  %18 = bitcast %"class.std::__1::basic_stringstream"* %16 to i64*
  store i64 %17, i64* %18, align 8
  %19 = load i64, i64* bitcast (i8** getelementptr inbounds ([10 x i8*], [10 x i8*]* @_ZTTNSt3__118basic_stringstreamIcNS_11char_traitsIcEENS_9allocatorIcEEEE, i64 0, i64 8) to i64*), align 8
  %20 = inttoptr i64 %17 to i8*
  %21 = getelementptr i8, i8* %20, i64 -24
  %22 = bitcast i8* %21 to i64*
  %23 = load i64, i64* %22, align 8
  %24 = bitcast %"class.std::__1::basic_stringstream"* %16 to i8*
  %25 = getelementptr inbounds i8, i8* %24, i64 %23
  %26 = bitcast i8* %25 to i64*
  store i64 %19, i64* %26, align 8
  %27 = load i64, i64* bitcast (i8** getelementptr inbounds ([10 x i8*], [10 x i8*]* @_ZTTNSt3__118basic_stringstreamIcNS_11char_traitsIcEENS_9allocatorIcEEEE, i64 0, i64 9) to i64*), align 8
  %28 = getelementptr inbounds %"class.flatbuffers::rust::RustGenerator", %"class.flatbuffers::rust::RustGenerator"* %0, i64 0, i32 1, i32 1, i32 0, i32 1
  %29 = bitcast %"class.std::__1::basic_ostream.base"* %28 to i64*
  store i64 %27, i64* %29, align 8
  %30 = getelementptr inbounds %"class.flatbuffers::rust::RustGenerator", %"class.flatbuffers::rust::RustGenerator"* %0, i64 0, i32 1, i32 1, i32 1
  %31 = getelementptr inbounds %"class.std::__1::basic_stringbuf", %"class.std::__1::basic_stringbuf"* %30, i64 0, i32 0, i32 0
  store i32 (...)** bitcast (i8** getelementptr inbounds ({ [16 x i8*] }, { [16 x i8*] }* @_ZTVNSt3__115basic_stringbufIcNS_11char_traitsIcEENS_9allocatorIcEEEE, i64 0, inrange i32 0, i64 2) to i32 (...)**), i32 (...)*** %31, align 8
  %32 = getelementptr inbounds %"class.flatbuffers::rust::RustGenerator", %"class.flatbuffers::rust::RustGenerator"* %0, i64 0, i32 1, i32 1, i32 1, i32 1
  %33 = bitcast %"class.std::__1::basic_string"* %32 to %"struct.std::__1::basic_string<char, std::__1::char_traits<char>, std::__1::allocator<char> >::__short"*
  %34 = getelementptr inbounds %"struct.std::__1::basic_string<char, std::__1::char_traits<char>, std::__1::allocator<char> >::__short", %"struct.std::__1::basic_string<char, std::__1::char_traits<char>, std::__1::allocator<char> >::__short"* %33, i64 0, i32 1, i32 0
  %35 = load i8, i8* %34, align 1
  %36 = icmp slt i8 %35, 0
  br i1 %36, label %37, label %40

37:                                               ; preds = %15
  %38 = getelementptr inbounds %"class.std::__1::basic_string", %"class.std::__1::basic_string"* %32, i64 0, i32 0, i32 0, i32 0, i32 0, i32 0, i32 0
  %39 = load i8*, i8** %38, align 8
  tail call void @_ZdlPv(i8* %39) #16
  br label %40

40:                                               ; preds = %15, %37
  %41 = getelementptr inbounds %"class.std::__1::basic_stringbuf", %"class.std::__1::basic_stringbuf"* %30, i64 0, i32 0
  tail call void @_ZNSt3__115basic_streambufIcNS_11char_traitsIcEEED2Ev(%"class.std::__1::basic_streambuf"* %41) #14
  %42 = bitcast %"class.std::__1::basic_stringstream"* %16 to %"class.std::__1::basic_iostream"*
  tail call void @_ZNSt3__114basic_iostreamIcNS_11char_traitsIcEEED2Ev(%"class.std::__1::basic_iostream"* %42, i8** getelementptr inbounds ([10 x i8*], [10 x i8*]* @_ZTTNSt3__118basic_stringstreamIcNS_11char_traitsIcEENS_9allocatorIcEEEE, i64 0, i64 1)) #14
  %43 = getelementptr inbounds %"class.flatbuffers::rust::RustGenerator", %"class.flatbuffers::rust::RustGenerator"* %0, i64 0, i32 1, i32 1, i32 2
  %44 = bitcast %"class.std::__1::basic_ios.base"* %43 to %"class.std::__1::basic_ios"*
  tail call void @_ZNSt3__19basic_iosIcNS_11char_traitsIcEEED2Ev(%"class.std::__1::basic_ios"* %44) #14
  %45 = getelementptr inbounds %"class.flatbuffers::rust::RustGenerator", %"class.flatbuffers::rust::RustGenerator"* %0, i64 0, i32 1, i32 0, i32 0
  %46 = getelementptr inbounds %"class.flatbuffers::rust::RustGenerator", %"class.flatbuffers::rust::RustGenerator"* %0, i64 0, i32 1, i32 0, i32 0, i32 1, i32 0, i32 0
  %47 = bitcast %"class.std::__1::__tree_end_node"* %46 to %"class.std::__1::__tree_node.240"**
  %48 = load %"class.std::__1::__tree_node.240"*, %"class.std::__1::__tree_node.240"** %47, align 8
  tail call void @_ZNSt3__16__treeINS_12__value_typeINS_12basic_stringIcNS_11char_traitsIcEENS_9allocatorIcEEEES7_EENS_19__map_value_compareIS7_S8_NS_4lessIS7_EELb1EEENS5_IS8_EEE7destroyEPNS_11__tree_nodeIS8_PvEE(%"class.std::__1::__tree.188"* %45, %"class.std::__1::__tree_node.240"* %48) #14
  store i32 (...)** bitcast (i8** getelementptr inbounds ({ [6 x i8*] }, { [6 x i8*] }* @_ZTVN11flatbuffers13BaseGeneratorE, i64 0, inrange i32 0, i64 2) to i32 (...)**), i32 (...)*** %2, align 8
  %49 = getelementptr inbounds %"class.flatbuffers::rust::RustGenerator", %"class.flatbuffers::rust::RustGenerator"* %0, i64 0, i32 0, i32 6
  %50 = bitcast %"class.std::__1::basic_string"* %49 to %"struct.std::__1::basic_string<char, std::__1::char_traits<char>, std::__1::allocator<char> >::__short"*
  %51 = getelementptr inbounds %"struct.std::__1::basic_string<char, std::__1::char_traits<char>, std::__1::allocator<char> >::__short", %"struct.std::__1::basic_string<char, std::__1::char_traits<char>, std::__1::allocator<char> >::__short"* %50, i64 0, i32 1, i32 0
  %52 = load i8, i8* %51, align 1
  %53 = icmp slt i8 %52, 0
  br i1 %53, label %54, label %57

54:                                               ; preds = %40
  %55 = getelementptr inbounds %"class.std::__1::basic_string", %"class.std::__1::basic_string"* %49, i64 0, i32 0, i32 0, i32 0, i32 0, i32 0, i32 0
  %56 = load i8*, i8** %55, align 8
  tail call void @_ZdlPv(i8* %56) #16
  br label %57

57:                                               ; preds = %54, %40
  %58 = getelementptr inbounds %"class.flatbuffers::rust::RustGenerator", %"class.flatbuffers::rust::RustGenerator"* %0, i64 0, i32 0, i32 5
  %59 = bitcast %"class.std::__1::basic_string"* %58 to %"struct.std::__1::basic_string<char, std::__1::char_traits<char>, std::__1::allocator<char> >::__short"*
  %60 = getelementptr inbounds %"struct.std::__1::basic_string<char, std::__1::char_traits<char>, std::__1::allocator<char> >::__short", %"struct.std::__1::basic_string<char, std::__1::char_traits<char>, std::__1::allocator<char> >::__short"* %59, i64 0, i32 1, i32 0
  %61 = load i8, i8* %60, align 1
  %62 = icmp slt i8 %61, 0
  br i1 %62, label %63, label %66

63:                                               ; preds = %57
  %64 = getelementptr inbounds %"class.std::__1::basic_string", %"class.std::__1::basic_string"* %58, i64 0, i32 0, i32 0, i32 0, i32 0, i32 0, i32 0
  %65 = load i8*, i8** %64, align 8
  tail call void @_ZdlPv(i8* %65) #16
  br label %66

66:                                               ; preds = %63, %57
  %67 = getelementptr inbounds %"class.flatbuffers::rust::RustGenerator", %"class.flatbuffers::rust::RustGenerator"* %0, i64 0, i32 0, i32 4
  %68 = bitcast %"class.std::__1::basic_string"* %67 to %"struct.std::__1::basic_string<char, std::__1::char_traits<char>, std::__1::allocator<char> >::__short"*
  %69 = getelementptr inbounds %"struct.std::__1::basic_string<char, std::__1::char_traits<char>, std::__1::allocator<char> >::__short", %"struct.std::__1::basic_string<char, std::__1::char_traits<char>, std::__1::allocator<char> >::__short"* %68, i64 0, i32 1, i32 0
  %70 = load i8, i8* %69, align 1
  %71 = icmp slt i8 %70, 0
  br i1 %71, label %72, label %75

72:                                               ; preds = %66
  %73 = getelementptr inbounds %"class.std::__1::basic_string", %"class.std::__1::basic_string"* %67, i64 0, i32 0, i32 0, i32 0, i32 0, i32 0, i32 0
  %74 = load i8*, i8** %73, align 8
  tail call void @_ZdlPv(i8* %74) #16
  br label %75

75:                                               ; preds = %66, %72
  ret void
}

; Function Attrs: nounwind ssp uwtable
define hidden void @_ZN11flatbuffers12RustMakeRuleERKNS_6ParserERKNSt3__112basic_stringIcNS3_11char_traitsIcEENS3_9allocatorIcEEEESB_(%"class.std::__1::basic_string"* noalias sret, %"class.flatbuffers::Parser"* dereferenceable(1208), %"class.std::__1::basic_string"* dereferenceable(24), %"class.std::__1::basic_string"* dereferenceable(24)) local_unnamed_addr #0 {
  %5 = alloca %"class.std::__1::basic_string", align 8
  %6 = alloca %"class.std::__1::basic_string", align 8
  %7 = alloca %"class.flatbuffers::rust::RustGenerator", align 8
  %8 = alloca %"class.std::__1::basic_string", align 8
  %9 = alloca %"class.std::__1::set.221", align 8
  %10 = alloca %"class.std::__1::basic_string", align 8
  %11 = bitcast %"class.std::__1::basic_string"* %5 to i8*
  call void @llvm.lifetime.start.p0i8(i64 24, i8* nonnull %11) #14
  %12 = getelementptr inbounds %"class.std::__1::basic_string", %"class.std::__1::basic_string"* %5, i64 0, i32 0, i32 0, i32 0, i32 0, i32 0, i32 0
  %13 = bitcast %"class.std::__1::basic_string"* %6 to i8*
  %14 = bitcast %"class.std::__1::basic_string"* %5 to i8*
  call void @llvm.memset.p0i8.i64(i8* nonnull align 8 %14, i8 -86, i64 24, i1 false)
  call void @llvm.lifetime.start.p0i8(i64 24, i8* nonnull %13) #14
  call void @_ZN11flatbuffers14StripExtensionERKNSt3__112basic_stringIcNS0_11char_traitsIcEENS0_9allocatorIcEEEE(%"class.std::__1::basic_string"* nonnull sret %6, %"class.std::__1::basic_string"* dereferenceable(24) %3) #14
  call void @_ZN11flatbuffers9StripPathERKNSt3__112basic_stringIcNS0_11char_traitsIcEENS0_9allocatorIcEEEE(%"class.std::__1::basic_string"* nonnull sret %5, %"class.std::__1::basic_string"* nonnull dereferenceable(24) %6) #14
  %15 = bitcast %"class.std::__1::basic_string"* %6 to %"struct.std::__1::basic_string<char, std::__1::char_traits<char>, std::__1::allocator<char> >::__short"*
  %16 = getelementptr inbounds %"struct.std::__1::basic_string<char, std::__1::char_traits<char>, std::__1::allocator<char> >::__short", %"struct.std::__1::basic_string<char, std::__1::char_traits<char>, std::__1::allocator<char> >::__short"* %15, i64 0, i32 1, i32 0
  %17 = load i8, i8* %16, align 1
  %18 = icmp slt i8 %17, 0
  br i1 %18, label %19, label %22

19:                                               ; preds = %4
  %20 = getelementptr inbounds %"class.std::__1::basic_string", %"class.std::__1::basic_string"* %6, i64 0, i32 0, i32 0, i32 0, i32 0, i32 0, i32 0
  %21 = load i8*, i8** %20, align 8
  call void @_ZdlPv(i8* %21) #16
  br label %22

22:                                               ; preds = %4, %19
  call void @llvm.lifetime.end.p0i8(i64 24, i8* nonnull %13) #14
  %23 = bitcast %"class.flatbuffers::rust::RustGenerator"* %7 to i8*
  call void @llvm.lifetime.start.p0i8(i64 472, i8* nonnull %23) #14
  call void @llvm.memset.p0i8.i64(i8* nonnull align 8 %23, i8 -86, i64 472, i1 false)
  call void @_ZN11flatbuffers4rust13RustGeneratorC2ERKNS_6ParserERKNSt3__112basic_stringIcNS5_11char_traitsIcEENS5_9allocatorIcEEEESD_(%"class.flatbuffers::rust::RustGenerator"* nonnull %7, %"class.flatbuffers::Parser"* dereferenceable(1208) %1, %"class.std::__1::basic_string"* dereferenceable(24) %2, %"class.std::__1::basic_string"* dereferenceable(24) %3)
  %24 = bitcast %"class.std::__1::basic_string"* %8 to i8*
  %25 = bitcast %"class.std::__1::basic_string"* %0 to i8*
  call void @llvm.memset.p0i8.i64(i8* align 8 %25, i8 -86, i64 24, i1 false)
  call void @llvm.lifetime.start.p0i8(i64 24, i8* nonnull %24) #14
  %26 = getelementptr inbounds %"class.flatbuffers::rust::RustGenerator", %"class.flatbuffers::rust::RustGenerator"* %7, i64 0, i32 0
  %27 = getelementptr inbounds %"class.flatbuffers::Parser", %"class.flatbuffers::Parser"* %1, i64 0, i32 19
  call void @_ZNK11flatbuffers13BaseGenerator17GeneratedFileNameERKNSt3__112basic_stringIcNS1_11char_traitsIcEENS1_9allocatorIcEEEES9_RKNS_10IDLOptionsE(%"class.std::__1::basic_string"* nonnull sret %8, %"class.flatbuffers::BaseGenerator"* nonnull %26, %"class.std::__1::basic_string"* dereferenceable(24) %2, %"class.std::__1::basic_string"* nonnull dereferenceable(24) %5, %"struct.flatbuffers::IDLOptions"* dereferenceable(408) %27) #14
  %28 = call dereferenceable(24) %"class.std::__1::basic_string"* @_ZNSt3__112basic_stringIcNS_11char_traitsIcEENS_9allocatorIcEEE6appendEPKc(%"class.std::__1::basic_string"* nonnull %8, i8* getelementptr inbounds ([3 x i8], [3 x i8]* @.str.4, i64 0, i64 0)) #14, !noalias !21
  %29 = bitcast %"class.std::__1::basic_string"* %0 to i8*
  %30 = bitcast %"class.std::__1::basic_string"* %28 to i8*
  call void @llvm.memcpy.p0i8.p0i8.i64(i8* align 8 %29, i8* align 8 %30, i64 24, i1 false) #14
  call void @llvm.memset.p0i8.i64(i8* align 8 %30, i8 0, i64 24, i1 false) #14, !noalias !21
  %31 = bitcast %"class.std::__1::basic_string"* %8 to %"struct.std::__1::basic_string<char, std::__1::char_traits<char>, std::__1::allocator<char> >::__short"*
  %32 = getelementptr inbounds %"struct.std::__1::basic_string<char, std::__1::char_traits<char>, std::__1::allocator<char> >::__short", %"struct.std::__1::basic_string<char, std::__1::char_traits<char>, std::__1::allocator<char> >::__short"* %31, i64 0, i32 1, i32 0
  %33 = load i8, i8* %32, align 1
  %34 = icmp slt i8 %33, 0
  br i1 %34, label %35, label %38

35:                                               ; preds = %22
  %36 = getelementptr inbounds %"class.std::__1::basic_string", %"class.std::__1::basic_string"* %8, i64 0, i32 0, i32 0, i32 0, i32 0, i32 0, i32 0
  %37 = load i8*, i8** %36, align 8
  call void @_ZdlPv(i8* %37) #16
  br label %38

38:                                               ; preds = %22, %35
  call void @llvm.lifetime.end.p0i8(i64 24, i8* nonnull %24) #14
  %39 = bitcast %"class.std::__1::set.221"* %9 to i8*
  call void @llvm.lifetime.start.p0i8(i64 24, i8* nonnull %39) #14
  %40 = getelementptr inbounds %"class.std::__1::set.221", %"class.std::__1::set.221"* %9, i64 0, i32 0, i32 0
  %41 = bitcast %"class.std::__1::set.221"* %9 to i8*
  call void @llvm.memset.p0i8.i64(i8* nonnull align 8 %41, i8 -86, i64 24, i1 false)
  call void @_ZNK11flatbuffers6Parser25GetIncludedFilesRecursiveERKNSt3__112basic_stringIcNS1_11char_traitsIcEENS1_9allocatorIcEEEE(%"class.std::__1::set.221"* nonnull sret %9, %"class.flatbuffers::Parser"* %1, %"class.std::__1::basic_string"* dereferenceable(24) %3) #14
  %42 = load %"class.std::__1::__tree_end_node"*, %"class.std::__1::__tree_end_node"** %40, align 8
  %43 = getelementptr inbounds %"class.std::__1::set.221", %"class.std::__1::set.221"* %9, i64 0, i32 0, i32 1, i32 0, i32 0
  %44 = icmp eq %"class.std::__1::__tree_end_node"* %42, %43
  br i1 %44, label %51, label %45

45:                                               ; preds = %38
  %46 = bitcast %"class.std::__1::basic_string"* %10 to i8*
  %47 = bitcast %"class.std::__1::basic_string"* %10 to %"struct.std::__1::basic_string<char, std::__1::char_traits<char>, std::__1::allocator<char> >::__short"*
  %48 = getelementptr inbounds %"struct.std::__1::basic_string<char, std::__1::char_traits<char>, std::__1::allocator<char> >::__short", %"struct.std::__1::basic_string<char, std::__1::char_traits<char>, std::__1::allocator<char> >::__short"* %47, i64 0, i32 1, i32 0
  %49 = getelementptr inbounds %"class.std::__1::basic_string", %"class.std::__1::basic_string"* %10, i64 0, i32 0, i32 0, i32 0, i32 0, i32 0, i32 0
  %50 = getelementptr inbounds %"class.std::__1::basic_string", %"class.std::__1::basic_string"* %10, i64 0, i32 0, i32 0, i32 0, i32 0, i32 0, i32 1
  br label %62

51:                                               ; preds = %106, %38
  %52 = getelementptr inbounds %"class.std::__1::set.221", %"class.std::__1::set.221"* %9, i64 0, i32 0
  %53 = bitcast %"class.std::__1::__tree_end_node"* %43 to %"class.std::__1::__tree_node"**
  %54 = load %"class.std::__1::__tree_node"*, %"class.std::__1::__tree_node"** %53, align 8
  call void @_ZNSt3__16__treeINS_12basic_stringIcNS_11char_traitsIcEENS_9allocatorIcEEEENS_4lessIS6_EENS4_IS6_EEE7destroyEPNS_11__tree_nodeIS6_PvEE(%"class.std::__1::__tree.222"* nonnull %52, %"class.std::__1::__tree_node"* %54) #14
  call void @llvm.lifetime.end.p0i8(i64 24, i8* nonnull %39) #14
  call void @_ZN11flatbuffers4rust13RustGeneratorD2Ev(%"class.flatbuffers::rust::RustGenerator"* nonnull %7) #14
  call void @llvm.lifetime.end.p0i8(i64 472, i8* nonnull %23) #14
  %55 = bitcast %"class.std::__1::basic_string"* %5 to %"struct.std::__1::basic_string<char, std::__1::char_traits<char>, std::__1::allocator<char> >::__short"*
  %56 = getelementptr inbounds %"struct.std::__1::basic_string<char, std::__1::char_traits<char>, std::__1::allocator<char> >::__short", %"struct.std::__1::basic_string<char, std::__1::char_traits<char>, std::__1::allocator<char> >::__short"* %55, i64 0, i32 1, i32 0
  %57 = load i8, i8* %56, align 1
  %58 = icmp slt i8 %57, 0
  br i1 %58, label %59, label %61

59:                                               ; preds = %51
  %60 = load i8*, i8** %12, align 8
  call void @_ZdlPv(i8* %60) #16
  br label %61

61:                                               ; preds = %51, %59
  call void @llvm.lifetime.end.p0i8(i64 24, i8* nonnull %11) #14
  ret void

62:                                               ; preds = %45, %106
  %63 = phi %"class.std::__1::__tree_end_node"* [ %42, %45 ], [ %107, %106 ]
  call void @llvm.lifetime.start.p0i8(i64 24, i8* nonnull %46) #14
  %64 = getelementptr inbounds %"class.std::__1::__tree_end_node", %"class.std::__1::__tree_end_node"* %63, i64 4
  %65 = bitcast %"class.std::__1::__tree_end_node"* %64 to %"class.std::__1::basic_string"*
  call void @_ZNSt3__1plIcNS_11char_traitsIcEENS_9allocatorIcEEEENS_12basic_stringIT_T0_T1_EEPKS6_RKS9_(%"class.std::__1::basic_string"* nonnull sret %10, i8* getelementptr inbounds ([2 x i8], [2 x i8]* @.str.5, i64 0, i64 0), %"class.std::__1::basic_string"* dereferenceable(24) %65) #14
  %66 = load i8, i8* %48, align 1
  %67 = icmp slt i8 %66, 0
  %68 = load i8*, i8** %49, align 8
  %69 = load i64, i64* %50, align 8
  %70 = zext i8 %66 to i64
  %71 = select i1 %67, i8* %68, i8* %46
  %72 = select i1 %67, i64 %69, i64 %70
  %73 = call dereferenceable(24) %"class.std::__1::basic_string"* @_ZNSt3__112basic_stringIcNS_11char_traitsIcEENS_9allocatorIcEEE6appendEPKcm(%"class.std::__1::basic_string"* %0, i8* %71, i64 %72) #14
  %74 = load i8, i8* %48, align 1
  %75 = icmp slt i8 %74, 0
  br i1 %75, label %76, label %78

76:                                               ; preds = %62
  %77 = load i8*, i8** %49, align 8
  call void @_ZdlPv(i8* %77) #16
  br label %78

78:                                               ; preds = %62, %76
  call void @llvm.lifetime.end.p0i8(i64 24, i8* nonnull %46) #14
  %79 = getelementptr inbounds %"class.std::__1::__tree_end_node", %"class.std::__1::__tree_end_node"* %63, i64 1, i32 0
  %80 = load %"class.std::__1::__tree_node_base"*, %"class.std::__1::__tree_node_base"** %79, align 8
  %81 = icmp eq %"class.std::__1::__tree_node_base"* %80, null
  br i1 %81, label %82, label %90

82:                                               ; preds = %78
  %83 = bitcast %"class.std::__1::__tree_end_node"* %63 to %"class.std::__1::__tree_node_base"*
  %84 = getelementptr inbounds %"class.std::__1::__tree_end_node", %"class.std::__1::__tree_end_node"* %63, i64 2
  %85 = bitcast %"class.std::__1::__tree_end_node"* %84 to %"class.std::__1::__tree_end_node"**
  %86 = load %"class.std::__1::__tree_end_node"*, %"class.std::__1::__tree_end_node"** %85, align 8
  %87 = getelementptr inbounds %"class.std::__1::__tree_end_node", %"class.std::__1::__tree_end_node"* %86, i64 0, i32 0
  %88 = load %"class.std::__1::__tree_node_base"*, %"class.std::__1::__tree_node_base"** %87, align 8
  %89 = icmp eq %"class.std::__1::__tree_node_base"* %88, %83
  br i1 %89, label %106, label %97

90:                                               ; preds = %78, %90
  %91 = phi %"class.std::__1::__tree_node_base"* [ %93, %90 ], [ %80, %78 ]
  %92 = getelementptr inbounds %"class.std::__1::__tree_node_base", %"class.std::__1::__tree_node_base"* %91, i64 0, i32 0, i32 0
  %93 = load %"class.std::__1::__tree_node_base"*, %"class.std::__1::__tree_node_base"** %92, align 8
  %94 = icmp eq %"class.std::__1::__tree_node_base"* %93, null
  br i1 %94, label %95, label %90

95:                                               ; preds = %90
  %96 = getelementptr inbounds %"class.std::__1::__tree_node_base", %"class.std::__1::__tree_node_base"* %91, i64 0, i32 0
  br label %106

97:                                               ; preds = %82, %97
  %98 = phi %"class.std::__1::__tree_end_node"** [ %101, %97 ], [ %85, %82 ]
  %99 = bitcast %"class.std::__1::__tree_end_node"** %98 to %"class.std::__1::__tree_node_base"**
  %100 = load %"class.std::__1::__tree_node_base"*, %"class.std::__1::__tree_node_base"** %99, align 8
  %101 = getelementptr inbounds %"class.std::__1::__tree_node_base", %"class.std::__1::__tree_node_base"* %100, i64 0, i32 2
  %102 = load %"class.std::__1::__tree_end_node"*, %"class.std::__1::__tree_end_node"** %101, align 8
  %103 = getelementptr inbounds %"class.std::__1::__tree_end_node", %"class.std::__1::__tree_end_node"* %102, i64 0, i32 0
  %104 = load %"class.std::__1::__tree_node_base"*, %"class.std::__1::__tree_node_base"** %103, align 8
  %105 = icmp eq %"class.std::__1::__tree_node_base"* %104, %100
  br i1 %105, label %106, label %97

106:                                              ; preds = %97, %82, %95
  %107 = phi %"class.std::__1::__tree_end_node"* [ %96, %95 ], [ %86, %82 ], [ %102, %97 ]
  %108 = icmp eq %"class.std::__1::__tree_end_node"* %107, %43
  br i1 %108, label %51, label %62
}

declare void @_ZN11flatbuffers9StripPathERKNSt3__112basic_stringIcNS0_11char_traitsIcEENS0_9allocatorIcEEEE(%"class.std::__1::basic_string"* sret, %"class.std::__1::basic_string"* dereferenceable(24)) local_unnamed_addr #3

declare void @_ZN11flatbuffers14StripExtensionERKNSt3__112basic_stringIcNS0_11char_traitsIcEENS0_9allocatorIcEEEE(%"class.std::__1::basic_string"* sret, %"class.std::__1::basic_string"* dereferenceable(24)) local_unnamed_addr #3

declare void @_ZNK11flatbuffers13BaseGenerator17GeneratedFileNameERKNSt3__112basic_stringIcNS1_11char_traitsIcEENS1_9allocatorIcEEEES9_RKNS_10IDLOptionsE(%"class.std::__1::basic_string"* sret, %"class.flatbuffers::BaseGenerator"*, %"class.std::__1::basic_string"* dereferenceable(24), %"class.std::__1::basic_string"* dereferenceable(24), %"struct.flatbuffers::IDLOptions"* dereferenceable(408)) local_unnamed_addr #3

declare void @_ZNK11flatbuffers6Parser25GetIncludedFilesRecursiveERKNSt3__112basic_stringIcNS1_11char_traitsIcEENS1_9allocatorIcEEEE(%"class.std::__1::set.221"* sret, %"class.flatbuffers::Parser"*, %"class.std::__1::basic_string"* dereferenceable(24)) local_unnamed_addr #3

; Function Attrs: nounwind readnone
declare i32** @__ctype_tolower_loc() local_unnamed_addr #5

; Function Attrs: nounwind readnone
declare i16** @__ctype_b_loc() local_unnamed_addr #5

; Function Attrs: nounwind readnone
declare i32** @__ctype_toupper_loc() local_unnamed_addr #5

; Function Attrs: argmemonly nounwind
declare void @llvm.memcpy.p0i8.p0i8.i64(i8* nocapture writeonly, i8* nocapture readonly, i64, i1 immarg) #1

; Function Attrs: inlinehint nounwind ssp uwtable
define linkonce_odr hidden void @_ZN11flatbuffers4rust13RustGeneratorD0Ev(%"class.flatbuffers::rust::RustGenerator"*) unnamed_addr #4 comdat align 2 {
  tail call void @_ZN11flatbuffers4rust13RustGeneratorD2Ev(%"class.flatbuffers::rust::RustGenerator"* %0) #14
  %2 = bitcast %"class.flatbuffers::rust::RustGenerator"* %0 to i8*
  tail call void @_ZdlPv(i8* %2) #16
  ret void
}

; Function Attrs: nounwind ssp uwtable
define linkonce_odr hidden %"struct.flatbuffers::Namespace"* @_ZNK11flatbuffers4rust13RustGenerator16CurrentNameSpaceEv(%"class.flatbuffers::rust::RustGenerator"*) unnamed_addr #0 comdat align 2 {
  %2 = getelementptr inbounds %"class.flatbuffers::rust::RustGenerator", %"class.flatbuffers::rust::RustGenerator"* %0, i64 0, i32 3
  %3 = load %"struct.flatbuffers::Namespace"*, %"struct.flatbuffers::Namespace"** %2, align 8
  ret %"struct.flatbuffers::Namespace"* %3
}

; Function Attrs: noreturn
declare void @_ZNKSt3__121__basic_string_commonILb1EE20__throw_length_errorEv(%"class.std::__1::__basic_string_common"*) local_unnamed_addr #6

; Function Attrs: nobuiltin nofree
declare noalias nonnull i8* @_Znwm(i64) local_unnamed_addr #7

; Function Attrs: argmemonly nofree nounwind readonly
declare i64 @strlen(i8* nocapture) local_unnamed_addr #8

declare void @__cxa_pure_virtual() unnamed_addr

; Function Attrs: nounwind ssp uwtable
define linkonce_odr hidden void @_ZN11flatbuffers13BaseGeneratorD2Ev(%"class.flatbuffers::BaseGenerator"*) unnamed_addr #0 comdat align 2 {
  %2 = getelementptr inbounds %"class.flatbuffers::BaseGenerator", %"class.flatbuffers::BaseGenerator"* %0, i64 0, i32 0
  store i32 (...)** bitcast (i8** getelementptr inbounds ({ [6 x i8*] }, { [6 x i8*] }* @_ZTVN11flatbuffers13BaseGeneratorE, i64 0, inrange i32 0, i64 2) to i32 (...)**), i32 (...)*** %2, align 8
  %3 = getelementptr inbounds %"class.flatbuffers::BaseGenerator", %"class.flatbuffers::BaseGenerator"* %0, i64 0, i32 6
  %4 = bitcast %"class.std::__1::basic_string"* %3 to %"struct.std::__1::basic_string<char, std::__1::char_traits<char>, std::__1::allocator<char> >::__short"*
  %5 = getelementptr inbounds %"struct.std::__1::basic_string<char, std::__1::char_traits<char>, std::__1::allocator<char> >::__short", %"struct.std::__1::basic_string<char, std::__1::char_traits<char>, std::__1::allocator<char> >::__short"* %4, i64 0, i32 1, i32 0
  %6 = load i8, i8* %5, align 1
  %7 = icmp slt i8 %6, 0
  br i1 %7, label %8, label %11

8:                                                ; preds = %1
  %9 = getelementptr inbounds %"class.std::__1::basic_string", %"class.std::__1::basic_string"* %3, i64 0, i32 0, i32 0, i32 0, i32 0, i32 0, i32 0
  %10 = load i8*, i8** %9, align 8
  tail call void @_ZdlPv(i8* %10) #16
  br label %11

11:                                               ; preds = %1, %8
  %12 = getelementptr inbounds %"class.flatbuffers::BaseGenerator", %"class.flatbuffers::BaseGenerator"* %0, i64 0, i32 5
  %13 = bitcast %"class.std::__1::basic_string"* %12 to %"struct.std::__1::basic_string<char, std::__1::char_traits<char>, std::__1::allocator<char> >::__short"*
  %14 = getelementptr inbounds %"struct.std::__1::basic_string<char, std::__1::char_traits<char>, std::__1::allocator<char> >::__short", %"struct.std::__1::basic_string<char, std::__1::char_traits<char>, std::__1::allocator<char> >::__short"* %13, i64 0, i32 1, i32 0
  %15 = load i8, i8* %14, align 1
  %16 = icmp slt i8 %15, 0
  br i1 %16, label %17, label %20

17:                                               ; preds = %11
  %18 = getelementptr inbounds %"class.std::__1::basic_string", %"class.std::__1::basic_string"* %12, i64 0, i32 0, i32 0, i32 0, i32 0, i32 0, i32 0
  %19 = load i8*, i8** %18, align 8
  tail call void @_ZdlPv(i8* %19) #16
  br label %20

20:                                               ; preds = %11, %17
  %21 = getelementptr inbounds %"class.flatbuffers::BaseGenerator", %"class.flatbuffers::BaseGenerator"* %0, i64 0, i32 4
  %22 = bitcast %"class.std::__1::basic_string"* %21 to %"struct.std::__1::basic_string<char, std::__1::char_traits<char>, std::__1::allocator<char> >::__short"*
  %23 = getelementptr inbounds %"struct.std::__1::basic_string<char, std::__1::char_traits<char>, std::__1::allocator<char> >::__short", %"struct.std::__1::basic_string<char, std::__1::char_traits<char>, std::__1::allocator<char> >::__short"* %22, i64 0, i32 1, i32 0
  %24 = load i8, i8* %23, align 1
  %25 = icmp slt i8 %24, 0
  br i1 %25, label %26, label %29

26:                                               ; preds = %20
  %27 = getelementptr inbounds %"class.std::__1::basic_string", %"class.std::__1::basic_string"* %21, i64 0, i32 0, i32 0, i32 0, i32 0, i32 0, i32 0
  %28 = load i8*, i8** %27, align 8
  tail call void @_ZdlPv(i8* %28) #16
  br label %29

29:                                               ; preds = %20, %26
  ret void
}

; Function Attrs: nounwind ssp uwtable
define linkonce_odr hidden void @_ZN11flatbuffers13BaseGeneratorD0Ev(%"class.flatbuffers::BaseGenerator"*) unnamed_addr #0 comdat align 2 {
  tail call void @llvm.trap() #17
  unreachable
}

; Function Attrs: nounwind ssp uwtable
define linkonce_odr hidden %"struct.flatbuffers::Namespace"* @_ZNK11flatbuffers13BaseGenerator16CurrentNameSpaceEv(%"class.flatbuffers::BaseGenerator"*) unnamed_addr #0 comdat align 2 {
  ret %"struct.flatbuffers::Namespace"* null
}

declare void @_ZNSt3__112basic_stringIcNS_11char_traitsIcEENS_9allocatorIcEEE25__init_copy_ctor_externalEPKcm(%"class.std::__1::basic_string"*, i8*, i64) local_unnamed_addr #3

; Function Attrs: cold noreturn nounwind
declare void @llvm.trap() #9

declare void @_ZNSt3__18ios_base4initEPv(%"class.std::__1::ios_base"*, i8*) local_unnamed_addr #3

declare void @_ZNSt3__115basic_streambufIcNS_11char_traitsIcEEEC2Ev(%"class.std::__1::basic_streambuf"*) unnamed_addr #3

; Function Attrs: nounwind ssp uwtable
define linkonce_odr hidden dereferenceable(8) %"class.std::__1::__tree_node_base"** @_ZNSt3__16__treeINS_12basic_stringIcNS_11char_traitsIcEENS_9allocatorIcEEEENS_4lessIS6_EENS4_IS6_EEE12__find_equalIS6_EERPNS_16__tree_node_baseIPvEERPNS_15__tree_end_nodeISF_EERKT_(%"class.std::__1::__tree.222"*, %"class.std::__1::__tree_end_node"** dereferenceable(8), %"class.std::__1::basic_string"* dereferenceable(24)) local_unnamed_addr #0 comdat align 2 {
  %4 = getelementptr inbounds %"class.std::__1::__tree.222", %"class.std::__1::__tree.222"* %0, i64 0, i32 1, i32 0, i32 0
  %5 = bitcast %"class.std::__1::__tree_end_node"* %4 to %"class.std::__1::__tree_node"**
  %6 = load %"class.std::__1::__tree_node"*, %"class.std::__1::__tree_node"** %5, align 8
  %7 = icmp eq %"class.std::__1::__tree_node"* %6, null
  br i1 %7, label %79, label %8

8:                                                ; preds = %3
  %9 = getelementptr inbounds %"class.std::__1::__tree.222", %"class.std::__1::__tree.222"* %0, i64 0, i32 1, i32 0, i32 0, i32 0
  %10 = bitcast %"class.std::__1::basic_string"* %2 to %"struct.std::__1::basic_string<char, std::__1::char_traits<char>, std::__1::allocator<char> >::__short"*
  %11 = getelementptr inbounds %"struct.std::__1::basic_string<char, std::__1::char_traits<char>, std::__1::allocator<char> >::__short", %"struct.std::__1::basic_string<char, std::__1::char_traits<char>, std::__1::allocator<char> >::__short"* %10, i64 0, i32 1, i32 0
  %12 = load i8, i8* %11, align 1
  %13 = icmp slt i8 %12, 0
  %14 = getelementptr inbounds %"class.std::__1::basic_string", %"class.std::__1::basic_string"* %2, i64 0, i32 0, i32 0, i32 0, i32 0, i32 0, i32 1
  %15 = load i64, i64* %14, align 8
  %16 = zext i8 %12 to i64
  %17 = select i1 %13, i64 %15, i64 %16
  %18 = getelementptr inbounds %"class.std::__1::basic_string", %"class.std::__1::basic_string"* %2, i64 0, i32 0, i32 0, i32 0, i32 0, i32 0, i32 0
  %19 = load i8*, i8** %18, align 8
  %20 = bitcast %"class.std::__1::basic_string"* %2 to i8*
  %21 = select i1 %13, i8* %19, i8* %20
  br label %22

22:                                               ; preds = %8, %75
  %23 = phi %"class.std::__1::__tree_node"* [ %78, %75 ], [ %6, %8 ]
  %24 = phi %"class.std::__1::__tree_node_base"** [ %77, %75 ], [ %9, %8 ]
  %25 = getelementptr inbounds %"class.std::__1::__tree_node", %"class.std::__1::__tree_node"* %23, i64 0, i32 1
  %26 = bitcast %"class.std::__1::basic_string"* %25 to %"struct.std::__1::basic_string<char, std::__1::char_traits<char>, std::__1::allocator<char> >::__short"*
  %27 = getelementptr inbounds %"struct.std::__1::basic_string<char, std::__1::char_traits<char>, std::__1::allocator<char> >::__short", %"struct.std::__1::basic_string<char, std::__1::char_traits<char>, std::__1::allocator<char> >::__short"* %26, i64 0, i32 1, i32 0
  %28 = load i8, i8* %27, align 1
  %29 = icmp slt i8 %28, 0
  %30 = getelementptr inbounds %"class.std::__1::__tree_node", %"class.std::__1::__tree_node"* %23, i64 0, i32 1, i32 0, i32 0, i32 0, i32 0, i32 0, i32 1
  %31 = load i64, i64* %30, align 8
  %32 = zext i8 %28 to i64
  %33 = select i1 %29, i64 %31, i64 %32
  %34 = icmp ult i64 %33, %17
  %35 = select i1 %34, i64 %33, i64 %17
  %36 = icmp eq i64 %35, 0
  br i1 %36, label %44, label %37

37:                                               ; preds = %22
  %38 = getelementptr inbounds %"class.std::__1::basic_string", %"class.std::__1::basic_string"* %25, i64 0, i32 0, i32 0, i32 0, i32 0, i32 0, i32 0
  %39 = load i8*, i8** %38, align 8
  %40 = bitcast %"class.std::__1::basic_string"* %25 to i8*
  %41 = select i1 %29, i8* %39, i8* %40
  %42 = tail call i32 @memcmp(i8* %21, i8* %41, i64 %35) #14
  %43 = icmp eq i32 %42, 0
  br i1 %43, label %44, label %46

44:                                               ; preds = %37, %22
  %45 = icmp ult i64 %17, %33
  br i1 %45, label %48, label %54

46:                                               ; preds = %37
  %47 = icmp slt i32 %42, 0
  br i1 %47, label %48, label %60

48:                                               ; preds = %44, %46
  %49 = getelementptr inbounds %"class.std::__1::__tree_node", %"class.std::__1::__tree_node"* %23, i64 0, i32 0, i32 0, i32 0
  %50 = load %"class.std::__1::__tree_node_base"*, %"class.std::__1::__tree_node_base"** %49, align 8
  %51 = icmp eq %"class.std::__1::__tree_node_base"* %50, null
  br i1 %51, label %52, label %75

52:                                               ; preds = %48
  %53 = getelementptr inbounds %"class.std::__1::__tree_node", %"class.std::__1::__tree_node"* %23, i64 0, i32 0, i32 0
  store %"class.std::__1::__tree_end_node"* %53, %"class.std::__1::__tree_end_node"** %1, align 8
  br label %81

54:                                               ; preds = %44
  br i1 %36, label %64, label %55

55:                                               ; preds = %54
  %56 = getelementptr inbounds %"class.std::__1::basic_string", %"class.std::__1::basic_string"* %25, i64 0, i32 0, i32 0, i32 0, i32 0, i32 0, i32 0
  %57 = load i8*, i8** %56, align 8
  %58 = bitcast %"class.std::__1::basic_string"* %25 to i8*
  %59 = select i1 %29, i8* %57, i8* %58
  br label %60

60:                                               ; preds = %55, %46
  %61 = phi i8* [ %59, %55 ], [ %41, %46 ]
  %62 = tail call i32 @memcmp(i8* %61, i8* %21, i64 %35) #14
  %63 = icmp eq i32 %62, 0
  br i1 %63, label %64, label %65

64:                                               ; preds = %60, %54
  br i1 %34, label %67, label %73

65:                                               ; preds = %60
  %66 = icmp slt i32 %62, 0
  br i1 %66, label %67, label %73

67:                                               ; preds = %64, %65
  %68 = getelementptr inbounds %"class.std::__1::__tree_node", %"class.std::__1::__tree_node"* %23, i64 0, i32 0, i32 1
  %69 = load %"class.std::__1::__tree_node_base"*, %"class.std::__1::__tree_node_base"** %68, align 8
  %70 = icmp eq %"class.std::__1::__tree_node_base"* %69, null
  br i1 %70, label %71, label %75

71:                                               ; preds = %67
  %72 = getelementptr inbounds %"class.std::__1::__tree_node", %"class.std::__1::__tree_node"* %23, i64 0, i32 0, i32 0
  store %"class.std::__1::__tree_end_node"* %72, %"class.std::__1::__tree_end_node"** %1, align 8
  br label %81

73:                                               ; preds = %64, %65
  %74 = getelementptr inbounds %"class.std::__1::__tree_node", %"class.std::__1::__tree_node"* %23, i64 0, i32 0, i32 0
  store %"class.std::__1::__tree_end_node"* %74, %"class.std::__1::__tree_end_node"** %1, align 8
  br label %81

75:                                               ; preds = %67, %48
  %76 = phi %"class.std::__1::__tree_node_base"* [ %50, %48 ], [ %69, %67 ]
  %77 = phi %"class.std::__1::__tree_node_base"** [ %49, %48 ], [ %68, %67 ]
  %78 = bitcast %"class.std::__1::__tree_node_base"* %76 to %"class.std::__1::__tree_node"*
  br label %22

79:                                               ; preds = %3
  store %"class.std::__1::__tree_end_node"* %4, %"class.std::__1::__tree_end_node"** %1, align 8
  %80 = getelementptr inbounds %"class.std::__1::__tree_end_node", %"class.std::__1::__tree_end_node"* %4, i64 0, i32 0
  br label %81

81:                                               ; preds = %79, %73, %71, %52
  %82 = phi %"class.std::__1::__tree_node_base"** [ %49, %52 ], [ %68, %71 ], [ %24, %73 ], [ %80, %79 ]
  ret %"class.std::__1::__tree_node_base"** %82
}

; Function Attrs: nofree nounwind readonly
declare i32 @memcmp(i8* nocapture, i8* nocapture, i64) local_unnamed_addr #10

; Function Attrs: nounwind ssp uwtable
define linkonce_odr hidden void @_ZNSt3__127__tree_balance_after_insertIPNS_16__tree_node_baseIPvEEEEvT_S5_(%"class.std::__1::__tree_node_base"*, %"class.std::__1::__tree_node_base"*) local_unnamed_addr #0 comdat {
  %3 = icmp eq %"class.std::__1::__tree_node_base"* %1, %0
  %4 = getelementptr inbounds %"class.std::__1::__tree_node_base", %"class.std::__1::__tree_node_base"* %1, i64 0, i32 3
  %5 = zext i1 %3 to i8
  store i8 %5, i8* %4, align 8
  br i1 %3, label %156, label %6

6:                                                ; preds = %2, %149
  %7 = phi %"class.std::__1::__tree_node_base"* [ %20, %149 ], [ %1, %2 ]
  %8 = getelementptr inbounds %"class.std::__1::__tree_node_base", %"class.std::__1::__tree_node_base"* %7, i64 0, i32 2
  %9 = bitcast %"class.std::__1::__tree_end_node"** %8 to %"class.std::__1::__tree_node_base"**
  %10 = load %"class.std::__1::__tree_node_base"*, %"class.std::__1::__tree_node_base"** %9, align 8
  %11 = getelementptr inbounds %"class.std::__1::__tree_node_base", %"class.std::__1::__tree_node_base"* %10, i64 0, i32 3
  %12 = load i8, i8* %11, align 8, !range !2
  %13 = icmp eq i8 %12, 0
  br i1 %13, label %14, label %156

14:                                               ; preds = %6
  %15 = getelementptr inbounds %"class.std::__1::__tree_node_base", %"class.std::__1::__tree_node_base"* %10, i64 0, i32 2
  %16 = load %"class.std::__1::__tree_end_node"*, %"class.std::__1::__tree_end_node"** %15, align 8
  %17 = getelementptr inbounds %"class.std::__1::__tree_end_node", %"class.std::__1::__tree_end_node"* %16, i64 0, i32 0
  %18 = load %"class.std::__1::__tree_node_base"*, %"class.std::__1::__tree_node_base"** %17, align 8
  %19 = icmp eq %"class.std::__1::__tree_node_base"* %18, %10
  %20 = bitcast %"class.std::__1::__tree_end_node"* %16 to %"class.std::__1::__tree_node_base"*
  br i1 %19, label %21, label %87

21:                                               ; preds = %14
  %22 = getelementptr inbounds %"class.std::__1::__tree_end_node", %"class.std::__1::__tree_end_node"* %16, i64 1, i32 0
  %23 = load %"class.std::__1::__tree_node_base"*, %"class.std::__1::__tree_node_base"** %22, align 8
  %24 = icmp eq %"class.std::__1::__tree_node_base"* %23, null
  br i1 %24, label %29, label %25

25:                                               ; preds = %21
  %26 = getelementptr inbounds %"class.std::__1::__tree_node_base", %"class.std::__1::__tree_node_base"* %23, i64 0, i32 3
  %27 = load i8, i8* %26, align 8, !range !2
  %28 = icmp eq i8 %27, 0
  br i1 %28, label %149, label %29

29:                                               ; preds = %25, %21
  %30 = getelementptr inbounds %"class.std::__1::__tree_node_base", %"class.std::__1::__tree_node_base"* %10, i64 0, i32 2
  %31 = bitcast %"class.std::__1::__tree_end_node"* %16 to %"class.std::__1::__tree_node_base"*
  %32 = getelementptr inbounds %"class.std::__1::__tree_node_base", %"class.std::__1::__tree_node_base"* %10, i64 0, i32 0, i32 0
  %33 = load %"class.std::__1::__tree_node_base"*, %"class.std::__1::__tree_node_base"** %32, align 8
  %34 = icmp eq %"class.std::__1::__tree_node_base"* %33, %7
  br i1 %34, label %61, label %35

35:                                               ; preds = %29
  %36 = ptrtoint %"class.std::__1::__tree_end_node"* %16 to i64
  %37 = getelementptr inbounds %"class.std::__1::__tree_node_base", %"class.std::__1::__tree_node_base"* %10, i64 0, i32 1
  %38 = load %"class.std::__1::__tree_node_base"*, %"class.std::__1::__tree_node_base"** %37, align 8
  %39 = getelementptr inbounds %"class.std::__1::__tree_node_base", %"class.std::__1::__tree_node_base"* %38, i64 0, i32 0, i32 0
  %40 = load %"class.std::__1::__tree_node_base"*, %"class.std::__1::__tree_node_base"** %39, align 8
  store %"class.std::__1::__tree_node_base"* %40, %"class.std::__1::__tree_node_base"** %37, align 8
  %41 = icmp eq %"class.std::__1::__tree_node_base"* %40, null
  br i1 %41, label %47, label %42

42:                                               ; preds = %35
  %43 = getelementptr inbounds %"class.std::__1::__tree_node_base", %"class.std::__1::__tree_node_base"* %10, i64 0, i32 0
  %44 = getelementptr inbounds %"class.std::__1::__tree_node_base", %"class.std::__1::__tree_node_base"* %40, i64 0, i32 2
  store %"class.std::__1::__tree_end_node"* %43, %"class.std::__1::__tree_end_node"** %44, align 8
  %45 = bitcast %"class.std::__1::__tree_end_node"** %30 to i64*
  %46 = load i64, i64* %45, align 8
  br label %47

47:                                               ; preds = %35, %42
  %48 = phi i64 [ %46, %42 ], [ %36, %35 ]
  %49 = getelementptr inbounds %"class.std::__1::__tree_node_base", %"class.std::__1::__tree_node_base"* %38, i64 0, i32 2
  %50 = bitcast %"class.std::__1::__tree_end_node"** %49 to i64*
  store i64 %48, i64* %50, align 8
  %51 = load %"class.std::__1::__tree_end_node"*, %"class.std::__1::__tree_end_node"** %30, align 8
  %52 = getelementptr inbounds %"class.std::__1::__tree_end_node", %"class.std::__1::__tree_end_node"* %51, i64 0, i32 0
  %53 = load %"class.std::__1::__tree_node_base"*, %"class.std::__1::__tree_node_base"** %52, align 8
  %54 = icmp eq %"class.std::__1::__tree_node_base"* %53, %10
  %55 = getelementptr inbounds %"class.std::__1::__tree_end_node", %"class.std::__1::__tree_end_node"* %51, i64 1, i32 0
  %56 = select i1 %54, %"class.std::__1::__tree_node_base"** %52, %"class.std::__1::__tree_node_base"** %55
  store %"class.std::__1::__tree_node_base"* %38, %"class.std::__1::__tree_node_base"** %56, align 8
  store %"class.std::__1::__tree_node_base"* %10, %"class.std::__1::__tree_node_base"** %39, align 8
  %57 = getelementptr inbounds %"class.std::__1::__tree_node_base", %"class.std::__1::__tree_node_base"* %38, i64 0, i32 0
  store %"class.std::__1::__tree_end_node"* %57, %"class.std::__1::__tree_end_node"** %30, align 8
  %58 = getelementptr inbounds %"class.std::__1::__tree_node_base", %"class.std::__1::__tree_node_base"* %38, i64 0, i32 2
  %59 = bitcast %"class.std::__1::__tree_end_node"** %58 to %"class.std::__1::__tree_node_base"**
  %60 = load %"class.std::__1::__tree_node_base"*, %"class.std::__1::__tree_node_base"** %59, align 8
  br label %61

61:                                               ; preds = %47, %29
  %62 = phi %"class.std::__1::__tree_node_base"* [ %31, %29 ], [ %60, %47 ]
  %63 = phi %"class.std::__1::__tree_node_base"* [ %10, %29 ], [ %38, %47 ]
  %64 = getelementptr inbounds %"class.std::__1::__tree_node_base", %"class.std::__1::__tree_node_base"* %63, i64 0, i32 3
  store i8 1, i8* %64, align 8
  %65 = getelementptr inbounds %"class.std::__1::__tree_node_base", %"class.std::__1::__tree_node_base"* %62, i64 0, i32 3
  store i8 0, i8* %65, align 8
  %66 = getelementptr inbounds %"class.std::__1::__tree_node_base", %"class.std::__1::__tree_node_base"* %62, i64 0, i32 0, i32 0
  %67 = load %"class.std::__1::__tree_node_base"*, %"class.std::__1::__tree_node_base"** %66, align 8
  %68 = getelementptr inbounds %"class.std::__1::__tree_node_base", %"class.std::__1::__tree_node_base"* %67, i64 0, i32 1
  %69 = load %"class.std::__1::__tree_node_base"*, %"class.std::__1::__tree_node_base"** %68, align 8
  store %"class.std::__1::__tree_node_base"* %69, %"class.std::__1::__tree_node_base"** %66, align 8
  %70 = icmp eq %"class.std::__1::__tree_node_base"* %69, null
  br i1 %70, label %74, label %71

71:                                               ; preds = %61
  %72 = getelementptr inbounds %"class.std::__1::__tree_node_base", %"class.std::__1::__tree_node_base"* %62, i64 0, i32 0
  %73 = getelementptr inbounds %"class.std::__1::__tree_node_base", %"class.std::__1::__tree_node_base"* %69, i64 0, i32 2
  store %"class.std::__1::__tree_end_node"* %72, %"class.std::__1::__tree_end_node"** %73, align 8
  br label %74

74:                                               ; preds = %71, %61
  %75 = getelementptr inbounds %"class.std::__1::__tree_node_base", %"class.std::__1::__tree_node_base"* %62, i64 0, i32 2
  %76 = bitcast %"class.std::__1::__tree_end_node"** %75 to i64*
  %77 = load i64, i64* %76, align 8
  %78 = getelementptr inbounds %"class.std::__1::__tree_node_base", %"class.std::__1::__tree_node_base"* %67, i64 0, i32 2
  %79 = bitcast %"class.std::__1::__tree_end_node"** %78 to i64*
  store i64 %77, i64* %79, align 8
  %80 = load %"class.std::__1::__tree_end_node"*, %"class.std::__1::__tree_end_node"** %75, align 8
  %81 = getelementptr inbounds %"class.std::__1::__tree_end_node", %"class.std::__1::__tree_end_node"* %80, i64 0, i32 0
  %82 = load %"class.std::__1::__tree_node_base"*, %"class.std::__1::__tree_node_base"** %81, align 8
  %83 = icmp eq %"class.std::__1::__tree_node_base"* %82, %62
  %84 = getelementptr inbounds %"class.std::__1::__tree_end_node", %"class.std::__1::__tree_end_node"* %80, i64 1, i32 0
  %85 = select i1 %83, %"class.std::__1::__tree_node_base"** %81, %"class.std::__1::__tree_node_base"** %84
  store %"class.std::__1::__tree_node_base"* %67, %"class.std::__1::__tree_node_base"** %85, align 8
  store %"class.std::__1::__tree_node_base"* %62, %"class.std::__1::__tree_node_base"** %68, align 8
  %86 = getelementptr inbounds %"class.std::__1::__tree_node_base", %"class.std::__1::__tree_node_base"* %67, i64 0, i32 0
  store %"class.std::__1::__tree_end_node"* %86, %"class.std::__1::__tree_end_node"** %75, align 8
  br label %156

87:                                               ; preds = %14
  %88 = icmp eq %"class.std::__1::__tree_node_base"* %18, null
  br i1 %88, label %93, label %89

89:                                               ; preds = %87
  %90 = getelementptr inbounds %"class.std::__1::__tree_node_base", %"class.std::__1::__tree_node_base"* %18, i64 0, i32 3
  %91 = load i8, i8* %90, align 8, !range !2
  %92 = icmp eq i8 %91, 0
  br i1 %92, label %149, label %93

93:                                               ; preds = %89, %87
  %94 = getelementptr inbounds %"class.std::__1::__tree_node_base", %"class.std::__1::__tree_node_base"* %10, i64 0, i32 2
  %95 = bitcast %"class.std::__1::__tree_end_node"* %16 to %"class.std::__1::__tree_node_base"*
  %96 = getelementptr inbounds %"class.std::__1::__tree_node_base", %"class.std::__1::__tree_node_base"* %10, i64 0, i32 0, i32 0
  %97 = load %"class.std::__1::__tree_node_base"*, %"class.std::__1::__tree_node_base"** %96, align 8
  %98 = icmp eq %"class.std::__1::__tree_node_base"* %97, %7
  br i1 %98, label %99, label %123

99:                                               ; preds = %93
  %100 = ptrtoint %"class.std::__1::__tree_end_node"* %16 to i64
  %101 = getelementptr inbounds %"class.std::__1::__tree_node_base", %"class.std::__1::__tree_node_base"* %10, i64 0, i32 0, i32 0
  %102 = getelementptr inbounds %"class.std::__1::__tree_node_base", %"class.std::__1::__tree_node_base"* %7, i64 0, i32 1
  %103 = load %"class.std::__1::__tree_node_base"*, %"class.std::__1::__tree_node_base"** %102, align 8
  store %"class.std::__1::__tree_node_base"* %103, %"class.std::__1::__tree_node_base"** %101, align 8
  %104 = icmp eq %"class.std::__1::__tree_node_base"* %103, null
  br i1 %104, label %110, label %105

105:                                              ; preds = %99
  %106 = getelementptr inbounds %"class.std::__1::__tree_node_base", %"class.std::__1::__tree_node_base"* %10, i64 0, i32 0
  %107 = getelementptr inbounds %"class.std::__1::__tree_node_base", %"class.std::__1::__tree_node_base"* %103, i64 0, i32 2
  store %"class.std::__1::__tree_end_node"* %106, %"class.std::__1::__tree_end_node"** %107, align 8
  %108 = bitcast %"class.std::__1::__tree_end_node"** %94 to i64*
  %109 = load i64, i64* %108, align 8
  br label %110

110:                                              ; preds = %99, %105
  %111 = phi i64 [ %109, %105 ], [ %100, %99 ]
  %112 = bitcast %"class.std::__1::__tree_end_node"** %8 to i64*
  store i64 %111, i64* %112, align 8
  %113 = load %"class.std::__1::__tree_end_node"*, %"class.std::__1::__tree_end_node"** %94, align 8
  %114 = getelementptr inbounds %"class.std::__1::__tree_end_node", %"class.std::__1::__tree_end_node"* %113, i64 0, i32 0
  %115 = load %"class.std::__1::__tree_node_base"*, %"class.std::__1::__tree_node_base"** %114, align 8
  %116 = icmp eq %"class.std::__1::__tree_node_base"* %115, %10
  %117 = getelementptr inbounds %"class.std::__1::__tree_end_node", %"class.std::__1::__tree_end_node"* %113, i64 1, i32 0
  %118 = select i1 %116, %"class.std::__1::__tree_node_base"** %114, %"class.std::__1::__tree_node_base"** %117
  store %"class.std::__1::__tree_node_base"* %7, %"class.std::__1::__tree_node_base"** %118, align 8
  store %"class.std::__1::__tree_node_base"* %10, %"class.std::__1::__tree_node_base"** %102, align 8
  %119 = getelementptr inbounds %"class.std::__1::__tree_node_base", %"class.std::__1::__tree_node_base"* %7, i64 0, i32 0
  store %"class.std::__1::__tree_end_node"* %119, %"class.std::__1::__tree_end_node"** %94, align 8
  %120 = getelementptr inbounds %"class.std::__1::__tree_node_base", %"class.std::__1::__tree_node_base"* %7, i64 0, i32 2
  %121 = bitcast %"class.std::__1::__tree_end_node"** %120 to %"class.std::__1::__tree_node_base"**
  %122 = load %"class.std::__1::__tree_node_base"*, %"class.std::__1::__tree_node_base"** %121, align 8
  br label %123

123:                                              ; preds = %93, %110
  %124 = phi %"class.std::__1::__tree_node_base"* [ %122, %110 ], [ %95, %93 ]
  %125 = phi %"class.std::__1::__tree_node_base"* [ %7, %110 ], [ %10, %93 ]
  %126 = getelementptr inbounds %"class.std::__1::__tree_node_base", %"class.std::__1::__tree_node_base"* %125, i64 0, i32 3
  store i8 1, i8* %126, align 8
  %127 = getelementptr inbounds %"class.std::__1::__tree_node_base", %"class.std::__1::__tree_node_base"* %124, i64 0, i32 3
  store i8 0, i8* %127, align 8
  %128 = getelementptr inbounds %"class.std::__1::__tree_node_base", %"class.std::__1::__tree_node_base"* %124, i64 0, i32 1
  %129 = load %"class.std::__1::__tree_node_base"*, %"class.std::__1::__tree_node_base"** %128, align 8
  %130 = getelementptr inbounds %"class.std::__1::__tree_node_base", %"class.std::__1::__tree_node_base"* %129, i64 0, i32 0, i32 0
  %131 = load %"class.std::__1::__tree_node_base"*, %"class.std::__1::__tree_node_base"** %130, align 8
  store %"class.std::__1::__tree_node_base"* %131, %"class.std::__1::__tree_node_base"** %128, align 8
  %132 = icmp eq %"class.std::__1::__tree_node_base"* %131, null
  br i1 %132, label %136, label %133

133:                                              ; preds = %123
  %134 = getelementptr inbounds %"class.std::__1::__tree_node_base", %"class.std::__1::__tree_node_base"* %124, i64 0, i32 0
  %135 = getelementptr inbounds %"class.std::__1::__tree_node_base", %"class.std::__1::__tree_node_base"* %131, i64 0, i32 2
  store %"class.std::__1::__tree_end_node"* %134, %"class.std::__1::__tree_end_node"** %135, align 8
  br label %136

136:                                              ; preds = %133, %123
  %137 = getelementptr inbounds %"class.std::__1::__tree_node_base", %"class.std::__1::__tree_node_base"* %124, i64 0, i32 2
  %138 = bitcast %"class.std::__1::__tree_end_node"** %137 to i64*
  %139 = load i64, i64* %138, align 8
  %140 = getelementptr inbounds %"class.std::__1::__tree_node_base", %"class.std::__1::__tree_node_base"* %129, i64 0, i32 2
  %141 = bitcast %"class.std::__1::__tree_end_node"** %140 to i64*
  store i64 %139, i64* %141, align 8
  %142 = load %"class.std::__1::__tree_end_node"*, %"class.std::__1::__tree_end_node"** %137, align 8
  %143 = getelementptr inbounds %"class.std::__1::__tree_end_node", %"class.std::__1::__tree_end_node"* %142, i64 0, i32 0
  %144 = load %"class.std::__1::__tree_node_base"*, %"class.std::__1::__tree_node_base"** %143, align 8
  %145 = icmp eq %"class.std::__1::__tree_node_base"* %144, %124
  %146 = getelementptr inbounds %"class.std::__1::__tree_end_node", %"class.std::__1::__tree_end_node"* %142, i64 1, i32 0
  %147 = select i1 %145, %"class.std::__1::__tree_node_base"** %143, %"class.std::__1::__tree_node_base"** %146
  store %"class.std::__1::__tree_node_base"* %129, %"class.std::__1::__tree_node_base"** %147, align 8
  store %"class.std::__1::__tree_node_base"* %124, %"class.std::__1::__tree_node_base"** %130, align 8
  %148 = getelementptr inbounds %"class.std::__1::__tree_node_base", %"class.std::__1::__tree_node_base"* %129, i64 0, i32 0
  store %"class.std::__1::__tree_end_node"* %148, %"class.std::__1::__tree_end_node"** %137, align 8
  br label %156

149:                                              ; preds = %89, %25
  %150 = phi i8* [ %26, %25 ], [ %90, %89 ]
  store i8 1, i8* %11, align 8
  %151 = icmp eq %"class.std::__1::__tree_node_base"* %20, %0
  %152 = getelementptr inbounds %"class.std::__1::__tree_end_node", %"class.std::__1::__tree_end_node"* %16, i64 3
  %153 = bitcast %"class.std::__1::__tree_end_node"* %152 to i8*
  %154 = zext i1 %151 to i8
  store i8 %154, i8* %153, align 8
  store i8 1, i8* %150, align 8
  %155 = icmp eq %"class.std::__1::__tree_node_base"* %20, %0
  br i1 %155, label %156, label %6

156:                                              ; preds = %6, %149, %2, %136, %74
  ret void
}

; Function Attrs: nobuiltin nounwind
declare void @_ZdlPv(i8*) local_unnamed_addr #11

declare i8* @_ZN11flatbuffers13BaseGenerator27FlatBuffersGeneratedWarningEv() local_unnamed_addr #3

declare void @_ZN11flatbuffers10CodeWriterpLENSt3__112basic_stringIcNS1_11char_traitsIcEENS1_9allocatorIcEEEE(%"class.flatbuffers::CodeWriter"*, %"class.std::__1::basic_string"*) local_unnamed_addr #3

; Function Attrs: nounwind ssp uwtable
define linkonce_odr hidden void @_ZN11flatbuffers4rust13RustGenerator19GenNamespaceImportsEi(%"class.flatbuffers::rust::RustGenerator"*, i32) local_unnamed_addr #0 comdat align 2 {
  %3 = alloca %"class.std::__1::basic_string", align 8
  %4 = alloca %"class.std::__1::basic_string", align 8
  %5 = alloca %"class.std::__1::basic_string", align 8
  %6 = alloca %"class.std::__1::basic_string", align 8
  %7 = alloca %"class.std::__1::basic_string", align 8
  %8 = alloca %"class.std::__1::basic_string", align 8
  %9 = alloca %"class.std::__1::basic_string", align 8
  %10 = alloca %"class.std::__1::basic_string", align 8
  %11 = alloca %"class.std::__1::basic_string", align 8
  %12 = alloca %"class.std::__1::basic_string", align 8
  %13 = alloca %"class.std::__1::basic_string", align 8
  %14 = alloca %"class.std::__1::basic_string", align 8
  %15 = bitcast %"class.std::__1::basic_string"* %3 to i8*
  call void @llvm.lifetime.start.p0i8(i64 24, i8* nonnull %15) #14
  %16 = getelementptr inbounds %"class.std::__1::basic_string", %"class.std::__1::basic_string"* %3, i64 0, i32 0, i32 0, i32 0, i32 0, i32 0, i32 0
  %17 = getelementptr inbounds %"class.std::__1::basic_string", %"class.std::__1::basic_string"* %3, i64 0, i32 0, i32 0, i32 0, i32 0, i32 0, i32 1
  %18 = getelementptr inbounds %"class.std::__1::basic_string", %"class.std::__1::basic_string"* %3, i64 0, i32 0, i32 0, i32 0, i32 0, i32 0, i32 2
  %19 = sext i32 %1 to i64
  %20 = icmp ugt i32 %1, -17
  %21 = bitcast %"class.std::__1::basic_string"* %3 to i8*
  call void @llvm.memset.p0i8.i64(i8* nonnull align 8 %21, i8 -86, i64 24, i1 false)
  br i1 %20, label %22, label %24

22:                                               ; preds = %2
  %23 = bitcast %"class.std::__1::basic_string"* %3 to %"class.std::__1::__basic_string_common"*
  call void @_ZNKSt3__121__basic_string_commonILb1EE20__throw_length_errorEv(%"class.std::__1::__basic_string_common"* nonnull %23) #17
  unreachable

24:                                               ; preds = %2
  %25 = icmp ult i32 %1, 23
  br i1 %25, label %31, label %26

26:                                               ; preds = %24
  %27 = add nuw nsw i64 %19, 16
  %28 = and i64 %27, -16
  %29 = tail call i8* @_Znwm(i64 %28) #16
  store i8* %29, i8** %16, align 8
  %30 = or i64 %28, -9223372036854775808
  store i64 %30, i64* %18, align 8
  store i64 %19, i64* %17, align 8
  br label %36

31:                                               ; preds = %24
  %32 = trunc i32 %1 to i8
  %33 = bitcast %"class.std::__1::basic_string"* %3 to %"struct.std::__1::basic_string<char, std::__1::char_traits<char>, std::__1::allocator<char> >::__short"*
  %34 = getelementptr inbounds %"struct.std::__1::basic_string<char, std::__1::char_traits<char>, std::__1::allocator<char> >::__short", %"struct.std::__1::basic_string<char, std::__1::char_traits<char>, std::__1::allocator<char> >::__short"* %33, i64 0, i32 1, i32 0
  store i8 %32, i8* %34, align 1
  %35 = icmp eq i32 %1, 0
  br i1 %35, label %38, label %36

36:                                               ; preds = %31, %26
  %37 = phi i8* [ %29, %26 ], [ %15, %31 ]
  call void @llvm.memset.p0i8.i64(i8* nonnull align 1 %37, i8 32, i64 %19, i1 false) #14
  br label %38

38:                                               ; preds = %31, %36
  %39 = phi i8* [ %15, %31 ], [ %37, %36 ]
  %40 = getelementptr inbounds i8, i8* %39, i64 %19
  store i8 0, i8* %40, align 1
  %41 = bitcast %"class.std::__1::basic_string"* %4 to %"struct.std::__1::basic_string<char, std::__1::char_traits<char>, std::__1::allocator<char> >::__short"*
  %42 = getelementptr inbounds %"struct.std::__1::basic_string<char, std::__1::char_traits<char>, std::__1::allocator<char> >::__short", %"struct.std::__1::basic_string<char, std::__1::char_traits<char>, std::__1::allocator<char> >::__short"* %41, i64 0, i32 1, i32 0
  store i8 0, i8* %42, align 1
  %43 = bitcast %"class.std::__1::basic_string"* %4 to i8*
  store i8 0, i8* %43, align 8
  %44 = getelementptr inbounds %"class.flatbuffers::rust::RustGenerator", %"class.flatbuffers::rust::RustGenerator"* %0, i64 0, i32 1
  call void @_ZN11flatbuffers10CodeWriterpLENSt3__112basic_stringIcNS1_11char_traitsIcEENS1_9allocatorIcEEEE(%"class.flatbuffers::CodeWriter"* %44, %"class.std::__1::basic_string"* nonnull %4) #14
  %45 = load i8, i8* %42, align 1
  %46 = icmp slt i8 %45, 0
  br i1 %46, label %47, label %50

47:                                               ; preds = %38
  %48 = getelementptr inbounds %"class.std::__1::basic_string", %"class.std::__1::basic_string"* %4, i64 0, i32 0, i32 0, i32 0, i32 0, i32 0, i32 0
  %49 = load i8*, i8** %48, align 8
  call void @_ZdlPv(i8* %49) #16
  br label %50

50:                                               ; preds = %38, %47
  %51 = getelementptr inbounds %"class.flatbuffers::rust::RustGenerator", %"class.flatbuffers::rust::RustGenerator"* %0, i64 0, i32 0, i32 1
  %52 = load %"class.flatbuffers::Parser"*, %"class.flatbuffers::Parser"** %51, align 8
  %53 = getelementptr inbounds %"class.flatbuffers::Parser", %"class.flatbuffers::Parser"* %52, i64 0, i32 15, i32 0, i32 0
  %54 = load %"class.std::__1::__tree_end_node"*, %"class.std::__1::__tree_end_node"** %53, align 8
  %55 = getelementptr inbounds %"class.flatbuffers::Parser", %"class.flatbuffers::Parser"* %52, i64 0, i32 15, i32 0, i32 1, i32 0, i32 0
  %56 = icmp eq %"class.std::__1::__tree_end_node"* %54, %55
  br i1 %56, label %57, label %59

57:                                               ; preds = %50
  %58 = bitcast %"class.std::__1::basic_string"* %3 to %"struct.std::__1::basic_string<char, std::__1::char_traits<char>, std::__1::allocator<char> >::__short"*
  br label %87

59:                                               ; preds = %50
  %60 = bitcast %"class.std::__1::basic_string"* %5 to i8*
  %61 = getelementptr inbounds %"class.std::__1::basic_string", %"class.std::__1::basic_string"* %5, i64 0, i32 0, i32 0, i32 0, i32 0, i32 0, i32 0
  %62 = bitcast %"class.std::__1::basic_string"* %6 to i8*
  %63 = getelementptr inbounds %"class.std::__1::basic_string", %"class.std::__1::basic_string"* %6, i64 0, i32 0, i32 0, i32 0, i32 0, i32 0, i32 0
  %64 = getelementptr inbounds %"class.std::__1::basic_string", %"class.std::__1::basic_string"* %6, i64 0, i32 0, i32 0, i32 0, i32 0, i32 0, i32 1
  %65 = bitcast %"class.std::__1::basic_string"* %8 to i8*
  %66 = bitcast %"class.std::__1::basic_string"* %9 to i8*
  %67 = getelementptr inbounds %"class.std::__1::basic_string", %"class.std::__1::basic_string"* %9, i64 0, i32 0, i32 0, i32 0, i32 0, i32 0, i32 0
  %68 = getelementptr inbounds %"class.std::__1::basic_string", %"class.std::__1::basic_string"* %9, i64 0, i32 0, i32 0, i32 0, i32 0, i32 0, i32 1
  %69 = getelementptr inbounds %"class.std::__1::basic_string", %"class.std::__1::basic_string"* %9, i64 0, i32 0, i32 0, i32 0, i32 0, i32 0, i32 2
  %70 = bitcast %"class.std::__1::basic_string"* %3 to %"struct.std::__1::basic_string<char, std::__1::char_traits<char>, std::__1::allocator<char> >::__short"*
  %71 = getelementptr inbounds %"struct.std::__1::basic_string<char, std::__1::char_traits<char>, std::__1::allocator<char> >::__short", %"struct.std::__1::basic_string<char, std::__1::char_traits<char>, std::__1::allocator<char> >::__short"* %70, i64 0, i32 1, i32 0
  %72 = bitcast %"class.std::__1::basic_string"* %9 to %"struct.std::__1::basic_string<char, std::__1::char_traits<char>, std::__1::allocator<char> >::__short"*
  %73 = getelementptr inbounds %"struct.std::__1::basic_string<char, std::__1::char_traits<char>, std::__1::allocator<char> >::__short", %"struct.std::__1::basic_string<char, std::__1::char_traits<char>, std::__1::allocator<char> >::__short"* %72, i64 0, i32 1, i32 0
  %74 = bitcast %"class.std::__1::basic_string"* %6 to %"struct.std::__1::basic_string<char, std::__1::char_traits<char>, std::__1::allocator<char> >::__short"*
  %75 = getelementptr inbounds %"struct.std::__1::basic_string<char, std::__1::char_traits<char>, std::__1::allocator<char> >::__short", %"struct.std::__1::basic_string<char, std::__1::char_traits<char>, std::__1::allocator<char> >::__short"* %74, i64 0, i32 1, i32 0
  %76 = bitcast %"class.std::__1::basic_string"* %7 to i8*
  %77 = bitcast %"class.std::__1::basic_string"* %7 to %"struct.std::__1::basic_string<char, std::__1::char_traits<char>, std::__1::allocator<char> >::__short"*
  %78 = getelementptr inbounds %"struct.std::__1::basic_string<char, std::__1::char_traits<char>, std::__1::allocator<char> >::__short", %"struct.std::__1::basic_string<char, std::__1::char_traits<char>, std::__1::allocator<char> >::__short"* %77, i64 0, i32 1, i32 0
  %79 = getelementptr inbounds %"class.std::__1::basic_string", %"class.std::__1::basic_string"* %7, i64 0, i32 0, i32 0, i32 0, i32 0, i32 0, i32 0
  %80 = bitcast %"class.std::__1::basic_string"* %8 to %"struct.std::__1::basic_string<char, std::__1::char_traits<char>, std::__1::allocator<char> >::__short"*
  %81 = getelementptr inbounds %"struct.std::__1::basic_string<char, std::__1::char_traits<char>, std::__1::allocator<char> >::__short", %"struct.std::__1::basic_string<char, std::__1::char_traits<char>, std::__1::allocator<char> >::__short"* %80, i64 0, i32 1, i32 0
  %82 = getelementptr inbounds %"class.std::__1::basic_string", %"class.std::__1::basic_string"* %8, i64 0, i32 0, i32 0, i32 0, i32 0, i32 0, i32 0
  %83 = bitcast %"class.std::__1::basic_string"* %5 to %"struct.std::__1::basic_string<char, std::__1::char_traits<char>, std::__1::allocator<char> >::__short"*
  %84 = getelementptr inbounds %"struct.std::__1::basic_string<char, std::__1::char_traits<char>, std::__1::allocator<char> >::__short", %"struct.std::__1::basic_string<char, std::__1::char_traits<char>, std::__1::allocator<char> >::__short"* %83, i64 0, i32 1, i32 0
  %85 = bitcast %"class.std::__1::basic_string"* %5 to i8*
  %86 = bitcast %"class.std::__1::basic_string"* %6 to i8*
  br label %264

87:                                               ; preds = %373, %57
  %88 = phi %"struct.std::__1::basic_string<char, std::__1::char_traits<char>, std::__1::allocator<char> >::__short"* [ %58, %57 ], [ %70, %373 ]
  %89 = getelementptr inbounds %"class.std::__1::basic_string", %"class.std::__1::basic_string"* %10, i64 0, i32 0, i32 0, i32 0, i32 0, i32 0, i32 0
  %90 = getelementptr inbounds %"class.std::__1::basic_string", %"class.std::__1::basic_string"* %10, i64 0, i32 0, i32 0, i32 0, i32 0, i32 0, i32 1
  %91 = getelementptr inbounds %"class.std::__1::basic_string", %"class.std::__1::basic_string"* %10, i64 0, i32 0, i32 0, i32 0, i32 0, i32 0, i32 2
  %92 = bitcast %"class.std::__1::basic_string"* %10 to i8*
  call void @llvm.memset.p0i8.i64(i8* nonnull align 8 %92, i8 0, i64 24, i1 false) #14, !alias.scope !24
  %93 = getelementptr inbounds %"struct.std::__1::basic_string<char, std::__1::char_traits<char>, std::__1::allocator<char> >::__short", %"struct.std::__1::basic_string<char, std::__1::char_traits<char>, std::__1::allocator<char> >::__short"* %88, i64 0, i32 1, i32 0
  %94 = load i8, i8* %93, align 1, !noalias !24
  %95 = icmp slt i8 %94, 0
  %96 = load i64, i64* %17, align 8
  %97 = load i8*, i8** %16, align 8
  %98 = zext i8 %94 to i64
  %99 = select i1 %95, i64 %96, i64 %98
  %100 = select i1 %95, i8* %97, i8* %15
  %101 = add i64 %99, 13
  %102 = icmp ugt i64 %101, -17
  br i1 %102, label %103, label %105

103:                                              ; preds = %87
  %104 = bitcast %"class.std::__1::basic_string"* %10 to %"class.std::__1::__basic_string_common"*
  call void @_ZNKSt3__121__basic_string_commonILb1EE20__throw_length_errorEv(%"class.std::__1::__basic_string_common"* nonnull %104) #17
  unreachable

105:                                              ; preds = %87
  %106 = icmp ult i64 %101, 23
  br i1 %106, label %112, label %107

107:                                              ; preds = %105
  %108 = add nuw i64 %99, 29
  %109 = and i64 %108, -16
  %110 = call i8* @_Znwm(i64 %109) #16
  store i8* %110, i8** %89, align 8, !alias.scope !24
  %111 = or i64 %109, -9223372036854775808
  store i64 %111, i64* %91, align 8, !alias.scope !24
  store i64 %99, i64* %90, align 8, !alias.scope !24
  br label %117

112:                                              ; preds = %105
  %113 = trunc i64 %99 to i8
  %114 = bitcast %"class.std::__1::basic_string"* %10 to %"struct.std::__1::basic_string<char, std::__1::char_traits<char>, std::__1::allocator<char> >::__short"*
  %115 = getelementptr inbounds %"struct.std::__1::basic_string<char, std::__1::char_traits<char>, std::__1::allocator<char> >::__short", %"struct.std::__1::basic_string<char, std::__1::char_traits<char>, std::__1::allocator<char> >::__short"* %114, i64 0, i32 1, i32 0
  store i8 %113, i8* %115, align 1, !alias.scope !24
  %116 = icmp eq i64 %99, 0
  br i1 %116, label %119, label %117

117:                                              ; preds = %107, %112
  %118 = phi i8* [ %110, %107 ], [ %92, %112 ]
  call void @llvm.memcpy.p0i8.p0i8.i64(i8* nonnull align 1 %118, i8* align 1 %100, i64 %99, i1 false) #14
  br label %119

119:                                              ; preds = %112, %117
  %120 = phi i8* [ %92, %112 ], [ %118, %117 ]
  %121 = getelementptr inbounds i8, i8* %120, i64 %99
  store i8 0, i8* %121, align 1
  %122 = call dereferenceable(24) %"class.std::__1::basic_string"* @_ZNSt3__112basic_stringIcNS_11char_traitsIcEENS_9allocatorIcEEE6appendEPKcm(%"class.std::__1::basic_string"* nonnull %10, i8* getelementptr inbounds ([14 x i8], [14 x i8]* @.str.87, i64 0, i64 0), i64 13) #14
  call void @_ZN11flatbuffers10CodeWriterpLENSt3__112basic_stringIcNS1_11char_traitsIcEENS1_9allocatorIcEEEE(%"class.flatbuffers::CodeWriter"* %44, %"class.std::__1::basic_string"* nonnull %10) #14
  %123 = bitcast %"class.std::__1::basic_string"* %10 to %"struct.std::__1::basic_string<char, std::__1::char_traits<char>, std::__1::allocator<char> >::__short"*
  %124 = getelementptr inbounds %"struct.std::__1::basic_string<char, std::__1::char_traits<char>, std::__1::allocator<char> >::__short", %"struct.std::__1::basic_string<char, std::__1::char_traits<char>, std::__1::allocator<char> >::__short"* %123, i64 0, i32 1, i32 0
  %125 = load i8, i8* %124, align 1
  %126 = icmp slt i8 %125, 0
  br i1 %126, label %127, label %129

127:                                              ; preds = %119
  %128 = load i8*, i8** %89, align 8
  call void @_ZdlPv(i8* %128) #16
  br label %129

129:                                              ; preds = %119, %127
  %130 = getelementptr inbounds %"class.std::__1::basic_string", %"class.std::__1::basic_string"* %11, i64 0, i32 0, i32 0, i32 0, i32 0, i32 0, i32 0
  %131 = getelementptr inbounds %"class.std::__1::basic_string", %"class.std::__1::basic_string"* %11, i64 0, i32 0, i32 0, i32 0, i32 0, i32 0, i32 1
  %132 = getelementptr inbounds %"class.std::__1::basic_string", %"class.std::__1::basic_string"* %11, i64 0, i32 0, i32 0, i32 0, i32 0, i32 0, i32 2
  %133 = bitcast %"class.std::__1::basic_string"* %11 to i8*
  call void @llvm.memset.p0i8.i64(i8* nonnull align 8 %133, i8 0, i64 24, i1 false) #14, !alias.scope !27
  %134 = load i8, i8* %93, align 1, !noalias !27
  %135 = icmp slt i8 %134, 0
  %136 = load i64, i64* %17, align 8
  %137 = load i8*, i8** %16, align 8
  %138 = zext i8 %134 to i64
  %139 = select i1 %135, i64 %136, i64 %138
  %140 = select i1 %135, i8* %137, i8* %15
  %141 = add i64 %139, 23
  %142 = icmp ugt i64 %141, -17
  br i1 %142, label %143, label %145

143:                                              ; preds = %129
  %144 = bitcast %"class.std::__1::basic_string"* %11 to %"class.std::__1::__basic_string_common"*
  call void @_ZNKSt3__121__basic_string_commonILb1EE20__throw_length_errorEv(%"class.std::__1::__basic_string_common"* nonnull %144) #17
  unreachable

145:                                              ; preds = %129
  %146 = icmp ult i64 %141, 23
  br i1 %146, label %147, label %151

147:                                              ; preds = %145
  %148 = trunc i64 %139 to i8
  %149 = bitcast %"class.std::__1::basic_string"* %11 to %"struct.std::__1::basic_string<char, std::__1::char_traits<char>, std::__1::allocator<char> >::__short"*
  %150 = getelementptr inbounds %"struct.std::__1::basic_string<char, std::__1::char_traits<char>, std::__1::allocator<char> >::__short", %"struct.std::__1::basic_string<char, std::__1::char_traits<char>, std::__1::allocator<char> >::__short"* %149, i64 0, i32 1, i32 0
  store i8 %148, i8* %150, align 1, !alias.scope !27
  br label %157

151:                                              ; preds = %145
  %152 = add nuw i64 %139, 39
  %153 = and i64 %152, -16
  %154 = call i8* @_Znwm(i64 %153) #16
  store i8* %154, i8** %130, align 8, !alias.scope !27
  %155 = or i64 %153, -9223372036854775808
  store i64 %155, i64* %132, align 8, !alias.scope !27
  store i64 %139, i64* %131, align 8, !alias.scope !27
  %156 = icmp eq i64 %139, 0
  br i1 %156, label %159, label %157

157:                                              ; preds = %147, %151
  %158 = phi i8* [ %133, %147 ], [ %154, %151 ]
  call void @llvm.memcpy.p0i8.p0i8.i64(i8* nonnull align 1 %158, i8* align 1 %140, i64 %139, i1 false) #14
  br label %159

159:                                              ; preds = %151, %157
  %160 = phi i8* [ %154, %151 ], [ %158, %157 ]
  %161 = getelementptr inbounds i8, i8* %160, i64 %139
  store i8 0, i8* %161, align 1
  %162 = call dereferenceable(24) %"class.std::__1::basic_string"* @_ZNSt3__112basic_stringIcNS_11char_traitsIcEENS_9allocatorIcEEE6appendEPKcm(%"class.std::__1::basic_string"* nonnull %11, i8* getelementptr inbounds ([24 x i8], [24 x i8]* @.str.88, i64 0, i64 0), i64 23) #14
  call void @_ZN11flatbuffers10CodeWriterpLENSt3__112basic_stringIcNS1_11char_traitsIcEENS1_9allocatorIcEEEE(%"class.flatbuffers::CodeWriter"* %44, %"class.std::__1::basic_string"* nonnull %11) #14
  %163 = bitcast %"class.std::__1::basic_string"* %11 to %"struct.std::__1::basic_string<char, std::__1::char_traits<char>, std::__1::allocator<char> >::__short"*
  %164 = getelementptr inbounds %"struct.std::__1::basic_string<char, std::__1::char_traits<char>, std::__1::allocator<char> >::__short", %"struct.std::__1::basic_string<char, std::__1::char_traits<char>, std::__1::allocator<char> >::__short"* %163, i64 0, i32 1, i32 0
  %165 = load i8, i8* %164, align 1
  %166 = icmp slt i8 %165, 0
  br i1 %166, label %167, label %169

167:                                              ; preds = %159
  %168 = load i8*, i8** %130, align 8
  call void @_ZdlPv(i8* %168) #16
  br label %169

169:                                              ; preds = %159, %167
  %170 = bitcast %"class.std::__1::basic_string"* %12 to %"struct.std::__1::basic_string<char, std::__1::char_traits<char>, std::__1::allocator<char> >::__short"*
  %171 = getelementptr inbounds %"struct.std::__1::basic_string<char, std::__1::char_traits<char>, std::__1::allocator<char> >::__short", %"struct.std::__1::basic_string<char, std::__1::char_traits<char>, std::__1::allocator<char> >::__short"* %170, i64 0, i32 1, i32 0
  store i8 0, i8* %171, align 1
  %172 = bitcast %"class.std::__1::basic_string"* %12 to i8*
  store i8 0, i8* %172, align 8
  call void @_ZN11flatbuffers10CodeWriterpLENSt3__112basic_stringIcNS1_11char_traitsIcEENS1_9allocatorIcEEEE(%"class.flatbuffers::CodeWriter"* %44, %"class.std::__1::basic_string"* nonnull %12) #14
  %173 = load i8, i8* %171, align 1
  %174 = icmp slt i8 %173, 0
  br i1 %174, label %175, label %178

175:                                              ; preds = %169
  %176 = getelementptr inbounds %"class.std::__1::basic_string", %"class.std::__1::basic_string"* %12, i64 0, i32 0, i32 0, i32 0, i32 0, i32 0, i32 0
  %177 = load i8*, i8** %176, align 8
  call void @_ZdlPv(i8* %177) #16
  br label %178

178:                                              ; preds = %169, %175
  %179 = getelementptr inbounds %"class.std::__1::basic_string", %"class.std::__1::basic_string"* %13, i64 0, i32 0, i32 0, i32 0, i32 0, i32 0, i32 0
  %180 = getelementptr inbounds %"class.std::__1::basic_string", %"class.std::__1::basic_string"* %13, i64 0, i32 0, i32 0, i32 0, i32 0, i32 0, i32 1
  %181 = getelementptr inbounds %"class.std::__1::basic_string", %"class.std::__1::basic_string"* %13, i64 0, i32 0, i32 0, i32 0, i32 0, i32 0, i32 2
  %182 = bitcast %"class.std::__1::basic_string"* %13 to i8*
  call void @llvm.memset.p0i8.i64(i8* nonnull align 8 %182, i8 0, i64 24, i1 false) #14, !alias.scope !30
  %183 = load i8, i8* %93, align 1, !noalias !30
  %184 = icmp slt i8 %183, 0
  %185 = load i64, i64* %17, align 8
  %186 = load i8*, i8** %16, align 8
  %187 = zext i8 %183 to i64
  %188 = select i1 %184, i64 %185, i64 %187
  %189 = select i1 %184, i8* %186, i8* %15
  %190 = add i64 %188, 25
  %191 = icmp ugt i64 %190, -17
  br i1 %191, label %192, label %194

192:                                              ; preds = %178
  %193 = bitcast %"class.std::__1::basic_string"* %13 to %"class.std::__1::__basic_string_common"*
  call void @_ZNKSt3__121__basic_string_commonILb1EE20__throw_length_errorEv(%"class.std::__1::__basic_string_common"* nonnull %193) #17
  unreachable

194:                                              ; preds = %178
  %195 = icmp ult i64 %190, 23
  br i1 %195, label %196, label %200

196:                                              ; preds = %194
  %197 = trunc i64 %188 to i8
  %198 = bitcast %"class.std::__1::basic_string"* %13 to %"struct.std::__1::basic_string<char, std::__1::char_traits<char>, std::__1::allocator<char> >::__short"*
  %199 = getelementptr inbounds %"struct.std::__1::basic_string<char, std::__1::char_traits<char>, std::__1::allocator<char> >::__short", %"struct.std::__1::basic_string<char, std::__1::char_traits<char>, std::__1::allocator<char> >::__short"* %198, i64 0, i32 1, i32 0
  store i8 %197, i8* %199, align 1, !alias.scope !30
  br label %206

200:                                              ; preds = %194
  %201 = add i64 %188, 41
  %202 = and i64 %201, -16
  %203 = call i8* @_Znwm(i64 %202) #16
  store i8* %203, i8** %179, align 8, !alias.scope !30
  %204 = or i64 %202, -9223372036854775808
  store i64 %204, i64* %181, align 8, !alias.scope !30
  store i64 %188, i64* %180, align 8, !alias.scope !30
  %205 = icmp eq i64 %188, 0
  br i1 %205, label %208, label %206

206:                                              ; preds = %196, %200
  %207 = phi i8* [ %182, %196 ], [ %203, %200 ]
  call void @llvm.memcpy.p0i8.p0i8.i64(i8* nonnull align 1 %207, i8* align 1 %189, i64 %188, i1 false) #14
  br label %208

208:                                              ; preds = %200, %206
  %209 = phi i8* [ %203, %200 ], [ %207, %206 ]
  %210 = getelementptr inbounds i8, i8* %209, i64 %188
  store i8 0, i8* %210, align 1
  %211 = call dereferenceable(24) %"class.std::__1::basic_string"* @_ZNSt3__112basic_stringIcNS_11char_traitsIcEENS_9allocatorIcEEE6appendEPKcm(%"class.std::__1::basic_string"* nonnull %13, i8* getelementptr inbounds ([26 x i8], [26 x i8]* @.str.89, i64 0, i64 0), i64 25) #14
  call void @_ZN11flatbuffers10CodeWriterpLENSt3__112basic_stringIcNS1_11char_traitsIcEENS1_9allocatorIcEEEE(%"class.flatbuffers::CodeWriter"* %44, %"class.std::__1::basic_string"* nonnull %13) #14
  %212 = bitcast %"class.std::__1::basic_string"* %13 to %"struct.std::__1::basic_string<char, std::__1::char_traits<char>, std::__1::allocator<char> >::__short"*
  %213 = getelementptr inbounds %"struct.std::__1::basic_string<char, std::__1::char_traits<char>, std::__1::allocator<char> >::__short", %"struct.std::__1::basic_string<char, std::__1::char_traits<char>, std::__1::allocator<char> >::__short"* %212, i64 0, i32 1, i32 0
  %214 = load i8, i8* %213, align 1
  %215 = icmp slt i8 %214, 0
  br i1 %215, label %216, label %218

216:                                              ; preds = %208
  %217 = load i8*, i8** %179, align 8
  call void @_ZdlPv(i8* %217) #16
  br label %218

218:                                              ; preds = %208, %216
  %219 = getelementptr inbounds %"class.std::__1::basic_string", %"class.std::__1::basic_string"* %14, i64 0, i32 0, i32 0, i32 0, i32 0, i32 0, i32 0
  %220 = getelementptr inbounds %"class.std::__1::basic_string", %"class.std::__1::basic_string"* %14, i64 0, i32 0, i32 0, i32 0, i32 0, i32 0, i32 1
  %221 = getelementptr inbounds %"class.std::__1::basic_string", %"class.std::__1::basic_string"* %14, i64 0, i32 0, i32 0, i32 0, i32 0, i32 0, i32 2
  %222 = bitcast %"class.std::__1::basic_string"* %14 to i8*
  call void @llvm.memset.p0i8.i64(i8* nonnull align 8 %222, i8 0, i64 24, i1 false) #14, !alias.scope !33
  %223 = load i8, i8* %93, align 1, !noalias !33
  %224 = icmp slt i8 %223, 0
  %225 = load i64, i64* %17, align 8
  %226 = load i8*, i8** %16, align 8
  %227 = zext i8 %223 to i64
  %228 = select i1 %224, i64 %225, i64 %227
  %229 = select i1 %224, i8* %226, i8* %15
  %230 = add i64 %228, 36
  %231 = icmp ugt i64 %230, -17
  br i1 %231, label %232, label %234

232:                                              ; preds = %218
  %233 = bitcast %"class.std::__1::basic_string"* %14 to %"class.std::__1::__basic_string_common"*
  call void @_ZNKSt3__121__basic_string_commonILb1EE20__throw_length_errorEv(%"class.std::__1::__basic_string_common"* nonnull %233) #17
  unreachable

234:                                              ; preds = %218
  %235 = icmp ult i64 %230, 23
  br i1 %235, label %236, label %240

236:                                              ; preds = %234
  %237 = trunc i64 %228 to i8
  %238 = bitcast %"class.std::__1::basic_string"* %14 to %"struct.std::__1::basic_string<char, std::__1::char_traits<char>, std::__1::allocator<char> >::__short"*
  %239 = getelementptr inbounds %"struct.std::__1::basic_string<char, std::__1::char_traits<char>, std::__1::allocator<char> >::__short", %"struct.std::__1::basic_string<char, std::__1::char_traits<char>, std::__1::allocator<char> >::__short"* %238, i64 0, i32 1, i32 0
  store i8 %237, i8* %239, align 1, !alias.scope !33
  br label %246

240:                                              ; preds = %234
  %241 = add i64 %228, 52
  %242 = and i64 %241, -16
  %243 = call i8* @_Znwm(i64 %242) #16
  store i8* %243, i8** %219, align 8, !alias.scope !33
  %244 = or i64 %242, -9223372036854775808
  store i64 %244, i64* %221, align 8, !alias.scope !33
  store i64 %228, i64* %220, align 8, !alias.scope !33
  %245 = icmp eq i64 %228, 0
  br i1 %245, label %248, label %246

246:                                              ; preds = %236, %240
  %247 = phi i8* [ %222, %236 ], [ %243, %240 ]
  call void @llvm.memcpy.p0i8.p0i8.i64(i8* nonnull align 1 %247, i8* align 1 %229, i64 %228, i1 false) #14
  br label %248

248:                                              ; preds = %240, %246
  %249 = phi i8* [ %243, %240 ], [ %247, %246 ]
  %250 = getelementptr inbounds i8, i8* %249, i64 %228
  store i8 0, i8* %250, align 1
  %251 = call dereferenceable(24) %"class.std::__1::basic_string"* @_ZNSt3__112basic_stringIcNS_11char_traitsIcEENS_9allocatorIcEEE6appendEPKcm(%"class.std::__1::basic_string"* nonnull %14, i8* getelementptr inbounds ([37 x i8], [37 x i8]* @.str.90, i64 0, i64 0), i64 36) #14
  call void @_ZN11flatbuffers10CodeWriterpLENSt3__112basic_stringIcNS1_11char_traitsIcEENS1_9allocatorIcEEEE(%"class.flatbuffers::CodeWriter"* %44, %"class.std::__1::basic_string"* nonnull %14) #14
  %252 = bitcast %"class.std::__1::basic_string"* %14 to %"struct.std::__1::basic_string<char, std::__1::char_traits<char>, std::__1::allocator<char> >::__short"*
  %253 = getelementptr inbounds %"struct.std::__1::basic_string<char, std::__1::char_traits<char>, std::__1::allocator<char> >::__short", %"struct.std::__1::basic_string<char, std::__1::char_traits<char>, std::__1::allocator<char> >::__short"* %252, i64 0, i32 1, i32 0
  %254 = load i8, i8* %253, align 1
  %255 = icmp slt i8 %254, 0
  br i1 %255, label %256, label %258

256:                                              ; preds = %248
  %257 = load i8*, i8** %219, align 8
  call void @_ZdlPv(i8* %257) #16
  br label %258

258:                                              ; preds = %248, %256
  %259 = load i8, i8* %93, align 1
  %260 = icmp slt i8 %259, 0
  br i1 %260, label %261, label %263

261:                                              ; preds = %258
  %262 = load i8*, i8** %16, align 8
  call void @_ZdlPv(i8* %262) #16
  br label %263

263:                                              ; preds = %258, %261
  call void @llvm.lifetime.end.p0i8(i64 24, i8* nonnull %15) #14
  ret void

264:                                              ; preds = %59, %373
  %265 = phi %"class.std::__1::__tree_end_node"* [ %54, %59 ], [ %374, %373 ]
  %266 = getelementptr inbounds %"class.std::__1::__tree_end_node", %"class.std::__1::__tree_end_node"* %265, i64 7
  %267 = bitcast %"class.std::__1::__tree_end_node"* %266 to %"class.std::__1::basic_string"*
  %268 = bitcast %"class.std::__1::__tree_end_node"* %266 to %"struct.std::__1::basic_string<char, std::__1::char_traits<char>, std::__1::allocator<char> >::__short"*
  %269 = getelementptr inbounds %"struct.std::__1::basic_string<char, std::__1::char_traits<char>, std::__1::allocator<char> >::__short", %"struct.std::__1::basic_string<char, std::__1::char_traits<char>, std::__1::allocator<char> >::__short"* %268, i64 0, i32 1, i32 0
  %270 = load i8, i8* %269, align 1
  %271 = icmp slt i8 %270, 0
  br i1 %271, label %272, label %276

272:                                              ; preds = %264
  %273 = getelementptr inbounds %"class.std::__1::__tree_end_node", %"class.std::__1::__tree_end_node"* %265, i64 8
  %274 = bitcast %"class.std::__1::__tree_end_node"* %273 to i64*
  %275 = load i64, i64* %274, align 8
  br label %278

276:                                              ; preds = %264
  %277 = zext i8 %270 to i64
  br label %278

278:                                              ; preds = %272, %276
  %279 = phi i64 [ %275, %272 ], [ %277, %276 ]
  %280 = icmp eq i64 %279, 0
  br i1 %280, label %345, label %281

281:                                              ; preds = %278
  call void @llvm.lifetime.start.p0i8(i64 24, i8* nonnull %60) #14
  call void @llvm.memset.p0i8.i64(i8* nonnull align 8 %85, i8 -86, i64 24, i1 false)
  call void @_ZN11flatbuffers14StripExtensionERKNSt3__112basic_stringIcNS0_11char_traitsIcEENS0_9allocatorIcEEEE(%"class.std::__1::basic_string"* nonnull sret %5, %"class.std::__1::basic_string"* dereferenceable(24) %267) #14
  call void @llvm.lifetime.start.p0i8(i64 24, i8* nonnull %62) #14
  call void @llvm.memset.p0i8.i64(i8* nonnull align 8 %86, i8 -86, i64 24, i1 false)
  call void @_ZN11flatbuffers9StripPathERKNSt3__112basic_stringIcNS0_11char_traitsIcEENS0_9allocatorIcEEEE(%"class.std::__1::basic_string"* nonnull sret %6, %"class.std::__1::basic_string"* nonnull dereferenceable(24) %5) #14
  call void @llvm.lifetime.start.p0i8(i64 24, i8* nonnull %65) #14
  call void @llvm.lifetime.start.p0i8(i64 24, i8* nonnull %66) #14
  call void @llvm.memset.p0i8.i64(i8* nonnull align 8 %66, i8 0, i64 24, i1 false) #14, !alias.scope !36
  %282 = load i8, i8* %71, align 1, !noalias !36
  %283 = icmp slt i8 %282, 0
  %284 = load i64, i64* %17, align 8
  %285 = load i8*, i8** %16, align 8
  %286 = zext i8 %282 to i64
  %287 = select i1 %283, i64 %284, i64 %286
  %288 = select i1 %283, i8* %285, i8* %15
  %289 = add i64 %287, 11
  %290 = icmp ugt i64 %289, -17
  br i1 %290, label %291, label %293

291:                                              ; preds = %281
  %292 = bitcast %"class.std::__1::basic_string"* %9 to %"class.std::__1::__basic_string_common"*
  call void @_ZNKSt3__121__basic_string_commonILb1EE20__throw_length_errorEv(%"class.std::__1::__basic_string_common"* nonnull %292) #17
  unreachable

293:                                              ; preds = %281
  %294 = icmp ult i64 %289, 23
  br i1 %294, label %300, label %295

295:                                              ; preds = %293
  %296 = add nuw i64 %287, 27
  %297 = and i64 %296, -16
  %298 = call i8* @_Znwm(i64 %297) #16
  store i8* %298, i8** %67, align 8, !alias.scope !36
  %299 = or i64 %297, -9223372036854775808
  store i64 %299, i64* %69, align 8, !alias.scope !36
  store i64 %287, i64* %68, align 8, !alias.scope !36
  br label %303

300:                                              ; preds = %293
  %301 = trunc i64 %287 to i8
  store i8 %301, i8* %73, align 1, !alias.scope !36
  %302 = icmp eq i64 %287, 0
  br i1 %302, label %305, label %303

303:                                              ; preds = %295, %300
  %304 = phi i8* [ %298, %295 ], [ %66, %300 ]
  call void @llvm.memcpy.p0i8.p0i8.i64(i8* nonnull align 1 %304, i8* align 1 %288, i64 %287, i1 false) #14
  br label %305

305:                                              ; preds = %300, %303
  %306 = phi i8* [ %66, %300 ], [ %304, %303 ]
  %307 = getelementptr inbounds i8, i8* %306, i64 %287
  store i8 0, i8* %307, align 1
  %308 = call dereferenceable(24) %"class.std::__1::basic_string"* @_ZNSt3__112basic_stringIcNS_11char_traitsIcEENS_9allocatorIcEEE6appendEPKcm(%"class.std::__1::basic_string"* nonnull %9, i8* getelementptr inbounds ([12 x i8], [12 x i8]* @.str.85, i64 0, i64 0), i64 11) #14
  %309 = load i8, i8* %75, align 1, !noalias !39
  %310 = icmp slt i8 %309, 0
  %311 = load i8*, i8** %63, align 8, !noalias !39
  %312 = load i64, i64* %64, align 8, !noalias !39
  %313 = zext i8 %309 to i64
  %314 = select i1 %310, i8* %311, i8* %62
  %315 = select i1 %310, i64 %312, i64 %313
  %316 = call dereferenceable(24) %"class.std::__1::basic_string"* @_ZNSt3__112basic_stringIcNS_11char_traitsIcEENS_9allocatorIcEEE6appendEPKcm(%"class.std::__1::basic_string"* nonnull %9, i8* %314, i64 %315) #14, !noalias !39
  %317 = bitcast %"class.std::__1::basic_string"* %316 to i8*
  call void @llvm.memcpy.p0i8.p0i8.i64(i8* nonnull align 8 %65, i8* align 8 %317, i64 24, i1 false) #14
  call void @llvm.memset.p0i8.i64(i8* align 8 %317, i8 0, i64 24, i1 false) #14, !noalias !39
  %318 = call dereferenceable(24) %"class.std::__1::basic_string"* @_ZNSt3__112basic_stringIcNS_11char_traitsIcEENS_9allocatorIcEEE6appendEPKc(%"class.std::__1::basic_string"* nonnull %8, i8* getelementptr inbounds ([15 x i8], [15 x i8]* @.str.86, i64 0, i64 0)) #14, !noalias !42
  %319 = bitcast %"class.std::__1::basic_string"* %318 to i8*
  call void @llvm.memcpy.p0i8.p0i8.i64(i8* nonnull align 8 %76, i8* align 8 %319, i64 24, i1 false) #14
  call void @llvm.memset.p0i8.i64(i8* align 8 %319, i8 0, i64 24, i1 false) #14, !noalias !42
  call void @_ZN11flatbuffers10CodeWriterpLENSt3__112basic_stringIcNS1_11char_traitsIcEENS1_9allocatorIcEEEE(%"class.flatbuffers::CodeWriter"* %44, %"class.std::__1::basic_string"* nonnull %7) #14
  %320 = load i8, i8* %78, align 1
  %321 = icmp slt i8 %320, 0
  br i1 %321, label %322, label %324

322:                                              ; preds = %305
  %323 = load i8*, i8** %79, align 8
  call void @_ZdlPv(i8* %323) #16
  br label %324

324:                                              ; preds = %305, %322
  %325 = load i8, i8* %81, align 1
  %326 = icmp slt i8 %325, 0
  br i1 %326, label %327, label %329

327:                                              ; preds = %324
  %328 = load i8*, i8** %82, align 8
  call void @_ZdlPv(i8* %328) #16
  br label %329

329:                                              ; preds = %324, %327
  %330 = load i8, i8* %73, align 1
  %331 = icmp slt i8 %330, 0
  br i1 %331, label %332, label %334

332:                                              ; preds = %329
  %333 = load i8*, i8** %67, align 8
  call void @_ZdlPv(i8* %333) #16
  br label %334

334:                                              ; preds = %329, %332
  call void @llvm.lifetime.end.p0i8(i64 24, i8* nonnull %66) #14
  call void @llvm.lifetime.end.p0i8(i64 24, i8* nonnull %65) #14
  %335 = load i8, i8* %75, align 1
  %336 = icmp slt i8 %335, 0
  br i1 %336, label %337, label %339

337:                                              ; preds = %334
  %338 = load i8*, i8** %63, align 8
  call void @_ZdlPv(i8* %338) #16
  br label %339

339:                                              ; preds = %334, %337
  call void @llvm.lifetime.end.p0i8(i64 24, i8* nonnull %62) #14
  %340 = load i8, i8* %84, align 1
  %341 = icmp slt i8 %340, 0
  br i1 %341, label %342, label %344

342:                                              ; preds = %339
  %343 = load i8*, i8** %61, align 8
  call void @_ZdlPv(i8* %343) #16
  br label %344

344:                                              ; preds = %339, %342
  call void @llvm.lifetime.end.p0i8(i64 24, i8* nonnull %60) #14
  br label %345

345:                                              ; preds = %278, %344
  %346 = getelementptr inbounds %"class.std::__1::__tree_end_node", %"class.std::__1::__tree_end_node"* %265, i64 1, i32 0
  %347 = load %"class.std::__1::__tree_node_base"*, %"class.std::__1::__tree_node_base"** %346, align 8
  %348 = icmp eq %"class.std::__1::__tree_node_base"* %347, null
  br i1 %348, label %349, label %357

349:                                              ; preds = %345
  %350 = bitcast %"class.std::__1::__tree_end_node"* %265 to %"class.std::__1::__tree_node_base"*
  %351 = getelementptr inbounds %"class.std::__1::__tree_end_node", %"class.std::__1::__tree_end_node"* %265, i64 2
  %352 = bitcast %"class.std::__1::__tree_end_node"* %351 to %"class.std::__1::__tree_end_node"**
  %353 = load %"class.std::__1::__tree_end_node"*, %"class.std::__1::__tree_end_node"** %352, align 8
  %354 = getelementptr inbounds %"class.std::__1::__tree_end_node", %"class.std::__1::__tree_end_node"* %353, i64 0, i32 0
  %355 = load %"class.std::__1::__tree_node_base"*, %"class.std::__1::__tree_node_base"** %354, align 8
  %356 = icmp eq %"class.std::__1::__tree_node_base"* %355, %350
  br i1 %356, label %373, label %364

357:                                              ; preds = %345, %357
  %358 = phi %"class.std::__1::__tree_node_base"* [ %360, %357 ], [ %347, %345 ]
  %359 = getelementptr inbounds %"class.std::__1::__tree_node_base", %"class.std::__1::__tree_node_base"* %358, i64 0, i32 0, i32 0
  %360 = load %"class.std::__1::__tree_node_base"*, %"class.std::__1::__tree_node_base"** %359, align 8
  %361 = icmp eq %"class.std::__1::__tree_node_base"* %360, null
  br i1 %361, label %362, label %357

362:                                              ; preds = %357
  %363 = getelementptr inbounds %"class.std::__1::__tree_node_base", %"class.std::__1::__tree_node_base"* %358, i64 0, i32 0
  br label %373

364:                                              ; preds = %349, %364
  %365 = phi %"class.std::__1::__tree_end_node"** [ %368, %364 ], [ %352, %349 ]
  %366 = bitcast %"class.std::__1::__tree_end_node"** %365 to %"class.std::__1::__tree_node_base"**
  %367 = load %"class.std::__1::__tree_node_base"*, %"class.std::__1::__tree_node_base"** %366, align 8
  %368 = getelementptr inbounds %"class.std::__1::__tree_node_base", %"class.std::__1::__tree_node_base"* %367, i64 0, i32 2
  %369 = load %"class.std::__1::__tree_end_node"*, %"class.std::__1::__tree_end_node"** %368, align 8
  %370 = getelementptr inbounds %"class.std::__1::__tree_end_node", %"class.std::__1::__tree_end_node"* %369, i64 0, i32 0
  %371 = load %"class.std::__1::__tree_node_base"*, %"class.std::__1::__tree_node_base"** %370, align 8
  %372 = icmp eq %"class.std::__1::__tree_node_base"* %371, %367
  br i1 %372, label %373, label %364

373:                                              ; preds = %364, %349, %362
  %374 = phi %"class.std::__1::__tree_end_node"* [ %363, %362 ], [ %353, %349 ], [ %369, %364 ]
  %375 = load %"class.flatbuffers::Parser"*, %"class.flatbuffers::Parser"** %51, align 8
  %376 = getelementptr inbounds %"class.flatbuffers::Parser", %"class.flatbuffers::Parser"* %375, i64 0, i32 15, i32 0, i32 1, i32 0, i32 0
  %377 = icmp eq %"class.std::__1::__tree_end_node"* %374, %376
  br i1 %377, label %87, label %264
}

; Function Attrs: nounwind ssp uwtable
define linkonce_odr hidden void @_ZN11flatbuffers4rust13RustGenerator12SetNameSpaceEPKNS_9NamespaceE(%"class.flatbuffers::rust::RustGenerator"*, %"struct.flatbuffers::Namespace"*) local_unnamed_addr #0 comdat align 2 {
  %3 = alloca %"class.std::__1::basic_string", align 8
  %4 = alloca %"class.std::__1::basic_string", align 8
  %5 = alloca %"class.std::__1::basic_string", align 8
  %6 = alloca %"class.std::__1::basic_string", align 8
  %7 = alloca %"class.std::__1::basic_string", align 8
  %8 = alloca %"class.std::__1::basic_string", align 8
  %9 = alloca %"class.std::__1::basic_string", align 8
  %10 = getelementptr inbounds %"class.flatbuffers::rust::RustGenerator", %"class.flatbuffers::rust::RustGenerator"* %0, i64 0, i32 3
  %11 = load %"struct.flatbuffers::Namespace"*, %"struct.flatbuffers::Namespace"** %10, align 8
  %12 = icmp eq %"struct.flatbuffers::Namespace"* %11, %1
  br i1 %12, label %202, label %13

13:                                               ; preds = %2
  %14 = icmp eq %"struct.flatbuffers::Namespace"* %11, null
  br i1 %14, label %23, label %15

15:                                               ; preds = %13
  %16 = getelementptr inbounds %"struct.flatbuffers::Namespace", %"struct.flatbuffers::Namespace"* %11, i64 0, i32 0, i32 0, i32 1
  %17 = bitcast %"class.std::__1::basic_string"** %16 to i64*
  %18 = load i64, i64* %17, align 8
  %19 = bitcast %"struct.flatbuffers::Namespace"* %11 to i64*
  %20 = load i64, i64* %19, align 8
  %21 = sub i64 %18, %20
  %22 = sdiv exact i64 %21, 24
  br label %23

23:                                               ; preds = %13, %15
  %24 = phi i64 [ %22, %15 ], [ 0, %13 ]
  %25 = icmp eq %"struct.flatbuffers::Namespace"* %1, null
  br i1 %25, label %100, label %26

26:                                               ; preds = %23
  %27 = getelementptr inbounds %"struct.flatbuffers::Namespace", %"struct.flatbuffers::Namespace"* %1, i64 0, i32 0, i32 0, i32 1
  %28 = bitcast %"class.std::__1::basic_string"** %27 to i64*
  %29 = load i64, i64* %28, align 8
  %30 = bitcast %"struct.flatbuffers::Namespace"* %1 to i64*
  %31 = load i64, i64* %30, align 8
  %32 = sub i64 %29, %31
  %33 = sdiv exact i64 %32, 24
  %34 = icmp ne i64 %24, 0
  %35 = icmp ne i64 %32, 0
  %36 = and i1 %34, %35
  br i1 %36, label %37, label %100

37:                                               ; preds = %26
  %38 = getelementptr inbounds %"struct.flatbuffers::Namespace", %"struct.flatbuffers::Namespace"* %1, i64 0, i32 0, i32 0, i32 0
  %39 = load %"class.std::__1::basic_string"*, %"class.std::__1::basic_string"** %38, align 8
  %40 = getelementptr inbounds %"struct.flatbuffers::Namespace", %"struct.flatbuffers::Namespace"* %11, i64 0, i32 0, i32 0, i32 0
  %41 = load %"class.std::__1::basic_string"*, %"class.std::__1::basic_string"** %40, align 8
  br label %42

42:                                               ; preds = %37, %95
  %43 = phi i64 [ 0, %37 ], [ %96, %95 ]
  %44 = getelementptr inbounds %"class.std::__1::basic_string", %"class.std::__1::basic_string"* %39, i64 %43
  %45 = getelementptr inbounds %"class.std::__1::basic_string", %"class.std::__1::basic_string"* %41, i64 %43
  %46 = bitcast %"class.std::__1::basic_string"* %44 to %"struct.std::__1::basic_string<char, std::__1::char_traits<char>, std::__1::allocator<char> >::__short"*
  %47 = getelementptr inbounds %"struct.std::__1::basic_string<char, std::__1::char_traits<char>, std::__1::allocator<char> >::__short", %"struct.std::__1::basic_string<char, std::__1::char_traits<char>, std::__1::allocator<char> >::__short"* %46, i64 0, i32 1, i32 0
  %48 = load i8, i8* %47, align 1
  %49 = icmp slt i8 %48, 0
  %50 = getelementptr inbounds %"class.std::__1::basic_string", %"class.std::__1::basic_string"* %39, i64 %43, i32 0, i32 0, i32 0, i32 0, i32 0, i32 1
  %51 = load i64, i64* %50, align 8
  %52 = zext i8 %48 to i64
  %53 = select i1 %49, i64 %51, i64 %52
  %54 = bitcast %"class.std::__1::basic_string"* %45 to %"struct.std::__1::basic_string<char, std::__1::char_traits<char>, std::__1::allocator<char> >::__short"*
