; ModuleID = '../../third_party/flatbuffers/src/src/idl_gen_kotlin.cpp'
source_filename = "../../third_party/flatbuffers/src/src/idl_gen_kotlin.cpp"
target datalayout = "e-m:e-i64:64-f80:128-n8:16:32:64-S128"
target triple = "x86_64-unknown-linux-gnu"

module asm ".symver exp, exp@GLIBC_2.2.5"
module asm ".symver exp2, exp2@GLIBC_2.2.5"
module asm ".symver exp2f, exp2f@GLIBC_2.2.5"
module asm ".symver expf, expf@GLIBC_2.2.5"
module asm ".symver lgamma, lgamma@GLIBC_2.2.5"
module asm ".symver lgammaf, lgammaf@GLIBC_2.2.5"
module asm ".symver lgammal, lgammal@GLIBC_2.2.5"
module asm ".symver log, log@GLIBC_2.2.5"
module asm ".symver log2, log2@GLIBC_2.2.5"
module asm ".symver log2f, log2f@GLIBC_2.2.5"
module asm ".symver logf, logf@GLIBC_2.2.5"
module asm ".symver pow, pow@GLIBC_2.2.5"
module asm ".symver powf, powf@GLIBC_2.2.5"

%"class.flatbuffers::TypedFloatConstantGenerator" = type { %"class.flatbuffers::FloatConstantGenerator", %"class.std::__1::basic_string", %"class.std::__1::basic_string", %"class.std::__1::basic_string", %"class.std::__1::basic_string", %"class.std::__1::basic_string" }
%"class.flatbuffers::FloatConstantGenerator" = type { i32 (...)** }
%"class.std::__1::basic_string" = type { %"class.std::__1::__compressed_pair" }
%"class.std::__1::__compressed_pair" = type { %"struct.std::__1::__compressed_pair_elem" }
%"struct.std::__1::__compressed_pair_elem" = type { %"struct.std::__1::basic_string<char, std::__1::char_traits<char>, std::__1::allocator<char> >::__rep" }
%"struct.std::__1::basic_string<char, std::__1::char_traits<char>, std::__1::allocator<char> >::__rep" = type { %union.anon }
%union.anon = type { %"struct.std::__1::basic_string<char, std::__1::char_traits<char>, std::__1::allocator<char> >::__long" }
%"struct.std::__1::basic_string<char, std::__1::char_traits<char>, std::__1::allocator<char> >::__long" = type { i8*, i64, i64 }
%"struct.flatbuffers::CommentConfig" = type { i8*, i8*, i8* }
%"struct.std::__1::piecewise_construct_t" = type { i8 }
%"struct.std::__1::__function::__policy" = type { i8* (i8*)*, void (i8*)*, i8, %"class.std::type_info"* }
%"class.std::type_info" = type { i32 (...)**, i8* }
%"class.std::__1::locale::id" = type <{ %"struct.std::__1::once_flag", i32, [4 x i8] }>
%"struct.std::__1::once_flag" = type { i64 }
%"struct.std::__1::basic_string<char, std::__1::char_traits<char>, std::__1::allocator<char> >::__short" = type { [23 x i8], %struct.anon }
%struct.anon = type { i8 }
%"class.flatbuffers::Parser" = type { %"struct.flatbuffers::ParserState", %"class.flatbuffers::SymbolTable", %"class.flatbuffers::SymbolTable.57", %"class.flatbuffers::SymbolTable.74", %"class.flatbuffers::SymbolTable.91", %"class.std::__1::vector.125", %"struct.flatbuffers::Namespace"*, %"struct.flatbuffers::Namespace"*, %"class.std::__1::basic_string", %"class.flatbuffers::FlatBufferBuilder", %"class.flexbuffers::Builder", %"class.flexbuffers::Reference", %"struct.flatbuffers::StructDef"*, %"class.std::__1::basic_string", %"class.std::__1::basic_string", %"class.std::__1::map.170", %"class.std::__1::map.179", %"class.std::__1::vector", %"class.std::__1::map.188", %"struct.flatbuffers::IDLOptions", i8, i8*, %"class.std::__1::basic_string", %"class.std::__1::vector.197", i32, i32 }
%"struct.flatbuffers::ParserState" = type { i8*, i8*, i32, i32, i8, %"class.std::__1::basic_string", %"class.std::__1::vector" }
%"class.flatbuffers::SymbolTable" = type { %"class.std::__1::map", %"class.std::__1::vector.14" }
%"class.std::__1::map" = type { %"class.std::__1::__tree" }
%"class.std::__1::__tree" = type { %"class.std::__1::__tree_end_node"*, %"class.std::__1::__compressed_pair.6", %"class.std::__1::__compressed_pair.11" }
%"class.std::__1::__tree_end_node" = type { %"class.std::__1::__tree_node_base"* }
%"class.std::__1::__tree_node_base" = type <{ %"class.std::__1::__tree_end_node", %"class.std::__1::__tree_node_base"*, %"class.std::__1::__tree_end_node"*, i8, [7 x i8] }>
%"class.std::__1::__compressed_pair.6" = type { %"struct.std::__1::__compressed_pair_elem.7" }
%"struct.std::__1::__compressed_pair_elem.7" = type { %"class.std::__1::__tree_end_node" }
%"class.std::__1::__compressed_pair.11" = type { %"struct.std::__1::__compressed_pair_elem.12" }
%"struct.std::__1::__compressed_pair_elem.12" = type { i64 }
%"class.std::__1::vector.14" = type { %"class.std::__1::__vector_base.15" }
%"class.std::__1::__vector_base.15" = type { %"struct.flatbuffers::Type"**, %"struct.flatbuffers::Type"**, %"class.std::__1::__compressed_pair.52" }
%"struct.flatbuffers::Type" = type <{ i32, i32, %"struct.flatbuffers::StructDef"*, %"struct.flatbuffers::EnumDef"*, i16, [6 x i8] }>
%"struct.flatbuffers::EnumDef" = type { %"struct.flatbuffers::Definition.base", i8, i8, [2 x i8], %"struct.flatbuffers::Type", %"class.flatbuffers::SymbolTable.204" }
%"struct.flatbuffers::Definition.base" = type <{ %"class.std::__1::basic_string", %"class.std::__1::basic_string", %"class.std::__1::vector", %"class.flatbuffers::SymbolTable.16", i8, [7 x i8], %"struct.flatbuffers::Namespace"*, i32, i32, i32 }>
%"class.flatbuffers::SymbolTable.16" = type { %"class.std::__1::map.17", %"class.std::__1::vector.26" }
%"class.std::__1::map.17" = type { %"class.std::__1::__tree.18" }
%"class.std::__1::__tree.18" = type { %"class.std::__1::__tree_end_node"*, %"class.std::__1::__compressed_pair.19", %"class.std::__1::__compressed_pair.23" }
%"class.std::__1::__compressed_pair.19" = type { %"struct.std::__1::__compressed_pair_elem.7" }
%"class.std::__1::__compressed_pair.23" = type { %"struct.std::__1::__compressed_pair_elem.12" }
%"class.std::__1::vector.26" = type { %"class.std::__1::__vector_base.27" }
%"class.std::__1::__vector_base.27" = type { %"struct.flatbuffers::Value"**, %"struct.flatbuffers::Value"**, %"class.std::__1::__compressed_pair.28" }
%"struct.flatbuffers::Value" = type <{ %"struct.flatbuffers::Type", %"class.std::__1::basic_string", i16, [6 x i8] }>
%"class.std::__1::__compressed_pair.28" = type { %"struct.std::__1::__compressed_pair_elem.29" }
%"struct.std::__1::__compressed_pair_elem.29" = type { %"struct.flatbuffers::Value"** }
%"class.flatbuffers::SymbolTable.204" = type { %"class.std::__1::map.205", %"class.std::__1::vector.214" }
%"class.std::__1::map.205" = type { %"class.std::__1::__tree.206" }
%"class.std::__1::__tree.206" = type { %"class.std::__1::__tree_end_node"*, %"class.std::__1::__compressed_pair.207", %"class.std::__1::__compressed_pair.211" }
%"class.std::__1::__compressed_pair.207" = type { %"struct.std::__1::__compressed_pair_elem.7" }
%"class.std::__1::__compressed_pair.211" = type { %"struct.std::__1::__compressed_pair_elem.12" }
%"class.std::__1::vector.214" = type { %"class.std::__1::__vector_base.215" }
%"class.std::__1::__vector_base.215" = type { %"struct.flatbuffers::EnumVal"**, %"struct.flatbuffers::EnumVal"**, %"class.std::__1::__compressed_pair.216" }
%"struct.flatbuffers::EnumVal" = type { %"class.std::__1::basic_string", %"class.std::__1::vector", %"struct.flatbuffers::Type", i64 }
%"class.std::__1::__compressed_pair.216" = type { %"struct.std::__1::__compressed_pair_elem.217" }
%"struct.std::__1::__compressed_pair_elem.217" = type { %"struct.flatbuffers::EnumVal"** }
%"class.std::__1::__compressed_pair.52" = type { %"struct.std::__1::__compressed_pair_elem.53" }
%"struct.std::__1::__compressed_pair_elem.53" = type { %"struct.flatbuffers::Type"** }
%"class.flatbuffers::SymbolTable.57" = type { %"class.std::__1::map.58", %"class.std::__1::vector.67" }
%"class.std::__1::map.58" = type { %"class.std::__1::__tree.59" }
%"class.std::__1::__tree.59" = type { %"class.std::__1::__tree_end_node"*, %"class.std::__1::__compressed_pair.60", %"class.std::__1::__compressed_pair.64" }
%"class.std::__1::__compressed_pair.60" = type { %"struct.std::__1::__compressed_pair_elem.7" }
%"class.std::__1::__compressed_pair.64" = type { %"struct.std::__1::__compressed_pair_elem.12" }
%"class.std::__1::vector.67" = type { %"class.std::__1::__vector_base.68" }
%"class.std::__1::__vector_base.68" = type { %"struct.flatbuffers::StructDef"**, %"struct.flatbuffers::StructDef"**, %"class.std::__1::__compressed_pair.69" }
%"class.std::__1::__compressed_pair.69" = type { %"struct.std::__1::__compressed_pair_elem.70" }
%"struct.std::__1::__compressed_pair_elem.70" = type { %"struct.flatbuffers::StructDef"** }
%"class.flatbuffers::SymbolTable.74" = type { %"class.std::__1::map.75", %"class.std::__1::vector.84" }
%"class.std::__1::map.75" = type { %"class.std::__1::__tree.76" }
%"class.std::__1::__tree.76" = type { %"class.std::__1::__tree_end_node"*, %"class.std::__1::__compressed_pair.77", %"class.std::__1::__compressed_pair.81" }
%"class.std::__1::__compressed_pair.77" = type { %"struct.std::__1::__compressed_pair_elem.7" }
%"class.std::__1::__compressed_pair.81" = type { %"struct.std::__1::__compressed_pair_elem.12" }
%"class.std::__1::vector.84" = type { %"class.std::__1::__vector_base.85" }
%"class.std::__1::__vector_base.85" = type { %"struct.flatbuffers::EnumDef"**, %"struct.flatbuffers::EnumDef"**, %"class.std::__1::__compressed_pair.86" }
%"class.std::__1::__compressed_pair.86" = type { %"struct.std::__1::__compressed_pair_elem.87" }
%"struct.std::__1::__compressed_pair_elem.87" = type { %"struct.flatbuffers::EnumDef"** }
%"class.flatbuffers::SymbolTable.91" = type { %"class.std::__1::map.92", %"class.std::__1::vector.101" }
%"class.std::__1::map.92" = type { %"class.std::__1::__tree.93" }
%"class.std::__1::__tree.93" = type { %"class.std::__1::__tree_end_node"*, %"class.std::__1::__compressed_pair.94", %"class.std::__1::__compressed_pair.98" }
%"class.std::__1::__compressed_pair.94" = type { %"struct.std::__1::__compressed_pair_elem.7" }
%"class.std::__1::__compressed_pair.98" = type { %"struct.std::__1::__compressed_pair_elem.12" }
%"class.std::__1::vector.101" = type { %"class.std::__1::__vector_base.102" }
%"class.std::__1::__vector_base.102" = type { %"struct.flatbuffers::ServiceDef"**, %"struct.flatbuffers::ServiceDef"**, %"class.std::__1::__compressed_pair.120" }
%"struct.flatbuffers::ServiceDef" = type { %"struct.flatbuffers::Definition.base", %"class.flatbuffers::SymbolTable.103" }
%"class.flatbuffers::SymbolTable.103" = type { %"class.std::__1::map.104", %"class.std::__1::vector.113" }
%"class.std::__1::map.104" = type { %"class.std::__1::__tree.105" }
%"class.std::__1::__tree.105" = type { %"class.std::__1::__tree_end_node"*, %"class.std::__1::__compressed_pair.106", %"class.std::__1::__compressed_pair.110" }
%"class.std::__1::__compressed_pair.106" = type { %"struct.std::__1::__compressed_pair_elem.7" }
%"class.std::__1::__compressed_pair.110" = type { %"struct.std::__1::__compressed_pair_elem.12" }
%"class.std::__1::vector.113" = type { %"class.std::__1::__vector_base.114" }
%"class.std::__1::__vector_base.114" = type { %"struct.flatbuffers::RPCCall"**, %"struct.flatbuffers::RPCCall"**, %"class.std::__1::__compressed_pair.115" }
%"struct.flatbuffers::RPCCall" = type { %"struct.flatbuffers::Definition.base", %"struct.flatbuffers::StructDef"*, %"struct.flatbuffers::StructDef"* }
%"class.std::__1::__compressed_pair.115" = type { %"struct.std::__1::__compressed_pair_elem.116" }
%"struct.std::__1::__compressed_pair_elem.116" = type { %"struct.flatbuffers::RPCCall"** }
%"class.std::__1::__compressed_pair.120" = type { %"struct.std::__1::__compressed_pair_elem.121" }
%"struct.std::__1::__compressed_pair_elem.121" = type { %"struct.flatbuffers::ServiceDef"** }
%"class.std::__1::vector.125" = type { %"class.std::__1::__vector_base.126" }
%"class.std::__1::__vector_base.126" = type { %"struct.flatbuffers::Namespace"**, %"struct.flatbuffers::Namespace"**, %"class.std::__1::__compressed_pair.127" }
%"class.std::__1::__compressed_pair.127" = type { %"struct.std::__1::__compressed_pair_elem.128" }
%"struct.std::__1::__compressed_pair_elem.128" = type { %"struct.flatbuffers::Namespace"** }
%"struct.flatbuffers::Namespace" = type { %"class.std::__1::vector", i64 }
%"class.flatbuffers::FlatBufferBuilder" = type { %"class.flatbuffers::vector_downward", i32, i16, i8, i8, i64, i8, i8, %"class.std::__1::set"* }
%"class.flatbuffers::vector_downward" = type { %"class.flatbuffers::Allocator"*, i8, i64, i64, i64, i8*, i8*, i8* }
%"class.flatbuffers::Allocator" = type { i32 (...)** }
%"class.std::__1::set" = type { %"class.std::__1::__tree.132" }
%"class.std::__1::__tree.132" = type { %"class.std::__1::__tree_end_node"*, %"class.std::__1::__compressed_pair.133", %"class.std::__1::__compressed_pair.137" }
%"class.std::__1::__compressed_pair.133" = type { %"struct.std::__1::__compressed_pair_elem.7" }
%"class.std::__1::__compressed_pair.137" = type { %"struct.std::__1::__compressed_pair_elem.12", %"struct.std::__1::__compressed_pair_elem.138" }
%"struct.std::__1::__compressed_pair_elem.138" = type { %"struct.flatbuffers::FlatBufferBuilder::StringOffsetCompare" }
%"struct.flatbuffers::FlatBufferBuilder::StringOffsetCompare" = type { %"class.flatbuffers::vector_downward"* }
%"class.flexbuffers::Builder" = type { %"class.std::__1::vector.139", %"class.std::__1::vector.146", i8, i32, i32, %"class.std::__1::set.154", %"class.std::__1::set.162" }
%"class.std::__1::vector.139" = type { %"class.std::__1::__vector_base.140" }
%"class.std::__1::__vector_base.140" = type { i8*, i8*, %"class.std::__1::__compressed_pair.141" }
%"class.std::__1::__compressed_pair.141" = type { %"struct.std::__1::__compressed_pair_elem.142" }
%"struct.std::__1::__compressed_pair_elem.142" = type { i8* }
%"class.std::__1::vector.146" = type { %"class.std::__1::__vector_base.147" }
%"class.std::__1::__vector_base.147" = type { %"struct.flexbuffers::Builder::Value"*, %"struct.flexbuffers::Builder::Value"*, %"class.std::__1::__compressed_pair.149" }
%"struct.flexbuffers::Builder::Value" = type { %union.anon.148, i32, i32 }
%union.anon.148 = type { i64 }
%"class.std::__1::__compressed_pair.149" = type { %"struct.std::__1::__compressed_pair_elem.150" }
%"struct.std::__1::__compressed_pair_elem.150" = type { %"struct.flexbuffers::Builder::Value"* }
%"class.std::__1::set.154" = type { %"class.std::__1::__tree.155" }
%"class.std::__1::__tree.155" = type { %"class.std::__1::__tree_end_node"*, %"class.std::__1::__compressed_pair.156", %"class.std::__1::__compressed_pair.160" }
%"class.std::__1::__compressed_pair.156" = type { %"struct.std::__1::__compressed_pair_elem.7" }
%"class.std::__1::__compressed_pair.160" = type { %"struct.std::__1::__compressed_pair_elem.12", %"struct.std::__1::__compressed_pair_elem.161" }
%"struct.std::__1::__compressed_pair_elem.161" = type { %"struct.flexbuffers::Builder::KeyOffsetCompare" }
%"struct.flexbuffers::Builder::KeyOffsetCompare" = type { %"class.std::__1::vector.139"* }
%"class.std::__1::set.162" = type { %"class.std::__1::__tree.163" }
%"class.std::__1::__tree.163" = type { %"class.std::__1::__tree_end_node"*, %"class.std::__1::__compressed_pair.164", %"class.std::__1::__compressed_pair.168" }
%"class.std::__1::__compressed_pair.164" = type { %"struct.std::__1::__compressed_pair_elem.7" }
%"class.std::__1::__compressed_pair.168" = type { %"struct.std::__1::__compressed_pair_elem.12", %"struct.std::__1::__compressed_pair_elem.169" }
%"struct.std::__1::__compressed_pair_elem.169" = type { %"struct.flexbuffers::Builder::StringOffsetCompare" }
%"struct.flexbuffers::Builder::StringOffsetCompare" = type { %"class.std::__1::vector.139"* }
%"class.flexbuffers::Reference" = type { i8*, i8, i8, i32 }
%"struct.flatbuffers::StructDef" = type { %"struct.flatbuffers::Definition.base", %"class.flatbuffers::SymbolTable.33", i8, i8, i8, i8, i64, i64, %"class.std::__1::unique_ptr" }
%"class.flatbuffers::SymbolTable.33" = type { %"class.std::__1::map.34", %"class.std::__1::vector.43" }
%"class.std::__1::map.34" = type { %"class.std::__1::__tree.35" }
%"class.std::__1::__tree.35" = type { %"class.std::__1::__tree_end_node"*, %"class.std::__1::__compressed_pair.36", %"class.std::__1::__compressed_pair.40" }
%"class.std::__1::__compressed_pair.36" = type { %"struct.std::__1::__compressed_pair_elem.7" }
%"class.std::__1::__compressed_pair.40" = type { %"struct.std::__1::__compressed_pair_elem.12" }
%"class.std::__1::vector.43" = type { %"class.std::__1::__vector_base.44" }
%"class.std::__1::__vector_base.44" = type { %"struct.flatbuffers::FieldDef"**, %"struct.flatbuffers::FieldDef"**, %"class.std::__1::__compressed_pair.45" }
%"struct.flatbuffers::FieldDef" = type { %"struct.flatbuffers::Definition.base", [4 x i8], %"struct.flatbuffers::Value", i8, i8, i8, i8, i8, i8, %"struct.flatbuffers::StructDef"*, i64 }
%"class.std::__1::__compressed_pair.45" = type { %"struct.std::__1::__compressed_pair_elem.46" }
%"struct.std::__1::__compressed_pair_elem.46" = type { %"struct.flatbuffers::FieldDef"** }
%"class.std::__1::unique_ptr" = type { %"class.std::__1::__compressed_pair.50" }
%"class.std::__1::__compressed_pair.50" = type { %"struct.std::__1::__compressed_pair_elem.2" }
%"struct.std::__1::__compressed_pair_elem.2" = type { %"class.std::__1::basic_string"* }
%"class.std::__1::map.170" = type { %"class.std::__1::__tree.171" }
%"class.std::__1::__tree.171" = type { %"class.std::__1::__tree_end_node"*, %"class.std::__1::__compressed_pair.172", %"class.std::__1::__compressed_pair.176" }
%"class.std::__1::__compressed_pair.172" = type { %"struct.std::__1::__compressed_pair_elem.7" }
%"class.std::__1::__compressed_pair.176" = type { %"struct.std::__1::__compressed_pair_elem.12" }
%"class.std::__1::map.179" = type { %"class.std::__1::__tree.180" }
%"class.std::__1::__tree.180" = type { %"class.std::__1::__tree_end_node"*, %"class.std::__1::__compressed_pair.181", %"class.std::__1::__compressed_pair.185" }
%"class.std::__1::__compressed_pair.181" = type { %"struct.std::__1::__compressed_pair_elem.7" }
%"class.std::__1::__compressed_pair.185" = type { %"struct.std::__1::__compressed_pair_elem.12" }
%"class.std::__1::vector" = type { %"class.std::__1::__vector_base" }
%"class.std::__1::__vector_base" = type { %"class.std::__1::basic_string"*, %"class.std::__1::basic_string"*, %"class.std::__1::__compressed_pair.1" }
%"class.std::__1::__compressed_pair.1" = type { %"struct.std::__1::__compressed_pair_elem.2" }
%"class.std::__1::map.188" = type { %"class.std::__1::__tree.189" }
%"class.std::__1::__tree.189" = type { %"class.std::__1::__tree_end_node"*, %"class.std::__1::__compressed_pair.190", %"class.std::__1::__compressed_pair.194" }
%"class.std::__1::__compressed_pair.190" = type { %"struct.std::__1::__compressed_pair_elem.7" }
%"class.std::__1::__compressed_pair.194" = type { %"struct.std::__1::__compressed_pair_elem.12" }
%"struct.flatbuffers::IDLOptions" = type <{ i8, i8, i8, i8, i8, i8, [2 x i8], i32, i8, i8, i8, i8, i8, i8, i8, i8, i8, i8, i8, i8, i8, [7 x i8], %"class.std::__1::basic_string", %"class.std::__1::basic_string", i8, i8, i8, i8, [4 x i8], %"class.std::__1::basic_string", %"class.std::__1::basic_string", i8, i8, i8, [5 x i8], %"class.std::__1::basic_string", i8, i8, i8, i8, i8, [3 x i8], %"class.std::__1::basic_string", %"class.std::__1::basic_string", i8, i8, i8, i8, [4 x i8], %"class.std::__1::basic_string", i8, i8, i8, [5 x i8], %"class.std::__1::vector", %"class.std::__1::basic_string", %"class.std::__1::basic_string", %"class.std::__1::basic_string", %"class.std::__1::basic_string", i32, i32, i64, i8, i8, [6 x i8] }>
%"class.std::__1::vector.197" = type { %"class.std::__1::__vector_base.198" }
%"class.std::__1::__vector_base.198" = type { %"struct.std::__1::pair"*, %"struct.std::__1::pair"*, %"class.std::__1::__compressed_pair.199" }
%"struct.std::__1::pair" = type { %"struct.flatbuffers::Value", %"struct.flatbuffers::FieldDef"* }
%"class.std::__1::__compressed_pair.199" = type { %"struct.std::__1::__compressed_pair_elem.200" }
%"struct.std::__1::__compressed_pair_elem.200" = type { %"struct.std::__1::pair"* }
%"class.flatbuffers::kotlin::KotlinGenerator" = type { %"class.flatbuffers::BaseGenerator", %"struct.flatbuffers::Namespace"* }
%"class.flatbuffers::BaseGenerator" = type { i32 (...)**, %"class.flatbuffers::Parser"*, %"class.std::__1::basic_string"*, %"class.std::__1::basic_string"*, %"class.std::__1::basic_string", %"class.std::__1::basic_string", %"class.std::__1::basic_string" }
%"class.flatbuffers::CodeWriter" = type <{ %"class.std::__1::map.170", %"class.std::__1::basic_stringstream", %"class.std::__1::basic_string", i32, i8, [3 x i8] }>
%"class.std::__1::basic_stringstream" = type { %"class.std::__1::basic_iostream.base", %"class.std::__1::basic_stringbuf", %"class.std::__1::basic_ios.base" }
%"class.std::__1::basic_iostream.base" = type { %"class.std::__1::basic_istream.base", %"class.std::__1::basic_ostream.base" }
%"class.std::__1::basic_istream.base" = type { i32 (...)**, i64 }
%"class.std::__1::basic_ostream.base" = type { i32 (...)** }
%"class.std::__1::basic_stringbuf" = type <{ %"class.std::__1::basic_streambuf", %"class.std::__1::basic_string", i8*, i32, [4 x i8] }>
%"class.std::__1::basic_streambuf" = type { i32 (...)**, %"class.std::__1::locale", i8*, i8*, i8*, i8*, i8*, i8* }
%"class.std::__1::locale" = type { %"class.std::__1::locale::__imp"* }
%"class.std::__1::locale::__imp" = type opaque
%"class.std::__1::basic_ios.base" = type <{ %"class.std::__1::ios_base", %"class.std::__1::basic_ostream"*, i32 }>
%"class.std::__1::ios_base" = type { i32 (...)**, i32, i64, i64, i32, i32, i8*, i8*, void (i32, %"class.std::__1::ios_base"*, i32)**, i32*, i64, i64, i64*, i64, i64, i8**, i64, i64 }
%"class.std::__1::basic_ostream" = type { i32 (...)**, %"class.std::__1::basic_ios.base" }
%"class.std::__1::basic_iostream" = type { %"class.std::__1::basic_istream.base", %"class.std::__1::basic_ostream.base", %"class.std::__1::basic_ios.base" }
%"class.std::__1::basic_ios" = type <{ %"class.std::__1::ios_base", %"class.std::__1::basic_ostream"*, i32, [4 x i8] }>
%"class.std::__1::__tree_node" = type { %"class.std::__1::__tree_node_base.base", %"struct.std::__1::__value_type" }
%"class.std::__1::__tree_node_base.base" = type <{ %"class.std::__1::__tree_end_node", %"class.std::__1::__tree_node_base"*, %"class.std::__1::__tree_end_node"*, i8 }>
%"struct.std::__1::__value_type" = type { %"struct.std::__1::pair.232" }
%"struct.std::__1::pair.232" = type { %"class.std::__1::basic_string", %"class.std::__1::basic_string" }
%"class.std::__1::function" = type { %"class.std::__1::__function::__policy_func" }
%"class.std::__1::__function::__policy_func" = type { %"union.std::__1::__function::__policy_storage", %"struct.std::__1::__function::__policy_invoker", %"struct.std::__1::__function::__policy"* }
%"union.std::__1::__function::__policy_storage" = type { i8*, [8 x i8] }
%"struct.std::__1::__function::__policy_invoker" = type { void (%"union.std::__1::__function::__policy_storage"*)* }
%"class.std::__1::__basic_string_common" = type { i8 }
%"class.std::__1::tuple" = type { %"struct.std::__1::__tuple_impl" }
%"struct.std::__1::__tuple_impl" = type { %"class.std::__1::__tuple_leaf" }
%"class.std::__1::__tuple_leaf" = type { %"class.std::__1::basic_string"* }
%"class.std::__1::tuple.231" = type { i8 }
%"class.std::__1::__function::__default_alloc_func" = type { %class.anon }
%class.anon = type { %"struct.flatbuffers::EnumDef"*, %"class.flatbuffers::CodeWriter"*, %"class.flatbuffers::kotlin::KotlinGenerator"* }
%"class.std::__1::__vector_base_common" = type { i8 }
%"class.std::__1::__function::__default_alloc_func.239" = type { %class.anon.228 }
%class.anon.228 = type { %"class.flatbuffers::CodeWriter"*, %"struct.flatbuffers::EnumDef"*, %"class.std::__1::vector.214"* }
%class.anon.229 = type { %"class.flatbuffers::CodeWriter"*, %"struct.flatbuffers::EnumDef"* }
%"struct.flatbuffers::Definition" = type <{ %"class.std::__1::basic_string", %"class.std::__1::basic_string", %"class.std::__1::vector", %"class.flatbuffers::SymbolTable.16", i8, [7 x i8], %"struct.flatbuffers::Namespace"*, i32, i32, i32, [4 x i8] }>
%class.anon.255 = type { %"class.flatbuffers::CodeWriter"* }
%"class.std::__1::__function::__default_alloc_func.280" = type { %class.anon.257 }
%class.anon.257 = type { %"struct.flatbuffers::FieldDef"*, %"class.flatbuffers::CodeWriter"*, %"class.std::__1::basic_string"* }
%class.anon.258 = type { %"class.flatbuffers::CodeWriter"* }
%"class.std::__1::__function::__default_alloc_func.290" = type { %class.anon.259 }
%class.anon.259 = type { %"struct.flatbuffers::Type"*, %"struct.flatbuffers::FieldDef"*, %"class.flatbuffers::CodeWriter"*, %"class.std::__1::basic_string"* }
%class.anon.291 = type { %"class.flatbuffers::CodeWriter"*, i8** }
%"class.std::__1::__function::__default_alloc_func.298" = type { %class.anon.260 }
%class.anon.260 = type { %"class.flatbuffers::CodeWriter"*, %"class.std::__1::basic_string"*, %"class.std::__1::basic_string"* }
%class.anon.261 = type { %"class.flatbuffers::CodeWriter"*, %"class.std::__1::basic_string"* }
%"class.std::__1::__function::__default_alloc_func.302" = type { %class.anon.262 }
%class.anon.262 = type { %"class.flatbuffers::CodeWriter"*, %"class.std::__1::basic_string"*, %"class.std::__1::basic_string"* }
%class.anon.303 = type { %"class.flatbuffers::CodeWriter"*, %"class.std::__1::basic_string"* }
%"class.std::__1::__function::__default_alloc_func.310" = type { %class.anon.263 }
%class.anon.263 = type { %"class.flatbuffers::CodeWriter"*, %"class.std::__1::basic_string"*, %"class.std::__1::basic_string"* }
%class.anon.311 = type { %"class.flatbuffers::CodeWriter"*, %"class.std::__1::basic_string"* }
%class.anon.264 = type { %"class.flatbuffers::CodeWriter"*, %"class.std::__1::basic_string"* }
%class.anon.265 = type { %"class.flatbuffers::CodeWriter"*, %"class.std::__1::basic_string"* }
%"class.std::__1::__function::__default_alloc_func.322" = type { %class.anon.266 }
%class.anon.266 = type { %"class.flatbuffers::CodeWriter"*, %"class.std::__1::basic_string"*, %"class.std::__1::basic_string"* }
%"class.std::__1::__function::__default_alloc_func.332" = type { %class.anon.268 }
%class.anon.268 = type { %"class.flatbuffers::CodeWriter"*, %"class.flatbuffers::kotlin::KotlinGenerator"*, %"struct.flatbuffers::Type"*, %"class.std::__1::basic_string"*, %"class.std::__1::basic_string"*, %"struct.flatbuffers::FieldDef"*, %"struct.flatbuffers::StructDef"*, %"class.std::__1::basic_string"* }
%class.anon.333 = type { %"class.flatbuffers::CodeWriter"* }
%"class.std::__1::__function::__default_alloc_func.340" = type { %class.anon.269 }
%class.anon.269 = type { %"struct.flatbuffers::FieldDef"**, %"class.flatbuffers::CodeWriter"*, %"class.flatbuffers::kotlin::KotlinGenerator"* }
%"class.std::__1::__function::__default_alloc_func.342" = type { %class.anon.246 }
%class.anon.246 = type { %"struct.flatbuffers::StructDef"*, %"class.flatbuffers::CodeWriter"*, %"class.flatbuffers::kotlin::KotlinGenerator"* }
%class.anon.346 = type { %"class.flatbuffers::CodeWriter"*, %"class.std::__1::basic_string"* }
%"class.std::__1::basic_ostream<char, std::__1::char_traits<char> >::sentry" = type { i8, %"class.std::__1::basic_ostream"* }
%"class.std::__1::locale::facet" = type { %"class.std::__1::__shared_count" }
%"class.std::__1::__shared_count" = type { i32 (...)**, i64 }
%"class.std::__1::ctype" = type <{ %"class.std::__1::locale::facet", i16*, i8, [7 x i8] }>
%"class.std::__1::__function::__default_alloc_func.350" = type { %class.anon.349 }
%class.anon.349 = type { %"class.flatbuffers::CodeWriter"*, %"class.std::__1::vector.43"*, %"struct.flatbuffers::StructDef"* }
%class.anon.353 = type { %"class.flatbuffers::CodeWriter"*, %"struct.flatbuffers::StructDef"* }
%"class.std::__1::__function::__default_alloc_func.357" = type { %class.anon.356 }
%class.anon.356 = type { %"struct.flatbuffers::FieldDef"*, %"class.flatbuffers::CodeWriter"*, %"class.std::__1::basic_string"*, %"class.flatbuffers::kotlin::KotlinGenerator"* }
%class.anon.359 = type { %"class.flatbuffers::CodeWriter"* }
%class.anon.365 = type { %"class.flatbuffers::CodeWriter"*, %"class.std::__1::vector.43"* }
%class.anon.368 = type { %"class.flatbuffers::CodeWriter"*, %"class.std::__1::basic_string"* }
%class.anon.371 = type { %"class.flatbuffers::CodeWriter"*, %"class.std::__1::basic_string"* }
%"class.std::__1::__function::__default_alloc_func.375" = type { %class.anon.374 }
%class.anon.374 = type { %"struct.flatbuffers::FieldDef"**, %"class.flatbuffers::CodeWriter"*, %"struct.flatbuffers::StructDef"*, %"class.flatbuffers::kotlin::KotlinGenerator"* }

$_ZN11flatbuffers27TypedFloatConstantGeneratorD2Ev = comdat any

$_ZN11flatbuffers6kotlin15KotlinGenerator8generateEv = comdat any

$_ZN11flatbuffers6kotlin15KotlinGeneratorD0Ev = comdat any

$_ZNK11flatbuffers6kotlin15KotlinGenerator16CurrentNameSpaceEv = comdat any

$_ZN11flatbuffers13BaseGeneratorD2Ev = comdat any

$_ZN11flatbuffers13BaseGeneratorD0Ev = comdat any

$_ZNK11flatbuffers13BaseGenerator16CurrentNameSpaceEv = comdat any

$_ZNK11flatbuffers6kotlin15KotlinGenerator7GenEnumERNS_7EnumDefERNS_10CodeWriterE = comdat any

$_ZNK11flatbuffers6kotlin15KotlinGenerator8SaveTypeERKNSt3__112basic_stringIcNS2_11char_traitsIcEENS2_9allocatorIcEEEERKNS_9NamespaceESA_b = comdat any

$_ZNK11flatbuffers6kotlin15KotlinGenerator9GenStructERNS_9StructDefERNS_10CodeWriterE = comdat any

$_ZNK11flatbuffers6kotlin15KotlinGenerator15GenerateCommentERKNSt3__16vectorINS2_12basic_stringIcNS2_11char_traitsIcEENS2_9allocatorIcEEEENS7_IS9_EEEERNS_10CodeWriterEPKNS_13CommentConfigE = comdat any

$_ZNK11flatbuffers6kotlin15KotlinGenerator23GenerateCompanionObjectERNS_10CodeWriterERKNSt3__18functionIFvvEEE = comdat any

$_ZNSt3__110__function16__policy_invokerIFvvEE11__call_implINS0_20__default_alloc_funcIZNK11flatbuffers6kotlin15KotlinGenerator7GenEnumERNS6_7EnumDefERNS6_10CodeWriterEEUlvE_S2_EEEEvPKNS0_16__policy_storageE = comdat any

$_ZZNK11flatbuffers6kotlin15KotlinGenerator7GenEnumERNS_7EnumDefERNS_10CodeWriterEENKUlvE_clEv = comdat any

$_ZN11flatbuffers6kotlin15KotlinGenerator23GeneratePropertyOneLineERNS_10CodeWriterERKNSt3__112basic_stringIcNS4_11char_traitsIcEENS4_9allocatorIcEEEESC_RKNS4_8functionIFvvEEE = comdat any

$_ZN11flatbuffers6kotlin15KotlinGenerator18GenerateFunOneLineERNS_10CodeWriterERKNSt3__112basic_stringIcNS4_11char_traitsIcEENS4_9allocatorIcEEEESC_SC_RKNS4_8functionIFvvEEE = comdat any

$_ZN11flatbuffers11NumToStringImEENSt3__112basic_stringIcNS1_11char_traitsIcEENS1_9allocatorIcEEEET_ = comdat any

$_ZN11flatbuffers11NumToStringIlEENSt3__112basic_stringIcNS1_11char_traitsIcEENS1_9allocatorIcEEEET_ = comdat any

$_ZNSt3__16__treeINS_12__value_typeINS_12basic_stringIcNS_11char_traitsIcEENS_9allocatorIcEEEES7_EENS_19__map_value_compareIS7_S8_NS_4lessIS7_EELb1EEENS5_IS8_EEE25__emplace_unique_key_argsIS7_JRKNS_21piecewise_construct_tENS_5tupleIJRKS7_EEENSJ_IJEEEEEENS_4pairINS_15__tree_iteratorIS8_PNS_11__tree_nodeIS8_PvEElEEbEERKT_DpOT0_ = comdat any

$_ZNSt3__16__treeINS_12__value_typeINS_12basic_stringIcNS_11char_traitsIcEENS_9allocatorIcEEEES7_EENS_19__map_value_compareIS7_S8_NS_4lessIS7_EELb1EEENS5_IS8_EEE12__find_equalIS7_EERPNS_16__tree_node_baseIPvEERPNS_15__tree_end_nodeISJ_EERKT_ = comdat any

$_ZNSt3__127__tree_balance_after_insertIPNS_16__tree_node_baseIPvEEEEvT_S5_ = comdat any

$_ZNSt3__110__function16__policy_invokerIFvvEE11__call_implINS0_20__default_alloc_funcIZZNK11flatbuffers6kotlin15KotlinGenerator7GenEnumERNS6_7EnumDefERNS6_10CodeWriterEENKUlvE_clEvEUlvE_S2_EEEEvPKNS0_16__policy_storageE = comdat any

$_ZZZNK11flatbuffers6kotlin15KotlinGenerator7GenEnumERNS_7EnumDefERNS_10CodeWriterEENKUlvE_clEvENKUlvE_clEv = comdat any

$_ZNSt3__110__function8__policy13__large_cloneINS0_20__default_alloc_funcIZZNK11flatbuffers6kotlin15KotlinGenerator7GenEnumERNS4_7EnumDefERNS4_10CodeWriterEENKUlvE_clEvEUlvE_FvvEEEEEPvPKv = comdat any

$_ZNSt3__110__function8__policy15__large_destroyINS0_20__default_alloc_funcIZZNK11flatbuffers6kotlin15KotlinGenerator7GenEnumERNS4_7EnumDefERNS4_10CodeWriterEENKUlvE_clEvEUlvE_FvvEEEEEvPv = comdat any

$_ZNSt3__110__function16__policy_invokerIFvvEE11__call_implINS0_20__default_alloc_funcIZZNK11flatbuffers6kotlin15KotlinGenerator7GenEnumERNS6_7EnumDefERNS6_10CodeWriterEENKUlvE_clEvEUlvE0_S2_EEEEvPKNS0_16__policy_storageE = comdat any

$_ZZZNK11flatbuffers6kotlin15KotlinGenerator7GenEnumERNS_7EnumDefERNS_10CodeWriterEENKUlvE_clEvENKUlvE0_clEv = comdat any

$_ZNSt3__110__function8__policy13__large_cloneINS0_20__default_alloc_funcIZNK11flatbuffers6kotlin15KotlinGenerator7GenEnumERNS4_7EnumDefERNS4_10CodeWriterEEUlvE_FvvEEEEEPvPKv = comdat any

$_ZNSt3__110__function8__policy15__large_destroyINS0_20__default_alloc_funcIZNK11flatbuffers6kotlin15KotlinGenerator7GenEnumERNS4_7EnumDefERNS4_10CodeWriterEEUlvE_FvvEEEEEvPv = comdat any

$_ZNSt3__16__treeINS_12__value_typeINS_12basic_stringIcNS_11char_traitsIcEENS_9allocatorIcEEEES7_EENS_19__map_value_compareIS7_S8_NS_4lessIS7_EELb1EEENS5_IS8_EEE7destroyEPNS_11__tree_nodeIS8_PvEE = comdat any

$_ZN11flatbuffers6kotlin15KotlinGenerator11GenerateFunERNS_10CodeWriterERKNSt3__112basic_stringIcNS4_11char_traitsIcEENS4_9allocatorIcEEEESC_SC_RKNS4_8functionIFvvEEE = comdat any

$_ZNK11flatbuffers6kotlin15KotlinGenerator21GenerateStructGettersERNS_9StructDefERNS_10CodeWriterE = comdat any

$_ZNSt3__110__function16__policy_invokerIFvvEE11__call_implINS0_20__default_alloc_funcIZNK11flatbuffers6kotlin15KotlinGenerator9GenStructERNS6_9StructDefERNS6_10CodeWriterEEUlvE_S2_EEEEvPKNS0_16__policy_storageE = comdat any

$_ZNSt3__110__function16__policy_invokerIFvvEE11__call_implINS0_20__default_alloc_funcIZNK11flatbuffers6kotlin15KotlinGenerator9GenStructERNS6_9StructDefERNS6_10CodeWriterEEUlvE0_S2_EEEEvPKNS0_16__policy_storageE = comdat any

$_ZNK11flatbuffers6kotlin15KotlinGenerator15GenDefaultValueERKNS_8FieldDefEb = comdat any

$_ZNK11flatbuffers6kotlin15KotlinGenerator16ByteBufferGetterERKNS_4TypeENSt3__112basic_stringIcNS5_11char_traitsIcEENS5_9allocatorIcEEEE = comdat any

$_ZN11flatbuffers11NumToStringItEENSt3__112basic_stringIcNS1_11char_traitsIcEENS1_9allocatorIcEEEET_ = comdat any

$_ZN11flatbuffers6kotlin15KotlinGenerator21GenerateGetterOneLineERNS_10CodeWriterERKNSt3__112basic_stringIcNS4_11char_traitsIcEENS4_9allocatorIcEEEESC_RKNS4_8functionIFvvEEE = comdat any

$_ZN11flatbuffers6kotlin15KotlinGenerator14GenerateGetterERNS_10CodeWriterERKNSt3__112basic_stringIcNS4_11char_traitsIcEENS4_9allocatorIcEEEESC_RKNS4_8functionIFvvEEE = comdat any

$_ZN11flatbuffers10InlineSizeERKNS_4TypeE = comdat any

$_ZNK11flatbuffers6kotlin15KotlinGenerator14GenTypePointerERKNS_4TypeE = comdat any

$_ZNSt3__110__function16__policy_invokerIFvvEE11__call_implINS0_20__default_alloc_funcIZNK11flatbuffers6kotlin15KotlinGenerator21GenerateStructGettersERNS6_9StructDefERNS6_10CodeWriterEEUlvE_S2_EEEEvPKNS0_16__policy_storageE = comdat any

$_ZNSt3__110__function16__policy_invokerIFvvEE11__call_implINS0_20__default_alloc_funcIZNK11flatbuffers6kotlin15KotlinGenerator21GenerateStructGettersERNS6_9StructDefERNS6_10CodeWriterEEUlvE0_S2_EEEEvPKNS0_16__policy_storageE = comdat any

$_ZNSt3__110__function16__policy_invokerIFvvEE11__call_implINS0_20__default_alloc_funcIZNK11flatbuffers6kotlin15KotlinGenerator21GenerateStructGettersERNS6_9StructDefERNS6_10CodeWriterEEUlvE1_S2_EEEEvPKNS0_16__policy_storageE = comdat any

$_ZNSt3__110__function16__policy_invokerIFvvEE11__call_implINS0_20__default_alloc_funcIZNK11flatbuffers6kotlin15KotlinGenerator21GenerateStructGettersERNS6_9StructDefERNS6_10CodeWriterEEUlvE2_S2_EEEEvPKNS0_16__policy_storageE = comdat any

$_ZNSt3__128__invoke_void_return_wrapperIvLb1EE6__callIJRZNK11flatbuffers6kotlin15KotlinGenerator21GenerateStructGettersERNS3_9StructDefERNS3_10CodeWriterEEUlvE2_EEEvDpOT_ = comdat any

$_ZNSt3__110__function16__policy_invokerIFvvEE11__call_implINS0_20__default_alloc_funcIZNK11flatbuffers6kotlin15KotlinGenerator21GenerateStructGettersERNS6_9StructDefERNS6_10CodeWriterEEUlvE3_S2_EEEEvPKNS0_16__policy_storageE = comdat any

$_ZNSt3__110__function16__policy_invokerIFvvEE11__call_implINS0_20__default_alloc_funcIZNK11flatbuffers6kotlin15KotlinGenerator21GenerateStructGettersERNS6_9StructDefERNS6_10CodeWriterEEUlvE4_S2_EEEEvPKNS0_16__policy_storageE = comdat any

$_ZZNK11flatbuffers6kotlin15KotlinGenerator21GenerateStructGettersERNS_9StructDefERNS_10CodeWriterEENKUlvE4_clEv = comdat any

$_ZN11flatbuffers6kotlin15KotlinGenerator13OffsetWrapperERNS_10CodeWriterERKNSt3__112basic_stringIcNS4_11char_traitsIcEENS4_9allocatorIcEEEERKNS4_8functionIFvvEEESH_ = comdat any

$_ZNSt3__110__function16__policy_invokerIFvvEE11__call_implINS0_20__default_alloc_funcIZZNK11flatbuffers6kotlin15KotlinGenerator21GenerateStructGettersERNS6_9StructDefERNS6_10CodeWriterEENKUlvE4_clEvEUlvE_S2_EEEEvPKNS0_16__policy_storageE = comdat any

$_ZNSt3__110__function16__policy_invokerIFvvEE11__call_implINS0_20__default_alloc_funcIZZNK11flatbuffers6kotlin15KotlinGenerator21GenerateStructGettersERNS6_9StructDefERNS6_10CodeWriterEENKUlvE4_clEvEUlvE0_S2_EEEEvPKNS0_16__policy_storageE = comdat any

$_ZNSt3__110__function8__policy13__large_cloneINS0_20__default_alloc_funcIZNK11flatbuffers6kotlin15KotlinGenerator21GenerateStructGettersERNS4_9StructDefERNS4_10CodeWriterEEUlvE4_FvvEEEEEPvPKv = comdat any

$_ZNSt3__110__function8__policy15__large_destroyINS0_20__default_alloc_funcIZNK11flatbuffers6kotlin15KotlinGenerator21GenerateStructGettersERNS4_9StructDefERNS4_10CodeWriterEEUlvE4_FvvEEEEEvPv = comdat any

$_ZNSt3__110__function16__policy_invokerIFvvEE11__call_implINS0_20__default_alloc_funcIZNK11flatbuffers6kotlin15KotlinGenerator21GenerateStructGettersERNS6_9StructDefERNS6_10CodeWriterEEUlvE5_S2_EEEEvPKNS0_16__policy_storageE = comdat any

$_ZNSt3__128__invoke_void_return_wrapperIvLb1EE6__callIJRZNK11flatbuffers6kotlin15KotlinGenerator21GenerateStructGettersERNS3_9StructDefERNS3_10CodeWriterEEUlvE5_EEEvDpOT_ = comdat any

$_ZNSt3__110__function16__policy_invokerIFvvEE11__call_implINS0_20__default_alloc_funcIZNK11flatbuffers6kotlin15KotlinGenerator21GenerateStructGettersERNS6_9StructDefERNS6_10CodeWriterEEUlvE6_S2_EEEEvPKNS0_16__policy_storageE = comdat any

$_ZZNK11flatbuffers6kotlin15KotlinGenerator21GenerateStructGettersERNS_9StructDefERNS_10CodeWriterEENKUlvE6_clEv = comdat any

$_ZNSt3__110__function16__policy_invokerIFvvEE11__call_implINS0_20__default_alloc_funcIZZNK11flatbuffers6kotlin15KotlinGenerator21GenerateStructGettersERNS6_9StructDefERNS6_10CodeWriterEENKUlvE6_clEvEUlvE_S2_EEEEvPKNS0_16__policy_storageE = comdat any

$_ZNSt3__128__invoke_void_return_wrapperIvLb1EE6__callIJRZZNK11flatbuffers6kotlin15KotlinGenerator21GenerateStructGettersERNS3_9StructDefERNS3_10CodeWriterEENKUlvE6_clEvEUlvE_EEEvDpOT_ = comdat any

$_ZNSt3__110__function16__policy_invokerIFvvEE11__call_implINS0_20__default_alloc_funcIZZNK11flatbuffers6kotlin15KotlinGenerator21GenerateStructGettersERNS6_9StructDefERNS6_10CodeWriterEENKUlvE6_clEvEUlvE0_S2_EEEEvPKNS0_16__policy_storageE = comdat any

$_ZNSt3__110__function8__policy13__large_cloneINS0_20__default_alloc_funcIZNK11flatbuffers6kotlin15KotlinGenerator21GenerateStructGettersERNS4_9StructDefERNS4_10CodeWriterEEUlvE6_FvvEEEEEPvPKv = comdat any

$_ZNSt3__110__function8__policy15__large_destroyINS0_20__default_alloc_funcIZNK11flatbuffers6kotlin15KotlinGenerator21GenerateStructGettersERNS4_9StructDefERNS4_10CodeWriterEEUlvE6_FvvEEEEEvPv = comdat any

$_ZNSt3__110__function16__policy_invokerIFvvEE11__call_implINS0_20__default_alloc_funcIZNK11flatbuffers6kotlin15KotlinGenerator21GenerateStructGettersERNS6_9StructDefERNS6_10CodeWriterEEUlvE7_S2_EEEEvPKNS0_16__policy_storageE = comdat any

$_ZZNK11flatbuffers6kotlin15KotlinGenerator21GenerateStructGettersERNS_9StructDefERNS_10CodeWriterEENKUlvE7_clEv = comdat any

$_ZN11flatbuffers6kotlin15KotlinGenerator20OffsetWrapperOneLineERKNSt3__112basic_stringIcNS2_11char_traitsIcEENS2_9allocatorIcEEEESA_SA_ = comdat any

$_ZNSt3__110__function8__policy13__large_cloneINS0_20__default_alloc_funcIZNK11flatbuffers6kotlin15KotlinGenerator21GenerateStructGettersERNS4_9StructDefERNS4_10CodeWriterEEUlvE7_FvvEEEEEPvPKv = comdat any

$_ZNSt3__110__function8__policy15__large_destroyINS0_20__default_alloc_funcIZNK11flatbuffers6kotlin15KotlinGenerator21GenerateStructGettersERNS4_9StructDefERNS4_10CodeWriterEEUlvE7_FvvEEEEEvPv = comdat any

$_ZNSt3__110__function16__policy_invokerIFvvEE11__call_implINS0_20__default_alloc_funcIZNK11flatbuffers6kotlin15KotlinGenerator21GenerateStructGettersERNS6_9StructDefERNS6_10CodeWriterEEUlvE8_S2_EEEEvPKNS0_16__policy_storageE = comdat any

$_ZNSt3__128__invoke_void_return_wrapperIvLb1EE6__callIJRZNK11flatbuffers6kotlin15KotlinGenerator21GenerateStructGettersERNS3_9StructDefERNS3_10CodeWriterEEUlvE8_EEEvDpOT_ = comdat any

$_ZNSt3__110__function16__policy_invokerIFvvEE11__call_implINS0_20__default_alloc_funcIZNK11flatbuffers6kotlin15KotlinGenerator21GenerateStructGettersERNS6_9StructDefERNS6_10CodeWriterEEUlvE9_S2_EEEEvPKNS0_16__policy_storageE = comdat any

$_ZNSt3__110__function16__policy_invokerIFvvEE11__call_implINS0_20__default_alloc_funcIZZNK11flatbuffers6kotlin15KotlinGenerator21GenerateStructGettersERNS6_9StructDefERNS6_10CodeWriterEENKUlvE9_clEvEUlvE_S2_EEEEvPKNS0_16__policy_storageE = comdat any

$_ZNSt3__128__invoke_void_return_wrapperIvLb1EE6__callIJRZZNK11flatbuffers6kotlin15KotlinGenerator21GenerateStructGettersERNS3_9StructDefERNS3_10CodeWriterEENKUlvE9_clEvEUlvE_EEEvDpOT_ = comdat any

$_ZNSt3__110__function16__policy_invokerIFvvEE11__call_implINS0_20__default_alloc_funcIZZNK11flatbuffers6kotlin15KotlinGenerator21GenerateStructGettersERNS6_9StructDefERNS6_10CodeWriterEENKUlvE9_clEvEUlvE0_S2_EEEEvPKNS0_16__policy_storageE = comdat any

$_ZNSt3__110__function8__policy13__large_cloneINS0_20__default_alloc_funcIZNK11flatbuffers6kotlin15KotlinGenerator21GenerateStructGettersERNS4_9StructDefERNS4_10CodeWriterEEUlvE9_FvvEEEEEPvPKv = comdat any

$_ZNSt3__110__function8__policy15__large_destroyINS0_20__default_alloc_funcIZNK11flatbuffers6kotlin15KotlinGenerator21GenerateStructGettersERNS4_9StructDefERNS4_10CodeWriterEEUlvE9_FvvEEEEEvPv = comdat any

$_ZNSt3__110__function16__policy_invokerIFvvEE11__call_implINS0_20__default_alloc_funcIZNK11flatbuffers6kotlin15KotlinGenerator21GenerateStructGettersERNS6_9StructDefERNS6_10CodeWriterEEUlvE10_S2_EEEEvPKNS0_16__policy_storageE = comdat any

$_ZNSt3__110__function16__policy_invokerIFvvEE11__call_implINS0_20__default_alloc_funcIZZNK11flatbuffers6kotlin15KotlinGenerator21GenerateStructGettersERNS6_9StructDefERNS6_10CodeWriterEENKUlvE10_clEvEUlvE_S2_EEEEvPKNS0_16__policy_storageE = comdat any

$_ZNSt3__128__invoke_void_return_wrapperIvLb1EE6__callIJRZZNK11flatbuffers6kotlin15KotlinGenerator21GenerateStructGettersERNS3_9StructDefERNS3_10CodeWriterEENKUlvE10_clEvEUlvE_EEEvDpOT_ = comdat any

$_ZNSt3__110__function16__policy_invokerIFvvEE11__call_implINS0_20__default_alloc_funcIZZNK11flatbuffers6kotlin15KotlinGenerator21GenerateStructGettersERNS6_9StructDefERNS6_10CodeWriterEENKUlvE10_clEvEUlvE0_S2_EEEEvPKNS0_16__policy_storageE = comdat any

$_ZNSt3__110__function8__policy13__large_cloneINS0_20__default_alloc_funcIZNK11flatbuffers6kotlin15KotlinGenerator21GenerateStructGettersERNS4_9StructDefERNS4_10CodeWriterEEUlvE10_FvvEEEEEPvPKv = comdat any

$_ZNSt3__110__function8__policy15__large_destroyINS0_20__default_alloc_funcIZNK11flatbuffers6kotlin15KotlinGenerator21GenerateStructGettersERNS4_9StructDefERNS4_10CodeWriterEEUlvE10_FvvEEEEEvPv = comdat any

$_ZNSt3__110__function16__policy_invokerIFvvEE11__call_implINS0_20__default_alloc_funcIZNK11flatbuffers6kotlin15KotlinGenerator21GenerateStructGettersERNS6_9StructDefERNS6_10CodeWriterEEUlvE11_S2_EEEEvPKNS0_16__policy_storageE = comdat any

$_ZZNK11flatbuffers6kotlin15KotlinGenerator21GenerateStructGettersERNS_9StructDefERNS_10CodeWriterEENKUlvE11_clEv = comdat any

$_ZNSt3__110__function16__policy_invokerIFvvEE11__call_implINS0_20__default_alloc_funcIZNK11flatbuffers6kotlin15KotlinGenerator21GenerateStructGettersERNS6_9StructDefERNS6_10CodeWriterEEUlvE12_S2_EEEEvPKNS0_16__policy_storageE = comdat any

$_ZZNK11flatbuffers6kotlin15KotlinGenerator21GenerateStructGettersERNS_9StructDefERNS_10CodeWriterEENKUlvE12_clEv = comdat any

$_ZNSt3__110__function16__policy_invokerIFvvEE11__call_implINS0_20__default_alloc_funcIZNK11flatbuffers6kotlin15KotlinGenerator21GenerateStructGettersERNS6_9StructDefERNS6_10CodeWriterEEUlvE13_S2_EEEEvPKNS0_16__policy_storageE = comdat any

$_ZZNK11flatbuffers6kotlin15KotlinGenerator21GenerateStructGettersERNS_9StructDefERNS_10CodeWriterEENKUlvE13_clEv = comdat any

$_ZNSt3__110__function8__policy13__large_cloneINS0_20__default_alloc_funcIZNK11flatbuffers6kotlin15KotlinGenerator21GenerateStructGettersERNS4_9StructDefERNS4_10CodeWriterEEUlvE13_FvvEEEEEPvPKv = comdat any

$_ZNSt3__110__function8__policy15__large_destroyINS0_20__default_alloc_funcIZNK11flatbuffers6kotlin15KotlinGenerator21GenerateStructGettersERNS4_9StructDefERNS4_10CodeWriterEEUlvE13_FvvEEEEEvPv = comdat any

$_ZNSt3__110__function16__policy_invokerIFvvEE11__call_implINS0_20__default_alloc_funcIZNK11flatbuffers6kotlin15KotlinGenerator21GenerateStructGettersERNS6_9StructDefERNS6_10CodeWriterEEUlvE14_S2_EEEEvPKNS0_16__policy_storageE = comdat any

$_ZNSt3__110__function16__policy_invokerIFvvEE11__call_implINS0_20__default_alloc_funcIZZNK11flatbuffers6kotlin15KotlinGenerator21GenerateStructGettersERNS6_9StructDefERNS6_10CodeWriterEENKUlvE14_clEvEUlvE_S2_EEEEvPKNS0_16__policy_storageE = comdat any

$_ZNSt3__110__function16__policy_invokerIFvvEE11__call_implINS0_20__default_alloc_funcIZZNK11flatbuffers6kotlin15KotlinGenerator21GenerateStructGettersERNS6_9StructDefERNS6_10CodeWriterEENKUlvE14_clEvEUlvE0_S2_EEEEvPKNS0_16__policy_storageE = comdat any

$_ZNSt3__110__function16__policy_invokerIFvvEE11__call_implINS0_20__default_alloc_funcIZNK11flatbuffers6kotlin15KotlinGenerator21GenerateStructGettersERNS6_9StructDefERNS6_10CodeWriterEEUlvE15_S2_EEEEvPKNS0_16__policy_storageE = comdat any

$_ZZNK11flatbuffers6kotlin15KotlinGenerator21GenerateStructGettersERNS_9StructDefERNS_10CodeWriterEENKUlvE15_clEv = comdat any

$_ZNK11flatbuffers6kotlin15KotlinGenerator16ByteBufferSetterERKNS_4TypeE = comdat any

$_ZNSt3__110__function16__policy_invokerIFvvEE11__call_implINS0_20__default_alloc_funcIZZNK11flatbuffers6kotlin15KotlinGenerator21GenerateStructGettersERNS6_9StructDefERNS6_10CodeWriterEENKUlvE15_clEvEUlvE_S2_EEEEvPKNS0_16__policy_storageE = comdat any

$_ZNSt3__128__invoke_void_return_wrapperIvLb1EE6__callIJRZZNK11flatbuffers6kotlin15KotlinGenerator21GenerateStructGettersERNS3_9StructDefERNS3_10CodeWriterEENKUlvE15_clEvEUlvE_EEEvDpOT_ = comdat any

$_ZNSt3__110__function16__policy_invokerIFvvEE11__call_implINS0_20__default_alloc_funcIZZNK11flatbuffers6kotlin15KotlinGenerator21GenerateStructGettersERNS6_9StructDefERNS6_10CodeWriterEENKUlvE15_clEvEUlvE0_S2_EEEEvPKNS0_16__policy_storageE = comdat any

$_ZNSt3__110__function8__policy13__large_cloneINS0_20__default_alloc_funcIZNK11flatbuffers6kotlin15KotlinGenerator21GenerateStructGettersERNS4_9StructDefERNS4_10CodeWriterEEUlvE15_FvvEEEEEPvPKv = comdat any

$_ZNSt3__110__function8__policy15__large_destroyINS0_20__default_alloc_funcIZNK11flatbuffers6kotlin15KotlinGenerator21GenerateStructGettersERNS4_9StructDefERNS4_10CodeWriterEEUlvE15_FvvEEEEEvPv = comdat any

$_ZNSt3__110__function16__policy_invokerIFvvEE11__call_implINS0_20__default_alloc_funcIZNK11flatbuffers6kotlin15KotlinGenerator21GenerateStructGettersERNS6_9StructDefERNS6_10CodeWriterEEUlvE16_S2_EEEEvPKNS0_16__policy_storageE = comdat any

$_ZZNK11flatbuffers6kotlin15KotlinGenerator21GenerateStructGettersERNS_9StructDefERNS_10CodeWriterEENKUlvE16_clEv = comdat any

$_ZNK11flatbuffers6kotlin15KotlinGenerator14GenLookupByKeyEPNS_8FieldDefERKNSt3__112basic_stringIcNS4_11char_traitsIcEENS4_9allocatorIcEEEEPKc = comdat any

$_ZNK11flatbuffers6kotlin15KotlinGenerator15GenOffsetGetterEPNS_8FieldDefEPKc = comdat any

$_ZNSt3__110__function8__policy13__large_cloneINS0_20__default_alloc_funcIZNK11flatbuffers6kotlin15KotlinGenerator21GenerateStructGettersERNS4_9StructDefERNS4_10CodeWriterEEUlvE16_FvvEEEEEPvPKv = comdat any

$_ZNSt3__110__function8__policy15__large_destroyINS0_20__default_alloc_funcIZNK11flatbuffers6kotlin15KotlinGenerator21GenerateStructGettersERNS4_9StructDefERNS4_10CodeWriterEEUlvE16_FvvEEEEEvPv = comdat any

$_ZNSt3__110__function16__policy_invokerIFvvEE11__call_implINS0_20__default_alloc_funcIZNK11flatbuffers6kotlin15KotlinGenerator9GenStructERNS6_9StructDefERNS6_10CodeWriterEEUlvE1_S2_EEEEvPKNS0_16__policy_storageE = comdat any

$_ZZNK11flatbuffers6kotlin15KotlinGenerator9GenStructERNS_9StructDefERNS_10CodeWriterEENKUlvE1_clEv = comdat any

$_ZN11flatbuffers6kotlin15KotlinGenerator26GenerateGetRootAsAccessorsERKNSt3__112basic_stringIcNS2_11char_traitsIcEENS2_9allocatorIcEEEERNS_10CodeWriterE = comdat any

$_ZNK11flatbuffers6kotlin15KotlinGenerator27GenerateBufferHasIdentifierERNS_9StructDefERNS_10CodeWriterE = comdat any

$_ZNK11flatbuffers6kotlin15KotlinGenerator20GenerateTableCreatorERNS_9StructDefERNS_10CodeWriterE = comdat any

$_ZNK11flatbuffers6kotlin15KotlinGenerator25GenerateStartStructMethodERNS_9StructDefERNS_10CodeWriterE = comdat any

$_ZNK11flatbuffers6kotlin15KotlinGenerator16GenerateAddFieldENSt3__112basic_stringIcNS2_11char_traitsIcEENS2_9allocatorIcEEEERNS_8FieldDefERNS_10CodeWriterE = comdat any

$_ZN11flatbuffers11NumToStringIiEENSt3__112basic_stringIcNS1_11char_traitsIcEENS1_9allocatorIcEEEET_ = comdat any

$_ZNK11flatbuffers6kotlin15KotlinGenerator25GenerateCreateVectorFieldERNS_8FieldDefERNS_10CodeWriterE = comdat any

$_ZNK11flatbuffers6kotlin15KotlinGenerator24GenerateStartVectorFieldERNS_8FieldDefERNS_10CodeWriterE = comdat any

$_ZNK11flatbuffers6kotlin15KotlinGenerator23GenerateEndStructMethodERNS_9StructDefERNS_10CodeWriterE = comdat any

$_ZNK11flatbuffers6kotlin15KotlinGenerator26GenerateFinishStructBufferERNS_9StructDefERKNSt3__112basic_stringIcNS4_11char_traitsIcEENS4_9allocatorIcEEEERNS_10CodeWriterE = comdat any

$_ZNK11flatbuffers6kotlin15KotlinGenerator26GenerateFinishSizePrefixedERNS_9StructDefERKNSt3__112basic_stringIcNS4_11char_traitsIcEENS4_9allocatorIcEEEERNS_10CodeWriterE = comdat any

$_ZNK11flatbuffers6kotlin15KotlinGenerator19GenerateLookupByKeyEPNS_8FieldDefERNS_9StructDefERNS_10CodeWriterE = comdat any

$_ZN11flatbuffers6kotlin15KotlinGenerator25GenerateStaticConstructorERKNS_9StructDefERNS_10CodeWriterE = comdat any

$_ZNSt3__110__function16__policy_invokerIFvvEE11__call_implINS0_20__default_alloc_funcIZZNK11flatbuffers6kotlin15KotlinGenerator9GenStructERNS6_9StructDefERNS6_10CodeWriterEENKUlvE1_clEvEUlvE_S2_EEEEvPKNS0_16__policy_storageE = comdat any

$_ZNSt3__110__function16__policy_invokerIFvvEE11__call_implINS0_20__default_alloc_funcIZNK11flatbuffers6kotlin15KotlinGenerator27GenerateBufferHasIdentifierERNS6_9StructDefERNS6_10CodeWriterEEUlvE_S2_EEEEvPKNS0_16__policy_storageE = comdat any

$_ZNSt3__128__invoke_void_return_wrapperIvLb1EE6__callIJRZNK11flatbuffers6kotlin15KotlinGenerator27GenerateBufferHasIdentifierERNS3_9StructDefERNS3_10CodeWriterEEUlvE_EEEvDpOT_ = comdat any

$_ZNSt3__124__put_character_sequenceIcNS_11char_traitsIcEEEERNS_13basic_ostreamIT_T0_EES7_PKS4_m = comdat any

$_ZNSt3__116__pad_and_outputIcNS_11char_traitsIcEEEENS_19ostreambuf_iteratorIT_T0_EES6_PKS4_S8_S8_RNS_8ios_baseES4_ = comdat any

$_ZNSt3__110__function16__policy_invokerIFvvEE11__call_implINS0_20__default_alloc_funcIZNK11flatbuffers6kotlin15KotlinGenerator20GenerateTableCreatorERNS6_9StructDefERNS6_10CodeWriterEEUlvE_S2_EEEEvPKNS0_16__policy_storageE = comdat any

$_ZZNK11flatbuffers6kotlin15KotlinGenerator20GenerateTableCreatorERNS_9StructDefERNS_10CodeWriterEENKUlvE_clEv = comdat any

$_ZNSt3__110__function8__policy13__large_cloneINS0_20__default_alloc_funcIZNK11flatbuffers6kotlin15KotlinGenerator20GenerateTableCreatorERNS4_9StructDefERNS4_10CodeWriterEEUlvE_FvvEEEEEPvPKv = comdat any

$_ZNSt3__110__function8__policy15__large_destroyINS0_20__default_alloc_funcIZNK11flatbuffers6kotlin15KotlinGenerator20GenerateTableCreatorERNS4_9StructDefERNS4_10CodeWriterEEUlvE_FvvEEEEEvPv = comdat any

$_ZNSt3__110__function16__policy_invokerIFvvEE11__call_implINS0_20__default_alloc_funcIZNK11flatbuffers6kotlin15KotlinGenerator25GenerateStartStructMethodERNS6_9StructDefERNS6_10CodeWriterEEUlvE_S2_EEEEvPKNS0_16__policy_storageE = comdat any

$_ZZNK11flatbuffers6kotlin15KotlinGenerator25GenerateStartStructMethodERNS_9StructDefERNS_10CodeWriterEENKUlvE_clEv = comdat any

$_ZNSt3__110__function16__policy_invokerIFvvEE11__call_implINS0_20__default_alloc_funcIZNK11flatbuffers6kotlin15KotlinGenerator16GenerateAddFieldENS_12basic_stringIcNS_11char_traitsIcEENS_9allocatorIcEEEERNS6_8FieldDefERNS6_10CodeWriterEEUlvE_S2_EEEEvPKNS0_16__policy_storageE = comdat any

$_ZZNK11flatbuffers6kotlin15KotlinGenerator16GenerateAddFieldENSt3__112basic_stringIcNS2_11char_traitsIcEENS2_9allocatorIcEEEERNS_8FieldDefERNS_10CodeWriterEENKUlvE_clEv = comdat any

$_ZNK11flatbuffers6kotlin15KotlinGenerator18GenFBBDefaultValueERKNS_8FieldDefE = comdat any

$_ZN11flatbuffers6kotlin15KotlinGenerator12ToSignedTypeERKNS_4TypeE = comdat any

$_ZNSt3__110__function8__policy13__large_cloneINS0_20__default_alloc_funcIZNK11flatbuffers6kotlin15KotlinGenerator16GenerateAddFieldENS_12basic_stringIcNS_11char_traitsIcEENS_9allocatorIcEEEERNS4_8FieldDefERNS4_10CodeWriterEEUlvE_FvvEEEEEPvPKv = comdat any

$_ZNSt3__110__function8__policy15__large_destroyINS0_20__default_alloc_funcIZNK11flatbuffers6kotlin15KotlinGenerator16GenerateAddFieldENS_12basic_stringIcNS_11char_traitsIcEENS_9allocatorIcEEEERNS4_8FieldDefERNS4_10CodeWriterEEUlvE_FvvEEEEEvPv = comdat any

$_ZNSt3__110__function16__policy_invokerIFvvEE11__call_implINS0_20__default_alloc_funcIZNK11flatbuffers6kotlin15KotlinGenerator25GenerateCreateVectorFieldERNS6_8FieldDefERNS6_10CodeWriterEEUlvE_S2_EEEEvPKNS0_16__policy_storageE = comdat any

$_ZZNK11flatbuffers6kotlin15KotlinGenerator25GenerateCreateVectorFieldERNS_8FieldDefERNS_10CodeWriterEENKUlvE_clEv = comdat any

$_ZNSt3__110__function16__policy_invokerIFvvEE11__call_implINS0_20__default_alloc_funcIZNK11flatbuffers6kotlin15KotlinGenerator24GenerateStartVectorFieldERNS6_8FieldDefERNS6_10CodeWriterEEUlvE_S2_EEEEvPKNS0_16__policy_storageE = comdat any

$_ZNSt3__110__function16__policy_invokerIFvvEE11__call_implINS0_20__default_alloc_funcIZNK11flatbuffers6kotlin15KotlinGenerator23GenerateEndStructMethodERNS6_9StructDefERNS6_10CodeWriterEEUlvE_S2_EEEEvPKNS0_16__policy_storageE = comdat any

$_ZZNK11flatbuffers6kotlin15KotlinGenerator23GenerateEndStructMethodERNS_9StructDefERNS_10CodeWriterEENKUlvE_clEv = comdat any

$_ZNSt3__110__function16__policy_invokerIFvvEE11__call_implINS0_20__default_alloc_funcIZNK11flatbuffers6kotlin15KotlinGenerator26GenerateFinishStructBufferERNS6_9StructDefERKNS_12basic_stringIcNS_11char_traitsIcEENS_9allocatorIcEEEERNS6_10CodeWriterEEUlvE_S2_EEEEvPKNS0_16__policy_storageE = comdat any

$_ZNSt3__128__invoke_void_return_wrapperIvLb1EE6__callIJRZNK11flatbuffers6kotlin15KotlinGenerator26GenerateFinishStructBufferERNS3_9StructDefERKNS_12basic_stringIcNS_11char_traitsIcEENS_9allocatorIcEEEERNS3_10CodeWriterEEUlvE_EEEvDpOT_ = comdat any

$_ZNSt3__110__function16__policy_invokerIFvvEE11__call_implINS0_20__default_alloc_funcIZNK11flatbuffers6kotlin15KotlinGenerator26GenerateFinishSizePrefixedERNS6_9StructDefERKNS_12basic_stringIcNS_11char_traitsIcEENS_9allocatorIcEEEERNS6_10CodeWriterEEUlvE_S2_EEEEvPKNS0_16__policy_storageE = comdat any

$_ZNSt3__128__invoke_void_return_wrapperIvLb1EE6__callIJRZNK11flatbuffers6kotlin15KotlinGenerator26GenerateFinishSizePrefixedERNS3_9StructDefERKNS_12basic_stringIcNS_11char_traitsIcEENS_9allocatorIcEEEERNS3_10CodeWriterEEUlvE_EEEvDpOT_ = comdat any

$_ZNSt3__110__function16__policy_invokerIFvvEE11__call_implINS0_20__default_alloc_funcIZNK11flatbuffers6kotlin15KotlinGenerator19GenerateLookupByKeyEPNS6_8FieldDefERNS6_9StructDefERNS6_10CodeWriterEEUlvE_S2_EEEEvPKNS0_16__policy_storageE = comdat any

$_ZZNK11flatbuffers6kotlin15KotlinGenerator19GenerateLookupByKeyEPNS_8FieldDefERNS_9StructDefERNS_10CodeWriterEENKUlvE_clEv = comdat any

$_ZNSt3__110__function8__policy13__large_cloneINS0_20__default_alloc_funcIZNK11flatbuffers6kotlin15KotlinGenerator19GenerateLookupByKeyEPNS4_8FieldDefERNS4_9StructDefERNS4_10CodeWriterEEUlvE_FvvEEEEEPvPKv = comdat any

$_ZNSt3__110__function8__policy15__large_destroyINS0_20__default_alloc_funcIZNK11flatbuffers6kotlin15KotlinGenerator19GenerateLookupByKeyEPNS4_8FieldDefERNS4_9StructDefERNS4_10CodeWriterEEUlvE_FvvEEEEEvPv = comdat any

$_ZN11flatbuffers6kotlin15KotlinGenerator23StructConstructorParamsERKNS_9StructDefERKNSt3__112basic_stringIcNS5_11char_traitsIcEENS5_9allocatorIcEEEE = comdat any

$_ZNSt3__110__function16__policy_invokerIFvvEE11__call_implINS0_20__default_alloc_funcIZN11flatbuffers6kotlin15KotlinGenerator25GenerateStaticConstructorERKNS6_9StructDefERNS6_10CodeWriterEEUlvE_S2_EEEEvPKNS0_16__policy_storageE = comdat any

$_ZN11flatbuffers6kotlin15KotlinGenerator13GenStructBodyERKNS_9StructDefERNS_10CodeWriterEPKc = comdat any

$_ZNSt3__110__function8__policy13__large_cloneINS0_20__default_alloc_funcIZNK11flatbuffers6kotlin15KotlinGenerator9GenStructERNS4_9StructDefERNS4_10CodeWriterEEUlvE1_FvvEEEEEPvPKv = comdat any

$_ZNSt3__110__function8__policy15__large_destroyINS0_20__default_alloc_funcIZNK11flatbuffers6kotlin15KotlinGenerator9GenStructERNS4_9StructDefERNS4_10CodeWriterEEUlvE1_FvvEEEEEvPv = comdat any

$_ZTVN11flatbuffers6kotlin15KotlinGeneratorE = comdat any

$_ZTVN11flatbuffers13BaseGeneratorE = comdat any

$_ZZN11flatbuffers6kotlin15KotlinGenerator12GenTypeBasicERKNS_8BaseTypeEE15kotlin_typename = comdat any

$_ZZNSt3__110__function8__policy15__choose_policyINS0_20__default_alloc_funcIZZNK11flatbuffers6kotlin15KotlinGenerator7GenEnumERNS4_7EnumDefERNS4_10CodeWriterEENKUlvE_clEvEUlvE_FvvEEEEEPKS1_NS_17integral_constantIbLb0EEEE9__policy_ = comdat any

$_ZZNSt3__110__function8__policy15__choose_policyINS0_20__default_alloc_funcIZZNK11flatbuffers6kotlin15KotlinGenerator7GenEnumERNS4_7EnumDefERNS4_10CodeWriterEENKUlvE_clEvEUlvE0_FvvEEEEEPKS1_NS_17integral_constantIbLb1EEEE9__policy_ = comdat any

$_ZZNSt3__110__function8__policy15__choose_policyINS0_20__default_alloc_funcIZNK11flatbuffers6kotlin15KotlinGenerator7GenEnumERNS4_7EnumDefERNS4_10CodeWriterEEUlvE_FvvEEEEEPKS1_NS_17integral_constantIbLb0EEEE9__policy_ = comdat any

$_ZZNSt3__110__function8__policy15__choose_policyINS0_20__default_alloc_funcIZNK11flatbuffers6kotlin15KotlinGenerator9GenStructERNS4_9StructDefERNS4_10CodeWriterEEUlvE_FvvEEEEEPKS1_NS_17integral_constantIbLb1EEEE9__policy_ = comdat any

$_ZZNSt3__110__function8__policy15__choose_policyINS0_20__default_alloc_funcIZNK11flatbuffers6kotlin15KotlinGenerator9GenStructERNS4_9StructDefERNS4_10CodeWriterEEUlvE0_FvvEEEEEPKS1_NS_17integral_constantIbLb1EEEE9__policy_ = comdat any

$_ZZNSt3__110__function8__policy15__choose_policyINS0_20__default_alloc_funcIZNK11flatbuffers6kotlin15KotlinGenerator21GenerateStructGettersERNS4_9StructDefERNS4_10CodeWriterEEUlvE_FvvEEEEEPKS1_NS_17integral_constantIbLb1EEEE9__policy_ = comdat any

$_ZZNSt3__110__function8__policy15__choose_policyINS0_20__default_alloc_funcIZNK11flatbuffers6kotlin15KotlinGenerator21GenerateStructGettersERNS4_9StructDefERNS4_10CodeWriterEEUlvE0_FvvEEEEEPKS1_NS_17integral_constantIbLb1EEEE9__policy_ = comdat any

$_ZZNSt3__110__function8__policy15__choose_policyINS0_20__default_alloc_funcIZNK11flatbuffers6kotlin15KotlinGenerator21GenerateStructGettersERNS4_9StructDefERNS4_10CodeWriterEEUlvE1_FvvEEEEEPKS1_NS_17integral_constantIbLb1EEEE9__policy_ = comdat any

$_ZZNSt3__110__function8__policy15__choose_policyINS0_20__default_alloc_funcIZNK11flatbuffers6kotlin15KotlinGenerator21GenerateStructGettersERNS4_9StructDefERNS4_10CodeWriterEEUlvE2_FvvEEEEEPKS1_NS_17integral_constantIbLb1EEEE9__policy_ = comdat any

$_ZZNSt3__110__function8__policy15__choose_policyINS0_20__default_alloc_funcIZNK11flatbuffers6kotlin15KotlinGenerator21GenerateStructGettersERNS4_9StructDefERNS4_10CodeWriterEEUlvE3_FvvEEEEEPKS1_NS_17integral_constantIbLb1EEEE9__policy_ = comdat any

$_ZZNSt3__110__function8__policy15__choose_policyINS0_20__default_alloc_funcIZZNK11flatbuffers6kotlin15KotlinGenerator21GenerateStructGettersERNS4_9StructDefERNS4_10CodeWriterEENKUlvE4_clEvEUlvE_FvvEEEEEPKS1_NS_17integral_constantIbLb1EEEE9__policy_ = comdat any

$_ZZNSt3__110__function8__policy15__choose_policyINS0_20__default_alloc_funcIZZNK11flatbuffers6kotlin15KotlinGenerator21GenerateStructGettersERNS4_9StructDefERNS4_10CodeWriterEENKUlvE4_clEvEUlvE0_FvvEEEEEPKS1_NS_17integral_constantIbLb1EEEE9__policy_ = comdat any

$_ZZNSt3__110__function8__policy15__choose_policyINS0_20__default_alloc_funcIZNK11flatbuffers6kotlin15KotlinGenerator21GenerateStructGettersERNS4_9StructDefERNS4_10CodeWriterEEUlvE4_FvvEEEEEPKS1_NS_17integral_constantIbLb0EEEE9__policy_ = comdat any

$_ZZNSt3__110__function8__policy15__choose_policyINS0_20__default_alloc_funcIZNK11flatbuffers6kotlin15KotlinGenerator21GenerateStructGettersERNS4_9StructDefERNS4_10CodeWriterEEUlvE5_FvvEEEEEPKS1_NS_17integral_constantIbLb1EEEE9__policy_ = comdat any

$_ZZNSt3__110__function8__policy15__choose_policyINS0_20__default_alloc_funcIZZNK11flatbuffers6kotlin15KotlinGenerator21GenerateStructGettersERNS4_9StructDefERNS4_10CodeWriterEENKUlvE6_clEvEUlvE_FvvEEEEEPKS1_NS_17integral_constantIbLb1EEEE9__policy_ = comdat any

$_ZZNSt3__110__function8__policy15__choose_policyINS0_20__default_alloc_funcIZZNK11flatbuffers6kotlin15KotlinGenerator21GenerateStructGettersERNS4_9StructDefERNS4_10CodeWriterEENKUlvE6_clEvEUlvE0_FvvEEEEEPKS1_NS_17integral_constantIbLb1EEEE9__policy_ = comdat any

$_ZZNSt3__110__function8__policy15__choose_policyINS0_20__default_alloc_funcIZNK11flatbuffers6kotlin15KotlinGenerator21GenerateStructGettersERNS4_9StructDefERNS4_10CodeWriterEEUlvE6_FvvEEEEEPKS1_NS_17integral_constantIbLb0EEEE9__policy_ = comdat any

$_ZZNSt3__110__function8__policy15__choose_policyINS0_20__default_alloc_funcIZNK11flatbuffers6kotlin15KotlinGenerator21GenerateStructGettersERNS4_9StructDefERNS4_10CodeWriterEEUlvE7_FvvEEEEEPKS1_NS_17integral_constantIbLb0EEEE9__policy_ = comdat any

$_ZZNSt3__110__function8__policy15__choose_policyINS0_20__default_alloc_funcIZNK11flatbuffers6kotlin15KotlinGenerator21GenerateStructGettersERNS4_9StructDefERNS4_10CodeWriterEEUlvE8_FvvEEEEEPKS1_NS_17integral_constantIbLb1EEEE9__policy_ = comdat any

$_ZZNSt3__110__function8__policy15__choose_policyINS0_20__default_alloc_funcIZZNK11flatbuffers6kotlin15KotlinGenerator21GenerateStructGettersERNS4_9StructDefERNS4_10CodeWriterEENKUlvE9_clEvEUlvE_FvvEEEEEPKS1_NS_17integral_constantIbLb1EEEE9__policy_ = comdat any

$_ZZNSt3__110__function8__policy15__choose_policyINS0_20__default_alloc_funcIZZNK11flatbuffers6kotlin15KotlinGenerator21GenerateStructGettersERNS4_9StructDefERNS4_10CodeWriterEENKUlvE9_clEvEUlvE0_FvvEEEEEPKS1_NS_17integral_constantIbLb1EEEE9__policy_ = comdat any

$_ZZNSt3__110__function8__policy15__choose_policyINS0_20__default_alloc_funcIZNK11flatbuffers6kotlin15KotlinGenerator21GenerateStructGettersERNS4_9StructDefERNS4_10CodeWriterEEUlvE9_FvvEEEEEPKS1_NS_17integral_constantIbLb0EEEE9__policy_ = comdat any

$_ZZNSt3__110__function8__policy15__choose_policyINS0_20__default_alloc_funcIZZNK11flatbuffers6kotlin15KotlinGenerator21GenerateStructGettersERNS4_9StructDefERNS4_10CodeWriterEENKUlvE10_clEvEUlvE_FvvEEEEEPKS1_NS_17integral_constantIbLb1EEEE9__policy_ = comdat any

$_ZZNSt3__110__function8__policy15__choose_policyINS0_20__default_alloc_funcIZZNK11flatbuffers6kotlin15KotlinGenerator21GenerateStructGettersERNS4_9StructDefERNS4_10CodeWriterEENKUlvE10_clEvEUlvE0_FvvEEEEEPKS1_NS_17integral_constantIbLb1EEEE9__policy_ = comdat any

$_ZZNSt3__110__function8__policy15__choose_policyINS0_20__default_alloc_funcIZNK11flatbuffers6kotlin15KotlinGenerator21GenerateStructGettersERNS4_9StructDefERNS4_10CodeWriterEEUlvE10_FvvEEEEEPKS1_NS_17integral_constantIbLb0EEEE9__policy_ = comdat any

$_ZZNSt3__110__function8__policy15__choose_policyINS0_20__default_alloc_funcIZNK11flatbuffers6kotlin15KotlinGenerator21GenerateStructGettersERNS4_9StructDefERNS4_10CodeWriterEEUlvE11_FvvEEEEEPKS1_NS_17integral_constantIbLb1EEEE9__policy_ = comdat any

$_ZZNSt3__110__function8__policy15__choose_policyINS0_20__default_alloc_funcIZNK11flatbuffers6kotlin15KotlinGenerator21GenerateStructGettersERNS4_9StructDefERNS4_10CodeWriterEEUlvE12_FvvEEEEEPKS1_NS_17integral_constantIbLb1EEEE9__policy_ = comdat any

$_ZZNSt3__110__function8__policy15__choose_policyINS0_20__default_alloc_funcIZNK11flatbuffers6kotlin15KotlinGenerator21GenerateStructGettersERNS4_9StructDefERNS4_10CodeWriterEEUlvE13_FvvEEEEEPKS1_NS_17integral_constantIbLb0EEEE9__policy_ = comdat any

$_ZZNSt3__110__function8__policy15__choose_policyINS0_20__default_alloc_funcIZZNK11flatbuffers6kotlin15KotlinGenerator21GenerateStructGettersERNS4_9StructDefERNS4_10CodeWriterEENKUlvE14_clEvEUlvE_FvvEEEEEPKS1_NS_17integral_constantIbLb1EEEE9__policy_ = comdat any

$_ZZNSt3__110__function8__policy15__choose_policyINS0_20__default_alloc_funcIZZNK11flatbuffers6kotlin15KotlinGenerator21GenerateStructGettersERNS4_9StructDefERNS4_10CodeWriterEENKUlvE14_clEvEUlvE0_FvvEEEEEPKS1_NS_17integral_constantIbLb1EEEE9__policy_ = comdat any

$_ZZNSt3__110__function8__policy15__choose_policyINS0_20__default_alloc_funcIZNK11flatbuffers6kotlin15KotlinGenerator21GenerateStructGettersERNS4_9StructDefERNS4_10CodeWriterEEUlvE14_FvvEEEEEPKS1_NS_17integral_constantIbLb1EEEE9__policy_ = comdat any

$_ZZNSt3__110__function8__policy15__choose_policyINS0_20__default_alloc_funcIZZNK11flatbuffers6kotlin15KotlinGenerator21GenerateStructGettersERNS4_9StructDefERNS4_10CodeWriterEENKUlvE15_clEvEUlvE_FvvEEEEEPKS1_NS_17integral_constantIbLb1EEEE9__policy_ = comdat any

$_ZZNSt3__110__function8__policy15__choose_policyINS0_20__default_alloc_funcIZZNK11flatbuffers6kotlin15KotlinGenerator21GenerateStructGettersERNS4_9StructDefERNS4_10CodeWriterEENKUlvE15_clEvEUlvE0_FvvEEEEEPKS1_NS_17integral_constantIbLb1EEEE9__policy_ = comdat any

$_ZZNSt3__110__function8__policy15__choose_policyINS0_20__default_alloc_funcIZNK11flatbuffers6kotlin15KotlinGenerator21GenerateStructGettersERNS4_9StructDefERNS4_10CodeWriterEEUlvE15_FvvEEEEEPKS1_NS_17integral_constantIbLb0EEEE9__policy_ = comdat any

$_ZZNSt3__110__function8__policy15__choose_policyINS0_20__default_alloc_funcIZNK11flatbuffers6kotlin15KotlinGenerator21GenerateStructGettersERNS4_9StructDefERNS4_10CodeWriterEEUlvE16_FvvEEEEEPKS1_NS_17integral_constantIbLb0EEEE9__policy_ = comdat any

$_ZZNSt3__110__function8__policy15__choose_policyINS0_20__default_alloc_funcIZZNK11flatbuffers6kotlin15KotlinGenerator9GenStructERNS4_9StructDefERNS4_10CodeWriterEENKUlvE1_clEvEUlvE_FvvEEEEEPKS1_NS_17integral_constantIbLb1EEEE9__policy_ = comdat any

$_ZZNSt3__110__function8__policy15__choose_policyINS0_20__default_alloc_funcIZNK11flatbuffers6kotlin15KotlinGenerator27GenerateBufferHasIdentifierERNS4_9StructDefERNS4_10CodeWriterEEUlvE_FvvEEEEEPKS1_NS_17integral_constantIbLb1EEEE9__policy_ = comdat any

$_ZZNSt3__110__function8__policy15__choose_policyINS0_20__default_alloc_funcIZNK11flatbuffers6kotlin15KotlinGenerator20GenerateTableCreatorERNS4_9StructDefERNS4_10CodeWriterEEUlvE_FvvEEEEEPKS1_NS_17integral_constantIbLb0EEEE9__policy_ = comdat any

$_ZZNSt3__110__function8__policy15__choose_policyINS0_20__default_alloc_funcIZNK11flatbuffers6kotlin15KotlinGenerator25GenerateStartStructMethodERNS4_9StructDefERNS4_10CodeWriterEEUlvE_FvvEEEEEPKS1_NS_17integral_constantIbLb1EEEE9__policy_ = comdat any

$_ZZNSt3__110__function8__policy15__choose_policyINS0_20__default_alloc_funcIZNK11flatbuffers6kotlin15KotlinGenerator16GenerateAddFieldENS_12basic_stringIcNS_11char_traitsIcEENS_9allocatorIcEEEERNS4_8FieldDefERNS4_10CodeWriterEEUlvE_FvvEEEEEPKS1_NS_17integral_constantIbLb0EEEE9__policy_ = comdat any

$_ZZNSt3__110__function8__policy15__choose_policyINS0_20__default_alloc_funcIZNK11flatbuffers6kotlin15KotlinGenerator25GenerateCreateVectorFieldERNS4_8FieldDefERNS4_10CodeWriterEEUlvE_FvvEEEEEPKS1_NS_17integral_constantIbLb1EEEE9__policy_ = comdat any

$_ZZNSt3__110__function8__policy15__choose_policyINS0_20__default_alloc_funcIZNK11flatbuffers6kotlin15KotlinGenerator24GenerateStartVectorFieldERNS4_8FieldDefERNS4_10CodeWriterEEUlvE_FvvEEEEEPKS1_NS_17integral_constantIbLb1EEEE9__policy_ = comdat any

$_ZZNSt3__110__function8__policy15__choose_policyINS0_20__default_alloc_funcIZNK11flatbuffers6kotlin15KotlinGenerator23GenerateEndStructMethodERNS4_9StructDefERNS4_10CodeWriterEEUlvE_FvvEEEEEPKS1_NS_17integral_constantIbLb1EEEE9__policy_ = comdat any

$_ZZNSt3__110__function8__policy15__choose_policyINS0_20__default_alloc_funcIZNK11flatbuffers6kotlin15KotlinGenerator26GenerateFinishStructBufferERNS4_9StructDefERKNS_12basic_stringIcNS_11char_traitsIcEENS_9allocatorIcEEEERNS4_10CodeWriterEEUlvE_FvvEEEEEPKS1_NS_17integral_constantIbLb1EEEE9__policy_ = comdat any

$_ZZNSt3__110__function8__policy15__choose_policyINS0_20__default_alloc_funcIZNK11flatbuffers6kotlin15KotlinGenerator26GenerateFinishSizePrefixedERNS4_9StructDefERKNS_12basic_stringIcNS_11char_traitsIcEENS_9allocatorIcEEEERNS4_10CodeWriterEEUlvE_FvvEEEEEPKS1_NS_17integral_constantIbLb1EEEE9__policy_ = comdat any

$_ZZNSt3__110__function8__policy15__choose_policyINS0_20__default_alloc_funcIZNK11flatbuffers6kotlin15KotlinGenerator19GenerateLookupByKeyEPNS4_8FieldDefERNS4_9StructDefERNS4_10CodeWriterEEUlvE_FvvEEEEEPKS1_NS_17integral_constantIbLb0EEEE9__policy_ = comdat any

$_ZZNSt3__110__function8__policy15__choose_policyINS0_20__default_alloc_funcIZN11flatbuffers6kotlin15KotlinGenerator25GenerateStaticConstructorERKNS4_9StructDefERNS4_10CodeWriterEEUlvE_FvvEEEEEPKS1_NS_17integral_constantIbLb1EEEE9__policy_ = comdat any

$_ZZNSt3__110__function8__policy15__choose_policyINS0_20__default_alloc_funcIZNK11flatbuffers6kotlin15KotlinGenerator9GenStructERNS4_9StructDefERNS4_10CodeWriterEEUlvE1_FvvEEEEEPKS1_NS_17integral_constantIbLb0EEEE9__policy_ = comdat any

@.str = private unnamed_addr constant [19 x i8] c"FlatBuffers 1.12.0\00", align 1
@_ZN11flatbuffers25flatbuffer_version_stringE = weak hidden local_unnamed_addr global i8* getelementptr inbounds ([19 x i8], [19 x i8]* @.str, i64 0, i64 0), align 8
@_ZN11flatbuffers6kotlinL14KotlinFloatGenE = internal global %"class.flatbuffers::TypedFloatConstantGenerator" zeroinitializer, align 8
@.str.1 = private unnamed_addr constant [8 x i8] c"Double.\00", align 1
@.str.2 = private unnamed_addr constant [7 x i8] c"Float.\00", align 1
@.str.3 = private unnamed_addr constant [4 x i8] c"NaN\00", align 1
@.str.4 = private unnamed_addr constant [18 x i8] c"POSITIVE_INFINITY\00", align 1
@.str.5 = private unnamed_addr constant [18 x i8] c"NEGATIVE_INFINITY\00", align 1
@__dso_handle = external hidden global i8
@_ZN11flatbuffers6kotlinL9ident_padE = internal global %"class.std::__1::basic_string" zeroinitializer, align 8
@_ZTVN11flatbuffers27TypedFloatConstantGeneratorE = external unnamed_addr constant { [10 x i8*] }, align 8
@.str.8 = private unnamed_addr constant [1 x i8] zeroinitializer, align 1
@.str.9 = private unnamed_addr constant [2 x i8] c".\00", align 1
@_ZTVN11flatbuffers6kotlin15KotlinGeneratorE = linkonce_odr hidden unnamed_addr constant { [6 x i8*] } { [6 x i8*] [i8* null, i8* null, i8* bitcast (i1 (%"class.flatbuffers::kotlin::KotlinGenerator"*)* @_ZN11flatbuffers6kotlin15KotlinGenerator8generateEv to i8*), i8* bitcast (void (%"class.flatbuffers::BaseGenerator"*)* @_ZN11flatbuffers13BaseGeneratorD2Ev to i8*), i8* bitcast (void (%"class.flatbuffers::kotlin::KotlinGenerator"*)* @_ZN11flatbuffers6kotlin15KotlinGeneratorD0Ev to i8*), i8* bitcast (%"struct.flatbuffers::Namespace"* (%"class.flatbuffers::kotlin::KotlinGenerator"*)* @_ZNK11flatbuffers6kotlin15KotlinGenerator16CurrentNameSpaceEv to i8*)] }, comdat, align 8
@_ZTVN11flatbuffers13BaseGeneratorE = linkonce_odr hidden unnamed_addr constant { [6 x i8*] } { [6 x i8*] [i8* null, i8* null, i8* bitcast (void ()* @__cxa_pure_virtual to i8*), i8* bitcast (void (%"class.flatbuffers::BaseGenerator"*)* @_ZN11flatbuffers13BaseGeneratorD2Ev to i8*), i8* bitcast (void (%"class.flatbuffers::BaseGenerator"*)* @_ZN11flatbuffers13BaseGeneratorD0Ev to i8*), i8* bitcast (%"struct.flatbuffers::Namespace"* (%"class.flatbuffers::BaseGenerator"*)* @_ZNK11flatbuffers13BaseGenerator16CurrentNameSpaceEv to i8*)] }, comdat, align 8
@_ZTVNSt3__118basic_stringstreamIcNS_11char_traitsIcEENS_9allocatorIcEEEE = external unnamed_addr constant { [5 x i8*], [5 x i8*], [5 x i8*] }, align 8
@_ZTTNSt3__118basic_stringstreamIcNS_11char_traitsIcEENS_9allocatorIcEEEE = external unnamed_addr constant [10 x i8*], align 8
@_ZTVNSt3__115basic_stringbufIcNS_11char_traitsIcEENS_9allocatorIcEEEE = external unnamed_addr constant { [16 x i8*] }, align 8
@_ZN11flatbuffers6kotlinL14comment_configE = internal constant %"struct.flatbuffers::CommentConfig" { i8* getelementptr inbounds ([4 x i8], [4 x i8]* @.str.18, i32 0, i32 0), i8* getelementptr inbounds ([3 x i8], [3 x i8]* @.str.19, i32 0, i32 0), i8* getelementptr inbounds ([4 x i8], [4 x i8]* @.str.20, i32 0, i32 0) }, align 8
@.str.11 = private unnamed_addr constant [20 x i8] c"@Suppress(\22unused\22)\00", align 1
@.str.12 = private unnamed_addr constant [27 x i8] c"@ExperimentalUnsignedTypes\00", align 1
@.str.13 = private unnamed_addr constant [7 x i8] c"class \00", align 1
@.str.14 = private unnamed_addr constant [25 x i8] c" private constructor() {\00", align 1
@.str.16 = private unnamed_addr constant [4 x i8] c"///\00", align 1
@.str.18 = private unnamed_addr constant [4 x i8] c"/**\00", align 1
@.str.19 = private unnamed_addr constant [3 x i8] c" *\00", align 1
@.str.20 = private unnamed_addr constant [4 x i8] c" */\00", align 1
@_ZN11flatbuffers6kotlinL8keywordsE = internal unnamed_addr constant [30 x i8*] [i8* getelementptr inbounds ([8 x i8], [8 x i8]* @.str.22, i32 0, i32 0), i8* getelementptr inbounds ([3 x i8], [3 x i8]* @.str.23, i32 0, i32 0), i8* getelementptr inbounds ([10 x i8], [10 x i8]* @.str.24, i32 0, i32 0), i8* getelementptr inbounds ([6 x i8], [6 x i8]* @.str.25, i32 0, i32 0), i8* getelementptr inbounds ([5 x i8], [5 x i8]* @.str.26, i32 0, i32 0), i8* getelementptr inbounds ([6 x i8], [6 x i8]* @.str.27, i32 0, i32 0), i8* getelementptr inbounds ([4 x i8], [4 x i8]* @.str.28, i32 0, i32 0), i8* getelementptr inbounds ([4 x i8], [4 x i8]* @.str.29, i32 0, i32 0), i8* getelementptr inbounds ([4 x i8], [4 x i8]* @.str.30, i32 0, i32 0), i8* getelementptr inbounds ([4 x i8], [4 x i8]* @.str.31, i32 0, i32 0), i8* getelementptr inbounds ([5 x i8], [5 x i8]* @.str.32, i32 0, i32 0), i8* getelementptr inbounds ([5 x i8], [5 x i8]* @.str.33, i32 0, i32 0), i8* getelementptr inbounds ([6 x i8], [6 x i8]* @.str.34, i32 0, i32 0), i8* getelementptr inbounds ([3 x i8], [3 x i8]* @.str.35, i32 0, i32 0), i8* getelementptr inbounds ([3 x i8], [3 x i8]* @.str.36, i32 0, i32 0), i8* getelementptr inbounds ([6 x i8], [6 x i8]* @.str.37, i32 0, i32 0), i8* getelementptr inbounds ([7 x i8], [7 x i8]* @.str.38, i32 0, i32 0), i8* getelementptr inbounds ([6 x i8], [6 x i8]* @.str.39, i32 0, i32 0), i8* getelementptr inbounds ([9 x i8], [9 x i8]* @.str.40, i32 0, i32 0), i8* getelementptr inbounds ([7 x i8], [7 x i8]* @.str.41, i32 0, i32 0), i8* getelementptr inbounds ([3 x i8], [3 x i8]* @.str.42, i32 0, i32 0), i8* getelementptr inbounds ([4 x i8], [4 x i8]* @.str.43, i32 0, i32 0), i8* getelementptr inbounds ([5 x i8], [5 x i8]* @.str.44, i32 0, i32 0), i8* getelementptr inbounds ([6 x i8], [6 x i8]* @.str.45, i32 0, i32 0), i8* getelementptr inbounds ([3 x i8], [3 x i8]* @.str.46, i32 0, i32 0), i8* getelementptr inbounds ([5 x i8], [5 x i8]* @.str.47, i32 0, i32 0), i8* getelementptr inbounds ([10 x i8], [10 x i8]* @.str.48, i32 0, i32 0), i8* getelementptr inbounds ([7 x i8], [7 x i8]* @.str.49, i32 0, i32 0), i8* getelementptr inbounds ([4 x i8], [4 x i8]* @.str.50, i32 0, i32 0), i8* getelementptr inbounds ([10 x i8], [10 x i8]* @.str.51, i32 0, i32 0)], align 16
@.str.21 = private unnamed_addr constant [2 x i8] c"_\00", align 1
@.str.22 = private unnamed_addr constant [8 x i8] c"package\00", align 1
@.str.23 = private unnamed_addr constant [3 x i8] c"as\00", align 1
@.str.24 = private unnamed_addr constant [10 x i8] c"typealias\00", align 1
@.str.25 = private unnamed_addr constant [6 x i8] c"class\00", align 1
@.str.26 = private unnamed_addr constant [5 x i8] c"this\00", align 1
@.str.27 = private unnamed_addr constant [6 x i8] c"super\00", align 1
@.str.28 = private unnamed_addr constant [4 x i8] c"val\00", align 1
@.str.29 = private unnamed_addr constant [4 x i8] c"var\00", align 1
@.str.30 = private unnamed_addr constant [4 x i8] c"fun\00", align 1
@.str.31 = private unnamed_addr constant [4 x i8] c"for\00", align 1
@.str.32 = private unnamed_addr constant [5 x i8] c"null\00", align 1
@.str.33 = private unnamed_addr constant [5 x i8] c"true\00", align 1
@.str.34 = private unnamed_addr constant [6 x i8] c"false\00", align 1
@.str.35 = private unnamed_addr constant [3 x i8] c"is\00", align 1
@.str.36 = private unnamed_addr constant [3 x i8] c"in\00", align 1
@.str.37 = private unnamed_addr constant [6 x i8] c"throw\00", align 1
@.str.38 = private unnamed_addr constant [7 x i8] c"return\00", align 1
@.str.39 = private unnamed_addr constant [6 x i8] c"break\00", align 1
@.str.40 = private unnamed_addr constant [9 x i8] c"continue\00", align 1
@.str.41 = private unnamed_addr constant [7 x i8] c"object\00", align 1
@.str.42 = private unnamed_addr constant [3 x i8] c"if\00", align 1
@.str.43 = private unnamed_addr constant [4 x i8] c"try\00", align 1
@.str.44 = private unnamed_addr constant [5 x i8] c"else\00", align 1
@.str.45 = private unnamed_addr constant [6 x i8] c"while\00", align 1
@.str.46 = private unnamed_addr constant [3 x i8] c"do\00", align 1
@.str.47 = private unnamed_addr constant [5 x i8] c"when\00", align 1
@.str.48 = private unnamed_addr constant [10 x i8] c"interface\00", align 1
@.str.49 = private unnamed_addr constant [7 x i8] c"typeof\00", align 1
@.str.50 = private unnamed_addr constant [4 x i8] c"Any\00", align 1
@.str.51 = private unnamed_addr constant [10 x i8] c"Character\00", align 1
@.str.52 = private unnamed_addr constant [19 x i8] c"companion object {\00", align 1
@.str.55 = private unnamed_addr constant [39 x i8] c"const val {{name}}: {{type}} = {{val}}\00", align 1
@.str.56 = private unnamed_addr constant [6 x i8] c"names\00", align 1
@.str.57 = private unnamed_addr constant [14 x i8] c"Array<String>\00", align 1
@.str.58 = private unnamed_addr constant [7 x i8] c"e: Int\00", align 1
@.str.59 = private unnamed_addr constant [7 x i8] c"String\00", align 1
@_ZZN11flatbuffers6kotlin15KotlinGenerator12GenTypeBasicERKNS_8BaseTypeEE15kotlin_typename = linkonce_odr hidden local_unnamed_addr constant [18 x i8*] [i8* getelementptr inbounds ([6 x i8], [6 x i8]* @.str.60, i32 0, i32 0), i8* getelementptr inbounds ([6 x i8], [6 x i8]* @.str.60, i32 0, i32 0), i8* getelementptr inbounds ([8 x i8], [8 x i8]* @.str.61, i32 0, i32 0), i8* getelementptr inbounds ([5 x i8], [5 x i8]* @.str.62, i32 0, i32 0), i8* getelementptr inbounds ([6 x i8], [6 x i8]* @.str.60, i32 0, i32 0), i8* getelementptr inbounds ([6 x i8], [6 x i8]* @.str.63, i32 0, i32 0), i8* getelementptr inbounds ([7 x i8], [7 x i8]* @.str.64, i32 0, i32 0), i8* getelementptr inbounds ([4 x i8], [4 x i8]* @.str.65, i32 0, i32 0), i8* getelementptr inbounds ([5 x i8], [5 x i8]* @.str.66, i32 0, i32 0), i8* getelementptr inbounds ([5 x i8], [5 x i8]* @.str.67, i32 0, i32 0), i8* getelementptr inbounds ([6 x i8], [6 x i8]* @.str.68, i32 0, i32 0), i8* getelementptr inbounds ([6 x i8], [6 x i8]* @.str.69, i32 0, i32 0), i8* getelementptr inbounds ([7 x i8], [7 x i8]* @.str.70, i32 0, i32 0), i8* getelementptr inbounds ([4 x i8], [4 x i8]* @.str.65, i32 0, i32 0), i8* getelementptr inbounds ([4 x i8], [4 x i8]* @.str.65, i32 0, i32 0), i8* getelementptr inbounds ([4 x i8], [4 x i8]* @.str.65, i32 0, i32 0), i8* getelementptr inbounds ([4 x i8], [4 x i8]* @.str.65, i32 0, i32 0), i8* getelementptr inbounds ([4 x i8], [4 x i8]* @.str.65, i32 0, i32 0)], comdat, align 16
@.str.60 = private unnamed_addr constant [6 x i8] c"UByte\00", align 1
@.str.61 = private unnamed_addr constant [8 x i8] c"Boolean\00", align 1
@.str.62 = private unnamed_addr constant [5 x i8] c"Byte\00", align 1
@.str.63 = private unnamed_addr constant [6 x i8] c"Short\00", align 1
@.str.64 = private unnamed_addr constant [7 x i8] c"UShort\00", align 1
@.str.65 = private unnamed_addr constant [4 x i8] c"Int\00", align 1
@.str.66 = private unnamed_addr constant [5 x i8] c"UInt\00", align 1
@.str.67 = private unnamed_addr constant [5 x i8] c"Long\00", align 1
@.str.68 = private unnamed_addr constant [6 x i8] c"ULong\00", align 1
@.str.69 = private unnamed_addr constant [6 x i8] c"Float\00", align 1
@.str.70 = private unnamed_addr constant [7 x i8] c"Double\00", align 1
@_ZNSt3__1L19piecewise_constructE = internal constant %"struct.std::__1::piecewise_construct_t" undef, align 1
@.str.74 = private unnamed_addr constant [6 x i8] c"_name\00", align 1
@.str.75 = private unnamed_addr constant [6 x i8] c"_type\00", align 1
@.str.76 = private unnamed_addr constant [30 x i8] c"val {{_name}} : {{_type}} = \5C\00", align 1
@.str.77 = private unnamed_addr constant [10 x i8] c"arrayOf(\5C\00", align 1
@.str.78 = private unnamed_addr constant [6 x i8] c"\22\22, \5C\00", align 1
@.str.79 = private unnamed_addr constant [2 x i8] c"\22\00", align 1
@.str.80 = private unnamed_addr constant [3 x i8] c"\22\5C\00", align 1
@.str.81 = private unnamed_addr constant [4 x i8] c", \5C\00", align 1
@.str.82 = private unnamed_addr constant [2 x i8] c")\00", align 1
@_ZZNSt3__110__function8__policy15__choose_policyINS0_20__default_alloc_funcIZZNK11flatbuffers6kotlin15KotlinGenerator7GenEnumERNS4_7EnumDefERNS4_10CodeWriterEENKUlvE_clEvEUlvE_FvvEEEEEPKS1_NS_17integral_constantIbLb0EEEE9__policy_ = linkonce_odr hidden constant %"struct.std::__1::__function::__policy" { i8* (i8*)* @_ZNSt3__110__function8__policy13__large_cloneINS0_20__default_alloc_funcIZZNK11flatbuffers6kotlin15KotlinGenerator7GenEnumERNS4_7EnumDefERNS4_10CodeWriterEENKUlvE_clEvEUlvE_FvvEEEEEPvPKv, void (i8*)* @_ZNSt3__110__function8__policy15__large_destroyINS0_20__default_alloc_funcIZZNK11flatbuffers6kotlin15KotlinGenerator7GenEnumERNS4_7EnumDefERNS4_10CodeWriterEENKUlvE_clEvEUlvE_FvvEEEEEvPv, i8 0, %"class.std::type_info"* null }, comdat, align 8
@.str.83 = private unnamed_addr constant [7 x i8] c"params\00", align 1
@.str.84 = private unnamed_addr constant [14 x i8] c"return_type_p\00", align 1
@.str.85 = private unnamed_addr constant [4 x i8] c" : \00", align 1
@.str.86 = private unnamed_addr constant [46 x i8] c"fun {{name}}({{params}}){{return_type_p}} = \5C\00", align 1
@.str.88 = private unnamed_addr constant [4 x i8] c" - \00", align 1
@.str.89 = private unnamed_addr constant [10 x i8] c".toInt()\5C\00", align 1
@_ZZNSt3__110__function8__policy15__choose_policyINS0_20__default_alloc_funcIZZNK11flatbuffers6kotlin15KotlinGenerator7GenEnumERNS4_7EnumDefERNS4_10CodeWriterEENKUlvE_clEvEUlvE0_FvvEEEEEPKS1_NS_17integral_constantIbLb1EEEE9__policy_ = linkonce_odr hidden constant %"struct.std::__1::__function::__policy" zeroinitializer, comdat, align 8
@_ZZNSt3__110__function8__policy15__choose_policyINS0_20__default_alloc_funcIZNK11flatbuffers6kotlin15KotlinGenerator7GenEnumERNS4_7EnumDefERNS4_10CodeWriterEEUlvE_FvvEEEEEPKS1_NS_17integral_constantIbLb0EEEE9__policy_ = linkonce_odr hidden constant %"struct.std::__1::__function::__policy" { i8* (i8*)* @_ZNSt3__110__function8__policy13__large_cloneINS0_20__default_alloc_funcIZNK11flatbuffers6kotlin15KotlinGenerator7GenEnumERNS4_7EnumDefERNS4_10CodeWriterEEUlvE_FvvEEEEEPvPKv, void (i8*)* @_ZNSt3__110__function8__policy15__large_destroyINS0_20__default_alloc_funcIZNK11flatbuffers6kotlin15KotlinGenerator7GenEnumERNS4_7EnumDefERNS4_10CodeWriterEEUlvE_FvvEEEEEvPv, i8 0, %"class.std::type_info"* null }, comdat, align 8
@.str.91 = private unnamed_addr constant [4 x i8] c"// \00", align 1
@.str.92 = private unnamed_addr constant [3 x i8] c"\0A\0A\00", align 1
@.str.93 = private unnamed_addr constant [9 x i8] c"package \00", align 1
@.str.94 = private unnamed_addr constant [19 x i8] c"import java.nio.*\0A\00", align 1
@.str.95 = private unnamed_addr constant [25 x i8] c"import kotlin.math.sign\0A\00", align 1
@.str.96 = private unnamed_addr constant [34 x i8] c"import com.google.flatbuffers.*\0A\0A\00", align 1
@.str.97 = private unnamed_addr constant [4 x i8] c".kt\00", align 1
@.str.98 = private unnamed_addr constant [12 x i8] c"struct_name\00", align 1
@.str.99 = private unnamed_addr constant [11 x i8] c"superclass\00", align 1
@.str.100 = private unnamed_addr constant [7 x i8] c"Struct\00", align 1
@.str.101 = private unnamed_addr constant [6 x i8] c"Table\00", align 1
@.str.102 = private unnamed_addr constant [44 x i8] c"class {{struct_name}} : {{superclass}}() {\0A\00", align 1
@.str.103 = private unnamed_addr constant [7 x i8] c"__init\00", align 1
@.str.104 = private unnamed_addr constant [25 x i8] c"_i: Int, _bb: ByteBuffer\00", align 1
@.str.106 = private unnamed_addr constant [12 x i8] c"return_type\00", align 1
@.str.107 = private unnamed_addr constant [3 x i8] c": \00", align 1
@.str.108 = private unnamed_addr constant [43 x i8] c"fun {{name}}({{params}}) {{return_type}} {\00", align 1
@.str.109 = private unnamed_addr constant [17 x i8] c"__reset(_i, _bb)\00", align 1
@_ZZNSt3__110__function8__policy15__choose_policyINS0_20__default_alloc_funcIZNK11flatbuffers6kotlin15KotlinGenerator9GenStructERNS4_9StructDefERNS4_10CodeWriterEEUlvE_FvvEEEEEPKS1_NS_17integral_constantIbLb1EEEE9__policy_ = linkonce_odr hidden constant %"struct.std::__1::__function::__policy" zeroinitializer, comdat, align 8
@.str.110 = private unnamed_addr constant [16 x i8] c"__init(_i, _bb)\00", align 1
@.str.111 = private unnamed_addr constant [12 x i8] c"return this\00", align 1
@_ZZNSt3__110__function8__policy15__choose_policyINS0_20__default_alloc_funcIZNK11flatbuffers6kotlin15KotlinGenerator9GenStructERNS4_9StructDefERNS4_10CodeWriterEEUlvE0_FvvEEEEEPKS1_NS_17integral_constantIbLb1EEEE9__policy_ = linkonce_odr hidden constant %"struct.std::__1::__function::__policy" zeroinitializer, comdat, align 8
@.str.113 = private unnamed_addr constant [18 x i8] c"val o = __offset(\00", align 1
@.str.114 = private unnamed_addr constant [20 x i8] c"); return o != 0 ? \00", align 1
@.str.115 = private unnamed_addr constant [7 x i8] c"offset\00", align 1
@.str.116 = private unnamed_addr constant [11 x i8] c"field_type\00", align 1
@.str.117 = private unnamed_addr constant [11 x i8] c"field_name\00", align 1
@.str.118 = private unnamed_addr constant [14 x i8] c"field_default\00", align 1
@.str.120 = private unnamed_addr constant [6 x i8] c"ucast\00", align 1
@.str.121 = private unnamed_addr constant [2 x i8] c"?\00", align 1
@.str.122 = private unnamed_addr constant [7 x i8] c"j: Int\00", align 1
@.str.123 = private unnamed_addr constant [6 x i8] c"obj: \00", align 1
@.str.124 = private unnamed_addr constant [9 x i8] c", j: Int\00", align 1
@.str.125 = private unnamed_addr constant [7 x i8] c"Length\00", align 1
@.str.126 = private unnamed_addr constant [6 x i8] c"ByKey\00", align 1
@.str.127 = private unnamed_addr constant [6 x i8] c"key: \00", align 1
@.str.128 = private unnamed_addr constant [8 x i8] c", key: \00", align 1
@.str.129 = private unnamed_addr constant [13 x i8] c"AsByteBuffer\00", align 1
@.str.130 = private unnamed_addr constant [11 x i8] c"ByteBuffer\00", align 1
@.str.131 = private unnamed_addr constant [13 x i8] c"InByteBuffer\00", align 1
@.str.132 = private unnamed_addr constant [16 x i8] c"_bb: ByteBuffer\00", align 1
@.str.133 = private unnamed_addr constant [3 x i8] c"As\00", align 1
@.str.134 = private unnamed_addr constant [7 x i8] c"mutate\00", align 1
@.str.135 = private unnamed_addr constant [9 x i8] c"j: Int, \00", align 1
@.str.136 = private unnamed_addr constant [5 x i8] c"(if(\00", align 1
@.str.137 = private unnamed_addr constant [21 x i8] c") 1 else 0).toByte()\00", align 1
@.str.138 = private unnamed_addr constant [19 x i8] c"__vector(o) + j * \00", align 1
@.str.139 = private unnamed_addr constant [10 x i8] c"bb_pos + \00", align 1
@.str.140 = private unnamed_addr constant [11 x i8] c"o + bb_pos\00", align 1
@.str.141 = private unnamed_addr constant [12 x i8] c"keysCompare\00", align 1
@.str.142 = private unnamed_addr constant [34 x i8] c"o1: Int, o2: Int, _bb: ByteBuffer\00", align 1
@.str.143 = private unnamed_addr constant [2 x i8] c"0\00", align 1
@.str.146 = private unnamed_addr constant [8 x i8] c"__union\00", align 1
@.str.147 = private unnamed_addr constant [8 x i8] c".getInt\00", align 1
@.str.148 = private unnamed_addr constant [10 x i8] c".getShort\00", align 1
@.str.149 = private unnamed_addr constant [9 x i8] c".getLong\00", align 1
@.str.150 = private unnamed_addr constant [10 x i8] c".getFloat\00", align 1
@.str.151 = private unnamed_addr constant [11 x i8] c".getDouble\00", align 1
@.str.152 = private unnamed_addr constant [5 x i8] c".get\00", align 1
@.str.153 = private unnamed_addr constant [15 x i8] c"0.toByte() != \00", align 1
@.str.154 = private unnamed_addr constant [10 x i8] c".toUInt()\00", align 1
@.str.155 = private unnamed_addr constant [11 x i8] c".toUByte()\00", align 1
@.str.156 = private unnamed_addr constant [12 x i8] c".toUShort()\00", align 1
@.str.157 = private unnamed_addr constant [11 x i8] c".toULong()\00", align 1
@.str.158 = private unnamed_addr constant [36 x i8] c"val {{_name}} : {{_type}} get() = \5C\00", align 1
@.str.159 = private unnamed_addr constant [33 x i8] c"{{field_name}}({{field_type}}())\00", align 1
@_ZZNSt3__110__function8__policy15__choose_policyINS0_20__default_alloc_funcIZNK11flatbuffers6kotlin15KotlinGenerator21GenerateStructGettersERNS4_9StructDefERNS4_10CodeWriterEEUlvE_FvvEEEEEPKS1_NS_17integral_constantIbLb1EEEE9__policy_ = linkonce_odr hidden constant %"struct.std::__1::__function::__policy" zeroinitializer, comdat, align 8
@.str.160 = private unnamed_addr constant [37 x i8] c"{{field_name}}({{return_type}}(), j)\00", align 1
@_ZZNSt3__110__function8__policy15__choose_policyINS0_20__default_alloc_funcIZNK11flatbuffers6kotlin15KotlinGenerator21GenerateStructGettersERNS4_9StructDefERNS4_10CodeWriterEEUlvE0_FvvEEEEEPKS1_NS_17integral_constantIbLb1EEEE9__policy_ = linkonce_odr hidden constant %"struct.std::__1::__function::__policy" zeroinitializer, comdat, align 8
@.str.161 = private unnamed_addr constant [43 x i8] c"{{bbgetter}}(bb_pos + {{offset}}){{ucast}}\00", align 1
@_ZZNSt3__110__function8__policy15__choose_policyINS0_20__default_alloc_funcIZNK11flatbuffers6kotlin15KotlinGenerator21GenerateStructGettersERNS4_9StructDefERNS4_10CodeWriterEEUlvE1_FvvEEEEEPKS1_NS_17integral_constantIbLb1EEEE9__policy_ = linkonce_odr hidden constant %"struct.std::__1::__function::__policy" zeroinitializer, comdat, align 8
@.str.162 = private unnamed_addr constant [24 x i8] c"val {{name}} : {{type}}\00", align 1
@.str.163 = private unnamed_addr constant [8 x i8] c"get() {\00", align 1
@.str.164 = private unnamed_addr constant [29 x i8] c"val o = __offset({{offset}})\00", align 1
@.str.165 = private unnamed_addr constant [75 x i8] c"return if(o != 0) {{bbgetter}}(o + bb_pos){{ucast}} else {{field_default}}\00", align 1
@_ZZNSt3__110__function8__policy15__choose_policyINS0_20__default_alloc_funcIZNK11flatbuffers6kotlin15KotlinGenerator21GenerateStructGettersERNS4_9StructDefERNS4_10CodeWriterEEUlvE2_FvvEEEEEPKS1_NS_17integral_constantIbLb1EEEE9__policy_ = linkonce_odr hidden constant %"struct.std::__1::__function::__policy" zeroinitializer, comdat, align 8
@.str.166 = private unnamed_addr constant [38 x i8] c"obj.__assign(bb_pos + {{offset}}, bb)\00", align 1
@_ZZNSt3__110__function8__policy15__choose_policyINS0_20__default_alloc_funcIZNK11flatbuffers6kotlin15KotlinGenerator21GenerateStructGettersERNS4_9StructDefERNS4_10CodeWriterEEUlvE3_FvvEEEEEPKS1_NS_17integral_constantIbLb1EEEE9__policy_ = linkonce_odr hidden constant %"struct.std::__1::__function::__policy" zeroinitializer, comdat, align 8
@.str.168 = private unnamed_addr constant [12 x i8] c"__indirect(\00", align 1
@.str.169 = private unnamed_addr constant [21 x i8] c"return if (o != 0) {\00", align 1
@.str.171 = private unnamed_addr constant [27 x i8] c"obj.__assign({{seek}}, bb)\00", align 1
@_ZZNSt3__110__function8__policy15__choose_policyINS0_20__default_alloc_funcIZZNK11flatbuffers6kotlin15KotlinGenerator21GenerateStructGettersERNS4_9StructDefERNS4_10CodeWriterEENKUlvE4_clEvEUlvE_FvvEEEEEPKS1_NS_17integral_constantIbLb1EEEE9__policy_ = linkonce_odr hidden constant %"struct.std::__1::__function::__policy" zeroinitializer, comdat, align 8
@_ZZNSt3__110__function8__policy15__choose_policyINS0_20__default_alloc_funcIZZNK11flatbuffers6kotlin15KotlinGenerator21GenerateStructGettersERNS4_9StructDefERNS4_10CodeWriterEENKUlvE4_clEvEUlvE0_FvvEEEEEPKS1_NS_17integral_constantIbLb1EEEE9__policy_ = linkonce_odr hidden constant %"struct.std::__1::__function::__policy" zeroinitializer, comdat, align 8
@_ZZNSt3__110__function8__policy15__choose_policyINS0_20__default_alloc_funcIZNK11flatbuffers6kotlin15KotlinGenerator21GenerateStructGettersERNS4_9StructDefERNS4_10CodeWriterEEUlvE4_FvvEEEEEPKS1_NS_17integral_constantIbLb0EEEE9__policy_ = linkonce_odr hidden constant %"struct.std::__1::__function::__policy" { i8* (i8*)* @_ZNSt3__110__function8__policy13__large_cloneINS0_20__default_alloc_funcIZNK11flatbuffers6kotlin15KotlinGenerator21GenerateStructGettersERNS4_9StructDefERNS4_10CodeWriterEEUlvE4_FvvEEEEEPvPKv, void (i8*)* @_ZNSt3__110__function8__policy15__large_destroyINS0_20__default_alloc_funcIZNK11flatbuffers6kotlin15KotlinGenerator21GenerateStructGettersERNS4_9StructDefERNS4_10CodeWriterEEUlvE4_FvvEEEEEvPv, i8 0, %"class.std::type_info"* null }, comdat, align 8
@.str.172 = private unnamed_addr constant [50 x i8] c"return if (o != 0) __string(o + bb_pos) else null\00", align 1
@_ZZNSt3__110__function8__policy15__choose_policyINS0_20__default_alloc_funcIZNK11flatbuffers6kotlin15KotlinGenerator21GenerateStructGettersERNS4_9StructDefERNS4_10CodeWriterEEUlvE5_FvvEEEEEPKS1_NS_17integral_constantIbLb1EEEE9__policy_ = linkonce_odr hidden constant %"struct.std::__1::__function::__policy" zeroinitializer, comdat, align 8
@.str.173 = private unnamed_addr constant [6 x i8] c"index\00", align 1
@.str.174 = private unnamed_addr constant [28 x i8] c"obj.__assign({{index}}, bb)\00", align 1
@.str.175 = private unnamed_addr constant [47 x i8] c"{{bbgetter}}(obj, {{index}} - bb_pos){{ucast}}\00", align 1
@.str.176 = private unnamed_addr constant [33 x i8] c"{{bbgetter}}({{index}}){{ucast}}\00", align 1
@.str.178 = private unnamed_addr constant [4 x i8] c"0.0\00", align 1
@.str.180 = private unnamed_addr constant [4 x i8] c"0uL\00", align 1
@_ZZNSt3__110__function8__policy15__choose_policyINS0_20__default_alloc_funcIZZNK11flatbuffers6kotlin15KotlinGenerator21GenerateStructGettersERNS4_9StructDefERNS4_10CodeWriterEENKUlvE6_clEvEUlvE_FvvEEEEEPKS1_NS_17integral_constantIbLb1EEEE9__policy_ = linkonce_odr hidden constant %"struct.std::__1::__function::__policy" zeroinitializer, comdat, align 8
@_ZZNSt3__110__function8__policy15__choose_policyINS0_20__default_alloc_funcIZZNK11flatbuffers6kotlin15KotlinGenerator21GenerateStructGettersERNS4_9StructDefERNS4_10CodeWriterEENKUlvE6_clEvEUlvE0_FvvEEEEEPKS1_NS_17integral_constantIbLb1EEEE9__policy_ = linkonce_odr hidden constant %"struct.std::__1::__function::__policy" zeroinitializer, comdat, align 8
@_ZZNSt3__110__function8__policy15__choose_policyINS0_20__default_alloc_funcIZNK11flatbuffers6kotlin15KotlinGenerator21GenerateStructGettersERNS4_9StructDefERNS4_10CodeWriterEEUlvE6_FvvEEEEEPKS1_NS_17integral_constantIbLb0EEEE9__policy_ = linkonce_odr hidden constant %"struct.std::__1::__function::__policy" { i8* (i8*)* @_ZNSt3__110__function8__policy13__large_cloneINS0_20__default_alloc_funcIZNK11flatbuffers6kotlin15KotlinGenerator21GenerateStructGettersERNS4_9StructDefERNS4_10CodeWriterEEUlvE6_FvvEEEEEPvPKv, void (i8*)* @_ZNSt3__110__function8__policy15__large_destroyINS0_20__default_alloc_funcIZNK11flatbuffers6kotlin15KotlinGenerator21GenerateStructGettersERNS4_9StructDefERNS4_10CodeWriterEEUlvE6_FvvEEEEEvPv, i8 0, %"class.std::type_info"* null }, comdat, align 8
@.str.181 = private unnamed_addr constant [18 x i8] c"(obj, o + bb_pos)\00", align 1
@.str.182 = private unnamed_addr constant [23 x i8] c"); return if (o != 0) \00", align 1
@.str.183 = private unnamed_addr constant [7 x i8] c" else \00", align 1
@_ZZNSt3__110__function8__policy15__choose_policyINS0_20__default_alloc_funcIZNK11flatbuffers6kotlin15KotlinGenerator21GenerateStructGettersERNS4_9StructDefERNS4_10CodeWriterEEUlvE7_FvvEEEEEPKS1_NS_17integral_constantIbLb0EEEE9__policy_ = linkonce_odr hidden constant %"struct.std::__1::__function::__policy" { i8* (i8*)* @_ZNSt3__110__function8__policy13__large_cloneINS0_20__default_alloc_funcIZNK11flatbuffers6kotlin15KotlinGenerator21GenerateStructGettersERNS4_9StructDefERNS4_10CodeWriterEEUlvE7_FvvEEEEEPvPKv, void (i8*)* @_ZNSt3__110__function8__policy15__large_destroyINS0_20__default_alloc_funcIZNK11flatbuffers6kotlin15KotlinGenerator21GenerateStructGettersERNS4_9StructDefERNS4_10CodeWriterEEUlvE7_FvvEEEEEvPv, i8 0, %"class.std::type_info"* null }, comdat, align 8
@.str.184 = private unnamed_addr constant [16 x i8] c"__vector_len(o)\00", align 1
@_ZZNSt3__110__function8__policy15__choose_policyINS0_20__default_alloc_funcIZNK11flatbuffers6kotlin15KotlinGenerator21GenerateStructGettersERNS4_9StructDefERNS4_10CodeWriterEEUlvE8_FvvEEEEEPKS1_NS_17integral_constantIbLb1EEEE9__policy_ = linkonce_odr hidden constant %"struct.std::__1::__function::__policy" zeroinitializer, comdat, align 8
@.str.185 = private unnamed_addr constant [45 x i8] c".__lookup_by_key(null, __vector(o), key, bb)\00", align 1
@_ZZNSt3__110__function8__policy15__choose_policyINS0_20__default_alloc_funcIZZNK11flatbuffers6kotlin15KotlinGenerator21GenerateStructGettersERNS4_9StructDefERNS4_10CodeWriterEENKUlvE9_clEvEUlvE_FvvEEEEEPKS1_NS_17integral_constantIbLb1EEEE9__policy_ = linkonce_odr hidden constant %"struct.std::__1::__function::__policy" zeroinitializer, comdat, align 8
@_ZZNSt3__110__function8__policy15__choose_policyINS0_20__default_alloc_funcIZZNK11flatbuffers6kotlin15KotlinGenerator21GenerateStructGettersERNS4_9StructDefERNS4_10CodeWriterEENKUlvE9_clEvEUlvE0_FvvEEEEEPKS1_NS_17integral_constantIbLb1EEEE9__policy_ = linkonce_odr hidden constant %"struct.std::__1::__function::__policy" zeroinitializer, comdat, align 8
@_ZZNSt3__110__function8__policy15__choose_policyINS0_20__default_alloc_funcIZNK11flatbuffers6kotlin15KotlinGenerator21GenerateStructGettersERNS4_9StructDefERNS4_10CodeWriterEEUlvE9_FvvEEEEEPKS1_NS_17integral_constantIbLb0EEEE9__policy_ = linkonce_odr hidden constant %"struct.std::__1::__function::__policy" { i8* (i8*)* @_ZNSt3__110__function8__policy13__large_cloneINS0_20__default_alloc_funcIZNK11flatbuffers6kotlin15KotlinGenerator21GenerateStructGettersERNS4_9StructDefERNS4_10CodeWriterEEUlvE9_FvvEEEEEPvPKv, void (i8*)* @_ZNSt3__110__function8__policy15__large_destroyINS0_20__default_alloc_funcIZNK11flatbuffers6kotlin15KotlinGenerator21GenerateStructGettersERNS4_9StructDefERNS4_10CodeWriterEEUlvE9_FvvEEEEEvPv, i8 0, %"class.std::type_info"* null }, comdat, align 8
@.str.186 = private unnamed_addr constant [44 x i8] c".__lookup_by_key(obj, __vector(o), key, bb)\00", align 1
@_ZZNSt3__110__function8__policy15__choose_policyINS0_20__default_alloc_funcIZZNK11flatbuffers6kotlin15KotlinGenerator21GenerateStructGettersERNS4_9StructDefERNS4_10CodeWriterEENKUlvE10_clEvEUlvE_FvvEEEEEPKS1_NS_17integral_constantIbLb1EEEE9__policy_ = linkonce_odr hidden constant %"struct.std::__1::__function::__policy" zeroinitializer, comdat, align 8
@_ZZNSt3__110__function8__policy15__choose_policyINS0_20__default_alloc_funcIZZNK11flatbuffers6kotlin15KotlinGenerator21GenerateStructGettersERNS4_9StructDefERNS4_10CodeWriterEENKUlvE10_clEvEUlvE0_FvvEEEEEPKS1_NS_17integral_constantIbLb1EEEE9__policy_ = linkonce_odr hidden constant %"struct.std::__1::__function::__policy" zeroinitializer, comdat, align 8
@_ZZNSt3__110__function8__policy15__choose_policyINS0_20__default_alloc_funcIZNK11flatbuffers6kotlin15KotlinGenerator21GenerateStructGettersERNS4_9StructDefERNS4_10CodeWriterEEUlvE10_FvvEEEEEPKS1_NS_17integral_constantIbLb0EEEE9__policy_ = linkonce_odr hidden constant %"struct.std::__1::__function::__policy" { i8* (i8*)* @_ZNSt3__110__function8__policy13__large_cloneINS0_20__default_alloc_funcIZNK11flatbuffers6kotlin15KotlinGenerator21GenerateStructGettersERNS4_9StructDefERNS4_10CodeWriterEEUlvE10_FvvEEEEEPvPKv, void (i8*)* @_ZNSt3__110__function8__policy15__large_destroyINS0_20__default_alloc_funcIZNK11flatbuffers6kotlin15KotlinGenerator21GenerateStructGettersERNS4_9StructDefERNS4_10CodeWriterEEUlvE10_FvvEEEEEvPv, i8 0, %"class.std::type_info"* null }, comdat, align 8
@_ZN11flatbuffers10kTypeSizesE = external local_unnamed_addr constant [0 x i8], align 1
@.str.187 = private unnamed_addr constant [4 x i8] c"end\00", align 1
@.str.188 = private unnamed_addr constant [44 x i8] c"__vector_as_bytebuffer({{offset}}, {{end}})\00", align 1
@_ZZNSt3__110__function8__policy15__choose_policyINS0_20__default_alloc_funcIZNK11flatbuffers6kotlin15KotlinGenerator21GenerateStructGettersERNS4_9StructDefERNS4_10CodeWriterEEUlvE11_FvvEEEEEPKS1_NS_17integral_constantIbLb1EEEE9__policy_ = linkonce_odr hidden constant %"struct.std::__1::__function::__policy" zeroinitializer, comdat, align 8
@.str.189 = private unnamed_addr constant [49 x i8] c"__vector_in_bytebuffer(_bb, {{offset}}, {{end}})\00", align 1
@_ZZNSt3__110__function8__policy15__choose_policyINS0_20__default_alloc_funcIZNK11flatbuffers6kotlin15KotlinGenerator21GenerateStructGettersERNS4_9StructDefERNS4_10CodeWriterEEUlvE12_FvvEEEEEPKS1_NS_17integral_constantIbLb1EEEE9__policy_ = linkonce_odr hidden constant %"struct.std::__1::__function::__policy" zeroinitializer, comdat, align 8
@.str.190 = private unnamed_addr constant [2 x i8] c"(\00", align 1
@.str.191 = private unnamed_addr constant [4 x i8] c"())\00", align 1
@_ZZNSt3__110__function8__policy15__choose_policyINS0_20__default_alloc_funcIZNK11flatbuffers6kotlin15KotlinGenerator21GenerateStructGettersERNS4_9StructDefERNS4_10CodeWriterEEUlvE13_FvvEEEEEPKS1_NS_17integral_constantIbLb0EEEE9__policy_ = linkonce_odr hidden constant %"struct.std::__1::__function::__policy" { i8* (i8*)* @_ZNSt3__110__function8__policy13__large_cloneINS0_20__default_alloc_funcIZNK11flatbuffers6kotlin15KotlinGenerator21GenerateStructGettersERNS4_9StructDefERNS4_10CodeWriterEEUlvE13_FvvEEEEEPvPKv, void (i8*)* @_ZNSt3__110__function8__policy15__large_destroyINS0_20__default_alloc_funcIZNK11flatbuffers6kotlin15KotlinGenerator21GenerateStructGettersERNS4_9StructDefERNS4_10CodeWriterEEUlvE13_FvvEEEEEvPv, i8 0, %"class.std::type_info"* null }, comdat, align 8
@.str.192 = private unnamed_addr constant [42 x i8] c"obj.__assign(__indirect(__vector(o)), bb)\00", align 1
@_ZZNSt3__110__function8__policy15__choose_policyINS0_20__default_alloc_funcIZZNK11flatbuffers6kotlin15KotlinGenerator21GenerateStructGettersERNS4_9StructDefERNS4_10CodeWriterEENKUlvE14_clEvEUlvE_FvvEEEEEPKS1_NS_17integral_constantIbLb1EEEE9__policy_ = linkonce_odr hidden constant %"struct.std::__1::__function::__policy" zeroinitializer, comdat, align 8
@_ZZNSt3__110__function8__policy15__choose_policyINS0_20__default_alloc_funcIZZNK11flatbuffers6kotlin15KotlinGenerator21GenerateStructGettersERNS4_9StructDefERNS4_10CodeWriterEENKUlvE14_clEvEUlvE0_FvvEEEEEPKS1_NS_17integral_constantIbLb1EEEE9__policy_ = linkonce_odr hidden constant %"struct.std::__1::__function::__policy" zeroinitializer, comdat, align 8
@_ZZNSt3__110__function8__policy15__choose_policyINS0_20__default_alloc_funcIZNK11flatbuffers6kotlin15KotlinGenerator21GenerateStructGettersERNS4_9StructDefERNS4_10CodeWriterEEUlvE14_FvvEEEEEPKS1_NS_17integral_constantIbLb1EEEE9__policy_ = linkonce_odr hidden constant %"struct.std::__1::__function::__policy" zeroinitializer, comdat, align 8
@.str.195 = private unnamed_addr constant [44 x i8] c"{{bbsetter}}({{index}}, {{params}}{{cast}})\00", align 1
@.str.196 = private unnamed_addr constant [10 x i8] c"bb.putInt\00", align 1
@.str.197 = private unnamed_addr constant [12 x i8] c"bb.putShort\00", align 1
@.str.198 = private unnamed_addr constant [11 x i8] c"bb.putLong\00", align 1
@.str.199 = private unnamed_addr constant [12 x i8] c"bb.putFloat\00", align 1
@.str.200 = private unnamed_addr constant [13 x i8] c"bb.putDouble\00", align 1
@.str.201 = private unnamed_addr constant [7 x i8] c"bb.put\00", align 1
@.str.203 = private unnamed_addr constant [10 x i8] c".toByte()\00", align 1
@.str.204 = private unnamed_addr constant [11 x i8] c".toShort()\00", align 1
@.str.205 = private unnamed_addr constant [10 x i8] c".toLong()\00", align 1
@_ZZNSt3__110__function8__policy15__choose_policyINS0_20__default_alloc_funcIZZNK11flatbuffers6kotlin15KotlinGenerator21GenerateStructGettersERNS4_9StructDefERNS4_10CodeWriterEENKUlvE15_clEvEUlvE_FvvEEEEEPKS1_NS_17integral_constantIbLb1EEEE9__policy_ = linkonce_odr hidden constant %"struct.std::__1::__function::__policy" zeroinitializer, comdat, align 8
@_ZZNSt3__110__function8__policy15__choose_policyINS0_20__default_alloc_funcIZZNK11flatbuffers6kotlin15KotlinGenerator21GenerateStructGettersERNS4_9StructDefERNS4_10CodeWriterEENKUlvE15_clEvEUlvE0_FvvEEEEEPKS1_NS_17integral_constantIbLb1EEEE9__policy_ = linkonce_odr hidden constant %"struct.std::__1::__function::__policy" zeroinitializer, comdat, align 8
@_ZZNSt3__110__function8__policy15__choose_policyINS0_20__default_alloc_funcIZNK11flatbuffers6kotlin15KotlinGenerator21GenerateStructGettersERNS4_9StructDefERNS4_10CodeWriterEEUlvE15_FvvEEEEEPKS1_NS_17integral_constantIbLb0EEEE9__policy_ = linkonce_odr hidden constant %"struct.std::__1::__function::__policy" { i8* (i8*)* @_ZNSt3__110__function8__policy13__large_cloneINS0_20__default_alloc_funcIZNK11flatbuffers6kotlin15KotlinGenerator21GenerateStructGettersERNS4_9StructDefERNS4_10CodeWriterEEUlvE15_FvvEEEEEPvPKv, void (i8*)* @_ZNSt3__110__function8__policy15__large_destroyINS0_20__default_alloc_funcIZNK11flatbuffers6kotlin15KotlinGenerator21GenerateStructGettersERNS4_9StructDefERNS4_10CodeWriterEEUlvE15_FvvEEEEEvPv, i8 0, %"class.std::type_info"* null }, comdat, align 8
@.str.206 = private unnamed_addr constant [11 x i8] c"override \5C\00", align 1
@.str.207 = private unnamed_addr constant [90 x i8] c" return compareStrings(__offset({{offset}}, o1, _bb), __offset({{offset}}, o2, _bb), _bb)\00", align 1
@.str.208 = private unnamed_addr constant [4 x i8] c"_bb\00", align 1
@.str.209 = private unnamed_addr constant [3 x i8] c"o1\00", align 1
@.str.210 = private unnamed_addr constant [3 x i8] c"o2\00", align 1
@.str.211 = private unnamed_addr constant [13 x i8] c"val val_1 = \00", align 1
@.str.212 = private unnamed_addr constant [13 x i8] c"val val_2 = \00", align 1
@.str.213 = private unnamed_addr constant [28 x i8] c"return (val_1 - val_2).sign\00", align 1
@.str.214 = private unnamed_addr constant [10 x i8] c"__offset(\00", align 1
@.str.215 = private unnamed_addr constant [3 x i8] c", \00", align 1
@.str.216 = private unnamed_addr constant [7 x i8] c", _bb)\00", align 1
@.str.217 = private unnamed_addr constant [20 x i8] c" - tableOffset, bb)\00", align 1
@.str.218 = private unnamed_addr constant [12 x i8] c".capacity()\00", align 1
@_ZZNSt3__110__function8__policy15__choose_policyINS0_20__default_alloc_funcIZNK11flatbuffers6kotlin15KotlinGenerator21GenerateStructGettersERNS4_9StructDefERNS4_10CodeWriterEEUlvE16_FvvEEEEEPKS1_NS_17integral_constantIbLb0EEEE9__policy_ = linkonce_odr hidden constant %"struct.std::__1::__function::__policy" { i8* (i8*)* @_ZNSt3__110__function8__policy13__large_cloneINS0_20__default_alloc_funcIZNK11flatbuffers6kotlin15KotlinGenerator21GenerateStructGettersERNS4_9StructDefERNS4_10CodeWriterEEUlvE16_FvvEEEEEPvPKv, void (i8*)* @_ZNSt3__110__function8__policy15__large_destroyINS0_20__default_alloc_funcIZNK11flatbuffers6kotlin15KotlinGenerator21GenerateStructGettersERNS4_9StructDefERNS4_10CodeWriterEEUlvE16_FvvEEEEEvPv, i8 0, %"class.std::type_info"* null }, comdat, align 8
@.str.219 = private unnamed_addr constant [16 x i8] c"validateVersion\00", align 1
@.str.220 = private unnamed_addr constant [31 x i8] c"Constants.FLATBUFFERS_1_12_0()\00", align 1
@_ZZNSt3__110__function8__policy15__choose_policyINS0_20__default_alloc_funcIZZNK11flatbuffers6kotlin15KotlinGenerator9GenStructERNS4_9StructDefERNS4_10CodeWriterEENKUlvE1_clEvEUlvE_FvvEEEEEPKS1_NS_17integral_constantIbLb1EEEE9__policy_ = linkonce_odr hidden constant %"struct.std::__1::__function::__policy" zeroinitializer, comdat, align 8
@.str.221 = private unnamed_addr constant [8 x i8] c"gr_name\00", align 1
@.str.222 = private unnamed_addr constant [10 x i8] c"gr_method\00", align 1
@.str.223 = private unnamed_addr constant [10 x i8] c"getRootAs\00", align 1
@.str.224 = private unnamed_addr constant [52 x i8] c"fun {{gr_method}}(_bb: ByteBuffer): {{gr_name}} = \5C\00", align 1
@.str.225 = private unnamed_addr constant [34 x i8] c"{{gr_method}}(_bb, {{gr_name}}())\00", align 1
@.str.226 = private unnamed_addr constant [68 x i8] c"fun {{gr_method}}(_bb: ByteBuffer, obj: {{gr_name}}): {{gr_name}} {\00", align 1
@.str.227 = private unnamed_addr constant [35 x i8] c"_bb.order(ByteOrder.LITTLE_ENDIAN)\00", align 1
@.str.228 = private unnamed_addr constant [72 x i8] c"return (obj.__assign(_bb.getInt(_bb.position()) + _bb.position(), _bb))\00", align 1
@.str.229 = private unnamed_addr constant [20 x i8] c"BufferHasIdentifier\00", align 1
@.str.230 = private unnamed_addr constant [24 x i8] c"__has_identifier(_bb, \22\00", align 1
@.str.231 = private unnamed_addr constant [3 x i8] c"\22)\00", align 1
@_ZZNSt3__110__function8__policy15__choose_policyINS0_20__default_alloc_funcIZNK11flatbuffers6kotlin15KotlinGenerator27GenerateBufferHasIdentifierERNS4_9StructDefERNS4_10CodeWriterEEUlvE_FvvEEEEEPKS1_NS_17integral_constantIbLb1EEEE9__policy_ = linkonce_odr hidden constant %"struct.std::__1::__function::__policy" zeroinitializer, comdat, align 8
@.str.232 = private unnamed_addr constant [7 x i8] c"create\00", align 1
@.str.233 = private unnamed_addr constant [27 x i8] c"builder: FlatBufferBuilder\00", align 1
@.str.234 = private unnamed_addr constant [9 x i8] c"Offset: \00", align 1
@_ZNSt3__15ctypeIcE2idE = external global %"class.std::__1::locale::id", align 8
@.str.236 = private unnamed_addr constant [33 x i8] c"builder.startTable({{vec_size}})\00", align 1
@.str.237 = private unnamed_addr constant [17 x i8] c"camel_field_name\00", align 1
@.str.238 = private unnamed_addr constant [49 x i8] c"add{{camel_field_name}}(builder, {{field_name}}\5C\00", align 1
@.str.239 = private unnamed_addr constant [8 x i8] c"Offset\5C\00", align 1
@.str.240 = private unnamed_addr constant [35 x i8] c"return end{{struct_name}}(builder)\00", align 1
@_ZZNSt3__110__function8__policy15__choose_policyINS0_20__default_alloc_funcIZNK11flatbuffers6kotlin15KotlinGenerator20GenerateTableCreatorERNS4_9StructDefERNS4_10CodeWriterEEUlvE_FvvEEEEEPKS1_NS_17integral_constantIbLb0EEEE9__policy_ = linkonce_odr hidden constant %"struct.std::__1::__function::__policy" { i8* (i8*)* @_ZNSt3__110__function8__policy13__large_cloneINS0_20__default_alloc_funcIZNK11flatbuffers6kotlin15KotlinGenerator20GenerateTableCreatorERNS4_9StructDefERNS4_10CodeWriterEEUlvE_FvvEEEEEPvPKv, void (i8*)* @_ZNSt3__110__function8__policy15__large_destroyINS0_20__default_alloc_funcIZNK11flatbuffers6kotlin15KotlinGenerator20GenerateTableCreatorERNS4_9StructDefERNS4_10CodeWriterEEUlvE_FvvEEEEEvPv, i8 0, %"class.std::type_info"* null }, comdat, align 8
@.str.241 = private unnamed_addr constant [6 x i8] c"start\00", align 1
@.str.242 = private unnamed_addr constant [20 x i8] c"builder.startTable(\00", align 1
@_ZZNSt3__110__function8__policy15__choose_policyINS0_20__default_alloc_funcIZNK11flatbuffers6kotlin15KotlinGenerator25GenerateStartStructMethodERNS4_9StructDefERNS4_10CodeWriterEEUlvE_FvvEEEEEPKS1_NS_17integral_constantIbLb1EEEE9__policy_ = linkonce_odr hidden constant %"struct.std::__1::__function::__policy" zeroinitializer, comdat, align 8
@.str.243 = private unnamed_addr constant [4 x i8] c"add\00", align 1
@.str.244 = private unnamed_addr constant [29 x i8] c"builder: FlatBufferBuilder, \00", align 1
@.str.245 = private unnamed_addr constant [12 x i8] c"method_name\00", align 1
@.str.246 = private unnamed_addr constant [4 x i8] c"pos\00", align 1
@.str.247 = private unnamed_addr constant [8 x i8] c"default\00", align 1
@.str.248 = private unnamed_addr constant [38 x i8] c"builder.add{{method_name}}({{pos}}, \5C\00", align 1
@.str.249 = private unnamed_addr constant [37 x i8] c"{{field_name}}{{cast}}, {{default}})\00", align 1
@.str.250 = private unnamed_addr constant [7 x i8] c"Offset\00", align 1
@_ZZNSt3__110__function8__policy15__choose_policyINS0_20__default_alloc_funcIZNK11flatbuffers6kotlin15KotlinGenerator16GenerateAddFieldENS_12basic_stringIcNS_11char_traitsIcEENS_9allocatorIcEEEERNS4_8FieldDefERNS4_10CodeWriterEEUlvE_FvvEEEEEPKS1_NS_17integral_constantIbLb0EEEE9__policy_ = linkonce_odr hidden constant %"struct.std::__1::__function::__policy" { i8* (i8*)* @_ZNSt3__110__function8__policy13__large_cloneINS0_20__default_alloc_funcIZNK11flatbuffers6kotlin15KotlinGenerator16GenerateAddFieldENS_12basic_stringIcNS_11char_traitsIcEENS_9allocatorIcEEEERNS4_8FieldDefERNS4_10CodeWriterEEUlvE_FvvEEEEEPvPKv, void (i8*)* @_ZNSt3__110__function8__policy15__large_destroyINS0_20__default_alloc_funcIZNK11flatbuffers6kotlin15KotlinGenerator16GenerateAddFieldENS_12basic_stringIcNS_11char_traitsIcEENS_9allocatorIcEEEERNS4_8FieldDefERNS4_10CodeWriterEEUlvE_FvvEEEEEvPv, i8 0, %"class.std::type_info"* null }, comdat, align 8
@.str.251 = private unnamed_addr constant [7 x i8] c"Vector\00", align 1
@.str.252 = private unnamed_addr constant [35 x i8] c"builder: FlatBufferBuilder, data: \00", align 1
@.str.253 = private unnamed_addr constant [6 x i8] c"Array\00", align 1
@.str.255 = private unnamed_addr constant [6 x i8] c"align\00", align 1
@.str.257 = private unnamed_addr constant [52 x i8] c"builder.startVector({{size}}, data.size, {{align}})\00", align 1
@.str.258 = private unnamed_addr constant [36 x i8] c"for (i in data.size - 1 downTo 0) {\00", align 1
@.str.259 = private unnamed_addr constant [37 x i8] c"builder.add{{root}}(data[i]{{cast}})\00", align 1
@.str.260 = private unnamed_addr constant [27 x i8] c"return builder.endVector()\00", align 1
@_ZZNSt3__110__function8__policy15__choose_policyINS0_20__default_alloc_funcIZNK11flatbuffers6kotlin15KotlinGenerator25GenerateCreateVectorFieldERNS4_8FieldDefERNS4_10CodeWriterEEUlvE_FvvEEEEEPKS1_NS_17integral_constantIbLb1EEEE9__policy_ = linkonce_odr hidden constant %"struct.std::__1::__function::__policy" zeroinitializer, comdat, align 8
@.str.261 = private unnamed_addr constant [42 x i8] c"builder: FlatBufferBuilder, numElems: Int\00", align 1
@.str.262 = private unnamed_addr constant [51 x i8] c"builder.startVector({{size}}, numElems, {{align}})\00", align 1
@_ZZNSt3__110__function8__policy15__choose_policyINS0_20__default_alloc_funcIZNK11flatbuffers6kotlin15KotlinGenerator24GenerateStartVectorFieldERNS4_8FieldDefERNS4_10CodeWriterEEUlvE_FvvEEEEEPKS1_NS_17integral_constantIbLb1EEEE9__policy_ = linkonce_odr hidden constant %"struct.std::__1::__function::__policy" zeroinitializer, comdat, align 8
@.str.263 = private unnamed_addr constant [27 x i8] c"val o = builder.endTable()\00", align 1
@.str.264 = private unnamed_addr constant [32 x i8] c"builder.required(o, {{offset}})\00", align 1
@_ZZNSt3__110__function8__policy15__choose_policyINS0_20__default_alloc_funcIZNK11flatbuffers6kotlin15KotlinGenerator23GenerateEndStructMethodERNS4_9StructDefERNS4_10CodeWriterEEUlvE_FvvEEEEEPKS1_NS_17integral_constantIbLb1EEEE9__policy_ = linkonce_odr hidden constant %"struct.std::__1::__function::__policy" zeroinitializer, comdat, align 8
@.str.266 = private unnamed_addr constant [4 x i8] c", \22\00", align 1
@.str.267 = private unnamed_addr constant [40 x i8] c"builder: FlatBufferBuilder, offset: Int\00", align 1
@.str.268 = private unnamed_addr constant [7 x i8] c"finish\00", align 1
@.str.269 = private unnamed_addr constant [7 x i8] c"Buffer\00", align 1
@.str.270 = private unnamed_addr constant [22 x i8] c"builder.finish(offset\00", align 1
@_ZZNSt3__110__function8__policy15__choose_policyINS0_20__default_alloc_funcIZNK11flatbuffers6kotlin15KotlinGenerator26GenerateFinishStructBufferERNS4_9StructDefERKNS_12basic_stringIcNS_11char_traitsIcEENS_9allocatorIcEEEERNS4_10CodeWriterEEUlvE_FvvEEEEEPKS1_NS_17integral_constantIbLb1EEEE9__policy_ = linkonce_odr hidden constant %"struct.std::__1::__function::__policy" zeroinitializer, comdat, align 8
@.str.271 = private unnamed_addr constant [19 x i8] c"finishSizePrefixed\00", align 1
@.str.272 = private unnamed_addr constant [34 x i8] c"builder.finishSizePrefixed(offset\00", align 1
@_ZZNSt3__110__function8__policy15__choose_policyINS0_20__default_alloc_funcIZNK11flatbuffers6kotlin15KotlinGenerator26GenerateFinishSizePrefixedERNS4_9StructDefERKNS_12basic_stringIcNS_11char_traitsIcEENS_9allocatorIcEEEERNS4_10CodeWriterEEUlvE_FvvEEEEEPKS1_NS_17integral_constantIbLb1EEEE9__policy_ = linkonce_odr hidden constant %"struct.std::__1::__function::__policy" zeroinitializer, comdat, align 8
@.str.273 = private unnamed_addr constant [22 x i8] c"vectorLocation: Int, \00", align 1
@.str.274 = private unnamed_addr constant [15 x i8] c"bb: ByteBuffer\00", align 1
@.str.275 = private unnamed_addr constant [16 x i8] c"__lookup_by_key\00", align 1
@.str.276 = private unnamed_addr constant [71 x i8] c"val byteKey = key.toByteArray(java.nio.charset.StandardCharsets.UTF_8)\00", align 1
@.str.277 = private unnamed_addr constant [41 x i8] c"var span = bb.getInt(vectorLocation - 4)\00", align 1
@.str.278 = private unnamed_addr constant [14 x i8] c"var start = 0\00", align 1
@.str.279 = private unnamed_addr constant [20 x i8] c"while (span != 0) {\00", align 1
@.str.280 = private unnamed_addr constant [22 x i8] c"var middle = span / 2\00", align 1
@.str.281 = private unnamed_addr constant [72 x i8] c"val tableOffset = __indirect(vectorLocation + 4 * (start + middle), bb)\00", align 1
@.str.282 = private unnamed_addr constant [28 x i8] c"val comp = compareStrings(\5C\00", align 1
@.str.283 = private unnamed_addr constant [2 x i8] c"\5C\00", align 1
@.str.284 = private unnamed_addr constant [15 x i8] c", byteKey, bb)\00", align 1
@.str.285 = private unnamed_addr constant [13 x i8] c"val value = \00", align 1
@.str.286 = private unnamed_addr constant [32 x i8] c"val comp = value.compareTo(key)\00", align 1
@.str.287 = private unnamed_addr constant [7 x i8] c"when {\00", align 1
@.str.288 = private unnamed_addr constant [26 x i8] c"comp > 0 -> span = middle\00", align 1
@.str.289 = private unnamed_addr constant [14 x i8] c"comp < 0 -> {\00", align 1
@.str.291 = private unnamed_addr constant [16 x i8] c"start += middle\00", align 1
@.str.292 = private unnamed_addr constant [15 x i8] c"span -= middle\00", align 1
@.str.293 = private unnamed_addr constant [10 x i8] c"else -> {\00", align 1
@.str.294 = private unnamed_addr constant [60 x i8] c"return (obj ?: {{struct_name}}()).__assign(tableOffset, bb)\00", align 1
@.str.295 = private unnamed_addr constant [12 x i8] c"return null\00", align 1
@_ZZNSt3__110__function8__policy15__choose_policyINS0_20__default_alloc_funcIZNK11flatbuffers6kotlin15KotlinGenerator19GenerateLookupByKeyEPNS4_8FieldDefERNS4_9StructDefERNS4_10CodeWriterEEUlvE_FvvEEEEEPKS1_NS_17integral_constantIbLb0EEEE9__policy_ = linkonce_odr hidden constant %"struct.std::__1::__function::__policy" { i8* (i8*)* @_ZNSt3__110__function8__policy13__large_cloneINS0_20__default_alloc_funcIZNK11flatbuffers6kotlin15KotlinGenerator19GenerateLookupByKeyEPNS4_8FieldDefERNS4_9StructDefERNS4_10CodeWriterEEUlvE_FvvEEEEEPvPKv, void (i8*)* @_ZNSt3__110__function8__policy15__large_destroyINS0_20__default_alloc_funcIZNK11flatbuffers6kotlin15KotlinGenerator19GenerateLookupByKeyEPNS4_8FieldDefERNS4_9StructDefERNS4_10CodeWriterEEUlvE_FvvEEEEEvPv, i8 0, %"class.std::type_info"* null }, comdat, align 8
@.str.296 = private unnamed_addr constant [24 x i8] c"return builder.offset()\00", align 1
@.str.297 = private unnamed_addr constant [34 x i8] c"builder.prep({{align}}, {{size}})\00", align 1
@.str.298 = private unnamed_addr constant [4 x i8] c"pad\00", align 1
@.str.299 = private unnamed_addr constant [21 x i8] c"builder.pad({{pad}})\00", align 1
@.str.300 = private unnamed_addr constant [8 x i8] c"argname\00", align 1
@.str.301 = private unnamed_addr constant [41 x i8] c"builder.put{{type}}({{argname}}{{cast}})\00", align 1
@_ZZNSt3__110__function8__policy15__choose_policyINS0_20__default_alloc_funcIZN11flatbuffers6kotlin15KotlinGenerator25GenerateStaticConstructorERKNS4_9StructDefERNS4_10CodeWriterEEUlvE_FvvEEEEEPKS1_NS_17integral_constantIbLb1EEEE9__policy_ = linkonce_odr hidden constant %"struct.std::__1::__function::__policy" zeroinitializer, comdat, align 8
@_ZZNSt3__110__function8__policy15__choose_policyINS0_20__default_alloc_funcIZNK11flatbuffers6kotlin15KotlinGenerator9GenStructERNS4_9StructDefERNS4_10CodeWriterEEUlvE1_FvvEEEEEPKS1_NS_17integral_constantIbLb0EEEE9__policy_ = linkonce_odr hidden constant %"struct.std::__1::__function::__policy" { i8* (i8*)* @_ZNSt3__110__function8__policy13__large_cloneINS0_20__default_alloc_funcIZNK11flatbuffers6kotlin15KotlinGenerator9GenStructERNS4_9StructDefERNS4_10CodeWriterEEUlvE1_FvvEEEEEPvPKv, void (i8*)* @_ZNSt3__110__function8__policy15__large_destroyINS0_20__default_alloc_funcIZNK11flatbuffers6kotlin15KotlinGenerator9GenStructERNS4_9StructDefERNS4_10CodeWriterEEUlvE1_FvvEEEEEvPv, i8 0, %"class.std::type_info"* null }, comdat, align 8
@llvm.global_ctors = appending global [1 x { i32, void ()*, i8* }] [{ i32, void ()*, i8* } { i32 65535, void ()* @_GLOBAL__sub_I_idl_gen_kotlin.cpp, i8* null }]

declare void @_ZN11flatbuffers27TypedFloatConstantGeneratorC1EPKcS2_S2_S2_S2_(%"class.flatbuffers::TypedFloatConstantGenerator"*, i8*, i8*, i8*, i8*, i8*) unnamed_addr #0

; Function Attrs: inlinehint nounwind ssp uwtable
define linkonce_odr hidden void @_ZN11flatbuffers27TypedFloatConstantGeneratorD2Ev(%"class.flatbuffers::TypedFloatConstantGenerator"*) unnamed_addr #1 comdat align 2 {
  %2 = getelementptr inbounds %"class.flatbuffers::TypedFloatConstantGenerator", %"class.flatbuffers::TypedFloatConstantGenerator"* %0, i64 0, i32 0, i32 0
  store i32 (...)** bitcast (i8** getelementptr inbounds ({ [10 x i8*] }, { [10 x i8*] }* @_ZTVN11flatbuffers27TypedFloatConstantGeneratorE, i64 0, inrange i32 0, i64 2) to i32 (...)**), i32 (...)*** %2, align 8
  %3 = getelementptr inbounds %"class.flatbuffers::TypedFloatConstantGenerator", %"class.flatbuffers::TypedFloatConstantGenerator"* %0, i64 0, i32 5
  %4 = bitcast %"class.std::__1::basic_string"* %3 to %"struct.std::__1::basic_string<char, std::__1::char_traits<char>, std::__1::allocator<char> >::__short"*
  %5 = getelementptr inbounds %"struct.std::__1::basic_string<char, std::__1::char_traits<char>, std::__1::allocator<char> >::__short", %"struct.std::__1::basic_string<char, std::__1::char_traits<char>, std::__1::allocator<char> >::__short"* %4, i64 0, i32 1, i32 0
  %6 = load i8, i8* %5, align 1
  %7 = icmp slt i8 %6, 0
  br i1 %7, label %8, label %11

8:                                                ; preds = %1
  %9 = getelementptr inbounds %"class.std::__1::basic_string", %"class.std::__1::basic_string"* %3, i64 0, i32 0, i32 0, i32 0, i32 0, i32 0, i32 0
  %10 = load i8*, i8** %9, align 8
  tail call void @_ZdlPv(i8* %10) #13
  br label %11

11:                                               ; preds = %1, %8
  %12 = getelementptr inbounds %"class.flatbuffers::TypedFloatConstantGenerator", %"class.flatbuffers::TypedFloatConstantGenerator"* %0, i64 0, i32 4
  %13 = bitcast %"class.std::__1::basic_string"* %12 to %"struct.std::__1::basic_string<char, std::__1::char_traits<char>, std::__1::allocator<char> >::__short"*
  %14 = getelementptr inbounds %"struct.std::__1::basic_string<char, std::__1::char_traits<char>, std::__1::allocator<char> >::__short", %"struct.std::__1::basic_string<char, std::__1::char_traits<char>, std::__1::allocator<char> >::__short"* %13, i64 0, i32 1, i32 0
  %15 = load i8, i8* %14, align 1
  %16 = icmp slt i8 %15, 0
  br i1 %16, label %17, label %20

17:                                               ; preds = %11
  %18 = getelementptr inbounds %"class.std::__1::basic_string", %"class.std::__1::basic_string"* %12, i64 0, i32 0, i32 0, i32 0, i32 0, i32 0, i32 0
  %19 = load i8*, i8** %18, align 8
  tail call void @_ZdlPv(i8* %19) #13
  br label %20

20:                                               ; preds = %11, %17
  %21 = getelementptr inbounds %"class.flatbuffers::TypedFloatConstantGenerator", %"class.flatbuffers::TypedFloatConstantGenerator"* %0, i64 0, i32 3
  %22 = bitcast %"class.std::__1::basic_string"* %21 to %"struct.std::__1::basic_string<char, std::__1::char_traits<char>, std::__1::allocator<char> >::__short"*
  %23 = getelementptr inbounds %"struct.std::__1::basic_string<char, std::__1::char_traits<char>, std::__1::allocator<char> >::__short", %"struct.std::__1::basic_string<char, std::__1::char_traits<char>, std::__1::allocator<char> >::__short"* %22, i64 0, i32 1, i32 0
  %24 = load i8, i8* %23, align 1
  %25 = icmp slt i8 %24, 0
  br i1 %25, label %26, label %29

26:                                               ; preds = %20
  %27 = getelementptr inbounds %"class.std::__1::basic_string", %"class.std::__1::basic_string"* %21, i64 0, i32 0, i32 0, i32 0, i32 0, i32 0, i32 0
  %28 = load i8*, i8** %27, align 8
  tail call void @_ZdlPv(i8* %28) #13
  br label %29

29:                                               ; preds = %20, %26
  %30 = getelementptr inbounds %"class.flatbuffers::TypedFloatConstantGenerator", %"class.flatbuffers::TypedFloatConstantGenerator"* %0, i64 0, i32 2
  %31 = bitcast %"class.std::__1::basic_string"* %30 to %"struct.std::__1::basic_string<char, std::__1::char_traits<char>, std::__1::allocator<char> >::__short"*
  %32 = getelementptr inbounds %"struct.std::__1::basic_string<char, std::__1::char_traits<char>, std::__1::allocator<char> >::__short", %"struct.std::__1::basic_string<char, std::__1::char_traits<char>, std::__1::allocator<char> >::__short"* %31, i64 0, i32 1, i32 0
  %33 = load i8, i8* %32, align 1
  %34 = icmp slt i8 %33, 0
  br i1 %34, label %35, label %38

35:                                               ; preds = %29
  %36 = getelementptr inbounds %"class.std::__1::basic_string", %"class.std::__1::basic_string"* %30, i64 0, i32 0, i32 0, i32 0, i32 0, i32 0, i32 0
  %37 = load i8*, i8** %36, align 8
  tail call void @_ZdlPv(i8* %37) #13
  br label %38

38:                                               ; preds = %29, %35
  %39 = getelementptr inbounds %"class.flatbuffers::TypedFloatConstantGenerator", %"class.flatbuffers::TypedFloatConstantGenerator"* %0, i64 0, i32 1
  %40 = bitcast %"class.std::__1::basic_string"* %39 to %"struct.std::__1::basic_string<char, std::__1::char_traits<char>, std::__1::allocator<char> >::__short"*
  %41 = getelementptr inbounds %"struct.std::__1::basic_string<char, std::__1::char_traits<char>, std::__1::allocator<char> >::__short", %"struct.std::__1::basic_string<char, std::__1::char_traits<char>, std::__1::allocator<char> >::__short"* %40, i64 0, i32 1, i32 0
  %42 = load i8, i8* %41, align 1
  %43 = icmp slt i8 %42, 0
  br i1 %43, label %44, label %47

44:                                               ; preds = %38
  %45 = getelementptr inbounds %"class.std::__1::basic_string", %"class.std::__1::basic_string"* %39, i64 0, i32 0, i32 0, i32 0, i32 0, i32 0, i32 0
  %46 = load i8*, i8** %45, align 8
  tail call void @_ZdlPv(i8* %46) #13
  br label %47

47:                                               ; preds = %38, %44
  ret void
}

; Function Attrs: nofree nounwind
declare i32 @__cxa_atexit(void (i8*)*, i8*, i8*) local_unnamed_addr #2

; Function Attrs: inlinehint nounwind ssp uwtable
declare void @_ZNSt3__112basic_stringIcNS_11char_traitsIcEENS_9allocatorIcEEED2Ev(%"class.std::__1::basic_string"*) unnamed_addr #1 align 2

; Function Attrs: nounwind ssp uwtable
define hidden zeroext i1 @_ZN11flatbuffers14GenerateKotlinERKNS_6ParserERKNSt3__112basic_stringIcNS3_11char_traitsIcEENS3_9allocatorIcEEEESB_(%"class.flatbuffers::Parser"* dereferenceable(1208), %"class.std::__1::basic_string"* dereferenceable(24), %"class.std::__1::basic_string"* dereferenceable(24)) local_unnamed_addr #3 {
  %4 = alloca %"class.flatbuffers::kotlin::KotlinGenerator", align 8
  %5 = bitcast %"class.flatbuffers::kotlin::KotlinGenerator"* %4 to i8*
  call void @llvm.lifetime.start.p0i8(i64 112, i8* nonnull %5) #14
  call void @llvm.memset.p0i8.i64(i8* nonnull align 8 %5, i8 -86, i64 112, i1 false)
  %6 = getelementptr inbounds %"class.flatbuffers::kotlin::KotlinGenerator", %"class.flatbuffers::kotlin::KotlinGenerator"* %4, i64 0, i32 0, i32 0
  %7 = getelementptr inbounds %"class.flatbuffers::kotlin::KotlinGenerator", %"class.flatbuffers::kotlin::KotlinGenerator"* %4, i64 0, i32 0, i32 1
  store %"class.flatbuffers::Parser"* %0, %"class.flatbuffers::Parser"** %7, align 8
  %8 = getelementptr inbounds %"class.flatbuffers::kotlin::KotlinGenerator", %"class.flatbuffers::kotlin::KotlinGenerator"* %4, i64 0, i32 0, i32 2
  store %"class.std::__1::basic_string"* %1, %"class.std::__1::basic_string"** %8, align 8
  %9 = getelementptr inbounds %"class.flatbuffers::kotlin::KotlinGenerator", %"class.flatbuffers::kotlin::KotlinGenerator"* %4, i64 0, i32 0, i32 3
  store %"class.std::__1::basic_string"* %2, %"class.std::__1::basic_string"** %9, align 8
  %10 = getelementptr inbounds %"class.flatbuffers::kotlin::KotlinGenerator", %"class.flatbuffers::kotlin::KotlinGenerator"* %4, i64 0, i32 0, i32 4
  %11 = bitcast %"class.std::__1::basic_string"* %10 to i8*
  store i8 0, i8* %11, align 8
  %12 = getelementptr inbounds i8, i8* %5, i64 55
  store i8 0, i8* %12, align 1
  %13 = getelementptr inbounds %"class.flatbuffers::kotlin::KotlinGenerator", %"class.flatbuffers::kotlin::KotlinGenerator"* %4, i64 0, i32 0, i32 5
  %14 = bitcast %"class.std::__1::basic_string"* %13 to i8*
  store i8 46, i8* %14, align 8
  %15 = getelementptr inbounds i8, i8* %5, i64 57
  store i8 0, i8* %15, align 1
  %16 = getelementptr inbounds i8, i8* %5, i64 79
  store i8 1, i8* %16, align 1
  %17 = getelementptr inbounds %"class.flatbuffers::kotlin::KotlinGenerator", %"class.flatbuffers::kotlin::KotlinGenerator"* %4, i64 0, i32 0, i32 6
  %18 = bitcast %"class.std::__1::basic_string"* %17 to i16*
  store i16 29803, i16* %18, align 8
  %19 = getelementptr inbounds i8, i8* %5, i64 82
  store i8 0, i8* %19, align 2
  %20 = getelementptr inbounds i8, i8* %5, i64 103
  store i8 2, i8* %20, align 1
  store i32 (...)** bitcast (i8** getelementptr inbounds ({ [6 x i8*] }, { [6 x i8*] }* @_ZTVN11flatbuffers6kotlin15KotlinGeneratorE, i64 0, inrange i32 0, i64 2) to i32 (...)**), i32 (...)*** %6, align 8
  %21 = getelementptr inbounds %"class.flatbuffers::kotlin::KotlinGenerator", %"class.flatbuffers::kotlin::KotlinGenerator"* %4, i64 0, i32 1
  store %"struct.flatbuffers::Namespace"* null, %"struct.flatbuffers::Namespace"** %21, align 8
  %22 = call zeroext i1 @_ZN11flatbuffers6kotlin15KotlinGenerator8generateEv(%"class.flatbuffers::kotlin::KotlinGenerator"* nonnull %4)
  store i32 (...)** bitcast (i8** getelementptr inbounds ({ [6 x i8*] }, { [6 x i8*] }* @_ZTVN11flatbuffers13BaseGeneratorE, i64 0, inrange i32 0, i64 2) to i32 (...)**), i32 (...)*** %6, align 8
  %23 = bitcast %"class.std::__1::basic_string"* %17 to %"struct.std::__1::basic_string<char, std::__1::char_traits<char>, std::__1::allocator<char> >::__short"*
  %24 = getelementptr inbounds %"struct.std::__1::basic_string<char, std::__1::char_traits<char>, std::__1::allocator<char> >::__short", %"struct.std::__1::basic_string<char, std::__1::char_traits<char>, std::__1::allocator<char> >::__short"* %23, i64 0, i32 1, i32 0
  %25 = load i8, i8* %24, align 1
  %26 = icmp slt i8 %25, 0
  br i1 %26, label %27, label %30

27:                                               ; preds = %3
  %28 = getelementptr inbounds %"class.std::__1::basic_string", %"class.std::__1::basic_string"* %17, i64 0, i32 0, i32 0, i32 0, i32 0, i32 0, i32 0
  %29 = load i8*, i8** %28, align 8
  call void @_ZdlPv(i8* %29) #13
  br label %30

30:                                               ; preds = %27, %3
  %31 = bitcast %"class.std::__1::basic_string"* %13 to %"struct.std::__1::basic_string<char, std::__1::char_traits<char>, std::__1::allocator<char> >::__short"*
  %32 = getelementptr inbounds %"struct.std::__1::basic_string<char, std::__1::char_traits<char>, std::__1::allocator<char> >::__short", %"struct.std::__1::basic_string<char, std::__1::char_traits<char>, std::__1::allocator<char> >::__short"* %31, i64 0, i32 1, i32 0
  %33 = load i8, i8* %32, align 1
  %34 = icmp slt i8 %33, 0
  br i1 %34, label %35, label %38

35:                                               ; preds = %30
  %36 = getelementptr inbounds %"class.std::__1::basic_string", %"class.std::__1::basic_string"* %13, i64 0, i32 0, i32 0, i32 0, i32 0, i32 0, i32 0
  %37 = load i8*, i8** %36, align 8
  call void @_ZdlPv(i8* %37) #13
  br label %38

38:                                               ; preds = %35, %30
  %39 = bitcast %"class.std::__1::basic_string"* %10 to %"struct.std::__1::basic_string<char, std::__1::char_traits<char>, std::__1::allocator<char> >::__short"*
  %40 = getelementptr inbounds %"struct.std::__1::basic_string<char, std::__1::char_traits<char>, std::__1::allocator<char> >::__short", %"struct.std::__1::basic_string<char, std::__1::char_traits<char>, std::__1::allocator<char> >::__short"* %39, i64 0, i32 1, i32 0
  %41 = load i8, i8* %40, align 1
  %42 = icmp slt i8 %41, 0
  br i1 %42, label %43, label %46

43:                                               ; preds = %38
  %44 = getelementptr inbounds %"class.std::__1::basic_string", %"class.std::__1::basic_string"* %10, i64 0, i32 0, i32 0, i32 0, i32 0, i32 0, i32 0
  %45 = load i8*, i8** %44, align 8
  call void @_ZdlPv(i8* %45) #13
  br label %46

46:                                               ; preds = %38, %43
  call void @llvm.lifetime.end.p0i8(i64 112, i8* nonnull %5) #14
  ret i1 %22
}

; Function Attrs: argmemonly nounwind
declare void @llvm.lifetime.start.p0i8(i64 immarg, i8* nocapture) #4

; Function Attrs: argmemonly nounwind
declare void @llvm.memset.p0i8.i64(i8* nocapture writeonly, i8, i64, i1 immarg) #4

; Function Attrs: nounwind ssp uwtable
define linkonce_odr hidden zeroext i1 @_ZN11flatbuffers6kotlin15KotlinGenerator8generateEv(%"class.flatbuffers::kotlin::KotlinGenerator"*) unnamed_addr #3 comdat align 2 {
  %2 = alloca %"class.std::__1::basic_string", align 8
  %3 = alloca %"class.flatbuffers::CodeWriter", align 8
  %4 = alloca %"class.std::__1::basic_string", align 8
  %5 = alloca %"class.std::__1::basic_string", align 8
  %6 = alloca %"class.std::__1::basic_string", align 8
  %7 = alloca %"class.flatbuffers::CodeWriter", align 8
  %8 = alloca %"class.std::__1::basic_string", align 8
  %9 = alloca %"class.std::__1::basic_string", align 8
  %10 = alloca %"class.std::__1::basic_string", align 8
  %11 = bitcast %"class.std::__1::basic_string"* %2 to i8*
  call void @llvm.lifetime.start.p0i8(i64 24, i8* nonnull %11) #14
  %12 = getelementptr inbounds %"class.std::__1::basic_string", %"class.std::__1::basic_string"* %2, i64 0, i32 0, i32 0, i32 0, i32 0, i32 0, i32 0
  call void @llvm.memset.p0i8.i64(i8* nonnull align 8 %11, i8 0, i64 24, i1 false) #14
  %13 = getelementptr inbounds %"class.flatbuffers::kotlin::KotlinGenerator", %"class.flatbuffers::kotlin::KotlinGenerator"* %0, i64 0, i32 0, i32 1
  %14 = load %"class.flatbuffers::Parser"*, %"class.flatbuffers::Parser"** %13, align 8
  %15 = getelementptr inbounds %"class.flatbuffers::Parser", %"class.flatbuffers::Parser"* %14, i64 0, i32 6
  %16 = bitcast %"struct.flatbuffers::Namespace"** %15 to i64*
  %17 = load i64, i64* %16, align 8
  %18 = getelementptr inbounds %"class.flatbuffers::kotlin::KotlinGenerator", %"class.flatbuffers::kotlin::KotlinGenerator"* %0, i64 0, i32 1
  %19 = bitcast %"struct.flatbuffers::Namespace"** %18 to i64*
  store i64 %17, i64* %19, align 8
  %20 = getelementptr inbounds %"class.flatbuffers::Parser", %"class.flatbuffers::Parser"* %14, i64 0, i32 3, i32 1, i32 0, i32 0
  %21 = load %"struct.flatbuffers::EnumDef"**, %"struct.flatbuffers::EnumDef"*** %20, align 8
  %22 = getelementptr inbounds %"class.flatbuffers::Parser", %"class.flatbuffers::Parser"* %14, i64 0, i32 3, i32 1, i32 0, i32 1
  %23 = load %"struct.flatbuffers::EnumDef"**, %"struct.flatbuffers::EnumDef"*** %22, align 8
  %24 = icmp eq %"struct.flatbuffers::EnumDef"** %21, %23
  br i1 %24, label %200, label %25

25:                                               ; preds = %1
  %26 = bitcast %"class.flatbuffers::CodeWriter"* %3 to i8*
  %27 = bitcast %"class.std::__1::basic_string"* %4 to i8*
  %28 = getelementptr inbounds %"class.flatbuffers::CodeWriter", %"class.flatbuffers::CodeWriter"* %3, i64 0, i32 0, i32 0, i32 1, i32 0, i32 0, i32 0
  %29 = getelementptr inbounds %"class.flatbuffers::CodeWriter", %"class.flatbuffers::CodeWriter"* %3, i64 0, i32 0, i32 0, i32 1, i32 0, i32 0
  %30 = getelementptr inbounds %"class.flatbuffers::CodeWriter", %"class.flatbuffers::CodeWriter"* %3, i64 0, i32 0, i32 0, i32 0
  %31 = bitcast %"class.std::__1::__tree_node_base"** %28 to i8*
  %32 = getelementptr inbounds %"class.flatbuffers::CodeWriter", %"class.flatbuffers::CodeWriter"* %3, i64 0, i32 1
  %33 = getelementptr inbounds %"class.flatbuffers::CodeWriter", %"class.flatbuffers::CodeWriter"* %3, i64 0, i32 1, i32 2, i32 0, i32 0
  %34 = getelementptr inbounds %"class.std::__1::basic_stringstream", %"class.std::__1::basic_stringstream"* %32, i64 0, i32 0, i32 0, i32 0
  %35 = getelementptr inbounds %"class.flatbuffers::CodeWriter", %"class.flatbuffers::CodeWriter"* %3, i64 0, i32 1, i32 0, i32 1, i32 0
  %36 = getelementptr inbounds %"class.flatbuffers::CodeWriter", %"class.flatbuffers::CodeWriter"* %3, i64 0, i32 1, i32 1
  %37 = getelementptr inbounds %"class.std::__1::basic_stringbuf", %"class.std::__1::basic_stringbuf"* %36, i64 0, i32 0
  %38 = load i64, i64* bitcast (i8** getelementptr inbounds ([10 x i8*], [10 x i8*]* @_ZTTNSt3__118basic_stringstreamIcNS_11char_traitsIcEENS_9allocatorIcEEEE, i64 0, i64 2) to i64*), align 8
  %39 = bitcast %"class.std::__1::basic_stringstream"* %32 to i64*
  %40 = load i64, i64* bitcast (i8** getelementptr inbounds ([10 x i8*], [10 x i8*]* @_ZTTNSt3__118basic_stringstreamIcNS_11char_traitsIcEENS_9allocatorIcEEEE, i64 0, i64 3) to i64*), align 8
  %41 = bitcast %"class.std::__1::basic_stringstream"* %32 to i8**
  %42 = inttoptr i64 %38 to i8*
  %43 = getelementptr i8, i8* %42, i64 -24
  %44 = bitcast i8* %43 to i64*
  %45 = bitcast %"class.std::__1::basic_stringstream"* %32 to i8*
  %46 = getelementptr inbounds %"class.flatbuffers::CodeWriter", %"class.flatbuffers::CodeWriter"* %3, i64 0, i32 1, i32 0, i32 0, i32 1
  %47 = bitcast %"class.std::__1::basic_stringbuf"* %36 to i8*
  %48 = getelementptr inbounds %"class.flatbuffers::CodeWriter", %"class.flatbuffers::CodeWriter"* %3, i64 0, i32 1, i32 0, i32 1
  %49 = load i64, i64* bitcast (i8** getelementptr inbounds ([10 x i8*], [10 x i8*]* @_ZTTNSt3__118basic_stringstreamIcNS_11char_traitsIcEENS_9allocatorIcEEEE, i64 0, i64 4) to i64*), align 8
  %50 = bitcast %"class.std::__1::basic_ostream.base"* %48 to i64*
  %51 = load i64, i64* bitcast (i8** getelementptr inbounds ([10 x i8*], [10 x i8*]* @_ZTTNSt3__118basic_stringstreamIcNS_11char_traitsIcEENS_9allocatorIcEEEE, i64 0, i64 5) to i64*), align 8
  %52 = inttoptr i64 %49 to i8*
  %53 = getelementptr i8, i8* %52, i64 -24
  %54 = bitcast i8* %53 to i64*
  %55 = bitcast %"class.std::__1::basic_ostream.base"* %48 to i8*
  %56 = load i64, i64* bitcast (i8** getelementptr inbounds ([10 x i8*], [10 x i8*]* @_ZTTNSt3__118basic_stringstreamIcNS_11char_traitsIcEENS_9allocatorIcEEEE, i64 0, i64 1) to i64*), align 8
  %57 = load i64, i64* bitcast (i8** getelementptr inbounds ([10 x i8*], [10 x i8*]* @_ZTTNSt3__118basic_stringstreamIcNS_11char_traitsIcEENS_9allocatorIcEEEE, i64 0, i64 6) to i64*), align 8
  %58 = inttoptr i64 %56 to i8*
  %59 = getelementptr i8, i8* %58, i64 -24
  %60 = bitcast i8* %59 to i64*
  %61 = getelementptr inbounds %"class.std::__1::basic_stringbuf", %"class.std::__1::basic_stringbuf"* %36, i64 0, i32 0, i32 0
  %62 = getelementptr inbounds %"class.flatbuffers::CodeWriter", %"class.flatbuffers::CodeWriter"* %3, i64 0, i32 1, i32 1, i32 1
  %63 = getelementptr inbounds %"class.flatbuffers::CodeWriter", %"class.flatbuffers::CodeWriter"* %3, i64 0, i32 1, i32 1, i32 3
  %64 = bitcast %"class.std::__1::basic_string"* %62 to i8*
  %65 = getelementptr inbounds %"class.flatbuffers::CodeWriter", %"class.flatbuffers::CodeWriter"* %3, i64 0, i32 2
  %66 = bitcast %"class.std::__1::basic_string"* %4 to %"struct.std::__1::basic_string<char, std::__1::char_traits<char>, std::__1::allocator<char> >::__short"*
  %67 = getelementptr inbounds %"struct.std::__1::basic_string<char, std::__1::char_traits<char>, std::__1::allocator<char> >::__short", %"struct.std::__1::basic_string<char, std::__1::char_traits<char>, std::__1::allocator<char> >::__short"* %66, i64 0, i32 1, i32 0
  %68 = bitcast %"class.std::__1::basic_string"* %65 to i8*
  %69 = getelementptr inbounds %"class.std::__1::basic_string", %"class.std::__1::basic_string"* %4, i64 0, i32 0, i32 0, i32 0, i32 0, i32 0, i32 0
  %70 = getelementptr inbounds %"class.std::__1::basic_string", %"class.std::__1::basic_string"* %4, i64 0, i32 0, i32 0, i32 0, i32 0, i32 0, i32 1
  %71 = getelementptr inbounds %"class.flatbuffers::CodeWriter", %"class.flatbuffers::CodeWriter"* %3, i64 0, i32 3
  %72 = getelementptr inbounds %"class.flatbuffers::CodeWriter", %"class.flatbuffers::CodeWriter"* %3, i64 0, i32 4
  %73 = bitcast %"class.std::__1::basic_string"* %5 to i8*
  %74 = bitcast %"class.std::__1::basic_string"* %5 to %"struct.std::__1::basic_string<char, std::__1::char_traits<char>, std::__1::allocator<char> >::__short"*
  %75 = getelementptr inbounds %"struct.std::__1::basic_string<char, std::__1::char_traits<char>, std::__1::allocator<char> >::__short", %"struct.std::__1::basic_string<char, std::__1::char_traits<char>, std::__1::allocator<char> >::__short"* %74, i64 0, i32 1, i32 0
  %76 = getelementptr inbounds %"class.std::__1::basic_string", %"class.std::__1::basic_string"* %5, i64 0, i32 0, i32 0, i32 0, i32 0, i32 0, i32 0
  %77 = getelementptr inbounds %"class.std::__1::basic_string", %"class.std::__1::basic_string"* %5, i64 0, i32 0, i32 0, i32 0, i32 0, i32 0, i32 1
  %78 = bitcast %"class.std::__1::basic_string"* %6 to i8*
  %79 = bitcast %"class.std::__1::basic_string"* %6 to %"struct.std::__1::basic_string<char, std::__1::char_traits<char>, std::__1::allocator<char> >::__short"*
  %80 = getelementptr inbounds %"struct.std::__1::basic_string<char, std::__1::char_traits<char>, std::__1::allocator<char> >::__short", %"struct.std::__1::basic_string<char, std::__1::char_traits<char>, std::__1::allocator<char> >::__short"* %79, i64 0, i32 1, i32 0
  %81 = getelementptr inbounds %"class.std::__1::basic_string", %"class.std::__1::basic_string"* %6, i64 0, i32 0, i32 0, i32 0, i32 0, i32 0, i32 0
  %82 = bitcast %"class.std::__1::basic_string"* %65 to %"struct.std::__1::basic_string<char, std::__1::char_traits<char>, std::__1::allocator<char> >::__short"*
  %83 = getelementptr inbounds %"struct.std::__1::basic_string<char, std::__1::char_traits<char>, std::__1::allocator<char> >::__short", %"struct.std::__1::basic_string<char, std::__1::char_traits<char>, std::__1::allocator<char> >::__short"* %82, i64 0, i32 1, i32 0
  %84 = getelementptr inbounds %"class.std::__1::basic_string", %"class.std::__1::basic_string"* %65, i64 0, i32 0, i32 0, i32 0, i32 0, i32 0, i32 0
  %85 = load i64, i64* bitcast ([10 x i8*]* @_ZTTNSt3__118basic_stringstreamIcNS_11char_traitsIcEENS_9allocatorIcEEEE to i64*), align 8
  %86 = load i64, i64* bitcast (i8** getelementptr inbounds ([10 x i8*], [10 x i8*]* @_ZTTNSt3__118basic_stringstreamIcNS_11char_traitsIcEENS_9allocatorIcEEEE, i64 0, i64 8) to i64*), align 8
  %87 = inttoptr i64 %85 to i8*
  %88 = getelementptr i8, i8* %87, i64 -24
  %89 = bitcast i8* %88 to i64*
  %90 = load i64, i64* bitcast (i8** getelementptr inbounds ([10 x i8*], [10 x i8*]* @_ZTTNSt3__118basic_stringstreamIcNS_11char_traitsIcEENS_9allocatorIcEEEE, i64 0, i64 9) to i64*), align 8
  %91 = bitcast %"class.std::__1::basic_string"* %62 to %"struct.std::__1::basic_string<char, std::__1::char_traits<char>, std::__1::allocator<char> >::__short"*
  %92 = getelementptr inbounds %"struct.std::__1::basic_string<char, std::__1::char_traits<char>, std::__1::allocator<char> >::__short", %"struct.std::__1::basic_string<char, std::__1::char_traits<char>, std::__1::allocator<char> >::__short"* %91, i64 0, i32 1, i32 0
  %93 = getelementptr inbounds %"class.std::__1::basic_string", %"class.std::__1::basic_string"* %62, i64 0, i32 0, i32 0, i32 0, i32 0, i32 0, i32 0
  %94 = bitcast %"class.std::__1::basic_stringstream"* %32 to %"class.std::__1::basic_iostream"*
  %95 = getelementptr inbounds %"class.flatbuffers::CodeWriter", %"class.flatbuffers::CodeWriter"* %3, i64 0, i32 1, i32 2
  %96 = bitcast %"class.std::__1::basic_ios.base"* %95 to %"class.std::__1::basic_ios"*
  %97 = getelementptr inbounds %"class.flatbuffers::CodeWriter", %"class.flatbuffers::CodeWriter"* %3, i64 0, i32 0, i32 0
  %98 = bitcast %"class.std::__1::__tree_end_node"* %29 to %"class.std::__1::__tree_node"**
  br label %104

99:                                               ; preds = %196
  %100 = load %"class.flatbuffers::Parser"*, %"class.flatbuffers::Parser"** %13, align 8
  %101 = getelementptr inbounds %"class.flatbuffers::Parser", %"class.flatbuffers::Parser"* %100, i64 0, i32 3, i32 1, i32 0, i32 1
  %102 = load %"struct.flatbuffers::EnumDef"**, %"struct.flatbuffers::EnumDef"*** %101, align 8
  %103 = icmp eq %"struct.flatbuffers::EnumDef"** %199, %102
  br i1 %103, label %200, label %104

104:                                              ; preds = %25, %99
  %105 = phi %"struct.flatbuffers::EnumDef"** [ %21, %25 ], [ %199, %99 ]
  call void @llvm.lifetime.start.p0i8(i64 336, i8* nonnull %26) #14
  call void @llvm.memset.p0i8.i64(i8* nonnull align 8 %26, i8 -86, i64 336, i1 false)
  %106 = load i8, i8* getelementptr (%"struct.std::__1::basic_string<char, std::__1::char_traits<char>, std::__1::allocator<char> >::__short", %"struct.std::__1::basic_string<char, std::__1::char_traits<char>, std::__1::allocator<char> >::__short"* bitcast (%"class.std::__1::basic_string"* @_ZN11flatbuffers6kotlinL9ident_padE to %"struct.std::__1::basic_string<char, std::__1::char_traits<char>, std::__1::allocator<char> >::__short"*), i64 0, i32 1, i32 0), align 1
  %107 = icmp slt i8 %106, 0
  br i1 %107, label %109, label %108

108:                                              ; preds = %104
  call void @llvm.memcpy.p0i8.p0i8.i64(i8* nonnull align 8 %27, i8* align 8 bitcast (%"class.std::__1::basic_string"* @_ZN11flatbuffers6kotlinL9ident_padE to i8*), i64 24, i1 false) #14
  br label %112

109:                                              ; preds = %104
  %110 = load i8*, i8** getelementptr inbounds (%"class.std::__1::basic_string", %"class.std::__1::basic_string"* @_ZN11flatbuffers6kotlinL9ident_padE, i64 0, i32 0, i32 0, i32 0, i32 0, i32 0, i32 0), align 8
  %111 = load i64, i64* getelementptr inbounds (%"class.std::__1::basic_string", %"class.std::__1::basic_string"* @_ZN11flatbuffers6kotlinL9ident_padE, i64 0, i32 0, i32 0, i32 0, i32 0, i32 0, i32 1), align 8
  call void @_ZNSt3__112basic_stringIcNS_11char_traitsIcEENS_9allocatorIcEEE25__init_copy_ctor_externalEPKcm(%"class.std::__1::basic_string"* nonnull %4, i8* %110, i64 %111) #14
  br label %112

112:                                              ; preds = %108, %109
  call void @llvm.memset.p0i8.i64(i8* align 8 %31, i8 0, i64 16, i1 false) #14
  store %"class.std::__1::__tree_end_node"* %29, %"class.std::__1::__tree_end_node"** %30, align 8
  store i32 (...)** bitcast (i8** getelementptr inbounds ({ [5 x i8*], [5 x i8*], [5 x i8*] }, { [5 x i8*], [5 x i8*], [5 x i8*] }* @_ZTVNSt3__118basic_stringstreamIcNS_11char_traitsIcEENS_9allocatorIcEEEE, i64 0, inrange i32 2, i64 3) to i32 (...)**), i32 (...)*** %33, align 8
  store i32 (...)** bitcast (i8** getelementptr inbounds ({ [5 x i8*], [5 x i8*], [5 x i8*] }, { [5 x i8*], [5 x i8*], [5 x i8*] }* @_ZTVNSt3__118basic_stringstreamIcNS_11char_traitsIcEENS_9allocatorIcEEEE, i64 0, inrange i32 1, i64 3) to i32 (...)**), i32 (...)*** %35, align 8
  store i64 %38, i64* %39, align 8
  %113 = load i64, i64* %44, align 8
  %114 = getelementptr inbounds i8, i8* %45, i64 %113
  %115 = bitcast i8* %114 to i64*
  store i64 %40, i64* %115, align 8
  store i64 0, i64* %46, align 8
  %116 = load i8*, i8** %41, align 8
  %117 = getelementptr i8, i8* %116, i64 -24
  %118 = bitcast i8* %117 to i64*
  %119 = load i64, i64* %118, align 8
  %120 = getelementptr inbounds i8, i8* %45, i64 %119
  %121 = bitcast i8* %120 to %"class.std::__1::ios_base"*
  call void @_ZNSt3__18ios_base4initEPv(%"class.std::__1::ios_base"* %121, i8* %47) #14
  %122 = getelementptr inbounds i8, i8* %120, i64 136
  %123 = bitcast i8* %122 to %"class.std::__1::basic_ostream"**
  store %"class.std::__1::basic_ostream"* null, %"class.std::__1::basic_ostream"** %123, align 8
  %124 = getelementptr inbounds i8, i8* %120, i64 144
  %125 = bitcast i8* %124 to i32*
  store i32 -1, i32* %125, align 8
  store i64 %49, i64* %50, align 8
  %126 = load i64, i64* %54, align 8
  %127 = getelementptr inbounds i8, i8* %55, i64 %126
  %128 = bitcast i8* %127 to i64*
  store i64 %51, i64* %128, align 8
  store i64 %56, i64* %39, align 8
  %129 = load i64, i64* %60, align 8
  %130 = getelementptr inbounds i8, i8* %45, i64 %129
  %131 = bitcast i8* %130 to i64*
  store i64 %57, i64* %131, align 8
  store i32 (...)** bitcast (i8** getelementptr inbounds ({ [5 x i8*], [5 x i8*], [5 x i8*] }, { [5 x i8*], [5 x i8*], [5 x i8*] }* @_ZTVNSt3__118basic_stringstreamIcNS_11char_traitsIcEENS_9allocatorIcEEEE, i64 0, inrange i32 0, i64 3) to i32 (...)**), i32 (...)*** %34, align 8
  store i32 (...)** bitcast (i8** getelementptr inbounds ({ [5 x i8*], [5 x i8*], [5 x i8*] }, { [5 x i8*], [5 x i8*], [5 x i8*] }* @_ZTVNSt3__118basic_stringstreamIcNS_11char_traitsIcEENS_9allocatorIcEEEE, i64 0, inrange i32 2, i64 3) to i32 (...)**), i32 (...)*** %33, align 8
  store i32 (...)** bitcast (i8** getelementptr inbounds ({ [5 x i8*], [5 x i8*], [5 x i8*] }, { [5 x i8*], [5 x i8*], [5 x i8*] }* @_ZTVNSt3__118basic_stringstreamIcNS_11char_traitsIcEENS_9allocatorIcEEEE, i64 0, inrange i32 1, i64 3) to i32 (...)**), i32 (...)*** %35, align 8
  call void @_ZNSt3__115basic_streambufIcNS_11char_traitsIcEEEC2Ev(%"class.std::__1::basic_streambuf"* %37) #14
  store i32 (...)** bitcast (i8** getelementptr inbounds ({ [16 x i8*] }, { [16 x i8*] }* @_ZTVNSt3__115basic_stringbufIcNS_11char_traitsIcEENS_9allocatorIcEEEE, i64 0, inrange i32 0, i64 2) to i32 (...)**), i32 (...)*** %61, align 8
  call void @llvm.memset.p0i8.i64(i8* align 8 %64, i8 0, i64 32, i1 false) #14
  store i32 24, i32* %63, align 8
  %132 = load i8, i8* %67, align 1
  %133 = icmp slt i8 %132, 0
  br i1 %133, label %135, label %134

134:                                              ; preds = %112
  call void @llvm.memcpy.p0i8.p0i8.i64(i8* align 8 %68, i8* nonnull align 8 %27, i64 24, i1 false) #14
  store i32 0, i32* %71, align 8
  store i8 0, i8* %72, align 4
  br label %142

135:                                              ; preds = %112
  %136 = load i8*, i8** %69, align 8
  %137 = load i64, i64* %70, align 8
  call void @_ZNSt3__112basic_stringIcNS_11char_traitsIcEENS_9allocatorIcEEE25__init_copy_ctor_externalEPKcm(%"class.std::__1::basic_string"* %65, i8* %136, i64 %137) #14
  %138 = load i8, i8* %67, align 1
  store i32 0, i32* %71, align 8
  store i8 0, i8* %72, align 4
  %139 = icmp slt i8 %138, 0
  br i1 %139, label %140, label %142

140:                                              ; preds = %135
  %141 = load i8*, i8** %69, align 8
  call void @_ZdlPv(i8* %141) #13
  br label %142

142:                                              ; preds = %134, %135, %140
  %143 = load %"struct.flatbuffers::EnumDef"*, %"struct.flatbuffers::EnumDef"** %105, align 8
  %144 = load %"class.flatbuffers::Parser"*, %"class.flatbuffers::Parser"** %13, align 8
  %145 = getelementptr inbounds %"class.flatbuffers::Parser", %"class.flatbuffers::Parser"* %144, i64 0, i32 19, i32 13
  %146 = load i8, i8* %145, align 1, !range !2
  %147 = icmp eq i8 %146, 0
  br i1 %147, label %148, label %152

148:                                              ; preds = %142
  %149 = getelementptr inbounds %"struct.flatbuffers::EnumDef", %"struct.flatbuffers::EnumDef"* %143, i64 0, i32 0, i32 6
  %150 = bitcast %"struct.flatbuffers::Namespace"** %149 to i64*
  %151 = load i64, i64* %150, align 8
  store i64 %151, i64* %19, align 8
  br label %152

152:                                              ; preds = %142, %148
  call void @_ZNK11flatbuffers6kotlin15KotlinGenerator7GenEnumERNS_7EnumDefERNS_10CodeWriterE(%"class.flatbuffers::kotlin::KotlinGenerator"* %0, %"struct.flatbuffers::EnumDef"* dereferenceable(232) %143, %"class.flatbuffers::CodeWriter"* nonnull dereferenceable(336) %3)
  %153 = load %"class.flatbuffers::Parser"*, %"class.flatbuffers::Parser"** %13, align 8
  %154 = getelementptr inbounds %"class.flatbuffers::Parser", %"class.flatbuffers::Parser"* %153, i64 0, i32 19, i32 13
  %155 = load i8, i8* %154, align 1, !range !2
  %156 = icmp eq i8 %155, 0
  br i1 %156, label %171, label %157

157:                                              ; preds = %152
  call void @llvm.lifetime.start.p0i8(i64 24, i8* nonnull %73) #14
  call void @_ZNKSt3__115basic_stringbufIcNS_11char_traitsIcEENS_9allocatorIcEEE3strEv(%"class.std::__1::basic_string"* nonnull sret %5, %"class.std::__1::basic_stringbuf"* %36) #14
  %158 = load i8, i8* %75, align 1
  %159 = icmp slt i8 %158, 0
  %160 = load i8*, i8** %76, align 8
  %161 = load i64, i64* %77, align 8
  %162 = zext i8 %158 to i64
  %163 = select i1 %159, i8* %160, i8* %73
  %164 = select i1 %159, i64 %161, i64 %162
  %165 = call dereferenceable(24) %"class.std::__1::basic_string"* @_ZNSt3__112basic_stringIcNS_11char_traitsIcEENS_9allocatorIcEEE6appendEPKcm(%"class.std::__1::basic_string"* nonnull %2, i8* %163, i64 %164) #14
  %166 = load i8, i8* %75, align 1
  %167 = icmp slt i8 %166, 0
  br i1 %167, label %168, label %170

168:                                              ; preds = %157
  %169 = load i8*, i8** %76, align 8
  call void @_ZdlPv(i8* %169) #13
  br label %170

170:                                              ; preds = %157, %168
  call void @llvm.lifetime.end.p0i8(i64 24, i8* nonnull %73) #14
  br label %181

171:                                              ; preds = %152
  %172 = getelementptr inbounds %"struct.flatbuffers::EnumDef", %"struct.flatbuffers::EnumDef"* %143, i64 0, i32 0, i32 0
  %173 = getelementptr inbounds %"struct.flatbuffers::EnumDef", %"struct.flatbuffers::EnumDef"* %143, i64 0, i32 0, i32 6
  %174 = load %"struct.flatbuffers::Namespace"*, %"struct.flatbuffers::Namespace"** %173, align 8
  call void @llvm.lifetime.start.p0i8(i64 24, i8* nonnull %78) #14
  call void @_ZNKSt3__115basic_stringbufIcNS_11char_traitsIcEENS_9allocatorIcEEE3strEv(%"class.std::__1::basic_string"* nonnull sret %6, %"class.std::__1::basic_stringbuf"* %36) #14
  %175 = call zeroext i1 @_ZNK11flatbuffers6kotlin15KotlinGenerator8SaveTypeERKNSt3__112basic_stringIcNS2_11char_traitsIcEENS2_9allocatorIcEEEERKNS_9NamespaceESA_b(%"class.flatbuffers::kotlin::KotlinGenerator"* %0, %"class.std::__1::basic_string"* dereferenceable(24) %172, %"struct.flatbuffers::Namespace"* dereferenceable(32) %174, %"class.std::__1::basic_string"* nonnull dereferenceable(24) %6, i1 zeroext false)
  %176 = load i8, i8* %80, align 1
  %177 = icmp slt i8 %176, 0
  br i1 %177, label %178, label %180

178:                                              ; preds = %171
  %179 = load i8*, i8** %81, align 8
  call void @_ZdlPv(i8* %179) #13
  br label %180

180:                                              ; preds = %171, %178
  call void @llvm.lifetime.end.p0i8(i64 24, i8* nonnull %78) #14
  br i1 %175, label %181, label %182

181:                                              ; preds = %180, %170
  br label %182

182:                                              ; preds = %180, %181
  %183 = phi i32 [ 0, %181 ], [ 1, %180 ]
  %184 = load i8, i8* %83, align 1
  %185 = icmp slt i8 %184, 0
  br i1 %185, label %186, label %188

186:                                              ; preds = %182
  %187 = load i8*, i8** %84, align 8
  call void @_ZdlPv(i8* %187) #13
  br label %188

188:                                              ; preds = %186, %182
  store i64 %85, i64* %39, align 8
  %189 = load i64, i64* %89, align 8
  %190 = getelementptr inbounds i8, i8* %45, i64 %189
  %191 = bitcast i8* %190 to i64*
  store i64 %86, i64* %191, align 8
  store i64 %90, i64* %50, align 8
  store i32 (...)** bitcast (i8** getelementptr inbounds ({ [16 x i8*] }, { [16 x i8*] }* @_ZTVNSt3__115basic_stringbufIcNS_11char_traitsIcEENS_9allocatorIcEEEE, i64 0, inrange i32 0, i64 2) to i32 (...)**), i32 (...)*** %61, align 8
  %192 = load i8, i8* %92, align 1
  %193 = icmp slt i8 %192, 0
  br i1 %193, label %194, label %196

194:                                              ; preds = %188
  %195 = load i8*, i8** %93, align 8
  call void @_ZdlPv(i8* %195) #13
  br label %196

196:                                              ; preds = %188, %194
  call void @_ZNSt3__115basic_streambufIcNS_11char_traitsIcEEED2Ev(%"class.std::__1::basic_streambuf"* %37) #14
  call void @_ZNSt3__114basic_iostreamIcNS_11char_traitsIcEEED2Ev(%"class.std::__1::basic_iostream"* %94, i8** getelementptr inbounds ([10 x i8*], [10 x i8*]* @_ZTTNSt3__118basic_stringstreamIcNS_11char_traitsIcEENS_9allocatorIcEEEE, i64 0, i64 1)) #14
  call void @_ZNSt3__19basic_iosIcNS_11char_traitsIcEEED2Ev(%"class.std::__1::basic_ios"* %96) #14
  %197 = load %"class.std::__1::__tree_node"*, %"class.std::__1::__tree_node"** %98, align 8
  call void @_ZNSt3__16__treeINS_12__value_typeINS_12basic_stringIcNS_11char_traitsIcEENS_9allocatorIcEEEES7_EENS_19__map_value_compareIS7_S8_NS_4lessIS7_EELb1EEENS5_IS8_EEE7destroyEPNS_11__tree_nodeIS8_PvEE(%"class.std::__1::__tree.171"* nonnull %97, %"class.std::__1::__tree_node"* %197) #14
  call void @llvm.lifetime.end.p0i8(i64 336, i8* nonnull %26) #14
  %198 = icmp eq i32 %183, 0
  %199 = getelementptr inbounds %"struct.flatbuffers::EnumDef"*, %"struct.flatbuffers::EnumDef"** %105, i64 1
  br i1 %198, label %99, label %393

200:                                              ; preds = %99, %1
  %201 = phi %"class.flatbuffers::Parser"* [ %14, %1 ], [ %100, %99 ]
  %202 = getelementptr inbounds %"class.flatbuffers::Parser", %"class.flatbuffers::Parser"* %201, i64 0, i32 2, i32 1, i32 0, i32 0
  %203 = load %"struct.flatbuffers::StructDef"**, %"struct.flatbuffers::StructDef"*** %202, align 8
  %204 = getelementptr inbounds %"class.flatbuffers::Parser", %"class.flatbuffers::Parser"* %201, i64 0, i32 2, i32 1, i32 0, i32 1
  %205 = load %"struct.flatbuffers::StructDef"**, %"struct.flatbuffers::StructDef"*** %204, align 8
  %206 = icmp eq %"struct.flatbuffers::StructDef"** %203, %205
  br i1 %206, label %382, label %207

207:                                              ; preds = %200
  %208 = bitcast %"class.flatbuffers::CodeWriter"* %7 to i8*
  %209 = bitcast %"class.std::__1::basic_string"* %8 to i8*
  %210 = getelementptr inbounds %"class.flatbuffers::CodeWriter", %"class.flatbuffers::CodeWriter"* %7, i64 0, i32 0, i32 0, i32 1, i32 0, i32 0, i32 0
  %211 = getelementptr inbounds %"class.flatbuffers::CodeWriter", %"class.flatbuffers::CodeWriter"* %7, i64 0, i32 0, i32 0, i32 1, i32 0, i32 0
  %212 = getelementptr inbounds %"class.flatbuffers::CodeWriter", %"class.flatbuffers::CodeWriter"* %7, i64 0, i32 0, i32 0, i32 0
  %213 = bitcast %"class.std::__1::__tree_node_base"** %210 to i8*
  %214 = getelementptr inbounds %"class.flatbuffers::CodeWriter", %"class.flatbuffers::CodeWriter"* %7, i64 0, i32 1
  %215 = getelementptr inbounds %"class.flatbuffers::CodeWriter", %"class.flatbuffers::CodeWriter"* %7, i64 0, i32 1, i32 2, i32 0, i32 0
  %216 = getelementptr inbounds %"class.std::__1::basic_stringstream", %"class.std::__1::basic_stringstream"* %214, i64 0, i32 0, i32 0, i32 0
  %217 = getelementptr inbounds %"class.flatbuffers::CodeWriter", %"class.flatbuffers::CodeWriter"* %7, i64 0, i32 1, i32 0, i32 1, i32 0
  %218 = getelementptr inbounds %"class.flatbuffers::CodeWriter", %"class.flatbuffers::CodeWriter"* %7, i64 0, i32 1, i32 1
  %219 = getelementptr inbounds %"class.std::__1::basic_stringbuf", %"class.std::__1::basic_stringbuf"* %218, i64 0, i32 0
  %220 = load i64, i64* bitcast (i8** getelementptr inbounds ([10 x i8*], [10 x i8*]* @_ZTTNSt3__118basic_stringstreamIcNS_11char_traitsIcEENS_9allocatorIcEEEE, i64 0, i64 2) to i64*), align 8
  %221 = bitcast %"class.std::__1::basic_stringstream"* %214 to i64*
  %222 = load i64, i64* bitcast (i8** getelementptr inbounds ([10 x i8*], [10 x i8*]* @_ZTTNSt3__118basic_stringstreamIcNS_11char_traitsIcEENS_9allocatorIcEEEE, i64 0, i64 3) to i64*), align 8
  %223 = bitcast %"class.std::__1::basic_stringstream"* %214 to i8**
  %224 = inttoptr i64 %220 to i8*
  %225 = getelementptr i8, i8* %224, i64 -24
  %226 = bitcast i8* %225 to i64*
  %227 = bitcast %"class.std::__1::basic_stringstream"* %214 to i8*
  %228 = getelementptr inbounds %"class.flatbuffers::CodeWriter", %"class.flatbuffers::CodeWriter"* %7, i64 0, i32 1, i32 0, i32 0, i32 1
  %229 = bitcast %"class.std::__1::basic_stringbuf"* %218 to i8*
  %230 = getelementptr inbounds %"class.flatbuffers::CodeWriter", %"class.flatbuffers::CodeWriter"* %7, i64 0, i32 1, i32 0, i32 1
  %231 = load i64, i64* bitcast (i8** getelementptr inbounds ([10 x i8*], [10 x i8*]* @_ZTTNSt3__118basic_stringstreamIcNS_11char_traitsIcEENS_9allocatorIcEEEE, i64 0, i64 4) to i64*), align 8
  %232 = bitcast %"class.std::__1::basic_ostream.base"* %230 to i64*
  %233 = load i64, i64* bitcast (i8** getelementptr inbounds ([10 x i8*], [10 x i8*]* @_ZTTNSt3__118basic_stringstreamIcNS_11char_traitsIcEENS_9allocatorIcEEEE, i64 0, i64 5) to i64*), align 8
  %234 = inttoptr i64 %231 to i8*
  %235 = getelementptr i8, i8* %234, i64 -24
  %236 = bitcast i8* %235 to i64*
  %237 = bitcast %"class.std::__1::basic_ostream.base"* %230 to i8*
  %238 = load i64, i64* bitcast (i8** getelementptr inbounds ([10 x i8*], [10 x i8*]* @_ZTTNSt3__118basic_stringstreamIcNS_11char_traitsIcEENS_9allocatorIcEEEE, i64 0, i64 1) to i64*), align 8
  %239 = load i64, i64* bitcast (i8** getelementptr inbounds ([10 x i8*], [10 x i8*]* @_ZTTNSt3__118basic_stringstreamIcNS_11char_traitsIcEENS_9allocatorIcEEEE, i64 0, i64 6) to i64*), align 8
  %240 = inttoptr i64 %238 to i8*
  %241 = getelementptr i8, i8* %240, i64 -24
  %242 = bitcast i8* %241 to i64*
  %243 = getelementptr inbounds %"class.std::__1::basic_stringbuf", %"class.std::__1::basic_stringbuf"* %218, i64 0, i32 0, i32 0
  %244 = getelementptr inbounds %"class.flatbuffers::CodeWriter", %"class.flatbuffers::CodeWriter"* %7, i64 0, i32 1, i32 1, i32 1
  %245 = getelementptr inbounds %"class.flatbuffers::CodeWriter", %"class.flatbuffers::CodeWriter"* %7, i64 0, i32 1, i32 1, i32 3
  %246 = bitcast %"class.std::__1::basic_string"* %244 to i8*
  %247 = getelementptr inbounds %"class.flatbuffers::CodeWriter", %"class.flatbuffers::CodeWriter"* %7, i64 0, i32 2
  %248 = bitcast %"class.std::__1::basic_string"* %8 to %"struct.std::__1::basic_string<char, std::__1::char_traits<char>, std::__1::allocator<char> >::__short"*
  %249 = getelementptr inbounds %"struct.std::__1::basic_string<char, std::__1::char_traits<char>, std::__1::allocator<char> >::__short", %"struct.std::__1::basic_string<char, std::__1::char_traits<char>, std::__1::allocator<char> >::__short"* %248, i64 0, i32 1, i32 0
  %250 = bitcast %"class.std::__1::basic_string"* %247 to i8*
  %251 = getelementptr inbounds %"class.std::__1::basic_string", %"class.std::__1::basic_string"* %8, i64 0, i32 0, i32 0, i32 0, i32 0, i32 0, i32 0
  %252 = getelementptr inbounds %"class.std::__1::basic_string", %"class.std::__1::basic_string"* %8, i64 0, i32 0, i32 0, i32 0, i32 0, i32 0, i32 1
  %253 = getelementptr inbounds %"class.flatbuffers::CodeWriter", %"class.flatbuffers::CodeWriter"* %7, i64 0, i32 3
  %254 = getelementptr inbounds %"class.flatbuffers::CodeWriter", %"class.flatbuffers::CodeWriter"* %7, i64 0, i32 4
  %255 = bitcast %"class.std::__1::basic_string"* %9 to i8*
  %256 = bitcast %"class.std::__1::basic_string"* %9 to %"struct.std::__1::basic_string<char, std::__1::char_traits<char>, std::__1::allocator<char> >::__short"*
  %257 = getelementptr inbounds %"struct.std::__1::basic_string<char, std::__1::char_traits<char>, std::__1::allocator<char> >::__short", %"struct.std::__1::basic_string<char, std::__1::char_traits<char>, std::__1::allocator<char> >::__short"* %256, i64 0, i32 1, i32 0
  %258 = getelementptr inbounds %"class.std::__1::basic_string", %"class.std::__1::basic_string"* %9, i64 0, i32 0, i32 0, i32 0, i32 0, i32 0, i32 0
  %259 = getelementptr inbounds %"class.std::__1::basic_string", %"class.std::__1::basic_string"* %9, i64 0, i32 0, i32 0, i32 0, i32 0, i32 0, i32 1
  %260 = bitcast %"class.std::__1::basic_string"* %10 to i8*
  %261 = bitcast %"class.std::__1::basic_string"* %10 to %"struct.std::__1::basic_string<char, std::__1::char_traits<char>, std::__1::allocator<char> >::__short"*
  %262 = getelementptr inbounds %"struct.std::__1::basic_string<char, std::__1::char_traits<char>, std::__1::allocator<char> >::__short", %"struct.std::__1::basic_string<char, std::__1::char_traits<char>, std::__1::allocator<char> >::__short"* %261, i64 0, i32 1, i32 0
  %263 = getelementptr inbounds %"class.std::__1::basic_string", %"class.std::__1::basic_string"* %10, i64 0, i32 0, i32 0, i32 0, i32 0, i32 0, i32 0
  %264 = bitcast %"class.std::__1::basic_string"* %247 to %"struct.std::__1::basic_string<char, std::__1::char_traits<char>, std::__1::allocator<char> >::__short"*
  %265 = getelementptr inbounds %"struct.std::__1::basic_string<char, std::__1::char_traits<char>, std::__1::allocator<char> >::__short", %"struct.std::__1::basic_string<char, std::__1::char_traits<char>, std::__1::allocator<char> >::__short"* %264, i64 0, i32 1, i32 0
  %266 = getelementptr inbounds %"class.std::__1::basic_string", %"class.std::__1::basic_string"* %247, i64 0, i32 0, i32 0, i32 0, i32 0, i32 0, i32 0
  %267 = load i64, i64* bitcast ([10 x i8*]* @_ZTTNSt3__118basic_stringstreamIcNS_11char_traitsIcEENS_9allocatorIcEEEE to i64*), align 8
  %268 = load i64, i64* bitcast (i8** getelementptr inbounds ([10 x i8*], [10 x i8*]* @_ZTTNSt3__118basic_stringstreamIcNS_11char_traitsIcEENS_9allocatorIcEEEE, i64 0, i64 8) to i64*), align 8
  %269 = inttoptr i64 %267 to i8*
  %270 = getelementptr i8, i8* %269, i64 -24
  %271 = bitcast i8* %270 to i64*
  %272 = load i64, i64* bitcast (i8** getelementptr inbounds ([10 x i8*], [10 x i8*]* @_ZTTNSt3__118basic_stringstreamIcNS_11char_traitsIcEENS_9allocatorIcEEEE, i64 0, i64 9) to i64*), align 8
  %273 = bitcast %"class.std::__1::basic_string"* %244 to %"struct.std::__1::basic_string<char, std::__1::char_traits<char>, std::__1::allocator<char> >::__short"*
  %274 = getelementptr inbounds %"struct.std::__1::basic_string<char, std::__1::char_traits<char>, std::__1::allocator<char> >::__short", %"struct.std::__1::basic_string<char, std::__1::char_traits<char>, std::__1::allocator<char> >::__short"* %273, i64 0, i32 1, i32 0
  %275 = getelementptr inbounds %"class.std::__1::basic_string", %"class.std::__1::basic_string"* %244, i64 0, i32 0, i32 0, i32 0, i32 0, i32 0, i32 0
  %276 = bitcast %"class.std::__1::basic_stringstream"* %214 to %"class.std::__1::basic_iostream"*
  %277 = getelementptr inbounds %"class.flatbuffers::CodeWriter", %"class.flatbuffers::CodeWriter"* %7, i64 0, i32 1, i32 2
  %278 = bitcast %"class.std::__1::basic_ios.base"* %277 to %"class.std::__1::basic_ios"*
  %279 = getelementptr inbounds %"class.flatbuffers::CodeWriter", %"class.flatbuffers::CodeWriter"* %7, i64 0, i32 0, i32 0
  %280 = bitcast %"class.std::__1::__tree_end_node"* %211 to %"class.std::__1::__tree_node"**
  br label %286

281:                                              ; preds = %378
  %282 = load %"class.flatbuffers::Parser"*, %"class.flatbuffers::Parser"** %13, align 8
  %283 = getelementptr inbounds %"class.flatbuffers::Parser", %"class.flatbuffers::Parser"* %282, i64 0, i32 2, i32 1, i32 0, i32 1
  %284 = load %"struct.flatbuffers::StructDef"**, %"struct.flatbuffers::StructDef"*** %283, align 8
  %285 = icmp eq %"struct.flatbuffers::StructDef"** %381, %284
  br i1 %285, label %382, label %286

286:                                              ; preds = %207, %281
  %287 = phi %"struct.flatbuffers::StructDef"** [ %203, %207 ], [ %381, %281 ]
  call void @llvm.lifetime.start.p0i8(i64 336, i8* nonnull %208) #14
  call void @llvm.memset.p0i8.i64(i8* nonnull align 8 %208, i8 -86, i64 336, i1 false)
  %288 = load i8, i8* getelementptr (%"struct.std::__1::basic_string<char, std::__1::char_traits<char>, std::__1::allocator<char> >::__short", %"struct.std::__1::basic_string<char, std::__1::char_traits<char>, std::__1::allocator<char> >::__short"* bitcast (%"class.std::__1::basic_string"* @_ZN11flatbuffers6kotlinL9ident_padE to %"struct.std::__1::basic_string<char, std::__1::char_traits<char>, std::__1::allocator<char> >::__short"*), i64 0, i32 1, i32 0), align 1
  %289 = icmp slt i8 %288, 0
  br i1 %289, label %291, label %290

290:                                              ; preds = %286
  call void @llvm.memcpy.p0i8.p0i8.i64(i8* nonnull align 8 %209, i8* align 8 bitcast (%"class.std::__1::basic_string"* @_ZN11flatbuffers6kotlinL9ident_padE to i8*), i64 24, i1 false) #14
  br label %294

291:                                              ; preds = %286
  %292 = load i8*, i8** getelementptr inbounds (%"class.std::__1::basic_string", %"class.std::__1::basic_string"* @_ZN11flatbuffers6kotlinL9ident_padE, i64 0, i32 0, i32 0, i32 0, i32 0, i32 0, i32 0), align 8
  %293 = load i64, i64* getelementptr inbounds (%"class.std::__1::basic_string", %"class.std::__1::basic_string"* @_ZN11flatbuffers6kotlinL9ident_padE, i64 0, i32 0, i32 0, i32 0, i32 0, i32 0, i32 1), align 8
  call void @_ZNSt3__112basic_stringIcNS_11char_traitsIcEENS_9allocatorIcEEE25__init_copy_ctor_externalEPKcm(%"class.std::__1::basic_string"* nonnull %8, i8* %292, i64 %293) #14
  br label %294

294:                                              ; preds = %290, %291
  call void @llvm.memset.p0i8.i64(i8* align 8 %213, i8 0, i64 16, i1 false) #14
  store %"class.std::__1::__tree_end_node"* %211, %"class.std::__1::__tree_end_node"** %212, align 8
  store i32 (...)** bitcast (i8** getelementptr inbounds ({ [5 x i8*], [5 x i8*], [5 x i8*] }, { [5 x i8*], [5 x i8*], [5 x i8*] }* @_ZTVNSt3__118basic_stringstreamIcNS_11char_traitsIcEENS_9allocatorIcEEEE, i64 0, inrange i32 2, i64 3) to i32 (...)**), i32 (...)*** %215, align 8
  store i32 (...)** bitcast (i8** getelementptr inbounds ({ [5 x i8*], [5 x i8*], [5 x i8*] }, { [5 x i8*], [5 x i8*], [5 x i8*] }* @_ZTVNSt3__118basic_stringstreamIcNS_11char_traitsIcEENS_9allocatorIcEEEE, i64 0, inrange i32 1, i64 3) to i32 (...)**), i32 (...)*** %217, align 8
  store i64 %220, i64* %221, align 8
  %295 = load i64, i64* %226, align 8
  %296 = getelementptr inbounds i8, i8* %227, i64 %295
  %297 = bitcast i8* %296 to i64*
  store i64 %222, i64* %297, align 8
  store i64 0, i64* %228, align 8
  %298 = load i8*, i8** %223, align 8
  %299 = getelementptr i8, i8* %298, i64 -24
  %300 = bitcast i8* %299 to i64*
  %301 = load i64, i64* %300, align 8
  %302 = getelementptr inbounds i8, i8* %227, i64 %301
  %303 = bitcast i8* %302 to %"class.std::__1::ios_base"*
  call void @_ZNSt3__18ios_base4initEPv(%"class.std::__1::ios_base"* %303, i8* %229) #14
  %304 = getelementptr inbounds i8, i8* %302, i64 136
  %305 = bitcast i8* %304 to %"class.std::__1::basic_ostream"**
  store %"class.std::__1::basic_ostream"* null, %"class.std::__1::basic_ostream"** %305, align 8
  %306 = getelementptr inbounds i8, i8* %302, i64 144
  %307 = bitcast i8* %306 to i32*
  store i32 -1, i32* %307, align 8
  store i64 %231, i64* %232, align 8
  %308 = load i64, i64* %236, align 8
  %309 = getelementptr inbounds i8, i8* %237, i64 %308
  %310 = bitcast i8* %309 to i64*
  store i64 %233, i64* %310, align 8
  store i64 %238, i64* %221, align 8
  %311 = load i64, i64* %242, align 8
  %312 = getelementptr inbounds i8, i8* %227, i64 %311
  %313 = bitcast i8* %312 to i64*
  store i64 %239, i64* %313, align 8
  store i32 (...)** bitcast (i8** getelementptr inbounds ({ [5 x i8*], [5 x i8*], [5 x i8*] }, { [5 x i8*], [5 x i8*], [5 x i8*] }* @_ZTVNSt3__118basic_stringstreamIcNS_11char_traitsIcEENS_9allocatorIcEEEE, i64 0, inrange i32 0, i64 3) to i32 (...)**), i32 (...)*** %216, align 8
  store i32 (...)** bitcast (i8** getelementptr inbounds ({ [5 x i8*], [5 x i8*], [5 x i8*] }, { [5 x i8*], [5 x i8*], [5 x i8*] }* @_ZTVNSt3__118basic_stringstreamIcNS_11char_traitsIcEENS_9allocatorIcEEEE, i64 0, inrange i32 2, i64 3) to i32 (...)**), i32 (...)*** %215, align 8
  store i32 (...)** bitcast (i8** getelementptr inbounds ({ [5 x i8*], [5 x i8*], [5 x i8*] }, { [5 x i8*], [5 x i8*], [5 x i8*] }* @_ZTVNSt3__118basic_stringstreamIcNS_11char_traitsIcEENS_9allocatorIcEEEE, i64 0, inrange i32 1, i64 3) to i32 (...)**), i32 (...)*** %217, align 8
  call void @_ZNSt3__115basic_streambufIcNS_11char_traitsIcEEEC2Ev(%"class.std::__1::basic_streambuf"* %219) #14
  store i32 (...)** bitcast (i8** getelementptr inbounds ({ [16 x i8*] }, { [16 x i8*] }* @_ZTVNSt3__115basic_stringbufIcNS_11char_traitsIcEENS_9allocatorIcEEEE, i64 0, inrange i32 0, i64 2) to i32 (...)**), i32 (...)*** %243, align 8
  call void @llvm.memset.p0i8.i64(i8* align 8 %246, i8 0, i64 32, i1 false) #14
  store i32 24, i32* %245, align 8
  %314 = load i8, i8* %249, align 1
  %315 = icmp slt i8 %314, 0
  br i1 %315, label %317, label %316

316:                                              ; preds = %294
  call void @llvm.memcpy.p0i8.p0i8.i64(i8* align 8 %250, i8* nonnull align 8 %209, i64 24, i1 false) #14
  store i32 0, i32* %253, align 8
  store i8 0, i8* %254, align 4
  br label %324

317:                                              ; preds = %294
  %318 = load i8*, i8** %251, align 8
  %319 = load i64, i64* %252, align 8
  call void @_ZNSt3__112basic_stringIcNS_11char_traitsIcEENS_9allocatorIcEEE25__init_copy_ctor_externalEPKcm(%"class.std::__1::basic_string"* %247, i8* %318, i64 %319) #14
  %320 = load i8, i8* %249, align 1
  store i32 0, i32* %253, align 8
  store i8 0, i8* %254, align 4
  %321 = icmp slt i8 %320, 0
  br i1 %321, label %322, label %324

322:                                              ; preds = %317
  %323 = load i8*, i8** %251, align 8
  call void @_ZdlPv(i8* %323) #13
  br label %324

324:                                              ; preds = %316, %317, %322
  %325 = load %"struct.flatbuffers::StructDef"*, %"struct.flatbuffers::StructDef"** %287, align 8
  %326 = load %"class.flatbuffers::Parser"*, %"class.flatbuffers::Parser"** %13, align 8
  %327 = getelementptr inbounds %"class.flatbuffers::Parser", %"class.flatbuffers::Parser"* %326, i64 0, i32 19, i32 13
  %328 = load i8, i8* %327, align 1, !range !2
  %329 = icmp eq i8 %328, 0
  br i1 %329, label %330, label %334

330:                                              ; preds = %324
  %331 = getelementptr inbounds %"struct.flatbuffers::StructDef", %"struct.flatbuffers::StructDef"* %325, i64 0, i32 0, i32 6
  %332 = bitcast %"struct.flatbuffers::Namespace"** %331 to i64*
  %333 = load i64, i64* %332, align 8
  store i64 %333, i64* %19, align 8
  br label %334

334:                                              ; preds = %324, %330
  call void @_ZNK11flatbuffers6kotlin15KotlinGenerator9GenStructERNS_9StructDefERNS_10CodeWriterE(%"class.flatbuffers::kotlin::KotlinGenerator"* %0, %"struct.flatbuffers::StructDef"* dereferenceable(232) %325, %"class.flatbuffers::CodeWriter"* nonnull dereferenceable(336) %7)
  %335 = load %"class.flatbuffers::Parser"*, %"class.flatbuffers::Parser"** %13, align 8
  %336 = getelementptr inbounds %"class.flatbuffers::Parser", %"class.flatbuffers::Parser"* %335, i64 0, i32 19, i32 13
  %337 = load i8, i8* %336, align 1, !range !2
  %338 = icmp eq i8 %337, 0
  br i1 %338, label %353, label %339

339:                                              ; preds = %334
  call void @llvm.lifetime.start.p0i8(i64 24, i8* nonnull %255) #14
  call void @_ZNKSt3__115basic_stringbufIcNS_11char_traitsIcEENS_9allocatorIcEEE3strEv(%"class.std::__1::basic_string"* nonnull sret %9, %"class.std::__1::basic_stringbuf"* %218) #14
  %340 = load i8, i8* %257, align 1
  %341 = icmp slt i8 %340, 0
  %342 = load i8*, i8** %258, align 8
  %343 = load i64, i64* %259, align 8
  %344 = zext i8 %340 to i64
  %345 = select i1 %341, i8* %342, i8* %255
  %346 = select i1 %341, i64 %343, i64 %344
  %347 = call dereferenceable(24) %"class.std::__1::basic_string"* @_ZNSt3__112basic_stringIcNS_11char_traitsIcEENS_9allocatorIcEEE6appendEPKcm(%"class.std::__1::basic_string"* nonnull %2, i8* %345, i64 %346) #14
  %348 = load i8, i8* %257, align 1
  %349 = icmp slt i8 %348, 0
  br i1 %349, label %350, label %352

350:                                              ; preds = %339
  %351 = load i8*, i8** %258, align 8
  call void @_ZdlPv(i8* %351) #13
  br label %352

352:                                              ; preds = %339, %350
  call void @llvm.lifetime.end.p0i8(i64 24, i8* nonnull %255) #14
  br label %363

353:                                              ; preds = %334
  %354 = getelementptr inbounds %"struct.flatbuffers::StructDef", %"struct.flatbuffers::StructDef"* %325, i64 0, i32 0, i32 0
  %355 = getelementptr inbounds %"struct.flatbuffers::StructDef", %"struct.flatbuffers::StructDef"* %325, i64 0, i32 0, i32 6
  %356 = load %"struct.flatbuffers::Namespace"*, %"struct.flatbuffers::Namespace"** %355, align 8
  call void @llvm.lifetime.start.p0i8(i64 24, i8* nonnull %260) #14
  call void @_ZNKSt3__115basic_stringbufIcNS_11char_traitsIcEENS_9allocatorIcEEE3strEv(%"class.std::__1::basic_string"* nonnull sret %10, %"class.std::__1::basic_stringbuf"* %218) #14
  %357 = call zeroext i1 @_ZNK11flatbuffers6kotlin15KotlinGenerator8SaveTypeERKNSt3__112basic_stringIcNS2_11char_traitsIcEENS2_9allocatorIcEEEERKNS_9NamespaceESA_b(%"class.flatbuffers::kotlin::KotlinGenerator"* %0, %"class.std::__1::basic_string"* dereferenceable(24) %354, %"struct.flatbuffers::Namespace"* dereferenceable(32) %356, %"class.std::__1::basic_string"* nonnull dereferenceable(24) %10, i1 zeroext true)
  %358 = load i8, i8* %262, align 1
  %359 = icmp slt i8 %358, 0
  br i1 %359, label %360, label %362

360:                                              ; preds = %353
  %361 = load i8*, i8** %263, align 8
  call void @_ZdlPv(i8* %361) #13
  br label %362

362:                                              ; preds = %353, %360
  call void @llvm.lifetime.end.p0i8(i64 24, i8* nonnull %260) #14
  br i1 %357, label %363, label %364

363:                                              ; preds = %362, %352
  br label %364

364:                                              ; preds = %362, %363
  %365 = phi i32 [ 0, %363 ], [ 1, %362 ]
  %366 = load i8, i8* %265, align 1
  %367 = icmp slt i8 %366, 0
  br i1 %367, label %368, label %370

368:                                              ; preds = %364
  %369 = load i8*, i8** %266, align 8
  call void @_ZdlPv(i8* %369) #13
  br label %370

370:                                              ; preds = %368, %364
  store i64 %267, i64* %221, align 8
  %371 = load i64, i64* %271, align 8
  %372 = getelementptr inbounds i8, i8* %227, i64 %371
  %373 = bitcast i8* %372 to i64*
  store i64 %268, i64* %373, align 8
  store i64 %272, i64* %232, align 8
  store i32 (...)** bitcast (i8** getelementptr inbounds ({ [16 x i8*] }, { [16 x i8*] }* @_ZTVNSt3__115basic_stringbufIcNS_11char_traitsIcEENS_9allocatorIcEEEE, i64 0, inrange i32 0, i64 2) to i32 (...)**), i32 (...)*** %243, align 8
  %374 = load i8, i8* %274, align 1
  %375 = icmp slt i8 %374, 0
  br i1 %375, label %376, label %378

376:                                              ; preds = %370
  %377 = load i8*, i8** %275, align 8
  call void @_ZdlPv(i8* %377) #13
  br label %378

378:                                              ; preds = %370, %376
  call void @_ZNSt3__115basic_streambufIcNS_11char_traitsIcEEED2Ev(%"class.std::__1::basic_streambuf"* %219) #14
  call void @_ZNSt3__114basic_iostreamIcNS_11char_traitsIcEEED2Ev(%"class.std::__1::basic_iostream"* %276, i8** getelementptr inbounds ([10 x i8*], [10 x i8*]* @_ZTTNSt3__118basic_stringstreamIcNS_11char_traitsIcEENS_9allocatorIcEEEE, i64 0, i64 1)) #14
  call void @_ZNSt3__19basic_iosIcNS_11char_traitsIcEEED2Ev(%"class.std::__1::basic_ios"* %278) #14
  %379 = load %"class.std::__1::__tree_node"*, %"class.std::__1::__tree_node"** %280, align 8
  call void @_ZNSt3__16__treeINS_12__value_typeINS_12basic_stringIcNS_11char_traitsIcEENS_9allocatorIcEEEES7_EENS_19__map_value_compareIS7_S8_NS_4lessIS7_EELb1EEENS5_IS8_EEE7destroyEPNS_11__tree_nodeIS8_PvEE(%"class.std::__1::__tree.171"* nonnull %279, %"class.std::__1::__tree_node"* %379) #14
  call void @llvm.lifetime.end.p0i8(i64 336, i8* nonnull %208) #14
  %380 = icmp eq i32 %365, 0
  %381 = getelementptr inbounds %"struct.flatbuffers::StructDef"*, %"struct.flatbuffers::StructDef"** %287, i64 1
  br i1 %380, label %281, label %393

382:                                              ; preds = %281, %200
  %383 = phi %"class.flatbuffers::Parser"* [ %201, %200 ], [ %282, %281 ]
  %384 = getelementptr inbounds %"class.flatbuffers::Parser", %"class.flatbuffers::Parser"* %383, i64 0, i32 19, i32 13
  %385 = load i8, i8* %384, align 1, !range !2
  %386 = icmp eq i8 %385, 0
  br i1 %386, label %393, label %387

387:                                              ; preds = %382
  %388 = getelementptr inbounds %"class.flatbuffers::kotlin::KotlinGenerator", %"class.flatbuffers::kotlin::KotlinGenerator"* %0, i64 0, i32 0, i32 3
  %389 = load %"class.std::__1::basic_string"*, %"class.std::__1::basic_string"** %388, align 8
  %390 = getelementptr inbounds %"class.flatbuffers::Parser", %"class.flatbuffers::Parser"* %383, i64 0, i32 6
  %391 = load %"struct.flatbuffers::Namespace"*, %"struct.flatbuffers::Namespace"** %390, align 8
  %392 = call zeroext i1 @_ZNK11flatbuffers6kotlin15KotlinGenerator8SaveTypeERKNSt3__112basic_stringIcNS2_11char_traitsIcEENS2_9allocatorIcEEEERKNS_9NamespaceESA_b(%"class.flatbuffers::kotlin::KotlinGenerator"* %0, %"class.std::__1::basic_string"* dereferenceable(24) %389, %"struct.flatbuffers::Namespace"* dereferenceable(32) %391, %"class.std::__1::basic_string"* nonnull dereferenceable(24) %2, i1 zeroext true)
  br label %393

393:                                              ; preds = %196, %378, %382, %387
  %394 = phi i1 [ %392, %387 ], [ true, %382 ], [ false, %378 ], [ false, %196 ]
  %395 = bitcast %"class.std::__1::basic_string"* %2 to %"struct.std::__1::basic_string<char, std::__1::char_traits<char>, std::__1::allocator<char> >::__short"*
  %396 = getelementptr inbounds %"struct.std::__1::basic_string<char, std::__1::char_traits<char>, std::__1::allocator<char> >::__short", %"struct.std::__1::basic_string<char, std::__1::char_traits<char>, std::__1::allocator<char> >::__short"* %395, i64 0, i32 1, i32 0
  %397 = load i8, i8* %396, align 1
  %398 = icmp slt i8 %397, 0
  br i1 %398, label %399, label %401

399:                                              ; preds = %393
  %400 = load i8*, i8** %12, align 8
  call void @_ZdlPv(i8* %400) #13
  br label %401

401:                                              ; preds = %393, %399
  call void @llvm.lifetime.end.p0i8(i64 24, i8* nonnull %11) #14
  ret i1 %394
}

; Function Attrs: argmemonly nounwind
declare void @llvm.lifetime.end.p0i8(i64 immarg, i8* nocapture) #4

; Function Attrs: inlinehint nounwind ssp uwtable
define linkonce_odr hidden void @_ZN11flatbuffers6kotlin15KotlinGeneratorD0Ev(%"class.flatbuffers::kotlin::KotlinGenerator"*) unnamed_addr #1 comdat align 2 {
  %2 = getelementptr inbounds %"class.flatbuffers::kotlin::KotlinGenerator", %"class.flatbuffers::kotlin::KotlinGenerator"* %0, i64 0, i32 0, i32 0
  store i32 (...)** bitcast (i8** getelementptr inbounds ({ [6 x i8*] }, { [6 x i8*] }* @_ZTVN11flatbuffers13BaseGeneratorE, i64 0, inrange i32 0, i64 2) to i32 (...)**), i32 (...)*** %2, align 8
  %3 = getelementptr inbounds %"class.flatbuffers::kotlin::KotlinGenerator", %"class.flatbuffers::kotlin::KotlinGenerator"* %0, i64 0, i32 0, i32 6
  %4 = bitcast %"class.std::__1::basic_string"* %3 to %"struct.std::__1::basic_string<char, std::__1::char_traits<char>, std::__1::allocator<char> >::__short"*
  %5 = getelementptr inbounds %"struct.std::__1::basic_string<char, std::__1::char_traits<char>, std::__1::allocator<char> >::__short", %"struct.std::__1::basic_string<char, std::__1::char_traits<char>, std::__1::allocator<char> >::__short"* %4, i64 0, i32 1, i32 0
  %6 = load i8, i8* %5, align 1
  %7 = icmp slt i8 %6, 0
  br i1 %7, label %8, label %11

8:                                                ; preds = %1
  %9 = getelementptr inbounds %"class.std::__1::basic_string", %"class.std::__1::basic_string"* %3, i64 0, i32 0, i32 0, i32 0, i32 0, i32 0, i32 0
  %10 = load i8*, i8** %9, align 8
  tail call void @_ZdlPv(i8* %10) #13
  br label %11

11:                                               ; preds = %8, %1
  %12 = getelementptr inbounds %"class.flatbuffers::kotlin::KotlinGenerator", %"class.flatbuffers::kotlin::KotlinGenerator"* %0, i64 0, i32 0, i32 5
  %13 = bitcast %"class.std::__1::basic_string"* %12 to %"struct.std::__1::basic_string<char, std::__1::char_traits<char>, std::__1::allocator<char> >::__short"*
  %14 = getelementptr inbounds %"struct.std::__1::basic_string<char, std::__1::char_traits<char>, std::__1::allocator<char> >::__short", %"struct.std::__1::basic_string<char, std::__1::char_traits<char>, std::__1::allocator<char> >::__short"* %13, i64 0, i32 1, i32 0
  %15 = load i8, i8* %14, align 1
  %16 = icmp slt i8 %15, 0
  br i1 %16, label %17, label %20

17:                                               ; preds = %11
  %18 = getelementptr inbounds %"class.std::__1::basic_string", %"class.std::__1::basic_string"* %12, i64 0, i32 0, i32 0, i32 0, i32 0, i32 0, i32 0
  %19 = load i8*, i8** %18, align 8
  tail call void @_ZdlPv(i8* %19) #13
  br label %20

20:                                               ; preds = %17, %11
  %21 = getelementptr inbounds %"class.flatbuffers::kotlin::KotlinGenerator", %"class.flatbuffers::kotlin::KotlinGenerator"* %0, i64 0, i32 0, i32 4
  %22 = bitcast %"class.std::__1::basic_string"* %21 to %"struct.std::__1::basic_string<char, std::__1::char_traits<char>, std::__1::allocator<char> >::__short"*
  %23 = getelementptr inbounds %"struct.std::__1::basic_string<char, std::__1::char_traits<char>, std::__1::allocator<char> >::__short", %"struct.std::__1::basic_string<char, std::__1::char_traits<char>, std::__1::allocator<char> >::__short"* %22, i64 0, i32 1, i32 0
  %24 = load i8, i8* %23, align 1
  %25 = icmp slt i8 %24, 0
  br i1 %25, label %26, label %29

26:                                               ; preds = %20
  %27 = getelementptr inbounds %"class.std::__1::basic_string", %"class.std::__1::basic_string"* %21, i64 0, i32 0, i32 0, i32 0, i32 0, i32 0, i32 0
  %28 = load i8*, i8** %27, align 8
  tail call void @_ZdlPv(i8* %28) #13
  br label %29

29:                                               ; preds = %20, %26
  %30 = bitcast %"class.flatbuffers::kotlin::KotlinGenerator"* %0 to i8*
  tail call void @_ZdlPv(i8* %30) #13
  ret void
}

; Function Attrs: nounwind ssp uwtable
define linkonce_odr hidden %"struct.flatbuffers::Namespace"* @_ZNK11flatbuffers6kotlin15KotlinGenerator16CurrentNameSpaceEv(%"class.flatbuffers::kotlin::KotlinGenerator"*) unnamed_addr #3 comdat align 2 {
  %2 = getelementptr inbounds %"class.flatbuffers::kotlin::KotlinGenerator", %"class.flatbuffers::kotlin::KotlinGenerator"* %0, i64 0, i32 1
  %3 = load %"struct.flatbuffers::Namespace"*, %"struct.flatbuffers::Namespace"** %2, align 8
  ret %"struct.flatbuffers::Namespace"* %3
}

declare void @__cxa_pure_virtual() unnamed_addr

; Function Attrs: nounwind ssp uwtable
define linkonce_odr hidden void @_ZN11flatbuffers13BaseGeneratorD2Ev(%"class.flatbuffers::BaseGenerator"*) unnamed_addr #3 comdat align 2 {
  %2 = getelementptr inbounds %"class.flatbuffers::BaseGenerator", %"class.flatbuffers::BaseGenerator"* %0, i64 0, i32 0
  store i32 (...)** bitcast (i8** getelementptr inbounds ({ [6 x i8*] }, { [6 x i8*] }* @_ZTVN11flatbuffers13BaseGeneratorE, i64 0, inrange i32 0, i64 2) to i32 (...)**), i32 (...)*** %2, align 8
  %3 = getelementptr inbounds %"class.flatbuffers::BaseGenerator", %"class.flatbuffers::BaseGenerator"* %0, i64 0, i32 6
  %4 = bitcast %"class.std::__1::basic_string"* %3 to %"struct.std::__1::basic_string<char, std::__1::char_traits<char>, std::__1::allocator<char> >::__short"*
  %5 = getelementptr inbounds %"struct.std::__1::basic_string<char, std::__1::char_traits<char>, std::__1::allocator<char> >::__short", %"struct.std::__1::basic_string<char, std::__1::char_traits<char>, std::__1::allocator<char> >::__short"* %4, i64 0, i32 1, i32 0
  %6 = load i8, i8* %5, align 1
  %7 = icmp slt i8 %6, 0
  br i1 %7, label %8, label %11

8:                                                ; preds = %1
  %9 = getelementptr inbounds %"class.std::__1::basic_string", %"class.std::__1::basic_string"* %3, i64 0, i32 0, i32 0, i32 0, i32 0, i32 0, i32 0
  %10 = load i8*, i8** %9, align 8
  tail call void @_ZdlPv(i8* %10) #13
  br label %11

11:                                               ; preds = %1, %8
  %12 = getelementptr inbounds %"class.flatbuffers::BaseGenerator", %"class.flatbuffers::BaseGenerator"* %0, i64 0, i32 5
  %13 = bitcast %"class.std::__1::basic_string"* %12 to %"struct.std::__1::basic_string<char, std::__1::char_traits<char>, std::__1::allocator<char> >::__short"*
  %14 = getelementptr inbounds %"struct.std::__1::basic_string<char, std::__1::char_traits<char>, std::__1::allocator<char> >::__short", %"struct.std::__1::basic_string<char, std::__1::char_traits<char>, std::__1::allocator<char> >::__short"* %13, i64 0, i32 1, i32 0
  %15 = load i8, i8* %14, align 1
  %16 = icmp slt i8 %15, 0
  br i1 %16, label %17, label %20

17:                                               ; preds = %11
  %18 = getelementptr inbounds %"class.std::__1::basic_string", %"class.std::__1::basic_string"* %12, i64 0, i32 0, i32 0, i32 0, i32 0, i32 0, i32 0
  %19 = load i8*, i8** %18, align 8
  tail call void @_ZdlPv(i8* %19) #13
  br label %20

20:                                               ; preds = %11, %17
  %21 = getelementptr inbounds %"class.flatbuffers::BaseGenerator", %"class.flatbuffers::BaseGenerator"* %0, i64 0, i32 4
  %22 = bitcast %"class.std::__1::basic_string"* %21 to %"struct.std::__1::basic_string<char, std::__1::char_traits<char>, std::__1::allocator<char> >::__short"*
  %23 = getelementptr inbounds %"struct.std::__1::basic_string<char, std::__1::char_traits<char>, std::__1::allocator<char> >::__short", %"struct.std::__1::basic_string<char, std::__1::char_traits<char>, std::__1::allocator<char> >::__short"* %22, i64 0, i32 1, i32 0
  %24 = load i8, i8* %23, align 1
  %25 = icmp slt i8 %24, 0
  br i1 %25, label %26, label %29

26:                                               ; preds = %20
  %27 = getelementptr inbounds %"class.std::__1::basic_string", %"class.std::__1::basic_string"* %21, i64 0, i32 0, i32 0, i32 0, i32 0, i32 0, i32 0
  %28 = load i8*, i8** %27, align 8
  tail call void @_ZdlPv(i8* %28) #13
  br label %29

29:                                               ; preds = %20, %26
  ret void
}

; Function Attrs: nounwind ssp uwtable
define linkonce_odr hidden void @_ZN11flatbuffers13BaseGeneratorD0Ev(%"class.flatbuffers::BaseGenerator"*) unnamed_addr #3 comdat align 2 {
  tail call void @llvm.trap() #15
  unreachable
}

; Function Attrs: nounwind ssp uwtable
define linkonce_odr hidden %"struct.flatbuffers::Namespace"* @_ZNK11flatbuffers13BaseGenerator16CurrentNameSpaceEv(%"class.flatbuffers::BaseGenerator"*) unnamed_addr #3 comdat align 2 {
  ret %"struct.flatbuffers::Namespace"* null
}

; Function Attrs: argmemonly nounwind
declare void @llvm.memcpy.p0i8.p0i8.i64(i8* nocapture writeonly, i8* nocapture readonly, i64, i1 immarg) #4

declare void @_ZNSt3__112basic_stringIcNS_11char_traitsIcEENS_9allocatorIcEEE25__init_copy_ctor_externalEPKcm(%"class.std::__1::basic_string"*, i8*, i64) local_unnamed_addr #0

; Function Attrs: cold noreturn nounwind
declare void @llvm.trap() #5

; Function Attrs: nobuiltin nounwind
declare void @_ZdlPv(i8*) local_unnamed_addr #6

; Function Attrs: nounwind ssp uwtable
define linkonce_odr hidden void @_ZNK11flatbuffers6kotlin15KotlinGenerator7GenEnumERNS_7EnumDefERNS_10CodeWriterE(%"class.flatbuffers::kotlin::KotlinGenerator"*, %"struct.flatbuffers::EnumDef"* dereferenceable(232), %"class.flatbuffers::CodeWriter"* dereferenceable(336)) local_unnamed_addr #3 comdat align 2 {
  %4 = alloca %"class.std::__1::basic_string", align 8
  %5 = alloca %"class.std::__1::basic_string", align 8
  %6 = alloca %"class.std::__1::basic_string", align 8
  %7 = alloca %"class.std::__1::basic_string", align 8
  %8 = alloca %"class.std::__1::basic_string", align 8
  %9 = alloca %"class.std::__1::function", align 8
  %10 = alloca %"class.std::__1::basic_string", align 8
  %11 = getelementptr inbounds %"struct.flatbuffers::EnumDef", %"struct.flatbuffers::EnumDef"* %1, i64 0, i32 0, i32 4
  %12 = load i8, i8* %11, align 8, !range !2
  %13 = icmp eq i8 %12, 0
  br i1 %13, label %14, label %104

14:                                               ; preds = %3
  %15 = getelementptr inbounds %"struct.flatbuffers::EnumDef", %"struct.flatbuffers::EnumDef"* %1, i64 0, i32 0, i32 2
  tail call void @_ZNK11flatbuffers6kotlin15KotlinGenerator15GenerateCommentERKNSt3__16vectorINS2_12basic_stringIcNS2_11char_traitsIcEENS2_9allocatorIcEEEENS7_IS9_EEEERNS_10CodeWriterEPKNS_13CommentConfigE(%"class.flatbuffers::kotlin::KotlinGenerator"* %0, %"class.std::__1::vector"* dereferenceable(24) %15, %"class.flatbuffers::CodeWriter"* dereferenceable(336) %2, %"struct.flatbuffers::CommentConfig"* nonnull @_ZN11flatbuffers6kotlinL14comment_configE)
  %16 = bitcast %"class.std::__1::basic_string"* %4 to %"struct.std::__1::basic_string<char, std::__1::char_traits<char>, std::__1::allocator<char> >::__short"*
  %17 = getelementptr inbounds %"struct.std::__1::basic_string<char, std::__1::char_traits<char>, std::__1::allocator<char> >::__short", %"struct.std::__1::basic_string<char, std::__1::char_traits<char>, std::__1::allocator<char> >::__short"* %16, i64 0, i32 1, i32 0
  store i8 19, i8* %17, align 1
  %18 = bitcast %"class.std::__1::basic_string"* %4 to i8*
  call void @llvm.memcpy.p0i8.p0i8.i64(i8* nonnull align 8 %18, i8* align 1 getelementptr inbounds ([20 x i8], [20 x i8]* @.str.11, i64 0, i64 0), i64 19, i1 false) #14
  %19 = getelementptr inbounds i8, i8* %18, i64 19
  store i8 0, i8* %19, align 1
  call void @_ZN11flatbuffers10CodeWriterpLENSt3__112basic_stringIcNS1_11char_traitsIcEENS1_9allocatorIcEEEE(%"class.flatbuffers::CodeWriter"* %2, %"class.std::__1::basic_string"* nonnull %4) #14
  %20 = load i8, i8* %17, align 1
  %21 = icmp slt i8 %20, 0
  br i1 %21, label %22, label %25

22:                                               ; preds = %14
  %23 = getelementptr inbounds %"class.std::__1::basic_string", %"class.std::__1::basic_string"* %4, i64 0, i32 0, i32 0, i32 0, i32 0, i32 0, i32 0
  %24 = load i8*, i8** %23, align 8
  call void @_ZdlPv(i8* %24) #13
  br label %25

25:                                               ; preds = %14, %22
  %26 = call i8* @_Znwm(i64 32) #13
  %27 = getelementptr inbounds %"class.std::__1::basic_string", %"class.std::__1::basic_string"* %5, i64 0, i32 0, i32 0, i32 0, i32 0, i32 0, i32 0
  store i8* %26, i8** %27, align 8
  %28 = getelementptr inbounds %"class.std::__1::basic_string", %"class.std::__1::basic_string"* %5, i64 0, i32 0, i32 0, i32 0, i32 0, i32 0, i32 1
  %29 = bitcast i64* %28 to <2 x i64>*
  store <2 x i64> <i64 26, i64 -9223372036854775776>, <2 x i64>* %29, align 8
  call void @llvm.memcpy.p0i8.p0i8.i64(i8* nonnull align 1 %26, i8* align 1 getelementptr inbounds ([27 x i8], [27 x i8]* @.str.12, i64 0, i64 0), i64 26, i1 false) #14
  %30 = getelementptr inbounds i8, i8* %26, i64 26
  store i8 0, i8* %30, align 1
  call void @_ZN11flatbuffers10CodeWriterpLENSt3__112basic_stringIcNS1_11char_traitsIcEENS1_9allocatorIcEEEE(%"class.flatbuffers::CodeWriter"* %2, %"class.std::__1::basic_string"* nonnull %5) #14
  %31 = bitcast %"class.std::__1::basic_string"* %5 to %"struct.std::__1::basic_string<char, std::__1::char_traits<char>, std::__1::allocator<char> >::__short"*
  %32 = getelementptr inbounds %"struct.std::__1::basic_string<char, std::__1::char_traits<char>, std::__1::allocator<char> >::__short", %"struct.std::__1::basic_string<char, std::__1::char_traits<char>, std::__1::allocator<char> >::__short"* %31, i64 0, i32 1, i32 0
  %33 = load i8, i8* %32, align 1
  %34 = icmp slt i8 %33, 0
  br i1 %34, label %35, label %37

35:                                               ; preds = %25
  %36 = load i8*, i8** %27, align 8
  call void @_ZdlPv(i8* %36) #13
  br label %37

37:                                               ; preds = %25, %35
  %38 = bitcast %"class.std::__1::basic_string"* %7 to i8*
  call void @llvm.lifetime.start.p0i8(i64 24, i8* nonnull %38) #14
  %39 = bitcast %"class.std::__1::basic_string"* %8 to i8*
  call void @llvm.lifetime.start.p0i8(i64 24, i8* nonnull %39) #14
  %40 = getelementptr inbounds %"struct.flatbuffers::EnumDef", %"struct.flatbuffers::EnumDef"* %1, i64 0, i32 0, i32 0
  call fastcc void @_ZN11flatbuffers6kotlinL3EscERKNSt3__112basic_stringIcNS1_11char_traitsIcEENS1_9allocatorIcEEEE(%"class.std::__1::basic_string"* nonnull sret %8, %"class.std::__1::basic_string"* dereferenceable(24) %40)
  %41 = call dereferenceable(24) %"class.std::__1::basic_string"* @_ZNSt3__112basic_stringIcNS_11char_traitsIcEENS_9allocatorIcEEE6insertEmPKc(%"class.std::__1::basic_string"* nonnull %8, i64 0, i8* getelementptr inbounds ([7 x i8], [7 x i8]* @.str.13, i64 0, i64 0)) #14, !noalias !3
  %42 = bitcast %"class.std::__1::basic_string"* %41 to i8*
  call void @llvm.memcpy.p0i8.p0i8.i64(i8* nonnull align 8 %38, i8* align 8 %42, i64 24, i1 false) #14
  call void @llvm.memset.p0i8.i64(i8* align 8 %42, i8 0, i64 24, i1 false) #14, !noalias !3
  %43 = call dereferenceable(24) %"class.std::__1::basic_string"* @_ZNSt3__112basic_stringIcNS_11char_traitsIcEENS_9allocatorIcEEE6appendEPKc(%"class.std::__1::basic_string"* nonnull %7, i8* getelementptr inbounds ([25 x i8], [25 x i8]* @.str.14, i64 0, i64 0)) #14, !noalias !6
  %44 = bitcast %"class.std::__1::basic_string"* %6 to i8*
  %45 = bitcast %"class.std::__1::basic_string"* %43 to i8*
  call void @llvm.memcpy.p0i8.p0i8.i64(i8* nonnull align 8 %44, i8* align 8 %45, i64 24, i1 false) #14
  call void @llvm.memset.p0i8.i64(i8* align 8 %45, i8 0, i64 24, i1 false) #14, !noalias !6
  call void @_ZN11flatbuffers10CodeWriterpLENSt3__112basic_stringIcNS1_11char_traitsIcEENS1_9allocatorIcEEEE(%"class.flatbuffers::CodeWriter"* %2, %"class.std::__1::basic_string"* nonnull %6) #14
  %46 = bitcast %"class.std::__1::basic_string"* %6 to %"struct.std::__1::basic_string<char, std::__1::char_traits<char>, std::__1::allocator<char> >::__short"*
  %47 = getelementptr inbounds %"struct.std::__1::basic_string<char, std::__1::char_traits<char>, std::__1::allocator<char> >::__short", %"struct.std::__1::basic_string<char, std::__1::char_traits<char>, std::__1::allocator<char> >::__short"* %46, i64 0, i32 1, i32 0
  %48 = load i8, i8* %47, align 1
  %49 = icmp slt i8 %48, 0
  br i1 %49, label %50, label %53

50:                                               ; preds = %37
  %51 = getelementptr inbounds %"class.std::__1::basic_string", %"class.std::__1::basic_string"* %6, i64 0, i32 0, i32 0, i32 0, i32 0, i32 0, i32 0
  %52 = load i8*, i8** %51, align 8
  call void @_ZdlPv(i8* %52) #13
  br label %53

53:                                               ; preds = %37, %50
  %54 = bitcast %"class.std::__1::basic_string"* %7 to %"struct.std::__1::basic_string<char, std::__1::char_traits<char>, std::__1::allocator<char> >::__short"*
  %55 = getelementptr inbounds %"struct.std::__1::basic_string<char, std::__1::char_traits<char>, std::__1::allocator<char> >::__short", %"struct.std::__1::basic_string<char, std::__1::char_traits<char>, std::__1::allocator<char> >::__short"* %54, i64 0, i32 1, i32 0
  %56 = load i8, i8* %55, align 1
  %57 = icmp slt i8 %56, 0
  br i1 %57, label %58, label %61

58:                                               ; preds = %53
  %59 = getelementptr inbounds %"class.std::__1::basic_string", %"class.std::__1::basic_string"* %7, i64 0, i32 0, i32 0, i32 0, i32 0, i32 0, i32 0
  %60 = load i8*, i8** %59, align 8
  call void @_ZdlPv(i8* %60) #13
  br label %61

61:                                               ; preds = %53, %58
  %62 = bitcast %"class.std::__1::basic_string"* %8 to %"struct.std::__1::basic_string<char, std::__1::char_traits<char>, std::__1::allocator<char> >::__short"*
  %63 = getelementptr inbounds %"struct.std::__1::basic_string<char, std::__1::char_traits<char>, std::__1::allocator<char> >::__short", %"struct.std::__1::basic_string<char, std::__1::char_traits<char>, std::__1::allocator<char> >::__short"* %62, i64 0, i32 1, i32 0
  %64 = load i8, i8* %63, align 1
  %65 = icmp slt i8 %64, 0
  br i1 %65, label %66, label %69

66:                                               ; preds = %61
  %67 = getelementptr inbounds %"class.std::__1::basic_string", %"class.std::__1::basic_string"* %8, i64 0, i32 0, i32 0, i32 0, i32 0, i32 0, i32 0
  %68 = load i8*, i8** %67, align 8
  call void @_ZdlPv(i8* %68) #13
  br label %69

69:                                               ; preds = %61, %66
  call void @llvm.lifetime.end.p0i8(i64 24, i8* nonnull %39) #14
  call void @llvm.lifetime.end.p0i8(i64 24, i8* nonnull %38) #14
  %70 = getelementptr inbounds %"class.flatbuffers::CodeWriter", %"class.flatbuffers::CodeWriter"* %2, i64 0, i32 3
  %71 = load i32, i32* %70, align 8
  %72 = add nsw i32 %71, 1
  store i32 %72, i32* %70, align 8
  %73 = bitcast %"class.std::__1::function"* %9 to i8*
  call void @llvm.lifetime.start.p0i8(i64 32, i8* nonnull %73) #14
  %74 = getelementptr inbounds %"class.std::__1::function", %"class.std::__1::function"* %9, i64 0, i32 0, i32 1, i32 0
  %75 = getelementptr inbounds %"class.std::__1::function", %"class.std::__1::function"* %9, i64 0, i32 0, i32 2
  store void (%"union.std::__1::__function::__policy_storage"*)* @_ZNSt3__110__function16__policy_invokerIFvvEE11__call_implINS0_20__default_alloc_funcIZNK11flatbuffers6kotlin15KotlinGenerator7GenEnumERNS6_7EnumDefERNS6_10CodeWriterEEUlvE_S2_EEEEvPKNS0_16__policy_storageE, void (%"union.std::__1::__function::__policy_storage"*)** %74, align 8
  store %"struct.std::__1::__function::__policy"* @_ZZNSt3__110__function8__policy15__choose_policyINS0_20__default_alloc_funcIZNK11flatbuffers6kotlin15KotlinGenerator7GenEnumERNS4_7EnumDefERNS4_10CodeWriterEEUlvE_FvvEEEEEPKS1_NS_17integral_constantIbLb0EEEE9__policy_, %"struct.std::__1::__function::__policy"** %75, align 8
  %76 = call i8* @_Znwm(i64 24) #13, !noalias !9
  %77 = bitcast i8* %76 to %"struct.flatbuffers::EnumDef"**
  store %"struct.flatbuffers::EnumDef"* %1, %"struct.flatbuffers::EnumDef"** %77, align 8
  %78 = getelementptr inbounds i8, i8* %76, i64 8
  %79 = bitcast i8* %78 to %"class.flatbuffers::CodeWriter"**
  store %"class.flatbuffers::CodeWriter"* %2, %"class.flatbuffers::CodeWriter"** %79, align 8
  %80 = getelementptr inbounds i8, i8* %76, i64 16
  %81 = bitcast i8* %80 to %"class.flatbuffers::kotlin::KotlinGenerator"**
  store %"class.flatbuffers::kotlin::KotlinGenerator"* %0, %"class.flatbuffers::kotlin::KotlinGenerator"** %81, align 8
  %82 = getelementptr inbounds %"class.std::__1::function", %"class.std::__1::function"* %9, i64 0, i32 0, i32 0, i32 0
  store i8* %76, i8** %82, align 8
  call void @_ZNK11flatbuffers6kotlin15KotlinGenerator23GenerateCompanionObjectERNS_10CodeWriterERKNSt3__18functionIFvvEEE(%"class.flatbuffers::kotlin::KotlinGenerator"* %0, %"class.flatbuffers::CodeWriter"* dereferenceable(336) %2, %"class.std::__1::function"* nonnull dereferenceable(32) %9)
  %83 = load %"struct.std::__1::__function::__policy"*, %"struct.std::__1::__function::__policy"** %75, align 8
  %84 = getelementptr inbounds %"struct.std::__1::__function::__policy", %"struct.std::__1::__function::__policy"* %83, i64 0, i32 1
  %85 = load void (i8*)*, void (i8*)** %84, align 8
  %86 = icmp eq void (i8*)* %85, null
  br i1 %86, label %89, label %87

87:                                               ; preds = %69
  %88 = load i8*, i8** %82, align 8
  call void %85(i8* %88) #14
  br label %89

89:                                               ; preds = %69, %87
  call void @llvm.lifetime.end.p0i8(i64 32, i8* nonnull %73) #14
  %90 = load i32, i32* %70, align 8
  %91 = icmp eq i32 %90, 0
  br i1 %91, label %94, label %92

92:                                               ; preds = %89
  %93 = add nsw i32 %90, -1
  store i32 %93, i32* %70, align 8
  br label %94

94:                                               ; preds = %89, %92
  %95 = bitcast %"class.std::__1::basic_string"* %10 to %"struct.std::__1::basic_string<char, std::__1::char_traits<char>, std::__1::allocator<char> >::__short"*
  %96 = getelementptr inbounds %"struct.std::__1::basic_string<char, std::__1::char_traits<char>, std::__1::allocator<char> >::__short", %"struct.std::__1::basic_string<char, std::__1::char_traits<char>, std::__1::allocator<char> >::__short"* %95, i64 0, i32 1, i32 0
  store i8 1, i8* %96, align 1
  %97 = bitcast %"class.std::__1::basic_string"* %10 to i8*
  store i8 125, i8* %97, align 8
  %98 = getelementptr inbounds i8, i8* %97, i64 1
  store i8 0, i8* %98, align 1
  call void @_ZN11flatbuffers10CodeWriterpLENSt3__112basic_stringIcNS1_11char_traitsIcEENS1_9allocatorIcEEEE(%"class.flatbuffers::CodeWriter"* %2, %"class.std::__1::basic_string"* nonnull %10) #14
  %99 = load i8, i8* %96, align 1
  %100 = icmp slt i8 %99, 0
  br i1 %100, label %101, label %104

101:                                              ; preds = %94
  %102 = getelementptr inbounds %"class.std::__1::basic_string", %"class.std::__1::basic_string"* %10, i64 0, i32 0, i32 0, i32 0, i32 0, i32 0, i32 0
  %103 = load i8*, i8** %102, align 8
  call void @_ZdlPv(i8* %103) #13
  br label %104

104:                                              ; preds = %101, %94, %3
  ret void
}

; Function Attrs: nounwind ssp uwtable
define linkonce_odr hidden zeroext i1 @_ZNK11flatbuffers6kotlin15KotlinGenerator8SaveTypeERKNSt3__112basic_stringIcNS2_11char_traitsIcEENS2_9allocatorIcEEEERKNS_9NamespaceESA_b(%"class.flatbuffers::kotlin::KotlinGenerator"*, %"class.std::__1::basic_string"* dereferenceable(24), %"struct.flatbuffers::Namespace"* dereferenceable(32), %"class.std::__1::basic_string"* dereferenceable(24), i1 zeroext) local_unnamed_addr #3 comdat align 2 {
  %6 = alloca %"class.std::__1::basic_string", align 8
  %7 = alloca %"class.std::__1::basic_string", align 8
  %8 = alloca %"class.std::__1::basic_string", align 8
  %9 = alloca %"class.std::__1::basic_string", align 8
  %10 = alloca %"class.std::__1::basic_string", align 8
  %11 = alloca %"class.std::__1::basic_string", align 8
  %12 = alloca %"class.std::__1::basic_string", align 8
  %13 = alloca %"class.std::__1::basic_string", align 8
  %14 = bitcast %"class.std::__1::basic_string"* %3 to %"struct.std::__1::basic_string<char, std::__1::char_traits<char>, std::__1::allocator<char> >::__short"*
  %15 = getelementptr inbounds %"struct.std::__1::basic_string<char, std::__1::char_traits<char>, std::__1::allocator<char> >::__short", %"struct.std::__1::basic_string<char, std::__1::char_traits<char>, std::__1::allocator<char> >::__short"* %14, i64 0, i32 1, i32 0
  %16 = load i8, i8* %15, align 1
  %17 = icmp slt i8 %16, 0
  %18 = getelementptr inbounds %"class.std::__1::basic_string", %"class.std::__1::basic_string"* %3, i64 0, i32 0, i32 0, i32 0, i32 0, i32 0, i32 1
  %19 = load i64, i64* %18, align 8
  %20 = zext i8 %16 to i64
  %21 = select i1 %17, i64 %19, i64 %20
  %22 = icmp eq i64 %21, 0
  br i1 %22, label %192, label %23

23:                                               ; preds = %5
  %24 = bitcast %"class.std::__1::basic_string"* %6 to i8*
  call void @llvm.lifetime.start.p0i8(i64 24, i8* nonnull %24) #14
  %25 = getelementptr inbounds %"class.std::__1::basic_string", %"class.std::__1::basic_string"* %6, i64 0, i32 0, i32 0, i32 0, i32 0, i32 0, i32 0
  %26 = getelementptr inbounds %"class.std::__1::basic_string", %"class.std::__1::basic_string"* %6, i64 0, i32 0, i32 0, i32 0, i32 0, i32 0, i32 1
  %27 = bitcast %"class.std::__1::basic_string"* %7 to i8*
  %28 = bitcast %"class.std::__1::basic_string"* %6 to i8*
  call void @llvm.memset.p0i8.i64(i8* nonnull align 8 %28, i8 -86, i64 24, i1 false)
  call void @llvm.lifetime.start.p0i8(i64 24, i8* nonnull %27) #14
  %29 = bitcast %"class.std::__1::basic_string"* %8 to i8*
  call void @llvm.lifetime.start.p0i8(i64 24, i8* nonnull %29) #14
  %30 = tail call i8* @_ZN11flatbuffers13BaseGenerator27FlatBuffersGeneratedWarningEv() #14
  %31 = tail call i64 @strlen(i8* %30) #14
  %32 = icmp ugt i64 %31, -17
  br i1 %32, label %33, label %35

33:                                               ; preds = %23
  %34 = bitcast %"class.std::__1::basic_string"* %8 to %"class.std::__1::__basic_string_common"*
  call void @_ZNKSt3__121__basic_string_commonILb1EE20__throw_length_errorEv(%"class.std::__1::__basic_string_common"* nonnull %34) #15
  unreachable

35:                                               ; preds = %23
  %36 = icmp ult i64 %31, 23
  br i1 %36, label %45, label %37

37:                                               ; preds = %35
  %38 = add nuw i64 %31, 16
  %39 = and i64 %38, -16
  %40 = tail call i8* @_Znwm(i64 %39) #13
  %41 = getelementptr inbounds %"class.std::__1::basic_string", %"class.std::__1::basic_string"* %8, i64 0, i32 0, i32 0, i32 0, i32 0, i32 0, i32 0
  store i8* %40, i8** %41, align 8
  %42 = or i64 %39, -9223372036854775808
  %43 = getelementptr inbounds %"class.std::__1::basic_string", %"class.std::__1::basic_string"* %8, i64 0, i32 0, i32 0, i32 0, i32 0, i32 0, i32 2
  store i64 %42, i64* %43, align 8
  %44 = getelementptr inbounds %"class.std::__1::basic_string", %"class.std::__1::basic_string"* %8, i64 0, i32 0, i32 0, i32 0, i32 0, i32 0, i32 1
  store i64 %31, i64* %44, align 8
  br label %50

45:                                               ; preds = %35
  %46 = trunc i64 %31 to i8
  %47 = bitcast %"class.std::__1::basic_string"* %8 to %"struct.std::__1::basic_string<char, std::__1::char_traits<char>, std::__1::allocator<char> >::__short"*
  %48 = getelementptr inbounds %"struct.std::__1::basic_string<char, std::__1::char_traits<char>, std::__1::allocator<char> >::__short", %"struct.std::__1::basic_string<char, std::__1::char_traits<char>, std::__1::allocator<char> >::__short"* %47, i64 0, i32 1, i32 0
  store i8 %46, i8* %48, align 1
  %49 = icmp eq i64 %31, 0
  br i1 %49, label %52, label %50

50:                                               ; preds = %45, %37
  %51 = phi i8* [ %40, %37 ], [ %29, %45 ]
  call void @llvm.memcpy.p0i8.p0i8.i64(i8* nonnull align 1 %51, i8* align 1 %30, i64 %31, i1 false) #14
  br label %52

52:                                               ; preds = %45, %50
  %53 = phi i8* [ %29, %45 ], [ %51, %50 ]
  %54 = getelementptr inbounds i8, i8* %53, i64 %31
  store i8 0, i8* %54, align 1
  %55 = call dereferenceable(24) %"class.std::__1::basic_string"* @_ZNSt3__112basic_stringIcNS_11char_traitsIcEENS_9allocatorIcEEE6insertEmPKc(%"class.std::__1::basic_string"* nonnull %8, i64 0, i8* getelementptr inbounds ([4 x i8], [4 x i8]* @.str.91, i64 0, i64 0)) #14, !noalias !14
  %56 = bitcast %"class.std::__1::basic_string"* %55 to i8*
  call void @llvm.memcpy.p0i8.p0i8.i64(i8* nonnull align 8 %27, i8* align 8 %56, i64 24, i1 false) #14
  call void @llvm.memset.p0i8.i64(i8* align 8 %56, i8 0, i64 24, i1 false) #14, !noalias !14
  %57 = call dereferenceable(24) %"class.std::__1::basic_string"* @_ZNSt3__112basic_stringIcNS_11char_traitsIcEENS_9allocatorIcEEE6appendEPKc(%"class.std::__1::basic_string"* nonnull %7, i8* getelementptr inbounds ([3 x i8], [3 x i8]* @.str.92, i64 0, i64 0)) #14, !noalias !17
  %58 = bitcast %"class.std::__1::basic_string"* %57 to i8*
  call void @llvm.memcpy.p0i8.p0i8.i64(i8* nonnull align 8 %24, i8* align 8 %58, i64 24, i1 false) #14
  call void @llvm.memset.p0i8.i64(i8* align 8 %58, i8 0, i64 24, i1 false) #14, !noalias !17
  %59 = bitcast %"class.std::__1::basic_string"* %7 to %"struct.std::__1::basic_string<char, std::__1::char_traits<char>, std::__1::allocator<char> >::__short"*
  %60 = getelementptr inbounds %"struct.std::__1::basic_string<char, std::__1::char_traits<char>, std::__1::allocator<char> >::__short", %"struct.std::__1::basic_string<char, std::__1::char_traits<char>, std::__1::allocator<char> >::__short"* %59, i64 0, i32 1, i32 0
  %61 = load i8, i8* %60, align 1
  %62 = icmp slt i8 %61, 0
  br i1 %62, label %63, label %66

63:                                               ; preds = %52
  %64 = getelementptr inbounds %"class.std::__1::basic_string", %"class.std::__1::basic_string"* %7, i64 0, i32 0, i32 0, i32 0, i32 0, i32 0, i32 0
  %65 = load i8*, i8** %64, align 8
  call void @_ZdlPv(i8* %65) #13
  br label %66

66:                                               ; preds = %52, %63
  %67 = bitcast %"class.std::__1::basic_string"* %8 to %"struct.std::__1::basic_string<char, std::__1::char_traits<char>, std::__1::allocator<char> >::__short"*
  %68 = getelementptr inbounds %"struct.std::__1::basic_string<char, std::__1::char_traits<char>, std::__1::allocator<char> >::__short", %"struct.std::__1::basic_string<char, std::__1::char_traits<char>, std::__1::allocator<char> >::__short"* %67, i64 0, i32 1, i32 0
  %69 = load i8, i8* %68, align 1
  %70 = icmp slt i8 %69, 0
  br i1 %70, label %71, label %74

71:                                               ; preds = %66
  %72 = getelementptr inbounds %"class.std::__1::basic_string", %"class.std::__1::basic_string"* %8, i64 0, i32 0, i32 0, i32 0, i32 0, i32 0, i32 0
  %73 = load i8*, i8** %72, align 8
  call void @_ZdlPv(i8* %73) #13
  br label %74

74:                                               ; preds = %66, %71
  call void @llvm.lifetime.end.p0i8(i64 24, i8* nonnull %29) #14
  call void @llvm.lifetime.end.p0i8(i64 24, i8* nonnull %27) #14
  %75 = bitcast %"class.std::__1::basic_string"* %9 to i8*
  call void @llvm.lifetime.start.p0i8(i64 24, i8* nonnull %75) #14
  %76 = getelementptr inbounds %"class.std::__1::basic_string", %"class.std::__1::basic_string"* %9, i64 0, i32 0, i32 0, i32 0, i32 0, i32 0, i32 0
  %77 = getelementptr inbounds %"class.std::__1::basic_string", %"class.std::__1::basic_string"* %9, i64 0, i32 0, i32 0, i32 0, i32 0, i32 0, i32 1
  %78 = bitcast %"class.std::__1::basic_string"* %9 to i8*
  call void @llvm.memset.p0i8.i64(i8* nonnull align 8 %78, i8 -86, i64 24, i1 false)
  call void @_ZN11flatbuffers13BaseGenerator13FullNamespaceEPKcRKNS_9NamespaceE(%"class.std::__1::basic_string"* nonnull sret %9, i8* getelementptr inbounds ([2 x i8], [2 x i8]* @.str.9, i64 0, i64 0), %"struct.flatbuffers::Namespace"* dereferenceable(32) %2) #14
  %79 = bitcast %"class.std::__1::basic_string"* %9 to %"struct.std::__1::basic_string<char, std::__1::char_traits<char>, std::__1::allocator<char> >::__short"*
  %80 = getelementptr inbounds %"struct.std::__1::basic_string<char, std::__1::char_traits<char>, std::__1::allocator<char> >::__short", %"struct.std::__1::basic_string<char, std::__1::char_traits<char>, std::__1::allocator<char> >::__short"* %79, i64 0, i32 1, i32 0
  %81 = load i8, i8* %80, align 1
  %82 = icmp slt i8 %81, 0
  %83 = load i64, i64* %77, align 8
  %84 = zext i8 %81 to i64
  %85 = select i1 %82, i64 %83, i64 %84
  %86 = icmp eq i64 %85, 0
  br i1 %86, label %107, label %87

87:                                               ; preds = %74
  %88 = bitcast %"class.std::__1::basic_string"* %10 to i8*
  call void @llvm.lifetime.start.p0i8(i64 24, i8* nonnull %88) #14
  call void @_ZNSt3__1plIcNS_11char_traitsIcEENS_9allocatorIcEEEENS_12basic_stringIT_T0_T1_EEPKS6_RKS9_(%"class.std::__1::basic_string"* nonnull sret %10, i8* getelementptr inbounds ([9 x i8], [9 x i8]* @.str.93, i64 0, i64 0), %"class.std::__1::basic_string"* nonnull dereferenceable(24) %9) #14
  %89 = bitcast %"class.std::__1::basic_string"* %10 to %"struct.std::__1::basic_string<char, std::__1::char_traits<char>, std::__1::allocator<char> >::__short"*
  %90 = getelementptr inbounds %"struct.std::__1::basic_string<char, std::__1::char_traits<char>, std::__1::allocator<char> >::__short", %"struct.std::__1::basic_string<char, std::__1::char_traits<char>, std::__1::allocator<char> >::__short"* %89, i64 0, i32 1, i32 0
  %91 = load i8, i8* %90, align 1
  %92 = icmp slt i8 %91, 0
  %93 = getelementptr inbounds %"class.std::__1::basic_string", %"class.std::__1::basic_string"* %10, i64 0, i32 0, i32 0, i32 0, i32 0, i32 0, i32 0
  %94 = load i8*, i8** %93, align 8
  %95 = getelementptr inbounds %"class.std::__1::basic_string", %"class.std::__1::basic_string"* %10, i64 0, i32 0, i32 0, i32 0, i32 0, i32 0, i32 1
  %96 = load i64, i64* %95, align 8
  %97 = zext i8 %91 to i64
  %98 = select i1 %92, i8* %94, i8* %88
  %99 = select i1 %92, i64 %96, i64 %97
  %100 = call dereferenceable(24) %"class.std::__1::basic_string"* @_ZNSt3__112basic_stringIcNS_11char_traitsIcEENS_9allocatorIcEEE6appendEPKcm(%"class.std::__1::basic_string"* nonnull %6, i8* %98, i64 %99) #14
  %101 = load i8, i8* %90, align 1
  %102 = icmp slt i8 %101, 0
  br i1 %102, label %103, label %105

103:                                              ; preds = %87
  %104 = load i8*, i8** %93, align 8
  call void @_ZdlPv(i8* %104) #13
  br label %105

105:                                              ; preds = %87, %103
  call void @llvm.lifetime.end.p0i8(i64 24, i8* nonnull %88) #14
  %106 = call dereferenceable(24) %"class.std::__1::basic_string"* @_ZNSt3__112basic_stringIcNS_11char_traitsIcEENS_9allocatorIcEEE6appendEPKc(%"class.std::__1::basic_string"* nonnull %6, i8* getelementptr inbounds ([3 x i8], [3 x i8]* @.str.92, i64 0, i64 0)) #14
  br label %107

107:                                              ; preds = %105, %74
  br i1 %4, label %108, label %112

108:                                              ; preds = %107
  %109 = call dereferenceable(24) %"class.std::__1::basic_string"* @_ZNSt3__112basic_stringIcNS_11char_traitsIcEENS_9allocatorIcEEE6appendEPKc(%"class.std::__1::basic_string"* nonnull %6, i8* getelementptr inbounds ([19 x i8], [19 x i8]* @.str.94, i64 0, i64 0)) #14
  %110 = call dereferenceable(24) %"class.std::__1::basic_string"* @_ZNSt3__112basic_stringIcNS_11char_traitsIcEENS_9allocatorIcEEE6appendEPKc(%"class.std::__1::basic_string"* nonnull %6, i8* getelementptr inbounds ([25 x i8], [25 x i8]* @.str.95, i64 0, i64 0)) #14
  %111 = call dereferenceable(24) %"class.std::__1::basic_string"* @_ZNSt3__112basic_stringIcNS_11char_traitsIcEENS_9allocatorIcEEE6appendEPKc(%"class.std::__1::basic_string"* nonnull %6, i8* getelementptr inbounds ([34 x i8], [34 x i8]* @.str.96, i64 0, i64 0)) #14
  br label %112

112:                                              ; preds = %108, %107
  %113 = load i8, i8* %15, align 1
  %114 = icmp slt i8 %113, 0
  %115 = getelementptr inbounds %"class.std::__1::basic_string", %"class.std::__1::basic_string"* %3, i64 0, i32 0, i32 0, i32 0, i32 0, i32 0, i32 0
  %116 = load i8*, i8** %115, align 8
  %117 = load i64, i64* %18, align 8
  %118 = bitcast %"class.std::__1::basic_string"* %3 to i8*
  %119 = zext i8 %113 to i64
  %120 = select i1 %114, i8* %116, i8* %118
  %121 = select i1 %114, i64 %117, i64 %119
  %122 = call dereferenceable(24) %"class.std::__1::basic_string"* @_ZNSt3__112basic_stringIcNS_11char_traitsIcEENS_9allocatorIcEEE6appendEPKcm(%"class.std::__1::basic_string"* nonnull %6, i8* %120, i64 %121) #14
  %123 = bitcast %"class.std::__1::basic_string"* %11 to i8*
  call void @llvm.lifetime.start.p0i8(i64 24, i8* nonnull %123) #14
  %124 = getelementptr inbounds %"class.std::__1::basic_string", %"class.std::__1::basic_string"* %11, i64 0, i32 0, i32 0, i32 0, i32 0, i32 0, i32 0
  %125 = bitcast %"class.std::__1::basic_string"* %12 to i8*
  %126 = bitcast %"class.std::__1::basic_string"* %11 to i8*
  call void @llvm.memset.p0i8.i64(i8* nonnull align 8 %126, i8 -86, i64 24, i1 false)
  call void @llvm.lifetime.start.p0i8(i64 24, i8* nonnull %125) #14
  %127 = bitcast %"class.std::__1::basic_string"* %13 to i8*
  call void @llvm.lifetime.start.p0i8(i64 24, i8* nonnull %127) #14
  %128 = getelementptr inbounds %"class.flatbuffers::kotlin::KotlinGenerator", %"class.flatbuffers::kotlin::KotlinGenerator"* %0, i64 0, i32 0
  call void @_ZNK11flatbuffers13BaseGenerator12NamespaceDirERKNS_9NamespaceE(%"class.std::__1::basic_string"* nonnull sret %13, %"class.flatbuffers::BaseGenerator"* %128, %"struct.flatbuffers::Namespace"* dereferenceable(32) %2) #14
  %129 = bitcast %"class.std::__1::basic_string"* %1 to %"struct.std::__1::basic_string<char, std::__1::char_traits<char>, std::__1::allocator<char> >::__short"*
  %130 = getelementptr inbounds %"struct.std::__1::basic_string<char, std::__1::char_traits<char>, std::__1::allocator<char> >::__short", %"struct.std::__1::basic_string<char, std::__1::char_traits<char>, std::__1::allocator<char> >::__short"* %129, i64 0, i32 1, i32 0
  %131 = load i8, i8* %130, align 1, !noalias !20
  %132 = icmp slt i8 %131, 0
  %133 = getelementptr inbounds %"class.std::__1::basic_string", %"class.std::__1::basic_string"* %1, i64 0, i32 0, i32 0, i32 0, i32 0, i32 0, i32 0
  %134 = load i8*, i8** %133, align 8, !noalias !20
  %135 = getelementptr inbounds %"class.std::__1::basic_string", %"class.std::__1::basic_string"* %1, i64 0, i32 0, i32 0, i32 0, i32 0, i32 0, i32 1
  %136 = load i64, i64* %135, align 8, !noalias !20
  %137 = bitcast %"class.std::__1::basic_string"* %1 to i8*
  %138 = zext i8 %131 to i64
  %139 = select i1 %132, i8* %134, i8* %137
  %140 = select i1 %132, i64 %136, i64 %138
  %141 = call dereferenceable(24) %"class.std::__1::basic_string"* @_ZNSt3__112basic_stringIcNS_11char_traitsIcEENS_9allocatorIcEEE6appendEPKcm(%"class.std::__1::basic_string"* nonnull %13, i8* %139, i64 %140) #14, !noalias !20
  %142 = bitcast %"class.std::__1::basic_string"* %141 to i8*
  call void @llvm.memcpy.p0i8.p0i8.i64(i8* nonnull align 8 %125, i8* align 8 %142, i64 24, i1 false) #14
  call void @llvm.memset.p0i8.i64(i8* align 8 %142, i8 0, i64 24, i1 false) #14, !noalias !20
  %143 = call dereferenceable(24) %"class.std::__1::basic_string"* @_ZNSt3__112basic_stringIcNS_11char_traitsIcEENS_9allocatorIcEEE6appendEPKc(%"class.std::__1::basic_string"* nonnull %12, i8* getelementptr inbounds ([4 x i8], [4 x i8]* @.str.97, i64 0, i64 0)) #14, !noalias !23
  %144 = bitcast %"class.std::__1::basic_string"* %143 to i8*
  call void @llvm.memcpy.p0i8.p0i8.i64(i8* nonnull align 8 %123, i8* align 8 %144, i64 24, i1 false) #14
  call void @llvm.memset.p0i8.i64(i8* align 8 %144, i8 0, i64 24, i1 false) #14, !noalias !23
  %145 = bitcast %"class.std::__1::basic_string"* %12 to %"struct.std::__1::basic_string<char, std::__1::char_traits<char>, std::__1::allocator<char> >::__short"*
  %146 = getelementptr inbounds %"struct.std::__1::basic_string<char, std::__1::char_traits<char>, std::__1::allocator<char> >::__short", %"struct.std::__1::basic_string<char, std::__1::char_traits<char>, std::__1::allocator<char> >::__short"* %145, i64 0, i32 1, i32 0
  %147 = load i8, i8* %146, align 1
  %148 = icmp slt i8 %147, 0
  br i1 %148, label %149, label %152

149:                                              ; preds = %112
  %150 = getelementptr inbounds %"class.std::__1::basic_string", %"class.std::__1::basic_string"* %12, i64 0, i32 0, i32 0, i32 0, i32 0, i32 0, i32 0
  %151 = load i8*, i8** %150, align 8
  call void @_ZdlPv(i8* %151) #13
  br label %152

152:                                              ; preds = %112, %149
  %153 = bitcast %"class.std::__1::basic_string"* %13 to %"struct.std::__1::basic_string<char, std::__1::char_traits<char>, std::__1::allocator<char> >::__short"*
  %154 = getelementptr inbounds %"struct.std::__1::basic_string<char, std::__1::char_traits<char>, std::__1::allocator<char> >::__short", %"struct.std::__1::basic_string<char, std::__1::char_traits<char>, std::__1::allocator<char> >::__short"* %153, i64 0, i32 1, i32 0
  %155 = load i8, i8* %154, align 1
  %156 = icmp slt i8 %155, 0
  br i1 %156, label %157, label %160

157:                                              ; preds = %152
  %158 = getelementptr inbounds %"class.std::__1::basic_string", %"class.std::__1::basic_string"* %13, i64 0, i32 0, i32 0, i32 0, i32 0, i32 0, i32 0
  %159 = load i8*, i8** %158, align 8
  call void @_ZdlPv(i8* %159) #13
  br label %160

160:                                              ; preds = %152, %157
  call void @llvm.lifetime.end.p0i8(i64 24, i8* nonnull %127) #14
  call void @llvm.lifetime.end.p0i8(i64 24, i8* nonnull %125) #14
  %161 = bitcast %"class.std::__1::basic_string"* %11 to %"struct.std::__1::basic_string<char, std::__1::char_traits<char>, std::__1::allocator<char> >::__short"*
  %162 = getelementptr inbounds %"struct.std::__1::basic_string<char, std::__1::char_traits<char>, std::__1::allocator<char> >::__short", %"struct.std::__1::basic_string<char, std::__1::char_traits<char>, std::__1::allocator<char> >::__short"* %161, i64 0, i32 1, i32 0
  %163 = load i8, i8* %162, align 1
  %164 = icmp slt i8 %163, 0
  %165 = load i8*, i8** %124, align 8
  %166 = select i1 %164, i8* %165, i8* %123
  %167 = bitcast %"class.std::__1::basic_string"* %6 to %"struct.std::__1::basic_string<char, std::__1::char_traits<char>, std::__1::allocator<char> >::__short"*
  %168 = getelementptr inbounds %"struct.std::__1::basic_string<char, std::__1::char_traits<char>, std::__1::allocator<char> >::__short", %"struct.std::__1::basic_string<char, std::__1::char_traits<char>, std::__1::allocator<char> >::__short"* %167, i64 0, i32 1, i32 0
  %169 = load i8, i8* %168, align 1
  %170 = icmp slt i8 %169, 0
  %171 = load i8*, i8** %25, align 8
  %172 = load i64, i64* %26, align 8
  %173 = zext i8 %169 to i64
  %174 = select i1 %170, i8* %171, i8* %24
  %175 = select i1 %170, i64 %172, i64 %173
  %176 = call zeroext i1 @_ZN11flatbuffers8SaveFileEPKcS1_mb(i8* %166, i8* %174, i64 %175, i1 zeroext false) #14
  %177 = load i8, i8* %162, align 1
  %178 = icmp slt i8 %177, 0
  br i1 %178, label %179, label %181

179:                                              ; preds = %160
  %180 = load i8*, i8** %124, align 8
  call void @_ZdlPv(i8* %180) #13
  br label %181

181:                                              ; preds = %160, %179
  call void @llvm.lifetime.end.p0i8(i64 24, i8* nonnull %123) #14
  %182 = load i8, i8* %80, align 1
  %183 = icmp slt i8 %182, 0
  br i1 %183, label %184, label %186

184:                                              ; preds = %181
  %185 = load i8*, i8** %76, align 8
  call void @_ZdlPv(i8* %185) #13
  br label %186

186:                                              ; preds = %181, %184
  call void @llvm.lifetime.end.p0i8(i64 24, i8* nonnull %75) #14
  %187 = load i8, i8* %168, align 1
  %188 = icmp slt i8 %187, 0
  br i1 %188, label %189, label %191

189:                                              ; preds = %186
  %190 = load i8*, i8** %25, align 8
  call void @_ZdlPv(i8* %190) #13
  br label %191

191:                                              ; preds = %186, %189
  call void @llvm.lifetime.end.p0i8(i64 24, i8* nonnull %24) #14
  br label %192

192:                                              ; preds = %5, %191
  %193 = phi i1 [ %176, %191 ], [ true, %5 ]
  ret i1 %193
}

; Function Attrs: nounwind ssp uwtable
define linkonce_odr hidden void @_ZNK11flatbuffers6kotlin15KotlinGenerator9GenStructERNS_9StructDefERNS_10CodeWriterE(%"class.flatbuffers::kotlin::KotlinGenerator"*, %"struct.flatbuffers::StructDef"* dereferenceable(232), %"class.flatbuffers::CodeWriter"* dereferenceable(336)) local_unnamed_addr #3 comdat align 2 {
  %4 = alloca %"class.std::__1::tuple", align 8
  %5 = alloca %"class.std::__1::tuple.231", align 1
  %6 = alloca %"class.std::__1::tuple", align 8
  %7 = alloca %"class.std::__1::tuple.231", align 1
  %8 = alloca %"class.std::__1::basic_string", align 8
  %9 = alloca %"class.std::__1::basic_string", align 8
  %10 = alloca %"class.std::__1::basic_string", align 8
  %11 = alloca %"class.std::__1::basic_string", align 8
  %12 = alloca %"class.std::__1::basic_string", align 8
  %13 = alloca %"class.std::__1::basic_string", align 8
  %14 = alloca %"class.std::__1::basic_string", align 8
  %15 = alloca %"class.std::__1::basic_string", align 8
  %16 = alloca %"class.std::__1::basic_string", align 8
  %17 = alloca %"class.std::__1::basic_string", align 8
  %18 = alloca %"class.std::__1::function", align 8
  %19 = alloca %"class.std::__1::basic_string", align 8
  %20 = alloca %"class.std::__1::basic_string", align 8
  %21 = alloca %"class.std::__1::basic_string", align 8
  %22 = alloca %"class.std::__1::function", align 8
  %23 = alloca %"class.std::__1::function", align 8
  %24 = alloca %"class.std::__1::basic_string", align 8
  %25 = getelementptr inbounds %"struct.flatbuffers::StructDef", %"struct.flatbuffers::StructDef"* %1, i64 0, i32 0, i32 4
  %26 = load i8, i8* %25, align 8, !range !2
  %27 = icmp eq i8 %26, 0
  br i1 %27, label %28, label %308

28:                                               ; preds = %3
  %29 = getelementptr inbounds %"struct.flatbuffers::StructDef", %"struct.flatbuffers::StructDef"* %1, i64 0, i32 0, i32 2
  tail call void @_ZNK11flatbuffers6kotlin15KotlinGenerator15GenerateCommentERKNSt3__16vectorINS2_12basic_stringIcNS2_11char_traitsIcEENS2_9allocatorIcEEEENS7_IS9_EEEERNS_10CodeWriterEPKNS_13CommentConfigE(%"class.flatbuffers::kotlin::KotlinGenerator"* %0, %"class.std::__1::vector"* dereferenceable(24) %29, %"class.flatbuffers::CodeWriter"* dereferenceable(336) %2, %"struct.flatbuffers::CommentConfig"* nonnull @_ZN11flatbuffers6kotlinL14comment_configE)
  %30 = getelementptr inbounds %"struct.flatbuffers::StructDef", %"struct.flatbuffers::StructDef"* %1, i64 0, i32 2
  %31 = load i8, i8* %30, align 8, !range !2
  %32 = icmp eq i8 %31, 0
  %33 = bitcast %"class.std::__1::basic_string"* %8 to i8*
  call void @llvm.lifetime.start.p0i8(i64 24, i8* nonnull %33) #14
  %34 = bitcast %"class.std::__1::basic_string"* %8 to %"struct.std::__1::basic_string<char, std::__1::char_traits<char>, std::__1::allocator<char> >::__short"*
  %35 = getelementptr inbounds %"struct.std::__1::basic_string<char, std::__1::char_traits<char>, std::__1::allocator<char> >::__short", %"struct.std::__1::basic_string<char, std::__1::char_traits<char>, std::__1::allocator<char> >::__short"* %34, i64 0, i32 1, i32 0
  store i8 11, i8* %35, align 1
  call void @llvm.memcpy.p0i8.p0i8.i64(i8* nonnull align 8 %33, i8* align 1 getelementptr inbounds ([12 x i8], [12 x i8]* @.str.98, i64 0, i64 0), i64 11, i1 false) #14
  %36 = getelementptr inbounds i8, i8* %33, i64 11
  store i8 0, i8* %36, align 1
  %37 = bitcast %"class.std::__1::basic_string"* %9 to i8*
  call void @llvm.lifetime.start.p0i8(i64 24, i8* nonnull %37) #14
  %38 = getelementptr inbounds %"struct.flatbuffers::StructDef", %"struct.flatbuffers::StructDef"* %1, i64 0, i32 0, i32 0
  call fastcc void @_ZN11flatbuffers6kotlinL3EscERKNSt3__112basic_stringIcNS1_11char_traitsIcEENS1_9allocatorIcEEEE(%"class.std::__1::basic_string"* nonnull sret %9, %"class.std::__1::basic_string"* dereferenceable(24) %38)
  %39 = getelementptr inbounds %"class.flatbuffers::CodeWriter", %"class.flatbuffers::CodeWriter"* %2, i64 0, i32 0, i32 0
  %40 = bitcast %"class.std::__1::tuple"* %6 to i8*
  call void @llvm.lifetime.start.p0i8(i64 8, i8* nonnull %40) #14
  %41 = getelementptr inbounds %"class.std::__1::tuple", %"class.std::__1::tuple"* %6, i64 0, i32 0, i32 0, i32 0
  store %"class.std::__1::basic_string"* %8, %"class.std::__1::basic_string"** %41, align 8
  %42 = getelementptr inbounds %"class.std::__1::tuple.231", %"class.std::__1::tuple.231"* %7, i64 0, i32 0
  call void @llvm.lifetime.start.p0i8(i64 1, i8* nonnull %42) #14
  %43 = call { %"class.std::__1::__tree_end_node"*, i8 } @_ZNSt3__16__treeINS_12__value_typeINS_12basic_stringIcNS_11char_traitsIcEENS_9allocatorIcEEEES7_EENS_19__map_value_compareIS7_S8_NS_4lessIS7_EELb1EEENS5_IS8_EEE25__emplace_unique_key_argsIS7_JRKNS_21piecewise_construct_tENS_5tupleIJRKS7_EEENSJ_IJEEEEEENS_4pairINS_15__tree_iteratorIS8_PNS_11__tree_nodeIS8_PvEElEEbEERKT_DpOT0_(%"class.std::__1::__tree.171"* %39, %"class.std::__1::basic_string"* nonnull dereferenceable(24) %8, %"struct.std::__1::piecewise_construct_t"* nonnull dereferenceable(1) @_ZNSt3__1L19piecewise_constructE, %"class.std::__1::tuple"* nonnull dereferenceable(8) %6, %"class.std::__1::tuple.231"* nonnull dereferenceable(1) %7) #14
  %44 = extractvalue { %"class.std::__1::__tree_end_node"*, i8 } %43, 0
  %45 = getelementptr inbounds %"class.std::__1::__tree_end_node", %"class.std::__1::__tree_end_node"* %44, i64 7
  %46 = bitcast %"class.std::__1::__tree_end_node"* %45 to %"class.std::__1::basic_string"*
  call void @llvm.lifetime.end.p0i8(i64 1, i8* nonnull %42) #14
  call void @llvm.lifetime.end.p0i8(i64 8, i8* nonnull %40) #14
  %47 = icmp eq %"class.std::__1::basic_string"* %9, %46
  br i1 %47, label %48, label %50

48:                                               ; preds = %28
  %49 = bitcast %"class.std::__1::basic_string"* %9 to %"struct.std::__1::basic_string<char, std::__1::char_traits<char>, std::__1::allocator<char> >::__short"*
  br label %77

50:                                               ; preds = %28
  %51 = bitcast %"class.std::__1::__tree_end_node"* %45 to %"struct.std::__1::basic_string<char, std::__1::char_traits<char>, std::__1::allocator<char> >::__short"*
  %52 = getelementptr inbounds %"struct.std::__1::basic_string<char, std::__1::char_traits<char>, std::__1::allocator<char> >::__short", %"struct.std::__1::basic_string<char, std::__1::char_traits<char>, std::__1::allocator<char> >::__short"* %51, i64 0, i32 1, i32 0
  %53 = load i8, i8* %52, align 1
  %54 = icmp slt i8 %53, 0
  %55 = bitcast %"class.std::__1::basic_string"* %9 to %"struct.std::__1::basic_string<char, std::__1::char_traits<char>, std::__1::allocator<char> >::__short"*
  %56 = getelementptr inbounds %"struct.std::__1::basic_string<char, std::__1::char_traits<char>, std::__1::allocator<char> >::__short", %"struct.std::__1::basic_string<char, std::__1::char_traits<char>, std::__1::allocator<char> >::__short"* %55, i64 0, i32 1, i32 0
  %57 = load i8, i8* %56, align 1
  %58 = icmp slt i8 %57, 0
  br i1 %54, label %68, label %59

59:                                               ; preds = %50
  br i1 %58, label %62, label %60

60:                                               ; preds = %59
  %61 = bitcast %"class.std::__1::__tree_end_node"* %45 to i8*
  call void @llvm.memcpy.p0i8.p0i8.i64(i8* align 8 %61, i8* nonnull align 8 %37, i64 24, i1 false) #14
  br label %77

62:                                               ; preds = %59
  %63 = getelementptr inbounds %"class.std::__1::basic_string", %"class.std::__1::basic_string"* %9, i64 0, i32 0, i32 0, i32 0, i32 0, i32 0, i32 0
  %64 = load i8*, i8** %63, align 8
  %65 = getelementptr inbounds %"class.std::__1::basic_string", %"class.std::__1::basic_string"* %9, i64 0, i32 0, i32 0, i32 0, i32 0, i32 0, i32 1
  %66 = load i64, i64* %65, align 8
  %67 = call dereferenceable(24) %"class.std::__1::basic_string"* @_ZNSt3__112basic_stringIcNS_11char_traitsIcEENS_9allocatorIcEEE17__assign_no_aliasILb1EEERS5_PKcm(%"class.std::__1::basic_string"* %46, i8* %64, i64 %66) #14
  br label %77

68:                                               ; preds = %50
  %69 = getelementptr inbounds %"class.std::__1::basic_string", %"class.std::__1::basic_string"* %9, i64 0, i32 0, i32 0, i32 0, i32 0, i32 0, i32 0
  %70 = load i8*, i8** %69, align 8
  %71 = getelementptr inbounds %"class.std::__1::basic_string", %"class.std::__1::basic_string"* %9, i64 0, i32 0, i32 0, i32 0, i32 0, i32 0, i32 1
  %72 = load i64, i64* %71, align 8
  %73 = zext i8 %57 to i64
  %74 = select i1 %58, i8* %70, i8* %37
  %75 = select i1 %58, i64 %72, i64 %73
  %76 = call dereferenceable(24) %"class.std::__1::basic_string"* @_ZNSt3__112basic_stringIcNS_11char_traitsIcEENS_9allocatorIcEEE17__assign_no_aliasILb0EEERS5_PKcm(%"class.std::__1::basic_string"* %46, i8* %74, i64 %75) #14
  br label %77

77:                                               ; preds = %48, %60, %62, %68
  %78 = phi %"struct.std::__1::basic_string<char, std::__1::char_traits<char>, std::__1::allocator<char> >::__short"* [ %49, %48 ], [ %55, %60 ], [ %55, %62 ], [ %55, %68 ]
  %79 = getelementptr inbounds %"struct.std::__1::basic_string<char, std::__1::char_traits<char>, std::__1::allocator<char> >::__short", %"struct.std::__1::basic_string<char, std::__1::char_traits<char>, std::__1::allocator<char> >::__short"* %78, i64 0, i32 1, i32 0
  %80 = load i8, i8* %79, align 1
  %81 = icmp slt i8 %80, 0
  br i1 %81, label %82, label %85

82:                                               ; preds = %77
  %83 = getelementptr inbounds %"class.std::__1::basic_string", %"class.std::__1::basic_string"* %9, i64 0, i32 0, i32 0, i32 0, i32 0, i32 0, i32 0
  %84 = load i8*, i8** %83, align 8
  call void @_ZdlPv(i8* %84) #13
  br label %85

85:                                               ; preds = %77, %82
  call void @llvm.lifetime.end.p0i8(i64 24, i8* nonnull %37) #14
  %86 = load i8, i8* %35, align 1
  %87 = icmp slt i8 %86, 0
  br i1 %87, label %88, label %91

88:                                               ; preds = %85
  %89 = getelementptr inbounds %"class.std::__1::basic_string", %"class.std::__1::basic_string"* %8, i64 0, i32 0, i32 0, i32 0, i32 0, i32 0, i32 0
  %90 = load i8*, i8** %89, align 8
  call void @_ZdlPv(i8* %90) #13
  br label %91

91:                                               ; preds = %85, %88
  call void @llvm.lifetime.end.p0i8(i64 24, i8* nonnull %33) #14
  %92 = bitcast %"class.std::__1::basic_string"* %10 to i8*
  call void @llvm.lifetime.start.p0i8(i64 24, i8* nonnull %92) #14
  %93 = bitcast %"class.std::__1::basic_string"* %10 to %"struct.std::__1::basic_string<char, std::__1::char_traits<char>, std::__1::allocator<char> >::__short"*
  %94 = getelementptr inbounds %"struct.std::__1::basic_string<char, std::__1::char_traits<char>, std::__1::allocator<char> >::__short", %"struct.std::__1::basic_string<char, std::__1::char_traits<char>, std::__1::allocator<char> >::__short"* %93, i64 0, i32 1, i32 0
  store i8 10, i8* %94, align 1
  call void @llvm.memcpy.p0i8.p0i8.i64(i8* nonnull align 8 %92, i8* align 1 getelementptr inbounds ([11 x i8], [11 x i8]* @.str.99, i64 0, i64 0), i64 10, i1 false) #14
  %95 = getelementptr inbounds i8, i8* %92, i64 10
  store i8 0, i8* %95, align 2
  %96 = bitcast %"class.std::__1::basic_string"* %11 to i8*
  call void @llvm.lifetime.start.p0i8(i64 24, i8* nonnull %96) #14
  %97 = select i1 %32, i8* getelementptr inbounds ([6 x i8], [6 x i8]* @.str.101, i64 0, i64 0), i8* getelementptr inbounds ([7 x i8], [7 x i8]* @.str.100, i64 0, i64 0)
  %98 = select i1 %32, i64 5, i64 6
  %99 = trunc i64 %98 to i8
  %100 = bitcast %"class.std::__1::basic_string"* %11 to %"struct.std::__1::basic_string<char, std::__1::char_traits<char>, std::__1::allocator<char> >::__short"*
  %101 = getelementptr inbounds %"struct.std::__1::basic_string<char, std::__1::char_traits<char>, std::__1::allocator<char> >::__short", %"struct.std::__1::basic_string<char, std::__1::char_traits<char>, std::__1::allocator<char> >::__short"* %100, i64 0, i32 1, i32 0
  store i8 %99, i8* %101, align 1
  call void @llvm.memcpy.p0i8.p0i8.i64(i8* nonnull align 8 %96, i8* align 1 %97, i64 %98, i1 false) #14
  %102 = getelementptr inbounds i8, i8* %96, i64 %98
  store i8 0, i8* %102, align 1
  %103 = bitcast %"class.std::__1::tuple"* %4 to i8*
  call void @llvm.lifetime.start.p0i8(i64 8, i8* nonnull %103) #14
  %104 = getelementptr inbounds %"class.std::__1::tuple", %"class.std::__1::tuple"* %4, i64 0, i32 0, i32 0, i32 0
  store %"class.std::__1::basic_string"* %10, %"class.std::__1::basic_string"** %104, align 8
  %105 = getelementptr inbounds %"class.std::__1::tuple.231", %"class.std::__1::tuple.231"* %5, i64 0, i32 0
  call void @llvm.lifetime.start.p0i8(i64 1, i8* nonnull %105) #14
  %106 = call { %"class.std::__1::__tree_end_node"*, i8 } @_ZNSt3__16__treeINS_12__value_typeINS_12basic_stringIcNS_11char_traitsIcEENS_9allocatorIcEEEES7_EENS_19__map_value_compareIS7_S8_NS_4lessIS7_EELb1EEENS5_IS8_EEE25__emplace_unique_key_argsIS7_JRKNS_21piecewise_construct_tENS_5tupleIJRKS7_EEENSJ_IJEEEEEENS_4pairINS_15__tree_iteratorIS8_PNS_11__tree_nodeIS8_PvEElEEbEERKT_DpOT0_(%"class.std::__1::__tree.171"* %39, %"class.std::__1::basic_string"* nonnull dereferenceable(24) %10, %"struct.std::__1::piecewise_construct_t"* nonnull dereferenceable(1) @_ZNSt3__1L19piecewise_constructE, %"class.std::__1::tuple"* nonnull dereferenceable(8) %4, %"class.std::__1::tuple.231"* nonnull dereferenceable(1) %5) #14
  %107 = extractvalue { %"class.std::__1::__tree_end_node"*, i8 } %106, 0
  %108 = getelementptr inbounds %"class.std::__1::__tree_end_node", %"class.std::__1::__tree_end_node"* %107, i64 7
  %109 = bitcast %"class.std::__1::__tree_end_node"* %108 to %"class.std::__1::basic_string"*
  call void @llvm.lifetime.end.p0i8(i64 1, i8* nonnull %105) #14
  call void @llvm.lifetime.end.p0i8(i64 8, i8* nonnull %103) #14
  %110 = icmp eq %"class.std::__1::basic_string"* %11, %109
  br i1 %110, label %136, label %111

111:                                              ; preds = %91
  %112 = bitcast %"class.std::__1::__tree_end_node"* %108 to %"struct.std::__1::basic_string<char, std::__1::char_traits<char>, std::__1::allocator<char> >::__short"*
  %113 = getelementptr inbounds %"struct.std::__1::basic_string<char, std::__1::char_traits<char>, std::__1::allocator<char> >::__short", %"struct.std::__1::basic_string<char, std::__1::char_traits<char>, std::__1::allocator<char> >::__short"* %112, i64 0, i32 1, i32 0
  %114 = load i8, i8* %113, align 1
  %115 = icmp slt i8 %114, 0
  %116 = load i8, i8* %101, align 1
  %117 = icmp slt i8 %116, 0
  br i1 %115, label %127, label %118

118:                                              ; preds = %111
  br i1 %117, label %121, label %119

119:                                              ; preds = %118
  %120 = bitcast %"class.std::__1::__tree_end_node"* %108 to i8*
  call void @llvm.memcpy.p0i8.p0i8.i64(i8* align 8 %120, i8* nonnull align 8 %96, i64 24, i1 false) #14
  br label %136

121:                                              ; preds = %118
  %122 = getelementptr inbounds %"class.std::__1::basic_string", %"class.std::__1::basic_string"* %11, i64 0, i32 0, i32 0, i32 0, i32 0, i32 0, i32 0
  %123 = load i8*, i8** %122, align 8
  %124 = getelementptr inbounds %"class.std::__1::basic_string", %"class.std::__1::basic_string"* %11, i64 0, i32 0, i32 0, i32 0, i32 0, i32 0, i32 1
  %125 = load i64, i64* %124, align 8
  %126 = call dereferenceable(24) %"class.std::__1::basic_string"* @_ZNSt3__112basic_stringIcNS_11char_traitsIcEENS_9allocatorIcEEE17__assign_no_aliasILb1EEERS5_PKcm(%"class.std::__1::basic_string"* %109, i8* %123, i64 %125) #14
  br label %136

127:                                              ; preds = %111
  %128 = getelementptr inbounds %"class.std::__1::basic_string", %"class.std::__1::basic_string"* %11, i64 0, i32 0, i32 0, i32 0, i32 0, i32 0, i32 0
  %129 = load i8*, i8** %128, align 8
  %130 = getelementptr inbounds %"class.std::__1::basic_string", %"class.std::__1::basic_string"* %11, i64 0, i32 0, i32 0, i32 0, i32 0, i32 0, i32 1
  %131 = load i64, i64* %130, align 8
  %132 = zext i8 %116 to i64
  %133 = select i1 %117, i8* %129, i8* %96
  %134 = select i1 %117, i64 %131, i64 %132
  %135 = call dereferenceable(24) %"class.std::__1::basic_string"* @_ZNSt3__112basic_stringIcNS_11char_traitsIcEENS_9allocatorIcEEE17__assign_no_aliasILb0EEERS5_PKcm(%"class.std::__1::basic_string"* %109, i8* %133, i64 %134) #14
  br label %136

136:                                              ; preds = %91, %119, %121, %127
  %137 = load i8, i8* %101, align 1
  %138 = icmp slt i8 %137, 0
  br i1 %138, label %139, label %142

139:                                              ; preds = %136
  %140 = getelementptr inbounds %"class.std::__1::basic_string", %"class.std::__1::basic_string"* %11, i64 0, i32 0, i32 0, i32 0, i32 0, i32 0, i32 0
  %141 = load i8*, i8** %140, align 8
  call void @_ZdlPv(i8* %141) #13
  br label %142

142:                                              ; preds = %136, %139
  call void @llvm.lifetime.end.p0i8(i64 24, i8* nonnull %96) #14
  %143 = load i8, i8* %94, align 1
  %144 = icmp slt i8 %143, 0
  br i1 %144, label %145, label %148

145:                                              ; preds = %142
  %146 = getelementptr inbounds %"class.std::__1::basic_string", %"class.std::__1::basic_string"* %10, i64 0, i32 0, i32 0, i32 0, i32 0, i32 0, i32 0
  %147 = load i8*, i8** %146, align 8
  call void @_ZdlPv(i8* %147) #13
  br label %148

148:                                              ; preds = %142, %145
  call void @llvm.lifetime.end.p0i8(i64 24, i8* nonnull %92) #14
  %149 = bitcast %"class.std::__1::basic_string"* %12 to %"struct.std::__1::basic_string<char, std::__1::char_traits<char>, std::__1::allocator<char> >::__short"*
  %150 = getelementptr inbounds %"struct.std::__1::basic_string<char, std::__1::char_traits<char>, std::__1::allocator<char> >::__short", %"struct.std::__1::basic_string<char, std::__1::char_traits<char>, std::__1::allocator<char> >::__short"* %149, i64 0, i32 1, i32 0
  store i8 19, i8* %150, align 1
  %151 = bitcast %"class.std::__1::basic_string"* %12 to i8*
  call void @llvm.memcpy.p0i8.p0i8.i64(i8* nonnull align 8 %151, i8* align 1 getelementptr inbounds ([20 x i8], [20 x i8]* @.str.11, i64 0, i64 0), i64 19, i1 false) #14
  %152 = getelementptr inbounds i8, i8* %151, i64 19
  store i8 0, i8* %152, align 1
  call void @_ZN11flatbuffers10CodeWriterpLENSt3__112basic_stringIcNS1_11char_traitsIcEENS1_9allocatorIcEEEE(%"class.flatbuffers::CodeWriter"* %2, %"class.std::__1::basic_string"* nonnull %12) #14
  %153 = load i8, i8* %150, align 1
  %154 = icmp slt i8 %153, 0
  br i1 %154, label %155, label %158

155:                                              ; preds = %148
  %156 = getelementptr inbounds %"class.std::__1::basic_string", %"class.std::__1::basic_string"* %12, i64 0, i32 0, i32 0, i32 0, i32 0, i32 0, i32 0
  %157 = load i8*, i8** %156, align 8
  call void @_ZdlPv(i8* %157) #13
  br label %158

158:                                              ; preds = %148, %155
  %159 = call i8* @_Znwm(i64 32) #13
  %160 = getelementptr inbounds %"class.std::__1::basic_string", %"class.std::__1::basic_string"* %13, i64 0, i32 0, i32 0, i32 0, i32 0, i32 0, i32 0
  store i8* %159, i8** %160, align 8
  %161 = getelementptr inbounds %"class.std::__1::basic_string", %"class.std::__1::basic_string"* %13, i64 0, i32 0, i32 0, i32 0, i32 0, i32 0, i32 1
  %162 = bitcast i64* %161 to <2 x i64>*
  store <2 x i64> <i64 26, i64 -9223372036854775776>, <2 x i64>* %162, align 8
  call void @llvm.memcpy.p0i8.p0i8.i64(i8* nonnull align 1 %159, i8* align 1 getelementptr inbounds ([27 x i8], [27 x i8]* @.str.12, i64 0, i64 0), i64 26, i1 false) #14
  %163 = getelementptr inbounds i8, i8* %159, i64 26
  store i8 0, i8* %163, align 1
  call void @_ZN11flatbuffers10CodeWriterpLENSt3__112basic_stringIcNS1_11char_traitsIcEENS1_9allocatorIcEEEE(%"class.flatbuffers::CodeWriter"* %2, %"class.std::__1::basic_string"* nonnull %13) #14
  %164 = bitcast %"class.std::__1::basic_string"* %13 to %"struct.std::__1::basic_string<char, std::__1::char_traits<char>, std::__1::allocator<char> >::__short"*
  %165 = getelementptr inbounds %"struct.std::__1::basic_string<char, std::__1::char_traits<char>, std::__1::allocator<char> >::__short", %"struct.std::__1::basic_string<char, std::__1::char_traits<char>, std::__1::allocator<char> >::__short"* %164, i64 0, i32 1, i32 0
  %166 = load i8, i8* %165, align 1
  %167 = icmp slt i8 %166, 0
  br i1 %167, label %168, label %170

168:                                              ; preds = %158
  %169 = load i8*, i8** %160, align 8
  call void @_ZdlPv(i8* %169) #13
  br label %170

170:                                              ; preds = %158, %168
  %171 = call i8* @_Znwm(i64 48) #13
  %172 = getelementptr inbounds %"class.std::__1::basic_string", %"class.std::__1::basic_string"* %14, i64 0, i32 0, i32 0, i32 0, i32 0, i32 0, i32 0
  store i8* %171, i8** %172, align 8
  %173 = getelementptr inbounds %"class.std::__1::basic_string", %"class.std::__1::basic_string"* %14, i64 0, i32 0, i32 0, i32 0, i32 0, i32 0, i32 1
  %174 = bitcast i64* %173 to <2 x i64>*
  store <2 x i64> <i64 43, i64 -9223372036854775760>, <2 x i64>* %174, align 8
  call void @llvm.memcpy.p0i8.p0i8.i64(i8* nonnull align 1 %171, i8* align 1 getelementptr inbounds ([44 x i8], [44 x i8]* @.str.102, i64 0, i64 0), i64 43, i1 false) #14
  %175 = getelementptr inbounds i8, i8* %171, i64 43
  store i8 0, i8* %175, align 1
  call void @_ZN11flatbuffers10CodeWriterpLENSt3__112basic_stringIcNS1_11char_traitsIcEENS1_9allocatorIcEEEE(%"class.flatbuffers::CodeWriter"* %2, %"class.std::__1::basic_string"* nonnull %14) #14
  %176 = bitcast %"class.std::__1::basic_string"* %14 to %"struct.std::__1::basic_string<char, std::__1::char_traits<char>, std::__1::allocator<char> >::__short"*
  %177 = getelementptr inbounds %"struct.std::__1::basic_string<char, std::__1::char_traits<char>, std::__1::allocator<char> >::__short", %"struct.std::__1::basic_string<char, std::__1::char_traits<char>, std::__1::allocator<char> >::__short"* %176, i64 0, i32 1, i32 0
  %178 = load i8, i8* %177, align 1
  %179 = icmp slt i8 %178, 0
  br i1 %179, label %180, label %182

180:                                              ; preds = %170
  %181 = load i8*, i8** %172, align 8
  call void @_ZdlPv(i8* %181) #13
  br label %182

182:                                              ; preds = %170, %180
  %183 = getelementptr inbounds %"class.flatbuffers::CodeWriter", %"class.flatbuffers::CodeWriter"* %2, i64 0, i32 3
  %184 = load i32, i32* %183, align 8
  %185 = add nsw i32 %184, 1
  store i32 %185, i32* %183, align 8
  %186 = bitcast %"class.std::__1::basic_string"* %15 to i8*
  call void @llvm.lifetime.start.p0i8(i64 24, i8* nonnull %186) #14
  %187 = bitcast %"class.std::__1::basic_string"* %15 to %"struct.std::__1::basic_string<char, std::__1::char_traits<char>, std::__1::allocator<char> >::__short"*
  %188 = getelementptr inbounds %"struct.std::__1::basic_string<char, std::__1::char_traits<char>, std::__1::allocator<char> >::__short", %"struct.std::__1::basic_string<char, std::__1::char_traits<char>, std::__1::allocator<char> >::__short"* %187, i64 0, i32 1, i32 0
  store i8 6, i8* %188, align 1
  call void @llvm.memcpy.p0i8.p0i8.i64(i8* nonnull align 8 %186, i8* align 1 getelementptr inbounds ([7 x i8], [7 x i8]* @.str.103, i64 0, i64 0), i64 6, i1 false) #14
  %189 = getelementptr inbounds i8, i8* %186, i64 6
  store i8 0, i8* %189, align 2
  %190 = bitcast %"class.std::__1::basic_string"* %16 to i8*
  call void @llvm.lifetime.start.p0i8(i64 24, i8* nonnull %190) #14
  %191 = call i8* @_Znwm(i64 32) #13
  %192 = getelementptr inbounds %"class.std::__1::basic_string", %"class.std::__1::basic_string"* %16, i64 0, i32 0, i32 0, i32 0, i32 0, i32 0, i32 0
  store i8* %191, i8** %192, align 8
  %193 = getelementptr inbounds %"class.std::__1::basic_string", %"class.std::__1::basic_string"* %16, i64 0, i32 0, i32 0, i32 0, i32 0, i32 0, i32 1
  %194 = bitcast i64* %193 to <2 x i64>*
  store <2 x i64> <i64 24, i64 -9223372036854775776>, <2 x i64>* %194, align 8
  call void @llvm.memcpy.p0i8.p0i8.i64(i8* nonnull align 1 %191, i8* align 1 getelementptr inbounds ([25 x i8], [25 x i8]* @.str.104, i64 0, i64 0), i64 24, i1 false) #14
  %195 = getelementptr inbounds i8, i8* %191, i64 24
  store i8 0, i8* %195, align 1
  %196 = bitcast %"class.std::__1::basic_string"* %17 to i8*
  call void @llvm.lifetime.start.p0i8(i64 24, i8* nonnull %196) #14
  %197 = bitcast %"class.std::__1::basic_string"* %17 to %"struct.std::__1::basic_string<char, std::__1::char_traits<char>, std::__1::allocator<char> >::__short"*
  %198 = getelementptr inbounds %"struct.std::__1::basic_string<char, std::__1::char_traits<char>, std::__1::allocator<char> >::__short", %"struct.std::__1::basic_string<char, std::__1::char_traits<char>, std::__1::allocator<char> >::__short"* %197, i64 0, i32 1, i32 0
  store i8 0, i8* %198, align 1
  store i8 0, i8* %196, align 8
  %199 = bitcast %"class.std::__1::function"* %18 to i8*
  call void @llvm.lifetime.start.p0i8(i64 32, i8* nonnull %199) #14
  %200 = ptrtoint %"class.flatbuffers::CodeWriter"* %2 to i64
  %201 = getelementptr inbounds %"class.std::__1::function", %"class.std::__1::function"* %18, i64 0, i32 0, i32 1, i32 0
  %202 = getelementptr inbounds %"class.std::__1::function", %"class.std::__1::function"* %18, i64 0, i32 0, i32 2
  store void (%"union.std::__1::__function::__policy_storage"*)* @_ZNSt3__110__function16__policy_invokerIFvvEE11__call_implINS0_20__default_alloc_funcIZNK11flatbuffers6kotlin15KotlinGenerator9GenStructERNS6_9StructDefERNS6_10CodeWriterEEUlvE_S2_EEEEvPKNS0_16__policy_storageE, void (%"union.std::__1::__function::__policy_storage"*)** %201, align 8
  store %"struct.std::__1::__function::__policy"* @_ZZNSt3__110__function8__policy15__choose_policyINS0_20__default_alloc_funcIZNK11flatbuffers6kotlin15KotlinGenerator9GenStructERNS4_9StructDefERNS4_10CodeWriterEEUlvE_FvvEEEEEPKS1_NS_17integral_constantIbLb1EEEE9__policy_, %"struct.std::__1::__function::__policy"** %202, align 8
  %203 = bitcast %"class.std::__1::function"* %18 to i64*
  store i64 %200, i64* %203, align 8
  call void @_ZN11flatbuffers6kotlin15KotlinGenerator11GenerateFunERNS_10CodeWriterERKNSt3__112basic_stringIcNS4_11char_traitsIcEENS4_9allocatorIcEEEESC_SC_RKNS4_8functionIFvvEEE(%"class.flatbuffers::CodeWriter"* dereferenceable(336) %2, %"class.std::__1::basic_string"* nonnull dereferenceable(24) %15, %"class.std::__1::basic_string"* nonnull dereferenceable(24) %16, %"class.std::__1::basic_string"* nonnull dereferenceable(24) %17, %"class.std::__1::function"* nonnull dereferenceable(32) %18)
  %204 = load %"struct.std::__1::__function::__policy"*, %"struct.std::__1::__function::__policy"** %202, align 8
  %205 = getelementptr inbounds %"struct.std::__1::__function::__policy", %"struct.std::__1::__function::__policy"* %204, i64 0, i32 1
  %206 = load void (i8*)*, void (i8*)** %205, align 8
  %207 = icmp eq void (i8*)* %206, null
  br i1 %207, label %211, label %208

208:                                              ; preds = %182
  %209 = getelementptr inbounds %"class.std::__1::function", %"class.std::__1::function"* %18, i64 0, i32 0, i32 0, i32 0
  %210 = load i8*, i8** %209, align 8
  call void %206(i8* %210) #14
  br label %211

211:                                              ; preds = %182, %208
  call void @llvm.lifetime.end.p0i8(i64 32, i8* nonnull %199) #14
  %212 = load i8, i8* %198, align 1
  %213 = icmp slt i8 %212, 0
  br i1 %213, label %214, label %217

214:                                              ; preds = %211
  %215 = getelementptr inbounds %"class.std::__1::basic_string", %"class.std::__1::basic_string"* %17, i64 0, i32 0, i32 0, i32 0, i32 0, i32 0, i32 0
  %216 = load i8*, i8** %215, align 8
  call void @_ZdlPv(i8* %216) #13
  br label %217

217:                                              ; preds = %211, %214
  call void @llvm.lifetime.end.p0i8(i64 24, i8* nonnull %196) #14
  %218 = bitcast %"class.std::__1::basic_string"* %16 to %"struct.std::__1::basic_string<char, std::__1::char_traits<char>, std::__1::allocator<char> >::__short"*
  %219 = getelementptr inbounds %"struct.std::__1::basic_string<char, std::__1::char_traits<char>, std::__1::allocator<char> >::__short", %"struct.std::__1::basic_string<char, std::__1::char_traits<char>, std::__1::allocator<char> >::__short"* %218, i64 0, i32 1, i32 0
  %220 = load i8, i8* %219, align 1
  %221 = icmp slt i8 %220, 0
  br i1 %221, label %222, label %224

222:                                              ; preds = %217
  %223 = load i8*, i8** %192, align 8
  call void @_ZdlPv(i8* %223) #13
  br label %224

224:                                              ; preds = %217, %222
  call void @llvm.lifetime.end.p0i8(i64 24, i8* nonnull %190) #14
  %225 = load i8, i8* %188, align 1
  %226 = icmp slt i8 %225, 0
  br i1 %226, label %227, label %230

227:                                              ; preds = %224
  %228 = getelementptr inbounds %"class.std::__1::basic_string", %"class.std::__1::basic_string"* %15, i64 0, i32 0, i32 0, i32 0, i32 0, i32 0, i32 0
  %229 = load i8*, i8** %228, align 8
  call void @_ZdlPv(i8* %229) #13
  br label %230

230:                                              ; preds = %224, %227
  call void @llvm.lifetime.end.p0i8(i64 24, i8* nonnull %186) #14
  %231 = bitcast %"class.std::__1::basic_string"* %19 to i8*
  call void @llvm.lifetime.start.p0i8(i64 24, i8* nonnull %231) #14
  %232 = bitcast %"class.std::__1::basic_string"* %19 to %"struct.std::__1::basic_string<char, std::__1::char_traits<char>, std::__1::allocator<char> >::__short"*
  %233 = getelementptr inbounds %"struct.std::__1::basic_string<char, std::__1::char_traits<char>, std::__1::allocator<char> >::__short", %"struct.std::__1::basic_string<char, std::__1::char_traits<char>, std::__1::allocator<char> >::__short"* %232, i64 0, i32 1, i32 0
  store i8 8, i8* %233, align 1
  %234 = bitcast %"class.std::__1::basic_string"* %19 to i64*
  store i64 7955443211351187295, i64* %234, align 8
  %235 = getelementptr inbounds %"class.std::__1::basic_string", %"class.std::__1::basic_string"* %19, i64 0, i32 0, i32 0, i32 0, i32 0, i32 0, i32 1
  %236 = bitcast i64* %235 to i8*
  store i8 0, i8* %236, align 8
  %237 = bitcast %"class.std::__1::basic_string"* %20 to i8*
  call void @llvm.lifetime.start.p0i8(i64 24, i8* nonnull %237) #14
  %238 = call i8* @_Znwm(i64 32) #13
  %239 = getelementptr inbounds %"class.std::__1::basic_string", %"class.std::__1::basic_string"* %20, i64 0, i32 0, i32 0, i32 0, i32 0, i32 0, i32 0
  store i8* %238, i8** %239, align 8
  %240 = getelementptr inbounds %"class.std::__1::basic_string", %"class.std::__1::basic_string"* %20, i64 0, i32 0, i32 0, i32 0, i32 0, i32 0, i32 1
  %241 = bitcast i64* %240 to <2 x i64>*
  store <2 x i64> <i64 24, i64 -9223372036854775776>, <2 x i64>* %241, align 8
  call void @llvm.memcpy.p0i8.p0i8.i64(i8* nonnull align 1 %238, i8* align 1 getelementptr inbounds ([25 x i8], [25 x i8]* @.str.104, i64 0, i64 0), i64 24, i1 false) #14
  %242 = getelementptr inbounds i8, i8* %238, i64 24
  store i8 0, i8* %242, align 1
  %243 = bitcast %"class.std::__1::basic_string"* %21 to i8*
  call void @llvm.lifetime.start.p0i8(i64 24, i8* nonnull %243) #14
  call fastcc void @_ZN11flatbuffers6kotlinL3EscERKNSt3__112basic_stringIcNS1_11char_traitsIcEENS1_9allocatorIcEEEE(%"class.std::__1::basic_string"* nonnull sret %21, %"class.std::__1::basic_string"* dereferenceable(24) %38)
  %244 = bitcast %"class.std::__1::function"* %22 to i8*
  call void @llvm.lifetime.start.p0i8(i64 32, i8* nonnull %244) #14
  %245 = getelementptr inbounds %"class.std::__1::function", %"class.std::__1::function"* %22, i64 0, i32 0, i32 1, i32 0
  %246 = getelementptr inbounds %"class.std::__1::function", %"class.std::__1::function"* %22, i64 0, i32 0, i32 2
  store void (%"union.std::__1::__function::__policy_storage"*)* @_ZNSt3__110__function16__policy_invokerIFvvEE11__call_implINS0_20__default_alloc_funcIZNK11flatbuffers6kotlin15KotlinGenerator9GenStructERNS6_9StructDefERNS6_10CodeWriterEEUlvE0_S2_EEEEvPKNS0_16__policy_storageE, void (%"union.std::__1::__function::__policy_storage"*)** %245, align 8
  store %"struct.std::__1::__function::__policy"* @_ZZNSt3__110__function8__policy15__choose_policyINS0_20__default_alloc_funcIZNK11flatbuffers6kotlin15KotlinGenerator9GenStructERNS4_9StructDefERNS4_10CodeWriterEEUlvE0_FvvEEEEEPKS1_NS_17integral_constantIbLb1EEEE9__policy_, %"struct.std::__1::__function::__policy"** %246, align 8
  %247 = bitcast %"class.std::__1::function"* %22 to i64*
  store i64 %200, i64* %247, align 8
  call void @_ZN11flatbuffers6kotlin15KotlinGenerator11GenerateFunERNS_10CodeWriterERKNSt3__112basic_stringIcNS4_11char_traitsIcEENS4_9allocatorIcEEEESC_SC_RKNS4_8functionIFvvEEE(%"class.flatbuffers::CodeWriter"* dereferenceable(336) %2, %"class.std::__1::basic_string"* nonnull dereferenceable(24) %19, %"class.std::__1::basic_string"* nonnull dereferenceable(24) %20, %"class.std::__1::basic_string"* nonnull dereferenceable(24) %21, %"class.std::__1::function"* nonnull dereferenceable(32) %22)
  %248 = load %"struct.std::__1::__function::__policy"*, %"struct.std::__1::__function::__policy"** %246, align 8
  %249 = getelementptr inbounds %"struct.std::__1::__function::__policy", %"struct.std::__1::__function::__policy"* %248, i64 0, i32 1
  %250 = load void (i8*)*, void (i8*)** %249, align 8
  %251 = icmp eq void (i8*)* %250, null
  br i1 %251, label %255, label %252

252:                                              ; preds = %230
  %253 = getelementptr inbounds %"class.std::__1::function", %"class.std::__1::function"* %22, i64 0, i32 0, i32 0, i32 0
  %254 = load i8*, i8** %253, align 8
  call void %250(i8* %254) #14
  br label %255

255:                                              ; preds = %230, %252
  call void @llvm.lifetime.end.p0i8(i64 32, i8* nonnull %244) #14
  %256 = bitcast %"class.std::__1::basic_string"* %21 to %"struct.std::__1::basic_string<char, std::__1::char_traits<char>, std::__1::allocator<char> >::__short"*
  %257 = getelementptr inbounds %"struct.std::__1::basic_string<char, std::__1::char_traits<char>, std::__1::allocator<char> >::__short", %"struct.std::__1::basic_string<char, std::__1::char_traits<char>, std::__1::allocator<char> >::__short"* %256, i64 0, i32 1, i32 0
  %258 = load i8, i8* %257, align 1
  %259 = icmp slt i8 %258, 0
  br i1 %259, label %260, label %263

260:                                              ; preds = %255
  %261 = getelementptr inbounds %"class.std::__1::basic_string", %"class.std::__1::basic_string"* %21, i64 0, i32 0, i32 0, i32 0, i32 0, i32 0, i32 0
  %262 = load i8*, i8** %261, align 8
  call void @_ZdlPv(i8* %262) #13
  br label %263

263:                                              ; preds = %255, %260
  call void @llvm.lifetime.end.p0i8(i64 24, i8* nonnull %243) #14
  %264 = bitcast %"class.std::__1::basic_string"* %20 to %"struct.std::__1::basic_string<char, std::__1::char_traits<char>, std::__1::allocator<char> >::__short"*
  %265 = getelementptr inbounds %"struct.std::__1::basic_string<char, std::__1::char_traits<char>, std::__1::allocator<char> >::__short", %"struct.std::__1::basic_string<char, std::__1::char_traits<char>, std::__1::allocator<char> >::__short"* %264, i64 0, i32 1, i32 0
  %266 = load i8, i8* %265, align 1
  %267 = icmp slt i8 %266, 0
  br i1 %267, label %268, label %270

268:                                              ; preds = %263
  %269 = load i8*, i8** %239, align 8
  call void @_ZdlPv(i8* %269) #13
  br label %270

270:                                              ; preds = %263, %268
  call void @llvm.lifetime.end.p0i8(i64 24, i8* nonnull %237) #14
  %271 = load i8, i8* %233, align 1
  %272 = icmp slt i8 %271, 0
  br i1 %272, label %273, label %276

273:                                              ; preds = %270
  %274 = getelementptr inbounds %"class.std::__1::basic_string", %"class.std::__1::basic_string"* %19, i64 0, i32 0, i32 0, i32 0, i32 0, i32 0, i32 0
  %275 = load i8*, i8** %274, align 8
  call void @_ZdlPv(i8* %275) #13
  br label %276

276:                                              ; preds = %270, %273
  call void @llvm.lifetime.end.p0i8(i64 24, i8* nonnull %231) #14
  call void @_ZNK11flatbuffers6kotlin15KotlinGenerator21GenerateStructGettersERNS_9StructDefERNS_10CodeWriterE(%"class.flatbuffers::kotlin::KotlinGenerator"* %0, %"struct.flatbuffers::StructDef"* dereferenceable(232) %1, %"class.flatbuffers::CodeWriter"* dereferenceable(336) %2)
  %277 = bitcast %"class.std::__1::function"* %23 to i8*
  call void @llvm.lifetime.start.p0i8(i64 32, i8* nonnull %277) #14
  %278 = getelementptr inbounds %"class.std::__1::function", %"class.std::__1::function"* %23, i64 0, i32 0, i32 1, i32 0
  %279 = getelementptr inbounds %"class.std::__1::function", %"class.std::__1::function"* %23, i64 0, i32 0, i32 2
  store void (%"union.std::__1::__function::__policy_storage"*)* @_ZNSt3__110__function16__policy_invokerIFvvEE11__call_implINS0_20__default_alloc_funcIZNK11flatbuffers6kotlin15KotlinGenerator9GenStructERNS6_9StructDefERNS6_10CodeWriterEEUlvE1_S2_EEEEvPKNS0_16__policy_storageE, void (%"union.std::__1::__function::__policy_storage"*)** %278, align 8
  store %"struct.std::__1::__function::__policy"* @_ZZNSt3__110__function8__policy15__choose_policyINS0_20__default_alloc_funcIZNK11flatbuffers6kotlin15KotlinGenerator9GenStructERNS4_9StructDefERNS4_10CodeWriterEEUlvE1_FvvEEEEEPKS1_NS_17integral_constantIbLb0EEEE9__policy_, %"struct.std::__1::__function::__policy"** %279, align 8
  %280 = call i8* @_Znwm(i64 24) #13, !noalias !26
  %281 = bitcast i8* %280 to %"struct.flatbuffers::StructDef"**
  store %"struct.flatbuffers::StructDef"* %1, %"struct.flatbuffers::StructDef"** %281, align 8
  %282 = getelementptr inbounds i8, i8* %280, i64 8
  %283 = bitcast i8* %282 to %"class.flatbuffers::CodeWriter"**
  store %"class.flatbuffers::CodeWriter"* %2, %"class.flatbuffers::CodeWriter"** %283, align 8
  %284 = getelementptr inbounds i8, i8* %280, i64 16
  %285 = bitcast i8* %284 to %"class.flatbuffers::kotlin::KotlinGenerator"**
  store %"class.flatbuffers::kotlin::KotlinGenerator"* %0, %"class.flatbuffers::kotlin::KotlinGenerator"** %285, align 8
  %286 = getelementptr inbounds %"class.std::__1::function", %"class.std::__1::function"* %23, i64 0, i32 0, i32 0, i32 0
  store i8* %280, i8** %286, align 8
  call void @_ZNK11flatbuffers6kotlin15KotlinGenerator23GenerateCompanionObjectERNS_10CodeWriterERKNSt3__18functionIFvvEEE(%"class.flatbuffers::kotlin::KotlinGenerator"* %0, %"class.flatbuffers::CodeWriter"* dereferenceable(336) %2, %"class.std::__1::function"* nonnull dereferenceable(32) %23)
  %287 = load %"struct.std::__1::__function::__policy"*, %"struct.std::__1::__function::__policy"** %279, align 8
  %288 = getelementptr inbounds %"struct.std::__1::__function::__policy", %"struct.std::__1::__function::__policy"* %287, i64 0, i32 1
  %289 = load void (i8*)*, void (i8*)** %288, align 8
  %290 = icmp eq void (i8*)* %289, null
  br i1 %290, label %293, label %291

291:                                              ; preds = %276
  %292 = load i8*, i8** %286, align 8
  call void %289(i8* %292) #14
  br label %293

293:                                              ; preds = %276, %291
  call void @llvm.lifetime.end.p0i8(i64 32, i8* nonnull %277) #14
  %294 = load i32, i32* %183, align 8
  %295 = icmp eq i32 %294, 0
  br i1 %295, label %298, label %296

296:                                              ; preds = %293
  %297 = add nsw i32 %294, -1
  store i32 %297, i32* %183, align 8
  br label %298

298:                                              ; preds = %293, %296
  %299 = bitcast %"class.std::__1::basic_string"* %24 to %"struct.std::__1::basic_string<char, std::__1::char_traits<char>, std::__1::allocator<char> >::__short"*
  %300 = getelementptr inbounds %"struct.std::__1::basic_string<char, std::__1::char_traits<char>, std::__1::allocator<char> >::__short", %"struct.std::__1::basic_string<char, std::__1::char_traits<char>, std::__1::allocator<char> >::__short"* %299, i64 0, i32 1, i32 0
  store i8 1, i8* %300, align 1
  %301 = bitcast %"class.std::__1::basic_string"* %24 to i8*
  store i8 125, i8* %301, align 8
  %302 = getelementptr inbounds i8, i8* %301, i64 1
  store i8 0, i8* %302, align 1
  call void @_ZN11flatbuffers10CodeWriterpLENSt3__112basic_stringIcNS1_11char_traitsIcEENS1_9allocatorIcEEEE(%"class.flatbuffers::CodeWriter"* %2, %"class.std::__1::basic_string"* nonnull %24) #14
  %303 = load i8, i8* %300, align 1
  %304 = icmp slt i8 %303, 0
  br i1 %304, label %305, label %308

305:                                              ; preds = %298
  %306 = getelementptr inbounds %"class.std::__1::basic_string", %"class.std::__1::basic_string"* %24, i64 0, i32 0, i32 0, i32 0, i32 0, i32 0, i32 0
  %307 = load i8*, i8** %306, align 8
  call void @_ZdlPv(i8* %307) #13
  br label %308

308:                                              ; preds = %305, %298, %3
  ret void
}

declare void @_ZNSt3__18ios_base4initEPv(%"class.std::__1::ios_base"*, i8*) local_unnamed_addr #0

declare void @_ZNSt3__115basic_streambufIcNS_11char_traitsIcEEEC2Ev(%"class.std::__1::basic_streambuf"*) unnamed_addr #0

; Function Attrs: nounwind ssp uwtable
define linkonce_odr hidden void @_ZNK11flatbuffers6kotlin15KotlinGenerator15GenerateCommentERKNSt3__16vectorINS2_12basic_stringIcNS2_11char_traitsIcEENS2_9allocatorIcEEEENS7_IS9_EEEERNS_10CodeWriterEPKNS_13CommentConfigE(%"class.flatbuffers::kotlin::KotlinGenerator"*, %"class.std::__1::vector"* dereferenceable(24), %"class.flatbuffers::CodeWriter"* dereferenceable(336), %"struct.flatbuffers::CommentConfig"*) local_unnamed_addr #3 comdat align 2 {
  %5 = alloca %"class.std::__1::basic_string", align 8
  %6 = alloca %"class.std::__1::basic_string", align 8
  %7 = alloca %"class.std::__1::basic_string", align 8
  %8 = alloca %"class.std::__1::basic_string", align 8
  %9 = getelementptr inbounds %"class.std::__1::vector", %"class.std::__1::vector"* %1, i64 0, i32 0, i32 0
  %10 = load %"class.std::__1::basic_string"*, %"class.std::__1::basic_string"** %9, align 8
  %11 = getelementptr inbounds %"class.std::__1::vector", %"class.std::__1::vector"* %1, i64 0, i32 0, i32 1
  %12 = load %"class.std::__1::basic_string"*, %"class.std::__1::basic_string"** %11, align 8
  %13 = icmp eq %"class.std::__1::basic_string"* %10, %12
  br i1 %13, label %198, label %14

14:                                               ; preds = %4
  %15 = icmp ne %"struct.flatbuffers::CommentConfig"* %3, null
  br i1 %15, label %16, label %55

16:                                               ; preds = %14
  %17 = getelementptr inbounds %"struct.flatbuffers::CommentConfig", %"struct.flatbuffers::CommentConfig"* %3, i64 0, i32 0
  %18 = load i8*, i8** %17, align 8
  %19 = icmp eq i8* %18, null
  br i1 %19, label %55, label %20

20:                                               ; preds = %16
  %21 = tail call i64 @strlen(i8* nonnull %18) #14
  %22 = icmp ugt i64 %21, -17
  br i1 %22, label %23, label %25

23:                                               ; preds = %20
  %24 = bitcast %"class.std::__1::basic_string"* %5 to %"class.std::__1::__basic_string_common"*
  call void @_ZNKSt3__121__basic_string_commonILb1EE20__throw_length_errorEv(%"class.std::__1::__basic_string_common"* nonnull %24) #15
  unreachable

25:                                               ; preds = %20
  %26 = icmp ult i64 %21, 23
  br i1 %26, label %36, label %27

27:                                               ; preds = %25
  %28 = add nuw i64 %21, 16
  %29 = and i64 %28, -16
  %30 = tail call i8* @_Znwm(i64 %29) #13
  %31 = getelementptr inbounds %"class.std::__1::basic_string", %"class.std::__1::basic_string"* %5, i64 0, i32 0, i32 0, i32 0, i32 0, i32 0, i32 0
  store i8* %30, i8** %31, align 8
  %32 = or i64 %29, -9223372036854775808
  %33 = getelementptr inbounds %"class.std::__1::basic_string", %"class.std::__1::basic_string"* %5, i64 0, i32 0, i32 0, i32 0, i32 0, i32 0, i32 2
  store i64 %32, i64* %33, align 8
  %34 = getelementptr inbounds %"class.std::__1::basic_string", %"class.std::__1::basic_string"* %5, i64 0, i32 0, i32 0, i32 0, i32 0, i32 0, i32 1
  store i64 %21, i64* %34, align 8
  %35 = bitcast %"class.std::__1::basic_string"* %5 to %"struct.std::__1::basic_string<char, std::__1::char_traits<char>, std::__1::allocator<char> >::__short"*
  br label %42

36:                                               ; preds = %25
  %37 = trunc i64 %21 to i8
  %38 = bitcast %"class.std::__1::basic_string"* %5 to %"struct.std::__1::basic_string<char, std::__1::char_traits<char>, std::__1::allocator<char> >::__short"*
  %39 = getelementptr inbounds %"struct.std::__1::basic_string<char, std::__1::char_traits<char>, std::__1::allocator<char> >::__short", %"struct.std::__1::basic_string<char, std::__1::char_traits<char>, std::__1::allocator<char> >::__short"* %38, i64 0, i32 1, i32 0
  store i8 %37, i8* %39, align 1
  %40 = bitcast %"class.std::__1::basic_string"* %5 to i8*
  %41 = icmp eq i64 %21, 0
  br i1 %41, label %45, label %42

42:                                               ; preds = %36, %27
  %43 = phi %"struct.std::__1::basic_string<char, std::__1::char_traits<char>, std::__1::allocator<char> >::__short"* [ %38, %36 ], [ %35, %27 ]
  %44 = phi i8* [ %40, %36 ], [ %30, %27 ]
  call void @llvm.memcpy.p0i8.p0i8.i64(i8* nonnull align 1 %44, i8* nonnull align 1 %18, i64 %21, i1 false) #14
  br label %45

45:                                               ; preds = %36, %42
  %46 = phi %"struct.std::__1::basic_string<char, std::__1::char_traits<char>, std::__1::allocator<char> >::__short"* [ %38, %36 ], [ %43, %42 ]
  %47 = phi i8* [ %40, %36 ], [ %44, %42 ]
  %48 = getelementptr inbounds i8, i8* %47, i64 %21
  store i8 0, i8* %48, align 1
  call void @_ZN11flatbuffers10CodeWriterpLENSt3__112basic_stringIcNS1_11char_traitsIcEENS1_9allocatorIcEEEE(%"class.flatbuffers::CodeWriter"* %2, %"class.std::__1::basic_string"* nonnull %5) #14
  %49 = getelementptr inbounds %"struct.std::__1::basic_string<char, std::__1::char_traits<char>, std::__1::allocator<char> >::__short", %"struct.std::__1::basic_string<char, std::__1::char_traits<char>, std::__1::allocator<char> >::__short"* %46, i64 0, i32 1, i32 0
  %50 = load i8, i8* %49, align 1
  %51 = icmp slt i8 %50, 0
  br i1 %51, label %52, label %55

52:                                               ; preds = %45
  %53 = getelementptr inbounds %"class.std::__1::basic_string", %"class.std::__1::basic_string"* %5, i64 0, i32 0, i32 0, i32 0, i32 0, i32 0, i32 0
  %54 = load i8*, i8** %53, align 8
  call void @_ZdlPv(i8* %54) #13
  br label %55

55:                                               ; preds = %52, %45, %16, %14
  %56 = bitcast %"class.std::__1::basic_string"* %6 to i8*
  call void @llvm.lifetime.start.p0i8(i64 24, i8* nonnull %56) #14
  %57 = getelementptr inbounds %"class.std::__1::basic_string", %"class.std::__1::basic_string"* %6, i64 0, i32 0, i32 0, i32 0, i32 0, i32 0, i32 0
  %58 = getelementptr inbounds %"class.std::__1::basic_string", %"class.std::__1::basic_string"* %6, i64 0, i32 0, i32 0, i32 0, i32 0, i32 0, i32 1
  %59 = getelementptr inbounds %"class.std::__1::basic_string", %"class.std::__1::basic_string"* %6, i64 0, i32 0, i32 0, i32 0, i32 0, i32 0, i32 2
  %60 = bitcast %"class.std::__1::basic_string"* %6 to i8*
  call void @llvm.memset.p0i8.i64(i8* nonnull align 8 %60, i8 -86, i64 24, i1 false)
  br i1 %15, label %61, label %66

61:                                               ; preds = %55
  %62 = getelementptr inbounds %"struct.flatbuffers::CommentConfig", %"struct.flatbuffers::CommentConfig"* %3, i64 0, i32 1
  %63 = load i8*, i8** %62, align 8
  %64 = icmp eq i8* %63, null
  %65 = select i1 %64, i8* getelementptr inbounds ([4 x i8], [4 x i8]* @.str.16, i64 0, i64 0), i8* %63
  br label %66

66:                                               ; preds = %61, %55
  %67 = phi i8* [ getelementptr inbounds ([4 x i8], [4 x i8]* @.str.16, i64 0, i64 0), %55 ], [ %65, %61 ]
  %68 = call i64 @strlen(i8* %67) #14
  %69 = icmp ugt i64 %68, -17
  br i1 %69, label %70, label %72

70:                                               ; preds = %66
  %71 = bitcast %"class.std::__1::basic_string"* %6 to %"class.std::__1::__basic_string_common"*
  call void @_ZNKSt3__121__basic_string_commonILb1EE20__throw_length_errorEv(%"class.std::__1::__basic_string_common"* nonnull %71) #15
  unreachable

72:                                               ; preds = %66
  %73 = icmp ult i64 %68, 23
  br i1 %73, label %79, label %74

74:                                               ; preds = %72
  %75 = add nuw i64 %68, 16
  %76 = and i64 %75, -16
  %77 = call i8* @_Znwm(i64 %76) #13
  store i8* %77, i8** %57, align 8
  %78 = or i64 %76, -9223372036854775808
  store i64 %78, i64* %59, align 8
  store i64 %68, i64* %58, align 8
  br label %84

79:                                               ; preds = %72
  %80 = trunc i64 %68 to i8
  %81 = bitcast %"class.std::__1::basic_string"* %6 to %"struct.std::__1::basic_string<char, std::__1::char_traits<char>, std::__1::allocator<char> >::__short"*
  %82 = getelementptr inbounds %"struct.std::__1::basic_string<char, std::__1::char_traits<char>, std::__1::allocator<char> >::__short", %"struct.std::__1::basic_string<char, std::__1::char_traits<char>, std::__1::allocator<char> >::__short"* %81, i64 0, i32 1, i32 0
  store i8 %80, i8* %82, align 1
  %83 = icmp eq i64 %68, 0
  br i1 %83, label %86, label %84

84:                                               ; preds = %79, %74
  %85 = phi i8* [ %77, %74 ], [ %56, %79 ]
  call void @llvm.memcpy.p0i8.p0i8.i64(i8* nonnull align 1 %85, i8* align 1 %67, i64 %68, i1 false) #14
  br label %86

86:                                               ; preds = %79, %84
  %87 = phi i8* [ %56, %79 ], [ %85, %84 ]
  %88 = getelementptr inbounds i8, i8* %87, i64 %68
  store i8 0, i8* %88, align 1
  %89 = load %"class.std::__1::basic_string"*, %"class.std::__1::basic_string"** %9, align 8
  %90 = load %"class.std::__1::basic_string"*, %"class.std::__1::basic_string"** %11, align 8
  %91 = icmp eq %"class.std::__1::basic_string"* %89, %90
  br i1 %91, label %101, label %92

92:                                               ; preds = %86
  %93 = getelementptr inbounds %"class.std::__1::basic_string", %"class.std::__1::basic_string"* %7, i64 0, i32 0, i32 0, i32 0, i32 0, i32 0, i32 0
  %94 = getelementptr inbounds %"class.std::__1::basic_string", %"class.std::__1::basic_string"* %7, i64 0, i32 0, i32 0, i32 0, i32 0, i32 0, i32 1
  %95 = getelementptr inbounds %"class.std::__1::basic_string", %"class.std::__1::basic_string"* %7, i64 0, i32 0, i32 0, i32 0, i32 0, i32 0, i32 2
  %96 = bitcast %"class.std::__1::basic_string"* %7 to i8*
  %97 = bitcast %"class.std::__1::basic_string"* %6 to %"struct.std::__1::basic_string<char, std::__1::char_traits<char>, std::__1::allocator<char> >::__short"*
  %98 = getelementptr inbounds %"struct.std::__1::basic_string<char, std::__1::char_traits<char>, std::__1::allocator<char> >::__short", %"struct.std::__1::basic_string<char, std::__1::char_traits<char>, std::__1::allocator<char> >::__short"* %97, i64 0, i32 1, i32 0
  %99 = bitcast %"class.std::__1::basic_string"* %7 to %"struct.std::__1::basic_string<char, std::__1::char_traits<char>, std::__1::allocator<char> >::__short"*
  %100 = getelementptr inbounds %"struct.std::__1::basic_string<char, std::__1::char_traits<char>, std::__1::allocator<char> >::__short", %"struct.std::__1::basic_string<char, std::__1::char_traits<char>, std::__1::allocator<char> >::__short"* %99, i64 0, i32 1, i32 0
  br label %102

101:                                              ; preds = %147, %86
  br i1 %15, label %151, label %190

102:                                              ; preds = %92, %147
  %103 = phi %"class.std::__1::basic_string"* [ %89, %92 ], [ %148, %147 ]
  call void @llvm.memset.p0i8.i64(i8* nonnull align 8 %96, i8 0, i64 24, i1 false) #14, !alias.scope !31
  %104 = load i8, i8* %98, align 1, !noalias !31
  %105 = icmp slt i8 %104, 0
  %106 = load i64, i64* %58, align 8, !noalias !31
  %107 = zext i8 %104 to i64
  %108 = select i1 %105, i64 %106, i64 %107
  %109 = bitcast %"class.std::__1::basic_string"* %103 to %"struct.std::__1::basic_string<char, std::__1::char_traits<char>, std::__1::allocator<char> >::__short"*
  %110 = getelementptr inbounds %"struct.std::__1::basic_string<char, std::__1::char_traits<char>, std::__1::allocator<char> >::__short", %"struct.std::__1::basic_string<char, std::__1::char_traits<char>, std::__1::allocator<char> >::__short"* %109, i64 0, i32 1, i32 0
  %111 = load i8, i8* %110, align 1, !noalias !31
  %112 = icmp slt i8 %111, 0
  %113 = getelementptr inbounds %"class.std::__1::basic_string", %"class.std::__1::basic_string"* %103, i64 0, i32 0, i32 0, i32 0, i32 0, i32 0, i32 1
  %114 = load i64, i64* %113, align 8, !noalias !31
  %115 = zext i8 %111 to i64
  %116 = select i1 %112, i64 %114, i64 %115
  %117 = load i8*, i8** %57, align 8, !noalias !31
  %118 = select i1 %105, i8* %117, i8* %56
  %119 = add i64 %116, %108
  %120 = icmp ugt i64 %119, -17
  br i1 %120, label %121, label %123

121:                                              ; preds = %102
  %122 = bitcast %"class.std::__1::basic_string"* %7 to %"class.std::__1::__basic_string_common"*
  call void @_ZNKSt3__121__basic_string_commonILb1EE20__throw_length_errorEv(%"class.std::__1::__basic_string_common"* nonnull %122) #15
  unreachable

123:                                              ; preds = %102
  %124 = icmp ult i64 %119, 23
  br i1 %124, label %125, label %127

125:                                              ; preds = %123
  %126 = trunc i64 %108 to i8
  store i8 %126, i8* %100, align 1, !alias.scope !31
  br label %132

127:                                              ; preds = %123
  %128 = add nuw i64 %119, 16
  %129 = and i64 %128, -16
  %130 = call i8* @_Znwm(i64 %129) #13
  store i8* %130, i8** %93, align 8, !alias.scope !31
  %131 = or i64 %129, -9223372036854775808
  store i64 %131, i64* %95, align 8, !alias.scope !31
  store i64 %108, i64* %94, align 8, !alias.scope !31
  br label %132

132:                                              ; preds = %127, %125
  %133 = phi i8* [ %96, %125 ], [ %130, %127 ]
  %134 = icmp eq i64 %108, 0
  br i1 %134, label %136, label %135

135:                                              ; preds = %132
  call void @llvm.memcpy.p0i8.p0i8.i64(i8* nonnull align 1 %133, i8* align 1 %118, i64 %108, i1 false) #14
  br label %136

136:                                              ; preds = %132, %135
  %137 = getelementptr inbounds i8, i8* %133, i64 %108
  store i8 0, i8* %137, align 1
  %138 = getelementptr inbounds %"class.std::__1::basic_string", %"class.std::__1::basic_string"* %103, i64 0, i32 0, i32 0, i32 0, i32 0, i32 0, i32 0
  %139 = load i8*, i8** %138, align 8, !noalias !31
  %140 = bitcast %"class.std::__1::basic_string"* %103 to i8*
  %141 = select i1 %112, i8* %139, i8* %140
  %142 = call dereferenceable(24) %"class.std::__1::basic_string"* @_ZNSt3__112basic_stringIcNS_11char_traitsIcEENS_9allocatorIcEEE6appendEPKcm(%"class.std::__1::basic_string"* nonnull %7, i8* %141, i64 %116) #14
  call void @_ZN11flatbuffers10CodeWriterpLENSt3__112basic_stringIcNS1_11char_traitsIcEENS1_9allocatorIcEEEE(%"class.flatbuffers::CodeWriter"* %2, %"class.std::__1::basic_string"* nonnull %7) #14
  %143 = load i8, i8* %100, align 1
  %144 = icmp slt i8 %143, 0
  br i1 %144, label %145, label %147

145:                                              ; preds = %136
  %146 = load i8*, i8** %93, align 8
  call void @_ZdlPv(i8* %146) #13
  br label %147

147:                                              ; preds = %136, %145
  %148 = getelementptr inbounds %"class.std::__1::basic_string", %"class.std::__1::basic_string"* %103, i64 1
  %149 = load %"class.std::__1::basic_string"*, %"class.std::__1::basic_string"** %11, align 8
  %150 = icmp eq %"class.std::__1::basic_string"* %148, %149
  br i1 %150, label %101, label %102

151:                                              ; preds = %101
  %152 = getelementptr inbounds %"struct.flatbuffers::CommentConfig", %"struct.flatbuffers::CommentConfig"* %3, i64 0, i32 2
  %153 = load i8*, i8** %152, align 8
  %154 = icmp eq i8* %153, null
  br i1 %154, label %190, label %155

155:                                              ; preds = %151
  %156 = call i64 @strlen(i8* nonnull %153) #14
  %157 = icmp ugt i64 %156, -17
  br i1 %157, label %158, label %160

158:                                              ; preds = %155
  %159 = bitcast %"class.std::__1::basic_string"* %8 to %"class.std::__1::__basic_string_common"*
  call void @_ZNKSt3__121__basic_string_commonILb1EE20__throw_length_errorEv(%"class.std::__1::__basic_string_common"* nonnull %159) #15
  unreachable

160:                                              ; preds = %155
  %161 = icmp ult i64 %156, 23
  br i1 %161, label %171, label %162

162:                                              ; preds = %160
  %163 = add nuw i64 %156, 16
  %164 = and i64 %163, -16
  %165 = call i8* @_Znwm(i64 %164) #13
  %166 = getelementptr inbounds %"class.std::__1::basic_string", %"class.std::__1::basic_string"* %8, i64 0, i32 0, i32 0, i32 0, i32 0, i32 0, i32 0
  store i8* %165, i8** %166, align 8
  %167 = or i64 %164, -9223372036854775808
  %168 = getelementptr inbounds %"class.std::__1::basic_string", %"class.std::__1::basic_string"* %8, i64 0, i32 0, i32 0, i32 0, i32 0, i32 0, i32 2
  store i64 %167, i64* %168, align 8
  %169 = getelementptr inbounds %"class.std::__1::basic_string", %"class.std::__1::basic_string"* %8, i64 0, i32 0, i32 0, i32 0, i32 0, i32 0, i32 1
  store i64 %156, i64* %169, align 8
  %170 = bitcast %"class.std::__1::basic_string"* %8 to %"struct.std::__1::basic_string<char, std::__1::char_traits<char>, std::__1::allocator<char> >::__short"*
  br label %177

171:                                              ; preds = %160
  %172 = trunc i64 %156 to i8
  %173 = bitcast %"class.std::__1::basic_string"* %8 to %"struct.std::__1::basic_string<char, std::__1::char_traits<char>, std::__1::allocator<char> >::__short"*
  %174 = getelementptr inbounds %"struct.std::__1::basic_string<char, std::__1::char_traits<char>, std::__1::allocator<char> >::__short", %"struct.std::__1::basic_string<char, std::__1::char_traits<char>, std::__1::allocator<char> >::__short"* %173, i64 0, i32 1, i32 0
  store i8 %172, i8* %174, align 1
  %175 = bitcast %"class.std::__1::basic_string"* %8 to i8*
  %176 = icmp eq i64 %156, 0
  br i1 %176, label %180, label %177

177:                                              ; preds = %171, %162
  %178 = phi %"struct.std::__1::basic_string<char, std::__1::char_traits<char>, std::__1::allocator<char> >::__short"* [ %173, %171 ], [ %170, %162 ]
  %179 = phi i8* [ %175, %171 ], [ %165, %162 ]
  call void @llvm.memcpy.p0i8.p0i8.i64(i8* nonnull align 1 %179, i8* nonnull align 1 %153, i64 %156, i1 false) #14
  br label %180

180:                                              ; preds = %171, %177
  %181 = phi %"struct.std::__1::basic_string<char, std::__1::char_traits<char>, std::__1::allocator<char> >::__short"* [ %173, %171 ], [ %178, %177 ]
  %182 = phi i8* [ %175, %171 ], [ %179, %177 ]
  %183 = getelementptr inbounds i8, i8* %182, i64 %156
  store i8 0, i8* %183, align 1
  call void @_ZN11flatbuffers10CodeWriterpLENSt3__112basic_stringIcNS1_11char_traitsIcEENS1_9allocatorIcEEEE(%"class.flatbuffers::CodeWriter"* %2, %"class.std::__1::basic_string"* nonnull %8) #14
  %184 = getelementptr inbounds %"struct.std::__1::basic_string<char, std::__1::char_traits<char>, std::__1::allocator<char> >::__short", %"struct.std::__1::basic_string<char, std::__1::char_traits<char>, std::__1::allocator<char> >::__short"* %181, i64 0, i32 1, i32 0
  %185 = load i8, i8* %184, align 1
  %186 = icmp slt i8 %185, 0
  br i1 %186, label %187, label %190

187:                                              ; preds = %180
  %188 = getelementptr inbounds %"class.std::__1::basic_string", %"class.std::__1::basic_string"* %8, i64 0, i32 0, i32 0, i32 0, i32 0, i32 0, i32 0
  %189 = load i8*, i8** %188, align 8
  call void @_ZdlPv(i8* %189) #13
  br label %190

190:                                              ; preds = %187, %180, %151, %101
  %191 = bitcast %"class.std::__1::basic_string"* %6 to %"struct.std::__1::basic_string<char, std::__1::char_traits<char>, std::__1::allocator<char> >::__short"*
  %192 = getelementptr inbounds %"struct.std::__1::basic_string<char, std::__1::char_traits<char>, std::__1::allocator<char> >::__short", %"struct.std::__1::basic_string<char, std::__1::char_traits<char>, std::__1::allocator<char> >::__short"* %191, i64 0, i32 1, i32 0
  %193 = load i8, i8* %192, align 1
  %194 = icmp slt i8 %193, 0
  br i1 %194, label %195, label %197

195:                                              ; preds = %190
  %196 = load i8*, i8** %57, align 8
  call void @_ZdlPv(i8* %196) #13
  br label %197

197:                                              ; preds = %190, %195
  call void @llvm.lifetime.end.p0i8(i64 24, i8* nonnull %56) #14
  br label %198

198:                                              ; preds = %4, %197
  ret void
}

declare void @_ZN11flatbuffers10CodeWriterpLENSt3__112basic_stringIcNS1_11char_traitsIcEENS1_9allocatorIcEEEE(%"class.flatbuffers::CodeWriter"*, %"class.std::__1::basic_string"*) local_unnamed_addr #0

; Function Attrs: nounwind ssp uwtable
define internal fastcc void @_ZN11flatbuffers6kotlinL3EscERKNSt3__112basic_stringIcNS1_11char_traitsIcEENS1_9allocatorIcEEEE(%"class.std::__1::basic_string"* noalias sret, %"class.std::__1::basic_string"* dereferenceable(24)) unnamed_addr #3 {
  %3 = alloca %"class.std::__1::basic_string", align 8
  %4 = bitcast %"class.std::__1::basic_string"* %1 to %"struct.std::__1::basic_string<char, std::__1::char_traits<char>, std::__1::allocator<char> >::__short"*
  %5 = getelementptr inbounds %"struct.std::__1::basic_string<char, std::__1::char_traits<char>, std::__1::allocator<char> >::__short", %"struct.std::__1::basic_string<char, std::__1::char_traits<char>, std::__1::allocator<char> >::__short"* %4, i64 0, i32 1, i32 0
  %6 = getelementptr inbounds %"class.std::__1::basic_string", %"class.std::__1::basic_string"* %1, i64 0, i32 0, i32 0, i32 0, i32 0, i32 0, i32 1
  br label %7

7:                                                ; preds = %64, %2
  %8 = phi i64 [ 0, %2 ], [ %65, %64 ]
  %9 = getelementptr inbounds [30 x i8*], [30 x i8*]* @_ZN11flatbuffers6kotlinL8keywordsE, i64 0, i64 %8
  %10 = load i8*, i8** %9, align 8
  %11 = tail call i64 @strlen(i8* %10) #14
  %12 = load i8, i8* %5, align 1
  %13 = icmp slt i8 %12, 0
  %14 = load i64, i64* %6, align 8
  %15 = zext i8 %12 to i64
  %16 = select i1 %13, i64 %14, i64 %15
  %17 = icmp eq i64 %11, %16
  br i1 %17, label %18, label %64

18:                                               ; preds = %7
  %19 = tail call i32 @_ZNKSt3__112basic_stringIcNS_11char_traitsIcEENS_9allocatorIcEEE7compareEmmPKcm(%"class.std::__1::basic_string"* %1, i64 0, i64 -1, i8* %10, i64 %11) #14
  %20 = icmp eq i32 %19, 0
  br i1 %20, label %21, label %64

21:                                               ; preds = %18
  %22 = bitcast %"class.std::__1::basic_string"* %3 to i8*
  call void @llvm.lifetime.start.p0i8(i64 24, i8* nonnull %22) #14
  %23 = getelementptr inbounds %"class.std::__1::basic_string", %"class.std::__1::basic_string"* %3, i64 0, i32 0, i32 0, i32 0, i32 0, i32 0, i32 0
  %24 = getelementptr inbounds %"class.std::__1::basic_string", %"class.std::__1::basic_string"* %3, i64 0, i32 0, i32 0, i32 0, i32 0, i32 0, i32 1
  %25 = getelementptr inbounds %"class.std::__1::basic_string", %"class.std::__1::basic_string"* %3, i64 0, i32 0, i32 0, i32 0, i32 0, i32 0, i32 2
  call void @llvm.memset.p0i8.i64(i8* nonnull align 8 %22, i8 0, i64 24, i1 false) #14, !alias.scope !34
  %26 = load i8, i8* %5, align 1, !noalias !34
  %27 = icmp slt i8 %26, 0
  %28 = load i64, i64* %6, align 8
  %29 = getelementptr inbounds %"class.std::__1::basic_string", %"class.std::__1::basic_string"* %1, i64 0, i32 0, i32 0, i32 0, i32 0, i32 0, i32 0
  %30 = load i8*, i8** %29, align 8
  %31 = zext i8 %26 to i64
  %32 = bitcast %"class.std::__1::basic_string"* %1 to i8*
  %33 = select i1 %27, i64 %28, i64 %31
  %34 = select i1 %27, i8* %30, i8* %32
  %35 = add i64 %33, 1
  %36 = icmp ugt i64 %35, -17
  br i1 %36, label %37, label %39

37:                                               ; preds = %21
  %38 = bitcast %"class.std::__1::basic_string"* %3 to %"class.std::__1::__basic_string_common"*
  call void @_ZNKSt3__121__basic_string_commonILb1EE20__throw_length_errorEv(%"class.std::__1::__basic_string_common"* nonnull %38) #15
  unreachable

39:                                               ; preds = %21
  %40 = icmp ult i64 %35, 23
  br i1 %40, label %46, label %41

41:                                               ; preds = %39
  %42 = add nuw i64 %33, 17
  %43 = and i64 %42, -16
  %44 = tail call i8* @_Znwm(i64 %43) #13
  store i8* %44, i8** %23, align 8, !alias.scope !34
  %45 = or i64 %43, -9223372036854775808
  store i64 %45, i64* %25, align 8, !alias.scope !34
  store i64 %33, i64* %24, align 8, !alias.scope !34
  br label %51

46:                                               ; preds = %39
  %47 = trunc i64 %33 to i8
  %48 = bitcast %"class.std::__1::basic_string"* %3 to %"struct.std::__1::basic_string<char, std::__1::char_traits<char>, std::__1::allocator<char> >::__short"*
  %49 = getelementptr inbounds %"struct.std::__1::basic_string<char, std::__1::char_traits<char>, std::__1::allocator<char> >::__short", %"struct.std::__1::basic_string<char, std::__1::char_traits<char>, std::__1::allocator<char> >::__short"* %48, i64 0, i32 1, i32 0
  store i8 %47, i8* %49, align 1, !alias.scope !34
  %50 = icmp eq i64 %33, 0
  br i1 %50, label %53, label %51

51:                                               ; preds = %41, %46
  %52 = phi i8* [ %44, %41 ], [ %22, %46 ]
  call void @llvm.memcpy.p0i8.p0i8.i64(i8* nonnull align 1 %52, i8* align 1 %34, i64 %33, i1 false) #14
  br label %53

53:                                               ; preds = %46, %51
  %54 = phi i8* [ %22, %46 ], [ %52, %51 ]
  %55 = getelementptr inbounds i8, i8* %54, i64 %33
  store i8 0, i8* %55, align 1
  %56 = call dereferenceable(24) %"class.std::__1::basic_string"* @_ZNSt3__112basic_stringIcNS_11char_traitsIcEENS_9allocatorIcEEE6appendEPKcm(%"class.std::__1::basic_string"* nonnull %3, i8* getelementptr inbounds ([2 x i8], [2 x i8]* @.str.21, i64 0, i64 0), i64 1) #14
  call void @_ZN11flatbuffers9MakeCamelERKNSt3__112basic_stringIcNS0_11char_traitsIcEENS0_9allocatorIcEEEEb(%"class.std::__1::basic_string"* sret %0, %"class.std::__1::basic_string"* nonnull dereferenceable(24) %3, i1 zeroext false) #14
  %57 = bitcast %"class.std::__1::basic_string"* %3 to %"struct.std::__1::basic_string<char, std::__1::char_traits<char>, std::__1::allocator<char> >::__short"*
  %58 = getelementptr inbounds %"struct.std::__1::basic_string<char, std::__1::char_traits<char>, std::__1::allocator<char> >::__short", %"struct.std::__1::basic_string<char, std::__1::char_traits<char>, std::__1::allocator<char> >::__short"* %57, i64 0, i32 1, i32 0
  %59 = load i8, i8* %58, align 1
  %60 = icmp slt i8 %59, 0
  br i1 %60, label %61, label %63

61:                                               ; preds = %53
  %62 = load i8*, i8** %23, align 8
  call void @_ZdlPv(i8* %62) #13
  br label %63

63:                                               ; preds = %53, %61
  call void @llvm.lifetime.end.p0i8(i64 24, i8* nonnull %22) #14
  br label %68

64:                                               ; preds = %7, %18
  %65 = add nuw nsw i64 %8, 1
  %66 = icmp eq i64 %65, 30
  br i1 %66, label %67, label %7

67:                                               ; preds = %64
  tail call void @_ZN11flatbuffers9MakeCamelERKNSt3__112basic_stringIcNS0_11char_traitsIcEENS0_9allocatorIcEEEEb(%"class.std::__1::basic_string"* sret %0, %"class.std::__1::basic_string"* dereferenceable(24) %1, i1 zeroext false) #14
  br label %68

68:                                               ; preds = %63, %67
  ret void
}

; Function Attrs: nounwind ssp uwtable
define linkonce_odr hidden void @_ZNK11flatbuffers6kotlin15KotlinGenerator23GenerateCompanionObjectERNS_10CodeWriterERKNSt3__18functionIFvvEEE(%"class.flatbuffers::kotlin::KotlinGenerator"*, %"class.flatbuffers::CodeWriter"* dereferenceable(336), %"class.std::__1::function"* dereferenceable(32)) local_unnamed_addr #3 comdat align 2 {
  %4 = alloca %"class.std::__1::basic_string", align 8
  %5 = alloca %"class.std::__1::basic_string", align 8
  %6 = bitcast %"class.std::__1::basic_string"* %4 to %"struct.std::__1::basic_string<char, std::__1::char_traits<char>, std::__1::allocator<char> >::__short"*
  %7 = getelementptr inbounds %"struct.std::__1::basic_string<char, std::__1::char_traits<char>, std::__1::allocator<char> >::__short", %"struct.std::__1::basic_string<char, std::__1::char_traits<char>, std::__1::allocator<char> >::__short"* %6, i64 0, i32 1, i32 0
  store i8 18, i8* %7, align 1
  %8 = bitcast %"class.std::__1::basic_string"* %4 to i8*
  call void @llvm.memcpy.p0i8.p0i8.i64(i8* nonnull align 8 %8, i8* align 1 getelementptr inbounds ([19 x i8], [19 x i8]* @.str.52, i64 0, i64 0), i64 18, i1 false) #14
  %9 = getelementptr inbounds i8, i8* %8, i64 18
  store i8 0, i8* %9, align 2
  call void @_ZN11flatbuffers10CodeWriterpLENSt3__112basic_stringIcNS1_11char_traitsIcEENS1_9allocatorIcEEEE(%"class.flatbuffers::CodeWriter"* %1, %"class.std::__1::basic_string"* nonnull %4) #14
  %10 = load i8, i8* %7, align 1
  %11 = icmp slt i8 %10, 0
  br i1 %11, label %12, label %15

12:                                               ; preds = %3
  %13 = getelementptr inbounds %"class.std::__1::basic_string", %"class.std::__1::basic_string"* %4, i64 0, i32 0, i32 0, i32 0, i32 0, i32 0, i32 0
  %14 = load i8*, i8** %13, align 8
  call void @_ZdlPv(i8* %14) #13
  br label %15

15:                                               ; preds = %3, %12
  %16 = getelementptr inbounds %"class.flatbuffers::CodeWriter", %"class.flatbuffers::CodeWriter"* %1, i64 0, i32 3
  %17 = load i32, i32* %16, align 8
  %18 = add nsw i32 %17, 1
  store i32 %18, i32* %16, align 8
  %19 = getelementptr inbounds %"class.std::__1::function", %"class.std::__1::function"* %2, i64 0, i32 0, i32 1, i32 0
  %20 = load void (%"union.std::__1::__function::__policy_storage"*)*, void (%"union.std::__1::__function::__policy_storage"*)** %19, align 8
  %21 = getelementptr inbounds %"class.std::__1::function", %"class.std::__1::function"* %2, i64 0, i32 0, i32 0
  call void %20(%"union.std::__1::__function::__policy_storage"* %21) #14
  %22 = load i32, i32* %16, align 8
  %23 = icmp eq i32 %22, 0
  br i1 %23, label %26, label %24

24:                                               ; preds = %15
  %25 = add nsw i32 %22, -1
  store i32 %25, i32* %16, align 8
  br label %26

26:                                               ; preds = %15, %24
  %27 = bitcast %"class.std::__1::basic_string"* %5 to %"struct.std::__1::basic_string<char, std::__1::char_traits<char>, std::__1::allocator<char> >::__short"*
  %28 = getelementptr inbounds %"struct.std::__1::basic_string<char, std::__1::char_traits<char>, std::__1::allocator<char> >::__short", %"struct.std::__1::basic_string<char, std::__1::char_traits<char>, std::__1::allocator<char> >::__short"* %27, i64 0, i32 1, i32 0
  store i8 1, i8* %28, align 1
  %29 = bitcast %"class.std::__1::basic_string"* %5 to i8*
  store i8 125, i8* %29, align 8
  %30 = getelementptr inbounds i8, i8* %29, i64 1
  store i8 0, i8* %30, align 1
  call void @_ZN11flatbuffers10CodeWriterpLENSt3__112basic_stringIcNS1_11char_traitsIcEENS1_9allocatorIcEEEE(%"class.flatbuffers::CodeWriter"* %1, %"class.std::__1::basic_string"* nonnull %5) #14
  %31 = load i8, i8* %28, align 1
  %32 = icmp slt i8 %31, 0
  br i1 %32, label %33, label %36

33:                                               ; preds = %26
  %34 = getelementptr inbounds %"class.std::__1::basic_string", %"class.std::__1::basic_string"* %5, i64 0, i32 0, i32 0, i32 0, i32 0, i32 0, i32 0
  %35 = load i8*, i8** %34, align 8
  call void @_ZdlPv(i8* %35) #13
  br label %36

36:                                               ; preds = %26, %33
  ret void
}

declare dereferenceable(24) %"class.std::__1::basic_string"* @_ZNSt3__112basic_stringIcNS_11char_traitsIcEENS_9allocatorIcEEE6appendEPKcm(%"class.std::__1::basic_string"*, i8*, i64) local_unnamed_addr #0

; Function Attrs: noreturn
declare void @_ZNKSt3__121__basic_string_commonILb1EE20__throw_length_errorEv(%"class.std::__1::__basic_string_common"*) local_unnamed_addr #7

; Function Attrs: nobuiltin nofree
declare noalias nonnull i8* @_Znwm(i64) local_unnamed_addr #8

declare dereferenceable(24) %"class.std::__1::basic_string"* @_ZNSt3__112basic_stringIcNS_11char_traitsIcEENS_9allocatorIcEEE6appendEPKc(%"class.std::__1::basic_string"*, i8*) local_unnamed_addr #0

declare dereferenceable(24) %"class.std::__1::basic_string"* @_ZNSt3__112basic_stringIcNS_11char_traitsIcEENS_9allocatorIcEEE6insertEmPKc(%"class.std::__1::basic_string"*, i64, i8*) local_unnamed_addr #0

declare void @_ZN11flatbuffers9MakeCamelERKNSt3__112basic_stringIcNS0_11char_traitsIcEENS0_9allocatorIcEEEEb(%"class.std::__1::basic_string"* sret, %"class.std::__1::basic_string"* dereferenceable(24), i1 zeroext) local_unnamed_addr #0

declare i32 @_ZNKSt3__112basic_stringIcNS_11char_traitsIcEENS_9allocatorIcEEE7compareEmmPKcm(%"class.std::__1::basic_string"*, i64, i64, i8*, i64) local_unnamed_addr #0

; Function Attrs: argmemonly nofree nounwind readonly
declare i64 @strlen(i8* nocapture) local_unnamed_addr #9

; Function Attrs: nounwind ssp uwtable
define linkonce_odr hidden void @_ZNSt3__110__function16__policy_invokerIFvvEE11__call_implINS0_20__default_alloc_funcIZNK11flatbuffers6kotlin15KotlinGenerator7GenEnumERNS6_7EnumDefERNS6_10CodeWriterEEUlvE_S2_EEEEvPKNS0_16__policy_storageE(%"union.std::__1::__function::__policy_storage"*) #3 comdat align 2 {
  %2 = bitcast %"union.std::__1::__function::__policy_storage"* %0 to %"class.std::__1::__function::__default_alloc_func"**
  %3 = load %"class.std::__1::__function::__default_alloc_func"*, %"class.std::__1::__function::__default_alloc_func"** %2, align 8
  %4 = getelementptr inbounds %"class.std::__1::__function::__default_alloc_func", %"class.std::__1::__function::__default_alloc_func"* %3, i64 0, i32 0
  tail call void @_ZZNK11flatbuffers6kotlin15KotlinGenerator7GenEnumERNS_7EnumDefERNS_10CodeWriterEENKUlvE_clEv(%class.anon* %4) #14
  ret void
}

; Function Attrs: inlinehint nounwind ssp uwtable
define linkonce_odr hidden void @_ZZNK11flatbuffers6kotlin15KotlinGenerator7GenEnumERNS_7EnumDefERNS_10CodeWriterEENKUlvE_clEv(%class.anon*) local_unnamed_addr #1 comdat align 2 {
  %2 = alloca %"class.std::__1::tuple", align 8
  %3 = alloca %"class.std::__1::tuple.231", align 1
  %4 = alloca %"class.std::__1::tuple", align 8
  %5 = alloca %"class.std::__1::tuple.231", align 1
  %6 = alloca %"class.std::__1::tuple", align 8
  %7 = alloca %"class.std::__1::tuple.231", align 1
  %8 = alloca %"class.std::__1::vector.214", align 8
  %9 = alloca %"class.std::__1::basic_string", align 8
  %10 = alloca %"class.std::__1::basic_string", align 8
  %11 = alloca %"class.std::__1::basic_string", align 8
  %12 = alloca %"class.std::__1::basic_string", align 8
  %13 = alloca %"class.std::__1::basic_string", align 8
  %14 = alloca %"class.std::__1::basic_string", align 8
  %15 = alloca %"class.std::__1::basic_string", align 8
  %16 = alloca %"class.std::__1::basic_string", align 8
  %17 = alloca %"class.std::__1::basic_string", align 8
  %18 = alloca %"class.std::__1::basic_string", align 8
  %19 = alloca %"class.std::__1::basic_string", align 8
  %20 = alloca %"class.std::__1::function", align 8
  %21 = alloca %"class.std::__1::basic_string", align 8
  %22 = alloca %"class.std::__1::basic_string", align 8
  %23 = alloca %"class.std::__1::basic_string", align 8
  %24 = alloca %"class.std::__1::function", align 8
  %25 = getelementptr inbounds %class.anon, %class.anon* %0, i64 0, i32 2
  %26 = load %"class.flatbuffers::kotlin::KotlinGenerator"*, %"class.flatbuffers::kotlin::KotlinGenerator"** %25, align 8
  %27 = bitcast %"class.std::__1::vector.214"* %8 to i8*
  call void @llvm.lifetime.start.p0i8(i64 24, i8* nonnull %27) #14
  %28 = getelementptr inbounds %"class.std::__1::vector.214", %"class.std::__1::vector.214"* %8, i64 0, i32 0, i32 0
  %29 = getelementptr inbounds %"class.std::__1::vector.214", %"class.std::__1::vector.214"* %8, i64 0, i32 0, i32 1
  %30 = getelementptr inbounds %"class.std::__1::vector.214", %"class.std::__1::vector.214"* %8, i64 0, i32 0, i32 2, i32 0, i32 0
  %31 = getelementptr inbounds %class.anon, %class.anon* %0, i64 0, i32 0
  %32 = load %"struct.flatbuffers::EnumDef"*, %"struct.flatbuffers::EnumDef"** %31, align 8
  %33 = getelementptr inbounds %"struct.flatbuffers::EnumDef", %"struct.flatbuffers::EnumDef"* %32, i64 0, i32 5, i32 1
  call void @llvm.memset.p0i8.i64(i8* nonnull align 8 %27, i8 0, i64 24, i1 false) #14
  %34 = getelementptr inbounds %"struct.flatbuffers::EnumDef", %"struct.flatbuffers::EnumDef"* %32, i64 0, i32 5, i32 1, i32 0, i32 1
  %35 = bitcast %"struct.flatbuffers::EnumVal"*** %34 to i64*
  %36 = load i64, i64* %35, align 8
  %37 = bitcast %"class.std::__1::vector.214"* %33 to i64*
  %38 = load i64, i64* %37, align 8
  %39 = sub i64 %36, %38
  %40 = ashr exact i64 %39, 3
  %41 = icmp eq i64 %39, 0
  br i1 %41, label %135, label %42

42:                                               ; preds = %1
  %43 = icmp ugt i64 %40, 2305843009213693951
  br i1 %43, label %44, label %46

44:                                               ; preds = %42
  %45 = bitcast %"class.std::__1::vector.214"* %8 to %"class.std::__1::__vector_base_common"*
  call void @_ZNKSt3__120__vector_base_commonILb1EE20__throw_length_errorEv(%"class.std::__1::__vector_base_common"* nonnull %45) #15
  unreachable

46:                                               ; preds = %42
  %47 = tail call i8* @_Znwm(i64 %39) #13
  %48 = bitcast i8* %47 to %"struct.flatbuffers::EnumVal"**
  %49 = bitcast %"struct.flatbuffers::EnumVal"*** %29 to i8**
  store i8* %47, i8** %49, align 8
  %50 = bitcast %"class.std::__1::vector.214"* %8 to i8**
  store i8* %47, i8** %50, align 8
  %51 = getelementptr inbounds %"struct.flatbuffers::EnumVal"*, %"struct.flatbuffers::EnumVal"** %48, i64 %40
  store %"struct.flatbuffers::EnumVal"** %51, %"struct.flatbuffers::EnumVal"*** %30, align 8
  %52 = getelementptr inbounds %"class.std::__1::vector.214", %"class.std::__1::vector.214"* %33, i64 0, i32 0, i32 0
  %53 = load %"struct.flatbuffers::EnumVal"**, %"struct.flatbuffers::EnumVal"*** %52, align 8
  %54 = load i64, i64* %35, align 8
  %55 = bitcast %"struct.flatbuffers::EnumVal"*** %29 to i64*
  %56 = ptrtoint i8* %47 to i64
  %57 = ptrtoint %"struct.flatbuffers::EnumVal"** %53 to i64
  %58 = sub i64 %54, %57
  %59 = icmp sgt i64 %58, 0
  br i1 %59, label %60, label %65

60:                                               ; preds = %46
  %61 = lshr exact i64 %58, 3
  %62 = bitcast %"struct.flatbuffers::EnumVal"** %53 to i8*
  tail call void @llvm.memcpy.p0i8.p0i8.i64(i8* nonnull align 8 %47, i8* align 8 %62, i64 %58, i1 false) #14
  %63 = getelementptr inbounds %"struct.flatbuffers::EnumVal"*, %"struct.flatbuffers::EnumVal"** %48, i64 %61
  %64 = ptrtoint %"struct.flatbuffers::EnumVal"** %63 to i64
  br label %65

65:                                               ; preds = %46, %60
  %66 = phi i64 [ %64, %60 ], [ %56, %46 ]
  store i64 %66, i64* %55, align 8
  %67 = inttoptr i64 %66 to %"struct.flatbuffers::EnumVal"**
  %68 = icmp eq %"struct.flatbuffers::EnumVal"** %48, %67
  br i1 %68, label %135, label %69

69:                                               ; preds = %65
  %70 = bitcast %"class.std::__1::basic_string"* %9 to i8*
  %71 = getelementptr inbounds %"class.std::__1::basic_string", %"class.std::__1::basic_string"* %9, i64 0, i32 0, i32 0, i32 0, i32 0, i32 0, i32 0
  %72 = getelementptr inbounds %"class.std::__1::basic_string", %"class.std::__1::basic_string"* %9, i64 0, i32 0, i32 0, i32 0, i32 0, i32 0, i32 1
  %73 = getelementptr inbounds %"class.std::__1::basic_string", %"class.std::__1::basic_string"* %9, i64 0, i32 0, i32 0, i32 0, i32 0, i32 0, i32 2
  %74 = bitcast %"class.std::__1::basic_string"* %9 to %"struct.std::__1::basic_string<char, std::__1::char_traits<char>, std::__1::allocator<char> >::__short"*
  %75 = getelementptr inbounds %"struct.std::__1::basic_string<char, std::__1::char_traits<char>, std::__1::allocator<char> >::__short", %"struct.std::__1::basic_string<char, std::__1::char_traits<char>, std::__1::allocator<char> >::__short"* %74, i64 0, i32 1, i32 0
  %76 = bitcast %"class.std::__1::basic_string"* %10 to i8*
  %77 = getelementptr inbounds %"class.std::__1::basic_string", %"class.std::__1::basic_string"* %10, i64 0, i32 0, i32 0, i32 0, i32 0, i32 0, i32 0
  %78 = getelementptr inbounds %"class.std::__1::basic_string", %"class.std::__1::basic_string"* %10, i64 0, i32 0, i32 0, i32 0, i32 0, i32 0, i32 1
  %79 = bitcast %"class.std::__1::basic_string"* %11 to i8*
  %80 = getelementptr inbounds %"class.std::__1::basic_string", %"class.std::__1::basic_string"* %11, i64 0, i32 0, i32 0, i32 0, i32 0, i32 0, i32 0
  %81 = getelementptr inbounds %"class.std::__1::basic_string", %"class.std::__1::basic_string"* %11, i64 0, i32 0, i32 0, i32 0, i32 0, i32 0, i32 1
  %82 = bitcast %"class.std::__1::basic_string"* %11 to %"struct.std::__1::basic_string<char, std::__1::char_traits<char>, std::__1::allocator<char> >::__short"*
  %83 = getelementptr inbounds %"struct.std::__1::basic_string<char, std::__1::char_traits<char>, std::__1::allocator<char> >::__short", %"struct.std::__1::basic_string<char, std::__1::char_traits<char>, std::__1::allocator<char> >::__short"* %82, i64 0, i32 1, i32 0
  %84 = getelementptr inbounds i8, i8* %79, i64 1
  %85 = bitcast %"class.std::__1::basic_string"* %11 to i16*
  %86 = getelementptr inbounds i8, i8* %79, i64 2
  %87 = getelementptr inbounds %class.anon, %class.anon* %0, i64 0, i32 1
  %88 = bitcast %"class.std::__1::basic_string"* %12 to i8*
  %89 = bitcast %"class.std::__1::basic_string"* %12 to %"struct.std::__1::basic_string<char, std::__1::char_traits<char>, std::__1::allocator<char> >::__short"*
  %90 = getelementptr inbounds %"struct.std::__1::basic_string<char, std::__1::char_traits<char>, std::__1::allocator<char> >::__short", %"struct.std::__1::basic_string<char, std::__1::char_traits<char>, std::__1::allocator<char> >::__short"* %89, i64 0, i32 1, i32 0
  %91 = bitcast %"class.std::__1::basic_string"* %12 to i32*
  %92 = getelementptr inbounds i8, i8* %88, i64 4
  %93 = bitcast %"class.std::__1::basic_string"* %13 to i8*
  %94 = bitcast %"class.std::__1::tuple"* %6 to i8*
  %95 = getelementptr inbounds %"class.std::__1::tuple", %"class.std::__1::tuple"* %6, i64 0, i32 0, i32 0, i32 0
  %96 = getelementptr inbounds %"class.std::__1::tuple.231", %"class.std::__1::tuple.231"* %7, i64 0, i32 0
  %97 = bitcast %"class.std::__1::basic_string"* %13 to %"struct.std::__1::basic_string<char, std::__1::char_traits<char>, std::__1::allocator<char> >::__short"*
  %98 = getelementptr inbounds %"struct.std::__1::basic_string<char, std::__1::char_traits<char>, std::__1::allocator<char> >::__short", %"struct.std::__1::basic_string<char, std::__1::char_traits<char>, std::__1::allocator<char> >::__short"* %97, i64 0, i32 1, i32 0
  %99 = getelementptr inbounds %"class.std::__1::basic_string", %"class.std::__1::basic_string"* %13, i64 0, i32 0, i32 0, i32 0, i32 0, i32 0, i32 0
  %100 = getelementptr inbounds %"class.std::__1::basic_string", %"class.std::__1::basic_string"* %13, i64 0, i32 0, i32 0, i32 0, i32 0, i32 0, i32 1
  %101 = getelementptr inbounds %"class.std::__1::basic_string", %"class.std::__1::basic_string"* %12, i64 0, i32 0, i32 0, i32 0, i32 0, i32 0, i32 0
  %102 = bitcast %"class.std::__1::basic_string"* %14 to i8*
  %103 = bitcast %"class.std::__1::basic_string"* %14 to %"struct.std::__1::basic_string<char, std::__1::char_traits<char>, std::__1::allocator<char> >::__short"*
  %104 = getelementptr inbounds %"struct.std::__1::basic_string<char, std::__1::char_traits<char>, std::__1::allocator<char> >::__short", %"struct.std::__1::basic_string<char, std::__1::char_traits<char>, std::__1::allocator<char> >::__short"* %103, i64 0, i32 1, i32 0
  %105 = bitcast %"class.std::__1::basic_string"* %14 to i32*
  %106 = getelementptr inbounds i8, i8* %102, i64 4
  %107 = bitcast %"class.std::__1::tuple"* %4 to i8*
  %108 = getelementptr inbounds %"class.std::__1::tuple", %"class.std::__1::tuple"* %4, i64 0, i32 0, i32 0, i32 0
  %109 = getelementptr inbounds %"class.std::__1::tuple.231", %"class.std::__1::tuple.231"* %5, i64 0, i32 0
  %110 = getelementptr inbounds %"class.std::__1::basic_string", %"class.std::__1::basic_string"* %14, i64 0, i32 0, i32 0, i32 0, i32 0, i32 0, i32 0
  %111 = bitcast %"class.std::__1::basic_string"* %15 to i8*
  %112 = bitcast %"class.std::__1::basic_string"* %15 to %"struct.std::__1::basic_string<char, std::__1::char_traits<char>, std::__1::allocator<char> >::__short"*
  %113 = getelementptr inbounds %"struct.std::__1::basic_string<char, std::__1::char_traits<char>, std::__1::allocator<char> >::__short", %"struct.std::__1::basic_string<char, std::__1::char_traits<char>, std::__1::allocator<char> >::__short"* %112, i64 0, i32 1, i32 0
  %114 = getelementptr inbounds i8, i8* %111, i64 3
  %115 = bitcast %"class.std::__1::basic_string"* %16 to i8*
  %116 = getelementptr inbounds %"class.std::__1::basic_string", %"class.std::__1::basic_string"* %16, i64 0, i32 0, i32 0, i32 0, i32 0, i32 0, i32 0
  %117 = getelementptr inbounds %"class.std::__1::basic_string", %"class.std::__1::basic_string"* %16, i64 0, i32 0, i32 0, i32 0, i32 0, i32 0, i32 1
  %118 = getelementptr inbounds %"class.std::__1::basic_string", %"class.std::__1::basic_string"* %16, i64 0, i32 0, i32 0, i32 0, i32 0, i32 0, i32 2
  %119 = bitcast %"class.std::__1::basic_string"* %10 to %"struct.std::__1::basic_string<char, std::__1::char_traits<char>, std::__1::allocator<char> >::__short"*
  %120 = getelementptr inbounds %"struct.std::__1::basic_string<char, std::__1::char_traits<char>, std::__1::allocator<char> >::__short", %"struct.std::__1::basic_string<char, std::__1::char_traits<char>, std::__1::allocator<char> >::__short"* %119, i64 0, i32 1, i32 0
  %121 = bitcast %"class.std::__1::basic_string"* %16 to %"struct.std::__1::basic_string<char, std::__1::char_traits<char>, std::__1::allocator<char> >::__short"*
  %122 = getelementptr inbounds %"struct.std::__1::basic_string<char, std::__1::char_traits<char>, std::__1::allocator<char> >::__short", %"struct.std::__1::basic_string<char, std::__1::char_traits<char>, std::__1::allocator<char> >::__short"* %121, i64 0, i32 1, i32 0
  %123 = bitcast %"class.std::__1::tuple"* %2 to i8*
  %124 = getelementptr inbounds %"class.std::__1::tuple", %"class.std::__1::tuple"* %2, i64 0, i32 0, i32 0, i32 0
  %125 = getelementptr inbounds %"class.std::__1::tuple.231", %"class.std::__1::tuple.231"* %3, i64 0, i32 0
  %126 = getelementptr inbounds %"class.std::__1::basic_string", %"class.std::__1::basic_string"* %15, i64 0, i32 0, i32 0, i32 0, i32 0, i32 0, i32 0
  %127 = getelementptr inbounds %"class.std::__1::basic_string", %"class.std::__1::basic_string"* %17, i64 0, i32 0, i32 0, i32 0, i32 0, i32 0, i32 0
  %128 = getelementptr inbounds %"class.std::__1::basic_string", %"class.std::__1::basic_string"* %17, i64 0, i32 0, i32 0, i32 0, i32 0, i32 0, i32 1
  %129 = bitcast %"class.std::__1::basic_string"* %17 to %"struct.std::__1::basic_string<char, std::__1::char_traits<char>, std::__1::allocator<char> >::__short"*
  %130 = getelementptr inbounds %"struct.std::__1::basic_string<char, std::__1::char_traits<char>, std::__1::allocator<char> >::__short", %"struct.std::__1::basic_string<char, std::__1::char_traits<char>, std::__1::allocator<char> >::__short"* %129, i64 0, i32 1, i32 0
  %131 = bitcast %"class.std::__1::basic_string"* %9 to i8*
  %132 = bitcast %"class.std::__1::basic_string"* %10 to i8*
  %133 = bitcast %"class.std::__1::basic_string"* %11 to i8*
  %134 = bitcast i64* %128 to <2 x i64>*
  br label %151

135:                                              ; preds = %365, %1, %65
  %136 = phi %"struct.flatbuffers::EnumDef"* [ %32, %65 ], [ %32, %1 ], [ %369, %365 ]
  %137 = call %"struct.flatbuffers::EnumVal"* @_ZNK11flatbuffers7EnumDef8MinValueEv(%"struct.flatbuffers::EnumDef"* %136) #14
  %138 = call %"struct.flatbuffers::EnumVal"* @_ZNK11flatbuffers7EnumDef8MaxValueEv(%"struct.flatbuffers::EnumDef"* %136) #14
  %139 = call i64 @_ZNK11flatbuffers7EnumDef8DistanceEPKNS_7EnumValES3_(%"struct.flatbuffers::EnumDef"* %136, %"struct.flatbuffers::EnumVal"* %137, %"struct.flatbuffers::EnumVal"* %138) #14
  %140 = load %"struct.flatbuffers::EnumDef"*, %"struct.flatbuffers::EnumDef"** %31, align 8
  %141 = getelementptr inbounds %"struct.flatbuffers::EnumDef", %"struct.flatbuffers::EnumDef"* %140, i64 0, i32 5, i32 1
  %142 = getelementptr inbounds %"struct.flatbuffers::EnumDef", %"struct.flatbuffers::EnumDef"* %140, i64 0, i32 5, i32 1, i32 0, i32 1
  %143 = bitcast %"struct.flatbuffers::EnumVal"*** %142 to i64*
  %144 = load i64, i64* %143, align 8
  %145 = bitcast %"class.std::__1::vector.214"* %141 to i64*
  %146 = load i64, i64* %145, align 8
  %147 = sub i64 %144, %146
  %148 = ashr exact i64 %147, 3
  %149 = udiv i64 %139, %148
  %150 = icmp ult i64 %149, 5
  br i1 %150, label %370, label %461

151:                                              ; preds = %365, %69
  %152 = phi %"struct.flatbuffers::EnumDef"* [ %32, %69 ], [ %369, %365 ]
  %153 = phi %"struct.flatbuffers::EnumVal"** [ %48, %69 ], [ %366, %365 ]
  %154 = load %"struct.flatbuffers::EnumVal"*, %"struct.flatbuffers::EnumVal"** %153, align 8
  call void @llvm.lifetime.start.p0i8(i64 24, i8* nonnull %70) #14
  %155 = getelementptr inbounds %"struct.flatbuffers::EnumDef", %"struct.flatbuffers::EnumDef"* %152, i64 0, i32 4, i32 0
  call void @llvm.memset.p0i8.i64(i8* nonnull align 8 %131, i8 -86, i64 24, i1 false)
  %156 = load i32, i32* %155, align 4, !noalias !37
  %157 = zext i32 %156 to i64
  %158 = getelementptr inbounds [18 x i8*], [18 x i8*]* @_ZZN11flatbuffers6kotlin15KotlinGenerator12GenTypeBasicERKNS_8BaseTypeEE15kotlin_typename, i64 0, i64 %157
  %159 = load i8*, i8** %158, align 8, !noalias !37
  %160 = call i64 @strlen(i8* %159) #14, !noalias !37
  %161 = icmp ugt i64 %160, -17
  br i1 %161, label %162, label %164

162:                                              ; preds = %151
  %163 = bitcast %"class.std::__1::basic_string"* %9 to %"class.std::__1::__basic_string_common"*
  call void @_ZNKSt3__121__basic_string_commonILb1EE20__throw_length_errorEv(%"class.std::__1::__basic_string_common"* nonnull %163) #15
  unreachable

164:                                              ; preds = %151
  %165 = icmp ult i64 %160, 23
  br i1 %165, label %171, label %166

166:                                              ; preds = %164
  %167 = add nuw i64 %160, 16
  %168 = and i64 %167, -16
  %169 = call i8* @_Znwm(i64 %168) #13
  store i8* %169, i8** %71, align 8, !alias.scope !37
  %170 = or i64 %168, -9223372036854775808
  store i64 %170, i64* %73, align 8, !alias.scope !37
  store i64 %160, i64* %72, align 8, !alias.scope !37
  br label %174

171:                                              ; preds = %164
  %172 = trunc i64 %160 to i8
  store i8 %172, i8* %75, align 1, !alias.scope !37
  %173 = icmp eq i64 %160, 0
  br i1 %173, label %176, label %174

174:                                              ; preds = %171, %166
  %175 = phi i8* [ %169, %166 ], [ %70, %171 ]
  call void @llvm.memcpy.p0i8.p0i8.i64(i8* nonnull align 1 %175, i8* align 1 %159, i64 %160, i1 false) #14
  br label %176

176:                                              ; preds = %171, %174
  %177 = phi i8* [ %70, %171 ], [ %175, %174 ]
  %178 = getelementptr inbounds i8, i8* %177, i64 %160
  store i8 0, i8* %178, align 1
  call void @llvm.lifetime.start.p0i8(i64 24, i8* nonnull %76) #14
  call void @llvm.memset.p0i8.i64(i8* nonnull align 8 %132, i8 -86, i64 24, i1 false)
  %179 = load i32, i32* %155, align 8, !noalias !40
  %180 = icmp eq i32 %179, 10
  %181 = getelementptr inbounds %"struct.flatbuffers::EnumVal", %"struct.flatbuffers::EnumVal"* %154, i64 0, i32 3
  %182 = load i64, i64* %181, align 8, !noalias !40
  br i1 %180, label %183, label %184

183:                                              ; preds = %176
  call void @_ZN11flatbuffers11NumToStringImEENSt3__112basic_stringIcNS1_11char_traitsIcEENS1_9allocatorIcEEEET_(%"class.std::__1::basic_string"* nonnull sret %10, i64 %182) #14
  br label %185

184:                                              ; preds = %176
  call void @_ZN11flatbuffers11NumToStringIlEENSt3__112basic_stringIcNS1_11char_traitsIcEENS1_9allocatorIcEEEET_(%"class.std::__1::basic_string"* nonnull sret %10, i64 %182) #14
  br label %185

185:                                              ; preds = %183, %184
  call void @llvm.lifetime.start.p0i8(i64 24, i8* nonnull %79) #14
  call void @llvm.memset.p0i8.i64(i8* nonnull align 8 %133, i8 -86, i64 24, i1 false)
  %186 = load %"struct.flatbuffers::EnumDef"*, %"struct.flatbuffers::EnumDef"** %31, align 8
  %187 = getelementptr inbounds %"struct.flatbuffers::EnumDef", %"struct.flatbuffers::EnumDef"* %186, i64 0, i32 4, i32 0
  %188 = load i32, i32* %187, align 8
  switch i32 %188, label %192 [
    i32 8, label %189
    i32 4, label %189
    i32 1, label %189
    i32 6, label %189
    i32 10, label %190
    i32 9, label %191
  ]

189:                                              ; preds = %185, %185, %185, %185
  store i8 1, i8* %83, align 1, !alias.scope !43
  store i8 117, i8* %79, align 8, !alias.scope !43
  store i8 0, i8* %84, align 1, !alias.scope !43
  br label %193

190:                                              ; preds = %185
  store i8 2, i8* %83, align 1, !alias.scope !43
  store i16 19541, i16* %85, align 8, !alias.scope !43
  store i8 0, i8* %86, align 2, !alias.scope !43
  br label %193

191:                                              ; preds = %185
  store i8 1, i8* %83, align 1, !alias.scope !43
  store i8 76, i8* %79, align 8, !alias.scope !43
  store i8 0, i8* %84, align 1, !alias.scope !43
  br label %193

192:                                              ; preds = %185
  store i8 0, i8* %83, align 1, !alias.scope !43
  store i8 0, i8* %79, align 8, !alias.scope !43
  br label %193

193:                                              ; preds = %189, %190, %191, %192
  %194 = load %"class.flatbuffers::CodeWriter"*, %"class.flatbuffers::CodeWriter"** %87, align 8
  call void @llvm.lifetime.start.p0i8(i64 24, i8* nonnull %88) #14
  store i8 4, i8* %90, align 1
  store i32 1701667182, i32* %91, align 8
  store i8 0, i8* %92, align 4
  call void @llvm.lifetime.start.p0i8(i64 24, i8* nonnull %93) #14
  %195 = getelementptr inbounds %"struct.flatbuffers::EnumVal", %"struct.flatbuffers::EnumVal"* %154, i64 0, i32 0
  call fastcc void @_ZN11flatbuffers6kotlinL3EscERKNSt3__112basic_stringIcNS1_11char_traitsIcEENS1_9allocatorIcEEEE(%"class.std::__1::basic_string"* nonnull sret %13, %"class.std::__1::basic_string"* dereferenceable(24) %195)
  %196 = getelementptr inbounds %"class.flatbuffers::CodeWriter", %"class.flatbuffers::CodeWriter"* %194, i64 0, i32 0, i32 0
  call void @llvm.lifetime.start.p0i8(i64 8, i8* nonnull %94) #14
  store %"class.std::__1::basic_string"* %12, %"class.std::__1::basic_string"** %95, align 8
  call void @llvm.lifetime.start.p0i8(i64 1, i8* nonnull %96) #14
  %197 = call { %"class.std::__1::__tree_end_node"*, i8 } @_ZNSt3__16__treeINS_12__value_typeINS_12basic_stringIcNS_11char_traitsIcEENS_9allocatorIcEEEES7_EENS_19__map_value_compareIS7_S8_NS_4lessIS7_EELb1EEENS5_IS8_EEE25__emplace_unique_key_argsIS7_JRKNS_21piecewise_construct_tENS_5tupleIJRKS7_EEENSJ_IJEEEEEENS_4pairINS_15__tree_iteratorIS8_PNS_11__tree_nodeIS8_PvEElEEbEERKT_DpOT0_(%"class.std::__1::__tree.171"* %196, %"class.std::__1::basic_string"* nonnull dereferenceable(24) %12, %"struct.std::__1::piecewise_construct_t"* nonnull dereferenceable(1) @_ZNSt3__1L19piecewise_constructE, %"class.std::__1::tuple"* nonnull dereferenceable(8) %6, %"class.std::__1::tuple.231"* nonnull dereferenceable(1) %7) #14
  %198 = extractvalue { %"class.std::__1::__tree_end_node"*, i8 } %197, 0
  %199 = getelementptr inbounds %"class.std::__1::__tree_end_node", %"class.std::__1::__tree_end_node"* %198, i64 7
  %200 = bitcast %"class.std::__1::__tree_end_node"* %199 to %"class.std::__1::basic_string"*
  call void @llvm.lifetime.end.p0i8(i64 1, i8* nonnull %96) #14
  call void @llvm.lifetime.end.p0i8(i64 8, i8* nonnull %94) #14
  %201 = icmp eq %"class.std::__1::basic_string"* %13, %200
  br i1 %201, label %223, label %202

202:                                              ; preds = %193
  %203 = bitcast %"class.std::__1::__tree_end_node"* %199 to %"struct.std::__1::basic_string<char, std::__1::char_traits<char>, std::__1::allocator<char> >::__short"*
  %204 = getelementptr inbounds %"struct.std::__1::basic_string<char, std::__1::char_traits<char>, std::__1::allocator<char> >::__short", %"struct.std::__1::basic_string<char, std::__1::char_traits<char>, std::__1::allocator<char> >::__short"* %203, i64 0, i32 1, i32 0
  %205 = load i8, i8* %204, align 1
  %206 = icmp slt i8 %205, 0
  %207 = load i8, i8* %98, align 1
  %208 = icmp slt i8 %207, 0
  br i1 %206, label %216, label %209

209:                                              ; preds = %202
  br i1 %208, label %212, label %210

210:                                              ; preds = %209
  %211 = bitcast %"class.std::__1::__tree_end_node"* %199 to i8*
  call void @llvm.memcpy.p0i8.p0i8.i64(i8* align 8 %211, i8* nonnull align 8 %93, i64 24, i1 false) #14
  br label %223

212:                                              ; preds = %209
  %213 = load i8*, i8** %99, align 8
  %214 = load i64, i64* %100, align 8
  %215 = call dereferenceable(24) %"class.std::__1::basic_string"* @_ZNSt3__112basic_stringIcNS_11char_traitsIcEENS_9allocatorIcEEE17__assign_no_aliasILb1EEERS5_PKcm(%"class.std::__1::basic_string"* %200, i8* %213, i64 %214) #14
  br label %223

216:                                              ; preds = %202
  %217 = load i8*, i8** %99, align 8
  %218 = load i64, i64* %100, align 8
  %219 = zext i8 %207 to i64
  %220 = select i1 %208, i8* %217, i8* %93
  %221 = select i1 %208, i64 %218, i64 %219
  %222 = call dereferenceable(24) %"class.std::__1::basic_string"* @_ZNSt3__112basic_stringIcNS_11char_traitsIcEENS_9allocatorIcEEE17__assign_no_aliasILb0EEERS5_PKcm(%"class.std::__1::basic_string"* %200, i8* %220, i64 %221) #14
  br label %223

223:                                              ; preds = %193, %210, %212, %216
  %224 = load i8, i8* %98, align 1
  %225 = icmp slt i8 %224, 0
  br i1 %225, label %226, label %228

226:                                              ; preds = %223
  %227 = load i8*, i8** %99, align 8
  call void @_ZdlPv(i8* %227) #13
  br label %228

228:                                              ; preds = %223, %226
  call void @llvm.lifetime.end.p0i8(i64 24, i8* nonnull %93) #14
  %229 = load i8, i8* %90, align 1
  %230 = icmp slt i8 %229, 0
  br i1 %230, label %231, label %233

231:                                              ; preds = %228
  %232 = load i8*, i8** %101, align 8
  call void @_ZdlPv(i8* %232) #13
  br label %233

233:                                              ; preds = %228, %231
  call void @llvm.lifetime.end.p0i8(i64 24, i8* nonnull %88) #14
  %234 = load %"class.flatbuffers::CodeWriter"*, %"class.flatbuffers::CodeWriter"** %87, align 8
  call void @llvm.lifetime.start.p0i8(i64 24, i8* nonnull %102) #14
  store i8 4, i8* %104, align 1
  store i32 1701869940, i32* %105, align 8
  store i8 0, i8* %106, align 4
  %235 = getelementptr inbounds %"class.flatbuffers::CodeWriter", %"class.flatbuffers::CodeWriter"* %234, i64 0, i32 0, i32 0
  call void @llvm.lifetime.start.p0i8(i64 8, i8* nonnull %107) #14
  store %"class.std::__1::basic_string"* %14, %"class.std::__1::basic_string"** %108, align 8
  call void @llvm.lifetime.start.p0i8(i64 1, i8* nonnull %109) #14
  %236 = call { %"class.std::__1::__tree_end_node"*, i8 } @_ZNSt3__16__treeINS_12__value_typeINS_12basic_stringIcNS_11char_traitsIcEENS_9allocatorIcEEEES7_EENS_19__map_value_compareIS7_S8_NS_4lessIS7_EELb1EEENS5_IS8_EEE25__emplace_unique_key_argsIS7_JRKNS_21piecewise_construct_tENS_5tupleIJRKS7_EEENSJ_IJEEEEEENS_4pairINS_15__tree_iteratorIS8_PNS_11__tree_nodeIS8_PvEElEEbEERKT_DpOT0_(%"class.std::__1::__tree.171"* %235, %"class.std::__1::basic_string"* nonnull dereferenceable(24) %14, %"struct.std::__1::piecewise_construct_t"* nonnull dereferenceable(1) @_ZNSt3__1L19piecewise_constructE, %"class.std::__1::tuple"* nonnull dereferenceable(8) %4, %"class.std::__1::tuple.231"* nonnull dereferenceable(1) %5) #14
  %237 = extractvalue { %"class.std::__1::__tree_end_node"*, i8 } %236, 0
  %238 = getelementptr inbounds %"class.std::__1::__tree_end_node", %"class.std::__1::__tree_end_node"* %237, i64 7
  %239 = bitcast %"class.std::__1::__tree_end_node"* %238 to %"class.std::__1::basic_string"*
  call void @llvm.lifetime.end.p0i8(i64 1, i8* nonnull %109) #14
  call void @llvm.lifetime.end.p0i8(i64 8, i8* nonnull %107) #14
  %240 = icmp eq %"class.std::__1::basic_string"* %9, %239
  br i1 %240, label %262, label %241

241:                                              ; preds = %233
  %242 = bitcast %"class.std::__1::__tree_end_node"* %238 to %"struct.std::__1::basic_string<char, std::__1::char_traits<char>, std::__1::allocator<char> >::__short"*
  %243 = getelementptr inbounds %"struct.std::__1::basic_string<char, std::__1::char_traits<char>, std::__1::allocator<char> >::__short", %"struct.std::__1::basic_string<char, std::__1::char_traits<char>, std::__1::allocator<char> >::__short"* %242, i64 0, i32 1, i32 0
  %244 = load i8, i8* %243, align 1
  %245 = icmp slt i8 %244, 0
  %246 = load i8, i8* %75, align 1
  %247 = icmp slt i8 %246, 0
  br i1 %245, label %255, label %248

248:                                              ; preds = %241
  br i1 %247, label %251, label %249

249:                                              ; preds = %248
  %250 = bitcast %"class.std::__1::__tree_end_node"* %238 to i8*
  call void @llvm.memcpy.p0i8.p0i8.i64(i8* align 8 %250, i8* nonnull align 8 %70, i64 24, i1 false) #14
  br label %262

251:                                              ; preds = %248
  %252 = load i8*, i8** %71, align 8
  %253 = load i64, i64* %72, align 8
  %254 = call dereferenceable(24) %"class.std::__1::basic_string"* @_ZNSt3__112basic_stringIcNS_11char_traitsIcEENS_9allocatorIcEEE17__assign_no_aliasILb1EEERS5_PKcm(%"class.std::__1::basic_string"* %239, i8* %252, i64 %253) #14
  br label %262

255:                                              ; preds = %241
  %256 = load i8*, i8** %71, align 8
  %257 = load i64, i64* %72, align 8
  %258 = zext i8 %246 to i64
  %259 = select i1 %247, i8* %256, i8* %70
  %260 = select i1 %247, i64 %257, i64 %258
  %261 = call dereferenceable(24) %"class.std::__1::basic_string"* @_ZNSt3__112basic_stringIcNS_11char_traitsIcEENS_9allocatorIcEEE17__assign_no_aliasILb0EEERS5_PKcm(%"class.std::__1::basic_string"* %239, i8* %259, i64 %260) #14
  br label %262

262:                                              ; preds = %233, %249, %251, %255
  %263 = load i8, i8* %104, align 1
  %264 = icmp slt i8 %263, 0
  br i1 %264, label %265, label %267

265:                                              ; preds = %262
  %266 = load i8*, i8** %110, align 8
  call void @_ZdlPv(i8* %266) #13
  br label %267

267:                                              ; preds = %262, %265
  call void @llvm.lifetime.end.p0i8(i64 24, i8* nonnull %102) #14
  %268 = load %"class.flatbuffers::CodeWriter"*, %"class.flatbuffers::CodeWriter"** %87, align 8
  call void @llvm.lifetime.start.p0i8(i64 24, i8* nonnull %111) #14
  store i8 3, i8* %113, align 1
  call void @llvm.memcpy.p0i8.p0i8.i64(i8* nonnull align 8 %111, i8* align 1 getelementptr inbounds ([4 x i8], [4 x i8]* @.str.28, i64 0, i64 0), i64 3, i1 false) #14
  store i8 0, i8* %114, align 1
  call void @llvm.lifetime.start.p0i8(i64 24, i8* nonnull %115) #14
  call void @llvm.memset.p0i8.i64(i8* nonnull align 8 %115, i8 0, i64 24, i1 false) #14, !alias.scope !46
  %269 = load i8, i8* %120, align 1, !noalias !46
  %270 = icmp slt i8 %269, 0
  %271 = load i64, i64* %78, align 8, !noalias !46
  %272 = zext i8 %269 to i64
  %273 = select i1 %270, i64 %271, i64 %272
  %274 = load i8, i8* %83, align 1, !noalias !46
  %275 = icmp slt i8 %274, 0
  %276 = load i64, i64* %81, align 8, !noalias !46
  %277 = zext i8 %274 to i64
  %278 = select i1 %275, i64 %276, i64 %277
  %279 = load i8*, i8** %77, align 8, !noalias !46
  %280 = select i1 %270, i8* %279, i8* %76
  %281 = add i64 %278, %273
  %282 = icmp ugt i64 %281, -17
  br i1 %282, label %283, label %285

283:                                              ; preds = %267
  %284 = bitcast %"class.std::__1::basic_string"* %16 to %"class.std::__1::__basic_string_common"*
  call void @_ZNKSt3__121__basic_string_commonILb1EE20__throw_length_errorEv(%"class.std::__1::__basic_string_common"* nonnull %284) #15
  unreachable

285:                                              ; preds = %267
  %286 = icmp ult i64 %281, 23
  br i1 %286, label %287, label %289

287:                                              ; preds = %285
  %288 = trunc i64 %273 to i8
  store i8 %288, i8* %122, align 1, !alias.scope !46
  br label %294

289:                                              ; preds = %285
  %290 = add nuw i64 %281, 16
  %291 = and i64 %290, -16
  %292 = call i8* @_Znwm(i64 %291) #13
  store i8* %292, i8** %116, align 8, !alias.scope !46
  %293 = or i64 %291, -9223372036854775808
  store i64 %293, i64* %118, align 8, !alias.scope !46
  store i64 %273, i64* %117, align 8, !alias.scope !46
  br label %294

294:                                              ; preds = %289, %287
  %295 = phi i8* [ %115, %287 ], [ %292, %289 ]
  %296 = icmp eq i64 %273, 0
  br i1 %296, label %298, label %297

297:                                              ; preds = %294
  call void @llvm.memcpy.p0i8.p0i8.i64(i8* nonnull align 1 %295, i8* align 1 %280, i64 %273, i1 false) #14
  br label %298

298:                                              ; preds = %294, %297
  %299 = getelementptr inbounds i8, i8* %295, i64 %273
  store i8 0, i8* %299, align 1
  %300 = load i8*, i8** %80, align 8, !noalias !46
  %301 = select i1 %275, i8* %300, i8* %79
  %302 = call dereferenceable(24) %"class.std::__1::basic_string"* @_ZNSt3__112basic_stringIcNS_11char_traitsIcEENS_9allocatorIcEEE6appendEPKcm(%"class.std::__1::basic_string"* nonnull %16, i8* %301, i64 %278) #14
  %303 = getelementptr inbounds %"class.flatbuffers::CodeWriter", %"class.flatbuffers::CodeWriter"* %268, i64 0, i32 0, i32 0
  call void @llvm.lifetime.start.p0i8(i64 8, i8* nonnull %123) #14
  store %"class.std::__1::basic_string"* %15, %"class.std::__1::basic_string"** %124, align 8
  call void @llvm.lifetime.start.p0i8(i64 1, i8* nonnull %125) #14
  %304 = call { %"class.std::__1::__tree_end_node"*, i8 } @_ZNSt3__16__treeINS_12__value_typeINS_12basic_stringIcNS_11char_traitsIcEENS_9allocatorIcEEEES7_EENS_19__map_value_compareIS7_S8_NS_4lessIS7_EELb1EEENS5_IS8_EEE25__emplace_unique_key_argsIS7_JRKNS_21piecewise_construct_tENS_5tupleIJRKS7_EEENSJ_IJEEEEEENS_4pairINS_15__tree_iteratorIS8_PNS_11__tree_nodeIS8_PvEElEEbEERKT_DpOT0_(%"class.std::__1::__tree.171"* %303, %"class.std::__1::basic_string"* nonnull dereferenceable(24) %15, %"struct.std::__1::piecewise_construct_t"* nonnull dereferenceable(1) @_ZNSt3__1L19piecewise_constructE, %"class.std::__1::tuple"* nonnull dereferenceable(8) %2, %"class.std::__1::tuple.231"* nonnull dereferenceable(1) %3) #14
  %305 = extractvalue { %"class.std::__1::__tree_end_node"*, i8 } %304, 0
  %306 = getelementptr inbounds %"class.std::__1::__tree_end_node", %"class.std::__1::__tree_end_node"* %305, i64 7
  %307 = bitcast %"class.std::__1::__tree_end_node"* %306 to %"class.std::__1::basic_string"*
  call void @llvm.lifetime.end.p0i8(i64 1, i8* nonnull %125) #14
  call void @llvm.lifetime.end.p0i8(i64 8, i8* nonnull %123) #14
  %308 = icmp eq %"class.std::__1::basic_string"* %16, %307
  br i1 %308, label %330, label %309

309:                                              ; preds = %298
  %310 = bitcast %"class.std::__1::__tree_end_node"* %306 to %"struct.std::__1::basic_string<char, std::__1::char_traits<char>, std::__1::allocator<char> >::__short"*
  %311 = getelementptr inbounds %"struct.std::__1::basic_string<char, std::__1::char_traits<char>, std::__1::allocator<char> >::__short", %"struct.std::__1::basic_string<char, std::__1::char_traits<char>, std::__1::allocator<char> >::__short"* %310, i64 0, i32 1, i32 0
  %312 = load i8, i8* %311, align 1
  %313 = icmp slt i8 %312, 0
  %314 = load i8, i8* %122, align 1
  %315 = icmp slt i8 %314, 0
  br i1 %313, label %323, label %316

316:                                              ; preds = %309
  br i1 %315, label %319, label %317

317:                                              ; preds = %316
  %318 = bitcast %"class.std::__1::__tree_end_node"* %306 to i8*
  call void @llvm.memcpy.p0i8.p0i8.i64(i8* align 8 %318, i8* nonnull align 8 %115, i64 24, i1 false) #14
  br label %330

319:                                              ; preds = %316
  %320 = load i8*, i8** %116, align 8
  %321 = load i64, i64* %117, align 8
  %322 = call dereferenceable(24) %"class.std::__1::basic_string"* @_ZNSt3__112basic_stringIcNS_11char_traitsIcEENS_9allocatorIcEEE17__assign_no_aliasILb1EEERS5_PKcm(%"class.std::__1::basic_string"* %307, i8* %320, i64 %321) #14
  br label %330

323:                                              ; preds = %309
  %324 = load i8*, i8** %116, align 8
  %325 = load i64, i64* %117, align 8
  %326 = zext i8 %314 to i64
  %327 = select i1 %315, i8* %324, i8* %115
  %328 = select i1 %315, i64 %325, i64 %326
  %329 = call dereferenceable(24) %"class.std::__1::basic_string"* @_ZNSt3__112basic_stringIcNS_11char_traitsIcEENS_9allocatorIcEEE17__assign_no_aliasILb0EEERS5_PKcm(%"class.std::__1::basic_string"* %307, i8* %327, i64 %328) #14
  br label %330

330:                                              ; preds = %298, %317, %319, %323
  %331 = load i8, i8* %122, align 1
  %332 = icmp slt i8 %331, 0
  br i1 %332, label %333, label %335

333:                                              ; preds = %330
  %334 = load i8*, i8** %116, align 8
  call void @_ZdlPv(i8* %334) #13
  br label %335

335:                                              ; preds = %330, %333
  call void @llvm.lifetime.end.p0i8(i64 24, i8* nonnull %115) #14
  %336 = load i8, i8* %113, align 1
  %337 = icmp slt i8 %336, 0
  br i1 %337, label %338, label %340

338:                                              ; preds = %335
  %339 = load i8*, i8** %126, align 8
  call void @_ZdlPv(i8* %339) #13
  br label %340

340:                                              ; preds = %335, %338
  call void @llvm.lifetime.end.p0i8(i64 24, i8* nonnull %111) #14
  %341 = getelementptr inbounds %"struct.flatbuffers::EnumVal", %"struct.flatbuffers::EnumVal"* %154, i64 0, i32 1
  %342 = load %"class.flatbuffers::CodeWriter"*, %"class.flatbuffers::CodeWriter"** %87, align 8
  call void @_ZNK11flatbuffers6kotlin15KotlinGenerator15GenerateCommentERKNSt3__16vectorINS2_12basic_stringIcNS2_11char_traitsIcEENS2_9allocatorIcEEEENS7_IS9_EEEERNS_10CodeWriterEPKNS_13CommentConfigE(%"class.flatbuffers::kotlin::KotlinGenerator"* %26, %"class.std::__1::vector"* dereferenceable(24) %341, %"class.flatbuffers::CodeWriter"* dereferenceable(336) %342, %"struct.flatbuffers::CommentConfig"* nonnull @_ZN11flatbuffers6kotlinL14comment_configE)
  %343 = call i8* @_Znwm(i64 48) #13
  store i8* %343, i8** %127, align 8
  store <2 x i64> <i64 38, i64 -9223372036854775760>, <2 x i64>* %134, align 8
  call void @llvm.memcpy.p0i8.p0i8.i64(i8* nonnull align 1 %343, i8* align 1 getelementptr inbounds ([39 x i8], [39 x i8]* @.str.55, i64 0, i64 0), i64 38, i1 false) #14
  %344 = getelementptr inbounds i8, i8* %343, i64 38
  store i8 0, i8* %344, align 1
  %345 = load %"class.flatbuffers::CodeWriter"*, %"class.flatbuffers::CodeWriter"** %87, align 8
  call void @_ZN11flatbuffers10CodeWriterpLENSt3__112basic_stringIcNS1_11char_traitsIcEENS1_9allocatorIcEEEE(%"class.flatbuffers::CodeWriter"* %345, %"class.std::__1::basic_string"* nonnull %17) #14
  %346 = load i8, i8* %130, align 1
  %347 = icmp slt i8 %346, 0
  br i1 %347, label %348, label %350

348:                                              ; preds = %340
  %349 = load i8*, i8** %127, align 8
  call void @_ZdlPv(i8* %349) #13
  br label %350

350:                                              ; preds = %340, %348
  %351 = load i8, i8* %83, align 1
  %352 = icmp slt i8 %351, 0
  br i1 %352, label %353, label %355

353:                                              ; preds = %350
  %354 = load i8*, i8** %80, align 8
  call void @_ZdlPv(i8* %354) #13
  br label %355

355:                                              ; preds = %350, %353
  call void @llvm.lifetime.end.p0i8(i64 24, i8* nonnull %79) #14
  %356 = load i8, i8* %120, align 1
  %357 = icmp slt i8 %356, 0
  br i1 %357, label %358, label %360

358:                                              ; preds = %355
  %359 = load i8*, i8** %77, align 8
  call void @_ZdlPv(i8* %359) #13
  br label %360

360:                                              ; preds = %355, %358
  call void @llvm.lifetime.end.p0i8(i64 24, i8* nonnull %76) #14
  %361 = load i8, i8* %75, align 1
  %362 = icmp slt i8 %361, 0
  br i1 %362, label %363, label %365

363:                                              ; preds = %360
  %364 = load i8*, i8** %71, align 8
  call void @_ZdlPv(i8* %364) #13
  br label %365

365:                                              ; preds = %360, %363
  call void @llvm.lifetime.end.p0i8(i64 24, i8* nonnull %70) #14
  %366 = getelementptr inbounds %"struct.flatbuffers::EnumVal"*, %"struct.flatbuffers::EnumVal"** %153, i64 1
  %367 = load %"struct.flatbuffers::EnumVal"**, %"struct.flatbuffers::EnumVal"*** %29, align 8
  %368 = icmp eq %"struct.flatbuffers::EnumVal"** %366, %367
  %369 = load %"struct.flatbuffers::EnumDef"*, %"struct.flatbuffers::EnumDef"** %31, align 8
  br i1 %368, label %135, label %151

370:                                              ; preds = %135
  %371 = ptrtoint %"struct.flatbuffers::EnumDef"* %140 to i64
  %372 = getelementptr inbounds %class.anon, %class.anon* %0, i64 0, i32 1
  %373 = load %"class.flatbuffers::CodeWriter"*, %"class.flatbuffers::CodeWriter"** %372, align 8
  %374 = bitcast %"class.std::__1::basic_string"* %18 to i8*
  call void @llvm.lifetime.start.p0i8(i64 24, i8* nonnull %374) #14
  %375 = bitcast %"class.std::__1::basic_string"* %18 to %"struct.std::__1::basic_string<char, std::__1::char_traits<char>, std::__1::allocator<char> >::__short"*
  %376 = getelementptr inbounds %"struct.std::__1::basic_string<char, std::__1::char_traits<char>, std::__1::allocator<char> >::__short", %"struct.std::__1::basic_string<char, std::__1::char_traits<char>, std::__1::allocator<char> >::__short"* %375, i64 0, i32 1, i32 0
  store i8 5, i8* %376, align 1
  call void @llvm.memcpy.p0i8.p0i8.i64(i8* nonnull align 8 %374, i8* align 1 getelementptr inbounds ([6 x i8], [6 x i8]* @.str.56, i64 0, i64 0), i64 5, i1 false) #14
  %377 = getelementptr inbounds i8, i8* %374, i64 5
  store i8 0, i8* %377, align 1
  %378 = bitcast %"class.std::__1::basic_string"* %19 to i8*
  call void @llvm.lifetime.start.p0i8(i64 24, i8* nonnull %378) #14
  %379 = bitcast %"class.std::__1::basic_string"* %19 to %"struct.std::__1::basic_string<char, std::__1::char_traits<char>, std::__1::allocator<char> >::__short"*
  %380 = getelementptr inbounds %"struct.std::__1::basic_string<char, std::__1::char_traits<char>, std::__1::allocator<char> >::__short", %"struct.std::__1::basic_string<char, std::__1::char_traits<char>, std::__1::allocator<char> >::__short"* %379, i64 0, i32 1, i32 0
  store i8 13, i8* %380, align 1
  call void @llvm.memcpy.p0i8.p0i8.i64(i8* nonnull align 8 %378, i8* align 1 getelementptr inbounds ([14 x i8], [14 x i8]* @.str.57, i64 0, i64 0), i64 13, i1 false) #14
  %381 = getelementptr inbounds i8, i8* %378, i64 13
  store i8 0, i8* %381, align 1
  %382 = bitcast %"class.std::__1::function"* %20 to i8*
  call void @llvm.lifetime.start.p0i8(i64 32, i8* nonnull %382) #14
  %383 = ptrtoint %"class.flatbuffers::CodeWriter"* %373 to i64
  %384 = bitcast %class.anon* %0 to i64*
  %385 = getelementptr inbounds %"class.std::__1::function", %"class.std::__1::function"* %20, i64 0, i32 0, i32 1, i32 0
  %386 = getelementptr inbounds %"class.std::__1::function", %"class.std::__1::function"* %20, i64 0, i32 0, i32 2
  store void (%"union.std::__1::__function::__policy_storage"*)* @_ZNSt3__110__function16__policy_invokerIFvvEE11__call_implINS0_20__default_alloc_funcIZZNK11flatbuffers6kotlin15KotlinGenerator7GenEnumERNS6_7EnumDefERNS6_10CodeWriterEENKUlvE_clEvEUlvE_S2_EEEEvPKNS0_16__policy_storageE, void (%"union.std::__1::__function::__policy_storage"*)** %385, align 8
  store %"struct.std::__1::__function::__policy"* @_ZZNSt3__110__function8__policy15__choose_policyINS0_20__default_alloc_funcIZZNK11flatbuffers6kotlin15KotlinGenerator7GenEnumERNS4_7EnumDefERNS4_10CodeWriterEENKUlvE_clEvEUlvE_FvvEEEEEPKS1_NS_17integral_constantIbLb0EEEE9__policy_, %"struct.std::__1::__function::__policy"** %386, align 8
  %387 = call i8* @_Znwm(i64 24) #13, !noalias !49
  %388 = bitcast i8* %387 to i64*
  store i64 %383, i64* %388, align 8
  %389 = getelementptr inbounds i8, i8* %387, i64 8
  %390 = bitcast i8* %389 to i64*
  store i64 %371, i64* %390, align 8
  %391 = getelementptr inbounds i8, i8* %387, i64 16
  %392 = bitcast i8* %391 to %"class.std::__1::vector.214"**
  store %"class.std::__1::vector.214"* %8, %"class.std::__1::vector.214"** %392, align 8
  %393 = getelementptr inbounds %"class.std::__1::function", %"class.std::__1::function"* %20, i64 0, i32 0, i32 0, i32 0
  store i8* %387, i8** %393, align 8
  call void @_ZN11flatbuffers6kotlin15KotlinGenerator23GeneratePropertyOneLineERNS_10CodeWriterERKNSt3__112basic_stringIcNS4_11char_traitsIcEENS4_9allocatorIcEEEESC_RKNS4_8functionIFvvEEE(%"class.flatbuffers::CodeWriter"* dereferenceable(336) %373, %"class.std::__1::basic_string"* nonnull dereferenceable(24) %18, %"class.std::__1::basic_string"* nonnull dereferenceable(24) %19, %"class.std::__1::function"* nonnull dereferenceable(32) %20)
  %394 = load %"struct.std::__1::__function::__policy"*, %"struct.std::__1::__function::__policy"** %386, align 8
  %395 = getelementptr inbounds %"struct.std::__1::__function::__policy", %"struct.std::__1::__function::__policy"* %394, i64 0, i32 1
  %396 = load void (i8*)*, void (i8*)** %395, align 8
  %397 = icmp eq void (i8*)* %396, null
  br i1 %397, label %400, label %398

398:                                              ; preds = %370
  %399 = load i8*, i8** %393, align 8
  call void %396(i8* %399) #14
  br label %400

400:                                              ; preds = %370, %398
  call void @llvm.lifetime.end.p0i8(i64 32, i8* nonnull %382) #14
  %401 = load i8, i8* %380, align 1
  %402 = icmp slt i8 %401, 0
  br i1 %402, label %403, label %406

403:                                              ; preds = %400
  %404 = getelementptr inbounds %"class.std::__1::basic_string", %"class.std::__1::basic_string"* %19, i64 0, i32 0, i32 0, i32 0, i32 0, i32 0, i32 0
  %405 = load i8*, i8** %404, align 8
  call void @_ZdlPv(i8* %405) #13
  br label %406

406:                                              ; preds = %400, %403
  call void @llvm.lifetime.end.p0i8(i64 24, i8* nonnull %378) #14
  %407 = load i8, i8* %376, align 1
  %408 = icmp slt i8 %407, 0
  br i1 %408, label %409, label %412

409:                                              ; preds = %406
  %410 = getelementptr inbounds %"class.std::__1::basic_string", %"class.std::__1::basic_string"* %18, i64 0, i32 0, i32 0, i32 0, i32 0, i32 0, i32 0
  %411 = load i8*, i8** %410, align 8
  call void @_ZdlPv(i8* %411) #13
  br label %412

412:                                              ; preds = %406, %409
  call void @llvm.lifetime.end.p0i8(i64 24, i8* nonnull %374) #14
  %413 = load %"class.flatbuffers::CodeWriter"*, %"class.flatbuffers::CodeWriter"** %372, align 8
  %414 = bitcast %"class.std::__1::basic_string"* %21 to i8*
  call void @llvm.lifetime.start.p0i8(i64 24, i8* nonnull %414) #14
  %415 = bitcast %"class.std::__1::basic_string"* %21 to %"struct.std::__1::basic_string<char, std::__1::char_traits<char>, std::__1::allocator<char> >::__short"*
  %416 = getelementptr inbounds %"struct.std::__1::basic_string<char, std::__1::char_traits<char>, std::__1::allocator<char> >::__short", %"struct.std::__1::basic_string<char, std::__1::char_traits<char>, std::__1::allocator<char> >::__short"* %415, i64 0, i32 1, i32 0
  store i8 4, i8* %416, align 1
  %417 = bitcast %"class.std::__1::basic_string"* %21 to i32*
  store i32 1701667182, i32* %417, align 8
  %418 = getelementptr inbounds i8, i8* %414, i64 4
  store i8 0, i8* %418, align 4
  %419 = bitcast %"class.std::__1::basic_string"* %22 to i8*
  call void @llvm.lifetime.start.p0i8(i64 24, i8* nonnull %419) #14
  %420 = bitcast %"class.std::__1::basic_string"* %22 to %"struct.std::__1::basic_string<char, std::__1::char_traits<char>, std::__1::allocator<char> >::__short"*
  %421 = getelementptr inbounds %"struct.std::__1::basic_string<char, std::__1::char_traits<char>, std::__1::allocator<char> >::__short", %"struct.std::__1::basic_string<char, std::__1::char_traits<char>, std::__1::allocator<char> >::__short"* %420, i64 0, i32 1, i32 0
  store i8 6, i8* %421, align 1
  call void @llvm.memcpy.p0i8.p0i8.i64(i8* nonnull align 8 %419, i8* align 1 getelementptr inbounds ([7 x i8], [7 x i8]* @.str.58, i64 0, i64 0), i64 6, i1 false) #14
  %422 = getelementptr inbounds i8, i8* %419, i64 6
  store i8 0, i8* %422, align 2
  %423 = bitcast %"class.std::__1::basic_string"* %23 to i8*
  call void @llvm.lifetime.start.p0i8(i64 24, i8* nonnull %423) #14
  %424 = bitcast %"class.std::__1::basic_string"* %23 to %"struct.std::__1::basic_string<char, std::__1::char_traits<char>, std::__1::allocator<char> >::__short"*
  %425 = getelementptr inbounds %"struct.std::__1::basic_string<char, std::__1::char_traits<char>, std::__1::allocator<char> >::__short", %"struct.std::__1::basic_string<char, std::__1::char_traits<char>, std::__1::allocator<char> >::__short"* %424, i64 0, i32 1, i32 0
  store i8 6, i8* %425, align 1
  call void @llvm.memcpy.p0i8.p0i8.i64(i8* nonnull align 8 %423, i8* align 1 getelementptr inbounds ([7 x i8], [7 x i8]* @.str.59, i64 0, i64 0), i64 6, i1 false) #14
  %426 = getelementptr inbounds i8, i8* %423, i64 6
  store i8 0, i8* %426, align 2
  %427 = bitcast %"class.std::__1::function"* %24 to i8*
  call void @llvm.lifetime.start.p0i8(i64 32, i8* nonnull %427) #14
  %428 = ptrtoint %"class.flatbuffers::CodeWriter"* %413 to i64
  %429 = load i64, i64* %384, align 8
  %430 = getelementptr inbounds %"class.std::__1::function", %"class.std::__1::function"* %24, i64 0, i32 0, i32 1, i32 0
  %431 = getelementptr inbounds %"class.std::__1::function", %"class.std::__1::function"* %24, i64 0, i32 0, i32 2
  store void (%"union.std::__1::__function::__policy_storage"*)* @_ZNSt3__110__function16__policy_invokerIFvvEE11__call_implINS0_20__default_alloc_funcIZZNK11flatbuffers6kotlin15KotlinGenerator7GenEnumERNS6_7EnumDefERNS6_10CodeWriterEENKUlvE_clEvEUlvE0_S2_EEEEvPKNS0_16__policy_storageE, void (%"union.std::__1::__function::__policy_storage"*)** %430, align 8
  store %"struct.std::__1::__function::__policy"* @_ZZNSt3__110__function8__policy15__choose_policyINS0_20__default_alloc_funcIZZNK11flatbuffers6kotlin15KotlinGenerator7GenEnumERNS4_7EnumDefERNS4_10CodeWriterEENKUlvE_clEvEUlvE0_FvvEEEEEPKS1_NS_17integral_constantIbLb1EEEE9__policy_, %"struct.std::__1::__function::__policy"** %431, align 8
  %432 = bitcast %"class.std::__1::function"* %24 to i64*
  store i64 %428, i64* %432, align 8
  %433 = getelementptr inbounds %"class.std::__1::function", %"class.std::__1::function"* %24, i64 0, i32 0, i32 0, i32 1
  %434 = bitcast [8 x i8]* %433 to i64*
  store i64 %429, i64* %434, align 8
  call void @_ZN11flatbuffers6kotlin15KotlinGenerator18GenerateFunOneLineERNS_10CodeWriterERKNSt3__112basic_stringIcNS4_11char_traitsIcEENS4_9allocatorIcEEEESC_SC_RKNS4_8functionIFvvEEE(%"class.flatbuffers::CodeWriter"* dereferenceable(336) %413, %"class.std::__1::basic_string"* nonnull dereferenceable(24) %21, %"class.std::__1::basic_string"* nonnull dereferenceable(24) %22, %"class.std::__1::basic_string"* nonnull dereferenceable(24) %23, %"class.std::__1::function"* nonnull dereferenceable(32) %24)
  %435 = load %"struct.std::__1::__function::__policy"*, %"struct.std::__1::__function::__policy"** %431, align 8
  %436 = getelementptr inbounds %"struct.std::__1::__function::__policy", %"struct.std::__1::__function::__policy"* %435, i64 0, i32 1
  %437 = load void (i8*)*, void (i8*)** %436, align 8
  %438 = icmp eq void (i8*)* %437, null
  br i1 %438, label %442, label %439

439:                                              ; preds = %412
  %440 = getelementptr inbounds %"class.std::__1::function", %"class.std::__1::function"* %24, i64 0, i32 0, i32 0, i32 0
  %441 = load i8*, i8** %440, align 8
  call void %437(i8* %441) #14
  br label %442

442:                                              ; preds = %412, %439
  call void @llvm.lifetime.end.p0i8(i64 32, i8* nonnull %427) #14
  %443 = load i8, i8* %425, align 1
  %444 = icmp slt i8 %443, 0
  br i1 %444, label %445, label %448

445:                                              ; preds = %442
  %446 = getelementptr inbounds %"class.std::__1::basic_string", %"class.std::__1::basic_string"* %23, i64 0, i32 0, i32 0, i32 0, i32 0, i32 0, i32 0
  %447 = load i8*, i8** %446, align 8
  call void @_ZdlPv(i8* %447) #13
  br label %448

448:                                              ; preds = %442, %445
  call void @llvm.lifetime.end.p0i8(i64 24, i8* nonnull %423) #14
  %449 = load i8, i8* %421, align 1
  %450 = icmp slt i8 %449, 0
  br i1 %450, label %451, label %454

451:                                              ; preds = %448
  %452 = getelementptr inbounds %"class.std::__1::basic_string", %"class.std::__1::basic_string"* %22, i64 0, i32 0, i32 0, i32 0, i32 0, i32 0, i32 0
  %453 = load i8*, i8** %452, align 8
  call void @_ZdlPv(i8* %453) #13
  br label %454

454:                                              ; preds = %448, %451
  call void @llvm.lifetime.end.p0i8(i64 24, i8* nonnull %419) #14
  %455 = load i8, i8* %416, align 1
  %456 = icmp slt i8 %455, 0
  br i1 %456, label %457, label %460

457:                                              ; preds = %454
  %458 = getelementptr inbounds %"class.std::__1::basic_string", %"class.std::__1::basic_string"* %21, i64 0, i32 0, i32 0, i32 0, i32 0, i32 0, i32 0
  %459 = load i8*, i8** %458, align 8
  call void @_ZdlPv(i8* %459) #13
  br label %460

460:                                              ; preds = %454, %457
  call void @llvm.lifetime.end.p0i8(i64 24, i8* nonnull %414) #14
  br label %461

461:                                              ; preds = %460, %135
  %462 = load %"struct.flatbuffers::EnumVal"**, %"struct.flatbuffers::EnumVal"*** %28, align 8
  %463 = icmp eq %"struct.flatbuffers::EnumVal"** %462, null
  br i1 %463, label %468, label %464

464:                                              ; preds = %461
  %465 = ptrtoint %"struct.flatbuffers::EnumVal"** %462 to i64
  %466 = bitcast %"struct.flatbuffers::EnumVal"*** %29 to i64*
  store i64 %465, i64* %466, align 8
  %467 = bitcast %"struct.flatbuffers::EnumVal"** %462 to i8*
  call void @_ZdlPv(i8* %467) #13
  br label %468

468:                                              ; preds = %461, %464
  call void @llvm.lifetime.end.p0i8(i64 24, i8* nonnull %27) #14
  ret void
}

; Function Attrs: nounwind ssp uwtable
define linkonce_odr hidden void @_ZN11flatbuffers6kotlin15KotlinGenerator23GeneratePropertyOneLineERNS_10CodeWriterERKNSt3__112basic_stringIcNS4_11char_traitsIcEENS4_9allocatorIcEEEESC_RKNS4_8functionIFvvEEE(%"class.flatbuffers::CodeWriter"* dereferenceable(336), %"class.std::__1::basic_string"* dereferenceable(24), %"class.std::__1::basic_string"* dereferenceable(24), %"class.std::__1::function"* dereferenceable(32)) local_unnamed_addr #3 comdat align 2 {
  %5 = alloca %"class.std::__1::tuple", align 8
  %6 = alloca %"class.std::__1::tuple.231", align 1
  %7 = alloca %"class.std::__1::tuple", align 8
  %8 = alloca %"class.std::__1::tuple.231", align 1
  %9 = alloca %"class.std::__1::basic_string", align 8
  %10 = alloca %"class.std::__1::basic_string", align 8
  %11 = alloca %"class.std::__1::basic_string", align 8
  %12 = bitcast %"class.std::__1::basic_string"* %9 to i8*
  call void @llvm.lifetime.start.p0i8(i64 24, i8* nonnull %12) #14
  %13 = bitcast %"class.std::__1::basic_string"* %9 to %"struct.std::__1::basic_string<char, std::__1::char_traits<char>, std::__1::allocator<char> >::__short"*
  %14 = getelementptr inbounds %"struct.std::__1::basic_string<char, std::__1::char_traits<char>, std::__1::allocator<char> >::__short", %"struct.std::__1::basic_string<char, std::__1::char_traits<char>, std::__1::allocator<char> >::__short"* %13, i64 0, i32 1, i32 0
  store i8 5, i8* %14, align 1
  call void @llvm.memcpy.p0i8.p0i8.i64(i8* nonnull align 8 %12, i8* align 1 getelementptr inbounds ([6 x i8], [6 x i8]* @.str.74, i64 0, i64 0), i64 5, i1 false) #14
  %15 = getelementptr inbounds i8, i8* %12, i64 5
  store i8 0, i8* %15, align 1
  %16 = getelementptr inbounds %"class.flatbuffers::CodeWriter", %"class.flatbuffers::CodeWriter"* %0, i64 0, i32 0, i32 0
  %17 = bitcast %"class.std::__1::tuple"* %7 to i8*
  call void @llvm.lifetime.start.p0i8(i64 8, i8* nonnull %17) #14
  %18 = getelementptr inbounds %"class.std::__1::tuple", %"class.std::__1::tuple"* %7, i64 0, i32 0, i32 0, i32 0
  store %"class.std::__1::basic_string"* %9, %"class.std::__1::basic_string"** %18, align 8
  %19 = getelementptr inbounds %"class.std::__1::tuple.231", %"class.std::__1::tuple.231"* %8, i64 0, i32 0
  call void @llvm.lifetime.start.p0i8(i64 1, i8* nonnull %19) #14
  %20 = call { %"class.std::__1::__tree_end_node"*, i8 } @_ZNSt3__16__treeINS_12__value_typeINS_12basic_stringIcNS_11char_traitsIcEENS_9allocatorIcEEEES7_EENS_19__map_value_compareIS7_S8_NS_4lessIS7_EELb1EEENS5_IS8_EEE25__emplace_unique_key_argsIS7_JRKNS_21piecewise_construct_tENS_5tupleIJRKS7_EEENSJ_IJEEEEEENS_4pairINS_15__tree_iteratorIS8_PNS_11__tree_nodeIS8_PvEElEEbEERKT_DpOT0_(%"class.std::__1::__tree.171"* %16, %"class.std::__1::basic_string"* nonnull dereferenceable(24) %9, %"struct.std::__1::piecewise_construct_t"* nonnull dereferenceable(1) @_ZNSt3__1L19piecewise_constructE, %"class.std::__1::tuple"* nonnull dereferenceable(8) %7, %"class.std::__1::tuple.231"* nonnull dereferenceable(1) %8) #14
  %21 = extractvalue { %"class.std::__1::__tree_end_node"*, i8 } %20, 0
  %22 = getelementptr inbounds %"class.std::__1::__tree_end_node", %"class.std::__1::__tree_end_node"* %21, i64 7
  %23 = bitcast %"class.std::__1::__tree_end_node"* %22 to %"class.std::__1::basic_string"*
  call void @llvm.lifetime.end.p0i8(i64 1, i8* nonnull %19) #14
  call void @llvm.lifetime.end.p0i8(i64 8, i8* nonnull %17) #14
  %24 = icmp eq %"class.std::__1::basic_string"* %23, %1
  br i1 %24, label %54, label %25

25:                                               ; preds = %4
  %26 = bitcast %"class.std::__1::__tree_end_node"* %22 to %"struct.std::__1::basic_string<char, std::__1::char_traits<char>, std::__1::allocator<char> >::__short"*
  %27 = getelementptr inbounds %"struct.std::__1::basic_string<char, std::__1::char_traits<char>, std::__1::allocator<char> >::__short", %"struct.std::__1::basic_string<char, std::__1::char_traits<char>, std::__1::allocator<char> >::__short"* %26, i64 0, i32 1, i32 0
  %28 = load i8, i8* %27, align 1
  %29 = icmp slt i8 %28, 0
  %30 = bitcast %"class.std::__1::basic_string"* %1 to %"struct.std::__1::basic_string<char, std::__1::char_traits<char>, std::__1::allocator<char> >::__short"*
  %31 = getelementptr inbounds %"struct.std::__1::basic_string<char, std::__1::char_traits<char>, std::__1::allocator<char> >::__short", %"struct.std::__1::basic_string<char, std::__1::char_traits<char>, std::__1::allocator<char> >::__short"* %30, i64 0, i32 1, i32 0
  %32 = load i8, i8* %31, align 1
  %33 = icmp slt i8 %32, 0
  br i1 %29, label %44, label %34

34:                                               ; preds = %25
  br i1 %33, label %38, label %35

35:                                               ; preds = %34
  %36 = bitcast %"class.std::__1::__tree_end_node"* %22 to i8*
  %37 = bitcast %"class.std::__1::basic_string"* %1 to i8*
  call void @llvm.memcpy.p0i8.p0i8.i64(i8* align 8 %36, i8* align 8 %37, i64 24, i1 false) #14
  br label %54

38:                                               ; preds = %34
  %39 = getelementptr inbounds %"class.std::__1::basic_string", %"class.std::__1::basic_string"* %1, i64 0, i32 0, i32 0, i32 0, i32 0, i32 0, i32 0
  %40 = load i8*, i8** %39, align 8
  %41 = getelementptr inbounds %"class.std::__1::basic_string", %"class.std::__1::basic_string"* %1, i64 0, i32 0, i32 0, i32 0, i32 0, i32 0, i32 1
  %42 = load i64, i64* %41, align 8
  %43 = call dereferenceable(24) %"class.std::__1::basic_string"* @_ZNSt3__112basic_stringIcNS_11char_traitsIcEENS_9allocatorIcEEE17__assign_no_aliasILb1EEERS5_PKcm(%"class.std::__1::basic_string"* %23, i8* %40, i64 %42) #14
  br label %54

44:                                               ; preds = %25
  %45 = getelementptr inbounds %"class.std::__1::basic_string", %"class.std::__1::basic_string"* %1, i64 0, i32 0, i32 0, i32 0, i32 0, i32 0, i32 0
  %46 = load i8*, i8** %45, align 8
  %47 = getelementptr inbounds %"class.std::__1::basic_string", %"class.std::__1::basic_string"* %1, i64 0, i32 0, i32 0, i32 0, i32 0, i32 0, i32 1
  %48 = load i64, i64* %47, align 8
  %49 = bitcast %"class.std::__1::basic_string"* %1 to i8*
  %50 = zext i8 %32 to i64
  %51 = select i1 %33, i8* %46, i8* %49
  %52 = select i1 %33, i64 %48, i64 %50
  %53 = call dereferenceable(24) %"class.std::__1::basic_string"* @_ZNSt3__112basic_stringIcNS_11char_traitsIcEENS_9allocatorIcEEE17__assign_no_aliasILb0EEERS5_PKcm(%"class.std::__1::basic_string"* %23, i8* %51, i64 %52) #14
  br label %54

54:                                               ; preds = %4, %35, %38, %44
  %55 = load i8, i8* %14, align 1
  %56 = icmp slt i8 %55, 0
  br i1 %56, label %57, label %60

57:                                               ; preds = %54
  %58 = getelementptr inbounds %"class.std::__1::basic_string", %"class.std::__1::basic_string"* %9, i64 0, i32 0, i32 0, i32 0, i32 0, i32 0, i32 0
  %59 = load i8*, i8** %58, align 8
  call void @_ZdlPv(i8* %59) #13
  br label %60

60:                                               ; preds = %54, %57
  call void @llvm.lifetime.end.p0i8(i64 24, i8* nonnull %12) #14
  %61 = bitcast %"class.std::__1::basic_string"* %10 to i8*
  call void @llvm.lifetime.start.p0i8(i64 24, i8* nonnull %61) #14
  %62 = bitcast %"class.std::__1::basic_string"* %10 to %"struct.std::__1::basic_string<char, std::__1::char_traits<char>, std::__1::allocator<char> >::__short"*
  %63 = getelementptr inbounds %"struct.std::__1::basic_string<char, std::__1::char_traits<char>, std::__1::allocator<char> >::__short", %"struct.std::__1::basic_string<char, std::__1::char_traits<char>, std::__1::allocator<char> >::__short"* %62, i64 0, i32 1, i32 0
  store i8 5, i8* %63, align 1
  call void @llvm.memcpy.p0i8.p0i8.i64(i8* nonnull align 8 %61, i8* align 1 getelementptr inbounds ([6 x i8], [6 x i8]* @.str.75, i64 0, i64 0), i64 5, i1 false) #14
  %64 = getelementptr inbounds i8, i8* %61, i64 5
  store i8 0, i8* %64, align 1
  %65 = bitcast %"class.std::__1::tuple"* %5 to i8*
  call void @llvm.lifetime.start.p0i8(i64 8, i8* nonnull %65) #14
  %66 = getelementptr inbounds %"class.std::__1::tuple", %"class.std::__1::tuple"* %5, i64 0, i32 0, i32 0, i32 0
  store %"class.std::__1::basic_string"* %10, %"class.std::__1::basic_string"** %66, align 8
  %67 = getelementptr inbounds %"class.std::__1::tuple.231", %"class.std::__1::tuple.231"* %6, i64 0, i32 0
  call void @llvm.lifetime.start.p0i8(i64 1, i8* nonnull %67) #14
  %68 = call { %"class.std::__1::__tree_end_node"*, i8 } @_ZNSt3__16__treeINS_12__value_typeINS_12basic_stringIcNS_11char_traitsIcEENS_9allocatorIcEEEES7_EENS_19__map_value_compareIS7_S8_NS_4lessIS7_EELb1EEENS5_IS8_EEE25__emplace_unique_key_argsIS7_JRKNS_21piecewise_construct_tENS_5tupleIJRKS7_EEENSJ_IJEEEEEENS_4pairINS_15__tree_iteratorIS8_PNS_11__tree_nodeIS8_PvEElEEbEERKT_DpOT0_(%"class.std::__1::__tree.171"* %16, %"class.std::__1::basic_string"* nonnull dereferenceable(24) %10, %"struct.std::__1::piecewise_construct_t"* nonnull dereferenceable(1) @_ZNSt3__1L19piecewise_constructE, %"class.std::__1::tuple"* nonnull dereferenceable(8) %5, %"class.std::__1::tuple.231"* nonnull dereferenceable(1) %6) #14
  %69 = extractvalue { %"class.std::__1::__tree_end_node"*, i8 } %68, 0
  %70 = getelementptr inbounds %"class.std::__1::__tree_end_node", %"class.std::__1::__tree_end_node"* %69, i64 7
  %71 = bitcast %"class.std::__1::__tree_end_node"* %70 to %"class.std::__1::basic_string"*
  call void @llvm.lifetime.end.p0i8(i64 1, i8* nonnull %67) #14
  call void @llvm.lifetime.end.p0i8(i64 8, i8* nonnull %65) #14
  %72 = icmp eq %"class.std::__1::basic_string"* %71, %2
  br i1 %72, label %102, label %73

73:                                               ; preds = %60
  %74 = bitcast %"class.std::__1::__tree_end_node"* %70 to %"struct.std::__1::basic_string<char, std::__1::char_traits<char>, std::__1::allocator<char> >::__short"*
  %75 = getelementptr inbounds %"struct.std::__1::basic_string<char, std::__1::char_traits<char>, std::__1::allocator<char> >::__short", %"struct.std::__1::basic_string<char, std::__1::char_traits<char>, std::__1::allocator<char> >::__short"* %74, i64 0, i32 1, i32 0
  %76 = load i8, i8* %75, align 1
  %77 = icmp slt i8 %76, 0
  %78 = bitcast %"class.std::__1::basic_string"* %2 to %"struct.std::__1::basic_string<char, std::__1::char_traits<char>, std::__1::allocator<char> >::__short"*
  %79 = getelementptr inbounds %"struct.std::__1::basic_string<char, std::__1::char_traits<char>, std::__1::allocator<char> >::__short", %"struct.std::__1::basic_string<char, std::__1::char_traits<char>, std::__1::allocator<char> >::__short"* %78, i64 0, i32 1, i32 0
  %80 = load i8, i8* %79, align 1
  %81 = icmp slt i8 %80, 0
  br i1 %77, label %92, label %82

82:                                               ; preds = %73
  br i1 %81, label %86, label %83

83:                                               ; preds = %82
  %84 = bitcast %"class.std::__1::__tree_end_node"* %70 to i8*
  %85 = bitcast %"class.std::__1::basic_string"* %2 to i8*
  call void @llvm.memcpy.p0i8.p0i8.i64(i8* align 8 %84, i8* align 8 %85, i64 24, i1 false) #14
  br label %102

86:                                               ; preds = %82
  %87 = getelementptr inbounds %"class.std::__1::basic_string", %"class.std::__1::basic_string"* %2, i64 0, i32 0, i32 0, i32 0, i32 0, i32 0, i32 0
  %88 = load i8*, i8** %87, align 8
  %89 = getelementptr inbounds %"class.std::__1::basic_string", %"class.std::__1::basic_string"* %2, i64 0, i32 0, i32 0, i32 0, i32 0, i32 0, i32 1
  %90 = load i64, i64* %89, align 8
  %91 = call dereferenceable(24) %"class.std::__1::basic_string"* @_ZNSt3__112basic_stringIcNS_11char_traitsIcEENS_9allocatorIcEEE17__assign_no_aliasILb1EEERS5_PKcm(%"class.std::__1::basic_string"* %71, i8* %88, i64 %90) #14
  br label %102

92:                                               ; preds = %73
  %93 = getelementptr inbounds %"class.std::__1::basic_string", %"class.std::__1::basic_string"* %2, i64 0, i32 0, i32 0, i32 0, i32 0, i32 0, i32 0
  %94 = load i8*, i8** %93, align 8
  %95 = getelementptr inbounds %"class.std::__1::basic_string", %"class.std::__1::basic_string"* %2, i64 0, i32 0, i32 0, i32 0, i32 0, i32 0, i32 1
  %96 = load i64, i64* %95, align 8
  %97 = bitcast %"class.std::__1::basic_string"* %2 to i8*
  %98 = zext i8 %80 to i64
  %99 = select i1 %81, i8* %94, i8* %97
  %100 = select i1 %81, i64 %96, i64 %98
  %101 = call dereferenceable(24) %"class.std::__1::basic_string"* @_ZNSt3__112basic_stringIcNS_11char_traitsIcEENS_9allocatorIcEEE17__assign_no_aliasILb0EEERS5_PKcm(%"class.std::__1::basic_string"* %71, i8* %99, i64 %100) #14
  br label %102

102:                                              ; preds = %60, %83, %86, %92
  %103 = load i8, i8* %63, align 1
  %104 = icmp slt i8 %103, 0
  br i1 %104, label %105, label %108

105:                                              ; preds = %102
  %106 = getelementptr inbounds %"class.std::__1::basic_string", %"class.std::__1::basic_string"* %10, i64 0, i32 0, i32 0, i32 0, i32 0, i32 0, i32 0
  %107 = load i8*, i8** %106, align 8
  call void @_ZdlPv(i8* %107) #13
  br label %108

108:                                              ; preds = %102, %105
  call void @llvm.lifetime.end.p0i8(i64 24, i8* nonnull %61) #14
  %109 = call i8* @_Znwm(i64 32) #13
  %110 = getelementptr inbounds %"class.std::__1::basic_string", %"class.std::__1::basic_string"* %11, i64 0, i32 0, i32 0, i32 0, i32 0, i32 0, i32 0
  store i8* %109, i8** %110, align 8
  %111 = getelementptr inbounds %"class.std::__1::basic_string", %"class.std::__1::basic_string"* %11, i64 0, i32 0, i32 0, i32 0, i32 0, i32 0, i32 1
  %112 = bitcast i64* %111 to <2 x i64>*
  store <2 x i64> <i64 29, i64 -9223372036854775776>, <2 x i64>* %112, align 8
  call void @llvm.memcpy.p0i8.p0i8.i64(i8* nonnull align 1 %109, i8* align 1 getelementptr inbounds ([30 x i8], [30 x i8]* @.str.76, i64 0, i64 0), i64 29, i1 false) #14
  %113 = getelementptr inbounds i8, i8* %109, i64 29
  store i8 0, i8* %113, align 1
  call void @_ZN11flatbuffers10CodeWriterpLENSt3__112basic_stringIcNS1_11char_traitsIcEENS1_9allocatorIcEEEE(%"class.flatbuffers::CodeWriter"* %0, %"class.std::__1::basic_string"* nonnull %11) #14
  %114 = bitcast %"class.std::__1::basic_string"* %11 to %"struct.std::__1::basic_string<char, std::__1::char_traits<char>, std::__1::allocator<char> >::__short"*
  %115 = getelementptr inbounds %"struct.std::__1::basic_string<char, std::__1::char_traits<char>, std::__1::allocator<char> >::__short", %"struct.std::__1::basic_string<char, std::__1::char_traits<char>, std::__1::allocator<char> >::__short"* %114, i64 0, i32 1, i32 0
  %116 = load i8, i8* %115, align 1
  %117 = icmp slt i8 %116, 0
  br i1 %117, label %118, label %120

118:                                              ; preds = %108
  %119 = load i8*, i8** %110, align 8
  call void @_ZdlPv(i8* %119) #13
  br label %120

120:                                              ; preds = %108, %118
  %121 = getelementptr inbounds %"class.std::__1::function", %"class.std::__1::function"* %3, i64 0, i32 0, i32 1, i32 0
  %122 = load void (%"union.std::__1::__function::__policy_storage"*)*, void (%"union.std::__1::__function::__policy_storage"*)** %121, align 8
  %123 = getelementptr inbounds %"class.std::__1::function", %"class.std::__1::function"* %3, i64 0, i32 0, i32 0
  call void %122(%"union.std::__1::__function::__policy_storage"* %123) #14
  ret void
}

; Function Attrs: nounwind ssp uwtable
define linkonce_odr hidden void @_ZN11flatbuffers6kotlin15KotlinGenerator18GenerateFunOneLineERNS_10CodeWriterERKNSt3__112basic_stringIcNS4_11char_traitsIcEENS4_9allocatorIcEEEESC_SC_RKNS4_8functionIFvvEEE(%"class.flatbuffers::CodeWriter"* dereferenceable(336), %"class.std::__1::basic_string"* dereferenceable(24), %"class.std::__1::basic_string"* dereferenceable(24), %"class.std::__1::basic_string"* dereferenceable(24), %"class.std::__1::function"* dereferenceable(32)) local_unnamed_addr #3 comdat align 2 {
  %6 = alloca %"class.std::__1::tuple", align 8
  %7 = alloca %"class.std::__1::tuple.231", align 1
  %8 = alloca %"class.std::__1::tuple", align 8
  %9 = alloca %"class.std::__1::tuple.231", align 1
  %10 = alloca %"class.std::__1::tuple", align 8
  %11 = alloca %"class.std::__1::tuple.231", align 1
  %12 = alloca %"class.std::__1::basic_string", align 8
  %13 = alloca %"class.std::__1::basic_string", align 8
  %14 = alloca %"class.std::__1::basic_string", align 8
  %15 = alloca %"class.std::__1::basic_string", align 8
  %16 = alloca %"class.std::__1::basic_string", align 8
  %17 = bitcast %"class.std::__1::basic_string"* %12 to i8*
  call void @llvm.lifetime.start.p0i8(i64 24, i8* nonnull %17) #14
  %18 = bitcast %"class.std::__1::basic_string"* %12 to %"struct.std::__1::basic_string<char, std::__1::char_traits<char>, std::__1::allocator<char> >::__short"*
  %19 = getelementptr inbounds %"struct.std::__1::basic_string<char, std::__1::char_traits<char>, std::__1::allocator<char> >::__short", %"struct.std::__1::basic_string<char, std::__1::char_traits<char>, std::__1::allocator<char> >::__short"* %18, i64 0, i32 1, i32 0
  store i8 4, i8* %19, align 1
  %20 = bitcast %"class.std::__1::basic_string"* %12 to i32*
  store i32 1701667182, i32* %20, align 8
  %21 = getelementptr inbounds i8, i8* %17, i64 4
  store i8 0, i8* %21, align 4
  %22 = getelementptr inbounds %"class.flatbuffers::CodeWriter", %"class.flatbuffers::CodeWriter"* %0, i64 0, i32 0, i32 0
  %23 = bitcast %"class.std::__1::tuple"* %10 to i8*
  call void @llvm.lifetime.start.p0i8(i64 8, i8* nonnull %23) #14
  %24 = getelementptr inbounds %"class.std::__1::tuple", %"class.std::__1::tuple"* %10, i64 0, i32 0, i32 0, i32 0
  store %"class.std::__1::basic_string"* %12, %"class.std::__1::basic_string"** %24, align 8
  %25 = getelementptr inbounds %"class.std::__1::tuple.231", %"class.std::__1::tuple.231"* %11, i64 0, i32 0
  call void @llvm.lifetime.start.p0i8(i64 1, i8* nonnull %25) #14
  %26 = call { %"class.std::__1::__tree_end_node"*, i8 } @_ZNSt3__16__treeINS_12__value_typeINS_12basic_stringIcNS_11char_traitsIcEENS_9allocatorIcEEEES7_EENS_19__map_value_compareIS7_S8_NS_4lessIS7_EELb1EEENS5_IS8_EEE25__emplace_unique_key_argsIS7_JRKNS_21piecewise_construct_tENS_5tupleIJRKS7_EEENSJ_IJEEEEEENS_4pairINS_15__tree_iteratorIS8_PNS_11__tree_nodeIS8_PvEElEEbEERKT_DpOT0_(%"class.std::__1::__tree.171"* %22, %"class.std::__1::basic_string"* nonnull dereferenceable(24) %12, %"struct.std::__1::piecewise_construct_t"* nonnull dereferenceable(1) @_ZNSt3__1L19piecewise_constructE, %"class.std::__1::tuple"* nonnull dereferenceable(8) %10, %"class.std::__1::tuple.231"* nonnull dereferenceable(1) %11) #14
  %27 = extractvalue { %"class.std::__1::__tree_end_node"*, i8 } %26, 0
  %28 = getelementptr inbounds %"class.std::__1::__tree_end_node", %"class.std::__1::__tree_end_node"* %27, i64 7
  %29 = bitcast %"class.std::__1::__tree_end_node"* %28 to %"class.std::__1::basic_string"*
  call void @llvm.lifetime.end.p0i8(i64 1, i8* nonnull %25) #14
  call void @llvm.lifetime.end.p0i8(i64 8, i8* nonnull %23) #14
  %30 = icmp eq %"class.std::__1::basic_string"* %29, %1
  br i1 %30, label %60, label %31

31:                                               ; preds = %5
  %32 = bitcast %"class.std::__1::__tree_end_node"* %28 to %"struct.std::__1::basic_string<char, std::__1::char_traits<char>, std::__1::allocator<char> >::__short"*
  %33 = getelementptr inbounds %"struct.std::__1::basic_string<char, std::__1::char_traits<char>, std::__1::allocator<char> >::__short", %"struct.std::__1::basic_string<char, std::__1::char_traits<char>, std::__1::allocator<char> >::__short"* %32, i64 0, i32 1, i32 0
  %34 = load i8, i8* %33, align 1
  %35 = icmp slt i8 %34, 0
  %36 = bitcast %"class.std::__1::basic_string"* %1 to %"struct.std::__1::basic_string<char, std::__1::char_traits<char>, std::__1::allocator<char> >::__short"*
  %37 = getelementptr inbounds %"struct.std::__1::basic_string<char, std::__1::char_traits<char>, std::__1::allocator<char> >::__short", %"struct.std::__1::basic_string<char, std::__1::char_traits<char>, std::__1::allocator<char> >::__short"* %36, i64 0, i32 1, i32 0
  %38 = load i8, i8* %37, align 1
  %39 = icmp slt i8 %38, 0
  br i1 %35, label %50, label %40

40:                                               ; preds = %31
  br i1 %39, label %44, label %41

41:                                               ; preds = %40
  %42 = bitcast %"class.std::__1::__tree_end_node"* %28 to i8*
  %43 = bitcast %"class.std::__1::basic_string"* %1 to i8*
  call void @llvm.memcpy.p0i8.p0i8.i64(i8* align 8 %42, i8* align 8 %43, i64 24, i1 false) #14
  br label %60

44:                                               ; preds = %40
  %45 = getelementptr inbounds %"class.std::__1::basic_string", %"class.std::__1::basic_string"* %1, i64 0, i32 0, i32 0, i32 0, i32 0, i32 0, i32 0
  %46 = load i8*, i8** %45, align 8
  %47 = getelementptr inbounds %"class.std::__1::basic_string", %"class.std::__1::basic_string"* %1, i64 0, i32 0, i32 0, i32 0, i32 0, i32 0, i32 1
  %48 = load i64, i64* %47, align 8
  %49 = call dereferenceable(24) %"class.std::__1::basic_string"* @_ZNSt3__112basic_stringIcNS_11char_traitsIcEENS_9allocatorIcEEE17__assign_no_aliasILb1EEERS5_PKcm(%"class.std::__1::basic_string"* %29, i8* %46, i64 %48) #14
  br label %60

50:                                               ; preds = %31
  %51 = getelementptr inbounds %"class.std::__1::basic_string", %"class.std::__1::basic_string"* %1, i64 0, i32 0, i32 0, i32 0, i32 0, i32 0, i32 0
  %52 = load i8*, i8** %51, align 8
  %53 = getelementptr inbounds %"class.std::__1::basic_string", %"class.std::__1::basic_string"* %1, i64 0, i32 0, i32 0, i32 0, i32 0, i32 0, i32 1
  %54 = load i64, i64* %53, align 8
  %55 = bitcast %"class.std::__1::basic_string"* %1 to i8*
  %56 = zext i8 %38 to i64
  %57 = select i1 %39, i8* %52, i8* %55
  %58 = select i1 %39, i64 %54, i64 %56
  %59 = call dereferenceable(24) %"class.std::__1::basic_string"* @_ZNSt3__112basic_stringIcNS_11char_traitsIcEENS_9allocatorIcEEE17__assign_no_aliasILb0EEERS5_PKcm(%"class.std::__1::basic_string"* %29, i8* %57, i64 %58) #14
  br label %60

60:                                               ; preds = %5, %41, %44, %50
  %61 = load i8, i8* %19, align 1
  %62 = icmp slt i8 %61, 0
  br i1 %62, label %63, label %66

63:                                               ; preds = %60
  %64 = getelementptr inbounds %"class.std::__1::basic_string", %"class.std::__1::basic_string"* %12, i64 0, i32 0, i32 0, i32 0, i32 0, i32 0, i32 0
  %65 = load i8*, i8** %64, align 8
  call void @_ZdlPv(i8* %65) #13
  br label %66

66:                                               ; preds = %60, %63
  call void @llvm.lifetime.end.p0i8(i64 24, i8* nonnull %17) #14
  %67 = bitcast %"class.std::__1::basic_string"* %13 to i8*
  call void @llvm.lifetime.start.p0i8(i64 24, i8* nonnull %67) #14
  %68 = bitcast %"class.std::__1::basic_string"* %13 to %"struct.std::__1::basic_string<char, std::__1::char_traits<char>, std::__1::allocator<char> >::__short"*
  %69 = getelementptr inbounds %"struct.std::__1::basic_string<char, std::__1::char_traits<char>, std::__1::allocator<char> >::__short", %"struct.std::__1::basic_string<char, std::__1::char_traits<char>, std::__1::allocator<char> >::__short"* %68, i64 0, i32 1, i32 0
  store i8 6, i8* %69, align 1
  call void @llvm.memcpy.p0i8.p0i8.i64(i8* nonnull align 8 %67, i8* align 1 getelementptr inbounds ([7 x i8], [7 x i8]* @.str.83, i64 0, i64 0), i64 6, i1 false) #14
  %70 = getelementptr inbounds i8, i8* %67, i64 6
  store i8 0, i8* %70, align 2
  %71 = bitcast %"class.std::__1::tuple"* %8 to i8*
  call void @llvm.lifetime.start.p0i8(i64 8, i8* nonnull %71) #14
  %72 = getelementptr inbounds %"class.std::__1::tuple", %"class.std::__1::tuple"* %8, i64 0, i32 0, i32 0, i32 0
  store %"class.std::__1::basic_string"* %13, %"class.std::__1::basic_string"** %72, align 8
  %73 = getelementptr inbounds %"class.std::__1::tuple.231", %"class.std::__1::tuple.231"* %9, i64 0, i32 0
  call void @llvm.lifetime.start.p0i8(i64 1, i8* nonnull %73) #14
  %74 = call { %"class.std::__1::__tree_end_node"*, i8 } @_ZNSt3__16__treeINS_12__value_typeINS_12basic_stringIcNS_11char_traitsIcEENS_9allocatorIcEEEES7_EENS_19__map_value_compareIS7_S8_NS_4lessIS7_EELb1EEENS5_IS8_EEE25__emplace_unique_key_argsIS7_JRKNS_21piecewise_construct_tENS_5tupleIJRKS7_EEENSJ_IJEEEEEENS_4pairINS_15__tree_iteratorIS8_PNS_11__tree_nodeIS8_PvEElEEbEERKT_DpOT0_(%"class.std::__1::__tree.171"* %22, %"class.std::__1::basic_string"* nonnull dereferenceable(24) %13, %"struct.std::__1::piecewise_construct_t"* nonnull dereferenceable(1) @_ZNSt3__1L19piecewise_constructE, %"class.std::__1::tuple"* nonnull dereferenceable(8) %8, %"class.std::__1::tuple.231"* nonnull dereferenceable(1) %9) #14
  %75 = extractvalue { %"class.std::__1::__tree_end_node"*, i8 } %74, 0
  %76 = getelementptr inbounds %"class.std::__1::__tree_end_node", %"class.std::__1::__tree_end_node"* %75, i64 7
  %77 = bitcast %"class.std::__1::__tree_end_node"* %76 to %"class.std::__1::basic_string"*
  call void @llvm.lifetime.end.p0i8(i64 1, i8* nonnull %73) #14
  call void @llvm.lifetime.end.p0i8(i64 8, i8* nonnull %71) #14
  %78 = icmp eq %"class.std::__1::basic_string"* %77, %2
  br i1 %78, label %108, label %79

79:                                               ; preds = %66
  %80 = bitcast %"class.std::__1::__tree_end_node"* %76 to %"struct.std::__1::basic_string<char, std::__1::char_traits<char>, std::__1::allocator<char> >::__short"*
  %81 = getelementptr inbounds %"struct.std::__1::basic_string<char, std::__1::char_traits<char>, std::__1::allocator<char> >::__short", %"struct.std::__1::basic_string<char, std::__1::char_traits<char>, std::__1::allocator<char> >::__short"* %80, i64 0, i32 1, i32 0
  %82 = load i8, i8* %81, align 1
  %83 = icmp slt i8 %82, 0
  %84 = bitcast %"class.std::__1::basic_string"* %2 to %"struct.std::__1::basic_string<char, std::__1::char_traits<char>, std::__1::allocator<char> >::__short"*
  %85 = getelementptr inbounds %"struct.std::__1::basic_string<char, std::__1::char_traits<char>, std::__1::allocator<char> >::__short", %"struct.std::__1::basic_string<char, std::__1::char_traits<char>, std::__1::allocator<char> >::__short"* %84, i64 0, i32 1, i32 0
  %86 = load i8, i8* %85, align 1
  %87 = icmp slt i8 %86, 0
  br i1 %83, label %98, label %88

88:                                               ; preds = %79
  br i1 %87, label %92, label %89

89:                                               ; preds = %88
  %90 = bitcast %"class.std::__1::__tree_end_node"* %76 to i8*
  %91 = bitcast %"class.std::__1::basic_string"* %2 to i8*
  call void @llvm.memcpy.p0i8.p0i8.i64(i8* align 8 %90, i8* align 8 %91, i64 24, i1 false) #14
  br label %108

92:                                               ; preds = %88
  %93 = getelementptr inbounds %"class.std::__1::basic_string", %"class.std::__1::basic_string"* %2, i64 0, i32 0, i32 0, i32 0, i32 0, i32 0, i32 0
  %94 = load i8*, i8** %93, align 8
  %95 = getelementptr inbounds %"class.std::__1::basic_string", %"class.std::__1::basic_string"* %2, i64 0, i32 0, i32 0, i32 0, i32 0, i32 0, i32 1
  %96 = load i64, i64* %95, align 8
  %97 = call dereferenceable(24) %"class.std::__1::basic_string"* @_ZNSt3__112basic_stringIcNS_11char_traitsIcEENS_9allocatorIcEEE17__assign_no_aliasILb1EEERS5_PKcm(%"class.std::__1::basic_string"* %77, i8* %94, i64 %96) #14
  br label %108

98:                                               ; preds = %79
  %99 = getelementptr inbounds %"class.std::__1::basic_string", %"class.std::__1::basic_string"* %2, i64 0, i32 0, i32 0, i32 0, i32 0, i32 0, i32 0
  %100 = load i8*, i8** %99, align 8
  %101 = getelementptr inbounds %"class.std::__1::basic_string", %"class.std::__1::basic_string"* %2, i64 0, i32 0, i32 0, i32 0, i32 0, i32 0, i32 1
  %102 = load i64, i64* %101, align 8
  %103 = bitcast %"class.std::__1::basic_string"* %2 to i8*
  %104 = zext i8 %86 to i64
  %105 = select i1 %87, i8* %100, i8* %103
  %106 = select i1 %87, i64 %102, i64 %104
  %107 = call dereferenceable(24) %"class.std::__1::basic_string"* @_ZNSt3__112basic_stringIcNS_11char_traitsIcEENS_9allocatorIcEEE17__assign_no_aliasILb0EEERS5_PKcm(%"class.std::__1::basic_string"* %77, i8* %105, i64 %106) #14
  br label %108

108:                                              ; preds = %66, %89, %92, %98
  %109 = load i8, i8* %69, align 1
  %110 = icmp slt i8 %109, 0
  br i1 %110, label %111, label %114

111:                                              ; preds = %108
  %112 = getelementptr inbounds %"class.std::__1::basic_string", %"class.std::__1::basic_string"* %13, i64 0, i32 0, i32 0, i32 0, i32 0, i32 0, i32 0
  %113 = load i8*, i8** %112, align 8
  call void @_ZdlPv(i8* %113) #13
  br label %114

114:                                              ; preds = %108, %111
  call void @llvm.lifetime.end.p0i8(i64 24, i8* nonnull %67) #14
  %115 = bitcast %"class.std::__1::basic_string"* %14 to i8*
  call void @llvm.lifetime.start.p0i8(i64 24, i8* nonnull %115) #14
  %116 = bitcast %"class.std::__1::basic_string"* %14 to %"struct.std::__1::basic_string<char, std::__1::char_traits<char>, std::__1::allocator<char> >::__short"*
  %117 = getelementptr inbounds %"struct.std::__1::basic_string<char, std::__1::char_traits<char>, std::__1::allocator<char> >::__short", %"struct.std::__1::basic_string<char, std::__1::char_traits<char>, std::__1::allocator<char> >::__short"* %116, i64 0, i32 1, i32 0
  store i8 13, i8* %117, align 1
  call void @llvm.memcpy.p0i8.p0i8.i64(i8* nonnull align 8 %115, i8* align 1 getelementptr inbounds ([14 x i8], [14 x i8]* @.str.84, i64 0, i64 0), i64 13, i1 false) #14
  %118 = getelementptr inbounds i8, i8* %115, i64 13
  store i8 0, i8* %118, align 1
  %119 = bitcast %"class.std::__1::basic_string"* %15 to i8*
  call void @llvm.lifetime.start.p0i8(i64 24, i8* nonnull %119) #14
  %120 = bitcast %"class.std::__1::basic_string"* %3 to %"struct.std::__1::basic_string<char, std::__1::char_traits<char>, std::__1::allocator<char> >::__short"*
  %121 = getelementptr inbounds %"struct.std::__1::basic_string<char, std::__1::char_traits<char>, std::__1::allocator<char> >::__short", %"struct.std::__1::basic_string<char, std::__1::char_traits<char>, std::__1::allocator<char> >::__short"* %120, i64 0, i32 1, i32 0
  %122 = load i8, i8* %121, align 1
  %123 = icmp slt i8 %122, 0
  %124 = getelementptr inbounds %"class.std::__1::basic_string", %"class.std::__1::basic_string"* %3, i64 0, i32 0, i32 0, i32 0, i32 0, i32 0, i32 1
  %125 = load i64, i64* %124, align 8
  %126 = zext i8 %122 to i64
  %127 = select i1 %123, i64 %125, i64 %126
  %128 = icmp eq i64 %127, 0
  br i1 %128, label %129, label %132

129:                                              ; preds = %114
  %130 = bitcast %"class.std::__1::basic_string"* %15 to %"struct.std::__1::basic_string<char, std::__1::char_traits<char>, std::__1::allocator<char> >::__short"*
  %131 = getelementptr inbounds %"struct.std::__1::basic_string<char, std::__1::char_traits<char>, std::__1::allocator<char> >::__short", %"struct.std::__1::basic_string<char, std::__1::char_traits<char>, std::__1::allocator<char> >::__short"* %130, i64 0, i32 1, i32 0
  store i8 0, i8* %131, align 1
  store i8 0, i8* %119, align 8
  br label %133

132:                                              ; preds = %114
  call void @_ZNSt3__1plIcNS_11char_traitsIcEENS_9allocatorIcEEEENS_12basic_stringIT_T0_T1_EEPKS6_RKS9_(%"class.std::__1::basic_string"* nonnull sret %15, i8* getelementptr inbounds ([4 x i8], [4 x i8]* @.str.85, i64 0, i64 0), %"class.std::__1::basic_string"* dereferenceable(24) %3) #14
  br label %133

133:                                              ; preds = %132, %129
  %134 = bitcast %"class.std::__1::tuple"* %6 to i8*
  call void @llvm.lifetime.start.p0i8(i64 8, i8* nonnull %134) #14
  %135 = getelementptr inbounds %"class.std::__1::tuple", %"class.std::__1::tuple"* %6, i64 0, i32 0, i32 0, i32 0
  store %"class.std::__1::basic_string"* %14, %"class.std::__1::basic_string"** %135, align 8
  %136 = getelementptr inbounds %"class.std::__1::tuple.231", %"class.std::__1::tuple.231"* %7, i64 0, i32 0
  call void @llvm.lifetime.start.p0i8(i64 1, i8* nonnull %136) #14
  %137 = call { %"class.std::__1::__tree_end_node"*, i8 } @_ZNSt3__16__treeINS_12__value_typeINS_12basic_stringIcNS_11char_traitsIcEENS_9allocatorIcEEEES7_EENS_19__map_value_compareIS7_S8_NS_4lessIS7_EELb1EEENS5_IS8_EEE25__emplace_unique_key_argsIS7_JRKNS_21piecewise_construct_tENS_5tupleIJRKS7_EEENSJ_IJEEEEEENS_4pairINS_15__tree_iteratorIS8_PNS_11__tree_nodeIS8_PvEElEEbEERKT_DpOT0_(%"class.std::__1::__tree.171"* %22, %"class.std::__1::basic_string"* nonnull dereferenceable(24) %14, %"struct.std::__1::piecewise_construct_t"* nonnull dereferenceable(1) @_ZNSt3__1L19piecewise_constructE, %"class.std::__1::tuple"* nonnull dereferenceable(8) %6, %"class.std::__1::tuple.231"* nonnull dereferenceable(1) %7) #14
  %138 = extractvalue { %"class.std::__1::__tree_end_node"*, i8 } %137, 0
  %139 = getelementptr inbounds %"class.std::__1::__tree_end_node", %"class.std::__1::__tree_end_node"* %138, i64 7
  %140 = bitcast %"class.std::__1::__tree_end_node"* %139 to %"class.std::__1::basic_string"*
  call void @llvm.lifetime.end.p0i8(i64 1, i8* nonnull %136) #14
  call void @llvm.lifetime.end.p0i8(i64 8, i8* nonnull %134) #14
  %141 = icmp eq %"class.std::__1::basic_string"* %15, %140
  br i1 %141, label %142, label %144

142:                                              ; preds = %133
  %143 = bitcast %"class.std::__1::basic_string"* %15 to %"struct.std::__1::basic_string<char, std::__1::char_traits<char>, std::__1::allocator<char> >::__short"*
  br label %171

144:                                              ; preds = %133
  %145 = bitcast %"class.std::__1::__tree_end_node"* %139 to %"struct.std::__1::basic_string<char, std::__1::char_traits<char>, std::__1::allocator<char> >::__short"*
  %146 = getelementptr inbounds %"struct.std::__1::basic_string<char, std::__1::char_traits<char>, std::__1::allocator<char> >::__short", %"struct.std::__1::basic_string<char, std::__1::char_traits<char>, std::__1::allocator<char> >::__short"* %145, i64 0, i32 1, i32 0
  %147 = load i8, i8* %146, align 1
  %148 = icmp slt i8 %147, 0
  %149 = bitcast %"class.std::__1::basic_string"* %15 to %"struct.std::__1::basic_string<char, std::__1::char_traits<char>, std::__1::allocator<char> >::__short"*
  %150 = getelementptr inbounds %"struct.std::__1::basic_string<char, std::__1::char_traits<char>, std::__1::allocator<char> >::__short", %"struct.std::__1::basic_string<char, std::__1::char_traits<char>, std::__1::allocator<char> >::__short"* %149, i64 0, i32 1, i32 0
  %151 = load i8, i8* %150, align 1
  %152 = icmp slt i8 %151, 0
  br i1 %148, label %162, label %153

153:                                              ; preds = %144
  br i1 %152, label %156, label %154

154:                                              ; preds = %153
  %155 = bitcast %"class.std::__1::__tree_end_node"* %139 to i8*
  call void @llvm.memcpy.p0i8.p0i8.i64(i8* align 8 %155, i8* nonnull align 8 %119, i64 24, i1 false) #14
  br label %171

156:                                              ; preds = %153
  %157 = getelementptr inbounds %"class.std::__1::basic_string", %"class.std::__1::basic_string"* %15, i64 0, i32 0, i32 0, i32 0, i32 0, i32 0, i32 0
  %158 = load i8*, i8** %157, align 8
  %159 = getelementptr inbounds %"class.std::__1::basic_string", %"class.std::__1::basic_string"* %15, i64 0, i32 0, i32 0, i32 0, i32 0, i32 0, i32 1
  %160 = load i64, i64* %159, align 8
  %161 = call dereferenceable(24) %"class.std::__1::basic_string"* @_ZNSt3__112basic_stringIcNS_11char_traitsIcEENS_9allocatorIcEEE17__assign_no_aliasILb1EEERS5_PKcm(%"class.std::__1::basic_string"* %140, i8* %158, i64 %160) #14
  br label %171

162:                                              ; preds = %144
  %163 = getelementptr inbounds %"class.std::__1::basic_string", %"class.std::__1::basic_string"* %15, i64 0, i32 0, i32 0, i32 0, i32 0, i32 0, i32 0
  %164 = load i8*, i8** %163, align 8
  %165 = getelementptr inbounds %"class.std::__1::basic_string", %"class.std::__1::basic_string"* %15, i64 0, i32 0, i32 0, i32 0, i32 0, i32 0, i32 1
  %166 = load i64, i64* %165, align 8
  %167 = zext i8 %151 to i64
  %168 = select i1 %152, i8* %164, i8* %119
  %169 = select i1 %152, i64 %166, i64 %167
  %170 = call dereferenceable(24) %"class.std::__1::basic_string"* @_ZNSt3__112basic_stringIcNS_11char_traitsIcEENS_9allocatorIcEEE17__assign_no_aliasILb0EEERS5_PKcm(%"class.std::__1::basic_string"* %140, i8* %168, i64 %169) #14
  br label %171

171:                                              ; preds = %142, %154, %156, %162
  %172 = phi %"struct.std::__1::basic_string<char, std::__1::char_traits<char>, std::__1::allocator<char> >::__short"* [ %143, %142 ], [ %149, %154 ], [ %149, %156 ], [ %149, %162 ]
  %173 = getelementptr inbounds %"struct.std::__1::basic_string<char, std::__1::char_traits<char>, std::__1::allocator<char> >::__short", %"struct.std::__1::basic_string<char, std::__1::char_traits<char>, std::__1::allocator<char> >::__short"* %172, i64 0, i32 1, i32 0
  %174 = load i8, i8* %173, align 1
  %175 = icmp slt i8 %174, 0
  br i1 %175, label %176, label %179

176:                                              ; preds = %171
  %177 = getelementptr inbounds %"class.std::__1::basic_string", %"class.std::__1::basic_string"* %15, i64 0, i32 0, i32 0, i32 0, i32 0, i32 0, i32 0
  %178 = load i8*, i8** %177, align 8
  call void @_ZdlPv(i8* %178) #13
  br label %179

179:                                              ; preds = %171, %176
  call void @llvm.lifetime.end.p0i8(i64 24, i8* nonnull %119) #14
  %180 = load i8, i8* %117, align 1
  %181 = icmp slt i8 %180, 0
  br i1 %181, label %182, label %185

182:                                              ; preds = %179
  %183 = getelementptr inbounds %"class.std::__1::basic_string", %"class.std::__1::basic_string"* %14, i64 0, i32 0, i32 0, i32 0, i32 0, i32 0, i32 0
  %184 = load i8*, i8** %183, align 8
  call void @_ZdlPv(i8* %184) #13
  br label %185

185:                                              ; preds = %179, %182
  call void @llvm.lifetime.end.p0i8(i64 24, i8* nonnull %115) #14
  %186 = call i8* @_Znwm(i64 48) #13
  %187 = getelementptr inbounds %"class.std::__1::basic_string", %"class.std::__1::basic_string"* %16, i64 0, i32 0, i32 0, i32 0, i32 0, i32 0, i32 0
  store i8* %186, i8** %187, align 8
  %188 = getelementptr inbounds %"class.std::__1::basic_string", %"class.std::__1::basic_string"* %16, i64 0, i32 0, i32 0, i32 0, i32 0, i32 0, i32 1
  %189 = bitcast i64* %188 to <2 x i64>*
  store <2 x i64> <i64 45, i64 -9223372036854775760>, <2 x i64>* %189, align 8
  call void @llvm.memcpy.p0i8.p0i8.i64(i8* nonnull align 1 %186, i8* align 1 getelementptr inbounds ([46 x i8], [46 x i8]* @.str.86, i64 0, i64 0), i64 45, i1 false) #14
  %190 = getelementptr inbounds i8, i8* %186, i64 45
  store i8 0, i8* %190, align 1
  call void @_ZN11flatbuffers10CodeWriterpLENSt3__112basic_stringIcNS1_11char_traitsIcEENS1_9allocatorIcEEEE(%"class.flatbuffers::CodeWriter"* %0, %"class.std::__1::basic_string"* nonnull %16) #14
  %191 = bitcast %"class.std::__1::basic_string"* %16 to %"struct.std::__1::basic_string<char, std::__1::char_traits<char>, std::__1::allocator<char> >::__short"*
  %192 = getelementptr inbounds %"struct.std::__1::basic_string<char, std::__1::char_traits<char>, std::__1::allocator<char> >::__short", %"struct.std::__1::basic_string<char, std::__1::char_traits<char>, std::__1::allocator<char> >::__short"* %191, i64 0, i32 1, i32 0
  %193 = load i8, i8* %192, align 1
  %194 = icmp slt i8 %193, 0
  br i1 %194, label %195, label %197

195:                                              ; preds = %185
  %196 = load i8*, i8** %187, align 8
  call void @_ZdlPv(i8* %196) #13
  br label %197

197:                                              ; preds = %185, %195
  %198 = getelementptr inbounds %"class.std::__1::function", %"class.std::__1::function"* %4, i64 0, i32 0, i32 1, i32 0
  %199 = load void (%"union.std::__1::__function::__policy_storage"*)*, void (%"union.std::__1::__function::__policy_storage"*)** %198, align 8
  %200 = getelementptr inbounds %"class.std::__1::function", %"class.std::__1::function"* %4, i64 0, i32 0, i32 0
  call void %199(%"union.std::__1::__function::__policy_storage"* %200) #14
  ret void
}

; Function Attrs: noreturn
declare void @_ZNKSt3__120__vector_base_commonILb1EE20__throw_length_errorEv(%"class.std::__1::__vector_base_common"*) local_unnamed_addr #7

; Function Attrs: nounwind ssp uwtable
define linkonce_odr hidden void @_ZN11flatbuffers11NumToStringImEENSt3__112basic_stringIcNS1_11char_traitsIcEENS1_9allocatorIcEEEET_(%"class.std::__1::basic_string"* noalias sret, i64) local_unnamed_addr #3 comdat {
  %3 = alloca %"class.std::__1::basic_stringstream", align 8
  %4 = bitcast %"class.std::__1::basic_stringstream"* %3 to i8*
  call void @llvm.lifetime.start.p0i8(i64 280, i8* nonnull %4) #14
  %5 = getelementptr inbounds %"class.std::__1::basic_stringstream", %"class.std::__1::basic_stringstream"* %3, i64 0, i32 0, i32 0, i32 1
  %6 = bitcast i64* %5 to i8*
  call void @llvm.memset.p0i8.i64(i8* nonnull align 8 %6, i8 -86, i64 272, i1 false)
  %7 = getelementptr inbounds %"class.std::__1::basic_stringstream", %"class.std::__1::basic_stringstream"* %3, i64 0, i32 2, i32 0, i32 0
  %8 = getelementptr inbounds %"class.std::__1::basic_stringstream", %"class.std::__1::basic_stringstream"* %3, i64 0, i32 0, i32 0, i32 0
  store i32 (...)** bitcast (i8** getelementptr inbounds ({ [5 x i8*], [5 x i8*], [5 x i8*] }, { [5 x i8*], [5 x i8*], [5 x i8*] }* @_ZTVNSt3__118basic_stringstreamIcNS_11char_traitsIcEENS_9allocatorIcEEEE, i64 0, inrange i32 2, i64 3) to i32 (...)**), i32 (...)*** %7, align 8
  %9 = getelementptr inbounds %"class.std::__1::basic_stringstream", %"class.std::__1::basic_stringstream"* %3, i64 0, i32 0, i32 1, i32 0
  store i32 (...)** bitcast (i8** getelementptr inbounds ({ [5 x i8*], [5 x i8*], [5 x i8*] }, { [5 x i8*], [5 x i8*], [5 x i8*] }* @_ZTVNSt3__118basic_stringstreamIcNS_11char_traitsIcEENS_9allocatorIcEEEE, i64 0, inrange i32 1, i64 3) to i32 (...)**), i32 (...)*** %9, align 8
  %10 = getelementptr inbounds %"class.std::__1::basic_stringstream", %"class.std::__1::basic_stringstream"* %3, i64 0, i32 1
  %11 = getelementptr inbounds %"class.std::__1::basic_stringbuf", %"class.std::__1::basic_stringbuf"* %10, i64 0, i32 0
  %12 = load i64, i64* bitcast (i8** getelementptr inbounds ([10 x i8*], [10 x i8*]* @_ZTTNSt3__118basic_stringstreamIcNS_11char_traitsIcEENS_9allocatorIcEEEE, i64 0, i64 2) to i64*), align 8
  %13 = bitcast %"class.std::__1::basic_stringstream"* %3 to i64*
  store i64 %12, i64* %13, align 8
  %14 = load i64, i64* bitcast (i8** getelementptr inbounds ([10 x i8*], [10 x i8*]* @_ZTTNSt3__118basic_stringstreamIcNS_11char_traitsIcEENS_9allocatorIcEEEE, i64 0, i64 3) to i64*), align 8
  %15 = bitcast %"class.std::__1::basic_stringstream"* %3 to i8**
  %16 = inttoptr i64 %12 to i8*
  %17 = getelementptr i8, i8* %16, i64 -24
  %18 = bitcast i8* %17 to i64*
  %19 = load i64, i64* %18, align 8
  %20 = getelementptr inbounds i8, i8* %4, i64 %19
  %21 = bitcast i8* %20 to i64*
  store i64 %14, i64* %21, align 8
  %22 = getelementptr inbounds %"class.std::__1::basic_stringstream", %"class.std::__1::basic_stringstream"* %3, i64 0, i32 0, i32 0, i32 1
  store i64 0, i64* %22, align 8
  %23 = load i8*, i8** %15, align 8
  %24 = getelementptr i8, i8* %23, i64 -24
  %25 = bitcast i8* %24 to i64*
  %26 = load i64, i64* %25, align 8
  %27 = getelementptr inbounds i8, i8* %4, i64 %26
  %28 = bitcast i8* %27 to %"class.std::__1::ios_base"*
  %29 = bitcast %"class.std::__1::basic_stringbuf"* %10 to i8*
  call void @_ZNSt3__18ios_base4initEPv(%"class.std::__1::ios_base"* %28, i8* %29) #14
  %30 = getelementptr inbounds i8, i8* %27, i64 136
  %31 = bitcast i8* %30 to %"class.std::__1::basic_ostream"**
  store %"class.std::__1::basic_ostream"* null, %"class.std::__1::basic_ostream"** %31, align 8
  %32 = getelementptr inbounds i8, i8* %27, i64 144
  %33 = bitcast i8* %32 to i32*
  store i32 -1, i32* %33, align 8
  %34 = getelementptr inbounds %"class.std::__1::basic_stringstream", %"class.std::__1::basic_stringstream"* %3, i64 0, i32 0, i32 1
  %35 = load i64, i64* bitcast (i8** getelementptr inbounds ([10 x i8*], [10 x i8*]* @_ZTTNSt3__118basic_stringstreamIcNS_11char_traitsIcEENS_9allocatorIcEEEE, i64 0, i64 4) to i64*), align 8
  %36 = bitcast %"class.std::__1::basic_ostream.base"* %34 to i64*
  store i64 %35, i64* %36, align 8
  %37 = load i64, i64* bitcast (i8** getelementptr inbounds ([10 x i8*], [10 x i8*]* @_ZTTNSt3__118basic_stringstreamIcNS_11char_traitsIcEENS_9allocatorIcEEEE, i64 0, i64 5) to i64*), align 8
  %38 = inttoptr i64 %35 to i8*
  %39 = getelementptr i8, i8* %38, i64 -24
  %40 = bitcast i8* %39 to i64*
  %41 = load i64, i64* %40, align 8
  %42 = bitcast %"class.std::__1::basic_ostream.base"* %34 to i8*
  %43 = getelementptr inbounds i8, i8* %42, i64 %41
  %44 = bitcast i8* %43 to i64*
  store i64 %37, i64* %44, align 8
  %45 = load i64, i64* bitcast (i8** getelementptr inbounds ([10 x i8*], [10 x i8*]* @_ZTTNSt3__118basic_stringstreamIcNS_11char_traitsIcEENS_9allocatorIcEEEE, i64 0, i64 1) to i64*), align 8
  store i64 %45, i64* %13, align 8
  %46 = load i64, i64* bitcast (i8** getelementptr inbounds ([10 x i8*], [10 x i8*]* @_ZTTNSt3__118basic_stringstreamIcNS_11char_traitsIcEENS_9allocatorIcEEEE, i64 0, i64 6) to i64*), align 8
  %47 = inttoptr i64 %45 to i8*
  %48 = getelementptr i8, i8* %47, i64 -24
  %49 = bitcast i8* %48 to i64*
  %50 = load i64, i64* %49, align 8
  %51 = getelementptr inbounds i8, i8* %4, i64 %50
  %52 = bitcast i8* %51 to i64*
  store i64 %46, i64* %52, align 8
  store i32 (...)** bitcast (i8** getelementptr inbounds ({ [5 x i8*], [5 x i8*], [5 x i8*] }, { [5 x i8*], [5 x i8*], [5 x i8*] }* @_ZTVNSt3__118basic_stringstreamIcNS_11char_traitsIcEENS_9allocatorIcEEEE, i64 0, inrange i32 0, i64 3) to i32 (...)**), i32 (...)*** %8, align 8
  store i32 (...)** bitcast (i8** getelementptr inbounds ({ [5 x i8*], [5 x i8*], [5 x i8*] }, { [5 x i8*], [5 x i8*], [5 x i8*] }* @_ZTVNSt3__118basic_stringstreamIcNS_11char_traitsIcEENS_9allocatorIcEEEE, i64 0, inrange i32 2, i64 3) to i32 (...)**), i32 (...)*** %7, align 8
  store i32 (...)** bitcast (i8** getelementptr inbounds ({ [5 x i8*], [5 x i8*], [5 x i8*] }, { [5 x i8*], [5 x i8*], [5 x i8*] }* @_ZTVNSt3__118basic_stringstreamIcNS_11char_traitsIcEENS_9allocatorIcEEEE, i64 0, inrange i32 1, i64 3) to i32 (...)**), i32 (...)*** %9, align 8
  call void @_ZNSt3__115basic_streambufIcNS_11char_traitsIcEEEC2Ev(%"class.std::__1::basic_streambuf"* %11) #14
  %53 = getelementptr inbounds %"class.std::__1::basic_stringbuf", %"class.std::__1::basic_stringbuf"* %10, i64 0, i32 0, i32 0
  store i32 (...)** bitcast (i8** getelementptr inbounds ({ [16 x i8*] }, { [16 x i8*] }* @_ZTVNSt3__115basic_stringbufIcNS_11char_traitsIcEENS_9allocatorIcEEEE, i64 0, inrange i32 0, i64 2) to i32 (...)**), i32 (...)*** %53, align 8
  %54 = getelementptr inbounds %"class.std::__1::basic_stringstream", %"class.std::__1::basic_stringstream"* %3, i64 0, i32 1, i32 1
  %55 = getelementptr inbounds %"class.std::__1::basic_stringstream", %"class.std::__1::basic_stringstream"* %3, i64 0, i32 1, i32 3
  %56 = bitcast %"class.std::__1::basic_string"* %54 to i8*
  call void @llvm.memset.p0i8.i64(i8* align 8 %56, i8 0, i64 32, i1 false) #14
  store i32 24, i32* %55, align 8
  %57 = bitcast %"class.std::__1::basic_ostream.base"* %34 to %"class.std::__1::basic_ostream"*
  %58 = call dereferenceable(160) %"class.std::__1::basic_ostream"* @_ZNSt3__113basic_ostreamIcNS_11char_traitsIcEEElsEm(%"class.std::__1::basic_ostream"* %57, i64 %1) #14
  call void @_ZNKSt3__115basic_stringbufIcNS_11char_traitsIcEENS_9allocatorIcEEE3strEv(%"class.std::__1::basic_string"* sret %0, %"class.std::__1::basic_stringbuf"* %10) #14
  %59 = load i64, i64* bitcast ([10 x i8*]* @_ZTTNSt3__118basic_stringstreamIcNS_11char_traitsIcEENS_9allocatorIcEEEE to i64*), align 8
  store i64 %59, i64* %13, align 8
  %60 = load i64, i64* bitcast (i8** getelementptr inbounds ([10 x i8*], [10 x i8*]* @_ZTTNSt3__118basic_stringstreamIcNS_11char_traitsIcEENS_9allocatorIcEEEE, i64 0, i64 8) to i64*), align 8
  %61 = inttoptr i64 %59 to i8*
  %62 = getelementptr i8, i8* %61, i64 -24
  %63 = bitcast i8* %62 to i64*
  %64 = load i64, i64* %63, align 8
  %65 = getelementptr inbounds i8, i8* %4, i64 %64
  %66 = bitcast i8* %65 to i64*
  store i64 %60, i64* %66, align 8
  %67 = load i64, i64* bitcast (i8** getelementptr inbounds ([10 x i8*], [10 x i8*]* @_ZTTNSt3__118basic_stringstreamIcNS_11char_traitsIcEENS_9allocatorIcEEEE, i64 0, i64 9) to i64*), align 8
  store i64 %67, i64* %36, align 8
  store i32 (...)** bitcast (i8** getelementptr inbounds ({ [16 x i8*] }, { [16 x i8*] }* @_ZTVNSt3__115basic_stringbufIcNS_11char_traitsIcEENS_9allocatorIcEEEE, i64 0, inrange i32 0, i64 2) to i32 (...)**), i32 (...)*** %53, align 8
  %68 = bitcast %"class.std::__1::basic_string"* %54 to %"struct.std::__1::basic_string<char, std::__1::char_traits<char>, std::__1::allocator<char> >::__short"*
  %69 = getelementptr inbounds %"struct.std::__1::basic_string<char, std::__1::char_traits<char>, std::__1::allocator<char> >::__short", %"struct.std::__1::basic_string<char, std::__1::char_traits<char>, std::__1::allocator<char> >::__short"* %68, i64 0, i32 1, i32 0
  %70 = load i8, i8* %69, align 1
  %71 = icmp slt i8 %70, 0
  br i1 %71, label %72, label %75

72:                                               ; preds = %2
  %73 = getelementptr inbounds %"class.std::__1::basic_string", %"class.std::__1::basic_string"* %54, i64 0, i32 0, i32 0, i32 0, i32 0, i32 0, i32 0
  %74 = load i8*, i8** %73, align 8
  call void @_ZdlPv(i8* %74) #13
  br label %75

75:                                               ; preds = %2, %72
  call void @_ZNSt3__115basic_streambufIcNS_11char_traitsIcEEED2Ev(%"class.std::__1::basic_streambuf"* %11) #14
  %76 = bitcast %"class.std::__1::basic_stringstream"* %3 to %"class.std::__1::basic_iostream"*
  call void @_ZNSt3__114basic_iostreamIcNS_11char_traitsIcEEED2Ev(%"class.std::__1::basic_iostream"* nonnull %76, i8** getelementptr inbounds ([10 x i8*], [10 x i8*]* @_ZTTNSt3__118basic_stringstreamIcNS_11char_traitsIcEENS_9allocatorIcEEEE, i64 0, i64 1)) #14
  %77 = getelementptr inbounds %"class.std::__1::basic_stringstream", %"class.std::__1::basic_stringstream"* %3, i64 0, i32 2
  %78 = bitcast %"class.std::__1::basic_ios.base"* %77 to %"class.std::__1::basic_ios"*
  call void @_ZNSt3__19basic_iosIcNS_11char_traitsIcEEED2Ev(%"class.std::__1::basic_ios"* %78) #14
  call void @llvm.lifetime.end.p0i8(i64 280, i8* nonnull %4) #14
  ret void
}

; Function Attrs: nounwind ssp uwtable
define linkonce_odr hidden void @_ZN11flatbuffers11NumToStringIlEENSt3__112basic_stringIcNS1_11char_traitsIcEENS1_9allocatorIcEEEET_(%"class.std::__1::basic_string"* noalias sret, i64) local_unnamed_addr #3 comdat {
  %3 = alloca %"class.std::__1::basic_stringstream", align 8
  %4 = bitcast %"class.std::__1::basic_stringstream"* %3 to i8*
  call void @llvm.lifetime.start.p0i8(i64 280, i8* nonnull %4) #14
  %5 = getelementptr inbounds %"class.std::__1::basic_stringstream", %"class.std::__1::basic_stringstream"* %3, i64 0, i32 0, i32 0, i32 1
  %6 = bitcast i64* %5 to i8*
  call void @llvm.memset.p0i8.i64(i8* nonnull align 8 %6, i8 -86, i64 272, i1 false)
  %7 = getelementptr inbounds %"class.std::__1::basic_stringstream", %"class.std::__1::basic_stringstream"* %3, i64 0, i32 2, i32 0, i32 0
  %8 = getelementptr inbounds %"class.std::__1::basic_stringstream", %"class.std::__1::basic_stringstream"* %3, i64 0, i32 0, i32 0, i32 0
  store i32 (...)** bitcast (i8** getelementptr inbounds ({ [5 x i8*], [5 x i8*], [5 x i8*] }, { [5 x i8*], [5 x i8*], [5 x i8*] }* @_ZTVNSt3__118basic_stringstreamIcNS_11char_traitsIcEENS_9allocatorIcEEEE, i64 0, inrange i32 2, i64 3) to i32 (...)**), i32 (...)*** %7, align 8
  %9 = getelementptr inbounds %"class.std::__1::basic_stringstream", %"class.std::__1::basic_stringstream"* %3, i64 0, i32 0, i32 1, i32 0
  store i32 (...)** bitcast (i8** getelementptr inbounds ({ [5 x i8*], [5 x i8*], [5 x i8*] }, { [5 x i8*], [5 x i8*], [5 x i8*] }* @_ZTVNSt3__118basic_stringstreamIcNS_11char_traitsIcEENS_9allocatorIcEEEE, i64 0, inrange i32 1, i64 3) to i32 (...)**), i32 (...)*** %9, align 8
  %10 = getelementptr inbounds %"class.std::__1::basic_stringstream", %"class.std::__1::basic_stringstream"* %3, i64 0, i32 1
  %11 = getelementptr inbounds %"class.std::__1::basic_stringbuf", %"class.std::__1::basic_stringbuf"* %10, i64 0, i32 0
  %12 = load i64, i64* bitcast (i8** getelementptr inbounds ([10 x i8*], [10 x i8*]* @_ZTTNSt3__118basic_stringstreamIcNS_11char_traitsIcEENS_9allocatorIcEEEE, i64 0, i64 2) to i64*), align 8
  %13 = bitcast %"class.std::__1::basic_stringstream"* %3 to i64*
  store i64 %12, i64* %13, align 8
  %14 = load i64, i64* bitcast (i8** getelementptr inbounds ([10 x i8*], [10 x i8*]* @_ZTTNSt3__118basic_stringstreamIcNS_11char_traitsIcEENS_9allocatorIcEEEE, i64 0, i64 3) to i64*), align 8
  %15 = bitcast %"class.std::__1::basic_stringstream"* %3 to i8**
  %16 = inttoptr i64 %12 to i8*
  %17 = getelementptr i8, i8* %16, i64 -24
  %18 = bitcast i8* %17 to i64*
  %19 = load i64, i64* %18, align 8
  %20 = getelementptr inbounds i8, i8* %4, i64 %19
  %21 = bitcast i8* %20 to i64*
  store i64 %14, i64* %21, align 8
  %22 = getelementptr inbounds %"class.std::__1::basic_stringstream", %"class.std::__1::basic_stringstream"* %3, i64 0, i32 0, i32 0, i32 1
  store i64 0, i64* %22, align 8
  %23 = load i8*, i8** %15, align 8
  %24 = getelementptr i8, i8* %23, i64 -24
  %25 = bitcast i8* %24 to i64*
  %26 = load i64, i64* %25, align 8
  %27 = getelementptr inbounds i8, i8* %4, i64 %26
  %28 = bitcast i8* %27 to %"class.std::__1::ios_base"*
  %29 = bitcast %"class.std::__1::basic_stringbuf"* %10 to i8*
  call void @_ZNSt3__18ios_base4initEPv(%"class.std::__1::ios_base"* %28, i8* %29) #14
  %30 = getelementptr inbounds i8, i8* %27, i64 136
  %31 = bitcast i8* %30 to %"class.std::__1::basic_ostream"**
  store %"class.std::__1::basic_ostream"* null, %"class.std::__1::basic_ostream"** %31, align 8
  %32 = getelementptr inbounds i8, i8* %27, i64 144
  %33 = bitcast i8* %32 to i32*
  store i32 -1, i32* %33, align 8
  %34 = getelementptr inbounds %"class.std::__1::basic_stringstream", %"class.std::__1::basic_stringstream"* %3, i64 0, i32 0, i32 1
  %35 = load i64, i64* bitcast (i8** getelementptr inbounds ([10 x i8*], [10 x i8*]* @_ZTTNSt3__118basic_stringstreamIcNS_11char_traitsIcEENS_9allocatorIcEEEE, i64 0, i64 4) to i64*), align 8
  %36 = bitcast %"class.std::__1::basic_ostream.base"* %34 to i64*
  store i64 %35, i64* %36, align 8
  %37 = load i64, i64* bitcast (i8** getelementptr inbounds ([10 x i8*], [10 x i8*]* @_ZTTNSt3__118basic_stringstreamIcNS_11char_traitsIcEENS_9allocatorIcEEEE, i64 0, i64 5) to i64*), align 8
  %38 = inttoptr i64 %35 to i8*
  %39 = getelementptr i8, i8* %38, i64 -24
  %40 = bitcast i8* %39 to i64*
  %41 = load i64, i64* %40, align 8
  %42 = bitcast %"class.std::__1::basic_ostream.base"* %34 to i8*
  %43 = getelementptr inbounds i8, i8* %42, i64 %41
  %44 = bitcast i8* %43 to i64*
  store i64 %37, i64* %44, align 8
  %45 = load i64, i64* bitcast (i8** getelementptr inbounds ([10 x i8*], [10 x i8*]* @_ZTTNSt3__118basic_stringstreamIcNS_11char_traitsIcEENS_9allocatorIcEEEE, i64 0, i64 1) to i64*), align 8
  store i64 %45, i64* %13, align 8
  %46 = load i64, i64* bitcast (i8** getelementptr inbounds ([10 x i8*], [10 x i8*]* @_ZTTNSt3__118basic_stringstreamIcNS_11char_traitsIcEENS_9allocatorIcEEEE, i64 0, i64 6) to i64*), align 8
  %47 = inttoptr i64 %45 to i8*
  %48 = getelementptr i8, i8* %47, i64 -24
  %49 = bitcast i8* %48 to i64*
  %50 = load i64, i64* %49, align 8
  %51 = getelementptr inbounds i8, i8* %4, i64 %50
  %52 = bitcast i8* %51 to i64*
  store i64 %46, i64* %52, align 8
  store i32 (...)** bitcast (i8** getelementptr inbounds ({ [5 x i8*], [5 x i8*], [5 x i8*] }, { [5 x i8*], [5 x i8*], [5 x i8*] }* @_ZTVNSt3__118basic_stringstreamIcNS_11char_traitsIcEENS_9allocatorIcEEEE, i64 0, inrange i32 0, i64 3) to i32 (...)**), i32 (...)*** %8, align 8
  store i32 (...)** bitcast (i8** getelementptr inbounds ({ [5 x i8*], [5 x i8*], [5 x i8*] }, { [5 x i8*], [5 x i8*], [5 x i8*] }* @_ZTVNSt3__118basic_stringstreamIcNS_11char_traitsIcEENS_9allocatorIcEEEE, i64 0, inrange i32 2, i64 3) to i32 (...)**), i32 (...)*** %7, align 8
  store i32 (...)** bitcast (i8** getelementptr inbounds ({ [5 x i8*], [5 x i8*], [5 x i8*] }, { [5 x i8*], [5 x i8*], [5 x i8*] }* @_ZTVNSt3__118basic_stringstreamIcNS_11char_traitsIcEENS_9allocatorIcEEEE, i64 0, inrange i32 1, i64 3) to i32 (...)**), i32 (...)*** %9, align 8
  call void @_ZNSt3__115basic_streambufIcNS_11char_traitsIcEEEC2Ev(%"class.std::__1::basic_streambuf"* %11) #14
  %53 = getelementptr inbounds %"class.std::__1::basic_stringbuf", %"class.std::__1::basic_stringbuf"* %10, i64 0, i32 0, i32 0
  store i32 (...)** bitcast (i8** getelementptr inbounds ({ [16 x i8*] }, { [16 x i8*] }* @_ZTVNSt3__115basic_stringbufIcNS_11char_traitsIcEENS_9allocatorIcEEEE, i64 0, inrange i32 0, i64 2) to i32 (...)**), i32 (...)*** %53, align 8
  %54 = getelementptr inbounds %"class.std::__1::basic_stringstream", %"class.std::__1::basic_stringstream"* %3, i64 0, i32 1, i32 1
  %55 = getelementptr inbounds %"class.std::__1::basic_stringstream", %"class.std::__1::basic_stringstream"* %3, i64 0, i32 1, i32 3
  %56 = bitcast %"class.std::__1::basic_string"* %54 to i8*
  call void @llvm.memset.p0i8.i64(i8* align 8 %56, i8 0, i64 32, i1 false) #14
  store i32 24, i32* %55, align 8
  %57 = bitcast %"class.std::__1::basic_ostream.base"* %34 to %"class.std::__1::basic_ostream"*
  %58 = call dereferenceable(160) %"class.std::__1::basic_ostream"* @_ZNSt3__113basic_ostreamIcNS_11char_traitsIcEEElsEl(%"class.std::__1::basic_ostream"* %57, i64 %1) #14
  call void @_ZNKSt3__115basic_stringbufIcNS_11char_traitsIcEENS_9allocatorIcEEE3strEv(%"class.std::__1::basic_string"* sret %0, %"class.std::__1::basic_stringbuf"* %10) #14
  %59 = load i64, i64* bitcast ([10 x i8*]* @_ZTTNSt3__118basic_stringstreamIcNS_11char_traitsIcEENS_9allocatorIcEEEE to i64*), align 8
  store i64 %59, i64* %13, align 8
  %60 = load i64, i64* bitcast (i8** getelementptr inbounds ([10 x i8*], [10 x i8*]* @_ZTTNSt3__118basic_stringstreamIcNS_11char_traitsIcEENS_9allocatorIcEEEE, i64 0, i64 8) to i64*), align 8
  %61 = inttoptr i64 %59 to i8*
  %62 = getelementptr i8, i8* %61, i64 -24
  %63 = bitcast i8* %62 to i64*
  %64 = load i64, i64* %63, align 8
  %65 = getelementptr inbounds i8, i8* %4, i64 %64
  %66 = bitcast i8* %65 to i64*
  store i64 %60, i64* %66, align 8
  %67 = load i64, i64* bitcast (i8** getelementptr inbounds ([10 x i8*], [10 x i8*]* @_ZTTNSt3__118basic_stringstreamIcNS_11char_traitsIcEENS_9allocatorIcEEEE, i64 0, i64 9) to i64*), align 8
  store i64 %67, i64* %36, align 8
  store i32 (...)** bitcast (i8** getelementptr inbounds ({ [16 x i8*] }, { [16 x i8*] }* @_ZTVNSt3__115basic_stringbufIcNS_11char_traitsIcEENS_9allocatorIcEEEE, i64 0, inrange i32 0, i64 2) to i32 (...)**), i32 (...)*** %53, align 8
  %68 = bitcast %"class.std::__1::basic_string"* %54 to %"struct.std::__1::basic_string<char, std::__1::char_traits<char>, std::__1::allocator<char> >::__short"*
  %69 = getelementptr inbounds %"struct.std::__1::basic_string<char, std::__1::char_traits<char>, std::__1::allocator<char> >::__short", %"struct.std::__1::basic_string<char, std::__1::char_traits<char>, std::__1::allocator<char> >::__short"* %68, i64 0, i32 1, i32 0
  %70 = load i8, i8* %69, align 1
  %71 = icmp slt i8 %70, 0
  br i1 %71, label %72, label %75

72:                                               ; preds = %2
  %73 = getelementptr inbounds %"class.std::__1::basic_string", %"class.std::__1::basic_string"* %54, i64 0, i32 0, i32 0, i32 0, i32 0, i32 0, i32 0
  %74 = load i8*, i8** %73, align 8
  call void @_ZdlPv(i8* %74) #13
  br label %75

75:                                               ; preds = %2, %72
  call void @_ZNSt3__115basic_streambufIcNS_11char_traitsIcEEED2Ev(%"class.std::__1::basic_streambuf"* %11) #14
  %76 = bitcast %"class.std::__1::basic_stringstream"* %3 to %"class.std::__1::basic_iostream"*
  call void @_ZNSt3__114basic_iostreamIcNS_11char_traitsIcEEED2Ev(%"class.std::__1::basic_iostream"* nonnull %76, i8** getelementptr inbounds ([10 x i8*], [10 x i8*]* @_ZTTNSt3__118basic_stringstreamIcNS_11char_traitsIcEENS_9allocatorIcEEEE, i64 0, i64 1)) #14
  %77 = getelementptr inbounds %"class.std::__1::basic_stringstream", %"class.std::__1::basic_stringstream"* %3, i64 0, i32 2
  %78 = bitcast %"class.std::__1::basic_ios.base"* %77 to %"class.std::__1::basic_ios"*
  call void @_ZNSt3__19basic_iosIcNS_11char_traitsIcEEED2Ev(%"class.std::__1::basic_ios"* %78) #14
  call void @llvm.lifetime.end.p0i8(i64 280, i8* nonnull %4) #14
  ret void
}

declare dereferenceable(160) %"class.std::__1::basic_ostream"* @_ZNSt3__113basic_ostreamIcNS_11char_traitsIcEEElsEm(%"class.std::__1::basic_ostream"*, i64) local_unnamed_addr #0

declare void @_ZNKSt3__115basic_stringbufIcNS_11char_traitsIcEENS_9allocatorIcEEE3strEv(%"class.std::__1::basic_string"* sret, %"class.std::__1::basic_stringbuf"*) local_unnamed_addr #0

; Function Attrs: nounwind
declare void @_ZNSt3__19basic_iosIcNS_11char_traitsIcEEED2Ev(%"class.std::__1::basic_ios"*) unnamed_addr #10

; Function Attrs: nounwind
declare void @_ZNSt3__114basic_iostreamIcNS_11char_traitsIcEEED2Ev(%"class.std::__1::basic_iostream"*, i8**) unnamed_addr #10

; Function Attrs: nounwind
declare void @_ZNSt3__115basic_streambufIcNS_11char_traitsIcEEED2Ev(%"class.std::__1::basic_streambuf"*) unnamed_addr #10

declare dereferenceable(160) %"class.std::__1::basic_ostream"* @_ZNSt3__113basic_ostreamIcNS_11char_traitsIcEEElsEl(%"class.std::__1::basic_ostream"*, i64) local_unnamed_addr #0

; Function Attrs: nounwind ssp uwtable
define linkonce_odr hidden { %"class.std::__1::__tree_end_node"*, i8 } @_ZNSt3__16__treeINS_12__value_typeINS_12basic_stringIcNS_11char_traitsIcEENS_9allocatorIcEEEES7_EENS_19__map_value_compareIS7_S8_NS_4lessIS7_EELb1EEENS5_IS8_EEE25__emplace_unique_key_argsIS7_JRKNS_21piecewise_construct_tENS_5tupleIJRKS7_EEENSJ_IJEEEEEENS_4pairINS_15__tree_iteratorIS8_PNS_11__tree_nodeIS8_PvEElEEbEERKT_DpOT0_(%"class.std::__1::__tree.171"*, %"class.std::__1::basic_string"* dereferenceable(24), %"struct.std::__1::piecewise_construct_t"* dereferenceable(1), %"class.std::__1::tuple"* dereferenceable(8), %"class.std::__1::tuple.231"* dereferenceable(1)) local_unnamed_addr #3 comdat align 2 {
  %6 = alloca %"class.std::__1::__tree_end_node"*, align 8
  %7 = bitcast %"class.std::__1::__tree_end_node"** %6 to i8*
  call void @llvm.lifetime.start.p0i8(i64 8, i8* nonnull %7) #14
  store %"class.std::__1::__tree_end_node"* inttoptr (i64 -6148914691236517206 to %"class.std::__1::__tree_end_node"*), %"class.std::__1::__tree_end_node"** %6, align 8
  %8 = call dereferenceable(8) %"class.std::__1::__tree_node_base"** @_ZNSt3__16__treeINS_12__value_typeINS_12basic_stringIcNS_11char_traitsIcEENS_9allocatorIcEEEES7_EENS_19__map_value_compareIS7_S8_NS_4lessIS7_EELb1EEENS5_IS8_EEE12__find_equalIS7_EERPNS_16__tree_node_baseIPvEERPNS_15__tree_end_nodeISJ_EERKT_(%"class.std::__1::__tree.171"* %0, %"class.std::__1::__tree_end_node"** nonnull dereferenceable(8) %6, %"class.std::__1::basic_string"* dereferenceable(24) %1)
  %9 = bitcast %"class.std::__1::__tree_node_base"** %8 to %"class.std::__1::__tree_node"**
  %10 = load %"class.std::__1::__tree_node"*, %"class.std::__1::__tree_node"** %9, align 8
  %11 = icmp eq %"class.std::__1::__tree_node"* %10, null
  br i1 %11, label %12, label %54

12:                                               ; preds = %5
  %13 = call i8* @_Znwm(i64 80) #13, !noalias !54
  %14 = getelementptr inbounds i8, i8* %13, i64 32
  %15 = getelementptr inbounds %"class.std::__1::tuple", %"class.std::__1::tuple"* %3, i64 0, i32 0, i32 0, i32 0
  %16 = load %"class.std::__1::basic_string"*, %"class.std::__1::basic_string"** %15, align 8, !noalias !54
  %17 = bitcast %"class.std::__1::basic_string"* %16 to %"struct.std::__1::basic_string<char, std::__1::char_traits<char>, std::__1::allocator<char> >::__short"*
  %18 = getelementptr inbounds %"struct.std::__1::basic_string<char, std::__1::char_traits<char>, std::__1::allocator<char> >::__short", %"struct.std::__1::basic_string<char, std::__1::char_traits<char>, std::__1::allocator<char> >::__short"* %17, i64 0, i32 1, i32 0
  %19 = load i8, i8* %18, align 1, !noalias !54
  %20 = icmp slt i8 %19, 0
  br i1 %20, label %23, label %21

21:                                               ; preds = %12
  %22 = bitcast %"class.std::__1::basic_string"* %16 to i8*
  call void @llvm.memcpy.p0i8.p0i8.i64(i8* align 8 %14, i8* align 8 %22, i64 24, i1 false) #14, !noalias !54
  br label %29

23:                                               ; preds = %12
  %24 = bitcast i8* %14 to %"class.std::__1::basic_string"*
  %25 = getelementptr inbounds %"class.std::__1::basic_string", %"class.std::__1::basic_string"* %16, i64 0, i32 0, i32 0, i32 0, i32 0, i32 0, i32 0
  %26 = load i8*, i8** %25, align 8, !noalias !54
  %27 = getelementptr inbounds %"class.std::__1::basic_string", %"class.std::__1::basic_string"* %16, i64 0, i32 0, i32 0, i32 0, i32 0, i32 0, i32 1
  %28 = load i64, i64* %27, align 8, !noalias !54
  call void @_ZNSt3__112basic_stringIcNS_11char_traitsIcEENS_9allocatorIcEEE25__init_copy_ctor_externalEPKcm(%"class.std::__1::basic_string"* %24, i8* %26, i64 %28) #14, !noalias !54
  br label %29

29:                                               ; preds = %21, %23
  %30 = getelementptr inbounds i8, i8* %13, i64 56
  call void @llvm.memset.p0i8.i64(i8* align 8 %30, i8 0, i64 24, i1 false) #14, !noalias !54
  %31 = bitcast %"class.std::__1::__tree_end_node"** %6 to i64*
  %32 = load i64, i64* %31, align 8
  %33 = bitcast i8* %13 to %"class.std::__1::__tree_node"*
  %34 = bitcast i8* %13 to %"class.std::__1::__tree_node_base"*
  %35 = getelementptr inbounds i8, i8* %13, i64 16
  call void @llvm.memset.p0i8.i64(i8* nonnull align 8 %13, i8 0, i64 16, i1 false) #14
  %36 = bitcast i8* %35 to i64*
  store i64 %32, i64* %36, align 8
  %37 = bitcast %"class.std::__1::__tree_node_base"** %8 to i8**
  store i8* %13, i8** %37, align 8
  %38 = getelementptr inbounds %"class.std::__1::__tree.171", %"class.std::__1::__tree.171"* %0, i64 0, i32 0
  %39 = load %"class.std::__1::__tree_end_node"*, %"class.std::__1::__tree_end_node"** %38, align 8
  %40 = getelementptr inbounds %"class.std::__1::__tree_end_node", %"class.std::__1::__tree_end_node"* %39, i64 0, i32 0
  %41 = load %"class.std::__1::__tree_node_base"*, %"class.std::__1::__tree_node_base"** %40, align 8
  %42 = icmp eq %"class.std::__1::__tree_node_base"* %41, null
  br i1 %42, label %47, label %43

43:                                               ; preds = %29
  %44 = ptrtoint %"class.std::__1::__tree_node_base"* %41 to i64
  %45 = bitcast %"class.std::__1::__tree.171"* %0 to i64*
  store i64 %44, i64* %45, align 8
  %46 = load %"class.std::__1::__tree_node_base"*, %"class.std::__1::__tree_node_base"** %8, align 8
  br label %47

47:                                               ; preds = %43, %29
  %48 = phi %"class.std::__1::__tree_node_base"* [ %34, %29 ], [ %46, %43 ]
  %49 = getelementptr inbounds %"class.std::__1::__tree.171", %"class.std::__1::__tree.171"* %0, i64 0, i32 1, i32 0, i32 0, i32 0
  %50 = load %"class.std::__1::__tree_node_base"*, %"class.std::__1::__tree_node_base"** %49, align 8
  call void @_ZNSt3__127__tree_balance_after_insertIPNS_16__tree_node_baseIPvEEEEvT_S5_(%"class.std::__1::__tree_node_base"* %50, %"class.std::__1::__tree_node_base"* %48) #14
  %51 = getelementptr inbounds %"class.std::__1::__tree.171", %"class.std::__1::__tree.171"* %0, i64 0, i32 2, i32 0, i32 0
  %52 = load i64, i64* %51, align 8
  %53 = add i64 %52, 1
  store i64 %53, i64* %51, align 8
  br label %54

54:                                               ; preds = %47, %5
  %55 = phi i8 [ 1, %47 ], [ 0, %5 ]
  %56 = phi %"class.std::__1::__tree_node"* [ %33, %47 ], [ %10, %5 ]
  %57 = getelementptr inbounds %"class.std::__1::__tree_node", %"class.std::__1::__tree_node"* %56, i64 0, i32 0, i32 0
  call void @llvm.lifetime.end.p0i8(i64 8, i8* nonnull %7) #14
  %58 = insertvalue { %"class.std::__1::__tree_end_node"*, i8 } undef, %"class.std::__1::__tree_end_node"* %57, 0
  %59 = insertvalue { %"class.std::__1::__tree_end_node"*, i8 } %58, i8 %55, 1
  ret { %"class.std::__1::__tree_end_node"*, i8 } %59
}

; Function Attrs: nounwind ssp uwtable
define linkonce_odr hidden dereferenceable(8) %"class.std::__1::__tree_node_base"** @_ZNSt3__16__treeINS_12__value_typeINS_12basic_stringIcNS_11char_traitsIcEENS_9allocatorIcEEEES7_EENS_19__map_value_compareIS7_S8_NS_4lessIS7_EELb1EEENS5_IS8_EEE12__find_equalIS7_EERPNS_16__tree_node_baseIPvEERPNS_15__tree_end_nodeISJ_EERKT_(%"class.std::__1::__tree.171"*, %"class.std::__1::__tree_end_node"** dereferenceable(8), %"class.std::__1::basic_string"* dereferenceable(24)) local_unnamed_addr #3 comdat align 2 {
  %4 = getelementptr inbounds %"class.std::__1::__tree.171", %"class.std::__1::__tree.171"* %0, i64 0, i32 1, i32 0, i32 0
  %5 = bitcast %"class.std::__1::__tree_end_node"* %4 to %"class.std::__1::__tree_node"**
  %6 = load %"class.std::__1::__tree_node"*, %"class.std::__1::__tree_node"** %5, align 8
  %7 = icmp eq %"class.std::__1::__tree_node"* %6, null
  br i1 %7, label %79, label %8

8:                                                ; preds = %3
  %9 = getelementptr inbounds %"class.std::__1::__tree.171", %"class.std::__1::__tree.171"* %0, i64 0, i32 1, i32 0, i32 0, i32 0
  %10 = bitcast %"class.std::__1::basic_string"* %2 to %"struct.std::__1::basic_string<char, std::__1::char_traits<char>, std::__1::allocator<char> >::__short"*
  %11 = getelementptr inbounds %"struct.std::__1::basic_string<char, std::__1::char_traits<char>, std::__1::allocator<char> >::__short", %"struct.std::__1::basic_string<char, std::__1::char_traits<char>, std::__1::allocator<char> >::__short"* %10, i64 0, i32 1, i32 0
  %12 = load i8, i8* %11, align 1
  %13 = icmp slt i8 %12, 0
  %14 = getelementptr inbounds %"class.std::__1::basic_string", %"class.std::__1::basic_string"* %2, i64 0, i32 0, i32 0, i32 0, i32 0, i32 0, i32 1
  %15 = load i64, i64* %14, align 8
  %16 = zext i8 %12 to i64
  %17 = select i1 %13, i64 %15, i64 %16
  %18 = getelementptr inbounds %"class.std::__1::basic_string", %"class.std::__1::basic_string"* %2, i64 0, i32 0, i32 0, i32 0, i32 0, i32 0, i32 0
  %19 = load i8*, i8** %18, align 8
  %20 = bitcast %"class.std::__1::basic_string"* %2 to i8*
  %21 = select i1 %13, i8* %19, i8* %20
  br label %22

22:                                               ; preds = %8, %75
  %23 = phi %"class.std::__1::__tree_node"* [ %78, %75 ], [ %6, %8 ]
  %24 = phi %"class.std::__1::__tree_node_base"** [ %77, %75 ], [ %9, %8 ]
  %25 = getelementptr inbounds %"class.std::__1::__tree_node", %"class.std::__1::__tree_node"* %23, i64 0, i32 1
  %26 = bitcast %"struct.std::__1::__value_type"* %25 to %"struct.std::__1::basic_string<char, std::__1::char_traits<char>, std::__1::allocator<char> >::__short"*
  %27 = getelementptr inbounds %"struct.std::__1::basic_string<char, std::__1::char_traits<char>, std::__1::allocator<char> >::__short", %"struct.std::__1::basic_string<char, std::__1::char_traits<char>, std::__1::allocator<char> >::__short"* %26, i64 0, i32 1, i32 0
  %28 = load i8, i8* %27, align 1
  %29 = icmp slt i8 %28, 0
  %30 = getelementptr inbounds %"class.std::__1::__tree_node", %"class.std::__1::__tree_node"* %23, i64 0, i32 1, i32 0, i32 0, i32 0, i32 0, i32 0, i32 0, i32 0, i32 1
  %31 = load i64, i64* %30, align 8
  %32 = zext i8 %28 to i64
  %33 = select i1 %29, i64 %31, i64 %32
  %34 = icmp ult i64 %33, %17
  %35 = select i1 %34, i64 %33, i64 %17
  %36 = icmp eq i64 %35, 0
  br i1 %36, label %44, label %37

37:                                               ; preds = %22
  %38 = getelementptr inbounds %"struct.std::__1::__value_type", %"struct.std::__1::__value_type"* %25, i64 0, i32 0, i32 0, i32 0, i32 0, i32 0, i32 0, i32 0, i32 0
  %39 = load i8*, i8** %38, align 8
  %40 = bitcast %"struct.std::__1::__value_type"* %25 to i8*
  %41 = select i1 %29, i8* %39, i8* %40
  %42 = tail call i32 @memcmp(i8* %21, i8* %41, i64 %35) #14
  %43 = icmp eq i32 %42, 0
  br i1 %43, label %44, label %46

44:                                               ; preds = %37, %22
  %45 = icmp ult i64 %17, %33
  br i1 %45, label %48, label %54

46:                                               ; preds = %37
  %47 = icmp slt i32 %42, 0
  br i1 %47, label %48, label %60

48:                                               ; preds = %44, %46
  %49 = getelementptr inbounds %"class.std::__1::__tree_node", %"class.std::__1::__tree_node"* %23, i64 0, i32 0, i32 0, i32 0
  %50 = load %"class.std::__1::__tree_node_base"*, %"class.std::__1::__tree_node_base"** %49, align 8
  %51 = icmp eq %"class.std::__1::__tree_node_base"* %50, null
  br i1 %51, label %52, label %75

52:                                               ; preds = %48
  %53 = getelementptr inbounds %"class.std::__1::__tree_node", %"class.std::__1::__tree_node"* %23, i64 0, i32 0, i32 0
  store %"class.std::__1::__tree_end_node"* %53, %"class.std::__1::__tree_end_node"** %1, align 8
  br label %81

54:                                               ; preds = %44
  br i1 %36, label %64, label %55

55:                                               ; preds = %54
  %56 = getelementptr inbounds %"struct.std::__1::__value_type", %"struct.std::__1::__value_type"* %25, i64 0, i32 0, i32 0, i32 0, i32 0, i32 0, i32 0, i32 0, i32 0
  %57 = load i8*, i8** %56, align 8
  %58 = bitcast %"struct.std::__1::__value_type"* %25 to i8*
  %59 = select i1 %29, i8* %57, i8* %58
  br label %60

60:                                               ; preds = %55, %46
  %61 = phi i8* [ %59, %55 ], [ %41, %46 ]
  %62 = tail call i32 @memcmp(i8* %61, i8* %21, i64 %35) #14
  %63 = icmp eq i32 %62, 0
  br i1 %63, label %64, label %65

64:                                               ; preds = %60, %54
  br i1 %34, label %67, label %73

65:                                               ; preds = %60
  %66 = icmp slt i32 %62, 0
  br i1 %66, label %67, label %73

67:                                               ; preds = %64, %65
  %68 = getelementptr inbounds %"class.std::__1::__tree_node", %"class.std::__1::__tree_node"* %23, i64 0, i32 0, i32 1
  %69 = load %"class.std::__1::__tree_node_base"*, %"class.std::__1::__tree_node_base"** %68, align 8
  %70 = icmp eq %"class.std::__1::__tree_node_base"* %69, null
  br i1 %70, label %71, label %75

71:                                               ; preds = %67
  %72 = getelementptr inbounds %"class.std::__1::__tree_node", %"class.std::__1::__tree_node"* %23, i64 0, i32 0, i32 0
  store %"class.std::__1::__tree_end_node"* %72, %"class.std::__1::__tree_end_node"** %1, align 8
  br label %81

73:                                               ; preds = %64, %65
  %74 = getelementptr inbounds %"class.std::__1::__tree_node", %"class.std::__1::__tree_node"* %23, i64 0, i32 0, i32 0
  store %"class.std::__1::__tree_end_node"* %74, %"class.std::__1::__tree_end_node"** %1, align 8
  br label %81

75:                                               ; preds = %67, %48
  %76 = phi %"class.std::__1::__tree_node_base"* [ %50, %48 ], [ %69, %67 ]
  %77 = phi %"class.std::__1::__tree_node_base"** [ %49, %48 ], [ %68, %67 ]
  %78 = bitcast %"class.std::__1::__tree_node_base"* %76 to %"class.std::__1::__tree_node"*
  br label %22

79:                                               ; preds = %3
  store %"class.std::__1::__tree_end_node"* %4, %"class.std::__1::__tree_end_node"** %1, align 8
  %80 = getelementptr inbounds %"class.std::__1::__tree_end_node", %"class.std::__1::__tree_end_node"* %4, i64 0, i32 0
  br label %81

81:                                               ; preds = %79, %73, %71, %52
  %82 = phi %"class.std::__1::__tree_node_base"** [ %49, %52 ], [ %68, %71 ], [ %24, %73 ], [ %80, %79 ]
  ret %"class.std::__1::__tree_node_base"** %82
}

; Function Attrs: nofree nounwind readonly
declare i32 @memcmp(i8* nocapture, i8* nocapture, i64) local_unnamed_addr #11

; Function Attrs: nounwind ssp uwtable
define linkonce_odr hidden void @_ZNSt3__127__tree_balance_after_insertIPNS_16__tree_node_baseIPvEEEEvT_S5_(%"class.std::__1::__tree_node_base"*, %"class.std::__1::__tree_node_base"*) local_unnamed_addr #3 comdat {
  %3 = icmp eq %"class.std::__1::__tree_node_base"* %1, %0
  %4 = getelementptr inbounds %"class.std::__1::__tree_node_base", %"class.std::__1::__tree_node_base"* %1, i64 0, i32 3
  %5 = zext i1 %3 to i8
  store i8 %5, i8* %4, align 8
  br i1 %3, label %156, label %6

6:                                                ; preds = %2, %149
  %7 = phi %"class.std::__1::__tree_node_base"* [ %20, %149 ], [ %1, %2 ]
  %8 = getelementptr inbounds %"class.std::__1::__tree_node_base", %"class.std::__1::__tree_node_base"* %7, i64 0, i32 2
  %9 = bitcast %"class.std::__1::__tree_end_node"** %8 to %"class.std::__1::__tree_node_base"**
  %10 = load %"class.std::__1::__tree_node_base"*, %"class.std::__1::__tree_node_base"** %9, align 8
  %11 = getelementptr inbounds %"class.std::__1::__tree_node_base", %"class.std::__1::__tree_node_base"* %10, i64 0, i32 3
  %12 = load i8, i8* %11, align 8, !range !2
  %13 = icmp eq i8 %12, 0
  br i1 %13, label %14, label %156

14:                                               ; preds = %6
  %15 = getelementptr inbounds %"class.std::__1::__tree_node_base", %"class.std::__1::__tree_node_base"* %10, i64 0, i32 2
  %16 = load %"class.std::__1::__tree_end_node"*, %"class.std::__1::__tree_end_node"** %15, align 8
  %17 = getelementptr inbounds %"class.std::__1::__tree_end_node", %"class.std::__1::__tree_end_node"* %16, i64 0, i32 0
  %18 = load %"class.std::__1::__tree_node_base"*, %"class.std::__1::__tree_node_base"** %17, align 8
  %19 = icmp eq %"class.std::__1::__tree_node_base"* %18, %10
  %20 = bitcast %"class.std::__1::__tree_end_node"* %16 to %"class.std::__1::__tree_node_base"*
  br i1 %19, label %21, label %87

21:                                               ; preds = %14
  %22 = getelementptr inbounds %"class.std::__1::__tree_end_node", %"class.std::__1::__tree_end_node"* %16, i64 1, i32 0
  %23 = load %"class.std::__1::__tree_node_base"*, %"class.std::__1::__tree_node_base"** %22, align 8
  %24 = icmp eq %"class.std::__1::__tree_node_base"* %23, null
  br i1 %24, label %29, label %25

25:                                               ; preds = %21
  %26 = getelementptr inbounds %"class.std::__1::__tree_node_base", %"class.std::__1::__tree_node_base"* %23, i64 0, i32 3
  %27 = load i8, i8* %26, align 8, !range !2
  %28 = icmp eq i8 %27, 0
  br i1 %28, label %149, label %29

29:                                               ; preds = %25, %21
  %30 = getelementptr inbounds %"class.std::__1::__tree_node_base", %"class.std::__1::__tree_node_base"* %10, i64 0, i32 2
  %31 = bitcast %"class.std::__1::__tree_end_node"* %16 to %"class.std::__1::__tree_node_base"*
  %32 = getelementptr inbounds %"class.std::__1::__tree_node_base", %"class.std::__1::__tree_node_base"* %10, i64 0, i32 0, i32 0
  %33 = load %"class.std::__1::__tree_node_base"*, %"class.std::__1::__tree_node_base"** %32, align 8
  %34 = icmp eq %"class.std::__1::__tree_node_base"* %33, %7
  br i1 %34, label %61, label %35

35:                                               ; preds = %29
  %36 = ptrtoint %"class.std::__1::__tree_end_node"* %16 to i64
  %37 = getelementptr inbounds %"class.std::__1::__tree_node_base", %"class.std::__1::__tree_node_base"* %10, i64 0, i32 1
  %38 = load %"class.std::__1::__tree_node_base"*, %"class.std::__1::__tree_node_base"** %37, align 8
  %39 = getelementptr inbounds %"class.std::__1::__tree_node_base", %"class.std::__1::__tree_node_base"* %38, i64 0, i32 0, i32 0
  %40 = load %"class.std::__1::__tree_node_base"*, %"class.std::__1::__tree_node_base"** %39, align 8
  store %"class.std::__1::__tree_node_base"* %40, %"class.std::__1::__tree_node_base"** %37, align 8
  %41 = icmp eq %"class.std::__1::__tree_node_base"* %40, null
  br i1 %41, label %47, label %42

42:                                               ; preds = %35
  %43 = getelementptr inbounds %"class.std::__1::__tree_node_base", %"class.std::__1::__tree_node_base"* %10, i64 0, i32 0
  %44 = getelementptr inbounds %"class.std::__1::__tree_node_base", %"class.std::__1::__tree_node_base"* %40, i64 0, i32 2
  store %"class.std::__1::__tree_end_node"* %43, %"class.std::__1::__tree_end_node"** %44, align 8
  %45 = bitcast %"class.std::__1::__tree_end_node"** %30 to i64*
  %46 = load i64, i64* %45, align 8
  br label %47

47:                                               ; preds = %35, %42
  %48 = phi i64 [ %46, %42 ], [ %36, %35 ]
  %49 = getelementptr inbounds %"class.std::__1::__tree_node_base", %"class.std::__1::__tree_node_base"* %38, i64 0, i32 2
  %50 = bitcast %"class.std::__1::__tree_end_node"** %49 to i64*
  store i64 %48, i64* %50, align 8
  %51 = load %"class.std::__1::__tree_end_node"*, %"class.std::__1::__tree_end_node"** %30, align 8
  %52 = getelementptr inbounds %"class.std::__1::__tree_end_node", %"class.std::__1::__tree_end_node"* %51, i64 0, i32 0
  %53 = load %"class.std::__1::__tree_node_base"*, %"class.std::__1::__tree_node_base"** %52, align 8
  %54 = icmp eq %"class.std::__1::__tree_node_base"* %53, %10
  %55 = getelementptr inbounds %"class.std::__1::__tree_end_node", %"class.std::__1::__tree_end_node"* %51, i64 1, i32 0
  %56 = select i1 %54, %"class.std::__1::__tree_node_base"** %52, %"class.std::__1::__tree_node_base"** %55
  store %"class.std::__1::__tree_node_base"* %38, %"class.std::__1::__tree_node_base"** %56, align 8
  store %"class.std::__1::__tree_node_base"* %10, %"class.std::__1::__tree_node_base"** %39, align 8
  %57 = getelementptr inbounds %"class.std::__1::__tree_node_base", %"class.std::__1::__tree_node_base"* %38, i64 0, i32 0
  store %"class.std::__1::__tree_end_node"* %57, %"class.std::__1::__tree_end_node"** %30, align 8
  %58 = getelementptr inbounds %"class.std::__1::__tree_node_base", %"class.std::__1::__tree_node_base"* %38, i64 0, i32 2
  %59 = bitcast %"class.std::__1::__tree_end_node"** %58 to %"class.std::__1::__tree_node_base"**
  %60 = load %"class.std::__1::__tree_node_base"*, %"class.std::__1::__tree_node_base"** %59, align 8
  br label %61

61:                                               ; preds = %47, %29
  %62 = phi %"class.std::__1::__tree_node_base"* [ %31, %29 ], [ %60, %47 ]
  %63 = phi %"class.std::__1::__tree_node_base"* [ %10, %29 ], [ %38, %47 ]
  %64 = getelementptr inbounds %"class.std::__1::__tree_node_base", %"class.std::__1::__tree_node_base"* %63, i64 0, i32 3
  store i8 1, i8* %64, align 8
  %65 = getelementptr inbounds %"class.std::__1::__tree_node_base", %"class.std::__1::__tree_node_base"* %62, i64 0, i32 3
  store i8 0, i8* %65, align 8
  %66 = getelementptr inbounds %"class.std::__1::__tree_node_base", %"class.std::__1::__tree_node_base"* %62, i64 0, i32 0, i32 0
  %67 = load %"class.std::__1::__tree_node_base"*, %"class.std::__1::__tree_node_base"** %66, align 8
  %68 = getelementptr inbounds %"class.std::__1::__tree_node_base", %"class.std::__1::__tree_node_base"* %67, i64 0, i32 1
  %69 = load %"class.std::__1::__tree_node_base"*, %"class.std::__1::__tree_node_base"** %68, align 8
  store %"class.std::__1::__tree_node_base"* %69, %"class.std::__1::__tree_node_base"** %66, align 8
  %70 = icmp eq %"class.std::__1::__tree_node_base"* %69, null
  br i1 %70, label %74, label %71

71:                                               ; preds = %61
  %72 = getelementptr inbounds %"class.std::__1::__tree_node_base", %"class.std::__1::__tree_node_base"* %62, i64 0, i32 0
  %73 = getelementptr inbounds %"class.std::__1::__tree_node_base", %"class.std::__1::__tree_node_base"* %69, i64 0, i32 2
  store %"class.std::__1::__tree_end_node"* %72, %"class.std::__1::__tree_end_node"** %73, align 8
  br label %74

74:                                               ; preds = %71, %61
  %75 = getelementptr inbounds %"class.std::__1::__tree_node_base", %"class.std::__1::__tree_node_base"* %62, i64 0, i32 2
  %76 = bitcast %"class.std::__1::__tree_end_node"** %75 to i64*
  %77 = load i64, i64* %76, align 8
  %78 = getelementptr inbounds %"class.std::__1::__tree_node_base", %"class.std::__1::__tree_node_base"* %67, i64 0, i32 2
  %79 = bitcast %"class.std::__1::__tree_end_node"** %78 to i64*
  store i64 %77, i64* %79, align 8
  %80 = load %"class.std::__1::__tree_end_node"*, %"class.std::__1::__tree_end_node"** %75, align 8
  %81 = getelementptr inbounds %"class.std::__1::__tree_end_node", %"class.std::__1::__tree_end_node"* %80, i64 0, i32 0
  %82 = load %"class.std::__1::__tree_node_base"*, %"class.std::__1::__tree_node_base"** %81, align 8
  %83 = icmp eq %"class.std::__1::__tree_node_base"* %82, %62
  %84 = getelementptr inbounds %"class.std::__1::__tree_end_node", %"class.std::__1::__tree_end_node"* %80, i64 1, i32 0
  %85 = select i1 %83, %"class.std::__1::__tree_node_base"** %81, %"class.std::__1::__tree_node_base"** %84
  store %"class.std::__1::__tree_node_base"* %67, %"class.std::__1::__tree_node_base"** %85, align 8
  store %"class.std::__1::__tree_node_base"* %62, %"class.std::__1::__tree_node_base"** %68, align 8
  %86 = getelementptr inbounds %"class.std::__1::__tree_node_base", %"class.std::__1::__tree_node_base"* %67, i64 0, i32 0
  store %"class.std::__1::__tree_end_node"* %86, %"class.std::__1::__tree_end_node"** %75, align 8
  br label %156

87:                                               ; preds = %14
  %88 = icmp eq %"class.std::__1::__tree_node_base"* %18, null
  br i1 %88, label %93, label %89

89:                                               ; preds = %87
  %90 = getelementptr inbounds %"class.std::__1::__tree_node_base", %"class.std::__1::__tree_node_base"* %18, i64 0, i32 3
  %91 = load i8, i8* %90, align 8, !range !2
  %92 = icmp eq i8 %91, 0
  br i1 %92, label %149, label %93

93:                                               ; preds = %89, %87
  %94 = getelementptr inbounds %"class.std::__1::__tree_node_base", %"class.std::__1::__tree_node_base"* %10, i64 0, i32 2
  %95 = bitcast %"class.std::__1::__tree_end_node"* %16 to %"class.std::__1::__tree_node_base"*
  %96 = getelementptr inbounds %"class.std::__1::__tree_node_base", %"class.std::__1::__tree_node_base"* %10, i64 0, i32 0, i32 0
  %97 = load %"class.std::__1::__tree_node_base"*, %"class.std::__1::__tree_node_base"** %96, align 8
  %98 = icmp eq %"class.std::__1::__tree_node_base"* %97, %7
  br i1 %98, label %99, label %123

99:                                               ; preds = %93
  %100 = ptrtoint %"class.std::__1::__tree_end_node"* %16 to i64
  %101 = getelementptr inbounds %"class.std::__1::__tree_node_base", %"class.std::__1::__tree_node_base"* %10, i64 0, i32 0, i32 0
  %102 = getelementptr inbounds %"class.std::__1::__tree_node_base", %"class.std::__1::__tree_node_base"* %7, i64 0, i32 1
  %103 = load %"class.std::__1::__tree_node_base"*, %"class.std::__1::__tree_node_base"** %102, align 8
  store %"class.std::__1::__tree_node_base"* %103, %"class.std::__1::__tree_node_base"** %101, align 8
  %104 = icmp eq %"class.std::__1::__tree_node_base"* %103, null
  br i1 %104, label %110, label %105

105:                                              ; preds = %99
  %106 = getelementptr inbounds %"class.std::__1::__tree_node_base", %"class.std::__1::__tree_node_base"* %10, i64 0, i32 0
  %107 = getelementptr inbounds %"class.std::__1::__tree_node_base", %"class.std::__1::__tree_node_base"* %103, i64 0, i32 2
  store %"class.std::__1::__tree_end_node"* %106, %"class.std::__1::__tree_end_node"** %107, align 8
  %108 = bitcast %"class.std::__1::__tree_end_node"** %94 to i64*
  %109 = load i64, i64* %108, align 8
  br label %110

110:                                              ; preds = %99, %105
  %111 = phi i64 [ %109, %105 ], [ %100, %99 ]
  %112 = bitcast %"class.std::__1::__tree_end_node"** %8 to i64*
  store i64 %111, i64* %112, align 8
  %113 = load %"class.std::__1::__tree_end_node"*, %"class.std::__1::__tree_end_node"** %94, align 8
  %114 = getelementptr inbounds %"class.std::__1::__tree_end_node", %"class.std::__1::__tree_end_node"* %113, i64 0, i32 0
  %115 = load %"class.std::__1::__tree_node_base"*, %"class.std::__1::__tree_node_base"** %114, align 8
  %116 = icmp eq %"class.std::__1::__tree_node_base"* %115, %10
  %117 = getelementptr inbounds %"class.std::__1::__tree_end_node", %"class.std::__1::__tree_end_node"* %113, i64 1, i32 0
  %118 = select i1 %116, %"class.std::__1::__tree_node_base"** %114, %"class.std::__1::__tree_node_base"** %117
  store %"class.std::__1::__tree_node_base"* %7, %"class.std::__1::__tree_node_base"** %118, align 8
  store %"class.std::__1::__tree_node_base"* %10, %"class.std::__1::__tree_node_base"** %102, align 8
  %119 = getelementptr inbounds %"class.std::__1::__tree_node_base", %"class.std::__1::__tree_node_base"* %7, i64 0, i32 0
  store %"class.std::__1::__tree_end_node"* %119, %"class.std::__1::__tree_end_node"** %94, align 8
  %120 = getelementptr inbounds %"class.std::__1::__tree_node_base", %"class.std::__1::__tree_node_base"* %7, i64 0, i32 2
  %121 = bitcast %"class.std::__1::__tree_end_node"** %120 to %"class.std::__1::__tree_node_base"**
  %122 = load %"class.std::__1::__tree_node_base"*, %"class.std::__1::__tree_node_base"** %121, align 8
  br label %123

123:                                              ; preds = %93, %110
  %124 = phi %"class.std::__1::__tree_node_base"* [ %122, %110 ], [ %95, %93 ]
  %125 = phi %"class.std::__1::__tree_node_base"* [ %7, %110 ], [ %10, %93 ]
  %126 = getelementptr inbounds %"class.std::__1::__tree_node_base", %"class.std::__1::__tree_node_base"* %125, i64 0, i32 3
  store i8 1, i8* %126, align 8
  %127 = getelementptr inbounds %"class.std::__1::__tree_node_base", %"class.std::__1::__tree_node_base"* %124, i64 0, i32 3
  store i8 0, i8* %127, align 8
  %128 = getelementptr inbounds %"class.std::__1::__tree_node_base", %"class.std::__1::__tree_node_base"* %124, i64 0, i32 1
  %129 = load %"class.std::__1::__tree_node_base"*, %"class.std::__1::__tree_node_base"** %128, align 8
  %130 = getelementptr inbounds %"class.std::__1::__tree_node_base", %"class.std::__1::__tree_node_base"* %129, i64 0, i32 0, i32 0
  %131 = load %"class.std::__1::__tree_node_base"*, %"class.std::__1::__tree_node_base"** %130, align 8
  store %"class.std::__1::__tree_node_base"* %131, %"class.std::__1::__tree_node_base"** %128, align 8
  %132 = icmp eq %"class.std::__1::__tree_node_base"* %131, null
  br i1 %132, label %136, label %133

133:                                              ; preds = %123
  %134 = getelementptr inbounds %"class.std::__1::__tree_node_base", %"class.std::__1::__tree_node_base"* %124, i64 0, i32 0
  %135 = getelementptr inbounds %"class.std::__1::__tree_node_base", %"class.std::__1::__tree_node_base"* %131, i64 0, i32 2
  store %"class.std::__1::__tree_end_node"* %134, %"class.std::__1::__tree_end_node"** %135, align 8
  br label %136

136:                                              ; preds = %133, %123
  %137 = getelementptr inbounds %"class.std::__1::__tree_node_base", %"class.std::__1::__tree_node_base"* %124, i64 0, i32 2
  %138 = bitcast %"class.std::__1::__tree_end_node"** %137 to i64*
  %139 = load i64, i64* %138, align 8
  %140 = getelementptr inbounds %"class.std::__1::__tree_node_base", %"class.std::__1::__tree_node_base"* %129, i64 0, i32 2
  %141 = bitcast %"class.std::__1::__tree_end_node"** %140 to i64*
  store i64 %139, i64* %141, align 8
  %142 = load %"class.std::__1::__tree_end_node"*, %"class.std::__1::__tree_end_node"** %137, align 8
  %143 = getelementptr inbounds %"class.std::__1::__tree_end_node", %"class.std::__1::__tree_end_node"* %142, i64 0, i32 0
  %144 = load %"class.std::__1::__tree_node_base"*, %"class.std::__1::__tree_node_base"** %143, align 8
  %145 = icmp eq %"class.std::__1::__tree_node_base"* %144, %124
  %146 = getelementptr inbounds %"class.std::__1::__tree_end_node", %"class.std::__1::__tree_end_node"* %142, i64 1, i32 0
  %147 = select i1 %145, %"class.std::__1::__tree_node_base"** %143, %"class.std::__1::__tree_node_base"** %146
  store %"class.std::__1::__tree_node_base"* %129, %"class.std::__1::__tree_node_base"** %147, align 8
  store %"class.std::__1::__tree_node_base"* %124, %"class.std::__1::__tree_node_base"** %130, align 8
  %148 = getelementptr inbounds %"class.std::__1::__tree_node_base", %"class.std::__1::__tree_node_base"* %129, i64 0, i32 0
  store %"class.std::__1::__tree_end_node"* %148, %"class.std::__1::__tree_end_node"** %137, align 8
  br label %156

149:                                              ; preds = %89, %25
  %150 = phi i8* [ %26, %25 ], [ %90, %89 ]
  store i8 1, i8* %11, align 8
  %151 = icmp eq %"class.std::__1::__tree_node_base"* %20, %0
  %152 = getelementptr inbounds %"class.std::__1::__tree_end_node", %"class.std::__1::__tree_end_node"* %16, i64 3
  %153 = bitcast %"class.std::__1::__tree_end_node"* %152 to i8*
  %154 = zext i1 %151 to i8
  store i8 %154, i8* %153, align 8
  store i8 1, i8* %150, align 8
  %155 = icmp eq %"class.std::__1::__tree_node_base"* %20, %0
  br i1 %155, label %156, label %6

156:                                              ; preds = %6, %149, %2, %136, %74
  ret void
}

declare dereferenceable(24) %"class.std::__1::basic_string"* @_ZNSt3__112basic_stringIcNS_11char_traitsIcEENS_9allocatorIcEEE17__assign_no_aliasILb1EEERS5_PKcm(%"class.std::__1::basic_string"*, i8*, i64) local_unnamed_addr #0

declare dereferenceable(24) %"class.std::__1::basic_string"* @_ZNSt3__112basic_stringIcNS_11char_traitsIcEENS_9allocatorIcEEE17__assign_no_aliasILb0EEERS5_PKcm(%"class.std::__1::basic_string"*, i8*, i64) local_unnamed_addr #0

declare i64 @_ZNK11flatbuffers7EnumDef8DistanceEPKNS_7EnumValES3_(%"struct.flatbuffers::EnumDef"*, %"struct.flatbuffers::EnumVal"*, %"struct.flatbuffers::EnumVal"*) local_unnamed_addr #0

declare %"struct.flatbuffers::EnumVal"* @_ZNK11flatbuffers7EnumDef8MinValueEv(%"struct.flatbuffers::EnumDef"*) local_unnamed_addr #0

declare %"struct.flatbuffers::EnumVal"* @_ZNK11flatbuffers7EnumDef8MaxValueEv(%"struct.flatbuffers::EnumDef"*) local_unnamed_addr #0

; Function Attrs: nounwind ssp uwtable
define linkonce_odr hidden void @_ZNSt3__110__function16__policy_invokerIFvvEE11__call_implINS0_20__default_alloc_funcIZZNK11flatbuffers6kotlin15KotlinGenerator7GenEnumERNS6_7EnumDefERNS6_10CodeWriterEENKUlvE_clEvEUlvE_S2_EEEEvPKNS0_16__policy_storageE(%"union.std::__1::__function::__policy_storage"*) #3 comdat align 2 {
  %2 = bitcast %"union.std::__1::__function::__policy_storage"* %0 to %"class.std::__1::__function::__default_alloc_func.239"**
  %3 = load %"class.std::__1::__function::__default_alloc_func.239"*, %"class.std::__1::__function::__default_alloc_func.239"** %2, align 8
  %4 = getelementptr inbounds %"class.std::__1::__function::__default_alloc_func.239", %"class.std::__1::__function::__default_alloc_func.239"* %3, i64 0, i32 0
  tail call void @_ZZZNK11flatbuffers6kotlin15KotlinGenerator7GenEnumERNS_7EnumDefERNS_10CodeWriterEENKUlvE_clEvENKUlvE_clEv(%class.anon.228* %4) #14
  ret void
}

; Function Attrs: inlinehint nounwind ssp uwtable
define linkonce_odr hidden void @_ZZZNK11flatbuffers6kotlin15KotlinGenerator7GenEnumERNS_7EnumDefERNS_10CodeWriterEENKUlvE_clEvENKUlvE_clEv(%class.anon.228*) local_unnamed_addr #1 comdat align 2 {
  %2 = alloca %"class.std::__1::basic_string", align 8
  %3 = alloca %"class.std::__1::basic_string", align 8
  %4 = alloca %"class.std::__1::basic_string", align 8
  %5 = alloca %"class.std::__1::basic_string", align 8
  %6 = alloca %"class.std::__1::basic_string", align 8
  %7 = alloca %"class.std::__1::basic_string", align 8
  %8 = bitcast %"class.std::__1::basic_string"* %2 to %"struct.std::__1::basic_string<char, std::__1::char_traits<char>, std::__1::allocator<char> >::__short"*
  %9 = getelementptr inbounds %"struct.std::__1::basic_string<char, std::__1::char_traits<char>, std::__1::allocator<char> >::__short", %"struct.std::__1::basic_string<char, std::__1::char_traits<char>, std::__1::allocator<char> >::__short"* %8, i64 0, i32 1, i32 0
  store i8 9, i8* %9, align 1
  %10 = bitcast %"class.std::__1::basic_string"* %2 to i8*
  call void @llvm.memcpy.p0i8.p0i8.i64(i8* nonnull align 8 %10, i8* align 1 getelementptr inbounds ([10 x i8], [10 x i8]* @.str.77, i64 0, i64 0), i64 9, i1 false) #14
  %11 = getelementptr inbounds i8, i8* %10, i64 9
  store i8 0, i8* %11, align 1
  %12 = getelementptr inbounds %class.anon.228, %class.anon.228* %0, i64 0, i32 0
  %13 = load %"class.flatbuffers::CodeWriter"*, %"class.flatbuffers::CodeWriter"** %12, align 8
  call void @_ZN11flatbuffers10CodeWriterpLENSt3__112basic_stringIcNS1_11char_traitsIcEENS1_9allocatorIcEEEE(%"class.flatbuffers::CodeWriter"* %13, %"class.std::__1::basic_string"* nonnull %2) #14
  %14 = load i8, i8* %9, align 1
  %15 = icmp slt i8 %14, 0
  br i1 %15, label %16, label %19

16:                                               ; preds = %1
  %17 = getelementptr inbounds %"class.std::__1::basic_string", %"class.std::__1::basic_string"* %2, i64 0, i32 0, i32 0, i32 0, i32 0, i32 0, i32 0
  %18 = load i8*, i8** %17, align 8
  call void @_ZdlPv(i8* %18) #13
  br label %19

19:                                               ; preds = %1, %16
  %20 = getelementptr inbounds %class.anon.228, %class.anon.228* %0, i64 0, i32 1
  %21 = getelementptr inbounds %class.anon.228, %class.anon.228* %0, i64 0, i32 2
  %22 = load %"class.std::__1::vector.214"*, %"class.std::__1::vector.214"** %21, align 8
  %23 = getelementptr inbounds %"class.std::__1::vector.214", %"class.std::__1::vector.214"* %22, i64 0, i32 0, i32 0
  %24 = load %"struct.flatbuffers::EnumVal"**, %"struct.flatbuffers::EnumVal"*** %23, align 8
  %25 = getelementptr inbounds %"class.std::__1::vector.214", %"class.std::__1::vector.214"* %22, i64 0, i32 0, i32 1
  %26 = load %"struct.flatbuffers::EnumVal"**, %"struct.flatbuffers::EnumVal"*** %25, align 8
  %27 = icmp eq %"struct.flatbuffers::EnumVal"** %24, %26
  br i1 %27, label %51, label %28

28:                                               ; preds = %19
  %29 = load %"struct.flatbuffers::EnumDef"*, %"struct.flatbuffers::EnumDef"** %20, align 8
  %30 = getelementptr inbounds %"struct.flatbuffers::EnumDef", %"struct.flatbuffers::EnumDef"* %29, i64 0, i32 5, i32 1, i32 0, i32 0
  %31 = load %"struct.flatbuffers::EnumVal"**, %"struct.flatbuffers::EnumVal"*** %30, align 8
  %32 = load %"struct.flatbuffers::EnumVal"*, %"struct.flatbuffers::EnumVal"** %31, align 8
  %33 = bitcast %"class.std::__1::basic_string"* %3 to %"struct.std::__1::basic_string<char, std::__1::char_traits<char>, std::__1::allocator<char> >::__short"*
  %34 = getelementptr inbounds %"struct.std::__1::basic_string<char, std::__1::char_traits<char>, std::__1::allocator<char> >::__short", %"struct.std::__1::basic_string<char, std::__1::char_traits<char>, std::__1::allocator<char> >::__short"* %33, i64 0, i32 1, i32 0
  %35 = bitcast %"class.std::__1::basic_string"* %3 to i8*
  %36 = getelementptr inbounds i8, i8* %35, i64 5
  %37 = getelementptr inbounds %"class.std::__1::basic_string", %"class.std::__1::basic_string"* %3, i64 0, i32 0, i32 0, i32 0, i32 0, i32 0, i32 0
  %38 = bitcast %"class.std::__1::basic_string"* %5 to i8*
  %39 = bitcast %"class.std::__1::basic_string"* %4 to i8*
  %40 = bitcast %"class.std::__1::basic_string"* %4 to %"struct.std::__1::basic_string<char, std::__1::char_traits<char>, std::__1::allocator<char> >::__short"*
  %41 = getelementptr inbounds %"struct.std::__1::basic_string<char, std::__1::char_traits<char>, std::__1::allocator<char> >::__short", %"struct.std::__1::basic_string<char, std::__1::char_traits<char>, std::__1::allocator<char> >::__short"* %40, i64 0, i32 1, i32 0
  %42 = getelementptr inbounds %"class.std::__1::basic_string", %"class.std::__1::basic_string"* %4, i64 0, i32 0, i32 0, i32 0, i32 0, i32 0, i32 0
  %43 = bitcast %"class.std::__1::basic_string"* %5 to %"struct.std::__1::basic_string<char, std::__1::char_traits<char>, std::__1::allocator<char> >::__short"*
  %44 = getelementptr inbounds %"struct.std::__1::basic_string<char, std::__1::char_traits<char>, std::__1::allocator<char> >::__short", %"struct.std::__1::basic_string<char, std::__1::char_traits<char>, std::__1::allocator<char> >::__short"* %43, i64 0, i32 1, i32 0
  %45 = getelementptr inbounds %"class.std::__1::basic_string", %"class.std::__1::basic_string"* %5, i64 0, i32 0, i32 0, i32 0, i32 0, i32 0, i32 0
  %46 = bitcast %"class.std::__1::basic_string"* %6 to %"struct.std::__1::basic_string<char, std::__1::char_traits<char>, std::__1::allocator<char> >::__short"*
  %47 = getelementptr inbounds %"struct.std::__1::basic_string<char, std::__1::char_traits<char>, std::__1::allocator<char> >::__short", %"struct.std::__1::basic_string<char, std::__1::char_traits<char>, std::__1::allocator<char> >::__short"* %46, i64 0, i32 1, i32 0
  %48 = bitcast %"class.std::__1::basic_string"* %6 to i8*
  %49 = getelementptr inbounds i8, i8* %48, i64 3
  %50 = getelementptr inbounds %"class.std::__1::basic_string", %"class.std::__1::basic_string"* %6, i64 0, i32 0, i32 0, i32 0, i32 0, i32 0, i32 0
  br label %63

51:                                               ; preds = %107, %19
  %52 = bitcast %"class.std::__1::basic_string"* %7 to %"struct.std::__1::basic_string<char, std::__1::char_traits<char>, std::__1::allocator<char> >::__short"*
  %53 = getelementptr inbounds %"struct.std::__1::basic_string<char, std::__1::char_traits<char>, std::__1::allocator<char> >::__short", %"struct.std::__1::basic_string<char, std::__1::char_traits<char>, std::__1::allocator<char> >::__short"* %52, i64 0, i32 1, i32 0
  store i8 1, i8* %53, align 1
  %54 = bitcast %"class.std::__1::basic_string"* %7 to i8*
  store i8 41, i8* %54, align 8
  %55 = getelementptr inbounds i8, i8* %54, i64 1
  store i8 0, i8* %55, align 1
  %56 = load %"class.flatbuffers::CodeWriter"*, %"class.flatbuffers::CodeWriter"** %12, align 8
  call void @_ZN11flatbuffers10CodeWriterpLENSt3__112basic_stringIcNS1_11char_traitsIcEENS1_9allocatorIcEEEE(%"class.flatbuffers::CodeWriter"* %56, %"class.std::__1::basic_string"* nonnull %7) #14
  %57 = load i8, i8* %53, align 1
  %58 = icmp slt i8 %57, 0
  br i1 %58, label %59, label %62

59:                                               ; preds = %51
  %60 = getelementptr inbounds %"class.std::__1::basic_string", %"class.std::__1::basic_string"* %7, i64 0, i32 0, i32 0, i32 0, i32 0, i32 0, i32 0
  %61 = load i8*, i8** %60, align 8
  call void @_ZdlPv(i8* %61) #13
  br label %62

62:                                               ; preds = %51, %59
  ret void

63:                                               ; preds = %112, %28
  %64 = phi %"struct.flatbuffers::EnumDef"* [ %29, %28 ], [ %113, %112 ]
  %65 = phi %"struct.flatbuffers::EnumVal"* [ %32, %28 ], [ %67, %112 ]
  %66 = phi %"struct.flatbuffers::EnumVal"** [ %24, %28 ], [ %86, %112 ]
  %67 = load %"struct.flatbuffers::EnumVal"*, %"struct.flatbuffers::EnumVal"** %66, align 8
  %68 = call i64 @_ZNK11flatbuffers7EnumDef8DistanceEPKNS_7EnumValES3_(%"struct.flatbuffers::EnumDef"* %64, %"struct.flatbuffers::EnumVal"* %65, %"struct.flatbuffers::EnumVal"* %67) #14
  %69 = icmp ugt i64 %68, 1
  br i1 %69, label %91, label %70

70:                                               ; preds = %98, %63
  call void @llvm.lifetime.start.p0i8(i64 24, i8* nonnull %38) #14
  %71 = load %"struct.flatbuffers::EnumVal"*, %"struct.flatbuffers::EnumVal"** %66, align 8
  %72 = getelementptr inbounds %"struct.flatbuffers::EnumVal", %"struct.flatbuffers::EnumVal"* %71, i64 0, i32 0
  call void @_ZNSt3__1plIcNS_11char_traitsIcEENS_9allocatorIcEEEENS_12basic_stringIT_T0_T1_EEPKS6_RKS9_(%"class.std::__1::basic_string"* nonnull sret %5, i8* getelementptr inbounds ([2 x i8], [2 x i8]* @.str.79, i64 0, i64 0), %"class.std::__1::basic_string"* dereferenceable(24) %72) #14
  %73 = call dereferenceable(24) %"class.std::__1::basic_string"* @_ZNSt3__112basic_stringIcNS_11char_traitsIcEENS_9allocatorIcEEE6appendEPKc(%"class.std::__1::basic_string"* nonnull %5, i8* getelementptr inbounds ([3 x i8], [3 x i8]* @.str.80, i64 0, i64 0)) #14, !noalias !57
  %74 = bitcast %"class.std::__1::basic_string"* %73 to i8*
  call void @llvm.memcpy.p0i8.p0i8.i64(i8* nonnull align 8 %39, i8* align 8 %74, i64 24, i1 false) #14
  call void @llvm.memset.p0i8.i64(i8* align 8 %74, i8 0, i64 24, i1 false) #14, !noalias !57
  %75 = load %"class.flatbuffers::CodeWriter"*, %"class.flatbuffers::CodeWriter"** %12, align 8
  call void @_ZN11flatbuffers10CodeWriterpLENSt3__112basic_stringIcNS1_11char_traitsIcEENS1_9allocatorIcEEEE(%"class.flatbuffers::CodeWriter"* %75, %"class.std::__1::basic_string"* nonnull %4) #14
  %76 = load i8, i8* %41, align 1
  %77 = icmp slt i8 %76, 0
  br i1 %77, label %78, label %80

78:                                               ; preds = %70
  %79 = load i8*, i8** %42, align 8
  call void @_ZdlPv(i8* %79) #13
  br label %80

80:                                               ; preds = %70, %78
  %81 = load i8, i8* %44, align 1
  %82 = icmp slt i8 %81, 0
  br i1 %82, label %83, label %85

83:                                               ; preds = %80
  %84 = load i8*, i8** %45, align 8
  call void @_ZdlPv(i8* %84) #13
  br label %85

85:                                               ; preds = %80, %83
  call void @llvm.lifetime.end.p0i8(i64 24, i8* nonnull %38) #14
  %86 = getelementptr inbounds %"struct.flatbuffers::EnumVal"*, %"struct.flatbuffers::EnumVal"** %66, i64 1
  %87 = load %"class.std::__1::vector.214"*, %"class.std::__1::vector.214"** %21, align 8
  %88 = getelementptr inbounds %"class.std::__1::vector.214", %"class.std::__1::vector.214"* %87, i64 0, i32 0, i32 1
  %89 = load %"struct.flatbuffers::EnumVal"**, %"struct.flatbuffers::EnumVal"*** %88, align 8
  %90 = icmp eq %"struct.flatbuffers::EnumVal"** %86, %89
  br i1 %90, label %107, label %101

91:                                               ; preds = %63, %98
  %92 = phi i64 [ %99, %98 ], [ %68, %63 ]
  store i8 5, i8* %34, align 1
  call void @llvm.memcpy.p0i8.p0i8.i64(i8* nonnull align 8 %35, i8* align 1 getelementptr inbounds ([6 x i8], [6 x i8]* @.str.78, i64 0, i64 0), i64 5, i1 false) #14
  store i8 0, i8* %36, align 1
  %93 = load %"class.flatbuffers::CodeWriter"*, %"class.flatbuffers::CodeWriter"** %12, align 8
  call void @_ZN11flatbuffers10CodeWriterpLENSt3__112basic_stringIcNS1_11char_traitsIcEENS1_9allocatorIcEEEE(%"class.flatbuffers::CodeWriter"* %93, %"class.std::__1::basic_string"* nonnull %3) #14
  %94 = load i8, i8* %34, align 1
  %95 = icmp slt i8 %94, 0
  br i1 %95, label %96, label %98

96:                                               ; preds = %91
  %97 = load i8*, i8** %37, align 8
  call void @_ZdlPv(i8* %97) #13
  br label %98

98:                                               ; preds = %91, %96
  %99 = add i64 %92, -1
  %100 = icmp ugt i64 %99, 1
  br i1 %100, label %91, label %70

101:                                              ; preds = %85
  store i8 3, i8* %47, align 1
  call void @llvm.memcpy.p0i8.p0i8.i64(i8* nonnull align 8 %48, i8* align 1 getelementptr inbounds ([4 x i8], [4 x i8]* @.str.81, i64 0, i64 0), i64 3, i1 false) #14
  store i8 0, i8* %49, align 1
  %102 = load %"class.flatbuffers::CodeWriter"*, %"class.flatbuffers::CodeWriter"** %12, align 8
  call void @_ZN11flatbuffers10CodeWriterpLENSt3__112basic_stringIcNS1_11char_traitsIcEENS1_9allocatorIcEEEE(%"class.flatbuffers::CodeWriter"* %102, %"class.std::__1::basic_string"* nonnull %6) #14
  %103 = load i8, i8* %47, align 1
  %104 = icmp slt i8 %103, 0
  br i1 %104, label %105, label %107

105:                                              ; preds = %101
  %106 = load i8*, i8** %50, align 8
  call void @_ZdlPv(i8* %106) #13
  br label %107

107:                                              ; preds = %85, %105, %101
  %108 = load %"class.std::__1::vector.214"*, %"class.std::__1::vector.214"** %21, align 8
  %109 = getelementptr inbounds %"class.std::__1::vector.214", %"class.std::__1::vector.214"* %108, i64 0, i32 0, i32 1
  %110 = load %"struct.flatbuffers::EnumVal"**, %"struct.flatbuffers::EnumVal"*** %109, align 8
  %111 = icmp eq %"struct.flatbuffers::EnumVal"** %86, %110
  br i1 %111, label %51, label %112

112:                                              ; preds = %107
  %113 = load %"struct.flatbuffers::EnumDef"*, %"struct.flatbuffers::EnumDef"** %20, align 8
  br label %63
}

declare void @_ZNSt3__1plIcNS_11char_traitsIcEENS_9allocatorIcEEEENS_12basic_stringIT_T0_T1_EEPKS6_RKS9_(%"class.std::__1::basic_string"* sret, i8*, %"class.std::__1::basic_string"* dereferenceable(24)) local_unnamed_addr #0

; Function Attrs: nounwind ssp uwtable
define linkonce_odr hidden i8* @_ZNSt3__110__function8__policy13__large_cloneINS0_20__default_alloc_funcIZZNK11flatbuffers6kotlin15KotlinGenerator7GenEnumERNS4_7EnumDefERNS4_10CodeWriterEENKUlvE_clEvEUlvE_FvvEEEEEPvPKv(i8*) #3 comdat align 2 {
  %2 = tail call i8* @_Znwm(i64 24) #13, !noalias !60
  tail call void @llvm.memcpy.p0i8.p0i8.i64(i8* nonnull align 8 %2, i8* align 8 %0, i64 24, i1 false) #14
  ret i8* %2
}

; Function Attrs: nounwind ssp uwtable
define linkonce_odr hidden void @_ZNSt3__110__function8__policy15__large_destroyINS0_20__default_alloc_funcIZZNK11flatbuffers6kotlin15KotlinGenerator7GenEnumERNS4_7EnumDefERNS4_10CodeWriterEENKUlvE_clEvEUlvE_FvvEEEEEvPv(i8*) #3 comdat align 2 {
  tail call void @_ZdlPv(i8* %0) #13
  ret void
}

; Function Attrs: nounwind ssp uwtable
define linkonce_odr hidden void @_ZNSt3__110__function16__policy_invokerIFvvEE11__call_implINS0_20__default_alloc_funcIZZNK11flatbuffers6kotlin15KotlinGenerator7GenEnumERNS6_7EnumDefERNS6_10CodeWriterEENKUlvE_clEvEUlvE0_S2_EEEEvPKNS0_16__policy_storageE(%"union.std::__1::__function::__policy_storage"*) #3 comdat align 2 {
  %2 = bitcast %"union.std::__1::__function::__policy_storage"* %0 to %class.anon.229*
  tail call void @_ZZZNK11flatbuffers6kotlin15KotlinGenerator7GenEnumERNS_7EnumDefERNS_10CodeWriterEENKUlvE_clEvENKUlvE0_clEv(%class.anon.229* %2) #14
  ret void
}

; Function Attrs: inlinehint nounwind ssp uwtable
define linkonce_odr hidden void @_ZZZNK11flatbuffers6kotlin15KotlinGenerator7GenEnumERNS_7EnumDefERNS_10CodeWriterEENKUlvE_clEvENKUlvE0_clEv(%class.anon.229*) local_unnamed_addr #1 comdat align 2 {
  %2 = alloca %"class.std::__1::basic_string", align 8
  %3 = alloca %"class.std::__1::basic_string", align 8
  %4 = alloca %"class.std::__1::basic_string", align 8
  %5 = alloca %"class.std::__1::basic_string", align 8
  %6 = bitcast %"class.std::__1::basic_string"* %2 to %"struct.std::__1::basic_string<char, std::__1::char_traits<char>, std::__1::allocator<char> >::__short"*
  %7 = getelementptr inbounds %"struct.std::__1::basic_string<char, std::__1::char_traits<char>, std::__1::allocator<char> >::__short", %"struct.std::__1::basic_string<char, std::__1::char_traits<char>, std::__1::allocator<char> >::__short"* %6, i64 0, i32 1, i32 0
  store i8 8, i8* %7, align 1
  %8 = bitcast %"class.std::__1::basic_string"* %2 to i64*
  store i64 6657828175318180206, i64* %8, align 8
  %9 = getelementptr inbounds %"class.std::__1::basic_string", %"class.std::__1::basic_string"* %2, i64 0, i32 0, i32 0, i32 0, i32 0, i32 0, i32 1
  %10 = bitcast i64* %9 to i8*
  store i8 0, i8* %10, align 8
  %11 = getelementptr inbounds %class.anon.229, %class.anon.229* %0, i64 0, i32 0
  %12 = load %"class.flatbuffers::CodeWriter"*, %"class.flatbuffers::CodeWriter"** %11, align 8
  call void @_ZN11flatbuffers10CodeWriterpLENSt3__112basic_stringIcNS1_11char_traitsIcEENS1_9allocatorIcEEEE(%"class.flatbuffers::CodeWriter"* %12, %"class.std::__1::basic_string"* nonnull %2) #14
  %13 = load i8, i8* %7, align 1
  %14 = icmp slt i8 %13, 0
  br i1 %14, label %15, label %18

15:                                               ; preds = %1
  %16 = getelementptr inbounds %"class.std::__1::basic_string", %"class.std::__1::basic_string"* %2, i64 0, i32 0, i32 0, i32 0, i32 0, i32 0, i32 0
  %17 = load i8*, i8** %16, align 8
  call void @_ZdlPv(i8* %17) #13
  br label %18

18:                                               ; preds = %1, %15
  %19 = getelementptr inbounds %class.anon.229, %class.anon.229* %0, i64 0, i32 1
  %20 = load %"struct.flatbuffers::EnumDef"*, %"struct.flatbuffers::EnumDef"** %19, align 8
  %21 = call %"struct.flatbuffers::EnumVal"* @_ZNK11flatbuffers7EnumDef8MinValueEv(%"struct.flatbuffers::EnumDef"* %20) #14
  %22 = getelementptr inbounds %"struct.flatbuffers::EnumVal", %"struct.flatbuffers::EnumVal"* %21, i64 0, i32 3
  %23 = load i64, i64* %22, align 8
  %24 = icmp eq i64 %23, 0
  br i1 %24, label %50, label %25

25:                                               ; preds = %18
  %26 = bitcast %"class.std::__1::basic_string"* %4 to i8*
  call void @llvm.lifetime.start.p0i8(i64 24, i8* nonnull %26) #14
  %27 = load %"struct.flatbuffers::EnumDef"*, %"struct.flatbuffers::EnumDef"** %19, align 8
  %28 = call %"struct.flatbuffers::EnumVal"* @_ZNK11flatbuffers7EnumDef8MinValueEv(%"struct.flatbuffers::EnumDef"* %27) #14
  %29 = getelementptr inbounds %"struct.flatbuffers::EnumVal", %"struct.flatbuffers::EnumVal"* %28, i64 0, i32 0
  call void @_ZNSt3__1plIcNS_11char_traitsIcEENS_9allocatorIcEEEENS_12basic_stringIT_T0_T1_EEPKS6_RKS9_(%"class.std::__1::basic_string"* nonnull sret %4, i8* getelementptr inbounds ([4 x i8], [4 x i8]* @.str.88, i64 0, i64 0), %"class.std::__1::basic_string"* dereferenceable(24) %29) #14
  %30 = call dereferenceable(24) %"class.std::__1::basic_string"* @_ZNSt3__112basic_stringIcNS_11char_traitsIcEENS_9allocatorIcEEE6appendEPKc(%"class.std::__1::basic_string"* nonnull %4, i8* getelementptr inbounds ([10 x i8], [10 x i8]* @.str.89, i64 0, i64 0)) #14, !noalias !65
  %31 = bitcast %"class.std::__1::basic_string"* %3 to i8*
  %32 = bitcast %"class.std::__1::basic_string"* %30 to i8*
  call void @llvm.memcpy.p0i8.p0i8.i64(i8* nonnull align 8 %31, i8* align 8 %32, i64 24, i1 false) #14
  call void @llvm.memset.p0i8.i64(i8* align 8 %32, i8 0, i64 24, i1 false) #14, !noalias !65
  %33 = load %"class.flatbuffers::CodeWriter"*, %"class.flatbuffers::CodeWriter"** %11, align 8
  call void @_ZN11flatbuffers10CodeWriterpLENSt3__112basic_stringIcNS1_11char_traitsIcEENS1_9allocatorIcEEEE(%"class.flatbuffers::CodeWriter"* %33, %"class.std::__1::basic_string"* nonnull %3) #14
  %34 = bitcast %"class.std::__1::basic_string"* %3 to %"struct.std::__1::basic_string<char, std::__1::char_traits<char>, std::__1::allocator<char> >::__short"*
  %35 = getelementptr inbounds %"struct.std::__1::basic_string<char, std::__1::char_traits<char>, std::__1::allocator<char> >::__short", %"struct.std::__1::basic_string<char, std::__1::char_traits<char>, std::__1::allocator<char> >::__short"* %34, i64 0, i32 1, i32 0
  %36 = load i8, i8* %35, align 1
  %37 = icmp slt i8 %36, 0
  br i1 %37, label %38, label %41

38:                                               ; preds = %25
  %39 = getelementptr inbounds %"class.std::__1::basic_string", %"class.std::__1::basic_string"* %3, i64 0, i32 0, i32 0, i32 0, i32 0, i32 0, i32 0
  %40 = load i8*, i8** %39, align 8
  call void @_ZdlPv(i8* %40) #13
  br label %41

41:                                               ; preds = %25, %38
  %42 = bitcast %"class.std::__1::basic_string"* %4 to %"struct.std::__1::basic_string<char, std::__1::char_traits<char>, std::__1::allocator<char> >::__short"*
  %43 = getelementptr inbounds %"struct.std::__1::basic_string<char, std::__1::char_traits<char>, std::__1::allocator<char> >::__short", %"struct.std::__1::basic_string<char, std::__1::char_traits<char>, std::__1::allocator<char> >::__short"* %42, i64 0, i32 1, i32 0
  %44 = load i8, i8* %43, align 1
  %45 = icmp slt i8 %44, 0
  br i1 %45, label %46, label %49

46:                                               ; preds = %41
  %47 = getelementptr inbounds %"class.std::__1::basic_string", %"class.std::__1::basic_string"* %4, i64 0, i32 0, i32 0, i32 0, i32 0, i32 0, i32 0
  %48 = load i8*, i8** %47, align 8
  call void @_ZdlPv(i8* %48) #13
  br label %49

49:                                               ; preds = %41, %46
  call void @llvm.lifetime.end.p0i8(i64 24, i8* nonnull %26) #14
  br label %50

50:                                               ; preds = %18, %49
  %51 = bitcast %"class.std::__1::basic_string"* %5 to %"struct.std::__1::basic_string<char, std::__1::char_traits<char>, std::__1::allocator<char> >::__short"*
  %52 = getelementptr inbounds %"struct.std::__1::basic_string<char, std::__1::char_traits<char>, std::__1::allocator<char> >::__short", %"struct.std::__1::basic_string<char, std::__1::char_traits<char>, std::__1::allocator<char> >::__short"* %51, i64 0, i32 1, i32 0
  store i8 1, i8* %52, align 1
  %53 = bitcast %"class.std::__1::basic_string"* %5 to i8*
  store i8 93, i8* %53, align 8
  %54 = getelementptr inbounds i8, i8* %53, i64 1
  store i8 0, i8* %54, align 1
  %55 = load %"class.flatbuffers::CodeWriter"*, %"class.flatbuffers::CodeWriter"** %11, align 8
  call void @_ZN11flatbuffers10CodeWriterpLENSt3__112basic_stringIcNS1_11char_traitsIcEENS1_9allocatorIcEEEE(%"class.flatbuffers::CodeWriter"* %55, %"class.std::__1::basic_string"* nonnull %5) #14
  %56 = load i8, i8* %52, align 1
  %57 = icmp slt i8 %56, 0
  br i1 %57, label %58, label %61

58:                                               ; preds = %50
  %59 = getelementptr inbounds %"class.std::__1::basic_string", %"class.std::__1::basic_string"* %5, i64 0, i32 0, i32 0, i32 0, i32 0, i32 0, i32 0
  %60 = load i8*, i8** %59, align 8
  call void @_ZdlPv(i8* %60) #13
  br label %61

61:                                               ; preds = %50, %58
  ret void
}

; Function Attrs: nounwind ssp uwtable
define linkonce_odr hidden i8* @_ZNSt3__110__function8__policy13__large_cloneINS0_20__default_alloc_funcIZNK11flatbuffers6kotlin15KotlinGenerator7GenEnumERNS4_7EnumDefERNS4_10CodeWriterEEUlvE_FvvEEEEEPvPKv(i8*) #3 comdat align 2 {
  %2 = tail call i8* @_Znwm(i64 24) #13, !noalias !68
  tail call void @llvm.memcpy.p0i8.p0i8.i64(i8* nonnull align 8 %2, i8* align 8 %0, i64 24, i1 false) #14
  ret i8* %2
}

; Function Attrs: nounwind ssp uwtable
define linkonce_odr hidden void @_ZNSt3__110__function8__policy15__large_destroyINS0_20__default_alloc_funcIZNK11flatbuffers6kotlin15KotlinGenerator7GenEnumERNS4_7EnumDefERNS4_10CodeWriterEEUlvE_FvvEEEEEvPv(i8*) #3 comdat align 2 {
  tail call void @_ZdlPv(i8* %0) #13
  ret void
}

declare i8* @_ZN11flatbuffers13BaseGenerator27FlatBuffersGeneratedWarningEv() local_unnamed_addr #0

declare void @_ZN11flatbuffers13BaseGenerator13FullNamespaceEPKcRKNS_9NamespaceE(%"class.std::__1::basic_string"* sret, i8*, %"struct.flatbuffers::Namespace"* dereferenceable(32)) local_unnamed_addr #0

declare void @_ZNK11flatbuffers13BaseGenerator12NamespaceDirERKNS_9NamespaceE(%"class.std::__1::basic_string"* sret, %"class.flatbuffers::BaseGenerator"*, %"struct.flatbuffers::Namespace"* dereferenceable(32)) local_unnamed_addr #0

declare zeroext i1 @_ZN11flatbuffers8SaveFileEPKcS1_mb(i8*, i8*, i64, i1 zeroext) local_unnamed_addr #0

; Function Attrs: nounwind ssp uwtable
define linkonce_odr hidden void @_ZNSt3__16__treeINS_12__value_typeINS_12basic_stringIcNS_11char_traitsIcEENS_9allocatorIcEEEES7_EENS_19__map_value_compareIS7_S8_NS_4lessIS7_EELb1EEENS5_IS8_EEE7destroyEPNS_11__tree_nodeIS8_PvEE(%"class.std::__1::__tree.171"*, %"class.std::__1::__tree_node"*) local_unnamed_addr #3 comdat align 2 {
  %3 = icmp eq %"class.std::__1::__tree_node"* %1, null
  br i1 %3, label %29, label %4

4:                                                ; preds = %2
  %5 = bitcast %"class.std::__1::__tree_node"* %1 to %"class.std::__1::__tree_node"**
  %6 = load %"class.std::__1::__tree_node"*, %"class.std::__1::__tree_node"** %5, align 8
  tail call void @_ZNSt3__16__treeINS_12__value_typeINS_12basic_stringIcNS_11char_traitsIcEENS_9allocatorIcEEEES7_EENS_19__map_value_compareIS7_S8_NS_4lessIS7_EELb1EEENS5_IS8_EEE7destroyEPNS_11__tree_nodeIS8_PvEE(%"class.std::__1::__tree.171"* %0, %"class.std::__1::__tree_node"* %6) #14
  %7 = getelementptr inbounds %"class.std::__1::__tree_node", %"class.std::__1::__tree_node"* %1, i64 0, i32 0, i32 1
  %8 = bitcast %"class.std::__1::__tree_node_base"** %7 to %"class.std::__1::__tree_node"**
  %9 = load %"class.std::__1::__tree_node"*, %"class.std::__1::__tree_node"** %8, align 8
  tail call void @_ZNSt3__16__treeINS_12__value_typeINS_12basic_stringIcNS_11char_traitsIcEENS_9allocatorIcEEEES7_EENS_19__map_value_compareIS7_S8_NS_4lessIS7_EELb1EEENS5_IS8_EEE7destroyEPNS_11__tree_nodeIS8_PvEE(%"class.std::__1::__tree.171"* %0, %"class.std::__1::__tree_node"* %9) #14
  %10 = getelementptr inbounds %"class.std::__1::__tree_node", %"class.std::__1::__tree_node"* %1, i64 0, i32 1, i32 0
  %11 = getelementptr inbounds %"class.std::__1::__tree_node", %"class.std::__1::__tree_node"* %1, i64 0, i32 1, i32 0, i32 1
  %12 = bitcast %"class.std::__1::basic_string"* %11 to %"struct.std::__1::basic_string<char, std::__1::char_traits<char>, std::__1::allocator<char> >::__short"*
  %13 = getelementptr inbounds %"struct.std::__1::basic_string<char, std::__1::char_traits<char>, std::__1::allocator<char> >::__short", %"struct.std::__1::basic_string<char, std::__1::char_traits<char>, std::__1::allocator<char> >::__short"* %12, i64 0, i32 1, i32 0
  %14 = load i8, i8* %13, align 1
  %15 = icmp slt i8 %14, 0
  br i1 %15, label %16, label %19

16:                                               ; preds = %4
  %17 = getelementptr inbounds %"class.std::__1::basic_string", %"class.std::__1::basic_string"* %11, i64 0, i32 0, i32 0, i32 0, i32 0, i32 0, i32 0
  %18 = load i8*, i8** %17, align 8
  tail call void @_ZdlPv(i8* %18) #13
  br label %19

19:                                               ; preds = %16, %4
  %20 = bitcast %"struct.std::__1::pair.232"* %10 to %"struct.std::__1::basic_string<char, std::__1::char_traits<char>, std::__1::allocator<char> >::__short"*
  %21 = getelementptr inbounds %"struct.std::__1::basic_string<char, std::__1::char_traits<char>, std::__1::allocator<char> >::__short", %"struct.std::__1::basic_string<char, std::__1::char_traits<char>, std::__1::allocator<char> >::__short"* %20, i64 0, i32 1, i32 0
  %22 = load i8, i8* %21, align 1
  %23 = icmp slt i8 %22, 0
  br i1 %23, label %24, label %27

24:                                               ; preds = %19
  %25 = getelementptr inbounds %"struct.std::__1::pair.232", %"struct.std::__1::pair.232"* %10, i64 0, i32 0, i32 0, i32 0, i32 0, i32 0, i32 0, i32 0
  %26 = load i8*, i8** %25, align 8
  tail call void @_ZdlPv(i8* %26) #13
  br label %27

27:                                               ; preds = %19, %24
  %28 = bitcast %"class.std::__1::__tree_node"* %1 to i8*
  tail call void @_ZdlPv(i8* %28) #13
  br label %29

29:                                               ; preds = %2, %27
  ret void
}

; Function Attrs: nounwind ssp uwtable
define linkonce_odr hidden void @_ZN11flatbuffers6kotlin15KotlinGenerator11GenerateFunERNS_10CodeWriterERKNSt3__112basic_stringIcNS4_11char_traitsIcEENS4_9allocatorIcEEEESC_SC_RKNS4_8functionIFvvEEE(%"class.flatbuffers::CodeWriter"* dereferenceable(336), %"class.std::__1::basic_string"* dereferenceable(24), %"class.std::__1::basic_string"* dereferenceable(24), %"class.std::__1::basic_string"* dereferenceable(24), %"class.std::__1::function"* dereferenceable(32)) local_unnamed_addr #3 comdat align 2 {
  %6 = alloca %"class.std::__1::tuple", align 8
  %7 = alloca %"class.std::__1::tuple.231", align 1
  %8 = alloca %"class.std::__1::tuple", align 8
  %9 = alloca %"class.std::__1::tuple.231", align 1
  %10 = alloca %"class.std::__1::tuple", align 8
  %11 = alloca %"class.std::__1::tuple.231", align 1
  %12 = alloca %"class.std::__1::basic_string", align 8
  %13 = alloca %"class.std::__1::basic_string", align 8
  %14 = alloca %"class.std::__1::basic_string", align 8
  %15 = alloca %"class.std::__1::basic_string", align 8
  %16 = alloca %"class.std::__1::basic_string", align 8
  %17 = alloca %"class.std::__1::basic_string", align 8
  %18 = bitcast %"class.std::__1::basic_string"* %3 to %"struct.std::__1::basic_string<char, std::__1::char_traits<char>, std::__1::allocator<char> >::__short"*
  %19 = getelementptr inbounds %"struct.std::__1::basic_string<char, std::__1::char_traits<char>, std::__1::allocator<char> >::__short", %"struct.std::__1::basic_string<char, std::__1::char_traits<char>, std::__1::allocator<char> >::__short"* %18, i64 0, i32 1, i32 0
  %20 = load i8, i8* %19, align 1
  %21 = icmp slt i8 %20, 0
  %22 = getelementptr inbounds %"class.std::__1::basic_string", %"class.std::__1::basic_string"* %3, i64 0, i32 0, i32 0, i32 0, i32 0, i32 0, i32 1
  %23 = load i64, i64* %22, align 8
  %24 = zext i8 %20 to i64
  %25 = select i1 %21, i64 %23, i64 %24
  %26 = icmp eq i64 %25, 0
  %27 = bitcast %"class.std::__1::basic_string"* %12 to i8*
  call void @llvm.lifetime.start.p0i8(i64 24, i8* nonnull %27) #14
  %28 = bitcast %"class.std::__1::basic_string"* %12 to %"struct.std::__1::basic_string<char, std::__1::char_traits<char>, std::__1::allocator<char> >::__short"*
  %29 = getelementptr inbounds %"struct.std::__1::basic_string<char, std::__1::char_traits<char>, std::__1::allocator<char> >::__short", %"struct.std::__1::basic_string<char, std::__1::char_traits<char>, std::__1::allocator<char> >::__short"* %28, i64 0, i32 1, i32 0
  store i8 4, i8* %29, align 1
  %30 = bitcast %"class.std::__1::basic_string"* %12 to i32*
  store i32 1701667182, i32* %30, align 8
  %31 = getelementptr inbounds i8, i8* %27, i64 4
  store i8 0, i8* %31, align 4
  %32 = getelementptr inbounds %"class.flatbuffers::CodeWriter", %"class.flatbuffers::CodeWriter"* %0, i64 0, i32 0, i32 0
  %33 = bitcast %"class.std::__1::tuple"* %10 to i8*
  call void @llvm.lifetime.start.p0i8(i64 8, i8* nonnull %33) #14
  %34 = getelementptr inbounds %"class.std::__1::tuple", %"class.std::__1::tuple"* %10, i64 0, i32 0, i32 0, i32 0
  store %"class.std::__1::basic_string"* %12, %"class.std::__1::basic_string"** %34, align 8
  %35 = getelementptr inbounds %"class.std::__1::tuple.231", %"class.std::__1::tuple.231"* %11, i64 0, i32 0
  call void @llvm.lifetime.start.p0i8(i64 1, i8* nonnull %35) #14
  %36 = call { %"class.std::__1::__tree_end_node"*, i8 } @_ZNSt3__16__treeINS_12__value_typeINS_12basic_stringIcNS_11char_traitsIcEENS_9allocatorIcEEEES7_EENS_19__map_value_compareIS7_S8_NS_4lessIS7_EELb1EEENS5_IS8_EEE25__emplace_unique_key_argsIS7_JRKNS_21piecewise_construct_tENS_5tupleIJRKS7_EEENSJ_IJEEEEEENS_4pairINS_15__tree_iteratorIS8_PNS_11__tree_nodeIS8_PvEElEEbEERKT_DpOT0_(%"class.std::__1::__tree.171"* %32, %"class.std::__1::basic_string"* nonnull dereferenceable(24) %12, %"struct.std::__1::piecewise_construct_t"* nonnull dereferenceable(1) @_ZNSt3__1L19piecewise_constructE, %"class.std::__1::tuple"* nonnull dereferenceable(8) %10, %"class.std::__1::tuple.231"* nonnull dereferenceable(1) %11) #14
  %37 = extractvalue { %"class.std::__1::__tree_end_node"*, i8 } %36, 0
  %38 = getelementptr inbounds %"class.std::__1::__tree_end_node", %"class.std::__1::__tree_end_node"* %37, i64 7
  %39 = bitcast %"class.std::__1::__tree_end_node"* %38 to %"class.std::__1::basic_string"*
  call void @llvm.lifetime.end.p0i8(i64 1, i8* nonnull %35) #14
  call void @llvm.lifetime.end.p0i8(i64 8, i8* nonnull %33) #14
  %40 = icmp eq %"class.std::__1::basic_string"* %39, %1
  br i1 %40, label %70, label %41

41:                                               ; preds = %5
  %42 = bitcast %"class.std::__1::__tree_end_node"* %38 to %"struct.std::__1::basic_string<char, std::__1::char_traits<char>, std::__1::allocator<char> >::__short"*
  %43 = getelementptr inbounds %"struct.std::__1::basic_string<char, std::__1::char_traits<char>, std::__1::allocator<char> >::__short", %"struct.std::__1::basic_string<char, std::__1::char_traits<char>, std::__1::allocator<char> >::__short"* %42, i64 0, i32 1, i32 0
  %44 = load i8, i8* %43, align 1
  %45 = icmp slt i8 %44, 0
  %46 = bitcast %"class.std::__1::basic_string"* %1 to %"struct.std::__1::basic_string<char, std::__1::char_traits<char>, std::__1::allocator<char> >::__short"*
  %47 = getelementptr inbounds %"struct.std::__1::basic_string<char, std::__1::char_traits<char>, std::__1::allocator<char> >::__short", %"struct.std::__1::basic_string<char, std::__1::char_traits<char>, std::__1::allocator<char> >::__short"* %46, i64 0, i32 1, i32 0
  %48 = load i8, i8* %47, align 1
  %49 = icmp slt i8 %48, 0
  br i1 %45, label %60, label %50

50:                                               ; preds = %41
  br i1 %49, label %54, label %51

51:                                               ; preds = %50
  %52 = bitcast %"class.std::__1::__tree_end_node"* %38 to i8*
  %53 = bitcast %"class.std::__1::basic_string"* %1 to i8*
  call void @llvm.memcpy.p0i8.p0i8.i64(i8* align 8 %52, i8* align 8 %53, i64 24, i1 false) #14
  br label %70

54:                                               ; preds = %50
  %55 = getelementptr inbounds %"class.std::__1::basic_string", %"class.std::__1::basic_string"* %1, i64 0, i32 0, i32 0, i32 0, i32 0, i32 0, i32 0
  %56 = load i8*, i8** %55, align 8
  %57 = getelementptr inbounds %"class.std::__1::basic_string", %"class.std::__1::basic_string"* %1, i64 0, i32 0, i32 0, i32 0, i32 0, i32 0, i32 1
  %58 = load i64, i64* %57, align 8
  %59 = call dereferenceable(24) %"class.std::__1::basic_string"* @_ZNSt3__112basic_stringIcNS_11char_traitsIcEENS_9allocatorIcEEE17__assign_no_aliasILb1EEERS5_PKcm(%"class.std::__1::basic_string"* %39, i8* %56, i64 %58) #14
  br label %70

60:                                               ; preds = %41
  %61 = getelementptr inbounds %"class.std::__1::basic_string", %"class.std::__1::basic_string"* %1, i64 0, i32 0, i32 0, i32 0, i32 0, i32 0, i32 0
  %62 = load i8*, i8** %61, align 8
  %63 = getelementptr inbounds %"class.std::__1::basic_string", %"class.std::__1::basic_string"* %1, i64 0, i32 0, i32 0, i32 0, i32 0, i32 0, i32 1
  %64 = load i64, i64* %63, align 8
  %65 = bitcast %"class.std::__1::basic_string"* %1 to i8*
  %66 = zext i8 %48 to i64
  %67 = select i1 %49, i8* %62, i8* %65
  %68 = select i1 %49, i64 %64, i64 %66
  %69 = call dereferenceable(24) %"class.std::__1::basic_string"* @_ZNSt3__112basic_stringIcNS_11char_traitsIcEENS_9allocatorIcEEE17__assign_no_aliasILb0EEERS5_PKcm(%"class.std::__1::basic_string"* %39, i8* %67, i64 %68) #14
  br label %70

70:                                               ; preds = %5, %51, %54, %60
  %71 = load i8, i8* %29, align 1
  %72 = icmp slt i8 %71, 0
  br i1 %72, label %73, label %76

73:                                               ; preds = %70
  %74 = getelementptr inbounds %"class.std::__1::basic_string", %"class.std::__1::basic_string"* %12, i64 0, i32 0, i32 0, i32 0, i32 0, i32 0, i32 0
  %75 = load i8*, i8** %74, align 8
  call void @_ZdlPv(i8* %75) #13
  br label %76

76:                                               ; preds = %70, %73
  call void @llvm.lifetime.end.p0i8(i64 24, i8* nonnull %27) #14
  %77 = bitcast %"class.std::__1::basic_string"* %13 to i8*
  call void @llvm.lifetime.start.p0i8(i64 24, i8* nonnull %77) #14
  %78 = bitcast %"class.std::__1::basic_string"* %13 to %"struct.std::__1::basic_string<char, std::__1::char_traits<char>, std::__1::allocator<char> >::__short"*
  %79 = getelementptr inbounds %"struct.std::__1::basic_string<char, std::__1::char_traits<char>, std::__1::allocator<char> >::__short", %"struct.std::__1::basic_string<char, std::__1::char_traits<char>, std::__1::allocator<char> >::__short"* %78, i64 0, i32 1, i32 0
  store i8 6, i8* %79, align 1
  call void @llvm.memcpy.p0i8.p0i8.i64(i8* nonnull align 8 %77, i8* align 1 getelementptr inbounds ([7 x i8], [7 x i8]* @.str.83, i64 0, i64 0), i64 6, i1 false) #14
  %80 = getelementptr inbounds i8, i8* %77, i64 6
  store i8 0, i8* %80, align 2
  %81 = bitcast %"class.std::__1::tuple"* %8 to i8*
  call void @llvm.lifetime.start.p0i8(i64 8, i8* nonnull %81) #14
  %82 = getelementptr inbounds %"class.std::__1::tuple", %"class.std::__1::tuple"* %8, i64 0, i32 0, i32 0, i32 0
  store %"class.std::__1::basic_string"* %13, %"class.std::__1::basic_string"** %82, align 8
  %83 = getelementptr inbounds %"class.std::__1::tuple.231", %"class.std::__1::tuple.231"* %9, i64 0, i32 0
  call void @llvm.lifetime.start.p0i8(i64 1, i8* nonnull %83) #14
  %84 = call { %"class.std::__1::__tree_end_node"*, i8 } @_ZNSt3__16__treeINS_12__value_typeINS_12basic_stringIcNS_11char_traitsIcEENS_9allocatorIcEEEES7_EENS_19__map_value_compareIS7_S8_NS_4lessIS7_EELb1EEENS5_IS8_EEE25__emplace_unique_key_argsIS7_JRKNS_21piecewise_construct_tENS_5tupleIJRKS7_EEENSJ_IJEEEEEENS_4pairINS_15__tree_iteratorIS8_PNS_11__tree_nodeIS8_PvEElEEbEERKT_DpOT0_(%"class.std::__1::__tree.171"* %32, %"class.std::__1::basic_string"* nonnull dereferenceable(24) %13, %"struct.std::__1::piecewise_construct_t"* nonnull dereferenceable(1) @_ZNSt3__1L19piecewise_constructE, %"class.std::__1::tuple"* nonnull dereferenceable(8) %8, %"class.std::__1::tuple.231"* nonnull dereferenceable(1) %9) #14
  %85 = extractvalue { %"class.std::__1::__tree_end_node"*, i8 } %84, 0
  %86 = getelementptr inbounds %"class.std::__1::__tree_end_node", %"class.std::__1::__tree_end_node"* %85, i64 7
  %87 = bitcast %"class.std::__1::__tree_end_node"* %86 to %"class.std::__1::basic_string"*
  call void @llvm.lifetime.end.p0i8(i64 1, i8* nonnull %83) #14
  call void @llvm.lifetime.end.p0i8(i64 8, i8* nonnull %81) #14
  %88 = icmp eq %"class.std::__1::basic_string"* %87, %2
  br i1 %88, label %118, label %89

89:                                               ; preds = %76
  %90 = bitcast %"class.std::__1::__tree_end_node"* %86 to %"struct.std::__1::basic_string<char, std::__1::char_traits<char>, std::__1::allocator<char> >::__short"*
  %91 = getelementptr inbounds %"struct.std::__1::basic_string<char, std::__1::char_traits<char>, std::__1::allocator<char> >::__short", %"struct.std::__1::basic_string<char, std::__1::char_traits<char>, std::__1::allocator<char> >::__short"* %90, i64 0, i32 1, i32 0
  %92 = load i8, i8* %91, align 1
  %93 = icmp slt i8 %92, 0
  %94 = bitcast %"class.std::__1::basic_string"* %2 to %"struct.std::__1::basic_string<char, std::__1::char_traits<char>, std::__1::allocator<char> >::__short"*
  %95 = getelementptr inbounds %"struct.std::__1::basic_string<char, std::__1::char_traits<char>, std::__1::allocator<char> >::__short", %"struct.std::__1::basic_string<char, std::__1::char_traits<char>, std::__1::allocator<char> >::__short"* %94, i64 0, i32 1, i32 0
  %96 = load i8, i8* %95, align 1
  %97 = icmp slt i8 %96, 0
  br i1 %93, label %108, label %98

98:                                               ; preds = %89
  br i1 %97, label %102, label %99

99:                                               ; preds = %98
  %100 = bitcast %"class.std::__1::__tree_end_node"* %86 to i8*
  %101 = bitcast %"class.std::__1::basic_string"* %2 to i8*
  call void @llvm.memcpy.p0i8.p0i8.i64(i8* align 8 %100, i8* align 8 %101, i64 24, i1 false) #14
  br label %118

102:                                              ; preds = %98
  %103 = getelementptr inbounds %"class.std::__1::basic_string", %"class.std::__1::basic_string"* %2, i64 0, i32 0, i32 0, i32 0, i32 0, i32 0, i32 0
  %104 = load i8*, i8** %103, align 8
  %105 = getelementptr inbounds %"class.std::__1::basic_string", %"class.std::__1::basic_string"* %2, i64 0, i32 0, i32 0, i32 0, i32 0, i32 0, i32 1
  %106 = load i64, i64* %105, align 8
  %107 = call dereferenceable(24) %"class.std::__1::basic_string"* @_ZNSt3__112basic_stringIcNS_11char_traitsIcEENS_9allocatorIcEEE17__assign_no_aliasILb1EEERS5_PKcm(%"class.std::__1::basic_string"* %87, i8* %104, i64 %106) #14
  br label %118

108:                                              ; preds = %89
  %109 = getelementptr inbounds %"class.std::__1::basic_string", %"class.std::__1::basic_string"* %2, i64 0, i32 0, i32 0, i32 0, i32 0, i32 0, i32 0
  %110 = load i8*, i8** %109, align 8
  %111 = getelementptr inbounds %"class.std::__1::basic_string", %"class.std::__1::basic_string"* %2, i64 0, i32 0, i32 0, i32 0, i32 0, i32 0, i32 1
  %112 = load i64, i64* %111, align 8
  %113 = bitcast %"class.std::__1::basic_string"* %2 to i8*
  %114 = zext i8 %96 to i64
  %115 = select i1 %97, i8* %110, i8* %113
  %116 = select i1 %97, i64 %112, i64 %114
  %117 = call dereferenceable(24) %"class.std::__1::basic_string"* @_ZNSt3__112basic_stringIcNS_11char_traitsIcEENS_9allocatorIcEEE17__assign_no_aliasILb0EEERS5_PKcm(%"class.std::__1::basic_string"* %87, i8* %115, i64 %116) #14
  br label %118

118:                                              ; preds = %76, %99, %102, %108
  %119 = load i8, i8* %79, align 1
  %120 = icmp slt i8 %119, 0
  br i1 %120, label %121, label %124

121:                                              ; preds = %118
  %122 = getelementptr inbounds %"class.std::__1::basic_string", %"class.std::__1::basic_string"* %13, i64 0, i32 0, i32 0, i32 0, i32 0, i32 0, i32 0
  %123 = load i8*, i8** %122, align 8
  call void @_ZdlPv(i8* %123) #13
  br label %124

124:                                              ; preds = %118, %121
  call void @llvm.lifetime.end.p0i8(i64 24, i8* nonnull %77) #14
  %125 = bitcast %"class.std::__1::basic_string"* %14 to i8*
  call void @llvm.lifetime.start.p0i8(i64 24, i8* nonnull %125) #14
  %126 = bitcast %"class.std::__1::basic_string"* %14 to %"struct.std::__1::basic_string<char, std::__1::char_traits<char>, std::__1::allocator<char> >::__short"*
  %127 = getelementptr inbounds %"struct.std::__1::basic_string<char, std::__1::char_traits<char>, std::__1::allocator<char> >::__short", %"struct.std::__1::basic_string<char, std::__1::char_traits<char>, std::__1::allocator<char> >::__short"* %126, i64 0, i32 1, i32 0
  store i8 11, i8* %127, align 1
  call void @llvm.memcpy.p0i8.p0i8.i64(i8* nonnull align 8 %125, i8* align 1 getelementptr inbounds ([12 x i8], [12 x i8]* @.str.106, i64 0, i64 0), i64 11, i1 false) #14
  %128 = getelementptr inbounds i8, i8* %125, i64 11
  store i8 0, i8* %128, align 1
  %129 = bitcast %"class.std::__1::basic_string"* %15 to i8*
  call void @llvm.lifetime.start.p0i8(i64 24, i8* nonnull %129) #14
  br i1 %26, label %130, label %133

130:                                              ; preds = %124
  %131 = bitcast %"class.std::__1::basic_string"* %15 to %"struct.std::__1::basic_string<char, std::__1::char_traits<char>, std::__1::allocator<char> >::__short"*
  %132 = getelementptr inbounds %"struct.std::__1::basic_string<char, std::__1::char_traits<char>, std::__1::allocator<char> >::__short", %"struct.std::__1::basic_string<char, std::__1::char_traits<char>, std::__1::allocator<char> >::__short"* %131, i64 0, i32 1, i32 0
  store i8 0, i8* %132, align 1
  store i8 0, i8* %129, align 8
  br label %134

133:                                              ; preds = %124
  call void @_ZNSt3__1plIcNS_11char_traitsIcEENS_9allocatorIcEEEENS_12basic_stringIT_T0_T1_EEPKS6_RKS9_(%"class.std::__1::basic_string"* nonnull sret %15, i8* getelementptr inbounds ([3 x i8], [3 x i8]* @.str.107, i64 0, i64 0), %"class.std::__1::basic_string"* dereferenceable(24) %3) #14
  br label %134

134:                                              ; preds = %133, %130
  %135 = bitcast %"class.std::__1::tuple"* %6 to i8*
  call void @llvm.lifetime.start.p0i8(i64 8, i8* nonnull %135) #14
  %136 = getelementptr inbounds %"class.std::__1::tuple", %"class.std::__1::tuple"* %6, i64 0, i32 0, i32 0, i32 0
  store %"class.std::__1::basic_string"* %14, %"class.std::__1::basic_string"** %136, align 8
  %137 = getelementptr inbounds %"class.std::__1::tuple.231", %"class.std::__1::tuple.231"* %7, i64 0, i32 0
  call void @llvm.lifetime.start.p0i8(i64 1, i8* nonnull %137) #14
  %138 = call { %"class.std::__1::__tree_end_node"*, i8 } @_ZNSt3__16__treeINS_12__value_typeINS_12basic_stringIcNS_11char_traitsIcEENS_9allocatorIcEEEES7_EENS_19__map_value_compareIS7_S8_NS_4lessIS7_EELb1EEENS5_IS8_EEE25__emplace_unique_key_argsIS7_JRKNS_21piecewise_construct_tENS_5tupleIJRKS7_EEENSJ_IJEEEEEENS_4pairINS_15__tree_iteratorIS8_PNS_11__tree_nodeIS8_PvEElEEbEERKT_DpOT0_(%"class.std::__1::__tree.171"* %32, %"class.std::__1::basic_string"* nonnull dereferenceable(24) %14, %"struct.std::__1::piecewise_construct_t"* nonnull dereferenceable(1) @_ZNSt3__1L19piecewise_constructE, %"class.std::__1::tuple"* nonnull dereferenceable(8) %6, %"class.std::__1::tuple.231"* nonnull dereferenceable(1) %7) #14
  %139 = extractvalue { %"class.std::__1::__tree_end_node"*, i8 } %138, 0
  %140 = getelementptr inbounds %"class.std::__1::__tree_end_node", %"class.std::__1::__tree_end_node"* %139, i64 7
  %141 = bitcast %"class.std::__1::__tree_end_node"* %140 to %"class.std::__1::basic_string"*
