; ModuleID = '../../third_party/flatbuffers/src/src/idl_gen_grpc.cpp'
source_filename = "../../third_party/flatbuffers/src/src/idl_gen_grpc.cpp"
target datalayout = "e-m:e-i64:64-f80:128-n8:16:32:64-S128"
target triple = "x86_64-unknown-linux-gnu"

%"class.flatbuffers::Parser" = type { %"struct.flatbuffers::ParserState", %"class.flatbuffers::SymbolTable", %"class.flatbuffers::SymbolTable.57", %"class.flatbuffers::SymbolTable.74", %"class.flatbuffers::SymbolTable.91", %"class.std::__1::vector.125", %"struct.flatbuffers::Namespace"*, %"struct.flatbuffers::Namespace"*, %"class.std::__1::basic_string", %"class.flatbuffers::FlatBufferBuilder", %"class.flexbuffers::Builder", %"class.flexbuffers::Reference", %"struct.flatbuffers::StructDef"*, %"class.std::__1::basic_string", %"class.std::__1::basic_string", %"class.std::__1::map.170", %"class.std::__1::map.179", %"class.std::__1::vector", %"class.std::__1::map.188", %"struct.flatbuffers::IDLOptions", i8, i8*, %"class.std::__1::basic_string", %"class.std::__1::vector.197", i32, i32 }
%"struct.flatbuffers::ParserState" = type { i8*, i8*, i32, i32, i8, %"class.std::__1::basic_string", %"class.std::__1::vector" }
%"class.flatbuffers::SymbolTable" = type { %"class.std::__1::map", %"class.std::__1::vector.14" }
%"class.std::__1::map" = type { %"class.std::__1::__tree" }
%"class.std::__1::__tree" = type { %"class.std::__1::__tree_end_node"*, %"class.std::__1::__compressed_pair.6", %"class.std::__1::__compressed_pair.11" }
%"class.std::__1::__tree_end_node" = type { %"class.std::__1::__tree_node_base"* }
%"class.std::__1::__tree_node_base" = type <{ %"class.std::__1::__tree_end_node", %"class.std::__1::__tree_node_base"*, %"class.std::__1::__tree_end_node"*, i8, [7 x i8] }>
%"class.std::__1::__compressed_pair.6" = type { %"struct.std::__1::__compressed_pair_elem.7" }
%"struct.std::__1::__compressed_pair_elem.7" = type { %"class.std::__1::__tree_end_node" }
%"class.std::__1::__compressed_pair.11" = type { %"struct.std::__1::__compressed_pair_elem.12" }
%"struct.std::__1::__compressed_pair_elem.12" = type { i64 }
%"class.std::__1::vector.14" = type { %"class.std::__1::__vector_base.15" }
%"class.std::__1::__vector_base.15" = type { %"struct.flatbuffers::Type"**, %"struct.flatbuffers::Type"**, %"class.std::__1::__compressed_pair.52" }
%"struct.flatbuffers::Type" = type <{ i32, i32, %"struct.flatbuffers::StructDef"*, %"struct.flatbuffers::EnumDef"*, i16, [6 x i8] }>
%"struct.flatbuffers::EnumDef" = type { %"struct.flatbuffers::Definition.base", i8, i8, [2 x i8], %"struct.flatbuffers::Type", %"class.flatbuffers::SymbolTable.204" }
%"struct.flatbuffers::Definition.base" = type <{ %"class.std::__1::basic_string", %"class.std::__1::basic_string", %"class.std::__1::vector", %"class.flatbuffers::SymbolTable.16", i8, [7 x i8], %"struct.flatbuffers::Namespace"*, i32, i32, i32 }>
%"class.flatbuffers::SymbolTable.16" = type { %"class.std::__1::map.17", %"class.std::__1::vector.26" }
%"class.std::__1::map.17" = type { %"class.std::__1::__tree.18" }
%"class.std::__1::__tree.18" = type { %"class.std::__1::__tree_end_node"*, %"class.std::__1::__compressed_pair.19", %"class.std::__1::__compressed_pair.23" }
%"class.std::__1::__compressed_pair.19" = type { %"struct.std::__1::__compressed_pair_elem.7" }
%"class.std::__1::__compressed_pair.23" = type { %"struct.std::__1::__compressed_pair_elem.12" }
%"class.std::__1::vector.26" = type { %"class.std::__1::__vector_base.27" }
%"class.std::__1::__vector_base.27" = type { %"struct.flatbuffers::Value"**, %"struct.flatbuffers::Value"**, %"class.std::__1::__compressed_pair.28" }
%"struct.flatbuffers::Value" = type <{ %"struct.flatbuffers::Type", %"class.std::__1::basic_string", i16, [6 x i8] }>
%"class.std::__1::__compressed_pair.28" = type { %"struct.std::__1::__compressed_pair_elem.29" }
%"struct.std::__1::__compressed_pair_elem.29" = type { %"struct.flatbuffers::Value"** }
%"class.flatbuffers::SymbolTable.204" = type { %"class.std::__1::map.205", %"class.std::__1::vector.214" }
%"class.std::__1::map.205" = type { %"class.std::__1::__tree.206" }
%"class.std::__1::__tree.206" = type { %"class.std::__1::__tree_end_node"*, %"class.std::__1::__compressed_pair.207", %"class.std::__1::__compressed_pair.211" }
%"class.std::__1::__compressed_pair.207" = type { %"struct.std::__1::__compressed_pair_elem.7" }
%"class.std::__1::__compressed_pair.211" = type { %"struct.std::__1::__compressed_pair_elem.12" }
%"class.std::__1::vector.214" = type { %"class.std::__1::__vector_base.215" }
%"class.std::__1::__vector_base.215" = type { %"struct.flatbuffers::EnumVal"**, %"struct.flatbuffers::EnumVal"**, %"class.std::__1::__compressed_pair.216" }
%"struct.flatbuffers::EnumVal" = type { %"class.std::__1::basic_string", %"class.std::__1::vector", %"struct.flatbuffers::Type", i64 }
%"class.std::__1::__compressed_pair.216" = type { %"struct.std::__1::__compressed_pair_elem.217" }
%"struct.std::__1::__compressed_pair_elem.217" = type { %"struct.flatbuffers::EnumVal"** }
%"class.std::__1::__compressed_pair.52" = type { %"struct.std::__1::__compressed_pair_elem.53" }
%"struct.std::__1::__compressed_pair_elem.53" = type { %"struct.flatbuffers::Type"** }
%"class.flatbuffers::SymbolTable.57" = type { %"class.std::__1::map.58", %"class.std::__1::vector.67" }
%"class.std::__1::map.58" = type { %"class.std::__1::__tree.59" }
%"class.std::__1::__tree.59" = type { %"class.std::__1::__tree_end_node"*, %"class.std::__1::__compressed_pair.60", %"class.std::__1::__compressed_pair.64" }
%"class.std::__1::__compressed_pair.60" = type { %"struct.std::__1::__compressed_pair_elem.7" }
%"class.std::__1::__compressed_pair.64" = type { %"struct.std::__1::__compressed_pair_elem.12" }
%"class.std::__1::vector.67" = type { %"class.std::__1::__vector_base.68" }
%"class.std::__1::__vector_base.68" = type { %"struct.flatbuffers::StructDef"**, %"struct.flatbuffers::StructDef"**, %"class.std::__1::__compressed_pair.69" }
%"class.std::__1::__compressed_pair.69" = type { %"struct.std::__1::__compressed_pair_elem.70" }
%"struct.std::__1::__compressed_pair_elem.70" = type { %"struct.flatbuffers::StructDef"** }
%"class.flatbuffers::SymbolTable.74" = type { %"class.std::__1::map.75", %"class.std::__1::vector.84" }
%"class.std::__1::map.75" = type { %"class.std::__1::__tree.76" }
%"class.std::__1::__tree.76" = type { %"class.std::__1::__tree_end_node"*, %"class.std::__1::__compressed_pair.77", %"class.std::__1::__compressed_pair.81" }
%"class.std::__1::__compressed_pair.77" = type { %"struct.std::__1::__compressed_pair_elem.7" }
%"class.std::__1::__compressed_pair.81" = type { %"struct.std::__1::__compressed_pair_elem.12" }
%"class.std::__1::vector.84" = type { %"class.std::__1::__vector_base.85" }
%"class.std::__1::__vector_base.85" = type { %"struct.flatbuffers::EnumDef"**, %"struct.flatbuffers::EnumDef"**, %"class.std::__1::__compressed_pair.86" }
%"class.std::__1::__compressed_pair.86" = type { %"struct.std::__1::__compressed_pair_elem.87" }
%"struct.std::__1::__compressed_pair_elem.87" = type { %"struct.flatbuffers::EnumDef"** }
%"class.flatbuffers::SymbolTable.91" = type { %"class.std::__1::map.92", %"class.std::__1::vector.101" }
%"class.std::__1::map.92" = type { %"class.std::__1::__tree.93" }
%"class.std::__1::__tree.93" = type { %"class.std::__1::__tree_end_node"*, %"class.std::__1::__compressed_pair.94", %"class.std::__1::__compressed_pair.98" }
%"class.std::__1::__compressed_pair.94" = type { %"struct.std::__1::__compressed_pair_elem.7" }
%"class.std::__1::__compressed_pair.98" = type { %"struct.std::__1::__compressed_pair_elem.12" }
%"class.std::__1::vector.101" = type { %"class.std::__1::__vector_base.102" }
%"class.std::__1::__vector_base.102" = type { %"struct.flatbuffers::ServiceDef"**, %"struct.flatbuffers::ServiceDef"**, %"class.std::__1::__compressed_pair.120" }
%"struct.flatbuffers::ServiceDef" = type { %"struct.flatbuffers::Definition.base", %"class.flatbuffers::SymbolTable.103" }
%"class.flatbuffers::SymbolTable.103" = type { %"class.std::__1::map.104", %"class.std::__1::vector.113" }
%"class.std::__1::map.104" = type { %"class.std::__1::__tree.105" }
%"class.std::__1::__tree.105" = type { %"class.std::__1::__tree_end_node"*, %"class.std::__1::__compressed_pair.106", %"class.std::__1::__compressed_pair.110" }
%"class.std::__1::__compressed_pair.106" = type { %"struct.std::__1::__compressed_pair_elem.7" }
%"class.std::__1::__compressed_pair.110" = type { %"struct.std::__1::__compressed_pair_elem.12" }
%"class.std::__1::vector.113" = type { %"class.std::__1::__vector_base.114" }
%"class.std::__1::__vector_base.114" = type { %"struct.flatbuffers::RPCCall"**, %"struct.flatbuffers::RPCCall"**, %"class.std::__1::__compressed_pair.115" }
%"struct.flatbuffers::RPCCall" = type { %"struct.flatbuffers::Definition.base", %"struct.flatbuffers::StructDef"*, %"struct.flatbuffers::StructDef"* }
%"class.std::__1::__compressed_pair.115" = type { %"struct.std::__1::__compressed_pair_elem.116" }
%"struct.std::__1::__compressed_pair_elem.116" = type { %"struct.flatbuffers::RPCCall"** }
%"class.std::__1::__compressed_pair.120" = type { %"struct.std::__1::__compressed_pair_elem.121" }
%"struct.std::__1::__compressed_pair_elem.121" = type { %"struct.flatbuffers::ServiceDef"** }
%"class.std::__1::vector.125" = type { %"class.std::__1::__vector_base.126" }
%"class.std::__1::__vector_base.126" = type { %"struct.flatbuffers::Namespace"**, %"struct.flatbuffers::Namespace"**, %"class.std::__1::__compressed_pair.127" }
%"class.std::__1::__compressed_pair.127" = type { %"struct.std::__1::__compressed_pair_elem.128" }
%"struct.std::__1::__compressed_pair_elem.128" = type { %"struct.flatbuffers::Namespace"** }
%"struct.flatbuffers::Namespace" = type { %"class.std::__1::vector", i64 }
%"class.flatbuffers::FlatBufferBuilder" = type { %"class.flatbuffers::vector_downward", i32, i16, i8, i8, i64, i8, i8, %"class.std::__1::set"* }
%"class.flatbuffers::vector_downward" = type { %"class.flatbuffers::Allocator"*, i8, i64, i64, i64, i8*, i8*, i8* }
%"class.flatbuffers::Allocator" = type { i32 (...)** }
%"class.std::__1::set" = type { %"class.std::__1::__tree.132" }
%"class.std::__1::__tree.132" = type { %"class.std::__1::__tree_end_node"*, %"class.std::__1::__compressed_pair.133", %"class.std::__1::__compressed_pair.137" }
%"class.std::__1::__compressed_pair.133" = type { %"struct.std::__1::__compressed_pair_elem.7" }
%"class.std::__1::__compressed_pair.137" = type { %"struct.std::__1::__compressed_pair_elem.12", %"struct.std::__1::__compressed_pair_elem.138" }
%"struct.std::__1::__compressed_pair_elem.138" = type { %"struct.flatbuffers::FlatBufferBuilder::StringOffsetCompare" }
%"struct.flatbuffers::FlatBufferBuilder::StringOffsetCompare" = type { %"class.flatbuffers::vector_downward"* }
%"class.flexbuffers::Builder" = type { %"class.std::__1::vector.139", %"class.std::__1::vector.146", i8, i32, i32, %"class.std::__1::set.154", %"class.std::__1::set.162" }
%"class.std::__1::vector.139" = type { %"class.std::__1::__vector_base.140" }
%"class.std::__1::__vector_base.140" = type { i8*, i8*, %"class.std::__1::__compressed_pair.141" }
%"class.std::__1::__compressed_pair.141" = type { %"struct.std::__1::__compressed_pair_elem.142" }
%"struct.std::__1::__compressed_pair_elem.142" = type { i8* }
%"class.std::__1::vector.146" = type { %"class.std::__1::__vector_base.147" }
%"class.std::__1::__vector_base.147" = type { %"struct.flexbuffers::Builder::Value"*, %"struct.flexbuffers::Builder::Value"*, %"class.std::__1::__compressed_pair.149" }
%"struct.flexbuffers::Builder::Value" = type { %union.anon.148, i32, i32 }
%union.anon.148 = type { i64 }
%"class.std::__1::__compressed_pair.149" = type { %"struct.std::__1::__compressed_pair_elem.150" }
%"struct.std::__1::__compressed_pair_elem.150" = type { %"struct.flexbuffers::Builder::Value"* }
%"class.std::__1::set.154" = type { %"class.std::__1::__tree.155" }
%"class.std::__1::__tree.155" = type { %"class.std::__1::__tree_end_node"*, %"class.std::__1::__compressed_pair.156", %"class.std::__1::__compressed_pair.160" }
%"class.std::__1::__compressed_pair.156" = type { %"struct.std::__1::__compressed_pair_elem.7" }
%"class.std::__1::__compressed_pair.160" = type { %"struct.std::__1::__compressed_pair_elem.12", %"struct.std::__1::__compressed_pair_elem.161" }
%"struct.std::__1::__compressed_pair_elem.161" = type { %"struct.flexbuffers::Builder::KeyOffsetCompare" }
%"struct.flexbuffers::Builder::KeyOffsetCompare" = type { %"class.std::__1::vector.139"* }
%"class.std::__1::set.162" = type { %"class.std::__1::__tree.163" }
%"class.std::__1::__tree.163" = type { %"class.std::__1::__tree_end_node"*, %"class.std::__1::__compressed_pair.164", %"class.std::__1::__compressed_pair.168" }
%"class.std::__1::__compressed_pair.164" = type { %"struct.std::__1::__compressed_pair_elem.7" }
%"class.std::__1::__compressed_pair.168" = type { %"struct.std::__1::__compressed_pair_elem.12", %"struct.std::__1::__compressed_pair_elem.169" }
%"struct.std::__1::__compressed_pair_elem.169" = type { %"struct.flexbuffers::Builder::StringOffsetCompare" }
%"struct.flexbuffers::Builder::StringOffsetCompare" = type { %"class.std::__1::vector.139"* }
%"class.flexbuffers::Reference" = type { i8*, i8, i8, i32 }
%"struct.flatbuffers::StructDef" = type { %"struct.flatbuffers::Definition.base", %"class.flatbuffers::SymbolTable.33", i8, i8, i8, i8, i64, i64, %"class.std::__1::unique_ptr" }
%"class.flatbuffers::SymbolTable.33" = type { %"class.std::__1::map.34", %"class.std::__1::vector.43" }
%"class.std::__1::map.34" = type { %"class.std::__1::__tree.35" }
%"class.std::__1::__tree.35" = type { %"class.std::__1::__tree_end_node"*, %"class.std::__1::__compressed_pair.36", %"class.std::__1::__compressed_pair.40" }
%"class.std::__1::__compressed_pair.36" = type { %"struct.std::__1::__compressed_pair_elem.7" }
%"class.std::__1::__compressed_pair.40" = type { %"struct.std::__1::__compressed_pair_elem.12" }
%"class.std::__1::vector.43" = type { %"class.std::__1::__vector_base.44" }
%"class.std::__1::__vector_base.44" = type { %"struct.flatbuffers::FieldDef"**, %"struct.flatbuffers::FieldDef"**, %"class.std::__1::__compressed_pair.45" }
%"struct.flatbuffers::FieldDef" = type { %"struct.flatbuffers::Definition.base", [4 x i8], %"struct.flatbuffers::Value", i8, i8, i8, i8, i8, i8, %"struct.flatbuffers::StructDef"*, i64 }
%"class.std::__1::__compressed_pair.45" = type { %"struct.std::__1::__compressed_pair_elem.46" }
%"struct.std::__1::__compressed_pair_elem.46" = type { %"struct.flatbuffers::FieldDef"** }
%"class.std::__1::unique_ptr" = type { %"class.std::__1::__compressed_pair.50" }
%"class.std::__1::__compressed_pair.50" = type { %"struct.std::__1::__compressed_pair_elem.2" }
%"struct.std::__1::__compressed_pair_elem.2" = type { %"class.std::__1::basic_string"* }
%"class.std::__1::map.170" = type { %"class.std::__1::__tree.171" }
%"class.std::__1::__tree.171" = type { %"class.std::__1::__tree_end_node"*, %"class.std::__1::__compressed_pair.172", %"class.std::__1::__compressed_pair.176" }
%"class.std::__1::__compressed_pair.172" = type { %"struct.std::__1::__compressed_pair_elem.7" }
%"class.std::__1::__compressed_pair.176" = type { %"struct.std::__1::__compressed_pair_elem.12" }
%"class.std::__1::map.179" = type { %"class.std::__1::__tree.180" }
%"class.std::__1::__tree.180" = type { %"class.std::__1::__tree_end_node"*, %"class.std::__1::__compressed_pair.181", %"class.std::__1::__compressed_pair.185" }
%"class.std::__1::__compressed_pair.181" = type { %"struct.std::__1::__compressed_pair_elem.7" }
%"class.std::__1::__compressed_pair.185" = type { %"struct.std::__1::__compressed_pair_elem.12" }
%"class.std::__1::vector" = type { %"class.std::__1::__vector_base" }
%"class.std::__1::__vector_base" = type { %"class.std::__1::basic_string"*, %"class.std::__1::basic_string"*, %"class.std::__1::__compressed_pair.1" }
%"class.std::__1::__compressed_pair.1" = type { %"struct.std::__1::__compressed_pair_elem.2" }
%"class.std::__1::map.188" = type { %"class.std::__1::__tree.189" }
%"class.std::__1::__tree.189" = type { %"class.std::__1::__tree_end_node"*, %"class.std::__1::__compressed_pair.190", %"class.std::__1::__compressed_pair.194" }
%"class.std::__1::__compressed_pair.190" = type { %"struct.std::__1::__compressed_pair_elem.7" }
%"class.std::__1::__compressed_pair.194" = type { %"struct.std::__1::__compressed_pair_elem.12" }
%"struct.flatbuffers::IDLOptions" = type <{ i8, i8, i8, i8, i8, i8, [2 x i8], i32, i8, i8, i8, i8, i8, i8, i8, i8, i8, i8, i8, i8, i8, [7 x i8], %"class.std::__1::basic_string", %"class.std::__1::basic_string", i8, i8, i8, i8, [4 x i8], %"class.std::__1::basic_string", %"class.std::__1::basic_string", i8, i8, i8, [5 x i8], %"class.std::__1::basic_string", i8, i8, i8, i8, i8, [3 x i8], %"class.std::__1::basic_string", %"class.std::__1::basic_string", i8, i8, i8, i8, [4 x i8], %"class.std::__1::basic_string", i8, i8, i8, [5 x i8], %"class.std::__1::vector", %"class.std::__1::basic_string", %"class.std::__1::basic_string", %"class.std::__1::basic_string", %"class.std::__1::basic_string", i32, i32, i64, i8, i8, [6 x i8] }>
%"class.std::__1::basic_string" = type { %"class.std::__1::__compressed_pair" }
%"class.std::__1::__compressed_pair" = type { %"struct.std::__1::__compressed_pair_elem" }
%"struct.std::__1::__compressed_pair_elem" = type { %"struct.std::__1::basic_string<char, std::__1::char_traits<char>, std::__1::allocator<char> >::__rep" }
%"struct.std::__1::basic_string<char, std::__1::char_traits<char>, std::__1::allocator<char> >::__rep" = type { %union.anon }
%union.anon = type { %"struct.std::__1::basic_string<char, std::__1::char_traits<char>, std::__1::allocator<char> >::__long" }
%"struct.std::__1::basic_string<char, std::__1::char_traits<char>, std::__1::allocator<char> >::__long" = type { i8*, i64, i64 }
%"class.std::__1::vector.197" = type { %"class.std::__1::__vector_base.198" }
%"class.std::__1::__vector_base.198" = type { %"struct.std::__1::pair"*, %"struct.std::__1::pair"*, %"class.std::__1::__compressed_pair.199" }
%"struct.std::__1::pair" = type { %"struct.flatbuffers::Value", %"struct.flatbuffers::FieldDef"* }
%"class.std::__1::__compressed_pair.199" = type { %"struct.std::__1::__compressed_pair_elem.200" }
%"struct.std::__1::__compressed_pair_elem.200" = type { %"struct.std::__1::pair"* }
%"class.flatbuffers::GoGRPCGenerator" = type { %"class.flatbuffers::BaseGenerator", %"class.flatbuffers::Parser"*, %"class.std::__1::basic_string"*, %"class.std::__1::basic_string"* }
%"class.flatbuffers::BaseGenerator" = type { i32 (...)**, %"class.flatbuffers::Parser"*, %"class.std::__1::basic_string"*, %"class.std::__1::basic_string"*, %"class.std::__1::basic_string", %"class.std::__1::basic_string", %"class.std::__1::basic_string" }
%"struct.flatbuffers::Definition" = type <{ %"class.std::__1::basic_string", %"class.std::__1::basic_string", %"class.std::__1::vector", %"class.flatbuffers::SymbolTable.16", i8, [7 x i8], %"struct.flatbuffers::Namespace"*, i32, i32, i32, [4 x i8] }>
%"struct.std::__1::basic_string<char, std::__1::char_traits<char>, std::__1::allocator<char> >::__short" = type { [23 x i8], %struct.anon }
%struct.anon = type { i8 }
%"class.flatbuffers::FlatBufFile" = type <{ %"struct.grpc_generator::File", %"class.flatbuffers::Parser"*, %"class.std::__1::basic_string"*, i32, [4 x i8] }>
%"struct.grpc_generator::File" = type { %"struct.grpc_generator::CommentHolder" }
%"struct.grpc_generator::CommentHolder" = type { i32 (...)** }
%"struct.grpc_go_generator::Parameters" = type { %"class.std::__1::basic_string", %"class.std::__1::basic_string", %"class.std::__1::basic_string" }
%"struct.grpc_generator::Service" = type { %"struct.grpc_generator::CommentHolder" }
%"struct.grpc_cpp_generator::Parameters" = type <{ %"class.std::__1::basic_string", i8, [7 x i8], %"class.std::__1::basic_string", i8, [7 x i8] }>
%"class.std::__1::__basic_string_common" = type { i8 }
%"class.flatbuffers::JavaGRPCGenerator" = type { %"class.flatbuffers::BaseGenerator" }
%"struct.grpc_java_generator::Parameters" = type { %"class.std::__1::basic_string" }
%"struct.grpc_python_generator::GeneratorConfiguration" = type { %"class.std::__1::basic_string", %"class.std::__1::basic_string", %"class.std::__1::basic_string" }
%"struct.grpc_python_generator::PrivateGenerator" = type { %"struct.grpc_python_generator::GeneratorConfiguration"*, %"struct.grpc_generator::File"* }
%"class.flatbuffers::SwiftGRPCGenerator" = type { %"class.flatbuffers::BaseGenerator", %"class.flatbuffers::CodeWriter" }
%"class.flatbuffers::CodeWriter" = type <{ %"class.std::__1::map.170", %"class.std::__1::basic_stringstream", %"class.std::__1::basic_string", i32, i8, [3 x i8] }>
%"class.std::__1::basic_stringstream" = type { %"class.std::__1::basic_iostream.base", %"class.std::__1::basic_stringbuf", %"class.std::__1::basic_ios.base" }
%"class.std::__1::basic_iostream.base" = type { %"class.std::__1::basic_istream.base", %"class.std::__1::basic_ostream.base" }
%"class.std::__1::basic_istream.base" = type { i32 (...)**, i64 }
%"class.std::__1::basic_ostream.base" = type { i32 (...)** }
%"class.std::__1::basic_stringbuf" = type <{ %"class.std::__1::basic_streambuf", %"class.std::__1::basic_string", i8*, i32, [4 x i8] }>
%"class.std::__1::basic_streambuf" = type { i32 (...)**, %"class.std::__1::locale", i8*, i8*, i8*, i8*, i8*, i8* }
%"class.std::__1::locale" = type { %"class.std::__1::locale::__imp"* }
%"class.std::__1::locale::__imp" = type opaque
%"class.std::__1::basic_ios.base" = type <{ %"class.std::__1::ios_base", %"class.std::__1::basic_ostream"*, i32 }>
%"class.std::__1::ios_base" = type { i32 (...)**, i32, i64, i64, i32, i32, i8*, i8*, void (i32, %"class.std::__1::ios_base"*, i32)**, i32*, i64, i64, i64*, i64, i64, i8**, i64, i64 }
%"class.std::__1::basic_ostream" = type { i32 (...)**, %"class.std::__1::basic_ios.base" }
%"class.std::__1::basic_iostream" = type { %"class.std::__1::basic_istream.base", %"class.std::__1::basic_ostream.base", %"class.std::__1::basic_ios.base" }
%"class.std::__1::basic_ios" = type <{ %"class.std::__1::ios_base", %"class.std::__1::basic_ostream"*, i32, [4 x i8] }>
%"class.std::__1::__tree_node.244" = type { %"class.std::__1::__tree_node_base.base", %"struct.std::__1::__value_type.245" }
%"class.std::__1::__tree_node_base.base" = type <{ %"class.std::__1::__tree_end_node", %"class.std::__1::__tree_node_base"*, %"class.std::__1::__tree_end_node"*, i8 }>
%"struct.std::__1::__value_type.245" = type { %"struct.std::__1::pair.243" }
%"struct.std::__1::pair.243" = type { %"class.std::__1::basic_string", %"class.std::__1::basic_string" }
%"class.flatbuffers::FlatBufService" = type { %"struct.grpc_generator::Service", %"struct.flatbuffers::ServiceDef"* }
%"class.std::__1::__vector_base_common" = type { i8 }
%"struct.grpc_generator::Method" = type { %"struct.grpc_generator::CommentHolder" }
%"class.flatbuffers::FlatBufMethod" = type <{ %"struct.grpc_generator::Method", %"struct.flatbuffers::RPCCall"*, i32, [4 x i8] }>
%"class.std::__1::__tree_node" = type { %"class.std::__1::__tree_node_base.base", %"struct.std::__1::__value_type" }
%"struct.std::__1::__value_type" = type { %"struct.std::__1::pair.234" }
%"struct.std::__1::pair.234" = type { %"class.std::__1::basic_string", %"struct.flatbuffers::Value"* }
%"struct.grpc_generator::Printer" = type { i32 (...)** }
%"class.flatbuffers::FlatBufPrinter" = type { %"struct.grpc_generator::Printer", %"class.std::__1::basic_string"*, i8, i32 }
%"class.std::__1::allocator" = type { i8 }

$_ZN11flatbuffers15GoGRPCGenerator8generateEv = comdat any

$_ZN11flatbuffers13BaseGeneratorD2Ev = comdat any

$_ZN11flatbuffers17JavaGRPCGenerator8generateEv = comdat any

$_ZN11flatbuffers18SwiftGRPCGenerator8generateEv = comdat any

$_ZN11flatbuffers18SwiftGRPCGeneratorD2Ev = comdat any

$_ZN11flatbuffers15GoGRPCGeneratorD0Ev = comdat any

$_ZNK11flatbuffers13BaseGenerator16CurrentNameSpaceEv = comdat any

$_ZN11flatbuffers13BaseGeneratorD0Ev = comdat any

$_ZNK11flatbuffers11FlatBufFile13service_countEv = comdat any

$_ZNK11flatbuffers11FlatBufFile7serviceEi = comdat any

$_ZN11flatbuffers14FlatBufServiceD0Ev = comdat any

$_ZNK11flatbuffers14FlatBufService18GetLeadingCommentsENSt3__112basic_stringIcNS1_11char_traitsIcEENS1_9allocatorIcEEEE = comdat any

$_ZNK11flatbuffers14FlatBufService19GetTrailingCommentsENSt3__112basic_stringIcNS1_11char_traitsIcEENS1_9allocatorIcEEEE = comdat any

$_ZNK11flatbuffers14FlatBufService14GetAllCommentsEv = comdat any

$_ZNK11flatbuffers14FlatBufService4nameEv = comdat any

$_ZNK11flatbuffers14FlatBufService12method_countEv = comdat any

$_ZNK11flatbuffers14FlatBufService6methodEi = comdat any

$_ZN11flatbuffers13FlatBufMethodC2EPKNS_7RPCCallE = comdat any

$_ZN14grpc_generator13CommentHolderD2Ev = comdat any

$_ZN11flatbuffers13FlatBufMethodD0Ev = comdat any

$_ZNK11flatbuffers13FlatBufMethod18GetLeadingCommentsENSt3__112basic_stringIcNS1_11char_traitsIcEENS1_9allocatorIcEEEE = comdat any

$_ZNK11flatbuffers13FlatBufMethod19GetTrailingCommentsENSt3__112basic_stringIcNS1_11char_traitsIcEENS1_9allocatorIcEEEE = comdat any

$_ZNK11flatbuffers13FlatBufMethod14GetAllCommentsEv = comdat any

$_ZNK11flatbuffers13FlatBufMethod4nameEv = comdat any

$_ZNK11flatbuffers13FlatBufMethod15input_type_nameEv = comdat any

$_ZNK11flatbuffers13FlatBufMethod16output_type_nameEv = comdat any

$_ZNK11flatbuffers13FlatBufMethod33get_module_and_message_path_inputEPNSt3__112basic_stringIcNS1_11char_traitsIcEENS1_9allocatorIcEEEES7_bS7_ = comdat any

$_ZNK11flatbuffers13FlatBufMethod34get_module_and_message_path_outputEPNSt3__112basic_stringIcNS1_11char_traitsIcEENS1_9allocatorIcEEEES7_bS7_ = comdat any

$_ZNK11flatbuffers13FlatBufMethod19get_input_type_nameEv = comdat any

$_ZNK11flatbuffers13FlatBufMethod20get_output_type_nameEv = comdat any

$_ZNK11flatbuffers13FlatBufMethod14get_fb_builderEv = comdat any

$_ZNK11flatbuffers13FlatBufMethod11NoStreamingEv = comdat any

$_ZNK11flatbuffers13FlatBufMethod15ClientStreamingEv = comdat any

$_ZNK11flatbuffers13FlatBufMethod15ServerStreamingEv = comdat any

$_ZNK11flatbuffers13FlatBufMethod13BidiStreamingEv = comdat any

$_ZNKSt3__16__treeINS_12__value_typeINS_12basic_stringIcNS_11char_traitsIcEENS_9allocatorIcEEEEPN11flatbuffers5ValueEEENS_19__map_value_compareIS7_SB_NS_4lessIS7_EELb1EEENS5_ISB_EEE4findIS7_EENS_21__tree_const_iteratorISB_PNS_11__tree_nodeISB_PvEElEERKT_ = comdat any

$_ZN11flatbuffers11FlatBufFileD0Ev = comdat any

$_ZNK11flatbuffers11FlatBufFile18GetLeadingCommentsENSt3__112basic_stringIcNS1_11char_traitsIcEENS1_9allocatorIcEEEE = comdat any

$_ZNK11flatbuffers11FlatBufFile19GetTrailingCommentsENSt3__112basic_stringIcNS1_11char_traitsIcEENS1_9allocatorIcEEEE = comdat any

$_ZNK11flatbuffers11FlatBufFile14GetAllCommentsEv = comdat any

$_ZNK11flatbuffers11FlatBufFile8filenameEv = comdat any

$_ZNK11flatbuffers11FlatBufFile20filename_without_extEv = comdat any

$_ZNK11flatbuffers11FlatBufFile7packageEv = comdat any

$_ZNK11flatbuffers11FlatBufFile13package_partsEv = comdat any

$_ZNK11flatbuffers11FlatBufFile18additional_headersEv = comdat any

$_ZNK11flatbuffers11FlatBufFile13CreatePrinterEPNSt3__112basic_stringIcNS1_11char_traitsIcEENS1_9allocatorIcEEEE = comdat any

$_ZN14grpc_generator7PrinterD2Ev = comdat any

$_ZN11flatbuffers14FlatBufPrinterD0Ev = comdat any

$_ZN11flatbuffers14FlatBufPrinter5PrintERKNSt3__13mapINS1_12basic_stringIcNS1_11char_traitsIcEENS1_9allocatorIcEEEES8_NS1_4lessIS8_EENS6_INS1_4pairIKS8_S8_EEEEEEPKc = comdat any

$_ZN11flatbuffers14FlatBufPrinter5PrintEPKc = comdat any

$_ZN11flatbuffers14FlatBufPrinter6IndentEv = comdat any

$_ZN11flatbuffers14FlatBufPrinter7OutdentEv = comdat any

$_ZNKSt3__16__treeINS_12__value_typeINS_12basic_stringIcNS_11char_traitsIcEENS_9allocatorIcEEEES7_EENS_19__map_value_compareIS7_S8_NS_4lessIS7_EELb1EEENS5_IS8_EEE4findIS7_EENS_21__tree_const_iteratorIS8_PNS_11__tree_nodeIS8_PvEElEERKT_ = comdat any

$_ZN11flatbuffers17JavaGRPCGeneratorD0Ev = comdat any

$_ZN11flatbuffers18SwiftGRPCGeneratorD0Ev = comdat any

$_ZN11flatbuffers18SwiftGRPCGenerator17GeneratedFileNameERKNSt3__112basic_stringIcNS1_11char_traitsIcEENS1_9allocatorIcEEEES9_ = comdat any

$_ZNSt3__16__treeINS_12__value_typeINS_12basic_stringIcNS_11char_traitsIcEENS_9allocatorIcEEEES7_EENS_19__map_value_compareIS7_S8_NS_4lessIS7_EELb1EEENS5_IS8_EEE7destroyEPNS_11__tree_nodeIS8_PvEE = comdat any

$_ZTVN11flatbuffers15GoGRPCGeneratorE = comdat any

$_ZTVN11flatbuffers13BaseGeneratorE = comdat any

$_ZTVN11flatbuffers14FlatBufServiceE = comdat any

$_ZTVN11flatbuffers13FlatBufMethodE = comdat any

$_ZTVN11flatbuffers11FlatBufFileE = comdat any

$_ZTVN11flatbuffers14FlatBufPrinterE = comdat any

$_ZTVN11flatbuffers17JavaGRPCGeneratorE = comdat any

$_ZTVN11flatbuffers18SwiftGRPCGeneratorE = comdat any

@.str = private unnamed_addr constant [19 x i8] c"FlatBuffers 1.12.0\00", align 1
@_ZN11flatbuffers25flatbuffer_version_stringE = weak hidden local_unnamed_addr global i8* getelementptr inbounds ([19 x i8], [19 x i8]* @.str, i64 0, i64 0), align 8
@.str.1 = private unnamed_addr constant [11 x i8] c".grpc.fb.h\00", align 1
@.str.2 = private unnamed_addr constant [12 x i8] c".grpc.fb.cc\00", align 1
@.str.4 = private unnamed_addr constant [10 x i8] c"grpc.beta\00", align 1
@.str.6 = private unnamed_addr constant [12 x i8] c"_grpc_fb.py\00", align 1
@_ZTVN11flatbuffers15GoGRPCGeneratorE = linkonce_odr hidden unnamed_addr constant { [6 x i8*] } { [6 x i8*] [i8* null, i8* null, i8* bitcast (i1 (%"class.flatbuffers::GoGRPCGenerator"*)* @_ZN11flatbuffers15GoGRPCGenerator8generateEv to i8*), i8* bitcast (void (%"class.flatbuffers::BaseGenerator"*)* @_ZN11flatbuffers13BaseGeneratorD2Ev to i8*), i8* bitcast (void (%"class.flatbuffers::GoGRPCGenerator"*)* @_ZN11flatbuffers15GoGRPCGeneratorD0Ev to i8*), i8* bitcast (%"struct.flatbuffers::Namespace"* (%"class.flatbuffers::BaseGenerator"*)* @_ZNK11flatbuffers13BaseGenerator16CurrentNameSpaceEv to i8*)] }, comdat, align 8
@_ZTVN11flatbuffers13BaseGeneratorE = linkonce_odr hidden unnamed_addr constant { [6 x i8*] } { [6 x i8*] [i8* null, i8* null, i8* bitcast (void ()* @__cxa_pure_virtual to i8*), i8* bitcast (void (%"class.flatbuffers::BaseGenerator"*)* @_ZN11flatbuffers13BaseGeneratorD2Ev to i8*), i8* bitcast (void (%"class.flatbuffers::BaseGenerator"*)* @_ZN11flatbuffers13BaseGeneratorD0Ev to i8*), i8* bitcast (%"struct.flatbuffers::Namespace"* (%"class.flatbuffers::BaseGenerator"*)* @_ZNK11flatbuffers13BaseGenerator16CurrentNameSpaceEv to i8*)] }, comdat, align 8
@.str.9 = private unnamed_addr constant [20 x i8] c"flatbuffers.Builder\00", align 1
@.str.10 = private unnamed_addr constant [9 x i8] c"_grpc.go\00", align 1
@_ZTVN11flatbuffers14FlatBufServiceE = linkonce_odr hidden unnamed_addr constant { [10 x i8*] } { [10 x i8*] [i8* null, i8* null, i8* bitcast (void (%"struct.grpc_generator::CommentHolder"*)* @_ZN14grpc_generator13CommentHolderD2Ev to i8*), i8* bitcast (void (%"class.flatbuffers::FlatBufService"*)* @_ZN11flatbuffers14FlatBufServiceD0Ev to i8*), i8* bitcast (void (%"class.std::__1::basic_string"*, %"class.flatbuffers::FlatBufService"*, %"class.std::__1::basic_string"*)* @_ZNK11flatbuffers14FlatBufService18GetLeadingCommentsENSt3__112basic_stringIcNS1_11char_traitsIcEENS1_9allocatorIcEEEE to i8*), i8* bitcast (void (%"class.std::__1::basic_string"*, %"class.flatbuffers::FlatBufService"*, %"class.std::__1::basic_string"*)* @_ZNK11flatbuffers14FlatBufService19GetTrailingCommentsENSt3__112basic_stringIcNS1_11char_traitsIcEENS1_9allocatorIcEEEE to i8*), i8* bitcast (void (%"class.std::__1::vector"*, %"class.flatbuffers::FlatBufService"*)* @_ZNK11flatbuffers14FlatBufService14GetAllCommentsEv to i8*), i8* bitcast (void (%"class.std::__1::basic_string"*, %"class.flatbuffers::FlatBufService"*)* @_ZNK11flatbuffers14FlatBufService4nameEv to i8*), i8* bitcast (i32 (%"class.flatbuffers::FlatBufService"*)* @_ZNK11flatbuffers14FlatBufService12method_countEv to i8*), i8* bitcast (%"struct.grpc_generator::Method"* (%"class.flatbuffers::FlatBufService"*, i32)* @_ZNK11flatbuffers14FlatBufService6methodEi to i8*)] }, comdat, align 8
@_ZTVN11flatbuffers13FlatBufMethodE = linkonce_odr hidden unnamed_addr constant { [19 x i8*] } { [19 x i8*] [i8* null, i8* null, i8* bitcast (void (%"struct.grpc_generator::CommentHolder"*)* @_ZN14grpc_generator13CommentHolderD2Ev to i8*), i8* bitcast (void (%"class.flatbuffers::FlatBufMethod"*)* @_ZN11flatbuffers13FlatBufMethodD0Ev to i8*), i8* bitcast (void (%"class.std::__1::basic_string"*, %"class.flatbuffers::FlatBufMethod"*, %"class.std::__1::basic_string"*)* @_ZNK11flatbuffers13FlatBufMethod18GetLeadingCommentsENSt3__112basic_stringIcNS1_11char_traitsIcEENS1_9allocatorIcEEEE to i8*), i8* bitcast (void (%"class.std::__1::basic_string"*, %"class.flatbuffers::FlatBufMethod"*, %"class.std::__1::basic_string"*)* @_ZNK11flatbuffers13FlatBufMethod19GetTrailingCommentsENSt3__112basic_stringIcNS1_11char_traitsIcEENS1_9allocatorIcEEEE to i8*), i8* bitcast (void (%"class.std::__1::vector"*, %"class.flatbuffers::FlatBufMethod"*)* @_ZNK11flatbuffers13FlatBufMethod14GetAllCommentsEv to i8*), i8* bitcast (void (%"class.std::__1::basic_string"*, %"class.flatbuffers::FlatBufMethod"*)* @_ZNK11flatbuffers13FlatBufMethod4nameEv to i8*), i8* bitcast (void (%"class.std::__1::basic_string"*, %"class.flatbuffers::FlatBufMethod"*)* @_ZNK11flatbuffers13FlatBufMethod15input_type_nameEv to i8*), i8* bitcast (void (%"class.std::__1::basic_string"*, %"class.flatbuffers::FlatBufMethod"*)* @_ZNK11flatbuffers13FlatBufMethod16output_type_nameEv to i8*), i8* bitcast (i1 (%"class.flatbuffers::FlatBufMethod"*, %"class.std::__1::basic_string"*, %"class.std::__1::basic_string"*, i1, %"class.std::__1::basic_string"*)* @_ZNK11flatbuffers13FlatBufMethod33get_module_and_message_path_inputEPNSt3__112basic_stringIcNS1_11char_traitsIcEENS1_9allocatorIcEEEES7_bS7_ to i8*), i8* bitcast (i1 (%"class.flatbuffers::FlatBufMethod"*, %"class.std::__1::basic_string"*, %"class.std::__1::basic_string"*, i1, %"class.std::__1::basic_string"*)* @_ZNK11flatbuffers13FlatBufMethod34get_module_and_message_path_outputEPNSt3__112basic_stringIcNS1_11char_traitsIcEENS1_9allocatorIcEEEES7_bS7_ to i8*), i8* bitcast (void (%"class.std::__1::basic_string"*, %"class.flatbuffers::FlatBufMethod"*)* @_ZNK11flatbuffers13FlatBufMethod19get_input_type_nameEv to i8*), i8* bitcast (void (%"class.std::__1::basic_string"*, %"class.flatbuffers::FlatBufMethod"*)* @_ZNK11flatbuffers13FlatBufMethod20get_output_type_nameEv to i8*), i8* bitcast (void (%"class.std::__1::basic_string"*, %"class.flatbuffers::FlatBufMethod"*)* @_ZNK11flatbuffers13FlatBufMethod14get_fb_builderEv to i8*), i8* bitcast (i1 (%"class.flatbuffers::FlatBufMethod"*)* @_ZNK11flatbuffers13FlatBufMethod11NoStreamingEv to i8*), i8* bitcast (i1 (%"class.flatbuffers::FlatBufMethod"*)* @_ZNK11flatbuffers13FlatBufMethod15ClientStreamingEv to i8*), i8* bitcast (i1 (%"class.flatbuffers::FlatBufMethod"*)* @_ZNK11flatbuffers13FlatBufMethod15ServerStreamingEv to i8*), i8* bitcast (i1 (%"class.flatbuffers::FlatBufMethod"*)* @_ZNK11flatbuffers13FlatBufMethod13BidiStreamingEv to i8*)] }, comdat, align 8
@.str.11 = private unnamed_addr constant [10 x i8] c"streaming\00", align 1
@.str.12 = private unnamed_addr constant [7 x i8] c"client\00", align 1
@.str.13 = private unnamed_addr constant [7 x i8] c"server\00", align 1
@.str.14 = private unnamed_addr constant [5 x i8] c"bidi\00", align 1
@.str.15 = private unnamed_addr constant [28 x i8] c"flatbuffers::grpc::Message<\00", align 1
@.str.16 = private unnamed_addr constant [2 x i8] c">\00", align 1
@.str.17 = private unnamed_addr constant [8 x i8] c"builder\00", align 1
@_ZTVN11flatbuffers11FlatBufFileE = linkonce_odr hidden unnamed_addr constant { [15 x i8*] } { [15 x i8*] [i8* null, i8* null, i8* bitcast (void (%"struct.grpc_generator::CommentHolder"*)* @_ZN14grpc_generator13CommentHolderD2Ev to i8*), i8* bitcast (void (%"class.flatbuffers::FlatBufFile"*)* @_ZN11flatbuffers11FlatBufFileD0Ev to i8*), i8* bitcast (void (%"class.std::__1::basic_string"*, %"class.flatbuffers::FlatBufFile"*, %"class.std::__1::basic_string"*)* @_ZNK11flatbuffers11FlatBufFile18GetLeadingCommentsENSt3__112basic_stringIcNS1_11char_traitsIcEENS1_9allocatorIcEEEE to i8*), i8* bitcast (void (%"class.std::__1::basic_string"*, %"class.flatbuffers::FlatBufFile"*, %"class.std::__1::basic_string"*)* @_ZNK11flatbuffers11FlatBufFile19GetTrailingCommentsENSt3__112basic_stringIcNS1_11char_traitsIcEENS1_9allocatorIcEEEE to i8*), i8* bitcast (void (%"class.std::__1::vector"*, %"class.flatbuffers::FlatBufFile"*)* @_ZNK11flatbuffers11FlatBufFile14GetAllCommentsEv to i8*), i8* bitcast (void (%"class.std::__1::basic_string"*, %"class.flatbuffers::FlatBufFile"*)* @_ZNK11flatbuffers11FlatBufFile8filenameEv to i8*), i8* bitcast (void (%"class.std::__1::basic_string"*, %"class.flatbuffers::FlatBufFile"*)* @_ZNK11flatbuffers11FlatBufFile20filename_without_extEv to i8*), i8* bitcast (void (%"class.std::__1::basic_string"*, %"class.flatbuffers::FlatBufFile"*)* @_ZNK11flatbuffers11FlatBufFile7packageEv to i8*), i8* bitcast (void (%"class.std::__1::vector"*, %"class.flatbuffers::FlatBufFile"*)* @_ZNK11flatbuffers11FlatBufFile13package_partsEv to i8*), i8* bitcast (void (%"class.std::__1::basic_string"*, %"class.flatbuffers::FlatBufFile"*)* @_ZNK11flatbuffers11FlatBufFile18additional_headersEv to i8*), i8* bitcast (i32 (%"class.flatbuffers::FlatBufFile"*)* @_ZNK11flatbuffers11FlatBufFile13service_countEv to i8*), i8* bitcast (%"struct.grpc_generator::Service"* (%"class.flatbuffers::FlatBufFile"*, i32)* @_ZNK11flatbuffers11FlatBufFile7serviceEi to i8*), i8* bitcast (%"struct.grpc_generator::Printer"* (%"class.flatbuffers::FlatBufFile"*, %"class.std::__1::basic_string"*)* @_ZNK11flatbuffers11FlatBufFile13CreatePrinterEPNSt3__112basic_stringIcNS1_11char_traitsIcEENS1_9allocatorIcEEEE to i8*)] }, comdat, align 8
@.str.18 = private unnamed_addr constant [31 x i8] c"#include \22flatbuffers/grpc.h\22\0A\00", align 1
@.str.19 = private unnamed_addr constant [42 x i8] c"import \22github.com/google/flatbuffers/go\22\00", align 1
@.str.20 = private unnamed_addr constant [53 x i8] c"import com.google.flatbuffers.grpc.FlatbuffersUtils;\00", align 1
@_ZTVN11flatbuffers14FlatBufPrinterE = linkonce_odr hidden unnamed_addr constant { [8 x i8*] } { [8 x i8*] [i8* null, i8* null, i8* bitcast (void (%"struct.grpc_generator::Printer"*)* @_ZN14grpc_generator7PrinterD2Ev to i8*), i8* bitcast (void (%"class.flatbuffers::FlatBufPrinter"*)* @_ZN11flatbuffers14FlatBufPrinterD0Ev to i8*), i8* bitcast (void (%"class.flatbuffers::FlatBufPrinter"*, %"class.std::__1::map.170"*, i8*)* @_ZN11flatbuffers14FlatBufPrinter5PrintERKNSt3__13mapINS1_12basic_stringIcNS1_11char_traitsIcEENS1_9allocatorIcEEEES8_NS1_4lessIS8_EENS6_INS1_4pairIKS8_S8_EEEEEEPKc to i8*), i8* bitcast (void (%"class.flatbuffers::FlatBufPrinter"*, i8*)* @_ZN11flatbuffers14FlatBufPrinter5PrintEPKc to i8*), i8* bitcast (void (%"class.flatbuffers::FlatBufPrinter"*)* @_ZN11flatbuffers14FlatBufPrinter6IndentEv to i8*), i8* bitcast (void (%"class.flatbuffers::FlatBufPrinter"*)* @_ZN11flatbuffers14FlatBufPrinter7OutdentEv to i8*)] }, comdat, align 8
@_ZTVN11flatbuffers17JavaGRPCGeneratorE = linkonce_odr hidden unnamed_addr constant { [6 x i8*] } { [6 x i8*] [i8* null, i8* null, i8* bitcast (i1 (%"class.flatbuffers::JavaGRPCGenerator"*)* @_ZN11flatbuffers17JavaGRPCGenerator8generateEv to i8*), i8* bitcast (void (%"class.flatbuffers::BaseGenerator"*)* @_ZN11flatbuffers13BaseGeneratorD2Ev to i8*), i8* bitcast (void (%"class.flatbuffers::JavaGRPCGenerator"*)* @_ZN11flatbuffers17JavaGRPCGeneratorD0Ev to i8*), i8* bitcast (%"struct.flatbuffers::Namespace"* (%"class.flatbuffers::BaseGenerator"*)* @_ZNK11flatbuffers13BaseGenerator16CurrentNameSpaceEv to i8*)] }, comdat, align 8
@.str.23 = private unnamed_addr constant [10 x i8] c"Grpc.java\00", align 1
@.str.24 = private unnamed_addr constant [6 x i8] c"swift\00", align 8
@_ZTVN11flatbuffers18SwiftGRPCGeneratorE = linkonce_odr hidden unnamed_addr constant { [6 x i8*] } { [6 x i8*] [i8* null, i8* null, i8* bitcast (i1 (%"class.flatbuffers::SwiftGRPCGenerator"*)* @_ZN11flatbuffers18SwiftGRPCGenerator8generateEv to i8*), i8* bitcast (void (%"class.flatbuffers::SwiftGRPCGenerator"*)* @_ZN11flatbuffers18SwiftGRPCGeneratorD2Ev to i8*), i8* bitcast (void (%"class.flatbuffers::SwiftGRPCGenerator"*)* @_ZN11flatbuffers18SwiftGRPCGeneratorD0Ev to i8*), i8* bitcast (%"struct.flatbuffers::Namespace"* (%"class.flatbuffers::BaseGenerator"*)* @_ZNK11flatbuffers13BaseGenerator16CurrentNameSpaceEv to i8*)] }, comdat, align 8
@_ZTVNSt3__118basic_stringstreamIcNS_11char_traitsIcEENS_9allocatorIcEEEE = external unnamed_addr constant { [5 x i8*], [5 x i8*], [5 x i8*] }, align 8
@_ZTTNSt3__118basic_stringstreamIcNS_11char_traitsIcEENS_9allocatorIcEEEE = external unnamed_addr constant [10 x i8*], align 8
@_ZTVNSt3__115basic_stringbufIcNS_11char_traitsIcEENS_9allocatorIcEEEE = external unnamed_addr constant { [16 x i8*] }, align 8
@.str.25 = private unnamed_addr constant [46 x i8] c"// Generated GRPC code for FlatBuffers swift!\00", align 1
@.str.26 = private unnamed_addr constant [12 x i8] c".grpc.swift\00", align 1

; Function Attrs: nounwind ssp uwtable
define hidden zeroext i1 @_ZN11flatbuffers14GenerateGoGRPCERKNS_6ParserERKNSt3__112basic_stringIcNS3_11char_traitsIcEENS3_9allocatorIcEEEESB_(%"class.flatbuffers::Parser"* dereferenceable(1208), %"class.std::__1::basic_string"* dereferenceable(24), %"class.std::__1::basic_string"* dereferenceable(24)) local_unnamed_addr #0 {
  %4 = alloca %"class.flatbuffers::GoGRPCGenerator", align 8
  %5 = getelementptr inbounds %"class.flatbuffers::Parser", %"class.flatbuffers::Parser"* %0, i64 0, i32 4, i32 1, i32 0, i32 0
  %6 = load %"struct.flatbuffers::ServiceDef"**, %"struct.flatbuffers::ServiceDef"*** %5, align 8
  %7 = getelementptr inbounds %"class.flatbuffers::Parser", %"class.flatbuffers::Parser"* %0, i64 0, i32 4, i32 1, i32 0, i32 1
  %8 = load %"struct.flatbuffers::ServiceDef"**, %"struct.flatbuffers::ServiceDef"*** %7, align 8
  %9 = icmp eq %"struct.flatbuffers::ServiceDef"** %6, %8
  br i1 %9, label %125, label %10

10:                                               ; preds = %3
  %11 = ptrtoint %"struct.flatbuffers::ServiceDef"** %6 to i64
  %12 = getelementptr %"struct.flatbuffers::ServiceDef"*, %"struct.flatbuffers::ServiceDef"** %8, i64 -1
  %13 = ptrtoint %"struct.flatbuffers::ServiceDef"** %12 to i64
  %14 = sub i64 %13, %11
  %15 = lshr i64 %14, 3
  %16 = add nuw nsw i64 %15, 1
  %17 = and i64 %16, 3
  %18 = icmp ult i64 %14, 24
  br i1 %18, label %21, label %19

19:                                               ; preds = %10
  %20 = sub nsw i64 %16, %17
  br label %43

21:                                               ; preds = %43, %10
  %22 = phi i32 [ undef, %10 ], [ %77, %43 ]
  %23 = phi i32 [ 0, %10 ], [ %77, %43 ]
  %24 = phi %"struct.flatbuffers::ServiceDef"** [ %6, %10 ], [ %78, %43 ]
  %25 = icmp eq i64 %17, 0
  br i1 %25, label %40, label %26

26:                                               ; preds = %21, %26
  %27 = phi i32 [ %36, %26 ], [ %23, %21 ]
  %28 = phi %"struct.flatbuffers::ServiceDef"** [ %37, %26 ], [ %24, %21 ]
  %29 = phi i64 [ %38, %26 ], [ %17, %21 ]
  %30 = bitcast %"struct.flatbuffers::ServiceDef"** %28 to %"struct.flatbuffers::Definition"**
  %31 = load %"struct.flatbuffers::Definition"*, %"struct.flatbuffers::Definition"** %30, align 8
  %32 = getelementptr inbounds %"struct.flatbuffers::Definition", %"struct.flatbuffers::Definition"* %31, i64 0, i32 4
  %33 = load i8, i8* %32, align 8, !range !2
  %34 = xor i8 %33, 1
  %35 = zext i8 %34 to i32
  %36 = add nuw nsw i32 %27, %35
  %37 = getelementptr inbounds %"struct.flatbuffers::ServiceDef"*, %"struct.flatbuffers::ServiceDef"** %28, i64 1
  %38 = add i64 %29, -1
  %39 = icmp eq i64 %38, 0
  br i1 %39, label %40, label %26, !llvm.loop !3

40:                                               ; preds = %26, %21
  %41 = phi i32 [ %22, %21 ], [ %36, %26 ]
  %42 = icmp eq i32 %41, 0
  br i1 %42, label %125, label %81

43:                                               ; preds = %43, %19
  %44 = phi i32 [ 0, %19 ], [ %77, %43 ]
  %45 = phi %"struct.flatbuffers::ServiceDef"** [ %6, %19 ], [ %78, %43 ]
  %46 = phi i64 [ %20, %19 ], [ %79, %43 ]
  %47 = bitcast %"struct.flatbuffers::ServiceDef"** %45 to %"struct.flatbuffers::Definition"**
  %48 = load %"struct.flatbuffers::Definition"*, %"struct.flatbuffers::Definition"** %47, align 8
  %49 = getelementptr inbounds %"struct.flatbuffers::Definition", %"struct.flatbuffers::Definition"* %48, i64 0, i32 4
  %50 = load i8, i8* %49, align 8, !range !2
  %51 = xor i8 %50, 1
  %52 = zext i8 %51 to i32
  %53 = add nuw nsw i32 %44, %52
  %54 = getelementptr inbounds %"struct.flatbuffers::ServiceDef"*, %"struct.flatbuffers::ServiceDef"** %45, i64 1
  %55 = bitcast %"struct.flatbuffers::ServiceDef"** %54 to %"struct.flatbuffers::Definition"**
  %56 = load %"struct.flatbuffers::Definition"*, %"struct.flatbuffers::Definition"** %55, align 8
  %57 = getelementptr inbounds %"struct.flatbuffers::Definition", %"struct.flatbuffers::Definition"* %56, i64 0, i32 4
  %58 = load i8, i8* %57, align 8, !range !2
  %59 = xor i8 %58, 1
  %60 = zext i8 %59 to i32
  %61 = add nuw nsw i32 %53, %60
  %62 = getelementptr inbounds %"struct.flatbuffers::ServiceDef"*, %"struct.flatbuffers::ServiceDef"** %45, i64 2
  %63 = bitcast %"struct.flatbuffers::ServiceDef"** %62 to %"struct.flatbuffers::Definition"**
  %64 = load %"struct.flatbuffers::Definition"*, %"struct.flatbuffers::Definition"** %63, align 8
  %65 = getelementptr inbounds %"struct.flatbuffers::Definition", %"struct.flatbuffers::Definition"* %64, i64 0, i32 4
  %66 = load i8, i8* %65, align 8, !range !2
  %67 = xor i8 %66, 1
  %68 = zext i8 %67 to i32
  %69 = add nuw nsw i32 %61, %68
  %70 = getelementptr inbounds %"struct.flatbuffers::ServiceDef"*, %"struct.flatbuffers::ServiceDef"** %45, i64 3
  %71 = bitcast %"struct.flatbuffers::ServiceDef"** %70 to %"struct.flatbuffers::Definition"**
  %72 = load %"struct.flatbuffers::Definition"*, %"struct.flatbuffers::Definition"** %71, align 8
  %73 = getelementptr inbounds %"struct.flatbuffers::Definition", %"struct.flatbuffers::Definition"* %72, i64 0, i32 4
  %74 = load i8, i8* %73, align 8, !range !2
  %75 = xor i8 %74, 1
  %76 = zext i8 %75 to i32
  %77 = add nuw nsw i32 %69, %76
  %78 = getelementptr inbounds %"struct.flatbuffers::ServiceDef"*, %"struct.flatbuffers::ServiceDef"** %45, i64 4
  %79 = add i64 %46, -4
  %80 = icmp eq i64 %79, 0
  br i1 %80, label %21, label %43

81:                                               ; preds = %40
  %82 = bitcast %"class.flatbuffers::GoGRPCGenerator"* %4 to i8*
  call void @llvm.lifetime.start.p0i8(i64 128, i8* nonnull %82) #11
  %83 = getelementptr inbounds %"class.flatbuffers::GoGRPCGenerator", %"class.flatbuffers::GoGRPCGenerator"* %4, i64 0, i32 0, i32 0
  %84 = getelementptr inbounds %"class.flatbuffers::GoGRPCGenerator", %"class.flatbuffers::GoGRPCGenerator"* %4, i64 0, i32 0, i32 1
  store %"class.flatbuffers::Parser"* %0, %"class.flatbuffers::Parser"** %84, align 8
  %85 = getelementptr inbounds %"class.flatbuffers::GoGRPCGenerator", %"class.flatbuffers::GoGRPCGenerator"* %4, i64 0, i32 0, i32 2
  store %"class.std::__1::basic_string"* %1, %"class.std::__1::basic_string"** %85, align 8
  %86 = getelementptr inbounds %"class.flatbuffers::GoGRPCGenerator", %"class.flatbuffers::GoGRPCGenerator"* %4, i64 0, i32 0, i32 3
  store %"class.std::__1::basic_string"* %2, %"class.std::__1::basic_string"** %86, align 8
  %87 = getelementptr inbounds %"class.flatbuffers::GoGRPCGenerator", %"class.flatbuffers::GoGRPCGenerator"* %4, i64 0, i32 0, i32 4
  %88 = bitcast %"class.std::__1::basic_string"* %87 to i8*
  store i8 0, i8* %88, align 8
  %89 = getelementptr inbounds i8, i8* %82, i64 55
  store i8 0, i8* %89, align 1
  %90 = getelementptr inbounds %"class.flatbuffers::GoGRPCGenerator", %"class.flatbuffers::GoGRPCGenerator"* %4, i64 0, i32 0, i32 5
  %91 = bitcast %"class.std::__1::basic_string"* %90 to i8*
  store i8 0, i8* %91, align 8
  %92 = getelementptr inbounds i8, i8* %82, i64 79
  store i8 0, i8* %92, align 1
  %93 = getelementptr inbounds %"class.flatbuffers::GoGRPCGenerator", %"class.flatbuffers::GoGRPCGenerator"* %4, i64 0, i32 0, i32 6
  %94 = bitcast %"class.std::__1::basic_string"* %93 to i16*
  store i16 28519, i16* %94, align 8
  %95 = getelementptr inbounds i8, i8* %82, i64 82
  store i8 0, i8* %95, align 2
  %96 = getelementptr inbounds i8, i8* %82, i64 103
  store i8 2, i8* %96, align 1
  store i32 (...)** bitcast (i8** getelementptr inbounds ({ [6 x i8*] }, { [6 x i8*] }* @_ZTVN11flatbuffers15GoGRPCGeneratorE, i64 0, inrange i32 0, i64 2) to i32 (...)**), i32 (...)*** %83, align 8
  %97 = getelementptr inbounds %"class.flatbuffers::GoGRPCGenerator", %"class.flatbuffers::GoGRPCGenerator"* %4, i64 0, i32 1
  store %"class.flatbuffers::Parser"* %0, %"class.flatbuffers::Parser"** %97, align 8
  %98 = getelementptr inbounds %"class.flatbuffers::GoGRPCGenerator", %"class.flatbuffers::GoGRPCGenerator"* %4, i64 0, i32 2
  store %"class.std::__1::basic_string"* %1, %"class.std::__1::basic_string"** %98, align 8
  %99 = getelementptr inbounds %"class.flatbuffers::GoGRPCGenerator", %"class.flatbuffers::GoGRPCGenerator"* %4, i64 0, i32 3
  store %"class.std::__1::basic_string"* %2, %"class.std::__1::basic_string"** %99, align 8
  %100 = call zeroext i1 @_ZN11flatbuffers15GoGRPCGenerator8generateEv(%"class.flatbuffers::GoGRPCGenerator"* nonnull %4)
  store i32 (...)** bitcast (i8** getelementptr inbounds ({ [6 x i8*] }, { [6 x i8*] }* @_ZTVN11flatbuffers13BaseGeneratorE, i64 0, inrange i32 0, i64 2) to i32 (...)**), i32 (...)*** %83, align 8
  %101 = bitcast %"class.std::__1::basic_string"* %93 to %"struct.std::__1::basic_string<char, std::__1::char_traits<char>, std::__1::allocator<char> >::__short"*
  %102 = getelementptr inbounds %"struct.std::__1::basic_string<char, std::__1::char_traits<char>, std::__1::allocator<char> >::__short", %"struct.std::__1::basic_string<char, std::__1::char_traits<char>, std::__1::allocator<char> >::__short"* %101, i64 0, i32 1, i32 0
  %103 = load i8, i8* %102, align 1
  %104 = icmp slt i8 %103, 0
  br i1 %104, label %105, label %108

105:                                              ; preds = %81
  %106 = getelementptr inbounds %"class.std::__1::basic_string", %"class.std::__1::basic_string"* %93, i64 0, i32 0, i32 0, i32 0, i32 0, i32 0, i32 0
  %107 = load i8*, i8** %106, align 8
  call void @_ZdlPv(i8* %107) #12
  br label %108

108:                                              ; preds = %105, %81
  %109 = bitcast %"class.std::__1::basic_string"* %90 to %"struct.std::__1::basic_string<char, std::__1::char_traits<char>, std::__1::allocator<char> >::__short"*
  %110 = getelementptr inbounds %"struct.std::__1::basic_string<char, std::__1::char_traits<char>, std::__1::allocator<char> >::__short", %"struct.std::__1::basic_string<char, std::__1::char_traits<char>, std::__1::allocator<char> >::__short"* %109, i64 0, i32 1, i32 0
  %111 = load i8, i8* %110, align 1
  %112 = icmp slt i8 %111, 0
  br i1 %112, label %113, label %116

113:                                              ; preds = %108
  %114 = getelementptr inbounds %"class.std::__1::basic_string", %"class.std::__1::basic_string"* %90, i64 0, i32 0, i32 0, i32 0, i32 0, i32 0, i32 0
  %115 = load i8*, i8** %114, align 8
  call void @_ZdlPv(i8* %115) #12
  br label %116

116:                                              ; preds = %113, %108
  %117 = bitcast %"class.std::__1::basic_string"* %87 to %"struct.std::__1::basic_string<char, std::__1::char_traits<char>, std::__1::allocator<char> >::__short"*
  %118 = getelementptr inbounds %"struct.std::__1::basic_string<char, std::__1::char_traits<char>, std::__1::allocator<char> >::__short", %"struct.std::__1::basic_string<char, std::__1::char_traits<char>, std::__1::allocator<char> >::__short"* %117, i64 0, i32 1, i32 0
  %119 = load i8, i8* %118, align 1
  %120 = icmp slt i8 %119, 0
  br i1 %120, label %121, label %124

121:                                              ; preds = %116
  %122 = getelementptr inbounds %"class.std::__1::basic_string", %"class.std::__1::basic_string"* %87, i64 0, i32 0, i32 0, i32 0, i32 0, i32 0, i32 0
  %123 = load i8*, i8** %122, align 8
  call void @_ZdlPv(i8* %123) #12
  br label %124

124:                                              ; preds = %116, %121
  call void @llvm.lifetime.end.p0i8(i64 128, i8* nonnull %82) #11
  br label %125

125:                                              ; preds = %3, %40, %124
  %126 = phi i1 [ %100, %124 ], [ true, %40 ], [ true, %3 ]
  ret i1 %126
}

; Function Attrs: argmemonly nounwind
declare void @llvm.lifetime.start.p0i8(i64 immarg, i8* nocapture) #1

; Function Attrs: argmemonly nounwind
declare void @llvm.lifetime.end.p0i8(i64 immarg, i8* nocapture) #1

; Function Attrs: nounwind ssp uwtable
define linkonce_odr hidden zeroext i1 @_ZN11flatbuffers15GoGRPCGenerator8generateEv(%"class.flatbuffers::GoGRPCGenerator"*) unnamed_addr #0 comdat align 2 {
  %2 = alloca %"class.flatbuffers::FlatBufFile", align 8
  %3 = alloca %"struct.grpc_go_generator::Parameters", align 8
  %4 = alloca %"class.std::__1::basic_string", align 8
  %5 = alloca %"class.std::__1::basic_string", align 8
  %6 = alloca %"class.std::__1::basic_string", align 8
  %7 = alloca %"class.std::__1::basic_string", align 8
  %8 = alloca %"class.std::__1::basic_string", align 8
  %9 = alloca %"class.std::__1::basic_string", align 8
  %10 = alloca %"class.std::__1::basic_string", align 8
  %11 = bitcast %"class.flatbuffers::FlatBufFile"* %2 to i8*
  call void @llvm.lifetime.start.p0i8(i64 32, i8* nonnull %11) #11
  %12 = getelementptr inbounds %"class.flatbuffers::FlatBufFile", %"class.flatbuffers::FlatBufFile"* %2, i64 0, i32 0, i32 0, i32 0
  %13 = getelementptr inbounds %"class.flatbuffers::FlatBufFile", %"class.flatbuffers::FlatBufFile"* %2, i64 0, i32 1
  %14 = getelementptr inbounds %"class.flatbuffers::FlatBufFile", %"class.flatbuffers::FlatBufFile"* %2, i64 0, i32 2
  %15 = getelementptr inbounds %"class.flatbuffers::FlatBufFile", %"class.flatbuffers::FlatBufFile"* %2, i64 0, i32 3
  %16 = getelementptr inbounds %"class.flatbuffers::GoGRPCGenerator", %"class.flatbuffers::GoGRPCGenerator"* %0, i64 0, i32 1
  %17 = bitcast %"class.flatbuffers::Parser"** %16 to i64*
  %18 = bitcast %"class.flatbuffers::FlatBufFile"* %2 to i8*
  call void @llvm.memset.p0i8.i64(i8* nonnull align 8 %18, i8 -86, i64 32, i1 false)
  %19 = load i64, i64* %17, align 8
  %20 = getelementptr inbounds %"class.flatbuffers::GoGRPCGenerator", %"class.flatbuffers::GoGRPCGenerator"* %0, i64 0, i32 3
  %21 = bitcast %"class.std::__1::basic_string"** %20 to i64*
  %22 = load i64, i64* %21, align 8
  store i32 (...)** bitcast (i8** getelementptr inbounds ({ [15 x i8*] }, { [15 x i8*] }* @_ZTVN11flatbuffers11FlatBufFileE, i64 0, inrange i32 0, i64 2) to i32 (...)**), i32 (...)*** %12, align 8
  %23 = bitcast %"class.flatbuffers::Parser"** %13 to i64*
  store i64 %19, i64* %23, align 8
  %24 = bitcast %"class.std::__1::basic_string"** %14 to i64*
  store i64 %22, i64* %24, align 8
  store i32 0, i32* %15, align 8
  %25 = bitcast %"struct.grpc_go_generator::Parameters"* %3 to i8*
  call void @llvm.lifetime.start.p0i8(i64 72, i8* nonnull %25) #11
  call void @llvm.memset.p0i8.i64(i8* nonnull align 8 %25, i8 0, i64 72, i1 false) #11
  %26 = bitcast %"struct.grpc_go_generator::Parameters"* %3 to %"struct.std::__1::basic_string<char, std::__1::char_traits<char>, std::__1::allocator<char> >::__short"*
  %27 = getelementptr inbounds %"struct.std::__1::basic_string<char, std::__1::char_traits<char>, std::__1::allocator<char> >::__short", %"struct.std::__1::basic_string<char, std::__1::char_traits<char>, std::__1::allocator<char> >::__short"* %26, i64 0, i32 1, i32 0
  %28 = inttoptr i64 %19 to %"class.flatbuffers::Parser"*
  store i8 19, i8* %27, align 1
  call void @llvm.memcpy.p0i8.p0i8.i64(i8* nonnull align 8 %25, i8* align 1 getelementptr inbounds ([20 x i8], [20 x i8]* @.str.9, i64 0, i64 0), i64 19, i1 false) #11
  %29 = getelementptr inbounds i8, i8* %25, i64 19
  store i8 0, i8* %29, align 1
  %30 = getelementptr inbounds %"class.flatbuffers::Parser", %"class.flatbuffers::Parser"* %28, i64 0, i32 4, i32 1
  %31 = getelementptr inbounds %"class.flatbuffers::Parser", %"class.flatbuffers::Parser"* %28, i64 0, i32 4, i32 1, i32 0, i32 1
  %32 = bitcast %"struct.flatbuffers::ServiceDef"*** %31 to i64*
  %33 = load i64, i64* %32, align 8
  %34 = bitcast %"class.std::__1::vector.101"* %30 to i64*
  %35 = load i64, i64* %34, align 8
  %36 = sub i64 %33, %35
  %37 = lshr exact i64 %36, 3
  %38 = trunc i64 %37 to i32
  %39 = icmp sgt i32 %38, 0
  br i1 %39, label %40, label %190

40:                                               ; preds = %1
  %41 = bitcast %"class.std::__1::basic_string"* %4 to i8*
  %42 = getelementptr inbounds %"struct.grpc_go_generator::Parameters", %"struct.grpc_go_generator::Parameters"* %3, i64 0, i32 1
  %43 = bitcast %"class.std::__1::basic_string"* %42 to %"struct.std::__1::basic_string<char, std::__1::char_traits<char>, std::__1::allocator<char> >::__short"*
  %44 = getelementptr inbounds %"struct.std::__1::basic_string<char, std::__1::char_traits<char>, std::__1::allocator<char> >::__short", %"struct.std::__1::basic_string<char, std::__1::char_traits<char>, std::__1::allocator<char> >::__short"* %43, i64 0, i32 1, i32 0
  %45 = getelementptr inbounds %"class.std::__1::basic_string", %"class.std::__1::basic_string"* %42, i64 0, i32 0, i32 0, i32 0, i32 0, i32 0, i32 0
  %46 = bitcast %"class.std::__1::basic_string"* %42 to i8*
  %47 = bitcast %"class.std::__1::basic_string"* %5 to i8*
  %48 = bitcast %"class.std::__1::basic_string"* %6 to i8*
  %49 = bitcast %"class.std::__1::basic_string"* %6 to %"struct.std::__1::basic_string<char, std::__1::char_traits<char>, std::__1::allocator<char> >::__short"*
  %50 = getelementptr inbounds %"struct.std::__1::basic_string<char, std::__1::char_traits<char>, std::__1::allocator<char> >::__short", %"struct.std::__1::basic_string<char, std::__1::char_traits<char>, std::__1::allocator<char> >::__short"* %49, i64 0, i32 1, i32 0
  %51 = getelementptr inbounds %"struct.grpc_go_generator::Parameters", %"struct.grpc_go_generator::Parameters"* %3, i64 0, i32 2
  %52 = bitcast %"class.std::__1::basic_string"* %51 to %"struct.std::__1::basic_string<char, std::__1::char_traits<char>, std::__1::allocator<char> >::__short"*
  %53 = getelementptr inbounds %"struct.std::__1::basic_string<char, std::__1::char_traits<char>, std::__1::allocator<char> >::__short", %"struct.std::__1::basic_string<char, std::__1::char_traits<char>, std::__1::allocator<char> >::__short"* %52, i64 0, i32 1, i32 0
  %54 = getelementptr inbounds %"class.std::__1::basic_string", %"class.std::__1::basic_string"* %51, i64 0, i32 0, i32 0, i32 0, i32 0, i32 0, i32 0
  %55 = bitcast %"class.std::__1::basic_string"* %51 to i8*
  %56 = bitcast %"class.std::__1::basic_string"* %5 to %"struct.std::__1::basic_string<char, std::__1::char_traits<char>, std::__1::allocator<char> >::__short"*
  %57 = getelementptr inbounds %"struct.std::__1::basic_string<char, std::__1::char_traits<char>, std::__1::allocator<char> >::__short", %"struct.std::__1::basic_string<char, std::__1::char_traits<char>, std::__1::allocator<char> >::__short"* %56, i64 0, i32 1, i32 0
  %58 = getelementptr inbounds %"class.std::__1::basic_string", %"class.std::__1::basic_string"* %6, i64 0, i32 0, i32 0, i32 0, i32 0, i32 0, i32 0
  %59 = bitcast %"class.std::__1::basic_string"* %7 to i8*
  %60 = getelementptr inbounds %"class.std::__1::basic_string", %"class.std::__1::basic_string"* %7, i64 0, i32 0, i32 0, i32 0, i32 0, i32 0, i32 0
  %61 = getelementptr inbounds %"class.std::__1::basic_string", %"class.std::__1::basic_string"* %7, i64 0, i32 0, i32 0, i32 0, i32 0, i32 0, i32 1
  %62 = getelementptr inbounds %"class.flatbuffers::FlatBufFile", %"class.flatbuffers::FlatBufFile"* %2, i64 0, i32 0
  %63 = bitcast %"class.std::__1::basic_string"* %8 to i8*
  %64 = getelementptr inbounds %"class.std::__1::basic_string", %"class.std::__1::basic_string"* %8, i64 0, i32 0, i32 0, i32 0, i32 0, i32 0, i32 0
  %65 = bitcast %"class.std::__1::basic_string"* %9 to i8*
  %66 = bitcast %"class.std::__1::basic_string"* %10 to i8*
  %67 = getelementptr inbounds %"class.flatbuffers::GoGRPCGenerator", %"class.flatbuffers::GoGRPCGenerator"* %0, i64 0, i32 0
  %68 = bitcast %"class.std::__1::basic_string"* %9 to %"struct.std::__1::basic_string<char, std::__1::char_traits<char>, std::__1::allocator<char> >::__short"*
  %69 = getelementptr inbounds %"struct.std::__1::basic_string<char, std::__1::char_traits<char>, std::__1::allocator<char> >::__short", %"struct.std::__1::basic_string<char, std::__1::char_traits<char>, std::__1::allocator<char> >::__short"* %68, i64 0, i32 1, i32 0
  %70 = getelementptr inbounds %"class.std::__1::basic_string", %"class.std::__1::basic_string"* %9, i64 0, i32 0, i32 0, i32 0, i32 0, i32 0, i32 0
  %71 = bitcast %"class.std::__1::basic_string"* %10 to %"struct.std::__1::basic_string<char, std::__1::char_traits<char>, std::__1::allocator<char> >::__short"*
  %72 = getelementptr inbounds %"struct.std::__1::basic_string<char, std::__1::char_traits<char>, std::__1::allocator<char> >::__short", %"struct.std::__1::basic_string<char, std::__1::char_traits<char>, std::__1::allocator<char> >::__short"* %71, i64 0, i32 1, i32 0
  %73 = getelementptr inbounds %"class.std::__1::basic_string", %"class.std::__1::basic_string"* %10, i64 0, i32 0, i32 0, i32 0, i32 0, i32 0, i32 0
  %74 = bitcast %"class.std::__1::basic_string"* %8 to %"struct.std::__1::basic_string<char, std::__1::char_traits<char>, std::__1::allocator<char> >::__short"*
  %75 = getelementptr inbounds %"struct.std::__1::basic_string<char, std::__1::char_traits<char>, std::__1::allocator<char> >::__short", %"struct.std::__1::basic_string<char, std::__1::char_traits<char>, std::__1::allocator<char> >::__short"* %74, i64 0, i32 1, i32 0
  %76 = bitcast %"class.std::__1::basic_string"* %7 to %"struct.std::__1::basic_string<char, std::__1::char_traits<char>, std::__1::allocator<char> >::__short"*
  %77 = getelementptr inbounds %"struct.std::__1::basic_string<char, std::__1::char_traits<char>, std::__1::allocator<char> >::__short", %"struct.std::__1::basic_string<char, std::__1::char_traits<char>, std::__1::allocator<char> >::__short"* %76, i64 0, i32 1, i32 0
  %78 = bitcast %"class.std::__1::basic_string"* %7 to i8*
  %79 = bitcast %"class.std::__1::basic_string"* %8 to i8*
  br label %92

80:                                               ; preds = %177
  %81 = load %"class.flatbuffers::Parser"*, %"class.flatbuffers::Parser"** %13, align 8
  %82 = getelementptr inbounds %"class.flatbuffers::Parser", %"class.flatbuffers::Parser"* %81, i64 0, i32 4, i32 1
  %83 = getelementptr inbounds %"class.flatbuffers::Parser", %"class.flatbuffers::Parser"* %81, i64 0, i32 4, i32 1, i32 0, i32 1
  %84 = bitcast %"struct.flatbuffers::ServiceDef"*** %83 to i64*
  %85 = load i64, i64* %84, align 8
  %86 = bitcast %"class.std::__1::vector.101"* %82 to i64*
  %87 = load i64, i64* %86, align 8
  %88 = sub i64 %85, %87
  %89 = shl i64 %88, 29
  %90 = ashr i64 %89, 32
  %91 = icmp slt i64 %182, %90
  br i1 %91, label %92, label %183

92:                                               ; preds = %40, %80
  %93 = phi i64 [ 0, %40 ], [ %182, %80 ]
  %94 = phi %"class.flatbuffers::Parser"* [ %28, %40 ], [ %81, %80 ]
  %95 = call i8* @_Znwm(i64 16) #12
  %96 = getelementptr inbounds %"class.flatbuffers::Parser", %"class.flatbuffers::Parser"* %94, i64 0, i32 4, i32 1, i32 0, i32 0
  %97 = load %"struct.flatbuffers::ServiceDef"**, %"struct.flatbuffers::ServiceDef"*** %96, align 8
  %98 = getelementptr inbounds %"struct.flatbuffers::ServiceDef"*, %"struct.flatbuffers::ServiceDef"** %97, i64 %93
  %99 = bitcast %"struct.flatbuffers::ServiceDef"** %98 to i64*
  %100 = load i64, i64* %99, align 8
  %101 = bitcast i8* %95 to i32 (...)***
  store i32 (...)** bitcast (i8** getelementptr inbounds ({ [10 x i8*] }, { [10 x i8*] }* @_ZTVN11flatbuffers14FlatBufServiceE, i64 0, inrange i32 0, i64 2) to i32 (...)**), i32 (...)*** %101, align 8
  %102 = getelementptr inbounds i8, i8* %95, i64 8
  %103 = bitcast i8* %102 to i64*
  store i64 %100, i64* %103, align 8
  %104 = bitcast i8* %95 to %"struct.grpc_generator::Service"*
  %105 = load %"class.flatbuffers::Parser"*, %"class.flatbuffers::Parser"** %16, align 8
  %106 = getelementptr inbounds %"class.flatbuffers::Parser", %"class.flatbuffers::Parser"* %105, i64 0, i32 4, i32 1, i32 0, i32 0
  %107 = load %"struct.flatbuffers::ServiceDef"**, %"struct.flatbuffers::ServiceDef"*** %106, align 8
  %108 = getelementptr inbounds %"struct.flatbuffers::ServiceDef"*, %"struct.flatbuffers::ServiceDef"** %107, i64 %93
  %109 = bitcast %"struct.flatbuffers::ServiceDef"** %108 to %"struct.flatbuffers::Definition"**
  %110 = load %"struct.flatbuffers::Definition"*, %"struct.flatbuffers::Definition"** %109, align 8
  call void @llvm.lifetime.start.p0i8(i64 24, i8* nonnull %41) #11
  %111 = getelementptr inbounds %"struct.flatbuffers::Definition", %"struct.flatbuffers::Definition"* %110, i64 0, i32 6
  %112 = load %"struct.flatbuffers::Namespace"*, %"struct.flatbuffers::Namespace"** %111, align 8
  call void @_ZN11flatbuffers13BaseGenerator17LastNamespacePartERKNS_9NamespaceE(%"class.std::__1::basic_string"* nonnull sret %4, %"struct.flatbuffers::Namespace"* dereferenceable(32) %112) #11
  %113 = load i8, i8* %44, align 1
  %114 = icmp slt i8 %113, 0
  br i1 %114, label %115, label %117

115:                                              ; preds = %92
  %116 = load i8*, i8** %45, align 8
  call void @_ZdlPv(i8* %116) #12
  br label %117

117:                                              ; preds = %115, %92
  call void @llvm.memcpy.p0i8.p0i8.i64(i8* align 8 %46, i8* nonnull align 8 %41, i64 24, i1 false) #11
  call void @llvm.lifetime.end.p0i8(i64 24, i8* nonnull %41) #11
  call void @llvm.lifetime.start.p0i8(i64 24, i8* nonnull %47) #11
  %118 = load %"struct.flatbuffers::Namespace"*, %"struct.flatbuffers::Namespace"** %111, align 8
  call void @llvm.lifetime.start.p0i8(i64 24, i8* nonnull %48) #11
  store i8 0, i8* %50, align 1
  store i8 0, i8* %48, align 8
  call void @_ZNK11flatbuffers9Namespace21GetFullyQualifiedNameERKNSt3__112basic_stringIcNS1_11char_traitsIcEENS1_9allocatorIcEEEEm(%"class.std::__1::basic_string"* nonnull sret %5, %"struct.flatbuffers::Namespace"* %118, %"class.std::__1::basic_string"* nonnull dereferenceable(24) %6, i64 1000) #11
  %119 = load i8, i8* %53, align 1
  %120 = icmp slt i8 %119, 0
  br i1 %120, label %121, label %123

121:                                              ; preds = %117
  %122 = load i8*, i8** %54, align 8
  call void @_ZdlPv(i8* %122) #12
  br label %123

123:                                              ; preds = %121, %117
  call void @llvm.memcpy.p0i8.p0i8.i64(i8* align 8 %55, i8* nonnull align 8 %47, i64 24, i1 false) #11
  store i8 0, i8* %57, align 1
  store i8 0, i8* %47, align 8
  %124 = load i8, i8* %50, align 1
  %125 = icmp slt i8 %124, 0
  br i1 %125, label %126, label %128

126:                                              ; preds = %123
  %127 = load i8*, i8** %58, align 8
  call void @_ZdlPv(i8* %127) #12
  br label %128

128:                                              ; preds = %123, %126
  call void @llvm.lifetime.end.p0i8(i64 24, i8* nonnull %48) #11
  call void @llvm.lifetime.end.p0i8(i64 24, i8* nonnull %47) #11
  call void @llvm.lifetime.start.p0i8(i64 24, i8* nonnull %59) #11
  call void @llvm.memset.p0i8.i64(i8* nonnull align 8 %78, i8 -86, i64 24, i1 false)
  call void @_ZN17grpc_go_generator21GenerateServiceSourceEPN14grpc_generator4FileEPKNS0_7ServiceEPNS_10ParametersE(%"class.std::__1::basic_string"* nonnull sret %7, %"struct.grpc_generator::File"* nonnull %62, %"struct.grpc_generator::Service"* nonnull %104, %"struct.grpc_go_generator::Parameters"* nonnull %3) #11
  call void @llvm.lifetime.start.p0i8(i64 24, i8* nonnull %63) #11
  call void @llvm.memset.p0i8.i64(i8* nonnull align 8 %79, i8 -86, i64 24, i1 false)
  call void @llvm.lifetime.start.p0i8(i64 24, i8* nonnull %65) #11
  call void @llvm.lifetime.start.p0i8(i64 24, i8* nonnull %66) #11
  %129 = load %"struct.flatbuffers::Namespace"*, %"struct.flatbuffers::Namespace"** %111, align 8
  call void @_ZNK11flatbuffers13BaseGenerator12NamespaceDirERKNS_9NamespaceE(%"class.std::__1::basic_string"* nonnull sret %10, %"class.flatbuffers::BaseGenerator"* %67, %"struct.flatbuffers::Namespace"* dereferenceable(32) %129) #11
  %130 = bitcast %"struct.flatbuffers::Definition"* %110 to %"struct.std::__1::basic_string<char, std::__1::char_traits<char>, std::__1::allocator<char> >::__short"*
  %131 = getelementptr inbounds %"struct.std::__1::basic_string<char, std::__1::char_traits<char>, std::__1::allocator<char> >::__short", %"struct.std::__1::basic_string<char, std::__1::char_traits<char>, std::__1::allocator<char> >::__short"* %130, i64 0, i32 1, i32 0
  %132 = load i8, i8* %131, align 1, !noalias !5
  %133 = icmp slt i8 %132, 0
  %134 = getelementptr inbounds %"struct.flatbuffers::Definition", %"struct.flatbuffers::Definition"* %110, i64 0, i32 0, i32 0, i32 0, i32 0, i32 0, i32 0, i32 0
  %135 = load i8*, i8** %134, align 8, !noalias !5
  %136 = getelementptr inbounds %"struct.flatbuffers::Definition", %"struct.flatbuffers::Definition"* %110, i64 0, i32 0, i32 0, i32 0, i32 0, i32 0, i32 0, i32 1
  %137 = load i64, i64* %136, align 8, !noalias !5
  %138 = bitcast %"struct.flatbuffers::Definition"* %110 to i8*
  %139 = zext i8 %132 to i64
  %140 = select i1 %133, i8* %135, i8* %138
  %141 = select i1 %133, i64 %137, i64 %139
  %142 = call dereferenceable(24) %"class.std::__1::basic_string"* @_ZNSt3__112basic_stringIcNS_11char_traitsIcEENS_9allocatorIcEEE6appendEPKcm(%"class.std::__1::basic_string"* nonnull %10, i8* %140, i64 %141) #11, !noalias !5
  %143 = bitcast %"class.std::__1::basic_string"* %142 to i8*
  call void @llvm.memcpy.p0i8.p0i8.i64(i8* nonnull align 8 %65, i8* align 8 %143, i64 24, i1 false) #11
  call void @llvm.memset.p0i8.i64(i8* align 8 %143, i8 0, i64 24, i1 false) #11, !noalias !5
  %144 = call dereferenceable(24) %"class.std::__1::basic_string"* @_ZNSt3__112basic_stringIcNS_11char_traitsIcEENS_9allocatorIcEEE6appendEPKc(%"class.std::__1::basic_string"* nonnull %9, i8* getelementptr inbounds ([9 x i8], [9 x i8]* @.str.10, i64 0, i64 0)) #11, !noalias !8
  %145 = bitcast %"class.std::__1::basic_string"* %144 to i8*
  call void @llvm.memcpy.p0i8.p0i8.i64(i8* nonnull align 8 %63, i8* align 8 %145, i64 24, i1 false) #11
  call void @llvm.memset.p0i8.i64(i8* align 8 %145, i8 0, i64 24, i1 false) #11, !noalias !8
  %146 = load i8, i8* %69, align 1
  %147 = icmp slt i8 %146, 0
  br i1 %147, label %148, label %150

148:                                              ; preds = %128
  %149 = load i8*, i8** %70, align 8
  call void @_ZdlPv(i8* %149) #12
  br label %150

150:                                              ; preds = %128, %148
  %151 = load i8, i8* %72, align 1
  %152 = icmp slt i8 %151, 0
  br i1 %152, label %153, label %155

153:                                              ; preds = %150
  %154 = load i8*, i8** %73, align 8
  call void @_ZdlPv(i8* %154) #12
  br label %155

155:                                              ; preds = %150, %153
  call void @llvm.lifetime.end.p0i8(i64 24, i8* nonnull %66) #11
  call void @llvm.lifetime.end.p0i8(i64 24, i8* nonnull %65) #11
  %156 = load i8, i8* %75, align 1
  %157 = icmp slt i8 %156, 0
  %158 = load i8*, i8** %64, align 8
  %159 = select i1 %157, i8* %158, i8* %63
  %160 = load i8, i8* %77, align 1
  %161 = icmp slt i8 %160, 0
  %162 = load i8*, i8** %60, align 8
  %163 = load i64, i64* %61, align 8
  %164 = zext i8 %160 to i64
  %165 = select i1 %161, i8* %162, i8* %59
  %166 = select i1 %161, i64 %163, i64 %164
  %167 = call zeroext i1 @_ZN11flatbuffers8SaveFileEPKcS1_mb(i8* %159, i8* %165, i64 %166, i1 zeroext false) #11
  %168 = load i8, i8* %75, align 1
  %169 = icmp slt i8 %168, 0
  br i1 %169, label %170, label %172

170:                                              ; preds = %155
  %171 = load i8*, i8** %64, align 8
  call void @_ZdlPv(i8* %171) #12
  br label %172

172:                                              ; preds = %155, %170
  call void @llvm.lifetime.end.p0i8(i64 24, i8* nonnull %63) #11
  %173 = load i8, i8* %77, align 1
  %174 = icmp slt i8 %173, 0
  br i1 %174, label %175, label %177

175:                                              ; preds = %172
  %176 = load i8*, i8** %60, align 8
  call void @_ZdlPv(i8* %176) #12
  br label %177

177:                                              ; preds = %172, %175
  call void @llvm.lifetime.end.p0i8(i64 24, i8* nonnull %59) #11
  %178 = bitcast i8* %95 to void (%"struct.grpc_generator::Service"*)***
  %179 = load void (%"struct.grpc_generator::Service"*)**, void (%"struct.grpc_generator::Service"*)*** %178, align 8
  %180 = getelementptr inbounds void (%"struct.grpc_generator::Service"*)*, void (%"struct.grpc_generator::Service"*)** %179, i64 1
  %181 = load void (%"struct.grpc_generator::Service"*)*, void (%"struct.grpc_generator::Service"*)** %180, align 8
  call void %181(%"struct.grpc_generator::Service"* nonnull %104) #11
  %182 = add nuw nsw i64 %93, 1
  br i1 %167, label %80, label %183

183:                                              ; preds = %177, %80
  %184 = phi i1 [ false, %177 ], [ true, %80 ]
  %185 = load i8, i8* %53, align 1
  %186 = icmp slt i8 %185, 0
  br i1 %186, label %187, label %190

187:                                              ; preds = %183
  %188 = getelementptr inbounds %"struct.grpc_go_generator::Parameters", %"struct.grpc_go_generator::Parameters"* %3, i64 0, i32 2, i32 0, i32 0, i32 0, i32 0, i32 0, i32 0
  %189 = load i8*, i8** %188, align 8
  call void @_ZdlPv(i8* %189) #12
  br label %190

190:                                              ; preds = %1, %187, %183
  %191 = phi i1 [ %184, %187 ], [ %184, %183 ], [ true, %1 ]
  %192 = getelementptr inbounds %"struct.grpc_go_generator::Parameters", %"struct.grpc_go_generator::Parameters"* %3, i64 0, i32 1
  %193 = bitcast %"class.std::__1::basic_string"* %192 to %"struct.std::__1::basic_string<char, std::__1::char_traits<char>, std::__1::allocator<char> >::__short"*
  %194 = getelementptr inbounds %"struct.std::__1::basic_string<char, std::__1::char_traits<char>, std::__1::allocator<char> >::__short", %"struct.std::__1::basic_string<char, std::__1::char_traits<char>, std::__1::allocator<char> >::__short"* %193, i64 0, i32 1, i32 0
  %195 = load i8, i8* %194, align 1
  %196 = icmp slt i8 %195, 0
  br i1 %196, label %197, label %200

197:                                              ; preds = %190
  %198 = getelementptr inbounds %"class.std::__1::basic_string", %"class.std::__1::basic_string"* %192, i64 0, i32 0, i32 0, i32 0, i32 0, i32 0, i32 0
  %199 = load i8*, i8** %198, align 8
  call void @_ZdlPv(i8* %199) #12
  br label %200

200:                                              ; preds = %197, %190
  %201 = load i8, i8* %27, align 1
  %202 = icmp slt i8 %201, 0
  br i1 %202, label %203, label %206

203:                                              ; preds = %200
  %204 = getelementptr inbounds %"struct.grpc_go_generator::Parameters", %"struct.grpc_go_generator::Parameters"* %3, i64 0, i32 0, i32 0, i32 0, i32 0, i32 0, i32 0, i32 0
  %205 = load i8*, i8** %204, align 8
  call void @_ZdlPv(i8* %205) #12
  br label %206

206:                                              ; preds = %200, %203
  call void @llvm.lifetime.end.p0i8(i64 72, i8* nonnull %25) #11
  call void @llvm.lifetime.end.p0i8(i64 32, i8* nonnull %11) #11
  ret i1 %191
}

; Function Attrs: nounwind ssp uwtable
define linkonce_odr hidden void @_ZN11flatbuffers13BaseGeneratorD2Ev(%"class.flatbuffers::BaseGenerator"*) unnamed_addr #0 comdat align 2 {
  %2 = getelementptr inbounds %"class.flatbuffers::BaseGenerator", %"class.flatbuffers::BaseGenerator"* %0, i64 0, i32 0
  store i32 (...)** bitcast (i8** getelementptr inbounds ({ [6 x i8*] }, { [6 x i8*] }* @_ZTVN11flatbuffers13BaseGeneratorE, i64 0, inrange i32 0, i64 2) to i32 (...)**), i32 (...)*** %2, align 8
  %3 = getelementptr inbounds %"class.flatbuffers::BaseGenerator", %"class.flatbuffers::BaseGenerator"* %0, i64 0, i32 6
  %4 = bitcast %"class.std::__1::basic_string"* %3 to %"struct.std::__1::basic_string<char, std::__1::char_traits<char>, std::__1::allocator<char> >::__short"*
  %5 = getelementptr inbounds %"struct.std::__1::basic_string<char, std::__1::char_traits<char>, std::__1::allocator<char> >::__short", %"struct.std::__1::basic_string<char, std::__1::char_traits<char>, std::__1::allocator<char> >::__short"* %4, i64 0, i32 1, i32 0
  %6 = load i8, i8* %5, align 1
  %7 = icmp slt i8 %6, 0
  br i1 %7, label %8, label %11

8:                                                ; preds = %1
  %9 = getelementptr inbounds %"class.std::__1::basic_string", %"class.std::__1::basic_string"* %3, i64 0, i32 0, i32 0, i32 0, i32 0, i32 0, i32 0
  %10 = load i8*, i8** %9, align 8
  tail call void @_ZdlPv(i8* %10) #12
  br label %11

11:                                               ; preds = %1, %8
  %12 = getelementptr inbounds %"class.flatbuffers::BaseGenerator", %"class.flatbuffers::BaseGenerator"* %0, i64 0, i32 5
  %13 = bitcast %"class.std::__1::basic_string"* %12 to %"struct.std::__1::basic_string<char, std::__1::char_traits<char>, std::__1::allocator<char> >::__short"*
  %14 = getelementptr inbounds %"struct.std::__1::basic_string<char, std::__1::char_traits<char>, std::__1::allocator<char> >::__short", %"struct.std::__1::basic_string<char, std::__1::char_traits<char>, std::__1::allocator<char> >::__short"* %13, i64 0, i32 1, i32 0
  %15 = load i8, i8* %14, align 1
  %16 = icmp slt i8 %15, 0
  br i1 %16, label %17, label %20

17:                                               ; preds = %11
  %18 = getelementptr inbounds %"class.std::__1::basic_string", %"class.std::__1::basic_string"* %12, i64 0, i32 0, i32 0, i32 0, i32 0, i32 0, i32 0
  %19 = load i8*, i8** %18, align 8
  tail call void @_ZdlPv(i8* %19) #12
  br label %20

20:                                               ; preds = %11, %17
  %21 = getelementptr inbounds %"class.flatbuffers::BaseGenerator", %"class.flatbuffers::BaseGenerator"* %0, i64 0, i32 4
  %22 = bitcast %"class.std::__1::basic_string"* %21 to %"struct.std::__1::basic_string<char, std::__1::char_traits<char>, std::__1::allocator<char> >::__short"*
  %23 = getelementptr inbounds %"struct.std::__1::basic_string<char, std::__1::char_traits<char>, std::__1::allocator<char> >::__short", %"struct.std::__1::basic_string<char, std::__1::char_traits<char>, std::__1::allocator<char> >::__short"* %22, i64 0, i32 1, i32 0
  %24 = load i8, i8* %23, align 1
  %25 = icmp slt i8 %24, 0
  br i1 %25, label %26, label %29

26:                                               ; preds = %20
  %27 = getelementptr inbounds %"class.std::__1::basic_string", %"class.std::__1::basic_string"* %21, i64 0, i32 0, i32 0, i32 0, i32 0, i32 0, i32 0
  %28 = load i8*, i8** %27, align 8
  tail call void @_ZdlPv(i8* %28) #12
  br label %29

29:                                               ; preds = %20, %26
  ret void
}

; Function Attrs: nounwind ssp uwtable
define hidden zeroext i1 @_ZN11flatbuffers15GenerateCppGRPCERKNS_6ParserERKNSt3__112basic_stringIcNS3_11char_traitsIcEENS3_9allocatorIcEEEESB_(%"class.flatbuffers::Parser"* dereferenceable(1208), %"class.std::__1::basic_string"* nocapture readonly dereferenceable(24), %"class.std::__1::basic_string"* dereferenceable(24)) local_unnamed_addr #0 {
  %4 = alloca %"struct.grpc_cpp_generator::Parameters", align 8
  %5 = alloca %"class.flatbuffers::FlatBufFile", align 8
  %6 = alloca %"class.std::__1::basic_string", align 8
  %7 = alloca %"class.std::__1::basic_string", align 8
  %8 = alloca %"class.std::__1::basic_string", align 8
  %9 = alloca %"class.std::__1::basic_string", align 8
  %10 = alloca %"class.std::__1::basic_string", align 8
  %11 = alloca %"class.std::__1::basic_string", align 8
  %12 = alloca %"class.std::__1::basic_string", align 8
  %13 = alloca %"class.std::__1::basic_string", align 8
  %14 = alloca %"class.std::__1::basic_string", align 8
  %15 = alloca %"class.std::__1::basic_string", align 8
  %16 = alloca %"class.std::__1::basic_string", align 8
  %17 = alloca %"class.std::__1::basic_string", align 8
  %18 = alloca %"class.std::__1::basic_string", align 8
  %19 = alloca %"class.std::__1::basic_string", align 8
  %20 = alloca %"class.std::__1::basic_string", align 8
  %21 = alloca %"class.std::__1::basic_string", align 8
  %22 = alloca %"class.std::__1::basic_string", align 8
  %23 = alloca %"class.std::__1::basic_string", align 8
  %24 = getelementptr inbounds %"class.flatbuffers::Parser", %"class.flatbuffers::Parser"* %0, i64 0, i32 4, i32 1, i32 0, i32 0
  %25 = load %"struct.flatbuffers::ServiceDef"**, %"struct.flatbuffers::ServiceDef"*** %24, align 8
  %26 = getelementptr inbounds %"class.flatbuffers::Parser", %"class.flatbuffers::Parser"* %0, i64 0, i32 4, i32 1, i32 0, i32 1
  %27 = load %"struct.flatbuffers::ServiceDef"**, %"struct.flatbuffers::ServiceDef"*** %26, align 8
  %28 = icmp eq %"struct.flatbuffers::ServiceDef"** %25, %27
  br i1 %28, label %473, label %29

29:                                               ; preds = %3
  %30 = ptrtoint %"struct.flatbuffers::ServiceDef"** %25 to i64
  %31 = getelementptr %"struct.flatbuffers::ServiceDef"*, %"struct.flatbuffers::ServiceDef"** %27, i64 -1
  %32 = ptrtoint %"struct.flatbuffers::ServiceDef"** %31 to i64
  %33 = sub i64 %32, %30
  %34 = lshr i64 %33, 3
  %35 = add nuw nsw i64 %34, 1
  %36 = and i64 %35, 3
  %37 = icmp ult i64 %33, 24
  br i1 %37, label %40, label %38

38:                                               ; preds = %29
  %39 = sub nsw i64 %35, %36
  br label %62

40:                                               ; preds = %62, %29
  %41 = phi i32 [ undef, %29 ], [ %96, %62 ]
  %42 = phi i32 [ 0, %29 ], [ %96, %62 ]
  %43 = phi %"struct.flatbuffers::ServiceDef"** [ %25, %29 ], [ %97, %62 ]
  %44 = icmp eq i64 %36, 0
  br i1 %44, label %59, label %45

45:                                               ; preds = %40, %45
  %46 = phi i32 [ %55, %45 ], [ %42, %40 ]
  %47 = phi %"struct.flatbuffers::ServiceDef"** [ %56, %45 ], [ %43, %40 ]
  %48 = phi i64 [ %57, %45 ], [ %36, %40 ]
  %49 = bitcast %"struct.flatbuffers::ServiceDef"** %47 to %"struct.flatbuffers::Definition"**
  %50 = load %"struct.flatbuffers::Definition"*, %"struct.flatbuffers::Definition"** %49, align 8
  %51 = getelementptr inbounds %"struct.flatbuffers::Definition", %"struct.flatbuffers::Definition"* %50, i64 0, i32 4
  %52 = load i8, i8* %51, align 8, !range !2
  %53 = xor i8 %52, 1
  %54 = zext i8 %53 to i32
  %55 = add nuw nsw i32 %46, %54
  %56 = getelementptr inbounds %"struct.flatbuffers::ServiceDef"*, %"struct.flatbuffers::ServiceDef"** %47, i64 1
  %57 = add i64 %48, -1
  %58 = icmp eq i64 %57, 0
  br i1 %58, label %59, label %45, !llvm.loop !11

59:                                               ; preds = %45, %40
  %60 = phi i32 [ %41, %40 ], [ %55, %45 ]
  %61 = icmp eq i32 %60, 0
  br i1 %61, label %473, label %100

62:                                               ; preds = %62, %38
  %63 = phi i32 [ 0, %38 ], [ %96, %62 ]
  %64 = phi %"struct.flatbuffers::ServiceDef"** [ %25, %38 ], [ %97, %62 ]
  %65 = phi i64 [ %39, %38 ], [ %98, %62 ]
  %66 = bitcast %"struct.flatbuffers::ServiceDef"** %64 to %"struct.flatbuffers::Definition"**
  %67 = load %"struct.flatbuffers::Definition"*, %"struct.flatbuffers::Definition"** %66, align 8
  %68 = getelementptr inbounds %"struct.flatbuffers::Definition", %"struct.flatbuffers::Definition"* %67, i64 0, i32 4
  %69 = load i8, i8* %68, align 8, !range !2
  %70 = xor i8 %69, 1
  %71 = zext i8 %70 to i32
  %72 = add nuw nsw i32 %63, %71
  %73 = getelementptr inbounds %"struct.flatbuffers::ServiceDef"*, %"struct.flatbuffers::ServiceDef"** %64, i64 1
  %74 = bitcast %"struct.flatbuffers::ServiceDef"** %73 to %"struct.flatbuffers::Definition"**
  %75 = load %"struct.flatbuffers::Definition"*, %"struct.flatbuffers::Definition"** %74, align 8
  %76 = getelementptr inbounds %"struct.flatbuffers::Definition", %"struct.flatbuffers::Definition"* %75, i64 0, i32 4
  %77 = load i8, i8* %76, align 8, !range !2
  %78 = xor i8 %77, 1
  %79 = zext i8 %78 to i32
  %80 = add nuw nsw i32 %72, %79
  %81 = getelementptr inbounds %"struct.flatbuffers::ServiceDef"*, %"struct.flatbuffers::ServiceDef"** %64, i64 2
  %82 = bitcast %"struct.flatbuffers::ServiceDef"** %81 to %"struct.flatbuffers::Definition"**
  %83 = load %"struct.flatbuffers::Definition"*, %"struct.flatbuffers::Definition"** %82, align 8
  %84 = getelementptr inbounds %"struct.flatbuffers::Definition", %"struct.flatbuffers::Definition"* %83, i64 0, i32 4
  %85 = load i8, i8* %84, align 8, !range !2
  %86 = xor i8 %85, 1
  %87 = zext i8 %86 to i32
  %88 = add nuw nsw i32 %80, %87
  %89 = getelementptr inbounds %"struct.flatbuffers::ServiceDef"*, %"struct.flatbuffers::ServiceDef"** %64, i64 3
  %90 = bitcast %"struct.flatbuffers::ServiceDef"** %89 to %"struct.flatbuffers::Definition"**
  %91 = load %"struct.flatbuffers::Definition"*, %"struct.flatbuffers::Definition"** %90, align 8
  %92 = getelementptr inbounds %"struct.flatbuffers::Definition", %"struct.flatbuffers::Definition"* %91, i64 0, i32 4
  %93 = load i8, i8* %92, align 8, !range !2
  %94 = xor i8 %93, 1
  %95 = zext i8 %94 to i32
  %96 = add nuw nsw i32 %88, %95
  %97 = getelementptr inbounds %"struct.flatbuffers::ServiceDef"*, %"struct.flatbuffers::ServiceDef"** %64, i64 4
  %98 = add i64 %65, -4
  %99 = icmp eq i64 %98, 0
  br i1 %99, label %40, label %62

100:                                              ; preds = %59
  %101 = bitcast %"struct.grpc_cpp_generator::Parameters"* %4 to i8*
  call void @llvm.lifetime.start.p0i8(i64 64, i8* nonnull %101) #11
  call void @llvm.memset.p0i8.i64(i8* nonnull align 8 %101, i8 -86, i64 64, i1 false)
  call void @llvm.memset.p0i8.i64(i8* nonnull align 8 %101, i8 0, i64 24, i1 false) #11
  %102 = getelementptr inbounds %"struct.grpc_cpp_generator::Parameters", %"struct.grpc_cpp_generator::Parameters"* %4, i64 0, i32 3
  %103 = bitcast %"class.std::__1::basic_string"* %102 to i8*
  call void @llvm.memset.p0i8.i64(i8* align 8 %103, i8 0, i64 24, i1 false) #11
  %104 = getelementptr inbounds %"struct.grpc_cpp_generator::Parameters", %"struct.grpc_cpp_generator::Parameters"* %4, i64 0, i32 1
  store i8 1, i8* %104, align 8
  %105 = bitcast %"class.flatbuffers::FlatBufFile"* %5 to i8*
  call void @llvm.lifetime.start.p0i8(i64 32, i8* nonnull %105) #11
  %106 = getelementptr inbounds %"class.flatbuffers::FlatBufFile", %"class.flatbuffers::FlatBufFile"* %5, i64 0, i32 0, i32 0, i32 0
  %107 = getelementptr inbounds %"class.flatbuffers::FlatBufFile", %"class.flatbuffers::FlatBufFile"* %5, i64 0, i32 1
  %108 = getelementptr inbounds %"class.flatbuffers::FlatBufFile", %"class.flatbuffers::FlatBufFile"* %5, i64 0, i32 2
  %109 = getelementptr inbounds %"class.flatbuffers::FlatBufFile", %"class.flatbuffers::FlatBufFile"* %5, i64 0, i32 3
  %110 = bitcast %"class.flatbuffers::FlatBufFile"* %5 to i8*
  call void @llvm.memset.p0i8.i64(i8* nonnull align 8 %110, i8 -86, i64 32, i1 false)
  store i32 (...)** bitcast (i8** getelementptr inbounds ({ [15 x i8*] }, { [15 x i8*] }* @_ZTVN11flatbuffers11FlatBufFileE, i64 0, inrange i32 0, i64 2) to i32 (...)**), i32 (...)*** %106, align 8
  store %"class.flatbuffers::Parser"* %0, %"class.flatbuffers::Parser"** %107, align 8
  store %"class.std::__1::basic_string"* %2, %"class.std::__1::basic_string"** %108, align 8
  store i32 1, i32* %109, align 8
  %111 = bitcast %"class.std::__1::basic_string"* %6 to i8*
  call void @llvm.lifetime.start.p0i8(i64 24, i8* nonnull %111) #11
  %112 = getelementptr inbounds %"class.std::__1::basic_string", %"class.std::__1::basic_string"* %6, i64 0, i32 0, i32 0, i32 0, i32 0, i32 0, i32 0
  %113 = getelementptr inbounds %"class.std::__1::basic_string", %"class.std::__1::basic_string"* %6, i64 0, i32 0, i32 0, i32 0, i32 0, i32 0, i32 1
  %114 = bitcast %"class.std::__1::basic_string"* %7 to i8*
  %115 = bitcast %"class.std::__1::basic_string"* %6 to i8*
  call void @llvm.memset.p0i8.i64(i8* nonnull align 8 %115, i8 -86, i64 24, i1 false)
  call void @llvm.lifetime.start.p0i8(i64 24, i8* nonnull %114) #11
  %116 = bitcast %"class.std::__1::basic_string"* %8 to i8*
  call void @llvm.lifetime.start.p0i8(i64 24, i8* nonnull %116) #11
  %117 = bitcast %"class.std::__1::basic_string"* %9 to i8*
  call void @llvm.lifetime.start.p0i8(i64 24, i8* nonnull %117) #11
  %118 = getelementptr inbounds %"class.flatbuffers::FlatBufFile", %"class.flatbuffers::FlatBufFile"* %5, i64 0, i32 0
  call void @_ZN18grpc_cpp_generator17GetHeaderPrologueEPN14grpc_generator4FileERKNS_10ParametersE(%"class.std::__1::basic_string"* nonnull sret %9, %"struct.grpc_generator::File"* nonnull %118, %"struct.grpc_cpp_generator::Parameters"* nonnull dereferenceable(64) %4) #11
  %119 = bitcast %"class.std::__1::basic_string"* %10 to i8*
  call void @llvm.lifetime.start.p0i8(i64 24, i8* nonnull %119) #11
  call void @_ZN18grpc_cpp_generator17GetHeaderIncludesEPN14grpc_generator4FileERKNS_10ParametersE(%"class.std::__1::basic_string"* nonnull sret %10, %"struct.grpc_generator::File"* nonnull %118, %"struct.grpc_cpp_generator::Parameters"* nonnull dereferenceable(64) %4) #11
  %120 = bitcast %"class.std::__1::basic_string"* %10 to %"struct.std::__1::basic_string<char, std::__1::char_traits<char>, std::__1::allocator<char> >::__short"*
  %121 = getelementptr inbounds %"struct.std::__1::basic_string<char, std::__1::char_traits<char>, std::__1::allocator<char> >::__short", %"struct.std::__1::basic_string<char, std::__1::char_traits<char>, std::__1::allocator<char> >::__short"* %120, i64 0, i32 1, i32 0
  %122 = load i8, i8* %121, align 1, !noalias !12
  %123 = icmp slt i8 %122, 0
  %124 = getelementptr inbounds %"class.std::__1::basic_string", %"class.std::__1::basic_string"* %10, i64 0, i32 0, i32 0, i32 0, i32 0, i32 0, i32 0
  %125 = load i8*, i8** %124, align 8, !noalias !12
  %126 = getelementptr inbounds %"class.std::__1::basic_string", %"class.std::__1::basic_string"* %10, i64 0, i32 0, i32 0, i32 0, i32 0, i32 0, i32 1
  %127 = load i64, i64* %126, align 8, !noalias !12
  %128 = zext i8 %122 to i64
  %129 = select i1 %123, i8* %125, i8* %119
  %130 = select i1 %123, i64 %127, i64 %128
  %131 = call dereferenceable(24) %"class.std::__1::basic_string"* @_ZNSt3__112basic_stringIcNS_11char_traitsIcEENS_9allocatorIcEEE6appendEPKcm(%"class.std::__1::basic_string"* nonnull %9, i8* %129, i64 %130) #11, !noalias !12
  %132 = bitcast %"class.std::__1::basic_string"* %131 to i8*
  call void @llvm.memcpy.p0i8.p0i8.i64(i8* nonnull align 8 %116, i8* align 8 %132, i64 24, i1 false) #11
  call void @llvm.memset.p0i8.i64(i8* align 8 %132, i8 0, i64 24, i1 false) #11, !noalias !12
  %133 = bitcast %"class.std::__1::basic_string"* %11 to i8*
  call void @llvm.lifetime.start.p0i8(i64 24, i8* nonnull %133) #11
  call void @_ZN18grpc_cpp_generator17GetHeaderServicesEPN14grpc_generator4FileERKNS_10ParametersE(%"class.std::__1::basic_string"* nonnull sret %11, %"struct.grpc_generator::File"* nonnull %118, %"struct.grpc_cpp_generator::Parameters"* nonnull dereferenceable(64) %4) #11
  %134 = bitcast %"class.std::__1::basic_string"* %11 to %"struct.std::__1::basic_string<char, std::__1::char_traits<char>, std::__1::allocator<char> >::__short"*
  %135 = getelementptr inbounds %"struct.std::__1::basic_string<char, std::__1::char_traits<char>, std::__1::allocator<char> >::__short", %"struct.std::__1::basic_string<char, std::__1::char_traits<char>, std::__1::allocator<char> >::__short"* %134, i64 0, i32 1, i32 0
  %136 = load i8, i8* %135, align 1, !noalias !15
  %137 = icmp slt i8 %136, 0
  %138 = getelementptr inbounds %"class.std::__1::basic_string", %"class.std::__1::basic_string"* %11, i64 0, i32 0, i32 0, i32 0, i32 0, i32 0, i32 0
  %139 = load i8*, i8** %138, align 8, !noalias !15
  %140 = getelementptr inbounds %"class.std::__1::basic_string", %"class.std::__1::basic_string"* %11, i64 0, i32 0, i32 0, i32 0, i32 0, i32 0, i32 1
  %141 = load i64, i64* %140, align 8, !noalias !15
  %142 = zext i8 %136 to i64
  %143 = select i1 %137, i8* %139, i8* %133
  %144 = select i1 %137, i64 %141, i64 %142
  %145 = call dereferenceable(24) %"class.std::__1::basic_string"* @_ZNSt3__112basic_stringIcNS_11char_traitsIcEENS_9allocatorIcEEE6appendEPKcm(%"class.std::__1::basic_string"* nonnull %8, i8* %143, i64 %144) #11, !noalias !15
  %146 = bitcast %"class.std::__1::basic_string"* %145 to i8*
  call void @llvm.memcpy.p0i8.p0i8.i64(i8* nonnull align 8 %114, i8* align 8 %146, i64 24, i1 false) #11
  call void @llvm.memset.p0i8.i64(i8* align 8 %146, i8 0, i64 24, i1 false) #11, !noalias !15
  %147 = bitcast %"class.std::__1::basic_string"* %12 to i8*
  call void @llvm.lifetime.start.p0i8(i64 24, i8* nonnull %147) #11
  call void @_ZN18grpc_cpp_generator17GetHeaderEpilogueEPN14grpc_generator4FileERKNS_10ParametersE(%"class.std::__1::basic_string"* nonnull sret %12, %"struct.grpc_generator::File"* nonnull %118, %"struct.grpc_cpp_generator::Parameters"* nonnull dereferenceable(64) %4) #11
  %148 = bitcast %"class.std::__1::basic_string"* %12 to %"struct.std::__1::basic_string<char, std::__1::char_traits<char>, std::__1::allocator<char> >::__short"*
  %149 = getelementptr inbounds %"struct.std::__1::basic_string<char, std::__1::char_traits<char>, std::__1::allocator<char> >::__short", %"struct.std::__1::basic_string<char, std::__1::char_traits<char>, std::__1::allocator<char> >::__short"* %148, i64 0, i32 1, i32 0
  %150 = load i8, i8* %149, align 1, !noalias !18
  %151 = icmp slt i8 %150, 0
  %152 = getelementptr inbounds %"class.std::__1::basic_string", %"class.std::__1::basic_string"* %12, i64 0, i32 0, i32 0, i32 0, i32 0, i32 0, i32 0
  %153 = load i8*, i8** %152, align 8, !noalias !18
  %154 = getelementptr inbounds %"class.std::__1::basic_string", %"class.std::__1::basic_string"* %12, i64 0, i32 0, i32 0, i32 0, i32 0, i32 0, i32 1
  %155 = load i64, i64* %154, align 8, !noalias !18
  %156 = zext i8 %150 to i64
  %157 = select i1 %151, i8* %153, i8* %147
  %158 = select i1 %151, i64 %155, i64 %156
  %159 = call dereferenceable(24) %"class.std::__1::basic_string"* @_ZNSt3__112basic_stringIcNS_11char_traitsIcEENS_9allocatorIcEEE6appendEPKcm(%"class.std::__1::basic_string"* nonnull %7, i8* %157, i64 %158) #11, !noalias !18
  %160 = bitcast %"class.std::__1::basic_string"* %159 to i8*
  call void @llvm.memcpy.p0i8.p0i8.i64(i8* nonnull align 8 %111, i8* align 8 %160, i64 24, i1 false) #11
  call void @llvm.memset.p0i8.i64(i8* align 8 %160, i8 0, i64 24, i1 false) #11, !noalias !18
  %161 = load i8, i8* %149, align 1
  %162 = icmp slt i8 %161, 0
  br i1 %162, label %163, label %165

163:                                              ; preds = %100
  %164 = load i8*, i8** %152, align 8
  call void @_ZdlPv(i8* %164) #12
  br label %165

165:                                              ; preds = %100, %163
  call void @llvm.lifetime.end.p0i8(i64 24, i8* nonnull %147) #11
  %166 = bitcast %"class.std::__1::basic_string"* %7 to %"struct.std::__1::basic_string<char, std::__1::char_traits<char>, std::__1::allocator<char> >::__short"*
  %167 = getelementptr inbounds %"struct.std::__1::basic_string<char, std::__1::char_traits<char>, std::__1::allocator<char> >::__short", %"struct.std::__1::basic_string<char, std::__1::char_traits<char>, std::__1::allocator<char> >::__short"* %166, i64 0, i32 1, i32 0
  %168 = load i8, i8* %167, align 1
  %169 = icmp slt i8 %168, 0
  br i1 %169, label %170, label %173

170:                                              ; preds = %165
  %171 = getelementptr inbounds %"class.std::__1::basic_string", %"class.std::__1::basic_string"* %7, i64 0, i32 0, i32 0, i32 0, i32 0, i32 0, i32 0
  %172 = load i8*, i8** %171, align 8
  call void @_ZdlPv(i8* %172) #12
  br label %173

173:                                              ; preds = %165, %170
  %174 = load i8, i8* %135, align 1
  %175 = icmp slt i8 %174, 0
  br i1 %175, label %176, label %178

176:                                              ; preds = %173
  %177 = load i8*, i8** %138, align 8
  call void @_ZdlPv(i8* %177) #12
  br label %178

178:                                              ; preds = %173, %176
  call void @llvm.lifetime.end.p0i8(i64 24, i8* nonnull %133) #11
  %179 = bitcast %"class.std::__1::basic_string"* %8 to %"struct.std::__1::basic_string<char, std::__1::char_traits<char>, std::__1::allocator<char> >::__short"*
  %180 = getelementptr inbounds %"struct.std::__1::basic_string<char, std::__1::char_traits<char>, std::__1::allocator<char> >::__short", %"struct.std::__1::basic_string<char, std::__1::char_traits<char>, std::__1::allocator<char> >::__short"* %179, i64 0, i32 1, i32 0
  %181 = load i8, i8* %180, align 1
  %182 = icmp slt i8 %181, 0
  br i1 %182, label %183, label %186

183:                                              ; preds = %178
  %184 = getelementptr inbounds %"class.std::__1::basic_string", %"class.std::__1::basic_string"* %8, i64 0, i32 0, i32 0, i32 0, i32 0, i32 0, i32 0
  %185 = load i8*, i8** %184, align 8
  call void @_ZdlPv(i8* %185) #12
  br label %186

186:                                              ; preds = %178, %183
  %187 = load i8, i8* %121, align 1
  %188 = icmp slt i8 %187, 0
  br i1 %188, label %189, label %191

189:                                              ; preds = %186
  %190 = load i8*, i8** %124, align 8
  call void @_ZdlPv(i8* %190) #12
  br label %191

191:                                              ; preds = %186, %189
  call void @llvm.lifetime.end.p0i8(i64 24, i8* nonnull %119) #11
  %192 = bitcast %"class.std::__1::basic_string"* %9 to %"struct.std::__1::basic_string<char, std::__1::char_traits<char>, std::__1::allocator<char> >::__short"*
  %193 = getelementptr inbounds %"struct.std::__1::basic_string<char, std::__1::char_traits<char>, std::__1::allocator<char> >::__short", %"struct.std::__1::basic_string<char, std::__1::char_traits<char>, std::__1::allocator<char> >::__short"* %192, i64 0, i32 1, i32 0
  %194 = load i8, i8* %193, align 1
  %195 = icmp slt i8 %194, 0
  br i1 %195, label %196, label %199

196:                                              ; preds = %191
  %197 = getelementptr inbounds %"class.std::__1::basic_string", %"class.std::__1::basic_string"* %9, i64 0, i32 0, i32 0, i32 0, i32 0, i32 0, i32 0
  %198 = load i8*, i8** %197, align 8
  call void @_ZdlPv(i8* %198) #12
  br label %199

199:                                              ; preds = %191, %196
  call void @llvm.lifetime.end.p0i8(i64 24, i8* nonnull %117) #11
  call void @llvm.lifetime.end.p0i8(i64 24, i8* nonnull %116) #11
  call void @llvm.lifetime.end.p0i8(i64 24, i8* nonnull %114) #11
  %200 = bitcast %"class.std::__1::basic_string"* %13 to i8*
  call void @llvm.lifetime.start.p0i8(i64 24, i8* nonnull %200) #11
  %201 = getelementptr inbounds %"class.std::__1::basic_string", %"class.std::__1::basic_string"* %13, i64 0, i32 0, i32 0, i32 0, i32 0, i32 0, i32 0
  %202 = getelementptr inbounds %"class.std::__1::basic_string", %"class.std::__1::basic_string"* %13, i64 0, i32 0, i32 0, i32 0, i32 0, i32 0, i32 1
  %203 = bitcast %"class.std::__1::basic_string"* %14 to i8*
  %204 = bitcast %"class.std::__1::basic_string"* %13 to i8*
  call void @llvm.memset.p0i8.i64(i8* nonnull align 8 %204, i8 -86, i64 24, i1 false)
  call void @llvm.lifetime.start.p0i8(i64 24, i8* nonnull %203) #11
  %205 = bitcast %"class.std::__1::basic_string"* %15 to i8*
  call void @llvm.lifetime.start.p0i8(i64 24, i8* nonnull %205) #11
  %206 = bitcast %"class.std::__1::basic_string"* %16 to i8*
  call void @llvm.lifetime.start.p0i8(i64 24, i8* nonnull %206) #11
  call void @_ZN18grpc_cpp_generator17GetSourcePrologueEPN14grpc_generator4FileERKNS_10ParametersE(%"class.std::__1::basic_string"* nonnull sret %16, %"struct.grpc_generator::File"* nonnull %118, %"struct.grpc_cpp_generator::Parameters"* nonnull dereferenceable(64) %4) #11
  %207 = bitcast %"class.std::__1::basic_string"* %17 to i8*
  call void @llvm.lifetime.start.p0i8(i64 24, i8* nonnull %207) #11
  call void @_ZN18grpc_cpp_generator17GetSourceIncludesEPN14grpc_generator4FileERKNS_10ParametersE(%"class.std::__1::basic_string"* nonnull sret %17, %"struct.grpc_generator::File"* nonnull %118, %"struct.grpc_cpp_generator::Parameters"* nonnull dereferenceable(64) %4) #11
  %208 = bitcast %"class.std::__1::basic_string"* %17 to %"struct.std::__1::basic_string<char, std::__1::char_traits<char>, std::__1::allocator<char> >::__short"*
  %209 = getelementptr inbounds %"struct.std::__1::basic_string<char, std::__1::char_traits<char>, std::__1::allocator<char> >::__short", %"struct.std::__1::basic_string<char, std::__1::char_traits<char>, std::__1::allocator<char> >::__short"* %208, i64 0, i32 1, i32 0
  %210 = load i8, i8* %209, align 1, !noalias !21
  %211 = icmp slt i8 %210, 0
  %212 = getelementptr inbounds %"class.std::__1::basic_string", %"class.std::__1::basic_string"* %17, i64 0, i32 0, i32 0, i32 0, i32 0, i32 0, i32 0
  %213 = load i8*, i8** %212, align 8, !noalias !21
  %214 = getelementptr inbounds %"class.std::__1::basic_string", %"class.std::__1::basic_string"* %17, i64 0, i32 0, i32 0, i32 0, i32 0, i32 0, i32 1
  %215 = load i64, i64* %214, align 8, !noalias !21
  %216 = zext i8 %210 to i64
  %217 = select i1 %211, i8* %213, i8* %207
  %218 = select i1 %211, i64 %215, i64 %216
  %219 = call dereferenceable(24) %"class.std::__1::basic_string"* @_ZNSt3__112basic_stringIcNS_11char_traitsIcEENS_9allocatorIcEEE6appendEPKcm(%"class.std::__1::basic_string"* nonnull %16, i8* %217, i64 %218) #11, !noalias !21
  %220 = bitcast %"class.std::__1::basic_string"* %219 to i8*
  call void @llvm.memcpy.p0i8.p0i8.i64(i8* nonnull align 8 %205, i8* align 8 %220, i64 24, i1 false) #11
  call void @llvm.memset.p0i8.i64(i8* align 8 %220, i8 0, i64 24, i1 false) #11, !noalias !21
  %221 = bitcast %"class.std::__1::basic_string"* %18 to i8*
  call void @llvm.lifetime.start.p0i8(i64 24, i8* nonnull %221) #11
  call void @_ZN18grpc_cpp_generator17GetSourceServicesEPN14grpc_generator4FileERKNS_10ParametersE(%"class.std::__1::basic_string"* nonnull sret %18, %"struct.grpc_generator::File"* nonnull %118, %"struct.grpc_cpp_generator::Parameters"* nonnull dereferenceable(64) %4) #11
  %222 = bitcast %"class.std::__1::basic_string"* %18 to %"struct.std::__1::basic_string<char, std::__1::char_traits<char>, std::__1::allocator<char> >::__short"*
  %223 = getelementptr inbounds %"struct.std::__1::basic_string<char, std::__1::char_traits<char>, std::__1::allocator<char> >::__short", %"struct.std::__1::basic_string<char, std::__1::char_traits<char>, std::__1::allocator<char> >::__short"* %222, i64 0, i32 1, i32 0
  %224 = load i8, i8* %223, align 1, !noalias !24
  %225 = icmp slt i8 %224, 0
  %226 = getelementptr inbounds %"class.std::__1::basic_string", %"class.std::__1::basic_string"* %18, i64 0, i32 0, i32 0, i32 0, i32 0, i32 0, i32 0
  %227 = load i8*, i8** %226, align 8, !noalias !24
  %228 = getelementptr inbounds %"class.std::__1::basic_string", %"class.std::__1::basic_string"* %18, i64 0, i32 0, i32 0, i32 0, i32 0, i32 0, i32 1
  %229 = load i64, i64* %228, align 8, !noalias !24
  %230 = zext i8 %224 to i64
  %231 = select i1 %225, i8* %227, i8* %221
  %232 = select i1 %225, i64 %229, i64 %230
  %233 = call dereferenceable(24) %"class.std::__1::basic_string"* @_ZNSt3__112basic_stringIcNS_11char_traitsIcEENS_9allocatorIcEEE6appendEPKcm(%"class.std::__1::basic_string"* nonnull %15, i8* %231, i64 %232) #11, !noalias !24
  %234 = bitcast %"class.std::__1::basic_string"* %233 to i8*
  call void @llvm.memcpy.p0i8.p0i8.i64(i8* nonnull align 8 %203, i8* align 8 %234, i64 24, i1 false) #11
  call void @llvm.memset.p0i8.i64(i8* align 8 %234, i8 0, i64 24, i1 false) #11, !noalias !24
  %235 = bitcast %"class.std::__1::basic_string"* %19 to i8*
  call void @llvm.lifetime.start.p0i8(i64 24, i8* nonnull %235) #11
  call void @_ZN18grpc_cpp_generator17GetSourceEpilogueEPN14grpc_generator4FileERKNS_10ParametersE(%"class.std::__1::basic_string"* nonnull sret %19, %"struct.grpc_generator::File"* nonnull %118, %"struct.grpc_cpp_generator::Parameters"* nonnull dereferenceable(64) %4) #11
  %236 = bitcast %"class.std::__1::basic_string"* %19 to %"struct.std::__1::basic_string<char, std::__1::char_traits<char>, std::__1::allocator<char> >::__short"*
  %237 = getelementptr inbounds %"struct.std::__1::basic_string<char, std::__1::char_traits<char>, std::__1::allocator<char> >::__short", %"struct.std::__1::basic_string<char, std::__1::char_traits<char>, std::__1::allocator<char> >::__short"* %236, i64 0, i32 1, i32 0
  %238 = load i8, i8* %237, align 1, !noalias !27
  %239 = icmp slt i8 %238, 0
  %240 = getelementptr inbounds %"class.std::__1::basic_string", %"class.std::__1::basic_string"* %19, i64 0, i32 0, i32 0, i32 0, i32 0, i32 0, i32 0
  %241 = load i8*, i8** %240, align 8, !noalias !27
  %242 = getelementptr inbounds %"class.std::__1::basic_string", %"class.std::__1::basic_string"* %19, i64 0, i32 0, i32 0, i32 0, i32 0, i32 0, i32 1
  %243 = load i64, i64* %242, align 8, !noalias !27
  %244 = zext i8 %238 to i64
  %245 = select i1 %239, i8* %241, i8* %235
  %246 = select i1 %239, i64 %243, i64 %244
  %247 = call dereferenceable(24) %"class.std::__1::basic_string"* @_ZNSt3__112basic_stringIcNS_11char_traitsIcEENS_9allocatorIcEEE6appendEPKcm(%"class.std::__1::basic_string"* nonnull %14, i8* %245, i64 %246) #11, !noalias !27
  %248 = bitcast %"class.std::__1::basic_string"* %247 to i8*
  call void @llvm.memcpy.p0i8.p0i8.i64(i8* nonnull align 8 %200, i8* align 8 %248, i64 24, i1 false) #11
  call void @llvm.memset.p0i8.i64(i8* align 8 %248, i8 0, i64 24, i1 false) #11, !noalias !27
  %249 = load i8, i8* %237, align 1
  %250 = icmp slt i8 %249, 0
  br i1 %250, label %251, label %253

251:                                              ; preds = %199
  %252 = load i8*, i8** %240, align 8
  call void @_ZdlPv(i8* %252) #12
  br label %253

253:                                              ; preds = %199, %251
  call void @llvm.lifetime.end.p0i8(i64 24, i8* nonnull %235) #11
  %254 = bitcast %"class.std::__1::basic_string"* %14 to %"struct.std::__1::basic_string<char, std::__1::char_traits<char>, std::__1::allocator<char> >::__short"*
  %255 = getelementptr inbounds %"struct.std::__1::basic_string<char, std::__1::char_traits<char>, std::__1::allocator<char> >::__short", %"struct.std::__1::basic_string<char, std::__1::char_traits<char>, std::__1::allocator<char> >::__short"* %254, i64 0, i32 1, i32 0
  %256 = load i8, i8* %255, align 1
  %257 = icmp slt i8 %256, 0
  br i1 %257, label %258, label %261

258:                                              ; preds = %253
  %259 = getelementptr inbounds %"class.std::__1::basic_string", %"class.std::__1::basic_string"* %14, i64 0, i32 0, i32 0, i32 0, i32 0, i32 0, i32 0
  %260 = load i8*, i8** %259, align 8
  call void @_ZdlPv(i8* %260) #12
  br label %261

261:                                              ; preds = %253, %258
  %262 = load i8, i8* %223, align 1
  %263 = icmp slt i8 %262, 0
  br i1 %263, label %264, label %266

264:                                              ; preds = %261
  %265 = load i8*, i8** %226, align 8
  call void @_ZdlPv(i8* %265) #12
  br label %266

266:                                              ; preds = %261, %264
  call void @llvm.lifetime.end.p0i8(i64 24, i8* nonnull %221) #11
  %267 = bitcast %"class.std::__1::basic_string"* %15 to %"struct.std::__1::basic_string<char, std::__1::char_traits<char>, std::__1::allocator<char> >::__short"*
  %268 = getelementptr inbounds %"struct.std::__1::basic_string<char, std::__1::char_traits<char>, std::__1::allocator<char> >::__short", %"struct.std::__1::basic_string<char, std::__1::char_traits<char>, std::__1::allocator<char> >::__short"* %267, i64 0, i32 1, i32 0
  %269 = load i8, i8* %268, align 1
  %270 = icmp slt i8 %269, 0
  br i1 %270, label %271, label %274

271:                                              ; preds = %266
  %272 = getelementptr inbounds %"class.std::__1::basic_string", %"class.std::__1::basic_string"* %15, i64 0, i32 0, i32 0, i32 0, i32 0, i32 0, i32 0
  %273 = load i8*, i8** %272, align 8
  call void @_ZdlPv(i8* %273) #12
  br label %274

274:                                              ; preds = %266, %271
  %275 = load i8, i8* %209, align 1
  %276 = icmp slt i8 %275, 0
  br i1 %276, label %277, label %279

277:                                              ; preds = %274
  %278 = load i8*, i8** %212, align 8
  call void @_ZdlPv(i8* %278) #12
  br label %279

279:                                              ; preds = %274, %277
  call void @llvm.lifetime.end.p0i8(i64 24, i8* nonnull %207) #11
  %280 = bitcast %"class.std::__1::basic_string"* %16 to %"struct.std::__1::basic_string<char, std::__1::char_traits<char>, std::__1::allocator<char> >::__short"*
  %281 = getelementptr inbounds %"struct.std::__1::basic_string<char, std::__1::char_traits<char>, std::__1::allocator<char> >::__short", %"struct.std::__1::basic_string<char, std::__1::char_traits<char>, std::__1::allocator<char> >::__short"* %280, i64 0, i32 1, i32 0
  %282 = load i8, i8* %281, align 1
  %283 = icmp slt i8 %282, 0
  br i1 %283, label %284, label %287

284:                                              ; preds = %279
  %285 = getelementptr inbounds %"class.std::__1::basic_string", %"class.std::__1::basic_string"* %16, i64 0, i32 0, i32 0, i32 0, i32 0, i32 0, i32 0
  %286 = load i8*, i8** %285, align 8
  call void @_ZdlPv(i8* %286) #12
  br label %287

287:                                              ; preds = %279, %284
  call void @llvm.lifetime.end.p0i8(i64 24, i8* nonnull %206) #11
  call void @llvm.lifetime.end.p0i8(i64 24, i8* nonnull %205) #11
  call void @llvm.lifetime.end.p0i8(i64 24, i8* nonnull %203) #11
  %288 = bitcast %"class.std::__1::basic_string"* %20 to i8*
  call void @llvm.lifetime.start.p0i8(i64 24, i8* nonnull %288) #11
  %289 = bitcast %"class.std::__1::basic_string"* %21 to i8*
  call void @llvm.lifetime.start.p0i8(i64 24, i8* nonnull %289) #11
  %290 = getelementptr inbounds %"class.std::__1::basic_string", %"class.std::__1::basic_string"* %21, i64 0, i32 0, i32 0, i32 0, i32 0, i32 0, i32 0
  %291 = getelementptr inbounds %"class.std::__1::basic_string", %"class.std::__1::basic_string"* %21, i64 0, i32 0, i32 0, i32 0, i32 0, i32 0, i32 1
  %292 = getelementptr inbounds %"class.std::__1::basic_string", %"class.std::__1::basic_string"* %21, i64 0, i32 0, i32 0, i32 0, i32 0, i32 0, i32 2
  call void @llvm.memset.p0i8.i64(i8* nonnull align 8 %289, i8 0, i64 24, i1 false) #11, !alias.scope !30
  %293 = bitcast %"class.std::__1::basic_string"* %1 to %"struct.std::__1::basic_string<char, std::__1::char_traits<char>, std::__1::allocator<char> >::__short"*
  %294 = getelementptr inbounds %"struct.std::__1::basic_string<char, std::__1::char_traits<char>, std::__1::allocator<char> >::__short", %"struct.std::__1::basic_string<char, std::__1::char_traits<char>, std::__1::allocator<char> >::__short"* %293, i64 0, i32 1, i32 0
  %295 = load i8, i8* %294, align 1, !noalias !30
  %296 = icmp slt i8 %295, 0
  %297 = getelementptr inbounds %"class.std::__1::basic_string", %"class.std::__1::basic_string"* %1, i64 0, i32 0, i32 0, i32 0, i32 0, i32 0, i32 1
  %298 = load i64, i64* %297, align 8, !noalias !30
  %299 = zext i8 %295 to i64
  %300 = select i1 %296, i64 %298, i64 %299
  %301 = bitcast %"class.std::__1::basic_string"* %2 to %"struct.std::__1::basic_string<char, std::__1::char_traits<char>, std::__1::allocator<char> >::__short"*
  %302 = getelementptr inbounds %"struct.std::__1::basic_string<char, std::__1::char_traits<char>, std::__1::allocator<char> >::__short", %"struct.std::__1::basic_string<char, std::__1::char_traits<char>, std::__1::allocator<char> >::__short"* %301, i64 0, i32 1, i32 0
  %303 = load i8, i8* %302, align 1, !noalias !30
  %304 = icmp slt i8 %303, 0
  %305 = getelementptr inbounds %"class.std::__1::basic_string", %"class.std::__1::basic_string"* %2, i64 0, i32 0, i32 0, i32 0, i32 0, i32 0, i32 1
  %306 = load i64, i64* %305, align 8, !noalias !30
  %307 = zext i8 %303 to i64
  %308 = select i1 %304, i64 %306, i64 %307
  %309 = getelementptr inbounds %"class.std::__1::basic_string", %"class.std::__1::basic_string"* %1, i64 0, i32 0, i32 0, i32 0, i32 0, i32 0, i32 0
  %310 = load i8*, i8** %309, align 8, !noalias !30
  %311 = bitcast %"class.std::__1::basic_string"* %1 to i8*
  %312 = select i1 %296, i8* %310, i8* %311
  %313 = add i64 %308, %300
  %314 = icmp ugt i64 %313, -17
  br i1 %314, label %315, label %317

315:                                              ; preds = %287
  %316 = bitcast %"class.std::__1::basic_string"* %21 to %"class.std::__1::__basic_string_common"*
  call void @_ZNKSt3__121__basic_string_commonILb1EE20__throw_length_errorEv(%"class.std::__1::__basic_string_common"* nonnull %316) #13
  unreachable

317:                                              ; preds = %287
  %318 = icmp ult i64 %313, 23
  br i1 %318, label %319, label %323

319:                                              ; preds = %317
  %320 = trunc i64 %300 to i8
  %321 = bitcast %"class.std::__1::basic_string"* %21 to %"struct.std::__1::basic_string<char, std::__1::char_traits<char>, std::__1::allocator<char> >::__short"*
  %322 = getelementptr inbounds %"struct.std::__1::basic_string<char, std::__1::char_traits<char>, std::__1::allocator<char> >::__short", %"struct.std::__1::basic_string<char, std::__1::char_traits<char>, std::__1::allocator<char> >::__short"* %321, i64 0, i32 1, i32 0
  store i8 %320, i8* %322, align 1, !alias.scope !30
  br label %328

323:                                              ; preds = %317
  %324 = add nuw i64 %313, 16
  %325 = and i64 %324, -16
  %326 = call i8* @_Znwm(i64 %325) #12
  store i8* %326, i8** %290, align 8, !alias.scope !30
  %327 = or i64 %325, -9223372036854775808
  store i64 %327, i64* %292, align 8, !alias.scope !30
  store i64 %300, i64* %291, align 8, !alias.scope !30
  br label %328

328:                                              ; preds = %323, %319
  %329 = phi i8* [ %289, %319 ], [ %326, %323 ]
  %330 = icmp eq i64 %300, 0
  br i1 %330, label %332, label %331

331:                                              ; preds = %328
  call void @llvm.memcpy.p0i8.p0i8.i64(i8* nonnull align 1 %329, i8* align 1 %312, i64 %300, i1 false) #11
  br label %332

332:                                              ; preds = %328, %331
  %333 = getelementptr inbounds i8, i8* %329, i64 %300
  store i8 0, i8* %333, align 1
  %334 = getelementptr inbounds %"class.std::__1::basic_string", %"class.std::__1::basic_string"* %2, i64 0, i32 0, i32 0, i32 0, i32 0, i32 0, i32 0
  %335 = load i8*, i8** %334, align 8, !noalias !30
  %336 = bitcast %"class.std::__1::basic_string"* %2 to i8*
  %337 = select i1 %304, i8* %335, i8* %336
  %338 = call dereferenceable(24) %"class.std::__1::basic_string"* @_ZNSt3__112basic_stringIcNS_11char_traitsIcEENS_9allocatorIcEEE6appendEPKcm(%"class.std::__1::basic_string"* nonnull %21, i8* %337, i64 %308) #11
  %339 = call dereferenceable(24) %"class.std::__1::basic_string"* @_ZNSt3__112basic_stringIcNS_11char_traitsIcEENS_9allocatorIcEEE6appendEPKc(%"class.std::__1::basic_string"* nonnull %21, i8* getelementptr inbounds ([11 x i8], [11 x i8]* @.str.1, i64 0, i64 0)) #11, !noalias !33
  %340 = bitcast %"class.std::__1::basic_string"* %339 to i8*
  call void @llvm.memcpy.p0i8.p0i8.i64(i8* nonnull align 8 %288, i8* align 8 %340, i64 24, i1 false) #11
  call void @llvm.memset.p0i8.i64(i8* align 8 %340, i8 0, i64 24, i1 false) #11, !noalias !33
  %341 = bitcast %"class.std::__1::basic_string"* %20 to %"struct.std::__1::basic_string<char, std::__1::char_traits<char>, std::__1::allocator<char> >::__short"*
  %342 = getelementptr inbounds %"struct.std::__1::basic_string<char, std::__1::char_traits<char>, std::__1::allocator<char> >::__short", %"struct.std::__1::basic_string<char, std::__1::char_traits<char>, std::__1::allocator<char> >::__short"* %341, i64 0, i32 1, i32 0
  %343 = load i8, i8* %342, align 1
  %344 = icmp slt i8 %343, 0
  %345 = getelementptr inbounds %"class.std::__1::basic_string", %"class.std::__1::basic_string"* %20, i64 0, i32 0, i32 0, i32 0, i32 0, i32 0, i32 0
  %346 = load i8*, i8** %345, align 8
  %347 = select i1 %344, i8* %346, i8* %288
  %348 = bitcast %"class.std::__1::basic_string"* %6 to %"struct.std::__1::basic_string<char, std::__1::char_traits<char>, std::__1::allocator<char> >::__short"*
  %349 = getelementptr inbounds %"struct.std::__1::basic_string<char, std::__1::char_traits<char>, std::__1::allocator<char> >::__short", %"struct.std::__1::basic_string<char, std::__1::char_traits<char>, std::__1::allocator<char> >::__short"* %348, i64 0, i32 1, i32 0
  %350 = load i8, i8* %349, align 1
  %351 = icmp slt i8 %350, 0
  %352 = load i8*, i8** %112, align 8
  %353 = load i64, i64* %113, align 8
  %354 = zext i8 %350 to i64
  %355 = select i1 %351, i8* %352, i8* %111
  %356 = select i1 %351, i64 %353, i64 %354
  %357 = call zeroext i1 @_ZN11flatbuffers8SaveFileEPKcS1_mb(i8* %347, i8* %355, i64 %356, i1 zeroext false) #11
  br i1 %357, label %358, label %431

358:                                              ; preds = %332
  %359 = bitcast %"class.std::__1::basic_string"* %22 to i8*
  call void @llvm.lifetime.start.p0i8(i64 24, i8* nonnull %359) #11
  %360 = bitcast %"class.std::__1::basic_string"* %23 to i8*
  call void @llvm.lifetime.start.p0i8(i64 24, i8* nonnull %360) #11
  %361 = getelementptr inbounds %"class.std::__1::basic_string", %"class.std::__1::basic_string"* %23, i64 0, i32 0, i32 0, i32 0, i32 0, i32 0, i32 0
  %362 = getelementptr inbounds %"class.std::__1::basic_string", %"class.std::__1::basic_string"* %23, i64 0, i32 0, i32 0, i32 0, i32 0, i32 0, i32 1
  %363 = getelementptr inbounds %"class.std::__1::basic_string", %"class.std::__1::basic_string"* %23, i64 0, i32 0, i32 0, i32 0, i32 0, i32 0, i32 2
  call void @llvm.memset.p0i8.i64(i8* nonnull align 8 %360, i8 0, i64 24, i1 false) #11, !alias.scope !36
  %364 = load i8, i8* %294, align 1, !noalias !36
  %365 = icmp slt i8 %364, 0
  %366 = load i64, i64* %297, align 8, !noalias !36
  %367 = zext i8 %364 to i64
  %368 = select i1 %365, i64 %366, i64 %367
  %369 = load i8, i8* %302, align 1, !noalias !36
  %370 = icmp slt i8 %369, 0
  %371 = load i64, i64* %305, align 8, !noalias !36
  %372 = zext i8 %369 to i64
  %373 = select i1 %370, i64 %371, i64 %372
  %374 = load i8*, i8** %309, align 8, !noalias !36
  %375 = select i1 %365, i8* %374, i8* %311
  %376 = add i64 %373, %368
  %377 = icmp ugt i64 %376, -17
  br i1 %377, label %378, label %380

378:                                              ; preds = %358
  %379 = bitcast %"class.std::__1::basic_string"* %23 to %"class.std::__1::__basic_string_common"*
  call void @_ZNKSt3__121__basic_string_commonILb1EE20__throw_length_errorEv(%"class.std::__1::__basic_string_common"* nonnull %379) #13
  unreachable

380:                                              ; preds = %358
  %381 = icmp ult i64 %376, 23
  br i1 %381, label %382, label %386

382:                                              ; preds = %380
  %383 = trunc i64 %368 to i8
  %384 = bitcast %"class.std::__1::basic_string"* %23 to %"struct.std::__1::basic_string<char, std::__1::char_traits<char>, std::__1::allocator<char> >::__short"*
  %385 = getelementptr inbounds %"struct.std::__1::basic_string<char, std::__1::char_traits<char>, std::__1::allocator<char> >::__short", %"struct.std::__1::basic_string<char, std::__1::char_traits<char>, std::__1::allocator<char> >::__short"* %384, i64 0, i32 1, i32 0
  store i8 %383, i8* %385, align 1, !alias.scope !36
  br label %391

386:                                              ; preds = %380
  %387 = add nuw i64 %376, 16
  %388 = and i64 %387, -16
  %389 = call i8* @_Znwm(i64 %388) #12
  store i8* %389, i8** %361, align 8, !alias.scope !36
  %390 = or i64 %388, -9223372036854775808
  store i64 %390, i64* %363, align 8, !alias.scope !36
  store i64 %368, i64* %362, align 8, !alias.scope !36
  br label %391

391:                                              ; preds = %386, %382
  %392 = phi i8* [ %360, %382 ], [ %389, %386 ]
  %393 = icmp eq i64 %368, 0
  br i1 %393, label %395, label %394

394:                                              ; preds = %391
  call void @llvm.memcpy.p0i8.p0i8.i64(i8* nonnull align 1 %392, i8* align 1 %375, i64 %368, i1 false) #11
  br label %395

395:                                              ; preds = %391, %394
  %396 = getelementptr inbounds i8, i8* %392, i64 %368
  store i8 0, i8* %396, align 1
  %397 = load i8*, i8** %334, align 8, !noalias !36
  %398 = select i1 %370, i8* %397, i8* %336
  %399 = call dereferenceable(24) %"class.std::__1::basic_string"* @_ZNSt3__112basic_stringIcNS_11char_traitsIcEENS_9allocatorIcEEE6appendEPKcm(%"class.std::__1::basic_string"* nonnull %23, i8* %398, i64 %373) #11
  %400 = call dereferenceable(24) %"class.std::__1::basic_string"* @_ZNSt3__112basic_stringIcNS_11char_traitsIcEENS_9allocatorIcEEE6appendEPKc(%"class.std::__1::basic_string"* nonnull %23, i8* getelementptr inbounds ([12 x i8], [12 x i8]* @.str.2, i64 0, i64 0)) #11, !noalias !39
  %401 = bitcast %"class.std::__1::basic_string"* %400 to i8*
  call void @llvm.memcpy.p0i8.p0i8.i64(i8* nonnull align 8 %359, i8* align 8 %401, i64 24, i1 false) #11
  call void @llvm.memset.p0i8.i64(i8* align 8 %401, i8 0, i64 24, i1 false) #11, !noalias !39
  %402 = bitcast %"class.std::__1::basic_string"* %22 to %"struct.std::__1::basic_string<char, std::__1::char_traits<char>, std::__1::allocator<char> >::__short"*
  %403 = getelementptr inbounds %"struct.std::__1::basic_string<char, std::__1::char_traits<char>, std::__1::allocator<char> >::__short", %"struct.std::__1::basic_string<char, std::__1::char_traits<char>, std::__1::allocator<char> >::__short"* %402, i64 0, i32 1, i32 0
  %404 = load i8, i8* %403, align 1
  %405 = icmp slt i8 %404, 0
  %406 = getelementptr inbounds %"class.std::__1::basic_string", %"class.std::__1::basic_string"* %22, i64 0, i32 0, i32 0, i32 0, i32 0, i32 0, i32 0
  %407 = load i8*, i8** %406, align 8
  %408 = select i1 %405, i8* %407, i8* %359
  %409 = bitcast %"class.std::__1::basic_string"* %13 to %"struct.std::__1::basic_string<char, std::__1::char_traits<char>, std::__1::allocator<char> >::__short"*
  %410 = getelementptr inbounds %"struct.std::__1::basic_string<char, std::__1::char_traits<char>, std::__1::allocator<char> >::__short", %"struct.std::__1::basic_string<char, std::__1::char_traits<char>, std::__1::allocator<char> >::__short"* %409, i64 0, i32 1, i32 0
  %411 = load i8, i8* %410, align 1
  %412 = icmp slt i8 %411, 0
  %413 = load i8*, i8** %201, align 8
  %414 = load i64, i64* %202, align 8
  %415 = zext i8 %411 to i64
  %416 = select i1 %412, i8* %413, i8* %200
  %417 = select i1 %412, i64 %414, i64 %415
  %418 = call zeroext i1 @_ZN11flatbuffers8SaveFileEPKcS1_mb(i8* %408, i8* %416, i64 %417, i1 zeroext false) #11
  %419 = load i8, i8* %403, align 1
  %420 = icmp slt i8 %419, 0
  br i1 %420, label %421, label %423

421:                                              ; preds = %395
  %422 = load i8*, i8** %406, align 8
  call void @_ZdlPv(i8* %422) #12
  br label %423

423:                                              ; preds = %395, %421
  %424 = bitcast %"class.std::__1::basic_string"* %23 to %"struct.std::__1::basic_string<char, std::__1::char_traits<char>, std::__1::allocator<char> >::__short"*
  %425 = getelementptr inbounds %"struct.std::__1::basic_string<char, std::__1::char_traits<char>, std::__1::allocator<char> >::__short", %"struct.std::__1::basic_string<char, std::__1::char_traits<char>, std::__1::allocator<char> >::__short"* %424, i64 0, i32 1, i32 0
  %426 = load i8, i8* %425, align 1
  %427 = icmp slt i8 %426, 0
  br i1 %427, label %428, label %430

428:                                              ; preds = %423
  %429 = load i8*, i8** %361, align 8
  call void @_ZdlPv(i8* %429) #12
  br label %430

430:                                              ; preds = %423, %428
  call void @llvm.lifetime.end.p0i8(i64 24, i8* nonnull %360) #11
  call void @llvm.lifetime.end.p0i8(i64 24, i8* nonnull %359) #11
  br label %431

431:                                              ; preds = %332, %430
  %432 = phi i1 [ %418, %430 ], [ false, %332 ]
  %433 = load i8, i8* %342, align 1
  %434 = icmp slt i8 %433, 0
  br i1 %434, label %435, label %437

435:                                              ; preds = %431
  %436 = load i8*, i8** %345, align 8
  call void @_ZdlPv(i8* %436) #12
  br label %437

437:                                              ; preds = %431, %435
  %438 = bitcast %"class.std::__1::basic_string"* %21 to %"struct.std::__1::basic_string<char, std::__1::char_traits<char>, std::__1::allocator<char> >::__short"*
  %439 = getelementptr inbounds %"struct.std::__1::basic_string<char, std::__1::char_traits<char>, std::__1::allocator<char> >::__short", %"struct.std::__1::basic_string<char, std::__1::char_traits<char>, std::__1::allocator<char> >::__short"* %438, i64 0, i32 1, i32 0
  %440 = load i8, i8* %439, align 1
  %441 = icmp slt i8 %440, 0
  br i1 %441, label %442, label %444

442:                                              ; preds = %437
  %443 = load i8*, i8** %290, align 8
  call void @_ZdlPv(i8* %443) #12
  br label %444

444:                                              ; preds = %437, %442
  call void @llvm.lifetime.end.p0i8(i64 24, i8* nonnull %289) #11
  call void @llvm.lifetime.end.p0i8(i64 24, i8* nonnull %288) #11
  %445 = bitcast %"class.std::__1::basic_string"* %13 to %"struct.std::__1::basic_string<char, std::__1::char_traits<char>, std::__1::allocator<char> >::__short"*
  %446 = getelementptr inbounds %"struct.std::__1::basic_string<char, std::__1::char_traits<char>, std::__1::allocator<char> >::__short", %"struct.std::__1::basic_string<char, std::__1::char_traits<char>, std::__1::allocator<char> >::__short"* %445, i64 0, i32 1, i32 0
  %447 = load i8, i8* %446, align 1
  %448 = icmp slt i8 %447, 0
  br i1 %448, label %449, label %451

449:                                              ; preds = %444
  %450 = load i8*, i8** %201, align 8
  call void @_ZdlPv(i8* %450) #12
  br label %451

451:                                              ; preds = %444, %449
  call void @llvm.lifetime.end.p0i8(i64 24, i8* nonnull %200) #11
  %452 = load i8, i8* %349, align 1
  %453 = icmp slt i8 %452, 0
  br i1 %453, label %454, label %456

454:                                              ; preds = %451
  %455 = load i8*, i8** %112, align 8
  call void @_ZdlPv(i8* %455) #12
  br label %456

456:                                              ; preds = %451, %454
  call void @llvm.lifetime.end.p0i8(i64 24, i8* nonnull %111) #11
  call void @llvm.lifetime.end.p0i8(i64 32, i8* nonnull %105) #11
  %457 = bitcast %"class.std::__1::basic_string"* %102 to %"struct.std::__1::basic_string<char, std::__1::char_traits<char>, std::__1::allocator<char> >::__short"*
  %458 = getelementptr inbounds %"struct.std::__1::basic_string<char, std::__1::char_traits<char>, std::__1::allocator<char> >::__short", %"struct.std::__1::basic_string<char, std::__1::char_traits<char>, std::__1::allocator<char> >::__short"* %457, i64 0, i32 1, i32 0
  %459 = load i8, i8* %458, align 1
  %460 = icmp slt i8 %459, 0
  br i1 %460, label %461, label %464

461:                                              ; preds = %456
  %462 = getelementptr inbounds %"class.std::__1::basic_string", %"class.std::__1::basic_string"* %102, i64 0, i32 0, i32 0, i32 0, i32 0, i32 0, i32 0
  %463 = load i8*, i8** %462, align 8
  call void @_ZdlPv(i8* %463) #12
  br label %464

464:                                              ; preds = %461, %456
  %465 = bitcast %"struct.grpc_cpp_generator::Parameters"* %4 to %"struct.std::__1::basic_string<char, std::__1::char_traits<char>, std::__1::allocator<char> >::__short"*
  %466 = getelementptr inbounds %"struct.std::__1::basic_string<char, std::__1::char_traits<char>, std::__1::allocator<char> >::__short", %"struct.std::__1::basic_string<char, std::__1::char_traits<char>, std::__1::allocator<char> >::__short"* %465, i64 0, i32 1, i32 0
  %467 = load i8, i8* %466, align 1
  %468 = icmp slt i8 %467, 0
  br i1 %468, label %469, label %472

469:                                              ; preds = %464
  %470 = getelementptr inbounds %"struct.grpc_cpp_generator::Parameters", %"struct.grpc_cpp_generator::Parameters"* %4, i64 0, i32 0, i32 0, i32 0, i32 0, i32 0, i32 0, i32 0
  %471 = load i8*, i8** %470, align 8
  call void @_ZdlPv(i8* %471) #12
  br label %472

472:                                              ; preds = %464, %469
  call void @llvm.lifetime.end.p0i8(i64 64, i8* nonnull %101) #11
  br label %473

473:                                              ; preds = %3, %59, %472
  %474 = phi i1 [ %432, %472 ], [ true, %59 ], [ true, %3 ]
  ret i1 %474
}

; Function Attrs: argmemonly nounwind
declare void @llvm.memset.p0i8.i64(i8* nocapture writeonly, i8, i64, i1 immarg) #1

declare void @_ZN18grpc_cpp_generator17GetHeaderPrologueEPN14grpc_generator4FileERKNS_10ParametersE(%"class.std::__1::basic_string"* sret, %"struct.grpc_generator::File"*, %"struct.grpc_cpp_generator::Parameters"* dereferenceable(64)) local_unnamed_addr #2

declare void @_ZN18grpc_cpp_generator17GetHeaderIncludesEPN14grpc_generator4FileERKNS_10ParametersE(%"class.std::__1::basic_string"* sret, %"struct.grpc_generator::File"*, %"struct.grpc_cpp_generator::Parameters"* dereferenceable(64)) local_unnamed_addr #2

declare void @_ZN18grpc_cpp_generator17GetHeaderServicesEPN14grpc_generator4FileERKNS_10ParametersE(%"class.std::__1::basic_string"* sret, %"struct.grpc_generator::File"*, %"struct.grpc_cpp_generator::Parameters"* dereferenceable(64)) local_unnamed_addr #2

declare void @_ZN18grpc_cpp_generator17GetHeaderEpilogueEPN14grpc_generator4FileERKNS_10ParametersE(%"class.std::__1::basic_string"* sret, %"struct.grpc_generator::File"*, %"struct.grpc_cpp_generator::Parameters"* dereferenceable(64)) local_unnamed_addr #2

declare void @_ZN18grpc_cpp_generator17GetSourcePrologueEPN14grpc_generator4FileERKNS_10ParametersE(%"class.std::__1::basic_string"* sret, %"struct.grpc_generator::File"*, %"struct.grpc_cpp_generator::Parameters"* dereferenceable(64)) local_unnamed_addr #2

declare void @_ZN18grpc_cpp_generator17GetSourceIncludesEPN14grpc_generator4FileERKNS_10ParametersE(%"class.std::__1::basic_string"* sret, %"struct.grpc_generator::File"*, %"struct.grpc_cpp_generator::Parameters"* dereferenceable(64)) local_unnamed_addr #2

declare void @_ZN18grpc_cpp_generator17GetSourceServicesEPN14grpc_generator4FileERKNS_10ParametersE(%"class.std::__1::basic_string"* sret, %"struct.grpc_generator::File"*, %"struct.grpc_cpp_generator::Parameters"* dereferenceable(64)) local_unnamed_addr #2

declare void @_ZN18grpc_cpp_generator17GetSourceEpilogueEPN14grpc_generator4FileERKNS_10ParametersE(%"class.std::__1::basic_string"* sret, %"struct.grpc_generator::File"*, %"struct.grpc_cpp_generator::Parameters"* dereferenceable(64)) local_unnamed_addr #2

; Function Attrs: nounwind ssp uwtable
define hidden zeroext i1 @_ZN11flatbuffers16GenerateJavaGRPCERKNS_6ParserERKNSt3__112basic_stringIcNS3_11char_traitsIcEENS3_9allocatorIcEEEESB_(%"class.flatbuffers::Parser"* dereferenceable(1208), %"class.std::__1::basic_string"* dereferenceable(24), %"class.std::__1::basic_string"* dereferenceable(24)) local_unnamed_addr #0 {
  %4 = alloca %"class.flatbuffers::JavaGRPCGenerator", align 8
  %5 = getelementptr inbounds %"class.flatbuffers::Parser", %"class.flatbuffers::Parser"* %0, i64 0, i32 4, i32 1, i32 0, i32 0
  %6 = load %"struct.flatbuffers::ServiceDef"**, %"struct.flatbuffers::ServiceDef"*** %5, align 8
  %7 = getelementptr inbounds %"class.flatbuffers::Parser", %"class.flatbuffers::Parser"* %0, i64 0, i32 4, i32 1, i32 0, i32 1
  %8 = load %"struct.flatbuffers::ServiceDef"**, %"struct.flatbuffers::ServiceDef"*** %7, align 8
  %9 = icmp eq %"struct.flatbuffers::ServiceDef"** %6, %8
  br i1 %9, label %123, label %10

10:                                               ; preds = %3
  %11 = ptrtoint %"struct.flatbuffers::ServiceDef"** %6 to i64
  %12 = getelementptr %"struct.flatbuffers::ServiceDef"*, %"struct.flatbuffers::ServiceDef"** %8, i64 -1
  %13 = ptrtoint %"struct.flatbuffers::ServiceDef"** %12 to i64
  %14 = sub i64 %13, %11
  %15 = lshr i64 %14, 3
  %16 = add nuw nsw i64 %15, 1
  %17 = and i64 %16, 3
  %18 = icmp ult i64 %14, 24
  br i1 %18, label %21, label %19

19:                                               ; preds = %10
  %20 = sub nsw i64 %16, %17
  br label %43

21:                                               ; preds = %43, %10
  %22 = phi i32 [ undef, %10 ], [ %77, %43 ]
  %23 = phi i32 [ 0, %10 ], [ %77, %43 ]
  %24 = phi %"struct.flatbuffers::ServiceDef"** [ %6, %10 ], [ %78, %43 ]
  %25 = icmp eq i64 %17, 0
  br i1 %25, label %40, label %26

26:                                               ; preds = %21, %26
  %27 = phi i32 [ %36, %26 ], [ %23, %21 ]
  %28 = phi %"struct.flatbuffers::ServiceDef"** [ %37, %26 ], [ %24, %21 ]
  %29 = phi i64 [ %38, %26 ], [ %17, %21 ]
  %30 = bitcast %"struct.flatbuffers::ServiceDef"** %28 to %"struct.flatbuffers::Definition"**
  %31 = load %"struct.flatbuffers::Definition"*, %"struct.flatbuffers::Definition"** %30, align 8
  %32 = getelementptr inbounds %"struct.flatbuffers::Definition", %"struct.flatbuffers::Definition"* %31, i64 0, i32 4
  %33 = load i8, i8* %32, align 8, !range !2
  %34 = xor i8 %33, 1
  %35 = zext i8 %34 to i32
  %36 = add nuw nsw i32 %27, %35
  %37 = getelementptr inbounds %"struct.flatbuffers::ServiceDef"*, %"struct.flatbuffers::ServiceDef"** %28, i64 1
  %38 = add i64 %29, -1
  %39 = icmp eq i64 %38, 0
  br i1 %39, label %40, label %26, !llvm.loop !42

40:                                               ; preds = %26, %21
  %41 = phi i32 [ %22, %21 ], [ %36, %26 ]
  %42 = icmp eq i32 %41, 0
  br i1 %42, label %123, label %81

43:                                               ; preds = %43, %19
  %44 = phi i32 [ 0, %19 ], [ %77, %43 ]
  %45 = phi %"struct.flatbuffers::ServiceDef"** [ %6, %19 ], [ %78, %43 ]
  %46 = phi i64 [ %20, %19 ], [ %79, %43 ]
  %47 = bitcast %"struct.flatbuffers::ServiceDef"** %45 to %"struct.flatbuffers::Definition"**
  %48 = load %"struct.flatbuffers::Definition"*, %"struct.flatbuffers::Definition"** %47, align 8
  %49 = getelementptr inbounds %"struct.flatbuffers::Definition", %"struct.flatbuffers::Definition"* %48, i64 0, i32 4
  %50 = load i8, i8* %49, align 8, !range !2
  %51 = xor i8 %50, 1
  %52 = zext i8 %51 to i32
  %53 = add nuw nsw i32 %44, %52
  %54 = getelementptr inbounds %"struct.flatbuffers::ServiceDef"*, %"struct.flatbuffers::ServiceDef"** %45, i64 1
  %55 = bitcast %"struct.flatbuffers::ServiceDef"** %54 to %"struct.flatbuffers::Definition"**
  %56 = load %"struct.flatbuffers::Definition"*, %"struct.flatbuffers::Definition"** %55, align 8
  %57 = getelementptr inbounds %"struct.flatbuffers::Definition", %"struct.flatbuffers::Definition"* %56, i64 0, i32 4
  %58 = load i8, i8* %57, align 8, !range !2
  %59 = xor i8 %58, 1
  %60 = zext i8 %59 to i32
  %61 = add nuw nsw i32 %53, %60
  %62 = getelementptr inbounds %"struct.flatbuffers::ServiceDef"*, %"struct.flatbuffers::ServiceDef"** %45, i64 2
  %63 = bitcast %"struct.flatbuffers::ServiceDef"** %62 to %"struct.flatbuffers::Definition"**
  %64 = load %"struct.flatbuffers::Definition"*, %"struct.flatbuffers::Definition"** %63, align 8
  %65 = getelementptr inbounds %"struct.flatbuffers::Definition", %"struct.flatbuffers::Definition"* %64, i64 0, i32 4
  %66 = load i8, i8* %65, align 8, !range !2
  %67 = xor i8 %66, 1
  %68 = zext i8 %67 to i32
  %69 = add nuw nsw i32 %61, %68
  %70 = getelementptr inbounds %"struct.flatbuffers::ServiceDef"*, %"struct.flatbuffers::ServiceDef"** %45, i64 3
  %71 = bitcast %"struct.flatbuffers::ServiceDef"** %70 to %"struct.flatbuffers::Definition"**
  %72 = load %"struct.flatbuffers::Definition"*, %"struct.flatbuffers::Definition"** %71, align 8
  %73 = getelementptr inbounds %"struct.flatbuffers::Definition", %"struct.flatbuffers::Definition"* %72, i64 0, i32 4
  %74 = load i8, i8* %73, align 8, !range !2
  %75 = xor i8 %74, 1
  %76 = zext i8 %75 to i32
  %77 = add nuw nsw i32 %69, %76
  %78 = getelementptr inbounds %"struct.flatbuffers::ServiceDef"*, %"struct.flatbuffers::ServiceDef"** %45, i64 4
  %79 = add i64 %46, -4
  %80 = icmp eq i64 %79, 0
  br i1 %80, label %21, label %43

81:                                               ; preds = %40
  %82 = bitcast %"class.flatbuffers::JavaGRPCGenerator"* %4 to i8*
  call void @llvm.lifetime.start.p0i8(i64 104, i8* nonnull %82) #11
  %83 = getelementptr inbounds %"class.flatbuffers::JavaGRPCGenerator", %"class.flatbuffers::JavaGRPCGenerator"* %4, i64 0, i32 0, i32 0
  %84 = getelementptr inbounds %"class.flatbuffers::JavaGRPCGenerator", %"class.flatbuffers::JavaGRPCGenerator"* %4, i64 0, i32 0, i32 1
  store %"class.flatbuffers::Parser"* %0, %"class.flatbuffers::Parser"** %84, align 8
  %85 = getelementptr inbounds %"class.flatbuffers::JavaGRPCGenerator", %"class.flatbuffers::JavaGRPCGenerator"* %4, i64 0, i32 0, i32 2
  store %"class.std::__1::basic_string"* %1, %"class.std::__1::basic_string"** %85, align 8
  %86 = getelementptr inbounds %"class.flatbuffers::JavaGRPCGenerator", %"class.flatbuffers::JavaGRPCGenerator"* %4, i64 0, i32 0, i32 3
  store %"class.std::__1::basic_string"* %2, %"class.std::__1::basic_string"** %86, align 8
  %87 = getelementptr inbounds %"class.flatbuffers::JavaGRPCGenerator", %"class.flatbuffers::JavaGRPCGenerator"* %4, i64 0, i32 0, i32 4
  %88 = bitcast %"class.std::__1::basic_string"* %87 to i8*
  store i8 0, i8* %88, align 8
  %89 = getelementptr inbounds i8, i8* %82, i64 55
  store i8 0, i8* %89, align 1
  %90 = getelementptr inbounds %"class.flatbuffers::JavaGRPCGenerator", %"class.flatbuffers::JavaGRPCGenerator"* %4, i64 0, i32 0, i32 5
  %91 = bitcast %"class.std::__1::basic_string"* %90 to i8*
  store i8 46, i8* %91, align 8
  %92 = getelementptr inbounds i8, i8* %82, i64 57
  store i8 0, i8* %92, align 1
  %93 = getelementptr inbounds i8, i8* %82, i64 79
  store i8 1, i8* %93, align 1
  %94 = getelementptr inbounds %"class.flatbuffers::JavaGRPCGenerator", %"class.flatbuffers::JavaGRPCGenerator"* %4, i64 0, i32 0, i32 6
  %95 = bitcast %"class.std::__1::basic_string"* %94 to i32*
  store i32 1635148138, i32* %95, align 8
  %96 = getelementptr inbounds i8, i8* %82, i64 84
  store i8 0, i8* %96, align 4
  %97 = getelementptr inbounds i8, i8* %82, i64 103
  store i8 4, i8* %97, align 1
  store i32 (...)** bitcast (i8** getelementptr inbounds ({ [6 x i8*] }, { [6 x i8*] }* @_ZTVN11flatbuffers17JavaGRPCGeneratorE, i64 0, inrange i32 0, i64 2) to i32 (...)**), i32 (...)*** %83, align 8
  %98 = call zeroext i1 @_ZN11flatbuffers17JavaGRPCGenerator8generateEv(%"class.flatbuffers::JavaGRPCGenerator"* nonnull %4)
  store i32 (...)** bitcast (i8** getelementptr inbounds ({ [6 x i8*] }, { [6 x i8*] }* @_ZTVN11flatbuffers13BaseGeneratorE, i64 0, inrange i32 0, i64 2) to i32 (...)**), i32 (...)*** %83, align 8
  %99 = bitcast %"class.std::__1::basic_string"* %94 to %"struct.std::__1::basic_string<char, std::__1::char_traits<char>, std::__1::allocator<char> >::__short"*
  %100 = getelementptr inbounds %"struct.std::__1::basic_string<char, std::__1::char_traits<char>, std::__1::allocator<char> >::__short", %"struct.std::__1::basic_string<char, std::__1::char_traits<char>, std::__1::allocator<char> >::__short"* %99, i64 0, i32 1, i32 0
  %101 = load i8, i8* %100, align 1
  %102 = icmp slt i8 %101, 0
  br i1 %102, label %103, label %106

103:                                              ; preds = %81
  %104 = getelementptr inbounds %"class.std::__1::basic_string", %"class.std::__1::basic_string"* %94, i64 0, i32 0, i32 0, i32 0, i32 0, i32 0, i32 0
  %105 = load i8*, i8** %104, align 8
  call void @_ZdlPv(i8* %105) #12
  br label %106

106:                                              ; preds = %103, %81
  %107 = bitcast %"class.std::__1::basic_string"* %90 to %"struct.std::__1::basic_string<char, std::__1::char_traits<char>, std::__1::allocator<char> >::__short"*
  %108 = getelementptr inbounds %"struct.std::__1::basic_string<char, std::__1::char_traits<char>, std::__1::allocator<char> >::__short", %"struct.std::__1::basic_string<char, std::__1::char_traits<char>, std::__1::allocator<char> >::__short"* %107, i64 0, i32 1, i32 0
  %109 = load i8, i8* %108, align 1
  %110 = icmp slt i8 %109, 0
  br i1 %110, label %111, label %114

111:                                              ; preds = %106
  %112 = getelementptr inbounds %"class.std::__1::basic_string", %"class.std::__1::basic_string"* %90, i64 0, i32 0, i32 0, i32 0, i32 0, i32 0, i32 0
  %113 = load i8*, i8** %112, align 8
  call void @_ZdlPv(i8* %113) #12
  br label %114

114:                                              ; preds = %111, %106
  %115 = bitcast %"class.std::__1::basic_string"* %87 to %"struct.std::__1::basic_string<char, std::__1::char_traits<char>, std::__1::allocator<char> >::__short"*
  %116 = getelementptr inbounds %"struct.std::__1::basic_string<char, std::__1::char_traits<char>, std::__1::allocator<char> >::__short", %"struct.std::__1::basic_string<char, std::__1::char_traits<char>, std::__1::allocator<char> >::__short"* %115, i64 0, i32 1, i32 0
  %117 = load i8, i8* %116, align 1
  %118 = icmp slt i8 %117, 0
  br i1 %118, label %119, label %122

119:                                              ; preds = %114
  %120 = getelementptr inbounds %"class.std::__1::basic_string", %"class.std::__1::basic_string"* %87, i64 0, i32 0, i32 0, i32 0, i32 0, i32 0, i32 0
  %121 = load i8*, i8** %120, align 8
  call void @_ZdlPv(i8* %121) #12
  br label %122

122:                                              ; preds = %114, %119
  call void @llvm.lifetime.end.p0i8(i64 104, i8* nonnull %82) #11
  br label %123

123:                                              ; preds = %3, %40, %122
  %124 = phi i1 [ %98, %122 ], [ true, %40 ], [ true, %3 ]
  ret i1 %124
}

; Function Attrs: nounwind ssp uwtable
define linkonce_odr hidden zeroext i1 @_ZN11flatbuffers17JavaGRPCGenerator8generateEv(%"class.flatbuffers::JavaGRPCGenerator"*) unnamed_addr #0 comdat align 2 {
  %2 = alloca %"class.flatbuffers::FlatBufFile", align 8
  %3 = alloca %"struct.grpc_java_generator::Parameters", align 8
  %4 = alloca %"class.std::__1::basic_string", align 8
  %5 = alloca %"class.std::__1::basic_string", align 8
  %6 = alloca %"class.std::__1::basic_string", align 8
  %7 = alloca %"class.std::__1::basic_string", align 8
  %8 = alloca %"class.std::__1::basic_string", align 8
  %9 = alloca %"class.std::__1::basic_string", align 8
  %10 = bitcast %"class.flatbuffers::FlatBufFile"* %2 to i8*
  call void @llvm.lifetime.start.p0i8(i64 32, i8* nonnull %10) #11
  %11 = getelementptr inbounds %"class.flatbuffers::FlatBufFile", %"class.flatbuffers::FlatBufFile"* %2, i64 0, i32 0, i32 0, i32 0
  %12 = getelementptr inbounds %"class.flatbuffers::FlatBufFile", %"class.flatbuffers::FlatBufFile"* %2, i64 0, i32 1
  %13 = getelementptr inbounds %"class.flatbuffers::FlatBufFile", %"class.flatbuffers::FlatBufFile"* %2, i64 0, i32 2
  %14 = getelementptr inbounds %"class.flatbuffers::FlatBufFile", %"class.flatbuffers::FlatBufFile"* %2, i64 0, i32 3
  %15 = getelementptr inbounds %"class.flatbuffers::JavaGRPCGenerator", %"class.flatbuffers::JavaGRPCGenerator"* %0, i64 0, i32 0
  %16 = getelementptr inbounds %"class.flatbuffers::JavaGRPCGenerator", %"class.flatbuffers::JavaGRPCGenerator"* %0, i64 0, i32 0, i32 1
  %17 = bitcast %"class.flatbuffers::Parser"** %16 to i64*
  %18 = bitcast %"class.flatbuffers::FlatBufFile"* %2 to i8*
  call void @llvm.memset.p0i8.i64(i8* nonnull align 8 %18, i8 -86, i64 32, i1 false)
  %19 = load i64, i64* %17, align 8
  %20 = getelementptr inbounds %"class.flatbuffers::JavaGRPCGenerator", %"class.flatbuffers::JavaGRPCGenerator"* %0, i64 0, i32 0, i32 3
  %21 = bitcast %"class.std::__1::basic_string"** %20 to i64*
  %22 = load i64, i64* %21, align 8
  store i32 (...)** bitcast (i8** getelementptr inbounds ({ [15 x i8*] }, { [15 x i8*] }* @_ZTVN11flatbuffers11FlatBufFileE, i64 0, inrange i32 0, i64 2) to i32 (...)**), i32 (...)*** %11, align 8
  %23 = bitcast %"class.flatbuffers::Parser"** %12 to i64*
  store i64 %19, i64* %23, align 8
  %24 = bitcast %"class.std::__1::basic_string"** %13 to i64*
  store i64 %22, i64* %24, align 8
  store i32 2, i32* %14, align 8
  %25 = bitcast %"struct.grpc_java_generator::Parameters"* %3 to i8*
  call void @llvm.lifetime.start.p0i8(i64 24, i8* nonnull %25) #11
  %26 = getelementptr inbounds %"struct.grpc_java_generator::Parameters", %"struct.grpc_java_generator::Parameters"* %3, i64 0, i32 0, i32 0, i32 0, i32 0, i32 0, i32 0, i32 0
  call void @llvm.memset.p0i8.i64(i8* nonnull align 8 %25, i8 0, i64 24, i1 false) #11
  %27 = inttoptr i64 %19 to %"class.flatbuffers::Parser"*
  %28 = getelementptr inbounds %"class.flatbuffers::Parser", %"class.flatbuffers::Parser"* %27, i64 0, i32 4, i32 1
  %29 = getelementptr inbounds %"class.flatbuffers::Parser", %"class.flatbuffers::Parser"* %27, i64 0, i32 4, i32 1, i32 0, i32 1
  %30 = bitcast %"struct.flatbuffers::ServiceDef"*** %29 to i64*
  %31 = load i64, i64* %30, align 8
  %32 = bitcast %"class.std::__1::vector.101"* %28 to i64*
  %33 = load i64, i64* %32, align 8
  %34 = sub i64 %31, %33
  %35 = lshr exact i64 %34, 3
  %36 = trunc i64 %35 to i32
  %37 = icmp sgt i32 %36, 0
  br i1 %37, label %38, label %171

38:                                               ; preds = %1
  %39 = bitcast %"class.std::__1::basic_string"* %4 to i8*
  %40 = bitcast %"class.std::__1::basic_string"* %5 to i8*
  %41 = bitcast %"class.std::__1::basic_string"* %5 to %"struct.std::__1::basic_string<char, std::__1::char_traits<char>, std::__1::allocator<char> >::__short"*
  %42 = getelementptr inbounds %"struct.std::__1::basic_string<char, std::__1::char_traits<char>, std::__1::allocator<char> >::__short", %"struct.std::__1::basic_string<char, std::__1::char_traits<char>, std::__1::allocator<char> >::__short"* %41, i64 0, i32 1, i32 0
  %43 = bitcast %"struct.grpc_java_generator::Parameters"* %3 to %"struct.std::__1::basic_string<char, std::__1::char_traits<char>, std::__1::allocator<char> >::__short"*
  %44 = getelementptr inbounds %"struct.std::__1::basic_string<char, std::__1::char_traits<char>, std::__1::allocator<char> >::__short", %"struct.std::__1::basic_string<char, std::__1::char_traits<char>, std::__1::allocator<char> >::__short"* %43, i64 0, i32 1, i32 0
  %45 = bitcast %"class.std::__1::basic_string"* %4 to %"struct.std::__1::basic_string<char, std::__1::char_traits<char>, std::__1::allocator<char> >::__short"*
  %46 = getelementptr inbounds %"struct.std::__1::basic_string<char, std::__1::char_traits<char>, std::__1::allocator<char> >::__short", %"struct.std::__1::basic_string<char, std::__1::char_traits<char>, std::__1::allocator<char> >::__short"* %45, i64 0, i32 1, i32 0
  %47 = getelementptr inbounds %"class.std::__1::basic_string", %"class.std::__1::basic_string"* %5, i64 0, i32 0, i32 0, i32 0, i32 0, i32 0, i32 0
  %48 = bitcast %"class.std::__1::basic_string"* %6 to i8*
  %49 = getelementptr inbounds %"class.std::__1::basic_string", %"class.std::__1::basic_string"* %6, i64 0, i32 0, i32 0, i32 0, i32 0, i32 0, i32 0
  %50 = getelementptr inbounds %"class.std::__1::basic_string", %"class.std::__1::basic_string"* %6, i64 0, i32 0, i32 0, i32 0, i32 0, i32 0, i32 1
  %51 = getelementptr inbounds %"class.flatbuffers::FlatBufFile", %"class.flatbuffers::FlatBufFile"* %2, i64 0, i32 0
  %52 = bitcast %"class.std::__1::basic_string"* %7 to i8*
  %53 = getelementptr inbounds %"class.std::__1::basic_string", %"class.std::__1::basic_string"* %7, i64 0, i32 0, i32 0, i32 0, i32 0, i32 0, i32 0
  %54 = bitcast %"class.std::__1::basic_string"* %8 to i8*
  %55 = bitcast %"class.std::__1::basic_string"* %9 to i8*
  %56 = bitcast %"class.std::__1::basic_string"* %8 to %"struct.std::__1::basic_string<char, std::__1::char_traits<char>, std::__1::allocator<char> >::__short"*
  %57 = getelementptr inbounds %"struct.std::__1::basic_string<char, std::__1::char_traits<char>, std::__1::allocator<char> >::__short", %"struct.std::__1::basic_string<char, std::__1::char_traits<char>, std::__1::allocator<char> >::__short"* %56, i64 0, i32 1, i32 0
  %58 = getelementptr inbounds %"class.std::__1::basic_string", %"class.std::__1::basic_string"* %8, i64 0, i32 0, i32 0, i32 0, i32 0, i32 0, i32 0
  %59 = bitcast %"class.std::__1::basic_string"* %9 to %"struct.std::__1::basic_string<char, std::__1::char_traits<char>, std::__1::allocator<char> >::__short"*
  %60 = getelementptr inbounds %"struct.std::__1::basic_string<char, std::__1::char_traits<char>, std::__1::allocator<char> >::__short", %"struct.std::__1::basic_string<char, std::__1::char_traits<char>, std::__1::allocator<char> >::__short"* %59, i64 0, i32 1, i32 0
  %61 = getelementptr inbounds %"class.std::__1::basic_string", %"class.std::__1::basic_string"* %9, i64 0, i32 0, i32 0, i32 0, i32 0, i32 0, i32 0
  %62 = bitcast %"class.std::__1::basic_string"* %7 to %"struct.std::__1::basic_string<char, std::__1::char_traits<char>, std::__1::allocator<char> >::__short"*
  %63 = getelementptr inbounds %"struct.std::__1::basic_string<char, std::__1::char_traits<char>, std::__1::allocator<char> >::__short", %"struct.std::__1::basic_string<char, std::__1::char_traits<char>, std::__1::allocator<char> >::__short"* %62, i64 0, i32 1, i32 0
  %64 = bitcast %"class.std::__1::basic_string"* %6 to %"struct.std::__1::basic_string<char, std::__1::char_traits<char>, std::__1::allocator<char> >::__short"*
  %65 = getelementptr inbounds %"struct.std::__1::basic_string<char, std::__1::char_traits<char>, std::__1::allocator<char> >::__short", %"struct.std::__1::basic_string<char, std::__1::char_traits<char>, std::__1::allocator<char> >::__short"* %64, i64 0, i32 1, i32 0
  %66 = bitcast %"class.std::__1::basic_string"* %6 to i8*
  %67 = bitcast %"class.std::__1::basic_string"* %7 to i8*
  br label %80

68:                                               ; preds = %159
  %69 = load %"class.flatbuffers::Parser"*, %"class.flatbuffers::Parser"** %12, align 8
  %70 = getelementptr inbounds %"class.flatbuffers::Parser", %"class.flatbuffers::Parser"* %69, i64 0, i32 4, i32 1
  %71 = getelementptr inbounds %"class.flatbuffers::Parser", %"class.flatbuffers::Parser"* %69, i64 0, i32 4, i32 1, i32 0, i32 1
  %72 = bitcast %"struct.flatbuffers::ServiceDef"*** %71 to i64*
  %73 = load i64, i64* %72, align 8
  %74 = bitcast %"class.std::__1::vector.101"* %70 to i64*
  %75 = load i64, i64* %74, align 8
  %76 = sub i64 %73, %75
  %77 = shl i64 %76, 29
  %78 = ashr i64 %77, 32
  %79 = icmp slt i64 %164, %78
  br i1 %79, label %80, label %165

80:                                               ; preds = %38, %68
  %81 = phi i64 [ 0, %38 ], [ %164, %68 ]
  %82 = phi %"class.flatbuffers::Parser"* [ %27, %38 ], [ %69, %68 ]
  %83 = call i8* @_Znwm(i64 16) #12
  %84 = getelementptr inbounds %"class.flatbuffers::Parser", %"class.flatbuffers::Parser"* %82, i64 0, i32 4, i32 1, i32 0, i32 0
  %85 = load %"struct.flatbuffers::ServiceDef"**, %"struct.flatbuffers::ServiceDef"*** %84, align 8
  %86 = getelementptr inbounds %"struct.flatbuffers::ServiceDef"*, %"struct.flatbuffers::ServiceDef"** %85, i64 %81
  %87 = bitcast %"struct.flatbuffers::ServiceDef"** %86 to i64*
  %88 = load i64, i64* %87, align 8
  %89 = bitcast i8* %83 to i32 (...)***
  store i32 (...)** bitcast (i8** getelementptr inbounds ({ [10 x i8*] }, { [10 x i8*] }* @_ZTVN11flatbuffers14FlatBufServiceE, i64 0, inrange i32 0, i64 2) to i32 (...)**), i32 (...)*** %89, align 8
  %90 = getelementptr inbounds i8, i8* %83, i64 8
  %91 = bitcast i8* %90 to i64*
  store i64 %88, i64* %91, align 8
  %92 = bitcast i8* %83 to %"struct.grpc_generator::Service"*
  %93 = load %"class.flatbuffers::Parser"*, %"class.flatbuffers::Parser"** %16, align 8
  %94 = getelementptr inbounds %"class.flatbuffers::Parser", %"class.flatbuffers::Parser"* %93, i64 0, i32 4, i32 1, i32 0, i32 0
  %95 = load %"struct.flatbuffers::ServiceDef"**, %"struct.flatbuffers::ServiceDef"*** %94, align 8
  %96 = getelementptr inbounds %"struct.flatbuffers::ServiceDef"*, %"struct.flatbuffers::ServiceDef"** %95, i64 %81
  %97 = bitcast %"struct.flatbuffers::ServiceDef"** %96 to %"struct.flatbuffers::Definition"**
  %98 = load %"struct.flatbuffers::Definition"*, %"struct.flatbuffers::Definition"** %97, align 8
  call void @llvm.lifetime.start.p0i8(i64 24, i8* nonnull %39) #11
  %99 = getelementptr inbounds %"struct.flatbuffers::Definition", %"struct.flatbuffers::Definition"* %98, i64 0, i32 6
  %100 = load %"struct.flatbuffers::Namespace"*, %"struct.flatbuffers::Namespace"** %99, align 8
  call void @llvm.lifetime.start.p0i8(i64 24, i8* nonnull %40) #11
  store i8 0, i8* %42, align 1
  store i8 0, i8* %40, align 8
  call void @_ZNK11flatbuffers9Namespace21GetFullyQualifiedNameERKNSt3__112basic_stringIcNS1_11char_traitsIcEENS1_9allocatorIcEEEEm(%"class.std::__1::basic_string"* nonnull sret %4, %"struct.flatbuffers::Namespace"* %100, %"class.std::__1::basic_string"* nonnull dereferenceable(24) %5, i64 1000) #11
  %101 = load i8, i8* %44, align 1
  %102 = icmp slt i8 %101, 0
  br i1 %102, label %103, label %105

103:                                              ; preds = %80
  %104 = load i8*, i8** %26, align 8
  call void @_ZdlPv(i8* %104) #12
  br label %105

105:                                              ; preds = %103, %80
  call void @llvm.memcpy.p0i8.p0i8.i64(i8* nonnull align 8 %25, i8* nonnull align 8 %39, i64 24, i1 false) #11
  store i8 0, i8* %46, align 1
  store i8 0, i8* %39, align 8
  %106 = load i8, i8* %42, align 1
  %107 = icmp slt i8 %106, 0
  br i1 %107, label %108, label %110

108:                                              ; preds = %105
  %109 = load i8*, i8** %47, align 8
  call void @_ZdlPv(i8* %109) #12
  br label %110

110:                                              ; preds = %105, %108
  call void @llvm.lifetime.end.p0i8(i64 24, i8* nonnull %40) #11
  call void @llvm.lifetime.end.p0i8(i64 24, i8* nonnull %39) #11
  call void @llvm.lifetime.start.p0i8(i64 24, i8* nonnull %48) #11
  call void @llvm.memset.p0i8.i64(i8* nonnull align 8 %66, i8 -86, i64 24, i1 false)
  call void @_ZN19grpc_java_generator21GenerateServiceSourceEPN14grpc_generator4FileEPKNS0_7ServiceEPNS_10ParametersE(%"class.std::__1::basic_string"* nonnull sret %6, %"struct.grpc_generator::File"* nonnull %51, %"struct.grpc_generator::Service"* nonnull %92, %"struct.grpc_java_generator::Parameters"* nonnull %3) #11
  call void @llvm.lifetime.start.p0i8(i64 24, i8* nonnull %52) #11
  call void @llvm.memset.p0i8.i64(i8* nonnull align 8 %67, i8 -86, i64 24, i1 false)
  call void @llvm.lifetime.start.p0i8(i64 24, i8* nonnull %54) #11
  call void @llvm.lifetime.start.p0i8(i64 24, i8* nonnull %55) #11
  %111 = load %"struct.flatbuffers::Namespace"*, %"struct.flatbuffers::Namespace"** %99, align 8
  call void @_ZNK11flatbuffers13BaseGenerator12NamespaceDirERKNS_9NamespaceE(%"class.std::__1::basic_string"* nonnull sret %9, %"class.flatbuffers::BaseGenerator"* %15, %"struct.flatbuffers::Namespace"* dereferenceable(32) %111) #11
  %112 = bitcast %"struct.flatbuffers::Definition"* %98 to %"struct.std::__1::basic_string<char, std::__1::char_traits<char>, std::__1::allocator<char> >::__short"*
  %113 = getelementptr inbounds %"struct.std::__1::basic_string<char, std::__1::char_traits<char>, std::__1::allocator<char> >::__short", %"struct.std::__1::basic_string<char, std::__1::char_traits<char>, std::__1::allocator<char> >::__short"* %112, i64 0, i32 1, i32 0
  %114 = load i8, i8* %113, align 1, !noalias !43
  %115 = icmp slt i8 %114, 0
  %116 = getelementptr inbounds %"struct.flatbuffers::Definition", %"struct.flatbuffers::Definition"* %98, i64 0, i32 0, i32 0, i32 0, i32 0, i32 0, i32 0, i32 0
  %117 = load i8*, i8** %116, align 8, !noalias !43
  %118 = getelementptr inbounds %"struct.flatbuffers::Definition", %"struct.flatbuffers::Definition"* %98, i64 0, i32 0, i32 0, i32 0, i32 0, i32 0, i32 0, i32 1
  %119 = load i64, i64* %118, align 8, !noalias !43
  %120 = bitcast %"struct.flatbuffers::Definition"* %98 to i8*
  %121 = zext i8 %114 to i64
  %122 = select i1 %115, i8* %117, i8* %120
  %123 = select i1 %115, i64 %119, i64 %121
  %124 = call dereferenceable(24) %"class.std::__1::basic_string"* @_ZNSt3__112basic_stringIcNS_11char_traitsIcEENS_9allocatorIcEEE6appendEPKcm(%"class.std::__1::basic_string"* nonnull %9, i8* %122, i64 %123) #11, !noalias !43
  %125 = bitcast %"class.std::__1::basic_string"* %124 to i8*
  call void @llvm.memcpy.p0i8.p0i8.i64(i8* nonnull align 8 %54, i8* align 8 %125, i64 24, i1 false) #11
  call void @llvm.memset.p0i8.i64(i8* align 8 %125, i8 0, i64 24, i1 false) #11, !noalias !43
  %126 = call dereferenceable(24) %"class.std::__1::basic_string"* @_ZNSt3__112basic_stringIcNS_11char_traitsIcEENS_9allocatorIcEEE6appendEPKc(%"class.std::__1::basic_string"* nonnull %8, i8* getelementptr inbounds ([10 x i8], [10 x i8]* @.str.23, i64 0, i64 0)) #11, !noalias !46
  %127 = bitcast %"class.std::__1::basic_string"* %126 to i8*
  call void @llvm.memcpy.p0i8.p0i8.i64(i8* nonnull align 8 %52, i8* align 8 %127, i64 24, i1 false) #11
  call void @llvm.memset.p0i8.i64(i8* align 8 %127, i8 0, i64 24, i1 false) #11, !noalias !46
  %128 = load i8, i8* %57, align 1
  %129 = icmp slt i8 %128, 0
  br i1 %129, label %130, label %132

130:                                              ; preds = %110
  %131 = load i8*, i8** %58, align 8
  call void @_ZdlPv(i8* %131) #12
  br label %132

132:                                              ; preds = %110, %130
  %133 = load i8, i8* %60, align 1
  %134 = icmp slt i8 %133, 0
  br i1 %134, label %135, label %137

135:                                              ; preds = %132
  %136 = load i8*, i8** %61, align 8
  call void @_ZdlPv(i8* %136) #12
  br label %137

137:                                              ; preds = %132, %135
  call void @llvm.lifetime.end.p0i8(i64 24, i8* nonnull %55) #11
  call void @llvm.lifetime.end.p0i8(i64 24, i8* nonnull %54) #11
  %138 = load i8, i8* %63, align 1
  %139 = icmp slt i8 %138, 0
  %140 = load i8*, i8** %53, align 8
  %141 = select i1 %139, i8* %140, i8* %52
  %142 = load i8, i8* %65, align 1
  %143 = icmp slt i8 %142, 0
  %144 = load i8*, i8** %49, align 8
  %145 = load i64, i64* %50, align 8
  %146 = zext i8 %142 to i64
  %147 = select i1 %143, i8* %144, i8* %48
  %148 = select i1 %143, i64 %145, i64 %146
  %149 = call zeroext i1 @_ZN11flatbuffers8SaveFileEPKcS1_mb(i8* %141, i8* %147, i64 %148, i1 zeroext false) #11
  %150 = load i8, i8* %63, align 1
  %151 = icmp slt i8 %150, 0
  br i1 %151, label %152, label %154

152:                                              ; preds = %137
  %153 = load i8*, i8** %53, align 8
  call void @_ZdlPv(i8* %153) #12
  br label %154

154:                                              ; preds = %137, %152
  call void @llvm.lifetime.end.p0i8(i64 24, i8* nonnull %52) #11
  %155 = load i8, i8* %65, align 1
  %156 = icmp slt i8 %155, 0
  br i1 %156, label %157, label %159

157:                                              ; preds = %154
  %158 = load i8*, i8** %49, align 8
  call void @_ZdlPv(i8* %158) #12
  br label %159

159:                                              ; preds = %154, %157
  call void @llvm.lifetime.end.p0i8(i64 24, i8* nonnull %48) #11
  %160 = bitcast i8* %83 to void (%"struct.grpc_generator::Service"*)***
  %161 = load void (%"struct.grpc_generator::Service"*)**, void (%"struct.grpc_generator::Service"*)*** %160, align 8
  %162 = getelementptr inbounds void (%"struct.grpc_generator::Service"*)*, void (%"struct.grpc_generator::Service"*)** %161, i64 1
  %163 = load void (%"struct.grpc_generator::Service"*)*, void (%"struct.grpc_generator::Service"*)** %162, align 8
  call void %163(%"struct.grpc_generator::Service"* nonnull %92) #11
  %164 = add nuw nsw i64 %81, 1
  br i1 %149, label %68, label %165

165:                                              ; preds = %159, %68
  %166 = phi i1 [ false, %159 ], [ true, %68 ]
  %167 = load i8, i8* %44, align 1
  %168 = icmp slt i8 %167, 0
  br i1 %168, label %169, label %171

169:                                              ; preds = %165
  %170 = load i8*, i8** %26, align 8
  call void @_ZdlPv(i8* %170) #12
  br label %171

171:                                              ; preds = %1, %165, %169
  %172 = phi i1 [ %166, %165 ], [ %166, %169 ], [ true, %1 ]
  call void @llvm.lifetime.end.p0i8(i64 24, i8* nonnull %25) #11
  call void @llvm.lifetime.end.p0i8(i64 32, i8* nonnull %10) #11
  ret i1 %172
}

; Function Attrs: nounwind ssp uwtable
define hidden zeroext i1 @_ZN11flatbuffers18GeneratePythonGRPCERKNS_6ParserERKNSt3__112basic_stringIcNS3_11char_traitsIcEENS3_9allocatorIcEEEESB_(%"class.flatbuffers::Parser"* dereferenceable(1208), %"class.std::__1::basic_string"* nocapture readnone dereferenceable(24), %"class.std::__1::basic_string"* dereferenceable(24)) local_unnamed_addr #0 {
  %4 = alloca %"struct.grpc_python_generator::GeneratorConfiguration", align 8
  %5 = alloca %"class.flatbuffers::FlatBufFile", align 8
  %6 = alloca %"struct.grpc_python_generator::PrivateGenerator", align 8
  %7 = alloca %"class.std::__1::basic_string", align 8
  %8 = alloca %"class.std::__1::basic_string", align 8
  %9 = alloca %"class.std::__1::basic_string", align 8
  %10 = alloca %"class.std::__1::basic_string", align 8
  %11 = alloca %"class.std::__1::basic_string", align 8
  %12 = getelementptr inbounds %"class.flatbuffers::Parser", %"class.flatbuffers::Parser"* %0, i64 0, i32 4, i32 1, i32 0, i32 0
  %13 = load %"struct.flatbuffers::ServiceDef"**, %"struct.flatbuffers::ServiceDef"*** %12, align 8
  %14 = getelementptr inbounds %"class.flatbuffers::Parser", %"class.flatbuffers::Parser"* %0, i64 0, i32 4, i32 1, i32 0, i32 1
  %15 = load %"struct.flatbuffers::ServiceDef"**, %"struct.flatbuffers::ServiceDef"*** %14, align 8
  %16 = icmp eq %"struct.flatbuffers::ServiceDef"** %13, %15
  br i1 %16, label %288, label %17

17:                                               ; preds = %3
  %18 = ptrtoint %"struct.flatbuffers::ServiceDef"** %13 to i64
  %19 = getelementptr %"struct.flatbuffers::ServiceDef"*, %"struct.flatbuffers::ServiceDef"** %15, i64 -1
  %20 = ptrtoint %"struct.flatbuffers::ServiceDef"** %19 to i64
  %21 = sub i64 %20, %18
  %22 = lshr i64 %21, 3
  %23 = add nuw nsw i64 %22, 1
  %24 = and i64 %23, 3
  %25 = icmp ult i64 %21, 24
  br i1 %25, label %28, label %26

26:                                               ; preds = %17
  %27 = sub nsw i64 %23, %24
  br label %50

28:                                               ; preds = %50, %17
  %29 = phi i32 [ undef, %17 ], [ %84, %50 ]
  %30 = phi i32 [ 0, %17 ], [ %84, %50 ]
  %31 = phi %"struct.flatbuffers::ServiceDef"** [ %13, %17 ], [ %85, %50 ]
  %32 = icmp eq i64 %24, 0
  br i1 %32, label %47, label %33

33:                                               ; preds = %28, %33
  %34 = phi i32 [ %43, %33 ], [ %30, %28 ]
  %35 = phi %"struct.flatbuffers::ServiceDef"** [ %44, %33 ], [ %31, %28 ]
  %36 = phi i64 [ %45, %33 ], [ %24, %28 ]
  %37 = bitcast %"struct.flatbuffers::ServiceDef"** %35 to %"struct.flatbuffers::Definition"**
  %38 = load %"struct.flatbuffers::Definition"*, %"struct.flatbuffers::Definition"** %37, align 8
  %39 = getelementptr inbounds %"struct.flatbuffers::Definition", %"struct.flatbuffers::Definition"* %38, i64 0, i32 4
  %40 = load i8, i8* %39, align 8, !range !2
  %41 = xor i8 %40, 1
  %42 = zext i8 %41 to i32
  %43 = add nuw nsw i32 %34, %42
  %44 = getelementptr inbounds %"struct.flatbuffers::ServiceDef"*, %"struct.flatbuffers::ServiceDef"** %35, i64 1
  %45 = add i64 %36, -1
  %46 = icmp eq i64 %45, 0
  br i1 %46, label %47, label %33, !llvm.loop !49

47:                                               ; preds = %33, %28
  %48 = phi i32 [ %29, %28 ], [ %43, %33 ]
  %49 = icmp eq i32 %48, 0
  br i1 %49, label %288, label %88

50:                                               ; preds = %50, %26
  %51 = phi i32 [ 0, %26 ], [ %84, %50 ]
  %52 = phi %"struct.flatbuffers::ServiceDef"** [ %13, %26 ], [ %85, %50 ]
  %53 = phi i64 [ %27, %26 ], [ %86, %50 ]
  %54 = bitcast %"struct.flatbuffers::ServiceDef"** %52 to %"struct.flatbuffers::Definition"**
  %55 = load %"struct.flatbuffers::Definition"*, %"struct.flatbuffers::Definition"** %54, align 8
  %56 = getelementptr inbounds %"struct.flatbuffers::Definition", %"struct.flatbuffers::Definition"* %55, i64 0, i32 4
  %57 = load i8, i8* %56, align 8, !range !2
  %58 = xor i8 %57, 1
  %59 = zext i8 %58 to i32
  %60 = add nuw nsw i32 %51, %59
  %61 = getelementptr inbounds %"struct.flatbuffers::ServiceDef"*, %"struct.flatbuffers::ServiceDef"** %52, i64 1
  %62 = bitcast %"struct.flatbuffers::ServiceDef"** %61 to %"struct.flatbuffers::Definition"**
  %63 = load %"struct.flatbuffers::Definition"*, %"struct.flatbuffers::Definition"** %62, align 8
  %64 = getelementptr inbounds %"struct.flatbuffers::Definition", %"struct.flatbuffers::Definition"* %63, i64 0, i32 4
  %65 = load i8, i8* %64, align 8, !range !2
  %66 = xor i8 %65, 1
  %67 = zext i8 %66 to i32
  %68 = add nuw nsw i32 %60, %67
  %69 = getelementptr inbounds %"struct.flatbuffers::ServiceDef"*, %"struct.flatbuffers::ServiceDef"** %52, i64 2
  %70 = bitcast %"struct.flatbuffers::ServiceDef"** %69 to %"struct.flatbuffers::Definition"**
  %71 = load %"struct.flatbuffers::Definition"*, %"struct.flatbuffers::Definition"** %70, align 8
  %72 = getelementptr inbounds %"struct.flatbuffers::Definition", %"struct.flatbuffers::Definition"* %71, i64 0, i32 4
  %73 = load i8, i8* %72, align 8, !range !2
  %74 = xor i8 %73, 1
  %75 = zext i8 %74 to i32
  %76 = add nuw nsw i32 %68, %75
  %77 = getelementptr inbounds %"struct.flatbuffers::ServiceDef"*, %"struct.flatbuffers::ServiceDef"** %52, i64 3
  %78 = bitcast %"struct.flatbuffers::ServiceDef"** %77 to %"struct.flatbuffers::Definition"**
  %79 = load %"struct.flatbuffers::Definition"*, %"struct.flatbuffers::Definition"** %78, align 8
  %80 = getelementptr inbounds %"struct.flatbuffers::Definition", %"struct.flatbuffers::Definition"* %79, i64 0, i32 4
  %81 = load i8, i8* %80, align 8, !range !2
  %82 = xor i8 %81, 1
  %83 = zext i8 %82 to i32
  %84 = add nuw nsw i32 %76, %83
  %85 = getelementptr inbounds %"struct.flatbuffers::ServiceDef"*, %"struct.flatbuffers::ServiceDef"** %52, i64 4
  %86 = add i64 %53, -4
  %87 = icmp eq i64 %86, 0
  br i1 %87, label %28, label %50

88:                                               ; preds = %47
  %89 = bitcast %"struct.grpc_python_generator::GeneratorConfiguration"* %4 to i8*
  call void @llvm.lifetime.start.p0i8(i64 72, i8* nonnull %89) #11
  call void @llvm.memset.p0i8.i64(i8* nonnull align 8 %89, i8 0, i64 72, i1 false) #11
  %90 = bitcast %"struct.grpc_python_generator::GeneratorConfiguration"* %4 to %"struct.std::__1::basic_string<char, std::__1::char_traits<char>, std::__1::allocator<char> >::__short"*
  %91 = getelementptr inbounds %"struct.std::__1::basic_string<char, std::__1::char_traits<char>, std::__1::allocator<char> >::__short", %"struct.std::__1::basic_string<char, std::__1::char_traits<char>, std::__1::allocator<char> >::__short"* %90, i64 0, i32 1, i32 0
  store i8 4, i8* %91, align 1
  %92 = bitcast %"struct.grpc_python_generator::GeneratorConfiguration"* %4 to i32*
  store i32 1668313703, i32* %92, align 8
  %93 = getelementptr inbounds i8, i8* %89, i64 4
  store i8 0, i8* %93, align 4
  %94 = getelementptr inbounds %"struct.grpc_python_generator::GeneratorConfiguration", %"struct.grpc_python_generator::GeneratorConfiguration"* %4, i64 0, i32 1
  %95 = bitcast %"class.std::__1::basic_string"* %94 to %"struct.std::__1::basic_string<char, std::__1::char_traits<char>, std::__1::allocator<char> >::__short"*
  %96 = getelementptr inbounds %"struct.std::__1::basic_string<char, std::__1::char_traits<char>, std::__1::allocator<char> >::__short", %"struct.std::__1::basic_string<char, std::__1::char_traits<char>, std::__1::allocator<char> >::__short"* %95, i64 0, i32 1, i32 0
  store i8 9, i8* %96, align 1
  %97 = bitcast %"class.std::__1::basic_string"* %94 to i8*
  call void @llvm.memcpy.p0i8.p0i8.i64(i8* align 8 %97, i8* align 1 getelementptr inbounds ([10 x i8], [10 x i8]* @.str.4, i64 0, i64 0), i64 9, i1 false) #11
  %98 = getelementptr inbounds i8, i8* %97, i64 9
  store i8 0, i8* %98, align 1
  %99 = getelementptr inbounds %"struct.grpc_python_generator::GeneratorConfiguration", %"struct.grpc_python_generator::GeneratorConfiguration"* %4, i64 0, i32 2
  %100 = bitcast %"class.std::__1::basic_string"* %99 to %"struct.std::__1::basic_string<char, std::__1::char_traits<char>, std::__1::allocator<char> >::__short"*
  %101 = getelementptr inbounds %"struct.std::__1::basic_string<char, std::__1::char_traits<char>, std::__1::allocator<char> >::__short", %"struct.std::__1::basic_string<char, std::__1::char_traits<char>, std::__1::allocator<char> >::__short"* %100, i64 0, i32 1, i32 0
  %102 = load i8, i8* %101, align 1
  %103 = icmp slt i8 %102, 0
  br i1 %103, label %104, label %108

104:                                              ; preds = %88
  %105 = getelementptr inbounds %"struct.grpc_python_generator::GeneratorConfiguration", %"struct.grpc_python_generator::GeneratorConfiguration"* %4, i64 0, i32 2, i32 0, i32 0, i32 0, i32 0, i32 0, i32 1
  store i64 0, i64* %105, align 8
  %106 = getelementptr inbounds %"class.std::__1::basic_string", %"class.std::__1::basic_string"* %99, i64 0, i32 0, i32 0, i32 0, i32 0, i32 0, i32 0
  %107 = load i8*, i8** %106, align 8
  br label %110

108:                                              ; preds = %88
  store i8 0, i8* %101, align 1
  %109 = bitcast %"class.std::__1::basic_string"* %99 to i8*
  br label %110

110:                                              ; preds = %104, %108
  %111 = phi i8* [ %107, %104 ], [ %109, %108 ]
  store i8 0, i8* %111, align 1
  %112 = bitcast %"class.flatbuffers::FlatBufFile"* %5 to i8*
  call void @llvm.lifetime.start.p0i8(i64 32, i8* nonnull %112) #11
  %113 = getelementptr inbounds %"class.flatbuffers::FlatBufFile", %"class.flatbuffers::FlatBufFile"* %5, i64 0, i32 0, i32 0, i32 0
  %114 = getelementptr inbounds %"class.flatbuffers::FlatBufFile", %"class.flatbuffers::FlatBufFile"* %5, i64 0, i32 1
  %115 = getelementptr inbounds %"class.flatbuffers::FlatBufFile", %"class.flatbuffers::FlatBufFile"* %5, i64 0, i32 2
  %116 = getelementptr inbounds %"class.flatbuffers::FlatBufFile", %"class.flatbuffers::FlatBufFile"* %5, i64 0, i32 3
  %117 = bitcast %"class.flatbuffers::FlatBufFile"* %5 to i8*
  call void @llvm.memset.p0i8.i64(i8* nonnull align 8 %117, i8 -86, i64 32, i1 false)
  store i32 (...)** bitcast (i8** getelementptr inbounds ({ [15 x i8*] }, { [15 x i8*] }* @_ZTVN11flatbuffers11FlatBufFileE, i64 0, inrange i32 0, i64 2) to i32 (...)**), i32 (...)*** %113, align 8
  store %"class.flatbuffers::Parser"* %0, %"class.flatbuffers::Parser"** %114, align 8
  store %"class.std::__1::basic_string"* %2, %"class.std::__1::basic_string"** %115, align 8
  store i32 3, i32* %116, align 8
  %118 = bitcast %"struct.grpc_python_generator::PrivateGenerator"* %6 to i8*
  call void @llvm.lifetime.start.p0i8(i64 16, i8* nonnull %118) #11
  %119 = getelementptr inbounds %"class.flatbuffers::FlatBufFile", %"class.flatbuffers::FlatBufFile"* %5, i64 0, i32 0
  %120 = bitcast %"struct.grpc_python_generator::PrivateGenerator"* %6 to i8*
  call void @llvm.memset.p0i8.i64(i8* nonnull align 8 %120, i8 -86, i64 16, i1 false)
  call void @_ZN21grpc_python_generator16PrivateGeneratorC1ERKNS_22GeneratorConfigurationEPKN14grpc_generator4FileE(%"struct.grpc_python_generator::PrivateGenerator"* nonnull %6, %"struct.grpc_python_generator::GeneratorConfiguration"* nonnull dereferenceable(72) %4, %"struct.grpc_generator::File"* nonnull %119) #11
  %121 = bitcast %"class.std::__1::basic_string"* %7 to i8*
  call void @llvm.lifetime.start.p0i8(i64 24, i8* nonnull %121) #11
  %122 = getelementptr inbounds %"class.std::__1::basic_string", %"class.std::__1::basic_string"* %7, i64 0, i32 0, i32 0, i32 0, i32 0, i32 0, i32 0
  %123 = getelementptr inbounds %"class.std::__1::basic_string", %"class.std::__1::basic_string"* %7, i64 0, i32 0, i32 0, i32 0, i32 0, i32 0, i32 1
  %124 = bitcast %"class.std::__1::basic_string"* %7 to i8*
  call void @llvm.memset.p0i8.i64(i8* nonnull align 8 %124, i8 -86, i64 24, i1 false)
  call void @_ZN21grpc_python_generator16PrivateGenerator15GetGrpcServicesEv(%"class.std::__1::basic_string"* nonnull sret %7, %"struct.grpc_python_generator::PrivateGenerator"* nonnull %6) #11
  %125 = bitcast %"class.std::__1::basic_string"* %8 to i8*
  call void @llvm.lifetime.start.p0i8(i64 24, i8* nonnull %125) #11
  %126 = getelementptr inbounds %"class.std::__1::basic_string", %"class.std::__1::basic_string"* %8, i64 0, i32 0, i32 0, i32 0, i32 0, i32 0, i32 0
  %127 = getelementptr inbounds %"class.std::__1::basic_string", %"class.std::__1::basic_string"* %8, i64 0, i32 0, i32 0, i32 0, i32 0, i32 0, i32 1
  call void @llvm.memset.p0i8.i64(i8* nonnull align 8 %125, i8 0, i64 24, i1 false) #11
  %128 = getelementptr inbounds %"class.flatbuffers::Parser", %"class.flatbuffers::Parser"* %0, i64 0, i32 5, i32 0, i32 1
  %129 = load %"struct.flatbuffers::Namespace"**, %"struct.flatbuffers::Namespace"*** %128, align 8
  %130 = getelementptr inbounds %"struct.flatbuffers::Namespace"*, %"struct.flatbuffers::Namespace"** %129, i64 -1
  %131 = load %"struct.flatbuffers::Namespace"*, %"struct.flatbuffers::Namespace"** %130, align 8
  %132 = getelementptr inbounds %"struct.flatbuffers::Namespace", %"struct.flatbuffers::Namespace"* %131, i64 0, i32 0, i32 0, i32 0
  %133 = load %"class.std::__1::basic_string"*, %"class.std::__1::basic_string"** %132, align 8
  %134 = getelementptr inbounds %"struct.flatbuffers::Namespace", %"struct.flatbuffers::Namespace"* %131, i64 0, i32 0, i32 0, i32 1
  %135 = load %"class.std::__1::basic_string"*, %"class.std::__1::basic_string"** %134, align 8
  %136 = icmp eq %"class.std::__1::basic_string"* %133, %135
  br i1 %136, label %137, label %264

137:                                              ; preds = %110
  %138 = bitcast %"class.std::__1::basic_string"* %8 to %"struct.std::__1::basic_string<char, std::__1::char_traits<char>, std::__1::allocator<char> >::__short"*
  br label %145

139:                                              ; preds = %269
  %140 = bitcast %"class.std::__1::basic_string"* %8 to %"struct.std::__1::basic_string<char, std::__1::char_traits<char>, std::__1::allocator<char> >::__short"*
  %141 = getelementptr inbounds %"struct.std::__1::basic_string<char, std::__1::char_traits<char>, std::__1::allocator<char> >::__short", %"struct.std::__1::basic_string<char, std::__1::char_traits<char>, std::__1::allocator<char> >::__short"* %140, i64 0, i32 1, i32 0
  %142 = load i8, i8* %141, align 1, !noalias !50
  %143 = load i64, i64* %127, align 8, !noalias !50
  %144 = load i8*, i8** %126, align 8, !noalias !50
  br label %145

145:                                              ; preds = %137, %139
  %146 = phi %"struct.std::__1::basic_string<char, std::__1::char_traits<char>, std::__1::allocator<char> >::__short"* [ %138, %137 ], [ %140, %139 ]
  %147 = phi i8* [ null, %137 ], [ %144, %139 ]
  %148 = phi i64 [ 0, %137 ], [ %143, %139 ]
  %149 = phi i8 [ 0, %137 ], [ %142, %139 ]
  %150 = bitcast %"class.std::__1::basic_string"* %9 to i8*
  call void @llvm.lifetime.start.p0i8(i64 24, i8* nonnull %150) #11
  %151 = getelementptr inbounds %"class.std::__1::basic_string", %"class.std::__1::basic_string"* %9, i64 0, i32 0, i32 0, i32 0, i32 0, i32 0, i32 0
  %152 = bitcast %"class.std::__1::basic_string"* %10 to i8*
  %153 = bitcast %"class.std::__1::basic_string"* %9 to i8*
  call void @llvm.memset.p0i8.i64(i8* nonnull align 8 %153, i8 -86, i64 24, i1 false)
  call void @llvm.lifetime.start.p0i8(i64 24, i8* nonnull %152) #11
  %154 = bitcast %"class.std::__1::basic_string"* %11 to i8*
  call void @llvm.lifetime.start.p0i8(i64 24, i8* nonnull %154) #11
  %155 = getelementptr inbounds %"class.std::__1::basic_string", %"class.std::__1::basic_string"* %11, i64 0, i32 0, i32 0, i32 0, i32 0, i32 0, i32 0
  %156 = getelementptr inbounds %"class.std::__1::basic_string", %"class.std::__1::basic_string"* %11, i64 0, i32 0, i32 0, i32 0, i32 0, i32 0, i32 1
  %157 = getelementptr inbounds %"class.std::__1::basic_string", %"class.std::__1::basic_string"* %11, i64 0, i32 0, i32 0, i32 0, i32 0, i32 0, i32 2
  call void @llvm.memset.p0i8.i64(i8* nonnull align 8 %154, i8 0, i64 24, i1 false) #11, !alias.scope !50
  %158 = getelementptr inbounds %"struct.std::__1::basic_string<char, std::__1::char_traits<char>, std::__1::allocator<char> >::__short", %"struct.std::__1::basic_string<char, std::__1::char_traits<char>, std::__1::allocator<char> >::__short"* %146, i64 0, i32 1, i32 0
  %159 = icmp slt i8 %149, 0
  %160 = zext i8 %149 to i64
  %161 = select i1 %159, i64 %148, i64 %160
  %162 = select i1 %159, i8* %147, i8* %125
  %163 = add i64 %161, 1
  %164 = icmp ugt i64 %163, -17
  br i1 %164, label %165, label %167

165:                                              ; preds = %145
  %166 = bitcast %"class.std::__1::basic_string"* %11 to %"class.std::__1::__basic_string_common"*
  call void @_ZNKSt3__121__basic_string_commonILb1EE20__throw_length_errorEv(%"class.std::__1::__basic_string_common"* nonnull %166) #13
  unreachable

167:                                              ; preds = %145
  %168 = icmp ult i64 %163, 23
  br i1 %168, label %174, label %169

169:                                              ; preds = %167
  %170 = add nuw i64 %161, 17
  %171 = and i64 %170, -16
  %172 = call i8* @_Znwm(i64 %171) #12
  store i8* %172, i8** %155, align 8, !alias.scope !50
  %173 = or i64 %171, -9223372036854775808
  store i64 %173, i64* %157, align 8, !alias.scope !50
  store i64 %161, i64* %156, align 8, !alias.scope !50
  br label %179

174:                                              ; preds = %167
  %175 = trunc i64 %161 to i8
  %176 = bitcast %"class.std::__1::basic_string"* %11 to %"struct.std::__1::basic_string<char, std::__1::char_traits<char>, std::__1::allocator<char> >::__short"*
  %177 = getelementptr inbounds %"struct.std::__1::basic_string<char, std::__1::char_traits<char>, std::__1::allocator<char> >::__short", %"struct.std::__1::basic_string<char, std::__1::char_traits<char>, std::__1::allocator<char> >::__short"* %176, i64 0, i32 1, i32 0
  store i8 %175, i8* %177, align 1, !alias.scope !50
  %178 = icmp eq i64 %161, 0
  br i1 %178, label %181, label %179

179:                                              ; preds = %174, %169
  %180 = phi i8* [ %172, %169 ], [ %154, %174 ]
  call void @llvm.memcpy.p0i8.p0i8.i64(i8* nonnull align 1 %180, i8* align 1 %162, i64 %161, i1 false) #11
  br label %181

181:                                              ; preds = %174, %179
  %182 = phi i8* [ %154, %174 ], [ %180, %179 ]
  %183 = getelementptr inbounds i8, i8* %182, i64 %161
  store i8 0, i8* %183, align 1
  call void @_ZNSt3__112basic_stringIcNS_11char_traitsIcEENS_9allocatorIcEEE9push_backEc(%"class.std::__1::basic_string"* nonnull %11, i8 signext 47) #11
  %184 = bitcast %"class.std::__1::basic_string"* %2 to %"struct.std::__1::basic_string<char, std::__1::char_traits<char>, std::__1::allocator<char> >::__short"*
  %185 = getelementptr inbounds %"struct.std::__1::basic_string<char, std::__1::char_traits<char>, std::__1::allocator<char> >::__short", %"struct.std::__1::basic_string<char, std::__1::char_traits<char>, std::__1::allocator<char> >::__short"* %184, i64 0, i32 1, i32 0
  %186 = load i8, i8* %185, align 1, !noalias !53
  %187 = icmp slt i8 %186, 0
  %188 = getelementptr inbounds %"class.std::__1::basic_string", %"class.std::__1::basic_string"* %2, i64 0, i32 0, i32 0, i32 0, i32 0, i32 0, i32 0
  %189 = load i8*, i8** %188, align 8, !noalias !53
  %190 = getelementptr inbounds %"class.std::__1::basic_string", %"class.std::__1::basic_string"* %2, i64 0, i32 0, i32 0, i32 0, i32 0, i32 0, i32 1
  %191 = load i64, i64* %190, align 8, !noalias !53
  %192 = bitcast %"class.std::__1::basic_string"* %2 to i8*
  %193 = zext i8 %186 to i64
  %194 = select i1 %187, i8* %189, i8* %192
  %195 = select i1 %187, i64 %191, i64 %193
  %196 = call dereferenceable(24) %"class.std::__1::basic_string"* @_ZNSt3__112basic_stringIcNS_11char_traitsIcEENS_9allocatorIcEEE6appendEPKcm(%"class.std::__1::basic_string"* nonnull %11, i8* %194, i64 %195) #11, !noalias !53
  %197 = bitcast %"class.std::__1::basic_string"* %196 to i8*
  call void @llvm.memcpy.p0i8.p0i8.i64(i8* nonnull align 8 %152, i8* align 8 %197, i64 24, i1 false) #11
  call void @llvm.memset.p0i8.i64(i8* align 8 %197, i8 0, i64 24, i1 false) #11, !noalias !53
  %198 = call dereferenceable(24) %"class.std::__1::basic_string"* @_ZNSt3__112basic_stringIcNS_11char_traitsIcEENS_9allocatorIcEEE6appendEPKc(%"class.std::__1::basic_string"* nonnull %10, i8* getelementptr inbounds ([12 x i8], [12 x i8]* @.str.6, i64 0, i64 0)) #11, !noalias !56
  %199 = bitcast %"class.std::__1::basic_string"* %198 to i8*
  call void @llvm.memcpy.p0i8.p0i8.i64(i8* nonnull align 8 %150, i8* align 8 %199, i64 24, i1 false) #11
  call void @llvm.memset.p0i8.i64(i8* align 8 %199, i8 0, i64 24, i1 false) #11, !noalias !56
  %200 = bitcast %"class.std::__1::basic_string"* %10 to %"struct.std::__1::basic_string<char, std::__1::char_traits<char>, std::__1::allocator<char> >::__short"*
  %201 = getelementptr inbounds %"struct.std::__1::basic_string<char, std::__1::char_traits<char>, std::__1::allocator<char> >::__short", %"struct.std::__1::basic_string<char, std::__1::char_traits<char>, std::__1::allocator<char> >::__short"* %200, i64 0, i32 1, i32 0
  %202 = load i8, i8* %201, align 1
  %203 = icmp slt i8 %202, 0
  br i1 %203, label %204, label %207

204:                                              ; preds = %181
  %205 = getelementptr inbounds %"class.std::__1::basic_string", %"class.std::__1::basic_string"* %10, i64 0, i32 0, i32 0, i32 0, i32 0, i32 0, i32 0
  %206 = load i8*, i8** %205, align 8
  call void @_ZdlPv(i8* %206) #12
  br label %207

207:                                              ; preds = %181, %204
  %208 = bitcast %"class.std::__1::basic_string"* %11 to %"struct.std::__1::basic_string<char, std::__1::char_traits<char>, std::__1::allocator<char> >::__short"*
  %209 = getelementptr inbounds %"struct.std::__1::basic_string<char, std::__1::char_traits<char>, std::__1::allocator<char> >::__short", %"struct.std::__1::basic_string<char, std::__1::char_traits<char>, std::__1::allocator<char> >::__short"* %208, i64 0, i32 1, i32 0
  %210 = load i8, i8* %209, align 1
  %211 = icmp slt i8 %210, 0
  br i1 %211, label %212, label %214

212:                                              ; preds = %207
  %213 = load i8*, i8** %155, align 8
  call void @_ZdlPv(i8* %213) #12
  br label %214

214:                                              ; preds = %207, %212
  call void @llvm.lifetime.end.p0i8(i64 24, i8* nonnull %154) #11
  call void @llvm.lifetime.end.p0i8(i64 24, i8* nonnull %152) #11
  %215 = bitcast %"class.std::__1::basic_string"* %9 to %"struct.std::__1::basic_string<char, std::__1::char_traits<char>, std::__1::allocator<char> >::__short"*
  %216 = getelementptr inbounds %"struct.std::__1::basic_string<char, std::__1::char_traits<char>, std::__1::allocator<char> >::__short", %"struct.std::__1::basic_string<char, std::__1::char_traits<char>, std::__1::allocator<char> >::__short"* %215, i64 0, i32 1, i32 0
  %217 = load i8, i8* %216, align 1
  %218 = icmp slt i8 %217, 0
  %219 = load i8*, i8** %151, align 8
  %220 = select i1 %218, i8* %219, i8* %150
  %221 = bitcast %"class.std::__1::basic_string"* %7 to %"struct.std::__1::basic_string<char, std::__1::char_traits<char>, std::__1::allocator<char> >::__short"*
  %222 = getelementptr inbounds %"struct.std::__1::basic_string<char, std::__1::char_traits<char>, std::__1::allocator<char> >::__short", %"struct.std::__1::basic_string<char, std::__1::char_traits<char>, std::__1::allocator<char> >::__short"* %221, i64 0, i32 1, i32 0
  %223 = load i8, i8* %222, align 1
  %224 = icmp slt i8 %223, 0
  %225 = load i8*, i8** %122, align 8
  %226 = load i64, i64* %123, align 8
  %227 = zext i8 %223 to i64
  %228 = select i1 %224, i8* %225, i8* %121
  %229 = select i1 %224, i64 %226, i64 %227
  %230 = call zeroext i1 @_ZN11flatbuffers8SaveFileEPKcS1_mb(i8* %220, i8* %228, i64 %229, i1 zeroext false) #11
  %231 = load i8, i8* %216, align 1
  %232 = icmp slt i8 %231, 0
  br i1 %232, label %233, label %235

233:                                              ; preds = %214
  %234 = load i8*, i8** %151, align 8
  call void @_ZdlPv(i8* %234) #12
  br label %235

235:                                              ; preds = %214, %233
  call void @llvm.lifetime.end.p0i8(i64 24, i8* nonnull %150) #11
  %236 = load i8, i8* %158, align 1
  %237 = icmp slt i8 %236, 0
  br i1 %237, label %238, label %240

238:                                              ; preds = %235
  %239 = load i8*, i8** %126, align 8
  call void @_ZdlPv(i8* %239) #12
  br label %240

240:                                              ; preds = %235, %238
  call void @llvm.lifetime.end.p0i8(i64 24, i8* nonnull %125) #11
  %241 = load i8, i8* %222, align 1
  %242 = icmp slt i8 %241, 0
  br i1 %242, label %243, label %245

243:                                              ; preds = %240
  %244 = load i8*, i8** %122, align 8
  call void @_ZdlPv(i8* %244) #12
  br label %245

245:                                              ; preds = %240, %243
  call void @llvm.lifetime.end.p0i8(i64 24, i8* nonnull %121) #11
  call void @llvm.lifetime.end.p0i8(i64 16, i8* nonnull %118) #11
  call void @llvm.lifetime.end.p0i8(i64 32, i8* nonnull %112) #11
  %246 = load i8, i8* %101, align 1
  %247 = icmp slt i8 %246, 0
  br i1 %247, label %248, label %251

248:                                              ; preds = %245
  %249 = getelementptr inbounds %"class.std::__1::basic_string", %"class.std::__1::basic_string"* %99, i64 0, i32 0, i32 0, i32 0, i32 0, i32 0, i32 0
  %250 = load i8*, i8** %249, align 8
  call void @_ZdlPv(i8* %250) #12
  br label %251

251:                                              ; preds = %248, %245
  %252 = load i8, i8* %96, align 1
  %253 = icmp slt i8 %252, 0
  br i1 %253, label %254, label %257

254:                                              ; preds = %251
  %255 = getelementptr inbounds %"class.std::__1::basic_string", %"class.std::__1::basic_string"* %94, i64 0, i32 0, i32 0, i32 0, i32 0, i32 0, i32 0
  %256 = load i8*, i8** %255, align 8
  call void @_ZdlPv(i8* %256) #12
  br label %257

257:                                              ; preds = %254, %251
  %258 = load i8, i8* %91, align 1
  %259 = icmp slt i8 %258, 0
  br i1 %259, label %260, label %263

260:                                              ; preds = %257
  %261 = getelementptr inbounds %"struct.grpc_python_generator::GeneratorConfiguration", %"struct.grpc_python_generator::GeneratorConfiguration"* %4, i64 0, i32 0, i32 0, i32 0, i32 0, i32 0, i32 0, i32 0
  %262 = load i8*, i8** %261, align 8
  call void @_ZdlPv(i8* %262) #12
  br label %263

263:                                              ; preds = %257, %260
  call void @llvm.lifetime.end.p0i8(i64 72, i8* nonnull %89) #11
  br label %288

264:                                              ; preds = %110, %286
  %265 = phi %"class.std::__1::basic_string"* [ %287, %286 ], [ %133, %110 ]
  %266 = phi %"class.std::__1::basic_string"* [ %283, %286 ], [ %133, %110 ]
  %267 = icmp eq %"class.std::__1::basic_string"* %266, %265
  br i1 %267, label %269, label %268

268:                                              ; preds = %264
  call void @_ZNSt3__112basic_stringIcNS_11char_traitsIcEENS_9allocatorIcEEE9push_backEc(%"class.std::__1::basic_string"* nonnull %8, i8 signext 47) #11
  br label %269

269:                                              ; preds = %264, %268
  %270 = bitcast %"class.std::__1::basic_string"* %266 to %"struct.std::__1::basic_string<char, std::__1::char_traits<char>, std::__1::allocator<char> >::__short"*
  %271 = getelementptr inbounds %"struct.std::__1::basic_string<char, std::__1::char_traits<char>, std::__1::allocator<char> >::__short", %"struct.std::__1::basic_string<char, std::__1::char_traits<char>, std::__1::allocator<char> >::__short"* %270, i64 0, i32 1, i32 0
  %272 = load i8, i8* %271, align 1
  %273 = icmp slt i8 %272, 0
  %274 = getelementptr inbounds %"class.std::__1::basic_string", %"class.std::__1::basic_string"* %266, i64 0, i32 0, i32 0, i32 0, i32 0, i32 0, i32 0
  %275 = load i8*, i8** %274, align 8
  %276 = getelementptr inbounds %"class.std::__1::basic_string", %"class.std::__1::basic_string"* %266, i64 0, i32 0, i32 0, i32 0, i32 0, i32 0, i32 1
  %277 = load i64, i64* %276, align 8
  %278 = bitcast %"class.std::__1::basic_string"* %266 to i8*
  %279 = zext i8 %272 to i64
  %280 = select i1 %273, i8* %275, i8* %278
  %281 = select i1 %273, i64 %277, i64 %279
  %282 = call dereferenceable(24) %"class.std::__1::basic_string"* @_ZNSt3__112basic_stringIcNS_11char_traitsIcEENS_9allocatorIcEEE6appendEPKcm(%"class.std::__1::basic_string"* nonnull %8, i8* %280, i64 %281) #11
  %283 = getelementptr inbounds %"class.std::__1::basic_string", %"class.std::__1::basic_string"* %266, i64 1
  %284 = load %"class.std::__1::basic_string"*, %"class.std::__1::basic_string"** %134, align 8
  %285 = icmp eq %"class.std::__1::basic_string"* %283, %284
  br i1 %285, label %139, label %286

286:                                              ; preds = %269
  %287 = load %"class.std::__1::basic_string"*, %"class.std::__1::basic_string"** %132, align 8
  br label %264

288:                                              ; preds = %3, %47, %263
  %289 = phi i1 [ %230, %263 ], [ true, %47 ], [ true, %3 ]
  ret i1 %289
}

declare void @_ZN21grpc_python_generator16PrivateGeneratorC1ERKNS_22GeneratorConfigurationEPKN14grpc_generator4FileE(%"struct.grpc_python_generator::PrivateGenerator"*, %"struct.grpc_python_generator::GeneratorConfiguration"* dereferenceable(72), %"struct.grpc_generator::File"*) unnamed_addr #2

declare void @_ZN21grpc_python_generator16PrivateGenerator15GetGrpcServicesEv(%"class.std::__1::basic_string"* sret, %"struct.grpc_python_generator::PrivateGenerator"*) local_unnamed_addr #2

; Function Attrs: nounwind ssp uwtable
define hidden zeroext i1 @_ZN11flatbuffers17GenerateSwiftGRPCERKNS_6ParserERKNSt3__112basic_stringIcNS3_11char_traitsIcEENS3_9allocatorIcEEEESB_(%"class.flatbuffers::Parser"* dereferenceable(1208), %"class.std::__1::basic_string"* dereferenceable(24), %"class.std::__1::basic_string"* dereferenceable(24)) local_unnamed_addr #0 {
  %4 = alloca %"class.flatbuffers::SwiftGRPCGenerator", align 8
  %5 = getelementptr inbounds %"class.flatbuffers::Parser", %"class.flatbuffers::Parser"* %0, i64 0, i32 4, i32 1, i32 0, i32 0
  %6 = load %"struct.flatbuffers::ServiceDef"**, %"struct.flatbuffers::ServiceDef"*** %5, align 8
  %7 = getelementptr inbounds %"class.flatbuffers::Parser", %"class.flatbuffers::Parser"* %0, i64 0, i32 4, i32 1, i32 0, i32 1
  %8 = load %"struct.flatbuffers::ServiceDef"**, %"struct.flatbuffers::ServiceDef"*** %7, align 8
  %9 = icmp eq %"struct.flatbuffers::ServiceDef"** %6, %8
  br i1 %9, label %159, label %10

10:                                               ; preds = %3
  %11 = ptrtoint %"struct.flatbuffers::ServiceDef"** %6 to i64
  %12 = getelementptr %"struct.flatbuffers::ServiceDef"*, %"struct.flatbuffers::ServiceDef"** %8, i64 -1
  %13 = ptrtoint %"struct.flatbuffers::ServiceDef"** %12 to i64
  %14 = sub i64 %13, %11
  %15 = lshr i64 %14, 3
  %16 = add nuw nsw i64 %15, 1
  %17 = and i64 %16, 3
  %18 = icmp ult i64 %14, 24
  br i1 %18, label %21, label %19

19:                                               ; preds = %10
  %20 = sub nsw i64 %16, %17
  br label %43

21:                                               ; preds = %43, %10
  %22 = phi i32 [ undef, %10 ], [ %77, %43 ]
  %23 = phi i32 [ 0, %10 ], [ %77, %43 ]
  %24 = phi %"struct.flatbuffers::ServiceDef"** [ %6, %10 ], [ %78, %43 ]
  %25 = icmp eq i64 %17, 0
  br i1 %25, label %40, label %26

26:                                               ; preds = %21, %26
  %27 = phi i32 [ %36, %26 ], [ %23, %21 ]
  %28 = phi %"struct.flatbuffers::ServiceDef"** [ %37, %26 ], [ %24, %21 ]
  %29 = phi i64 [ %38, %26 ], [ %17, %21 ]
  %30 = bitcast %"struct.flatbuffers::ServiceDef"** %28 to %"struct.flatbuffers::Definition"**
  %31 = load %"struct.flatbuffers::Definition"*, %"struct.flatbuffers::Definition"** %30, align 8
  %32 = getelementptr inbounds %"struct.flatbuffers::Definition", %"struct.flatbuffers::Definition"* %31, i64 0, i32 4
  %33 = load i8, i8* %32, align 8, !range !2
  %34 = xor i8 %33, 1
  %35 = zext i8 %34 to i32
  %36 = add nuw nsw i32 %27, %35
  %37 = getelementptr inbounds %"struct.flatbuffers::ServiceDef"*, %"struct.flatbuffers::ServiceDef"** %28, i64 1
  %38 = add i64 %29, -1
  %39 = icmp eq i64 %38, 0
  br i1 %39, label %40, label %26, !llvm.loop !59

40:                                               ; preds = %26, %21
  %41 = phi i32 [ %22, %21 ], [ %36, %26 ]
  %42 = icmp eq i32 %41, 0
  br i1 %42, label %159, label %81

43:                                               ; preds = %43, %19
  %44 = phi i32 [ 0, %19 ], [ %77, %43 ]
  %45 = phi %"struct.flatbuffers::ServiceDef"** [ %6, %19 ], [ %78, %43 ]
  %46 = phi i64 [ %20, %19 ], [ %79, %43 ]
  %47 = bitcast %"struct.flatbuffers::ServiceDef"** %45 to %"struct.flatbuffers::Definition"**
  %48 = load %"struct.flatbuffers::Definition"*, %"struct.flatbuffers::Definition"** %47, align 8
  %49 = getelementptr inbounds %"struct.flatbuffers::Definition", %"struct.flatbuffers::Definition"* %48, i64 0, i32 4
  %50 = load i8, i8* %49, align 8, !range !2
  %51 = xor i8 %50, 1
  %52 = zext i8 %51 to i32
  %53 = add nuw nsw i32 %44, %52
  %54 = getelementptr inbounds %"struct.flatbuffers::ServiceDef"*, %"struct.flatbuffers::ServiceDef"** %45, i64 1
  %55 = bitcast %"struct.flatbuffers::ServiceDef"** %54 to %"struct.flatbuffers::Definition"**
  %56 = load %"struct.flatbuffers::Definition"*, %"struct.flatbuffers::Definition"** %55, align 8
  %57 = getelementptr inbounds %"struct.flatbuffers::Definition", %"struct.flatbuffers::Definition"* %56, i64 0, i32 4
  %58 = load i8, i8* %57, align 8, !range !2
  %59 = xor i8 %58, 1
  %60 = zext i8 %59 to i32
  %61 = add nuw nsw i32 %53, %60
  %62 = getelementptr inbounds %"struct.flatbuffers::ServiceDef"*, %"struct.flatbuffers::ServiceDef"** %45, i64 2
  %63 = bitcast %"struct.flatbuffers::ServiceDef"** %62 to %"struct.flatbuffers::Definition"**
  %64 = load %"struct.flatbuffers::Definition"*, %"struct.flatbuffers::Definition"** %63, align 8
  %65 = getelementptr inbounds %"struct.flatbuffers::Definition", %"struct.flatbuffers::Definition"* %64, i64 0, i32 4
  %66 = load i8, i8* %65, align 8, !range !2
  %67 = xor i8 %66, 1
  %68 = zext i8 %67 to i32
  %69 = add nuw nsw i32 %61, %68
  %70 = getelementptr inbounds %"struct.flatbuffers::ServiceDef"*, %"struct.flatbuffers::ServiceDef"** %45, i64 3
  %71 = bitcast %"struct.flatbuffers::ServiceDef"** %70 to %"struct.flatbuffers::Definition"**
  %72 = load %"struct.flatbuffers::Definition"*, %"struct.flatbuffers::Definition"** %71, align 8
  %73 = getelementptr inbounds %"struct.flatbuffers::Definition", %"struct.flatbuffers::Definition"* %72, i64 0, i32 4
  %74 = load i8, i8* %73, align 8, !range !2
  %75 = xor i8 %74, 1
  %76 = zext i8 %75 to i32
  %77 = add nuw nsw i32 %69, %76
  %78 = getelementptr inbounds %"struct.flatbuffers::ServiceDef"*, %"struct.flatbuffers::ServiceDef"** %45, i64 4
  %79 = add i64 %46, -4
  %80 = icmp eq i64 %79, 0
  br i1 %80, label %21, label %43

81:                                               ; preds = %40
  %82 = bitcast %"class.flatbuffers::SwiftGRPCGenerator"* %4 to i8*
  call void @llvm.lifetime.start.p0i8(i64 440, i8* nonnull %82) #11
  %83 = getelementptr inbounds %"class.flatbuffers::SwiftGRPCGenerator", %"class.flatbuffers::SwiftGRPCGenerator"* %4, i64 0, i32 0, i32 0
  %84 = getelementptr inbounds %"class.flatbuffers::SwiftGRPCGenerator", %"class.flatbuffers::SwiftGRPCGenerator"* %4, i64 0, i32 0, i32 1
  store %"class.flatbuffers::Parser"* %0, %"class.flatbuffers::Parser"** %84, align 8
  %85 = getelementptr inbounds %"class.flatbuffers::SwiftGRPCGenerator", %"class.flatbuffers::SwiftGRPCGenerator"* %4, i64 0, i32 0, i32 2
  store %"class.std::__1::basic_string"* %1, %"class.std::__1::basic_string"** %85, align 8
  %86 = getelementptr inbounds %"class.flatbuffers::SwiftGRPCGenerator", %"class.flatbuffers::SwiftGRPCGenerator"* %4, i64 0, i32 0, i32 3
  store %"class.std::__1::basic_string"* %2, %"class.std::__1::basic_string"** %86, align 8
  %87 = getelementptr inbounds %"class.flatbuffers::SwiftGRPCGenerator", %"class.flatbuffers::SwiftGRPCGenerator"* %4, i64 0, i32 0, i32 4
  %88 = bitcast %"class.std::__1::basic_string"* %87 to i8*
  store i8 0, i8* %88, align 8
  %89 = getelementptr inbounds i8, i8* %82, i64 55
  store i8 0, i8* %89, align 1
  %90 = getelementptr inbounds %"class.flatbuffers::SwiftGRPCGenerator", %"class.flatbuffers::SwiftGRPCGenerator"* %4, i64 0, i32 0, i32 5
  %91 = bitcast %"class.std::__1::basic_string"* %90 to i8*
  store i8 0, i8* %91, align 8
  %92 = getelementptr inbounds i8, i8* %82, i64 79
  store i8 0, i8* %92, align 1
  %93 = getelementptr inbounds %"class.flatbuffers::SwiftGRPCGenerator", %"class.flatbuffers::SwiftGRPCGenerator"* %4, i64 0, i32 0, i32 6
  %94 = bitcast %"class.std::__1::basic_string"* %93 to i8*
  call void @llvm.memcpy.p0i8.p0i8.i64(i8* align 8 %94, i8* nonnull align 8 getelementptr inbounds ([6 x i8], [6 x i8]* @.str.24, i64 0, i64 0), i64 5, i1 false)
  %95 = getelementptr inbounds i8, i8* %82, i64 85
  store i8 0, i8* %95, align 1
  %96 = getelementptr inbounds i8, i8* %82, i64 103
  store i8 5, i8* %96, align 1
  store i32 (...)** bitcast (i8** getelementptr inbounds ({ [6 x i8*] }, { [6 x i8*] }* @_ZTVN11flatbuffers18SwiftGRPCGeneratorE, i64 0, inrange i32 0, i64 2) to i32 (...)**), i32 (...)*** %83, align 8
  %97 = getelementptr inbounds %"class.flatbuffers::SwiftGRPCGenerator", %"class.flatbuffers::SwiftGRPCGenerator"* %4, i64 0, i32 1, i32 0, i32 0, i32 1, i32 0, i32 0, i32 0
  %98 = getelementptr inbounds %"class.flatbuffers::SwiftGRPCGenerator", %"class.flatbuffers::SwiftGRPCGenerator"* %4, i64 0, i32 1, i32 0, i32 0, i32 1, i32 0, i32 0
  %99 = getelementptr inbounds %"class.flatbuffers::SwiftGRPCGenerator", %"class.flatbuffers::SwiftGRPCGenerator"* %4, i64 0, i32 1, i32 0, i32 0, i32 0
  %100 = bitcast %"class.std::__1::__tree_node_base"** %97 to i8*
  call void @llvm.memset.p0i8.i64(i8* align 8 %100, i8 0, i64 16, i1 false) #11
  store %"class.std::__1::__tree_end_node"* %98, %"class.std::__1::__tree_end_node"** %99, align 8
  %101 = getelementptr inbounds %"class.flatbuffers::SwiftGRPCGenerator", %"class.flatbuffers::SwiftGRPCGenerator"* %4, i64 0, i32 1, i32 1
  %102 = getelementptr inbounds %"class.flatbuffers::SwiftGRPCGenerator", %"class.flatbuffers::SwiftGRPCGenerator"* %4, i64 0, i32 1, i32 1, i32 2, i32 0, i32 0
  %103 = getelementptr inbounds %"class.std::__1::basic_stringstream", %"class.std::__1::basic_stringstream"* %101, i64 0, i32 0, i32 0, i32 0
  store i32 (...)** bitcast (i8** getelementptr inbounds ({ [5 x i8*], [5 x i8*], [5 x i8*] }, { [5 x i8*], [5 x i8*], [5 x i8*] }* @_ZTVNSt3__118basic_stringstreamIcNS_11char_traitsIcEENS_9allocatorIcEEEE, i64 0, inrange i32 2, i64 3) to i32 (...)**), i32 (...)*** %102, align 8
  %104 = getelementptr inbounds %"class.flatbuffers::SwiftGRPCGenerator", %"class.flatbuffers::SwiftGRPCGenerator"* %4, i64 0, i32 1, i32 1, i32 0, i32 1, i32 0
  store i32 (...)** bitcast (i8** getelementptr inbounds ({ [5 x i8*], [5 x i8*], [5 x i8*] }, { [5 x i8*], [5 x i8*], [5 x i8*] }* @_ZTVNSt3__118basic_stringstreamIcNS_11char_traitsIcEENS_9allocatorIcEEEE, i64 0, inrange i32 1, i64 3) to i32 (...)**), i32 (...)*** %104, align 8
  %105 = getelementptr inbounds %"class.flatbuffers::SwiftGRPCGenerator", %"class.flatbuffers::SwiftGRPCGenerator"* %4, i64 0, i32 1, i32 1, i32 1
  %106 = getelementptr inbounds %"class.std::__1::basic_stringbuf", %"class.std::__1::basic_stringbuf"* %105, i64 0, i32 0
  %107 = load i64, i64* bitcast (i8** getelementptr inbounds ([10 x i8*], [10 x i8*]* @_ZTTNSt3__118basic_stringstreamIcNS_11char_traitsIcEENS_9allocatorIcEEEE, i64 0, i64 2) to i64*), align 8
  %108 = bitcast %"class.std::__1::basic_stringstream"* %101 to i64*
  store i64 %107, i64* %108, align 8
  %109 = load i64, i64* bitcast (i8** getelementptr inbounds ([10 x i8*], [10 x i8*]* @_ZTTNSt3__118basic_stringstreamIcNS_11char_traitsIcEENS_9allocatorIcEEEE, i64 0, i64 3) to i64*), align 8
  %110 = bitcast %"class.std::__1::basic_stringstream"* %101 to i8**
  %111 = inttoptr i64 %107 to i8*
  %112 = getelementptr i8, i8* %111, i64 -24
  %113 = bitcast i8* %112 to i64*
  %114 = load i64, i64* %113, align 8
  %115 = bitcast %"class.std::__1::basic_stringstream"* %101 to i8*
  %116 = getelementptr inbounds i8, i8* %115, i64 %114
  %117 = bitcast i8* %116 to i64*
  store i64 %109, i64* %117, align 8
  %118 = getelementptr inbounds %"class.flatbuffers::SwiftGRPCGenerator", %"class.flatbuffers::SwiftGRPCGenerator"* %4, i64 0, i32 1, i32 1, i32 0, i32 0, i32 1
  store i64 0, i64* %118, align 8
  %119 = load i8*, i8** %110, align 8
  %120 = getelementptr i8, i8* %119, i64 -24
  %121 = bitcast i8* %120 to i64*
  %122 = load i64, i64* %121, align 8
  %123 = getelementptr inbounds i8, i8* %115, i64 %122
  %124 = bitcast i8* %123 to %"class.std::__1::ios_base"*
  %125 = bitcast %"class.std::__1::basic_stringbuf"* %105 to i8*
  call void @_ZNSt3__18ios_base4initEPv(%"class.std::__1::ios_base"* %124, i8* %125) #11
  %126 = getelementptr inbounds i8, i8* %123, i64 136
  %127 = bitcast i8* %126 to %"class.std::__1::basic_ostream"**
  store %"class.std::__1::basic_ostream"* null, %"class.std::__1::basic_ostream"** %127, align 8
  %128 = getelementptr inbounds i8, i8* %123, i64 144
  %129 = bitcast i8* %128 to i32*
  store i32 -1, i32* %129, align 8
  %130 = getelementptr inbounds %"class.flatbuffers::SwiftGRPCGenerator", %"class.flatbuffers::SwiftGRPCGenerator"* %4, i64 0, i32 1, i32 1, i32 0, i32 1
  %131 = load i64, i64* bitcast (i8** getelementptr inbounds ([10 x i8*], [10 x i8*]* @_ZTTNSt3__118basic_stringstreamIcNS_11char_traitsIcEENS_9allocatorIcEEEE, i64 0, i64 4) to i64*), align 8
  %132 = bitcast %"class.std::__1::basic_ostream.base"* %130 to i64*
  store i64 %131, i64* %132, align 8
  %133 = load i64, i64* bitcast (i8** getelementptr inbounds ([10 x i8*], [10 x i8*]* @_ZTTNSt3__118basic_stringstreamIcNS_11char_traitsIcEENS_9allocatorIcEEEE, i64 0, i64 5) to i64*), align 8
  %134 = inttoptr i64 %131 to i8*
  %135 = getelementptr i8, i8* %134, i64 -24
  %136 = bitcast i8* %135 to i64*
  %137 = load i64, i64* %136, align 8
  %138 = bitcast %"class.std::__1::basic_ostream.base"* %130 to i8*
  %139 = getelementptr inbounds i8, i8* %138, i64 %137
  %140 = bitcast i8* %139 to i64*
  store i64 %133, i64* %140, align 8
  %141 = load i64, i64* bitcast (i8** getelementptr inbounds ([10 x i8*], [10 x i8*]* @_ZTTNSt3__118basic_stringstreamIcNS_11char_traitsIcEENS_9allocatorIcEEEE, i64 0, i64 1) to i64*), align 8
  store i64 %141, i64* %108, align 8
  %142 = load i64, i64* bitcast (i8** getelementptr inbounds ([10 x i8*], [10 x i8*]* @_ZTTNSt3__118basic_stringstreamIcNS_11char_traitsIcEENS_9allocatorIcEEEE, i64 0, i64 6) to i64*), align 8
  %143 = inttoptr i64 %141 to i8*
  %144 = getelementptr i8, i8* %143, i64 -24
  %145 = bitcast i8* %144 to i64*
  %146 = load i64, i64* %145, align 8
  %147 = getelementptr inbounds i8, i8* %115, i64 %146
  %148 = bitcast i8* %147 to i64*
  store i64 %142, i64* %148, align 8
  store i32 (...)** bitcast (i8** getelementptr inbounds ({ [5 x i8*], [5 x i8*], [5 x i8*] }, { [5 x i8*], [5 x i8*], [5 x i8*] }* @_ZTVNSt3__118basic_stringstreamIcNS_11char_traitsIcEENS_9allocatorIcEEEE, i64 0, inrange i32 0, i64 3) to i32 (...)**), i32 (...)*** %103, align 8
  store i32 (...)** bitcast (i8** getelementptr inbounds ({ [5 x i8*], [5 x i8*], [5 x i8*] }, { [5 x i8*], [5 x i8*], [5 x i8*] }* @_ZTVNSt3__118basic_stringstreamIcNS_11char_traitsIcEENS_9allocatorIcEEEE, i64 0, inrange i32 2, i64 3) to i32 (...)**), i32 (...)*** %102, align 8
  store i32 (...)** bitcast (i8** getelementptr inbounds ({ [5 x i8*], [5 x i8*], [5 x i8*] }, { [5 x i8*], [5 x i8*], [5 x i8*] }* @_ZTVNSt3__118basic_stringstreamIcNS_11char_traitsIcEENS_9allocatorIcEEEE, i64 0, inrange i32 1, i64 3) to i32 (...)**), i32 (...)*** %104, align 8
  call void @_ZNSt3__115basic_streambufIcNS_11char_traitsIcEEEC2Ev(%"class.std::__1::basic_streambuf"* %106) #11
  %149 = getelementptr inbounds %"class.std::__1::basic_stringbuf", %"class.std::__1::basic_stringbuf"* %105, i64 0, i32 0, i32 0
  store i32 (...)** bitcast (i8** getelementptr inbounds ({ [16 x i8*] }, { [16 x i8*] }* @_ZTVNSt3__115basic_stringbufIcNS_11char_traitsIcEENS_9allocatorIcEEEE, i64 0, inrange i32 0, i64 2) to i32 (...)**), i32 (...)*** %149, align 8
  %150 = getelementptr inbounds %"class.flatbuffers::SwiftGRPCGenerator", %"class.flatbuffers::SwiftGRPCGenerator"* %4, i64 0, i32 1, i32 1, i32 1, i32 1
  %151 = getelementptr inbounds %"class.flatbuffers::SwiftGRPCGenerator", %"class.flatbuffers::SwiftGRPCGenerator"* %4, i64 0, i32 1, i32 1, i32 1, i32 3
  %152 = bitcast %"class.std::__1::basic_string"* %150 to i8*
  call void @llvm.memset.p0i8.i64(i8* align 8 %152, i8 0, i64 32, i1 false) #11
  store i32 24, i32* %151, align 8
  %153 = getelementptr inbounds %"class.flatbuffers::SwiftGRPCGenerator", %"class.flatbuffers::SwiftGRPCGenerator"* %4, i64 0, i32 1, i32 2, i32 0, i32 0, i32 0, i32 0, i32 0, i32 0
  %154 = getelementptr inbounds i8, i8* %82, i64 431
  %155 = bitcast i8** %153 to i8*
  call void @llvm.memset.p0i8.i64(i8* align 8 %155, i8 0, i64 23, i1 false) #11
  store i8 0, i8* %154, align 1
  %156 = getelementptr inbounds %"class.flatbuffers::SwiftGRPCGenerator", %"class.flatbuffers::SwiftGRPCGenerator"* %4, i64 0, i32 1, i32 3
  store i32 0, i32* %156, align 8
  %157 = getelementptr inbounds %"class.flatbuffers::SwiftGRPCGenerator", %"class.flatbuffers::SwiftGRPCGenerator"* %4, i64 0, i32 1, i32 4
  store i8 0, i8* %157, align 4
  %158 = call zeroext i1 @_ZN11flatbuffers18SwiftGRPCGenerator8generateEv(%"class.flatbuffers::SwiftGRPCGenerator"* nonnull %4)
  call void @_ZN11flatbuffers18SwiftGRPCGeneratorD2Ev(%"class.flatbuffers::SwiftGRPCGenerator"* nonnull %4) #11
  call void @llvm.lifetime.end.p0i8(i64 440, i8* nonnull %82) #11
  br label %159

159:                                              ; preds = %3, %40, %81
  %160 = phi i1 [ %158, %81 ], [ true, %40 ], [ true, %3 ]
  ret i1 %160
}

; Function Attrs: nounwind ssp uwtable
define linkonce_odr hidden zeroext i1 @_ZN11flatbuffers18SwiftGRPCGenerator8generateEv(%"class.flatbuffers::SwiftGRPCGenerator"*) unnamed_addr #0 comdat align 2 {
  %2 = alloca %"class.std::__1::basic_string", align 8
  %3 = alloca %"class.std::__1::basic_string", align 8
  %4 = alloca %"class.std::__1::basic_string", align 8
  %5 = alloca %"class.flatbuffers::FlatBufFile", align 8
  %6 = alloca %"class.std::__1::basic_string", align 8
  %7 = alloca %"class.std::__1::basic_string", align 8
  %8 = alloca %"class.std::__1::basic_string", align 8
  %9 = getelementptr inbounds %"class.flatbuffers::SwiftGRPCGenerator", %"class.flatbuffers::SwiftGRPCGenerator"* %0, i64 0, i32 1
  %10 = getelementptr inbounds %"class.flatbuffers::SwiftGRPCGenerator", %"class.flatbuffers::SwiftGRPCGenerator"* %0, i64 0, i32 1, i32 1
  %11 = bitcast %"class.std::__1::basic_string"* %2 to i8*
  call void @llvm.lifetime.start.p0i8(i64 24, i8* nonnull %11) #11
  %12 = bitcast %"class.std::__1::basic_string"* %2 to %"struct.std::__1::basic_string<char, std::__1::char_traits<char>, std::__1::allocator<char> >::__short"*
  %13 = getelementptr inbounds %"struct.std::__1::basic_string<char, std::__1::char_traits<char>, std::__1::allocator<char> >::__short", %"struct.std::__1::basic_string<char, std::__1::char_traits<char>, std::__1::allocator<char> >::__short"* %12, i64 0, i32 1, i32 0
  store i8 0, i8* %13, align 1
  store i8 0, i8* %11, align 8
  %14 = getelementptr inbounds %"class.flatbuffers::SwiftGRPCGenerator", %"class.flatbuffers::SwiftGRPCGenerator"* %0, i64 0, i32 1, i32 1, i32 1
  call void @_ZNSt3__115basic_stringbufIcNS_11char_traitsIcEENS_9allocatorIcEEE3strERKNS_12basic_stringIcS2_S4_EE(%"class.std::__1::basic_stringbuf"* %14, %"class.std::__1::basic_string"* nonnull dereferenceable(24) %2) #11
  %15 = load i8, i8* %13, align 1
  %16 = icmp slt i8 %15, 0
  br i1 %16, label %17, label %20

17:                                               ; preds = %1
  %18 = getelementptr inbounds %"class.std::__1::basic_string", %"class.std::__1::basic_string"* %2, i64 0, i32 0, i32 0, i32 0, i32 0, i32 0, i32 0
  %19 = load i8*, i8** %18, align 8
  call void @_ZdlPv(i8* %19) #12
  br label %20

20:                                               ; preds = %1, %17
  call void @llvm.lifetime.end.p0i8(i64 24, i8* nonnull %11) #11
  %21 = bitcast %"class.std::__1::basic_stringstream"* %10 to i8**
  %22 = load i8*, i8** %21, align 8
  %23 = getelementptr i8, i8* %22, i64 -24
  %24 = bitcast i8* %23 to i64*
  %25 = load i64, i64* %24, align 8
  %26 = bitcast %"class.std::__1::basic_stringstream"* %10 to i8*
  %27 = getelementptr inbounds i8, i8* %26, i64 %25
  %28 = bitcast i8* %27 to %"class.std::__1::ios_base"*
  call void @_ZNSt3__18ios_base5clearEj(%"class.std::__1::ios_base"* %28, i32 0) #11
  %29 = call i8* @_Znwm(i64 48) #12
  %30 = getelementptr inbounds %"class.std::__1::basic_string", %"class.std::__1::basic_string"* %3, i64 0, i32 0, i32 0, i32 0, i32 0, i32 0, i32 0
  store i8* %29, i8** %30, align 8
  %31 = getelementptr inbounds %"class.std::__1::basic_string", %"class.std::__1::basic_string"* %3, i64 0, i32 0, i32 0, i32 0, i32 0, i32 0, i32 1
  %32 = bitcast i64* %31 to <2 x i64>*
  store <2 x i64> <i64 45, i64 -9223372036854775760>, <2 x i64>* %32, align 8
  call void @llvm.memcpy.p0i8.p0i8.i64(i8* nonnull align 1 %29, i8* align 1 getelementptr inbounds ([46 x i8], [46 x i8]* @.str.25, i64 0, i64 0), i64 45, i1 false) #11
  %33 = getelementptr inbounds i8, i8* %29, i64 45
  store i8 0, i8* %33, align 1
  call void @_ZN11flatbuffers10CodeWriterpLENSt3__112basic_stringIcNS1_11char_traitsIcEENS1_9allocatorIcEEEE(%"class.flatbuffers::CodeWriter"* %9, %"class.std::__1::basic_string"* nonnull %3) #11
  %34 = bitcast %"class.std::__1::basic_string"* %3 to %"struct.std::__1::basic_string<char, std::__1::char_traits<char>, std::__1::allocator<char> >::__short"*
  %35 = getelementptr inbounds %"struct.std::__1::basic_string<char, std::__1::char_traits<char>, std::__1::allocator<char> >::__short", %"struct.std::__1::basic_string<char, std::__1::char_traits<char>, std::__1::allocator<char> >::__short"* %34, i64 0, i32 1, i32 0
  %36 = load i8, i8* %35, align 1
  %37 = icmp slt i8 %36, 0
  br i1 %37, label %38, label %40

38:                                               ; preds = %20
  %39 = load i8*, i8** %30, align 8
  call void @_ZdlPv(i8* %39) #12
  br label %40

40:                                               ; preds = %20, %38
  call void @_ZN20grpc_swift_generator14GenerateHeaderEv(%"class.std::__1::basic_string"* nonnull sret %4) #11
  call void @_ZN11flatbuffers10CodeWriterpLENSt3__112basic_stringIcNS1_11char_traitsIcEENS1_9allocatorIcEEEE(%"class.flatbuffers::CodeWriter"* %9, %"class.std::__1::basic_string"* nonnull %4) #11
  %41 = bitcast %"class.std::__1::basic_string"* %4 to %"struct.std::__1::basic_string<char, std::__1::char_traits<char>, std::__1::allocator<char> >::__short"*
  %42 = getelementptr inbounds %"struct.std::__1::basic_string<char, std::__1::char_traits<char>, std::__1::allocator<char> >::__short", %"struct.std::__1::basic_string<char, std::__1::char_traits<char>, std::__1::allocator<char> >::__short"* %41, i64 0, i32 1, i32 0
  %43 = load i8, i8* %42, align 1
  %44 = icmp slt i8 %43, 0
  br i1 %44, label %45, label %48

45:                                               ; preds = %40
  %46 = getelementptr inbounds %"class.std::__1::basic_string", %"class.std::__1::basic_string"* %4, i64 0, i32 0, i32 0, i32 0, i32 0, i32 0, i32 0
  %47 = load i8*, i8** %46, align 8
  call void @_ZdlPv(i8* %47) #12
  br label %48

48:                                               ; preds = %40, %45
  %49 = bitcast %"class.flatbuffers::FlatBufFile"* %5 to i8*
  call void @llvm.lifetime.start.p0i8(i64 32, i8* nonnull %49) #11
  %50 = getelementptr inbounds %"class.flatbuffers::FlatBufFile", %"class.flatbuffers::FlatBufFile"* %5, i64 0, i32 0, i32 0, i32 0
  %51 = getelementptr inbounds %"class.flatbuffers::FlatBufFile", %"class.flatbuffers::FlatBufFile"* %5, i64 0, i32 1
  %52 = getelementptr inbounds %"class.flatbuffers::FlatBufFile", %"class.flatbuffers::FlatBufFile"* %5, i64 0, i32 2
  %53 = getelementptr inbounds %"class.flatbuffers::FlatBufFile", %"class.flatbuffers::FlatBufFile"* %5, i64 0, i32 3
  %54 = getelementptr inbounds %"class.flatbuffers::SwiftGRPCGenerator", %"class.flatbuffers::SwiftGRPCGenerator"* %0, i64 0, i32 0, i32 1
  %55 = bitcast %"class.flatbuffers::Parser"** %54 to i64*
  %56 = bitcast %"class.flatbuffers::FlatBufFile"* %5 to i8*
  call void @llvm.memset.p0i8.i64(i8* nonnull align 8 %56, i8 -86, i64 32, i1 false)
  %57 = load i64, i64* %55, align 8
  %58 = getelementptr inbounds %"class.flatbuffers::SwiftGRPCGenerator", %"class.flatbuffers::SwiftGRPCGenerator"* %0, i64 0, i32 0, i32 3
  %59 = bitcast %"class.std::__1::basic_string"** %58 to i64*
  %60 = load i64, i64* %59, align 8
  store i32 (...)** bitcast (i8** getelementptr inbounds ({ [15 x i8*] }, { [15 x i8*] }* @_ZTVN11flatbuffers11FlatBufFileE, i64 0, inrange i32 0, i64 2) to i32 (...)**), i32 (...)*** %50, align 8
  %61 = bitcast %"class.flatbuffers::Parser"** %51 to i64*
  store i64 %57, i64* %61, align 8
  %62 = bitcast %"class.std::__1::basic_string"** %52 to i64*
  store i64 %60, i64* %62, align 8
  store i32 4, i32* %53, align 8
  %63 = inttoptr i64 %57 to %"class.flatbuffers::Parser"*
  %64 = getelementptr inbounds %"class.flatbuffers::Parser", %"class.flatbuffers::Parser"* %63, i64 0, i32 4, i32 1
  %65 = getelementptr inbounds %"class.flatbuffers::Parser", %"class.flatbuffers::Parser"* %63, i64 0, i32 4, i32 1, i32 0, i32 1
  %66 = bitcast %"struct.flatbuffers::ServiceDef"*** %65 to i64*
  %67 = load i64, i64* %66, align 8
  %68 = bitcast %"class.std::__1::vector.101"* %64 to i64*
  %69 = load i64, i64* %68, align 8
  %70 = sub i64 %67, %69
  %71 = lshr exact i64 %70, 3
  %72 = trunc i64 %71 to i32
  %73 = icmp sgt i32 %72, 0
  br i1 %73, label %74, label %79

74:                                               ; preds = %48
  %75 = getelementptr inbounds %"class.flatbuffers::FlatBufFile", %"class.flatbuffers::FlatBufFile"* %5, i64 0, i32 0
  %76 = bitcast %"class.std::__1::basic_string"* %6 to %"struct.std::__1::basic_string<char, std::__1::char_traits<char>, std::__1::allocator<char> >::__short"*
  %77 = getelementptr inbounds %"struct.std::__1::basic_string<char, std::__1::char_traits<char>, std::__1::allocator<char> >::__short", %"struct.std::__1::basic_string<char, std::__1::char_traits<char>, std::__1::allocator<char> >::__short"* %76, i64 0, i32 1, i32 0
  %78 = getelementptr inbounds %"class.std::__1::basic_string", %"class.std::__1::basic_string"* %6, i64 0, i32 0, i32 0, i32 0, i32 0, i32 0, i32 0
  br label %116

79:                                               ; preds = %133, %48
  %80 = bitcast %"class.std::__1::basic_string"* %7 to i8*
  call void @llvm.lifetime.start.p0i8(i64 24, i8* nonnull %80) #11
  %81 = getelementptr inbounds %"class.std::__1::basic_string", %"class.std::__1::basic_string"* %7, i64 0, i32 0, i32 0, i32 0, i32 0, i32 0, i32 0
  %82 = getelementptr inbounds %"class.std::__1::basic_string", %"class.std::__1::basic_string"* %7, i64 0, i32 0, i32 0, i32 0, i32 0, i32 0, i32 1
  %83 = bitcast %"class.std::__1::basic_string"* %7 to i8*
  call void @llvm.memset.p0i8.i64(i8* nonnull align 8 %83, i8 -86, i64 24, i1 false)
  call void @_ZNKSt3__115basic_stringbufIcNS_11char_traitsIcEENS_9allocatorIcEEE3strEv(%"class.std::__1::basic_string"* nonnull sret %7, %"class.std::__1::basic_stringbuf"* %14) #11
  %84 = bitcast %"class.std::__1::basic_string"* %8 to i8*
  call void @llvm.lifetime.start.p0i8(i64 24, i8* nonnull %84) #11
  %85 = getelementptr inbounds %"class.std::__1::basic_string", %"class.std::__1::basic_string"* %8, i64 0, i32 0, i32 0, i32 0, i32 0, i32 0, i32 0
  %86 = getelementptr inbounds %"class.flatbuffers::SwiftGRPCGenerator", %"class.flatbuffers::SwiftGRPCGenerator"* %0, i64 0, i32 0, i32 2
  %87 = bitcast %"class.std::__1::basic_string"* %8 to i8*
  call void @llvm.memset.p0i8.i64(i8* nonnull align 8 %87, i8 -86, i64 24, i1 false)
  %88 = load %"class.std::__1::basic_string"*, %"class.std::__1::basic_string"** %86, align 8
  %89 = load %"class.std::__1::basic_string"*, %"class.std::__1::basic_string"** %58, align 8
  call void @_ZN11flatbuffers18SwiftGRPCGenerator17GeneratedFileNameERKNSt3__112basic_stringIcNS1_11char_traitsIcEENS1_9allocatorIcEEEES9_(%"class.std::__1::basic_string"* nonnull sret %8, %"class.std::__1::basic_string"* dereferenceable(24) %88, %"class.std::__1::basic_string"* dereferenceable(24) %89)
  %90 = bitcast %"class.std::__1::basic_string"* %8 to %"struct.std::__1::basic_string<char, std::__1::char_traits<char>, std::__1::allocator<char> >::__short"*
  %91 = getelementptr inbounds %"struct.std::__1::basic_string<char, std::__1::char_traits<char>, std::__1::allocator<char> >::__short", %"struct.std::__1::basic_string<char, std::__1::char_traits<char>, std::__1::allocator<char> >::__short"* %90, i64 0, i32 1, i32 0
  %92 = load i8, i8* %91, align 1
  %93 = icmp slt i8 %92, 0
  %94 = load i8*, i8** %85, align 8
  %95 = select i1 %93, i8* %94, i8* %84
  %96 = bitcast %"class.std::__1::basic_string"* %7 to %"struct.std::__1::basic_string<char, std::__1::char_traits<char>, std::__1::allocator<char> >::__short"*
  %97 = getelementptr inbounds %"struct.std::__1::basic_string<char, std::__1::char_traits<char>, std::__1::allocator<char> >::__short", %"struct.std::__1::basic_string<char, std::__1::char_traits<char>, std::__1::allocator<char> >::__short"* %96, i64 0, i32 1, i32 0
  %98 = load i8, i8* %97, align 1
  %99 = icmp slt i8 %98, 0
  %100 = load i8*, i8** %81, align 8
  %101 = load i64, i64* %82, align 8
  %102 = zext i8 %98 to i64
  %103 = select i1 %99, i8* %100, i8* %80
  %104 = select i1 %99, i64 %101, i64 %102
  %105 = call zeroext i1 @_ZN11flatbuffers8SaveFileEPKcS1_mb(i8* %95, i8* %103, i64 %104, i1 zeroext false) #11
  %106 = load i8, i8* %91, align 1
  %107 = icmp slt i8 %106, 0
  br i1 %107, label %108, label %110

108:                                              ; preds = %79
  %109 = load i8*, i8** %85, align 8
  call void @_ZdlPv(i8* %109) #12
  br label %110

110:                                              ; preds = %79, %108
  call void @llvm.lifetime.end.p0i8(i64 24, i8* nonnull %84) #11
  %111 = load i8, i8* %97, align 1
  %112 = icmp slt i8 %111, 0
  br i1 %112, label %113, label %115

113:                                              ; preds = %110
  %114 = load i8*, i8** %81, align 8
  call void @_ZdlPv(i8* %114) #12
  br label %115

115:                                              ; preds = %110, %113
  call void @llvm.lifetime.end.p0i8(i64 24, i8* nonnull %80) #11
  call void @llvm.lifetime.end.p0i8(i64 32, i8* nonnull %49) #11
  ret i1 %105

116:                                              ; preds = %74, %133
  %117 = phi i64 [ 0, %74 ], [ %138, %133 ]
  %118 = phi %"class.flatbuffers::Parser"* [ %63, %74 ], [ %139, %133 ]
  %119 = call i8* @_Znwm(i64 16) #12
  %120 = getelementptr inbounds %"class.flatbuffers::Parser", %"class.flatbuffers::Parser"* %118, i64 0, i32 4, i32 1, i32 0, i32 0
  %121 = load %"struct.flatbuffers::ServiceDef"**, %"struct.flatbuffers::ServiceDef"*** %120, align 8
  %122 = getelementptr inbounds %"struct.flatbuffers::ServiceDef"*, %"struct.flatbuffers::ServiceDef"** %121, i64 %117
  %123 = bitcast %"struct.flatbuffers::ServiceDef"** %122 to i64*
  %124 = load i64, i64* %123, align 8
  %125 = bitcast i8* %119 to i32 (...)***
  store i32 (...)** bitcast (i8** getelementptr inbounds ({ [10 x i8*] }, { [10 x i8*] }* @_ZTVN11flatbuffers14FlatBufServiceE, i64 0, inrange i32 0, i64 2) to i32 (...)**), i32 (...)*** %125, align 8
  %126 = getelementptr inbounds i8, i8* %119, i64 8
  %127 = bitcast i8* %126 to i64*
  store i64 %124, i64* %127, align 8
  %128 = bitcast i8* %119 to %"struct.grpc_generator::Service"*
  call void @_ZN20grpc_swift_generator8GenerateEPN14grpc_generator4FileEPKNS0_7ServiceE(%"class.std::__1::basic_string"* nonnull sret %6, %"struct.grpc_generator::File"* nonnull %75, %"struct.grpc_generator::Service"* nonnull %128) #11
  call void @_ZN11flatbuffers10CodeWriterpLENSt3__112basic_stringIcNS1_11char_traitsIcEENS1_9allocatorIcEEEE(%"class.flatbuffers::CodeWriter"* %9, %"class.std::__1::basic_string"* nonnull %6) #11
  %129 = load i8, i8* %77, align 1
  %130 = icmp slt i8 %129, 0
  br i1 %130, label %131, label %133

131:                                              ; preds = %116
  %132 = load i8*, i8** %78, align 8
  call void @_ZdlPv(i8* %132) #12
  br label %133

133:                                              ; preds = %116, %131
  %134 = bitcast i8* %119 to void (%"struct.grpc_generator::Service"*)***
  %135 = load void (%"struct.grpc_generator::Service"*)**, void (%"struct.grpc_generator::Service"*)*** %134, align 8
  %136 = getelementptr inbounds void (%"struct.grpc_generator::Service"*)*, void (%"struct.grpc_generator::Service"*)** %135, i64 1
  %137 = load void (%"struct.grpc_generator::Service"*)*, void (%"struct.grpc_generator::Service"*)** %136, align 8
  call void %137(%"struct.grpc_generator::Service"* nonnull %128) #11
  %138 = add nuw nsw i64 %117, 1
  %139 = load %"class.flatbuffers::Parser"*, %"class.flatbuffers::Parser"** %51, align 8
  %140 = getelementptr inbounds %"class.flatbuffers::Parser", %"class.flatbuffers::Parser"* %139, i64 0, i32 4, i32 1
  %141 = getelementptr inbounds %"class.flatbuffers::Parser", %"class.flatbuffers::Parser"* %139, i64 0, i32 4, i32 1, i32 0, i32 1
  %142 = bitcast %"struct.flatbuffers::ServiceDef"*** %141 to i64*
  %143 = load i64, i64* %142, align 8
  %144 = bitcast %"class.std::__1::vector.101"* %140 to i64*
  %145 = load i64, i64* %144, align 8
  %146 = sub i64 %143, %145
  %147 = shl i64 %146, 29
  %148 = ashr i64 %147, 32
  %149 = icmp slt i64 %138, %148
  br i1 %149, label %116, label %79
}

; Function Attrs: inlinehint nounwind ssp uwtable
define linkonce_odr hidden void @_ZN11flatbuffers18SwiftGRPCGeneratorD2Ev(%"class.flatbuffers::SwiftGRPCGenerator"*) unnamed_addr #3 comdat align 2 {
  %2 = getelementptr inbounds %"class.flatbuffers::SwiftGRPCGenerator", %"class.flatbuffers::SwiftGRPCGenerator"* %0, i64 0, i32 0, i32 0
  store i32 (...)** bitcast (i8** getelementptr inbounds ({ [6 x i8*] }, { [6 x i8*] }* @_ZTVN11flatbuffers18SwiftGRPCGeneratorE, i64 0, inrange i32 0, i64 2) to i32 (...)**), i32 (...)*** %2, align 8
  %3 = getelementptr inbounds %"class.flatbuffers::SwiftGRPCGenerator", %"class.flatbuffers::SwiftGRPCGenerator"* %0, i64 0, i32 1, i32 2
  %4 = bitcast %"class.std::__1::basic_string"* %3 to %"struct.std::__1::basic_string<char, std::__1::char_traits<char>, std::__1::allocator<char> >::__short"*
  %5 = getelementptr inbounds %"struct.std::__1::basic_string<char, std::__1::char_traits<char>, std::__1::allocator<char> >::__short", %"struct.std::__1::basic_string<char, std::__1::char_traits<char>, std::__1::allocator<char> >::__short"* %4, i64 0, i32 1, i32 0
  %6 = load i8, i8* %5, align 1
  %7 = icmp slt i8 %6, 0
  br i1 %7, label %8, label %11

8:                                                ; preds = %1
  %9 = getelementptr inbounds %"class.std::__1::basic_string", %"class.std::__1::basic_string"* %3, i64 0, i32 0, i32 0, i32 0, i32 0, i32 0, i32 0
  %10 = load i8*, i8** %9, align 8
  tail call void @_ZdlPv(i8* %10) #12
  br label %11

11:                                               ; preds = %8, %1
  %12 = getelementptr inbounds %"class.flatbuffers::SwiftGRPCGenerator", %"class.flatbuffers::SwiftGRPCGenerator"* %0, i64 0, i32 1, i32 1
  %13 = load i64, i64* bitcast ([10 x i8*]* @_ZTTNSt3__118basic_stringstreamIcNS_11char_traitsIcEENS_9allocatorIcEEEE to i64*), align 8
  %14 = bitcast %"class.std::__1::basic_stringstream"* %12 to i64*
  store i64 %13, i64* %14, align 8
  %15 = load i64, i64* bitcast (i8** getelementptr inbounds ([10 x i8*], [10 x i8*]* @_ZTTNSt3__118basic_stringstreamIcNS_11char_traitsIcEENS_9allocatorIcEEEE, i64 0, i64 8) to i64*), align 8
  %16 = inttoptr i64 %13 to i8*
  %17 = getelementptr i8, i8* %16, i64 -24
  %18 = bitcast i8* %17 to i64*
  %19 = load i64, i64* %18, align 8
  %20 = bitcast %"class.std::__1::basic_stringstream"* %12 to i8*
  %21 = getelementptr inbounds i8, i8* %20, i64 %19
  %22 = bitcast i8* %21 to i64*
  store i64 %15, i64* %22, align 8
  %23 = load i64, i64* bitcast (i8** getelementptr inbounds ([10 x i8*], [10 x i8*]* @_ZTTNSt3__118basic_stringstreamIcNS_11char_traitsIcEENS_9allocatorIcEEEE, i64 0, i64 9) to i64*), align 8
  %24 = getelementptr inbounds %"class.flatbuffers::SwiftGRPCGenerator", %"class.flatbuffers::SwiftGRPCGenerator"* %0, i64 0, i32 1, i32 1, i32 0, i32 1
  %25 = bitcast %"class.std::__1::basic_ostream.base"* %24 to i64*
  store i64 %23, i64* %25, align 8
  %26 = getelementptr inbounds %"class.flatbuffers::SwiftGRPCGenerator", %"class.flatbuffers::SwiftGRPCGenerator"* %0, i64 0, i32 1, i32 1, i32 1
  %27 = getelementptr inbounds %"class.std::__1::basic_stringbuf", %"class.std::__1::basic_stringbuf"* %26, i64 0, i32 0, i32 0
  store i32 (...)** bitcast (i8** getelementptr inbounds ({ [16 x i8*] }, { [16 x i8*] }* @_ZTVNSt3__115basic_stringbufIcNS_11char_traitsIcEENS_9allocatorIcEEEE, i64 0, inrange i32 0, i64 2) to i32 (...)**), i32 (...)*** %27, align 8
  %28 = getelementptr inbounds %"class.flatbuffers::SwiftGRPCGenerator", %"class.flatbuffers::SwiftGRPCGenerator"* %0, i64 0, i32 1, i32 1, i32 1, i32 1
  %29 = bitcast %"class.std::__1::basic_string"* %28 to %"struct.std::__1::basic_string<char, std::__1::char_traits<char>, std::__1::allocator<char> >::__short"*
  %30 = getelementptr inbounds %"struct.std::__1::basic_string<char, std::__1::char_traits<char>, std::__1::allocator<char> >::__short", %"struct.std::__1::basic_string<char, std::__1::char_traits<char>, std::__1::allocator<char> >::__short"* %29, i64 0, i32 1, i32 0
  %31 = load i8, i8* %30, align 1
  %32 = icmp slt i8 %31, 0
  br i1 %32, label %33, label %36

33:                                               ; preds = %11
  %34 = getelementptr inbounds %"class.std::__1::basic_string", %"class.std::__1::basic_string"* %28, i64 0, i32 0, i32 0, i32 0, i32 0, i32 0, i32 0
  %35 = load i8*, i8** %34, align 8
  tail call void @_ZdlPv(i8* %35) #12
  br label %36

36:                                               ; preds = %11, %33
  %37 = getelementptr inbounds %"class.std::__1::basic_stringbuf", %"class.std::__1::basic_stringbuf"* %26, i64 0, i32 0
  tail call void @_ZNSt3__115basic_streambufIcNS_11char_traitsIcEEED2Ev(%"class.std::__1::basic_streambuf"* %37) #11
  %38 = bitcast %"class.std::__1::basic_stringstream"* %12 to %"class.std::__1::basic_iostream"*
  tail call void @_ZNSt3__114basic_iostreamIcNS_11char_traitsIcEEED2Ev(%"class.std::__1::basic_iostream"* %38, i8** getelementptr inbounds ([10 x i8*], [10 x i8*]* @_ZTTNSt3__118basic_stringstreamIcNS_11char_traitsIcEENS_9allocatorIcEEEE, i64 0, i64 1)) #11
  %39 = getelementptr inbounds %"class.flatbuffers::SwiftGRPCGenerator", %"class.flatbuffers::SwiftGRPCGenerator"* %0, i64 0, i32 1, i32 1, i32 2
  %40 = bitcast %"class.std::__1::basic_ios.base"* %39 to %"class.std::__1::basic_ios"*
  tail call void @_ZNSt3__19basic_iosIcNS_11char_traitsIcEEED2Ev(%"class.std::__1::basic_ios"* %40) #11
  %41 = getelementptr inbounds %"class.flatbuffers::SwiftGRPCGenerator", %"class.flatbuffers::SwiftGRPCGenerator"* %0, i64 0, i32 1, i32 0, i32 0
  %42 = getelementptr inbounds %"class.flatbuffers::SwiftGRPCGenerator", %"class.flatbuffers::SwiftGRPCGenerator"* %0, i64 0, i32 1, i32 0, i32 0, i32 1, i32 0, i32 0
  %43 = bitcast %"class.std::__1::__tree_end_node"* %42 to %"class.std::__1::__tree_node.244"**
  %44 = load %"class.std::__1::__tree_node.244"*, %"class.std::__1::__tree_node.244"** %43, align 8
  tail call void @_ZNSt3__16__treeINS_12__value_typeINS_12basic_stringIcNS_11char_traitsIcEENS_9allocatorIcEEEES7_EENS_19__map_value_compareIS7_S8_NS_4lessIS7_EELb1EEENS5_IS8_EEE7destroyEPNS_11__tree_nodeIS8_PvEE(%"class.std::__1::__tree.171"* %41, %"class.std::__1::__tree_node.244"* %44) #11
  store i32 (...)** bitcast (i8** getelementptr inbounds ({ [6 x i8*] }, { [6 x i8*] }* @_ZTVN11flatbuffers13BaseGeneratorE, i64 0, inrange i32 0, i64 2) to i32 (...)**), i32 (...)*** %2, align 8
  %45 = getelementptr inbounds %"class.flatbuffers::SwiftGRPCGenerator", %"class.flatbuffers::SwiftGRPCGenerator"* %0, i64 0, i32 0, i32 6
  %46 = bitcast %"class.std::__1::basic_string"* %45 to %"struct.std::__1::basic_string<char, std::__1::char_traits<char>, std::__1::allocator<char> >::__short"*
  %47 = getelementptr inbounds %"struct.std::__1::basic_string<char, std::__1::char_traits<char>, std::__1::allocator<char> >::__short", %"struct.std::__1::basic_string<char, std::__1::char_traits<char>, std::__1::allocator<char> >::__short"* %46, i64 0, i32 1, i32 0
  %48 = load i8, i8* %47, align 1
  %49 = icmp slt i8 %48, 0
  br i1 %49, label %50, label %53

50:                                               ; preds = %36
  %51 = getelementptr inbounds %"class.std::__1::basic_string", %"class.std::__1::basic_string"* %45, i64 0, i32 0, i32 0, i32 0, i32 0, i32 0, i32 0
  %52 = load i8*, i8** %51, align 8
  tail call void @_ZdlPv(i8* %52) #12
  br label %53

53:                                               ; preds = %50, %36
  %54 = getelementptr inbounds %"class.flatbuffers::SwiftGRPCGenerator", %"class.flatbuffers::SwiftGRPCGenerator"* %0, i64 0, i32 0, i32 5
  %55 = bitcast %"class.std::__1::basic_string"* %54 to %"struct.std::__1::basic_string<char, std::__1::char_traits<char>, std::__1::allocator<char> >::__short"*
  %56 = getelementptr inbounds %"struct.std::__1::basic_string<char, std::__1::char_traits<char>, std::__1::allocator<char> >::__short", %"struct.std::__1::basic_string<char, std::__1::char_traits<char>, std::__1::allocator<char> >::__short"* %55, i64 0, i32 1, i32 0
  %57 = load i8, i8* %56, align 1
  %58 = icmp slt i8 %57, 0
  br i1 %58, label %59, label %62

59:                                               ; preds = %53
  %60 = getelementptr inbounds %"class.std::__1::basic_string", %"class.std::__1::basic_string"* %54, i64 0, i32 0, i32 0, i32 0, i32 0, i32 0, i32 0
  %61 = load i8*, i8** %60, align 8
  tail call void @_ZdlPv(i8* %61) #12
  br label %62

62:                                               ; preds = %59, %53
  %63 = getelementptr inbounds %"class.flatbuffers::SwiftGRPCGenerator", %"class.flatbuffers::SwiftGRPCGenerator"* %0, i64 0, i32 0, i32 4
  %64 = bitcast %"class.std::__1::basic_string"* %63 to %"struct.std::__1::basic_string<char, std::__1::char_traits<char>, std::__1::allocator<char> >::__short"*
  %65 = getelementptr inbounds %"struct.std::__1::basic_string<char, std::__1::char_traits<char>, std::__1::allocator<char> >::__short", %"struct.std::__1::basic_string<char, std::__1::char_traits<char>, std::__1::allocator<char> >::__short"* %64, i64 0, i32 1, i32 0
  %66 = load i8, i8* %65, align 1
  %67 = icmp slt i8 %66, 0
  br i1 %67, label %68, label %71

68:                                               ; preds = %62
  %69 = getelementptr inbounds %"class.std::__1::basic_string", %"class.std::__1::basic_string"* %63, i64 0, i32 0, i32 0, i32 0, i32 0, i32 0, i32 0
  %70 = load i8*, i8** %69, align 8
  tail call void @_ZdlPv(i8* %70) #12
  br label %71

71:                                               ; preds = %62, %68
  ret void
}

; Function Attrs: inlinehint nounwind ssp uwtable
define linkonce_odr hidden void @_ZN11flatbuffers15GoGRPCGeneratorD0Ev(%"class.flatbuffers::GoGRPCGenerator"*) unnamed_addr #3 comdat align 2 {
  %2 = getelementptr inbounds %"class.flatbuffers::GoGRPCGenerator", %"class.flatbuffers::GoGRPCGenerator"* %0, i64 0, i32 0, i32 0
  store i32 (...)** bitcast (i8** getelementptr inbounds ({ [6 x i8*] }, { [6 x i8*] }* @_ZTVN11flatbuffers13BaseGeneratorE, i64 0, inrange i32 0, i64 2) to i32 (...)**), i32 (...)*** %2, align 8
  %3 = getelementptr inbounds %"class.flatbuffers::GoGRPCGenerator", %"class.flatbuffers::GoGRPCGenerator"* %0, i64 0, i32 0, i32 6
  %4 = bitcast %"class.std::__1::basic_string"* %3 to %"struct.std::__1::basic_string<char, std::__1::char_traits<char>, std::__1::allocator<char> >::__short"*
  %5 = getelementptr inbounds %"struct.std::__1::basic_string<char, std::__1::char_traits<char>, std::__1::allocator<char> >::__short", %"struct.std::__1::basic_string<char, std::__1::char_traits<char>, std::__1::allocator<char> >::__short"* %4, i64 0, i32 1, i32 0
  %6 = load i8, i8* %5, align 1
  %7 = icmp slt i8 %6, 0
  br i1 %7, label %8, label %11

8:                                                ; preds = %1
  %9 = getelementptr inbounds %"class.std::__1::basic_string", %"class.std::__1::basic_string"* %3, i64 0, i32 0, i32 0, i32 0, i32 0, i32 0, i32 0
  %10 = load i8*, i8** %9, align 8
  tail call void @_ZdlPv(i8* %10) #12
  br label %11

11:                                               ; preds = %8, %1
  %12 = getelementptr inbounds %"class.flatbuffers::GoGRPCGenerator", %"class.flatbuffers::GoGRPCGenerator"* %0, i64 0, i32 0, i32 5
  %13 = bitcast %"class.std::__1::basic_string"* %12 to %"struct.std::__1::basic_string<char, std::__1::char_traits<char>, std::__1::allocator<char> >::__short"*
  %14 = getelementptr inbounds %"struct.std::__1::basic_string<char, std::__1::char_traits<char>, std::__1::allocator<char> >::__short", %"struct.std::__1::basic_string<char, std::__1::char_traits<char>, std::__1::allocator<char> >::__short"* %13, i64 0, i32 1, i32 0
  %15 = load i8, i8* %14, align 1
  %16 = icmp slt i8 %15, 0
  br i1 %16, label %17, label %20

17:                                               ; preds = %11
  %18 = getelementptr inbounds %"class.std::__1::basic_string", %"class.std::__1::basic_string"* %12, i64 0, i32 0, i32 0, i32 0, i32 0, i32 0, i32 0
  %19 = load i8*, i8** %18, align 8
  tail call void @_ZdlPv(i8* %19) #12
  br label %20

20:                                               ; preds = %17, %11
  %21 = getelementptr inbounds %"class.flatbuffers::GoGRPCGenerator", %"class.flatbuffers::GoGRPCGenerator"* %0, i64 0, i32 0, i32 4
  %22 = bitcast %"class.std::__1::basic_string"* %21 to %"struct.std::__1::basic_string<char, std::__1::char_traits<char>, std::__1::allocator<char> >::__short"*
  %23 = getelementptr inbounds %"struct.std::__1::basic_string<char, std::__1::char_traits<char>, std::__1::allocator<char> >::__short", %"struct.std::__1::basic_string<char, std::__1::char_traits<char>, std::__1::allocator<char> >::__short"* %22, i64 0, i32 1, i32 0
  %24 = load i8, i8* %23, align 1
  %25 = icmp slt i8 %24, 0
  br i1 %25, label %26, label %29

26:                                               ; preds = %20
  %27 = getelementptr inbounds %"class.std::__1::basic_string", %"class.std::__1::basic_string"* %21, i64 0, i32 0, i32 0, i32 0, i32 0, i32 0, i32 0
  %28 = load i8*, i8** %27, align 8
  tail call void @_ZdlPv(i8* %28) #12
  br label %29

29:                                               ; preds = %20, %26
  %30 = bitcast %"class.flatbuffers::GoGRPCGenerator"* %0 to i8*
  tail call void @_ZdlPv(i8* %30) #12
  ret void
}

; Function Attrs: nounwind ssp uwtable
define linkonce_odr hidden %"struct.flatbuffers::Namespace"* @_ZNK11flatbuffers13BaseGenerator16CurrentNameSpaceEv(%"class.flatbuffers::BaseGenerator"*) unnamed_addr #0 comdat align 2 {
  ret %"struct.flatbuffers::Namespace"* null
}

; Function Attrs: noreturn
declare void @_ZNKSt3__121__basic_string_commonILb1EE20__throw_length_errorEv(%"class.std::__1::__basic_string_common"*) local_unnamed_addr #4

; Function Attrs: nobuiltin nofree
declare noalias nonnull i8* @_Znwm(i64) local_unnamed_addr #5

; Function Attrs: argmemonly nounwind
declare void @llvm.memcpy.p0i8.p0i8.i64(i8* nocapture writeonly, i8* nocapture readonly, i64, i1 immarg) #1

; Function Attrs: argmemonly nofree nounwind readonly
declare i64 @strlen(i8* nocapture) local_unnamed_addr #6

declare void @__cxa_pure_virtual() unnamed_addr

; Function Attrs: nounwind ssp uwtable
define linkonce_odr hidden void @_ZN11flatbuffers13BaseGeneratorD0Ev(%"class.flatbuffers::BaseGenerator"*) unnamed_addr #0 comdat align 2 {
  tail call void @llvm.trap() #13
  unreachable
}

declare void @_ZNSt3__112basic_stringIcNS_11char_traitsIcEENS_9allocatorIcEEE25__init_copy_ctor_externalEPKcm(%"class.std::__1::basic_string"*, i8*, i64) local_unnamed_addr #2

; Function Attrs: cold noreturn nounwind
declare void @llvm.trap() #7

; Function Attrs: nobuiltin nounwind
declare void @_ZdlPv(i8*) local_unnamed_addr #8

; Function Attrs: nounwind ssp uwtable
define linkonce_odr hidden i32 @_ZNK11flatbuffers11FlatBufFile13service_countEv(%"class.flatbuffers::FlatBufFile"*) unnamed_addr #0 comdat align 2 {
  %2 = getelementptr inbounds %"class.flatbuffers::FlatBufFile", %"class.flatbuffers::FlatBufFile"* %0, i64 0, i32 1
  %3 = load %"class.flatbuffers::Parser"*, %"class.flatbuffers::Parser"** %2, align 8
  %4 = getelementptr inbounds %"class.flatbuffers::Parser", %"class.flatbuffers::Parser"* %3, i64 0, i32 4, i32 1
  %5 = getelementptr inbounds %"class.flatbuffers::Parser", %"class.flatbuffers::Parser"* %3, i64 0, i32 4, i32 1, i32 0, i32 1
  %6 = bitcast %"struct.flatbuffers::ServiceDef"*** %5 to i64*
  %7 = load i64, i64* %6, align 8
  %8 = bitcast %"class.std::__1::vector.101"* %4 to i64*
  %9 = load i64, i64* %8, align 8
  %10 = sub i64 %7, %9
  %11 = lshr exact i64 %10, 3
  %12 = trunc i64 %11 to i32
  ret i32 %12
}

; Function Attrs: nounwind ssp uwtable
define linkonce_odr hidden %"struct.grpc_generator::Service"* @_ZNK11flatbuffers11FlatBufFile7serviceEi(%"class.flatbuffers::FlatBufFile"*, i32) unnamed_addr #0 comdat align 2 {
  %3 = tail call i8* @_Znwm(i64 16) #12
  %4 = getelementptr inbounds %"class.flatbuffers::FlatBufFile", %"class.flatbuffers::FlatBufFile"* %0, i64 0, i32 1
  %5 = load %"class.flatbuffers::Parser"*, %"class.flatbuffers::Parser"** %4, align 8
  %6 = sext i32 %1 to i64
  %7 = getelementptr inbounds %"class.flatbuffers::Parser", %"class.flatbuffers::Parser"* %5, i64 0, i32 4, i32 1, i32 0, i32 0
  %8 = load %"struct.flatbuffers::ServiceDef"**, %"struct.flatbuffers::ServiceDef"*** %7, align 8
  %9 = getelementptr inbounds %"struct.flatbuffers::ServiceDef"*, %"struct.flatbuffers::ServiceDef"** %8, i64 %6
  %10 = bitcast %"struct.flatbuffers::ServiceDef"** %9 to i64*
  %11 = load i64, i64* %10, align 8
  %12 = bitcast i8* %3 to i32 (...)***
  store i32 (...)** bitcast (i8** getelementptr inbounds ({ [10 x i8*] }, { [10 x i8*] }* @_ZTVN11flatbuffers14FlatBufServiceE, i64 0, inrange i32 0, i64 2) to i32 (...)**), i32 (...)*** %12, align 8
  %13 = getelementptr inbounds i8, i8* %3, i64 8
  %14 = bitcast i8* %13 to i64*
  store i64 %11, i64* %14, align 8
  %15 = bitcast i8* %3 to %"struct.grpc_generator::Service"*
  ret %"struct.grpc_generator::Service"* %15
}

declare void @_ZN11flatbuffers13BaseGenerator17LastNamespacePartERKNS_9NamespaceE(%"class.std::__1::basic_string"* sret, %"struct.flatbuffers::Namespace"* dereferenceable(32)) local_unnamed_addr #2

declare void @_ZNK11flatbuffers9Namespace21GetFullyQualifiedNameERKNSt3__112basic_stringIcNS1_11char_traitsIcEENS1_9allocatorIcEEEEm(%"class.std::__1::basic_string"* sret, %"struct.flatbuffers::Namespace"*, %"class.std::__1::basic_string"* dereferenceable(24), i64) local_unnamed_addr #2

declare void @_ZN17grpc_go_generator21GenerateServiceSourceEPN14grpc_generator4FileEPKNS0_7ServiceEPNS_10ParametersE(%"class.std::__1::basic_string"* sret, %"struct.grpc_generator::File"*, %"struct.grpc_generator::Service"*, %"struct.grpc_go_generator::Parameters"*) local_unnamed_addr #2

declare void @_ZNK11flatbuffers13BaseGenerator12NamespaceDirERKNS_9NamespaceE(%"class.std::__1::basic_string"* sret, %"class.flatbuffers::BaseGenerator"*, %"struct.flatbuffers::Namespace"* dereferenceable(32)) local_unnamed_addr #2

; Function Attrs: inlinehint nounwind ssp uwtable
define linkonce_odr hidden void @_ZN11flatbuffers14FlatBufServiceD0Ev(%"class.flatbuffers::FlatBufService"*) unnamed_addr #3 comdat align 2 {
  %2 = bitcast %"class.flatbuffers::FlatBufService"* %0 to i8*
  tail call void @_ZdlPv(i8* %2) #12
  ret void
}

; Function Attrs: nounwind ssp uwtable
define linkonce_odr hidden void @_ZNK11flatbuffers14FlatBufService18GetLeadingCommentsENSt3__112basic_stringIcNS1_11char_traitsIcEENS1_9allocatorIcEEEE(%"class.std::__1::basic_string"* noalias sret, %"class.flatbuffers::FlatBufService"*, %"class.std::__1::basic_string"*) unnamed_addr #0 comdat align 2 {
  %4 = bitcast %"class.std::__1::basic_string"* %0 to %"struct.std::__1::basic_string<char, std::__1::char_traits<char>, std::__1::allocator<char> >::__short"*
  %5 = getelementptr inbounds %"struct.std::__1::basic_string<char, std::__1::char_traits<char>, std::__1::allocator<char> >::__short", %"struct.std::__1::basic_string<char, std::__1::char_traits<char>, std::__1::allocator<char> >::__short"* %4, i64 0, i32 1, i32 0
  store i8 0, i8* %5, align 1
  %6 = bitcast %"class.std::__1::basic_string"* %0 to i8*
  store i8 0, i8* %6, align 8
  ret void
}

; Function Attrs: nounwind ssp uwtable
define linkonce_odr hidden void @_ZNK11flatbuffers14FlatBufService19GetTrailingCommentsENSt3__112basic_stringIcNS1_11char_traitsIcEENS1_9allocatorIcEEEE(%"class.std::__1::basic_string"* noalias sret, %"class.flatbuffers::FlatBufService"*, %"class.std::__1::basic_string"*) unnamed_addr #0 comdat align 2 {
  %4 = bitcast %"class.std::__1::basic_string"* %0 to %"struct.std::__1::basic_string<char, std::__1::char_traits<char>, std::__1::allocator<char> >::__short"*
  %5 = getelementptr inbounds %"struct.std::__1::basic_string<char, std::__1::char_traits<char>, std::__1::allocator<char> >::__short", %"struct.std::__1::basic_string<char, std::__1::char_traits<char>, std::__1::allocator<char> >::__short"* %4, i64 0, i32 1, i32 0
  store i8 0, i8* %5, align 1
  %6 = bitcast %"class.std::__1::basic_string"* %0 to i8*
  store i8 0, i8* %6, align 8
  ret void
}

; Function Attrs: nounwind ssp uwtable
define linkonce_odr hidden void @_ZNK11flatbuffers14FlatBufService14GetAllCommentsEv(%"class.std::__1::vector"* noalias sret, %"class.flatbuffers::FlatBufService"*) unnamed_addr #0 comdat align 2 {
  %3 = getelementptr inbounds %"class.flatbuffers::FlatBufService", %"class.flatbuffers::FlatBufService"* %1, i64 0, i32 1
  %4 = bitcast %"struct.flatbuffers::ServiceDef"** %3 to %"struct.flatbuffers::Definition"**
  %5 = load %"struct.flatbuffers::Definition"*, %"struct.flatbuffers::Definition"** %4, align 8
  %6 = getelementptr inbounds %"struct.flatbuffers::Definition", %"struct.flatbuffers::Definition"* %5, i64 0, i32 2
  %7 = bitcast %"class.std::__1::vector"* %0 to i8*
  tail call void @llvm.memset.p0i8.i64(i8* align 8 %7, i8 0, i64 24, i1 false) #11
  %8 = getelementptr inbounds %"struct.flatbuffers::Definition", %"struct.flatbuffers::Definition"* %5, i64 0, i32 2, i32 0, i32 1
  %9 = bitcast %"class.std::__1::basic_string"** %8 to i64*
  %10 = load i64, i64* %9, align 8
  %11 = bitcast %"class.std::__1::vector"* %6 to i64*
  %12 = load i64, i64* %11, align 8
  %13 = sub i64 %10, %12
  %14 = sdiv exact i64 %13, 24
  %15 = icmp eq i64 %13, 0
  br i1 %15, label %57, label %16

16:                                               ; preds = %2
  %17 = icmp ugt i64 %14, 768614336404564650
  br i1 %17, label %18, label %20

18:                                               ; preds = %16
  %19 = bitcast %"class.std::__1::vector"* %0 to %"class.std::__1::__vector_base_common"*
  tail call void @_ZNKSt3__120__vector_base_commonILb1EE20__throw_length_errorEv(%"class.std::__1::__vector_base_common"* %19) #13
  unreachable

20:                                               ; preds = %16
  %21 = tail call i8* @_Znwm(i64 %13) #12
  %22 = bitcast i8* %21 to %"class.std::__1::basic_string"*
  %23 = getelementptr inbounds %"class.std::__1::vector", %"class.std::__1::vector"* %0, i64 0, i32 0, i32 1
  %24 = bitcast %"class.std::__1::basic_string"** %23 to i8**
  store i8* %21, i8** %24, align 8
  %25 = bitcast %"class.std::__1::vector"* %0 to i8**
  store i8* %21, i8** %25, align 8
  %26 = getelementptr inbounds %"class.std::__1::basic_string", %"class.std::__1::basic_string"* %22, i64 %14
  %27 = getelementptr inbounds %"class.std::__1::vector", %"class.std::__1::vector"* %0, i64 0, i32 0, i32 2, i32 0, i32 0
  store %"class.std::__1::basic_string"* %26, %"class.std::__1::basic_string"** %27, align 8
  %28 = getelementptr inbounds %"class.std::__1::vector", %"class.std::__1::vector"* %6, i64 0, i32 0, i32 0
  %29 = load %"class.std::__1::basic_string"*, %"class.std::__1::basic_string"** %28, align 8
  %30 = load %"class.std::__1::basic_string"*, %"class.std::__1::basic_string"** %8, align 8
  %31 = bitcast %"class.std::__1::basic_string"** %23 to i64*
  %32 = ptrtoint i8* %21 to i64
  %33 = icmp eq %"class.std::__1::basic_string"* %29, %30
  br i1 %33, label %55, label %34

34:                                               ; preds = %20, %49
  %35 = phi %"class.std::__1::basic_string"* [ %51, %49 ], [ %22, %20 ]
  %36 = phi %"class.std::__1::basic_string"* [ %50, %49 ], [ %29, %20 ]
  %37 = bitcast %"class.std::__1::basic_string"* %36 to %"struct.std::__1::basic_string<char, std::__1::char_traits<char>, std::__1::allocator<char> >::__short"*
  %38 = getelementptr inbounds %"struct.std::__1::basic_string<char, std::__1::char_traits<char>, std::__1::allocator<char> >::__short", %"struct.std::__1::basic_string<char, std::__1::char_traits<char>, std::__1::allocator<char> >::__short"* %37, i64 0, i32 1, i32 0
  %39 = load i8, i8* %38, align 1
  %40 = icmp slt i8 %39, 0
  br i1 %40, label %44, label %41

41:                                               ; preds = %34
  %42 = bitcast %"class.std::__1::basic_string"* %35 to i8*
  %43 = bitcast %"class.std::__1::basic_string"* %36 to i8*
  tail call void @llvm.memcpy.p0i8.p0i8.i64(i8* align 8 %42, i8* align 8 %43, i64 24, i1 false) #11
  br label %49

44:                                               ; preds = %34
  %45 = getelementptr inbounds %"class.std::__1::basic_string", %"class.std::__1::basic_string"* %36, i64 0, i32 0, i32 0, i32 0, i32 0, i32 0, i32 0
  %46 = load i8*, i8** %45, align 8
  %47 = getelementptr inbounds %"class.std::__1::basic_string", %"class.std::__1::basic_string"* %36, i64 0, i32 0, i32 0, i32 0, i32 0, i32 0, i32 1
  %48 = load i64, i64* %47, align 8
  tail call void @_ZNSt3__112basic_stringIcNS_11char_traitsIcEENS_9allocatorIcEEE25__init_copy_ctor_externalEPKcm(%"class.std::__1::basic_string"* %35, i8* %46, i64 %48) #11
  br label %49

49:                                               ; preds = %44, %41
  %50 = getelementptr inbounds %"class.std::__1::basic_string", %"class.std::__1::basic_string"* %36, i64 1
  %51 = getelementptr inbounds %"class.std::__1::basic_string", %"class.std::__1::basic_string"* %35, i64 1
  %52 = icmp eq %"class.std::__1::basic_string"* %50, %30
  br i1 %52, label %53, label %34

53:                                               ; preds = %49
  %54 = ptrtoint %"class.std::__1::basic_string"* %51 to i64
  br label %55

55:                                               ; preds = %53, %20
  %56 = phi i64 [ %32, %20 ], [ %54, %53 ]
  store i64 %56, i64* %31, align 8
  br label %57

57:                                               ; preds = %2, %55
  ret void
}

; Function Attrs: nounwind ssp uwtable
define linkonce_odr hidden void @_ZNK11flatbuffers14FlatBufService4nameEv(%"class.std::__1::basic_string"* noalias sret, %"class.flatbuffers::FlatBufService"*) unnamed_addr #0 comdat align 2 {
  %3 = getelementptr inbounds %"class.flatbuffers::FlatBufService", %"class.flatbuffers::FlatBufService"* %1, i64 0, i32 1
  %4 = bitcast %"struct.flatbuffers::ServiceDef"** %3 to %"struct.flatbuffers::Definition"**
  %5 = load %"struct.flatbuffers::Definition"*, %"struct.flatbuffers::Definition"** %4, align 8
