; ModuleID = '../../extensions/browser/image_sanitizer.cc'
source_filename = "../../extensions/browser/image_sanitizer.cc"
target datalayout = "e-m:e-i64:64-f80:128-n8:16:32:64-S128"
target triple = "x86_64-unknown-linux-gnu"

module asm ".symver exp, exp@GLIBC_2.2.5"
module asm ".symver exp2, exp2@GLIBC_2.2.5"
module asm ".symver exp2f, exp2f@GLIBC_2.2.5"
module asm ".symver expf, expf@GLIBC_2.2.5"
module asm ".symver lgamma, lgamma@GLIBC_2.2.5"
module asm ".symver lgammaf, lgammaf@GLIBC_2.2.5"
module asm ".symver lgammal, lgammal@GLIBC_2.2.5"
module asm ".symver log, log@GLIBC_2.2.5"
module asm ".symver log2, log2@GLIBC_2.2.5"
module asm ".symver log2f, log2f@GLIBC_2.2.5"
module asm ".symver logf, logf@GLIBC_2.2.5"
module asm ".symver pow, pow@GLIBC_2.2.5"
module asm ".symver powf, powf@GLIBC_2.2.5"

%"class.extensions::ImageSanitizer" = type { %"class.base::FilePath", %"class.std::__1::set", %"class.base::RepeatingCallback", %"class.base::OnceCallback", %class.scoped_refptr.12, %"class.mojo::Remote", %"class.base::WeakPtrFactory.182" }
%"class.base::FilePath" = type { %"class.std::__1::basic_string" }
%"class.std::__1::basic_string" = type { %"class.std::__1::__compressed_pair.0" }
%"class.std::__1::__compressed_pair.0" = type { %"struct.std::__1::__compressed_pair_elem.1" }
%"struct.std::__1::__compressed_pair_elem.1" = type { %"struct.std::__1::basic_string<char, std::__1::char_traits<char>, std::__1::allocator<char> >::__rep" }
%"struct.std::__1::basic_string<char, std::__1::char_traits<char>, std::__1::allocator<char> >::__rep" = type { %union.anon }
%union.anon = type { %"struct.std::__1::basic_string<char, std::__1::char_traits<char>, std::__1::allocator<char> >::__long" }
%"struct.std::__1::basic_string<char, std::__1::char_traits<char>, std::__1::allocator<char> >::__long" = type { i8*, i64, i64 }
%"class.std::__1::set" = type { %"class.std::__1::__tree" }
%"class.std::__1::__tree" = type { %"class.std::__1::__tree_end_node"*, %"class.std::__1::__compressed_pair.3", %"class.std::__1::__compressed_pair.8" }
%"class.std::__1::__tree_end_node" = type { %"class.std::__1::__tree_node_base"* }
%"class.std::__1::__tree_node_base" = type <{ %"class.std::__1::__tree_end_node", %"class.std::__1::__tree_node_base"*, %"class.std::__1::__tree_end_node"*, i8, [7 x i8] }>
%"class.std::__1::__compressed_pair.3" = type { %"struct.std::__1::__compressed_pair_elem.4" }
%"struct.std::__1::__compressed_pair_elem.4" = type { %"class.std::__1::__tree_end_node" }
%"class.std::__1::__compressed_pair.8" = type { %"struct.std::__1::__compressed_pair_elem.9" }
%"struct.std::__1::__compressed_pair_elem.9" = type { i64 }
%"class.base::RepeatingCallback" = type { %"class.base::internal::CallbackBaseCopyable" }
%"class.base::internal::CallbackBaseCopyable" = type { %"class.base::internal::CallbackBase" }
%"class.base::internal::CallbackBase" = type { %class.scoped_refptr }
%class.scoped_refptr = type { %"class.base::internal::BindStateBase"* }
%"class.base::internal::BindStateBase" = type { %"class.base::RefCountedThreadSafe", void ()*, void (%"class.base::internal::BindStateBase"*)*, i1 (%"class.base::internal::BindStateBase"*, i32)* }
%"class.base::RefCountedThreadSafe" = type { %"class.base::subtle::RefCountedThreadSafeBase" }
%"class.base::subtle::RefCountedThreadSafeBase" = type { %"class.base::AtomicRefCount" }
%"class.base::AtomicRefCount" = type { %"struct.std::__1::atomic" }
%"struct.std::__1::atomic" = type { %"struct.std::__1::__atomic_base" }
%"struct.std::__1::__atomic_base" = type { %"struct.std::__1::__atomic_base.11" }
%"struct.std::__1::__atomic_base.11" = type { %"struct.std::__1::__cxx_atomic_impl" }
%"struct.std::__1::__cxx_atomic_impl" = type { %"struct.std::__1::__cxx_atomic_base_impl" }
%"struct.std::__1::__cxx_atomic_base_impl" = type { i32 }
%"class.base::OnceCallback" = type { %"class.base::internal::CallbackBase" }
%class.scoped_refptr.12 = type { %"class.base::SequencedTaskRunner"* }
%"class.base::SequencedTaskRunner" = type { %"class.base::TaskRunner.base", [4 x i8] }
%"class.base::TaskRunner.base" = type <{ i32 (...)**, %"class.base::RefCountedThreadSafe.13" }>
%"class.base::RefCountedThreadSafe.13" = type { %"class.base::subtle::RefCountedThreadSafeBase" }
%"class.mojo::Remote" = type { %"class.mojo::internal::InterfacePtrState" }
%"class.mojo::internal::InterfacePtrState" = type { %"class.mojo::internal::InterfacePtrStateBase.base", %"class.std::__1::unique_ptr.176" }
%"class.mojo::internal::InterfacePtrStateBase.base" = type <{ %class.scoped_refptr.14, %"class.std::__1::unique_ptr.126", %"class.mojo::ScopedHandleBase", [4 x i8], %class.scoped_refptr.12, i32 }>
%class.scoped_refptr.14 = type { %"class.mojo::internal::MultiplexRouter"* }
%"class.mojo::internal::MultiplexRouter" = type <{ %"class.mojo::MessageReceiver", %"class.mojo::AssociatedGroupController.base", [4 x i8], %"class.mojo::PipeControlMessageHandlerDelegate", i32, i8, [3 x i8], %class.scoped_refptr.12, %"class.mojo::MessageHeaderValidator"*, %"class.mojo::MessageDispatcher", %"class.mojo::Connector", %"class.mojo::ScopedHandleBase", [4 x i8], %"class.absl::optional.89", %"class.absl::optional.94", %"class.absl::optional.50", %"class.mojo::PipeControlMessageHandler", %"class.mojo::PipeControlMessageProxy", %"class.base::small_map", i32, [4 x i8], %"class.base::circular_deque", %"class.std::__1::map.117", i8, [7 x i8], %class.scoped_refptr.12, i8, i8, i8, i8, i8, [3 x i8] }>
%"class.mojo::MessageReceiver" = type { i32 (...)** }
%"class.mojo::AssociatedGroupController.base" = type <{ i32 (...)**, %"class.base::RefCountedThreadSafe.15" }>
%"class.base::RefCountedThreadSafe.15" = type { %"class.base::subtle::RefCountedThreadSafeBase" }
%"class.mojo::PipeControlMessageHandlerDelegate" = type { i32 (...)** }
%"class.mojo::MessageHeaderValidator" = type { %"class.mojo::MessageReceiver", %"class.std::__1::basic_string" }
%"class.mojo::MessageDispatcher" = type { %"class.mojo::MessageReceiver", %"class.std::__1::unique_ptr.16", %"class.std::__1::unique_ptr.20", %"class.mojo::MessageReceiver"*, %"class.base::WeakPtrFactory" }
%"class.std::__1::unique_ptr.16" = type { %"class.std::__1::__compressed_pair.17" }
%"class.std::__1::__compressed_pair.17" = type { %"struct.std::__1::__compressed_pair_elem.18" }
%"struct.std::__1::__compressed_pair_elem.18" = type { %"class.mojo::MessageReceiver"* }
%"class.std::__1::unique_ptr.20" = type { %"class.std::__1::__compressed_pair.21" }
%"class.std::__1::__compressed_pair.21" = type { %"struct.std::__1::__compressed_pair_elem.22" }
%"struct.std::__1::__compressed_pair_elem.22" = type { %"class.mojo::MessageFilter"* }
%"class.mojo::MessageFilter" = type { i32 (...)** }
%"class.base::WeakPtrFactory" = type { %"class.base::internal::WeakPtrFactoryBase" }
%"class.base::internal::WeakPtrFactoryBase" = type { %"class.base::internal::WeakReferenceOwner", i64 }
%"class.base::internal::WeakReferenceOwner" = type { %class.scoped_refptr.26 }
%class.scoped_refptr.26 = type { %"class.base::internal::WeakReference::Flag"* }
%"class.base::internal::WeakReference::Flag" = type <{ %"class.base::RefCountedThreadSafe.27", %"class.base::AtomicFlag", [3 x i8] }>
%"class.base::RefCountedThreadSafe.27" = type { %"class.base::subtle::RefCountedThreadSafeBase" }
%"class.base::AtomicFlag" = type { %"struct.std::__1::atomic.28" }
%"struct.std::__1::atomic.28" = type { %"struct.std::__1::__atomic_base.29" }
%"struct.std::__1::__atomic_base.29" = type { %"struct.std::__1::__atomic_base.30" }
%"struct.std::__1::__atomic_base.30" = type { %"struct.std::__1::__cxx_atomic_impl.31" }
%"struct.std::__1::__cxx_atomic_impl.31" = type { %"struct.std::__1::__cxx_atomic_base_impl.32" }
%"struct.std::__1::__cxx_atomic_base_impl.32" = type { i8 }
%"class.mojo::Connector" = type { %"class.mojo::MessageReceiver", %"class.base::OnceCallback.33", %"class.mojo::ScopedHandleBase", %"class.mojo::MessageReceiver"*, %class.scoped_refptr.12, %"class.std::__1::unique_ptr.34", %"class.absl::optional", %"struct.std::__1::atomic.46", i8, i8, i8, i8, i32, i32, %"class.absl::optional.50", %"class.std::__1::unique_ptr.55", i8, i64, %class.scoped_refptr.85, %"class.base::Lock", i8, i8*, %"class.mojo::Connector::RunLoopNestingObserver"*, i8, i64, %"class.mojo::ConnectionGroup::Ref", %"class.base::WeakPtr", %"class.base::WeakPtrFactory.88" }
%"class.base::OnceCallback.33" = type { %"class.base::internal::CallbackBase" }
%"class.std::__1::unique_ptr.34" = type { %"class.std::__1::__compressed_pair.35" }
%"class.std::__1::__compressed_pair.35" = type { %"struct.std::__1::__compressed_pair_elem.36" }
%"struct.std::__1::__compressed_pair_elem.36" = type { %"class.mojo::SimpleWatcher"* }
%"class.mojo::SimpleWatcher" = type { i32, %class.scoped_refptr.12, i8, %"class.mojo::ScopedHandleBase.37", %class.scoped_refptr.38, %"class.mojo::Handle", i32, %"class.base::RepeatingCallback.39", i8*, %"class.base::WeakPtrFactory.40" }
%"class.mojo::ScopedHandleBase.37" = type { %"class.mojo::TrapHandle" }
%"class.mojo::TrapHandle" = type { %"class.mojo::Handle" }
%class.scoped_refptr.38 = type { %"class.mojo::SimpleWatcher::Context"* }
%"class.mojo::SimpleWatcher::Context" = type opaque
%"class.mojo::Handle" = type { i32 }
%"class.base::RepeatingCallback.39" = type { %"class.base::internal::CallbackBaseCopyable" }
%"class.base::WeakPtrFactory.40" = type { %"class.base::internal::WeakPtrFactoryBase" }
%"class.absl::optional" = type { %"class.absl::optional_internal::optional_data" }
%"class.absl::optional_internal::optional_data" = type { %"class.absl::optional_internal::optional_data_base" }
%"class.absl::optional_internal::optional_data_base" = type { %"class.absl::optional_internal::optional_data_dtor_base" }
%"class.absl::optional_internal::optional_data_dtor_base" = type { i8, %union.anon.44 }
%union.anon.44 = type { %"class.mojo::HandleSignalTracker" }
%"class.mojo::HandleSignalTracker" = type { %"class.base::RepeatingCallback.45", %"struct.mojo::HandleSignalsState", %"class.mojo::SimpleWatcher", %"class.mojo::SimpleWatcher" }
%"class.base::RepeatingCallback.45" = type { %"class.base::internal::CallbackBaseCopyable" }
%"struct.mojo::HandleSignalsState" = type { %struct.MojoHandleSignalsState }
%struct.MojoHandleSignalsState = type { i32, i32 }
%"struct.std::__1::atomic.46" = type { %"struct.std::__1::__atomic_base.47" }
%"struct.std::__1::__atomic_base.47" = type { %"struct.std::__1::__cxx_atomic_impl.48" }
%"struct.std::__1::__cxx_atomic_impl.48" = type { %"struct.std::__1::__cxx_atomic_base_impl.49" }
%"struct.std::__1::__cxx_atomic_base_impl.49" = type { i8 }
%"class.std::__1::unique_ptr.55" = type { %"class.std::__1::__compressed_pair.56" }
%"class.std::__1::__compressed_pair.56" = type { %"struct.std::__1::__compressed_pair_elem.57" }
%"struct.std::__1::__compressed_pair_elem.57" = type { %"class.mojo::SyncHandleWatcher"* }
%"class.mojo::SyncHandleWatcher" = type { %"class.mojo::Handle", i32, %"class.base::RepeatingCallback.58", i8, i64, %class.scoped_refptr.59, %class.scoped_refptr.81 }
%"class.base::RepeatingCallback.58" = type { %"class.base::internal::CallbackBaseCopyable" }
%class.scoped_refptr.59 = type { %"class.mojo::SyncHandleRegistry"* }
%"class.mojo::SyncHandleRegistry" = type <{ %"class.base::RefCounted", [4 x i8], %"class.mojo::WaitSet", %"class.std::__1::map", %"class.std::__1::map.70", i8, [7 x i8] }>
%"class.base::RefCounted" = type { %"class.base::subtle::RefCountedBase" }
%"class.base::subtle::RefCountedBase" = type { i32 }
%"class.mojo::WaitSet" = type { %class.scoped_refptr.60 }
%class.scoped_refptr.60 = type { %"class.mojo::WaitSet::State"* }
%"class.mojo::WaitSet::State" = type opaque
%"class.std::__1::map" = type { %"class.std::__1::__tree.61" }
%"class.std::__1::__tree.61" = type { %"class.std::__1::__tree_end_node"*, %"class.std::__1::__compressed_pair.62", %"class.std::__1::__compressed_pair.66" }
%"class.std::__1::__compressed_pair.62" = type { %"struct.std::__1::__compressed_pair_elem.4" }
%"class.std::__1::__compressed_pair.66" = type { %"struct.std::__1::__compressed_pair_elem.9" }
%"class.std::__1::map.70" = type { %"class.std::__1::__tree.71" }
%"class.std::__1::__tree.71" = type { %"class.std::__1::__tree_end_node"*, %"class.std::__1::__compressed_pair.72", %"class.std::__1::__compressed_pair.76" }
%"class.std::__1::__compressed_pair.72" = type { %"struct.std::__1::__compressed_pair_elem.4" }
%"class.std::__1::__compressed_pair.76" = type { %"struct.std::__1::__compressed_pair_elem.9" }
%class.scoped_refptr.81 = type { %"class.base::RefCountedData"* }
%"class.base::RefCountedData" = type opaque
%class.scoped_refptr.85 = type { %"class.mojo::internal::MessageQuotaChecker"* }
%"class.mojo::internal::MessageQuotaChecker" = type opaque
%"class.base::Lock" = type { %"class.base::internal::LockImpl" }
%"class.base::internal::LockImpl" = type { %union.pthread_mutex_t }
%union.pthread_mutex_t = type { %struct.__pthread_mutex_s }
%struct.__pthread_mutex_s = type { i32, i32, i32, i32, i32, i16, i16, %struct.__pthread_internal_list }
%struct.__pthread_internal_list = type { %struct.__pthread_internal_list*, %struct.__pthread_internal_list* }
%"class.mojo::Connector::RunLoopNestingObserver" = type opaque
%"class.mojo::ConnectionGroup::Ref" = type { i32, %class.scoped_refptr.86 }
%class.scoped_refptr.86 = type { %"class.mojo::ConnectionGroup"* }
%"class.mojo::ConnectionGroup" = type <{ i32 (...)**, %"class.base::RefCountedThreadSafe.186", [4 x i8], %"class.base::RepeatingCallback.129", %class.scoped_refptr.12, %"class.mojo::ConnectionGroup::Ref", %"struct.std::__1::atomic.187", [4 x i8] }>
%"class.base::RefCountedThreadSafe.186" = type { %"class.base::subtle::RefCountedThreadSafeBase" }
%"class.base::RepeatingCallback.129" = type { %"class.base::internal::CallbackBaseCopyable" }
%"struct.std::__1::atomic.187" = type { %"struct.std::__1::__atomic_base.188" }
%"struct.std::__1::__atomic_base.188" = type { %"struct.std::__1::__atomic_base.189" }
%"struct.std::__1::__atomic_base.189" = type { %"struct.std::__1::__cxx_atomic_impl.190" }
%"struct.std::__1::__cxx_atomic_impl.190" = type { %"struct.std::__1::__cxx_atomic_base_impl.191" }
%"struct.std::__1::__cxx_atomic_base_impl.191" = type { i32 }
%"class.base::WeakPtr" = type { %"class.base::internal::WeakPtrBase" }
%"class.base::internal::WeakPtrBase" = type { %"class.base::internal::WeakReference", i64 }
%"class.base::internal::WeakReference" = type { %class.scoped_refptr.87 }
%class.scoped_refptr.87 = type { %"class.base::internal::WeakReference::Flag"* }
%"class.base::WeakPtrFactory.88" = type { %"class.base::internal::WeakPtrFactoryBase" }
%"class.absl::optional.89" = type { %"class.absl::optional_internal::optional_data.90" }
%"class.absl::optional_internal::optional_data.90" = type { %"class.absl::optional_internal::optional_data_base.91" }
%"class.absl::optional_internal::optional_data_base.91" = type { %"class.absl::optional_internal::optional_data_dtor_base.92" }
%"class.absl::optional_internal::optional_data_dtor_base.92" = type { i8, %union.anon.93 }
%union.anon.93 = type { %"class.mojo::SimpleWatcher" }
%"class.absl::optional.94" = type { %"class.absl::optional_internal::optional_data.95" }
%"class.absl::optional_internal::optional_data.95" = type { %"class.absl::optional_internal::optional_data_base.96" }
%"class.absl::optional_internal::optional_data_base.96" = type { %"class.absl::optional_internal::optional_data_dtor_base.97" }
%"class.absl::optional_internal::optional_data_dtor_base.97" = type { i8, [7 x i8], %union.anon.98 }
%union.anon.98 = type { %"struct.mojo::internal::MultiplexRouter::ExclusiveSyncWaitInfo" }
%"struct.mojo::internal::MultiplexRouter::ExclusiveSyncWaitInfo" = type <{ i32, [4 x i8], i64, i8, [7 x i8] }>
%"class.absl::optional.50" = type { %"class.absl::optional_internal::optional_data.51" }
%"class.absl::optional_internal::optional_data.51" = type { %"class.absl::optional_internal::optional_data_base.52" }
%"class.absl::optional_internal::optional_data_base.52" = type { %"class.absl::optional_internal::optional_data_dtor_base.53" }
%"class.absl::optional_internal::optional_data_dtor_base.53" = type { i8, %union.anon.54 }
%union.anon.54 = type { %"class.base::Lock" }
%"class.mojo::PipeControlMessageHandler" = type { %"class.mojo::MessageReceiver", %"class.std::__1::basic_string", %"class.mojo::PipeControlMessageHandlerDelegate"* }
%"class.mojo::PipeControlMessageProxy" = type { %"class.mojo::MessageReceiver"* }
%"class.base::small_map" = type { i64, %"class.base::internal::small_map_default_init", %union.anon.103 }
%"class.base::internal::small_map_default_init" = type { i8 }
%union.anon.103 = type { %"class.std::__1::map.105" }
%"class.std::__1::map.105" = type { %"class.std::__1::__tree.106" }
%"class.std::__1::__tree.106" = type { %"class.std::__1::__tree_end_node"*, %"class.std::__1::__compressed_pair.107", %"class.std::__1::__compressed_pair.111" }
%"class.std::__1::__compressed_pair.107" = type { %"struct.std::__1::__compressed_pair_elem.4" }
%"class.std::__1::__compressed_pair.111" = type { %"struct.std::__1::__compressed_pair_elem.9" }
%"class.base::circular_deque" = type { %"class.base::internal::VectorBuffer", i64, i64 }
%"class.base::internal::VectorBuffer" = type { %"class.std::__1::unique_ptr.116"*, i64 }
%"class.std::__1::unique_ptr.116" = type opaque
%"class.std::__1::map.117" = type { %"class.std::__1::__tree.118" }
%"class.std::__1::__tree.118" = type { %"class.std::__1::__tree_end_node"*, %"class.std::__1::__compressed_pair.119", %"class.std::__1::__compressed_pair.123" }
%"class.std::__1::__compressed_pair.119" = type { %"struct.std::__1::__compressed_pair_elem.4" }
%"class.std::__1::__compressed_pair.123" = type { %"struct.std::__1::__compressed_pair_elem.9" }
%"class.std::__1::unique_ptr.126" = type { %"class.std::__1::__compressed_pair.127" }
%"class.std::__1::__compressed_pair.127" = type { %"struct.std::__1::__compressed_pair_elem.128" }
%"struct.std::__1::__compressed_pair_elem.128" = type { %"class.mojo::InterfaceEndpointClient"* }
%"class.mojo::InterfaceEndpointClient" = type { %"class.mojo::MessageReceiverWithResponder", i8, %"class.base::RepeatingCallback.129", %"class.base::OnceCallback.130", %"class.absl::optional.131", %"class.absl::optional.136", %"class.mojo::ConnectionGroup::Ref", i32, %"class.mojo::ScopedInterfaceEndpointHandle", %"class.std::__1::unique_ptr.143", %"class.mojo::InterfaceEndpointController"*, %"class.mojo::MessageReceiverWithResponderStatus"*, %"class.mojo::InterfaceEndpointClient::HandleIncomingMessageThunk", %"class.mojo::MessageDispatcher", %"class.std::__1::map.151", %"class.std::__1::map.162", i64, %"class.base::OnceCallback.33", %"class.base::OnceCallback.171", i8, %class.scoped_refptr.12, %"class.mojo::internal::ControlMessageProxy", %"class.mojo::internal::ControlMessageHandler", i8*, %"class.base::WeakPtrFactory.172" }
%"class.mojo::MessageReceiverWithResponder" = type { %"class.mojo::MessageReceiver" }
%"class.base::OnceCallback.130" = type { %"class.base::internal::CallbackBase" }
%"class.absl::optional.131" = type { %"class.absl::optional_internal::optional_data.132" }
%"class.absl::optional_internal::optional_data.132" = type { %"class.absl::optional_internal::optional_data_base.133" }
%"class.absl::optional_internal::optional_data_base.133" = type { %"class.absl::optional_internal::optional_data_dtor_base.134" }
%"class.absl::optional_internal::optional_data_dtor_base.134" = type { i8, %union.anon.135 }
%union.anon.135 = type { %"class.base::TimeDelta" }
%"class.base::TimeDelta" = type { i64 }
%"class.absl::optional.136" = type { %"class.absl::optional_internal::optional_data.137" }
%"class.absl::optional_internal::optional_data.137" = type { %"class.absl::optional_internal::optional_data_base.138" }
%"class.absl::optional_internal::optional_data_base.138" = type { %"class.absl::optional_internal::optional_data_dtor_base.139" }
%"class.absl::optional_internal::optional_data_dtor_base.139" = type { i8, %union.anon.140 }
%union.anon.140 = type { %"class.base::OneShotTimer" }
%"class.base::OneShotTimer" = type { %"class.base::internal::TimerBase", %"class.base::OnceCallback.33" }
%"class.base::internal::TimerBase" = type { i32 (...)**, %class.scoped_refptr.12, %"class.base::SequenceCheckerDoNothing", %"class.base::internal::TaskDestructionDetector"*, %"class.base::Location", %"class.base::TimeDelta", %"class.base::TimeTicks", %"class.base::TimeTicks", %"class.base::TickClock"*, i8, %"class.base::WeakPtrFactory.141" }
%"class.base::SequenceCheckerDoNothing" = type { i8 }
%"class.base::internal::TaskDestructionDetector" = type opaque
%"class.base::Location" = type { i8*, i8*, i32, i8* }
%"class.base::TimeTicks" = type { %"class.base::time_internal::TimeBase" }
%"class.base::time_internal::TimeBase" = type { i64 }
%"class.base::TickClock" = type opaque
%"class.base::WeakPtrFactory.141" = type { %"class.base::internal::WeakPtrFactoryBase" }
%"class.mojo::ScopedInterfaceEndpointHandle" = type { %class.scoped_refptr.142 }
%class.scoped_refptr.142 = type { %"class.mojo::ScopedInterfaceEndpointHandle::State"* }
%"class.mojo::ScopedInterfaceEndpointHandle::State" = type opaque
%"class.std::__1::unique_ptr.143" = type { %"class.std::__1::__compressed_pair.144" }
%"class.std::__1::__compressed_pair.144" = type { %"struct.std::__1::__compressed_pair_elem.145" }
%"struct.std::__1::__compressed_pair_elem.145" = type { %"class.mojo::AssociatedGroup"* }
%"class.mojo::AssociatedGroup" = type { %"class.base::RepeatingCallback.146", %class.scoped_refptr.147 }
%"class.base::RepeatingCallback.146" = type { %"class.base::internal::CallbackBaseCopyable" }
%class.scoped_refptr.147 = type { %"class.mojo::AssociatedGroupController"* }
%"class.mojo::AssociatedGroupController" = type <{ i32 (...)**, %"class.base::RefCountedThreadSafe.15", [4 x i8] }>
%"class.mojo::InterfaceEndpointController" = type opaque
%"class.mojo::MessageReceiverWithResponderStatus" = type { %"class.mojo::MessageReceiver" }
%"class.mojo::InterfaceEndpointClient::HandleIncomingMessageThunk" = type { %"class.mojo::MessageReceiver", %"class.mojo::InterfaceEndpointClient"* }
%"class.std::__1::map.151" = type { %"class.std::__1::__tree.152" }
%"class.std::__1::__tree.152" = type { %"class.std::__1::__tree_end_node"*, %"class.std::__1::__compressed_pair.153", %"class.std::__1::__compressed_pair.157" }
%"class.std::__1::__compressed_pair.153" = type { %"struct.std::__1::__compressed_pair_elem.4" }
%"class.std::__1::__compressed_pair.157" = type { %"struct.std::__1::__compressed_pair_elem.9" }
%"class.std::__1::map.162" = type { %"class.std::__1::__tree.163" }
%"class.std::__1::__tree.163" = type { %"class.std::__1::__tree_end_node"*, %"class.std::__1::__compressed_pair.164", %"class.std::__1::__compressed_pair.168" }
%"class.std::__1::__compressed_pair.164" = type { %"struct.std::__1::__compressed_pair_elem.4" }
%"class.std::__1::__compressed_pair.168" = type { %"struct.std::__1::__compressed_pair_elem.9" }
%"class.base::OnceCallback.171" = type { %"class.base::internal::CallbackBase" }
%"class.mojo::internal::ControlMessageProxy" = type { %"class.mojo::InterfaceEndpointClient"*, i8, %"class.base::OnceCallback.33" }
%"class.mojo::internal::ControlMessageHandler" = type <{ %"class.mojo::MessageReceiverWithResponderStatus", %"class.mojo::InterfaceEndpointClient"*, i32, [4 x i8] }>
%"class.base::WeakPtrFactory.172" = type { %"class.base::internal::WeakPtrFactoryBase" }
%"class.mojo::ScopedHandleBase" = type { %"class.mojo::MessagePipeHandle" }
%"class.mojo::MessagePipeHandle" = type { %"class.mojo::Handle" }
%"class.std::__1::unique_ptr.176" = type { %"class.std::__1::__compressed_pair.177" }
%"class.std::__1::__compressed_pair.177" = type { %"struct.std::__1::__compressed_pair_elem.178" }
%"struct.std::__1::__compressed_pair_elem.178" = type { %"class.data_decoder::mojom::ImageDecoderProxy"* }
%"class.data_decoder::mojom::ImageDecoderProxy" = type { %"class.data_decoder::mojom::ImageDecoder", %"class.mojo::MessageReceiverWithResponder"* }
%"class.data_decoder::mojom::ImageDecoder" = type { i32 (...)** }
%"class.base::WeakPtrFactory.182" = type { %"class.base::internal::WeakPtrFactoryBase" }
%"class.data_decoder::DataDecoder" = type { %"class.base::TimeDelta", %"class.mojo::Remote.192" }
%"class.mojo::Remote.192" = type { %"class.mojo::internal::InterfacePtrState.193" }
%"class.mojo::internal::InterfacePtrState.193" = type { %"class.mojo::internal::InterfacePtrStateBase.base", %"class.std::__1::unique_ptr.194" }
%"class.std::__1::unique_ptr.194" = type { %"class.std::__1::__compressed_pair.195" }
%"class.std::__1::__compressed_pair.195" = type { %"struct.std::__1::__compressed_pair_elem.196" }
%"struct.std::__1::__compressed_pair_elem.196" = type { %"class.data_decoder::mojom::DataDecoderServiceProxy"* }
%"class.data_decoder::mojom::DataDecoderServiceProxy" = type { %"class.data_decoder::mojom::DataDecoderService", %"class.mojo::MessageReceiverWithResponder"* }
%"class.data_decoder::mojom::DataDecoderService" = type { i32 (...)** }
%"class.base::WeakPtr.200" = type { %"class.base::internal::WeakPtrBase" }
%"class.mojo::PendingReceiver" = type { %"struct.mojo::internal::PendingReceiverState" }
%"struct.mojo::internal::PendingReceiverState" = type { %"class.mojo::ScopedHandleBase", %"class.mojo::ConnectionGroup::Ref" }
%"class.base::OnceCallback.202" = type { %"class.base::internal::CallbackBase" }
%"class.base::OnceCallback.203" = type { %"class.base::internal::CallbackBase" }
%"class.base::TaskRunner" = type <{ i32 (...)**, %"class.base::RefCountedThreadSafe.13", [4 x i8] }>
%"class.std::__1::__tree_node" = type { %"class.std::__1::__tree_node_base.base", %"class.base::FilePath" }
%"class.std::__1::__tree_node_base.base" = type <{ %"class.std::__1::__tree_end_node", %"class.std::__1::__tree_node_base"*, %"class.std::__1::__tree_end_node"*, i8 }>
%"class.mojo::internal::InterfacePtrStateBase" = type <{ %class.scoped_refptr.14, %"class.std::__1::unique_ptr.126", %"class.mojo::ScopedHandleBase", [4 x i8], %class.scoped_refptr.12, i32, [4 x i8] }>
%"class.std::__1::tuple" = type { %"struct.std::__1::__tuple_impl" }
%"struct.std::__1::__tuple_impl" = type <{ %"class.std::__1::__tuple_leaf", %"class.std::__1::__tuple_leaf.209", %"class.std::__1::__tuple_leaf.210", [6 x i8] }>
%"class.std::__1::__tuple_leaf" = type { %"class.std::__1::vector" }
%"class.std::__1::vector" = type { %"class.std::__1::__vector_base" }
%"class.std::__1::__vector_base" = type { i8*, i8*, %"class.std::__1::__compressed_pair.204" }
%"class.std::__1::__compressed_pair.204" = type { %"struct.std::__1::__compressed_pair_elem.205" }
%"struct.std::__1::__compressed_pair_elem.205" = type { i8* }
%"class.std::__1::__tuple_leaf.209" = type { i8 }
%"class.std::__1::__tuple_leaf.210" = type { i8 }
%"class.mojo_base::BigBuffer" = type { i32, %"class.std::__1::unique_ptr.211", i64, %"class.absl::optional.216" }
%"class.std::__1::unique_ptr.211" = type { %"class.std::__1::__compressed_pair.212" }
%"class.std::__1::__compressed_pair.212" = type { %"struct.std::__1::__compressed_pair_elem.205" }
%"class.absl::optional.216" = type { %"class.absl::optional_internal::optional_data.217" }
%"class.absl::optional_internal::optional_data.217" = type { %"class.absl::optional_internal::optional_data_base.218" }
%"class.absl::optional_internal::optional_data_base.218" = type { %"class.absl::optional_internal::optional_data_dtor_base.219" }
%"class.absl::optional_internal::optional_data_dtor_base.219" = type { i8, %union.anon.220 }
%union.anon.220 = type { %"class.mojo_base::internal::BigBufferSharedMemoryRegion" }
%"class.mojo_base::internal::BigBufferSharedMemoryRegion" = type { i64, %"class.mojo::ScopedHandleBase.221", %"class.std::__1::unique_ptr.222" }
%"class.mojo::ScopedHandleBase.221" = type { %"class.mojo::SharedBufferHandle" }
%"class.mojo::SharedBufferHandle" = type { %"class.mojo::Handle" }
%"class.std::__1::unique_ptr.222" = type { %"class.std::__1::__compressed_pair.223" }
%"class.std::__1::__compressed_pair.223" = type { %"struct.std::__1::__compressed_pair_elem.224" }
%"struct.std::__1::__compressed_pair_elem.224" = type { i8* }
%"class.gfx::Size" = type { i32, i32 }
%"class.base::OnceCallback.230" = type { %"class.base::internal::CallbackBase" }
%class.SkBitmap = type { %class.sk_sp, %class.SkPixmap, %class.sk_sp.232 }
%class.sk_sp = type { %class.SkPixelRef* }
%class.SkPixelRef = type opaque
%class.SkPixmap = type { i8*, i64, %struct.SkImageInfo }
%struct.SkImageInfo = type { %class.SkColorInfo, %struct.SkISize }
%class.SkColorInfo = type { %class.sk_sp.231, i32, i32 }
%class.sk_sp.231 = type { %class.SkColorSpace* }
%class.SkColorSpace = type <{ %class.SkNVRefCnt, i32, i32, %struct.skcms_TransferFunction, %struct.skcms_Matrix3x3, %struct.skcms_TransferFunction, %struct.skcms_Matrix3x3, %class.SkOnce, [3 x i8] }>
%class.SkNVRefCnt = type { %"struct.std::__1::atomic" }
%struct.skcms_TransferFunction = type { float, float, float, float, float, float, float }
%struct.skcms_Matrix3x3 = type { [3 x [3 x float]] }
%class.SkOnce = type { %"struct.std::__1::atomic.28" }
%struct.SkISize = type { i32, i32 }
%class.sk_sp.232 = type { %class.SkMipmap* }
%class.SkMipmap = type opaque
%"class.base::OnceCallback.233" = type { %"class.base::internal::CallbackBase" }
%"class.base::OnceCallback.234" = type { %"class.base::internal::CallbackBase" }
%"struct.std::__1::pair.235" = type { i8, %"class.std::__1::vector" }
%"class.base::OnceCallback.236" = type { %"class.base::internal::CallbackBase" }
%"class.base::OnceCallback.237" = type { %"class.base::internal::CallbackBase" }
%"class.std::__1::__vector_base_common" = type { i8 }
%"struct.std::__1::basic_string<char, std::__1::char_traits<char>, std::__1::allocator<char> >::__short" = type { [23 x i8], %struct.anon }
%struct.anon = type { i8 }
%"class.logging::CheckError" = type { %"class.logging::LogMessage"* }
%"class.logging::LogMessage" = type { i32 (...)**, i32, %"class.std::__1::basic_ostringstream", i64, i8*, i32, %"class.base::ScopedClearLastErrorBase" }
%"class.std::__1::basic_ostringstream" = type { %"class.std::__1::basic_ostream.base", %"class.std::__1::basic_stringbuf", %"class.std::__1::basic_ios.base" }
%"class.std::__1::basic_ostream.base" = type { i32 (...)** }
%"class.std::__1::basic_stringbuf" = type <{ %"class.std::__1::basic_streambuf", %"class.std::__1::basic_string", i8*, i32, [4 x i8] }>
%"class.std::__1::basic_streambuf" = type { i32 (...)**, %"class.std::__1::locale", i8*, i8*, i8*, i8*, i8*, i8* }
%"class.std::__1::locale" = type { %"class.std::__1::locale::__imp"* }
%"class.std::__1::locale::__imp" = type opaque
%"class.std::__1::basic_ios.base" = type <{ %"class.std::__1::ios_base", %"class.std::__1::basic_ostream"*, i32 }>
%"class.std::__1::ios_base" = type { i32 (...)**, i32, i64, i64, i32, i32, i8*, i8*, void (i32, %"class.std::__1::ios_base"*, i32)**, i32*, i64, i64, i64*, i64, i64, i8**, i64, i64 }
%"class.std::__1::basic_ostream" = type { i32 (...)**, %"class.std::__1::basic_ios.base" }
%"class.base::ScopedClearLastErrorBase" = type { i32 }
%"class.mojo::PendingRemote" = type { %"struct.mojo::internal::PendingRemoteState" }
%"struct.mojo::internal::PendingRemoteState" = type { %"class.mojo::ScopedHandleBase", i32 }
%struct.MojoCreateMessagePipeOptions = type { i32, i32 }
%"class.std::__1::unique_ptr.279" = type { %"class.std::__1::__compressed_pair.280" }
%"class.std::__1::__compressed_pair.280" = type { %"struct.std::__1::__compressed_pair_elem.281" }
%"struct.std::__1::__compressed_pair_elem.281" = type { %"class.std::__1::tuple"* }
%"class.std::__1::unique_ptr.310" = type { %"class.std::__1::__compressed_pair.311" }
%"class.std::__1::__compressed_pair.311" = type { %"struct.std::__1::__compressed_pair_elem.312" }
%"struct.std::__1::__compressed_pair_elem.312" = type { %"struct.std::__1::pair.235"* }
%"class.std::__1::unique_ptr.346" = type { %"class.std::__1::__compressed_pair.347" }
%"class.std::__1::__compressed_pair.347" = type { %"struct.std::__1::__compressed_pair_elem.348" }
%"struct.std::__1::__compressed_pair_elem.348" = type { i32* }

$_ZNSt3__16vectorIhNS_9allocatorIhEEE8__appendEm = comdat any

$_ZNSt3__16__treeIN4base8FilePathENS_4lessIS2_EENS_9allocatorIS2_EEE30__emplace_hint_unique_key_argsIS2_JRKS2_EEENS_4pairINS_15__tree_iteratorIS2_PNS_11__tree_nodeIS2_PvEElEEbEENS_21__tree_const_iteratorIS2_SG_lEERKT_DpOT0_ = comdat any

$_ZNSt3__16__treeIN4base8FilePathENS_4lessIS2_EENS_9allocatorIS2_EEE12__find_equalIS2_EERPNS_16__tree_node_baseIPvEENS_21__tree_const_iteratorIS2_PNS_11__tree_nodeIS2_SA_EElEERPNS_15__tree_end_nodeISC_EESD_RKT_ = comdat any

$_ZNSt3__16__treeIN4base8FilePathENS_4lessIS2_EENS_9allocatorIS2_EEE12__find_equalIS2_EERPNS_16__tree_node_baseIPvEERPNS_15__tree_end_nodeISC_EERKT_ = comdat any

$_ZNSt3__127__tree_balance_after_insertIPNS_16__tree_node_baseIPvEEEEvT_S5_ = comdat any

$_ZNSt3__16__treeIN4base8FilePathENS_4lessIS2_EENS_9allocatorIS2_EEE7destroyEPNS_11__tree_nodeIS2_PvEE = comdat any

$_ZN4base8internal7InvokerINS0_9BindStateIMN10extensions14ImageSanitizerEFvvEJNS_7WeakPtrIS4_EEEEEFvvEE7RunOnceEPNS0_13BindStateBaseE = comdat any

$_ZN4base8internal9BindStateIMN10extensions14ImageSanitizerEFvvEJNS_7WeakPtrIS3_EEEE7DestroyEPKNS0_13BindStateBaseE = comdat any

$_ZN4base8internal23QueryCancellationTraitsINS0_9BindStateIMN10extensions14ImageSanitizerEFvvEJNS_7WeakPtrIS4_EEEEEEEbPKNS0_13BindStateBaseENSA_21CancellationQueryModeE = comdat any

$_ZN4mojo6RemoteIN12data_decoder5mojom12ImageDecoderEE26BindNewPipeAndPassReceiverE13scoped_refptrIN4base19SequencedTaskRunnerEE = comdat any

$_ZN4mojo6RemoteIN12data_decoder5mojom12ImageDecoderEE4BindENS_13PendingRemoteIS3_EE13scoped_refptrIN4base19SequencedTaskRunnerEE = comdat any

$_ZN4mojo8internal17InterfacePtrStateIN12data_decoder5mojom12ImageDecoderEE28set_connection_error_handlerEN4base12OnceCallbackIFvvEEE = comdat any

$_ZN4base8internal7InvokerINS0_9BindStateIMN10extensions14ImageSanitizerEFvNS4_6StatusERKNS_8FilePathEEJNS_7WeakPtrIS4_EES5_S6_EEEFvvEE7RunOnceEPNS0_13BindStateBaseE = comdat any

$_ZN4base8internal9BindStateIMN10extensions14ImageSanitizerEFvNS3_6StatusERKNS_8FilePathEEJNS_7WeakPtrIS3_EES4_S5_EE7DestroyEPKNS0_13BindStateBaseE = comdat any

$_ZN4base8internal23QueryCancellationTraitsINS0_9BindStateIMN10extensions14ImageSanitizerEFvNS4_6StatusERKNS_8FilePathEEJNS_7WeakPtrIS4_EES5_S6_EEEEEbPKNS0_13BindStateBaseENSE_21CancellationQueryModeE = comdat any

$_ZNSt3__16__treeIN4base8FilePathENS_4lessIS2_EENS_9allocatorIS2_EEE15__insert_uniqueERKS2_ = comdat any

$_ZN4base8internal7InvokerINS0_9BindStateIPFNSt3__15tupleIJNS3_6vectorIhNS3_9allocatorIhEEEEbbEEERKNS_8FilePathEEJSA_EEEFS9_vEE7RunOnceEPNS0_13BindStateBaseE = comdat any

$_ZN4base8internal9BindStateIPFNSt3__15tupleIJNS2_6vectorIhNS2_9allocatorIhEEEEbbEEERKNS_8FilePathEEJS9_EE7DestroyEPKNS0_13BindStateBaseE = comdat any

$_ZN4base8internal7InvokerINS0_9BindStateIMN10extensions14ImageSanitizerEFvRKNS_8FilePathENSt3__15tupleIJNS8_6vectorIhNS8_9allocatorIhEEEEbbEEEEJNS_7WeakPtrIS4_EES5_EEEFvSE_EE7RunOnceEPNS0_13BindStateBaseEOSE_ = comdat any

$_ZN4base8internal13FunctorTraitsIMN10extensions14ImageSanitizerEFvRKNS_8FilePathENSt3__15tupleIJNS7_6vectorIhNS7_9allocatorIhEEEEbbEEEEvE6InvokeISF_NS_7WeakPtrIS3_EEJS4_SD_EEEvT_OT0_DpOT1_ = comdat any

$_ZN4base8internal9BindStateIMN10extensions14ImageSanitizerEFvRKNS_8FilePathENSt3__15tupleIJNS7_6vectorIhNS7_9allocatorIhEEEEbbEEEEJNS_7WeakPtrIS3_EES4_EE7DestroyEPKNS0_13BindStateBaseE = comdat any

$_ZN4base8internal23QueryCancellationTraitsINS0_9BindStateIMN10extensions14ImageSanitizerEFvRKNS_8FilePathENSt3__15tupleIJNS8_6vectorIhNS8_9allocatorIhEEEEbbEEEEJNS_7WeakPtrIS4_EES5_EEEEEbPKNS0_13BindStateBaseENSK_21CancellationQueryModeE = comdat any

$_ZN4base8internal20ReturnAsParamAdapterINSt3__15tupleIJNS2_6vectorIhNS2_9allocatorIhEEEEbbEEEEEvNS_12OnceCallbackIFT_vEEEPNS2_10unique_ptrISA_NS2_14default_deleteISA_EEEE = comdat any

$_ZN4base8internal12ReplyAdapterINSt3__15tupleIJNS2_6vectorIhNS2_9allocatorIhEEEEbbEEES8_EEvNS_12OnceCallbackIFvT0_EEEPNS2_10unique_ptrIT_NS2_14default_deleteISE_EEEE = comdat any

$_ZN4base8internal7InvokerINS0_9BindStateIPFvNS_12OnceCallbackIFNSt3__15tupleIJNS4_6vectorIhNS4_9allocatorIhEEEEbbEEEvEEEPNS4_10unique_ptrISA_NS4_14default_deleteISA_EEEEEJSC_SH_EEEFvvEE7RunOnceEPNS0_13BindStateBaseE = comdat any

$_ZN4base8internal9BindStateIPFvNS_12OnceCallbackIFNSt3__15tupleIJNS3_6vectorIhNS3_9allocatorIhEEEEbbEEEvEEEPNS3_10unique_ptrIS9_NS3_14default_deleteIS9_EEEEEJSB_SG_EE7DestroyEPKNS0_13BindStateBaseE = comdat any

$_ZN4base8internal7InvokerINS0_9BindStateIPFvNS_12OnceCallbackIFvNSt3__15tupleIJNS4_6vectorIhNS4_9allocatorIhEEEEbbEEEEEEPNS4_10unique_ptrISA_NS4_14default_deleteISA_EEEEEJSC_NS0_12OwnedWrapperISG_NSE_ISG_EEEEEEEFvvEE7RunOnceEPNS0_13BindStateBaseE = comdat any

$_ZN4base8internal9BindStateIPFvNS_12OnceCallbackIFvNSt3__15tupleIJNS3_6vectorIhNS3_9allocatorIhEEEEbbEEEEEEPNS3_10unique_ptrIS9_NS3_14default_deleteIS9_EEEEEJSB_NS0_12OwnedWrapperISF_NSD_ISF_EEEEEE7DestroyEPKNS0_13BindStateBaseE = comdat any

$_ZN4base8internal7InvokerINS0_9BindStateIMN10extensions14ImageSanitizerEFvRKNS_8FilePathERK8SkBitmapEJNS_7WeakPtrIS4_EES5_EEEFvSA_EE7RunOnceEPNS0_13BindStateBaseESA_ = comdat any

$_ZN4base8internal9BindStateIMN10extensions14ImageSanitizerEFvRKNS_8FilePathERK8SkBitmapEJNS_7WeakPtrIS3_EES4_EE7DestroyEPKNS0_13BindStateBaseE = comdat any

$_ZN4base8internal23QueryCancellationTraitsINS0_9BindStateIMN10extensions14ImageSanitizerEFvRKNS_8FilePathERK8SkBitmapEJNS_7WeakPtrIS4_EES5_EEEEEbPKNS0_13BindStateBaseENSG_21CancellationQueryModeE = comdat any

$_ZN4base8internal7InvokerINS0_9BindStateIPFNSt3__14pairIbNS3_6vectorIhNS3_9allocatorIhEEEEEERK8SkBitmapEJSA_EEEFS9_vEE7RunOnceEPNS0_13BindStateBaseE = comdat any

$_ZN4base8internal9BindStateIPFNSt3__14pairIbNS2_6vectorIhNS2_9allocatorIhEEEEEERK8SkBitmapEJS9_EE7DestroyEPKNS0_13BindStateBaseE = comdat any

$_ZN4base8internal7InvokerINS0_9BindStateIMN10extensions14ImageSanitizerEFvRKNS_8FilePathENSt3__14pairIbNS8_6vectorIhNS8_9allocatorIhEEEEEEEJNS_7WeakPtrIS4_EES5_EEEFvSE_EE7RunOnceEPNS0_13BindStateBaseEOSE_ = comdat any

$_ZN4base8internal13FunctorTraitsIMN10extensions14ImageSanitizerEFvRKNS_8FilePathENSt3__14pairIbNS7_6vectorIhNS7_9allocatorIhEEEEEEEvE6InvokeISF_NS_7WeakPtrIS3_EEJS4_SD_EEEvT_OT0_DpOT1_ = comdat any

$_ZN4base8internal9BindStateIMN10extensions14ImageSanitizerEFvRKNS_8FilePathENSt3__14pairIbNS7_6vectorIhNS7_9allocatorIhEEEEEEEJNS_7WeakPtrIS3_EES4_EE7DestroyEPKNS0_13BindStateBaseE = comdat any

$_ZN4base8internal23QueryCancellationTraitsINS0_9BindStateIMN10extensions14ImageSanitizerEFvRKNS_8FilePathENSt3__14pairIbNS8_6vectorIhNS8_9allocatorIhEEEEEEEJNS_7WeakPtrIS4_EES5_EEEEEbPKNS0_13BindStateBaseENSK_21CancellationQueryModeE = comdat any

$_ZN4base8internal20ReturnAsParamAdapterINSt3__14pairIbNS2_6vectorIhNS2_9allocatorIhEEEEEEEEvNS_12OnceCallbackIFT_vEEEPNS2_10unique_ptrISA_NS2_14default_deleteISA_EEEE = comdat any

$_ZN4base8internal12ReplyAdapterINSt3__14pairIbNS2_6vectorIhNS2_9allocatorIhEEEEEES8_EEvNS_12OnceCallbackIFvT0_EEEPNS2_10unique_ptrIT_NS2_14default_deleteISE_EEEE = comdat any

$_ZN4base8internal7InvokerINS0_9BindStateIPFvNS_12OnceCallbackIFNSt3__14pairIbNS4_6vectorIhNS4_9allocatorIhEEEEEEvEEEPNS4_10unique_ptrISA_NS4_14default_deleteISA_EEEEEJSC_SH_EEEFvvEE7RunOnceEPNS0_13BindStateBaseE = comdat any

$_ZN4base8internal9BindStateIPFvNS_12OnceCallbackIFNSt3__14pairIbNS3_6vectorIhNS3_9allocatorIhEEEEEEvEEEPNS3_10unique_ptrIS9_NS3_14default_deleteIS9_EEEEEJSB_SG_EE7DestroyEPKNS0_13BindStateBaseE = comdat any

$_ZN4base8internal7InvokerINS0_9BindStateIPFvNS_12OnceCallbackIFvNSt3__14pairIbNS4_6vectorIhNS4_9allocatorIhEEEEEEEEEPNS4_10unique_ptrISA_NS4_14default_deleteISA_EEEEEJSC_NS0_12OwnedWrapperISG_NSE_ISG_EEEEEEEFvvEE7RunOnceEPNS0_13BindStateBaseE = comdat any

$_ZN4base8internal9BindStateIPFvNS_12OnceCallbackIFvNSt3__14pairIbNS3_6vectorIhNS3_9allocatorIhEEEEEEEEEPNS3_10unique_ptrIS9_NS3_14default_deleteIS9_EEEEEJSB_NS0_12OwnedWrapperISF_NSD_ISF_EEEEEE7DestroyEPKNS0_13BindStateBaseE = comdat any

$_ZN4base8internal7InvokerINS0_9BindStateIPFiRKNS_8FilePathERKNSt3__16vectorIhNS6_9allocatorIhEEEEEJS3_SA_EEEFivEE7RunOnceEPNS0_13BindStateBaseE = comdat any

$_ZN4base8internal9BindStateIPFiRKNS_8FilePathERKNSt3__16vectorIhNS5_9allocatorIhEEEEEJS2_S9_EE7DestroyEPKNS0_13BindStateBaseE = comdat any

$_ZN4base8internal7InvokerINS0_9BindStateIMN10extensions14ImageSanitizerEFvRKNS_8FilePathEiiEJNS_7WeakPtrIS4_EES5_iEEEFviEE7RunOnceEPNS0_13BindStateBaseEi = comdat any

$_ZN4base8internal9BindStateIMN10extensions14ImageSanitizerEFvRKNS_8FilePathEiiEJNS_7WeakPtrIS3_EES4_iEE7DestroyEPKNS0_13BindStateBaseE = comdat any

$_ZN4base8internal23QueryCancellationTraitsINS0_9BindStateIMN10extensions14ImageSanitizerEFvRKNS_8FilePathEiiEJNS_7WeakPtrIS4_EES5_iEEEEEbPKNS0_13BindStateBaseENSD_21CancellationQueryModeE = comdat any

$_ZN4base8internal20ReturnAsParamAdapterIiEEvNS_12OnceCallbackIFT_vEEEPNSt3__110unique_ptrIS3_NS6_14default_deleteIS3_EEEE = comdat any

$_ZN4base8internal12ReplyAdapterIiiEEvNS_12OnceCallbackIFvT0_EEEPNSt3__110unique_ptrIT_NS6_14default_deleteIS8_EEEE = comdat any

$_ZN4base8internal7InvokerINS0_9BindStateIPFvNS_12OnceCallbackIFivEEEPNSt3__110unique_ptrIiNS6_14default_deleteIiEEEEEJS5_SB_EEEFvvEE7RunOnceEPNS0_13BindStateBaseE = comdat any

$_ZN4base8internal9BindStateIPFvNS_12OnceCallbackIFivEEEPNSt3__110unique_ptrIiNS5_14default_deleteIiEEEEEJS4_SA_EE7DestroyEPKNS0_13BindStateBaseE = comdat any

$_ZN4base8internal7InvokerINS0_9BindStateIPFvNS_12OnceCallbackIFviEEEPNSt3__110unique_ptrIiNS6_14default_deleteIiEEEEEJS5_NS0_12OwnedWrapperISA_NS8_ISA_EEEEEEEFvvEE7RunOnceEPNS0_13BindStateBaseE = comdat any

$_ZN4base8internal9BindStateIPFvNS_12OnceCallbackIFviEEEPNSt3__110unique_ptrIiNS5_14default_deleteIiEEEEEJS4_NS0_12OwnedWrapperIS9_NS7_IS9_EEEEEE7DestroyEPKNS0_13BindStateBaseE = comdat any

$_ZNSt3__16__treeIN4base8FilePathENS_4lessIS2_EENS_9allocatorIS2_EEE4findIS2_EENS_15__tree_iteratorIS2_PNS_11__tree_nodeIS2_PvEElEERKT_ = comdat any

$_ZNSt3__113__tree_removeIPNS_16__tree_node_baseIPvEEEEvT_S5_ = comdat any

@.str = private unnamed_addr constant [6 x i8] c"Start\00", align 1
@.str.1 = private unnamed_addr constant [44 x i8] c"../../extensions/browser/image_sanitizer.cc\00", align 1
@.str.2 = private unnamed_addr constant [13 x i8] c"ImageDecoded\00", align 1
@.str.3 = private unnamed_addr constant [15 x i8] c"ImageReencoded\00", align 1
@.str.5 = private unnamed_addr constant [29 x i8] c"../../base/memory/weak_ptr.h\00", align 1
@.str.6 = private unnamed_addr constant [15 x i8] c"ref_.IsValid()\00", align 1
@_ZN12data_decoder5mojom12ImageDecoder5Name_E = external constant [0 x i8], align 1
@_ZTVN12data_decoder5mojom29ImageDecoderResponseValidatorE = external unnamed_addr constant { [6 x i8*] }, align 8

@_ZN10extensions14ImageSanitizerC1ERKN4base8FilePathERKNSt3__13setIS2_NS5_4lessIS2_EENS5_9allocatorIS2_EEEENS1_17RepeatingCallbackIFvS4_8SkBitmapEEENS1_12OnceCallbackIFvNS0_6StatusES4_EEERK13scoped_refptrINS1_19SequencedTaskRunnerEE = hidden unnamed_addr alias void (%"class.extensions::ImageSanitizer"*, %"class.base::FilePath"*, %"class.std::__1::set"*, %"class.base::RepeatingCallback"*, %"class.base::OnceCallback"*, %class.scoped_refptr.12*), void (%"class.extensions::ImageSanitizer"*, %"class.base::FilePath"*, %"class.std::__1::set"*, %"class.base::RepeatingCallback"*, %"class.base::OnceCallback"*, %class.scoped_refptr.12*)* @_ZN10extensions14ImageSanitizerC2ERKN4base8FilePathERKNSt3__13setIS2_NS5_4lessIS2_EENS5_9allocatorIS2_EEEENS1_17RepeatingCallbackIFvS4_8SkBitmapEEENS1_12OnceCallbackIFvNS0_6StatusES4_EEERK13scoped_refptrINS1_19SequencedTaskRunnerEE
@_ZN10extensions14ImageSanitizerD1Ev = hidden unnamed_addr alias void (%"class.extensions::ImageSanitizer"*), void (%"class.extensions::ImageSanitizer"*)* @_ZN10extensions14ImageSanitizerD2Ev

; Function Attrs: nounwind ssp uwtable
define hidden %"class.extensions::ImageSanitizer"* @_ZN10extensions14ImageSanitizer14CreateAndStartEPN12data_decoder11DataDecoderERKN4base8FilePathERKNSt3__13setIS5_NS8_4lessIS5_EENS8_9allocatorIS5_EEEENS4_17RepeatingCallbackIFvS7_8SkBitmapEEENS4_12OnceCallbackIFvNS0_6StatusES7_EEERK13scoped_refptrINS4_19SequencedTaskRunnerEE(%"class.data_decoder::DataDecoder"*, %"class.base::FilePath"* dereferenceable(24), %"class.std::__1::set"* readonly dereferenceable(24), %"class.base::RepeatingCallback"* nocapture, %"class.base::OnceCallback"* nocapture, %class.scoped_refptr.12* nocapture readonly dereferenceable(8)) local_unnamed_addr #0 align 2 {
  %7 = alloca %"class.base::RepeatingCallback", align 8
  %8 = alloca %"class.base::OnceCallback", align 8
  %9 = tail call i8* @_Znwm(i64 136) #9
  %10 = bitcast i8* %9 to %"class.extensions::ImageSanitizer"*
  %11 = getelementptr inbounds %"class.base::RepeatingCallback", %"class.base::RepeatingCallback"* %3, i64 0, i32 0, i32 0, i32 0, i32 0
  %12 = bitcast %"class.base::RepeatingCallback"* %3 to i64*
  %13 = load i64, i64* %12, align 8
  %14 = bitcast %"class.base::RepeatingCallback"* %7 to i64*
  store i64 %13, i64* %14, align 8
  store %"class.base::internal::BindStateBase"* null, %"class.base::internal::BindStateBase"** %11, align 8
  %15 = getelementptr inbounds %"class.base::OnceCallback", %"class.base::OnceCallback"* %4, i64 0, i32 0, i32 0, i32 0
  %16 = bitcast %"class.base::OnceCallback"* %4 to i64*
  %17 = load i64, i64* %16, align 8
  %18 = bitcast %"class.base::OnceCallback"* %8 to i64*
  store i64 %17, i64* %18, align 8
  store %"class.base::internal::BindStateBase"* null, %"class.base::internal::BindStateBase"** %15, align 8
  call void @_ZN10extensions14ImageSanitizerC2ERKN4base8FilePathERKNSt3__13setIS2_NS5_4lessIS2_EENS5_9allocatorIS2_EEEENS1_17RepeatingCallbackIFvS4_8SkBitmapEEENS1_12OnceCallbackIFvNS0_6StatusES4_EEERK13scoped_refptrINS1_19SequencedTaskRunnerEE(%"class.extensions::ImageSanitizer"* nonnull %10, %"class.base::FilePath"* dereferenceable(24) %1, %"class.std::__1::set"* dereferenceable(24) %2, %"class.base::RepeatingCallback"* nonnull %7, %"class.base::OnceCallback"* nonnull %8, %class.scoped_refptr.12* dereferenceable(8) %5)
  %19 = getelementptr inbounds %"class.base::OnceCallback", %"class.base::OnceCallback"* %8, i64 0, i32 0
  call void @_ZN4base8internal12CallbackBaseD2Ev(%"class.base::internal::CallbackBase"* nonnull %19) #10
  %20 = getelementptr inbounds %"class.base::RepeatingCallback", %"class.base::RepeatingCallback"* %7, i64 0, i32 0, i32 0
  call void @_ZN4base8internal12CallbackBaseD2Ev(%"class.base::internal::CallbackBase"* nonnull %20) #10
  call void @_ZN10extensions14ImageSanitizer5StartEPN12data_decoder11DataDecoderE(%"class.extensions::ImageSanitizer"* nonnull %10, %"class.data_decoder::DataDecoder"* %0)
  ret %"class.extensions::ImageSanitizer"* %10
}

; Function Attrs: nobuiltin nofree
declare noalias nonnull i8* @_Znwm(i64) local_unnamed_addr #1

; Function Attrs: nounwind
declare void @_ZN4base8internal12CallbackBaseD2Ev(%"class.base::internal::CallbackBase"*) unnamed_addr #2

; Function Attrs: nounwind ssp uwtable
define hidden void @_ZN10extensions14ImageSanitizer5StartEPN12data_decoder11DataDecoderE(%"class.extensions::ImageSanitizer"*, %"class.data_decoder::DataDecoder"*) local_unnamed_addr #0 align 2 {
  %3 = alloca %"class.base::internal::WeakReference", align 8
  %4 = alloca %"class.base::internal::WeakReference", align 8
  %5 = alloca %"class.base::OnceCallback.33", align 8
  %6 = alloca %"class.base::internal::WeakReference", align 8
  %7 = alloca %"class.base::internal::WeakReference", align 8
  %8 = alloca %"class.base::OnceCallback.33", align 8
  %9 = alloca %"class.base::OnceCallback.33", align 8
  %10 = alloca %"class.base::Location", align 8
  %11 = alloca %"class.base::OnceCallback.33", align 8
  %12 = alloca %"class.base::WeakPtr.200", align 8
  %13 = alloca %"class.mojo::PendingReceiver", align 8
  %14 = alloca %"class.base::OnceCallback.33", align 8
  %15 = alloca %"class.base::WeakPtr.200", align 8
  %16 = alloca %"class.base::FilePath", align 8
  %17 = alloca %"class.std::__1::set", align 16
  %18 = alloca %"class.base::FilePath", align 8
  %19 = alloca %"class.base::Location", align 8
  %20 = alloca %"class.base::OnceCallback.33", align 8
  %21 = alloca %"class.base::WeakPtr.200", align 8
  %22 = alloca %"class.base::FilePath", align 8
  %23 = alloca %"class.base::Location", align 8
  %24 = alloca %"class.base::OnceCallback.202", align 8
  %25 = alloca %"class.base::OnceCallback.203", align 8
  %26 = alloca %"class.base::WeakPtr.200", align 8
  %27 = getelementptr inbounds %"class.extensions::ImageSanitizer", %"class.extensions::ImageSanitizer"* %0, i64 0, i32 1
  %28 = getelementptr inbounds %"class.extensions::ImageSanitizer", %"class.extensions::ImageSanitizer"* %0, i64 0, i32 1, i32 0, i32 2, i32 0, i32 0
  %29 = load i64, i64* %28, align 8
  %30 = icmp eq i64 %29, 0
  br i1 %30, label %31, label %56

31:                                               ; preds = %2
  %32 = tail call dereferenceable(8) %class.scoped_refptr.12* @_ZN4base25SequencedTaskRunnerHandle3GetEv() #10
  %33 = bitcast %class.scoped_refptr.12* %32 to %"class.base::TaskRunner"**
  %34 = load %"class.base::TaskRunner"*, %"class.base::TaskRunner"** %33, align 8
  %35 = bitcast %"class.base::Location"* %10 to i8*
  call void @llvm.lifetime.start.p0i8(i64 32, i8* nonnull %35) #10
  call void @_ZN4base8Location7CurrentEPKcS2_i(%"class.base::Location"* nonnull sret %10, i8* getelementptr inbounds ([6 x i8], [6 x i8]* @.str, i64 0, i64 0), i8* getelementptr inbounds ([44 x i8], [44 x i8]* @.str.1, i64 0, i64 0), i32 90) #10
  %36 = bitcast %"class.base::WeakPtr.200"* %12 to i8*
  call void @llvm.lifetime.start.p0i8(i64 16, i8* nonnull %36) #10
  %37 = bitcast %"class.base::internal::WeakReference"* %7 to i8*
  call void @llvm.lifetime.start.p0i8(i64 8, i8* nonnull %37) #10, !noalias !2
  %38 = getelementptr inbounds %"class.extensions::ImageSanitizer", %"class.extensions::ImageSanitizer"* %0, i64 0, i32 6, i32 0, i32 0
  call void @_ZNK4base8internal18WeakReferenceOwner6GetRefEv(%"class.base::internal::WeakReference"* nonnull sret %7, %"class.base::internal::WeakReferenceOwner"* %38) #10, !noalias !2
  %39 = getelementptr inbounds %"class.extensions::ImageSanitizer", %"class.extensions::ImageSanitizer"* %0, i64 0, i32 6, i32 0, i32 1
  %40 = load i64, i64* %39, align 8, !noalias !2
  %41 = getelementptr inbounds %"class.base::WeakPtr.200", %"class.base::WeakPtr.200"* %12, i64 0, i32 0
  call void @_ZN4base8internal11WeakPtrBaseC2ERKNS0_13WeakReferenceEm(%"class.base::internal::WeakPtrBase"* nonnull %41, %"class.base::internal::WeakReference"* nonnull dereferenceable(8) %7, i64 %40) #10
  call void @_ZN4base8internal13WeakReferenceD1Ev(%"class.base::internal::WeakReference"* nonnull %7) #10
  call void @llvm.lifetime.end.p0i8(i64 8, i8* nonnull %37) #10, !noalias !2
  %42 = call i8* @_Znwm(i64 64) #9, !noalias !5
  %43 = bitcast i8* %42 to %"class.base::internal::BindStateBase"*
  call void @_ZN4base8internal13BindStateBaseC2EPFvvEPFvPKS1_EPFbS5_NS1_21CancellationQueryModeEE(%"class.base::internal::BindStateBase"* nonnull %43, void ()* bitcast (void (%"class.base::internal::BindStateBase"*)* @_ZN4base8internal7InvokerINS0_9BindStateIMN10extensions14ImageSanitizerEFvvEJNS_7WeakPtrIS4_EEEEEFvvEE7RunOnceEPNS0_13BindStateBaseE to void ()*), void (%"class.base::internal::BindStateBase"*)* nonnull @_ZN4base8internal9BindStateIMN10extensions14ImageSanitizerEFvvEJNS_7WeakPtrIS3_EEEE7DestroyEPKNS0_13BindStateBaseE, i1 (%"class.base::internal::BindStateBase"*, i32)* nonnull @_ZN4base8internal23QueryCancellationTraitsINS0_9BindStateIMN10extensions14ImageSanitizerEFvvEJNS_7WeakPtrIS4_EEEEEEEbPKNS0_13BindStateBaseENSA_21CancellationQueryModeE) #10, !noalias !5
  %44 = getelementptr inbounds i8, i8* %42, i64 32
  %45 = bitcast i8* %44 to <2 x i64>*
  store <2 x i64> <i64 ptrtoint (void (%"class.extensions::ImageSanitizer"*)* @_ZN10extensions14ImageSanitizer13ReportSuccessEv to i64), i64 0>, <2 x i64>* %45, align 8, !noalias !5
  %46 = getelementptr inbounds i8, i8* %42, i64 48
  %47 = bitcast i8* %46 to %"class.base::internal::WeakReference"*
  %48 = getelementptr inbounds %"class.base::WeakPtr.200", %"class.base::WeakPtr.200"* %12, i64 0, i32 0, i32 0
  call void @_ZN4base8internal13WeakReferenceC1EOS1_(%"class.base::internal::WeakReference"* %47, %"class.base::internal::WeakReference"* nonnull dereferenceable(8) %48) #10, !noalias !5
  %49 = getelementptr inbounds i8, i8* %42, i64 56
  %50 = bitcast i8* %49 to i64*
  %51 = getelementptr inbounds %"class.base::WeakPtr.200", %"class.base::WeakPtr.200"* %12, i64 0, i32 0, i32 1
  %52 = load i64, i64* %51, align 8, !noalias !5
  store i64 %52, i64* %50, align 8, !noalias !5
  %53 = bitcast %"class.base::OnceCallback.33"* %11 to i8**
  store i8* %42, i8** %53, align 8, !alias.scope !5
  %54 = call zeroext i1 @_ZN4base10TaskRunner8PostTaskERKNS_8LocationENS_12OnceCallbackIFvvEEE(%"class.base::TaskRunner"* %34, %"class.base::Location"* nonnull dereferenceable(32) %10, %"class.base::OnceCallback.33"* nonnull %11) #10
  %55 = getelementptr inbounds %"class.base::OnceCallback.33", %"class.base::OnceCallback.33"* %11, i64 0, i32 0
  call void @_ZN4base8internal12CallbackBaseD2Ev(%"class.base::internal::CallbackBase"* nonnull %55) #10
  call void @_ZN4base8internal11WeakPtrBaseD2Ev(%"class.base::internal::WeakPtrBase"* nonnull %41) #10
  call void @llvm.lifetime.end.p0i8(i64 16, i8* nonnull %36) #10
  call void @llvm.lifetime.end.p0i8(i64 32, i8* nonnull %35) #10
  br label %308

56:                                               ; preds = %2
  %57 = tail call %"class.data_decoder::mojom::DataDecoderService"* @_ZN12data_decoder11DataDecoder10GetServiceEv(%"class.data_decoder::DataDecoder"* %1) #10
  %58 = getelementptr inbounds %"class.extensions::ImageSanitizer", %"class.extensions::ImageSanitizer"* %0, i64 0, i32 5
  call void @_ZN4mojo6RemoteIN12data_decoder5mojom12ImageDecoderEE26BindNewPipeAndPassReceiverE13scoped_refptrIN4base19SequencedTaskRunnerEE(%"class.mojo::PendingReceiver"* nonnull sret %13, %"class.mojo::Remote"* %58, %"class.base::SequencedTaskRunner"* null) #10
  %59 = bitcast %"class.data_decoder::mojom::DataDecoderService"* %57 to void (%"class.data_decoder::mojom::DataDecoderService"*, %"class.mojo::PendingReceiver"*)***
  %60 = load void (%"class.data_decoder::mojom::DataDecoderService"*, %"class.mojo::PendingReceiver"*)**, void (%"class.data_decoder::mojom::DataDecoderService"*, %"class.mojo::PendingReceiver"*)*** %59, align 8
  %61 = getelementptr inbounds void (%"class.data_decoder::mojom::DataDecoderService"*, %"class.mojo::PendingReceiver"*)*, void (%"class.data_decoder::mojom::DataDecoderService"*, %"class.mojo::PendingReceiver"*)** %60, i64 2
  %62 = load void (%"class.data_decoder::mojom::DataDecoderService"*, %"class.mojo::PendingReceiver"*)*, void (%"class.data_decoder::mojom::DataDecoderService"*, %"class.mojo::PendingReceiver"*)** %61, align 8
  call void %62(%"class.data_decoder::mojom::DataDecoderService"* %57, %"class.mojo::PendingReceiver"* nonnull %13) #10
  %63 = getelementptr inbounds %"class.mojo::PendingReceiver", %"class.mojo::PendingReceiver"* %13, i64 0, i32 0
  call void @_ZN4mojo8internal20PendingReceiverStateD1Ev(%"struct.mojo::internal::PendingReceiverState"* nonnull %63) #10
  %64 = bitcast %"class.base::WeakPtr.200"* %15 to i8*
  call void @llvm.lifetime.start.p0i8(i64 16, i8* nonnull %64) #10
  %65 = bitcast %"class.base::internal::WeakReference"* %6 to i8*
  call void @llvm.lifetime.start.p0i8(i64 8, i8* nonnull %65) #10, !noalias !10
  %66 = getelementptr inbounds %"class.extensions::ImageSanitizer", %"class.extensions::ImageSanitizer"* %0, i64 0, i32 6, i32 0, i32 0
  call void @_ZNK4base8internal18WeakReferenceOwner6GetRefEv(%"class.base::internal::WeakReference"* nonnull sret %6, %"class.base::internal::WeakReferenceOwner"* %66) #10, !noalias !10
  %67 = getelementptr inbounds %"class.extensions::ImageSanitizer", %"class.extensions::ImageSanitizer"* %0, i64 0, i32 6, i32 0, i32 1
  %68 = load i64, i64* %67, align 8, !noalias !10
  %69 = getelementptr inbounds %"class.base::WeakPtr.200", %"class.base::WeakPtr.200"* %15, i64 0, i32 0
  call void @_ZN4base8internal11WeakPtrBaseC2ERKNS0_13WeakReferenceEm(%"class.base::internal::WeakPtrBase"* nonnull %69, %"class.base::internal::WeakReference"* nonnull dereferenceable(8) %6, i64 %68) #10
  call void @_ZN4base8internal13WeakReferenceD1Ev(%"class.base::internal::WeakReference"* nonnull %6) #10
  call void @llvm.lifetime.end.p0i8(i64 8, i8* nonnull %65) #10, !noalias !10
  %70 = bitcast %"class.base::FilePath"* %16 to i8*
  call void @llvm.lifetime.start.p0i8(i64 24, i8* nonnull %70) #10
  call void @_ZN4base8FilePathC1Ev(%"class.base::FilePath"* nonnull %16) #10
  %71 = call i8* @_Znwm(i64 96) #9, !noalias !13
  %72 = bitcast i8* %71 to %"class.base::internal::BindStateBase"*
  call void @_ZN4base8internal13BindStateBaseC2EPFvvEPFvPKS1_EPFbS5_NS1_21CancellationQueryModeEE(%"class.base::internal::BindStateBase"* nonnull %72, void ()* bitcast (void (%"class.base::internal::BindStateBase"*)* @_ZN4base8internal7InvokerINS0_9BindStateIMN10extensions14ImageSanitizerEFvNS4_6StatusERKNS_8FilePathEEJNS_7WeakPtrIS4_EES5_S6_EEEFvvEE7RunOnceEPNS0_13BindStateBaseE to void ()*), void (%"class.base::internal::BindStateBase"*)* nonnull @_ZN4base8internal9BindStateIMN10extensions14ImageSanitizerEFvNS3_6StatusERKNS_8FilePathEEJNS_7WeakPtrIS3_EES4_S5_EE7DestroyEPKNS0_13BindStateBaseE, i1 (%"class.base::internal::BindStateBase"*, i32)* nonnull @_ZN4base8internal23QueryCancellationTraitsINS0_9BindStateIMN10extensions14ImageSanitizerEFvNS4_6StatusERKNS_8FilePathEEJNS_7WeakPtrIS4_EES5_S6_EEEEEbPKNS0_13BindStateBaseENSE_21CancellationQueryModeE) #10, !noalias !13
  %73 = getelementptr inbounds i8, i8* %71, i64 32
  %74 = bitcast i8* %73 to <2 x i64>*
  store <2 x i64> <i64 ptrtoint (void (%"class.extensions::ImageSanitizer"*, i32, %"class.base::FilePath"*)* @_ZN10extensions14ImageSanitizer11ReportErrorENS0_6StatusERKN4base8FilePathE to i64), i64 0>, <2 x i64>* %74, align 8, !noalias !13
  %75 = getelementptr inbounds i8, i8* %71, i64 48
  %76 = bitcast i8* %75 to %"class.base::internal::WeakReference"*
  %77 = getelementptr inbounds %"class.base::WeakPtr.200", %"class.base::WeakPtr.200"* %15, i64 0, i32 0, i32 0
  call void @_ZN4base8internal13WeakReferenceC1EOS1_(%"class.base::internal::WeakReference"* %76, %"class.base::internal::WeakReference"* nonnull dereferenceable(8) %77) #10, !noalias !13
  %78 = getelementptr inbounds i8, i8* %71, i64 56
  %79 = bitcast i8* %78 to i64*
  %80 = getelementptr inbounds %"class.base::WeakPtr.200", %"class.base::WeakPtr.200"* %15, i64 0, i32 0, i32 1
  %81 = load i64, i64* %80, align 8, !noalias !13
  store i64 %81, i64* %79, align 8, !noalias !13
  %82 = getelementptr inbounds i8, i8* %71, i64 64
  %83 = bitcast i8* %82 to i32*
  store i32 7, i32* %83, align 4, !noalias !13
  %84 = getelementptr inbounds i8, i8* %71, i64 72
  %85 = bitcast i8* %84 to %"class.base::FilePath"*
  call void @_ZN4base8FilePathC1EOS0_(%"class.base::FilePath"* %85, %"class.base::FilePath"* nonnull dereferenceable(24) %16) #10, !noalias !13
  %86 = bitcast %"class.base::OnceCallback.33"* %14 to i8**
  store i8* %71, i8** %86, align 8, !alias.scope !13
  %87 = bitcast %"class.base::OnceCallback.33"* %5 to i8*
  call void @llvm.lifetime.start.p0i8(i64 8, i8* nonnull %87)
  %88 = getelementptr inbounds %"class.extensions::ImageSanitizer", %"class.extensions::ImageSanitizer"* %0, i64 0, i32 5, i32 0, i32 0, i32 1, i32 0, i32 0, i32 0
  %89 = load %"class.mojo::InterfaceEndpointClient"*, %"class.mojo::InterfaceEndpointClient"** %88, align 8
  %90 = icmp eq %"class.mojo::InterfaceEndpointClient"* %89, null
  %91 = ptrtoint i8* %71 to i64
  br i1 %90, label %96, label %92

92:                                               ; preds = %56
  %93 = getelementptr inbounds %"class.mojo::InterfaceEndpointClient", %"class.mojo::InterfaceEndpointClient"* %89, i64 0, i32 19
  %94 = load i8, i8* %93, align 8, !range !18
  %95 = icmp eq i8 %94, 0
  br i1 %95, label %96, label %101

96:                                               ; preds = %92, %56
  %97 = getelementptr inbounds %"class.mojo::Remote", %"class.mojo::Remote"* %58, i64 0, i32 0
  %98 = getelementptr inbounds %"class.base::OnceCallback.33", %"class.base::OnceCallback.33"* %14, i64 0, i32 0, i32 0, i32 0
  %99 = bitcast %"class.base::OnceCallback.33"* %5 to i64*
  store i64 %91, i64* %99, align 8
  store %"class.base::internal::BindStateBase"* null, %"class.base::internal::BindStateBase"** %98, align 8
  call void @_ZN4mojo8internal17InterfacePtrStateIN12data_decoder5mojom12ImageDecoderEE28set_connection_error_handlerEN4base12OnceCallbackIFvvEEE(%"class.mojo::internal::InterfacePtrState"* %97, %"class.base::OnceCallback.33"* nonnull %5) #10
  %100 = getelementptr inbounds %"class.base::OnceCallback.33", %"class.base::OnceCallback.33"* %5, i64 0, i32 0
  call void @_ZN4base8internal12CallbackBaseD2Ev(%"class.base::internal::CallbackBase"* nonnull %100) #10
  br label %101

101:                                              ; preds = %92, %96
  call void @llvm.lifetime.end.p0i8(i64 8, i8* nonnull %87)
  %102 = getelementptr inbounds %"class.base::OnceCallback.33", %"class.base::OnceCallback.33"* %14, i64 0, i32 0
  call void @_ZN4base8internal12CallbackBaseD2Ev(%"class.base::internal::CallbackBase"* nonnull %102) #10
  call void @_ZN4base8FilePathD1Ev(%"class.base::FilePath"* nonnull %16) #10
  call void @llvm.lifetime.end.p0i8(i64 24, i8* nonnull %70) #10
  call void @_ZN4base8internal11WeakPtrBaseD2Ev(%"class.base::internal::WeakPtrBase"* nonnull %69) #10
  call void @llvm.lifetime.end.p0i8(i64 16, i8* nonnull %64) #10
  %103 = bitcast %"class.std::__1::set"* %17 to i8*
  call void @llvm.lifetime.start.p0i8(i64 24, i8* nonnull %103) #10
  %104 = getelementptr inbounds %"class.std::__1::set", %"class.std::__1::set"* %17, i64 0, i32 0, i32 0
  %105 = getelementptr inbounds %"class.std::__1::set", %"class.std::__1::set"* %17, i64 0, i32 0, i32 1, i32 0, i32 0, i32 0
  %106 = getelementptr inbounds %"class.std::__1::set", %"class.std::__1::set"* %17, i64 0, i32 0, i32 2, i32 0, i32 0
  %107 = getelementptr inbounds %"class.std::__1::set", %"class.std::__1::set"* %17, i64 0, i32 0, i32 1, i32 0, i32 0
  %108 = bitcast %"class.std::__1::__tree_node_base"** %105 to i8*
  call void @llvm.memset.p0i8.i64(i8* align 8 %108, i8 0, i64 16, i1 false) #10
  store %"class.std::__1::__tree_end_node"* %107, %"class.std::__1::__tree_end_node"** %104, align 16
  %109 = getelementptr inbounds %"class.std::__1::set", %"class.std::__1::set"* %27, i64 0, i32 0, i32 0
  %110 = load %"class.std::__1::__tree_end_node"*, %"class.std::__1::__tree_end_node"** %109, align 8
  %111 = getelementptr inbounds %"class.extensions::ImageSanitizer", %"class.extensions::ImageSanitizer"* %0, i64 0, i32 1, i32 0, i32 1, i32 0, i32 0
  %112 = icmp eq %"class.std::__1::__tree_end_node"* %110, %111
  br i1 %112, label %186, label %113

113:                                              ; preds = %101
  %114 = bitcast %"class.base::FilePath"* %18 to i8*
  %115 = getelementptr inbounds %"class.std::__1::set", %"class.std::__1::set"* %17, i64 0, i32 0
  %116 = bitcast %"class.base::FilePath"* %18 to i8*
  br label %117

117:                                              ; preds = %113, %183
  %118 = phi %"class.std::__1::__tree_end_node"* [ %110, %113 ], [ %184, %183 ]
  %119 = getelementptr inbounds %"class.std::__1::__tree_end_node", %"class.std::__1::__tree_end_node"* %118, i64 4
  %120 = bitcast %"class.std::__1::__tree_end_node"* %119 to %"class.base::FilePath"*
  call void @llvm.lifetime.start.p0i8(i64 24, i8* nonnull %114) #10
  call void @llvm.memset.p0i8.i64(i8* nonnull align 8 %116, i8 -86, i64 24, i1 false)
  call void @_ZN4base8FilePathC1Ev(%"class.base::FilePath"* nonnull %18) #10
  %121 = call zeroext i1 @_ZNK4base8FilePath10IsAbsoluteEv(%"class.base::FilePath"* %120) #10
  br i1 %121, label %126, label %122

122:                                              ; preds = %117
  %123 = call zeroext i1 @_ZNK4base8FilePath16ReferencesParentEv(%"class.base::FilePath"* %120) #10
  br i1 %123, label %126, label %124

124:                                              ; preds = %122
  %125 = call zeroext i1 @_Z30NormalizeExtensionResourcePathRKN4base8FilePathEPS0_(%"class.base::FilePath"* dereferenceable(24) %120, %"class.base::FilePath"* nonnull %18) #10
  br i1 %125, label %154, label %126

126:                                              ; preds = %124, %122, %117
  %127 = bitcast %"class.std::__1::__tree_end_node"* %119 to %"class.base::FilePath"*
  %128 = call dereferenceable(8) %class.scoped_refptr.12* @_ZN4base25SequencedTaskRunnerHandle3GetEv() #10
  %129 = bitcast %class.scoped_refptr.12* %128 to %"class.base::TaskRunner"**
  %130 = load %"class.base::TaskRunner"*, %"class.base::TaskRunner"** %129, align 8
  %131 = bitcast %"class.base::Location"* %19 to i8*
  call void @llvm.lifetime.start.p0i8(i64 32, i8* nonnull %131) #10
  call void @_ZN4base8Location7CurrentEPKcS2_i(%"class.base::Location"* nonnull sret %19, i8* getelementptr inbounds ([6 x i8], [6 x i8]* @.str, i64 0, i64 0), i8* getelementptr inbounds ([44 x i8], [44 x i8]* @.str.1, i64 0, i64 0), i32 111) #10
  %132 = bitcast %"class.base::WeakPtr.200"* %21 to i8*
  call void @llvm.lifetime.start.p0i8(i64 16, i8* nonnull %132) #10
  %133 = bitcast %"class.base::internal::WeakReference"* %4 to i8*
  call void @llvm.lifetime.start.p0i8(i64 8, i8* nonnull %133) #10, !noalias !19
  call void @_ZNK4base8internal18WeakReferenceOwner6GetRefEv(%"class.base::internal::WeakReference"* nonnull sret %4, %"class.base::internal::WeakReferenceOwner"* %66) #10, !noalias !19
  %134 = load i64, i64* %67, align 8, !noalias !19
  %135 = getelementptr inbounds %"class.base::WeakPtr.200", %"class.base::WeakPtr.200"* %21, i64 0, i32 0
  call void @_ZN4base8internal11WeakPtrBaseC2ERKNS0_13WeakReferenceEm(%"class.base::internal::WeakPtrBase"* nonnull %135, %"class.base::internal::WeakReference"* nonnull dereferenceable(8) %4, i64 %134) #10
  call void @_ZN4base8internal13WeakReferenceD1Ev(%"class.base::internal::WeakReference"* nonnull %4) #10
  call void @llvm.lifetime.end.p0i8(i64 8, i8* nonnull %133) #10, !noalias !19
  %136 = call i8* @_Znwm(i64 96) #9, !noalias !22
  %137 = bitcast i8* %136 to %"class.base::internal::BindStateBase"*
  call void @_ZN4base8internal13BindStateBaseC2EPFvvEPFvPKS1_EPFbS5_NS1_21CancellationQueryModeEE(%"class.base::internal::BindStateBase"* nonnull %137, void ()* bitcast (void (%"class.base::internal::BindStateBase"*)* @_ZN4base8internal7InvokerINS0_9BindStateIMN10extensions14ImageSanitizerEFvNS4_6StatusERKNS_8FilePathEEJNS_7WeakPtrIS4_EES5_S6_EEEFvvEE7RunOnceEPNS0_13BindStateBaseE to void ()*), void (%"class.base::internal::BindStateBase"*)* nonnull @_ZN4base8internal9BindStateIMN10extensions14ImageSanitizerEFvNS3_6StatusERKNS_8FilePathEEJNS_7WeakPtrIS3_EES4_S5_EE7DestroyEPKNS0_13BindStateBaseE, i1 (%"class.base::internal::BindStateBase"*, i32)* nonnull @_ZN4base8internal23QueryCancellationTraitsINS0_9BindStateIMN10extensions14ImageSanitizerEFvNS4_6StatusERKNS_8FilePathEEJNS_7WeakPtrIS4_EES5_S6_EEEEEbPKNS0_13BindStateBaseENSE_21CancellationQueryModeE) #10, !noalias !22
  %138 = getelementptr inbounds i8, i8* %136, i64 32
  %139 = bitcast i8* %138 to <2 x i64>*
  store <2 x i64> <i64 ptrtoint (void (%"class.extensions::ImageSanitizer"*, i32, %"class.base::FilePath"*)* @_ZN10extensions14ImageSanitizer11ReportErrorENS0_6StatusERKN4base8FilePathE to i64), i64 0>, <2 x i64>* %139, align 8, !noalias !22
  %140 = getelementptr inbounds i8, i8* %136, i64 48
  %141 = bitcast i8* %140 to %"class.base::internal::WeakReference"*
  %142 = getelementptr inbounds %"class.base::WeakPtr.200", %"class.base::WeakPtr.200"* %21, i64 0, i32 0, i32 0
  call void @_ZN4base8internal13WeakReferenceC1EOS1_(%"class.base::internal::WeakReference"* %141, %"class.base::internal::WeakReference"* nonnull dereferenceable(8) %142) #10, !noalias !22
  %143 = getelementptr inbounds i8, i8* %136, i64 56
  %144 = bitcast i8* %143 to i64*
  %145 = getelementptr inbounds %"class.base::WeakPtr.200", %"class.base::WeakPtr.200"* %21, i64 0, i32 0, i32 1
  %146 = load i64, i64* %145, align 8, !noalias !22
  store i64 %146, i64* %144, align 8, !noalias !22
  %147 = getelementptr inbounds i8, i8* %136, i64 64
  %148 = bitcast i8* %147 to i32*
  store i32 1, i32* %148, align 4, !noalias !22
  %149 = getelementptr inbounds i8, i8* %136, i64 72
  %150 = bitcast i8* %149 to %"class.base::FilePath"*
  call void @_ZN4base8FilePathC1ERKS0_(%"class.base::FilePath"* %150, %"class.base::FilePath"* dereferenceable(24) %127) #10, !noalias !22
  %151 = bitcast %"class.base::OnceCallback.33"* %20 to i8**
  store i8* %136, i8** %151, align 8, !alias.scope !22
  %152 = call zeroext i1 @_ZN4base10TaskRunner8PostTaskERKNS_8LocationENS_12OnceCallbackIFvvEEE(%"class.base::TaskRunner"* %130, %"class.base::Location"* nonnull dereferenceable(32) %19, %"class.base::OnceCallback.33"* nonnull %20) #10
  %153 = getelementptr inbounds %"class.base::OnceCallback.33", %"class.base::OnceCallback.33"* %20, i64 0, i32 0
  call void @_ZN4base8internal12CallbackBaseD2Ev(%"class.base::internal::CallbackBase"* nonnull %153) #10
  call void @_ZN4base8internal11WeakPtrBaseD2Ev(%"class.base::internal::WeakPtrBase"* nonnull %135) #10
  call void @llvm.lifetime.end.p0i8(i64 16, i8* nonnull %132) #10
  call void @llvm.lifetime.end.p0i8(i64 32, i8* nonnull %131) #10
  call void @_ZN4base8FilePathD1Ev(%"class.base::FilePath"* nonnull %18) #10
  call void @llvm.lifetime.end.p0i8(i64 24, i8* nonnull %114) #10
  br label %304

154:                                              ; preds = %124
  %155 = call { %"class.std::__1::__tree_end_node"*, i8 } @_ZNSt3__16__treeIN4base8FilePathENS_4lessIS2_EENS_9allocatorIS2_EEE15__insert_uniqueERKS2_(%"class.std::__1::__tree"* nonnull %115, %"class.base::FilePath"* nonnull dereferenceable(24) %18) #10
  call void @_ZN4base8FilePathD1Ev(%"class.base::FilePath"* nonnull %18) #10
  call void @llvm.lifetime.end.p0i8(i64 24, i8* nonnull %114) #10
  %156 = getelementptr inbounds %"class.std::__1::__tree_end_node", %"class.std::__1::__tree_end_node"* %118, i64 1, i32 0
  %157 = load %"class.std::__1::__tree_node_base"*, %"class.std::__1::__tree_node_base"** %156, align 8
  %158 = icmp eq %"class.std::__1::__tree_node_base"* %157, null
  br i1 %158, label %159, label %167

159:                                              ; preds = %154
  %160 = bitcast %"class.std::__1::__tree_end_node"* %118 to %"class.std::__1::__tree_node_base"*
  %161 = getelementptr inbounds %"class.std::__1::__tree_end_node", %"class.std::__1::__tree_end_node"* %118, i64 2
  %162 = bitcast %"class.std::__1::__tree_end_node"* %161 to %"class.std::__1::__tree_end_node"**
  %163 = load %"class.std::__1::__tree_end_node"*, %"class.std::__1::__tree_end_node"** %162, align 8
  %164 = getelementptr inbounds %"class.std::__1::__tree_end_node", %"class.std::__1::__tree_end_node"* %163, i64 0, i32 0
  %165 = load %"class.std::__1::__tree_node_base"*, %"class.std::__1::__tree_node_base"** %164, align 8
  %166 = icmp eq %"class.std::__1::__tree_node_base"* %165, %160
  br i1 %166, label %183, label %174

167:                                              ; preds = %154, %167
  %168 = phi %"class.std::__1::__tree_node_base"* [ %170, %167 ], [ %157, %154 ]
  %169 = getelementptr inbounds %"class.std::__1::__tree_node_base", %"class.std::__1::__tree_node_base"* %168, i64 0, i32 0, i32 0
  %170 = load %"class.std::__1::__tree_node_base"*, %"class.std::__1::__tree_node_base"** %169, align 8
  %171 = icmp eq %"class.std::__1::__tree_node_base"* %170, null
  br i1 %171, label %172, label %167

172:                                              ; preds = %167
  %173 = getelementptr inbounds %"class.std::__1::__tree_node_base", %"class.std::__1::__tree_node_base"* %168, i64 0, i32 0
  br label %183

174:                                              ; preds = %159, %174
  %175 = phi %"class.std::__1::__tree_end_node"** [ %178, %174 ], [ %162, %159 ]
  %176 = bitcast %"class.std::__1::__tree_end_node"** %175 to %"class.std::__1::__tree_node_base"**
  %177 = load %"class.std::__1::__tree_node_base"*, %"class.std::__1::__tree_node_base"** %176, align 8
  %178 = getelementptr inbounds %"class.std::__1::__tree_node_base", %"class.std::__1::__tree_node_base"* %177, i64 0, i32 2
  %179 = load %"class.std::__1::__tree_end_node"*, %"class.std::__1::__tree_end_node"** %178, align 8
  %180 = getelementptr inbounds %"class.std::__1::__tree_end_node", %"class.std::__1::__tree_end_node"* %179, i64 0, i32 0
  %181 = load %"class.std::__1::__tree_node_base"*, %"class.std::__1::__tree_node_base"** %180, align 8
  %182 = icmp eq %"class.std::__1::__tree_node_base"* %181, %177
  br i1 %182, label %183, label %174

183:                                              ; preds = %174, %159, %172
  %184 = phi %"class.std::__1::__tree_end_node"* [ %173, %172 ], [ %163, %159 ], [ %179, %174 ]
  %185 = icmp eq %"class.std::__1::__tree_end_node"* %184, %111
  br i1 %185, label %186, label %117

186:                                              ; preds = %183, %101
  %187 = getelementptr inbounds %"class.std::__1::set", %"class.std::__1::set"* %27, i64 0, i32 0
  %188 = bitcast %"class.std::__1::__tree_end_node"* %111 to %"class.std::__1::__tree_node"**
  %189 = load %"class.std::__1::__tree_node"*, %"class.std::__1::__tree_node"** %188, align 8
  call void @_ZNSt3__16__treeIN4base8FilePathENS_4lessIS2_EENS_9allocatorIS2_EEE7destroyEPNS_11__tree_nodeIS2_PvEE(%"class.std::__1::__tree"* %187, %"class.std::__1::__tree_node"* %189) #10
  %190 = bitcast %"class.std::__1::set"* %17 to <2 x i64>*
  %191 = load <2 x i64>, <2 x i64>* %190, align 16
  %192 = bitcast %"class.std::__1::set"* %27 to <2 x i64>*
  store <2 x i64> %191, <2 x i64>* %192, align 8
  %193 = load i64, i64* %106, align 16
  store i64 %193, i64* %28, align 8
  %194 = icmp eq i64 %193, 0
  br i1 %194, label %195, label %196

195:                                              ; preds = %186
  store %"class.std::__1::__tree_end_node"* %111, %"class.std::__1::__tree_end_node"** %109, align 8
  br label %304

196:                                              ; preds = %186
  %197 = extractelement <2 x i64> %191, i32 1
  %198 = inttoptr i64 %197 to %"class.std::__1::__tree_node_base"*
  %199 = getelementptr inbounds %"class.std::__1::__tree_node_base", %"class.std::__1::__tree_node_base"* %198, i64 0, i32 2
  store %"class.std::__1::__tree_end_node"* %111, %"class.std::__1::__tree_end_node"** %199, align 8
  store %"class.std::__1::__tree_end_node"* %107, %"class.std::__1::__tree_end_node"** %104, align 16
  %200 = bitcast %"class.std::__1::__tree_end_node"* %107 to i8*
  call void @llvm.memset.p0i8.i64(i8* align 8 %200, i8 0, i64 16, i1 false) #10
  %201 = load %"class.std::__1::__tree_end_node"*, %"class.std::__1::__tree_end_node"** %109, align 8
  %202 = icmp eq %"class.std::__1::__tree_end_node"* %201, %111
  br i1 %202, label %304, label %203

203:                                              ; preds = %196
  %204 = bitcast %"class.base::FilePath"* %22 to i8*
  %205 = getelementptr inbounds %"class.extensions::ImageSanitizer", %"class.extensions::ImageSanitizer"* %0, i64 0, i32 0
  %206 = getelementptr inbounds %"class.extensions::ImageSanitizer", %"class.extensions::ImageSanitizer"* %0, i64 0, i32 4, i32 0
  %207 = bitcast %"class.base::SequencedTaskRunner"** %206 to %"class.base::TaskRunner"**
  %208 = bitcast %"class.base::Location"* %23 to i8*
  %209 = bitcast %"class.base::OnceCallback.202"* %24 to i8**
  %210 = bitcast %"class.base::WeakPtr.200"* %26 to i8*
  %211 = bitcast %"class.base::internal::WeakReference"* %3 to i8*
  %212 = getelementptr inbounds %"class.base::WeakPtr.200", %"class.base::WeakPtr.200"* %26, i64 0, i32 0
  %213 = getelementptr inbounds %"class.base::WeakPtr.200", %"class.base::WeakPtr.200"* %26, i64 0, i32 0, i32 0
  %214 = getelementptr inbounds %"class.base::WeakPtr.200", %"class.base::WeakPtr.200"* %26, i64 0, i32 0, i32 1
  %215 = bitcast %"class.base::OnceCallback.203"* %25 to i8**
  %216 = bitcast %"class.base::OnceCallback.33"* %8 to i8*
  %217 = bitcast %"class.base::OnceCallback.33"* %9 to i8*
  %218 = getelementptr inbounds %"class.base::OnceCallback.202", %"class.base::OnceCallback.202"* %24, i64 0, i32 0, i32 0, i32 0
  %219 = bitcast %"class.base::OnceCallback.202"* %24 to i64*
  %220 = bitcast %"class.base::OnceCallback.33"* %8 to i8**
  %221 = getelementptr inbounds %"class.base::OnceCallback.203", %"class.base::OnceCallback.203"* %25, i64 0, i32 0, i32 0, i32 0
  %222 = bitcast %"class.base::OnceCallback.203"* %25 to i64*
  %223 = bitcast %"class.base::OnceCallback.33"* %9 to i8**
  %224 = getelementptr inbounds %"class.base::OnceCallback.33", %"class.base::OnceCallback.33"* %9, i64 0, i32 0
  %225 = getelementptr inbounds %"class.base::OnceCallback.33", %"class.base::OnceCallback.33"* %8, i64 0, i32 0
  %226 = getelementptr inbounds %"class.base::OnceCallback.203", %"class.base::OnceCallback.203"* %25, i64 0, i32 0
  %227 = getelementptr inbounds %"class.base::OnceCallback.202", %"class.base::OnceCallback.202"* %24, i64 0, i32 0
  %228 = bitcast %"class.base::FilePath"* %22 to i8*
  br label %229

229:                                              ; preds = %203, %301
  %230 = phi %"class.std::__1::__tree_end_node"* [ %201, %203 ], [ %302, %301 ]
  %231 = getelementptr inbounds %"class.std::__1::__tree_end_node", %"class.std::__1::__tree_end_node"* %230, i64 4
  %232 = bitcast %"class.std::__1::__tree_end_node"* %231 to %"class.base::FilePath"*
  call void @llvm.lifetime.start.p0i8(i64 24, i8* nonnull %204) #10
  call void @llvm.memset.p0i8.i64(i8* nonnull align 8 %228, i8 -86, i64 24, i1 false)
  call void @_ZNK4base8FilePath6AppendERKS0_(%"class.base::FilePath"* nonnull sret %22, %"class.base::FilePath"* %205, %"class.base::FilePath"* dereferenceable(24) %232) #10
  %233 = load %"class.base::TaskRunner"*, %"class.base::TaskRunner"** %207, align 8
  call void @llvm.lifetime.start.p0i8(i64 32, i8* nonnull %208) #10
  call void @_ZN4base8Location7CurrentEPKcS2_i(%"class.base::Location"* nonnull sret %23, i8* getelementptr inbounds ([6 x i8], [6 x i8]* @.str, i64 0, i64 0), i8* getelementptr inbounds ([44 x i8], [44 x i8]* @.str.1, i64 0, i64 0), i32 129) #10
  %234 = call i8* @_Znwm(i64 64) #9, !noalias !27
  %235 = bitcast i8* %234 to %"class.base::internal::BindStateBase"*
  call void @_ZN4base8internal13BindStateBaseC2EPFvvEPFvPKS1_E(%"class.base::internal::BindStateBase"* nonnull %235, void ()* bitcast (void (%"class.std::__1::tuple"*, %"class.base::internal::BindStateBase"*)* @_ZN4base8internal7InvokerINS0_9BindStateIPFNSt3__15tupleIJNS3_6vectorIhNS3_9allocatorIhEEEEbbEEERKNS_8FilePathEEJSA_EEEFS9_vEE7RunOnceEPNS0_13BindStateBaseE to void ()*), void (%"class.base::internal::BindStateBase"*)* nonnull @_ZN4base8internal9BindStateIPFNSt3__15tupleIJNS2_6vectorIhNS2_9allocatorIhEEEEbbEEERKNS_8FilePathEEJS9_EE7DestroyEPKNS0_13BindStateBaseE) #10, !noalias !27
  %236 = getelementptr inbounds i8, i8* %234, i64 32
  %237 = bitcast i8* %236 to i64*
  store i64 ptrtoint (void (%"class.std::__1::tuple"*, %"class.base::FilePath"*)* @_ZN10extensions12_GLOBAL__N_123ReadAndDeleteBinaryFileERKN4base8FilePathE to i64), i64* %237, align 8, !noalias !27
  %238 = getelementptr inbounds i8, i8* %234, i64 40
  %239 = bitcast i8* %238 to %"class.base::FilePath"*
  call void @_ZN4base8FilePathC1ERKS0_(%"class.base::FilePath"* %239, %"class.base::FilePath"* nonnull dereferenceable(24) %22) #10, !noalias !27
  store i8* %234, i8** %209, align 8, !alias.scope !27
  call void @llvm.lifetime.start.p0i8(i64 16, i8* nonnull %210) #10
  call void @llvm.lifetime.start.p0i8(i64 8, i8* nonnull %211) #10, !noalias !32
  call void @_ZNK4base8internal18WeakReferenceOwner6GetRefEv(%"class.base::internal::WeakReference"* nonnull sret %3, %"class.base::internal::WeakReferenceOwner"* %66) #10, !noalias !32
  %240 = load i64, i64* %67, align 8, !noalias !32
  call void @_ZN4base8internal11WeakPtrBaseC2ERKNS0_13WeakReferenceEm(%"class.base::internal::WeakPtrBase"* nonnull %212, %"class.base::internal::WeakReference"* nonnull dereferenceable(8) %3, i64 %240) #10
  call void @_ZN4base8internal13WeakReferenceD1Ev(%"class.base::internal::WeakReference"* nonnull %3) #10
  call void @llvm.lifetime.end.p0i8(i64 8, i8* nonnull %211) #10, !noalias !32
  %241 = call i8* @_Znwm(i64 88) #9, !noalias !35
  %242 = bitcast i8* %241 to %"class.base::internal::BindStateBase"*
  call void @_ZN4base8internal13BindStateBaseC2EPFvvEPFvPKS1_EPFbS5_NS1_21CancellationQueryModeEE(%"class.base::internal::BindStateBase"* nonnull %242, void ()* bitcast (void (%"class.base::internal::BindStateBase"*, %"class.std::__1::tuple"*)* @_ZN4base8internal7InvokerINS0_9BindStateIMN10extensions14ImageSanitizerEFvRKNS_8FilePathENSt3__15tupleIJNS8_6vectorIhNS8_9allocatorIhEEEEbbEEEEJNS_7WeakPtrIS4_EES5_EEEFvSE_EE7RunOnceEPNS0_13BindStateBaseEOSE_ to void ()*), void (%"class.base::internal::BindStateBase"*)* nonnull @_ZN4base8internal9BindStateIMN10extensions14ImageSanitizerEFvRKNS_8FilePathENSt3__15tupleIJNS7_6vectorIhNS7_9allocatorIhEEEEbbEEEEJNS_7WeakPtrIS3_EES4_EE7DestroyEPKNS0_13BindStateBaseE, i1 (%"class.base::internal::BindStateBase"*, i32)* nonnull @_ZN4base8internal23QueryCancellationTraitsINS0_9BindStateIMN10extensions14ImageSanitizerEFvRKNS_8FilePathENSt3__15tupleIJNS8_6vectorIhNS8_9allocatorIhEEEEbbEEEEJNS_7WeakPtrIS4_EES5_EEEEEbPKNS0_13BindStateBaseENSK_21CancellationQueryModeE) #10, !noalias !35
  %243 = getelementptr inbounds i8, i8* %241, i64 32
  %244 = bitcast i8* %243 to <2 x i64>*
  store <2 x i64> <i64 ptrtoint (void (%"class.extensions::ImageSanitizer"*, %"class.base::FilePath"*, %"class.std::__1::tuple"*)* @_ZN10extensions14ImageSanitizer13ImageFileReadERKN4base8FilePathENSt3__15tupleIJNS5_6vectorIhNS5_9allocatorIhEEEEbbEEE to i64), i64 0>, <2 x i64>* %244, align 8, !noalias !35
  %245 = getelementptr inbounds i8, i8* %241, i64 48
  %246 = bitcast i8* %245 to %"class.base::internal::WeakReference"*
  call void @_ZN4base8internal13WeakReferenceC1EOS1_(%"class.base::internal::WeakReference"* %246, %"class.base::internal::WeakReference"* nonnull dereferenceable(8) %213) #10, !noalias !35
  %247 = getelementptr inbounds i8, i8* %241, i64 56
  %248 = bitcast i8* %247 to i64*
  %249 = load i64, i64* %214, align 8, !noalias !35
  store i64 %249, i64* %248, align 8, !noalias !35
  %250 = getelementptr inbounds i8, i8* %241, i64 64
  %251 = bitcast i8* %250 to %"class.base::FilePath"*
  call void @_ZN4base8FilePathC1ERKS0_(%"class.base::FilePath"* %251, %"class.base::FilePath"* dereferenceable(24) %232) #10, !noalias !35
  store i8* %241, i8** %215, align 8, !alias.scope !35
  call void @llvm.lifetime.start.p0i8(i64 8, i8* nonnull %216)
  call void @llvm.lifetime.start.p0i8(i64 8, i8* nonnull %217)
  %252 = call i8* @_Znwm(i64 8) #9
  %253 = bitcast i8* %252 to i64*
  store i64 0, i64* %253, align 8
  %254 = ptrtoint i8* %252 to i64
  %255 = call i8* @_Znwm(i64 56) #9, !noalias !40
  %256 = bitcast i8* %255 to %"class.base::internal::BindStateBase"*
  call void @_ZN4base8internal13BindStateBaseC2EPFvvEPFvPKS1_E(%"class.base::internal::BindStateBase"* nonnull %256, void ()* bitcast (void (%"class.base::internal::BindStateBase"*)* @_ZN4base8internal7InvokerINS0_9BindStateIPFvNS_12OnceCallbackIFNSt3__15tupleIJNS4_6vectorIhNS4_9allocatorIhEEEEbbEEEvEEEPNS4_10unique_ptrISA_NS4_14default_deleteISA_EEEEEJSC_SH_EEEFvvEE7RunOnceEPNS0_13BindStateBaseE to void ()*), void (%"class.base::internal::BindStateBase"*)* nonnull @_ZN4base8internal9BindStateIPFvNS_12OnceCallbackIFNSt3__15tupleIJNS3_6vectorIhNS3_9allocatorIhEEEEbbEEEvEEEPNS3_10unique_ptrIS9_NS3_14default_deleteIS9_EEEEEJSB_SG_EE7DestroyEPKNS0_13BindStateBaseE) #10, !noalias !40
  %257 = getelementptr inbounds i8, i8* %255, i64 32
  %258 = bitcast i8* %257 to i64*
  store i64 ptrtoint (void (%"class.base::OnceCallback.202"*, %"class.std::__1::unique_ptr.279"*)* @_ZN4base8internal20ReturnAsParamAdapterINSt3__15tupleIJNS2_6vectorIhNS2_9allocatorIhEEEEbbEEEEEvNS_12OnceCallbackIFT_vEEEPNS2_10unique_ptrISA_NS2_14default_deleteISA_EEEE to i64), i64* %258, align 8, !noalias !40
  %259 = getelementptr inbounds i8, i8* %255, i64 40
  %260 = load i64, i64* %219, align 8, !noalias !40
  %261 = bitcast i8* %259 to i64*
  store i64 %260, i64* %261, align 8, !noalias !40
  store %"class.base::internal::BindStateBase"* null, %"class.base::internal::BindStateBase"** %218, align 8, !noalias !40
  %262 = getelementptr inbounds i8, i8* %255, i64 48
  %263 = bitcast i8* %262 to i64*
  store i64 %254, i64* %263, align 8, !noalias !40
  store i8* %255, i8** %220, align 8, !alias.scope !40
  %264 = call i8* @_Znwm(i64 56) #9, !noalias !45
  %265 = bitcast i8* %264 to %"class.base::internal::BindStateBase"*
  call void @_ZN4base8internal13BindStateBaseC2EPFvvEPFvPKS1_E(%"class.base::internal::BindStateBase"* nonnull %265, void ()* bitcast (void (%"class.base::internal::BindStateBase"*)* @_ZN4base8internal7InvokerINS0_9BindStateIPFvNS_12OnceCallbackIFvNSt3__15tupleIJNS4_6vectorIhNS4_9allocatorIhEEEEbbEEEEEEPNS4_10unique_ptrISA_NS4_14default_deleteISA_EEEEEJSC_NS0_12OwnedWrapperISG_NSE_ISG_EEEEEEEFvvEE7RunOnceEPNS0_13BindStateBaseE to void ()*), void (%"class.base::internal::BindStateBase"*)* nonnull @_ZN4base8internal9BindStateIPFvNS_12OnceCallbackIFvNSt3__15tupleIJNS3_6vectorIhNS3_9allocatorIhEEEEbbEEEEEEPNS3_10unique_ptrIS9_NS3_14default_deleteIS9_EEEEEJSB_NS0_12OwnedWrapperISF_NSD_ISF_EEEEEE7DestroyEPKNS0_13BindStateBaseE) #10, !noalias !45
  %266 = getelementptr inbounds i8, i8* %264, i64 32
  %267 = bitcast i8* %266 to i64*
  store i64 ptrtoint (void (%"class.base::OnceCallback.203"*, %"class.std::__1::unique_ptr.279"*)* @_ZN4base8internal12ReplyAdapterINSt3__15tupleIJNS2_6vectorIhNS2_9allocatorIhEEEEbbEEES8_EEvNS_12OnceCallbackIFvT0_EEEPNS2_10unique_ptrIT_NS2_14default_deleteISE_EEEE to i64), i64* %267, align 8, !noalias !45
  %268 = getelementptr inbounds i8, i8* %264, i64 40
  %269 = load i64, i64* %222, align 8, !noalias !45
  %270 = bitcast i8* %268 to i64*
  store i64 %269, i64* %270, align 8, !noalias !45
  store %"class.base::internal::BindStateBase"* null, %"class.base::internal::BindStateBase"** %221, align 8, !noalias !45
  %271 = getelementptr inbounds i8, i8* %264, i64 48
  %272 = bitcast i8* %271 to i64*
  store i64 %254, i64* %272, align 8, !noalias !45
  store i8* %264, i8** %223, align 8, !alias.scope !45
  %273 = call zeroext i1 @_ZN4base10TaskRunner16PostTaskAndReplyERKNS_8LocationENS_12OnceCallbackIFvvEEES6_(%"class.base::TaskRunner"* %233, %"class.base::Location"* nonnull dereferenceable(32) %23, %"class.base::OnceCallback.33"* nonnull %8, %"class.base::OnceCallback.33"* nonnull %9) #10
  call void @_ZN4base8internal12CallbackBaseD2Ev(%"class.base::internal::CallbackBase"* nonnull %224) #10
  call void @_ZN4base8internal12CallbackBaseD2Ev(%"class.base::internal::CallbackBase"* nonnull %225) #10
  call void @llvm.lifetime.end.p0i8(i64 8, i8* nonnull %216)
  call void @llvm.lifetime.end.p0i8(i64 8, i8* nonnull %217)
  call void @_ZN4base8internal12CallbackBaseD2Ev(%"class.base::internal::CallbackBase"* nonnull %226) #10
  call void @_ZN4base8internal11WeakPtrBaseD2Ev(%"class.base::internal::WeakPtrBase"* nonnull %212) #10
  call void @llvm.lifetime.end.p0i8(i64 16, i8* nonnull %210) #10
  call void @_ZN4base8internal12CallbackBaseD2Ev(%"class.base::internal::CallbackBase"* nonnull %227) #10
  call void @llvm.lifetime.end.p0i8(i64 32, i8* nonnull %208) #10
  call void @_ZN4base8FilePathD1Ev(%"class.base::FilePath"* nonnull %22) #10
  call void @llvm.lifetime.end.p0i8(i64 24, i8* nonnull %204) #10
  %274 = getelementptr inbounds %"class.std::__1::__tree_end_node", %"class.std::__1::__tree_end_node"* %230, i64 1, i32 0
  %275 = load %"class.std::__1::__tree_node_base"*, %"class.std::__1::__tree_node_base"** %274, align 8
  %276 = icmp eq %"class.std::__1::__tree_node_base"* %275, null
  br i1 %276, label %277, label %285

277:                                              ; preds = %229
  %278 = bitcast %"class.std::__1::__tree_end_node"* %230 to %"class.std::__1::__tree_node_base"*
  %279 = getelementptr inbounds %"class.std::__1::__tree_end_node", %"class.std::__1::__tree_end_node"* %230, i64 2
  %280 = bitcast %"class.std::__1::__tree_end_node"* %279 to %"class.std::__1::__tree_end_node"**
  %281 = load %"class.std::__1::__tree_end_node"*, %"class.std::__1::__tree_end_node"** %280, align 8
  %282 = getelementptr inbounds %"class.std::__1::__tree_end_node", %"class.std::__1::__tree_end_node"* %281, i64 0, i32 0
  %283 = load %"class.std::__1::__tree_node_base"*, %"class.std::__1::__tree_node_base"** %282, align 8
  %284 = icmp eq %"class.std::__1::__tree_node_base"* %283, %278
  br i1 %284, label %301, label %292

285:                                              ; preds = %229, %285
  %286 = phi %"class.std::__1::__tree_node_base"* [ %288, %285 ], [ %275, %229 ]
  %287 = getelementptr inbounds %"class.std::__1::__tree_node_base", %"class.std::__1::__tree_node_base"* %286, i64 0, i32 0, i32 0
  %288 = load %"class.std::__1::__tree_node_base"*, %"class.std::__1::__tree_node_base"** %287, align 8
  %289 = icmp eq %"class.std::__1::__tree_node_base"* %288, null
  br i1 %289, label %290, label %285

290:                                              ; preds = %285
  %291 = getelementptr inbounds %"class.std::__1::__tree_node_base", %"class.std::__1::__tree_node_base"* %286, i64 0, i32 0
  br label %301

292:                                              ; preds = %277, %292
  %293 = phi %"class.std::__1::__tree_end_node"** [ %296, %292 ], [ %280, %277 ]
  %294 = bitcast %"class.std::__1::__tree_end_node"** %293 to %"class.std::__1::__tree_node_base"**
  %295 = load %"class.std::__1::__tree_node_base"*, %"class.std::__1::__tree_node_base"** %294, align 8
  %296 = getelementptr inbounds %"class.std::__1::__tree_node_base", %"class.std::__1::__tree_node_base"* %295, i64 0, i32 2
  %297 = load %"class.std::__1::__tree_end_node"*, %"class.std::__1::__tree_end_node"** %296, align 8
  %298 = getelementptr inbounds %"class.std::__1::__tree_end_node", %"class.std::__1::__tree_end_node"* %297, i64 0, i32 0
  %299 = load %"class.std::__1::__tree_node_base"*, %"class.std::__1::__tree_node_base"** %298, align 8
  %300 = icmp eq %"class.std::__1::__tree_node_base"* %299, %295
  br i1 %300, label %301, label %292

301:                                              ; preds = %292, %277, %290
  %302 = phi %"class.std::__1::__tree_end_node"* [ %291, %290 ], [ %281, %277 ], [ %297, %292 ]
  %303 = icmp eq %"class.std::__1::__tree_end_node"* %302, %111
  br i1 %303, label %304, label %229

304:                                              ; preds = %301, %195, %196, %126
  %305 = getelementptr inbounds %"class.std::__1::set", %"class.std::__1::set"* %17, i64 0, i32 0
  %306 = bitcast %"class.std::__1::__tree_end_node"* %107 to %"class.std::__1::__tree_node"**
  %307 = load %"class.std::__1::__tree_node"*, %"class.std::__1::__tree_node"** %306, align 8
  call void @_ZNSt3__16__treeIN4base8FilePathENS_4lessIS2_EENS_9allocatorIS2_EEE7destroyEPNS_11__tree_nodeIS2_PvEE(%"class.std::__1::__tree"* nonnull %305, %"class.std::__1::__tree_node"* %307) #10
  call void @llvm.lifetime.end.p0i8(i64 24, i8* nonnull %103) #10
  br label %308

308:                                              ; preds = %304, %31
  ret void
}

; Function Attrs: nounwind ssp uwtable
define hidden void @_ZN10extensions14ImageSanitizerC2ERKN4base8FilePathERKNSt3__13setIS2_NS5_4lessIS2_EENS5_9allocatorIS2_EEEENS1_17RepeatingCallbackIFvS4_8SkBitmapEEENS1_12OnceCallbackIFvNS0_6StatusES4_EEERK13scoped_refptrINS1_19SequencedTaskRunnerEE(%"class.extensions::ImageSanitizer"*, %"class.base::FilePath"* dereferenceable(24), %"class.std::__1::set"* readonly dereferenceable(24), %"class.base::RepeatingCallback"* nocapture, %"class.base::OnceCallback"* nocapture, %class.scoped_refptr.12* nocapture readonly dereferenceable(8)) unnamed_addr #0 align 2 {
  %7 = getelementptr inbounds %"class.extensions::ImageSanitizer", %"class.extensions::ImageSanitizer"* %0, i64 0, i32 0
  tail call void @_ZN4base8FilePathC1ERKS0_(%"class.base::FilePath"* %7, %"class.base::FilePath"* dereferenceable(24) %1) #10
  %8 = getelementptr inbounds %"class.extensions::ImageSanitizer", %"class.extensions::ImageSanitizer"* %0, i64 0, i32 1
  %9 = getelementptr inbounds %"class.std::__1::set", %"class.std::__1::set"* %8, i64 0, i32 0
  %10 = getelementptr inbounds %"class.std::__1::set", %"class.std::__1::set"* %8, i64 0, i32 0, i32 0
  %11 = getelementptr inbounds %"class.extensions::ImageSanitizer", %"class.extensions::ImageSanitizer"* %0, i64 0, i32 1, i32 0, i32 1, i32 0, i32 0
  %12 = getelementptr inbounds %"class.extensions::ImageSanitizer", %"class.extensions::ImageSanitizer"* %0, i64 0, i32 1, i32 0, i32 1
  %13 = bitcast %"class.std::__1::__compressed_pair.3"* %12 to i8*
  tail call void @llvm.memset.p0i8.i64(i8* align 8 %13, i8 0, i64 16, i1 false) #10
  store %"class.std::__1::__tree_end_node"* %11, %"class.std::__1::__tree_end_node"** %10, align 8
  %14 = getelementptr inbounds %"class.std::__1::set", %"class.std::__1::set"* %2, i64 0, i32 0, i32 0
  %15 = load %"class.std::__1::__tree_end_node"*, %"class.std::__1::__tree_end_node"** %14, align 8
  %16 = getelementptr inbounds %"class.std::__1::set", %"class.std::__1::set"* %2, i64 0, i32 0, i32 1, i32 0, i32 0
  %17 = icmp eq %"class.std::__1::__tree_end_node"* %15, %16
  br i1 %17, label %53, label %18

18:                                               ; preds = %6, %50
  %19 = phi %"class.std::__1::__tree_end_node"* [ %51, %50 ], [ %15, %6 ]
  %20 = getelementptr inbounds %"class.std::__1::__tree_end_node", %"class.std::__1::__tree_end_node"* %19, i64 4
  %21 = bitcast %"class.std::__1::__tree_end_node"* %20 to %"class.base::FilePath"*
  %22 = tail call { %"class.std::__1::__tree_end_node"*, i8 } @_ZNSt3__16__treeIN4base8FilePathENS_4lessIS2_EENS_9allocatorIS2_EEE30__emplace_hint_unique_key_argsIS2_JRKS2_EEENS_4pairINS_15__tree_iteratorIS2_PNS_11__tree_nodeIS2_PvEElEEbEENS_21__tree_const_iteratorIS2_SG_lEERKT_DpOT0_(%"class.std::__1::__tree"* %9, %"class.std::__1::__tree_end_node"* %11, %"class.base::FilePath"* dereferenceable(24) %21, %"class.base::FilePath"* dereferenceable(24) %21) #10
  %23 = getelementptr inbounds %"class.std::__1::__tree_end_node", %"class.std::__1::__tree_end_node"* %19, i64 1, i32 0
  %24 = load %"class.std::__1::__tree_node_base"*, %"class.std::__1::__tree_node_base"** %23, align 8
  %25 = icmp eq %"class.std::__1::__tree_node_base"* %24, null
  br i1 %25, label %26, label %34

26:                                               ; preds = %18
  %27 = bitcast %"class.std::__1::__tree_end_node"* %19 to %"class.std::__1::__tree_node_base"*
  %28 = getelementptr inbounds %"class.std::__1::__tree_end_node", %"class.std::__1::__tree_end_node"* %19, i64 2
  %29 = bitcast %"class.std::__1::__tree_end_node"* %28 to %"class.std::__1::__tree_end_node"**
  %30 = load %"class.std::__1::__tree_end_node"*, %"class.std::__1::__tree_end_node"** %29, align 8
  %31 = getelementptr inbounds %"class.std::__1::__tree_end_node", %"class.std::__1::__tree_end_node"* %30, i64 0, i32 0
  %32 = load %"class.std::__1::__tree_node_base"*, %"class.std::__1::__tree_node_base"** %31, align 8
  %33 = icmp eq %"class.std::__1::__tree_node_base"* %32, %27
  br i1 %33, label %50, label %41

34:                                               ; preds = %18, %34
  %35 = phi %"class.std::__1::__tree_node_base"* [ %37, %34 ], [ %24, %18 ]
  %36 = getelementptr inbounds %"class.std::__1::__tree_node_base", %"class.std::__1::__tree_node_base"* %35, i64 0, i32 0, i32 0
  %37 = load %"class.std::__1::__tree_node_base"*, %"class.std::__1::__tree_node_base"** %36, align 8
  %38 = icmp eq %"class.std::__1::__tree_node_base"* %37, null
  br i1 %38, label %39, label %34

39:                                               ; preds = %34
  %40 = getelementptr inbounds %"class.std::__1::__tree_node_base", %"class.std::__1::__tree_node_base"* %35, i64 0, i32 0
  br label %50

41:                                               ; preds = %26, %41
  %42 = phi %"class.std::__1::__tree_end_node"** [ %45, %41 ], [ %29, %26 ]
  %43 = bitcast %"class.std::__1::__tree_end_node"** %42 to %"class.std::__1::__tree_node_base"**
  %44 = load %"class.std::__1::__tree_node_base"*, %"class.std::__1::__tree_node_base"** %43, align 8
  %45 = getelementptr inbounds %"class.std::__1::__tree_node_base", %"class.std::__1::__tree_node_base"* %44, i64 0, i32 2
  %46 = load %"class.std::__1::__tree_end_node"*, %"class.std::__1::__tree_end_node"** %45, align 8
  %47 = getelementptr inbounds %"class.std::__1::__tree_end_node", %"class.std::__1::__tree_end_node"* %46, i64 0, i32 0
  %48 = load %"class.std::__1::__tree_node_base"*, %"class.std::__1::__tree_node_base"** %47, align 8
  %49 = icmp eq %"class.std::__1::__tree_node_base"* %48, %44
  br i1 %49, label %50, label %41

50:                                               ; preds = %41, %39, %26
  %51 = phi %"class.std::__1::__tree_end_node"* [ %40, %39 ], [ %30, %26 ], [ %46, %41 ]
  %52 = icmp eq %"class.std::__1::__tree_end_node"* %51, %16
  br i1 %52, label %53, label %18

53:                                               ; preds = %50, %6
  %54 = getelementptr inbounds %"class.extensions::ImageSanitizer", %"class.extensions::ImageSanitizer"* %0, i64 0, i32 2
  %55 = getelementptr inbounds %"class.base::RepeatingCallback", %"class.base::RepeatingCallback"* %3, i64 0, i32 0, i32 0, i32 0, i32 0
  %56 = bitcast %"class.base::RepeatingCallback"* %3 to i64*
  %57 = load i64, i64* %56, align 8
  %58 = bitcast %"class.base::RepeatingCallback"* %54 to i64*
  store i64 %57, i64* %58, align 8
  store %"class.base::internal::BindStateBase"* null, %"class.base::internal::BindStateBase"** %55, align 8
  %59 = getelementptr inbounds %"class.extensions::ImageSanitizer", %"class.extensions::ImageSanitizer"* %0, i64 0, i32 3
  %60 = getelementptr inbounds %"class.base::OnceCallback", %"class.base::OnceCallback"* %4, i64 0, i32 0, i32 0, i32 0
  %61 = bitcast %"class.base::OnceCallback"* %4 to i64*
  %62 = load i64, i64* %61, align 8
  %63 = bitcast %"class.base::OnceCallback"* %59 to i64*
  store i64 %62, i64* %63, align 8
  store %"class.base::internal::BindStateBase"* null, %"class.base::internal::BindStateBase"** %60, align 8
  %64 = getelementptr inbounds %class.scoped_refptr.12, %class.scoped_refptr.12* %5, i64 0, i32 0
  %65 = load %"class.base::SequencedTaskRunner"*, %"class.base::SequencedTaskRunner"** %64, align 8
  %66 = getelementptr inbounds %"class.extensions::ImageSanitizer", %"class.extensions::ImageSanitizer"* %0, i64 0, i32 4, i32 0
  store %"class.base::SequencedTaskRunner"* %65, %"class.base::SequencedTaskRunner"** %66, align 8
  %67 = icmp eq %"class.base::SequencedTaskRunner"* %65, null
  br i1 %67, label %71, label %68

68:                                               ; preds = %53
  %69 = getelementptr inbounds %"class.base::SequencedTaskRunner", %"class.base::SequencedTaskRunner"* %65, i64 0, i32 0, i32 1, i32 0, i32 0, i32 0, i32 0, i32 0, i32 0, i32 0, i32 0
  %70 = atomicrmw add i32* %69, i32 1 monotonic
  br label %71

71:                                               ; preds = %53, %68
  %72 = getelementptr inbounds %"class.extensions::ImageSanitizer", %"class.extensions::ImageSanitizer"* %0, i64 0, i32 5
  %73 = bitcast %"class.mojo::Remote"* %72 to %"class.mojo::internal::InterfacePtrStateBase"*
  tail call void @_ZN4mojo8internal21InterfacePtrStateBaseC2Ev(%"class.mojo::internal::InterfacePtrStateBase"* %73) #10
  %74 = getelementptr inbounds %"class.extensions::ImageSanitizer", %"class.extensions::ImageSanitizer"* %0, i64 0, i32 5, i32 0, i32 1
  %75 = bitcast %"class.std::__1::unique_ptr.176"* %74 to i64*
  store i64 0, i64* %75, align 8
  %76 = getelementptr inbounds %"class.extensions::ImageSanitizer", %"class.extensions::ImageSanitizer"* %0, i64 0, i32 6, i32 0
  %77 = ptrtoint %"class.extensions::ImageSanitizer"* %0 to i64
  tail call void @_ZN4base8internal18WeakPtrFactoryBaseC2Em(%"class.base::internal::WeakPtrFactoryBase"* %76, i64 %77) #10
  ret void
}

declare void @_ZN4base8FilePathC1ERKS0_(%"class.base::FilePath"*, %"class.base::FilePath"* dereferenceable(24)) unnamed_addr #3

; Function Attrs: nounwind ssp uwtable
define hidden void @_ZN10extensions14ImageSanitizerD2Ev(%"class.extensions::ImageSanitizer"*) unnamed_addr #0 align 2 {
  %2 = getelementptr inbounds %"class.extensions::ImageSanitizer", %"class.extensions::ImageSanitizer"* %0, i64 0, i32 6, i32 0
  tail call void @_ZN4base8internal18WeakPtrFactoryBaseD2Ev(%"class.base::internal::WeakPtrFactoryBase"* %2) #10
  %3 = getelementptr inbounds %"class.extensions::ImageSanitizer", %"class.extensions::ImageSanitizer"* %0, i64 0, i32 5
  %4 = getelementptr inbounds %"class.extensions::ImageSanitizer", %"class.extensions::ImageSanitizer"* %0, i64 0, i32 5, i32 0, i32 1, i32 0, i32 0, i32 0
  %5 = load %"class.data_decoder::mojom::ImageDecoderProxy"*, %"class.data_decoder::mojom::ImageDecoderProxy"** %4, align 8
  store %"class.data_decoder::mojom::ImageDecoderProxy"* null, %"class.data_decoder::mojom::ImageDecoderProxy"** %4, align 8
  %6 = icmp eq %"class.data_decoder::mojom::ImageDecoderProxy"* %5, null
  br i1 %6, label %12, label %7

7:                                                ; preds = %1
  %8 = bitcast %"class.data_decoder::mojom::ImageDecoderProxy"* %5 to void (%"class.data_decoder::mojom::ImageDecoderProxy"*)***
  %9 = load void (%"class.data_decoder::mojom::ImageDecoderProxy"*)**, void (%"class.data_decoder::mojom::ImageDecoderProxy"*)*** %8, align 8
  %10 = getelementptr inbounds void (%"class.data_decoder::mojom::ImageDecoderProxy"*)*, void (%"class.data_decoder::mojom::ImageDecoderProxy"*)** %9, i64 1
  %11 = load void (%"class.data_decoder::mojom::ImageDecoderProxy"*)*, void (%"class.data_decoder::mojom::ImageDecoderProxy"*)** %10, align 8
  tail call void %11(%"class.data_decoder::mojom::ImageDecoderProxy"* nonnull %5) #10
  br label %12

12:                                               ; preds = %1, %7
  %13 = bitcast %"class.mojo::Remote"* %3 to %"class.mojo::internal::InterfacePtrStateBase"*
  tail call void @_ZN4mojo8internal21InterfacePtrStateBaseD2Ev(%"class.mojo::internal::InterfacePtrStateBase"* %13) #10
  %14 = getelementptr inbounds %"class.extensions::ImageSanitizer", %"class.extensions::ImageSanitizer"* %0, i64 0, i32 4, i32 0
  %15 = load %"class.base::SequencedTaskRunner"*, %"class.base::SequencedTaskRunner"** %14, align 8
  %16 = icmp eq %"class.base::SequencedTaskRunner"* %15, null
  br i1 %16, label %25, label %17

17:                                               ; preds = %12
  %18 = getelementptr inbounds %"class.base::SequencedTaskRunner", %"class.base::SequencedTaskRunner"* %15, i64 0, i32 0, i32 1
  %19 = getelementptr inbounds %"class.base::RefCountedThreadSafe.13", %"class.base::RefCountedThreadSafe.13"* %18, i64 0, i32 0, i32 0, i32 0, i32 0, i32 0, i32 0, i32 0, i32 0
  %20 = atomicrmw sub i32* %19, i32 1 acq_rel
  %21 = icmp eq i32 %20, 1
  br i1 %21, label %22, label %25

22:                                               ; preds = %17
  %23 = getelementptr inbounds %"class.base::RefCountedThreadSafe.13", %"class.base::RefCountedThreadSafe.13"* %18, i64 -2
  %24 = bitcast %"class.base::RefCountedThreadSafe.13"* %23 to %"class.base::TaskRunner"*
  tail call void @_ZN4base16TaskRunnerTraits8DestructEPKNS_10TaskRunnerE(%"class.base::TaskRunner"* %24) #10
  br label %25

25:                                               ; preds = %12, %17, %22
  %26 = getelementptr inbounds %"class.extensions::ImageSanitizer", %"class.extensions::ImageSanitizer"* %0, i64 0, i32 3, i32 0
  tail call void @_ZN4base8internal12CallbackBaseD2Ev(%"class.base::internal::CallbackBase"* %26) #10
  %27 = getelementptr inbounds %"class.extensions::ImageSanitizer", %"class.extensions::ImageSanitizer"* %0, i64 0, i32 2, i32 0, i32 0
  tail call void @_ZN4base8internal12CallbackBaseD2Ev(%"class.base::internal::CallbackBase"* %27) #10
  %28 = getelementptr inbounds %"class.extensions::ImageSanitizer", %"class.extensions::ImageSanitizer"* %0, i64 0, i32 1, i32 0
  %29 = getelementptr inbounds %"class.extensions::ImageSanitizer", %"class.extensions::ImageSanitizer"* %0, i64 0, i32 1, i32 0, i32 1, i32 0, i32 0
  %30 = bitcast %"class.std::__1::__tree_end_node"* %29 to %"class.std::__1::__tree_node"**
  %31 = load %"class.std::__1::__tree_node"*, %"class.std::__1::__tree_node"** %30, align 8
  tail call void @_ZNSt3__16__treeIN4base8FilePathENS_4lessIS2_EENS_9allocatorIS2_EEE7destroyEPNS_11__tree_nodeIS2_PvEE(%"class.std::__1::__tree"* %28, %"class.std::__1::__tree_node"* %31) #10
  %32 = getelementptr inbounds %"class.extensions::ImageSanitizer", %"class.extensions::ImageSanitizer"* %0, i64 0, i32 0
  tail call void @_ZN4base8FilePathD1Ev(%"class.base::FilePath"* %32) #10
  ret void
}

; Function Attrs: nounwind
declare void @_ZN4base8internal18WeakPtrFactoryBaseD2Ev(%"class.base::internal::WeakPtrFactoryBase"*) unnamed_addr #2

; Function Attrs: nounwind
declare void @_ZN4base8FilePathD1Ev(%"class.base::FilePath"*) unnamed_addr #2

declare dereferenceable(8) %class.scoped_refptr.12* @_ZN4base25SequencedTaskRunnerHandle3GetEv() local_unnamed_addr #3

declare zeroext i1 @_ZN4base10TaskRunner8PostTaskERKNS_8LocationENS_12OnceCallbackIFvvEEE(%"class.base::TaskRunner"*, %"class.base::Location"* dereferenceable(32), %"class.base::OnceCallback.33"*) local_unnamed_addr #3

; Function Attrs: argmemonly nounwind
declare void @llvm.lifetime.start.p0i8(i64 immarg, i8* nocapture) #4

declare void @_ZN4base8Location7CurrentEPKcS2_i(%"class.base::Location"* sret, i8*, i8*, i32) local_unnamed_addr #3

; Function Attrs: nounwind ssp uwtable
define hidden void @_ZN10extensions14ImageSanitizer13ReportSuccessEv(%"class.extensions::ImageSanitizer"*) #0 align 2 {
  %2 = alloca %"class.base::OnceCallback", align 8
  %3 = alloca %"class.mojo::internal::InterfacePtrState", align 8
  %4 = alloca %"class.base::FilePath", align 8
  %5 = getelementptr inbounds %"class.extensions::ImageSanitizer", %"class.extensions::ImageSanitizer"* %0, i64 0, i32 5
  %6 = bitcast %"class.mojo::internal::InterfacePtrState"* %3 to i8*
  call void @llvm.lifetime.start.p0i8(i64 48, i8* nonnull %6) #10
  call void @llvm.memset.p0i8.i64(i8* nonnull align 8 %6, i8 -86, i64 48, i1 false) #10
  %7 = bitcast %"class.mojo::internal::InterfacePtrState"* %3 to %"class.mojo::internal::InterfacePtrStateBase"*
  call void @_ZN4mojo8internal21InterfacePtrStateBaseC2Ev(%"class.mojo::internal::InterfacePtrStateBase"* nonnull %7) #10
  %8 = getelementptr inbounds %"class.mojo::internal::InterfacePtrState", %"class.mojo::internal::InterfacePtrState"* %3, i64 0, i32 1
  %9 = bitcast %"class.std::__1::unique_ptr.176"* %8 to i64*
  %10 = getelementptr inbounds %"class.extensions::ImageSanitizer", %"class.extensions::ImageSanitizer"* %0, i64 0, i32 5, i32 0, i32 1
  %11 = bitcast %"class.std::__1::unique_ptr.176"* %10 to i64*
  %12 = load i64, i64* %11, align 8
  store i64 %12, i64* %9, align 8
  store i64 0, i64* %11, align 8
  %13 = bitcast %"class.mojo::Remote"* %5 to %"class.mojo::internal::InterfacePtrStateBase"*
  call void @_ZN4mojo8internal21InterfacePtrStateBase4SwapEPS1_(%"class.mojo::internal::InterfacePtrStateBase"* %13, %"class.mojo::internal::InterfacePtrStateBase"* nonnull %7) #10
  %14 = getelementptr inbounds %"class.mojo::internal::InterfacePtrState", %"class.mojo::internal::InterfacePtrState"* %3, i64 0, i32 1, i32 0, i32 0, i32 0
  %15 = load %"class.data_decoder::mojom::ImageDecoderProxy"*, %"class.data_decoder::mojom::ImageDecoderProxy"** %14, align 8
  store %"class.data_decoder::mojom::ImageDecoderProxy"* null, %"class.data_decoder::mojom::ImageDecoderProxy"** %14, align 8
  %16 = icmp eq %"class.data_decoder::mojom::ImageDecoderProxy"* %15, null
  br i1 %16, label %22, label %17

17:                                               ; preds = %1
  %18 = bitcast %"class.data_decoder::mojom::ImageDecoderProxy"* %15 to void (%"class.data_decoder::mojom::ImageDecoderProxy"*)***
  %19 = load void (%"class.data_decoder::mojom::ImageDecoderProxy"*)**, void (%"class.data_decoder::mojom::ImageDecoderProxy"*)*** %18, align 8
  %20 = getelementptr inbounds void (%"class.data_decoder::mojom::ImageDecoderProxy"*)*, void (%"class.data_decoder::mojom::ImageDecoderProxy"*)** %19, i64 1
  %21 = load void (%"class.data_decoder::mojom::ImageDecoderProxy"*)*, void (%"class.data_decoder::mojom::ImageDecoderProxy"*)** %20, align 8
  call void %21(%"class.data_decoder::mojom::ImageDecoderProxy"* nonnull %15) #10
  br label %22

22:                                               ; preds = %1, %17
  call void @_ZN4mojo8internal21InterfacePtrStateBaseD2Ev(%"class.mojo::internal::InterfacePtrStateBase"* nonnull %7) #10
  call void @llvm.lifetime.end.p0i8(i64 48, i8* nonnull %6) #10
  %23 = getelementptr inbounds %"class.extensions::ImageSanitizer", %"class.extensions::ImageSanitizer"* %0, i64 0, i32 2, i32 0, i32 0
  call void @_ZN4base8internal12CallbackBase5ResetEv(%"class.base::internal::CallbackBase"* %23) #10
  %24 = getelementptr inbounds %"class.extensions::ImageSanitizer", %"class.extensions::ImageSanitizer"* %0, i64 0, i32 3
  %25 = bitcast %"class.base::FilePath"* %4 to i8*
  call void @llvm.lifetime.start.p0i8(i64 24, i8* nonnull %25) #10
  call void @_ZN4base8FilePathC1Ev(%"class.base::FilePath"* nonnull %4) #10
  %26 = bitcast %"class.base::OnceCallback"* %2 to i8*
  call void @llvm.lifetime.start.p0i8(i64 8, i8* nonnull %26) #10
  %27 = getelementptr inbounds %"class.base::OnceCallback", %"class.base::OnceCallback"* %24, i64 0, i32 0, i32 0, i32 0
  %28 = bitcast %"class.base::OnceCallback"* %24 to i64*
  %29 = load i64, i64* %28, align 8
  %30 = bitcast %"class.base::OnceCallback"* %2 to i64*
  store i64 %29, i64* %30, align 8
  store %"class.base::internal::BindStateBase"* null, %"class.base::internal::BindStateBase"** %27, align 8
  %31 = getelementptr inbounds %"class.base::OnceCallback", %"class.base::OnceCallback"* %2, i64 0, i32 0
  %32 = inttoptr i64 %29 to %"class.base::internal::BindStateBase"*
  %33 = getelementptr inbounds %"class.base::internal::BindStateBase", %"class.base::internal::BindStateBase"* %32, i64 0, i32 1
  %34 = bitcast void ()** %33 to void (%"class.base::internal::BindStateBase"*, i32, %"class.base::FilePath"*)**
  %35 = load void (%"class.base::internal::BindStateBase"*, i32, %"class.base::FilePath"*)*, void (%"class.base::internal::BindStateBase"*, i32, %"class.base::FilePath"*)** %34, align 8
  call void %35(%"class.base::internal::BindStateBase"* %32, i32 0, %"class.base::FilePath"* nonnull dereferenceable(24) %4) #10
  call void @_ZN4base8internal12CallbackBaseD2Ev(%"class.base::internal::CallbackBase"* nonnull %31) #10
  call void @llvm.lifetime.end.p0i8(i64 8, i8* nonnull %26) #10
  call void @_ZN4base8FilePathD1Ev(%"class.base::FilePath"* nonnull %4) #10
  call void @llvm.lifetime.end.p0i8(i64 24, i8* nonnull %25) #10
  ret void
}

; Function Attrs: nounwind
declare void @_ZN4base8internal11WeakPtrBaseD2Ev(%"class.base::internal::WeakPtrBase"*) unnamed_addr #2

; Function Attrs: argmemonly nounwind
declare void @llvm.lifetime.end.p0i8(i64 immarg, i8* nocapture) #4

declare %"class.data_decoder::mojom::DataDecoderService"* @_ZN12data_decoder11DataDecoder10GetServiceEv(%"class.data_decoder::DataDecoder"*) local_unnamed_addr #3

; Function Attrs: nounwind ssp uwtable
define hidden void @_ZN10extensions14ImageSanitizer11ReportErrorENS0_6StatusERKN4base8FilePathE(%"class.extensions::ImageSanitizer"*, i32, %"class.base::FilePath"* dereferenceable(24)) #0 align 2 {
  %4 = alloca %"class.base::OnceCallback", align 8
  %5 = alloca %"class.mojo::internal::InterfacePtrState", align 8
  %6 = getelementptr inbounds %"class.extensions::ImageSanitizer", %"class.extensions::ImageSanitizer"* %0, i64 0, i32 5
  %7 = bitcast %"class.mojo::internal::InterfacePtrState"* %5 to i8*
  call void @llvm.lifetime.start.p0i8(i64 48, i8* nonnull %7) #10
  call void @llvm.memset.p0i8.i64(i8* nonnull align 8 %7, i8 -86, i64 48, i1 false) #10
  %8 = bitcast %"class.mojo::internal::InterfacePtrState"* %5 to %"class.mojo::internal::InterfacePtrStateBase"*
  call void @_ZN4mojo8internal21InterfacePtrStateBaseC2Ev(%"class.mojo::internal::InterfacePtrStateBase"* nonnull %8) #10
  %9 = getelementptr inbounds %"class.mojo::internal::InterfacePtrState", %"class.mojo::internal::InterfacePtrState"* %5, i64 0, i32 1
  %10 = bitcast %"class.std::__1::unique_ptr.176"* %9 to i64*
  %11 = getelementptr inbounds %"class.extensions::ImageSanitizer", %"class.extensions::ImageSanitizer"* %0, i64 0, i32 5, i32 0, i32 1
  %12 = bitcast %"class.std::__1::unique_ptr.176"* %11 to i64*
  %13 = load i64, i64* %12, align 8
  store i64 %13, i64* %10, align 8
  store i64 0, i64* %12, align 8
  %14 = bitcast %"class.mojo::Remote"* %6 to %"class.mojo::internal::InterfacePtrStateBase"*
  call void @_ZN4mojo8internal21InterfacePtrStateBase4SwapEPS1_(%"class.mojo::internal::InterfacePtrStateBase"* %14, %"class.mojo::internal::InterfacePtrStateBase"* nonnull %8) #10
  %15 = getelementptr inbounds %"class.mojo::internal::InterfacePtrState", %"class.mojo::internal::InterfacePtrState"* %5, i64 0, i32 1, i32 0, i32 0, i32 0
  %16 = load %"class.data_decoder::mojom::ImageDecoderProxy"*, %"class.data_decoder::mojom::ImageDecoderProxy"** %15, align 8
  store %"class.data_decoder::mojom::ImageDecoderProxy"* null, %"class.data_decoder::mojom::ImageDecoderProxy"** %15, align 8
  %17 = icmp eq %"class.data_decoder::mojom::ImageDecoderProxy"* %16, null
  br i1 %17, label %23, label %18

18:                                               ; preds = %3
  %19 = bitcast %"class.data_decoder::mojom::ImageDecoderProxy"* %16 to void (%"class.data_decoder::mojom::ImageDecoderProxy"*)***
  %20 = load void (%"class.data_decoder::mojom::ImageDecoderProxy"*)**, void (%"class.data_decoder::mojom::ImageDecoderProxy"*)*** %19, align 8
  %21 = getelementptr inbounds void (%"class.data_decoder::mojom::ImageDecoderProxy"*)*, void (%"class.data_decoder::mojom::ImageDecoderProxy"*)** %20, i64 1
  %22 = load void (%"class.data_decoder::mojom::ImageDecoderProxy"*)*, void (%"class.data_decoder::mojom::ImageDecoderProxy"*)** %21, align 8
  call void %22(%"class.data_decoder::mojom::ImageDecoderProxy"* nonnull %16) #10
  br label %23

23:                                               ; preds = %3, %18
  call void @_ZN4mojo8internal21InterfacePtrStateBaseD2Ev(%"class.mojo::internal::InterfacePtrStateBase"* nonnull %8) #10
  call void @llvm.lifetime.end.p0i8(i64 48, i8* nonnull %7) #10
  %24 = getelementptr inbounds %"class.extensions::ImageSanitizer", %"class.extensions::ImageSanitizer"* %0, i64 0, i32 2, i32 0, i32 0
  call void @_ZN4base8internal12CallbackBase5ResetEv(%"class.base::internal::CallbackBase"* %24) #10
  %25 = getelementptr inbounds %"class.extensions::ImageSanitizer", %"class.extensions::ImageSanitizer"* %0, i64 0, i32 6, i32 0, i32 0
  call void @_ZN4base8internal18WeakReferenceOwner10InvalidateEv(%"class.base::internal::WeakReferenceOwner"* %25) #10
  %26 = getelementptr inbounds %"class.extensions::ImageSanitizer", %"class.extensions::ImageSanitizer"* %0, i64 0, i32 3
  %27 = bitcast %"class.base::OnceCallback"* %4 to i8*
  call void @llvm.lifetime.start.p0i8(i64 8, i8* nonnull %27) #10
  %28 = getelementptr inbounds %"class.base::OnceCallback", %"class.base::OnceCallback"* %26, i64 0, i32 0, i32 0, i32 0
  %29 = bitcast %"class.base::OnceCallback"* %26 to i64*
  %30 = load i64, i64* %29, align 8
  %31 = bitcast %"class.base::OnceCallback"* %4 to i64*
  store i64 %30, i64* %31, align 8
  store %"class.base::internal::BindStateBase"* null, %"class.base::internal::BindStateBase"** %28, align 8
  %32 = getelementptr inbounds %"class.base::OnceCallback", %"class.base::OnceCallback"* %4, i64 0, i32 0
  %33 = inttoptr i64 %30 to %"class.base::internal::BindStateBase"*
  %34 = getelementptr inbounds %"class.base::internal::BindStateBase", %"class.base::internal::BindStateBase"* %33, i64 0, i32 1
  %35 = bitcast void ()** %34 to void (%"class.base::internal::BindStateBase"*, i32, %"class.base::FilePath"*)**
  %36 = load void (%"class.base::internal::BindStateBase"*, i32, %"class.base::FilePath"*)*, void (%"class.base::internal::BindStateBase"*, i32, %"class.base::FilePath"*)** %35, align 8
  call void %36(%"class.base::internal::BindStateBase"* %33, i32 %1, %"class.base::FilePath"* dereferenceable(24) %2) #10
  call void @_ZN4base8internal12CallbackBaseD2Ev(%"class.base::internal::CallbackBase"* nonnull %32) #10
  call void @llvm.lifetime.end.p0i8(i64 8, i8* nonnull %27) #10
  ret void
}

declare void @_ZN4base8FilePathC1Ev(%"class.base::FilePath"*) unnamed_addr #3

declare zeroext i1 @_ZNK4base8FilePath10IsAbsoluteEv(%"class.base::FilePath"*) local_unnamed_addr #3

declare zeroext i1 @_ZNK4base8FilePath16ReferencesParentEv(%"class.base::FilePath"*) local_unnamed_addr #3

declare zeroext i1 @_Z30NormalizeExtensionResourcePathRKN4base8FilePathEPS0_(%"class.base::FilePath"* dereferenceable(24), %"class.base::FilePath"*) local_unnamed_addr #3

declare void @_ZNK4base8FilePath6AppendERKS0_(%"class.base::FilePath"* sret, %"class.base::FilePath"*, %"class.base::FilePath"* dereferenceable(24)) local_unnamed_addr #3

; Function Attrs: nounwind ssp uwtable
define internal void @_ZN10extensions12_GLOBAL__N_123ReadAndDeleteBinaryFileERKN4base8FilePathE(%"class.std::__1::tuple"* noalias nocapture sret, %"class.base::FilePath"* dereferenceable(24)) #0 {
  %3 = alloca %"class.std::__1::vector", align 16
  %4 = alloca i64, align 8
  %5 = bitcast %"class.std::__1::vector"* %3 to i8*
  call void @llvm.lifetime.start.p0i8(i64 24, i8* nonnull %5) #10
  %6 = getelementptr inbounds %"class.std::__1::vector", %"class.std::__1::vector"* %3, i64 0, i32 0, i32 0
  %7 = getelementptr inbounds %"class.std::__1::vector", %"class.std::__1::vector"* %3, i64 0, i32 0, i32 2, i32 0, i32 0
  call void @llvm.memset.p0i8.i64(i8* nonnull align 16 %5, i8 0, i64 24, i1 false) #10
  %8 = bitcast i64* %4 to i8*
  call void @llvm.lifetime.start.p0i8(i64 8, i8* nonnull %8) #10
  store i64 -6148914691236517206, i64* %4, align 8
  %9 = call zeroext i1 @_ZN4base11GetFileSizeERKNS_8FilePathEPl(%"class.base::FilePath"* dereferenceable(24) %1, i64* nonnull %4) #10
  br i1 %9, label %10, label %25

10:                                               ; preds = %2
  %11 = load i64, i64* %4, align 8
  %12 = icmp eq i64 %11, 0
  br i1 %12, label %17, label %13

13:                                               ; preds = %10
  call void @_ZNSt3__16vectorIhNS_9allocatorIhEEE8__appendEm(%"class.std::__1::vector"* nonnull %3, i64 %11) #10
  %14 = load i8*, i8** %6, align 16
  %15 = load i64, i64* %4, align 8
  %16 = trunc i64 %15 to i32
  br label %17

17:                                               ; preds = %10, %13
  %18 = phi i32 [ %16, %13 ], [ 0, %10 ]
  %19 = phi i8* [ %14, %13 ], [ null, %10 ]
  %20 = call i32 @_ZN4base8ReadFileERKNS_8FilePathEPci(%"class.base::FilePath"* dereferenceable(24) %1, i8* %19, i32 %18) #10
  %21 = sext i32 %20 to i64
  %22 = load i64, i64* %4, align 8
  %23 = icmp eq i64 %22, %21
  %24 = zext i1 %23 to i8
  br label %25

25:                                               ; preds = %17, %2
  %26 = phi i8 [ %24, %17 ], [ 0, %2 ]
  %27 = call zeroext i1 @_ZN4base10DeleteFileERKNS_8FilePathE(%"class.base::FilePath"* dereferenceable(24) %1) #10
  %28 = zext i1 %27 to i8
  %29 = bitcast %"class.std::__1::vector"* %3 to <2 x i64>*
  %30 = load <2 x i64>, <2 x i64>* %29, align 16, !noalias !50
  %31 = bitcast %"class.std::__1::tuple"* %0 to <2 x i64>*
  store <2 x i64> %30, <2 x i64>* %31, align 8, !alias.scope !50
  %32 = bitcast i8** %7 to i64*
  %33 = load i64, i64* %32, align 16, !noalias !50
  %34 = getelementptr inbounds %"class.std::__1::tuple", %"class.std::__1::tuple"* %0, i64 0, i32 0, i32 0, i32 0, i32 0, i32 2, i32 0, i32 0
  %35 = bitcast i8** %34 to i64*
  store i64 %33, i64* %35, align 8, !alias.scope !50
  %36 = getelementptr inbounds %"class.std::__1::tuple", %"class.std::__1::tuple"* %0, i64 0, i32 0, i32 1, i32 0
  store i8 %26, i8* %36, align 1, !alias.scope !50
  %37 = getelementptr inbounds %"class.std::__1::tuple", %"class.std::__1::tuple"* %0, i64 0, i32 0, i32 2, i32 0
  store i8 %28, i8* %37, align 1, !alias.scope !50
  call void @llvm.lifetime.end.p0i8(i64 8, i8* nonnull %8) #10
  call void @llvm.lifetime.end.p0i8(i64 24, i8* nonnull %5) #10
  ret void
}

; Function Attrs: nounwind ssp uwtable
define hidden void @_ZN10extensions14ImageSanitizer13ImageFileReadERKN4base8FilePathENSt3__15tupleIJNS5_6vectorIhNS5_9allocatorIhEEEEbbEEE(%"class.extensions::ImageSanitizer"*, %"class.base::FilePath"* dereferenceable(24), %"class.std::__1::tuple"*) #0 align 2 {
  %4 = alloca %"class.base::internal::WeakReference", align 8
  %5 = alloca %"class.mojo_base::BigBuffer", align 8
  %6 = alloca %"class.gfx::Size", align 4
  %7 = alloca %"class.base::OnceCallback.230", align 8
  %8 = alloca %"class.base::WeakPtr.200", align 8
  %9 = getelementptr inbounds %"class.std::__1::tuple", %"class.std::__1::tuple"* %2, i64 0, i32 0, i32 1, i32 0
  %10 = load i8, i8* %9, align 1, !range !18
  %11 = icmp eq i8 %10, 0
  br i1 %11, label %12, label %13

12:                                               ; preds = %3
  tail call void @_ZN10extensions14ImageSanitizer11ReportErrorENS0_6StatusERKN4base8FilePathE(%"class.extensions::ImageSanitizer"* %0, i32 2, %"class.base::FilePath"* dereferenceable(24) %1)
  br label %72

13:                                               ; preds = %3
  %14 = getelementptr inbounds %"class.std::__1::tuple", %"class.std::__1::tuple"* %2, i64 0, i32 0, i32 2, i32 0
  %15 = load i8, i8* %14, align 1, !range !18
  %16 = icmp eq i8 %15, 0
  br i1 %16, label %17, label %18

17:                                               ; preds = %13
  tail call void @_ZN10extensions14ImageSanitizer11ReportErrorENS0_6StatusERKN4base8FilePathE(%"class.extensions::ImageSanitizer"* %0, i32 3, %"class.base::FilePath"* dereferenceable(24) %1)
  br label %72

18:                                               ; preds = %13
  %19 = getelementptr inbounds %"class.std::__1::tuple", %"class.std::__1::tuple"* %2, i64 0, i32 0, i32 0, i32 0
  %20 = getelementptr inbounds %"class.extensions::ImageSanitizer", %"class.extensions::ImageSanitizer"* %0, i64 0, i32 5, i32 0, i32 1
  %21 = getelementptr inbounds %"class.std::__1::unique_ptr.176", %"class.std::__1::unique_ptr.176"* %20, i64 0, i32 0, i32 0, i32 0
  %22 = load %"class.data_decoder::mojom::ImageDecoderProxy"*, %"class.data_decoder::mojom::ImageDecoderProxy"** %21, align 8
  %23 = icmp eq %"class.data_decoder::mojom::ImageDecoderProxy"* %22, null
  br i1 %23, label %24, label %46

24:                                               ; preds = %18
  %25 = getelementptr inbounds %"class.extensions::ImageSanitizer", %"class.extensions::ImageSanitizer"* %0, i64 0, i32 5
  %26 = bitcast %"class.mojo::Remote"* %25 to %"class.mojo::internal::InterfacePtrStateBase"*
  %27 = tail call i8* @_Znwm(i64 8) #9
  %28 = bitcast i8* %27 to i32 (...)***
  store i32 (...)** bitcast (i8** getelementptr inbounds ({ [6 x i8*] }, { [6 x i8*] }* @_ZTVN12data_decoder5mojom29ImageDecoderResponseValidatorE, i64 0, inrange i32 0, i64 2) to i32 (...)**), i32 (...)*** %28, align 8
  %29 = bitcast i8* %27 to %"class.mojo::MessageReceiver"*
  %30 = tail call zeroext i1 @_ZN4mojo8internal21InterfacePtrStateBase24InitializeEndpointClientEbbbNSt3__110unique_ptrINS_15MessageReceiverENS2_14default_deleteIS4_EEEEPKc(%"class.mojo::internal::InterfacePtrStateBase"* %26, i1 zeroext false, i1 zeroext false, i1 zeroext false, %"class.mojo::MessageReceiver"* nonnull %29, i8* getelementptr inbounds ([0 x i8], [0 x i8]* @_ZN12data_decoder5mojom12ImageDecoder5Name_E, i64 0, i64 0)) #10
  br i1 %30, label %31, label %46

31:                                               ; preds = %24
  %32 = getelementptr inbounds %"class.extensions::ImageSanitizer", %"class.extensions::ImageSanitizer"* %0, i64 0, i32 5, i32 0, i32 0, i32 1, i32 0, i32 0, i32 0
  %33 = bitcast %"class.mojo::InterfaceEndpointClient"** %32 to %"class.mojo::MessageReceiverWithResponder"**
  %34 = load %"class.mojo::MessageReceiverWithResponder"*, %"class.mojo::MessageReceiverWithResponder"** %33, align 8
  %35 = tail call i8* @_Znwm(i64 16) #9
  %36 = bitcast i8* %35 to %"class.data_decoder::mojom::ImageDecoderProxy"*
  tail call void @_ZN12data_decoder5mojom17ImageDecoderProxyC1EPN4mojo28MessageReceiverWithResponderE(%"class.data_decoder::mojom::ImageDecoderProxy"* nonnull %36, %"class.mojo::MessageReceiverWithResponder"* %34) #10
  %37 = ptrtoint i8* %35 to i64
  %38 = load %"class.data_decoder::mojom::ImageDecoderProxy"*, %"class.data_decoder::mojom::ImageDecoderProxy"** %21, align 8
  %39 = bitcast %"class.std::__1::unique_ptr.176"* %20 to i64*
  store i64 %37, i64* %39, align 8
  %40 = icmp eq %"class.data_decoder::mojom::ImageDecoderProxy"* %38, null
  br i1 %40, label %46, label %41

41:                                               ; preds = %31
  %42 = bitcast %"class.data_decoder::mojom::ImageDecoderProxy"* %38 to void (%"class.data_decoder::mojom::ImageDecoderProxy"*)***
  %43 = load void (%"class.data_decoder::mojom::ImageDecoderProxy"*)**, void (%"class.data_decoder::mojom::ImageDecoderProxy"*)*** %42, align 8
  %44 = getelementptr inbounds void (%"class.data_decoder::mojom::ImageDecoderProxy"*)*, void (%"class.data_decoder::mojom::ImageDecoderProxy"*)** %43, i64 1
  %45 = load void (%"class.data_decoder::mojom::ImageDecoderProxy"*)*, void (%"class.data_decoder::mojom::ImageDecoderProxy"*)** %44, align 8
  tail call void %45(%"class.data_decoder::mojom::ImageDecoderProxy"* nonnull %38) #10
  br label %46

46:                                               ; preds = %18, %24, %31, %41
  %47 = load %"class.data_decoder::mojom::ImageDecoderProxy"*, %"class.data_decoder::mojom::ImageDecoderProxy"** %21, align 8
  call void @_ZN9mojo_base9BigBufferC1ERKNSt3__16vectorIhNS1_9allocatorIhEEEE(%"class.mojo_base::BigBuffer"* nonnull %5, %"class.std::__1::vector"* dereferenceable(24) %19) #10
  %48 = bitcast %"class.gfx::Size"* %6 to i8*
  call void @llvm.lifetime.start.p0i8(i64 8, i8* nonnull %48) #10
  %49 = getelementptr inbounds %"class.gfx::Size", %"class.gfx::Size"* %6, i64 0, i32 0
  store i32 0, i32* %49, align 4
  %50 = getelementptr inbounds %"class.gfx::Size", %"class.gfx::Size"* %6, i64 0, i32 1
  store i32 0, i32* %50, align 4
  %51 = bitcast %"class.base::WeakPtr.200"* %8 to i8*
  call void @llvm.lifetime.start.p0i8(i64 16, i8* nonnull %51) #10
  %52 = bitcast %"class.base::internal::WeakReference"* %4 to i8*
  call void @llvm.lifetime.start.p0i8(i64 8, i8* nonnull %52) #10, !noalias !53
  %53 = getelementptr inbounds %"class.extensions::ImageSanitizer", %"class.extensions::ImageSanitizer"* %0, i64 0, i32 6, i32 0, i32 0
  call void @_ZNK4base8internal18WeakReferenceOwner6GetRefEv(%"class.base::internal::WeakReference"* nonnull sret %4, %"class.base::internal::WeakReferenceOwner"* %53) #10, !noalias !53
  %54 = getelementptr inbounds %"class.extensions::ImageSanitizer", %"class.extensions::ImageSanitizer"* %0, i64 0, i32 6, i32 0, i32 1
  %55 = load i64, i64* %54, align 8, !noalias !53
  %56 = getelementptr inbounds %"class.base::WeakPtr.200", %"class.base::WeakPtr.200"* %8, i64 0, i32 0
  call void @_ZN4base8internal11WeakPtrBaseC2ERKNS0_13WeakReferenceEm(%"class.base::internal::WeakPtrBase"* nonnull %56, %"class.base::internal::WeakReference"* nonnull dereferenceable(8) %4, i64 %55) #10
  call void @_ZN4base8internal13WeakReferenceD1Ev(%"class.base::internal::WeakReference"* nonnull %4) #10
  call void @llvm.lifetime.end.p0i8(i64 8, i8* nonnull %52) #10, !noalias !53
  %57 = call i8* @_Znwm(i64 88) #9, !noalias !56
  %58 = bitcast i8* %57 to %"class.base::internal::BindStateBase"*
  call void @_ZN4base8internal13BindStateBaseC2EPFvvEPFvPKS1_EPFbS5_NS1_21CancellationQueryModeEE(%"class.base::internal::BindStateBase"* nonnull %58, void ()* bitcast (void (%"class.base::internal::BindStateBase"*, %class.SkBitmap*)* @_ZN4base8internal7InvokerINS0_9BindStateIMN10extensions14ImageSanitizerEFvRKNS_8FilePathERK8SkBitmapEJNS_7WeakPtrIS4_EES5_EEEFvSA_EE7RunOnceEPNS0_13BindStateBaseESA_ to void ()*), void (%"class.base::internal::BindStateBase"*)* nonnull @_ZN4base8internal9BindStateIMN10extensions14ImageSanitizerEFvRKNS_8FilePathERK8SkBitmapEJNS_7WeakPtrIS3_EES4_EE7DestroyEPKNS0_13BindStateBaseE, i1 (%"class.base::internal::BindStateBase"*, i32)* nonnull @_ZN4base8internal23QueryCancellationTraitsINS0_9BindStateIMN10extensions14ImageSanitizerEFvRKNS_8FilePathERK8SkBitmapEJNS_7WeakPtrIS4_EES5_EEEEEbPKNS0_13BindStateBaseENSG_21CancellationQueryModeE) #10, !noalias !56
  %59 = getelementptr inbounds i8, i8* %57, i64 32
  %60 = bitcast i8* %59 to <2 x i64>*
  store <2 x i64> <i64 ptrtoint (void (%"class.extensions::ImageSanitizer"*, %"class.base::FilePath"*, %class.SkBitmap*)* @_ZN10extensions14ImageSanitizer12ImageDecodedERKN4base8FilePathERK8SkBitmap to i64), i64 0>, <2 x i64>* %60, align 8, !noalias !56
  %61 = getelementptr inbounds i8, i8* %57, i64 48
  %62 = bitcast i8* %61 to %"class.base::internal::WeakReference"*
  %63 = getelementptr inbounds %"class.base::WeakPtr.200", %"class.base::WeakPtr.200"* %8, i64 0, i32 0, i32 0
  call void @_ZN4base8internal13WeakReferenceC1EOS1_(%"class.base::internal::WeakReference"* %62, %"class.base::internal::WeakReference"* nonnull dereferenceable(8) %63) #10, !noalias !56
  %64 = getelementptr inbounds i8, i8* %57, i64 56
  %65 = bitcast i8* %64 to i64*
  %66 = getelementptr inbounds %"class.base::WeakPtr.200", %"class.base::WeakPtr.200"* %8, i64 0, i32 0, i32 1
  %67 = load i64, i64* %66, align 8, !noalias !56
  store i64 %67, i64* %65, align 8, !noalias !56
  %68 = getelementptr inbounds i8, i8* %57, i64 64
  %69 = bitcast i8* %68 to %"class.base::FilePath"*
  call void @_ZN4base8FilePathC1ERKS0_(%"class.base::FilePath"* %69, %"class.base::FilePath"* dereferenceable(24) %1) #10, !noalias !56
  %70 = bitcast %"class.base::OnceCallback.230"* %7 to i8**
  store i8* %57, i8** %70, align 8, !alias.scope !56
  call void @_ZN12data_decoder5mojom17ImageDecoderProxy11DecodeImageEN9mojo_base9BigBufferENS0_10ImageCodecEblRKN3gfx4SizeEN4base12OnceCallbackIFvRK8SkBitmapEEE(%"class.data_decoder::mojom::ImageDecoderProxy"* %47, %"class.mojo_base::BigBuffer"* nonnull %5, i32 0, i1 zeroext false, i64 16777216, %"class.gfx::Size"* nonnull dereferenceable(8) %6, %"class.base::OnceCallback.230"* nonnull %7) #10
  %71 = getelementptr inbounds %"class.base::OnceCallback.230", %"class.base::OnceCallback.230"* %7, i64 0, i32 0
  call void @_ZN4base8internal12CallbackBaseD2Ev(%"class.base::internal::CallbackBase"* nonnull %71) #10
  call void @_ZN4base8internal11WeakPtrBaseD2Ev(%"class.base::internal::WeakPtrBase"* nonnull %56) #10
  call void @llvm.lifetime.end.p0i8(i64 16, i8* nonnull %51) #10
  call void @llvm.lifetime.end.p0i8(i64 8, i8* nonnull %48) #10
  call void @_ZN9mojo_base9BigBufferD1Ev(%"class.mojo_base::BigBuffer"* nonnull %5) #10
  br label %72

72:                                               ; preds = %46, %17, %12
  ret void
}

declare void @_ZN12data_decoder5mojom17ImageDecoderProxy11DecodeImageEN9mojo_base9BigBufferENS0_10ImageCodecEblRKN3gfx4SizeEN4base12OnceCallbackIFvRK8SkBitmapEEE(%"class.data_decoder::mojom::ImageDecoderProxy"*, %"class.mojo_base::BigBuffer"*, i32, i1 zeroext, i64, %"class.gfx::Size"* dereferenceable(8), %"class.base::OnceCallback.230"*) unnamed_addr #3

declare void @_ZN9mojo_base9BigBufferC1ERKNSt3__16vectorIhNS1_9allocatorIhEEEE(%"class.mojo_base::BigBuffer"*, %"class.std::__1::vector"* dereferenceable(24)) unnamed_addr #3

; Function Attrs: nounwind ssp uwtable
define hidden void @_ZN10extensions14ImageSanitizer12ImageDecodedERKN4base8FilePathERK8SkBitmap(%"class.extensions::ImageSanitizer"*, %"class.base::FilePath"* dereferenceable(24), %class.SkBitmap* dereferenceable(56)) #0 align 2 {
  %4 = alloca %"class.base::internal::WeakReference", align 8
  %5 = alloca %"class.base::OnceCallback.33", align 8
  %6 = alloca %"class.base::OnceCallback.33", align 8
  %7 = alloca %class.SkBitmap, align 8
  %8 = alloca %"class.base::Location", align 8
  %9 = alloca %"class.base::OnceCallback.233", align 8
  %10 = alloca %"class.base::OnceCallback.234", align 8
  %11 = alloca %"class.base::WeakPtr.200", align 8
  %12 = getelementptr inbounds %class.SkBitmap, %class.SkBitmap* %2, i64 0, i32 0, i32 0
  %13 = load %class.SkPixelRef*, %class.SkPixelRef** %12, align 8
  %14 = icmp eq %class.SkPixelRef* %13, null
  br i1 %14, label %15, label %16

15:                                               ; preds = %3
  tail call void @_ZN10extensions14ImageSanitizer11ReportErrorENS0_6StatusERKN4base8FilePathE(%"class.extensions::ImageSanitizer"* %0, i32 4, %"class.base::FilePath"* dereferenceable(24) %1)
  br label %93

16:                                               ; preds = %3
  %17 = getelementptr inbounds %class.SkBitmap, %class.SkBitmap* %2, i64 0, i32 1, i32 2, i32 0, i32 1
  %18 = load i32, i32* %17, align 8
  %19 = icmp eq i32 %18, 6
  br i1 %19, label %22, label %20

20:                                               ; preds = %16
  %21 = notail call zeroext i1 @_ZN4base5debug19DumpWithoutCrashingEv() #10
  tail call void @_ZN10extensions14ImageSanitizer11ReportErrorENS0_6StatusERKN4base8FilePathE(%"class.extensions::ImageSanitizer"* %0, i32 4, %"class.base::FilePath"* dereferenceable(24) %1)
  br label %93

22:                                               ; preds = %16
  %23 = getelementptr inbounds %"class.extensions::ImageSanitizer", %"class.extensions::ImageSanitizer"* %0, i64 0, i32 2, i32 0, i32 0, i32 0, i32 0
  %24 = load %"class.base::internal::BindStateBase"*, %"class.base::internal::BindStateBase"** %23, align 8
  %25 = icmp eq %"class.base::internal::BindStateBase"* %24, null
  br i1 %25, label %31, label %26

26:                                               ; preds = %22
  call void @_ZN8SkBitmapC1ERKS_(%class.SkBitmap* nonnull %7, %class.SkBitmap* dereferenceable(56) %2) #10
  %27 = load %"class.base::internal::BindStateBase"*, %"class.base::internal::BindStateBase"** %23, align 8
  %28 = getelementptr inbounds %"class.base::internal::BindStateBase", %"class.base::internal::BindStateBase"* %27, i64 0, i32 1
  %29 = bitcast void ()** %28 to void (%"class.base::internal::BindStateBase"*, %"class.base::FilePath"*, %class.SkBitmap*)**
  %30 = load void (%"class.base::internal::BindStateBase"*, %"class.base::FilePath"*, %class.SkBitmap*)*, void (%"class.base::internal::BindStateBase"*, %"class.base::FilePath"*, %class.SkBitmap*)** %29, align 8
  call void %30(%"class.base::internal::BindStateBase"* %27, %"class.base::FilePath"* dereferenceable(24) %1, %class.SkBitmap* nonnull dereferenceable(56) %7) #10
  call void @_ZN8SkBitmapD1Ev(%class.SkBitmap* nonnull %7) #10
  br label %31

31:                                               ; preds = %22, %26
  %32 = getelementptr inbounds %"class.extensions::ImageSanitizer", %"class.extensions::ImageSanitizer"* %0, i64 0, i32 4, i32 0
  %33 = bitcast %"class.base::SequencedTaskRunner"** %32 to %"class.base::TaskRunner"**
  %34 = load %"class.base::TaskRunner"*, %"class.base::TaskRunner"** %33, align 8
  %35 = bitcast %"class.base::Location"* %8 to i8*
  call void @llvm.lifetime.start.p0i8(i64 32, i8* nonnull %35) #10
  call void @_ZN4base8Location7CurrentEPKcS2_i(%"class.base::Location"* nonnull sret %8, i8* getelementptr inbounds ([13 x i8], [13 x i8]* @.str.2, i64 0, i64 0), i8* getelementptr inbounds ([44 x i8], [44 x i8]* @.str.1, i64 0, i64 0), i32 177) #10
  %36 = call i8* @_Znwm(i64 96) #9, !noalias !61
  %37 = bitcast i8* %36 to %"class.base::internal::BindStateBase"*
  call void @_ZN4base8internal13BindStateBaseC2EPFvvEPFvPKS1_E(%"class.base::internal::BindStateBase"* nonnull %37, void ()* bitcast (void (%"struct.std::__1::pair.235"*, %"class.base::internal::BindStateBase"*)* @_ZN4base8internal7InvokerINS0_9BindStateIPFNSt3__14pairIbNS3_6vectorIhNS3_9allocatorIhEEEEEERK8SkBitmapEJSA_EEEFS9_vEE7RunOnceEPNS0_13BindStateBaseE to void ()*), void (%"class.base::internal::BindStateBase"*)* nonnull @_ZN4base8internal9BindStateIPFNSt3__14pairIbNS2_6vectorIhNS2_9allocatorIhEEEEEERK8SkBitmapEJS9_EE7DestroyEPKNS0_13BindStateBaseE) #10, !noalias !61
  %38 = getelementptr inbounds i8, i8* %36, i64 32
  %39 = bitcast i8* %38 to i64*
  store i64 ptrtoint (void (%"struct.std::__1::pair.235"*, %class.SkBitmap*)* @_ZN10extensions12_GLOBAL__N_111EncodeImageERK8SkBitmap to i64), i64* %39, align 8, !noalias !61
  %40 = getelementptr inbounds i8, i8* %36, i64 40
  %41 = bitcast i8* %40 to %class.SkBitmap*
  call void @_ZN8SkBitmapC1ERKS_(%class.SkBitmap* %41, %class.SkBitmap* dereferenceable(56) %2) #10, !noalias !61
  %42 = bitcast %"class.base::WeakPtr.200"* %11 to i8*
  call void @llvm.lifetime.start.p0i8(i64 16, i8* nonnull %42) #10
  %43 = bitcast %"class.base::internal::WeakReference"* %4 to i8*
  call void @llvm.lifetime.start.p0i8(i64 8, i8* nonnull %43) #10, !noalias !66
  %44 = getelementptr inbounds %"class.extensions::ImageSanitizer", %"class.extensions::ImageSanitizer"* %0, i64 0, i32 6, i32 0, i32 0
  call void @_ZNK4base8internal18WeakReferenceOwner6GetRefEv(%"class.base::internal::WeakReference"* nonnull sret %4, %"class.base::internal::WeakReferenceOwner"* %44) #10, !noalias !66
  %45 = getelementptr inbounds %"class.extensions::ImageSanitizer", %"class.extensions::ImageSanitizer"* %0, i64 0, i32 6, i32 0, i32 1
  %46 = load i64, i64* %45, align 8, !noalias !66
  %47 = getelementptr inbounds %"class.base::WeakPtr.200", %"class.base::WeakPtr.200"* %11, i64 0, i32 0
  call void @_ZN4base8internal11WeakPtrBaseC2ERKNS0_13WeakReferenceEm(%"class.base::internal::WeakPtrBase"* nonnull %47, %"class.base::internal::WeakReference"* nonnull dereferenceable(8) %4, i64 %46) #10
  call void @_ZN4base8internal13WeakReferenceD1Ev(%"class.base::internal::WeakReference"* nonnull %4) #10
  call void @llvm.lifetime.end.p0i8(i64 8, i8* nonnull %43) #10, !noalias !66
  %48 = call i8* @_Znwm(i64 88) #9, !noalias !69
  %49 = bitcast i8* %48 to %"class.base::internal::BindStateBase"*
  call void @_ZN4base8internal13BindStateBaseC2EPFvvEPFvPKS1_EPFbS5_NS1_21CancellationQueryModeEE(%"class.base::internal::BindStateBase"* nonnull %49, void ()* bitcast (void (%"class.base::internal::BindStateBase"*, %"struct.std::__1::pair.235"*)* @_ZN4base8internal7InvokerINS0_9BindStateIMN10extensions14ImageSanitizerEFvRKNS_8FilePathENSt3__14pairIbNS8_6vectorIhNS8_9allocatorIhEEEEEEEJNS_7WeakPtrIS4_EES5_EEEFvSE_EE7RunOnceEPNS0_13BindStateBaseEOSE_ to void ()*), void (%"class.base::internal::BindStateBase"*)* nonnull @_ZN4base8internal9BindStateIMN10extensions14ImageSanitizerEFvRKNS_8FilePathENSt3__14pairIbNS7_6vectorIhNS7_9allocatorIhEEEEEEEJNS_7WeakPtrIS3_EES4_EE7DestroyEPKNS0_13BindStateBaseE, i1 (%"class.base::internal::BindStateBase"*, i32)* nonnull @_ZN4base8internal23QueryCancellationTraitsINS0_9BindStateIMN10extensions14ImageSanitizerEFvRKNS_8FilePathENSt3__14pairIbNS8_6vectorIhNS8_9allocatorIhEEEEEEEJNS_7WeakPtrIS4_EES5_EEEEEbPKNS0_13BindStateBaseENSK_21CancellationQueryModeE) #10, !noalias !69
  %50 = getelementptr inbounds i8, i8* %48, i64 32
  %51 = bitcast i8* %50 to <2 x i64>*
  store <2 x i64> <i64 ptrtoint (void (%"class.extensions::ImageSanitizer"*, %"class.base::FilePath"*, %"struct.std::__1::pair.235"*)* @_ZN10extensions14ImageSanitizer14ImageReencodedERKN4base8FilePathENSt3__14pairIbNS5_6vectorIhNS5_9allocatorIhEEEEEE to i64), i64 0>, <2 x i64>* %51, align 8, !noalias !69
  %52 = getelementptr inbounds i8, i8* %48, i64 48
  %53 = bitcast i8* %52 to %"class.base::internal::WeakReference"*
  %54 = getelementptr inbounds %"class.base::WeakPtr.200", %"class.base::WeakPtr.200"* %11, i64 0, i32 0, i32 0
  call void @_ZN4base8internal13WeakReferenceC1EOS1_(%"class.base::internal::WeakReference"* %53, %"class.base::internal::WeakReference"* nonnull dereferenceable(8) %54) #10, !noalias !69
  %55 = getelementptr inbounds i8, i8* %48, i64 56
  %56 = bitcast i8* %55 to i64*
  %57 = getelementptr inbounds %"class.base::WeakPtr.200", %"class.base::WeakPtr.200"* %11, i64 0, i32 0, i32 1
  %58 = load i64, i64* %57, align 8, !noalias !69
  store i64 %58, i64* %56, align 8, !noalias !69
  %59 = getelementptr inbounds i8, i8* %48, i64 64
  %60 = bitcast i8* %59 to %"class.base::FilePath"*
  call void @_ZN4base8FilePathC1ERKS0_(%"class.base::FilePath"* %60, %"class.base::FilePath"* dereferenceable(24) %1) #10, !noalias !69
  %61 = bitcast %"class.base::OnceCallback.33"* %5 to i8*
  call void @llvm.lifetime.start.p0i8(i64 8, i8* nonnull %61)
  %62 = bitcast %"class.base::OnceCallback.33"* %6 to i8*
  call void @llvm.lifetime.start.p0i8(i64 8, i8* nonnull %62)
  %63 = call i8* @_Znwm(i64 8) #9
  %64 = bitcast i8* %63 to i64*
  store i64 0, i64* %64, align 8
  %65 = ptrtoint i8* %63 to i64
  %66 = call i8* @_Znwm(i64 56) #9, !noalias !74
  %67 = bitcast i8* %66 to %"class.base::internal::BindStateBase"*
  call void @_ZN4base8internal13BindStateBaseC2EPFvvEPFvPKS1_E(%"class.base::internal::BindStateBase"* nonnull %67, void ()* bitcast (void (%"class.base::internal::BindStateBase"*)* @_ZN4base8internal7InvokerINS0_9BindStateIPFvNS_12OnceCallbackIFNSt3__14pairIbNS4_6vectorIhNS4_9allocatorIhEEEEEEvEEEPNS4_10unique_ptrISA_NS4_14default_deleteISA_EEEEEJSC_SH_EEEFvvEE7RunOnceEPNS0_13BindStateBaseE to void ()*), void (%"class.base::internal::BindStateBase"*)* nonnull @_ZN4base8internal9BindStateIPFvNS_12OnceCallbackIFNSt3__14pairIbNS3_6vectorIhNS3_9allocatorIhEEEEEEvEEEPNS3_10unique_ptrIS9_NS3_14default_deleteIS9_EEEEEJSB_SG_EE7DestroyEPKNS0_13BindStateBaseE) #10, !noalias !74
  %68 = getelementptr inbounds i8, i8* %66, i64 32
  %69 = bitcast i8* %68 to i64*
  store i64 ptrtoint (void (%"class.base::OnceCallback.233"*, %"class.std::__1::unique_ptr.310"*)* @_ZN4base8internal20ReturnAsParamAdapterINSt3__14pairIbNS2_6vectorIhNS2_9allocatorIhEEEEEEEEvNS_12OnceCallbackIFT_vEEEPNS2_10unique_ptrISA_NS2_14default_deleteISA_EEEE to i64), i64* %69, align 8, !noalias !74
  %70 = getelementptr inbounds i8, i8* %66, i64 40
  %71 = getelementptr inbounds %"class.base::OnceCallback.233", %"class.base::OnceCallback.233"* %9, i64 0, i32 0, i32 0, i32 0
  %72 = ptrtoint i8* %36 to i64
  %73 = bitcast i8* %70 to i64*
  store i64 %72, i64* %73, align 8, !noalias !74
  store %"class.base::internal::BindStateBase"* null, %"class.base::internal::BindStateBase"** %71, align 8, !noalias !74
  %74 = getelementptr inbounds i8, i8* %66, i64 48
  %75 = bitcast i8* %74 to i64*
  store i64 %65, i64* %75, align 8, !noalias !74
  %76 = bitcast %"class.base::OnceCallback.33"* %5 to i8**
  store i8* %66, i8** %76, align 8, !alias.scope !74
  %77 = call i8* @_Znwm(i64 56) #9, !noalias !79
  %78 = bitcast i8* %77 to %"class.base::internal::BindStateBase"*
  call void @_ZN4base8internal13BindStateBaseC2EPFvvEPFvPKS1_E(%"class.base::internal::BindStateBase"* nonnull %78, void ()* bitcast (void (%"class.base::internal::BindStateBase"*)* @_ZN4base8internal7InvokerINS0_9BindStateIPFvNS_12OnceCallbackIFvNSt3__14pairIbNS4_6vectorIhNS4_9allocatorIhEEEEEEEEEPNS4_10unique_ptrISA_NS4_14default_deleteISA_EEEEEJSC_NS0_12OwnedWrapperISG_NSE_ISG_EEEEEEEFvvEE7RunOnceEPNS0_13BindStateBaseE to void ()*), void (%"class.base::internal::BindStateBase"*)* nonnull @_ZN4base8internal9BindStateIPFvNS_12OnceCallbackIFvNSt3__14pairIbNS3_6vectorIhNS3_9allocatorIhEEEEEEEEEPNS3_10unique_ptrIS9_NS3_14default_deleteIS9_EEEEEJSB_NS0_12OwnedWrapperISF_NSD_ISF_EEEEEE7DestroyEPKNS0_13BindStateBaseE) #10, !noalias !79
  %79 = getelementptr inbounds i8, i8* %77, i64 32
  %80 = bitcast i8* %79 to i64*
  store i64 ptrtoint (void (%"class.base::OnceCallback.234"*, %"class.std::__1::unique_ptr.310"*)* @_ZN4base8internal12ReplyAdapterINSt3__14pairIbNS2_6vectorIhNS2_9allocatorIhEEEEEES8_EEvNS_12OnceCallbackIFvT0_EEEPNS2_10unique_ptrIT_NS2_14default_deleteISE_EEEE to i64), i64* %80, align 8, !noalias !79
  %81 = getelementptr inbounds i8, i8* %77, i64 40
  %82 = getelementptr inbounds %"class.base::OnceCallback.234", %"class.base::OnceCallback.234"* %10, i64 0, i32 0, i32 0, i32 0
  %83 = ptrtoint i8* %48 to i64
  %84 = bitcast i8* %81 to i64*
  store i64 %83, i64* %84, align 8, !noalias !79
  store %"class.base::internal::BindStateBase"* null, %"class.base::internal::BindStateBase"** %82, align 8, !noalias !79
  %85 = getelementptr inbounds i8, i8* %77, i64 48
  %86 = bitcast i8* %85 to i64*
  store i64 %65, i64* %86, align 8, !noalias !79
  %87 = bitcast %"class.base::OnceCallback.33"* %6 to i8**
  store i8* %77, i8** %87, align 8, !alias.scope !79
  %88 = call zeroext i1 @_ZN4base10TaskRunner16PostTaskAndReplyERKNS_8LocationENS_12OnceCallbackIFvvEEES6_(%"class.base::TaskRunner"* %34, %"class.base::Location"* nonnull dereferenceable(32) %8, %"class.base::OnceCallback.33"* nonnull %5, %"class.base::OnceCallback.33"* nonnull %6) #10
  %89 = getelementptr inbounds %"class.base::OnceCallback.33", %"class.base::OnceCallback.33"* %6, i64 0, i32 0
  call void @_ZN4base8internal12CallbackBaseD2Ev(%"class.base::internal::CallbackBase"* nonnull %89) #10
  %90 = getelementptr inbounds %"class.base::OnceCallback.33", %"class.base::OnceCallback.33"* %5, i64 0, i32 0
  call void @_ZN4base8internal12CallbackBaseD2Ev(%"class.base::internal::CallbackBase"* nonnull %90) #10
  call void @llvm.lifetime.end.p0i8(i64 8, i8* nonnull %61)
  call void @llvm.lifetime.end.p0i8(i64 8, i8* nonnull %62)
  %91 = getelementptr inbounds %"class.base::OnceCallback.234", %"class.base::OnceCallback.234"* %10, i64 0, i32 0
  call void @_ZN4base8internal12CallbackBaseD2Ev(%"class.base::internal::CallbackBase"* nonnull %91) #10
  call void @_ZN4base8internal11WeakPtrBaseD2Ev(%"class.base::internal::WeakPtrBase"* nonnull %47) #10
  call void @llvm.lifetime.end.p0i8(i64 16, i8* nonnull %42) #10
  %92 = getelementptr inbounds %"class.base::OnceCallback.233", %"class.base::OnceCallback.233"* %9, i64 0, i32 0
  call void @_ZN4base8internal12CallbackBaseD2Ev(%"class.base::internal::CallbackBase"* nonnull %92) #10
  call void @llvm.lifetime.end.p0i8(i64 32, i8* nonnull %35) #10
  br label %93

93:                                               ; preds = %31, %20, %15
  ret void
}

; Function Attrs: nounwind
declare void @_ZN9mojo_base9BigBufferD1Ev(%"class.mojo_base::BigBuffer"*) unnamed_addr #2

declare zeroext i1 @_ZN4base5debug19DumpWithoutCrashingEv() local_unnamed_addr #3

declare void @_ZN8SkBitmapC1ERKS_(%class.SkBitmap*, %class.SkBitmap* dereferenceable(56)) unnamed_addr #3

; Function Attrs: nounwind
declare void @_ZN8SkBitmapD1Ev(%class.SkBitmap*) unnamed_addr #2

; Function Attrs: nounwind ssp uwtable
define internal void @_ZN10extensions12_GLOBAL__N_111EncodeImageERK8SkBitmap(%"struct.std::__1::pair.235"* noalias nocapture sret, %class.SkBitmap* dereferenceable(56)) #0 {
  %3 = alloca %"class.std::__1::vector", align 16
  %4 = bitcast %"class.std::__1::vector"* %3 to i8*
  call void @llvm.lifetime.start.p0i8(i64 24, i8* nonnull %4) #10
  %5 = getelementptr inbounds %"class.std::__1::vector", %"class.std::__1::vector"* %3, i64 0, i32 0, i32 2, i32 0, i32 0
  call void @llvm.memset.p0i8.i64(i8* nonnull align 16 %4, i8 0, i64 24, i1 false) #10
  %6 = call zeroext i1 @_ZN3gfx8PNGCodec18EncodeBGRASkBitmapERK8SkBitmapbPNSt3__16vectorIhNS4_9allocatorIhEEEE(%class.SkBitmap* dereferenceable(56) %1, i1 zeroext false, %"class.std::__1::vector"* nonnull %3) #10
  %7 = zext i1 %6 to i8
  %8 = getelementptr inbounds %"struct.std::__1::pair.235", %"struct.std::__1::pair.235"* %0, i64 0, i32 0
  store i8 %7, i8* %8, align 8, !alias.scope !84
  %9 = getelementptr inbounds %"struct.std::__1::pair.235", %"struct.std::__1::pair.235"* %0, i64 0, i32 1
  %10 = bitcast %"class.std::__1::vector"* %3 to <2 x i64>*
  %11 = load <2 x i64>, <2 x i64>* %10, align 16, !noalias !84
  %12 = bitcast %"class.std::__1::vector"* %9 to <2 x i64>*
  store <2 x i64> %11, <2 x i64>* %12, align 8, !alias.scope !84
  %13 = bitcast i8** %5 to i64*
  %14 = load i64, i64* %13, align 16, !noalias !84
  %15 = getelementptr inbounds %"struct.std::__1::pair.235", %"struct.std::__1::pair.235"* %0, i64 0, i32 1, i32 0, i32 2, i32 0, i32 0
  %16 = bitcast i8** %15 to i64*
  store i64 %14, i64* %16, align 8, !alias.scope !84
  call void @llvm.lifetime.end.p0i8(i64 24, i8* nonnull %4) #10
  ret void
}

; Function Attrs: nounwind ssp uwtable
define hidden void @_ZN10extensions14ImageSanitizer14ImageReencodedERKN4base8FilePathENSt3__14pairIbNS5_6vectorIhNS5_9allocatorIhEEEEEE(%"class.extensions::ImageSanitizer"*, %"class.base::FilePath"* dereferenceable(24), %"struct.std::__1::pair.235"* nocapture) #0 align 2 {
  %4 = alloca %"class.base::internal::WeakReference", align 8
  %5 = alloca %"class.base::OnceCallback.33", align 8
  %6 = alloca %"class.base::OnceCallback.33", align 8
  %7 = alloca %"class.base::Location", align 8
  %8 = alloca %"class.base::OnceCallback.236", align 8
  %9 = alloca %"class.base::FilePath", align 8
  %10 = alloca %"class.base::OnceCallback.237", align 8
  %11 = alloca %"class.base::WeakPtr.200", align 8
  %12 = getelementptr inbounds %"struct.std::__1::pair.235", %"struct.std::__1::pair.235"* %2, i64 0, i32 0
  %13 = load i8, i8* %12, align 8, !range !18
  %14 = icmp eq i8 %13, 0
  %15 = getelementptr inbounds %"struct.std::__1::pair.235", %"struct.std::__1::pair.235"* %2, i64 0, i32 1
  %16 = bitcast %"class.std::__1::vector"* %15 to i64*
  %17 = load i64, i64* %16, align 8
  %18 = getelementptr inbounds %"struct.std::__1::pair.235", %"struct.std::__1::pair.235"* %2, i64 0, i32 1, i32 0, i32 1
  %19 = bitcast i8** %18 to <2 x i64>*
  %20 = load <2 x i64>, <2 x i64>* %19, align 8
  %21 = bitcast %"class.std::__1::vector"* %15 to i8*
  tail call void @llvm.memset.p0i8.i64(i8* align 8 %21, i8 0, i64 24, i1 false) #10
  br i1 %14, label %98, label %22

22:                                               ; preds = %3
  %23 = extractelement <2 x i64> %20, i32 0
  %24 = sub i64 %23, %17
  %25 = icmp ult i64 %24, 2147483648
  br i1 %25, label %27, label %26, !prof !87

26:                                               ; preds = %22
  tail call void @llvm.trap() #10
  unreachable

27:                                               ; preds = %22
  %28 = trunc i64 %24 to i32
  %29 = getelementptr inbounds %"class.extensions::ImageSanitizer", %"class.extensions::ImageSanitizer"* %0, i64 0, i32 4, i32 0
  %30 = bitcast %"class.base::SequencedTaskRunner"** %29 to %"class.base::TaskRunner"**
  %31 = load %"class.base::TaskRunner"*, %"class.base::TaskRunner"** %30, align 8
  %32 = bitcast %"class.base::Location"* %7 to i8*
  call void @llvm.lifetime.start.p0i8(i64 32, i8* nonnull %32) #10
  call void @_ZN4base8Location7CurrentEPKcS2_i(%"class.base::Location"* nonnull sret %7, i8* getelementptr inbounds ([15 x i8], [15 x i8]* @.str.3, i64 0, i64 0), i8* getelementptr inbounds ([44 x i8], [44 x i8]* @.str.1, i64 0, i64 0), i32 195) #10
  %33 = bitcast %"class.base::FilePath"* %9 to i8*
  call void @llvm.lifetime.start.p0i8(i64 24, i8* nonnull %33) #10
  %34 = getelementptr inbounds %"class.extensions::ImageSanitizer", %"class.extensions::ImageSanitizer"* %0, i64 0, i32 0
  call void @_ZNK4base8FilePath6AppendERKS0_(%"class.base::FilePath"* nonnull sret %9, %"class.base::FilePath"* %34, %"class.base::FilePath"* dereferenceable(24) %1) #10
  %35 = call i8* @_Znwm(i64 88) #9, !noalias !88
  %36 = bitcast i8* %35 to %"class.base::internal::BindStateBase"*
  call void @_ZN4base8internal13BindStateBaseC2EPFvvEPFvPKS1_E(%"class.base::internal::BindStateBase"* nonnull %36, void ()* bitcast (i32 (%"class.base::internal::BindStateBase"*)* @_ZN4base8internal7InvokerINS0_9BindStateIPFiRKNS_8FilePathERKNSt3__16vectorIhNS6_9allocatorIhEEEEEJS3_SA_EEEFivEE7RunOnceEPNS0_13BindStateBaseE to void ()*), void (%"class.base::internal::BindStateBase"*)* nonnull @_ZN4base8internal9BindStateIPFiRKNS_8FilePathERKNSt3__16vectorIhNS5_9allocatorIhEEEEEJS2_S9_EE7DestroyEPKNS0_13BindStateBaseE) #10, !noalias !88
  %37 = getelementptr inbounds i8, i8* %35, i64 32
  %38 = bitcast i8* %37 to i64*
  store i64 ptrtoint (i32 (%"class.base::FilePath"*, %"class.std::__1::vector"*)* @_ZN10extensions12_GLOBAL__N_19WriteFileERKN4base8FilePathERKNSt3__16vectorIhNS5_9allocatorIhEEEE to i64), i64* %38, align 8, !noalias !88
  %39 = getelementptr inbounds i8, i8* %35, i64 40
  %40 = bitcast i8* %39 to %"class.base::FilePath"*
  call void @_ZN4base8FilePathC1EOS0_(%"class.base::FilePath"* %40, %"class.base::FilePath"* nonnull dereferenceable(24) %9) #10, !noalias !88
  %41 = getelementptr inbounds i8, i8* %35, i64 64
  %42 = bitcast i8* %41 to i64*
  store i64 %17, i64* %42, align 8, !noalias !88
  %43 = getelementptr inbounds i8, i8* %35, i64 72
  %44 = bitcast i8* %43 to <2 x i64>*
  store <2 x i64> %20, <2 x i64>* %44, align 8, !noalias !88
  %45 = bitcast %"class.base::WeakPtr.200"* %11 to i8*
  call void @llvm.lifetime.start.p0i8(i64 16, i8* nonnull %45) #10
  %46 = bitcast %"class.base::internal::WeakReference"* %4 to i8*
  call void @llvm.lifetime.start.p0i8(i64 8, i8* nonnull %46) #10, !noalias !93
  %47 = getelementptr inbounds %"class.extensions::ImageSanitizer", %"class.extensions::ImageSanitizer"* %0, i64 0, i32 6, i32 0, i32 0
  call void @_ZNK4base8internal18WeakReferenceOwner6GetRefEv(%"class.base::internal::WeakReference"* nonnull sret %4, %"class.base::internal::WeakReferenceOwner"* %47) #10, !noalias !93
  %48 = getelementptr inbounds %"class.extensions::ImageSanitizer", %"class.extensions::ImageSanitizer"* %0, i64 0, i32 6, i32 0, i32 1
  %49 = load i64, i64* %48, align 8, !noalias !93
  %50 = getelementptr inbounds %"class.base::WeakPtr.200", %"class.base::WeakPtr.200"* %11, i64 0, i32 0
  call void @_ZN4base8internal11WeakPtrBaseC2ERKNS0_13WeakReferenceEm(%"class.base::internal::WeakPtrBase"* nonnull %50, %"class.base::internal::WeakReference"* nonnull dereferenceable(8) %4, i64 %49) #10
  call void @_ZN4base8internal13WeakReferenceD1Ev(%"class.base::internal::WeakReference"* nonnull %4) #10
  call void @llvm.lifetime.end.p0i8(i64 8, i8* nonnull %46) #10, !noalias !93
  %51 = call i8* @_Znwm(i64 96) #9, !noalias !96
  %52 = bitcast i8* %51 to %"class.base::internal::BindStateBase"*
  call void @_ZN4base8internal13BindStateBaseC2EPFvvEPFvPKS1_EPFbS5_NS1_21CancellationQueryModeEE(%"class.base::internal::BindStateBase"* nonnull %52, void ()* bitcast (void (%"class.base::internal::BindStateBase"*, i32)* @_ZN4base8internal7InvokerINS0_9BindStateIMN10extensions14ImageSanitizerEFvRKNS_8FilePathEiiEJNS_7WeakPtrIS4_EES5_iEEEFviEE7RunOnceEPNS0_13BindStateBaseEi to void ()*), void (%"class.base::internal::BindStateBase"*)* nonnull @_ZN4base8internal9BindStateIMN10extensions14ImageSanitizerEFvRKNS_8FilePathEiiEJNS_7WeakPtrIS3_EES4_iEE7DestroyEPKNS0_13BindStateBaseE, i1 (%"class.base::internal::BindStateBase"*, i32)* nonnull @_ZN4base8internal23QueryCancellationTraitsINS0_9BindStateIMN10extensions14ImageSanitizerEFvRKNS_8FilePathEiiEJNS_7WeakPtrIS4_EES5_iEEEEEbPKNS0_13BindStateBaseENSD_21CancellationQueryModeE) #10, !noalias !96
  %53 = getelementptr inbounds i8, i8* %51, i64 32
  %54 = bitcast i8* %53 to <2 x i64>*
  store <2 x i64> <i64 ptrtoint (void (%"class.extensions::ImageSanitizer"*, %"class.base::FilePath"*, i32, i32)* @_ZN10extensions14ImageSanitizer12ImageWrittenERKN4base8FilePathEii to i64), i64 0>, <2 x i64>* %54, align 8, !noalias !96
  %55 = getelementptr inbounds i8, i8* %51, i64 48
  %56 = bitcast i8* %55 to %"class.base::internal::WeakReference"*
  %57 = getelementptr inbounds %"class.base::WeakPtr.200", %"class.base::WeakPtr.200"* %11, i64 0, i32 0, i32 0
  call void @_ZN4base8internal13WeakReferenceC1EOS1_(%"class.base::internal::WeakReference"* %56, %"class.base::internal::WeakReference"* nonnull dereferenceable(8) %57) #10, !noalias !96
  %58 = getelementptr inbounds i8, i8* %51, i64 56
  %59 = bitcast i8* %58 to i64*
  %60 = getelementptr inbounds %"class.base::WeakPtr.200", %"class.base::WeakPtr.200"* %11, i64 0, i32 0, i32 1
  %61 = load i64, i64* %60, align 8, !noalias !96
  store i64 %61, i64* %59, align 8, !noalias !96
  %62 = getelementptr inbounds i8, i8* %51, i64 64
  %63 = bitcast i8* %62 to %"class.base::FilePath"*
  call void @_ZN4base8FilePathC1ERKS0_(%"class.base::FilePath"* %63, %"class.base::FilePath"* dereferenceable(24) %1) #10, !noalias !96
  %64 = getelementptr inbounds i8, i8* %51, i64 88
  %65 = bitcast i8* %64 to i32*
  store i32 %28, i32* %65, align 4, !noalias !96
  %66 = bitcast %"class.base::OnceCallback.33"* %5 to i8*
  call void @llvm.lifetime.start.p0i8(i64 8, i8* nonnull %66)
  %67 = bitcast %"class.base::OnceCallback.33"* %6 to i8*
  call void @llvm.lifetime.start.p0i8(i64 8, i8* nonnull %67)
  %68 = call i8* @_Znwm(i64 8) #9
  %69 = bitcast i8* %68 to i64*
  store i64 0, i64* %69, align 8
  %70 = ptrtoint i8* %68 to i64
  %71 = call i8* @_Znwm(i64 56) #9, !noalias !101
  %72 = bitcast i8* %71 to %"class.base::internal::BindStateBase"*
  call void @_ZN4base8internal13BindStateBaseC2EPFvvEPFvPKS1_E(%"class.base::internal::BindStateBase"* nonnull %72, void ()* bitcast (void (%"class.base::internal::BindStateBase"*)* @_ZN4base8internal7InvokerINS0_9BindStateIPFvNS_12OnceCallbackIFivEEEPNSt3__110unique_ptrIiNS6_14default_deleteIiEEEEEJS5_SB_EEEFvvEE7RunOnceEPNS0_13BindStateBaseE to void ()*), void (%"class.base::internal::BindStateBase"*)* nonnull @_ZN4base8internal9BindStateIPFvNS_12OnceCallbackIFivEEEPNSt3__110unique_ptrIiNS5_14default_deleteIiEEEEEJS4_SA_EE7DestroyEPKNS0_13BindStateBaseE) #10, !noalias !101
  %73 = getelementptr inbounds i8, i8* %71, i64 32
  %74 = bitcast i8* %73 to i64*
  store i64 ptrtoint (void (%"class.base::OnceCallback.236"*, %"class.std::__1::unique_ptr.346"*)* @_ZN4base8internal20ReturnAsParamAdapterIiEEvNS_12OnceCallbackIFT_vEEEPNSt3__110unique_ptrIS3_NS6_14default_deleteIS3_EEEE to i64), i64* %74, align 8, !noalias !101
  %75 = getelementptr inbounds i8, i8* %71, i64 40
  %76 = getelementptr inbounds %"class.base::OnceCallback.236", %"class.base::OnceCallback.236"* %8, i64 0, i32 0, i32 0, i32 0
  %77 = ptrtoint i8* %35 to i64
  %78 = bitcast i8* %75 to i64*
  store i64 %77, i64* %78, align 8, !noalias !101
  store %"class.base::internal::BindStateBase"* null, %"class.base::internal::BindStateBase"** %76, align 8, !noalias !101
  %79 = getelementptr inbounds i8, i8* %71, i64 48
  %80 = bitcast i8* %79 to i64*
  store i64 %70, i64* %80, align 8, !noalias !101
  %81 = bitcast %"class.base::OnceCallback.33"* %5 to i8**
  store i8* %71, i8** %81, align 8, !alias.scope !101
  %82 = call i8* @_Znwm(i64 56) #9, !noalias !106
  %83 = bitcast i8* %82 to %"class.base::internal::BindStateBase"*
  call void @_ZN4base8internal13BindStateBaseC2EPFvvEPFvPKS1_E(%"class.base::internal::BindStateBase"* nonnull %83, void ()* bitcast (void (%"class.base::internal::BindStateBase"*)* @_ZN4base8internal7InvokerINS0_9BindStateIPFvNS_12OnceCallbackIFviEEEPNSt3__110unique_ptrIiNS6_14default_deleteIiEEEEEJS5_NS0_12OwnedWrapperISA_NS8_ISA_EEEEEEEFvvEE7RunOnceEPNS0_13BindStateBaseE to void ()*), void (%"class.base::internal::BindStateBase"*)* nonnull @_ZN4base8internal9BindStateIPFvNS_12OnceCallbackIFviEEEPNSt3__110unique_ptrIiNS5_14default_deleteIiEEEEEJS4_NS0_12OwnedWrapperIS9_NS7_IS9_EEEEEE7DestroyEPKNS0_13BindStateBaseE) #10, !noalias !106
  %84 = getelementptr inbounds i8, i8* %82, i64 32
  %85 = bitcast i8* %84 to i64*
  store i64 ptrtoint (void (%"class.base::OnceCallback.237"*, %"class.std::__1::unique_ptr.346"*)* @_ZN4base8internal12ReplyAdapterIiiEEvNS_12OnceCallbackIFvT0_EEEPNSt3__110unique_ptrIT_NS6_14default_deleteIS8_EEEE to i64), i64* %85, align 8, !noalias !106
  %86 = getelementptr inbounds i8, i8* %82, i64 40
  %87 = getelementptr inbounds %"class.base::OnceCallback.237", %"class.base::OnceCallback.237"* %10, i64 0, i32 0, i32 0, i32 0
  %88 = ptrtoint i8* %51 to i64
  %89 = bitcast i8* %86 to i64*
  store i64 %88, i64* %89, align 8, !noalias !106
  store %"class.base::internal::BindStateBase"* null, %"class.base::internal::BindStateBase"** %87, align 8, !noalias !106
  %90 = getelementptr inbounds i8, i8* %82, i64 48
  %91 = bitcast i8* %90 to i64*
  store i64 %70, i64* %91, align 8, !noalias !106
  %92 = bitcast %"class.base::OnceCallback.33"* %6 to i8**
  store i8* %82, i8** %92, align 8, !alias.scope !106
  %93 = call zeroext i1 @_ZN4base10TaskRunner16PostTaskAndReplyERKNS_8LocationENS_12OnceCallbackIFvvEEES6_(%"class.base::TaskRunner"* %31, %"class.base::Location"* nonnull dereferenceable(32) %7, %"class.base::OnceCallback.33"* nonnull %5, %"class.base::OnceCallback.33"* nonnull %6) #10
  %94 = getelementptr inbounds %"class.base::OnceCallback.33", %"class.base::OnceCallback.33"* %6, i64 0, i32 0
  call void @_ZN4base8internal12CallbackBaseD2Ev(%"class.base::internal::CallbackBase"* nonnull %94) #10
  %95 = getelementptr inbounds %"class.base::OnceCallback.33", %"class.base::OnceCallback.33"* %5, i64 0, i32 0
  call void @_ZN4base8internal12CallbackBaseD2Ev(%"class.base::internal::CallbackBase"* nonnull %95) #10
  call void @llvm.lifetime.end.p0i8(i64 8, i8* nonnull %66)
  call void @llvm.lifetime.end.p0i8(i64 8, i8* nonnull %67)
  %96 = getelementptr inbounds %"class.base::OnceCallback.237", %"class.base::OnceCallback.237"* %10, i64 0, i32 0
  call void @_ZN4base8internal12CallbackBaseD2Ev(%"class.base::internal::CallbackBase"* nonnull %96) #10
  call void @_ZN4base8internal11WeakPtrBaseD2Ev(%"class.base::internal::WeakPtrBase"* nonnull %50) #10
  call void @llvm.lifetime.end.p0i8(i64 16, i8* nonnull %45) #10
  %97 = getelementptr inbounds %"class.base::OnceCallback.236", %"class.base::OnceCallback.236"* %8, i64 0, i32 0
  call void @_ZN4base8internal12CallbackBaseD2Ev(%"class.base::internal::CallbackBase"* nonnull %97) #10
  call void @_ZN4base8FilePathD1Ev(%"class.base::FilePath"* nonnull %9) #10
  call void @llvm.lifetime.end.p0i8(i64 24, i8* nonnull %33) #10
  call void @llvm.lifetime.end.p0i8(i64 32, i8* nonnull %32) #10
  br label %102

98:                                               ; preds = %3
  tail call void @_ZN10extensions14ImageSanitizer11ReportErrorENS0_6StatusERKN4base8FilePathE(%"class.extensions::ImageSanitizer"* %0, i32 5, %"class.base::FilePath"* dereferenceable(24) %1)
  %99 = icmp eq i64 %17, 0
  br i1 %99, label %102, label %100

100:                                              ; preds = %98
  %101 = inttoptr i64 %17 to i8*
  tail call void @_ZdlPv(i8* nonnull %101) #9
  br label %102

102:                                              ; preds = %27, %98, %100
  ret void
}

; Function Attrs: nounwind ssp uwtable
define internal i32 @_ZN10extensions12_GLOBAL__N_19WriteFileERKN4base8FilePathERKNSt3__16vectorIhNS5_9allocatorIhEEEE(%"class.base::FilePath"* dereferenceable(24), %"class.std::__1::vector"* nocapture readonly dereferenceable(24)) #0 {
  %3 = getelementptr inbounds %"class.std::__1::vector", %"class.std::__1::vector"* %1, i64 0, i32 0, i32 1
  %4 = bitcast i8** %3 to i64*
  %5 = load i64, i64* %4, align 8
  %6 = bitcast %"class.std::__1::vector"* %1 to i64*
  %7 = load i64, i64* %6, align 8
  %8 = sub i64 %5, %7
  %9 = icmp ult i64 %8, 2147483648
  br i1 %9, label %11, label %10, !prof !87

10:                                               ; preds = %2
  tail call void @llvm.trap() #10
  unreachable

11:                                               ; preds = %2
  %12 = inttoptr i64 %7 to i8*
  %13 = trunc i64 %8 to i32
  %14 = tail call i32 @_ZN4base9WriteFileERKNS_8FilePathEPKci(%"class.base::FilePath"* dereferenceable(24) %0, i8* %12, i32 %13) #10
  ret i32 %14
}

; Function Attrs: nounwind ssp uwtable
define hidden void @_ZN10extensions14ImageSanitizer12ImageWrittenERKN4base8FilePathEii(%"class.extensions::ImageSanitizer"*, %"class.base::FilePath"* dereferenceable(24), i32, i32) #0 align 2 {
  %5 = icmp eq i32 %2, %3
  br i1 %5, label %7, label %6

6:                                                ; preds = %4
  tail call void @_ZN10extensions14ImageSanitizer11ReportErrorENS0_6StatusERKN4base8FilePathE(%"class.extensions::ImageSanitizer"* %0, i32 6, %"class.base::FilePath"* dereferenceable(24) %1)
  br label %64

7:                                                ; preds = %4
  %8 = getelementptr inbounds %"class.extensions::ImageSanitizer", %"class.extensions::ImageSanitizer"* %0, i64 0, i32 1
  %9 = getelementptr inbounds %"class.std::__1::set", %"class.std::__1::set"* %8, i64 0, i32 0
  %10 = tail call %"class.std::__1::__tree_end_node"* @_ZNSt3__16__treeIN4base8FilePathENS_4lessIS2_EENS_9allocatorIS2_EEE4findIS2_EENS_15__tree_iteratorIS2_PNS_11__tree_nodeIS2_PvEElEERKT_(%"class.std::__1::__tree"* %9, %"class.base::FilePath"* dereferenceable(24) %1) #10
  %11 = getelementptr inbounds %"class.extensions::ImageSanitizer", %"class.extensions::ImageSanitizer"* %0, i64 0, i32 1, i32 0, i32 1, i32 0, i32 0
  %12 = icmp eq %"class.std::__1::__tree_end_node"* %10, %11
  br i1 %12, label %59, label %13

13:                                               ; preds = %7
  %14 = getelementptr inbounds %"class.std::__1::__tree_end_node", %"class.std::__1::__tree_end_node"* %10, i64 1, i32 0
  %15 = load %"class.std::__1::__tree_node_base"*, %"class.std::__1::__tree_node_base"** %14, align 8
  %16 = icmp eq %"class.std::__1::__tree_node_base"* %15, null
  br i1 %16, label %17, label %25

17:                                               ; preds = %13
  %18 = bitcast %"class.std::__1::__tree_end_node"* %10 to %"class.std::__1::__tree_node_base"*
  %19 = getelementptr inbounds %"class.std::__1::__tree_end_node", %"class.std::__1::__tree_end_node"* %10, i64 2
  %20 = bitcast %"class.std::__1::__tree_end_node"* %19 to %"class.std::__1::__tree_end_node"**
  %21 = load %"class.std::__1::__tree_end_node"*, %"class.std::__1::__tree_end_node"** %20, align 8
  %22 = getelementptr inbounds %"class.std::__1::__tree_end_node", %"class.std::__1::__tree_end_node"* %21, i64 0, i32 0
  %23 = load %"class.std::__1::__tree_node_base"*, %"class.std::__1::__tree_node_base"** %22, align 8
  %24 = icmp eq %"class.std::__1::__tree_node_base"* %23, %18
  br i1 %24, label %41, label %32

25:                                               ; preds = %13, %25
  %26 = phi %"class.std::__1::__tree_node_base"* [ %28, %25 ], [ %15, %13 ]
  %27 = getelementptr inbounds %"class.std::__1::__tree_node_base", %"class.std::__1::__tree_node_base"* %26, i64 0, i32 0, i32 0
  %28 = load %"class.std::__1::__tree_node_base"*, %"class.std::__1::__tree_node_base"** %27, align 8
  %29 = icmp eq %"class.std::__1::__tree_node_base"* %28, null
  br i1 %29, label %30, label %25

30:                                               ; preds = %25
  %31 = getelementptr inbounds %"class.std::__1::__tree_node_base", %"class.std::__1::__tree_node_base"* %26, i64 0, i32 0
  br label %41

32:                                               ; preds = %17, %32
  %33 = phi %"class.std::__1::__tree_end_node"** [ %36, %32 ], [ %20, %17 ]
  %34 = bitcast %"class.std::__1::__tree_end_node"** %33 to %"class.std::__1::__tree_node_base"**
  %35 = load %"class.std::__1::__tree_node_base"*, %"class.std::__1::__tree_node_base"** %34, align 8
  %36 = getelementptr inbounds %"class.std::__1::__tree_node_base", %"class.std::__1::__tree_node_base"* %35, i64 0, i32 2
  %37 = load %"class.std::__1::__tree_end_node"*, %"class.std::__1::__tree_end_node"** %36, align 8
  %38 = getelementptr inbounds %"class.std::__1::__tree_end_node", %"class.std::__1::__tree_end_node"* %37, i64 0, i32 0
  %39 = load %"class.std::__1::__tree_node_base"*, %"class.std::__1::__tree_node_base"** %38, align 8
  %40 = icmp eq %"class.std::__1::__tree_node_base"* %39, %35
  br i1 %40, label %41, label %32

41:                                               ; preds = %32, %30, %17
  %42 = phi %"class.std::__1::__tree_end_node"* [ %31, %30 ], [ %21, %17 ], [ %37, %32 ]
  %43 = getelementptr inbounds %"class.std::__1::set", %"class.std::__1::set"* %8, i64 0, i32 0, i32 0
  %44 = load %"class.std::__1::__tree_end_node"*, %"class.std::__1::__tree_end_node"** %43, align 8
  %45 = icmp eq %"class.std::__1::__tree_end_node"* %44, %10
  br i1 %45, label %46, label %49

46:                                               ; preds = %41
  %47 = ptrtoint %"class.std::__1::__tree_end_node"* %42 to i64
  %48 = bitcast %"class.std::__1::set"* %8 to i64*
  store i64 %47, i64* %48, align 8
  br label %49

49:                                               ; preds = %41, %46
  %50 = getelementptr inbounds %"class.extensions::ImageSanitizer", %"class.extensions::ImageSanitizer"* %0, i64 0, i32 1, i32 0, i32 2, i32 0, i32 0
  %51 = load i64, i64* %50, align 8
  %52 = add i64 %51, -1
  store i64 %52, i64* %50, align 8
  %53 = getelementptr inbounds %"class.extensions::ImageSanitizer", %"class.extensions::ImageSanitizer"* %0, i64 0, i32 1, i32 0, i32 1, i32 0, i32 0, i32 0
  %54 = load %"class.std::__1::__tree_node_base"*, %"class.std::__1::__tree_node_base"** %53, align 8
  %55 = bitcast %"class.std::__1::__tree_end_node"* %10 to %"class.std::__1::__tree_node_base"*
  tail call void @_ZNSt3__113__tree_removeIPNS_16__tree_node_baseIPvEEEEvT_S5_(%"class.std::__1::__tree_node_base"* %54, %"class.std::__1::__tree_node_base"* %55) #10
  %56 = getelementptr inbounds %"class.std::__1::__tree_end_node", %"class.std::__1::__tree_end_node"* %10, i64 4
  %57 = bitcast %"class.std::__1::__tree_end_node"* %56 to %"class.base::FilePath"*
  tail call void @_ZN4base8FilePathD1Ev(%"class.base::FilePath"* %57) #10
  %58 = bitcast %"class.std::__1::__tree_end_node"* %10 to i8*
  tail call void @_ZdlPv(i8* %58) #9
  br label %59

59:                                               ; preds = %7, %49
  %60 = getelementptr inbounds %"class.extensions::ImageSanitizer", %"class.extensions::ImageSanitizer"* %0, i64 0, i32 1, i32 0, i32 2, i32 0, i32 0
  %61 = load i64, i64* %60, align 8
  %62 = icmp eq i64 %61, 0
  br i1 %62, label %63, label %64

63:                                               ; preds = %59
  tail call void @_ZN10extensions14ImageSanitizer13ReportSuccessEv(%"class.extensions::ImageSanitizer"* %0)
  br label %64

64:                                               ; preds = %59, %63, %6
  ret void
}

; Function Attrs: nounwind ssp uwtable
define hidden void @_ZN10extensions14ImageSanitizer7CleanUpEv(%"class.extensions::ImageSanitizer"*) local_unnamed_addr #0 align 2 {
  %2 = alloca %"class.mojo::internal::InterfacePtrState", align 8
  %3 = getelementptr inbounds %"class.extensions::ImageSanitizer", %"class.extensions::ImageSanitizer"* %0, i64 0, i32 5
  %4 = bitcast %"class.mojo::internal::InterfacePtrState"* %2 to i8*
  call void @llvm.lifetime.start.p0i8(i64 48, i8* nonnull %4) #10
  call void @llvm.memset.p0i8.i64(i8* nonnull align 8 %4, i8 -86, i64 48, i1 false) #10
  %5 = bitcast %"class.mojo::internal::InterfacePtrState"* %2 to %"class.mojo::internal::InterfacePtrStateBase"*
  call void @_ZN4mojo8internal21InterfacePtrStateBaseC2Ev(%"class.mojo::internal::InterfacePtrStateBase"* nonnull %5) #10
  %6 = getelementptr inbounds %"class.mojo::internal::InterfacePtrState", %"class.mojo::internal::InterfacePtrState"* %2, i64 0, i32 1
  %7 = bitcast %"class.std::__1::unique_ptr.176"* %6 to i64*
  %8 = getelementptr inbounds %"class.extensions::ImageSanitizer", %"class.extensions::ImageSanitizer"* %0, i64 0, i32 5, i32 0, i32 1
  %9 = bitcast %"class.std::__1::unique_ptr.176"* %8 to i64*
  %10 = load i64, i64* %9, align 8
  store i64 %10, i64* %7, align 8
  store i64 0, i64* %9, align 8
  %11 = bitcast %"class.mojo::Remote"* %3 to %"class.mojo::internal::InterfacePtrStateBase"*
  call void @_ZN4mojo8internal21InterfacePtrStateBase4SwapEPS1_(%"class.mojo::internal::InterfacePtrStateBase"* %11, %"class.mojo::internal::InterfacePtrStateBase"* nonnull %5) #10
  %12 = getelementptr inbounds %"class.mojo::internal::InterfacePtrState", %"class.mojo::internal::InterfacePtrState"* %2, i64 0, i32 1, i32 0, i32 0, i32 0
  %13 = load %"class.data_decoder::mojom::ImageDecoderProxy"*, %"class.data_decoder::mojom::ImageDecoderProxy"** %12, align 8
  store %"class.data_decoder::mojom::ImageDecoderProxy"* null, %"class.data_decoder::mojom::ImageDecoderProxy"** %12, align 8
  %14 = icmp eq %"class.data_decoder::mojom::ImageDecoderProxy"* %13, null
  br i1 %14, label %20, label %15

15:                                               ; preds = %1
  %16 = bitcast %"class.data_decoder::mojom::ImageDecoderProxy"* %13 to void (%"class.data_decoder::mojom::ImageDecoderProxy"*)***
  %17 = load void (%"class.data_decoder::mojom::ImageDecoderProxy"*)**, void (%"class.data_decoder::mojom::ImageDecoderProxy"*)*** %16, align 8
  %18 = getelementptr inbounds void (%"class.data_decoder::mojom::ImageDecoderProxy"*)*, void (%"class.data_decoder::mojom::ImageDecoderProxy"*)** %17, i64 1
  %19 = load void (%"class.data_decoder::mojom::ImageDecoderProxy"*)*, void (%"class.data_decoder::mojom::ImageDecoderProxy"*)** %18, align 8
  call void %19(%"class.data_decoder::mojom::ImageDecoderProxy"* nonnull %13) #10
  br label %20

20:                                               ; preds = %1, %15
  call void @_ZN4mojo8internal21InterfacePtrStateBaseD2Ev(%"class.mojo::internal::InterfacePtrStateBase"* nonnull %5) #10
  call void @llvm.lifetime.end.p0i8(i64 48, i8* nonnull %4) #10
  %21 = getelementptr inbounds %"class.extensions::ImageSanitizer", %"class.extensions::ImageSanitizer"* %0, i64 0, i32 2, i32 0, i32 0
  call void @_ZN4base8internal12CallbackBase5ResetEv(%"class.base::internal::CallbackBase"* %21) #10
  ret void
}

declare void @_ZN4base8internal12CallbackBase5ResetEv(%"class.base::internal::CallbackBase"*) local_unnamed_addr #3

declare void @_ZN4mojo8internal21InterfacePtrStateBaseC2Ev(%"class.mojo::internal::InterfacePtrStateBase"*) unnamed_addr #3

; Function Attrs: nounwind
declare void @_ZN4mojo8internal21InterfacePtrStateBaseD2Ev(%"class.mojo::internal::InterfacePtrStateBase"*) unnamed_addr #2

; Function Attrs: nounwind
declare void @_ZN4mojo8internal20PendingReceiverStateD1Ev(%"struct.mojo::internal::PendingReceiverState"*) unnamed_addr #2

declare zeroext i1 @_ZN4base11GetFileSizeERKNS_8FilePathEPl(%"class.base::FilePath"* dereferenceable(24), i64*) local_unnamed_addr #3

declare i32 @_ZN4base8ReadFileERKNS_8FilePathEPci(%"class.base::FilePath"* dereferenceable(24), i8*, i32) local_unnamed_addr #3

declare zeroext i1 @_ZN4base10DeleteFileERKNS_8FilePathE(%"class.base::FilePath"* dereferenceable(24)) local_unnamed_addr #3

; Function Attrs: nounwind ssp uwtable
define linkonce_odr hidden void @_ZNSt3__16vectorIhNS_9allocatorIhEEE8__appendEm(%"class.std::__1::vector"*, i64) local_unnamed_addr #0 comdat align 2 {
  %3 = getelementptr inbounds %"class.std::__1::vector", %"class.std::__1::vector"* %0, i64 0, i32 0, i32 2, i32 0, i32 0
  %4 = bitcast i8** %3 to i64*
  %5 = load i64, i64* %4, align 8
  %6 = getelementptr inbounds %"class.std::__1::vector", %"class.std::__1::vector"* %0, i64 0, i32 0, i32 1
  %7 = bitcast i8** %6 to i64*
  %8 = load i64, i64* %7, align 8
  %9 = sub i64 %5, %8
  %10 = icmp ult i64 %9, %1
  br i1 %10, label %22, label %11

11:                                               ; preds = %2
  %12 = inttoptr i64 %8 to i8*
  %13 = icmp eq i64 %1, 0
  br i1 %13, label %20, label %14

14:                                               ; preds = %11
  %15 = getelementptr inbounds i8, i8* %12, i64 %1
  %16 = sub i64 %1, %8
  %17 = getelementptr i8, i8* %12, i64 %16
  %18 = ptrtoint i8* %17 to i64
  tail call void @llvm.memset.p0i8.i64(i8* align 1 %12, i8 0, i64 %18, i1 false) #10
  %19 = ptrtoint i8* %15 to i64
  br label %20

20:                                               ; preds = %11, %14
  %21 = phi i64 [ %19, %14 ], [ %8, %11 ]
  store i64 %21, i64* %7, align 8
  br label %68

22:                                               ; preds = %2
  %23 = bitcast %"class.std::__1::vector"* %0 to i64*
  %24 = load i64, i64* %23, align 8
  %25 = sub i64 %8, %24
  %26 = add i64 %25, %1
  %27 = icmp slt i64 %26, 0
  br i1 %27, label %28, label %30

28:                                               ; preds = %22
  %29 = bitcast %"class.std::__1::vector"* %0 to %"class.std::__1::__vector_base_common"*
  tail call void @_ZNKSt3__120__vector_base_commonILb1EE20__throw_length_errorEv(%"class.std::__1::__vector_base_common"* %29) #11
  unreachable

30:                                               ; preds = %22
  %31 = sub i64 %5, %24
  %32 = icmp ult i64 %31, 4611686018427387903
  br i1 %32, label %33, label %38

33:                                               ; preds = %30
  %34 = shl i64 %31, 1
  %35 = icmp ult i64 %34, %26
  %36 = select i1 %35, i64 %26, i64 %34
  %37 = icmp eq i64 %36, 0
  br i1 %37, label %41, label %38

38:                                               ; preds = %30, %33
  %39 = phi i64 [ %36, %33 ], [ 9223372036854775807, %30 ]
  %40 = tail call i8* @_Znwm(i64 %39) #9
  br label %41

41:                                               ; preds = %38, %33
  %42 = phi i64 [ %39, %38 ], [ 0, %33 ]
  %43 = phi i8* [ %40, %38 ], [ null, %33 ]
  %44 = getelementptr inbounds i8, i8* %43, i64 %25
  %45 = ptrtoint i8* %44 to i64
  %46 = getelementptr inbounds i8, i8* %43, i64 %42
  %47 = getelementptr inbounds i8, i8* %44, i64 %1
  %48 = sub i64 %1, %45
  %49 = getelementptr i8, i8* %44, i64 %48
  %50 = ptrtoint i8* %49 to i64
  tail call void @llvm.memset.p0i8.i64(i8* align 1 %44, i8 0, i64 %50, i1 false) #10
  %51 = ptrtoint i8* %46 to i64
  %52 = ptrtoint i8* %47 to i64
  %53 = getelementptr inbounds %"class.std::__1::vector", %"class.std::__1::vector"* %0, i64 0, i32 0, i32 0
  %54 = load i8*, i8** %53, align 8
  %55 = load i64, i64* %7, align 8
  %56 = ptrtoint i8* %54 to i64
  %57 = sub i64 %55, %56
  %58 = sub i64 0, %57
  %59 = getelementptr inbounds i8, i8* %44, i64 %58
  %60 = ptrtoint i8* %59 to i64
  %61 = icmp sgt i64 %57, 0
  br i1 %61, label %62, label %64

62:                                               ; preds = %41
  tail call void @llvm.memcpy.p0i8.p0i8.i64(i8* align 1 %59, i8* align 1 %54, i64 %57, i1 false) #10
  %63 = load i8*, i8** %53, align 8
  br label %64

64:                                               ; preds = %41, %62
  %65 = phi i8* [ %54, %41 ], [ %63, %62 ]
  store i64 %60, i64* %23, align 8
  store i64 %52, i64* %7, align 8
  store i64 %51, i64* %4, align 8
  %66 = icmp eq i8* %65, null
  br i1 %66, label %68, label %67

67:                                               ; preds = %64
  tail call void @_ZdlPv(i8* nonnull %65) #9
  br label %68

68:                                               ; preds = %67, %64, %20
  ret void
}

; Function Attrs: argmemonly nounwind
declare void @llvm.memset.p0i8.i64(i8* nocapture writeonly, i8, i64, i1 immarg) #4

; Function Attrs: noreturn
declare void @_ZNKSt3__120__vector_base_commonILb1EE20__throw_length_errorEv(%"class.std::__1::__vector_base_common"*) local_unnamed_addr #5

; Function Attrs: argmemonly nounwind
declare void @llvm.memcpy.p0i8.p0i8.i64(i8* nocapture writeonly, i8* nocapture readonly, i64, i1 immarg) #4

; Function Attrs: nobuiltin nounwind
declare void @_ZdlPv(i8*) local_unnamed_addr #6

declare zeroext i1 @_ZN3gfx8PNGCodec18EncodeBGRASkBitmapERK8SkBitmapbPNSt3__16vectorIhNS4_9allocatorIhEEEE(%class.SkBitmap* dereferenceable(56), i1 zeroext, %"class.std::__1::vector"*) local_unnamed_addr #3

; Function Attrs: cold noreturn nounwind
declare void @llvm.trap() #7

declare i32 @_ZN4base9WriteFileERKNS_8FilePathEPKci(%"class.base::FilePath"* dereferenceable(24), i8*, i32) local_unnamed_addr #3

declare void @_ZN4base8internal18WeakPtrFactoryBaseC2Em(%"class.base::internal::WeakPtrFactoryBase"*, i64) unnamed_addr #3

; Function Attrs: nounwind ssp uwtable
define linkonce_odr hidden { %"class.std::__1::__tree_end_node"*, i8 } @_ZNSt3__16__treeIN4base8FilePathENS_4lessIS2_EENS_9allocatorIS2_EEE30__emplace_hint_unique_key_argsIS2_JRKS2_EEENS_4pairINS_15__tree_iteratorIS2_PNS_11__tree_nodeIS2_PvEElEEbEENS_21__tree_const_iteratorIS2_SG_lEERKT_DpOT0_(%"class.std::__1::__tree"*, %"class.std::__1::__tree_end_node"*, %"class.base::FilePath"* dereferenceable(24), %"class.base::FilePath"* dereferenceable(24)) local_unnamed_addr #0 comdat align 2 {
  %5 = alloca %"class.std::__1::__tree_end_node"*, align 8
  %6 = alloca %"class.std::__1::__tree_node_base"*, align 8
  %7 = bitcast %"class.std::__1::__tree_end_node"** %5 to i8*
  call void @llvm.lifetime.start.p0i8(i64 8, i8* nonnull %7) #10
  store %"class.std::__1::__tree_end_node"* inttoptr (i64 -6148914691236517206 to %"class.std::__1::__tree_end_node"*), %"class.std::__1::__tree_end_node"** %5, align 8
  %8 = bitcast %"class.std::__1::__tree_node_base"** %6 to i8*
  call void @llvm.lifetime.start.p0i8(i64 8, i8* nonnull %8) #10
  store %"class.std::__1::__tree_node_base"* inttoptr (i64 -6148914691236517206 to %"class.std::__1::__tree_node_base"*), %"class.std::__1::__tree_node_base"** %6, align 8
  %9 = call dereferenceable(8) %"class.std::__1::__tree_node_base"** @_ZNSt3__16__treeIN4base8FilePathENS_4lessIS2_EENS_9allocatorIS2_EEE12__find_equalIS2_EERPNS_16__tree_node_baseIPvEENS_21__tree_const_iteratorIS2_PNS_11__tree_nodeIS2_SA_EElEERPNS_15__tree_end_nodeISC_EESD_RKT_(%"class.std::__1::__tree"* %0, %"class.std::__1::__tree_end_node"* %1, %"class.std::__1::__tree_end_node"** nonnull dereferenceable(8) %5, %"class.std::__1::__tree_node_base"** nonnull dereferenceable(8) %6, %"class.base::FilePath"* dereferenceable(24) %2)
  %10 = bitcast %"class.std::__1::__tree_node_base"** %9 to %"class.std::__1::__tree_node"**
  %11 = load %"class.std::__1::__tree_node"*, %"class.std::__1::__tree_node"** %10, align 8
  %12 = icmp eq %"class.std::__1::__tree_node"* %11, null
  br i1 %12, label %13, label %40

13:                                               ; preds = %4
  %14 = call i8* @_Znwm(i64 56) #9, !noalias !111
  %15 = getelementptr inbounds i8, i8* %14, i64 32
  %16 = bitcast i8* %15 to %"class.base::FilePath"*
  call void @_ZN4base8FilePathC1ERKS0_(%"class.base::FilePath"* %16, %"class.base::FilePath"* dereferenceable(24) %3) #10, !noalias !111
  %17 = bitcast %"class.std::__1::__tree_end_node"** %5 to i64*
  %18 = load i64, i64* %17, align 8
  %19 = bitcast i8* %14 to %"class.std::__1::__tree_node"*
  %20 = bitcast i8* %14 to %"class.std::__1::__tree_node_base"*
  %21 = getelementptr inbounds i8, i8* %14, i64 16
  call void @llvm.memset.p0i8.i64(i8* nonnull align 8 %14, i8 0, i64 16, i1 false) #10
  %22 = bitcast i8* %21 to i64*
  store i64 %18, i64* %22, align 8
  %23 = bitcast %"class.std::__1::__tree_node_base"** %9 to i8**
  store i8* %14, i8** %23, align 8
  %24 = getelementptr inbounds %"class.std::__1::__tree", %"class.std::__1::__tree"* %0, i64 0, i32 0
  %25 = load %"class.std::__1::__tree_end_node"*, %"class.std::__1::__tree_end_node"** %24, align 8
  %26 = getelementptr inbounds %"class.std::__1::__tree_end_node", %"class.std::__1::__tree_end_node"* %25, i64 0, i32 0
  %27 = load %"class.std::__1::__tree_node_base"*, %"class.std::__1::__tree_node_base"** %26, align 8
  %28 = icmp eq %"class.std::__1::__tree_node_base"* %27, null
  br i1 %28, label %33, label %29

29:                                               ; preds = %13
  %30 = ptrtoint %"class.std::__1::__tree_node_base"* %27 to i64
  %31 = bitcast %"class.std::__1::__tree"* %0 to i64*
  store i64 %30, i64* %31, align 8
  %32 = load %"class.std::__1::__tree_node_base"*, %"class.std::__1::__tree_node_base"** %9, align 8
  br label %33

33:                                               ; preds = %29, %13
  %34 = phi %"class.std::__1::__tree_node_base"* [ %20, %13 ], [ %32, %29 ]
  %35 = getelementptr inbounds %"class.std::__1::__tree", %"class.std::__1::__tree"* %0, i64 0, i32 1, i32 0, i32 0, i32 0
  %36 = load %"class.std::__1::__tree_node_base"*, %"class.std::__1::__tree_node_base"** %35, align 8
  call void @_ZNSt3__127__tree_balance_after_insertIPNS_16__tree_node_baseIPvEEEEvT_S5_(%"class.std::__1::__tree_node_base"* %36, %"class.std::__1::__tree_node_base"* %34) #10
  %37 = getelementptr inbounds %"class.std::__1::__tree", %"class.std::__1::__tree"* %0, i64 0, i32 2, i32 0, i32 0
  %38 = load i64, i64* %37, align 8
  %39 = add i64 %38, 1
  store i64 %39, i64* %37, align 8
  br label %40

40:                                               ; preds = %33, %4
  %41 = phi i8 [ 1, %33 ], [ 0, %4 ]
  %42 = phi %"class.std::__1::__tree_node"* [ %19, %33 ], [ %11, %4 ]
  %43 = getelementptr inbounds %"class.std::__1::__tree_node", %"class.std::__1::__tree_node"* %42, i64 0, i32 0, i32 0
  call void @llvm.lifetime.end.p0i8(i64 8, i8* nonnull %8) #10
  call void @llvm.lifetime.end.p0i8(i64 8, i8* nonnull %7) #10
  %44 = insertvalue { %"class.std::__1::__tree_end_node"*, i8 } undef, %"class.std::__1::__tree_end_node"* %43, 0
  %45 = insertvalue { %"class.std::__1::__tree_end_node"*, i8 } %44, i8 %41, 1
  ret { %"class.std::__1::__tree_end_node"*, i8 } %45
}

; Function Attrs: nounwind ssp uwtable
define linkonce_odr hidden dereferenceable(8) %"class.std::__1::__tree_node_base"** @_ZNSt3__16__treeIN4base8FilePathENS_4lessIS2_EENS_9allocatorIS2_EEE12__find_equalIS2_EERPNS_16__tree_node_baseIPvEENS_21__tree_const_iteratorIS2_PNS_11__tree_nodeIS2_SA_EElEERPNS_15__tree_end_nodeISC_EESD_RKT_(%"class.std::__1::__tree"*, %"class.std::__1::__tree_end_node"*, %"class.std::__1::__tree_end_node"** dereferenceable(8), %"class.std::__1::__tree_node_base"** dereferenceable(8), %"class.base::FilePath"* dereferenceable(24)) local_unnamed_addr #0 comdat align 2 {
  %6 = ptrtoint %"class.std::__1::__tree_end_node"* %1 to i64
  %7 = getelementptr inbounds %"class.std::__1::__tree", %"class.std::__1::__tree"* %0, i64 0, i32 1, i32 0, i32 0
  %8 = icmp eq %"class.std::__1::__tree_end_node"* %7, %1
  br i1 %8, label %46, label %9

9:                                                ; preds = %5
  %10 = getelementptr inbounds %"class.std::__1::__tree_end_node", %"class.std::__1::__tree_end_node"* %1, i64 4
  %11 = bitcast %"class.std::__1::__tree_end_node"* %10 to %"struct.std::__1::basic_string<char, std::__1::char_traits<char>, std::__1::allocator<char> >::__short"*
  %12 = getelementptr inbounds %"struct.std::__1::basic_string<char, std::__1::char_traits<char>, std::__1::allocator<char> >::__short", %"struct.std::__1::basic_string<char, std::__1::char_traits<char>, std::__1::allocator<char> >::__short"* %11, i64 0, i32 1, i32 0
  %13 = load i8, i8* %12, align 1
  %14 = icmp slt i8 %13, 0
  %15 = getelementptr inbounds %"class.std::__1::__tree_end_node", %"class.std::__1::__tree_end_node"* %1, i64 5
  %16 = bitcast %"class.std::__1::__tree_end_node"* %15 to i64*
  %17 = load i64, i64* %16, align 8
  %18 = zext i8 %13 to i64
  %19 = select i1 %14, i64 %17, i64 %18
  %20 = bitcast %"class.base::FilePath"* %4 to %"struct.std::__1::basic_string<char, std::__1::char_traits<char>, std::__1::allocator<char> >::__short"*
  %21 = getelementptr inbounds %"struct.std::__1::basic_string<char, std::__1::char_traits<char>, std::__1::allocator<char> >::__short", %"struct.std::__1::basic_string<char, std::__1::char_traits<char>, std::__1::allocator<char> >::__short"* %20, i64 0, i32 1, i32 0
  %22 = load i8, i8* %21, align 1
  %23 = icmp slt i8 %22, 0
  %24 = getelementptr inbounds %"class.base::FilePath", %"class.base::FilePath"* %4, i64 0, i32 0, i32 0, i32 0, i32 0, i32 0, i32 0, i32 1
  %25 = load i64, i64* %24, align 8
  %26 = zext i8 %22 to i64
  %27 = select i1 %23, i64 %25, i64 %26
  %28 = icmp ult i64 %19, %27
  %29 = select i1 %28, i64 %19, i64 %27
  %30 = icmp eq i64 %29, 0
  br i1 %30, label %42, label %31

31:                                               ; preds = %9
  %32 = getelementptr inbounds %"class.base::FilePath", %"class.base::FilePath"* %4, i64 0, i32 0, i32 0, i32 0, i32 0, i32 0, i32 0, i32 0
  %33 = load i8*, i8** %32, align 8
  %34 = bitcast %"class.base::FilePath"* %4 to i8*
  %35 = select i1 %23, i8* %33, i8* %34
  %36 = bitcast %"class.std::__1::__tree_end_node"* %10 to i8**
  %37 = load i8*, i8** %36, align 8
  %38 = bitcast %"class.std::__1::__tree_end_node"* %10 to i8*
  %39 = select i1 %14, i8* %37, i8* %38
  %40 = tail call i32 @memcmp(i8* %35, i8* %39, i64 %29) #10
  %41 = icmp eq i32 %40, 0
  br i1 %41, label %42, label %44

42:                                               ; preds = %31, %9
  %43 = icmp ult i64 %27, %19
  br i1 %43, label %46, label %120

44:                                               ; preds = %31
  %45 = icmp slt i32 %40, 0
  br i1 %45, label %46, label %130

46:                                               ; preds = %42, %5, %44
  %47 = getelementptr inbounds %"class.std::__1::__tree", %"class.std::__1::__tree"* %0, i64 0, i32 0
  %48 = load %"class.std::__1::__tree_end_node"*, %"class.std::__1::__tree_end_node"** %47, align 8
  %49 = icmp eq %"class.std::__1::__tree_end_node"* %48, %1
  %50 = getelementptr inbounds %"class.std::__1::__tree_end_node", %"class.std::__1::__tree_end_node"* %1, i64 0, i32 0
  %51 = load %"class.std::__1::__tree_node_base"*, %"class.std::__1::__tree_node_base"** %50, align 8
  br i1 %49, label %109, label %52

52:                                               ; preds = %46
  %53 = icmp eq %"class.std::__1::__tree_node_base"* %51, null
  br i1 %53, label %59, label %54

54:                                               ; preds = %52, %54
  %55 = phi %"class.std::__1::__tree_node_base"* [ %57, %54 ], [ %51, %52 ]
  %56 = getelementptr inbounds %"class.std::__1::__tree_node_base", %"class.std::__1::__tree_node_base"* %55, i64 0, i32 1
  %57 = load %"class.std::__1::__tree_node_base"*, %"class.std::__1::__tree_node_base"** %56, align 8
  %58 = icmp eq %"class.std::__1::__tree_node_base"* %57, null
  br i1 %58, label %70, label %54

59:                                               ; preds = %52, %59
  %60 = phi %"class.std::__1::__tree_end_node"* [ %64, %59 ], [ %1, %52 ]
  %61 = bitcast %"class.std::__1::__tree_end_node"* %60 to %"class.std::__1::__tree_node_base"*
  %62 = getelementptr inbounds %"class.std::__1::__tree_end_node", %"class.std::__1::__tree_end_node"* %60, i64 2
  %63 = bitcast %"class.std::__1::__tree_end_node"* %62 to %"class.std::__1::__tree_end_node"**
  %64 = load %"class.std::__1::__tree_end_node"*, %"class.std::__1::__tree_end_node"** %63, align 8
  %65 = getelementptr inbounds %"class.std::__1::__tree_end_node", %"class.std::__1::__tree_end_node"* %64, i64 0, i32 0
  %66 = load %"class.std::__1::__tree_node_base"*, %"class.std::__1::__tree_node_base"** %65, align 8
  %67 = icmp eq %"class.std::__1::__tree_node_base"* %66, %61
  br i1 %67, label %59, label %68

68:                                               ; preds = %59
  %69 = bitcast %"class.std::__1::__tree_end_node"* %64 to %"class.std::__1::__tree_node_base"*
  br label %70

70:                                               ; preds = %54, %68
  %71 = phi %"class.std::__1::__tree_node_base"* [ %69, %68 ], [ %55, %54 ]
  %72 = ptrtoint %"class.std::__1::__tree_node_base"* %71 to i64
  %73 = getelementptr inbounds %"class.std::__1::__tree_node_base", %"class.std::__1::__tree_node_base"* %71, i64 1
  %74 = bitcast %"class.base::FilePath"* %4 to %"struct.std::__1::basic_string<char, std::__1::char_traits<char>, std::__1::allocator<char> >::__short"*
  %75 = getelementptr inbounds %"struct.std::__1::basic_string<char, std::__1::char_traits<char>, std::__1::allocator<char> >::__short", %"struct.std::__1::basic_string<char, std::__1::char_traits<char>, std::__1::allocator<char> >::__short"* %74, i64 0, i32 1, i32 0
  %76 = load i8, i8* %75, align 1
  %77 = icmp slt i8 %76, 0
  %78 = getelementptr inbounds %"class.base::FilePath", %"class.base::FilePath"* %4, i64 0, i32 0, i32 0, i32 0, i32 0, i32 0, i32 0, i32 1
  %79 = load i64, i64* %78, align 8
  %80 = zext i8 %76 to i64
  %81 = select i1 %77, i64 %79, i64 %80
  %82 = bitcast %"class.std::__1::__tree_node_base"* %73 to %"struct.std::__1::basic_string<char, std::__1::char_traits<char>, std::__1::allocator<char> >::__short"*
  %83 = getelementptr inbounds %"struct.std::__1::basic_string<char, std::__1::char_traits<char>, std::__1::allocator<char> >::__short", %"struct.std::__1::basic_string<char, std::__1::char_traits<char>, std::__1::allocator<char> >::__short"* %82, i64 0, i32 1, i32 0
  %84 = load i8, i8* %83, align 1
  %85 = icmp slt i8 %84, 0
  %86 = getelementptr inbounds %"class.std::__1::__tree_node_base", %"class.std::__1::__tree_node_base"* %71, i64 1, i32 1
  %87 = bitcast %"class.std::__1::__tree_node_base"** %86 to i64*
  %88 = load i64, i64* %87, align 8
  %89 = zext i8 %84 to i64
  %90 = select i1 %85, i64 %88, i64 %89
  %91 = icmp ult i64 %81, %90
  %92 = select i1 %91, i64 %81, i64 %90
  %93 = icmp eq i64 %92, 0
  br i1 %93, label %105, label %94

94:                                               ; preds = %70
  %95 = bitcast %"class.std::__1::__tree_node_base"* %73 to i8**
  %96 = load i8*, i8** %95, align 8
  %97 = bitcast %"class.std::__1::__tree_node_base"* %73 to i8*
  %98 = select i1 %85, i8* %96, i8* %97
  %99 = getelementptr inbounds %"class.base::FilePath", %"class.base::FilePath"* %4, i64 0, i32 0, i32 0, i32 0, i32 0, i32 0, i32 0, i32 0
  %100 = load i8*, i8** %99, align 8
  %101 = bitcast %"class.base::FilePath"* %4 to i8*
  %102 = select i1 %77, i8* %100, i8* %101
  %103 = tail call i32 @memcmp(i8* %98, i8* %102, i64 %92) #10
  %104 = icmp eq i32 %103, 0
  br i1 %104, label %105, label %107

105:                                              ; preds = %94, %70
  %106 = icmp ult i64 %90, %81
  br i1 %106, label %109, label %118

107:                                              ; preds = %94
  %108 = icmp slt i32 %103, 0
  br i1 %108, label %109, label %118

109:                                              ; preds = %46, %105, %107
  %110 = phi i64 [ %72, %107 ], [ %72, %105 ], [ %6, %46 ]
  %111 = icmp eq %"class.std::__1::__tree_node_base"* %51, null
  br i1 %111, label %112, label %114

112:                                              ; preds = %109
  %113 = getelementptr inbounds %"class.std::__1::__tree_end_node", %"class.std::__1::__tree_end_node"* %1, i64 0, i32 0
  store %"class.std::__1::__tree_end_node"* %1, %"class.std::__1::__tree_end_node"** %2, align 8
  br label %208

114:                                              ; preds = %109
  %115 = bitcast %"class.std::__1::__tree_end_node"** %2 to i64*
  store i64 %110, i64* %115, align 8
  %116 = inttoptr i64 %110 to %"class.std::__1::__tree_node_base"*
  %117 = getelementptr inbounds %"class.std::__1::__tree_node_base", %"class.std::__1::__tree_node_base"* %116, i64 0, i32 1
  br label %208

118:                                              ; preds = %105, %107
  %119 = tail call dereferenceable(8) %"class.std::__1::__tree_node_base"** @_ZNSt3__16__treeIN4base8FilePathENS_4lessIS2_EENS_9allocatorIS2_EEE12__find_equalIS2_EERPNS_16__tree_node_baseIPvEERPNS_15__tree_end_nodeISC_EERKT_(%"class.std::__1::__tree"* %0, %"class.std::__1::__tree_end_node"** dereferenceable(8) %2, %"class.base::FilePath"* dereferenceable(24) %4)
  br label %208

120:                                              ; preds = %42
  br i1 %30, label %135, label %121

121:                                              ; preds = %120
  %122 = bitcast %"class.std::__1::__tree_end_node"* %10 to i8**
  %123 = load i8*, i8** %122, align 8
  %124 = getelementptr inbounds %"class.base::FilePath", %"class.base::FilePath"* %4, i64 0, i32 0, i32 0, i32 0, i32 0, i32 0, i32 0, i32 0
  %125 = load i8*, i8** %124, align 8
  %126 = bitcast %"class.std::__1::__tree_end_node"* %10 to i8*
  %127 = select i1 %14, i8* %123, i8* %126
  %128 = bitcast %"class.base::FilePath"* %4 to i8*
  %129 = select i1 %23, i8* %125, i8* %128
  br label %130

130:                                              ; preds = %121, %44
  %131 = phi i8* [ %129, %121 ], [ %35, %44 ]
  %132 = phi i8* [ %127, %121 ], [ %39, %44 ]
  %133 = tail call i32 @memcmp(i8* %132, i8* %131, i64 %29) #10
  %134 = icmp eq i32 %133, 0
  br i1 %134, label %135, label %136

135:                                              ; preds = %130, %120
  br i1 %28, label %138, label %205

136:                                              ; preds = %130
  %137 = icmp slt i32 %133, 0
  br i1 %137, label %138, label %205

138:                                              ; preds = %135, %136
  %139 = getelementptr inbounds %"class.std::__1::__tree_end_node", %"class.std::__1::__tree_end_node"* %1, i64 1, i32 0
  %140 = load %"class.std::__1::__tree_node_base"*, %"class.std::__1::__tree_node_base"** %139, align 8
  %141 = icmp eq %"class.std::__1::__tree_node_base"* %140, null
  br i1 %141, label %142, label %150

142:                                              ; preds = %138
  %143 = bitcast %"class.std::__1::__tree_end_node"* %1 to %"class.std::__1::__tree_node_base"*
  %144 = getelementptr inbounds %"class.std::__1::__tree_end_node", %"class.std::__1::__tree_end_node"* %1, i64 2
  %145 = bitcast %"class.std::__1::__tree_end_node"* %144 to %"class.std::__1::__tree_end_node"**
  %146 = load %"class.std::__1::__tree_end_node"*, %"class.std::__1::__tree_end_node"** %145, align 8
  %147 = getelementptr inbounds %"class.std::__1::__tree_end_node", %"class.std::__1::__tree_end_node"* %146, i64 0, i32 0
  %148 = load %"class.std::__1::__tree_node_base"*, %"class.std::__1::__tree_node_base"** %147, align 8
  %149 = icmp eq %"class.std::__1::__tree_node_base"* %148, %143
  br i1 %149, label %166, label %157

150:                                              ; preds = %138, %150
  %151 = phi %"class.std::__1::__tree_node_base"* [ %153, %150 ], [ %140, %138 ]
  %152 = getelementptr inbounds %"class.std::__1::__tree_node_base", %"class.std::__1::__tree_node_base"* %151, i64 0, i32 0, i32 0
  %153 = load %"class.std::__1::__tree_node_base"*, %"class.std::__1::__tree_node_base"** %152, align 8
  %154 = icmp eq %"class.std::__1::__tree_node_base"* %153, null
  br i1 %154, label %155, label %150

155:                                              ; preds = %150
  %156 = getelementptr inbounds %"class.std::__1::__tree_node_base", %"class.std::__1::__tree_node_base"* %151, i64 0, i32 0
  br label %166

157:                                              ; preds = %142, %157
  %158 = phi %"class.std::__1::__tree_end_node"** [ %161, %157 ], [ %145, %142 ]
  %159 = bitcast %"class.std::__1::__tree_end_node"** %158 to %"class.std::__1::__tree_node_base"**
  %160 = load %"class.std::__1::__tree_node_base"*, %"class.std::__1::__tree_node_base"** %159, align 8
  %161 = getelementptr inbounds %"class.std::__1::__tree_node_base", %"class.std::__1::__tree_node_base"* %160, i64 0, i32 2
  %162 = load %"class.std::__1::__tree_end_node"*, %"class.std::__1::__tree_end_node"** %161, align 8
  %163 = getelementptr inbounds %"class.std::__1::__tree_end_node", %"class.std::__1::__tree_end_node"* %162, i64 0, i32 0
  %164 = load %"class.std::__1::__tree_node_base"*, %"class.std::__1::__tree_node_base"** %163, align 8
  %165 = icmp eq %"class.std::__1::__tree_node_base"* %164, %160
  br i1 %165, label %166, label %157

166:                                              ; preds = %157, %155, %142
  %167 = phi %"class.std::__1::__tree_end_node"* [ %156, %155 ], [ %146, %142 ], [ %162, %157 ]
  %168 = icmp eq %"class.std::__1::__tree_end_node"* %167, %7
  br i1 %168, label %198, label %169

169:                                              ; preds = %166
  %170 = getelementptr inbounds %"class.std::__1::__tree_end_node", %"class.std::__1::__tree_end_node"* %167, i64 4
  %171 = bitcast %"class.std::__1::__tree_end_node"* %170 to %"struct.std::__1::basic_string<char, std::__1::char_traits<char>, std::__1::allocator<char> >::__short"*
  %172 = getelementptr inbounds %"struct.std::__1::basic_string<char, std::__1::char_traits<char>, std::__1::allocator<char> >::__short", %"struct.std::__1::basic_string<char, std::__1::char_traits<char>, std::__1::allocator<char> >::__short"* %171, i64 0, i32 1, i32 0
  %173 = load i8, i8* %172, align 1
  %174 = icmp slt i8 %173, 0
  %175 = getelementptr inbounds %"class.std::__1::__tree_end_node", %"class.std::__1::__tree_end_node"* %167, i64 5
  %176 = bitcast %"class.std::__1::__tree_end_node"* %175 to i64*
  %177 = load i64, i64* %176, align 8
  %178 = zext i8 %173 to i64
  %179 = select i1 %174, i64 %177, i64 %178
  %180 = icmp ult i64 %179, %27
  %181 = select i1 %180, i64 %179, i64 %27
  %182 = icmp eq i64 %181, 0
  br i1 %182, label %194, label %183

183:                                              ; preds = %169
  %184 = getelementptr inbounds %"class.base::FilePath", %"class.base::FilePath"* %4, i64 0, i32 0, i32 0, i32 0, i32 0, i32 0, i32 0, i32 0
  %185 = load i8*, i8** %184, align 8
  %186 = bitcast %"class.base::FilePath"* %4 to i8*
  %187 = select i1 %23, i8* %185, i8* %186
  %188 = bitcast %"class.std::__1::__tree_end_node"* %170 to i8**
  %189 = load i8*, i8** %188, align 8
  %190 = bitcast %"class.std::__1::__tree_end_node"* %170 to i8*
  %191 = select i1 %174, i8* %189, i8* %190
  %192 = tail call i32 @memcmp(i8* %187, i8* %191, i64 %181) #10
  %193 = icmp eq i32 %192, 0
  br i1 %193, label %194, label %196

194:                                              ; preds = %183, %169
  %195 = icmp ult i64 %27, %179
  br i1 %195, label %198, label %203

196:                                              ; preds = %183
  %197 = icmp slt i32 %192, 0
  br i1 %197, label %198, label %203

198:                                              ; preds = %194, %166, %196
  br i1 %141, label %199, label %201

199:                                              ; preds = %198
  %200 = bitcast %"class.std::__1::__tree_end_node"** %2 to i64*
  store i64 %6, i64* %200, align 8
  br label %208

201:                                              ; preds = %198
  store %"class.std::__1::__tree_end_node"* %167, %"class.std::__1::__tree_end_node"** %2, align 8
  %202 = getelementptr inbounds %"class.std::__1::__tree_end_node", %"class.std::__1::__tree_end_node"* %167, i64 0, i32 0
  br label %208

203:                                              ; preds = %194, %196
  %204 = tail call dereferenceable(8) %"class.std::__1::__tree_node_base"** @_ZNSt3__16__treeIN4base8FilePathENS_4lessIS2_EENS_9allocatorIS2_EEE12__find_equalIS2_EERPNS_16__tree_node_baseIPvEERPNS_15__tree_end_nodeISC_EERKT_(%"class.std::__1::__tree"* %0, %"class.std::__1::__tree_end_node"** dereferenceable(8) %2, %"class.base::FilePath"* dereferenceable(24) %4)
  br label %208

205:                                              ; preds = %135, %136
  %206 = bitcast %"class.std::__1::__tree_end_node"** %2 to i64*
  store i64 %6, i64* %206, align 8
  %207 = bitcast %"class.std::__1::__tree_node_base"** %3 to i64*
  store i64 %6, i64* %207, align 8
  br label %208

208:                                              ; preds = %199, %201, %203, %112, %114, %118, %205
  %209 = phi %"class.std::__1::__tree_node_base"** [ %3, %205 ], [ %113, %112 ], [ %117, %114 ], [ %119, %118 ], [ %139, %199 ], [ %202, %201 ], [ %204, %203 ]
  ret %"class.std::__1::__tree_node_base"** %209
}

; Function Attrs: nounwind ssp uwtable
define linkonce_odr hidden dereferenceable(8) %"class.std::__1::__tree_node_base"** @_ZNSt3__16__treeIN4base8FilePathENS_4lessIS2_EENS_9allocatorIS2_EEE12__find_equalIS2_EERPNS_16__tree_node_baseIPvEERPNS_15__tree_end_nodeISC_EERKT_(%"class.std::__1::__tree"*, %"class.std::__1::__tree_end_node"** dereferenceable(8), %"class.base::FilePath"* dereferenceable(24)) local_unnamed_addr #0 comdat align 2 {
  %4 = getelementptr inbounds %"class.std::__1::__tree", %"class.std::__1::__tree"* %0, i64 0, i32 1, i32 0, i32 0
  %5 = bitcast %"class.std::__1::__tree_end_node"* %4 to %"class.std::__1::__tree_node"**
  %6 = load %"class.std::__1::__tree_node"*, %"class.std::__1::__tree_node"** %5, align 8
  %7 = icmp eq %"class.std::__1::__tree_node"* %6, null
  br i1 %7, label %79, label %8

8:                                                ; preds = %3
  %9 = getelementptr inbounds %"class.std::__1::__tree", %"class.std::__1::__tree"* %0, i64 0, i32 1, i32 0, i32 0, i32 0
  %10 = bitcast %"class.base::FilePath"* %2 to %"struct.std::__1::basic_string<char, std::__1::char_traits<char>, std::__1::allocator<char> >::__short"*
  %11 = getelementptr inbounds %"struct.std::__1::basic_string<char, std::__1::char_traits<char>, std::__1::allocator<char> >::__short", %"struct.std::__1::basic_string<char, std::__1::char_traits<char>, std::__1::allocator<char> >::__short"* %10, i64 0, i32 1, i32 0
  %12 = load i8, i8* %11, align 1
  %13 = icmp slt i8 %12, 0
  %14 = getelementptr inbounds %"class.base::FilePath", %"class.base::FilePath"* %2, i64 0, i32 0, i32 0, i32 0, i32 0, i32 0, i32 0, i32 1
  %15 = load i64, i64* %14, align 8
  %16 = zext i8 %12 to i64
  %17 = select i1 %13, i64 %15, i64 %16
  %18 = getelementptr inbounds %"class.base::FilePath", %"class.base::FilePath"* %2, i64 0, i32 0, i32 0, i32 0, i32 0, i32 0, i32 0, i32 0
  %19 = load i8*, i8** %18, align 8
  %20 = bitcast %"class.base::FilePath"* %2 to i8*
  %21 = select i1 %13, i8* %19, i8* %20
  br label %22

22:                                               ; preds = %8, %75
  %23 = phi %"class.std::__1::__tree_node"* [ %78, %75 ], [ %6, %8 ]
  %24 = phi %"class.std::__1::__tree_node_base"** [ %77, %75 ], [ %9, %8 ]
  %25 = getelementptr inbounds %"class.std::__1::__tree_node", %"class.std::__1::__tree_node"* %23, i64 0, i32 1
  %26 = bitcast %"class.base::FilePath"* %25 to %"struct.std::__1::basic_string<char, std::__1::char_traits<char>, std::__1::allocator<char> >::__short"*
  %27 = getelementptr inbounds %"struct.std::__1::basic_string<char, std::__1::char_traits<char>, std::__1::allocator<char> >::__short", %"struct.std::__1::basic_string<char, std::__1::char_traits<char>, std::__1::allocator<char> >::__short"* %26, i64 0, i32 1, i32 0
  %28 = load i8, i8* %27, align 1
  %29 = icmp slt i8 %28, 0
  %30 = getelementptr inbounds %"class.std::__1::__tree_node", %"class.std::__1::__tree_node"* %23, i64 0, i32 1, i32 0, i32 0, i32 0, i32 0, i32 0, i32 0, i32 1
  %31 = load i64, i64* %30, align 8
  %32 = zext i8 %28 to i64
  %33 = select i1 %29, i64 %31, i64 %32
  %34 = icmp ult i64 %33, %17
  %35 = select i1 %34, i64 %33, i64 %17
  %36 = icmp eq i64 %35, 0
  br i1 %36, label %44, label %37

37:                                               ; preds = %22
  %38 = getelementptr inbounds %"class.base::FilePath", %"class.base::FilePath"* %25, i64 0, i32 0, i32 0, i32 0, i32 0, i32 0, i32 0, i32 0
  %39 = load i8*, i8** %38, align 8
  %40 = bitcast %"class.base::FilePath"* %25 to i8*
  %41 = select i1 %29, i8* %39, i8* %40
  %42 = tail call i32 @memcmp(i8* %21, i8* %41, i64 %35) #10
  %43 = icmp eq i32 %42, 0
  br i1 %43, label %44, label %46

44:                                               ; preds = %37, %22
  %45 = icmp ult i64 %17, %33
  br i1 %45, label %48, label %54

46:                                               ; preds = %37
  %47 = icmp slt i32 %42, 0
  br i1 %47, label %48, label %60

48:                                               ; preds = %44, %46
  %49 = getelementptr inbounds %"class.std::__1::__tree_node", %"class.std::__1::__tree_node"* %23, i64 0, i32 0, i32 0, i32 0
  %50 = load %"class.std::__1::__tree_node_base"*, %"class.std::__1::__tree_node_base"** %49, align 8
  %51 = icmp eq %"class.std::__1::__tree_node_base"* %50, null
  br i1 %51, label %52, label %75

52:                                               ; preds = %48
  %53 = getelementptr inbounds %"class.std::__1::__tree_node", %"class.std::__1::__tree_node"* %23, i64 0, i32 0, i32 0
  store %"class.std::__1::__tree_end_node"* %53, %"class.std::__1::__tree_end_node"** %1, align 8
  br label %81

54:                                               ; preds = %44
  br i1 %36, label %64, label %55

55:                                               ; preds = %54
  %56 = getelementptr inbounds %"class.base::FilePath", %"class.base::FilePath"* %25, i64 0, i32 0, i32 0, i32 0, i32 0, i32 0, i32 0, i32 0
  %57 = load i8*, i8** %56, align 8
  %58 = bitcast %"class.base::FilePath"* %25 to i8*
  %59 = select i1 %29, i8* %57, i8* %58
  br label %60

60:                                               ; preds = %55, %46
  %61 = phi i8* [ %59, %55 ], [ %41, %46 ]
  %62 = tail call i32 @memcmp(i8* %61, i8* %21, i64 %35) #10
  %63 = icmp eq i32 %62, 0
  br i1 %63, label %64, label %65

64:                                               ; preds = %60, %54
  br i1 %34, label %67, label %73

65:                                               ; preds = %60
  %66 = icmp slt i32 %62, 0
  br i1 %66, label %67, label %73

67:                                               ; preds = %64, %65
  %68 = getelementptr inbounds %"class.std::__1::__tree_node", %"class.std::__1::__tree_node"* %23, i64 0, i32 0, i32 1
  %69 = load %"class.std::__1::__tree_node_base"*, %"class.std::__1::__tree_node_base"** %68, align 8
  %70 = icmp eq %"class.std::__1::__tree_node_base"* %69, null
  br i1 %70, label %71, label %75

71:                                               ; preds = %67
  %72 = getelementptr inbounds %"class.std::__1::__tree_node", %"class.std::__1::__tree_node"* %23, i64 0, i32 0, i32 0
  store %"class.std::__1::__tree_end_node"* %72, %"class.std::__1::__tree_end_node"** %1, align 8
  br label %81

73:                                               ; preds = %64, %65
  %74 = getelementptr inbounds %"class.std::__1::__tree_node", %"class.std::__1::__tree_node"* %23, i64 0, i32 0, i32 0
  store %"class.std::__1::__tree_end_node"* %74, %"class.std::__1::__tree_end_node"** %1, align 8
  br label %81

75:                                               ; preds = %67, %48
  %76 = phi %"class.std::__1::__tree_node_base"* [ %50, %48 ], [ %69, %67 ]
  %77 = phi %"class.std::__1::__tree_node_base"** [ %49, %48 ], [ %68, %67 ]
  %78 = bitcast %"class.std::__1::__tree_node_base"* %76 to %"class.std::__1::__tree_node"*
  br label %22

79:                                               ; preds = %3
  store %"class.std::__1::__tree_end_node"* %4, %"class.std::__1::__tree_end_node"** %1, align 8
  %80 = getelementptr inbounds %"class.std::__1::__tree_end_node", %"class.std::__1::__tree_end_node"* %4, i64 0, i32 0
  br label %81

81:                                               ; preds = %79, %73, %71, %52
  %82 = phi %"class.std::__1::__tree_node_base"** [ %49, %52 ], [ %68, %71 ], [ %24, %73 ], [ %80, %79 ]
  ret %"class.std::__1::__tree_node_base"** %82
}

; Function Attrs: nofree nounwind readonly
declare i32 @memcmp(i8* nocapture, i8* nocapture, i64) local_unnamed_addr #8

; Function Attrs: nounwind ssp uwtable
define linkonce_odr hidden void @_ZNSt3__127__tree_balance_after_insertIPNS_16__tree_node_baseIPvEEEEvT_S5_(%"class.std::__1::__tree_node_base"*, %"class.std::__1::__tree_node_base"*) local_unnamed_addr #0 comdat {
  %3 = icmp eq %"class.std::__1::__tree_node_base"* %1, %0
  %4 = getelementptr inbounds %"class.std::__1::__tree_node_base", %"class.std::__1::__tree_node_base"* %1, i64 0, i32 3
  %5 = zext i1 %3 to i8
  store i8 %5, i8* %4, align 8
  br i1 %3, label %156, label %6

6:                                                ; preds = %2, %149
  %7 = phi %"class.std::__1::__tree_node_base"* [ %20, %149 ], [ %1, %2 ]
  %8 = getelementptr inbounds %"class.std::__1::__tree_node_base", %"class.std::__1::__tree_node_base"* %7, i64 0, i32 2
  %9 = bitcast %"class.std::__1::__tree_end_node"** %8 to %"class.std::__1::__tree_node_base"**
  %10 = load %"class.std::__1::__tree_node_base"*, %"class.std::__1::__tree_node_base"** %9, align 8
  %11 = getelementptr inbounds %"class.std::__1::__tree_node_base", %"class.std::__1::__tree_node_base"* %10, i64 0, i32 3
  %12 = load i8, i8* %11, align 8, !range !18
  %13 = icmp eq i8 %12, 0
  br i1 %13, label %14, label %156

14:                                               ; preds = %6
  %15 = getelementptr inbounds %"class.std::__1::__tree_node_base", %"class.std::__1::__tree_node_base"* %10, i64 0, i32 2
  %16 = load %"class.std::__1::__tree_end_node"*, %"class.std::__1::__tree_end_node"** %15, align 8
  %17 = getelementptr inbounds %"class.std::__1::__tree_end_node", %"class.std::__1::__tree_end_node"* %16, i64 0, i32 0
  %18 = load %"class.std::__1::__tree_node_base"*, %"class.std::__1::__tree_node_base"** %17, align 8
  %19 = icmp eq %"class.std::__1::__tree_node_base"* %18, %10
  %20 = bitcast %"class.std::__1::__tree_end_node"* %16 to %"class.std::__1::__tree_node_base"*
  br i1 %19, label %21, label %87

21:                                               ; preds = %14
  %22 = getelementptr inbounds %"class.std::__1::__tree_end_node", %"class.std::__1::__tree_end_node"* %16, i64 1, i32 0
  %23 = load %"class.std::__1::__tree_node_base"*, %"class.std::__1::__tree_node_base"** %22, align 8
  %24 = icmp eq %"class.std::__1::__tree_node_base"* %23, null
  br i1 %24, label %29, label %25

25:                                               ; preds = %21
  %26 = getelementptr inbounds %"class.std::__1::__tree_node_base", %"class.std::__1::__tree_node_base"* %23, i64 0, i32 3
  %27 = load i8, i8* %26, align 8, !range !18
  %28 = icmp eq i8 %27, 0
  br i1 %28, label %149, label %29

29:                                               ; preds = %25, %21
  %30 = getelementptr inbounds %"class.std::__1::__tree_node_base", %"class.std::__1::__tree_node_base"* %10, i64 0, i32 2
  %31 = bitcast %"class.std::__1::__tree_end_node"* %16 to %"class.std::__1::__tree_node_base"*
  %32 = getelementptr inbounds %"class.std::__1::__tree_node_base", %"class.std::__1::__tree_node_base"* %10, i64 0, i32 0, i32 0
  %33 = load %"class.std::__1::__tree_node_base"*, %"class.std::__1::__tree_node_base"** %32, align 8
  %34 = icmp eq %"class.std::__1::__tree_node_base"* %33, %7
  br i1 %34, label %61, label %35

35:                                               ; preds = %29
  %36 = ptrtoint %"class.std::__1::__tree_end_node"* %16 to i64
  %37 = getelementptr inbounds %"class.std::__1::__tree_node_base", %"class.std::__1::__tree_node_base"* %10, i64 0, i32 1
  %38 = load %"class.std::__1::__tree_node_base"*, %"class.std::__1::__tree_node_base"** %37, align 8
  %39 = getelementptr inbounds %"class.std::__1::__tree_node_base", %"class.std::__1::__tree_node_base"* %38, i64 0, i32 0, i32 0
  %40 = load %"class.std::__1::__tree_node_base"*, %"class.std::__1::__tree_node_base"** %39, align 8
  store %"class.std::__1::__tree_node_base"* %40, %"class.std::__1::__tree_node_base"** %37, align 8
  %41 = icmp eq %"class.std::__1::__tree_node_base"* %40, null
  br i1 %41, label %47, label %42

42:                                               ; preds = %35
  %43 = getelementptr inbounds %"class.std::__1::__tree_node_base", %"class.std::__1::__tree_node_base"* %10, i64 0, i32 0
  %44 = getelementptr inbounds %"class.std::__1::__tree_node_base", %"class.std::__1::__tree_node_base"* %40, i64 0, i32 2
  store %"class.std::__1::__tree_end_node"* %43, %"class.std::__1::__tree_end_node"** %44, align 8
  %45 = bitcast %"class.std::__1::__tree_end_node"** %30 to i64*
  %46 = load i64, i64* %45, align 8
  br label %47

47:                                               ; preds = %35, %42
  %48 = phi i64 [ %46, %42 ], [ %36, %35 ]
  %49 = getelementptr inbounds %"class.std::__1::__tree_node_base", %"class.std::__1::__tree_node_base"* %38, i64 0, i32 2
  %50 = bitcast %"class.std::__1::__tree_end_node"** %49 to i64*
  store i64 %48, i64* %50, align 8
  %51 = load %"class.std::__1::__tree_end_node"*, %"class.std::__1::__tree_end_node"** %30, align 8
  %52 = getelementptr inbounds %"class.std::__1::__tree_end_node", %"class.std::__1::__tree_end_node"* %51, i64 0, i32 0
  %53 = load %"class.std::__1::__tree_node_base"*, %"class.std::__1::__tree_node_base"** %52, align 8
  %54 = icmp eq %"class.std::__1::__tree_node_base"* %53, %10
  %55 = getelementptr inbounds %"class.std::__1::__tree_end_node", %"class.std::__1::__tree_end_node"* %51, i64 1, i32 0
  %56 = select i1 %54, %"class.std::__1::__tree_node_base"** %52, %"class.std::__1::__tree_node_base"** %55
  store %"class.std::__1::__tree_node_base"* %38, %"class.std::__1::__tree_node_base"** %56, align 8
  store %"class.std::__1::__tree_node_base"* %10, %"class.std::__1::__tree_node_base"** %39, align 8
  %57 = getelementptr inbounds %"class.std::__1::__tree_node_base", %"class.std::__1::__tree_node_base"* %38, i64 0, i32 0
  store %"class.std::__1::__tree_end_node"* %57, %"class.std::__1::__tree_end_node"** %30, align 8
  %58 = getelementptr inbounds %"class.std::__1::__tree_node_base", %"class.std::__1::__tree_node_base"* %38, i64 0, i32 2
  %59 = bitcast %"class.std::__1::__tree_end_node"** %58 to %"class.std::__1::__tree_node_base"**
  %60 = load %"class.std::__1::__tree_node_base"*, %"class.std::__1::__tree_node_base"** %59, align 8
  br label %61

61:                                               ; preds = %47, %29
  %62 = phi %"class.std::__1::__tree_node_base"* [ %31, %29 ], [ %60, %47 ]
  %63 = phi %"class.std::__1::__tree_node_base"* [ %10, %29 ], [ %38, %47 ]
  %64 = getelementptr inbounds %"class.std::__1::__tree_node_base", %"class.std::__1::__tree_node_base"* %63, i64 0, i32 3
  store i8 1, i8* %64, align 8
  %65 = getelementptr inbounds %"class.std::__1::__tree_node_base", %"class.std::__1::__tree_node_base"* %62, i64 0, i32 3
  store i8 0, i8* %65, align 8
  %66 = getelementptr inbounds %"class.std::__1::__tree_node_base", %"class.std::__1::__tree_node_base"* %62, i64 0, i32 0, i32 0
  %67 = load %"class.std::__1::__tree_node_base"*, %"class.std::__1::__tree_node_base"** %66, align 8
  %68 = getelementptr inbounds %"class.std::__1::__tree_node_base", %"class.std::__1::__tree_node_base"* %67, i64 0, i32 1
  %69 = load %"class.std::__1::__tree_node_base"*, %"class.std::__1::__tree_node_base"** %68, align 8
  store %"class.std::__1::__tree_node_base"* %69, %"class.std::__1::__tree_node_base"** %66, align 8
  %70 = icmp eq %"class.std::__1::__tree_node_base"* %69, null
  br i1 %70, label %74, label %71

71:                                               ; preds = %61
  %72 = getelementptr inbounds %"class.std::__1::__tree_node_base", %"class.std::__1::__tree_node_base"* %62, i64 0, i32 0
  %73 = getelementptr inbounds %"class.std::__1::__tree_node_base", %"class.std::__1::__tree_node_base"* %69, i64 0, i32 2
  store %"class.std::__1::__tree_end_node"* %72, %"class.std::__1::__tree_end_node"** %73, align 8
  br label %74

74:                                               ; preds = %71, %61
  %75 = getelementptr inbounds %"class.std::__1::__tree_node_base", %"class.std::__1::__tree_node_base"* %62, i64 0, i32 2
  %76 = bitcast %"class.std::__1::__tree_end_node"** %75 to i64*
  %77 = load i64, i64* %76, align 8
  %78 = getelementptr inbounds %"class.std::__1::__tree_node_base", %"class.std::__1::__tree_node_base"* %67, i64 0, i32 2
  %79 = bitcast %"class.std::__1::__tree_end_node"** %78 to i64*
  store i64 %77, i64* %79, align 8
  %80 = load %"class.std::__1::__tree_end_node"*, %"class.std::__1::__tree_end_node"** %75, align 8
  %81 = getelementptr inbounds %"class.std::__1::__tree_end_node", %"class.std::__1::__tree_end_node"* %80, i64 0, i32 0
  %82 = load %"class.std::__1::__tree_node_base"*, %"class.std::__1::__tree_node_base"** %81, align 8
  %83 = icmp eq %"class.std::__1::__tree_node_base"* %82, %62
  %84 = getelementptr inbounds %"class.std::__1::__tree_end_node", %"class.std::__1::__tree_end_node"* %80, i64 1, i32 0
  %85 = select i1 %83, %"class.std::__1::__tree_node_base"** %81, %"class.std::__1::__tree_node_base"** %84
  store %"class.std::__1::__tree_node_base"* %67, %"class.std::__1::__tree_node_base"** %85, align 8
  store %"class.std::__1::__tree_node_base"* %62, %"class.std::__1::__tree_node_base"** %68, align 8
  %86 = getelementptr inbounds %"class.std::__1::__tree_node_base", %"class.std::__1::__tree_node_base"* %67, i64 0, i32 0
  store %"class.std::__1::__tree_end_node"* %86, %"class.std::__1::__tree_end_node"** %75, align 8
  br label %156

87:                                               ; preds = %14
  %88 = icmp eq %"class.std::__1::__tree_node_base"* %18, null
  br i1 %88, label %93, label %89

89:                                               ; preds = %87
  %90 = getelementptr inbounds %"class.std::__1::__tree_node_base", %"class.std::__1::__tree_node_base"* %18, i64 0, i32 3
  %91 = load i8, i8* %90, align 8, !range !18
  %92 = icmp eq i8 %91, 0
  br i1 %92, label %149, label %93

93:                                               ; preds = %89, %87
  %94 = getelementptr inbounds %"class.std::__1::__tree_node_base", %"class.std::__1::__tree_node_base"* %10, i64 0, i32 2
  %95 = bitcast %"class.std::__1::__tree_end_node"* %16 to %"class.std::__1::__tree_node_base"*
  %96 = getelementptr inbounds %"class.std::__1::__tree_node_base", %"class.std::__1::__tree_node_base"* %10, i64 0, i32 0, i32 0
  %97 = load %"class.std::__1::__tree_node_base"*, %"class.std::__1::__tree_node_base"** %96, align 8
  %98 = icmp eq %"class.std::__1::__tree_node_base"* %97, %7
  br i1 %98, label %99, label %123

99:                                               ; preds = %93
  %100 = ptrtoint %"class.std::__1::__tree_end_node"* %16 to i64
  %101 = getelementptr inbounds %"class.std::__1::__tree_node_base", %"class.std::__1::__tree_node_base"* %10, i64 0, i32 0, i32 0
  %102 = getelementptr inbounds %"class.std::__1::__tree_node_base", %"class.std::__1::__tree_node_base"* %7, i64 0, i32 1
  %103 = load %"class.std::__1::__tree_node_base"*, %"class.std::__1::__tree_node_base"** %102, align 8
  store %"class.std::__1::__tree_node_base"* %103, %"class.std::__1::__tree_node_base"** %101, align 8
  %104 = icmp eq %"class.std::__1::__tree_node_base"* %103, null
  br i1 %104, label %110, label %105

105:                                              ; preds = %99
  %106 = getelementptr inbounds %"class.std::__1::__tree_node_base", %"class.std::__1::__tree_node_base"* %10, i64 0, i32 0
  %107 = getelementptr inbounds %"class.std::__1::__tree_node_base", %"class.std::__1::__tree_node_base"* %103, i64 0, i32 2
  store %"class.std::__1::__tree_end_node"* %106, %"class.std::__1::__tree_end_node"** %107, align 8
  %108 = bitcast %"class.std::__1::__tree_end_node"** %94 to i64*
  %109 = load i64, i64* %108, align 8
  br label %110

110:                                              ; preds = %99, %105
  %111 = phi i64 [ %109, %105 ], [ %100, %99 ]
  %112 = bitcast %"class.std::__1::__tree_end_node"** %8 to i64*
  store i64 %111, i64* %112, align 8
  %113 = load %"class.std::__1::__tree_end_node"*, %"class.std::__1::__tree_end_node"** %94, align 8
  %114 = getelementptr inbounds %"class.std::__1::__tree_end_node", %"class.std::__1::__tree_end_node"* %113, i64 0, i32 0
  %115 = load %"class.std::__1::__tree_node_base"*, %"class.std::__1::__tree_node_base"** %114, align 8
  %116 = icmp eq %"class.std::__1::__tree_node_base"* %115, %10
  %117 = getelementptr inbounds %"class.std::__1::__tree_end_node", %"class.std::__1::__tree_end_node"* %113, i64 1, i32 0
  %118 = select i1 %116, %"class.std::__1::__tree_node_base"** %114, %"class.std::__1::__tree_node_base"** %117
  store %"class.std::__1::__tree_node_base"* %7, %"class.std::__1::__tree_node_base"** %118, align 8
  store %"class.std::__1::__tree_node_base"* %10, %"class.std::__1::__tree_node_base"** %102, align 8
  %119 = getelementptr inbounds %"class.std::__1::__tree_node_base", %"class.std::__1::__tree_node_base"* %7, i64 0, i32 0
  store %"class.std::__1::__tree_end_node"* %119, %"class.std::__1::__tree_end_node"** %94, align 8
  %120 = getelementptr inbounds %"class.std::__1::__tree_node_base", %"class.std::__1::__tree_node_base"* %7, i64 0, i32 2
  %121 = bitcast %"class.std::__1::__tree_end_node"** %120 to %"class.std::__1::__tree_node_base"**
  %122 = load %"class.std::__1::__tree_node_base"*, %"class.std::__1::__tree_node_base"** %121, align 8
  br label %123

123:                                              ; preds = %93, %110
  %124 = phi %"class.std::__1::__tree_node_base"* [ %122, %110 ], [ %95, %93 ]
  %125 = phi %"class.std::__1::__tree_node_base"* [ %7, %110 ], [ %10, %93 ]
  %126 = getelementptr inbounds %"class.std::__1::__tree_node_base", %"class.std::__1::__tree_node_base"* %125, i64 0, i32 3
  store i8 1, i8* %126, align 8
  %127 = getelementptr inbounds %"class.std::__1::__tree_node_base", %"class.std::__1::__tree_node_base"* %124, i64 0, i32 3
  store i8 0, i8* %127, align 8
  %128 = getelementptr inbounds %"class.std::__1::__tree_node_base", %"class.std::__1::__tree_node_base"* %124, i64 0, i32 1
  %129 = load %"class.std::__1::__tree_node_base"*, %"class.std::__1::__tree_node_base"** %128, align 8
  %130 = getelementptr inbounds %"class.std::__1::__tree_node_base", %"class.std::__1::__tree_node_base"* %129, i64 0, i32 0, i32 0
  %131 = load %"class.std::__1::__tree_node_base"*, %"class.std::__1::__tree_node_base"** %130, align 8
  store %"class.std::__1::__tree_node_base"* %131, %"class.std::__1::__tree_node_base"** %128, align 8
  %132 = icmp eq %"class.std::__1::__tree_node_base"* %131, null
  br i1 %132, label %136, label %133

133:                                              ; preds = %123
  %134 = getelementptr inbounds %"class.std::__1::__tree_node_base", %"class.std::__1::__tree_node_base"* %124, i64 0, i32 0
  %135 = getelementptr inbounds %"class.std::__1::__tree_node_base", %"class.std::__1::__tree_node_base"* %131, i64 0, i32 2
  store %"class.std::__1::__tree_end_node"* %134, %"class.std::__1::__tree_end_node"** %135, align 8
  br label %136

136:                                              ; preds = %133, %123
  %137 = getelementptr inbounds %"class.std::__1::__tree_node_base", %"class.std::__1::__tree_node_base"* %124, i64 0, i32 2
  %138 = bitcast %"class.std::__1::__tree_end_node"** %137 to i64*
  %139 = load i64, i64* %138, align 8
  %140 = getelementptr inbounds %"class.std::__1::__tree_node_base", %"class.std::__1::__tree_node_base"* %129, i64 0, i32 2
  %141 = bitcast %"class.std::__1::__tree_end_node"** %140 to i64*
  store i64 %139, i64* %141, align 8
  %142 = load %"class.std::__1::__tree_end_node"*, %"class.std::__1::__tree_end_node"** %137, align 8
  %143 = getelementptr inbounds %"class.std::__1::__tree_end_node", %"class.std::__1::__tree_end_node"* %142, i64 0, i32 0
  %144 = load %"class.std::__1::__tree_node_base"*, %"class.std::__1::__tree_node_base"** %143, align 8
  %145 = icmp eq %"class.std::__1::__tree_node_base"* %144, %124
  %146 = getelementptr inbounds %"class.std::__1::__tree_end_node", %"class.std::__1::__tree_end_node"* %142, i64 1, i32 0
  %147 = select i1 %145, %"class.std::__1::__tree_node_base"** %143, %"class.std::__1::__tree_node_base"** %146
  store %"class.std::__1::__tree_node_base"* %129, %"class.std::__1::__tree_node_base"** %147, align 8
  store %"class.std::__1::__tree_node_base"* %124, %"class.std::__1::__tree_node_base"** %130, align 8
  %148 = getelementptr inbounds %"class.std::__1::__tree_node_base", %"class.std::__1::__tree_node_base"* %129, i64 0, i32 0
  store %"class.std::__1::__tree_end_node"* %148, %"class.std::__1::__tree_end_node"** %137, align 8
  br label %156

149:                                              ; preds = %89, %25
  %150 = phi i8* [ %26, %25 ], [ %90, %89 ]
  store i8 1, i8* %11, align 8
  %151 = icmp eq %"class.std::__1::__tree_node_base"* %20, %0
  %152 = getelementptr inbounds %"class.std::__1::__tree_end_node", %"class.std::__1::__tree_end_node"* %16, i64 3
  %153 = bitcast %"class.std::__1::__tree_end_node"* %152 to i8*
  %154 = zext i1 %151 to i8
  store i8 %154, i8* %153, align 8
  store i8 1, i8* %150, align 8
  %155 = icmp eq %"class.std::__1::__tree_node_base"* %20, %0
  br i1 %155, label %156, label %6

156:                                              ; preds = %6, %149, %2, %136, %74
  ret void
}

; Function Attrs: nounwind ssp uwtable
define linkonce_odr hidden void @_ZNSt3__16__treeIN4base8FilePathENS_4lessIS2_EENS_9allocatorIS2_EEE7destroyEPNS_11__tree_nodeIS2_PvEE(%"class.std::__1::__tree"*, %"class.std::__1::__tree_node"*) local_unnamed_addr #0 comdat align 2 {
  %3 = icmp eq %"class.std::__1::__tree_node"* %1, null
  br i1 %3, label %12, label %4

4:                                                ; preds = %2
  %5 = bitcast %"class.std::__1::__tree_node"* %1 to %"class.std::__1::__tree_node"**
  %6 = load %"class.std::__1::__tree_node"*, %"class.std::__1::__tree_node"** %5, align 8
  tail call void @_ZNSt3__16__treeIN4base8FilePathENS_4lessIS2_EENS_9allocatorIS2_EEE7destroyEPNS_11__tree_nodeIS2_PvEE(%"class.std::__1::__tree"* %0, %"class.std::__1::__tree_node"* %6) #10
  %7 = getelementptr inbounds %"class.std::__1::__tree_node", %"class.std::__1::__tree_node"* %1, i64 0, i32 0, i32 1
  %8 = bitcast %"class.std::__1::__tree_node_base"** %7 to %"class.std::__1::__tree_node"**
  %9 = load %"class.std::__1::__tree_node"*, %"class.std::__1::__tree_node"** %8, align 8
  tail call void @_ZNSt3__16__treeIN4base8FilePathENS_4lessIS2_EENS_9allocatorIS2_EEE7destroyEPNS_11__tree_nodeIS2_PvEE(%"class.std::__1::__tree"* %0, %"class.std::__1::__tree_node"* %9) #10
  %10 = getelementptr inbounds %"class.std::__1::__tree_node", %"class.std::__1::__tree_node"* %1, i64 0, i32 1
  tail call void @_ZN4base8FilePathD1Ev(%"class.base::FilePath"* %10) #10
  %11 = bitcast %"class.std::__1::__tree_node"* %1 to i8*
  tail call void @_ZdlPv(i8* %11) #9
  ret void

12:                                               ; preds = %2
  ret void
}

declare void @_ZN4base16TaskRunnerTraits8DestructEPKNS_10TaskRunnerE(%"class.base::TaskRunner"*) local_unnamed_addr #3

declare void @_ZNK4base8internal18WeakReferenceOwner6GetRefEv(%"class.base::internal::WeakReference"* sret, %"class.base::internal::WeakReferenceOwner"*) local_unnamed_addr #3

; Function Attrs: nounwind
declare void @_ZN4base8internal13WeakReferenceD1Ev(%"class.base::internal::WeakReference"*) unnamed_addr #2

declare void @_ZN4base8internal11WeakPtrBaseC2ERKNS0_13WeakReferenceEm(%"class.base::internal::WeakPtrBase"*, %"class.base::internal::WeakReference"* dereferenceable(8), i64) unnamed_addr #3

; Function Attrs: nounwind ssp uwtable
define linkonce_odr hidden void @_ZN4base8internal7InvokerINS0_9BindStateIMN10extensions14ImageSanitizerEFvvEJNS_7WeakPtrIS4_EEEEEFvvEE7RunOnceEPNS0_13BindStateBaseE(%"class.base::internal::BindStateBase"*) #0 comdat align 2 {
  %2 = alloca %"class.logging::CheckError", align 8
  %3 = getelementptr inbounds %"class.base::internal::BindStateBase", %"class.base::internal::BindStateBase"* %0, i64 1
  %4 = getelementptr inbounds %"class.base::internal::BindStateBase", %"class.base::internal::BindStateBase"* %0, i64 1, i32 2
  %5 = bitcast void (%"class.base::internal::BindStateBase"*)** %4 to %"class.base::internal::WeakReference"*
  %6 = tail call zeroext i1 @_ZNK4base8internal13WeakReference7IsValidEv(%"class.base::internal::WeakReference"* %5) #10
  br i1 %6, label %7, label %42

7:                                                ; preds = %1
  %8 = getelementptr inbounds void (%"class.base::internal::BindStateBase"*)*, void (%"class.base::internal::BindStateBase"*)** %4, i64 1
  %9 = bitcast void (%"class.base::internal::BindStateBase"*)** %8 to %"class.extensions::ImageSanitizer"**
  %10 = load %"class.extensions::ImageSanitizer"*, %"class.extensions::ImageSanitizer"** %9, align 8
  %11 = icmp eq %"class.extensions::ImageSanitizer"* %10, null
  br i1 %11, label %42, label %12

12:                                               ; preds = %7
  %13 = bitcast %"class.base::internal::BindStateBase"* %3 to i64*
  %14 = load i64, i64* %13, align 8
  %15 = getelementptr inbounds %"class.base::internal::BindStateBase", %"class.base::internal::BindStateBase"* %0, i64 1, i32 1
  %16 = bitcast void ()** %15 to i64*
  %17 = load i64, i64* %16, align 8
  %18 = tail call zeroext i1 @_ZNK4base8internal13WeakReference7IsValidEv(%"class.base::internal::WeakReference"* %5) #10
  br i1 %18, label %22, label %19

19:                                               ; preds = %12
  %20 = bitcast %"class.logging::CheckError"* %2 to i8*
  call void @llvm.lifetime.start.p0i8(i64 8, i8* nonnull %20) #10
  call void @_ZN7logging10CheckError5CheckEPKciS2_(%"class.logging::CheckError"* nonnull sret %2, i8* getelementptr inbounds ([29 x i8], [29 x i8]* @.str.5, i64 0, i64 0), i32 251, i8* getelementptr inbounds ([15 x i8], [15 x i8]* @.str.6, i64 0, i64 0)) #10
  %21 = call dereferenceable(160) %"class.std::__1::basic_ostream"* @_ZN7logging10CheckError6streamEv(%"class.logging::CheckError"* nonnull %2) #10
  call void @_ZN7logging10CheckErrorD1Ev(%"class.logging::CheckError"* nonnull %2) #10
  call void @llvm.lifetime.end.p0i8(i64 8, i8* nonnull %20) #10
  br label %22

22:                                               ; preds = %19, %12
  %23 = call zeroext i1 @_ZNK4base8internal13WeakReference7IsValidEv(%"class.base::internal::WeakReference"* %5) #10
  %24 = bitcast void (%"class.base::internal::BindStateBase"*)** %8 to i8**
  %25 = load i8*, i8** %24, align 8
  %26 = select i1 %23, i8* %25, i8* null
  %27 = getelementptr inbounds i8, i8* %26, i64 %17
  %28 = bitcast i8* %27 to %"class.extensions::ImageSanitizer"*
  %29 = and i64 %14, 1
  %30 = icmp eq i64 %29, 0
  br i1 %30, label %38, label %31

31:                                               ; preds = %22
  %32 = bitcast i8* %27 to i8**
  %33 = load i8*, i8** %32, align 8
  %34 = add i64 %14, -1
  %35 = getelementptr i8, i8* %33, i64 %34
  %36 = bitcast i8* %35 to void (%"class.extensions::ImageSanitizer"*)**
  %37 = load void (%"class.extensions::ImageSanitizer"*)*, void (%"class.extensions::ImageSanitizer"*)** %36, align 8
  br label %40

38:                                               ; preds = %22
  %39 = inttoptr i64 %14 to void (%"class.extensions::ImageSanitizer"*)*
  br label %40

40:                                               ; preds = %38, %31
  %41 = phi void (%"class.extensions::ImageSanitizer"*)* [ %37, %31 ], [ %39, %38 ]
  call void %41(%"class.extensions::ImageSanitizer"* %28) #10
  br label %42

42:                                               ; preds = %1, %7, %40
  ret void
}

declare zeroext i1 @_ZNK4base8internal13WeakReference7IsValidEv(%"class.base::internal::WeakReference"*) local_unnamed_addr #3

declare void @_ZN7logging10CheckError5CheckEPKciS2_(%"class.logging::CheckError"* sret, i8*, i32, i8*) local_unnamed_addr #3

declare dereferenceable(160) %"class.std::__1::basic_ostream"* @_ZN7logging10CheckError6streamEv(%"class.logging::CheckError"*) local_unnamed_addr #3

; Function Attrs: nounwind
declare void @_ZN7logging10CheckErrorD1Ev(%"class.logging::CheckError"*) unnamed_addr #2

; Function Attrs: nounwind ssp uwtable
define linkonce_odr hidden void @_ZN4base8internal9BindStateIMN10extensions14ImageSanitizerEFvvEJNS_7WeakPtrIS3_EEEE7DestroyEPKNS0_13BindStateBaseE(%"class.base::internal::BindStateBase"*) #0 comdat align 2 {
  %2 = icmp eq %"class.base::internal::BindStateBase"* %0, null
  br i1 %2, label %7, label %3

3:                                                ; preds = %1
  %4 = getelementptr inbounds %"class.base::internal::BindStateBase", %"class.base::internal::BindStateBase"* %0, i64 1, i32 2
  %5 = bitcast void (%"class.base::internal::BindStateBase"*)** %4 to %"class.base::internal::WeakPtrBase"*
  tail call void @_ZN4base8internal11WeakPtrBaseD2Ev(%"class.base::internal::WeakPtrBase"* %5) #10
  %6 = bitcast %"class.base::internal::BindStateBase"* %0 to i8*
  tail call void @_ZdlPv(i8* %6) #9
  br label %7

7:                                                ; preds = %3, %1
  ret void
}

; Function Attrs: nounwind ssp uwtable
define linkonce_odr hidden zeroext i1 @_ZN4base8internal23QueryCancellationTraitsINS0_9BindStateIMN10extensions14ImageSanitizerEFvvEJNS_7WeakPtrIS4_EEEEEEEbPKNS0_13BindStateBaseENSA_21CancellationQueryModeE(%"class.base::internal::BindStateBase"*, i32) #0 comdat {
  %3 = getelementptr inbounds %"class.base::internal::BindStateBase", %"class.base::internal::BindStateBase"* %0, i64 1, i32 2
  switch i32 %1, label %16 [
    i32 0, label %4
    i32 1, label %13
  ]

4:                                                ; preds = %2
  %5 = bitcast void (%"class.base::internal::BindStateBase"*)** %3 to %"class.base::internal::WeakReference"*
  %6 = tail call zeroext i1 @_ZNK4base8internal13WeakReference7IsValidEv(%"class.base::internal::WeakReference"* %5) #10
  %7 = getelementptr inbounds void (%"class.base::internal::BindStateBase"*)*, void (%"class.base::internal::BindStateBase"*)** %3, i64 1
  %8 = bitcast void (%"class.base::internal::BindStateBase"*)** %7 to %"class.extensions::ImageSanitizer"**
  %9 = load %"class.extensions::ImageSanitizer"*, %"class.extensions::ImageSanitizer"** %8, align 8
  %10 = icmp ne %"class.extensions::ImageSanitizer"* %9, null
  %11 = and i1 %6, %10
  %12 = xor i1 %11, true
  br label %16

13:                                               ; preds = %2
  %14 = bitcast void (%"class.base::internal::BindStateBase"*)** %3 to %"class.base::internal::WeakReference"*
  %15 = tail call zeroext i1 @_ZNK4base8internal13WeakReference10MaybeValidEv(%"class.base::internal::WeakReference"* %14) #10
  br label %16

16:                                               ; preds = %2, %4, %13
  %17 = phi i1 [ %15, %13 ], [ %12, %4 ], [ false, %2 ]
  ret i1 %17
}

declare void @_ZN4base8internal13BindStateBaseC2EPFvvEPFvPKS1_EPFbS5_NS1_21CancellationQueryModeEE(%"class.base::internal::BindStateBase"*, void ()*, void (%"class.base::internal::BindStateBase"*)*, i1 (%"class.base::internal::BindStateBase"*, i32)*) unnamed_addr #3

declare zeroext i1 @_ZNK4base8internal13WeakReference10MaybeValidEv(%"class.base::internal::WeakReference"*) local_unnamed_addr #3

; Function Attrs: nounwind
declare void @_ZN4base8internal13WeakReferenceC1EOS1_(%"class.base::internal::WeakReference"*, %"class.base::internal::WeakReference"* dereferenceable(8)) unnamed_addr #2

; Function Attrs: nounwind ssp uwtable
define linkonce_odr hidden void @_ZN4mojo6RemoteIN12data_decoder5mojom12ImageDecoderEE26BindNewPipeAndPassReceiverE13scoped_refptrIN4base19SequencedTaskRunnerEE(%"class.mojo::PendingReceiver"* noalias sret, %"class.mojo::Remote"*, %"class.base::SequencedTaskRunner"*) local_unnamed_addr #0 comdat align 2 {
  %4 = alloca %"class.mojo::ScopedHandleBase", align 4
  %5 = alloca %"class.mojo::ScopedHandleBase", align 4
  %6 = alloca %"class.mojo::MessagePipeHandle", align 4
  %7 = alloca %"class.mojo::MessagePipeHandle", align 4
  %8 = alloca %"class.mojo::PendingRemote", align 4
  %9 = bitcast %"class.mojo::MessagePipeHandle"* %6 to i8*
  call void @llvm.lifetime.start.p0i8(i64 4, i8* nonnull %9) #10
  %10 = getelementptr inbounds %"class.mojo::MessagePipeHandle", %"class.mojo::MessagePipeHandle"* %6, i64 0, i32 0, i32 0
  store i32 0, i32* %10, align 4
  %11 = bitcast %"class.mojo::MessagePipeHandle"* %7 to i8*
  call void @llvm.lifetime.start.p0i8(i64 4, i8* nonnull %11) #10
  %12 = getelementptr inbounds %"class.mojo::MessagePipeHandle", %"class.mojo::MessagePipeHandle"* %7, i64 0, i32 0, i32 0
  store i32 0, i32* %12, align 4
  %13 = call i32 @MojoCreateMessagePipe(%struct.MojoCreateMessagePipeOptions* null, i32* nonnull %10, i32* nonnull %12) #10
  %14 = load i32, i32* %10, align 4
  %15 = load i32, i32* %12, align 4
  call void @llvm.lifetime.end.p0i8(i64 4, i8* nonnull %11) #10
  call void @llvm.lifetime.end.p0i8(i64 4, i8* nonnull %9) #10
  %16 = bitcast %"class.mojo::ScopedHandleBase"* %5 to i8*
  call void @llvm.lifetime.start.p0i8(i64 4, i8* nonnull %16)
  %17 = getelementptr inbounds %"class.mojo::PendingRemote", %"class.mojo::PendingRemote"* %8, i64 0, i32 0
  %18 = getelementptr inbounds %"class.mojo::ScopedHandleBase", %"class.mojo::ScopedHandleBase"* %5, i64 0, i32 0, i32 0, i32 0
  store i32 %14, i32* %18, align 4, !alias.scope !114
  call void @_ZN4mojo8internal18PendingRemoteStateC1ENS_16ScopedHandleBaseINS_17MessagePipeHandleEEEj(%"struct.mojo::internal::PendingRemoteState"* nonnull %17, %"class.mojo::ScopedHandleBase"* nonnull %5, i32 0) #10
  %19 = load i32, i32* %18, align 4
  %20 = icmp eq i32 %19, 0
  br i1 %20, label %23, label %21

21:                                               ; preds = %3
  %22 = call i32 @MojoClose(i32 %19) #10
  br label %23

23:                                               ; preds = %21, %3
  call void @llvm.lifetime.end.p0i8(i64 4, i8* nonnull %16)
  call void @_ZN4mojo6RemoteIN12data_decoder5mojom12ImageDecoderEE4BindENS_13PendingRemoteIS3_EE13scoped_refptrIN4base19SequencedTaskRunnerEE(%"class.mojo::Remote"* %1, %"class.mojo::PendingRemote"* nonnull %8, %"class.base::SequencedTaskRunner"* %2)
  call void @_ZN4mojo8internal18PendingRemoteStateD1Ev(%"struct.mojo::internal::PendingRemoteState"* nonnull %17) #10
  %24 = bitcast %"class.mojo::ScopedHandleBase"* %4 to i8*
  call void @llvm.lifetime.start.p0i8(i64 4, i8* nonnull %24)
  %25 = getelementptr inbounds %"class.mojo::PendingReceiver", %"class.mojo::PendingReceiver"* %0, i64 0, i32 0
  %26 = getelementptr inbounds %"class.mojo::ScopedHandleBase", %"class.mojo::ScopedHandleBase"* %4, i64 0, i32 0, i32 0, i32 0
  store i32 %15, i32* %26, align 4, !alias.scope !117
  call void @_ZN4mojo8internal20PendingReceiverStateC1ENS_16ScopedHandleBaseINS_17MessagePipeHandleEEE(%"struct.mojo::internal::PendingReceiverState"* %25, %"class.mojo::ScopedHandleBase"* nonnull %4) #10
  %27 = load i32, i32* %26, align 4
  %28 = icmp eq i32 %27, 0
  br i1 %28, label %31, label %29

29:                                               ; preds = %23
  %30 = call i32 @MojoClose(i32 %27) #10
  br label %31

31:                                               ; preds = %23, %29
  call void @llvm.lifetime.end.p0i8(i64 4, i8* nonnull %24)
  ret void
}

; Function Attrs: nounwind ssp uwtable
define linkonce_odr hidden void @_ZN4mojo6RemoteIN12data_decoder5mojom12ImageDecoderEE4BindENS_13PendingRemoteIS3_EE13scoped_refptrIN4base19SequencedTaskRunnerEE(%"class.mojo::Remote"*, %"class.mojo::PendingRemote"*, %"class.base::SequencedTaskRunner"*) local_unnamed_addr #0 comdat align 2 {
  %4 = alloca %"class.mojo::internal::InterfacePtrState", align 8
  %5 = getelementptr inbounds %"class.mojo::PendingRemote", %"class.mojo::PendingRemote"* %1, i64 0, i32 0, i32 0, i32 0, i32 0, i32 0
  %6 = load i32, i32* %5, align 4
  %7 = icmp eq i32 %6, 0
  br i1 %7, label %8, label %25

8:                                                ; preds = %3
  %9 = bitcast %"class.mojo::internal::InterfacePtrState"* %4 to i8*
  call void @llvm.lifetime.start.p0i8(i64 48, i8* nonnull %9) #10
  call void @llvm.memset.p0i8.i64(i8* nonnull align 8 %9, i8 -86, i64 48, i1 false) #10
  %10 = bitcast %"class.mojo::internal::InterfacePtrState"* %4 to %"class.mojo::internal::InterfacePtrStateBase"*
  call void @_ZN4mojo8internal21InterfacePtrStateBaseC2Ev(%"class.mojo::internal::InterfacePtrStateBase"* nonnull %10) #10
  %11 = getelementptr inbounds %"class.mojo::internal::InterfacePtrState", %"class.mojo::internal::InterfacePtrState"* %4, i64 0, i32 1
  %12 = bitcast %"class.std::__1::unique_ptr.176"* %11 to i64*
  %13 = getelementptr inbounds %"class.mojo::Remote", %"class.mojo::Remote"* %0, i64 0, i32 0, i32 1
  %14 = bitcast %"class.std::__1::unique_ptr.176"* %13 to i64*
  %15 = load i64, i64* %14, align 8
  store i64 %15, i64* %12, align 8
  store i64 0, i64* %14, align 8
  %16 = bitcast %"class.mojo::Remote"* %0 to %"class.mojo::internal::InterfacePtrStateBase"*
  call void @_ZN4mojo8internal21InterfacePtrStateBase4SwapEPS1_(%"class.mojo::internal::InterfacePtrStateBase"* %16, %"class.mojo::internal::InterfacePtrStateBase"* nonnull %10) #10
  %17 = getelementptr inbounds %"class.mojo::internal::InterfacePtrState", %"class.mojo::internal::InterfacePtrState"* %4, i64 0, i32 1, i32 0, i32 0, i32 0
  %18 = load %"class.data_decoder::mojom::ImageDecoderProxy"*, %"class.data_decoder::mojom::ImageDecoderProxy"** %17, align 8
  store %"class.data_decoder::mojom::ImageDecoderProxy"* null, %"class.data_decoder::mojom::ImageDecoderProxy"** %17, align 8
  %19 = icmp eq %"class.data_decoder::mojom::ImageDecoderProxy"* %18, null
  br i1 %19, label %52, label %20

20:                                               ; preds = %8
  %21 = bitcast %"class.data_decoder::mojom::ImageDecoderProxy"* %18 to void (%"class.data_decoder::mojom::ImageDecoderProxy"*)***
  %22 = load void (%"class.data_decoder::mojom::ImageDecoderProxy"*)**, void (%"class.data_decoder::mojom::ImageDecoderProxy"*)*** %21, align 8
  %23 = getelementptr inbounds void (%"class.data_decoder::mojom::ImageDecoderProxy"*)*, void (%"class.data_decoder::mojom::ImageDecoderProxy"*)** %22, i64 1
  %24 = load void (%"class.data_decoder::mojom::ImageDecoderProxy"*)*, void (%"class.data_decoder::mojom::ImageDecoderProxy"*)** %23, align 8
  call void %24(%"class.data_decoder::mojom::ImageDecoderProxy"* nonnull %18) #10
  br label %52

25:                                               ; preds = %3
  %26 = getelementptr inbounds %"class.mojo::PendingRemote", %"class.mojo::PendingRemote"* %1, i64 0, i32 0
  %27 = bitcast %"class.mojo::Remote"* %0 to %"class.mojo::internal::InterfacePtrStateBase"*
  tail call void @_ZN4mojo8internal21InterfacePtrStateBase4BindEPNS0_18PendingRemoteStateE13scoped_refptrIN4base19SequencedTaskRunnerEE(%"class.mojo::internal::InterfacePtrStateBase"* %27, %"struct.mojo::internal::PendingRemoteState"* %26, %"class.base::SequencedTaskRunner"* %2) #10
  %28 = getelementptr inbounds %"class.mojo::Remote", %"class.mojo::Remote"* %0, i64 0, i32 0, i32 1
  %29 = getelementptr inbounds %"class.std::__1::unique_ptr.176", %"class.std::__1::unique_ptr.176"* %28, i64 0, i32 0, i32 0, i32 0
  %30 = load %"class.data_decoder::mojom::ImageDecoderProxy"*, %"class.data_decoder::mojom::ImageDecoderProxy"** %29, align 8
  %31 = icmp eq %"class.data_decoder::mojom::ImageDecoderProxy"* %30, null
  br i1 %31, label %32, label %62

32:                                               ; preds = %25
  %33 = tail call i8* @_Znwm(i64 8) #9
  %34 = bitcast i8* %33 to i32 (...)***
  store i32 (...)** bitcast (i8** getelementptr inbounds ({ [6 x i8*] }, { [6 x i8*] }* @_ZTVN12data_decoder5mojom29ImageDecoderResponseValidatorE, i64 0, inrange i32 0, i64 2) to i32 (...)**), i32 (...)*** %34, align 8
  %35 = bitcast i8* %33 to %"class.mojo::MessageReceiver"*
  %36 = tail call zeroext i1 @_ZN4mojo8internal21InterfacePtrStateBase24InitializeEndpointClientEbbbNSt3__110unique_ptrINS_15MessageReceiverENS2_14default_deleteIS4_EEEEPKc(%"class.mojo::internal::InterfacePtrStateBase"* %27, i1 zeroext false, i1 zeroext false, i1 zeroext false, %"class.mojo::MessageReceiver"* nonnull %35, i8* getelementptr inbounds ([0 x i8], [0 x i8]* @_ZN12data_decoder5mojom12ImageDecoder5Name_E, i64 0, i64 0)) #10
  br i1 %36, label %37, label %62

37:                                               ; preds = %32
  %38 = getelementptr inbounds %"class.mojo::Remote", %"class.mojo::Remote"* %0, i64 0, i32 0, i32 0, i32 1, i32 0, i32 0, i32 0
  %39 = bitcast %"class.mojo::InterfaceEndpointClient"** %38 to %"class.mojo::MessageReceiverWithResponder"**
  %40 = load %"class.mojo::MessageReceiverWithResponder"*, %"class.mojo::MessageReceiverWithResponder"** %39, align 8
  %41 = tail call i8* @_Znwm(i64 16) #9
  %42 = bitcast i8* %41 to %"class.data_decoder::mojom::ImageDecoderProxy"*
  tail call void @_ZN12data_decoder5mojom17ImageDecoderProxyC1EPN4mojo28MessageReceiverWithResponderE(%"class.data_decoder::mojom::ImageDecoderProxy"* nonnull %42, %"class.mojo::MessageReceiverWithResponder"* %40) #10
  %43 = ptrtoint i8* %41 to i64
  %44 = load %"class.data_decoder::mojom::ImageDecoderProxy"*, %"class.data_decoder::mojom::ImageDecoderProxy"** %29, align 8
  %45 = bitcast %"class.std::__1::unique_ptr.176"* %28 to i64*
  store i64 %43, i64* %45, align 8
  %46 = icmp eq %"class.data_decoder::mojom::ImageDecoderProxy"* %44, null
  br i1 %46, label %62, label %47

47:                                               ; preds = %37
  %48 = bitcast %"class.data_decoder::mojom::ImageDecoderProxy"* %44 to void (%"class.data_decoder::mojom::ImageDecoderProxy"*)***
  %49 = load void (%"class.data_decoder::mojom::ImageDecoderProxy"*)**, void (%"class.data_decoder::mojom::ImageDecoderProxy"*)*** %48, align 8
  %50 = getelementptr inbounds void (%"class.data_decoder::mojom::ImageDecoderProxy"*)*, void (%"class.data_decoder::mojom::ImageDecoderProxy"*)** %49, i64 1
  %51 = load void (%"class.data_decoder::mojom::ImageDecoderProxy"*)*, void (%"class.data_decoder::mojom::ImageDecoderProxy"*)** %50, align 8
  tail call void %51(%"class.data_decoder::mojom::ImageDecoderProxy"* nonnull %44) #10
  br label %62

52:                                               ; preds = %20, %8
  call void @_ZN4mojo8internal21InterfacePtrStateBaseD2Ev(%"class.mojo::internal::InterfacePtrStateBase"* nonnull %10) #10
  call void @llvm.lifetime.end.p0i8(i64 48, i8* nonnull %9) #10
  %53 = icmp eq %"class.base::SequencedTaskRunner"* %2, null
  br i1 %53, label %62, label %54

54:                                               ; preds = %52
  %55 = getelementptr inbounds %"class.base::SequencedTaskRunner", %"class.base::SequencedTaskRunner"* %2, i64 0, i32 0, i32 1
