; ModuleID = '../../components/image_fetcher/core/image_fetcher_service.cc'
source_filename = "../../components/image_fetcher/core/image_fetcher_service.cc"
target datalayout = "e-m:e-i64:64-f80:128-n8:16:32:64-S128"
target triple = "x86_64-unknown-linux-gnu"

module asm ".symver exp, exp@GLIBC_2.2.5"
module asm ".symver exp2, exp2@GLIBC_2.2.5"
module asm ".symver exp2f, exp2f@GLIBC_2.2.5"
module asm ".symver expf, expf@GLIBC_2.2.5"
module asm ".symver lgamma, lgamma@GLIBC_2.2.5"
module asm ".symver lgammaf, lgammaf@GLIBC_2.2.5"
module asm ".symver lgammal, lgammal@GLIBC_2.2.5"
module asm ".symver log, log@GLIBC_2.2.5"
module asm ".symver log2, log2@GLIBC_2.2.5"
module asm ".symver log2f, log2f@GLIBC_2.2.5"
module asm ".symver logf, logf@GLIBC_2.2.5"
module asm ".symver pow, pow@GLIBC_2.2.5"
module asm ".symver powf, powf@GLIBC_2.2.5"

%"class.image_fetcher::ImageFetcherService" = type { %class.KeyedService, %class.scoped_refptr, %"class.std::__1::unique_ptr.21", %"class.std::__1::unique_ptr.21", %"class.std::__1::unique_ptr.21" }
%class.KeyedService = type { i32 (...)** }
%class.scoped_refptr = type { %"class.image_fetcher::ImageCache"* }
%"class.std::__1::unique_ptr.21" = type { %"class.std::__1::__compressed_pair.22" }
%"class.std::__1::__compressed_pair.22" = type { %"struct.std::__1::__compressed_pair_elem.23" }
%"struct.std::__1::__compressed_pair_elem.23" = type { %"class.image_fetcher::ImageFetcher"* }
%"class.image_fetcher::ImageFetcher" = type { i32 (...)** }
%"class.image_fetcher::ImageDecoder" = type { i32 (...)** }
%"class.network::SharedURLLoaderFactory" = type <{ %"class.network::mojom::URLLoaderFactory", %"class.base::RefCounted.34", [4 x i8] }>
%"class.network::mojom::URLLoaderFactory" = type { i32 (...)** }
%"class.base::RefCounted.34" = type { %"class.base::subtle::RefCountedBase" }
%"class.base::subtle::RefCountedBase" = type { i32 }
%"class.image_fetcher::ImageCache" = type { %"class.base::RefCounted", i8, %"class.std::__1::vector", %"class.std::__1::unique_ptr", %"class.std::__1::unique_ptr.6", %class.PrefService*, %"class.base::Clock"*, %class.scoped_refptr.12, %"class.base::WeakPtrFactory" }
%"class.base::RefCounted" = type { %"class.base::subtle::RefCountedBase" }
%"class.std::__1::vector" = type { %"class.std::__1::__vector_base" }
%"class.std::__1::__vector_base" = type { %"class.base::OnceCallback"*, %"class.base::OnceCallback"*, %"class.std::__1::__compressed_pair" }
%"class.base::OnceCallback" = type { %"class.base::internal::CallbackBase" }
%"class.base::internal::CallbackBase" = type { %class.scoped_refptr.0 }
%class.scoped_refptr.0 = type { %"class.base::internal::BindStateBase"* }
%"class.base::internal::BindStateBase" = type { %"class.base::RefCountedThreadSafe", void ()*, void (%"class.base::internal::BindStateBase"*)*, i1 (%"class.base::internal::BindStateBase"*, i32)* }
%"class.base::RefCountedThreadSafe" = type { %"class.base::subtle::RefCountedThreadSafeBase" }
%"class.base::subtle::RefCountedThreadSafeBase" = type { %"class.base::AtomicRefCount" }
%"class.base::AtomicRefCount" = type { %"struct.std::__1::atomic" }
%"struct.std::__1::atomic" = type { %"struct.std::__1::__atomic_base" }
%"struct.std::__1::__atomic_base" = type { %"struct.std::__1::__atomic_base.1" }
%"struct.std::__1::__atomic_base.1" = type { %"struct.std::__1::__cxx_atomic_impl" }
%"struct.std::__1::__cxx_atomic_impl" = type { %"struct.std::__1::__cxx_atomic_base_impl" }
%"struct.std::__1::__cxx_atomic_base_impl" = type { i32 }
%"class.std::__1::__compressed_pair" = type { %"struct.std::__1::__compressed_pair_elem" }
%"struct.std::__1::__compressed_pair_elem" = type { %"class.base::OnceCallback"* }
%"class.std::__1::unique_ptr" = type { %"class.std::__1::__compressed_pair.3" }
%"class.std::__1::__compressed_pair.3" = type { %"struct.std::__1::__compressed_pair_elem.4" }
%"struct.std::__1::__compressed_pair_elem.4" = type { %"class.image_fetcher::ImageDataStore"* }
%"class.image_fetcher::ImageDataStore" = type opaque
%"class.std::__1::unique_ptr.6" = type { %"class.std::__1::__compressed_pair.7" }
%"class.std::__1::__compressed_pair.7" = type { %"struct.std::__1::__compressed_pair_elem.8" }
%"struct.std::__1::__compressed_pair_elem.8" = type { %"class.image_fetcher::ImageMetadataStore"* }
%"class.image_fetcher::ImageMetadataStore" = type opaque
%class.PrefService = type opaque
%"class.base::Clock" = type { i32 (...)** }
%class.scoped_refptr.12 = type { %"class.base::SequencedTaskRunner"* }
%"class.base::SequencedTaskRunner" = type { %"class.base::TaskRunner.base", [4 x i8] }
%"class.base::TaskRunner.base" = type <{ i32 (...)**, %"class.base::RefCountedThreadSafe.13" }>
%"class.base::RefCountedThreadSafe.13" = type { %"class.base::subtle::RefCountedThreadSafeBase" }
%"class.base::WeakPtrFactory" = type { %"class.base::internal::WeakPtrFactoryBase" }
%"class.base::internal::WeakPtrFactoryBase" = type { %"class.base::internal::WeakReferenceOwner", i64 }
%"class.base::internal::WeakReferenceOwner" = type { %class.scoped_refptr.14 }
%class.scoped_refptr.14 = type { %"class.base::internal::WeakReference::Flag"* }
%"class.base::internal::WeakReference::Flag" = type <{ %"class.base::RefCountedThreadSafe.15", %"class.base::AtomicFlag", [3 x i8] }>
%"class.base::RefCountedThreadSafe.15" = type { %"class.base::subtle::RefCountedThreadSafeBase" }
%"class.base::AtomicFlag" = type { %"struct.std::__1::atomic.16" }
%"struct.std::__1::atomic.16" = type { %"struct.std::__1::__atomic_base.17" }
%"struct.std::__1::__atomic_base.17" = type { %"struct.std::__1::__atomic_base.18" }
%"struct.std::__1::__atomic_base.18" = type { %"struct.std::__1::__cxx_atomic_impl.19" }
%"struct.std::__1::__cxx_atomic_impl.19" = type { %"struct.std::__1::__cxx_atomic_base_impl.20" }
%"struct.std::__1::__cxx_atomic_base_impl.20" = type { i8 }
%"class.image_fetcher::ImageFetcherImpl" = type { %"class.image_fetcher::ImageFetcher", %class.scoped_refptr.33, %"class.std::__1::unique_ptr.27", %"class.std::__1::unique_ptr.38", %"class.std::__1::map.52", %"class.base::WeakPtrFactory.63" }
%class.scoped_refptr.33 = type { %"class.network::SharedURLLoaderFactory"* }
%"class.std::__1::unique_ptr.27" = type { %"class.std::__1::__compressed_pair.28" }
%"class.std::__1::__compressed_pair.28" = type { %"struct.std::__1::__compressed_pair_elem.29" }
%"struct.std::__1::__compressed_pair_elem.29" = type { %"class.image_fetcher::ImageDecoder"* }
%"class.std::__1::unique_ptr.38" = type { %"class.std::__1::__compressed_pair.39" }
%"class.std::__1::__compressed_pair.39" = type { %"struct.std::__1::__compressed_pair_elem.40" }
%"struct.std::__1::__compressed_pair_elem.40" = type { %"class.image_fetcher::ImageDataFetcher"* }
%"class.image_fetcher::ImageDataFetcher" = type { %"class.std::__1::map", %class.scoped_refptr.33, %"class.absl::optional" }
%"class.std::__1::map" = type { %"class.std::__1::__tree" }
%"class.std::__1::__tree" = type { %"class.std::__1::__tree_end_node"*, %"class.std::__1::__compressed_pair.41", %"class.std::__1::__compressed_pair.46" }
%"class.std::__1::__tree_end_node" = type { %"class.std::__1::__tree_node_base"* }
%"class.std::__1::__tree_node_base" = type <{ %"class.std::__1::__tree_end_node", %"class.std::__1::__tree_node_base"*, %"class.std::__1::__tree_end_node"*, i8, [7 x i8] }>
%"class.std::__1::__compressed_pair.41" = type { %"struct.std::__1::__compressed_pair_elem.42" }
%"struct.std::__1::__compressed_pair_elem.42" = type { %"class.std::__1::__tree_end_node" }
%"class.std::__1::__compressed_pair.46" = type { %"struct.std::__1::__compressed_pair_elem.47" }
%"struct.std::__1::__compressed_pair_elem.47" = type { i64 }
%"class.absl::optional" = type { %"class.absl::optional_internal::optional_data" }
%"class.absl::optional_internal::optional_data" = type { %"class.absl::optional_internal::optional_data_base" }
%"class.absl::optional_internal::optional_data_base" = type { %"class.absl::optional_internal::optional_data_dtor_base" }
%"class.absl::optional_internal::optional_data_dtor_base" = type { i8, %union.anon }
%union.anon = type { i64 }
%"class.std::__1::map.52" = type { %"class.std::__1::__tree.53" }
%"class.std::__1::__tree.53" = type { %"class.std::__1::__tree_end_node"*, %"class.std::__1::__compressed_pair.54", %"class.std::__1::__compressed_pair.58" }
%"class.std::__1::__compressed_pair.54" = type { %"struct.std::__1::__compressed_pair_elem.42" }
%"class.std::__1::__compressed_pair.58" = type { %"struct.std::__1::__compressed_pair_elem.47" }
%"class.base::WeakPtrFactory.63" = type { %"class.base::internal::WeakPtrFactoryBase" }
%"class.image_fetcher::CachedImageFetcher" = type { %"class.image_fetcher::ImageFetcher", %"class.image_fetcher::ImageFetcher"*, %class.scoped_refptr, i8, %"class.base::WeakPtrFactory.70" }
%"class.base::WeakPtrFactory.70" = type { %"class.base::internal::WeakPtrFactoryBase" }
%"class.image_fetcher::ReducedModeImageFetcher" = type { %"class.image_fetcher::ImageFetcher", %"class.image_fetcher::ImageFetcher"* }

@_ZTVN13image_fetcher19ImageFetcherServiceE = hidden unnamed_addr constant { [5 x i8*] } { [5 x i8*] [i8* null, i8* null, i8* bitcast (void (%"class.image_fetcher::ImageFetcherService"*)* @_ZN13image_fetcher19ImageFetcherServiceD2Ev to i8*), i8* bitcast (void (%"class.image_fetcher::ImageFetcherService"*)* @_ZN13image_fetcher19ImageFetcherServiceD0Ev to i8*), i8* bitcast (void (%class.KeyedService*)* @_ZN12KeyedService8ShutdownEv to i8*)] }, align 8

@_ZN13image_fetcher19ImageFetcherServiceC1ENSt3__110unique_ptrINS_12ImageDecoderENS1_14default_deleteIS3_EEEE13scoped_refptrIN7network22SharedURLLoaderFactoryEES7_INS_10ImageCacheEEb = hidden unnamed_addr alias void (%"class.image_fetcher::ImageFetcherService"*, %"class.image_fetcher::ImageDecoder"*, %"class.network::SharedURLLoaderFactory"*, %"class.image_fetcher::ImageCache"*, i1), void (%"class.image_fetcher::ImageFetcherService"*, %"class.image_fetcher::ImageDecoder"*, %"class.network::SharedURLLoaderFactory"*, %"class.image_fetcher::ImageCache"*, i1)* @_ZN13image_fetcher19ImageFetcherServiceC2ENSt3__110unique_ptrINS_12ImageDecoderENS1_14default_deleteIS3_EEEE13scoped_refptrIN7network22SharedURLLoaderFactoryEES7_INS_10ImageCacheEEb
@_ZN13image_fetcher19ImageFetcherServiceD1Ev = hidden unnamed_addr alias void (%"class.image_fetcher::ImageFetcherService"*), void (%"class.image_fetcher::ImageFetcherService"*)* @_ZN13image_fetcher19ImageFetcherServiceD2Ev

; Function Attrs: nounwind ssp uwtable
define hidden void @_ZN13image_fetcher19ImageFetcherServiceC2ENSt3__110unique_ptrINS_12ImageDecoderENS1_14default_deleteIS3_EEEE13scoped_refptrIN7network22SharedURLLoaderFactoryEES7_INS_10ImageCacheEEb(%"class.image_fetcher::ImageFetcherService"*, %"class.image_fetcher::ImageDecoder"*, %"class.network::SharedURLLoaderFactory"*, %"class.image_fetcher::ImageCache"*, i1 zeroext) unnamed_addr #0 align 2 {
  %6 = getelementptr inbounds %"class.image_fetcher::ImageFetcherService", %"class.image_fetcher::ImageFetcherService"* %0, i64 0, i32 0
  tail call void @_ZN12KeyedServiceC2Ev(%class.KeyedService* %6) #6
  %7 = getelementptr inbounds %"class.image_fetcher::ImageFetcherService", %"class.image_fetcher::ImageFetcherService"* %0, i64 0, i32 0, i32 0
  store i32 (...)** bitcast (i8** getelementptr inbounds ({ [5 x i8*] }, { [5 x i8*] }* @_ZTVN13image_fetcher19ImageFetcherServiceE, i64 0, inrange i32 0, i64 2) to i32 (...)**), i32 (...)*** %7, align 8
  %8 = getelementptr inbounds %"class.image_fetcher::ImageFetcherService", %"class.image_fetcher::ImageFetcherService"* %0, i64 0, i32 1, i32 0
  store %"class.image_fetcher::ImageCache"* %3, %"class.image_fetcher::ImageCache"** %8, align 8
  %9 = icmp eq %"class.image_fetcher::ImageCache"* %3, null
  br i1 %9, label %12, label %10

10:                                               ; preds = %5
  %11 = getelementptr inbounds %"class.image_fetcher::ImageCache", %"class.image_fetcher::ImageCache"* %3, i64 0, i32 0, i32 0
  tail call void @_ZNK4base6subtle14RefCountedBase10AddRefImplEv(%"class.base::subtle::RefCountedBase"* %11) #6
  br label %12

12:                                               ; preds = %5, %10
  %13 = getelementptr inbounds %"class.image_fetcher::ImageFetcherService", %"class.image_fetcher::ImageFetcherService"* %0, i64 0, i32 2
  %14 = tail call i8* @_Znwm(i64 72) #7
  %15 = bitcast i8* %14 to %"class.image_fetcher::ImageFetcherImpl"*
  %16 = icmp eq %"class.network::SharedURLLoaderFactory"* %2, null
  br i1 %16, label %19, label %17

17:                                               ; preds = %12
  %18 = getelementptr inbounds %"class.network::SharedURLLoaderFactory", %"class.network::SharedURLLoaderFactory"* %2, i64 0, i32 1, i32 0
  tail call void @_ZNK4base6subtle14RefCountedBase10AddRefImplEv(%"class.base::subtle::RefCountedBase"* %18) #6
  br label %19

19:                                               ; preds = %17, %12
  tail call void @_ZN13image_fetcher16ImageFetcherImplC1ENSt3__110unique_ptrINS_12ImageDecoderENS1_14default_deleteIS3_EEEE13scoped_refptrIN7network22SharedURLLoaderFactoryEE(%"class.image_fetcher::ImageFetcherImpl"* nonnull %15, %"class.image_fetcher::ImageDecoder"* %1, %"class.network::SharedURLLoaderFactory"* %2) #6
  %20 = ptrtoint i8* %14 to i64
  %21 = bitcast %"class.std::__1::unique_ptr.21"* %13 to i64*
  store i64 %20, i64* %21, align 8
  %22 = getelementptr inbounds %"class.image_fetcher::ImageFetcherService", %"class.image_fetcher::ImageFetcherService"* %0, i64 0, i32 3
  %23 = bitcast i8* %14 to %"class.image_fetcher::ImageFetcher"*
  %24 = tail call i8* @_Znwm(i64 48) #7
  %25 = bitcast i8* %24 to %"class.image_fetcher::CachedImageFetcher"*
  br i1 %9, label %28, label %26

26:                                               ; preds = %19
  %27 = getelementptr inbounds %"class.image_fetcher::ImageCache", %"class.image_fetcher::ImageCache"* %3, i64 0, i32 0, i32 0
  tail call void @_ZNK4base6subtle14RefCountedBase10AddRefImplEv(%"class.base::subtle::RefCountedBase"* %27) #6
  br label %28

28:                                               ; preds = %19, %26
  tail call void @_ZN13image_fetcher18CachedImageFetcherC1EPNS_12ImageFetcherE13scoped_refptrINS_10ImageCacheEEb(%"class.image_fetcher::CachedImageFetcher"* nonnull %25, %"class.image_fetcher::ImageFetcher"* nonnull %23, %"class.image_fetcher::ImageCache"* %3, i1 zeroext %4) #6
  %29 = ptrtoint i8* %24 to i64
  %30 = bitcast %"class.std::__1::unique_ptr.21"* %22 to i64*
  store i64 %29, i64* %30, align 8
  %31 = getelementptr inbounds %"class.image_fetcher::ImageFetcherService", %"class.image_fetcher::ImageFetcherService"* %0, i64 0, i32 4
  %32 = bitcast i8* %24 to %"class.image_fetcher::ImageFetcher"*
  %33 = tail call i8* @_Znwm(i64 16) #7
  %34 = bitcast i8* %33 to %"class.image_fetcher::ReducedModeImageFetcher"*
  tail call void @_ZN13image_fetcher23ReducedModeImageFetcherC1EPNS_12ImageFetcherE(%"class.image_fetcher::ReducedModeImageFetcher"* nonnull %34, %"class.image_fetcher::ImageFetcher"* nonnull %32) #6
  %35 = ptrtoint i8* %33 to i64
  %36 = bitcast %"class.std::__1::unique_ptr.21"* %31 to i64*
  store i64 %35, i64* %36, align 8
  br i1 %9, label %44, label %37

37:                                               ; preds = %28
  %38 = getelementptr inbounds %"class.image_fetcher::ImageCache", %"class.image_fetcher::ImageCache"* %3, i64 0, i32 0, i32 0
  tail call void @_ZNK4base6subtle14RefCountedBase11ReleaseImplEv(%"class.base::subtle::RefCountedBase"* %38) #6
  %39 = getelementptr inbounds %"class.image_fetcher::ImageCache", %"class.image_fetcher::ImageCache"* %3, i64 0, i32 0, i32 0, i32 0
  %40 = load i32, i32* %39, align 4
  %41 = icmp eq i32 %40, 0
  br i1 %41, label %42, label %44

42:                                               ; preds = %37
  tail call void @_ZN13image_fetcher10ImageCacheD1Ev(%"class.image_fetcher::ImageCache"* nonnull %3) #6
  %43 = bitcast %"class.image_fetcher::ImageCache"* %3 to i8*
  tail call void @_ZdlPv(i8* %43) #7
  br label %44

44:                                               ; preds = %28, %37, %42
  br i1 %16, label %58, label %45

45:                                               ; preds = %44
  %46 = getelementptr inbounds %"class.network::SharedURLLoaderFactory", %"class.network::SharedURLLoaderFactory"* %2, i64 0, i32 1
  %47 = getelementptr inbounds %"class.base::RefCounted.34", %"class.base::RefCounted.34"* %46, i64 0, i32 0
  tail call void @_ZNK4base6subtle14RefCountedBase11ReleaseImplEv(%"class.base::subtle::RefCountedBase"* %47) #6
  %48 = getelementptr inbounds %"class.base::RefCounted.34", %"class.base::RefCounted.34"* %46, i64 0, i32 0, i32 0
  %49 = load i32, i32* %48, align 4
  %50 = icmp eq i32 %49, 0
  br i1 %50, label %51, label %58

51:                                               ; preds = %45
  %52 = getelementptr inbounds %"class.base::RefCounted.34", %"class.base::RefCounted.34"* %46, i64 -2
  %53 = bitcast %"class.base::RefCounted.34"* %52 to %"class.network::SharedURLLoaderFactory"*
  %54 = bitcast %"class.base::RefCounted.34"* %52 to void (%"class.network::SharedURLLoaderFactory"*)***
  %55 = load void (%"class.network::SharedURLLoaderFactory"*)**, void (%"class.network::SharedURLLoaderFactory"*)*** %54, align 8
  %56 = getelementptr inbounds void (%"class.network::SharedURLLoaderFactory"*)*, void (%"class.network::SharedURLLoaderFactory"*)** %55, i64 1
  %57 = load void (%"class.network::SharedURLLoaderFactory"*)*, void (%"class.network::SharedURLLoaderFactory"*)** %56, align 8
  tail call void %57(%"class.network::SharedURLLoaderFactory"* nonnull %53) #6
  br label %58

58:                                               ; preds = %51, %45, %44
  ret void
}

declare void @_ZN12KeyedServiceC2Ev(%class.KeyedService*) unnamed_addr #1

; Function Attrs: nounwind ssp uwtable
define hidden void @_ZN13image_fetcher19ImageFetcherServiceD2Ev(%"class.image_fetcher::ImageFetcherService"*) unnamed_addr #0 align 2 {
  %2 = getelementptr inbounds %"class.image_fetcher::ImageFetcherService", %"class.image_fetcher::ImageFetcherService"* %0, i64 0, i32 0, i32 0
  store i32 (...)** bitcast (i8** getelementptr inbounds ({ [5 x i8*] }, { [5 x i8*] }* @_ZTVN13image_fetcher19ImageFetcherServiceE, i64 0, inrange i32 0, i64 2) to i32 (...)**), i32 (...)*** %2, align 8
  %3 = getelementptr inbounds %"class.image_fetcher::ImageFetcherService", %"class.image_fetcher::ImageFetcherService"* %0, i64 0, i32 4, i32 0, i32 0, i32 0
  %4 = load %"class.image_fetcher::ImageFetcher"*, %"class.image_fetcher::ImageFetcher"** %3, align 8
  store %"class.image_fetcher::ImageFetcher"* null, %"class.image_fetcher::ImageFetcher"** %3, align 8
  %5 = icmp eq %"class.image_fetcher::ImageFetcher"* %4, null
  br i1 %5, label %11, label %6

6:                                                ; preds = %1
  %7 = bitcast %"class.image_fetcher::ImageFetcher"* %4 to void (%"class.image_fetcher::ImageFetcher"*)***
  %8 = load void (%"class.image_fetcher::ImageFetcher"*)**, void (%"class.image_fetcher::ImageFetcher"*)*** %7, align 8
  %9 = getelementptr inbounds void (%"class.image_fetcher::ImageFetcher"*)*, void (%"class.image_fetcher::ImageFetcher"*)** %8, i64 1
  %10 = load void (%"class.image_fetcher::ImageFetcher"*)*, void (%"class.image_fetcher::ImageFetcher"*)** %9, align 8
  tail call void %10(%"class.image_fetcher::ImageFetcher"* nonnull %4) #6
  br label %11

11:                                               ; preds = %1, %6
  %12 = getelementptr inbounds %"class.image_fetcher::ImageFetcherService", %"class.image_fetcher::ImageFetcherService"* %0, i64 0, i32 3, i32 0, i32 0, i32 0
  %13 = load %"class.image_fetcher::ImageFetcher"*, %"class.image_fetcher::ImageFetcher"** %12, align 8
  store %"class.image_fetcher::ImageFetcher"* null, %"class.image_fetcher::ImageFetcher"** %12, align 8
  %14 = icmp eq %"class.image_fetcher::ImageFetcher"* %13, null
  br i1 %14, label %20, label %15

15:                                               ; preds = %11
  %16 = bitcast %"class.image_fetcher::ImageFetcher"* %13 to void (%"class.image_fetcher::ImageFetcher"*)***
  %17 = load void (%"class.image_fetcher::ImageFetcher"*)**, void (%"class.image_fetcher::ImageFetcher"*)*** %16, align 8
  %18 = getelementptr inbounds void (%"class.image_fetcher::ImageFetcher"*)*, void (%"class.image_fetcher::ImageFetcher"*)** %17, i64 1
  %19 = load void (%"class.image_fetcher::ImageFetcher"*)*, void (%"class.image_fetcher::ImageFetcher"*)** %18, align 8
  tail call void %19(%"class.image_fetcher::ImageFetcher"* nonnull %13) #6
  br label %20

20:                                               ; preds = %11, %15
  %21 = getelementptr inbounds %"class.image_fetcher::ImageFetcherService", %"class.image_fetcher::ImageFetcherService"* %0, i64 0, i32 2, i32 0, i32 0, i32 0
  %22 = load %"class.image_fetcher::ImageFetcher"*, %"class.image_fetcher::ImageFetcher"** %21, align 8
  store %"class.image_fetcher::ImageFetcher"* null, %"class.image_fetcher::ImageFetcher"** %21, align 8
  %23 = icmp eq %"class.image_fetcher::ImageFetcher"* %22, null
  br i1 %23, label %29, label %24

24:                                               ; preds = %20
  %25 = bitcast %"class.image_fetcher::ImageFetcher"* %22 to void (%"class.image_fetcher::ImageFetcher"*)***
  %26 = load void (%"class.image_fetcher::ImageFetcher"*)**, void (%"class.image_fetcher::ImageFetcher"*)*** %25, align 8
  %27 = getelementptr inbounds void (%"class.image_fetcher::ImageFetcher"*)*, void (%"class.image_fetcher::ImageFetcher"*)** %26, i64 1
  %28 = load void (%"class.image_fetcher::ImageFetcher"*)*, void (%"class.image_fetcher::ImageFetcher"*)** %27, align 8
  tail call void %28(%"class.image_fetcher::ImageFetcher"* nonnull %22) #6
  br label %29

29:                                               ; preds = %20, %24
  %30 = getelementptr inbounds %"class.image_fetcher::ImageFetcherService", %"class.image_fetcher::ImageFetcherService"* %0, i64 0, i32 1, i32 0
  %31 = load %"class.image_fetcher::ImageCache"*, %"class.image_fetcher::ImageCache"** %30, align 8
  %32 = icmp eq %"class.image_fetcher::ImageCache"* %31, null
  br i1 %32, label %40, label %33

33:                                               ; preds = %29
  %34 = getelementptr inbounds %"class.image_fetcher::ImageCache", %"class.image_fetcher::ImageCache"* %31, i64 0, i32 0, i32 0
  tail call void @_ZNK4base6subtle14RefCountedBase11ReleaseImplEv(%"class.base::subtle::RefCountedBase"* %34) #6
  %35 = getelementptr inbounds %"class.image_fetcher::ImageCache", %"class.image_fetcher::ImageCache"* %31, i64 0, i32 0, i32 0, i32 0
  %36 = load i32, i32* %35, align 4
  %37 = icmp eq i32 %36, 0
  br i1 %37, label %38, label %40

38:                                               ; preds = %33
  tail call void @_ZN13image_fetcher10ImageCacheD1Ev(%"class.image_fetcher::ImageCache"* nonnull %31) #6
  %39 = bitcast %"class.image_fetcher::ImageCache"* %31 to i8*
  tail call void @_ZdlPv(i8* %39) #7
  br label %40

40:                                               ; preds = %29, %33, %38
  %41 = getelementptr inbounds %"class.image_fetcher::ImageFetcherService", %"class.image_fetcher::ImageFetcherService"* %0, i64 0, i32 0
  tail call void @_ZN12KeyedServiceD2Ev(%class.KeyedService* %41) #6
  ret void
}

; Function Attrs: nounwind
declare void @_ZN12KeyedServiceD2Ev(%class.KeyedService*) unnamed_addr #2

; Function Attrs: nounwind ssp uwtable
define hidden void @_ZN13image_fetcher19ImageFetcherServiceD0Ev(%"class.image_fetcher::ImageFetcherService"*) unnamed_addr #0 align 2 {
  tail call void @_ZN13image_fetcher19ImageFetcherServiceD2Ev(%"class.image_fetcher::ImageFetcherService"* %0) #6
  %2 = bitcast %"class.image_fetcher::ImageFetcherService"* %0 to i8*
  tail call void @_ZdlPv(i8* %2) #7
  ret void
}

; Function Attrs: nobuiltin nounwind
declare void @_ZdlPv(i8*) local_unnamed_addr #3

; Function Attrs: norecurse nounwind readonly ssp uwtable
define hidden %"class.image_fetcher::ImageFetcher"* @_ZN13image_fetcher19ImageFetcherService15GetImageFetcherENS_18ImageFetcherConfigE(%"class.image_fetcher::ImageFetcherService"* nocapture readonly, i32) local_unnamed_addr #4 align 2 {
  switch i32 %1, label %16 [
    i32 0, label %3
    i32 1, label %5
    i32 2, label %7
    i32 3, label %9
    i32 4, label %11
  ]

3:                                                ; preds = %2
  %4 = getelementptr inbounds %"class.image_fetcher::ImageFetcherService", %"class.image_fetcher::ImageFetcherService"* %0, i64 0, i32 2, i32 0, i32 0, i32 0
  br label %13

5:                                                ; preds = %2
  %6 = getelementptr inbounds %"class.image_fetcher::ImageFetcherService", %"class.image_fetcher::ImageFetcherService"* %0, i64 0, i32 3, i32 0, i32 0, i32 0
  br label %13

7:                                                ; preds = %2
  %8 = getelementptr inbounds %"class.image_fetcher::ImageFetcherService", %"class.image_fetcher::ImageFetcherService"* %0, i64 0, i32 2, i32 0, i32 0, i32 0
  br label %13

9:                                                ; preds = %2
  %10 = getelementptr inbounds %"class.image_fetcher::ImageFetcherService", %"class.image_fetcher::ImageFetcherService"* %0, i64 0, i32 3, i32 0, i32 0, i32 0
  br label %13

11:                                               ; preds = %2
  %12 = getelementptr inbounds %"class.image_fetcher::ImageFetcherService", %"class.image_fetcher::ImageFetcherService"* %0, i64 0, i32 4, i32 0, i32 0, i32 0
  br label %13

13:                                               ; preds = %3, %5, %7, %9, %11
  %14 = phi %"class.image_fetcher::ImageFetcher"** [ %12, %11 ], [ %10, %9 ], [ %8, %7 ], [ %6, %5 ], [ %4, %3 ]
  %15 = load %"class.image_fetcher::ImageFetcher"*, %"class.image_fetcher::ImageFetcher"** %14, align 8
  br label %16

16:                                               ; preds = %13, %2
  %17 = phi %"class.image_fetcher::ImageFetcher"* [ null, %2 ], [ %15, %13 ]
  ret %"class.image_fetcher::ImageFetcher"* %17
}

; Function Attrs: nounwind ssp uwtable
define hidden %"class.image_fetcher::ImageCache"* @_ZNK13image_fetcher19ImageFetcherService20ImageCacheForTestingEv(%"class.image_fetcher::ImageFetcherService"* nocapture readonly) local_unnamed_addr #0 align 2 {
  %2 = getelementptr inbounds %"class.image_fetcher::ImageFetcherService", %"class.image_fetcher::ImageFetcherService"* %0, i64 0, i32 1, i32 0
  %3 = load %"class.image_fetcher::ImageCache"*, %"class.image_fetcher::ImageCache"** %2, align 8
  %4 = icmp eq %"class.image_fetcher::ImageCache"* %3, null
  br i1 %4, label %7, label %5

5:                                                ; preds = %1
  %6 = getelementptr inbounds %"class.image_fetcher::ImageCache", %"class.image_fetcher::ImageCache"* %3, i64 0, i32 0, i32 0
  tail call void @_ZNK4base6subtle14RefCountedBase10AddRefImplEv(%"class.base::subtle::RefCountedBase"* %6) #6
  br label %7

7:                                                ; preds = %1, %5
  ret %"class.image_fetcher::ImageCache"* %3
}

declare void @_ZN12KeyedService8ShutdownEv(%class.KeyedService*) unnamed_addr #1

declare void @_ZNK4base6subtle14RefCountedBase11ReleaseImplEv(%"class.base::subtle::RefCountedBase"*) local_unnamed_addr #1

; Function Attrs: nounwind
declare void @_ZN13image_fetcher10ImageCacheD1Ev(%"class.image_fetcher::ImageCache"*) unnamed_addr #2

declare void @_ZNK4base6subtle14RefCountedBase10AddRefImplEv(%"class.base::subtle::RefCountedBase"*) local_unnamed_addr #1

; Function Attrs: nobuiltin nofree
declare noalias nonnull i8* @_Znwm(i64) local_unnamed_addr #5

declare void @_ZN13image_fetcher16ImageFetcherImplC1ENSt3__110unique_ptrINS_12ImageDecoderENS1_14default_deleteIS3_EEEE13scoped_refptrIN7network22SharedURLLoaderFactoryEE(%"class.image_fetcher::ImageFetcherImpl"*, %"class.image_fetcher::ImageDecoder"*, %"class.network::SharedURLLoaderFactory"*) unnamed_addr #1

declare void @_ZN13image_fetcher18CachedImageFetcherC1EPNS_12ImageFetcherE13scoped_refptrINS_10ImageCacheEEb(%"class.image_fetcher::CachedImageFetcher"*, %"class.image_fetcher::ImageFetcher"*, %"class.image_fetcher::ImageCache"*, i1 zeroext) unnamed_addr #1

declare void @_ZN13image_fetcher23ReducedModeImageFetcherC1EPNS_12ImageFetcherE(%"class.image_fetcher::ReducedModeImageFetcher"*, %"class.image_fetcher::ImageFetcher"*) unnamed_addr #1

attributes #0 = { nounwind ssp uwtable "correctly-rounded-divide-sqrt-fp-math"="false" "disable-tail-calls"="false" "less-precise-fpmad"="false" "min-legal-vector-width"="0" "no-frame-pointer-elim"="false" "no-frame-pointer-elim-non-leaf" "no-infs-fp-math"="false" "no-jump-tables"="false" "no-nans-fp-math"="false" "no-signed-zeros-fp-math"="false" "no-trapping-math"="false" "null-pointer-is-valid"="true" "stack-protector-buffer-size"="4" "target-cpu"="x86-64" "target-features"="+cx8,+fxsr,+mmx,+sse,+sse2,+sse3,+x87" "unsafe-fp-math"="false" "use-soft-float"="false" }
attributes #1 = { "correctly-rounded-divide-sqrt-fp-math"="false" "disable-tail-calls"="false" "less-precise-fpmad"="false" "no-frame-pointer-elim"="false" "no-frame-pointer-elim-non-leaf" "no-infs-fp-math"="false" "no-nans-fp-math"="false" "no-signed-zeros-fp-math"="false" "no-trapping-math"="false" "null-pointer-is-valid"="true" "stack-protector-buffer-size"="4" "target-cpu"="x86-64" "target-features"="+cx8,+fxsr,+mmx,+sse,+sse2,+sse3,+x87" "unsafe-fp-math"="false" "use-soft-float"="false" }
attributes #2 = { nounwind "correctly-rounded-divide-sqrt-fp-math"="false" "disable-tail-calls"="false" "less-precise-fpmad"="false" "no-frame-pointer-elim"="false" "no-frame-pointer-elim-non-leaf" "no-infs-fp-math"="false" "no-nans-fp-math"="false" "no-signed-zeros-fp-math"="false" "no-trapping-math"="false" "null-pointer-is-valid"="true" "stack-protector-buffer-size"="4" "target-cpu"="x86-64" "target-features"="+cx8,+fxsr,+mmx,+sse,+sse2,+sse3,+x87" "unsafe-fp-math"="false" "use-soft-float"="false" }
attributes #3 = { nobuiltin nounwind "correctly-rounded-divide-sqrt-fp-math"="false" "disable-tail-calls"="false" "less-precise-fpmad"="false" "no-frame-pointer-elim"="false" "no-frame-pointer-elim-non-leaf" "no-infs-fp-math"="false" "no-nans-fp-math"="false" "no-signed-zeros-fp-math"="false" "no-trapping-math"="false" "null-pointer-is-valid"="true" "stack-protector-buffer-size"="4" "target-cpu"="x86-64" "target-features"="+cx8,+fxsr,+mmx,+sse,+sse2,+sse3,+x87" "unsafe-fp-math"="false" "use-soft-float"="false" }
attributes #4 = { norecurse nounwind readonly ssp uwtable "correctly-rounded-divide-sqrt-fp-math"="false" "disable-tail-calls"="false" "less-precise-fpmad"="false" "min-legal-vector-width"="0" "no-frame-pointer-elim"="false" "no-frame-pointer-elim-non-leaf" "no-infs-fp-math"="false" "no-jump-tables"="false" "no-nans-fp-math"="false" "no-signed-zeros-fp-math"="false" "no-trapping-math"="false" "null-pointer-is-valid"="true" "stack-protector-buffer-size"="4" "target-cpu"="x86-64" "target-features"="+cx8,+fxsr,+mmx,+sse,+sse2,+sse3,+x87" "unsafe-fp-math"="false" "use-soft-float"="false" }
attributes #5 = { nobuiltin nofree "correctly-rounded-divide-sqrt-fp-math"="false" "disable-tail-calls"="false" "less-precise-fpmad"="false" "no-frame-pointer-elim"="false" "no-frame-pointer-elim-non-leaf" "no-infs-fp-math"="false" "no-nans-fp-math"="false" "no-signed-zeros-fp-math"="false" "no-trapping-math"="false" "null-pointer-is-valid"="true" "stack-protector-buffer-size"="4" "target-cpu"="x86-64" "target-features"="+cx8,+fxsr,+mmx,+sse,+sse2,+sse3,+x87" "unsafe-fp-math"="false" "use-soft-float"="false" }
attributes #6 = { nounwind }
attributes #7 = { builtin nounwind }

!llvm.module.flags = !{!0, !1}

!0 = !{i32 1, !"wchar_size", i32 4}
!1 = !{i32 7, !"PIC Level", i32 2}
