; ModuleID = 'gen/components/omnibox/browser/in_memory_url_index_cache.pb.cc'
source_filename = "gen/components/omnibox/browser/in_memory_url_index_cache.pb.cc"
target datalayout = "e-m:e-i64:64-f80:128-n8:16:32:64-S128"
target triple = "x86_64-unknown-linux-gnu"

module asm ".symver exp, exp@GLIBC_2.2.5"
module asm ".symver exp2, exp2@GLIBC_2.2.5"
module asm ".symver exp2f, exp2f@GLIBC_2.2.5"
module asm ".symver expf, expf@GLIBC_2.2.5"
module asm ".symver lgamma, lgamma@GLIBC_2.2.5"
module asm ".symver lgammaf, lgammaf@GLIBC_2.2.5"
module asm ".symver lgammal, lgammal@GLIBC_2.2.5"
module asm ".symver log, log@GLIBC_2.2.5"
module asm ".symver log2, log2@GLIBC_2.2.5"
module asm ".symver log2f, log2f@GLIBC_2.2.5"
module asm ".symver logf, logf@GLIBC_2.2.5"
module asm ".symver pow, pow@GLIBC_2.2.5"
module asm ".symver powf, powf@GLIBC_2.2.5"

%"class.in_memory_url_index::InMemoryURLIndexCacheItem_WordListItemDefaultTypeInternal" = type { %"class.google::protobuf::internal::ExplicitlyConstructed" }
%"class.google::protobuf::internal::ExplicitlyConstructed" = type { %"union.google::protobuf::internal::ExplicitlyConstructed<in_memory_url_index::InMemoryURLIndexCacheItem_WordListItem>::AlignedUnion" }
%"union.google::protobuf::internal::ExplicitlyConstructed<in_memory_url_index::InMemoryURLIndexCacheItem_WordListItem>::AlignedUnion" = type { i64, [48 x i8] }
%"class.in_memory_url_index::InMemoryURLIndexCacheItem_WordMapItem_WordMapEntryDefaultTypeInternal" = type { %"class.google::protobuf::internal::ExplicitlyConstructed.0" }
%"class.google::protobuf::internal::ExplicitlyConstructed.0" = type { %"union.google::protobuf::internal::ExplicitlyConstructed<in_memory_url_index::InMemoryURLIndexCacheItem_WordMapItem_WordMapEntry>::AlignedUnion" }
%"union.google::protobuf::internal::ExplicitlyConstructed<in_memory_url_index::InMemoryURLIndexCacheItem_WordMapItem_WordMapEntry>::AlignedUnion" = type { i64, [32 x i8] }
%"class.in_memory_url_index::InMemoryURLIndexCacheItem_WordMapItemDefaultTypeInternal" = type { %"class.google::protobuf::internal::ExplicitlyConstructed.1" }
%"class.google::protobuf::internal::ExplicitlyConstructed.1" = type { %"union.google::protobuf::internal::ExplicitlyConstructed<in_memory_url_index::InMemoryURLIndexCacheItem_WordMapItem>::AlignedUnion" }
%"union.google::protobuf::internal::ExplicitlyConstructed<in_memory_url_index::InMemoryURLIndexCacheItem_WordMapItem>::AlignedUnion" = type { i64, [48 x i8] }
%"class.in_memory_url_index::InMemoryURLIndexCacheItem_CharWordMapItem_CharWordMapEntryDefaultTypeInternal" = type { %"class.google::protobuf::internal::ExplicitlyConstructed.2" }
%"class.google::protobuf::internal::ExplicitlyConstructed.2" = type { %"union.google::protobuf::internal::ExplicitlyConstructed<in_memory_url_index::InMemoryURLIndexCacheItem_CharWordMapItem_CharWordMapEntry>::AlignedUnion" }
%"union.google::protobuf::internal::ExplicitlyConstructed<in_memory_url_index::InMemoryURLIndexCacheItem_CharWordMapItem_CharWordMapEntry>::AlignedUnion" = type { i64, [48 x i8] }
%"class.in_memory_url_index::InMemoryURLIndexCacheItem_CharWordMapItemDefaultTypeInternal" = type { %"class.google::protobuf::internal::ExplicitlyConstructed.3" }
%"class.google::protobuf::internal::ExplicitlyConstructed.3" = type { %"union.google::protobuf::internal::ExplicitlyConstructed<in_memory_url_index::InMemoryURLIndexCacheItem_CharWordMapItem>::AlignedUnion" }
%"union.google::protobuf::internal::ExplicitlyConstructed<in_memory_url_index::InMemoryURLIndexCacheItem_CharWordMapItem>::AlignedUnion" = type { i64, [48 x i8] }
%"class.in_memory_url_index::InMemoryURLIndexCacheItem_WordIDHistoryMapItem_WordIDHistoryMapEntryDefaultTypeInternal" = type { %"class.google::protobuf::internal::ExplicitlyConstructed.4" }
%"class.google::protobuf::internal::ExplicitlyConstructed.4" = type { %"union.google::protobuf::internal::ExplicitlyConstructed<in_memory_url_index::InMemoryURLIndexCacheItem_WordIDHistoryMapItem_WordIDHistoryMapEntry>::AlignedUnion" }
%"union.google::protobuf::internal::ExplicitlyConstructed<in_memory_url_index::InMemoryURLIndexCacheItem_WordIDHistoryMapItem_WordIDHistoryMapEntry>::AlignedUnion" = type { i64, [48 x i8] }
%"class.in_memory_url_index::InMemoryURLIndexCacheItem_WordIDHistoryMapItemDefaultTypeInternal" = type { %"class.google::protobuf::internal::ExplicitlyConstructed.5" }
%"class.google::protobuf::internal::ExplicitlyConstructed.5" = type { %"union.google::protobuf::internal::ExplicitlyConstructed<in_memory_url_index::InMemoryURLIndexCacheItem_WordIDHistoryMapItem>::AlignedUnion" }
%"union.google::protobuf::internal::ExplicitlyConstructed<in_memory_url_index::InMemoryURLIndexCacheItem_WordIDHistoryMapItem>::AlignedUnion" = type { i64, [48 x i8] }
%"class.in_memory_url_index::InMemoryURLIndexCacheItem_HistoryInfoMapItem_HistoryInfoMapEntry_VisitInfoDefaultTypeInternal" = type { %"class.google::protobuf::internal::ExplicitlyConstructed.6" }
%"class.google::protobuf::internal::ExplicitlyConstructed.6" = type { %"union.google::protobuf::internal::ExplicitlyConstructed<in_memory_url_index::InMemoryURLIndexCacheItem_HistoryInfoMapItem_HistoryInfoMapEntry_VisitInfo>::AlignedUnion" }
%"union.google::protobuf::internal::ExplicitlyConstructed<in_memory_url_index::InMemoryURLIndexCacheItem_HistoryInfoMapItem_HistoryInfoMapEntry_VisitInfo>::AlignedUnion" = type { i64, [32 x i8] }
%"class.in_memory_url_index::InMemoryURLIndexCacheItem_HistoryInfoMapItem_HistoryInfoMapEntryDefaultTypeInternal" = type { %"class.google::protobuf::internal::ExplicitlyConstructed.7" }
%"class.google::protobuf::internal::ExplicitlyConstructed.7" = type { %"union.google::protobuf::internal::ExplicitlyConstructed<in_memory_url_index::InMemoryURLIndexCacheItem_HistoryInfoMapItem_HistoryInfoMapEntry>::AlignedUnion" }
%"union.google::protobuf::internal::ExplicitlyConstructed<in_memory_url_index::InMemoryURLIndexCacheItem_HistoryInfoMapItem_HistoryInfoMapEntry>::AlignedUnion" = type { i64, [80 x i8] }
%"class.in_memory_url_index::InMemoryURLIndexCacheItem_HistoryInfoMapItemDefaultTypeInternal" = type { %"class.google::protobuf::internal::ExplicitlyConstructed.8" }
%"class.google::protobuf::internal::ExplicitlyConstructed.8" = type { %"union.google::protobuf::internal::ExplicitlyConstructed<in_memory_url_index::InMemoryURLIndexCacheItem_HistoryInfoMapItem>::AlignedUnion" }
%"union.google::protobuf::internal::ExplicitlyConstructed<in_memory_url_index::InMemoryURLIndexCacheItem_HistoryInfoMapItem>::AlignedUnion" = type { i64, [48 x i8] }
%"class.in_memory_url_index::InMemoryURLIndexCacheItem_WordStartsMapItem_WordStartsMapEntryDefaultTypeInternal" = type { %"class.google::protobuf::internal::ExplicitlyConstructed.9" }
%"class.google::protobuf::internal::ExplicitlyConstructed.9" = type { %"union.google::protobuf::internal::ExplicitlyConstructed<in_memory_url_index::InMemoryURLIndexCacheItem_WordStartsMapItem_WordStartsMapEntry>::AlignedUnion" }
%"union.google::protobuf::internal::ExplicitlyConstructed<in_memory_url_index::InMemoryURLIndexCacheItem_WordStartsMapItem_WordStartsMapEntry>::AlignedUnion" = type { i64, [72 x i8] }
%"class.in_memory_url_index::InMemoryURLIndexCacheItem_WordStartsMapItemDefaultTypeInternal" = type { %"class.google::protobuf::internal::ExplicitlyConstructed.10" }
%"class.google::protobuf::internal::ExplicitlyConstructed.10" = type { %"union.google::protobuf::internal::ExplicitlyConstructed<in_memory_url_index::InMemoryURLIndexCacheItem_WordStartsMapItem>::AlignedUnion" }
%"union.google::protobuf::internal::ExplicitlyConstructed<in_memory_url_index::InMemoryURLIndexCacheItem_WordStartsMapItem>::AlignedUnion" = type { i64, [48 x i8] }
%"class.in_memory_url_index::InMemoryURLIndexCacheItemDefaultTypeInternal" = type { %"class.google::protobuf::internal::ExplicitlyConstructed.11" }
%"class.google::protobuf::internal::ExplicitlyConstructed.11" = type { %"union.google::protobuf::internal::ExplicitlyConstructed<in_memory_url_index::InMemoryURLIndexCacheItem>::AlignedUnion" }
%"union.google::protobuf::internal::ExplicitlyConstructed<in_memory_url_index::InMemoryURLIndexCacheItem>::AlignedUnion" = type { i64, [80 x i8] }
%"class.google::protobuf::internal::ExplicitlyConstructed.39" = type { %"union.google::protobuf::internal::ExplicitlyConstructed<std::__1::basic_string<char, std::__1::char_traits<char>, std::__1::allocator<char> > >::AlignedUnion" }
%"union.google::protobuf::internal::ExplicitlyConstructed<std::__1::basic_string<char, std::__1::char_traits<char>, std::__1::allocator<char> > >::AlignedUnion" = type { i64, [16 x i8] }
%"class.in_memory_url_index::InMemoryURLIndexCacheItem_WordListItem" = type <{ %"class.google::protobuf::MessageLite", %"class.google::protobuf::internal::HasBits", %"class.google::protobuf::internal::CachedSize", %"class.google::protobuf::RepeatedPtrField", i32, [4 x i8] }>
%"class.google::protobuf::MessageLite" = type { i32 (...)**, %"class.google::protobuf::internal::InternalMetadata" }
%"class.google::protobuf::internal::InternalMetadata" = type { i8* }
%"class.google::protobuf::internal::HasBits" = type { [1 x i32] }
%"class.google::protobuf::internal::CachedSize" = type { %"struct.std::__1::atomic" }
%"struct.std::__1::atomic" = type { %"struct.std::__1::__atomic_base" }
%"struct.std::__1::__atomic_base" = type { %"struct.std::__1::__atomic_base.12" }
%"struct.std::__1::__atomic_base.12" = type { %"struct.std::__1::__cxx_atomic_impl" }
%"struct.std::__1::__cxx_atomic_impl" = type { %"struct.std::__1::__cxx_atomic_base_impl" }
%"struct.std::__1::__cxx_atomic_base_impl" = type { i32 }
%"class.google::protobuf::RepeatedPtrField" = type { %"class.google::protobuf::internal::RepeatedPtrFieldBase" }
%"class.google::protobuf::internal::RepeatedPtrFieldBase" = type { %"class.google::protobuf::Arena"*, i32, i32, %"struct.google::protobuf::internal::RepeatedPtrFieldBase::Rep"* }
%"struct.google::protobuf::internal::RepeatedPtrFieldBase::Rep" = type { i32, [268435454 x i8*] }
%"class.google::protobuf::Arena" = type { %"class.google::protobuf::internal::ArenaImpl", void (%"class.std::type_info"*, i64, i8*)*, void (%"class.google::protobuf::Arena"*, i8*, i64)*, void (%"class.google::protobuf::Arena"*, i8*, i64)*, i8* }
%"class.google::protobuf::internal::ArenaImpl" = type { %"struct.std::__1::atomic.15", %"struct.std::__1::atomic.15", %"struct.std::__1::atomic.19", %"class.google::protobuf::internal::ArenaImpl::Block"*, i64, %"struct.google::protobuf::internal::ArenaImpl::Options" }
%"struct.std::__1::atomic.15" = type { %"struct.std::__1::__atomic_base.16" }
%"struct.std::__1::__atomic_base.16" = type { %"struct.std::__1::__cxx_atomic_impl.17" }
%"struct.std::__1::__cxx_atomic_impl.17" = type { %"struct.std::__1::__cxx_atomic_base_impl.18" }
%"struct.std::__1::__cxx_atomic_base_impl.18" = type { %"class.google::protobuf::internal::ArenaImpl::SerialArena"* }
%"class.google::protobuf::internal::ArenaImpl::SerialArena" = type { %"class.google::protobuf::internal::ArenaImpl"*, i8*, %"class.google::protobuf::internal::ArenaImpl::Block"*, %"struct.google::protobuf::internal::ArenaImpl::CleanupChunk"*, %"class.google::protobuf::internal::ArenaImpl::SerialArena"*, i8*, i8*, %"struct.google::protobuf::internal::ArenaImpl::CleanupNode"*, %"struct.google::protobuf::internal::ArenaImpl::CleanupNode"* }
%"struct.google::protobuf::internal::ArenaImpl::CleanupChunk" = type { i64, %"struct.google::protobuf::internal::ArenaImpl::CleanupChunk"*, [1 x %"struct.google::protobuf::internal::ArenaImpl::CleanupNode"] }
%"struct.google::protobuf::internal::ArenaImpl::CleanupNode" = type { i8*, void (i8*)* }
%"struct.std::__1::atomic.19" = type { %"struct.std::__1::__atomic_base.20" }
%"struct.std::__1::__atomic_base.20" = type { %"struct.std::__1::__atomic_base.21" }
%"struct.std::__1::__atomic_base.21" = type { %"struct.std::__1::__cxx_atomic_impl.22" }
%"struct.std::__1::__cxx_atomic_impl.22" = type { %"struct.std::__1::__cxx_atomic_base_impl.23" }
%"struct.std::__1::__cxx_atomic_base_impl.23" = type { i64 }
%"class.google::protobuf::internal::ArenaImpl::Block" = type { %"class.google::protobuf::internal::ArenaImpl::Block"*, i64, i64 }
%"struct.google::protobuf::internal::ArenaImpl::Options" = type { i64, i64, i8*, i64, i8* (i64)*, void (i8*, i64)* }
%"class.std::type_info" = type { i32 (...)**, i8* }
%"class.in_memory_url_index::InMemoryURLIndexCacheItem_WordMapItem_WordMapEntry" = type <{ %"class.google::protobuf::MessageLite", %"class.google::protobuf::internal::HasBits", %"class.google::protobuf::internal::CachedSize", %"struct.google::protobuf::internal::ArenaStringPtr", i32, [4 x i8] }>
%"struct.google::protobuf::internal::ArenaStringPtr" = type { %"class.std::__1::basic_string"* }
%"class.std::__1::basic_string" = type { %"class.std::__1::__compressed_pair" }
%"class.std::__1::__compressed_pair" = type { %"struct.std::__1::__compressed_pair_elem" }
%"struct.std::__1::__compressed_pair_elem" = type { %"struct.std::__1::basic_string<char, std::__1::char_traits<char>, std::__1::allocator<char> >::__rep" }
%"struct.std::__1::basic_string<char, std::__1::char_traits<char>, std::__1::allocator<char> >::__rep" = type { %union.anon }
%union.anon = type { %"struct.std::__1::basic_string<char, std::__1::char_traits<char>, std::__1::allocator<char> >::__long" }
%"struct.std::__1::basic_string<char, std::__1::char_traits<char>, std::__1::allocator<char> >::__long" = type { i8*, i64, i64 }
%"class.in_memory_url_index::InMemoryURLIndexCacheItem_WordMapItem" = type <{ %"class.google::protobuf::MessageLite", %"class.google::protobuf::internal::HasBits", %"class.google::protobuf::internal::CachedSize", %"class.google::protobuf::RepeatedPtrField.25", i32, [4 x i8] }>
%"class.google::protobuf::RepeatedPtrField.25" = type { %"class.google::protobuf::internal::RepeatedPtrFieldBase" }
%"class.in_memory_url_index::InMemoryURLIndexCacheItem_CharWordMapItem_CharWordMapEntry" = type <{ %"class.google::protobuf::MessageLite", %"class.google::protobuf::internal::HasBits", %"class.google::protobuf::internal::CachedSize", %"class.google::protobuf::RepeatedField", %"struct.std::__1::atomic", i32, i32, [4 x i8] }>
%"class.google::protobuf::RepeatedField" = type { i32, i32, i8* }
%"class.in_memory_url_index::InMemoryURLIndexCacheItem_CharWordMapItem" = type <{ %"class.google::protobuf::MessageLite", %"class.google::protobuf::internal::HasBits", %"class.google::protobuf::internal::CachedSize", %"class.google::protobuf::RepeatedPtrField.26", i32, [4 x i8] }>
%"class.google::protobuf::RepeatedPtrField.26" = type { %"class.google::protobuf::internal::RepeatedPtrFieldBase" }
%"class.in_memory_url_index::InMemoryURLIndexCacheItem_WordIDHistoryMapItem_WordIDHistoryMapEntry" = type <{ %"class.google::protobuf::MessageLite", %"class.google::protobuf::internal::HasBits", %"class.google::protobuf::internal::CachedSize", %"class.google::protobuf::RepeatedField.28", %"struct.std::__1::atomic", i32, i32, [4 x i8] }>
%"class.google::protobuf::RepeatedField.28" = type { i32, i32, i8* }
%"class.in_memory_url_index::InMemoryURLIndexCacheItem_WordIDHistoryMapItem" = type <{ %"class.google::protobuf::MessageLite", %"class.google::protobuf::internal::HasBits", %"class.google::protobuf::internal::CachedSize", %"class.google::protobuf::RepeatedPtrField.29", i32, [4 x i8] }>
%"class.google::protobuf::RepeatedPtrField.29" = type { %"class.google::protobuf::internal::RepeatedPtrFieldBase" }
%"class.in_memory_url_index::InMemoryURLIndexCacheItem_HistoryInfoMapItem_HistoryInfoMapEntry_VisitInfo" = type { %"class.google::protobuf::MessageLite", %"class.google::protobuf::internal::HasBits", %"class.google::protobuf::internal::CachedSize", i64, i64 }
%"class.in_memory_url_index::InMemoryURLIndexCacheItem_HistoryInfoMapItem_HistoryInfoMapEntry" = type { %"class.google::protobuf::MessageLite", %"class.google::protobuf::internal::HasBits", %"class.google::protobuf::internal::CachedSize", %"class.google::protobuf::RepeatedPtrField.31", %"struct.google::protobuf::internal::ArenaStringPtr", %"struct.google::protobuf::internal::ArenaStringPtr", i64, i32, i32, i64 }
%"class.google::protobuf::RepeatedPtrField.31" = type { %"class.google::protobuf::internal::RepeatedPtrFieldBase" }
%"class.in_memory_url_index::InMemoryURLIndexCacheItem_HistoryInfoMapItem" = type <{ %"class.google::protobuf::MessageLite", %"class.google::protobuf::internal::HasBits", %"class.google::protobuf::internal::CachedSize", %"class.google::protobuf::RepeatedPtrField.33", i32, [4 x i8] }>
%"class.google::protobuf::RepeatedPtrField.33" = type { %"class.google::protobuf::internal::RepeatedPtrFieldBase" }
%"class.in_memory_url_index::InMemoryURLIndexCacheItem_WordStartsMapItem_WordStartsMapEntry" = type { %"class.google::protobuf::MessageLite", %"class.google::protobuf::internal::HasBits", %"class.google::protobuf::internal::CachedSize", %"class.google::protobuf::RepeatedField", %"struct.std::__1::atomic", %"class.google::protobuf::RepeatedField", %"struct.std::__1::atomic", i64 }
%"class.in_memory_url_index::InMemoryURLIndexCacheItem_WordStartsMapItem" = type <{ %"class.google::protobuf::MessageLite", %"class.google::protobuf::internal::HasBits", %"class.google::protobuf::internal::CachedSize", %"class.google::protobuf::RepeatedPtrField.35", i32, [4 x i8] }>
%"class.google::protobuf::RepeatedPtrField.35" = type { %"class.google::protobuf::internal::RepeatedPtrFieldBase" }
%"class.in_memory_url_index::InMemoryURLIndexCacheItem" = type { %"class.google::protobuf::MessageLite", %"class.google::protobuf::internal::HasBits", %"class.google::protobuf::internal::CachedSize", %"class.in_memory_url_index::InMemoryURLIndexCacheItem_WordListItem"*, %"class.in_memory_url_index::InMemoryURLIndexCacheItem_WordMapItem"*, %"class.in_memory_url_index::InMemoryURLIndexCacheItem_CharWordMapItem"*, %"class.in_memory_url_index::InMemoryURLIndexCacheItem_WordIDHistoryMapItem"*, %"class.in_memory_url_index::InMemoryURLIndexCacheItem_HistoryInfoMapItem"*, %"class.in_memory_url_index::InMemoryURLIndexCacheItem_WordStartsMapItem"*, i64, i32, i32 }
%"struct.google::protobuf::internal::SCCInfoBase" = type { %"struct.std::__1::atomic", i32, i32, void ()* }
%"struct.google::protobuf::internal::InternalMetadata::Container" = type { %"struct.google::protobuf::internal::InternalMetadata::ContainerBase", %"class.std::__1::basic_string" }
%"struct.google::protobuf::internal::InternalMetadata::ContainerBase" = type { %"class.google::protobuf::Arena"* }
%"struct.std::__1::basic_string<char, std::__1::char_traits<char>, std::__1::allocator<char> >::__short" = type { [23 x i8], %struct.anon }
%struct.anon = type { i8 }
%"class.google::protobuf::internal::ParseContext" = type { %"class.google::protobuf::internal::EpsCopyInputStream", i32, i32, %"struct.google::protobuf::internal::ParseContext::Data" }
%"class.google::protobuf::internal::EpsCopyInputStream" = type { i8*, i8*, i8*, i32, i32, %"class.google::protobuf::io::ZeroCopyInputStream"*, [32 x i8], i64, i32, i32 }
%"class.google::protobuf::io::ZeroCopyInputStream" = type { i32 (...)** }
%"struct.google::protobuf::internal::ParseContext::Data" = type { %"class.google::protobuf::DescriptorPool"*, %"class.google::protobuf::MessageFactory"* }
%"class.google::protobuf::DescriptorPool" = type opaque
%"class.google::protobuf::MessageFactory" = type opaque
%"class.google::protobuf::io::EpsCopyOutputStream" = type <{ i8*, i8*, [32 x i8], %"class.google::protobuf::io::ZeroCopyOutputStream"*, i8, i8, i8, [5 x i8] }>
%"class.google::protobuf::io::ZeroCopyOutputStream" = type { i32 (...)** }

$_ZN6google8protobuf8internal12ParseContext12ParseMessageIN19in_memory_url_index50InMemoryURLIndexCacheItem_WordMapItem_WordMapEntryEEEPKcPT_S7_ = comdat any

$_ZN6google8protobuf8internal12ParseContext12ParseMessageIN19in_memory_url_index58InMemoryURLIndexCacheItem_CharWordMapItem_CharWordMapEntryEEEPKcPT_S7_ = comdat any

$_ZN6google8protobuf8internal12ParseContext12ParseMessageIN19in_memory_url_index68InMemoryURLIndexCacheItem_WordIDHistoryMapItem_WordIDHistoryMapEntryEEEPKcPT_S7_ = comdat any

$_ZN6google8protobuf8internal12ParseContext12ParseMessageIN19in_memory_url_index74InMemoryURLIndexCacheItem_HistoryInfoMapItem_HistoryInfoMapEntry_VisitInfoEEEPKcPT_S7_ = comdat any

$_ZN6google8protobuf8internal12ParseContext12ParseMessageIN19in_memory_url_index64InMemoryURLIndexCacheItem_HistoryInfoMapItem_HistoryInfoMapEntryEEEPKcPT_S7_ = comdat any

$_ZN6google8protobuf8internal12ParseContext12ParseMessageIN19in_memory_url_index62InMemoryURLIndexCacheItem_WordStartsMapItem_WordStartsMapEntryEEEPKcPT_S7_ = comdat any

$_ZN6google8protobuf8internal12ParseContext12ParseMessageIN19in_memory_url_index38InMemoryURLIndexCacheItem_WordListItemEEEPKcPT_S7_ = comdat any

$_ZN6google8protobuf8internal12ParseContext12ParseMessageIN19in_memory_url_index37InMemoryURLIndexCacheItem_WordMapItemEEEPKcPT_S7_ = comdat any

$_ZN6google8protobuf8internal12ParseContext12ParseMessageIN19in_memory_url_index41InMemoryURLIndexCacheItem_CharWordMapItemEEEPKcPT_S7_ = comdat any

$_ZN6google8protobuf8internal12ParseContext12ParseMessageIN19in_memory_url_index46InMemoryURLIndexCacheItem_WordIDHistoryMapItemEEEPKcPT_S7_ = comdat any

$_ZN6google8protobuf8internal12ParseContext12ParseMessageIN19in_memory_url_index44InMemoryURLIndexCacheItem_HistoryInfoMapItemEEEPKcPT_S7_ = comdat any

$_ZN6google8protobuf8internal12ParseContext12ParseMessageIN19in_memory_url_index43InMemoryURLIndexCacheItem_WordStartsMapItemEEEPKcPT_S7_ = comdat any

$_ZNK19in_memory_url_index38InMemoryURLIndexCacheItem_WordListItem3NewEv = comdat any

$_ZNK19in_memory_url_index38InMemoryURLIndexCacheItem_WordListItem3NewEPN6google8protobuf5ArenaE = comdat any

$_ZNK19in_memory_url_index38InMemoryURLIndexCacheItem_WordListItem13GetCachedSizeEv = comdat any

$_ZNK6google8protobuf11MessageLite16InternalGetTableEv = comdat any

$_ZNK19in_memory_url_index50InMemoryURLIndexCacheItem_WordMapItem_WordMapEntry3NewEv = comdat any

$_ZNK19in_memory_url_index50InMemoryURLIndexCacheItem_WordMapItem_WordMapEntry3NewEPN6google8protobuf5ArenaE = comdat any

$_ZNK19in_memory_url_index50InMemoryURLIndexCacheItem_WordMapItem_WordMapEntry13GetCachedSizeEv = comdat any

$_ZNK19in_memory_url_index37InMemoryURLIndexCacheItem_WordMapItem3NewEv = comdat any

$_ZNK19in_memory_url_index37InMemoryURLIndexCacheItem_WordMapItem3NewEPN6google8protobuf5ArenaE = comdat any

$_ZNK19in_memory_url_index37InMemoryURLIndexCacheItem_WordMapItem13GetCachedSizeEv = comdat any

$_ZNK19in_memory_url_index58InMemoryURLIndexCacheItem_CharWordMapItem_CharWordMapEntry3NewEv = comdat any

$_ZNK19in_memory_url_index58InMemoryURLIndexCacheItem_CharWordMapItem_CharWordMapEntry3NewEPN6google8protobuf5ArenaE = comdat any

$_ZNK19in_memory_url_index58InMemoryURLIndexCacheItem_CharWordMapItem_CharWordMapEntry13GetCachedSizeEv = comdat any

$_ZNK19in_memory_url_index41InMemoryURLIndexCacheItem_CharWordMapItem3NewEv = comdat any

$_ZNK19in_memory_url_index41InMemoryURLIndexCacheItem_CharWordMapItem3NewEPN6google8protobuf5ArenaE = comdat any

$_ZNK19in_memory_url_index41InMemoryURLIndexCacheItem_CharWordMapItem13GetCachedSizeEv = comdat any

$_ZNK19in_memory_url_index68InMemoryURLIndexCacheItem_WordIDHistoryMapItem_WordIDHistoryMapEntry3NewEv = comdat any

$_ZNK19in_memory_url_index68InMemoryURLIndexCacheItem_WordIDHistoryMapItem_WordIDHistoryMapEntry3NewEPN6google8protobuf5ArenaE = comdat any

$_ZNK19in_memory_url_index68InMemoryURLIndexCacheItem_WordIDHistoryMapItem_WordIDHistoryMapEntry13GetCachedSizeEv = comdat any

$_ZNK19in_memory_url_index46InMemoryURLIndexCacheItem_WordIDHistoryMapItem3NewEv = comdat any

$_ZNK19in_memory_url_index46InMemoryURLIndexCacheItem_WordIDHistoryMapItem3NewEPN6google8protobuf5ArenaE = comdat any

$_ZNK19in_memory_url_index46InMemoryURLIndexCacheItem_WordIDHistoryMapItem13GetCachedSizeEv = comdat any

$_ZNK19in_memory_url_index74InMemoryURLIndexCacheItem_HistoryInfoMapItem_HistoryInfoMapEntry_VisitInfo3NewEv = comdat any

$_ZNK19in_memory_url_index74InMemoryURLIndexCacheItem_HistoryInfoMapItem_HistoryInfoMapEntry_VisitInfo3NewEPN6google8protobuf5ArenaE = comdat any

$_ZNK19in_memory_url_index74InMemoryURLIndexCacheItem_HistoryInfoMapItem_HistoryInfoMapEntry_VisitInfo13GetCachedSizeEv = comdat any

$_ZNK19in_memory_url_index64InMemoryURLIndexCacheItem_HistoryInfoMapItem_HistoryInfoMapEntry3NewEv = comdat any

$_ZNK19in_memory_url_index64InMemoryURLIndexCacheItem_HistoryInfoMapItem_HistoryInfoMapEntry3NewEPN6google8protobuf5ArenaE = comdat any

$_ZNK19in_memory_url_index64InMemoryURLIndexCacheItem_HistoryInfoMapItem_HistoryInfoMapEntry13GetCachedSizeEv = comdat any

$_ZNK19in_memory_url_index44InMemoryURLIndexCacheItem_HistoryInfoMapItem3NewEv = comdat any

$_ZNK19in_memory_url_index44InMemoryURLIndexCacheItem_HistoryInfoMapItem3NewEPN6google8protobuf5ArenaE = comdat any

$_ZNK19in_memory_url_index44InMemoryURLIndexCacheItem_HistoryInfoMapItem13GetCachedSizeEv = comdat any

$_ZNK19in_memory_url_index62InMemoryURLIndexCacheItem_WordStartsMapItem_WordStartsMapEntry3NewEv = comdat any

$_ZNK19in_memory_url_index62InMemoryURLIndexCacheItem_WordStartsMapItem_WordStartsMapEntry3NewEPN6google8protobuf5ArenaE = comdat any

$_ZNK19in_memory_url_index62InMemoryURLIndexCacheItem_WordStartsMapItem_WordStartsMapEntry13GetCachedSizeEv = comdat any

$_ZNK19in_memory_url_index43InMemoryURLIndexCacheItem_WordStartsMapItem3NewEv = comdat any

$_ZNK19in_memory_url_index43InMemoryURLIndexCacheItem_WordStartsMapItem3NewEPN6google8protobuf5ArenaE = comdat any

$_ZNK19in_memory_url_index43InMemoryURLIndexCacheItem_WordStartsMapItem13GetCachedSizeEv = comdat any

$_ZNK19in_memory_url_index25InMemoryURLIndexCacheItem3NewEv = comdat any

$_ZNK19in_memory_url_index25InMemoryURLIndexCacheItem3NewEPN6google8protobuf5ArenaE = comdat any

$_ZNK19in_memory_url_index25InMemoryURLIndexCacheItem13GetCachedSizeEv = comdat any

$_ZN6google8protobuf8internal21arena_destruct_objectINSt3__112basic_stringIcNS3_11char_traitsIcEENS3_9allocatorIcEEEEEEvPv = comdat any

$_ZN6google8protobuf8internal14ArenaStringPtr14CreateInstanceEPNS0_5ArenaEPKNSt3__112basic_stringIcNS5_11char_traitsIcEENS5_9allocatorIcEEEE = comdat any

$_ZNSt3__112basic_stringIcNS_11char_traitsIcEENS_9allocatorIcEEEaSERKS5_ = comdat any

$_ZN6google8protobuf8internal16InternalMetadata27mutable_unknown_fields_slowINSt3__112basic_stringIcNS4_11char_traitsIcEENS4_9allocatorIcEEEEEEPT_v = comdat any

$_ZN6google8protobuf8internal21arena_destruct_objectINS1_16InternalMetadata9ContainerINSt3__112basic_stringIcNS5_11char_traitsIcEENS5_9allocatorIcEEEEEEEEvPv = comdat any

$_ZN6google8protobuf8internal20RepeatedPtrFieldBase9MergeFromINS0_16RepeatedPtrFieldINSt3__112basic_stringIcNS5_11char_traitsIcEENS5_9allocatorIcEEEEE11TypeHandlerEEEvRKS2_ = comdat any

$_ZN6google8protobuf8internal18GenericTypeHandlerIN19in_memory_url_index50InMemoryURLIndexCacheItem_WordMapItem_WordMapEntryEE5MergeERKS4_PS4_ = comdat any

$_ZN6google8protobuf8internal18GenericTypeHandlerIN19in_memory_url_index58InMemoryURLIndexCacheItem_CharWordMapItem_CharWordMapEntryEE5MergeERKS4_PS4_ = comdat any

$_ZN6google8protobuf8internal18GenericTypeHandlerIN19in_memory_url_index68InMemoryURLIndexCacheItem_WordIDHistoryMapItem_WordIDHistoryMapEntryEE5MergeERKS4_PS4_ = comdat any

$_ZN6google8protobuf8internal18GenericTypeHandlerIN19in_memory_url_index74InMemoryURLIndexCacheItem_HistoryInfoMapItem_HistoryInfoMapEntry_VisitInfoEE5MergeERKS4_PS4_ = comdat any

$_ZN6google8protobuf8internal18GenericTypeHandlerIN19in_memory_url_index64InMemoryURLIndexCacheItem_HistoryInfoMapItem_HistoryInfoMapEntryEE5MergeERKS4_PS4_ = comdat any

$_ZN6google8protobuf8internal18GenericTypeHandlerIN19in_memory_url_index62InMemoryURLIndexCacheItem_WordStartsMapItem_WordStartsMapEntryEE5MergeERKS4_PS4_ = comdat any

@_ZN19in_memory_url_index57_InMemoryURLIndexCacheItem_WordListItem_default_instance_E = hidden global %"class.in_memory_url_index::InMemoryURLIndexCacheItem_WordListItemDefaultTypeInternal" zeroinitializer, align 8
@_ZN19in_memory_url_index69_InMemoryURLIndexCacheItem_WordMapItem_WordMapEntry_default_instance_E = hidden global %"class.in_memory_url_index::InMemoryURLIndexCacheItem_WordMapItem_WordMapEntryDefaultTypeInternal" zeroinitializer, align 8
@_ZN19in_memory_url_index56_InMemoryURLIndexCacheItem_WordMapItem_default_instance_E = hidden global %"class.in_memory_url_index::InMemoryURLIndexCacheItem_WordMapItemDefaultTypeInternal" zeroinitializer, align 8
@_ZN19in_memory_url_index77_InMemoryURLIndexCacheItem_CharWordMapItem_CharWordMapEntry_default_instance_E = hidden global %"class.in_memory_url_index::InMemoryURLIndexCacheItem_CharWordMapItem_CharWordMapEntryDefaultTypeInternal" zeroinitializer, align 8
@_ZN19in_memory_url_index60_InMemoryURLIndexCacheItem_CharWordMapItem_default_instance_E = hidden global %"class.in_memory_url_index::InMemoryURLIndexCacheItem_CharWordMapItemDefaultTypeInternal" zeroinitializer, align 8
@_ZN19in_memory_url_index87_InMemoryURLIndexCacheItem_WordIDHistoryMapItem_WordIDHistoryMapEntry_default_instance_E = hidden global %"class.in_memory_url_index::InMemoryURLIndexCacheItem_WordIDHistoryMapItem_WordIDHistoryMapEntryDefaultTypeInternal" zeroinitializer, align 8
@_ZN19in_memory_url_index65_InMemoryURLIndexCacheItem_WordIDHistoryMapItem_default_instance_E = hidden global %"class.in_memory_url_index::InMemoryURLIndexCacheItem_WordIDHistoryMapItemDefaultTypeInternal" zeroinitializer, align 8
@_ZN19in_memory_url_index93_InMemoryURLIndexCacheItem_HistoryInfoMapItem_HistoryInfoMapEntry_VisitInfo_default_instance_E = hidden global %"class.in_memory_url_index::InMemoryURLIndexCacheItem_HistoryInfoMapItem_HistoryInfoMapEntry_VisitInfoDefaultTypeInternal" zeroinitializer, align 8
@_ZN19in_memory_url_index83_InMemoryURLIndexCacheItem_HistoryInfoMapItem_HistoryInfoMapEntry_default_instance_E = hidden global %"class.in_memory_url_index::InMemoryURLIndexCacheItem_HistoryInfoMapItem_HistoryInfoMapEntryDefaultTypeInternal" zeroinitializer, align 8
@_ZN19in_memory_url_index63_InMemoryURLIndexCacheItem_HistoryInfoMapItem_default_instance_E = hidden global %"class.in_memory_url_index::InMemoryURLIndexCacheItem_HistoryInfoMapItemDefaultTypeInternal" zeroinitializer, align 8
@_ZN19in_memory_url_index81_InMemoryURLIndexCacheItem_WordStartsMapItem_WordStartsMapEntry_default_instance_E = hidden global %"class.in_memory_url_index::InMemoryURLIndexCacheItem_WordStartsMapItem_WordStartsMapEntryDefaultTypeInternal" zeroinitializer, align 8
@_ZN19in_memory_url_index62_InMemoryURLIndexCacheItem_WordStartsMapItem_default_instance_E = hidden global %"class.in_memory_url_index::InMemoryURLIndexCacheItem_WordStartsMapItemDefaultTypeInternal" zeroinitializer, align 8
@_ZN19in_memory_url_index44_InMemoryURLIndexCacheItem_default_instance_E = hidden global %"class.in_memory_url_index::InMemoryURLIndexCacheItemDefaultTypeInternal" zeroinitializer, align 8
@scc_info_InMemoryURLIndexCacheItem_in_5fmemory_5furl_5findex_5fcache_2eproto = hidden global { { { { i32 } }, i32, i32, void ()* }, [6 x i8*] } { { { { i32 } }, i32, i32, void ()* } { { { i32 } } { { i32 } { i32 -1 } }, i32 6, i32 0, void ()* @_ZL88InitDefaultsscc_info_InMemoryURLIndexCacheItem_in_5fmemory_5furl_5findex_5fcache_2eprotov }, [6 x i8*] [i8* bitcast ({ { { { i32 } }, i32, i32, void ()* }, [0 x i8*] }* @scc_info_InMemoryURLIndexCacheItem_WordListItem_in_5fmemory_5furl_5findex_5fcache_2eproto to i8*), i8* bitcast ({ { { { i32 } }, i32, i32, void ()* }, [1 x i8*] }* @scc_info_InMemoryURLIndexCacheItem_WordMapItem_in_5fmemory_5furl_5findex_5fcache_2eproto to i8*), i8* bitcast ({ { { { i32 } }, i32, i32, void ()* }, [1 x i8*] }* @scc_info_InMemoryURLIndexCacheItem_CharWordMapItem_in_5fmemory_5furl_5findex_5fcache_2eproto to i8*), i8* bitcast ({ { { { i32 } }, i32, i32, void ()* }, [1 x i8*] }* @scc_info_InMemoryURLIndexCacheItem_WordIDHistoryMapItem_in_5fmemory_5furl_5findex_5fcache_2eproto to i8*), i8* bitcast ({ { { { i32 } }, i32, i32, void ()* }, [1 x i8*] }* @scc_info_InMemoryURLIndexCacheItem_HistoryInfoMapItem_in_5fmemory_5furl_5findex_5fcache_2eproto to i8*), i8* bitcast ({ { { { i32 } }, i32, i32, void ()* }, [1 x i8*] }* @scc_info_InMemoryURLIndexCacheItem_WordStartsMapItem_in_5fmemory_5furl_5findex_5fcache_2eproto to i8*)] }, align 8
@scc_info_InMemoryURLIndexCacheItem_CharWordMapItem_in_5fmemory_5furl_5findex_5fcache_2eproto = hidden global { { { { i32 } }, i32, i32, void ()* }, [1 x i8*] } { { { { i32 } }, i32, i32, void ()* } { { { i32 } } { { i32 } { i32 -1 } }, i32 1, i32 0, void ()* @_ZL104InitDefaultsscc_info_InMemoryURLIndexCacheItem_CharWordMapItem_in_5fmemory_5furl_5findex_5fcache_2eprotov }, [1 x i8*] [i8* bitcast ({ { { { i32 } }, i32, i32, void ()* }, [0 x i8*] }* @scc_info_InMemoryURLIndexCacheItem_CharWordMapItem_CharWordMapEntry_in_5fmemory_5furl_5findex_5fcache_2eproto to i8*)] }, align 8
@scc_info_InMemoryURLIndexCacheItem_CharWordMapItem_CharWordMapEntry_in_5fmemory_5furl_5findex_5fcache_2eproto = hidden global { { { { i32 } }, i32, i32, void ()* }, [0 x i8*] } { { { { i32 } }, i32, i32, void ()* } { { { i32 } } { { i32 } { i32 -1 } }, i32 0, i32 0, void ()* @_ZL121InitDefaultsscc_info_InMemoryURLIndexCacheItem_CharWordMapItem_CharWordMapEntry_in_5fmemory_5furl_5findex_5fcache_2eprotov }, [0 x i8*] zeroinitializer }, align 8
@scc_info_InMemoryURLIndexCacheItem_HistoryInfoMapItem_in_5fmemory_5furl_5findex_5fcache_2eproto = hidden global { { { { i32 } }, i32, i32, void ()* }, [1 x i8*] } { { { { i32 } }, i32, i32, void ()* } { { { i32 } } { { i32 } { i32 -1 } }, i32 1, i32 0, void ()* @_ZL107InitDefaultsscc_info_InMemoryURLIndexCacheItem_HistoryInfoMapItem_in_5fmemory_5furl_5findex_5fcache_2eprotov }, [1 x i8*] [i8* bitcast ({ { { { i32 } }, i32, i32, void ()* }, [1 x i8*] }* @scc_info_InMemoryURLIndexCacheItem_HistoryInfoMapItem_HistoryInfoMapEntry_in_5fmemory_5furl_5findex_5fcache_2eproto to i8*)] }, align 8
@scc_info_InMemoryURLIndexCacheItem_HistoryInfoMapItem_HistoryInfoMapEntry_in_5fmemory_5furl_5findex_5fcache_2eproto = hidden global { { { { i32 } }, i32, i32, void ()* }, [1 x i8*] } { { { { i32 } }, i32, i32, void ()* } { { { i32 } } { { i32 } { i32 -1 } }, i32 1, i32 0, void ()* @_ZL127InitDefaultsscc_info_InMemoryURLIndexCacheItem_HistoryInfoMapItem_HistoryInfoMapEntry_in_5fmemory_5furl_5findex_5fcache_2eprotov }, [1 x i8*] [i8* bitcast ({ { { { i32 } }, i32, i32, void ()* }, [0 x i8*] }* @scc_info_InMemoryURLIndexCacheItem_HistoryInfoMapItem_HistoryInfoMapEntry_VisitInfo_in_5fmemory_5furl_5findex_5fcache_2eproto to i8*)] }, align 8
@scc_info_InMemoryURLIndexCacheItem_HistoryInfoMapItem_HistoryInfoMapEntry_VisitInfo_in_5fmemory_5furl_5findex_5fcache_2eproto = hidden global { { { { i32 } }, i32, i32, void ()* }, [0 x i8*] } { { { { i32 } }, i32, i32, void ()* } { { { i32 } } { { i32 } { i32 -1 } }, i32 0, i32 0, void ()* @_ZL137InitDefaultsscc_info_InMemoryURLIndexCacheItem_HistoryInfoMapItem_HistoryInfoMapEntry_VisitInfo_in_5fmemory_5furl_5findex_5fcache_2eprotov }, [0 x i8*] zeroinitializer }, align 8
@scc_info_InMemoryURLIndexCacheItem_WordIDHistoryMapItem_in_5fmemory_5furl_5findex_5fcache_2eproto = hidden global { { { { i32 } }, i32, i32, void ()* }, [1 x i8*] } { { { { i32 } }, i32, i32, void ()* } { { { i32 } } { { i32 } { i32 -1 } }, i32 1, i32 0, void ()* @_ZL109InitDefaultsscc_info_InMemoryURLIndexCacheItem_WordIDHistoryMapItem_in_5fmemory_5furl_5findex_5fcache_2eprotov }, [1 x i8*] [i8* bitcast ({ { { { i32 } }, i32, i32, void ()* }, [0 x i8*] }* @scc_info_InMemoryURLIndexCacheItem_WordIDHistoryMapItem_WordIDHistoryMapEntry_in_5fmemory_5furl_5findex_5fcache_2eproto to i8*)] }, align 8
@scc_info_InMemoryURLIndexCacheItem_WordIDHistoryMapItem_WordIDHistoryMapEntry_in_5fmemory_5furl_5findex_5fcache_2eproto = hidden global { { { { i32 } }, i32, i32, void ()* }, [0 x i8*] } { { { { i32 } }, i32, i32, void ()* } { { { i32 } } { { i32 } { i32 -1 } }, i32 0, i32 0, void ()* @_ZL131InitDefaultsscc_info_InMemoryURLIndexCacheItem_WordIDHistoryMapItem_WordIDHistoryMapEntry_in_5fmemory_5furl_5findex_5fcache_2eprotov }, [0 x i8*] zeroinitializer }, align 8
@scc_info_InMemoryURLIndexCacheItem_WordListItem_in_5fmemory_5furl_5findex_5fcache_2eproto = hidden global { { { { i32 } }, i32, i32, void ()* }, [0 x i8*] } { { { { i32 } }, i32, i32, void ()* } { { { i32 } } { { i32 } { i32 -1 } }, i32 0, i32 0, void ()* @_ZL101InitDefaultsscc_info_InMemoryURLIndexCacheItem_WordListItem_in_5fmemory_5furl_5findex_5fcache_2eprotov }, [0 x i8*] zeroinitializer }, align 8
@scc_info_InMemoryURLIndexCacheItem_WordMapItem_in_5fmemory_5furl_5findex_5fcache_2eproto = hidden global { { { { i32 } }, i32, i32, void ()* }, [1 x i8*] } { { { { i32 } }, i32, i32, void ()* } { { { i32 } } { { i32 } { i32 -1 } }, i32 1, i32 0, void ()* @_ZL100InitDefaultsscc_info_InMemoryURLIndexCacheItem_WordMapItem_in_5fmemory_5furl_5findex_5fcache_2eprotov }, [1 x i8*] [i8* bitcast ({ { { { i32 } }, i32, i32, void ()* }, [0 x i8*] }* @scc_info_InMemoryURLIndexCacheItem_WordMapItem_WordMapEntry_in_5fmemory_5furl_5findex_5fcache_2eproto to i8*)] }, align 8
@scc_info_InMemoryURLIndexCacheItem_WordMapItem_WordMapEntry_in_5fmemory_5furl_5findex_5fcache_2eproto = hidden global { { { { i32 } }, i32, i32, void ()* }, [0 x i8*] } { { { { i32 } }, i32, i32, void ()* } { { { i32 } } { { i32 } { i32 -1 } }, i32 0, i32 0, void ()* @_ZL113InitDefaultsscc_info_InMemoryURLIndexCacheItem_WordMapItem_WordMapEntry_in_5fmemory_5furl_5findex_5fcache_2eprotov }, [0 x i8*] zeroinitializer }, align 8
@scc_info_InMemoryURLIndexCacheItem_WordStartsMapItem_in_5fmemory_5furl_5findex_5fcache_2eproto = hidden global { { { { i32 } }, i32, i32, void ()* }, [1 x i8*] } { { { { i32 } }, i32, i32, void ()* } { { { i32 } } { { i32 } { i32 -1 } }, i32 1, i32 0, void ()* @_ZL106InitDefaultsscc_info_InMemoryURLIndexCacheItem_WordStartsMapItem_in_5fmemory_5furl_5findex_5fcache_2eprotov }, [1 x i8*] [i8* bitcast ({ { { { i32 } }, i32, i32, void ()* }, [0 x i8*] }* @scc_info_InMemoryURLIndexCacheItem_WordStartsMapItem_WordStartsMapEntry_in_5fmemory_5furl_5findex_5fcache_2eproto to i8*)] }, align 8
@scc_info_InMemoryURLIndexCacheItem_WordStartsMapItem_WordStartsMapEntry_in_5fmemory_5furl_5findex_5fcache_2eproto = hidden global { { { { i32 } }, i32, i32, void ()* }, [0 x i8*] } { { { { i32 } }, i32, i32, void ()* } { { { i32 } } { { i32 } { i32 -1 } }, i32 0, i32 0, void ()* @_ZL125InitDefaultsscc_info_InMemoryURLIndexCacheItem_WordStartsMapItem_WordStartsMapEntry_in_5fmemory_5furl_5findex_5fcache_2eprotov }, [0 x i8*] zeroinitializer }, align 8
@_ZTVN19in_memory_url_index38InMemoryURLIndexCacheItem_WordListItemE = hidden unnamed_addr constant { [16 x i8*] } { [16 x i8*] [i8* null, i8* null, i8* bitcast (void (%"class.in_memory_url_index::InMemoryURLIndexCacheItem_WordListItem"*)* @_ZN19in_memory_url_index38InMemoryURLIndexCacheItem_WordListItemD2Ev to i8*), i8* bitcast (void (%"class.in_memory_url_index::InMemoryURLIndexCacheItem_WordListItem"*)* @_ZN19in_memory_url_index38InMemoryURLIndexCacheItem_WordListItemD0Ev to i8*), i8* bitcast (void (%"class.std::__1::basic_string"*, %"class.in_memory_url_index::InMemoryURLIndexCacheItem_WordListItem"*)* @_ZNK19in_memory_url_index38InMemoryURLIndexCacheItem_WordListItem11GetTypeNameEv to i8*), i8* bitcast (%"class.in_memory_url_index::InMemoryURLIndexCacheItem_WordListItem"* (%"class.in_memory_url_index::InMemoryURLIndexCacheItem_WordListItem"*)* @_ZNK19in_memory_url_index38InMemoryURLIndexCacheItem_WordListItem3NewEv to i8*), i8* bitcast (%"class.in_memory_url_index::InMemoryURLIndexCacheItem_WordListItem"* (%"class.in_memory_url_index::InMemoryURLIndexCacheItem_WordListItem"*, %"class.google::protobuf::Arena"*)* @_ZNK19in_memory_url_index38InMemoryURLIndexCacheItem_WordListItem3NewEPN6google8protobuf5ArenaE to i8*), i8* bitcast (void (%"class.in_memory_url_index::InMemoryURLIndexCacheItem_WordListItem"*)* @_ZN19in_memory_url_index38InMemoryURLIndexCacheItem_WordListItem5ClearEv to i8*), i8* bitcast (i1 (%"class.in_memory_url_index::InMemoryURLIndexCacheItem_WordListItem"*)* @_ZNK19in_memory_url_index38InMemoryURLIndexCacheItem_WordListItem13IsInitializedEv to i8*), i8* bitcast (void (%"class.std::__1::basic_string"*, %"class.google::protobuf::MessageLite"*)* @_ZNK6google8protobuf11MessageLite25InitializationErrorStringEv to i8*), i8* bitcast (void (%"class.in_memory_url_index::InMemoryURLIndexCacheItem_WordListItem"*, %"class.google::protobuf::MessageLite"*)* @_ZN19in_memory_url_index38InMemoryURLIndexCacheItem_WordListItem21CheckTypeAndMergeFromERKN6google8protobuf11MessageLiteE to i8*), i8* bitcast (i64 (%"class.in_memory_url_index::InMemoryURLIndexCacheItem_WordListItem"*)* @_ZNK19in_memory_url_index38InMemoryURLIndexCacheItem_WordListItem12ByteSizeLongEv to i8*), i8* bitcast (i32 (%"class.in_memory_url_index::InMemoryURLIndexCacheItem_WordListItem"*)* @_ZNK19in_memory_url_index38InMemoryURLIndexCacheItem_WordListItem13GetCachedSizeEv to i8*), i8* bitcast (i8* (%"class.in_memory_url_index::InMemoryURLIndexCacheItem_WordListItem"*, i8*, %"class.google::protobuf::internal::ParseContext"*)* @_ZN19in_memory_url_index38InMemoryURLIndexCacheItem_WordListItem14_InternalParseEPKcPN6google8protobuf8internal12ParseContextE to i8*), i8* bitcast (i8* (%"class.in_memory_url_index::InMemoryURLIndexCacheItem_WordListItem"*, i8*, %"class.google::protobuf::io::EpsCopyOutputStream"*)* @_ZNK19in_memory_url_index38InMemoryURLIndexCacheItem_WordListItem18_InternalSerializeEPhPN6google8protobuf2io19EpsCopyOutputStreamE to i8*), i8* bitcast (i8* (%"class.google::protobuf::MessageLite"*)* @_ZNK6google8protobuf11MessageLite16InternalGetTableEv to i8*)] }, align 8
@.str = private unnamed_addr constant [63 x i8] c"gen/components/omnibox/browser/in_memory_url_index_cache.pb.cc\00", align 1
@.str.14 = private unnamed_addr constant [59 x i8] c"in_memory_url_index.InMemoryURLIndexCacheItem.WordListItem\00", align 1
@_ZTVN19in_memory_url_index50InMemoryURLIndexCacheItem_WordMapItem_WordMapEntryE = hidden unnamed_addr constant { [16 x i8*] } { [16 x i8*] [i8* null, i8* null, i8* bitcast (void (%"class.in_memory_url_index::InMemoryURLIndexCacheItem_WordMapItem_WordMapEntry"*)* @_ZN19in_memory_url_index50InMemoryURLIndexCacheItem_WordMapItem_WordMapEntryD2Ev to i8*), i8* bitcast (void (%"class.in_memory_url_index::InMemoryURLIndexCacheItem_WordMapItem_WordMapEntry"*)* @_ZN19in_memory_url_index50InMemoryURLIndexCacheItem_WordMapItem_WordMapEntryD0Ev to i8*), i8* bitcast (void (%"class.std::__1::basic_string"*, %"class.in_memory_url_index::InMemoryURLIndexCacheItem_WordMapItem_WordMapEntry"*)* @_ZNK19in_memory_url_index50InMemoryURLIndexCacheItem_WordMapItem_WordMapEntry11GetTypeNameEv to i8*), i8* bitcast (%"class.in_memory_url_index::InMemoryURLIndexCacheItem_WordMapItem_WordMapEntry"* (%"class.in_memory_url_index::InMemoryURLIndexCacheItem_WordMapItem_WordMapEntry"*)* @_ZNK19in_memory_url_index50InMemoryURLIndexCacheItem_WordMapItem_WordMapEntry3NewEv to i8*), i8* bitcast (%"class.in_memory_url_index::InMemoryURLIndexCacheItem_WordMapItem_WordMapEntry"* (%"class.in_memory_url_index::InMemoryURLIndexCacheItem_WordMapItem_WordMapEntry"*, %"class.google::protobuf::Arena"*)* @_ZNK19in_memory_url_index50InMemoryURLIndexCacheItem_WordMapItem_WordMapEntry3NewEPN6google8protobuf5ArenaE to i8*), i8* bitcast (void (%"class.in_memory_url_index::InMemoryURLIndexCacheItem_WordMapItem_WordMapEntry"*)* @_ZN19in_memory_url_index50InMemoryURLIndexCacheItem_WordMapItem_WordMapEntry5ClearEv to i8*), i8* bitcast (i1 (%"class.in_memory_url_index::InMemoryURLIndexCacheItem_WordMapItem_WordMapEntry"*)* @_ZNK19in_memory_url_index50InMemoryURLIndexCacheItem_WordMapItem_WordMapEntry13IsInitializedEv to i8*), i8* bitcast (void (%"class.std::__1::basic_string"*, %"class.google::protobuf::MessageLite"*)* @_ZNK6google8protobuf11MessageLite25InitializationErrorStringEv to i8*), i8* bitcast (void (%"class.in_memory_url_index::InMemoryURLIndexCacheItem_WordMapItem_WordMapEntry"*, %"class.google::protobuf::MessageLite"*)* @_ZN19in_memory_url_index50InMemoryURLIndexCacheItem_WordMapItem_WordMapEntry21CheckTypeAndMergeFromERKN6google8protobuf11MessageLiteE to i8*), i8* bitcast (i64 (%"class.in_memory_url_index::InMemoryURLIndexCacheItem_WordMapItem_WordMapEntry"*)* @_ZNK19in_memory_url_index50InMemoryURLIndexCacheItem_WordMapItem_WordMapEntry12ByteSizeLongEv to i8*), i8* bitcast (i32 (%"class.in_memory_url_index::InMemoryURLIndexCacheItem_WordMapItem_WordMapEntry"*)* @_ZNK19in_memory_url_index50InMemoryURLIndexCacheItem_WordMapItem_WordMapEntry13GetCachedSizeEv to i8*), i8* bitcast (i8* (%"class.in_memory_url_index::InMemoryURLIndexCacheItem_WordMapItem_WordMapEntry"*, i8*, %"class.google::protobuf::internal::ParseContext"*)* @_ZN19in_memory_url_index50InMemoryURLIndexCacheItem_WordMapItem_WordMapEntry14_InternalParseEPKcPN6google8protobuf8internal12ParseContextE to i8*), i8* bitcast (i8* (%"class.in_memory_url_index::InMemoryURLIndexCacheItem_WordMapItem_WordMapEntry"*, i8*, %"class.google::protobuf::io::EpsCopyOutputStream"*)* @_ZNK19in_memory_url_index50InMemoryURLIndexCacheItem_WordMapItem_WordMapEntry18_InternalSerializeEPhPN6google8protobuf2io19EpsCopyOutputStreamE to i8*), i8* bitcast (i8* (%"class.google::protobuf::MessageLite"*)* @_ZNK6google8protobuf11MessageLite16InternalGetTableEv to i8*)] }, align 8
@.str.15 = private unnamed_addr constant [71 x i8] c"in_memory_url_index.InMemoryURLIndexCacheItem.WordMapItem.WordMapEntry\00", align 1
@_ZTVN19in_memory_url_index37InMemoryURLIndexCacheItem_WordMapItemE = hidden unnamed_addr constant { [16 x i8*] } { [16 x i8*] [i8* null, i8* null, i8* bitcast (void (%"class.in_memory_url_index::InMemoryURLIndexCacheItem_WordMapItem"*)* @_ZN19in_memory_url_index37InMemoryURLIndexCacheItem_WordMapItemD2Ev to i8*), i8* bitcast (void (%"class.in_memory_url_index::InMemoryURLIndexCacheItem_WordMapItem"*)* @_ZN19in_memory_url_index37InMemoryURLIndexCacheItem_WordMapItemD0Ev to i8*), i8* bitcast (void (%"class.std::__1::basic_string"*, %"class.in_memory_url_index::InMemoryURLIndexCacheItem_WordMapItem"*)* @_ZNK19in_memory_url_index37InMemoryURLIndexCacheItem_WordMapItem11GetTypeNameEv to i8*), i8* bitcast (%"class.in_memory_url_index::InMemoryURLIndexCacheItem_WordMapItem"* (%"class.in_memory_url_index::InMemoryURLIndexCacheItem_WordMapItem"*)* @_ZNK19in_memory_url_index37InMemoryURLIndexCacheItem_WordMapItem3NewEv to i8*), i8* bitcast (%"class.in_memory_url_index::InMemoryURLIndexCacheItem_WordMapItem"* (%"class.in_memory_url_index::InMemoryURLIndexCacheItem_WordMapItem"*, %"class.google::protobuf::Arena"*)* @_ZNK19in_memory_url_index37InMemoryURLIndexCacheItem_WordMapItem3NewEPN6google8protobuf5ArenaE to i8*), i8* bitcast (void (%"class.in_memory_url_index::InMemoryURLIndexCacheItem_WordMapItem"*)* @_ZN19in_memory_url_index37InMemoryURLIndexCacheItem_WordMapItem5ClearEv to i8*), i8* bitcast (i1 (%"class.in_memory_url_index::InMemoryURLIndexCacheItem_WordMapItem"*)* @_ZNK19in_memory_url_index37InMemoryURLIndexCacheItem_WordMapItem13IsInitializedEv to i8*), i8* bitcast (void (%"class.std::__1::basic_string"*, %"class.google::protobuf::MessageLite"*)* @_ZNK6google8protobuf11MessageLite25InitializationErrorStringEv to i8*), i8* bitcast (void (%"class.in_memory_url_index::InMemoryURLIndexCacheItem_WordMapItem"*, %"class.google::protobuf::MessageLite"*)* @_ZN19in_memory_url_index37InMemoryURLIndexCacheItem_WordMapItem21CheckTypeAndMergeFromERKN6google8protobuf11MessageLiteE to i8*), i8* bitcast (i64 (%"class.in_memory_url_index::InMemoryURLIndexCacheItem_WordMapItem"*)* @_ZNK19in_memory_url_index37InMemoryURLIndexCacheItem_WordMapItem12ByteSizeLongEv to i8*), i8* bitcast (i32 (%"class.in_memory_url_index::InMemoryURLIndexCacheItem_WordMapItem"*)* @_ZNK19in_memory_url_index37InMemoryURLIndexCacheItem_WordMapItem13GetCachedSizeEv to i8*), i8* bitcast (i8* (%"class.in_memory_url_index::InMemoryURLIndexCacheItem_WordMapItem"*, i8*, %"class.google::protobuf::internal::ParseContext"*)* @_ZN19in_memory_url_index37InMemoryURLIndexCacheItem_WordMapItem14_InternalParseEPKcPN6google8protobuf8internal12ParseContextE to i8*), i8* bitcast (i8* (%"class.in_memory_url_index::InMemoryURLIndexCacheItem_WordMapItem"*, i8*, %"class.google::protobuf::io::EpsCopyOutputStream"*)* @_ZNK19in_memory_url_index37InMemoryURLIndexCacheItem_WordMapItem18_InternalSerializeEPhPN6google8protobuf2io19EpsCopyOutputStreamE to i8*), i8* bitcast (i8* (%"class.google::protobuf::MessageLite"*)* @_ZNK6google8protobuf11MessageLite16InternalGetTableEv to i8*)] }, align 8
@.str.16 = private unnamed_addr constant [58 x i8] c"in_memory_url_index.InMemoryURLIndexCacheItem.WordMapItem\00", align 1
@_ZTVN19in_memory_url_index58InMemoryURLIndexCacheItem_CharWordMapItem_CharWordMapEntryE = hidden unnamed_addr constant { [16 x i8*] } { [16 x i8*] [i8* null, i8* null, i8* bitcast (void (%"class.in_memory_url_index::InMemoryURLIndexCacheItem_CharWordMapItem_CharWordMapEntry"*)* @_ZN19in_memory_url_index58InMemoryURLIndexCacheItem_CharWordMapItem_CharWordMapEntryD2Ev to i8*), i8* bitcast (void (%"class.in_memory_url_index::InMemoryURLIndexCacheItem_CharWordMapItem_CharWordMapEntry"*)* @_ZN19in_memory_url_index58InMemoryURLIndexCacheItem_CharWordMapItem_CharWordMapEntryD0Ev to i8*), i8* bitcast (void (%"class.std::__1::basic_string"*, %"class.in_memory_url_index::InMemoryURLIndexCacheItem_CharWordMapItem_CharWordMapEntry"*)* @_ZNK19in_memory_url_index58InMemoryURLIndexCacheItem_CharWordMapItem_CharWordMapEntry11GetTypeNameEv to i8*), i8* bitcast (%"class.in_memory_url_index::InMemoryURLIndexCacheItem_CharWordMapItem_CharWordMapEntry"* (%"class.in_memory_url_index::InMemoryURLIndexCacheItem_CharWordMapItem_CharWordMapEntry"*)* @_ZNK19in_memory_url_index58InMemoryURLIndexCacheItem_CharWordMapItem_CharWordMapEntry3NewEv to i8*), i8* bitcast (%"class.in_memory_url_index::InMemoryURLIndexCacheItem_CharWordMapItem_CharWordMapEntry"* (%"class.in_memory_url_index::InMemoryURLIndexCacheItem_CharWordMapItem_CharWordMapEntry"*, %"class.google::protobuf::Arena"*)* @_ZNK19in_memory_url_index58InMemoryURLIndexCacheItem_CharWordMapItem_CharWordMapEntry3NewEPN6google8protobuf5ArenaE to i8*), i8* bitcast (void (%"class.in_memory_url_index::InMemoryURLIndexCacheItem_CharWordMapItem_CharWordMapEntry"*)* @_ZN19in_memory_url_index58InMemoryURLIndexCacheItem_CharWordMapItem_CharWordMapEntry5ClearEv to i8*), i8* bitcast (i1 (%"class.in_memory_url_index::InMemoryURLIndexCacheItem_CharWordMapItem_CharWordMapEntry"*)* @_ZNK19in_memory_url_index58InMemoryURLIndexCacheItem_CharWordMapItem_CharWordMapEntry13IsInitializedEv to i8*), i8* bitcast (void (%"class.std::__1::basic_string"*, %"class.google::protobuf::MessageLite"*)* @_ZNK6google8protobuf11MessageLite25InitializationErrorStringEv to i8*), i8* bitcast (void (%"class.in_memory_url_index::InMemoryURLIndexCacheItem_CharWordMapItem_CharWordMapEntry"*, %"class.google::protobuf::MessageLite"*)* @_ZN19in_memory_url_index58InMemoryURLIndexCacheItem_CharWordMapItem_CharWordMapEntry21CheckTypeAndMergeFromERKN6google8protobuf11MessageLiteE to i8*), i8* bitcast (i64 (%"class.in_memory_url_index::InMemoryURLIndexCacheItem_CharWordMapItem_CharWordMapEntry"*)* @_ZNK19in_memory_url_index58InMemoryURLIndexCacheItem_CharWordMapItem_CharWordMapEntry12ByteSizeLongEv to i8*), i8* bitcast (i32 (%"class.in_memory_url_index::InMemoryURLIndexCacheItem_CharWordMapItem_CharWordMapEntry"*)* @_ZNK19in_memory_url_index58InMemoryURLIndexCacheItem_CharWordMapItem_CharWordMapEntry13GetCachedSizeEv to i8*), i8* bitcast (i8* (%"class.in_memory_url_index::InMemoryURLIndexCacheItem_CharWordMapItem_CharWordMapEntry"*, i8*, %"class.google::protobuf::internal::ParseContext"*)* @_ZN19in_memory_url_index58InMemoryURLIndexCacheItem_CharWordMapItem_CharWordMapEntry14_InternalParseEPKcPN6google8protobuf8internal12ParseContextE to i8*), i8* bitcast (i8* (%"class.in_memory_url_index::InMemoryURLIndexCacheItem_CharWordMapItem_CharWordMapEntry"*, i8*, %"class.google::protobuf::io::EpsCopyOutputStream"*)* @_ZNK19in_memory_url_index58InMemoryURLIndexCacheItem_CharWordMapItem_CharWordMapEntry18_InternalSerializeEPhPN6google8protobuf2io19EpsCopyOutputStreamE to i8*), i8* bitcast (i8* (%"class.google::protobuf::MessageLite"*)* @_ZNK6google8protobuf11MessageLite16InternalGetTableEv to i8*)] }, align 8
@.str.17 = private unnamed_addr constant [79 x i8] c"in_memory_url_index.InMemoryURLIndexCacheItem.CharWordMapItem.CharWordMapEntry\00", align 1
@_ZTVN19in_memory_url_index41InMemoryURLIndexCacheItem_CharWordMapItemE = hidden unnamed_addr constant { [16 x i8*] } { [16 x i8*] [i8* null, i8* null, i8* bitcast (void (%"class.in_memory_url_index::InMemoryURLIndexCacheItem_CharWordMapItem"*)* @_ZN19in_memory_url_index41InMemoryURLIndexCacheItem_CharWordMapItemD2Ev to i8*), i8* bitcast (void (%"class.in_memory_url_index::InMemoryURLIndexCacheItem_CharWordMapItem"*)* @_ZN19in_memory_url_index41InMemoryURLIndexCacheItem_CharWordMapItemD0Ev to i8*), i8* bitcast (void (%"class.std::__1::basic_string"*, %"class.in_memory_url_index::InMemoryURLIndexCacheItem_CharWordMapItem"*)* @_ZNK19in_memory_url_index41InMemoryURLIndexCacheItem_CharWordMapItem11GetTypeNameEv to i8*), i8* bitcast (%"class.in_memory_url_index::InMemoryURLIndexCacheItem_CharWordMapItem"* (%"class.in_memory_url_index::InMemoryURLIndexCacheItem_CharWordMapItem"*)* @_ZNK19in_memory_url_index41InMemoryURLIndexCacheItem_CharWordMapItem3NewEv to i8*), i8* bitcast (%"class.in_memory_url_index::InMemoryURLIndexCacheItem_CharWordMapItem"* (%"class.in_memory_url_index::InMemoryURLIndexCacheItem_CharWordMapItem"*, %"class.google::protobuf::Arena"*)* @_ZNK19in_memory_url_index41InMemoryURLIndexCacheItem_CharWordMapItem3NewEPN6google8protobuf5ArenaE to i8*), i8* bitcast (void (%"class.in_memory_url_index::InMemoryURLIndexCacheItem_CharWordMapItem"*)* @_ZN19in_memory_url_index41InMemoryURLIndexCacheItem_CharWordMapItem5ClearEv to i8*), i8* bitcast (i1 (%"class.in_memory_url_index::InMemoryURLIndexCacheItem_CharWordMapItem"*)* @_ZNK19in_memory_url_index41InMemoryURLIndexCacheItem_CharWordMapItem13IsInitializedEv to i8*), i8* bitcast (void (%"class.std::__1::basic_string"*, %"class.google::protobuf::MessageLite"*)* @_ZNK6google8protobuf11MessageLite25InitializationErrorStringEv to i8*), i8* bitcast (void (%"class.in_memory_url_index::InMemoryURLIndexCacheItem_CharWordMapItem"*, %"class.google::protobuf::MessageLite"*)* @_ZN19in_memory_url_index41InMemoryURLIndexCacheItem_CharWordMapItem21CheckTypeAndMergeFromERKN6google8protobuf11MessageLiteE to i8*), i8* bitcast (i64 (%"class.in_memory_url_index::InMemoryURLIndexCacheItem_CharWordMapItem"*)* @_ZNK19in_memory_url_index41InMemoryURLIndexCacheItem_CharWordMapItem12ByteSizeLongEv to i8*), i8* bitcast (i32 (%"class.in_memory_url_index::InMemoryURLIndexCacheItem_CharWordMapItem"*)* @_ZNK19in_memory_url_index41InMemoryURLIndexCacheItem_CharWordMapItem13GetCachedSizeEv to i8*), i8* bitcast (i8* (%"class.in_memory_url_index::InMemoryURLIndexCacheItem_CharWordMapItem"*, i8*, %"class.google::protobuf::internal::ParseContext"*)* @_ZN19in_memory_url_index41InMemoryURLIndexCacheItem_CharWordMapItem14_InternalParseEPKcPN6google8protobuf8internal12ParseContextE to i8*), i8* bitcast (i8* (%"class.in_memory_url_index::InMemoryURLIndexCacheItem_CharWordMapItem"*, i8*, %"class.google::protobuf::io::EpsCopyOutputStream"*)* @_ZNK19in_memory_url_index41InMemoryURLIndexCacheItem_CharWordMapItem18_InternalSerializeEPhPN6google8protobuf2io19EpsCopyOutputStreamE to i8*), i8* bitcast (i8* (%"class.google::protobuf::MessageLite"*)* @_ZNK6google8protobuf11MessageLite16InternalGetTableEv to i8*)] }, align 8
@.str.18 = private unnamed_addr constant [62 x i8] c"in_memory_url_index.InMemoryURLIndexCacheItem.CharWordMapItem\00", align 1
@_ZTVN19in_memory_url_index68InMemoryURLIndexCacheItem_WordIDHistoryMapItem_WordIDHistoryMapEntryE = hidden unnamed_addr constant { [16 x i8*] } { [16 x i8*] [i8* null, i8* null, i8* bitcast (void (%"class.in_memory_url_index::InMemoryURLIndexCacheItem_WordIDHistoryMapItem_WordIDHistoryMapEntry"*)* @_ZN19in_memory_url_index68InMemoryURLIndexCacheItem_WordIDHistoryMapItem_WordIDHistoryMapEntryD2Ev to i8*), i8* bitcast (void (%"class.in_memory_url_index::InMemoryURLIndexCacheItem_WordIDHistoryMapItem_WordIDHistoryMapEntry"*)* @_ZN19in_memory_url_index68InMemoryURLIndexCacheItem_WordIDHistoryMapItem_WordIDHistoryMapEntryD0Ev to i8*), i8* bitcast (void (%"class.std::__1::basic_string"*, %"class.in_memory_url_index::InMemoryURLIndexCacheItem_WordIDHistoryMapItem_WordIDHistoryMapEntry"*)* @_ZNK19in_memory_url_index68InMemoryURLIndexCacheItem_WordIDHistoryMapItem_WordIDHistoryMapEntry11GetTypeNameEv to i8*), i8* bitcast (%"class.in_memory_url_index::InMemoryURLIndexCacheItem_WordIDHistoryMapItem_WordIDHistoryMapEntry"* (%"class.in_memory_url_index::InMemoryURLIndexCacheItem_WordIDHistoryMapItem_WordIDHistoryMapEntry"*)* @_ZNK19in_memory_url_index68InMemoryURLIndexCacheItem_WordIDHistoryMapItem_WordIDHistoryMapEntry3NewEv to i8*), i8* bitcast (%"class.in_memory_url_index::InMemoryURLIndexCacheItem_WordIDHistoryMapItem_WordIDHistoryMapEntry"* (%"class.in_memory_url_index::InMemoryURLIndexCacheItem_WordIDHistoryMapItem_WordIDHistoryMapEntry"*, %"class.google::protobuf::Arena"*)* @_ZNK19in_memory_url_index68InMemoryURLIndexCacheItem_WordIDHistoryMapItem_WordIDHistoryMapEntry3NewEPN6google8protobuf5ArenaE to i8*), i8* bitcast (void (%"class.in_memory_url_index::InMemoryURLIndexCacheItem_WordIDHistoryMapItem_WordIDHistoryMapEntry"*)* @_ZN19in_memory_url_index68InMemoryURLIndexCacheItem_WordIDHistoryMapItem_WordIDHistoryMapEntry5ClearEv to i8*), i8* bitcast (i1 (%"class.in_memory_url_index::InMemoryURLIndexCacheItem_WordIDHistoryMapItem_WordIDHistoryMapEntry"*)* @_ZNK19in_memory_url_index68InMemoryURLIndexCacheItem_WordIDHistoryMapItem_WordIDHistoryMapEntry13IsInitializedEv to i8*), i8* bitcast (void (%"class.std::__1::basic_string"*, %"class.google::protobuf::MessageLite"*)* @_ZNK6google8protobuf11MessageLite25InitializationErrorStringEv to i8*), i8* bitcast (void (%"class.in_memory_url_index::InMemoryURLIndexCacheItem_WordIDHistoryMapItem_WordIDHistoryMapEntry"*, %"class.google::protobuf::MessageLite"*)* @_ZN19in_memory_url_index68InMemoryURLIndexCacheItem_WordIDHistoryMapItem_WordIDHistoryMapEntry21CheckTypeAndMergeFromERKN6google8protobuf11MessageLiteE to i8*), i8* bitcast (i64 (%"class.in_memory_url_index::InMemoryURLIndexCacheItem_WordIDHistoryMapItem_WordIDHistoryMapEntry"*)* @_ZNK19in_memory_url_index68InMemoryURLIndexCacheItem_WordIDHistoryMapItem_WordIDHistoryMapEntry12ByteSizeLongEv to i8*), i8* bitcast (i32 (%"class.in_memory_url_index::InMemoryURLIndexCacheItem_WordIDHistoryMapItem_WordIDHistoryMapEntry"*)* @_ZNK19in_memory_url_index68InMemoryURLIndexCacheItem_WordIDHistoryMapItem_WordIDHistoryMapEntry13GetCachedSizeEv to i8*), i8* bitcast (i8* (%"class.in_memory_url_index::InMemoryURLIndexCacheItem_WordIDHistoryMapItem_WordIDHistoryMapEntry"*, i8*, %"class.google::protobuf::internal::ParseContext"*)* @_ZN19in_memory_url_index68InMemoryURLIndexCacheItem_WordIDHistoryMapItem_WordIDHistoryMapEntry14_InternalParseEPKcPN6google8protobuf8internal12ParseContextE to i8*), i8* bitcast (i8* (%"class.in_memory_url_index::InMemoryURLIndexCacheItem_WordIDHistoryMapItem_WordIDHistoryMapEntry"*, i8*, %"class.google::protobuf::io::EpsCopyOutputStream"*)* @_ZNK19in_memory_url_index68InMemoryURLIndexCacheItem_WordIDHistoryMapItem_WordIDHistoryMapEntry18_InternalSerializeEPhPN6google8protobuf2io19EpsCopyOutputStreamE to i8*), i8* bitcast (i8* (%"class.google::protobuf::MessageLite"*)* @_ZNK6google8protobuf11MessageLite16InternalGetTableEv to i8*)] }, align 8
@.str.19 = private unnamed_addr constant [89 x i8] c"in_memory_url_index.InMemoryURLIndexCacheItem.WordIDHistoryMapItem.WordIDHistoryMapEntry\00", align 1
@_ZTVN19in_memory_url_index46InMemoryURLIndexCacheItem_WordIDHistoryMapItemE = hidden unnamed_addr constant { [16 x i8*] } { [16 x i8*] [i8* null, i8* null, i8* bitcast (void (%"class.in_memory_url_index::InMemoryURLIndexCacheItem_WordIDHistoryMapItem"*)* @_ZN19in_memory_url_index46InMemoryURLIndexCacheItem_WordIDHistoryMapItemD2Ev to i8*), i8* bitcast (void (%"class.in_memory_url_index::InMemoryURLIndexCacheItem_WordIDHistoryMapItem"*)* @_ZN19in_memory_url_index46InMemoryURLIndexCacheItem_WordIDHistoryMapItemD0Ev to i8*), i8* bitcast (void (%"class.std::__1::basic_string"*, %"class.in_memory_url_index::InMemoryURLIndexCacheItem_WordIDHistoryMapItem"*)* @_ZNK19in_memory_url_index46InMemoryURLIndexCacheItem_WordIDHistoryMapItem11GetTypeNameEv to i8*), i8* bitcast (%"class.in_memory_url_index::InMemoryURLIndexCacheItem_WordIDHistoryMapItem"* (%"class.in_memory_url_index::InMemoryURLIndexCacheItem_WordIDHistoryMapItem"*)* @_ZNK19in_memory_url_index46InMemoryURLIndexCacheItem_WordIDHistoryMapItem3NewEv to i8*), i8* bitcast (%"class.in_memory_url_index::InMemoryURLIndexCacheItem_WordIDHistoryMapItem"* (%"class.in_memory_url_index::InMemoryURLIndexCacheItem_WordIDHistoryMapItem"*, %"class.google::protobuf::Arena"*)* @_ZNK19in_memory_url_index46InMemoryURLIndexCacheItem_WordIDHistoryMapItem3NewEPN6google8protobuf5ArenaE to i8*), i8* bitcast (void (%"class.in_memory_url_index::InMemoryURLIndexCacheItem_WordIDHistoryMapItem"*)* @_ZN19in_memory_url_index46InMemoryURLIndexCacheItem_WordIDHistoryMapItem5ClearEv to i8*), i8* bitcast (i1 (%"class.in_memory_url_index::InMemoryURLIndexCacheItem_WordIDHistoryMapItem"*)* @_ZNK19in_memory_url_index46InMemoryURLIndexCacheItem_WordIDHistoryMapItem13IsInitializedEv to i8*), i8* bitcast (void (%"class.std::__1::basic_string"*, %"class.google::protobuf::MessageLite"*)* @_ZNK6google8protobuf11MessageLite25InitializationErrorStringEv to i8*), i8* bitcast (void (%"class.in_memory_url_index::InMemoryURLIndexCacheItem_WordIDHistoryMapItem"*, %"class.google::protobuf::MessageLite"*)* @_ZN19in_memory_url_index46InMemoryURLIndexCacheItem_WordIDHistoryMapItem21CheckTypeAndMergeFromERKN6google8protobuf11MessageLiteE to i8*), i8* bitcast (i64 (%"class.in_memory_url_index::InMemoryURLIndexCacheItem_WordIDHistoryMapItem"*)* @_ZNK19in_memory_url_index46InMemoryURLIndexCacheItem_WordIDHistoryMapItem12ByteSizeLongEv to i8*), i8* bitcast (i32 (%"class.in_memory_url_index::InMemoryURLIndexCacheItem_WordIDHistoryMapItem"*)* @_ZNK19in_memory_url_index46InMemoryURLIndexCacheItem_WordIDHistoryMapItem13GetCachedSizeEv to i8*), i8* bitcast (i8* (%"class.in_memory_url_index::InMemoryURLIndexCacheItem_WordIDHistoryMapItem"*, i8*, %"class.google::protobuf::internal::ParseContext"*)* @_ZN19in_memory_url_index46InMemoryURLIndexCacheItem_WordIDHistoryMapItem14_InternalParseEPKcPN6google8protobuf8internal12ParseContextE to i8*), i8* bitcast (i8* (%"class.in_memory_url_index::InMemoryURLIndexCacheItem_WordIDHistoryMapItem"*, i8*, %"class.google::protobuf::io::EpsCopyOutputStream"*)* @_ZNK19in_memory_url_index46InMemoryURLIndexCacheItem_WordIDHistoryMapItem18_InternalSerializeEPhPN6google8protobuf2io19EpsCopyOutputStreamE to i8*), i8* bitcast (i8* (%"class.google::protobuf::MessageLite"*)* @_ZNK6google8protobuf11MessageLite16InternalGetTableEv to i8*)] }, align 8
@.str.20 = private unnamed_addr constant [67 x i8] c"in_memory_url_index.InMemoryURLIndexCacheItem.WordIDHistoryMapItem\00", align 1
@_ZTVN19in_memory_url_index74InMemoryURLIndexCacheItem_HistoryInfoMapItem_HistoryInfoMapEntry_VisitInfoE = hidden unnamed_addr constant { [16 x i8*] } { [16 x i8*] [i8* null, i8* null, i8* bitcast (void (%"class.in_memory_url_index::InMemoryURLIndexCacheItem_HistoryInfoMapItem_HistoryInfoMapEntry_VisitInfo"*)* @_ZN19in_memory_url_index74InMemoryURLIndexCacheItem_HistoryInfoMapItem_HistoryInfoMapEntry_VisitInfoD2Ev to i8*), i8* bitcast (void (%"class.in_memory_url_index::InMemoryURLIndexCacheItem_HistoryInfoMapItem_HistoryInfoMapEntry_VisitInfo"*)* @_ZN19in_memory_url_index74InMemoryURLIndexCacheItem_HistoryInfoMapItem_HistoryInfoMapEntry_VisitInfoD0Ev to i8*), i8* bitcast (void (%"class.std::__1::basic_string"*, %"class.in_memory_url_index::InMemoryURLIndexCacheItem_HistoryInfoMapItem_HistoryInfoMapEntry_VisitInfo"*)* @_ZNK19in_memory_url_index74InMemoryURLIndexCacheItem_HistoryInfoMapItem_HistoryInfoMapEntry_VisitInfo11GetTypeNameEv to i8*), i8* bitcast (%"class.in_memory_url_index::InMemoryURLIndexCacheItem_HistoryInfoMapItem_HistoryInfoMapEntry_VisitInfo"* (%"class.in_memory_url_index::InMemoryURLIndexCacheItem_HistoryInfoMapItem_HistoryInfoMapEntry_VisitInfo"*)* @_ZNK19in_memory_url_index74InMemoryURLIndexCacheItem_HistoryInfoMapItem_HistoryInfoMapEntry_VisitInfo3NewEv to i8*), i8* bitcast (%"class.in_memory_url_index::InMemoryURLIndexCacheItem_HistoryInfoMapItem_HistoryInfoMapEntry_VisitInfo"* (%"class.in_memory_url_index::InMemoryURLIndexCacheItem_HistoryInfoMapItem_HistoryInfoMapEntry_VisitInfo"*, %"class.google::protobuf::Arena"*)* @_ZNK19in_memory_url_index74InMemoryURLIndexCacheItem_HistoryInfoMapItem_HistoryInfoMapEntry_VisitInfo3NewEPN6google8protobuf5ArenaE to i8*), i8* bitcast (void (%"class.in_memory_url_index::InMemoryURLIndexCacheItem_HistoryInfoMapItem_HistoryInfoMapEntry_VisitInfo"*)* @_ZN19in_memory_url_index74InMemoryURLIndexCacheItem_HistoryInfoMapItem_HistoryInfoMapEntry_VisitInfo5ClearEv to i8*), i8* bitcast (i1 (%"class.in_memory_url_index::InMemoryURLIndexCacheItem_HistoryInfoMapItem_HistoryInfoMapEntry_VisitInfo"*)* @_ZNK19in_memory_url_index74InMemoryURLIndexCacheItem_HistoryInfoMapItem_HistoryInfoMapEntry_VisitInfo13IsInitializedEv to i8*), i8* bitcast (void (%"class.std::__1::basic_string"*, %"class.google::protobuf::MessageLite"*)* @_ZNK6google8protobuf11MessageLite25InitializationErrorStringEv to i8*), i8* bitcast (void (%"class.in_memory_url_index::InMemoryURLIndexCacheItem_HistoryInfoMapItem_HistoryInfoMapEntry_VisitInfo"*, %"class.google::protobuf::MessageLite"*)* @_ZN19in_memory_url_index74InMemoryURLIndexCacheItem_HistoryInfoMapItem_HistoryInfoMapEntry_VisitInfo21CheckTypeAndMergeFromERKN6google8protobuf11MessageLiteE to i8*), i8* bitcast (i64 (%"class.in_memory_url_index::InMemoryURLIndexCacheItem_HistoryInfoMapItem_HistoryInfoMapEntry_VisitInfo"*)* @_ZNK19in_memory_url_index74InMemoryURLIndexCacheItem_HistoryInfoMapItem_HistoryInfoMapEntry_VisitInfo12ByteSizeLongEv to i8*), i8* bitcast (i32 (%"class.in_memory_url_index::InMemoryURLIndexCacheItem_HistoryInfoMapItem_HistoryInfoMapEntry_VisitInfo"*)* @_ZNK19in_memory_url_index74InMemoryURLIndexCacheItem_HistoryInfoMapItem_HistoryInfoMapEntry_VisitInfo13GetCachedSizeEv to i8*), i8* bitcast (i8* (%"class.in_memory_url_index::InMemoryURLIndexCacheItem_HistoryInfoMapItem_HistoryInfoMapEntry_VisitInfo"*, i8*, %"class.google::protobuf::internal::ParseContext"*)* @_ZN19in_memory_url_index74InMemoryURLIndexCacheItem_HistoryInfoMapItem_HistoryInfoMapEntry_VisitInfo14_InternalParseEPKcPN6google8protobuf8internal12ParseContextE to i8*), i8* bitcast (i8* (%"class.in_memory_url_index::InMemoryURLIndexCacheItem_HistoryInfoMapItem_HistoryInfoMapEntry_VisitInfo"*, i8*, %"class.google::protobuf::io::EpsCopyOutputStream"*)* @_ZNK19in_memory_url_index74InMemoryURLIndexCacheItem_HistoryInfoMapItem_HistoryInfoMapEntry_VisitInfo18_InternalSerializeEPhPN6google8protobuf2io19EpsCopyOutputStreamE to i8*), i8* bitcast (i8* (%"class.google::protobuf::MessageLite"*)* @_ZNK6google8protobuf11MessageLite16InternalGetTableEv to i8*)] }, align 8
@.str.21 = private unnamed_addr constant [95 x i8] c"in_memory_url_index.InMemoryURLIndexCacheItem.HistoryInfoMapItem.HistoryInfoMapEntry.VisitInfo\00", align 1
@_ZTVN19in_memory_url_index64InMemoryURLIndexCacheItem_HistoryInfoMapItem_HistoryInfoMapEntryE = hidden unnamed_addr constant { [16 x i8*] } { [16 x i8*] [i8* null, i8* null, i8* bitcast (void (%"class.in_memory_url_index::InMemoryURLIndexCacheItem_HistoryInfoMapItem_HistoryInfoMapEntry"*)* @_ZN19in_memory_url_index64InMemoryURLIndexCacheItem_HistoryInfoMapItem_HistoryInfoMapEntryD2Ev to i8*), i8* bitcast (void (%"class.in_memory_url_index::InMemoryURLIndexCacheItem_HistoryInfoMapItem_HistoryInfoMapEntry"*)* @_ZN19in_memory_url_index64InMemoryURLIndexCacheItem_HistoryInfoMapItem_HistoryInfoMapEntryD0Ev to i8*), i8* bitcast (void (%"class.std::__1::basic_string"*, %"class.in_memory_url_index::InMemoryURLIndexCacheItem_HistoryInfoMapItem_HistoryInfoMapEntry"*)* @_ZNK19in_memory_url_index64InMemoryURLIndexCacheItem_HistoryInfoMapItem_HistoryInfoMapEntry11GetTypeNameEv to i8*), i8* bitcast (%"class.in_memory_url_index::InMemoryURLIndexCacheItem_HistoryInfoMapItem_HistoryInfoMapEntry"* (%"class.in_memory_url_index::InMemoryURLIndexCacheItem_HistoryInfoMapItem_HistoryInfoMapEntry"*)* @_ZNK19in_memory_url_index64InMemoryURLIndexCacheItem_HistoryInfoMapItem_HistoryInfoMapEntry3NewEv to i8*), i8* bitcast (%"class.in_memory_url_index::InMemoryURLIndexCacheItem_HistoryInfoMapItem_HistoryInfoMapEntry"* (%"class.in_memory_url_index::InMemoryURLIndexCacheItem_HistoryInfoMapItem_HistoryInfoMapEntry"*, %"class.google::protobuf::Arena"*)* @_ZNK19in_memory_url_index64InMemoryURLIndexCacheItem_HistoryInfoMapItem_HistoryInfoMapEntry3NewEPN6google8protobuf5ArenaE to i8*), i8* bitcast (void (%"class.in_memory_url_index::InMemoryURLIndexCacheItem_HistoryInfoMapItem_HistoryInfoMapEntry"*)* @_ZN19in_memory_url_index64InMemoryURLIndexCacheItem_HistoryInfoMapItem_HistoryInfoMapEntry5ClearEv to i8*), i8* bitcast (i1 (%"class.in_memory_url_index::InMemoryURLIndexCacheItem_HistoryInfoMapItem_HistoryInfoMapEntry"*)* @_ZNK19in_memory_url_index64InMemoryURLIndexCacheItem_HistoryInfoMapItem_HistoryInfoMapEntry13IsInitializedEv to i8*), i8* bitcast (void (%"class.std::__1::basic_string"*, %"class.google::protobuf::MessageLite"*)* @_ZNK6google8protobuf11MessageLite25InitializationErrorStringEv to i8*), i8* bitcast (void (%"class.in_memory_url_index::InMemoryURLIndexCacheItem_HistoryInfoMapItem_HistoryInfoMapEntry"*, %"class.google::protobuf::MessageLite"*)* @_ZN19in_memory_url_index64InMemoryURLIndexCacheItem_HistoryInfoMapItem_HistoryInfoMapEntry21CheckTypeAndMergeFromERKN6google8protobuf11MessageLiteE to i8*), i8* bitcast (i64 (%"class.in_memory_url_index::InMemoryURLIndexCacheItem_HistoryInfoMapItem_HistoryInfoMapEntry"*)* @_ZNK19in_memory_url_index64InMemoryURLIndexCacheItem_HistoryInfoMapItem_HistoryInfoMapEntry12ByteSizeLongEv to i8*), i8* bitcast (i32 (%"class.in_memory_url_index::InMemoryURLIndexCacheItem_HistoryInfoMapItem_HistoryInfoMapEntry"*)* @_ZNK19in_memory_url_index64InMemoryURLIndexCacheItem_HistoryInfoMapItem_HistoryInfoMapEntry13GetCachedSizeEv to i8*), i8* bitcast (i8* (%"class.in_memory_url_index::InMemoryURLIndexCacheItem_HistoryInfoMapItem_HistoryInfoMapEntry"*, i8*, %"class.google::protobuf::internal::ParseContext"*)* @_ZN19in_memory_url_index64InMemoryURLIndexCacheItem_HistoryInfoMapItem_HistoryInfoMapEntry14_InternalParseEPKcPN6google8protobuf8internal12ParseContextE to i8*), i8* bitcast (i8* (%"class.in_memory_url_index::InMemoryURLIndexCacheItem_HistoryInfoMapItem_HistoryInfoMapEntry"*, i8*, %"class.google::protobuf::io::EpsCopyOutputStream"*)* @_ZNK19in_memory_url_index64InMemoryURLIndexCacheItem_HistoryInfoMapItem_HistoryInfoMapEntry18_InternalSerializeEPhPN6google8protobuf2io19EpsCopyOutputStreamE to i8*), i8* bitcast (i8* (%"class.google::protobuf::MessageLite"*)* @_ZNK6google8protobuf11MessageLite16InternalGetTableEv to i8*)] }, align 8
@.str.22 = private unnamed_addr constant [85 x i8] c"in_memory_url_index.InMemoryURLIndexCacheItem.HistoryInfoMapItem.HistoryInfoMapEntry\00", align 1
@_ZTVN19in_memory_url_index44InMemoryURLIndexCacheItem_HistoryInfoMapItemE = hidden unnamed_addr constant { [16 x i8*] } { [16 x i8*] [i8* null, i8* null, i8* bitcast (void (%"class.in_memory_url_index::InMemoryURLIndexCacheItem_HistoryInfoMapItem"*)* @_ZN19in_memory_url_index44InMemoryURLIndexCacheItem_HistoryInfoMapItemD2Ev to i8*), i8* bitcast (void (%"class.in_memory_url_index::InMemoryURLIndexCacheItem_HistoryInfoMapItem"*)* @_ZN19in_memory_url_index44InMemoryURLIndexCacheItem_HistoryInfoMapItemD0Ev to i8*), i8* bitcast (void (%"class.std::__1::basic_string"*, %"class.in_memory_url_index::InMemoryURLIndexCacheItem_HistoryInfoMapItem"*)* @_ZNK19in_memory_url_index44InMemoryURLIndexCacheItem_HistoryInfoMapItem11GetTypeNameEv to i8*), i8* bitcast (%"class.in_memory_url_index::InMemoryURLIndexCacheItem_HistoryInfoMapItem"* (%"class.in_memory_url_index::InMemoryURLIndexCacheItem_HistoryInfoMapItem"*)* @_ZNK19in_memory_url_index44InMemoryURLIndexCacheItem_HistoryInfoMapItem3NewEv to i8*), i8* bitcast (%"class.in_memory_url_index::InMemoryURLIndexCacheItem_HistoryInfoMapItem"* (%"class.in_memory_url_index::InMemoryURLIndexCacheItem_HistoryInfoMapItem"*, %"class.google::protobuf::Arena"*)* @_ZNK19in_memory_url_index44InMemoryURLIndexCacheItem_HistoryInfoMapItem3NewEPN6google8protobuf5ArenaE to i8*), i8* bitcast (void (%"class.in_memory_url_index::InMemoryURLIndexCacheItem_HistoryInfoMapItem"*)* @_ZN19in_memory_url_index44InMemoryURLIndexCacheItem_HistoryInfoMapItem5ClearEv to i8*), i8* bitcast (i1 (%"class.in_memory_url_index::InMemoryURLIndexCacheItem_HistoryInfoMapItem"*)* @_ZNK19in_memory_url_index44InMemoryURLIndexCacheItem_HistoryInfoMapItem13IsInitializedEv to i8*), i8* bitcast (void (%"class.std::__1::basic_string"*, %"class.google::protobuf::MessageLite"*)* @_ZNK6google8protobuf11MessageLite25InitializationErrorStringEv to i8*), i8* bitcast (void (%"class.in_memory_url_index::InMemoryURLIndexCacheItem_HistoryInfoMapItem"*, %"class.google::protobuf::MessageLite"*)* @_ZN19in_memory_url_index44InMemoryURLIndexCacheItem_HistoryInfoMapItem21CheckTypeAndMergeFromERKN6google8protobuf11MessageLiteE to i8*), i8* bitcast (i64 (%"class.in_memory_url_index::InMemoryURLIndexCacheItem_HistoryInfoMapItem"*)* @_ZNK19in_memory_url_index44InMemoryURLIndexCacheItem_HistoryInfoMapItem12ByteSizeLongEv to i8*), i8* bitcast (i32 (%"class.in_memory_url_index::InMemoryURLIndexCacheItem_HistoryInfoMapItem"*)* @_ZNK19in_memory_url_index44InMemoryURLIndexCacheItem_HistoryInfoMapItem13GetCachedSizeEv to i8*), i8* bitcast (i8* (%"class.in_memory_url_index::InMemoryURLIndexCacheItem_HistoryInfoMapItem"*, i8*, %"class.google::protobuf::internal::ParseContext"*)* @_ZN19in_memory_url_index44InMemoryURLIndexCacheItem_HistoryInfoMapItem14_InternalParseEPKcPN6google8protobuf8internal12ParseContextE to i8*), i8* bitcast (i8* (%"class.in_memory_url_index::InMemoryURLIndexCacheItem_HistoryInfoMapItem"*, i8*, %"class.google::protobuf::io::EpsCopyOutputStream"*)* @_ZNK19in_memory_url_index44InMemoryURLIndexCacheItem_HistoryInfoMapItem18_InternalSerializeEPhPN6google8protobuf2io19EpsCopyOutputStreamE to i8*), i8* bitcast (i8* (%"class.google::protobuf::MessageLite"*)* @_ZNK6google8protobuf11MessageLite16InternalGetTableEv to i8*)] }, align 8
@.str.23 = private unnamed_addr constant [65 x i8] c"in_memory_url_index.InMemoryURLIndexCacheItem.HistoryInfoMapItem\00", align 1
@_ZTVN19in_memory_url_index62InMemoryURLIndexCacheItem_WordStartsMapItem_WordStartsMapEntryE = hidden unnamed_addr constant { [16 x i8*] } { [16 x i8*] [i8* null, i8* null, i8* bitcast (void (%"class.in_memory_url_index::InMemoryURLIndexCacheItem_WordStartsMapItem_WordStartsMapEntry"*)* @_ZN19in_memory_url_index62InMemoryURLIndexCacheItem_WordStartsMapItem_WordStartsMapEntryD2Ev to i8*), i8* bitcast (void (%"class.in_memory_url_index::InMemoryURLIndexCacheItem_WordStartsMapItem_WordStartsMapEntry"*)* @_ZN19in_memory_url_index62InMemoryURLIndexCacheItem_WordStartsMapItem_WordStartsMapEntryD0Ev to i8*), i8* bitcast (void (%"class.std::__1::basic_string"*, %"class.in_memory_url_index::InMemoryURLIndexCacheItem_WordStartsMapItem_WordStartsMapEntry"*)* @_ZNK19in_memory_url_index62InMemoryURLIndexCacheItem_WordStartsMapItem_WordStartsMapEntry11GetTypeNameEv to i8*), i8* bitcast (%"class.in_memory_url_index::InMemoryURLIndexCacheItem_WordStartsMapItem_WordStartsMapEntry"* (%"class.in_memory_url_index::InMemoryURLIndexCacheItem_WordStartsMapItem_WordStartsMapEntry"*)* @_ZNK19in_memory_url_index62InMemoryURLIndexCacheItem_WordStartsMapItem_WordStartsMapEntry3NewEv to i8*), i8* bitcast (%"class.in_memory_url_index::InMemoryURLIndexCacheItem_WordStartsMapItem_WordStartsMapEntry"* (%"class.in_memory_url_index::InMemoryURLIndexCacheItem_WordStartsMapItem_WordStartsMapEntry"*, %"class.google::protobuf::Arena"*)* @_ZNK19in_memory_url_index62InMemoryURLIndexCacheItem_WordStartsMapItem_WordStartsMapEntry3NewEPN6google8protobuf5ArenaE to i8*), i8* bitcast (void (%"class.in_memory_url_index::InMemoryURLIndexCacheItem_WordStartsMapItem_WordStartsMapEntry"*)* @_ZN19in_memory_url_index62InMemoryURLIndexCacheItem_WordStartsMapItem_WordStartsMapEntry5ClearEv to i8*), i8* bitcast (i1 (%"class.in_memory_url_index::InMemoryURLIndexCacheItem_WordStartsMapItem_WordStartsMapEntry"*)* @_ZNK19in_memory_url_index62InMemoryURLIndexCacheItem_WordStartsMapItem_WordStartsMapEntry13IsInitializedEv to i8*), i8* bitcast (void (%"class.std::__1::basic_string"*, %"class.google::protobuf::MessageLite"*)* @_ZNK6google8protobuf11MessageLite25InitializationErrorStringEv to i8*), i8* bitcast (void (%"class.in_memory_url_index::InMemoryURLIndexCacheItem_WordStartsMapItem_WordStartsMapEntry"*, %"class.google::protobuf::MessageLite"*)* @_ZN19in_memory_url_index62InMemoryURLIndexCacheItem_WordStartsMapItem_WordStartsMapEntry21CheckTypeAndMergeFromERKN6google8protobuf11MessageLiteE to i8*), i8* bitcast (i64 (%"class.in_memory_url_index::InMemoryURLIndexCacheItem_WordStartsMapItem_WordStartsMapEntry"*)* @_ZNK19in_memory_url_index62InMemoryURLIndexCacheItem_WordStartsMapItem_WordStartsMapEntry12ByteSizeLongEv to i8*), i8* bitcast (i32 (%"class.in_memory_url_index::InMemoryURLIndexCacheItem_WordStartsMapItem_WordStartsMapEntry"*)* @_ZNK19in_memory_url_index62InMemoryURLIndexCacheItem_WordStartsMapItem_WordStartsMapEntry13GetCachedSizeEv to i8*), i8* bitcast (i8* (%"class.in_memory_url_index::InMemoryURLIndexCacheItem_WordStartsMapItem_WordStartsMapEntry"*, i8*, %"class.google::protobuf::internal::ParseContext"*)* @_ZN19in_memory_url_index62InMemoryURLIndexCacheItem_WordStartsMapItem_WordStartsMapEntry14_InternalParseEPKcPN6google8protobuf8internal12ParseContextE to i8*), i8* bitcast (i8* (%"class.in_memory_url_index::InMemoryURLIndexCacheItem_WordStartsMapItem_WordStartsMapEntry"*, i8*, %"class.google::protobuf::io::EpsCopyOutputStream"*)* @_ZNK19in_memory_url_index62InMemoryURLIndexCacheItem_WordStartsMapItem_WordStartsMapEntry18_InternalSerializeEPhPN6google8protobuf2io19EpsCopyOutputStreamE to i8*), i8* bitcast (i8* (%"class.google::protobuf::MessageLite"*)* @_ZNK6google8protobuf11MessageLite16InternalGetTableEv to i8*)] }, align 8
@.str.24 = private unnamed_addr constant [83 x i8] c"in_memory_url_index.InMemoryURLIndexCacheItem.WordStartsMapItem.WordStartsMapEntry\00", align 1
@_ZTVN19in_memory_url_index43InMemoryURLIndexCacheItem_WordStartsMapItemE = hidden unnamed_addr constant { [16 x i8*] } { [16 x i8*] [i8* null, i8* null, i8* bitcast (void (%"class.in_memory_url_index::InMemoryURLIndexCacheItem_WordStartsMapItem"*)* @_ZN19in_memory_url_index43InMemoryURLIndexCacheItem_WordStartsMapItemD2Ev to i8*), i8* bitcast (void (%"class.in_memory_url_index::InMemoryURLIndexCacheItem_WordStartsMapItem"*)* @_ZN19in_memory_url_index43InMemoryURLIndexCacheItem_WordStartsMapItemD0Ev to i8*), i8* bitcast (void (%"class.std::__1::basic_string"*, %"class.in_memory_url_index::InMemoryURLIndexCacheItem_WordStartsMapItem"*)* @_ZNK19in_memory_url_index43InMemoryURLIndexCacheItem_WordStartsMapItem11GetTypeNameEv to i8*), i8* bitcast (%"class.in_memory_url_index::InMemoryURLIndexCacheItem_WordStartsMapItem"* (%"class.in_memory_url_index::InMemoryURLIndexCacheItem_WordStartsMapItem"*)* @_ZNK19in_memory_url_index43InMemoryURLIndexCacheItem_WordStartsMapItem3NewEv to i8*), i8* bitcast (%"class.in_memory_url_index::InMemoryURLIndexCacheItem_WordStartsMapItem"* (%"class.in_memory_url_index::InMemoryURLIndexCacheItem_WordStartsMapItem"*, %"class.google::protobuf::Arena"*)* @_ZNK19in_memory_url_index43InMemoryURLIndexCacheItem_WordStartsMapItem3NewEPN6google8protobuf5ArenaE to i8*), i8* bitcast (void (%"class.in_memory_url_index::InMemoryURLIndexCacheItem_WordStartsMapItem"*)* @_ZN19in_memory_url_index43InMemoryURLIndexCacheItem_WordStartsMapItem5ClearEv to i8*), i8* bitcast (i1 (%"class.in_memory_url_index::InMemoryURLIndexCacheItem_WordStartsMapItem"*)* @_ZNK19in_memory_url_index43InMemoryURLIndexCacheItem_WordStartsMapItem13IsInitializedEv to i8*), i8* bitcast (void (%"class.std::__1::basic_string"*, %"class.google::protobuf::MessageLite"*)* @_ZNK6google8protobuf11MessageLite25InitializationErrorStringEv to i8*), i8* bitcast (void (%"class.in_memory_url_index::InMemoryURLIndexCacheItem_WordStartsMapItem"*, %"class.google::protobuf::MessageLite"*)* @_ZN19in_memory_url_index43InMemoryURLIndexCacheItem_WordStartsMapItem21CheckTypeAndMergeFromERKN6google8protobuf11MessageLiteE to i8*), i8* bitcast (i64 (%"class.in_memory_url_index::InMemoryURLIndexCacheItem_WordStartsMapItem"*)* @_ZNK19in_memory_url_index43InMemoryURLIndexCacheItem_WordStartsMapItem12ByteSizeLongEv to i8*), i8* bitcast (i32 (%"class.in_memory_url_index::InMemoryURLIndexCacheItem_WordStartsMapItem"*)* @_ZNK19in_memory_url_index43InMemoryURLIndexCacheItem_WordStartsMapItem13GetCachedSizeEv to i8*), i8* bitcast (i8* (%"class.in_memory_url_index::InMemoryURLIndexCacheItem_WordStartsMapItem"*, i8*, %"class.google::protobuf::internal::ParseContext"*)* @_ZN19in_memory_url_index43InMemoryURLIndexCacheItem_WordStartsMapItem14_InternalParseEPKcPN6google8protobuf8internal12ParseContextE to i8*), i8* bitcast (i8* (%"class.in_memory_url_index::InMemoryURLIndexCacheItem_WordStartsMapItem"*, i8*, %"class.google::protobuf::io::EpsCopyOutputStream"*)* @_ZNK19in_memory_url_index43InMemoryURLIndexCacheItem_WordStartsMapItem18_InternalSerializeEPhPN6google8protobuf2io19EpsCopyOutputStreamE to i8*), i8* bitcast (i8* (%"class.google::protobuf::MessageLite"*)* @_ZNK6google8protobuf11MessageLite16InternalGetTableEv to i8*)] }, align 8
@.str.25 = private unnamed_addr constant [64 x i8] c"in_memory_url_index.InMemoryURLIndexCacheItem.WordStartsMapItem\00", align 1
@_ZTVN19in_memory_url_index25InMemoryURLIndexCacheItemE = hidden unnamed_addr constant { [16 x i8*] } { [16 x i8*] [i8* null, i8* null, i8* bitcast (void (%"class.in_memory_url_index::InMemoryURLIndexCacheItem"*)* @_ZN19in_memory_url_index25InMemoryURLIndexCacheItemD2Ev to i8*), i8* bitcast (void (%"class.in_memory_url_index::InMemoryURLIndexCacheItem"*)* @_ZN19in_memory_url_index25InMemoryURLIndexCacheItemD0Ev to i8*), i8* bitcast (void (%"class.std::__1::basic_string"*, %"class.in_memory_url_index::InMemoryURLIndexCacheItem"*)* @_ZNK19in_memory_url_index25InMemoryURLIndexCacheItem11GetTypeNameEv to i8*), i8* bitcast (%"class.in_memory_url_index::InMemoryURLIndexCacheItem"* (%"class.in_memory_url_index::InMemoryURLIndexCacheItem"*)* @_ZNK19in_memory_url_index25InMemoryURLIndexCacheItem3NewEv to i8*), i8* bitcast (%"class.in_memory_url_index::InMemoryURLIndexCacheItem"* (%"class.in_memory_url_index::InMemoryURLIndexCacheItem"*, %"class.google::protobuf::Arena"*)* @_ZNK19in_memory_url_index25InMemoryURLIndexCacheItem3NewEPN6google8protobuf5ArenaE to i8*), i8* bitcast (void (%"class.in_memory_url_index::InMemoryURLIndexCacheItem"*)* @_ZN19in_memory_url_index25InMemoryURLIndexCacheItem5ClearEv to i8*), i8* bitcast (i1 (%"class.in_memory_url_index::InMemoryURLIndexCacheItem"*)* @_ZNK19in_memory_url_index25InMemoryURLIndexCacheItem13IsInitializedEv to i8*), i8* bitcast (void (%"class.std::__1::basic_string"*, %"class.google::protobuf::MessageLite"*)* @_ZNK6google8protobuf11MessageLite25InitializationErrorStringEv to i8*), i8* bitcast (void (%"class.in_memory_url_index::InMemoryURLIndexCacheItem"*, %"class.google::protobuf::MessageLite"*)* @_ZN19in_memory_url_index25InMemoryURLIndexCacheItem21CheckTypeAndMergeFromERKN6google8protobuf11MessageLiteE to i8*), i8* bitcast (i64 (%"class.in_memory_url_index::InMemoryURLIndexCacheItem"*)* @_ZNK19in_memory_url_index25InMemoryURLIndexCacheItem12ByteSizeLongEv to i8*), i8* bitcast (i32 (%"class.in_memory_url_index::InMemoryURLIndexCacheItem"*)* @_ZNK19in_memory_url_index25InMemoryURLIndexCacheItem13GetCachedSizeEv to i8*), i8* bitcast (i8* (%"class.in_memory_url_index::InMemoryURLIndexCacheItem"*, i8*, %"class.google::protobuf::internal::ParseContext"*)* @_ZN19in_memory_url_index25InMemoryURLIndexCacheItem14_InternalParseEPKcPN6google8protobuf8internal12ParseContextE to i8*), i8* bitcast (i8* (%"class.in_memory_url_index::InMemoryURLIndexCacheItem"*, i8*, %"class.google::protobuf::io::EpsCopyOutputStream"*)* @_ZNK19in_memory_url_index25InMemoryURLIndexCacheItem18_InternalSerializeEPhPN6google8protobuf2io19EpsCopyOutputStreamE to i8*), i8* bitcast (i8* (%"class.google::protobuf::MessageLite"*)* @_ZNK6google8protobuf11MessageLite16InternalGetTableEv to i8*)] }, align 8
@.str.32 = private unnamed_addr constant [46 x i8] c"in_memory_url_index.InMemoryURLIndexCacheItem\00", align 1
@_ZN6google8protobuf8internal26fixed_address_empty_stringE = external global %"class.google::protobuf::internal::ExplicitlyConstructed.39", align 8

@_ZN19in_memory_url_index38InMemoryURLIndexCacheItem_WordListItemC1EPN6google8protobuf5ArenaE = hidden unnamed_addr alias void (%"class.in_memory_url_index::InMemoryURLIndexCacheItem_WordListItem"*, %"class.google::protobuf::Arena"*), void (%"class.in_memory_url_index::InMemoryURLIndexCacheItem_WordListItem"*, %"class.google::protobuf::Arena"*)* @_ZN19in_memory_url_index38InMemoryURLIndexCacheItem_WordListItemC2EPN6google8protobuf5ArenaE
@_ZN19in_memory_url_index38InMemoryURLIndexCacheItem_WordListItemC1ERKS0_ = hidden unnamed_addr alias void (%"class.in_memory_url_index::InMemoryURLIndexCacheItem_WordListItem"*, %"class.in_memory_url_index::InMemoryURLIndexCacheItem_WordListItem"*), void (%"class.in_memory_url_index::InMemoryURLIndexCacheItem_WordListItem"*, %"class.in_memory_url_index::InMemoryURLIndexCacheItem_WordListItem"*)* @_ZN19in_memory_url_index38InMemoryURLIndexCacheItem_WordListItemC2ERKS0_
@_ZN19in_memory_url_index38InMemoryURLIndexCacheItem_WordListItemD1Ev = hidden unnamed_addr alias void (%"class.in_memory_url_index::InMemoryURLIndexCacheItem_WordListItem"*), void (%"class.in_memory_url_index::InMemoryURLIndexCacheItem_WordListItem"*)* @_ZN19in_memory_url_index38InMemoryURLIndexCacheItem_WordListItemD2Ev
@_ZN19in_memory_url_index50InMemoryURLIndexCacheItem_WordMapItem_WordMapEntryC1EPN6google8protobuf5ArenaE = hidden unnamed_addr alias void (%"class.in_memory_url_index::InMemoryURLIndexCacheItem_WordMapItem_WordMapEntry"*, %"class.google::protobuf::Arena"*), void (%"class.in_memory_url_index::InMemoryURLIndexCacheItem_WordMapItem_WordMapEntry"*, %"class.google::protobuf::Arena"*)* @_ZN19in_memory_url_index50InMemoryURLIndexCacheItem_WordMapItem_WordMapEntryC2EPN6google8protobuf5ArenaE
@_ZN19in_memory_url_index50InMemoryURLIndexCacheItem_WordMapItem_WordMapEntryC1ERKS0_ = hidden unnamed_addr alias void (%"class.in_memory_url_index::InMemoryURLIndexCacheItem_WordMapItem_WordMapEntry"*, %"class.in_memory_url_index::InMemoryURLIndexCacheItem_WordMapItem_WordMapEntry"*), void (%"class.in_memory_url_index::InMemoryURLIndexCacheItem_WordMapItem_WordMapEntry"*, %"class.in_memory_url_index::InMemoryURLIndexCacheItem_WordMapItem_WordMapEntry"*)* @_ZN19in_memory_url_index50InMemoryURLIndexCacheItem_WordMapItem_WordMapEntryC2ERKS0_
@_ZN19in_memory_url_index50InMemoryURLIndexCacheItem_WordMapItem_WordMapEntryD1Ev = hidden unnamed_addr alias void (%"class.in_memory_url_index::InMemoryURLIndexCacheItem_WordMapItem_WordMapEntry"*), void (%"class.in_memory_url_index::InMemoryURLIndexCacheItem_WordMapItem_WordMapEntry"*)* @_ZN19in_memory_url_index50InMemoryURLIndexCacheItem_WordMapItem_WordMapEntryD2Ev
@_ZN19in_memory_url_index37InMemoryURLIndexCacheItem_WordMapItemC1EPN6google8protobuf5ArenaE = hidden unnamed_addr alias void (%"class.in_memory_url_index::InMemoryURLIndexCacheItem_WordMapItem"*, %"class.google::protobuf::Arena"*), void (%"class.in_memory_url_index::InMemoryURLIndexCacheItem_WordMapItem"*, %"class.google::protobuf::Arena"*)* @_ZN19in_memory_url_index37InMemoryURLIndexCacheItem_WordMapItemC2EPN6google8protobuf5ArenaE
@_ZN19in_memory_url_index37InMemoryURLIndexCacheItem_WordMapItemC1ERKS0_ = hidden unnamed_addr alias void (%"class.in_memory_url_index::InMemoryURLIndexCacheItem_WordMapItem"*, %"class.in_memory_url_index::InMemoryURLIndexCacheItem_WordMapItem"*), void (%"class.in_memory_url_index::InMemoryURLIndexCacheItem_WordMapItem"*, %"class.in_memory_url_index::InMemoryURLIndexCacheItem_WordMapItem"*)* @_ZN19in_memory_url_index37InMemoryURLIndexCacheItem_WordMapItemC2ERKS0_
@_ZN19in_memory_url_index37InMemoryURLIndexCacheItem_WordMapItemD1Ev = hidden unnamed_addr alias void (%"class.in_memory_url_index::InMemoryURLIndexCacheItem_WordMapItem"*), void (%"class.in_memory_url_index::InMemoryURLIndexCacheItem_WordMapItem"*)* @_ZN19in_memory_url_index37InMemoryURLIndexCacheItem_WordMapItemD2Ev
@_ZN19in_memory_url_index58InMemoryURLIndexCacheItem_CharWordMapItem_CharWordMapEntryC1EPN6google8protobuf5ArenaE = hidden unnamed_addr alias void (%"class.in_memory_url_index::InMemoryURLIndexCacheItem_CharWordMapItem_CharWordMapEntry"*, %"class.google::protobuf::Arena"*), void (%"class.in_memory_url_index::InMemoryURLIndexCacheItem_CharWordMapItem_CharWordMapEntry"*, %"class.google::protobuf::Arena"*)* @_ZN19in_memory_url_index58InMemoryURLIndexCacheItem_CharWordMapItem_CharWordMapEntryC2EPN6google8protobuf5ArenaE
@_ZN19in_memory_url_index58InMemoryURLIndexCacheItem_CharWordMapItem_CharWordMapEntryC1ERKS0_ = hidden unnamed_addr alias void (%"class.in_memory_url_index::InMemoryURLIndexCacheItem_CharWordMapItem_CharWordMapEntry"*, %"class.in_memory_url_index::InMemoryURLIndexCacheItem_CharWordMapItem_CharWordMapEntry"*), void (%"class.in_memory_url_index::InMemoryURLIndexCacheItem_CharWordMapItem_CharWordMapEntry"*, %"class.in_memory_url_index::InMemoryURLIndexCacheItem_CharWordMapItem_CharWordMapEntry"*)* @_ZN19in_memory_url_index58InMemoryURLIndexCacheItem_CharWordMapItem_CharWordMapEntryC2ERKS0_
@_ZN19in_memory_url_index58InMemoryURLIndexCacheItem_CharWordMapItem_CharWordMapEntryD1Ev = hidden unnamed_addr alias void (%"class.in_memory_url_index::InMemoryURLIndexCacheItem_CharWordMapItem_CharWordMapEntry"*), void (%"class.in_memory_url_index::InMemoryURLIndexCacheItem_CharWordMapItem_CharWordMapEntry"*)* @_ZN19in_memory_url_index58InMemoryURLIndexCacheItem_CharWordMapItem_CharWordMapEntryD2Ev
@_ZN19in_memory_url_index41InMemoryURLIndexCacheItem_CharWordMapItemC1EPN6google8protobuf5ArenaE = hidden unnamed_addr alias void (%"class.in_memory_url_index::InMemoryURLIndexCacheItem_CharWordMapItem"*, %"class.google::protobuf::Arena"*), void (%"class.in_memory_url_index::InMemoryURLIndexCacheItem_CharWordMapItem"*, %"class.google::protobuf::Arena"*)* @_ZN19in_memory_url_index41InMemoryURLIndexCacheItem_CharWordMapItemC2EPN6google8protobuf5ArenaE
@_ZN19in_memory_url_index41InMemoryURLIndexCacheItem_CharWordMapItemC1ERKS0_ = hidden unnamed_addr alias void (%"class.in_memory_url_index::InMemoryURLIndexCacheItem_CharWordMapItem"*, %"class.in_memory_url_index::InMemoryURLIndexCacheItem_CharWordMapItem"*), void (%"class.in_memory_url_index::InMemoryURLIndexCacheItem_CharWordMapItem"*, %"class.in_memory_url_index::InMemoryURLIndexCacheItem_CharWordMapItem"*)* @_ZN19in_memory_url_index41InMemoryURLIndexCacheItem_CharWordMapItemC2ERKS0_
@_ZN19in_memory_url_index41InMemoryURLIndexCacheItem_CharWordMapItemD1Ev = hidden unnamed_addr alias void (%"class.in_memory_url_index::InMemoryURLIndexCacheItem_CharWordMapItem"*), void (%"class.in_memory_url_index::InMemoryURLIndexCacheItem_CharWordMapItem"*)* @_ZN19in_memory_url_index41InMemoryURLIndexCacheItem_CharWordMapItemD2Ev
@_ZN19in_memory_url_index68InMemoryURLIndexCacheItem_WordIDHistoryMapItem_WordIDHistoryMapEntryC1EPN6google8protobuf5ArenaE = hidden unnamed_addr alias void (%"class.in_memory_url_index::InMemoryURLIndexCacheItem_WordIDHistoryMapItem_WordIDHistoryMapEntry"*, %"class.google::protobuf::Arena"*), void (%"class.in_memory_url_index::InMemoryURLIndexCacheItem_WordIDHistoryMapItem_WordIDHistoryMapEntry"*, %"class.google::protobuf::Arena"*)* @_ZN19in_memory_url_index68InMemoryURLIndexCacheItem_WordIDHistoryMapItem_WordIDHistoryMapEntryC2EPN6google8protobuf5ArenaE
@_ZN19in_memory_url_index68InMemoryURLIndexCacheItem_WordIDHistoryMapItem_WordIDHistoryMapEntryC1ERKS0_ = hidden unnamed_addr alias void (%"class.in_memory_url_index::InMemoryURLIndexCacheItem_WordIDHistoryMapItem_WordIDHistoryMapEntry"*, %"class.in_memory_url_index::InMemoryURLIndexCacheItem_WordIDHistoryMapItem_WordIDHistoryMapEntry"*), void (%"class.in_memory_url_index::InMemoryURLIndexCacheItem_WordIDHistoryMapItem_WordIDHistoryMapEntry"*, %"class.in_memory_url_index::InMemoryURLIndexCacheItem_WordIDHistoryMapItem_WordIDHistoryMapEntry"*)* @_ZN19in_memory_url_index68InMemoryURLIndexCacheItem_WordIDHistoryMapItem_WordIDHistoryMapEntryC2ERKS0_
@_ZN19in_memory_url_index68InMemoryURLIndexCacheItem_WordIDHistoryMapItem_WordIDHistoryMapEntryD1Ev = hidden unnamed_addr alias void (%"class.in_memory_url_index::InMemoryURLIndexCacheItem_WordIDHistoryMapItem_WordIDHistoryMapEntry"*), void (%"class.in_memory_url_index::InMemoryURLIndexCacheItem_WordIDHistoryMapItem_WordIDHistoryMapEntry"*)* @_ZN19in_memory_url_index68InMemoryURLIndexCacheItem_WordIDHistoryMapItem_WordIDHistoryMapEntryD2Ev
@_ZN19in_memory_url_index46InMemoryURLIndexCacheItem_WordIDHistoryMapItemC1EPN6google8protobuf5ArenaE = hidden unnamed_addr alias void (%"class.in_memory_url_index::InMemoryURLIndexCacheItem_WordIDHistoryMapItem"*, %"class.google::protobuf::Arena"*), void (%"class.in_memory_url_index::InMemoryURLIndexCacheItem_WordIDHistoryMapItem"*, %"class.google::protobuf::Arena"*)* @_ZN19in_memory_url_index46InMemoryURLIndexCacheItem_WordIDHistoryMapItemC2EPN6google8protobuf5ArenaE
@_ZN19in_memory_url_index46InMemoryURLIndexCacheItem_WordIDHistoryMapItemC1ERKS0_ = hidden unnamed_addr alias void (%"class.in_memory_url_index::InMemoryURLIndexCacheItem_WordIDHistoryMapItem"*, %"class.in_memory_url_index::InMemoryURLIndexCacheItem_WordIDHistoryMapItem"*), void (%"class.in_memory_url_index::InMemoryURLIndexCacheItem_WordIDHistoryMapItem"*, %"class.in_memory_url_index::InMemoryURLIndexCacheItem_WordIDHistoryMapItem"*)* @_ZN19in_memory_url_index46InMemoryURLIndexCacheItem_WordIDHistoryMapItemC2ERKS0_
@_ZN19in_memory_url_index46InMemoryURLIndexCacheItem_WordIDHistoryMapItemD1Ev = hidden unnamed_addr alias void (%"class.in_memory_url_index::InMemoryURLIndexCacheItem_WordIDHistoryMapItem"*), void (%"class.in_memory_url_index::InMemoryURLIndexCacheItem_WordIDHistoryMapItem"*)* @_ZN19in_memory_url_index46InMemoryURLIndexCacheItem_WordIDHistoryMapItemD2Ev
@_ZN19in_memory_url_index74InMemoryURLIndexCacheItem_HistoryInfoMapItem_HistoryInfoMapEntry_VisitInfoC1EPN6google8protobuf5ArenaE = hidden unnamed_addr alias void (%"class.in_memory_url_index::InMemoryURLIndexCacheItem_HistoryInfoMapItem_HistoryInfoMapEntry_VisitInfo"*, %"class.google::protobuf::Arena"*), void (%"class.in_memory_url_index::InMemoryURLIndexCacheItem_HistoryInfoMapItem_HistoryInfoMapEntry_VisitInfo"*, %"class.google::protobuf::Arena"*)* @_ZN19in_memory_url_index74InMemoryURLIndexCacheItem_HistoryInfoMapItem_HistoryInfoMapEntry_VisitInfoC2EPN6google8protobuf5ArenaE
@_ZN19in_memory_url_index74InMemoryURLIndexCacheItem_HistoryInfoMapItem_HistoryInfoMapEntry_VisitInfoC1ERKS0_ = hidden unnamed_addr alias void (%"class.in_memory_url_index::InMemoryURLIndexCacheItem_HistoryInfoMapItem_HistoryInfoMapEntry_VisitInfo"*, %"class.in_memory_url_index::InMemoryURLIndexCacheItem_HistoryInfoMapItem_HistoryInfoMapEntry_VisitInfo"*), void (%"class.in_memory_url_index::InMemoryURLIndexCacheItem_HistoryInfoMapItem_HistoryInfoMapEntry_VisitInfo"*, %"class.in_memory_url_index::InMemoryURLIndexCacheItem_HistoryInfoMapItem_HistoryInfoMapEntry_VisitInfo"*)* @_ZN19in_memory_url_index74InMemoryURLIndexCacheItem_HistoryInfoMapItem_HistoryInfoMapEntry_VisitInfoC2ERKS0_
@_ZN19in_memory_url_index74InMemoryURLIndexCacheItem_HistoryInfoMapItem_HistoryInfoMapEntry_VisitInfoD1Ev = hidden unnamed_addr alias void (%"class.in_memory_url_index::InMemoryURLIndexCacheItem_HistoryInfoMapItem_HistoryInfoMapEntry_VisitInfo"*), void (%"class.in_memory_url_index::InMemoryURLIndexCacheItem_HistoryInfoMapItem_HistoryInfoMapEntry_VisitInfo"*)* @_ZN19in_memory_url_index74InMemoryURLIndexCacheItem_HistoryInfoMapItem_HistoryInfoMapEntry_VisitInfoD2Ev
@_ZN19in_memory_url_index64InMemoryURLIndexCacheItem_HistoryInfoMapItem_HistoryInfoMapEntryC1EPN6google8protobuf5ArenaE = hidden unnamed_addr alias void (%"class.in_memory_url_index::InMemoryURLIndexCacheItem_HistoryInfoMapItem_HistoryInfoMapEntry"*, %"class.google::protobuf::Arena"*), void (%"class.in_memory_url_index::InMemoryURLIndexCacheItem_HistoryInfoMapItem_HistoryInfoMapEntry"*, %"class.google::protobuf::Arena"*)* @_ZN19in_memory_url_index64InMemoryURLIndexCacheItem_HistoryInfoMapItem_HistoryInfoMapEntryC2EPN6google8protobuf5ArenaE
@_ZN19in_memory_url_index64InMemoryURLIndexCacheItem_HistoryInfoMapItem_HistoryInfoMapEntryC1ERKS0_ = hidden unnamed_addr alias void (%"class.in_memory_url_index::InMemoryURLIndexCacheItem_HistoryInfoMapItem_HistoryInfoMapEntry"*, %"class.in_memory_url_index::InMemoryURLIndexCacheItem_HistoryInfoMapItem_HistoryInfoMapEntry"*), void (%"class.in_memory_url_index::InMemoryURLIndexCacheItem_HistoryInfoMapItem_HistoryInfoMapEntry"*, %"class.in_memory_url_index::InMemoryURLIndexCacheItem_HistoryInfoMapItem_HistoryInfoMapEntry"*)* @_ZN19in_memory_url_index64InMemoryURLIndexCacheItem_HistoryInfoMapItem_HistoryInfoMapEntryC2ERKS0_
@_ZN19in_memory_url_index64InMemoryURLIndexCacheItem_HistoryInfoMapItem_HistoryInfoMapEntryD1Ev = hidden unnamed_addr alias void (%"class.in_memory_url_index::InMemoryURLIndexCacheItem_HistoryInfoMapItem_HistoryInfoMapEntry"*), void (%"class.in_memory_url_index::InMemoryURLIndexCacheItem_HistoryInfoMapItem_HistoryInfoMapEntry"*)* @_ZN19in_memory_url_index64InMemoryURLIndexCacheItem_HistoryInfoMapItem_HistoryInfoMapEntryD2Ev
@_ZN19in_memory_url_index44InMemoryURLIndexCacheItem_HistoryInfoMapItemC1EPN6google8protobuf5ArenaE = hidden unnamed_addr alias void (%"class.in_memory_url_index::InMemoryURLIndexCacheItem_HistoryInfoMapItem"*, %"class.google::protobuf::Arena"*), void (%"class.in_memory_url_index::InMemoryURLIndexCacheItem_HistoryInfoMapItem"*, %"class.google::protobuf::Arena"*)* @_ZN19in_memory_url_index44InMemoryURLIndexCacheItem_HistoryInfoMapItemC2EPN6google8protobuf5ArenaE
@_ZN19in_memory_url_index44InMemoryURLIndexCacheItem_HistoryInfoMapItemC1ERKS0_ = hidden unnamed_addr alias void (%"class.in_memory_url_index::InMemoryURLIndexCacheItem_HistoryInfoMapItem"*, %"class.in_memory_url_index::InMemoryURLIndexCacheItem_HistoryInfoMapItem"*), void (%"class.in_memory_url_index::InMemoryURLIndexCacheItem_HistoryInfoMapItem"*, %"class.in_memory_url_index::InMemoryURLIndexCacheItem_HistoryInfoMapItem"*)* @_ZN19in_memory_url_index44InMemoryURLIndexCacheItem_HistoryInfoMapItemC2ERKS0_
@_ZN19in_memory_url_index44InMemoryURLIndexCacheItem_HistoryInfoMapItemD1Ev = hidden unnamed_addr alias void (%"class.in_memory_url_index::InMemoryURLIndexCacheItem_HistoryInfoMapItem"*), void (%"class.in_memory_url_index::InMemoryURLIndexCacheItem_HistoryInfoMapItem"*)* @_ZN19in_memory_url_index44InMemoryURLIndexCacheItem_HistoryInfoMapItemD2Ev
@_ZN19in_memory_url_index62InMemoryURLIndexCacheItem_WordStartsMapItem_WordStartsMapEntryC1EPN6google8protobuf5ArenaE = hidden unnamed_addr alias void (%"class.in_memory_url_index::InMemoryURLIndexCacheItem_WordStartsMapItem_WordStartsMapEntry"*, %"class.google::protobuf::Arena"*), void (%"class.in_memory_url_index::InMemoryURLIndexCacheItem_WordStartsMapItem_WordStartsMapEntry"*, %"class.google::protobuf::Arena"*)* @_ZN19in_memory_url_index62InMemoryURLIndexCacheItem_WordStartsMapItem_WordStartsMapEntryC2EPN6google8protobuf5ArenaE
@_ZN19in_memory_url_index62InMemoryURLIndexCacheItem_WordStartsMapItem_WordStartsMapEntryC1ERKS0_ = hidden unnamed_addr alias void (%"class.in_memory_url_index::InMemoryURLIndexCacheItem_WordStartsMapItem_WordStartsMapEntry"*, %"class.in_memory_url_index::InMemoryURLIndexCacheItem_WordStartsMapItem_WordStartsMapEntry"*), void (%"class.in_memory_url_index::InMemoryURLIndexCacheItem_WordStartsMapItem_WordStartsMapEntry"*, %"class.in_memory_url_index::InMemoryURLIndexCacheItem_WordStartsMapItem_WordStartsMapEntry"*)* @_ZN19in_memory_url_index62InMemoryURLIndexCacheItem_WordStartsMapItem_WordStartsMapEntryC2ERKS0_
@_ZN19in_memory_url_index62InMemoryURLIndexCacheItem_WordStartsMapItem_WordStartsMapEntryD1Ev = hidden unnamed_addr alias void (%"class.in_memory_url_index::InMemoryURLIndexCacheItem_WordStartsMapItem_WordStartsMapEntry"*), void (%"class.in_memory_url_index::InMemoryURLIndexCacheItem_WordStartsMapItem_WordStartsMapEntry"*)* @_ZN19in_memory_url_index62InMemoryURLIndexCacheItem_WordStartsMapItem_WordStartsMapEntryD2Ev
@_ZN19in_memory_url_index43InMemoryURLIndexCacheItem_WordStartsMapItemC1EPN6google8protobuf5ArenaE = hidden unnamed_addr alias void (%"class.in_memory_url_index::InMemoryURLIndexCacheItem_WordStartsMapItem"*, %"class.google::protobuf::Arena"*), void (%"class.in_memory_url_index::InMemoryURLIndexCacheItem_WordStartsMapItem"*, %"class.google::protobuf::Arena"*)* @_ZN19in_memory_url_index43InMemoryURLIndexCacheItem_WordStartsMapItemC2EPN6google8protobuf5ArenaE
@_ZN19in_memory_url_index43InMemoryURLIndexCacheItem_WordStartsMapItemC1ERKS0_ = hidden unnamed_addr alias void (%"class.in_memory_url_index::InMemoryURLIndexCacheItem_WordStartsMapItem"*, %"class.in_memory_url_index::InMemoryURLIndexCacheItem_WordStartsMapItem"*), void (%"class.in_memory_url_index::InMemoryURLIndexCacheItem_WordStartsMapItem"*, %"class.in_memory_url_index::InMemoryURLIndexCacheItem_WordStartsMapItem"*)* @_ZN19in_memory_url_index43InMemoryURLIndexCacheItem_WordStartsMapItemC2ERKS0_
@_ZN19in_memory_url_index43InMemoryURLIndexCacheItem_WordStartsMapItemD1Ev = hidden unnamed_addr alias void (%"class.in_memory_url_index::InMemoryURLIndexCacheItem_WordStartsMapItem"*), void (%"class.in_memory_url_index::InMemoryURLIndexCacheItem_WordStartsMapItem"*)* @_ZN19in_memory_url_index43InMemoryURLIndexCacheItem_WordStartsMapItemD2Ev
@_ZN19in_memory_url_index25InMemoryURLIndexCacheItemC1EPN6google8protobuf5ArenaE = hidden unnamed_addr alias void (%"class.in_memory_url_index::InMemoryURLIndexCacheItem"*, %"class.google::protobuf::Arena"*), void (%"class.in_memory_url_index::InMemoryURLIndexCacheItem"*, %"class.google::protobuf::Arena"*)* @_ZN19in_memory_url_index25InMemoryURLIndexCacheItemC2EPN6google8protobuf5ArenaE
@_ZN19in_memory_url_index25InMemoryURLIndexCacheItemC1ERKS0_ = hidden unnamed_addr alias void (%"class.in_memory_url_index::InMemoryURLIndexCacheItem"*, %"class.in_memory_url_index::InMemoryURLIndexCacheItem"*), void (%"class.in_memory_url_index::InMemoryURLIndexCacheItem"*, %"class.in_memory_url_index::InMemoryURLIndexCacheItem"*)* @_ZN19in_memory_url_index25InMemoryURLIndexCacheItemC2ERKS0_
@_ZN19in_memory_url_index25InMemoryURLIndexCacheItemD1Ev = hidden unnamed_addr alias void (%"class.in_memory_url_index::InMemoryURLIndexCacheItem"*), void (%"class.in_memory_url_index::InMemoryURLIndexCacheItem"*)* @_ZN19in_memory_url_index25InMemoryURLIndexCacheItemD2Ev

; Function Attrs: nounwind ssp uwtable
define internal void @_ZL88InitDefaultsscc_info_InMemoryURLIndexCacheItem_in_5fmemory_5furl_5findex_5fcache_2eprotov() #0 {
  tail call void @_ZN6google8protobuf8internal13VerifyVersionEiiPKc(i32 3013000, i32 3013000, i8* getelementptr inbounds ([63 x i8], [63 x i8]* @.str, i64 0, i64 0)) #14
  store %"class.google::protobuf::Arena"* null, %"class.google::protobuf::Arena"** bitcast (i8* getelementptr inbounds (%"class.in_memory_url_index::InMemoryURLIndexCacheItemDefaultTypeInternal", %"class.in_memory_url_index::InMemoryURLIndexCacheItemDefaultTypeInternal"* @_ZN19in_memory_url_index44_InMemoryURLIndexCacheItem_default_instance_E, i64 0, i32 0, i32 0, i32 1, i64 0) to %"class.google::protobuf::Arena"**), align 8
  store i32 (...)** bitcast (i8** getelementptr inbounds ({ [16 x i8*] }, { [16 x i8*] }* @_ZTVN19in_memory_url_index25InMemoryURLIndexCacheItemE, i64 0, inrange i32 0, i64 2) to i32 (...)**), i32 (...)*** bitcast (%"class.in_memory_url_index::InMemoryURLIndexCacheItemDefaultTypeInternal"* @_ZN19in_memory_url_index44_InMemoryURLIndexCacheItem_default_instance_E to i32 (...)***), align 8
  store i32 0, i32* bitcast (i8* getelementptr inbounds (%"class.in_memory_url_index::InMemoryURLIndexCacheItemDefaultTypeInternal", %"class.in_memory_url_index::InMemoryURLIndexCacheItemDefaultTypeInternal"* @_ZN19in_memory_url_index44_InMemoryURLIndexCacheItem_default_instance_E, i64 0, i32 0, i32 0, i32 1, i64 8) to i32*), align 8
  store i32 0, i32* bitcast (i8* getelementptr inbounds (%"class.in_memory_url_index::InMemoryURLIndexCacheItemDefaultTypeInternal", %"class.in_memory_url_index::InMemoryURLIndexCacheItemDefaultTypeInternal"* @_ZN19in_memory_url_index44_InMemoryURLIndexCacheItem_default_instance_E, i64 0, i32 0, i32 0, i32 1, i64 12) to i32*), align 4
  %1 = load atomic i32, i32* getelementptr inbounds ({ { { { i32 } }, i32, i32, void ()* }, [6 x i8*] }, { { { { i32 } }, i32, i32, void ()* }, [6 x i8*] }* @scc_info_InMemoryURLIndexCacheItem_in_5fmemory_5furl_5findex_5fcache_2eproto, i64 0, i32 0, i32 0, i32 0, i32 0) acquire, align 8
  %2 = icmp eq i32 %1, 0
  br i1 %2, label %4, label %3, !prof !2

3:                                                ; preds = %0
  tail call void @_ZN6google8protobuf8internal11InitSCCImplEPNS1_11SCCInfoBaseE(%"struct.google::protobuf::internal::SCCInfoBase"* bitcast ({ { { { i32 } }, i32, i32, void ()* }, [6 x i8*] }* @scc_info_InMemoryURLIndexCacheItem_in_5fmemory_5furl_5findex_5fcache_2eproto to %"struct.google::protobuf::internal::SCCInfoBase"*)) #14
  br label %4

4:                                                ; preds = %0, %3
  tail call void @llvm.memset.p0i8.i64(i8* align 8 getelementptr inbounds (%"class.in_memory_url_index::InMemoryURLIndexCacheItemDefaultTypeInternal", %"class.in_memory_url_index::InMemoryURLIndexCacheItemDefaultTypeInternal"* @_ZN19in_memory_url_index44_InMemoryURLIndexCacheItem_default_instance_E, i64 0, i32 0, i32 0, i32 1, i64 16), i8 0, i64 64, i1 false) #14
  tail call void @_ZN6google8protobuf8internal13OnShutdownRunEPFvPKvES3_(void (i8*)* nonnull @_ZN6google8protobuf8internal14DestroyMessageEPKv, i8* bitcast (%"class.in_memory_url_index::InMemoryURLIndexCacheItemDefaultTypeInternal"* @_ZN19in_memory_url_index44_InMemoryURLIndexCacheItem_default_instance_E to i8*)) #14
  ret void
}

; Function Attrs: nounwind ssp uwtable
define internal void @_ZL104InitDefaultsscc_info_InMemoryURLIndexCacheItem_CharWordMapItem_in_5fmemory_5furl_5findex_5fcache_2eprotov() #0 {
  tail call void @_ZN6google8protobuf8internal13VerifyVersionEiiPKc(i32 3013000, i32 3013000, i8* getelementptr inbounds ([63 x i8], [63 x i8]* @.str, i64 0, i64 0)) #14
  store %"class.google::protobuf::Arena"* null, %"class.google::protobuf::Arena"** bitcast (i8* getelementptr inbounds (%"class.in_memory_url_index::InMemoryURLIndexCacheItem_CharWordMapItemDefaultTypeInternal", %"class.in_memory_url_index::InMemoryURLIndexCacheItem_CharWordMapItemDefaultTypeInternal"* @_ZN19in_memory_url_index60_InMemoryURLIndexCacheItem_CharWordMapItem_default_instance_E, i64 0, i32 0, i32 0, i32 1, i64 0) to %"class.google::protobuf::Arena"**), align 8
  store i32 (...)** bitcast (i8** getelementptr inbounds ({ [16 x i8*] }, { [16 x i8*] }* @_ZTVN19in_memory_url_index41InMemoryURLIndexCacheItem_CharWordMapItemE, i64 0, inrange i32 0, i64 2) to i32 (...)**), i32 (...)*** bitcast (%"class.in_memory_url_index::InMemoryURLIndexCacheItem_CharWordMapItemDefaultTypeInternal"* @_ZN19in_memory_url_index60_InMemoryURLIndexCacheItem_CharWordMapItem_default_instance_E to i32 (...)***), align 8
  tail call void @llvm.memset.p0i8.i64(i8* align 8 getelementptr inbounds (%"class.in_memory_url_index::InMemoryURLIndexCacheItem_CharWordMapItemDefaultTypeInternal", %"class.in_memory_url_index::InMemoryURLIndexCacheItem_CharWordMapItemDefaultTypeInternal"* @_ZN19in_memory_url_index60_InMemoryURLIndexCacheItem_CharWordMapItem_default_instance_E, i64 0, i32 0, i32 0, i32 1, i64 8), i8 0, i64 32, i1 false) #14
  %1 = load atomic i32, i32* getelementptr inbounds ({ { { { i32 } }, i32, i32, void ()* }, [1 x i8*] }, { { { { i32 } }, i32, i32, void ()* }, [1 x i8*] }* @scc_info_InMemoryURLIndexCacheItem_CharWordMapItem_in_5fmemory_5furl_5findex_5fcache_2eproto, i64 0, i32 0, i32 0, i32 0, i32 0) acquire, align 8
  %2 = icmp eq i32 %1, 0
  br i1 %2, label %4, label %3, !prof !2

3:                                                ; preds = %0
  tail call void @_ZN6google8protobuf8internal11InitSCCImplEPNS1_11SCCInfoBaseE(%"struct.google::protobuf::internal::SCCInfoBase"* bitcast ({ { { { i32 } }, i32, i32, void ()* }, [1 x i8*] }* @scc_info_InMemoryURLIndexCacheItem_CharWordMapItem_in_5fmemory_5furl_5findex_5fcache_2eproto to %"struct.google::protobuf::internal::SCCInfoBase"*)) #14
  br label %4

4:                                                ; preds = %0, %3
  store i32 0, i32* bitcast (i8* getelementptr inbounds (%"class.in_memory_url_index::InMemoryURLIndexCacheItem_CharWordMapItemDefaultTypeInternal", %"class.in_memory_url_index::InMemoryURLIndexCacheItem_CharWordMapItemDefaultTypeInternal"* @_ZN19in_memory_url_index60_InMemoryURLIndexCacheItem_CharWordMapItem_default_instance_E, i64 0, i32 0, i32 0, i32 1, i64 40) to i32*), align 8
  tail call void @_ZN6google8protobuf8internal13OnShutdownRunEPFvPKvES3_(void (i8*)* nonnull @_ZN6google8protobuf8internal14DestroyMessageEPKv, i8* bitcast (%"class.in_memory_url_index::InMemoryURLIndexCacheItem_CharWordMapItemDefaultTypeInternal"* @_ZN19in_memory_url_index60_InMemoryURLIndexCacheItem_CharWordMapItem_default_instance_E to i8*)) #14
  ret void
}

; Function Attrs: nounwind ssp uwtable
define internal void @_ZL121InitDefaultsscc_info_InMemoryURLIndexCacheItem_CharWordMapItem_CharWordMapEntry_in_5fmemory_5furl_5findex_5fcache_2eprotov() #0 {
  tail call void @_ZN6google8protobuf8internal13VerifyVersionEiiPKc(i32 3013000, i32 3013000, i8* getelementptr inbounds ([63 x i8], [63 x i8]* @.str, i64 0, i64 0)) #14
  store %"class.google::protobuf::Arena"* null, %"class.google::protobuf::Arena"** bitcast (i8* getelementptr inbounds (%"class.in_memory_url_index::InMemoryURLIndexCacheItem_CharWordMapItem_CharWordMapEntryDefaultTypeInternal", %"class.in_memory_url_index::InMemoryURLIndexCacheItem_CharWordMapItem_CharWordMapEntryDefaultTypeInternal"* @_ZN19in_memory_url_index77_InMemoryURLIndexCacheItem_CharWordMapItem_CharWordMapEntry_default_instance_E, i64 0, i32 0, i32 0, i32 1, i64 0) to %"class.google::protobuf::Arena"**), align 8
  store i32 (...)** bitcast (i8** getelementptr inbounds ({ [16 x i8*] }, { [16 x i8*] }* @_ZTVN19in_memory_url_index58InMemoryURLIndexCacheItem_CharWordMapItem_CharWordMapEntryE, i64 0, inrange i32 0, i64 2) to i32 (...)**), i32 (...)*** bitcast (%"class.in_memory_url_index::InMemoryURLIndexCacheItem_CharWordMapItem_CharWordMapEntryDefaultTypeInternal"* @_ZN19in_memory_url_index77_InMemoryURLIndexCacheItem_CharWordMapItem_CharWordMapEntry_default_instance_E to i32 (...)***), align 8
  store i64 0, i64* bitcast (i8* getelementptr inbounds (%"class.in_memory_url_index::InMemoryURLIndexCacheItem_CharWordMapItem_CharWordMapEntryDefaultTypeInternal", %"class.in_memory_url_index::InMemoryURLIndexCacheItem_CharWordMapItem_CharWordMapEntryDefaultTypeInternal"* @_ZN19in_memory_url_index77_InMemoryURLIndexCacheItem_CharWordMapItem_CharWordMapEntry_default_instance_E, i64 0, i32 0, i32 0, i32 1, i64 36) to i64*), align 4
  tail call void @llvm.memset.p0i8.i64(i8* align 8 getelementptr inbounds (%"class.in_memory_url_index::InMemoryURLIndexCacheItem_CharWordMapItem_CharWordMapEntryDefaultTypeInternal", %"class.in_memory_url_index::InMemoryURLIndexCacheItem_CharWordMapItem_CharWordMapEntryDefaultTypeInternal"* @_ZN19in_memory_url_index77_InMemoryURLIndexCacheItem_CharWordMapItem_CharWordMapEntry_default_instance_E, i64 0, i32 0, i32 0, i32 1, i64 8), i8 0, i64 24, i1 false) #14
  tail call void @_ZN6google8protobuf8internal13OnShutdownRunEPFvPKvES3_(void (i8*)* nonnull @_ZN6google8protobuf8internal14DestroyMessageEPKv, i8* bitcast (%"class.in_memory_url_index::InMemoryURLIndexCacheItem_CharWordMapItem_CharWordMapEntryDefaultTypeInternal"* @_ZN19in_memory_url_index77_InMemoryURLIndexCacheItem_CharWordMapItem_CharWordMapEntry_default_instance_E to i8*)) #14
  ret void
}

; Function Attrs: nounwind ssp uwtable
define internal void @_ZL107InitDefaultsscc_info_InMemoryURLIndexCacheItem_HistoryInfoMapItem_in_5fmemory_5furl_5findex_5fcache_2eprotov() #0 {
  tail call void @_ZN6google8protobuf8internal13VerifyVersionEiiPKc(i32 3013000, i32 3013000, i8* getelementptr inbounds ([63 x i8], [63 x i8]* @.str, i64 0, i64 0)) #14
  store %"class.google::protobuf::Arena"* null, %"class.google::protobuf::Arena"** bitcast (i8* getelementptr inbounds (%"class.in_memory_url_index::InMemoryURLIndexCacheItem_HistoryInfoMapItemDefaultTypeInternal", %"class.in_memory_url_index::InMemoryURLIndexCacheItem_HistoryInfoMapItemDefaultTypeInternal"* @_ZN19in_memory_url_index63_InMemoryURLIndexCacheItem_HistoryInfoMapItem_default_instance_E, i64 0, i32 0, i32 0, i32 1, i64 0) to %"class.google::protobuf::Arena"**), align 8
  store i32 (...)** bitcast (i8** getelementptr inbounds ({ [16 x i8*] }, { [16 x i8*] }* @_ZTVN19in_memory_url_index44InMemoryURLIndexCacheItem_HistoryInfoMapItemE, i64 0, inrange i32 0, i64 2) to i32 (...)**), i32 (...)*** bitcast (%"class.in_memory_url_index::InMemoryURLIndexCacheItem_HistoryInfoMapItemDefaultTypeInternal"* @_ZN19in_memory_url_index63_InMemoryURLIndexCacheItem_HistoryInfoMapItem_default_instance_E to i32 (...)***), align 8
  tail call void @llvm.memset.p0i8.i64(i8* align 8 getelementptr inbounds (%"class.in_memory_url_index::InMemoryURLIndexCacheItem_HistoryInfoMapItemDefaultTypeInternal", %"class.in_memory_url_index::InMemoryURLIndexCacheItem_HistoryInfoMapItemDefaultTypeInternal"* @_ZN19in_memory_url_index63_InMemoryURLIndexCacheItem_HistoryInfoMapItem_default_instance_E, i64 0, i32 0, i32 0, i32 1, i64 8), i8 0, i64 32, i1 false) #14
  %1 = load atomic i32, i32* getelementptr inbounds ({ { { { i32 } }, i32, i32, void ()* }, [1 x i8*] }, { { { { i32 } }, i32, i32, void ()* }, [1 x i8*] }* @scc_info_InMemoryURLIndexCacheItem_HistoryInfoMapItem_in_5fmemory_5furl_5findex_5fcache_2eproto, i64 0, i32 0, i32 0, i32 0, i32 0) acquire, align 8
  %2 = icmp eq i32 %1, 0
  br i1 %2, label %4, label %3, !prof !2

3:                                                ; preds = %0
  tail call void @_ZN6google8protobuf8internal11InitSCCImplEPNS1_11SCCInfoBaseE(%"struct.google::protobuf::internal::SCCInfoBase"* bitcast ({ { { { i32 } }, i32, i32, void ()* }, [1 x i8*] }* @scc_info_InMemoryURLIndexCacheItem_HistoryInfoMapItem_in_5fmemory_5furl_5findex_5fcache_2eproto to %"struct.google::protobuf::internal::SCCInfoBase"*)) #14
  br label %4

4:                                                ; preds = %0, %3
  store i32 0, i32* bitcast (i8* getelementptr inbounds (%"class.in_memory_url_index::InMemoryURLIndexCacheItem_HistoryInfoMapItemDefaultTypeInternal", %"class.in_memory_url_index::InMemoryURLIndexCacheItem_HistoryInfoMapItemDefaultTypeInternal"* @_ZN19in_memory_url_index63_InMemoryURLIndexCacheItem_HistoryInfoMapItem_default_instance_E, i64 0, i32 0, i32 0, i32 1, i64 40) to i32*), align 8
  tail call void @_ZN6google8protobuf8internal13OnShutdownRunEPFvPKvES3_(void (i8*)* nonnull @_ZN6google8protobuf8internal14DestroyMessageEPKv, i8* bitcast (%"class.in_memory_url_index::InMemoryURLIndexCacheItem_HistoryInfoMapItemDefaultTypeInternal"* @_ZN19in_memory_url_index63_InMemoryURLIndexCacheItem_HistoryInfoMapItem_default_instance_E to i8*)) #14
  ret void
}

; Function Attrs: nounwind ssp uwtable
define internal void @_ZL127InitDefaultsscc_info_InMemoryURLIndexCacheItem_HistoryInfoMapItem_HistoryInfoMapEntry_in_5fmemory_5furl_5findex_5fcache_2eprotov() #0 {
  tail call void @_ZN6google8protobuf8internal13VerifyVersionEiiPKc(i32 3013000, i32 3013000, i8* getelementptr inbounds ([63 x i8], [63 x i8]* @.str, i64 0, i64 0)) #14
  store %"class.google::protobuf::Arena"* null, %"class.google::protobuf::Arena"** bitcast (i8* getelementptr inbounds (%"class.in_memory_url_index::InMemoryURLIndexCacheItem_HistoryInfoMapItem_HistoryInfoMapEntryDefaultTypeInternal", %"class.in_memory_url_index::InMemoryURLIndexCacheItem_HistoryInfoMapItem_HistoryInfoMapEntryDefaultTypeInternal"* @_ZN19in_memory_url_index83_InMemoryURLIndexCacheItem_HistoryInfoMapItem_HistoryInfoMapEntry_default_instance_E, i64 0, i32 0, i32 0, i32 1, i64 0) to %"class.google::protobuf::Arena"**), align 8
  store i32 (...)** bitcast (i8** getelementptr inbounds ({ [16 x i8*] }, { [16 x i8*] }* @_ZTVN19in_memory_url_index64InMemoryURLIndexCacheItem_HistoryInfoMapItem_HistoryInfoMapEntryE, i64 0, inrange i32 0, i64 2) to i32 (...)**), i32 (...)*** bitcast (%"class.in_memory_url_index::InMemoryURLIndexCacheItem_HistoryInfoMapItem_HistoryInfoMapEntryDefaultTypeInternal"* @_ZN19in_memory_url_index83_InMemoryURLIndexCacheItem_HistoryInfoMapItem_HistoryInfoMapEntry_default_instance_E to i32 (...)***), align 8
  tail call void @llvm.memset.p0i8.i64(i8* align 8 getelementptr inbounds (%"class.in_memory_url_index::InMemoryURLIndexCacheItem_HistoryInfoMapItem_HistoryInfoMapEntryDefaultTypeInternal", %"class.in_memory_url_index::InMemoryURLIndexCacheItem_HistoryInfoMapItem_HistoryInfoMapEntryDefaultTypeInternal"* @_ZN19in_memory_url_index83_InMemoryURLIndexCacheItem_HistoryInfoMapItem_HistoryInfoMapEntry_default_instance_E, i64 0, i32 0, i32 0, i32 1, i64 8), i8 0, i64 32, i1 false) #14
  %1 = load atomic i32, i32* getelementptr inbounds ({ { { { i32 } }, i32, i32, void ()* }, [1 x i8*] }, { { { { i32 } }, i32, i32, void ()* }, [1 x i8*] }* @scc_info_InMemoryURLIndexCacheItem_HistoryInfoMapItem_HistoryInfoMapEntry_in_5fmemory_5furl_5findex_5fcache_2eproto, i64 0, i32 0, i32 0, i32 0, i32 0) acquire, align 8
  %2 = icmp eq i32 %1, 0
  br i1 %2, label %4, label %3, !prof !2

3:                                                ; preds = %0
  tail call void @_ZN6google8protobuf8internal11InitSCCImplEPNS1_11SCCInfoBaseE(%"struct.google::protobuf::internal::SCCInfoBase"* bitcast ({ { { { i32 } }, i32, i32, void ()* }, [1 x i8*] }* @scc_info_InMemoryURLIndexCacheItem_HistoryInfoMapItem_HistoryInfoMapEntry_in_5fmemory_5furl_5findex_5fcache_2eproto to %"struct.google::protobuf::internal::SCCInfoBase"*)) #14
  br label %4

4:                                                ; preds = %0, %3
  store <2 x %"class.std::__1::basic_string"*> <%"class.std::__1::basic_string"* bitcast (%"class.google::protobuf::internal::ExplicitlyConstructed.39"* @_ZN6google8protobuf8internal26fixed_address_empty_stringE to %"class.std::__1::basic_string"*), %"class.std::__1::basic_string"* bitcast (%"class.google::protobuf::internal::ExplicitlyConstructed.39"* @_ZN6google8protobuf8internal26fixed_address_empty_stringE to %"class.std::__1::basic_string"*)>, <2 x %"class.std::__1::basic_string"*>* bitcast (i8* getelementptr inbounds (%"class.in_memory_url_index::InMemoryURLIndexCacheItem_HistoryInfoMapItem_HistoryInfoMapEntryDefaultTypeInternal", %"class.in_memory_url_index::InMemoryURLIndexCacheItem_HistoryInfoMapItem_HistoryInfoMapEntryDefaultTypeInternal"* @_ZN19in_memory_url_index83_InMemoryURLIndexCacheItem_HistoryInfoMapItem_HistoryInfoMapEntry_default_instance_E, i64 0, i32 0, i32 0, i32 1, i64 40) to <2 x %"class.std::__1::basic_string"*>*), align 8
  tail call void @llvm.memset.p0i8.i64(i8* align 8 getelementptr inbounds (%"class.in_memory_url_index::InMemoryURLIndexCacheItem_HistoryInfoMapItem_HistoryInfoMapEntryDefaultTypeInternal", %"class.in_memory_url_index::InMemoryURLIndexCacheItem_HistoryInfoMapItem_HistoryInfoMapEntryDefaultTypeInternal"* @_ZN19in_memory_url_index83_InMemoryURLIndexCacheItem_HistoryInfoMapItem_HistoryInfoMapEntry_default_instance_E, i64 0, i32 0, i32 0, i32 1, i64 56), i8 0, i64 24, i1 false) #14
  tail call void @_ZN6google8protobuf8internal13OnShutdownRunEPFvPKvES3_(void (i8*)* nonnull @_ZN6google8protobuf8internal14DestroyMessageEPKv, i8* bitcast (%"class.in_memory_url_index::InMemoryURLIndexCacheItem_HistoryInfoMapItem_HistoryInfoMapEntryDefaultTypeInternal"* @_ZN19in_memory_url_index83_InMemoryURLIndexCacheItem_HistoryInfoMapItem_HistoryInfoMapEntry_default_instance_E to i8*)) #14
  ret void
}

; Function Attrs: nounwind ssp uwtable
define internal void @_ZL137InitDefaultsscc_info_InMemoryURLIndexCacheItem_HistoryInfoMapItem_HistoryInfoMapEntry_VisitInfo_in_5fmemory_5furl_5findex_5fcache_2eprotov() #0 {
  tail call void @_ZN6google8protobuf8internal13VerifyVersionEiiPKc(i32 3013000, i32 3013000, i8* getelementptr inbounds ([63 x i8], [63 x i8]* @.str, i64 0, i64 0)) #14
  store %"class.google::protobuf::Arena"* null, %"class.google::protobuf::Arena"** bitcast (i8* getelementptr inbounds (%"class.in_memory_url_index::InMemoryURLIndexCacheItem_HistoryInfoMapItem_HistoryInfoMapEntry_VisitInfoDefaultTypeInternal", %"class.in_memory_url_index::InMemoryURLIndexCacheItem_HistoryInfoMapItem_HistoryInfoMapEntry_VisitInfoDefaultTypeInternal"* @_ZN19in_memory_url_index93_InMemoryURLIndexCacheItem_HistoryInfoMapItem_HistoryInfoMapEntry_VisitInfo_default_instance_E, i64 0, i32 0, i32 0, i32 1, i64 0) to %"class.google::protobuf::Arena"**), align 8
  store i32 (...)** bitcast (i8** getelementptr inbounds ({ [16 x i8*] }, { [16 x i8*] }* @_ZTVN19in_memory_url_index74InMemoryURLIndexCacheItem_HistoryInfoMapItem_HistoryInfoMapEntry_VisitInfoE, i64 0, inrange i32 0, i64 2) to i32 (...)**), i32 (...)*** bitcast (%"class.in_memory_url_index::InMemoryURLIndexCacheItem_HistoryInfoMapItem_HistoryInfoMapEntry_VisitInfoDefaultTypeInternal"* @_ZN19in_memory_url_index93_InMemoryURLIndexCacheItem_HistoryInfoMapItem_HistoryInfoMapEntry_VisitInfo_default_instance_E to i32 (...)***), align 8
  tail call void @llvm.memset.p0i8.i64(i8* align 8 getelementptr inbounds (%"class.in_memory_url_index::InMemoryURLIndexCacheItem_HistoryInfoMapItem_HistoryInfoMapEntry_VisitInfoDefaultTypeInternal", %"class.in_memory_url_index::InMemoryURLIndexCacheItem_HistoryInfoMapItem_HistoryInfoMapEntry_VisitInfoDefaultTypeInternal"* @_ZN19in_memory_url_index93_InMemoryURLIndexCacheItem_HistoryInfoMapItem_HistoryInfoMapEntry_VisitInfo_default_instance_E, i64 0, i32 0, i32 0, i32 1, i64 8), i8 0, i64 24, i1 false) #14
  tail call void @_ZN6google8protobuf8internal13OnShutdownRunEPFvPKvES3_(void (i8*)* nonnull @_ZN6google8protobuf8internal14DestroyMessageEPKv, i8* bitcast (%"class.in_memory_url_index::InMemoryURLIndexCacheItem_HistoryInfoMapItem_HistoryInfoMapEntry_VisitInfoDefaultTypeInternal"* @_ZN19in_memory_url_index93_InMemoryURLIndexCacheItem_HistoryInfoMapItem_HistoryInfoMapEntry_VisitInfo_default_instance_E to i8*)) #14
  ret void
}

; Function Attrs: nounwind ssp uwtable
define internal void @_ZL109InitDefaultsscc_info_InMemoryURLIndexCacheItem_WordIDHistoryMapItem_in_5fmemory_5furl_5findex_5fcache_2eprotov() #0 {
  tail call void @_ZN6google8protobuf8internal13VerifyVersionEiiPKc(i32 3013000, i32 3013000, i8* getelementptr inbounds ([63 x i8], [63 x i8]* @.str, i64 0, i64 0)) #14
  store %"class.google::protobuf::Arena"* null, %"class.google::protobuf::Arena"** bitcast (i8* getelementptr inbounds (%"class.in_memory_url_index::InMemoryURLIndexCacheItem_WordIDHistoryMapItemDefaultTypeInternal", %"class.in_memory_url_index::InMemoryURLIndexCacheItem_WordIDHistoryMapItemDefaultTypeInternal"* @_ZN19in_memory_url_index65_InMemoryURLIndexCacheItem_WordIDHistoryMapItem_default_instance_E, i64 0, i32 0, i32 0, i32 1, i64 0) to %"class.google::protobuf::Arena"**), align 8
  store i32 (...)** bitcast (i8** getelementptr inbounds ({ [16 x i8*] }, { [16 x i8*] }* @_ZTVN19in_memory_url_index46InMemoryURLIndexCacheItem_WordIDHistoryMapItemE, i64 0, inrange i32 0, i64 2) to i32 (...)**), i32 (...)*** bitcast (%"class.in_memory_url_index::InMemoryURLIndexCacheItem_WordIDHistoryMapItemDefaultTypeInternal"* @_ZN19in_memory_url_index65_InMemoryURLIndexCacheItem_WordIDHistoryMapItem_default_instance_E to i32 (...)***), align 8
  tail call void @llvm.memset.p0i8.i64(i8* align 8 getelementptr inbounds (%"class.in_memory_url_index::InMemoryURLIndexCacheItem_WordIDHistoryMapItemDefaultTypeInternal", %"class.in_memory_url_index::InMemoryURLIndexCacheItem_WordIDHistoryMapItemDefaultTypeInternal"* @_ZN19in_memory_url_index65_InMemoryURLIndexCacheItem_WordIDHistoryMapItem_default_instance_E, i64 0, i32 0, i32 0, i32 1, i64 8), i8 0, i64 32, i1 false) #14
  %1 = load atomic i32, i32* getelementptr inbounds ({ { { { i32 } }, i32, i32, void ()* }, [1 x i8*] }, { { { { i32 } }, i32, i32, void ()* }, [1 x i8*] }* @scc_info_InMemoryURLIndexCacheItem_WordIDHistoryMapItem_in_5fmemory_5furl_5findex_5fcache_2eproto, i64 0, i32 0, i32 0, i32 0, i32 0) acquire, align 8
  %2 = icmp eq i32 %1, 0
  br i1 %2, label %4, label %3, !prof !2

3:                                                ; preds = %0
  tail call void @_ZN6google8protobuf8internal11InitSCCImplEPNS1_11SCCInfoBaseE(%"struct.google::protobuf::internal::SCCInfoBase"* bitcast ({ { { { i32 } }, i32, i32, void ()* }, [1 x i8*] }* @scc_info_InMemoryURLIndexCacheItem_WordIDHistoryMapItem_in_5fmemory_5furl_5findex_5fcache_2eproto to %"struct.google::protobuf::internal::SCCInfoBase"*)) #14
  br label %4

4:                                                ; preds = %0, %3
  store i32 0, i32* bitcast (i8* getelementptr inbounds (%"class.in_memory_url_index::InMemoryURLIndexCacheItem_WordIDHistoryMapItemDefaultTypeInternal", %"class.in_memory_url_index::InMemoryURLIndexCacheItem_WordIDHistoryMapItemDefaultTypeInternal"* @_ZN19in_memory_url_index65_InMemoryURLIndexCacheItem_WordIDHistoryMapItem_default_instance_E, i64 0, i32 0, i32 0, i32 1, i64 40) to i32*), align 8
  tail call void @_ZN6google8protobuf8internal13OnShutdownRunEPFvPKvES3_(void (i8*)* nonnull @_ZN6google8protobuf8internal14DestroyMessageEPKv, i8* bitcast (%"class.in_memory_url_index::InMemoryURLIndexCacheItem_WordIDHistoryMapItemDefaultTypeInternal"* @_ZN19in_memory_url_index65_InMemoryURLIndexCacheItem_WordIDHistoryMapItem_default_instance_E to i8*)) #14
  ret void
}

; Function Attrs: nounwind ssp uwtable
define internal void @_ZL131InitDefaultsscc_info_InMemoryURLIndexCacheItem_WordIDHistoryMapItem_WordIDHistoryMapEntry_in_5fmemory_5furl_5findex_5fcache_2eprotov() #0 {
  tail call void @_ZN6google8protobuf8internal13VerifyVersionEiiPKc(i32 3013000, i32 3013000, i8* getelementptr inbounds ([63 x i8], [63 x i8]* @.str, i64 0, i64 0)) #14
  store %"class.google::protobuf::Arena"* null, %"class.google::protobuf::Arena"** bitcast (i8* getelementptr inbounds (%"class.in_memory_url_index::InMemoryURLIndexCacheItem_WordIDHistoryMapItem_WordIDHistoryMapEntryDefaultTypeInternal", %"class.in_memory_url_index::InMemoryURLIndexCacheItem_WordIDHistoryMapItem_WordIDHistoryMapEntryDefaultTypeInternal"* @_ZN19in_memory_url_index87_InMemoryURLIndexCacheItem_WordIDHistoryMapItem_WordIDHistoryMapEntry_default_instance_E, i64 0, i32 0, i32 0, i32 1, i64 0) to %"class.google::protobuf::Arena"**), align 8
  store i32 (...)** bitcast (i8** getelementptr inbounds ({ [16 x i8*] }, { [16 x i8*] }* @_ZTVN19in_memory_url_index68InMemoryURLIndexCacheItem_WordIDHistoryMapItem_WordIDHistoryMapEntryE, i64 0, inrange i32 0, i64 2) to i32 (...)**), i32 (...)*** bitcast (%"class.in_memory_url_index::InMemoryURLIndexCacheItem_WordIDHistoryMapItem_WordIDHistoryMapEntryDefaultTypeInternal"* @_ZN19in_memory_url_index87_InMemoryURLIndexCacheItem_WordIDHistoryMapItem_WordIDHistoryMapEntry_default_instance_E to i32 (...)***), align 8
  store i64 0, i64* bitcast (i8* getelementptr inbounds (%"class.in_memory_url_index::InMemoryURLIndexCacheItem_WordIDHistoryMapItem_WordIDHistoryMapEntryDefaultTypeInternal", %"class.in_memory_url_index::InMemoryURLIndexCacheItem_WordIDHistoryMapItem_WordIDHistoryMapEntryDefaultTypeInternal"* @_ZN19in_memory_url_index87_InMemoryURLIndexCacheItem_WordIDHistoryMapItem_WordIDHistoryMapEntry_default_instance_E, i64 0, i32 0, i32 0, i32 1, i64 36) to i64*), align 4
  tail call void @llvm.memset.p0i8.i64(i8* align 8 getelementptr inbounds (%"class.in_memory_url_index::InMemoryURLIndexCacheItem_WordIDHistoryMapItem_WordIDHistoryMapEntryDefaultTypeInternal", %"class.in_memory_url_index::InMemoryURLIndexCacheItem_WordIDHistoryMapItem_WordIDHistoryMapEntryDefaultTypeInternal"* @_ZN19in_memory_url_index87_InMemoryURLIndexCacheItem_WordIDHistoryMapItem_WordIDHistoryMapEntry_default_instance_E, i64 0, i32 0, i32 0, i32 1, i64 8), i8 0, i64 24, i1 false) #14
  tail call void @_ZN6google8protobuf8internal13OnShutdownRunEPFvPKvES3_(void (i8*)* nonnull @_ZN6google8protobuf8internal14DestroyMessageEPKv, i8* bitcast (%"class.in_memory_url_index::InMemoryURLIndexCacheItem_WordIDHistoryMapItem_WordIDHistoryMapEntryDefaultTypeInternal"* @_ZN19in_memory_url_index87_InMemoryURLIndexCacheItem_WordIDHistoryMapItem_WordIDHistoryMapEntry_default_instance_E to i8*)) #14
  ret void
}

; Function Attrs: nounwind ssp uwtable
define internal void @_ZL101InitDefaultsscc_info_InMemoryURLIndexCacheItem_WordListItem_in_5fmemory_5furl_5findex_5fcache_2eprotov() #0 {
  tail call void @_ZN6google8protobuf8internal13VerifyVersionEiiPKc(i32 3013000, i32 3013000, i8* getelementptr inbounds ([63 x i8], [63 x i8]* @.str, i64 0, i64 0)) #14
  store %"class.google::protobuf::Arena"* null, %"class.google::protobuf::Arena"** bitcast (i8* getelementptr inbounds (%"class.in_memory_url_index::InMemoryURLIndexCacheItem_WordListItemDefaultTypeInternal", %"class.in_memory_url_index::InMemoryURLIndexCacheItem_WordListItemDefaultTypeInternal"* @_ZN19in_memory_url_index57_InMemoryURLIndexCacheItem_WordListItem_default_instance_E, i64 0, i32 0, i32 0, i32 1, i64 0) to %"class.google::protobuf::Arena"**), align 8
  store i32 (...)** bitcast (i8** getelementptr inbounds ({ [16 x i8*] }, { [16 x i8*] }* @_ZTVN19in_memory_url_index38InMemoryURLIndexCacheItem_WordListItemE, i64 0, inrange i32 0, i64 2) to i32 (...)**), i32 (...)*** bitcast (%"class.in_memory_url_index::InMemoryURLIndexCacheItem_WordListItemDefaultTypeInternal"* @_ZN19in_memory_url_index57_InMemoryURLIndexCacheItem_WordListItem_default_instance_E to i32 (...)***), align 8
  tail call void @llvm.memset.p0i8.i64(i8* align 8 getelementptr inbounds (%"class.in_memory_url_index::InMemoryURLIndexCacheItem_WordListItemDefaultTypeInternal", %"class.in_memory_url_index::InMemoryURLIndexCacheItem_WordListItemDefaultTypeInternal"* @_ZN19in_memory_url_index57_InMemoryURLIndexCacheItem_WordListItem_default_instance_E, i64 0, i32 0, i32 0, i32 1, i64 8), i8 0, i64 32, i1 false) #14
  %1 = load atomic i32, i32* getelementptr inbounds ({ { { { i32 } }, i32, i32, void ()* }, [0 x i8*] }, { { { { i32 } }, i32, i32, void ()* }, [0 x i8*] }* @scc_info_InMemoryURLIndexCacheItem_WordListItem_in_5fmemory_5furl_5findex_5fcache_2eproto, i64 0, i32 0, i32 0, i32 0, i32 0) acquire, align 8
  %2 = icmp eq i32 %1, 0
  br i1 %2, label %4, label %3, !prof !2

3:                                                ; preds = %0
  tail call void @_ZN6google8protobuf8internal11InitSCCImplEPNS1_11SCCInfoBaseE(%"struct.google::protobuf::internal::SCCInfoBase"* bitcast ({ { { { i32 } }, i32, i32, void ()* }, [0 x i8*] }* @scc_info_InMemoryURLIndexCacheItem_WordListItem_in_5fmemory_5furl_5findex_5fcache_2eproto to %"struct.google::protobuf::internal::SCCInfoBase"*)) #14
  br label %4

4:                                                ; preds = %0, %3
  store i32 0, i32* bitcast (i8* getelementptr inbounds (%"class.in_memory_url_index::InMemoryURLIndexCacheItem_WordListItemDefaultTypeInternal", %"class.in_memory_url_index::InMemoryURLIndexCacheItem_WordListItemDefaultTypeInternal"* @_ZN19in_memory_url_index57_InMemoryURLIndexCacheItem_WordListItem_default_instance_E, i64 0, i32 0, i32 0, i32 1, i64 40) to i32*), align 8
  tail call void @_ZN6google8protobuf8internal13OnShutdownRunEPFvPKvES3_(void (i8*)* nonnull @_ZN6google8protobuf8internal14DestroyMessageEPKv, i8* bitcast (%"class.in_memory_url_index::InMemoryURLIndexCacheItem_WordListItemDefaultTypeInternal"* @_ZN19in_memory_url_index57_InMemoryURLIndexCacheItem_WordListItem_default_instance_E to i8*)) #14
  ret void
}

; Function Attrs: nounwind ssp uwtable
define internal void @_ZL100InitDefaultsscc_info_InMemoryURLIndexCacheItem_WordMapItem_in_5fmemory_5furl_5findex_5fcache_2eprotov() #0 {
  tail call void @_ZN6google8protobuf8internal13VerifyVersionEiiPKc(i32 3013000, i32 3013000, i8* getelementptr inbounds ([63 x i8], [63 x i8]* @.str, i64 0, i64 0)) #14
  store %"class.google::protobuf::Arena"* null, %"class.google::protobuf::Arena"** bitcast (i8* getelementptr inbounds (%"class.in_memory_url_index::InMemoryURLIndexCacheItem_WordMapItemDefaultTypeInternal", %"class.in_memory_url_index::InMemoryURLIndexCacheItem_WordMapItemDefaultTypeInternal"* @_ZN19in_memory_url_index56_InMemoryURLIndexCacheItem_WordMapItem_default_instance_E, i64 0, i32 0, i32 0, i32 1, i64 0) to %"class.google::protobuf::Arena"**), align 8
  store i32 (...)** bitcast (i8** getelementptr inbounds ({ [16 x i8*] }, { [16 x i8*] }* @_ZTVN19in_memory_url_index37InMemoryURLIndexCacheItem_WordMapItemE, i64 0, inrange i32 0, i64 2) to i32 (...)**), i32 (...)*** bitcast (%"class.in_memory_url_index::InMemoryURLIndexCacheItem_WordMapItemDefaultTypeInternal"* @_ZN19in_memory_url_index56_InMemoryURLIndexCacheItem_WordMapItem_default_instance_E to i32 (...)***), align 8
  tail call void @llvm.memset.p0i8.i64(i8* align 8 getelementptr inbounds (%"class.in_memory_url_index::InMemoryURLIndexCacheItem_WordMapItemDefaultTypeInternal", %"class.in_memory_url_index::InMemoryURLIndexCacheItem_WordMapItemDefaultTypeInternal"* @_ZN19in_memory_url_index56_InMemoryURLIndexCacheItem_WordMapItem_default_instance_E, i64 0, i32 0, i32 0, i32 1, i64 8), i8 0, i64 32, i1 false) #14
  %1 = load atomic i32, i32* getelementptr inbounds ({ { { { i32 } }, i32, i32, void ()* }, [1 x i8*] }, { { { { i32 } }, i32, i32, void ()* }, [1 x i8*] }* @scc_info_InMemoryURLIndexCacheItem_WordMapItem_in_5fmemory_5furl_5findex_5fcache_2eproto, i64 0, i32 0, i32 0, i32 0, i32 0) acquire, align 8
  %2 = icmp eq i32 %1, 0
  br i1 %2, label %4, label %3, !prof !2

3:                                                ; preds = %0
  tail call void @_ZN6google8protobuf8internal11InitSCCImplEPNS1_11SCCInfoBaseE(%"struct.google::protobuf::internal::SCCInfoBase"* bitcast ({ { { { i32 } }, i32, i32, void ()* }, [1 x i8*] }* @scc_info_InMemoryURLIndexCacheItem_WordMapItem_in_5fmemory_5furl_5findex_5fcache_2eproto to %"struct.google::protobuf::internal::SCCInfoBase"*)) #14
  br label %4

4:                                                ; preds = %0, %3
  store i32 0, i32* bitcast (i8* getelementptr inbounds (%"class.in_memory_url_index::InMemoryURLIndexCacheItem_WordMapItemDefaultTypeInternal", %"class.in_memory_url_index::InMemoryURLIndexCacheItem_WordMapItemDefaultTypeInternal"* @_ZN19in_memory_url_index56_InMemoryURLIndexCacheItem_WordMapItem_default_instance_E, i64 0, i32 0, i32 0, i32 1, i64 40) to i32*), align 8
  tail call void @_ZN6google8protobuf8internal13OnShutdownRunEPFvPKvES3_(void (i8*)* nonnull @_ZN6google8protobuf8internal14DestroyMessageEPKv, i8* bitcast (%"class.in_memory_url_index::InMemoryURLIndexCacheItem_WordMapItemDefaultTypeInternal"* @_ZN19in_memory_url_index56_InMemoryURLIndexCacheItem_WordMapItem_default_instance_E to i8*)) #14
  ret void
}

; Function Attrs: nounwind ssp uwtable
define internal void @_ZL113InitDefaultsscc_info_InMemoryURLIndexCacheItem_WordMapItem_WordMapEntry_in_5fmemory_5furl_5findex_5fcache_2eprotov() #0 {
  tail call void @_ZN6google8protobuf8internal13VerifyVersionEiiPKc(i32 3013000, i32 3013000, i8* getelementptr inbounds ([63 x i8], [63 x i8]* @.str, i64 0, i64 0)) #14
  store %"class.google::protobuf::Arena"* null, %"class.google::protobuf::Arena"** bitcast (i8* getelementptr inbounds (%"class.in_memory_url_index::InMemoryURLIndexCacheItem_WordMapItem_WordMapEntryDefaultTypeInternal", %"class.in_memory_url_index::InMemoryURLIndexCacheItem_WordMapItem_WordMapEntryDefaultTypeInternal"* @_ZN19in_memory_url_index69_InMemoryURLIndexCacheItem_WordMapItem_WordMapEntry_default_instance_E, i64 0, i32 0, i32 0, i32 1, i64 0) to %"class.google::protobuf::Arena"**), align 8
  store i32 (...)** bitcast (i8** getelementptr inbounds ({ [16 x i8*] }, { [16 x i8*] }* @_ZTVN19in_memory_url_index50InMemoryURLIndexCacheItem_WordMapItem_WordMapEntryE, i64 0, inrange i32 0, i64 2) to i32 (...)**), i32 (...)*** bitcast (%"class.in_memory_url_index::InMemoryURLIndexCacheItem_WordMapItem_WordMapEntryDefaultTypeInternal"* @_ZN19in_memory_url_index69_InMemoryURLIndexCacheItem_WordMapItem_WordMapEntry_default_instance_E to i32 (...)***), align 8
  store i32 0, i32* bitcast (i8* getelementptr inbounds (%"class.in_memory_url_index::InMemoryURLIndexCacheItem_WordMapItem_WordMapEntryDefaultTypeInternal", %"class.in_memory_url_index::InMemoryURLIndexCacheItem_WordMapItem_WordMapEntryDefaultTypeInternal"* @_ZN19in_memory_url_index69_InMemoryURLIndexCacheItem_WordMapItem_WordMapEntry_default_instance_E, i64 0, i32 0, i32 0, i32 1, i64 8) to i32*), align 8
  store i32 0, i32* bitcast (i8* getelementptr inbounds (%"class.in_memory_url_index::InMemoryURLIndexCacheItem_WordMapItem_WordMapEntryDefaultTypeInternal", %"class.in_memory_url_index::InMemoryURLIndexCacheItem_WordMapItem_WordMapEntryDefaultTypeInternal"* @_ZN19in_memory_url_index69_InMemoryURLIndexCacheItem_WordMapItem_WordMapEntry_default_instance_E, i64 0, i32 0, i32 0, i32 1, i64 12) to i32*), align 4
  %1 = load atomic i32, i32* getelementptr inbounds ({ { { { i32 } }, i32, i32, void ()* }, [0 x i8*] }, { { { { i32 } }, i32, i32, void ()* }, [0 x i8*] }* @scc_info_InMemoryURLIndexCacheItem_WordMapItem_WordMapEntry_in_5fmemory_5furl_5findex_5fcache_2eproto, i64 0, i32 0, i32 0, i32 0, i32 0) acquire, align 8
  %2 = icmp eq i32 %1, 0
  br i1 %2, label %4, label %3, !prof !2

3:                                                ; preds = %0
  tail call void @_ZN6google8protobuf8internal11InitSCCImplEPNS1_11SCCInfoBaseE(%"struct.google::protobuf::internal::SCCInfoBase"* bitcast ({ { { { i32 } }, i32, i32, void ()* }, [0 x i8*] }* @scc_info_InMemoryURLIndexCacheItem_WordMapItem_WordMapEntry_in_5fmemory_5furl_5findex_5fcache_2eproto to %"struct.google::protobuf::internal::SCCInfoBase"*)) #14
  br label %4

4:                                                ; preds = %0, %3
  store %"class.std::__1::basic_string"* bitcast (%"class.google::protobuf::internal::ExplicitlyConstructed.39"* @_ZN6google8protobuf8internal26fixed_address_empty_stringE to %"class.std::__1::basic_string"*), %"class.std::__1::basic_string"** bitcast (i8* getelementptr inbounds (%"class.in_memory_url_index::InMemoryURLIndexCacheItem_WordMapItem_WordMapEntryDefaultTypeInternal", %"class.in_memory_url_index::InMemoryURLIndexCacheItem_WordMapItem_WordMapEntryDefaultTypeInternal"* @_ZN19in_memory_url_index69_InMemoryURLIndexCacheItem_WordMapItem_WordMapEntry_default_instance_E, i64 0, i32 0, i32 0, i32 1, i64 16) to %"class.std::__1::basic_string"**), align 8
  store i32 0, i32* bitcast (i8* getelementptr inbounds (%"class.in_memory_url_index::InMemoryURLIndexCacheItem_WordMapItem_WordMapEntryDefaultTypeInternal", %"class.in_memory_url_index::InMemoryURLIndexCacheItem_WordMapItem_WordMapEntryDefaultTypeInternal"* @_ZN19in_memory_url_index69_InMemoryURLIndexCacheItem_WordMapItem_WordMapEntry_default_instance_E, i64 0, i32 0, i32 0, i32 1, i64 24) to i32*), align 8
  tail call void @_ZN6google8protobuf8internal13OnShutdownRunEPFvPKvES3_(void (i8*)* nonnull @_ZN6google8protobuf8internal14DestroyMessageEPKv, i8* bitcast (%"class.in_memory_url_index::InMemoryURLIndexCacheItem_WordMapItem_WordMapEntryDefaultTypeInternal"* @_ZN19in_memory_url_index69_InMemoryURLIndexCacheItem_WordMapItem_WordMapEntry_default_instance_E to i8*)) #14
  ret void
}

; Function Attrs: nounwind ssp uwtable
define internal void @_ZL106InitDefaultsscc_info_InMemoryURLIndexCacheItem_WordStartsMapItem_in_5fmemory_5furl_5findex_5fcache_2eprotov() #0 {
  tail call void @_ZN6google8protobuf8internal13VerifyVersionEiiPKc(i32 3013000, i32 3013000, i8* getelementptr inbounds ([63 x i8], [63 x i8]* @.str, i64 0, i64 0)) #14
  store %"class.google::protobuf::Arena"* null, %"class.google::protobuf::Arena"** bitcast (i8* getelementptr inbounds (%"class.in_memory_url_index::InMemoryURLIndexCacheItem_WordStartsMapItemDefaultTypeInternal", %"class.in_memory_url_index::InMemoryURLIndexCacheItem_WordStartsMapItemDefaultTypeInternal"* @_ZN19in_memory_url_index62_InMemoryURLIndexCacheItem_WordStartsMapItem_default_instance_E, i64 0, i32 0, i32 0, i32 1, i64 0) to %"class.google::protobuf::Arena"**), align 8
  store i32 (...)** bitcast (i8** getelementptr inbounds ({ [16 x i8*] }, { [16 x i8*] }* @_ZTVN19in_memory_url_index43InMemoryURLIndexCacheItem_WordStartsMapItemE, i64 0, inrange i32 0, i64 2) to i32 (...)**), i32 (...)*** bitcast (%"class.in_memory_url_index::InMemoryURLIndexCacheItem_WordStartsMapItemDefaultTypeInternal"* @_ZN19in_memory_url_index62_InMemoryURLIndexCacheItem_WordStartsMapItem_default_instance_E to i32 (...)***), align 8
  tail call void @llvm.memset.p0i8.i64(i8* align 8 getelementptr inbounds (%"class.in_memory_url_index::InMemoryURLIndexCacheItem_WordStartsMapItemDefaultTypeInternal", %"class.in_memory_url_index::InMemoryURLIndexCacheItem_WordStartsMapItemDefaultTypeInternal"* @_ZN19in_memory_url_index62_InMemoryURLIndexCacheItem_WordStartsMapItem_default_instance_E, i64 0, i32 0, i32 0, i32 1, i64 8), i8 0, i64 32, i1 false) #14
  %1 = load atomic i32, i32* getelementptr inbounds ({ { { { i32 } }, i32, i32, void ()* }, [1 x i8*] }, { { { { i32 } }, i32, i32, void ()* }, [1 x i8*] }* @scc_info_InMemoryURLIndexCacheItem_WordStartsMapItem_in_5fmemory_5furl_5findex_5fcache_2eproto, i64 0, i32 0, i32 0, i32 0, i32 0) acquire, align 8
  %2 = icmp eq i32 %1, 0
  br i1 %2, label %4, label %3, !prof !2

3:                                                ; preds = %0
  tail call void @_ZN6google8protobuf8internal11InitSCCImplEPNS1_11SCCInfoBaseE(%"struct.google::protobuf::internal::SCCInfoBase"* bitcast ({ { { { i32 } }, i32, i32, void ()* }, [1 x i8*] }* @scc_info_InMemoryURLIndexCacheItem_WordStartsMapItem_in_5fmemory_5furl_5findex_5fcache_2eproto to %"struct.google::protobuf::internal::SCCInfoBase"*)) #14
  br label %4

4:                                                ; preds = %0, %3
  store i32 0, i32* bitcast (i8* getelementptr inbounds (%"class.in_memory_url_index::InMemoryURLIndexCacheItem_WordStartsMapItemDefaultTypeInternal", %"class.in_memory_url_index::InMemoryURLIndexCacheItem_WordStartsMapItemDefaultTypeInternal"* @_ZN19in_memory_url_index62_InMemoryURLIndexCacheItem_WordStartsMapItem_default_instance_E, i64 0, i32 0, i32 0, i32 1, i64 40) to i32*), align 8
  tail call void @_ZN6google8protobuf8internal13OnShutdownRunEPFvPKvES3_(void (i8*)* nonnull @_ZN6google8protobuf8internal14DestroyMessageEPKv, i8* bitcast (%"class.in_memory_url_index::InMemoryURLIndexCacheItem_WordStartsMapItemDefaultTypeInternal"* @_ZN19in_memory_url_index62_InMemoryURLIndexCacheItem_WordStartsMapItem_default_instance_E to i8*)) #14
  ret void
}

; Function Attrs: nounwind ssp uwtable
define internal void @_ZL125InitDefaultsscc_info_InMemoryURLIndexCacheItem_WordStartsMapItem_WordStartsMapEntry_in_5fmemory_5furl_5findex_5fcache_2eprotov() #0 {
  tail call void @_ZN6google8protobuf8internal13VerifyVersionEiiPKc(i32 3013000, i32 3013000, i8* getelementptr inbounds ([63 x i8], [63 x i8]* @.str, i64 0, i64 0)) #14
  store %"class.google::protobuf::Arena"* null, %"class.google::protobuf::Arena"** bitcast (i8* getelementptr inbounds (%"class.in_memory_url_index::InMemoryURLIndexCacheItem_WordStartsMapItem_WordStartsMapEntryDefaultTypeInternal", %"class.in_memory_url_index::InMemoryURLIndexCacheItem_WordStartsMapItem_WordStartsMapEntryDefaultTypeInternal"* @_ZN19in_memory_url_index81_InMemoryURLIndexCacheItem_WordStartsMapItem_WordStartsMapEntry_default_instance_E, i64 0, i32 0, i32 0, i32 1, i64 0) to %"class.google::protobuf::Arena"**), align 8
  store i32 (...)** bitcast (i8** getelementptr inbounds ({ [16 x i8*] }, { [16 x i8*] }* @_ZTVN19in_memory_url_index62InMemoryURLIndexCacheItem_WordStartsMapItem_WordStartsMapEntryE, i64 0, inrange i32 0, i64 2) to i32 (...)**), i32 (...)*** bitcast (%"class.in_memory_url_index::InMemoryURLIndexCacheItem_WordStartsMapItem_WordStartsMapEntryDefaultTypeInternal"* @_ZN19in_memory_url_index81_InMemoryURLIndexCacheItem_WordStartsMapItem_WordStartsMapEntry_default_instance_E to i32 (...)***), align 8
  store i64 0, i64* bitcast (i8* getelementptr inbounds (%"class.in_memory_url_index::InMemoryURLIndexCacheItem_WordStartsMapItem_WordStartsMapEntryDefaultTypeInternal", %"class.in_memory_url_index::InMemoryURLIndexCacheItem_WordStartsMapItem_WordStartsMapEntryDefaultTypeInternal"* @_ZN19in_memory_url_index81_InMemoryURLIndexCacheItem_WordStartsMapItem_WordStartsMapEntry_default_instance_E, i64 0, i32 0, i32 0, i32 1, i64 64) to i64*), align 8
  tail call void @llvm.memset.p0i8.i64(i8* align 8 getelementptr inbounds (%"class.in_memory_url_index::InMemoryURLIndexCacheItem_WordStartsMapItem_WordStartsMapEntryDefaultTypeInternal", %"class.in_memory_url_index::InMemoryURLIndexCacheItem_WordStartsMapItem_WordStartsMapEntryDefaultTypeInternal"* @_ZN19in_memory_url_index81_InMemoryURLIndexCacheItem_WordStartsMapItem_WordStartsMapEntry_default_instance_E, i64 0, i32 0, i32 0, i32 1, i64 8), i8 0, i64 24, i1 false) #14
  tail call void @llvm.memset.p0i8.i64(i8* align 8 getelementptr inbounds (%"class.in_memory_url_index::InMemoryURLIndexCacheItem_WordStartsMapItem_WordStartsMapEntryDefaultTypeInternal", %"class.in_memory_url_index::InMemoryURLIndexCacheItem_WordStartsMapItem_WordStartsMapEntryDefaultTypeInternal"* @_ZN19in_memory_url_index81_InMemoryURLIndexCacheItem_WordStartsMapItem_WordStartsMapEntry_default_instance_E, i64 0, i32 0, i32 0, i32 1, i64 40), i8 0, i64 16, i1 false) #14
  tail call void @_ZN6google8protobuf8internal13OnShutdownRunEPFvPKvES3_(void (i8*)* nonnull @_ZN6google8protobuf8internal14DestroyMessageEPKv, i8* bitcast (%"class.in_memory_url_index::InMemoryURLIndexCacheItem_WordStartsMapItem_WordStartsMapEntryDefaultTypeInternal"* @_ZN19in_memory_url_index81_InMemoryURLIndexCacheItem_WordStartsMapItem_WordStartsMapEntry_default_instance_E to i8*)) #14
  ret void
}

; Function Attrs: nounwind ssp uwtable
define hidden void @_ZN19in_memory_url_index38InMemoryURLIndexCacheItem_WordListItemC2EPN6google8protobuf5ArenaE(%"class.in_memory_url_index::InMemoryURLIndexCacheItem_WordListItem"* nocapture, %"class.google::protobuf::Arena"*) unnamed_addr #0 align 2 {
  %3 = getelementptr inbounds %"class.in_memory_url_index::InMemoryURLIndexCacheItem_WordListItem", %"class.in_memory_url_index::InMemoryURLIndexCacheItem_WordListItem"* %0, i64 0, i32 0, i32 0
  %4 = getelementptr inbounds %"class.in_memory_url_index::InMemoryURLIndexCacheItem_WordListItem", %"class.in_memory_url_index::InMemoryURLIndexCacheItem_WordListItem"* %0, i64 0, i32 0, i32 1
  %5 = bitcast %"class.google::protobuf::internal::InternalMetadata"* %4 to %"class.google::protobuf::Arena"**
  store %"class.google::protobuf::Arena"* %1, %"class.google::protobuf::Arena"** %5, align 8
  store i32 (...)** bitcast (i8** getelementptr inbounds ({ [16 x i8*] }, { [16 x i8*] }* @_ZTVN19in_memory_url_index38InMemoryURLIndexCacheItem_WordListItemE, i64 0, inrange i32 0, i64 2) to i32 (...)**), i32 (...)*** %3, align 8
  %6 = getelementptr inbounds %"class.in_memory_url_index::InMemoryURLIndexCacheItem_WordListItem", %"class.in_memory_url_index::InMemoryURLIndexCacheItem_WordListItem"* %0, i64 0, i32 1, i32 0, i64 0
  store i32 0, i32* %6, align 4
  %7 = getelementptr inbounds %"class.in_memory_url_index::InMemoryURLIndexCacheItem_WordListItem", %"class.in_memory_url_index::InMemoryURLIndexCacheItem_WordListItem"* %0, i64 0, i32 2, i32 0, i32 0, i32 0, i32 0, i32 0, i32 0
  store i32 0, i32* %7, align 4
  %8 = getelementptr inbounds %"class.in_memory_url_index::InMemoryURLIndexCacheItem_WordListItem", %"class.in_memory_url_index::InMemoryURLIndexCacheItem_WordListItem"* %0, i64 0, i32 3, i32 0, i32 0
  store %"class.google::protobuf::Arena"* %1, %"class.google::protobuf::Arena"** %8, align 8
  %9 = getelementptr inbounds %"class.in_memory_url_index::InMemoryURLIndexCacheItem_WordListItem", %"class.in_memory_url_index::InMemoryURLIndexCacheItem_WordListItem"* %0, i64 0, i32 3, i32 0, i32 1
  %10 = bitcast i32* %9 to i8*
  tail call void @llvm.memset.p0i8.i64(i8* align 8 %10, i8 0, i64 16, i1 false) #14
  %11 = load atomic i32, i32* getelementptr inbounds ({ { { { i32 } }, i32, i32, void ()* }, [0 x i8*] }, { { { { i32 } }, i32, i32, void ()* }, [0 x i8*] }* @scc_info_InMemoryURLIndexCacheItem_WordListItem_in_5fmemory_5furl_5findex_5fcache_2eproto, i64 0, i32 0, i32 0, i32 0, i32 0) acquire, align 8
  %12 = icmp eq i32 %11, 0
  br i1 %12, label %14, label %13, !prof !2

13:                                               ; preds = %2
  tail call void @_ZN6google8protobuf8internal11InitSCCImplEPNS1_11SCCInfoBaseE(%"struct.google::protobuf::internal::SCCInfoBase"* bitcast ({ { { { i32 } }, i32, i32, void ()* }, [0 x i8*] }* @scc_info_InMemoryURLIndexCacheItem_WordListItem_in_5fmemory_5furl_5findex_5fcache_2eproto to %"struct.google::protobuf::internal::SCCInfoBase"*)) #14
  br label %14

14:                                               ; preds = %2, %13
  %15 = getelementptr inbounds %"class.in_memory_url_index::InMemoryURLIndexCacheItem_WordListItem", %"class.in_memory_url_index::InMemoryURLIndexCacheItem_WordListItem"* %0, i64 0, i32 4
  store i32 0, i32* %15, align 8
  ret void
}

; Function Attrs: nounwind ssp uwtable
define hidden void @_ZN19in_memory_url_index38InMemoryURLIndexCacheItem_WordListItemC2ERKS0_(%"class.in_memory_url_index::InMemoryURLIndexCacheItem_WordListItem"*, %"class.in_memory_url_index::InMemoryURLIndexCacheItem_WordListItem"* dereferenceable(56)) unnamed_addr #0 align 2 {
  %3 = getelementptr inbounds %"class.in_memory_url_index::InMemoryURLIndexCacheItem_WordListItem", %"class.in_memory_url_index::InMemoryURLIndexCacheItem_WordListItem"* %0, i64 0, i32 0, i32 0
  %4 = getelementptr inbounds %"class.in_memory_url_index::InMemoryURLIndexCacheItem_WordListItem", %"class.in_memory_url_index::InMemoryURLIndexCacheItem_WordListItem"* %0, i64 0, i32 0, i32 1, i32 0
  store i8* null, i8** %4, align 8
  store i32 (...)** bitcast (i8** getelementptr inbounds ({ [16 x i8*] }, { [16 x i8*] }* @_ZTVN19in_memory_url_index38InMemoryURLIndexCacheItem_WordListItemE, i64 0, inrange i32 0, i64 2) to i32 (...)**), i32 (...)*** %3, align 8
  %5 = getelementptr inbounds %"class.in_memory_url_index::InMemoryURLIndexCacheItem_WordListItem", %"class.in_memory_url_index::InMemoryURLIndexCacheItem_WordListItem"* %1, i64 0, i32 1, i32 0, i64 0
  %6 = getelementptr inbounds %"class.in_memory_url_index::InMemoryURLIndexCacheItem_WordListItem", %"class.in_memory_url_index::InMemoryURLIndexCacheItem_WordListItem"* %0, i64 0, i32 1, i32 0, i64 0
  %7 = load i32, i32* %5, align 8
  store i32 %7, i32* %6, align 8
  %8 = getelementptr inbounds %"class.in_memory_url_index::InMemoryURLIndexCacheItem_WordListItem", %"class.in_memory_url_index::InMemoryURLIndexCacheItem_WordListItem"* %0, i64 0, i32 2, i32 0, i32 0, i32 0, i32 0, i32 0, i32 0
  %9 = getelementptr inbounds %"class.in_memory_url_index::InMemoryURLIndexCacheItem_WordListItem", %"class.in_memory_url_index::InMemoryURLIndexCacheItem_WordListItem"* %0, i64 0, i32 3, i32 0
  %10 = getelementptr inbounds %"class.in_memory_url_index::InMemoryURLIndexCacheItem_WordListItem", %"class.in_memory_url_index::InMemoryURLIndexCacheItem_WordListItem"* %1, i64 0, i32 3, i32 0
  %11 = bitcast i32* %8 to i8*
  call void @llvm.memset.p0i8.i64(i8* align 4 %11, i8 0, i64 28, i1 false)
  tail call void @_ZN6google8protobuf8internal20RepeatedPtrFieldBase9MergeFromINS0_16RepeatedPtrFieldINSt3__112basic_stringIcNS5_11char_traitsIcEENS5_9allocatorIcEEEEE11TypeHandlerEEEvRKS2_(%"class.google::protobuf::internal::RepeatedPtrFieldBase"* %9, %"class.google::protobuf::internal::RepeatedPtrFieldBase"* dereferenceable(24) %10) #14
  %12 = getelementptr inbounds %"class.in_memory_url_index::InMemoryURLIndexCacheItem_WordListItem", %"class.in_memory_url_index::InMemoryURLIndexCacheItem_WordListItem"* %0, i64 0, i32 0, i32 1
  %13 = getelementptr inbounds %"class.in_memory_url_index::InMemoryURLIndexCacheItem_WordListItem", %"class.in_memory_url_index::InMemoryURLIndexCacheItem_WordListItem"* %1, i64 0, i32 0, i32 1
  %14 = bitcast %"class.google::protobuf::internal::InternalMetadata"* %13 to i64*
  %15 = load i64, i64* %14, align 8
  %16 = and i64 %15, 1
  %17 = icmp eq i64 %16, 0
  br i1 %17, label %47, label %18

18:                                               ; preds = %2
  %19 = and i64 %15, -2
  %20 = inttoptr i64 %19 to %"struct.google::protobuf::internal::InternalMetadata::Container"*
  %21 = getelementptr inbounds %"struct.google::protobuf::internal::InternalMetadata::Container", %"struct.google::protobuf::internal::InternalMetadata::Container"* %20, i64 0, i32 1
  %22 = bitcast %"class.google::protobuf::internal::InternalMetadata"* %12 to i64*
  %23 = load i64, i64* %22, align 8
  %24 = and i64 %23, 1
  %25 = icmp eq i64 %24, 0
  br i1 %25, label %30, label %26, !prof !3

26:                                               ; preds = %18
  %27 = and i64 %23, -2
  %28 = inttoptr i64 %27 to %"struct.google::protobuf::internal::InternalMetadata::Container"*
  %29 = getelementptr inbounds %"struct.google::protobuf::internal::InternalMetadata::Container", %"struct.google::protobuf::internal::InternalMetadata::Container"* %28, i64 0, i32 1
  br label %32

30:                                               ; preds = %18
  %31 = tail call %"class.std::__1::basic_string"* @_ZN6google8protobuf8internal16InternalMetadata27mutable_unknown_fields_slowINSt3__112basic_stringIcNS4_11char_traitsIcEENS4_9allocatorIcEEEEEEPT_v(%"class.google::protobuf::internal::InternalMetadata"* %12) #14
  br label %32

32:                                               ; preds = %30, %26
  %33 = phi %"class.std::__1::basic_string"* [ %29, %26 ], [ %31, %30 ]
  %34 = bitcast %"class.std::__1::basic_string"* %21 to %"struct.std::__1::basic_string<char, std::__1::char_traits<char>, std::__1::allocator<char> >::__short"*
  %35 = getelementptr inbounds %"struct.std::__1::basic_string<char, std::__1::char_traits<char>, std::__1::allocator<char> >::__short", %"struct.std::__1::basic_string<char, std::__1::char_traits<char>, std::__1::allocator<char> >::__short"* %34, i64 0, i32 1, i32 0
  %36 = load i8, i8* %35, align 1
  %37 = icmp slt i8 %36, 0
  %38 = getelementptr inbounds %"class.std::__1::basic_string", %"class.std::__1::basic_string"* %21, i64 0, i32 0, i32 0, i32 0, i32 0, i32 0, i32 0
  %39 = load i8*, i8** %38, align 8
  %40 = getelementptr inbounds %"struct.google::protobuf::internal::InternalMetadata::Container", %"struct.google::protobuf::internal::InternalMetadata::Container"* %20, i64 0, i32 1, i32 0, i32 0, i32 0, i32 0, i32 0, i32 1
  %41 = load i64, i64* %40, align 8
  %42 = bitcast %"class.std::__1::basic_string"* %21 to i8*
  %43 = zext i8 %36 to i64
  %44 = select i1 %37, i8* %39, i8* %42
  %45 = select i1 %37, i64 %41, i64 %43
  %46 = tail call dereferenceable(24) %"class.std::__1::basic_string"* @_ZNSt3__112basic_stringIcNS_11char_traitsIcEENS_9allocatorIcEEE6appendEPKcm(%"class.std::__1::basic_string"* %33, i8* %44, i64 %45) #14
  br label %47

47:                                               ; preds = %2, %32
  %48 = getelementptr inbounds %"class.in_memory_url_index::InMemoryURLIndexCacheItem_WordListItem", %"class.in_memory_url_index::InMemoryURLIndexCacheItem_WordListItem"* %1, i64 0, i32 4
  %49 = load i32, i32* %48, align 8
  %50 = getelementptr inbounds %"class.in_memory_url_index::InMemoryURLIndexCacheItem_WordListItem", %"class.in_memory_url_index::InMemoryURLIndexCacheItem_WordListItem"* %0, i64 0, i32 4
  store i32 %49, i32* %50, align 8
  ret void
}

; Function Attrs: argmemonly nounwind
declare void @llvm.memcpy.p0i8.p0i8.i64(i8* nocapture writeonly, i8* nocapture readonly, i64, i1 immarg) #1

; Function Attrs: nounwind ssp uwtable
define hidden void @_ZN19in_memory_url_index38InMemoryURLIndexCacheItem_WordListItemD2Ev(%"class.in_memory_url_index::InMemoryURLIndexCacheItem_WordListItem"*) unnamed_addr #0 align 2 {
  %2 = getelementptr inbounds %"class.in_memory_url_index::InMemoryURLIndexCacheItem_WordListItem", %"class.in_memory_url_index::InMemoryURLIndexCacheItem_WordListItem"* %0, i64 0, i32 0, i32 0
  store i32 (...)** bitcast (i8** getelementptr inbounds ({ [16 x i8*] }, { [16 x i8*] }* @_ZTVN19in_memory_url_index38InMemoryURLIndexCacheItem_WordListItemE, i64 0, inrange i32 0, i64 2) to i32 (...)**), i32 (...)*** %2, align 8
  %3 = getelementptr inbounds %"class.in_memory_url_index::InMemoryURLIndexCacheItem_WordListItem", %"class.in_memory_url_index::InMemoryURLIndexCacheItem_WordListItem"* %0, i64 0, i32 0, i32 1
  %4 = bitcast %"class.google::protobuf::internal::InternalMetadata"* %3 to i64*
  %5 = load i64, i64* %4, align 8
  %6 = and i64 %5, 1
  %7 = icmp eq i64 %6, 0
  br i1 %7, label %28, label %8

8:                                                ; preds = %1
  %9 = and i64 %5, -2
  %10 = inttoptr i64 %9 to %"struct.google::protobuf::internal::InternalMetadata::ContainerBase"*
  %11 = getelementptr inbounds %"struct.google::protobuf::internal::InternalMetadata::ContainerBase", %"struct.google::protobuf::internal::InternalMetadata::ContainerBase"* %10, i64 0, i32 0
  %12 = load %"class.google::protobuf::Arena"*, %"class.google::protobuf::Arena"** %11, align 8
  %13 = icmp ne %"class.google::protobuf::Arena"* %12, null
  %14 = icmp eq i64 %9, 0
  %15 = or i1 %14, %13
  br i1 %15, label %28, label %16

16:                                               ; preds = %8
  %17 = inttoptr i64 %9 to %"struct.google::protobuf::internal::InternalMetadata::Container"*
  %18 = getelementptr inbounds %"struct.google::protobuf::internal::InternalMetadata::Container", %"struct.google::protobuf::internal::InternalMetadata::Container"* %17, i64 0, i32 1
  %19 = bitcast %"class.std::__1::basic_string"* %18 to %"struct.std::__1::basic_string<char, std::__1::char_traits<char>, std::__1::allocator<char> >::__short"*
  %20 = getelementptr inbounds %"struct.std::__1::basic_string<char, std::__1::char_traits<char>, std::__1::allocator<char> >::__short", %"struct.std::__1::basic_string<char, std::__1::char_traits<char>, std::__1::allocator<char> >::__short"* %19, i64 0, i32 1, i32 0
  %21 = load i8, i8* %20, align 1
  %22 = icmp slt i8 %21, 0
  br i1 %22, label %23, label %26

23:                                               ; preds = %16
  %24 = getelementptr inbounds %"class.std::__1::basic_string", %"class.std::__1::basic_string"* %18, i64 0, i32 0, i32 0, i32 0, i32 0, i32 0, i32 0
  %25 = load i8*, i8** %24, align 8
  tail call void @_ZdlPv(i8* %25) #15
  br label %26

26:                                               ; preds = %23, %16
  %27 = inttoptr i64 %9 to i8*
  tail call void @_ZdlPv(i8* %27) #15
  br label %28

28:                                               ; preds = %1, %8, %26
  %29 = getelementptr inbounds %"class.in_memory_url_index::InMemoryURLIndexCacheItem_WordListItem", %"class.in_memory_url_index::InMemoryURLIndexCacheItem_WordListItem"* %0, i64 0, i32 3
  tail call void @_ZN6google8protobuf16RepeatedPtrFieldINSt3__112basic_stringIcNS2_11char_traitsIcEENS2_9allocatorIcEEEEED1Ev(%"class.google::protobuf::RepeatedPtrField"* %29) #14
  ret void
}

; Function Attrs: nounwind
declare void @_ZN6google8protobuf16RepeatedPtrFieldINSt3__112basic_stringIcNS2_11char_traitsIcEENS2_9allocatorIcEEEEED1Ev(%"class.google::protobuf::RepeatedPtrField"*) unnamed_addr #2

; Function Attrs: nounwind ssp uwtable
define hidden void @_ZN19in_memory_url_index38InMemoryURLIndexCacheItem_WordListItemD0Ev(%"class.in_memory_url_index::InMemoryURLIndexCacheItem_WordListItem"*) unnamed_addr #0 align 2 {
  %2 = getelementptr inbounds %"class.in_memory_url_index::InMemoryURLIndexCacheItem_WordListItem", %"class.in_memory_url_index::InMemoryURLIndexCacheItem_WordListItem"* %0, i64 0, i32 0, i32 0
  store i32 (...)** bitcast (i8** getelementptr inbounds ({ [16 x i8*] }, { [16 x i8*] }* @_ZTVN19in_memory_url_index38InMemoryURLIndexCacheItem_WordListItemE, i64 0, inrange i32 0, i64 2) to i32 (...)**), i32 (...)*** %2, align 8
  %3 = getelementptr inbounds %"class.in_memory_url_index::InMemoryURLIndexCacheItem_WordListItem", %"class.in_memory_url_index::InMemoryURLIndexCacheItem_WordListItem"* %0, i64 0, i32 0, i32 1
  %4 = bitcast %"class.google::protobuf::internal::InternalMetadata"* %3 to i64*
  %5 = load i64, i64* %4, align 8
  %6 = and i64 %5, 1
  %7 = icmp eq i64 %6, 0
  br i1 %7, label %28, label %8

8:                                                ; preds = %1
  %9 = and i64 %5, -2
  %10 = inttoptr i64 %9 to %"struct.google::protobuf::internal::InternalMetadata::ContainerBase"*
  %11 = getelementptr inbounds %"struct.google::protobuf::internal::InternalMetadata::ContainerBase", %"struct.google::protobuf::internal::InternalMetadata::ContainerBase"* %10, i64 0, i32 0
  %12 = load %"class.google::protobuf::Arena"*, %"class.google::protobuf::Arena"** %11, align 8
  %13 = icmp ne %"class.google::protobuf::Arena"* %12, null
  %14 = icmp eq i64 %9, 0
  %15 = or i1 %14, %13
  br i1 %15, label %28, label %16

16:                                               ; preds = %8
  %17 = inttoptr i64 %9 to %"struct.google::protobuf::internal::InternalMetadata::Container"*
  %18 = getelementptr inbounds %"struct.google::protobuf::internal::InternalMetadata::Container", %"struct.google::protobuf::internal::InternalMetadata::Container"* %17, i64 0, i32 1
  %19 = bitcast %"class.std::__1::basic_string"* %18 to %"struct.std::__1::basic_string<char, std::__1::char_traits<char>, std::__1::allocator<char> >::__short"*
  %20 = getelementptr inbounds %"struct.std::__1::basic_string<char, std::__1::char_traits<char>, std::__1::allocator<char> >::__short", %"struct.std::__1::basic_string<char, std::__1::char_traits<char>, std::__1::allocator<char> >::__short"* %19, i64 0, i32 1, i32 0
  %21 = load i8, i8* %20, align 1
  %22 = icmp slt i8 %21, 0
  br i1 %22, label %23, label %26

23:                                               ; preds = %16
  %24 = getelementptr inbounds %"class.std::__1::basic_string", %"class.std::__1::basic_string"* %18, i64 0, i32 0, i32 0, i32 0, i32 0, i32 0, i32 0
  %25 = load i8*, i8** %24, align 8
  tail call void @_ZdlPv(i8* %25) #15
  br label %26

26:                                               ; preds = %23, %16
  %27 = inttoptr i64 %9 to i8*
  tail call void @_ZdlPv(i8* %27) #15
  br label %28

28:                                               ; preds = %1, %8, %26
  %29 = getelementptr inbounds %"class.in_memory_url_index::InMemoryURLIndexCacheItem_WordListItem", %"class.in_memory_url_index::InMemoryURLIndexCacheItem_WordListItem"* %0, i64 0, i32 3
  tail call void @_ZN6google8protobuf16RepeatedPtrFieldINSt3__112basic_stringIcNS2_11char_traitsIcEENS2_9allocatorIcEEEEED1Ev(%"class.google::protobuf::RepeatedPtrField"* %29) #14
  %30 = bitcast %"class.in_memory_url_index::InMemoryURLIndexCacheItem_WordListItem"* %0 to i8*
  tail call void @_ZdlPv(i8* %30) #15
  ret void
}

; Function Attrs: nobuiltin nounwind
declare void @_ZdlPv(i8*) local_unnamed_addr #3

; Function Attrs: norecurse nounwind readnone ssp uwtable
define hidden void @_ZN19in_memory_url_index38InMemoryURLIndexCacheItem_WordListItem9ArenaDtorEPv(i8* nocapture) local_unnamed_addr #4 align 2 {
  ret void
}

; Function Attrs: nofree norecurse nounwind ssp uwtable
define hidden void @_ZNK19in_memory_url_index38InMemoryURLIndexCacheItem_WordListItem13SetCachedSizeEi(%"class.in_memory_url_index::InMemoryURLIndexCacheItem_WordListItem"* nocapture, i32) local_unnamed_addr #5 align 2 {
  %3 = getelementptr inbounds %"class.in_memory_url_index::InMemoryURLIndexCacheItem_WordListItem", %"class.in_memory_url_index::InMemoryURLIndexCacheItem_WordListItem"* %0, i64 0, i32 2, i32 0, i32 0, i32 0, i32 0, i32 0, i32 0
  store atomic i32 %1, i32* %3 monotonic, align 4
  ret void
}

; Function Attrs: nounwind ssp uwtable
define hidden dereferenceable(56) %"class.in_memory_url_index::InMemoryURLIndexCacheItem_WordListItem"* @_ZN19in_memory_url_index38InMemoryURLIndexCacheItem_WordListItem16default_instanceEv() local_unnamed_addr #0 align 2 {
  %1 = load atomic i32, i32* getelementptr inbounds ({ { { { i32 } }, i32, i32, void ()* }, [0 x i8*] }, { { { { i32 } }, i32, i32, void ()* }, [0 x i8*] }* @scc_info_InMemoryURLIndexCacheItem_WordListItem_in_5fmemory_5furl_5findex_5fcache_2eproto, i64 0, i32 0, i32 0, i32 0, i32 0) acquire, align 8
  %2 = icmp eq i32 %1, 0
  br i1 %2, label %4, label %3, !prof !2

3:                                                ; preds = %0
  tail call void @_ZN6google8protobuf8internal11InitSCCImplEPNS1_11SCCInfoBaseE(%"struct.google::protobuf::internal::SCCInfoBase"* bitcast ({ { { { i32 } }, i32, i32, void ()* }, [0 x i8*] }* @scc_info_InMemoryURLIndexCacheItem_WordListItem_in_5fmemory_5furl_5findex_5fcache_2eproto to %"struct.google::protobuf::internal::SCCInfoBase"*)) #14
  br label %4

4:                                                ; preds = %0, %3
  ret %"class.in_memory_url_index::InMemoryURLIndexCacheItem_WordListItem"* bitcast (%"class.in_memory_url_index::InMemoryURLIndexCacheItem_WordListItemDefaultTypeInternal"* @_ZN19in_memory_url_index57_InMemoryURLIndexCacheItem_WordListItem_default_instance_E to %"class.in_memory_url_index::InMemoryURLIndexCacheItem_WordListItem"*)
}

; Function Attrs: nofree norecurse nounwind ssp uwtable
define hidden void @_ZN19in_memory_url_index38InMemoryURLIndexCacheItem_WordListItem5ClearEv(%"class.in_memory_url_index::InMemoryURLIndexCacheItem_WordListItem"* nocapture) unnamed_addr #5 align 2 {
  %2 = getelementptr inbounds %"class.in_memory_url_index::InMemoryURLIndexCacheItem_WordListItem", %"class.in_memory_url_index::InMemoryURLIndexCacheItem_WordListItem"* %0, i64 0, i32 3, i32 0, i32 1
  %3 = load i32, i32* %2, align 8
  %4 = icmp sgt i32 %3, 0
  br i1 %4, label %5, label %51

5:                                                ; preds = %1
  %6 = getelementptr inbounds %"class.in_memory_url_index::InMemoryURLIndexCacheItem_WordListItem", %"class.in_memory_url_index::InMemoryURLIndexCacheItem_WordListItem"* %0, i64 0, i32 3, i32 0, i32 3
  %7 = load %"struct.google::protobuf::internal::RepeatedPtrFieldBase::Rep"*, %"struct.google::protobuf::internal::RepeatedPtrFieldBase::Rep"** %6, align 8
  %8 = zext i32 %3 to i64
  %9 = and i64 %8, 1
  %10 = icmp eq i32 %3, 1
  br i1 %10, label %35, label %11

11:                                               ; preds = %5
  %12 = sub nsw i64 %8, %9
  br label %13

13:                                               ; preds = %80, %11
  %14 = phi i64 [ 0, %11 ], [ %29, %80 ]
  %15 = phi i64 [ %12, %11 ], [ %81, %80 ]
  %16 = or i64 %14, 1
  %17 = getelementptr inbounds %"struct.google::protobuf::internal::RepeatedPtrFieldBase::Rep", %"struct.google::protobuf::internal::RepeatedPtrFieldBase::Rep"* %7, i64 0, i32 1, i64 %14
  %18 = load i8*, i8** %17, align 8
  %19 = getelementptr inbounds i8, i8* %18, i64 23
  %20 = load i8, i8* %19, align 1
  %21 = icmp slt i8 %20, 0
  br i1 %21, label %22, label %27

22:                                               ; preds = %13
  %23 = bitcast i8* %18 to i8**
  %24 = load i8*, i8** %23, align 8
  store i8 0, i8* %24, align 1
  %25 = getelementptr inbounds i8, i8* %18, i64 8
  %26 = bitcast i8* %25 to i64*
  store i64 0, i64* %26, align 8
  br label %28

27:                                               ; preds = %13
  store i8 0, i8* %18, align 1
  store i8 0, i8* %19, align 1
  br label %28

28:                                               ; preds = %27, %22
  %29 = add nuw nsw i64 %14, 2
  %30 = getelementptr inbounds %"struct.google::protobuf::internal::RepeatedPtrFieldBase::Rep", %"struct.google::protobuf::internal::RepeatedPtrFieldBase::Rep"* %7, i64 0, i32 1, i64 %16
  %31 = load i8*, i8** %30, align 8
  %32 = getelementptr inbounds i8, i8* %31, i64 23
  %33 = load i8, i8* %32, align 1
  %34 = icmp slt i8 %33, 0
  br i1 %34, label %75, label %74

35:                                               ; preds = %80, %5
  %36 = phi i64 [ 0, %5 ], [ %29, %80 ]
  %37 = icmp eq i64 %9, 0
  br i1 %37, label %50, label %38

38:                                               ; preds = %35
  %39 = getelementptr inbounds %"struct.google::protobuf::internal::RepeatedPtrFieldBase::Rep", %"struct.google::protobuf::internal::RepeatedPtrFieldBase::Rep"* %7, i64 0, i32 1, i64 %36
  %40 = load i8*, i8** %39, align 8
  %41 = getelementptr inbounds i8, i8* %40, i64 23
  %42 = load i8, i8* %41, align 1
  %43 = icmp slt i8 %42, 0
  br i1 %43, label %45, label %44

44:                                               ; preds = %38
  store i8 0, i8* %40, align 1
  store i8 0, i8* %41, align 1
  br label %50

45:                                               ; preds = %38
  %46 = bitcast i8* %40 to i8**
  %47 = load i8*, i8** %46, align 8
  store i8 0, i8* %47, align 1
  %48 = getelementptr inbounds i8, i8* %40, i64 8
  %49 = bitcast i8* %48 to i64*
  store i64 0, i64* %49, align 8
  br label %50

50:                                               ; preds = %45, %44, %35
  store i32 0, i32* %2, align 8
  br label %51

51:                                               ; preds = %1, %50
  %52 = getelementptr inbounds %"class.in_memory_url_index::InMemoryURLIndexCacheItem_WordListItem", %"class.in_memory_url_index::InMemoryURLIndexCacheItem_WordListItem"* %0, i64 0, i32 4
  store i32 0, i32* %52, align 8
  %53 = getelementptr inbounds %"class.in_memory_url_index::InMemoryURLIndexCacheItem_WordListItem", %"class.in_memory_url_index::InMemoryURLIndexCacheItem_WordListItem"* %0, i64 0, i32 1, i32 0, i64 0
  store i32 0, i32* %53, align 4
  %54 = getelementptr inbounds %"class.in_memory_url_index::InMemoryURLIndexCacheItem_WordListItem", %"class.in_memory_url_index::InMemoryURLIndexCacheItem_WordListItem"* %0, i64 0, i32 0, i32 1
  %55 = bitcast %"class.google::protobuf::internal::InternalMetadata"* %54 to i64*
  %56 = load i64, i64* %55, align 8
  %57 = and i64 %56, 1
  %58 = icmp eq i64 %57, 0
  br i1 %58, label %73, label %59

59:                                               ; preds = %51
  %60 = and i64 %56, -2
  %61 = inttoptr i64 %60 to %"struct.google::protobuf::internal::InternalMetadata::Container"*
  %62 = getelementptr inbounds %"struct.google::protobuf::internal::InternalMetadata::Container", %"struct.google::protobuf::internal::InternalMetadata::Container"* %61, i64 0, i32 1
  %63 = bitcast %"class.std::__1::basic_string"* %62 to %"struct.std::__1::basic_string<char, std::__1::char_traits<char>, std::__1::allocator<char> >::__short"*
  %64 = getelementptr inbounds %"struct.std::__1::basic_string<char, std::__1::char_traits<char>, std::__1::allocator<char> >::__short", %"struct.std::__1::basic_string<char, std::__1::char_traits<char>, std::__1::allocator<char> >::__short"* %63, i64 0, i32 1, i32 0
  %65 = load i8, i8* %64, align 1
  %66 = icmp slt i8 %65, 0
  br i1 %66, label %67, label %71

67:                                               ; preds = %59
  %68 = getelementptr inbounds %"class.std::__1::basic_string", %"class.std::__1::basic_string"* %62, i64 0, i32 0, i32 0, i32 0, i32 0, i32 0, i32 0
  %69 = load i8*, i8** %68, align 8
  store i8 0, i8* %69, align 1
  %70 = getelementptr inbounds %"struct.google::protobuf::internal::InternalMetadata::Container", %"struct.google::protobuf::internal::InternalMetadata::Container"* %61, i64 0, i32 1, i32 0, i32 0, i32 0, i32 0, i32 0, i32 1
  store i64 0, i64* %70, align 8
  br label %73

71:                                               ; preds = %59
  %72 = bitcast %"class.std::__1::basic_string"* %62 to i8*
  store i8 0, i8* %72, align 2
  store i8 0, i8* %64, align 1
  br label %73

73:                                               ; preds = %51, %67, %71
  ret void

74:                                               ; preds = %28
  store i8 0, i8* %31, align 1
  store i8 0, i8* %32, align 1
  br label %80

75:                                               ; preds = %28
  %76 = bitcast i8* %31 to i8**
  %77 = load i8*, i8** %76, align 8
  store i8 0, i8* %77, align 1
  %78 = getelementptr inbounds i8, i8* %31, i64 8
  %79 = bitcast i8* %78 to i64*
  store i64 0, i64* %79, align 8
  br label %80

80:                                               ; preds = %75, %74
  %81 = add i64 %15, -2
  %82 = icmp eq i64 %81, 0
  br i1 %82, label %35, label %13
}

; Function Attrs: nounwind ssp uwtable
define hidden i8* @_ZN19in_memory_url_index38InMemoryURLIndexCacheItem_WordListItem14_InternalParseEPKcPN6google8protobuf8internal12ParseContextE(%"class.in_memory_url_index::InMemoryURLIndexCacheItem_WordListItem"*, i8*, %"class.google::protobuf::internal::ParseContext"*) unnamed_addr #0 align 2 {
  %4 = getelementptr inbounds %"class.google::protobuf::internal::ParseContext", %"class.google::protobuf::internal::ParseContext"* %2, i64 0, i32 0
  %5 = getelementptr inbounds %"class.google::protobuf::internal::ParseContext", %"class.google::protobuf::internal::ParseContext"* %2, i64 0, i32 2
  %6 = getelementptr inbounds %"class.google::protobuf::internal::ParseContext", %"class.google::protobuf::internal::ParseContext"* %2, i64 0, i32 0, i32 0
  %7 = getelementptr inbounds %"class.google::protobuf::internal::ParseContext", %"class.google::protobuf::internal::ParseContext"* %2, i64 0, i32 0, i32 1
  %8 = bitcast i8** %7 to i64*
  %9 = getelementptr inbounds %"class.google::protobuf::internal::ParseContext", %"class.google::protobuf::internal::ParseContext"* %2, i64 0, i32 0, i32 4
  %10 = getelementptr inbounds %"class.in_memory_url_index::InMemoryURLIndexCacheItem_WordListItem", %"class.in_memory_url_index::InMemoryURLIndexCacheItem_WordListItem"* %0, i64 0, i32 3
  %11 = getelementptr inbounds %"class.google::protobuf::RepeatedPtrField", %"class.google::protobuf::RepeatedPtrField"* %10, i64 0, i32 0
  %12 = getelementptr inbounds %"class.in_memory_url_index::InMemoryURLIndexCacheItem_WordListItem", %"class.in_memory_url_index::InMemoryURLIndexCacheItem_WordListItem"* %0, i64 0, i32 3, i32 0, i32 3
  %13 = getelementptr inbounds %"class.in_memory_url_index::InMemoryURLIndexCacheItem_WordListItem", %"class.in_memory_url_index::InMemoryURLIndexCacheItem_WordListItem"* %0, i64 0, i32 3, i32 0, i32 1
  %14 = getelementptr inbounds %"class.in_memory_url_index::InMemoryURLIndexCacheItem_WordListItem", %"class.in_memory_url_index::InMemoryURLIndexCacheItem_WordListItem"* %0, i64 0, i32 3, i32 0, i32 2
  %15 = getelementptr inbounds %"class.google::protobuf::RepeatedPtrField", %"class.google::protobuf::RepeatedPtrField"* %10, i64 0, i32 0, i32 0
  %16 = getelementptr inbounds %"class.in_memory_url_index::InMemoryURLIndexCacheItem_WordListItem", %"class.in_memory_url_index::InMemoryURLIndexCacheItem_WordListItem"* %0, i64 0, i32 4
  %17 = getelementptr inbounds %"class.in_memory_url_index::InMemoryURLIndexCacheItem_WordListItem", %"class.in_memory_url_index::InMemoryURLIndexCacheItem_WordListItem"* %0, i64 0, i32 0, i32 1
  %18 = bitcast %"class.google::protobuf::internal::InternalMetadata"* %17 to i64*
  br label %19

19:                                               ; preds = %87, %3
  %20 = phi i8* [ %89, %87 ], [ %1, %3 ]
  %21 = phi i32 [ %69, %87 ], [ 0, %3 ]
  br label %22

22:                                               ; preds = %179, %19
  %23 = phi i8* [ %20, %19 ], [ %180, %179 ]
  %24 = load i32, i32* %5, align 4
  %25 = load i8*, i8** %6, align 8
  %26 = icmp ult i8* %23, %25
  br i1 %26, label %40, label %27, !prof !2

27:                                               ; preds = %22
  %28 = load i64, i64* %8, align 8
  %29 = ptrtoint i8* %23 to i64
  %30 = sub i64 %29, %28
  %31 = load i32, i32* %9, align 4
  %32 = sext i32 %31 to i64
  %33 = icmp eq i64 %30, %32
  br i1 %33, label %181, label %34

34:                                               ; preds = %27
  %35 = tail call { i8*, i8 } @_ZN6google8protobuf8internal18EpsCopyInputStream12DoneFallbackEPKci(%"class.google::protobuf::internal::EpsCopyInputStream"* %4, i8* %23, i32 %24) #14
  %36 = extractvalue { i8*, i8 } %35, 0
  %37 = extractvalue { i8*, i8 } %35, 1
  %38 = and i8 %37, 1
  %39 = icmp eq i8 %38, 0
  br i1 %39, label %40, label %181

40:                                               ; preds = %34, %22
  %41 = phi i8* [ %36, %34 ], [ %23, %22 ]
  %42 = load i8, i8* %41, align 1
  %43 = zext i8 %42 to i32
  %44 = icmp sgt i8 %42, -1
  %45 = getelementptr inbounds i8, i8* %41, i64 1
  br i1 %44, label %59, label %46

46:                                               ; preds = %40
  %47 = load i8, i8* %45, align 1
  %48 = zext i8 %47 to i32
  %49 = shl nuw nsw i32 %48, 7
  %50 = add nsw i32 %43, -128
  %51 = add nsw i32 %50, %49
  %52 = icmp sgt i8 %47, -1
  br i1 %52, label %53, label %55

53:                                               ; preds = %46
  %54 = getelementptr inbounds i8, i8* %41, i64 2
  br label %59

55:                                               ; preds = %46
  %56 = tail call { i8*, i32 } @_ZN6google8protobuf8internal15ReadTagFallbackEPKcj(i8* %41, i32 %51) #14
  %57 = extractvalue { i8*, i32 } %56, 0
  %58 = extractvalue { i8*, i32 } %56, 1
  br label %59

59:                                               ; preds = %40, %53, %55
  %60 = phi i32 [ %51, %53 ], [ %58, %55 ], [ %43, %40 ]
  %61 = phi i8* [ %54, %53 ], [ %57, %55 ], [ %45, %40 ]
  %62 = icmp eq i8* %61, null
  br i1 %62, label %181, label %63, !prof !3

63:                                               ; preds = %59
  %64 = lshr i32 %60, 3
  switch i32 %64, label %157 [
    i32 1, label %65
    i32 2, label %91
  ]

65:                                               ; preds = %63
  %66 = and i32 %60, 255
  %67 = icmp eq i32 %66, 8
  br i1 %67, label %68, label %157, !prof !2

68:                                               ; preds = %65
  %69 = or i32 %21, 1
  %70 = load i8, i8* %61, align 1
  %71 = zext i8 %70 to i32
  %72 = icmp slt i8 %70, 0
  %73 = getelementptr inbounds i8, i8* %61, i64 1
  br i1 %72, label %74, label %87

74:                                               ; preds = %68
  %75 = load i8, i8* %73, align 1
  %76 = zext i8 %75 to i32
  %77 = shl nuw nsw i32 %76, 7
  %78 = add nsw i32 %71, -128
  %79 = add nsw i32 %78, %77
  %80 = icmp slt i8 %75, 0
  br i1 %80, label %83, label %81

81:                                               ; preds = %74
  %82 = getelementptr inbounds i8, i8* %61, i64 2
  br label %87

83:                                               ; preds = %74
  %84 = tail call { i8*, i32 } @_ZN6google8protobuf8internal17VarintParseSlow32EPKcj(i8* nonnull %61, i32 %79) #14
  %85 = extractvalue { i8*, i32 } %84, 0
  %86 = extractvalue { i8*, i32 } %84, 1
  br label %87

87:                                               ; preds = %68, %81, %83
  %88 = phi i32 [ %86, %83 ], [ %79, %81 ], [ %71, %68 ]
  %89 = phi i8* [ %85, %83 ], [ %82, %81 ], [ %73, %68 ]
  store i32 %88, i32* %16, align 8
  %90 = icmp eq i8* %89, null
  br i1 %90, label %181, label %19

91:                                               ; preds = %63
  %92 = and i32 %60, 255
  %93 = icmp eq i32 %92, 18
  br i1 %93, label %94, label %157, !prof !2

94:                                               ; preds = %91
  %95 = getelementptr inbounds i8, i8* %61, i64 -1
  br label %96

96:                                               ; preds = %154, %94
  %97 = phi i8* [ %95, %94 ], [ %149, %154 ]
  %98 = getelementptr inbounds i8, i8* %97, i64 1
  %99 = load %"struct.google::protobuf::internal::RepeatedPtrFieldBase::Rep"*, %"struct.google::protobuf::internal::RepeatedPtrFieldBase::Rep"** %12, align 8
  %100 = icmp eq %"struct.google::protobuf::internal::RepeatedPtrFieldBase::Rep"* %99, null
  br i1 %100, label %101, label %103

101:                                              ; preds = %96
  %102 = load i32, i32* %14, align 4
  br label %116

103:                                              ; preds = %96
  %104 = load i32, i32* %13, align 8
  %105 = getelementptr inbounds %"struct.google::protobuf::internal::RepeatedPtrFieldBase::Rep", %"struct.google::protobuf::internal::RepeatedPtrFieldBase::Rep"* %99, i64 0, i32 0
  %106 = load i32, i32* %105, align 8
  %107 = icmp slt i32 %104, %106
  br i1 %107, label %108, label %113

108:                                              ; preds = %103
  %109 = add nsw i32 %104, 1
  store i32 %109, i32* %13, align 8
  %110 = sext i32 %104 to i64
  %111 = getelementptr inbounds %"struct.google::protobuf::internal::RepeatedPtrFieldBase::Rep", %"struct.google::protobuf::internal::RepeatedPtrFieldBase::Rep"* %99, i64 0, i32 1, i64 %110
  %112 = load i8*, i8** %111, align 8
  br label %146

113:                                              ; preds = %103
  %114 = load i32, i32* %14, align 4
  %115 = icmp eq i32 %106, %114
  br i1 %115, label %116, label %122

116:                                              ; preds = %113, %101
  %117 = phi i32 [ %102, %101 ], [ %106, %113 ]
  %118 = add nsw i32 %117, 1
  tail call void @_ZN6google8protobuf8internal20RepeatedPtrFieldBase7ReserveEi(%"class.google::protobuf::internal::RepeatedPtrFieldBase"* %11, i32 %118) #14
  %119 = load %"struct.google::protobuf::internal::RepeatedPtrFieldBase::Rep"*, %"struct.google::protobuf::internal::RepeatedPtrFieldBase::Rep"** %12, align 8
  %120 = getelementptr inbounds %"struct.google::protobuf::internal::RepeatedPtrFieldBase::Rep", %"struct.google::protobuf::internal::RepeatedPtrFieldBase::Rep"* %119, i64 0, i32 0
  %121 = load i32, i32* %120, align 8
  br label %122

122:                                              ; preds = %116, %113
  %123 = phi i32 [ %121, %116 ], [ %106, %113 ]
  %124 = phi %"struct.google::protobuf::internal::RepeatedPtrFieldBase::Rep"* [ %119, %116 ], [ %99, %113 ]
  %125 = getelementptr inbounds %"struct.google::protobuf::internal::RepeatedPtrFieldBase::Rep", %"struct.google::protobuf::internal::RepeatedPtrFieldBase::Rep"* %124, i64 0, i32 0
  %126 = add nsw i32 %123, 1
  store i32 %126, i32* %125, align 8
  %127 = load %"class.google::protobuf::Arena"*, %"class.google::protobuf::Arena"** %15, align 8
  %128 = icmp eq %"class.google::protobuf::Arena"* %127, null
  br i1 %128, label %129, label %131

129:                                              ; preds = %122
  %130 = tail call i8* @_Znwm(i64 24) #15
  tail call void @llvm.memset.p0i8.i64(i8* nonnull align 8 %130, i8 0, i64 24, i1 false) #14
  br label %139

131:                                              ; preds = %122
  %132 = getelementptr inbounds %"class.google::protobuf::Arena", %"class.google::protobuf::Arena"* %127, i64 0, i32 4
  %133 = load i8*, i8** %132, align 8
  %134 = icmp eq i8* %133, null
  br i1 %134, label %136, label %135, !prof !2

135:                                              ; preds = %131
  tail call void @_ZNK6google8protobuf5Arena17OnArenaAllocationEPKSt9type_infom(%"class.google::protobuf::Arena"* nonnull %127, %"class.std::type_info"* null, i64 24) #14
  br label %136

136:                                              ; preds = %135, %131
  %137 = getelementptr inbounds %"class.google::protobuf::Arena", %"class.google::protobuf::Arena"* %127, i64 0, i32 0
  %138 = tail call i8* @_ZN6google8protobuf8internal9ArenaImpl28AllocateAlignedAndAddCleanupEmPFvPvE(%"class.google::protobuf::internal::ArenaImpl"* %137, i64 24, void (i8*)* nonnull @_ZN6google8protobuf8internal21arena_destruct_objectINSt3__112basic_stringIcNS3_11char_traitsIcEENS3_9allocatorIcEEEEEEvPv) #14
  tail call void @llvm.memset.p0i8.i64(i8* align 8 %138, i8 0, i64 24, i1 false) #14
  br label %139

139:                                              ; preds = %136, %129
  %140 = phi i8* [ %130, %129 ], [ %138, %136 ]
  %141 = load %"struct.google::protobuf::internal::RepeatedPtrFieldBase::Rep"*, %"struct.google::protobuf::internal::RepeatedPtrFieldBase::Rep"** %12, align 8
  %142 = load i32, i32* %13, align 8
  %143 = add nsw i32 %142, 1
  store i32 %143, i32* %13, align 8
  %144 = sext i32 %142 to i64
  %145 = getelementptr inbounds %"struct.google::protobuf::internal::RepeatedPtrFieldBase::Rep", %"struct.google::protobuf::internal::RepeatedPtrFieldBase::Rep"* %141, i64 0, i32 1, i64 %144
  store i8* %140, i8** %145, align 8
  br label %146

146:                                              ; preds = %108, %139
  %147 = phi i8* [ %112, %108 ], [ %140, %139 ]
  %148 = bitcast i8* %147 to %"class.std::__1::basic_string"*
  %149 = tail call i8* @_ZN6google8protobuf8internal24InlineGreedyStringParserEPNSt3__112basic_stringIcNS2_11char_traitsIcEENS2_9allocatorIcEEEEPKcPNS1_12ParseContextE(%"class.std::__1::basic_string"* %148, i8* %98, %"class.google::protobuf::internal::ParseContext"* %2) #14
  %150 = icmp eq i8* %149, null
  br i1 %150, label %181, label %151, !prof !3

151:                                              ; preds = %146
  %152 = load i8*, i8** %6, align 8
  %153 = icmp ugt i8* %152, %149
  br i1 %153, label %154, label %179

154:                                              ; preds = %151
  %155 = load i8, i8* %149, align 1
  %156 = icmp eq i8 %155, 18
  br i1 %156, label %96, label %179

157:                                              ; preds = %63, %91, %65
  %158 = and i32 %60, 7
  %159 = icmp eq i32 %158, 4
  %160 = icmp eq i32 %60, 0
  %161 = or i1 %160, %159
  br i1 %161, label %162, label %165

162:                                              ; preds = %157
  %163 = add i32 %60, -1
  %164 = getelementptr inbounds %"class.google::protobuf::internal::ParseContext", %"class.google::protobuf::internal::ParseContext"* %2, i64 0, i32 0, i32 8
  store i32 %163, i32* %164, align 8
  br label %181

165:                                              ; preds = %157
  %166 = load i64, i64* %18, align 8
  %167 = and i64 %166, 1
  %168 = icmp eq i64 %167, 0
  br i1 %168, label %173, label %169, !prof !3

169:                                              ; preds = %165
  %170 = and i64 %166, -2
  %171 = inttoptr i64 %170 to %"struct.google::protobuf::internal::InternalMetadata::Container"*
  %172 = getelementptr inbounds %"struct.google::protobuf::internal::InternalMetadata::Container", %"struct.google::protobuf::internal::InternalMetadata::Container"* %171, i64 0, i32 1
  br label %175

173:                                              ; preds = %165
  %174 = tail call %"class.std::__1::basic_string"* @_ZN6google8protobuf8internal16InternalMetadata27mutable_unknown_fields_slowINSt3__112basic_stringIcNS4_11char_traitsIcEENS4_9allocatorIcEEEEEEPT_v(%"class.google::protobuf::internal::InternalMetadata"* %17) #14
  br label %175

175:                                              ; preds = %169, %173
  %176 = phi %"class.std::__1::basic_string"* [ %172, %169 ], [ %174, %173 ]
  %177 = tail call i8* @_ZN6google8protobuf8internal17UnknownFieldParseEjPNSt3__112basic_stringIcNS2_11char_traitsIcEENS2_9allocatorIcEEEEPKcPNS1_12ParseContextE(i32 %60, %"class.std::__1::basic_string"* %176, i8* nonnull %61, %"class.google::protobuf::internal::ParseContext"* %2) #14
  %178 = icmp eq i8* %177, null
  br i1 %178, label %181, label %179

179:                                              ; preds = %151, %154, %175
  %180 = phi i8* [ %177, %175 ], [ %149, %154 ], [ %149, %151 ]
  br label %22

181:                                              ; preds = %34, %175, %27, %59, %87, %146, %162
  %182 = phi i8* [ %61, %162 ], [ null, %146 ], [ %36, %34 ], [ null, %59 ], [ %23, %27 ], [ null, %175 ], [ null, %87 ]
  %183 = phi i32 [ %21, %162 ], [ %21, %146 ], [ %21, %34 ], [ %21, %175 ], [ %21, %27 ], [ %21, %59 ], [ %69, %87 ]
  %184 = getelementptr inbounds %"class.in_memory_url_index::InMemoryURLIndexCacheItem_WordListItem", %"class.in_memory_url_index::InMemoryURLIndexCacheItem_WordListItem"* %0, i64 0, i32 1, i32 0, i64 0
  %185 = load i32, i32* %184, align 4
  %186 = or i32 %185, %183
  store i32 %186, i32* %184, align 4
  ret i8* %182
}

declare i8* @_ZN6google8protobuf8internal24InlineGreedyStringParserEPNSt3__112basic_stringIcNS2_11char_traitsIcEENS2_9allocatorIcEEEEPKcPNS1_12ParseContextE(%"class.std::__1::basic_string"*, i8*, %"class.google::protobuf::internal::ParseContext"*) local_unnamed_addr #6

declare i8* @_ZN6google8protobuf8internal17UnknownFieldParseEjPNSt3__112basic_stringIcNS2_11char_traitsIcEENS2_9allocatorIcEEEEPKcPNS1_12ParseContextE(i32, %"class.std::__1::basic_string"*, i8*, %"class.google::protobuf::internal::ParseContext"*) local_unnamed_addr #6

; Function Attrs: nounwind ssp uwtable
define hidden i8* @_ZNK19in_memory_url_index38InMemoryURLIndexCacheItem_WordListItem18_InternalSerializeEPhPN6google8protobuf2io19EpsCopyOutputStreamE(%"class.in_memory_url_index::InMemoryURLIndexCacheItem_WordListItem"* nocapture readonly, i8*, %"class.google::protobuf::io::EpsCopyOutputStream"*) unnamed_addr #0 align 2 {
  %4 = getelementptr inbounds %"class.in_memory_url_index::InMemoryURLIndexCacheItem_WordListItem", %"class.in_memory_url_index::InMemoryURLIndexCacheItem_WordListItem"* %0, i64 0, i32 1, i32 0, i64 0
  %5 = load i32, i32* %4, align 4
  %6 = and i32 %5, 1
  %7 = icmp eq i32 %6, 0
  br i1 %7, label %44, label %8

8:                                                ; preds = %3
  %9 = getelementptr inbounds %"class.google::protobuf::io::EpsCopyOutputStream", %"class.google::protobuf::io::EpsCopyOutputStream"* %2, i64 0, i32 0
  %10 = load i8*, i8** %9, align 8
  %11 = icmp ugt i8* %10, %1
  br i1 %11, label %14, label %12, !prof !2

12:                                               ; preds = %8
  %13 = tail call i8* @_ZN6google8protobuf2io19EpsCopyOutputStream19EnsureSpaceFallbackEPh(%"class.google::protobuf::io::EpsCopyOutputStream"* %2, i8* %1) #14
  br label %14

14:                                               ; preds = %8, %12
  %15 = phi i8* [ %13, %12 ], [ %1, %8 ]
  %16 = getelementptr inbounds %"class.in_memory_url_index::InMemoryURLIndexCacheItem_WordListItem", %"class.in_memory_url_index::InMemoryURLIndexCacheItem_WordListItem"* %0, i64 0, i32 4
  %17 = load i32, i32* %16, align 8
  store i8 8, i8* %15, align 1
  %18 = getelementptr inbounds i8, i8* %15, i64 1
  %19 = icmp ult i32 %17, 128
  %20 = trunc i32 %17 to i8
  br i1 %19, label %21, label %23

21:                                               ; preds = %14
  store i8 %20, i8* %18, align 1
  %22 = getelementptr inbounds i8, i8* %15, i64 2
  br label %44

23:                                               ; preds = %14
  %24 = or i8 %20, -128
  store i8 %24, i8* %18, align 1
  %25 = lshr i32 %17, 7
  %26 = icmp ult i32 %17, 16384
  br i1 %26, label %27, label %31

27:                                               ; preds = %23
  %28 = trunc i32 %25 to i8
  %29 = getelementptr inbounds i8, i8* %15, i64 2
  store i8 %28, i8* %29, align 1
  %30 = getelementptr inbounds i8, i8* %15, i64 3
  br label %44

31:                                               ; preds = %23
  %32 = getelementptr inbounds i8, i8* %15, i64 2
  br label %33

33:                                               ; preds = %33, %31
  %34 = phi i32 [ %25, %31 ], [ %38, %33 ]
  %35 = phi i8* [ %32, %31 ], [ %39, %33 ]
  %36 = trunc i32 %34 to i8
  %37 = or i8 %36, -128
  store i8 %37, i8* %35, align 1
  %38 = lshr i32 %34, 7
  %39 = getelementptr inbounds i8, i8* %35, i64 1
  %40 = icmp ugt i32 %34, 16383
  br i1 %40, label %33, label %41, !prof !3

41:                                               ; preds = %33
  %42 = trunc i32 %38 to i8
  %43 = getelementptr inbounds i8, i8* %35, i64 2
  store i8 %42, i8* %39, align 1
  br label %44

44:                                               ; preds = %41, %27, %21, %3
  %45 = phi i8* [ %1, %3 ], [ %22, %21 ], [ %30, %27 ], [ %43, %41 ]
  %46 = getelementptr inbounds %"class.in_memory_url_index::InMemoryURLIndexCacheItem_WordListItem", %"class.in_memory_url_index::InMemoryURLIndexCacheItem_WordListItem"* %0, i64 0, i32 3, i32 0, i32 1
  %47 = load i32, i32* %46, align 8
  %48 = icmp sgt i32 %47, 0
  br i1 %48, label %49, label %53

49:                                               ; preds = %44
  %50 = getelementptr inbounds %"class.in_memory_url_index::InMemoryURLIndexCacheItem_WordListItem", %"class.in_memory_url_index::InMemoryURLIndexCacheItem_WordListItem"* %0, i64 0, i32 3, i32 0, i32 3
  %51 = bitcast %"class.google::protobuf::io::EpsCopyOutputStream"* %2 to i64*
  %52 = zext i32 %47 to i64
  br label %60

53:                                               ; preds = %97, %44
  %54 = phi i8* [ %45, %44 ], [ %98, %97 ]
  %55 = getelementptr inbounds %"class.in_memory_url_index::InMemoryURLIndexCacheItem_WordListItem", %"class.in_memory_url_index::InMemoryURLIndexCacheItem_WordListItem"* %0, i64 0, i32 0, i32 1
  %56 = bitcast %"class.google::protobuf::internal::InternalMetadata"* %55 to i64*
  %57 = load i64, i64* %56, align 8
  %58 = and i64 %57, 1
  %59 = icmp eq i64 %58, 0
  br i1 %59, label %132, label %101, !prof !2

60:                                               ; preds = %97, %49
  %61 = phi i64 [ 0, %49 ], [ %99, %97 ]
  %62 = phi i8* [ %45, %49 ], [ %98, %97 ]
  %63 = load %"struct.google::protobuf::internal::RepeatedPtrFieldBase::Rep"*, %"struct.google::protobuf::internal::RepeatedPtrFieldBase::Rep"** %50, align 8
  %64 = getelementptr inbounds %"struct.google::protobuf::internal::RepeatedPtrFieldBase::Rep", %"struct.google::protobuf::internal::RepeatedPtrFieldBase::Rep"* %63, i64 0, i32 1, i64 %61
  %65 = bitcast i8** %64 to %"class.std::__1::basic_string"**
  %66 = load %"class.std::__1::basic_string"*, %"class.std::__1::basic_string"** %65, align 8
  %67 = bitcast %"class.std::__1::basic_string"* %66 to %"struct.std::__1::basic_string<char, std::__1::char_traits<char>, std::__1::allocator<char> >::__short"*
  %68 = getelementptr inbounds %"struct.std::__1::basic_string<char, std::__1::char_traits<char>, std::__1::allocator<char> >::__short", %"struct.std::__1::basic_string<char, std::__1::char_traits<char>, std::__1::allocator<char> >::__short"* %67, i64 0, i32 1, i32 0
  %69 = load i8, i8* %68, align 1
  %70 = icmp slt i8 %69, 0
  br i1 %70, label %73, label %71

71:                                               ; preds = %60
  %72 = zext i8 %69 to i64
  br label %77

73:                                               ; preds = %60
  %74 = getelementptr inbounds %"class.std::__1::basic_string", %"class.std::__1::basic_string"* %66, i64 0, i32 0, i32 0, i32 0, i32 0, i32 0, i32 1
  %75 = load i64, i64* %74, align 8
  %76 = icmp sgt i64 %75, 127
  br i1 %76, label %84, label %77, !prof !3

77:                                               ; preds = %73, %71
  %78 = phi i64 [ %72, %71 ], [ %75, %73 ]
  %79 = load i64, i64* %51, align 8
  %80 = ptrtoint i8* %62 to i64
  %81 = sub i64 14, %80
  %82 = add i64 %81, %79
  %83 = icmp slt i64 %82, %78
  br i1 %83, label %84, label %86, !prof !3

84:                                               ; preds = %77, %73
  %85 = tail call i8* @_ZN6google8protobuf2io19EpsCopyOutputStream18WriteStringOutlineEjRKNSt3__112basic_stringIcNS3_11char_traitsIcEENS3_9allocatorIcEEEEPh(%"class.google::protobuf::io::EpsCopyOutputStream"* %2, i32 2, %"class.std::__1::basic_string"* dereferenceable(24) %66, i8* %62) #14
  br label %97

86:                                               ; preds = %77
  store i8 18, i8* %62, align 1
  %87 = getelementptr inbounds i8, i8* %62, i64 1
  %88 = trunc i64 %78 to i8
  %89 = getelementptr inbounds i8, i8* %62, i64 2
  store i8 %88, i8* %87, align 1
  %90 = load i8, i8* %68, align 1
  %91 = icmp slt i8 %90, 0
  %92 = getelementptr inbounds %"class.std::__1::basic_string", %"class.std::__1::basic_string"* %66, i64 0, i32 0, i32 0, i32 0, i32 0, i32 0, i32 0
  %93 = load i8*, i8** %92, align 8
  %94 = bitcast %"class.std::__1::basic_string"* %66 to i8*
  %95 = select i1 %91, i8* %93, i8* %94
  tail call void @llvm.memcpy.p0i8.p0i8.i64(i8* align 1 %89, i8* align 1 %95, i64 %78, i1 false) #14
  %96 = getelementptr inbounds i8, i8* %89, i64 %78
  br label %97

97:                                               ; preds = %84, %86
  %98 = phi i8* [ %85, %84 ], [ %96, %86 ]
  %99 = add nuw nsw i64 %61, 1
  %100 = icmp eq i64 %99, %52
  br i1 %100, label %53, label %60

101:                                              ; preds = %53
  %102 = and i64 %57, -2
  %103 = inttoptr i64 %102 to %"struct.google::protobuf::internal::InternalMetadata::Container"*
  %104 = getelementptr inbounds %"struct.google::protobuf::internal::InternalMetadata::Container", %"struct.google::protobuf::internal::InternalMetadata::Container"* %103, i64 0, i32 1
  %105 = bitcast %"class.std::__1::basic_string"* %104 to %"struct.std::__1::basic_string<char, std::__1::char_traits<char>, std::__1::allocator<char> >::__short"*
  %106 = getelementptr inbounds %"struct.std::__1::basic_string<char, std::__1::char_traits<char>, std::__1::allocator<char> >::__short", %"struct.std::__1::basic_string<char, std::__1::char_traits<char>, std::__1::allocator<char> >::__short"* %105, i64 0, i32 1, i32 0
  %107 = load i8, i8* %106, align 1
  %108 = icmp slt i8 %107, 0
  br i1 %108, label %109, label %114

109:                                              ; preds = %101
  %110 = getelementptr inbounds %"class.std::__1::basic_string", %"class.std::__1::basic_string"* %104, i64 0, i32 0, i32 0, i32 0, i32 0, i32 0, i32 0
  %111 = load i8*, i8** %110, align 8
  %112 = getelementptr inbounds %"struct.google::protobuf::internal::InternalMetadata::Container", %"struct.google::protobuf::internal::InternalMetadata::Container"* %103, i64 0, i32 1, i32 0, i32 0, i32 0, i32 0, i32 0, i32 1
  %113 = load i64, i64* %112, align 8
  br label %117

114:                                              ; preds = %101
  %115 = bitcast %"class.std::__1::basic_string"* %104 to i8*
  %116 = zext i8 %107 to i64
  br label %117

117:                                              ; preds = %109, %114
  %118 = phi i8* [ %111, %109 ], [ %115, %114 ]
  %119 = phi i64 [ %113, %109 ], [ %116, %114 ]
  %120 = bitcast %"class.google::protobuf::io::EpsCopyOutputStream"* %2 to i64*
  %121 = load i64, i64* %120, align 8
  %122 = ptrtoint i8* %54 to i64
  %123 = sub i64 %121, %122
  %124 = shl i64 %119, 32
  %125 = ashr exact i64 %124, 32
  %126 = icmp slt i64 %123, %125
  br i1 %126, label %127, label %130, !prof !3

127:                                              ; preds = %117
  %128 = trunc i64 %119 to i32
  %129 = tail call i8* @_ZN6google8protobuf2io19EpsCopyOutputStream16WriteRawFallbackEPKviPh(%"class.google::protobuf::io::EpsCopyOutputStream"* %2, i8* %118, i32 %128, i8* %54) #14
  br label %132

130:                                              ; preds = %117
  tail call void @llvm.memcpy.p0i8.p0i8.i64(i8* align 1 %54, i8* align 1 %118, i64 %125, i1 false) #14
  %131 = getelementptr inbounds i8, i8* %54, i64 %125
  br label %132

132:                                              ; preds = %53, %130, %127
  %133 = phi i8* [ %54, %53 ], [ %129, %127 ], [ %131, %130 ]
  ret i8* %133
}

; Function Attrs: nounwind ssp uwtable
define hidden i64 @_ZNK19in_memory_url_index38InMemoryURLIndexCacheItem_WordListItem12ByteSizeLongEv(%"class.in_memory_url_index::InMemoryURLIndexCacheItem_WordListItem"* nocapture) unnamed_addr #0 align 2 {
  %2 = getelementptr inbounds %"class.in_memory_url_index::InMemoryURLIndexCacheItem_WordListItem", %"class.in_memory_url_index::InMemoryURLIndexCacheItem_WordListItem"* %0, i64 0, i32 1, i32 0, i64 0
  %3 = load i32, i32* %2, align 4
  %4 = and i32 %3, 1
  %5 = icmp eq i32 %4, 0
  br i1 %5, label %17, label %6

6:                                                ; preds = %1
  %7 = getelementptr inbounds %"class.in_memory_url_index::InMemoryURLIndexCacheItem_WordListItem", %"class.in_memory_url_index::InMemoryURLIndexCacheItem_WordListItem"* %0, i64 0, i32 4
  %8 = load i32, i32* %7, align 8
  %9 = or i32 %8, 1
  %10 = tail call i32 @llvm.ctlz.i32(i32 %9, i1 true) #14, !range !4
  %11 = xor i32 %10, 31
  %12 = mul nuw nsw i32 %11, 9
  %13 = add nuw nsw i32 %12, 73
  %14 = lshr i32 %13, 6
  %15 = add nuw nsw i32 %14, 1
  %16 = zext i32 %15 to i64
  br label %17

17:                                               ; preds = %1, %6
  %18 = phi i64 [ %16, %6 ], [ 0, %1 ]
  %19 = getelementptr inbounds %"class.in_memory_url_index::InMemoryURLIndexCacheItem_WordListItem", %"class.in_memory_url_index::InMemoryURLIndexCacheItem_WordListItem"* %0, i64 0, i32 3, i32 0, i32 1
  %20 = load i32, i32* %19, align 8
  %21 = zext i32 %20 to i64
  %22 = add nuw nsw i64 %18, %21
  %23 = icmp sgt i32 %20, 0
  br i1 %23, label %24, label %27

24:                                               ; preds = %17
  %25 = getelementptr inbounds %"class.in_memory_url_index::InMemoryURLIndexCacheItem_WordListItem", %"class.in_memory_url_index::InMemoryURLIndexCacheItem_WordListItem"* %0, i64 0, i32 3, i32 0, i32 3
  %26 = load %"struct.google::protobuf::internal::RepeatedPtrFieldBase::Rep"*, %"struct.google::protobuf::internal::RepeatedPtrFieldBase::Rep"** %25, align 8
  br label %34

27:                                               ; preds = %34, %17
  %28 = phi i64 [ %22, %17 ], [ %57, %34 ]
  %29 = getelementptr inbounds %"class.in_memory_url_index::InMemoryURLIndexCacheItem_WordListItem", %"class.in_memory_url_index::InMemoryURLIndexCacheItem_WordListItem"* %0, i64 0, i32 0, i32 1
  %30 = bitcast %"class.google::protobuf::internal::InternalMetadata"* %29 to i64*
  %31 = load i64, i64* %30, align 8
  %32 = and i64 %31, 1
  %33 = icmp eq i64 %32, 0
  br i1 %33, label %76, label %60, !prof !2

34:                                               ; preds = %34, %24
  %35 = phi i64 [ 0, %24 ], [ %58, %34 ]
  %36 = phi i64 [ %22, %24 ], [ %57, %34 ]
  %37 = getelementptr inbounds %"struct.google::protobuf::internal::RepeatedPtrFieldBase::Rep", %"struct.google::protobuf::internal::RepeatedPtrFieldBase::Rep"* %26, i64 0, i32 1, i64 %35
  %38 = bitcast i8** %37 to %"class.std::__1::basic_string"**
  %39 = load %"class.std::__1::basic_string"*, %"class.std::__1::basic_string"** %38, align 8
  %40 = bitcast %"class.std::__1::basic_string"* %39 to %"struct.std::__1::basic_string<char, std::__1::char_traits<char>, std::__1::allocator<char> >::__short"*
  %41 = getelementptr inbounds %"struct.std::__1::basic_string<char, std::__1::char_traits<char>, std::__1::allocator<char> >::__short", %"struct.std::__1::basic_string<char, std::__1::char_traits<char>, std::__1::allocator<char> >::__short"* %40, i64 0, i32 1, i32 0
  %42 = load i8, i8* %41, align 1
  %43 = icmp slt i8 %42, 0
  %44 = getelementptr inbounds %"class.std::__1::basic_string", %"class.std::__1::basic_string"* %39, i64 0, i32 0, i32 0, i32 0, i32 0, i32 0, i32 1
  %45 = load i64, i64* %44, align 8
  %46 = zext i8 %42 to i64
  %47 = select i1 %43, i64 %45, i64 %46
  %48 = trunc i64 %47 to i32
  %49 = or i32 %48, 1
  %50 = tail call i32 @llvm.ctlz.i32(i32 %49, i1 true) #14, !range !4
  %51 = xor i32 %50, 31
  %52 = mul nuw nsw i32 %51, 9
  %53 = add nuw nsw i32 %52, 73
  %54 = lshr i32 %53, 6
  %55 = zext i32 %54 to i64
  %56 = add i64 %47, %36
  %57 = add i64 %56, %55
  %58 = add nuw nsw i64 %35, 1
  %59 = icmp eq i64 %58, %21
  br i1 %59, label %27, label %34

60:                                               ; preds = %27
  %61 = and i64 %31, -2
  %62 = inttoptr i64 %61 to %"struct.google::protobuf::internal::InternalMetadata::Container"*
  %63 = getelementptr inbounds %"struct.google::protobuf::internal::InternalMetadata::Container", %"struct.google::protobuf::internal::InternalMetadata::Container"* %62, i64 0, i32 1
  %64 = bitcast %"class.std::__1::basic_string"* %63 to %"struct.std::__1::basic_string<char, std::__1::char_traits<char>, std::__1::allocator<char> >::__short"*
  %65 = getelementptr inbounds %"struct.std::__1::basic_string<char, std::__1::char_traits<char>, std::__1::allocator<char> >::__short", %"struct.std::__1::basic_string<char, std::__1::char_traits<char>, std::__1::allocator<char> >::__short"* %64, i64 0, i32 1, i32 0
  %66 = load i8, i8* %65, align 1
  %67 = icmp slt i8 %66, 0
  br i1 %67, label %68, label %71

68:                                               ; preds = %60
  %69 = getelementptr inbounds %"struct.google::protobuf::internal::InternalMetadata::Container", %"struct.google::protobuf::internal::InternalMetadata::Container"* %62, i64 0, i32 1, i32 0, i32 0, i32 0, i32 0, i32 0, i32 1
  %70 = load i64, i64* %69, align 8
  br label %73

71:                                               ; preds = %60
  %72 = zext i8 %66 to i64
  br label %73

73:                                               ; preds = %68, %71
  %74 = phi i64 [ %70, %68 ], [ %72, %71 ]
  %75 = add i64 %74, %28
  br label %76

76:                                               ; preds = %27, %73
  %77 = phi i64 [ %75, %73 ], [ %28, %27 ]
  %78 = trunc i64 %77 to i32
  %79 = getelementptr inbounds %"class.in_memory_url_index::InMemoryURLIndexCacheItem_WordListItem", %"class.in_memory_url_index::InMemoryURLIndexCacheItem_WordListItem"* %0, i64 0, i32 2, i32 0, i32 0, i32 0, i32 0, i32 0, i32 0
  store atomic i32 %78, i32* %79 monotonic, align 4
  ret i64 %77
}

; Function Attrs: nounwind ssp uwtable
define hidden void @_ZN19in_memory_url_index38InMemoryURLIndexCacheItem_WordListItem21CheckTypeAndMergeFromERKN6google8protobuf11MessageLiteE(%"class.in_memory_url_index::InMemoryURLIndexCacheItem_WordListItem"*, %"class.google::protobuf::MessageLite"* dereferenceable(16)) unnamed_addr #0 align 2 {
  %3 = getelementptr inbounds %"class.in_memory_url_index::InMemoryURLIndexCacheItem_WordListItem", %"class.in_memory_url_index::InMemoryURLIndexCacheItem_WordListItem"* %0, i64 0, i32 0, i32 1
  %4 = getelementptr inbounds %"class.google::protobuf::MessageLite", %"class.google::protobuf::MessageLite"* %1, i64 0, i32 1
  %5 = bitcast %"class.google::protobuf::internal::InternalMetadata"* %4 to i64*
  %6 = load i64, i64* %5, align 8
  %7 = and i64 %6, 1
  %8 = icmp eq i64 %7, 0
  br i1 %8, label %38, label %9

9:                                                ; preds = %2
  %10 = and i64 %6, -2
  %11 = inttoptr i64 %10 to %"struct.google::protobuf::internal::InternalMetadata::Container"*
  %12 = getelementptr inbounds %"struct.google::protobuf::internal::InternalMetadata::Container", %"struct.google::protobuf::internal::InternalMetadata::Container"* %11, i64 0, i32 1
  %13 = bitcast %"class.google::protobuf::internal::InternalMetadata"* %3 to i64*
  %14 = load i64, i64* %13, align 8
  %15 = and i64 %14, 1
  %16 = icmp eq i64 %15, 0
  br i1 %16, label %21, label %17, !prof !3

17:                                               ; preds = %9
  %18 = and i64 %14, -2
  %19 = inttoptr i64 %18 to %"struct.google::protobuf::internal::InternalMetadata::Container"*
  %20 = getelementptr inbounds %"struct.google::protobuf::internal::InternalMetadata::Container", %"struct.google::protobuf::internal::InternalMetadata::Container"* %19, i64 0, i32 1
  br label %23

21:                                               ; preds = %9
  %22 = tail call %"class.std::__1::basic_string"* @_ZN6google8protobuf8internal16InternalMetadata27mutable_unknown_fields_slowINSt3__112basic_stringIcNS4_11char_traitsIcEENS4_9allocatorIcEEEEEEPT_v(%"class.google::protobuf::internal::InternalMetadata"* %3) #14
  br label %23

23:                                               ; preds = %21, %17
  %24 = phi %"class.std::__1::basic_string"* [ %20, %17 ], [ %22, %21 ]
  %25 = bitcast %"class.std::__1::basic_string"* %12 to %"struct.std::__1::basic_string<char, std::__1::char_traits<char>, std::__1::allocator<char> >::__short"*
  %26 = getelementptr inbounds %"struct.std::__1::basic_string<char, std::__1::char_traits<char>, std::__1::allocator<char> >::__short", %"struct.std::__1::basic_string<char, std::__1::char_traits<char>, std::__1::allocator<char> >::__short"* %25, i64 0, i32 1, i32 0
  %27 = load i8, i8* %26, align 1
  %28 = icmp slt i8 %27, 0
  %29 = getelementptr inbounds %"class.std::__1::basic_string", %"class.std::__1::basic_string"* %12, i64 0, i32 0, i32 0, i32 0, i32 0, i32 0, i32 0
  %30 = load i8*, i8** %29, align 8
  %31 = getelementptr inbounds %"struct.google::protobuf::internal::InternalMetadata::Container", %"struct.google::protobuf::internal::InternalMetadata::Container"* %11, i64 0, i32 1, i32 0, i32 0, i32 0, i32 0, i32 0, i32 1
  %32 = load i64, i64* %31, align 8
  %33 = bitcast %"class.std::__1::basic_string"* %12 to i8*
  %34 = zext i8 %27 to i64
  %35 = select i1 %28, i8* %30, i8* %33
  %36 = select i1 %28, i64 %32, i64 %34
  %37 = tail call dereferenceable(24) %"class.std::__1::basic_string"* @_ZNSt3__112basic_stringIcNS_11char_traitsIcEENS_9allocatorIcEEE6appendEPKcm(%"class.std::__1::basic_string"* %24, i8* %35, i64 %36) #14
  br label %38

38:                                               ; preds = %23, %2
  %39 = getelementptr inbounds %"class.in_memory_url_index::InMemoryURLIndexCacheItem_WordListItem", %"class.in_memory_url_index::InMemoryURLIndexCacheItem_WordListItem"* %0, i64 0, i32 3, i32 0
  %40 = getelementptr inbounds %"class.google::protobuf::MessageLite", %"class.google::protobuf::MessageLite"* %1, i64 1, i32 1
  %41 = bitcast %"class.google::protobuf::internal::InternalMetadata"* %40 to %"class.google::protobuf::internal::RepeatedPtrFieldBase"*
  tail call void @_ZN6google8protobuf8internal20RepeatedPtrFieldBase9MergeFromINS0_16RepeatedPtrFieldINSt3__112basic_stringIcNS5_11char_traitsIcEENS5_9allocatorIcEEEEE11TypeHandlerEEEvRKS2_(%"class.google::protobuf::internal::RepeatedPtrFieldBase"* %39, %"class.google::protobuf::internal::RepeatedPtrFieldBase"* dereferenceable(24) %41) #14
  %42 = getelementptr inbounds %"class.google::protobuf::MessageLite", %"class.google::protobuf::MessageLite"* %1, i64 1
  %43 = bitcast %"class.google::protobuf::MessageLite"* %42 to i32*
  %44 = load i32, i32* %43, align 4
  %45 = and i32 %44, 1
  %46 = icmp eq i32 %45, 0
  br i1 %46, label %55, label %47

47:                                               ; preds = %38
  %48 = getelementptr inbounds %"class.google::protobuf::MessageLite", %"class.google::protobuf::MessageLite"* %1, i64 3
  %49 = bitcast %"class.google::protobuf::MessageLite"* %48 to i32*
  %50 = load i32, i32* %49, align 8
  %51 = getelementptr inbounds %"class.in_memory_url_index::InMemoryURLIndexCacheItem_WordListItem", %"class.in_memory_url_index::InMemoryURLIndexCacheItem_WordListItem"* %0, i64 0, i32 1, i32 0, i64 0
  %52 = load i32, i32* %51, align 4
  %53 = or i32 %52, 1
  store i32 %53, i32* %51, align 4
  %54 = getelementptr inbounds %"class.in_memory_url_index::InMemoryURLIndexCacheItem_WordListItem", %"class.in_memory_url_index::InMemoryURLIndexCacheItem_WordListItem"* %0, i64 0, i32 4
  store i32 %50, i32* %54, align 8
  br label %55

55:                                               ; preds = %38, %47
  ret void
}

; Function Attrs: nounwind ssp uwtable
define hidden void @_ZN19in_memory_url_index38InMemoryURLIndexCacheItem_WordListItem9MergeFromERKS0_(%"class.in_memory_url_index::InMemoryURLIndexCacheItem_WordListItem"*, %"class.in_memory_url_index::InMemoryURLIndexCacheItem_WordListItem"* dereferenceable(56)) local_unnamed_addr #0 align 2 {
  %3 = getelementptr inbounds %"class.in_memory_url_index::InMemoryURLIndexCacheItem_WordListItem", %"class.in_memory_url_index::InMemoryURLIndexCacheItem_WordListItem"* %0, i64 0, i32 0, i32 1
  %4 = getelementptr inbounds %"class.in_memory_url_index::InMemoryURLIndexCacheItem_WordListItem", %"class.in_memory_url_index::InMemoryURLIndexCacheItem_WordListItem"* %1, i64 0, i32 0, i32 1
  %5 = bitcast %"class.google::protobuf::internal::InternalMetadata"* %4 to i64*
  %6 = load i64, i64* %5, align 8
  %7 = and i64 %6, 1
  %8 = icmp eq i64 %7, 0
  br i1 %8, label %38, label %9

9:                                                ; preds = %2
  %10 = and i64 %6, -2
  %11 = inttoptr i64 %10 to %"struct.google::protobuf::internal::InternalMetadata::Container"*
  %12 = getelementptr inbounds %"struct.google::protobuf::internal::InternalMetadata::Container", %"struct.google::protobuf::internal::InternalMetadata::Container"* %11, i64 0, i32 1
  %13 = bitcast %"class.google::protobuf::internal::InternalMetadata"* %3 to i64*
  %14 = load i64, i64* %13, align 8
  %15 = and i64 %14, 1
  %16 = icmp eq i64 %15, 0
  br i1 %16, label %21, label %17, !prof !3

17:                                               ; preds = %9
  %18 = and i64 %14, -2
  %19 = inttoptr i64 %18 to %"struct.google::protobuf::internal::InternalMetadata::Container"*
  %20 = getelementptr inbounds %"struct.google::protobuf::internal::InternalMetadata::Container", %"struct.google::protobuf::internal::InternalMetadata::Container"* %19, i64 0, i32 1
  br label %23

21:                                               ; preds = %9
  %22 = tail call %"class.std::__1::basic_string"* @_ZN6google8protobuf8internal16InternalMetadata27mutable_unknown_fields_slowINSt3__112basic_stringIcNS4_11char_traitsIcEENS4_9allocatorIcEEEEEEPT_v(%"class.google::protobuf::internal::InternalMetadata"* %3) #14
  br label %23

23:                                               ; preds = %21, %17
  %24 = phi %"class.std::__1::basic_string"* [ %20, %17 ], [ %22, %21 ]
  %25 = bitcast %"class.std::__1::basic_string"* %12 to %"struct.std::__1::basic_string<char, std::__1::char_traits<char>, std::__1::allocator<char> >::__short"*
  %26 = getelementptr inbounds %"struct.std::__1::basic_string<char, std::__1::char_traits<char>, std::__1::allocator<char> >::__short", %"struct.std::__1::basic_string<char, std::__1::char_traits<char>, std::__1::allocator<char> >::__short"* %25, i64 0, i32 1, i32 0
  %27 = load i8, i8* %26, align 1
  %28 = icmp slt i8 %27, 0
  %29 = getelementptr inbounds %"class.std::__1::basic_string", %"class.std::__1::basic_string"* %12, i64 0, i32 0, i32 0, i32 0, i32 0, i32 0, i32 0
  %30 = load i8*, i8** %29, align 8
  %31 = getelementptr inbounds %"struct.google::protobuf::internal::InternalMetadata::Container", %"struct.google::protobuf::internal::InternalMetadata::Container"* %11, i64 0, i32 1, i32 0, i32 0, i32 0, i32 0, i32 0, i32 1
  %32 = load i64, i64* %31, align 8
  %33 = bitcast %"class.std::__1::basic_string"* %12 to i8*
  %34 = zext i8 %27 to i64
  %35 = select i1 %28, i8* %30, i8* %33
  %36 = select i1 %28, i64 %32, i64 %34
  %37 = tail call dereferenceable(24) %"class.std::__1::basic_string"* @_ZNSt3__112basic_stringIcNS_11char_traitsIcEENS_9allocatorIcEEE6appendEPKcm(%"class.std::__1::basic_string"* %24, i8* %35, i64 %36) #14
  br label %38

38:                                               ; preds = %2, %23
  %39 = getelementptr inbounds %"class.in_memory_url_index::InMemoryURLIndexCacheItem_WordListItem", %"class.in_memory_url_index::InMemoryURLIndexCacheItem_WordListItem"* %0, i64 0, i32 3, i32 0
  %40 = getelementptr inbounds %"class.in_memory_url_index::InMemoryURLIndexCacheItem_WordListItem", %"class.in_memory_url_index::InMemoryURLIndexCacheItem_WordListItem"* %1, i64 0, i32 3, i32 0
  tail call void @_ZN6google8protobuf8internal20RepeatedPtrFieldBase9MergeFromINS0_16RepeatedPtrFieldINSt3__112basic_stringIcNS5_11char_traitsIcEENS5_9allocatorIcEEEEE11TypeHandlerEEEvRKS2_(%"class.google::protobuf::internal::RepeatedPtrFieldBase"* %39, %"class.google::protobuf::internal::RepeatedPtrFieldBase"* dereferenceable(24) %40) #14
  %41 = getelementptr inbounds %"class.in_memory_url_index::InMemoryURLIndexCacheItem_WordListItem", %"class.in_memory_url_index::InMemoryURLIndexCacheItem_WordListItem"* %1, i64 0, i32 1, i32 0, i64 0
  %42 = load i32, i32* %41, align 4
  %43 = and i32 %42, 1
  %44 = icmp eq i32 %43, 0
  br i1 %44, label %52, label %45

45:                                               ; preds = %38
  %46 = getelementptr inbounds %"class.in_memory_url_index::InMemoryURLIndexCacheItem_WordListItem", %"class.in_memory_url_index::InMemoryURLIndexCacheItem_WordListItem"* %1, i64 0, i32 4
  %47 = load i32, i32* %46, align 8
  %48 = getelementptr inbounds %"class.in_memory_url_index::InMemoryURLIndexCacheItem_WordListItem", %"class.in_memory_url_index::InMemoryURLIndexCacheItem_WordListItem"* %0, i64 0, i32 1, i32 0, i64 0
  %49 = load i32, i32* %48, align 4
  %50 = or i32 %49, 1
  store i32 %50, i32* %48, align 4
  %51 = getelementptr inbounds %"class.in_memory_url_index::InMemoryURLIndexCacheItem_WordListItem", %"class.in_memory_url_index::InMemoryURLIndexCacheItem_WordListItem"* %0, i64 0, i32 4
  store i32 %47, i32* %51, align 8
  br label %52

52:                                               ; preds = %38, %45
  ret void
}

; Function Attrs: nounwind ssp uwtable
define hidden void @_ZN19in_memory_url_index38InMemoryURLIndexCacheItem_WordListItem8CopyFromERKS0_(%"class.in_memory_url_index::InMemoryURLIndexCacheItem_WordListItem"*, %"class.in_memory_url_index::InMemoryURLIndexCacheItem_WordListItem"* dereferenceable(56)) local_unnamed_addr #0 align 2 {
  %3 = icmp eq %"class.in_memory_url_index::InMemoryURLIndexCacheItem_WordListItem"* %1, %0
  br i1 %3, label %122, label %4

4:                                                ; preds = %2
  %5 = getelementptr inbounds %"class.in_memory_url_index::InMemoryURLIndexCacheItem_WordListItem", %"class.in_memory_url_index::InMemoryURLIndexCacheItem_WordListItem"* %0, i64 0, i32 3, i32 0, i32 1
  %6 = load i32, i32* %5, align 8
  %7 = icmp sgt i32 %6, 0
  br i1 %7, label %8, label %54

8:                                                ; preds = %4
  %9 = getelementptr inbounds %"class.in_memory_url_index::InMemoryURLIndexCacheItem_WordListItem", %"class.in_memory_url_index::InMemoryURLIndexCacheItem_WordListItem"* %0, i64 0, i32 3, i32 0, i32 3
  %10 = load %"struct.google::protobuf::internal::RepeatedPtrFieldBase::Rep"*, %"struct.google::protobuf::internal::RepeatedPtrFieldBase::Rep"** %9, align 8
  %11 = zext i32 %6 to i64
  %12 = and i64 %11, 1
  %13 = icmp eq i32 %6, 1
  br i1 %13, label %38, label %14

14:                                               ; preds = %8
  %15 = sub nsw i64 %11, %12
  br label %16

16:                                               ; preds = %129, %14
  %17 = phi i64 [ 0, %14 ], [ %32, %129 ]
  %18 = phi i64 [ %15, %14 ], [ %130, %129 ]
  %19 = or i64 %17, 1
  %20 = getelementptr inbounds %"struct.google::protobuf::internal::RepeatedPtrFieldBase::Rep", %"struct.google::protobuf::internal::RepeatedPtrFieldBase::Rep"* %10, i64 0, i32 1, i64 %17
  %21 = load i8*, i8** %20, align 8
  %22 = getelementptr inbounds i8, i8* %21, i64 23
  %23 = load i8, i8* %22, align 1
  %24 = icmp slt i8 %23, 0
  br i1 %24, label %25, label %30

25:                                               ; preds = %16
  %26 = bitcast i8* %21 to i8**
  %27 = load i8*, i8** %26, align 8
  store i8 0, i8* %27, align 1
  %28 = getelementptr inbounds i8, i8* %21, i64 8
  %29 = bitcast i8* %28 to i64*
  store i64 0, i64* %29, align 8
  br label %31

30:                                               ; preds = %16
  store i8 0, i8* %21, align 1
  store i8 0, i8* %22, align 1
  br label %31

31:                                               ; preds = %30, %25
  %32 = add nuw nsw i64 %17, 2
  %33 = getelementptr inbounds %"struct.google::protobuf::internal::RepeatedPtrFieldBase::Rep", %"struct.google::protobuf::internal::RepeatedPtrFieldBase::Rep"* %10, i64 0, i32 1, i64 %19
  %34 = load i8*, i8** %33, align 8
  %35 = getelementptr inbounds i8, i8* %34, i64 23
  %36 = load i8, i8* %35, align 1
  %37 = icmp slt i8 %36, 0
  br i1 %37, label %124, label %123

38:                                               ; preds = %129, %8
  %39 = phi i64 [ 0, %8 ], [ %32, %129 ]
  %40 = icmp eq i64 %12, 0
  br i1 %40, label %53, label %41

41:                                               ; preds = %38
  %42 = getelementptr inbounds %"struct.google::protobuf::internal::RepeatedPtrFieldBase::Rep", %"struct.google::protobuf::internal::RepeatedPtrFieldBase::Rep"* %10, i64 0, i32 1, i64 %39
  %43 = load i8*, i8** %42, align 8
  %44 = getelementptr inbounds i8, i8* %43, i64 23
  %45 = load i8, i8* %44, align 1
  %46 = icmp slt i8 %45, 0
  br i1 %46, label %48, label %47

47:                                               ; preds = %41
  store i8 0, i8* %43, align 1
  store i8 0, i8* %44, align 1
  br label %53

48:                                               ; preds = %41
  %49 = bitcast i8* %43 to i8**
  %50 = load i8*, i8** %49, align 8
  store i8 0, i8* %50, align 1
  %51 = getelementptr inbounds i8, i8* %43, i64 8
  %52 = bitcast i8* %51 to i64*
  store i64 0, i64* %52, align 8
  br label %53

53:                                               ; preds = %48, %47, %38
  store i32 0, i32* %5, align 8
  br label %54

54:                                               ; preds = %53, %4
  %55 = getelementptr inbounds %"class.in_memory_url_index::InMemoryURLIndexCacheItem_WordListItem", %"class.in_memory_url_index::InMemoryURLIndexCacheItem_WordListItem"* %0, i64 0, i32 4
  store i32 0, i32* %55, align 8
  %56 = getelementptr inbounds %"class.in_memory_url_index::InMemoryURLIndexCacheItem_WordListItem", %"class.in_memory_url_index::InMemoryURLIndexCacheItem_WordListItem"* %0, i64 0, i32 1, i32 0, i64 0
  store i32 0, i32* %56, align 4
  %57 = getelementptr inbounds %"class.in_memory_url_index::InMemoryURLIndexCacheItem_WordListItem", %"class.in_memory_url_index::InMemoryURLIndexCacheItem_WordListItem"* %0, i64 0, i32 0, i32 1
  %58 = bitcast %"class.google::protobuf::internal::InternalMetadata"* %57 to i64*
  %59 = load i64, i64* %58, align 8
  %60 = and i64 %59, 1
  %61 = icmp eq i64 %60, 0
  br i1 %61, label %76, label %62

62:                                               ; preds = %54
  %63 = and i64 %59, -2
  %64 = inttoptr i64 %63 to %"struct.google::protobuf::internal::InternalMetadata::Container"*
  %65 = getelementptr inbounds %"struct.google::protobuf::internal::InternalMetadata::Container", %"struct.google::protobuf::internal::InternalMetadata::Container"* %64, i64 0, i32 1
  %66 = bitcast %"class.std::__1::basic_string"* %65 to %"struct.std::__1::basic_string<char, std::__1::char_traits<char>, std::__1::allocator<char> >::__short"*
  %67 = getelementptr inbounds %"struct.std::__1::basic_string<char, std::__1::char_traits<char>, std::__1::allocator<char> >::__short", %"struct.std::__1::basic_string<char, std::__1::char_traits<char>, std::__1::allocator<char> >::__short"* %66, i64 0, i32 1, i32 0
  %68 = load i8, i8* %67, align 1
  %69 = icmp slt i8 %68, 0
  br i1 %69, label %70, label %74

70:                                               ; preds = %62
  %71 = getelementptr inbounds %"class.std::__1::basic_string", %"class.std::__1::basic_string"* %65, i64 0, i32 0, i32 0, i32 0, i32 0, i32 0, i32 0
  %72 = load i8*, i8** %71, align 8
  store i8 0, i8* %72, align 1
  %73 = getelementptr inbounds %"struct.google::protobuf::internal::InternalMetadata::Container", %"struct.google::protobuf::internal::InternalMetadata::Container"* %64, i64 0, i32 1, i32 0, i32 0, i32 0, i32 0, i32 0, i32 1
  store i64 0, i64* %73, align 8
  br label %76

74:                                               ; preds = %62
  %75 = bitcast %"class.std::__1::basic_string"* %65 to i8*
  store i8 0, i8* %75, align 2
  store i8 0, i8* %67, align 1
  br label %76

76:                                               ; preds = %54, %70, %74
  %77 = getelementptr inbounds %"class.in_memory_url_index::InMemoryURLIndexCacheItem_WordListItem", %"class.in_memory_url_index::InMemoryURLIndexCacheItem_WordListItem"* %1, i64 0, i32 0, i32 1
  %78 = bitcast %"class.google::protobuf::internal::InternalMetadata"* %77 to i64*
  %79 = load i64, i64* %78, align 8
  %80 = and i64 %79, 1
  %81 = icmp eq i64 %80, 0
  br i1 %81, label %110, label %82

82:                                               ; preds = %76
  %83 = and i64 %79, -2
  %84 = inttoptr i64 %83 to %"struct.google::protobuf::internal::InternalMetadata::Container"*
  %85 = getelementptr inbounds %"struct.google::protobuf::internal::InternalMetadata::Container", %"struct.google::protobuf::internal::InternalMetadata::Container"* %84, i64 0, i32 1
  %86 = load i64, i64* %58, align 8
  %87 = and i64 %86, 1
  %88 = icmp eq i64 %87, 0
  br i1 %88, label %93, label %89, !prof !3

89:                                               ; preds = %82
  %90 = and i64 %86, -2
  %91 = inttoptr i64 %90 to %"struct.google::protobuf::internal::InternalMetadata::Container"*
  %92 = getelementptr inbounds %"struct.google::protobuf::internal::InternalMetadata::Container", %"struct.google::protobuf::internal::InternalMetadata::Container"* %91, i64 0, i32 1
  br label %95

93:                                               ; preds = %82
  %94 = tail call %"class.std::__1::basic_string"* @_ZN6google8protobuf8internal16InternalMetadata27mutable_unknown_fields_slowINSt3__112basic_stringIcNS4_11char_traitsIcEENS4_9allocatorIcEEEEEEPT_v(%"class.google::protobuf::internal::InternalMetadata"* %57) #14
  br label %95

95:                                               ; preds = %93, %89
  %96 = phi %"class.std::__1::basic_string"* [ %92, %89 ], [ %94, %93 ]
  %97 = bitcast %"class.std::__1::basic_string"* %85 to %"struct.std::__1::basic_string<char, std::__1::char_traits<char>, std::__1::allocator<char> >::__short"*
  %98 = getelementptr inbounds %"struct.std::__1::basic_string<char, std::__1::char_traits<char>, std::__1::allocator<char> >::__short", %"struct.std::__1::basic_string<char, std::__1::char_traits<char>, std::__1::allocator<char> >::__short"* %97, i64 0, i32 1, i32 0
  %99 = load i8, i8* %98, align 1
  %100 = icmp slt i8 %99, 0
  %101 = getelementptr inbounds %"class.std::__1::basic_string", %"class.std::__1::basic_string"* %85, i64 0, i32 0, i32 0, i32 0, i32 0, i32 0, i32 0
  %102 = load i8*, i8** %101, align 8
  %103 = getelementptr inbounds %"struct.google::protobuf::internal::InternalMetadata::Container", %"struct.google::protobuf::internal::InternalMetadata::Container"* %84, i64 0, i32 1, i32 0, i32 0, i32 0, i32 0, i32 0, i32 1
  %104 = load i64, i64* %103, align 8
  %105 = bitcast %"class.std::__1::basic_string"* %85 to i8*
  %106 = zext i8 %99 to i64
  %107 = select i1 %100, i8* %102, i8* %105
  %108 = select i1 %100, i64 %104, i64 %106
  %109 = tail call dereferenceable(24) %"class.std::__1::basic_string"* @_ZNSt3__112basic_stringIcNS_11char_traitsIcEENS_9allocatorIcEEE6appendEPKcm(%"class.std::__1::basic_string"* %96, i8* %107, i64 %108) #14
  br label %110

110:                                              ; preds = %95, %76
  %111 = getelementptr inbounds %"class.in_memory_url_index::InMemoryURLIndexCacheItem_WordListItem", %"class.in_memory_url_index::InMemoryURLIndexCacheItem_WordListItem"* %0, i64 0, i32 3, i32 0
  %112 = getelementptr inbounds %"class.in_memory_url_index::InMemoryURLIndexCacheItem_WordListItem", %"class.in_memory_url_index::InMemoryURLIndexCacheItem_WordListItem"* %1, i64 0, i32 3, i32 0
  tail call void @_ZN6google8protobuf8internal20RepeatedPtrFieldBase9MergeFromINS0_16RepeatedPtrFieldINSt3__112basic_stringIcNS5_11char_traitsIcEENS5_9allocatorIcEEEEE11TypeHandlerEEEvRKS2_(%"class.google::protobuf::internal::RepeatedPtrFieldBase"* %111, %"class.google::protobuf::internal::RepeatedPtrFieldBase"* dereferenceable(24) %112) #14
  %113 = getelementptr inbounds %"class.in_memory_url_index::InMemoryURLIndexCacheItem_WordListItem", %"class.in_memory_url_index::InMemoryURLIndexCacheItem_WordListItem"* %1, i64 0, i32 1, i32 0, i64 0
  %114 = load i32, i32* %113, align 4
  %115 = and i32 %114, 1
  %116 = icmp eq i32 %115, 0
  br i1 %116, label %122, label %117

117:                                              ; preds = %110
  %118 = getelementptr inbounds %"class.in_memory_url_index::InMemoryURLIndexCacheItem_WordListItem", %"class.in_memory_url_index::InMemoryURLIndexCacheItem_WordListItem"* %1, i64 0, i32 4
  %119 = load i32, i32* %118, align 8
  %120 = load i32, i32* %56, align 4
  %121 = or i32 %120, 1
  store i32 %121, i32* %56, align 4
  store i32 %119, i32* %55, align 8
  br label %122

122:                                              ; preds = %117, %110, %2
  ret void

123:                                              ; preds = %31
  store i8 0, i8* %34, align 1
  store i8 0, i8* %35, align 1
  br label %129

124:                                              ; preds = %31
  %125 = bitcast i8* %34 to i8**
  %126 = load i8*, i8** %125, align 8
  store i8 0, i8* %126, align 1
  %127 = getelementptr inbounds i8, i8* %34, i64 8
  %128 = bitcast i8* %127 to i64*
  store i64 0, i64* %128, align 8
  br label %129

129:                                              ; preds = %124, %123
  %130 = add i64 %18, -2
  %131 = icmp eq i64 %130, 0
  br i1 %131, label %38, label %16
}

; Function Attrs: norecurse nounwind readonly ssp uwtable
define hidden zeroext i1 @_ZNK19in_memory_url_index38InMemoryURLIndexCacheItem_WordListItem13IsInitializedEv(%"class.in_memory_url_index::InMemoryURLIndexCacheItem_WordListItem"* nocapture readonly) unnamed_addr #7 align 2 {
  %2 = getelementptr inbounds %"class.in_memory_url_index::InMemoryURLIndexCacheItem_WordListItem", %"class.in_memory_url_index::InMemoryURLIndexCacheItem_WordListItem"* %0, i64 0, i32 1, i32 0, i64 0
  %3 = load i32, i32* %2, align 4
  %4 = and i32 %3, 1
  %5 = icmp ne i32 %4, 0
  ret i1 %5
}

; Function Attrs: nounwind ssp uwtable
define hidden void @_ZN19in_memory_url_index38InMemoryURLIndexCacheItem_WordListItem12InternalSwapEPS0_(%"class.in_memory_url_index::InMemoryURLIndexCacheItem_WordListItem"*, %"class.in_memory_url_index::InMemoryURLIndexCacheItem_WordListItem"*) local_unnamed_addr #0 align 2 {
  %3 = getelementptr inbounds %"class.in_memory_url_index::InMemoryURLIndexCacheItem_WordListItem", %"class.in_memory_url_index::InMemoryURLIndexCacheItem_WordListItem"* %0, i64 0, i32 0, i32 1
  %4 = getelementptr inbounds %"class.in_memory_url_index::InMemoryURLIndexCacheItem_WordListItem", %"class.in_memory_url_index::InMemoryURLIndexCacheItem_WordListItem"* %1, i64 0, i32 0, i32 1
  %5 = bitcast %"class.google::protobuf::internal::InternalMetadata"* %3 to i64*
  %6 = load i64, i64* %5, align 8
  %7 = bitcast %"class.google::protobuf::internal::InternalMetadata"* %4 to i64*
  %8 = load i64, i64* %7, align 8
  %9 = or i64 %8, %6
  %10 = and i64 %9, 1
  %11 = icmp eq i64 %10, 0
  br i1 %11, label %43, label %12

12:                                               ; preds = %2
  %13 = and i64 %8, 1
  %14 = icmp eq i64 %13, 0
  br i1 %14, label %19, label %15, !prof !3

15:                                               ; preds = %12
  %16 = and i64 %8, -2
  %17 = inttoptr i64 %16 to %"struct.google::protobuf::internal::InternalMetadata::Container"*
  %18 = getelementptr inbounds %"struct.google::protobuf::internal::InternalMetadata::Container", %"struct.google::protobuf::internal::InternalMetadata::Container"* %17, i64 0, i32 1
  br label %22

19:                                               ; preds = %12
  %20 = tail call %"class.std::__1::basic_string"* @_ZN6google8protobuf8internal16InternalMetadata27mutable_unknown_fields_slowINSt3__112basic_stringIcNS4_11char_traitsIcEENS4_9allocatorIcEEEEEEPT_v(%"class.google::protobuf::internal::InternalMetadata"* %4) #14
  %21 = load i64, i64* %5, align 8
  br label %22

22:                                               ; preds = %19, %15
  %23 = phi i64 [ %6, %15 ], [ %21, %19 ]
  %24 = phi %"class.std::__1::basic_string"* [ %18, %15 ], [ %20, %19 ]
  %25 = and i64 %23, 1
  %26 = icmp eq i64 %25, 0
  br i1 %26, label %31, label %27, !prof !3

27:                                               ; preds = %22
  %28 = and i64 %23, -2
  %29 = inttoptr i64 %28 to %"struct.google::protobuf::internal::InternalMetadata::Container"*
  %30 = getelementptr inbounds %"struct.google::protobuf::internal::InternalMetadata::Container", %"struct.google::protobuf::internal::InternalMetadata::Container"* %29, i64 0, i32 1
  br label %33

31:                                               ; preds = %22
  %32 = tail call %"class.std::__1::basic_string"* @_ZN6google8protobuf8internal16InternalMetadata27mutable_unknown_fields_slowINSt3__112basic_stringIcNS4_11char_traitsIcEENS4_9allocatorIcEEEEEEPT_v(%"class.google::protobuf::internal::InternalMetadata"* %3) #14
  br label %33

33:                                               ; preds = %31, %27
  %34 = phi %"class.std::__1::basic_string"* [ %30, %27 ], [ %32, %31 ]
  %35 = bitcast %"class.std::__1::basic_string"* %34 to <2 x i64>*
  %36 = load <2 x i64>, <2 x i64>* %35, align 8
  %37 = getelementptr inbounds %"class.std::__1::basic_string", %"class.std::__1::basic_string"* %34, i64 0, i32 0, i32 0, i32 0, i32 0, i32 0, i32 2
  %38 = load i64, i64* %37, align 8
  %39 = bitcast %"class.std::__1::basic_string"* %34 to i8*
  %40 = bitcast %"class.std::__1::basic_string"* %24 to i8*
  tail call void @llvm.memcpy.p0i8.p0i8.i64(i8* align 8 %39, i8* align 8 %40, i64 24, i1 false) #14
  %41 = bitcast %"class.std::__1::basic_string"* %24 to <2 x i64>*
  store <2 x i64> %36, <2 x i64>* %41, align 8
  %42 = getelementptr inbounds %"class.std::__1::basic_string", %"class.std::__1::basic_string"* %24, i64 0, i32 0, i32 0, i32 0, i32 0, i32 0, i32 2
  store i64 %38, i64* %42, align 8
  br label %43

43:                                               ; preds = %2, %33
  %44 = getelementptr inbounds %"class.in_memory_url_index::InMemoryURLIndexCacheItem_WordListItem", %"class.in_memory_url_index::InMemoryURLIndexCacheItem_WordListItem"* %0, i64 0, i32 1, i32 0, i64 0
  %45 = getelementptr inbounds %"class.in_memory_url_index::InMemoryURLIndexCacheItem_WordListItem", %"class.in_memory_url_index::InMemoryURLIndexCacheItem_WordListItem"* %1, i64 0, i32 1, i32 0, i64 0
  %46 = load i32, i32* %44, align 4
  %47 = load i32, i32* %45, align 4
  store i32 %47, i32* %44, align 4
  store i32 %46, i32* %45, align 4
  %48 = getelementptr inbounds %"class.in_memory_url_index::InMemoryURLIndexCacheItem_WordListItem", %"class.in_memory_url_index::InMemoryURLIndexCacheItem_WordListItem"* %0, i64 0, i32 3, i32 0, i32 1
  %49 = bitcast i32* %48 to i8*
  %50 = getelementptr inbounds %"class.in_memory_url_index::InMemoryURLIndexCacheItem_WordListItem", %"class.in_memory_url_index::InMemoryURLIndexCacheItem_WordListItem"* %1, i64 0, i32 3, i32 0, i32 1
  %51 = bitcast i32* %50 to i8*
  %52 = bitcast i32* %48 to i128*
  %53 = load i128, i128* %52, align 1
  tail call void @llvm.memcpy.p0i8.p0i8.i64(i8* align 1 %49, i8* align 1 %51, i64 16, i1 false) #14
  %54 = bitcast i32* %50 to i128*
  store i128 %53, i128* %54, align 1
  %55 = getelementptr inbounds %"class.in_memory_url_index::InMemoryURLIndexCacheItem_WordListItem", %"class.in_memory_url_index::InMemoryURLIndexCacheItem_WordListItem"* %0, i64 0, i32 4
  %56 = getelementptr inbounds %"class.in_memory_url_index::InMemoryURLIndexCacheItem_WordListItem", %"class.in_memory_url_index::InMemoryURLIndexCacheItem_WordListItem"* %1, i64 0, i32 4
  %57 = load i32, i32* %55, align 4
  %58 = load i32, i32* %56, align 4
  store i32 %58, i32* %55, align 4
  store i32 %57, i32* %56, align 4
  ret void
}

; Function Attrs: nounwind ssp uwtable
define hidden void @_ZNK19in_memory_url_index38InMemoryURLIndexCacheItem_WordListItem11GetTypeNameEv(%"class.std::__1::basic_string"* noalias sret, %"class.in_memory_url_index::InMemoryURLIndexCacheItem_WordListItem"* nocapture readnone) unnamed_addr #0 align 2 {
  %3 = tail call i8* @_Znwm(i64 64) #15
  %4 = getelementptr inbounds %"class.std::__1::basic_string", %"class.std::__1::basic_string"* %0, i64 0, i32 0, i32 0, i32 0, i32 0, i32 0, i32 0
  store i8* %3, i8** %4, align 8
  %5 = getelementptr inbounds %"class.std::__1::basic_string", %"class.std::__1::basic_string"* %0, i64 0, i32 0, i32 0, i32 0, i32 0, i32 0, i32 1
  %6 = bitcast i64* %5 to <2 x i64>*
  store <2 x i64> <i64 58, i64 -9223372036854775744>, <2 x i64>* %6, align 8
  tail call void @llvm.memcpy.p0i8.p0i8.i64(i8* nonnull align 1 %3, i8* align 1 getelementptr inbounds ([59 x i8], [59 x i8]* @.str.14, i64 0, i64 0), i64 58, i1 false) #14
  %7 = getelementptr inbounds i8, i8* %3, i64 58
  store i8 0, i8* %7, align 1
  ret void
}

; Function Attrs: nounwind ssp uwtable
define hidden void @_ZN19in_memory_url_index50InMemoryURLIndexCacheItem_WordMapItem_WordMapEntryC2EPN6google8protobuf5ArenaE(%"class.in_memory_url_index::InMemoryURLIndexCacheItem_WordMapItem_WordMapEntry"* nocapture, %"class.google::protobuf::Arena"*) unnamed_addr #0 align 2 {
  %3 = getelementptr inbounds %"class.in_memory_url_index::InMemoryURLIndexCacheItem_WordMapItem_WordMapEntry", %"class.in_memory_url_index::InMemoryURLIndexCacheItem_WordMapItem_WordMapEntry"* %0, i64 0, i32 0, i32 0
  %4 = getelementptr inbounds %"class.in_memory_url_index::InMemoryURLIndexCacheItem_WordMapItem_WordMapEntry", %"class.in_memory_url_index::InMemoryURLIndexCacheItem_WordMapItem_WordMapEntry"* %0, i64 0, i32 0, i32 1
  %5 = bitcast %"class.google::protobuf::internal::InternalMetadata"* %4 to %"class.google::protobuf::Arena"**
  store %"class.google::protobuf::Arena"* %1, %"class.google::protobuf::Arena"** %5, align 8
  store i32 (...)** bitcast (i8** getelementptr inbounds ({ [16 x i8*] }, { [16 x i8*] }* @_ZTVN19in_memory_url_index50InMemoryURLIndexCacheItem_WordMapItem_WordMapEntryE, i64 0, inrange i32 0, i64 2) to i32 (...)**), i32 (...)*** %3, align 8
  %6 = getelementptr inbounds %"class.in_memory_url_index::InMemoryURLIndexCacheItem_WordMapItem_WordMapEntry", %"class.in_memory_url_index::InMemoryURLIndexCacheItem_WordMapItem_WordMapEntry"* %0, i64 0, i32 1, i32 0, i64 0
  store i32 0, i32* %6, align 4
  %7 = getelementptr inbounds %"class.in_memory_url_index::InMemoryURLIndexCacheItem_WordMapItem_WordMapEntry", %"class.in_memory_url_index::InMemoryURLIndexCacheItem_WordMapItem_WordMapEntry"* %0, i64 0, i32 2, i32 0, i32 0, i32 0, i32 0, i32 0, i32 0
  store i32 0, i32* %7, align 4
  %8 = load atomic i32, i32* getelementptr inbounds ({ { { { i32 } }, i32, i32, void ()* }, [0 x i8*] }, { { { { i32 } }, i32, i32, void ()* }, [0 x i8*] }* @scc_info_InMemoryURLIndexCacheItem_WordMapItem_WordMapEntry_in_5fmemory_5furl_5findex_5fcache_2eproto, i64 0, i32 0, i32 0, i32 0, i32 0) acquire, align 8
  %9 = icmp eq i32 %8, 0
  br i1 %9, label %11, label %10, !prof !2

10:                                               ; preds = %2
  tail call void @_ZN6google8protobuf8internal11InitSCCImplEPNS1_11SCCInfoBaseE(%"struct.google::protobuf::internal::SCCInfoBase"* bitcast ({ { { { i32 } }, i32, i32, void ()* }, [0 x i8*] }* @scc_info_InMemoryURLIndexCacheItem_WordMapItem_WordMapEntry_in_5fmemory_5furl_5findex_5fcache_2eproto to %"struct.google::protobuf::internal::SCCInfoBase"*)) #14
  br label %11

11:                                               ; preds = %2, %10
  %12 = getelementptr inbounds %"class.in_memory_url_index::InMemoryURLIndexCacheItem_WordMapItem_WordMapEntry", %"class.in_memory_url_index::InMemoryURLIndexCacheItem_WordMapItem_WordMapEntry"* %0, i64 0, i32 3, i32 0
  store %"class.std::__1::basic_string"* bitcast (%"class.google::protobuf::internal::ExplicitlyConstructed.39"* @_ZN6google8protobuf8internal26fixed_address_empty_stringE to %"class.std::__1::basic_string"*), %"class.std::__1::basic_string"** %12, align 8
  %13 = getelementptr inbounds %"class.in_memory_url_index::InMemoryURLIndexCacheItem_WordMapItem_WordMapEntry", %"class.in_memory_url_index::InMemoryURLIndexCacheItem_WordMapItem_WordMapEntry"* %0, i64 0, i32 4
  store i32 0, i32* %13, align 8
  ret void
}

; Function Attrs: nounwind ssp uwtable
define hidden void @_ZN19in_memory_url_index50InMemoryURLIndexCacheItem_WordMapItem_WordMapEntryC2ERKS0_(%"class.in_memory_url_index::InMemoryURLIndexCacheItem_WordMapItem_WordMapEntry"*, %"class.in_memory_url_index::InMemoryURLIndexCacheItem_WordMapItem_WordMapEntry"* nocapture readonly dereferenceable(40)) unnamed_addr #0 align 2 {
  %3 = getelementptr inbounds %"class.in_memory_url_index::InMemoryURLIndexCacheItem_WordMapItem_WordMapEntry", %"class.in_memory_url_index::InMemoryURLIndexCacheItem_WordMapItem_WordMapEntry"* %0, i64 0, i32 0, i32 0
  %4 = getelementptr inbounds %"class.in_memory_url_index::InMemoryURLIndexCacheItem_WordMapItem_WordMapEntry", %"class.in_memory_url_index::InMemoryURLIndexCacheItem_WordMapItem_WordMapEntry"* %0, i64 0, i32 0, i32 1, i32 0
  store i8* null, i8** %4, align 8
  store i32 (...)** bitcast (i8** getelementptr inbounds ({ [16 x i8*] }, { [16 x i8*] }* @_ZTVN19in_memory_url_index50InMemoryURLIndexCacheItem_WordMapItem_WordMapEntryE, i64 0, inrange i32 0, i64 2) to i32 (...)**), i32 (...)*** %3, align 8
  %5 = getelementptr inbounds %"class.in_memory_url_index::InMemoryURLIndexCacheItem_WordMapItem_WordMapEntry", %"class.in_memory_url_index::InMemoryURLIndexCacheItem_WordMapItem_WordMapEntry"* %1, i64 0, i32 1, i32 0, i64 0
  %6 = getelementptr inbounds %"class.in_memory_url_index::InMemoryURLIndexCacheItem_WordMapItem_WordMapEntry", %"class.in_memory_url_index::InMemoryURLIndexCacheItem_WordMapItem_WordMapEntry"* %0, i64 0, i32 1, i32 0, i64 0
  %7 = load i32, i32* %5, align 8
  store i32 %7, i32* %6, align 8
  %8 = getelementptr inbounds %"class.in_memory_url_index::InMemoryURLIndexCacheItem_WordMapItem_WordMapEntry", %"class.in_memory_url_index::InMemoryURLIndexCacheItem_WordMapItem_WordMapEntry"* %0, i64 0, i32 2, i32 0, i32 0, i32 0, i32 0, i32 0, i32 0
  store i32 0, i32* %8, align 4
  %9 = getelementptr inbounds %"class.in_memory_url_index::InMemoryURLIndexCacheItem_WordMapItem_WordMapEntry", %"class.in_memory_url_index::InMemoryURLIndexCacheItem_WordMapItem_WordMapEntry"* %0, i64 0, i32 0, i32 1
  %10 = getelementptr inbounds %"class.in_memory_url_index::InMemoryURLIndexCacheItem_WordMapItem_WordMapEntry", %"class.in_memory_url_index::InMemoryURLIndexCacheItem_WordMapItem_WordMapEntry"* %1, i64 0, i32 0, i32 1
  %11 = bitcast %"class.google::protobuf::internal::InternalMetadata"* %10 to i64*
  %12 = load i64, i64* %11, align 8
  %13 = and i64 %12, 1
  %14 = icmp eq i64 %13, 0
  br i1 %14, label %33, label %15

15:                                               ; preds = %2
  %16 = and i64 %12, -2
  %17 = inttoptr i64 %16 to %"struct.google::protobuf::internal::InternalMetadata::Container"*
  %18 = getelementptr inbounds %"struct.google::protobuf::internal::InternalMetadata::Container", %"struct.google::protobuf::internal::InternalMetadata::Container"* %17, i64 0, i32 1
  %19 = tail call %"class.std::__1::basic_string"* @_ZN6google8protobuf8internal16InternalMetadata27mutable_unknown_fields_slowINSt3__112basic_stringIcNS4_11char_traitsIcEENS4_9allocatorIcEEEEEEPT_v(%"class.google::protobuf::internal::InternalMetadata"* %9) #14
  %20 = bitcast %"class.std::__1::basic_string"* %18 to %"struct.std::__1::basic_string<char, std::__1::char_traits<char>, std::__1::allocator<char> >::__short"*
  %21 = getelementptr inbounds %"struct.std::__1::basic_string<char, std::__1::char_traits<char>, std::__1::allocator<char> >::__short", %"struct.std::__1::basic_string<char, std::__1::char_traits<char>, std::__1::allocator<char> >::__short"* %20, i64 0, i32 1, i32 0
  %22 = load i8, i8* %21, align 1
  %23 = icmp slt i8 %22, 0
  %24 = getelementptr inbounds %"class.std::__1::basic_string", %"class.std::__1::basic_string"* %18, i64 0, i32 0, i32 0, i32 0, i32 0, i32 0, i32 0
  %25 = load i8*, i8** %24, align 8
  %26 = getelementptr inbounds %"struct.google::protobuf::internal::InternalMetadata::Container", %"struct.google::protobuf::internal::InternalMetadata::Container"* %17, i64 0, i32 1, i32 0, i32 0, i32 0, i32 0, i32 0, i32 1
  %27 = load i64, i64* %26, align 8
  %28 = bitcast %"class.std::__1::basic_string"* %18 to i8*
  %29 = zext i8 %22 to i64
  %30 = select i1 %23, i8* %25, i8* %28
  %31 = select i1 %23, i64 %27, i64 %29
  %32 = tail call dereferenceable(24) %"class.std::__1::basic_string"* @_ZNSt3__112basic_stringIcNS_11char_traitsIcEENS_9allocatorIcEEE6appendEPKcm(%"class.std::__1::basic_string"* %19, i8* %30, i64 %31) #14
  br label %33

33:                                               ; preds = %2, %15
  %34 = getelementptr inbounds %"class.in_memory_url_index::InMemoryURLIndexCacheItem_WordMapItem_WordMapEntry", %"class.in_memory_url_index::InMemoryURLIndexCacheItem_WordMapItem_WordMapEntry"* %0, i64 0, i32 3
  %35 = getelementptr inbounds %"struct.google::protobuf::internal::ArenaStringPtr", %"struct.google::protobuf::internal::ArenaStringPtr"* %34, i64 0, i32 0
  store %"class.std::__1::basic_string"* bitcast (%"class.google::protobuf::internal::ExplicitlyConstructed.39"* @_ZN6google8protobuf8internal26fixed_address_empty_stringE to %"class.std::__1::basic_string"*), %"class.std::__1::basic_string"** %35, align 8
  %36 = load i32, i32* %5, align 4
  %37 = and i32 %36, 1
  %38 = icmp eq i32 %37, 0
  br i1 %38, label %55, label %39

39:                                               ; preds = %33
  %40 = getelementptr inbounds %"class.in_memory_url_index::InMemoryURLIndexCacheItem_WordMapItem_WordMapEntry", %"class.in_memory_url_index::InMemoryURLIndexCacheItem_WordMapItem_WordMapEntry"* %1, i64 0, i32 3, i32 0
  %41 = load %"class.std::__1::basic_string"*, %"class.std::__1::basic_string"** %40, align 8
  %42 = bitcast %"class.google::protobuf::internal::InternalMetadata"* %9 to i64*
  %43 = load i64, i64* %42, align 8
  %44 = and i64 %43, 1
  %45 = icmp eq i64 %44, 0
  %46 = and i64 %43, -2
  br i1 %45, label %51, label %47, !prof !2

47:                                               ; preds = %39
  %48 = inttoptr i64 %46 to %"struct.google::protobuf::internal::InternalMetadata::ContainerBase"*
  %49 = getelementptr inbounds %"struct.google::protobuf::internal::InternalMetadata::ContainerBase", %"struct.google::protobuf::internal::InternalMetadata::ContainerBase"* %48, i64 0, i32 0
  %50 = load %"class.google::protobuf::Arena"*, %"class.google::protobuf::Arena"** %49, align 8
  br label %53

51:                                               ; preds = %39
  %52 = inttoptr i64 %46 to %"class.google::protobuf::Arena"*
  br label %53

53:                                               ; preds = %47, %51
  %54 = phi %"class.google::protobuf::Arena"* [ %50, %47 ], [ %52, %51 ]
  tail call void @_ZN6google8protobuf8internal14ArenaStringPtr14CreateInstanceEPNS0_5ArenaEPKNSt3__112basic_stringIcNS5_11char_traitsIcEENS5_9allocatorIcEEEE(%"struct.google::protobuf::internal::ArenaStringPtr"* %34, %"class.google::protobuf::Arena"* %54, %"class.std::__1::basic_string"* %41) #14
  br label %55

55:                                               ; preds = %33, %53
  %56 = getelementptr inbounds %"class.in_memory_url_index::InMemoryURLIndexCacheItem_WordMapItem_WordMapEntry", %"class.in_memory_url_index::InMemoryURLIndexCacheItem_WordMapItem_WordMapEntry"* %1, i64 0, i32 4
  %57 = load i32, i32* %56, align 8
  %58 = getelementptr inbounds %"class.in_memory_url_index::InMemoryURLIndexCacheItem_WordMapItem_WordMapEntry", %"class.in_memory_url_index::InMemoryURLIndexCacheItem_WordMapItem_WordMapEntry"* %0, i64 0, i32 4
  store i32 %57, i32* %58, align 8
  ret void
}

; Function Attrs: nounwind ssp uwtable
define hidden void @_ZN19in_memory_url_index50InMemoryURLIndexCacheItem_WordMapItem_WordMapEntryD2Ev(%"class.in_memory_url_index::InMemoryURLIndexCacheItem_WordMapItem_WordMapEntry"*) unnamed_addr #0 align 2 {
  %2 = getelementptr inbounds %"class.in_memory_url_index::InMemoryURLIndexCacheItem_WordMapItem_WordMapEntry", %"class.in_memory_url_index::InMemoryURLIndexCacheItem_WordMapItem_WordMapEntry"* %0, i64 0, i32 0, i32 0
  store i32 (...)** bitcast (i8** getelementptr inbounds ({ [16 x i8*] }, { [16 x i8*] }* @_ZTVN19in_memory_url_index50InMemoryURLIndexCacheItem_WordMapItem_WordMapEntryE, i64 0, inrange i32 0, i64 2) to i32 (...)**), i32 (...)*** %2, align 8
  %3 = getelementptr inbounds %"class.in_memory_url_index::InMemoryURLIndexCacheItem_WordMapItem_WordMapEntry", %"class.in_memory_url_index::InMemoryURLIndexCacheItem_WordMapItem_WordMapEntry"* %0, i64 0, i32 3
  tail call void @_ZN6google8protobuf8internal14ArenaStringPtr14DestroyNoArenaEPKNSt3__112basic_stringIcNS3_11char_traitsIcEENS3_9allocatorIcEEEE(%"struct.google::protobuf::internal::ArenaStringPtr"* %3, %"class.std::__1::basic_string"* bitcast (%"class.google::protobuf::internal::ExplicitlyConstructed.39"* @_ZN6google8protobuf8internal26fixed_address_empty_stringE to %"class.std::__1::basic_string"*)) #14
  %4 = getelementptr inbounds %"class.in_memory_url_index::InMemoryURLIndexCacheItem_WordMapItem_WordMapEntry", %"class.in_memory_url_index::InMemoryURLIndexCacheItem_WordMapItem_WordMapEntry"* %0, i64 0, i32 0, i32 1
  %5 = bitcast %"class.google::protobuf::internal::InternalMetadata"* %4 to i64*
  %6 = load i64, i64* %5, align 8
  %7 = and i64 %6, 1
  %8 = icmp eq i64 %7, 0
  br i1 %8, label %29, label %9

9:                                                ; preds = %1
  %10 = and i64 %6, -2
  %11 = inttoptr i64 %10 to %"struct.google::protobuf::internal::InternalMetadata::ContainerBase"*
  %12 = getelementptr inbounds %"struct.google::protobuf::internal::InternalMetadata::ContainerBase", %"struct.google::protobuf::internal::InternalMetadata::ContainerBase"* %11, i64 0, i32 0
  %13 = load %"class.google::protobuf::Arena"*, %"class.google::protobuf::Arena"** %12, align 8
  %14 = icmp ne %"class.google::protobuf::Arena"* %13, null
  %15 = icmp eq i64 %10, 0
  %16 = or i1 %15, %14
  br i1 %16, label %29, label %17

17:                                               ; preds = %9
  %18 = inttoptr i64 %10 to %"struct.google::protobuf::internal::InternalMetadata::Container"*
  %19 = getelementptr inbounds %"struct.google::protobuf::internal::InternalMetadata::Container", %"struct.google::protobuf::internal::InternalMetadata::Container"* %18, i64 0, i32 1
  %20 = bitcast %"class.std::__1::basic_string"* %19 to %"struct.std::__1::basic_string<char, std::__1::char_traits<char>, std::__1::allocator<char> >::__short"*
  %21 = getelementptr inbounds %"struct.std::__1::basic_string<char, std::__1::char_traits<char>, std::__1::allocator<char> >::__short", %"struct.std::__1::basic_string<char, std::__1::char_traits<char>, std::__1::allocator<char> >::__short"* %20, i64 0, i32 1, i32 0
  %22 = load i8, i8* %21, align 1
  %23 = icmp slt i8 %22, 0
  br i1 %23, label %24, label %27

24:                                               ; preds = %17
  %25 = getelementptr inbounds %"class.std::__1::basic_string", %"class.std::__1::basic_string"* %19, i64 0, i32 0, i32 0, i32 0, i32 0, i32 0, i32 0
  %26 = load i8*, i8** %25, align 8
  tail call void @_ZdlPv(i8* %26) #15
  br label %27

27:                                               ; preds = %24, %17
  %28 = inttoptr i64 %10 to i8*
  tail call void @_ZdlPv(i8* %28) #15
  br label %29

29:                                               ; preds = %1, %9, %27
  ret void
}

; Function Attrs: nounwind ssp uwtable
define hidden void @_ZN19in_memory_url_index50InMemoryURLIndexCacheItem_WordMapItem_WordMapEntryD0Ev(%"class.in_memory_url_index::InMemoryURLIndexCacheItem_WordMapItem_WordMapEntry"*) unnamed_addr #0 align 2 {
  %2 = getelementptr inbounds %"class.in_memory_url_index::InMemoryURLIndexCacheItem_WordMapItem_WordMapEntry", %"class.in_memory_url_index::InMemoryURLIndexCacheItem_WordMapItem_WordMapEntry"* %0, i64 0, i32 0, i32 0
  store i32 (...)** bitcast (i8** getelementptr inbounds ({ [16 x i8*] }, { [16 x i8*] }* @_ZTVN19in_memory_url_index50InMemoryURLIndexCacheItem_WordMapItem_WordMapEntryE, i64 0, inrange i32 0, i64 2) to i32 (...)**), i32 (...)*** %2, align 8
  %3 = getelementptr inbounds %"class.in_memory_url_index::InMemoryURLIndexCacheItem_WordMapItem_WordMapEntry", %"class.in_memory_url_index::InMemoryURLIndexCacheItem_WordMapItem_WordMapEntry"* %0, i64 0, i32 3
  tail call void @_ZN6google8protobuf8internal14ArenaStringPtr14DestroyNoArenaEPKNSt3__112basic_stringIcNS3_11char_traitsIcEENS3_9allocatorIcEEEE(%"struct.google::protobuf::internal::ArenaStringPtr"* %3, %"class.std::__1::basic_string"* bitcast (%"class.google::protobuf::internal::ExplicitlyConstructed.39"* @_ZN6google8protobuf8internal26fixed_address_empty_stringE to %"class.std::__1::basic_string"*)) #14
  %4 = getelementptr inbounds %"class.in_memory_url_index::InMemoryURLIndexCacheItem_WordMapItem_WordMapEntry", %"class.in_memory_url_index::InMemoryURLIndexCacheItem_WordMapItem_WordMapEntry"* %0, i64 0, i32 0, i32 1
  %5 = bitcast %"class.google::protobuf::internal::InternalMetadata"* %4 to i64*
  %6 = load i64, i64* %5, align 8
  %7 = and i64 %6, 1
  %8 = icmp eq i64 %7, 0
  br i1 %8, label %29, label %9

9:                                                ; preds = %1
  %10 = and i64 %6, -2
  %11 = inttoptr i64 %10 to %"struct.google::protobuf::internal::InternalMetadata::ContainerBase"*
  %12 = getelementptr inbounds %"struct.google::protobuf::internal::InternalMetadata::ContainerBase", %"struct.google::protobuf::internal::InternalMetadata::ContainerBase"* %11, i64 0, i32 0
  %13 = load %"class.google::protobuf::Arena"*, %"class.google::protobuf::Arena"** %12, align 8
  %14 = icmp ne %"class.google::protobuf::Arena"* %13, null
  %15 = icmp eq i64 %10, 0
  %16 = or i1 %15, %14
  br i1 %16, label %29, label %17

17:                                               ; preds = %9
  %18 = inttoptr i64 %10 to %"struct.google::protobuf::internal::InternalMetadata::Container"*
  %19 = getelementptr inbounds %"struct.google::protobuf::internal::InternalMetadata::Container", %"struct.google::protobuf::internal::InternalMetadata::Container"* %18, i64 0, i32 1
  %20 = bitcast %"class.std::__1::basic_string"* %19 to %"struct.std::__1::basic_string<char, std::__1::char_traits<char>, std::__1::allocator<char> >::__short"*
  %21 = getelementptr inbounds %"struct.std::__1::basic_string<char, std::__1::char_traits<char>, std::__1::allocator<char> >::__short", %"struct.std::__1::basic_string<char, std::__1::char_traits<char>, std::__1::allocator<char> >::__short"* %20, i64 0, i32 1, i32 0
  %22 = load i8, i8* %21, align 1
  %23 = icmp slt i8 %22, 0
  br i1 %23, label %24, label %27

24:                                               ; preds = %17
  %25 = getelementptr inbounds %"class.std::__1::basic_string", %"class.std::__1::basic_string"* %19, i64 0, i32 0, i32 0, i32 0, i32 0, i32 0, i32 0
  %26 = load i8*, i8** %25, align 8
  tail call void @_ZdlPv(i8* %26) #15
  br label %27

27:                                               ; preds = %24, %17
  %28 = inttoptr i64 %10 to i8*
  tail call void @_ZdlPv(i8* %28) #15
  br label %29

29:                                               ; preds = %1, %9, %27
  %30 = bitcast %"class.in_memory_url_index::InMemoryURLIndexCacheItem_WordMapItem_WordMapEntry"* %0 to i8*
  tail call void @_ZdlPv(i8* %30) #15
  ret void
}

; Function Attrs: norecurse nounwind readnone ssp uwtable
define hidden void @_ZN19in_memory_url_index50InMemoryURLIndexCacheItem_WordMapItem_WordMapEntry9ArenaDtorEPv(i8* nocapture) local_unnamed_addr #4 align 2 {
  ret void
}

; Function Attrs: nofree norecurse nounwind ssp uwtable
define hidden void @_ZNK19in_memory_url_index50InMemoryURLIndexCacheItem_WordMapItem_WordMapEntry13SetCachedSizeEi(%"class.in_memory_url_index::InMemoryURLIndexCacheItem_WordMapItem_WordMapEntry"* nocapture, i32) local_unnamed_addr #5 align 2 {
  %3 = getelementptr inbounds %"class.in_memory_url_index::InMemoryURLIndexCacheItem_WordMapItem_WordMapEntry", %"class.in_memory_url_index::InMemoryURLIndexCacheItem_WordMapItem_WordMapEntry"* %0, i64 0, i32 2, i32 0, i32 0, i32 0, i32 0, i32 0, i32 0
  store atomic i32 %1, i32* %3 monotonic, align 4
  ret void
}

; Function Attrs: nounwind ssp uwtable
define hidden dereferenceable(40) %"class.in_memory_url_index::InMemoryURLIndexCacheItem_WordMapItem_WordMapEntry"* @_ZN19in_memory_url_index50InMemoryURLIndexCacheItem_WordMapItem_WordMapEntry16default_instanceEv() local_unnamed_addr #0 align 2 {
  %1 = load atomic i32, i32* getelementptr inbounds ({ { { { i32 } }, i32, i32, void ()* }, [0 x i8*] }, { { { { i32 } }, i32, i32, void ()* }, [0 x i8*] }* @scc_info_InMemoryURLIndexCacheItem_WordMapItem_WordMapEntry_in_5fmemory_5furl_5findex_5fcache_2eproto, i64 0, i32 0, i32 0, i32 0, i32 0) acquire, align 8
  %2 = icmp eq i32 %1, 0
  br i1 %2, label %4, label %3, !prof !2

3:                                                ; preds = %0
  tail call void @_ZN6google8protobuf8internal11InitSCCImplEPNS1_11SCCInfoBaseE(%"struct.google::protobuf::internal::SCCInfoBase"* bitcast ({ { { { i32 } }, i32, i32, void ()* }, [0 x i8*] }* @scc_info_InMemoryURLIndexCacheItem_WordMapItem_WordMapEntry_in_5fmemory_5furl_5findex_5fcache_2eproto to %"struct.google::protobuf::internal::SCCInfoBase"*)) #14
  br label %4

4:                                                ; preds = %0, %3
  ret %"class.in_memory_url_index::InMemoryURLIndexCacheItem_WordMapItem_WordMapEntry"* bitcast (%"class.in_memory_url_index::InMemoryURLIndexCacheItem_WordMapItem_WordMapEntryDefaultTypeInternal"* @_ZN19in_memory_url_index69_InMemoryURLIndexCacheItem_WordMapItem_WordMapEntry_default_instance_E to %"class.in_memory_url_index::InMemoryURLIndexCacheItem_WordMapItem_WordMapEntry"*)
}

; Function Attrs: nofree norecurse nounwind ssp uwtable
define hidden void @_ZN19in_memory_url_index50InMemoryURLIndexCacheItem_WordMapItem_WordMapEntry5ClearEv(%"class.in_memory_url_index::InMemoryURLIndexCacheItem_WordMapItem_WordMapEntry"* nocapture) unnamed_addr #5 align 2 {
  %2 = getelementptr inbounds %"class.in_memory_url_index::InMemoryURLIndexCacheItem_WordMapItem_WordMapEntry", %"class.in_memory_url_index::InMemoryURLIndexCacheItem_WordMapItem_WordMapEntry"* %0, i64 0, i32 1, i32 0, i64 0
  %3 = load i32, i32* %2, align 4
  %4 = and i32 %3, 1
  %5 = icmp eq i32 %4, 0
  br i1 %5, label %19, label %6

6:                                                ; preds = %1
  %7 = getelementptr inbounds %"class.in_memory_url_index::InMemoryURLIndexCacheItem_WordMapItem_WordMapEntry", %"class.in_memory_url_index::InMemoryURLIndexCacheItem_WordMapItem_WordMapEntry"* %0, i64 0, i32 3, i32 0
  %8 = load %"class.std::__1::basic_string"*, %"class.std::__1::basic_string"** %7, align 8
  %9 = bitcast %"class.std::__1::basic_string"* %8 to %"struct.std::__1::basic_string<char, std::__1::char_traits<char>, std::__1::allocator<char> >::__short"*
  %10 = getelementptr inbounds %"struct.std::__1::basic_string<char, std::__1::char_traits<char>, std::__1::allocator<char> >::__short", %"struct.std::__1::basic_string<char, std::__1::char_traits<char>, std::__1::allocator<char> >::__short"* %9, i64 0, i32 1, i32 0
  %11 = load i8, i8* %10, align 1
  %12 = icmp slt i8 %11, 0
  br i1 %12, label %13, label %17

13:                                               ; preds = %6
  %14 = getelementptr inbounds %"class.std::__1::basic_string", %"class.std::__1::basic_string"* %8, i64 0, i32 0, i32 0, i32 0, i32 0, i32 0, i32 0
  %15 = load i8*, i8** %14, align 8
  store i8 0, i8* %15, align 1
  %16 = getelementptr inbounds %"class.std::__1::basic_string", %"class.std::__1::basic_string"* %8, i64 0, i32 0, i32 0, i32 0, i32 0, i32 0, i32 1
  store i64 0, i64* %16, align 8
  br label %19

17:                                               ; preds = %6
  %18 = bitcast %"class.std::__1::basic_string"* %8 to i8*
  store i8 0, i8* %18, align 1
  store i8 0, i8* %10, align 1
  br label %19

19:                                               ; preds = %17, %13, %1
  %20 = getelementptr inbounds %"class.in_memory_url_index::InMemoryURLIndexCacheItem_WordMapItem_WordMapEntry", %"class.in_memory_url_index::InMemoryURLIndexCacheItem_WordMapItem_WordMapEntry"* %0, i64 0, i32 4
  store i32 0, i32* %20, align 8
  store i32 0, i32* %2, align 4
  %21 = getelementptr inbounds %"class.in_memory_url_index::InMemoryURLIndexCacheItem_WordMapItem_WordMapEntry", %"class.in_memory_url_index::InMemoryURLIndexCacheItem_WordMapItem_WordMapEntry"* %0, i64 0, i32 0, i32 1
  %22 = bitcast %"class.google::protobuf::internal::InternalMetadata"* %21 to i64*
  %23 = load i64, i64* %22, align 8
  %24 = and i64 %23, 1
  %25 = icmp eq i64 %24, 0
  br i1 %25, label %40, label %26

26:                                               ; preds = %19
  %27 = and i64 %23, -2
  %28 = inttoptr i64 %27 to %"struct.google::protobuf::internal::InternalMetadata::Container"*
  %29 = getelementptr inbounds %"struct.google::protobuf::internal::InternalMetadata::Container", %"struct.google::protobuf::internal::InternalMetadata::Container"* %28, i64 0, i32 1
  %30 = bitcast %"class.std::__1::basic_string"* %29 to %"struct.std::__1::basic_string<char, std::__1::char_traits<char>, std::__1::allocator<char> >::__short"*
  %31 = getelementptr inbounds %"struct.std::__1::basic_string<char, std::__1::char_traits<char>, std::__1::allocator<char> >::__short", %"struct.std::__1::basic_string<char, std::__1::char_traits<char>, std::__1::allocator<char> >::__short"* %30, i64 0, i32 1, i32 0
  %32 = load i8, i8* %31, align 1
  %33 = icmp slt i8 %32, 0
  br i1 %33, label %34, label %38

34:                                               ; preds = %26
  %35 = getelementptr inbounds %"class.std::__1::basic_string", %"class.std::__1::basic_string"* %29, i64 0, i32 0, i32 0, i32 0, i32 0, i32 0, i32 0
  %36 = load i8*, i8** %35, align 8
  store i8 0, i8* %36, align 1
  %37 = getelementptr inbounds %"struct.google::protobuf::internal::InternalMetadata::Container", %"struct.google::protobuf::internal::InternalMetadata::Container"* %28, i64 0, i32 1, i32 0, i32 0, i32 0, i32 0, i32 0, i32 1
  store i64 0, i64* %37, align 8
  br label %40

38:                                               ; preds = %26
  %39 = bitcast %"class.std::__1::basic_string"* %29 to i8*
  store i8 0, i8* %39, align 2
  store i8 0, i8* %31, align 1
  br label %40

40:                                               ; preds = %19, %34, %38
  ret void
}

; Function Attrs: nounwind ssp uwtable
define hidden i8* @_ZN19in_memory_url_index50InMemoryURLIndexCacheItem_WordMapItem_WordMapEntry14_InternalParseEPKcPN6google8protobuf8internal12ParseContextE(%"class.in_memory_url_index::InMemoryURLIndexCacheItem_WordMapItem_WordMapEntry"*, i8*, %"class.google::protobuf::internal::ParseContext"*) unnamed_addr #0 align 2 {
  %4 = getelementptr inbounds %"class.google::protobuf::internal::ParseContext", %"class.google::protobuf::internal::ParseContext"* %2, i64 0, i32 0
  %5 = getelementptr inbounds %"class.google::protobuf::internal::ParseContext", %"class.google::protobuf::internal::ParseContext"* %2, i64 0, i32 2
  %6 = getelementptr inbounds %"class.google::protobuf::internal::ParseContext", %"class.google::protobuf::internal::ParseContext"* %2, i64 0, i32 0, i32 0
  %7 = getelementptr inbounds %"class.google::protobuf::internal::ParseContext", %"class.google::protobuf::internal::ParseContext"* %2, i64 0, i32 0, i32 1
  %8 = bitcast i8** %7 to i64*
  %9 = getelementptr inbounds %"class.google::protobuf::internal::ParseContext", %"class.google::protobuf::internal::ParseContext"* %2, i64 0, i32 0, i32 4
  %10 = getelementptr inbounds %"class.in_memory_url_index::InMemoryURLIndexCacheItem_WordMapItem_WordMapEntry", %"class.in_memory_url_index::InMemoryURLIndexCacheItem_WordMapItem_WordMapEntry"* %0, i64 0, i32 4
  %11 = getelementptr inbounds %"class.in_memory_url_index::InMemoryURLIndexCacheItem_WordMapItem_WordMapEntry", %"class.in_memory_url_index::InMemoryURLIndexCacheItem_WordMapItem_WordMapEntry"* %0, i64 0, i32 1, i32 0, i64 0
  %12 = getelementptr inbounds %"class.in_memory_url_index::InMemoryURLIndexCacheItem_WordMapItem_WordMapEntry", %"class.in_memory_url_index::InMemoryURLIndexCacheItem_WordMapItem_WordMapEntry"* %0, i64 0, i32 3
  %13 = getelementptr inbounds %"class.in_memory_url_index::InMemoryURLIndexCacheItem_WordMapItem_WordMapEntry", %"class.in_memory_url_index::InMemoryURLIndexCacheItem_WordMapItem_WordMapEntry"* %0, i64 0, i32 0, i32 1
  %14 = bitcast %"class.google::protobuf::internal::InternalMetadata"* %13 to i64*
  %15 = getelementptr inbounds %"struct.google::protobuf::internal::ArenaStringPtr", %"struct.google::protobuf::internal::ArenaStringPtr"* %12, i64 0, i32 0
  br label %16

16:                                               ; preds = %116, %3
  %17 = phi i8* [ %118, %116 ], [ %1, %3 ]
  %18 = phi i32 [ %94, %116 ], [ 0, %3 ]
  br label %19

19:                                               ; preds = %88, %16
  %20 = phi i8* [ %17, %16 ], [ %89, %88 ]
  %21 = load i32, i32* %5, align 4
  %22 = load i8*, i8** %6, align 8
  %23 = icmp ult i8* %20, %22
  br i1 %23, label %37, label %24, !prof !2

24:                                               ; preds = %19
  %25 = load i64, i64* %8, align 8
  %26 = ptrtoint i8* %20 to i64
  %27 = sub i64 %26, %25
  %28 = load i32, i32* %9, align 4
  %29 = sext i32 %28 to i64
  %30 = icmp eq i64 %27, %29
  br i1 %30, label %143, label %31

31:                                               ; preds = %24
  %32 = tail call { i8*, i8 } @_ZN6google8protobuf8internal18EpsCopyInputStream12DoneFallbackEPKci(%"class.google::protobuf::internal::EpsCopyInputStream"* %4, i8* %20, i32 %21) #14
  %33 = extractvalue { i8*, i8 } %32, 0
  %34 = extractvalue { i8*, i8 } %32, 1
  %35 = and i8 %34, 1
  %36 = icmp eq i8 %35, 0
  br i1 %36, label %37, label %143

37:                                               ; preds = %31, %19
  %38 = phi i8* [ %33, %31 ], [ %20, %19 ]
  %39 = load i8, i8* %38, align 1
  %40 = zext i8 %39 to i32
  %41 = icmp sgt i8 %39, -1
  %42 = getelementptr inbounds i8, i8* %38, i64 1
  br i1 %41, label %56, label %43

43:                                               ; preds = %37
  %44 = load i8, i8* %42, align 1
  %45 = zext i8 %44 to i32
  %46 = shl nuw nsw i32 %45, 7
  %47 = add nsw i32 %40, -128
  %48 = add nsw i32 %47, %46
  %49 = icmp sgt i8 %44, -1
  br i1 %49, label %50, label %52

50:                                               ; preds = %43
  %51 = getelementptr inbounds i8, i8* %38, i64 2
  br label %56

52:                                               ; preds = %43
  %53 = tail call { i8*, i32 } @_ZN6google8protobuf8internal15ReadTagFallbackEPKcj(i8* %38, i32 %48) #14
  %54 = extractvalue { i8*, i32 } %53, 0
  %55 = extractvalue { i8*, i32 } %53, 1
  br label %56

56:                                               ; preds = %37, %50, %52
  %57 = phi i32 [ %48, %50 ], [ %55, %52 ], [ %40, %37 ]
  %58 = phi i8* [ %51, %50 ], [ %54, %52 ], [ %42, %37 ]
  %59 = icmp eq i8* %58, null
  br i1 %59, label %143, label %60, !prof !3

60:                                               ; preds = %56
  %61 = lshr i32 %57, 3
  switch i32 %61, label %121 [
    i32 1, label %62
    i32 2, label %90
  ]

62:                                               ; preds = %60
  %63 = and i32 %57, 255
  %64 = icmp eq i32 %63, 10
  br i1 %64, label %65, label %121, !prof !2

65:                                               ; preds = %62
  %66 = load i32, i32* %11, align 4
  %67 = or i32 %66, 1
  store i32 %67, i32* %11, align 4
  %68 = load i64, i64* %14, align 8
  %69 = and i64 %68, 1
  %70 = icmp eq i64 %69, 0
  %71 = and i64 %68, -2
  br i1 %70, label %76, label %72, !prof !2

72:                                               ; preds = %65
  %73 = inttoptr i64 %71 to %"struct.google::protobuf::internal::InternalMetadata::ContainerBase"*
  %74 = getelementptr inbounds %"struct.google::protobuf::internal::InternalMetadata::ContainerBase", %"struct.google::protobuf::internal::InternalMetadata::ContainerBase"* %73, i64 0, i32 0
  %75 = load %"class.google::protobuf::Arena"*, %"class.google::protobuf::Arena"** %74, align 8
  br label %78

76:                                               ; preds = %65
  %77 = inttoptr i64 %71 to %"class.google::protobuf::Arena"*
  br label %78

78:                                               ; preds = %76, %72
  %79 = phi %"class.google::protobuf::Arena"* [ %75, %72 ], [ %77, %76 ]
  %80 = load %"class.std::__1::basic_string"*, %"class.std::__1::basic_string"** %15, align 8
  %81 = icmp eq %"class.std::__1::basic_string"* %80, bitcast (%"class.google::protobuf::internal::ExplicitlyConstructed.39"* @_ZN6google8protobuf8internal26fixed_address_empty_stringE to %"class.std::__1::basic_string"*)
  br i1 %81, label %82, label %84

82:                                               ; preds = %78
  tail call void @_ZN6google8protobuf8internal14ArenaStringPtr14CreateInstanceEPNS0_5ArenaEPKNSt3__112basic_stringIcNS5_11char_traitsIcEENS5_9allocatorIcEEEE(%"struct.google::protobuf::internal::ArenaStringPtr"* %12, %"class.google::protobuf::Arena"* %79, %"class.std::__1::basic_string"* bitcast (%"class.google::protobuf::internal::ExplicitlyConstructed.39"* @_ZN6google8protobuf8internal26fixed_address_empty_stringE to %"class.std::__1::basic_string"*)) #14
  %83 = load %"class.std::__1::basic_string"*, %"class.std::__1::basic_string"** %15, align 8
  br label %84

84:                                               ; preds = %78, %82
  %85 = phi %"class.std::__1::basic_string"* [ %83, %82 ], [ %80, %78 ]
  %86 = tail call i8* @_ZN6google8protobuf8internal24InlineGreedyStringParserEPNSt3__112basic_stringIcNS2_11char_traitsIcEENS2_9allocatorIcEEEEPKcPNS1_12ParseContextE(%"class.std::__1::basic_string"* %85, i8* nonnull %58, %"class.google::protobuf::internal::ParseContext"* %2) #14
  %87 = icmp eq i8* %86, null
  br i1 %87, label %143, label %88

88:                                               ; preds = %84, %139
  %89 = phi i8* [ %141, %139 ], [ %86, %84 ]
  br label %19

90:                                               ; preds = %60
  %91 = and i32 %57, 255
  %92 = icmp eq i32 %91, 16
  br i1 %92, label %93, label %121, !prof !2

93:                                               ; preds = %90
  %94 = or i32 %18, 2
  %95 = load i8, i8* %58, align 1
  %96 = icmp slt i8 %95, 0
  br i1 %96, label %100, label %97

97:                                               ; preds = %93
  %98 = zext i8 %95 to i64
  %99 = getelementptr inbounds i8, i8* %58, i64 1
  br label %116

100:                                              ; preds = %93
  %101 = zext i8 %95 to i32
  %102 = getelementptr inbounds i8, i8* %58, i64 1
  %103 = load i8, i8* %102, align 1
  %104 = zext i8 %103 to i32
  %105 = shl nuw nsw i32 %104, 7
  %106 = add nsw i32 %101, -128
  %107 = add nuw nsw i32 %106, %105
  %108 = icmp slt i8 %103, 0
  br i1 %108, label %112, label %109

109:                                              ; preds = %100
  %110 = zext i32 %107 to i64
  %111 = getelementptr inbounds i8, i8* %58, i64 2
  br label %116

112:                                              ; preds = %100
  %113 = tail call { i8*, i64 } @_ZN6google8protobuf8internal17VarintParseSlow64EPKcj(i8* nonnull %58, i32 %107) #14
  %114 = extractvalue { i8*, i64 } %113, 0
  %115 = extractvalue { i8*, i64 } %113, 1
  br label %116

116:                                              ; preds = %97, %109, %112
  %117 = phi i64 [ %115, %112 ], [ %110, %109 ], [ %98, %97 ]
  %118 = phi i8* [ %114, %112 ], [ %111, %109 ], [ %99, %97 ]
  %119 = trunc i64 %117 to i32
  store i32 %119, i32* %10, align 8
  %120 = icmp eq i8* %118, null
  br i1 %120, label %143, label %16

121:                                              ; preds = %60, %90, %62
  %122 = and i32 %57, 7
  %123 = icmp eq i32 %122, 4
  %124 = icmp eq i32 %57, 0
  %125 = or i1 %124, %123
  br i1 %125, label %126, label %129

126:                                              ; preds = %121
  %127 = add i32 %57, -1
  %128 = getelementptr inbounds %"class.google::protobuf::internal::ParseContext", %"class.google::protobuf::internal::ParseContext"* %2, i64 0, i32 0, i32 8
  store i32 %127, i32* %128, align 8
  br label %143

129:                                              ; preds = %121
  %130 = load i64, i64* %14, align 8
  %131 = and i64 %130, 1
  %132 = icmp eq i64 %131, 0
  br i1 %132, label %137, label %133, !prof !3

133:                                              ; preds = %129
  %134 = and i64 %130, -2
  %135 = inttoptr i64 %134 to %"struct.google::protobuf::internal::InternalMetadata::Container"*
  %136 = getelementptr inbounds %"struct.google::protobuf::internal::InternalMetadata::Container", %"struct.google::protobuf::internal::InternalMetadata::Container"* %135, i64 0, i32 1
  br label %139

137:                                              ; preds = %129
  %138 = tail call %"class.std::__1::basic_string"* @_ZN6google8protobuf8internal16InternalMetadata27mutable_unknown_fields_slowINSt3__112basic_stringIcNS4_11char_traitsIcEENS4_9allocatorIcEEEEEEPT_v(%"class.google::protobuf::internal::InternalMetadata"* %13) #14
  br label %139

139:                                              ; preds = %133, %137
  %140 = phi %"class.std::__1::basic_string"* [ %136, %133 ], [ %138, %137 ]
  %141 = tail call i8* @_ZN6google8protobuf8internal17UnknownFieldParseEjPNSt3__112basic_stringIcNS2_11char_traitsIcEENS2_9allocatorIcEEEEPKcPNS1_12ParseContextE(i32 %57, %"class.std::__1::basic_string"* %140, i8* nonnull %58, %"class.google::protobuf::internal::ParseContext"* %2) #14
  %142 = icmp eq i8* %141, null
  br i1 %142, label %143, label %88

143:                                              ; preds = %84, %24, %139, %56, %31, %116, %126
  %144 = phi i8* [ %58, %126 ], [ %33, %31 ], [ %20, %24 ], [ null, %139 ], [ null, %56 ], [ null, %84 ], [ null, %116 ]
  %145 = phi i32 [ %18, %126 ], [ %18, %84 ], [ %18, %24 ], [ %18, %139 ], [ %18, %56 ], [ %18, %31 ], [ %94, %116 ]
  %146 = load i32, i32* %11, align 4
  %147 = or i32 %146, %145
  store i32 %147, i32* %11, align 4
  ret i8* %144
}

; Function Attrs: nounwind ssp uwtable
define hidden i8* @_ZNK19in_memory_url_index50InMemoryURLIndexCacheItem_WordMapItem_WordMapEntry18_InternalSerializeEPhPN6google8protobuf2io19EpsCopyOutputStreamE(%"class.in_memory_url_index::InMemoryURLIndexCacheItem_WordMapItem_WordMapEntry"* nocapture readonly, i8*, %"class.google::protobuf::io::EpsCopyOutputStream"*) unnamed_addr #0 align 2 {
  %4 = getelementptr inbounds %"class.in_memory_url_index::InMemoryURLIndexCacheItem_WordMapItem_WordMapEntry", %"class.in_memory_url_index::InMemoryURLIndexCacheItem_WordMapItem_WordMapEntry"* %0, i64 0, i32 1, i32 0, i64 0
  %5 = load i32, i32* %4, align 4
  %6 = and i32 %5, 1
  %7 = icmp eq i32 %6, 0
  br i1 %7, label %42, label %8

8:                                                ; preds = %3
  %9 = getelementptr inbounds %"class.in_memory_url_index::InMemoryURLIndexCacheItem_WordMapItem_WordMapEntry", %"class.in_memory_url_index::InMemoryURLIndexCacheItem_WordMapItem_WordMapEntry"* %0, i64 0, i32 3, i32 0
  %10 = load %"class.std::__1::basic_string"*, %"class.std::__1::basic_string"** %9, align 8
  %11 = bitcast %"class.std::__1::basic_string"* %10 to %"struct.std::__1::basic_string<char, std::__1::char_traits<char>, std::__1::allocator<char> >::__short"*
  %12 = getelementptr inbounds %"struct.std::__1::basic_string<char, std::__1::char_traits<char>, std::__1::allocator<char> >::__short", %"struct.std::__1::basic_string<char, std::__1::char_traits<char>, std::__1::allocator<char> >::__short"* %11, i64 0, i32 1, i32 0
  %13 = load i8, i8* %12, align 1
  %14 = icmp slt i8 %13, 0
  br i1 %14, label %17, label %15

15:                                               ; preds = %8
  %16 = zext i8 %13 to i64
  br label %21

17:                                               ; preds = %8
  %18 = getelementptr inbounds %"class.std::__1::basic_string", %"class.std::__1::basic_string"* %10, i64 0, i32 0, i32 0, i32 0, i32 0, i32 0, i32 1
  %19 = load i64, i64* %18, align 8
  %20 = icmp sgt i64 %19, 127
  br i1 %20, label %29, label %21, !prof !3

21:                                               ; preds = %17, %15
  %22 = phi i64 [ %16, %15 ], [ %19, %17 ]
  %23 = bitcast %"class.google::protobuf::io::EpsCopyOutputStream"* %2 to i64*
  %24 = load i64, i64* %23, align 8
  %25 = ptrtoint i8* %1 to i64
  %26 = sub i64 14, %25
  %27 = add i64 %26, %24
  %28 = icmp slt i64 %27, %22
  br i1 %28, label %29, label %31, !prof !3

29:                                               ; preds = %21, %17
  %30 = tail call i8* @_ZN6google8protobuf2io19EpsCopyOutputStream30WriteStringMaybeAliasedOutlineEjRKNSt3__112basic_stringIcNS3_11char_traitsIcEENS3_9allocatorIcEEEEPh(%"class.google::protobuf::io::EpsCopyOutputStream"* %2, i32 1, %"class.std::__1::basic_string"* dereferenceable(24) %10, i8* %1) #14
  br label %42

31:                                               ; preds = %21
  store i8 10, i8* %1, align 1
  %32 = getelementptr inbounds i8, i8* %1, i64 1
  %33 = trunc i64 %22 to i8
  %34 = getelementptr inbounds i8, i8* %1, i64 2
  store i8 %33, i8* %32, align 1
  %35 = load i8, i8* %12, align 1
  %36 = icmp slt i8 %35, 0
  %37 = getelementptr inbounds %"class.std::__1::basic_string", %"class.std::__1::basic_string"* %10, i64 0, i32 0, i32 0, i32 0, i32 0, i32 0, i32 0
  %38 = load i8*, i8** %37, align 8
  %39 = bitcast %"class.std::__1::basic_string"* %10 to i8*
  %40 = select i1 %36, i8* %38, i8* %39
  tail call void @llvm.memcpy.p0i8.p0i8.i64(i8* align 1 %34, i8* align 1 %40, i64 %22, i1 false) #14
  %41 = getelementptr inbounds i8, i8* %34, i64 %22
  br label %42

42:                                               ; preds = %31, %29, %3
  %43 = phi i8* [ %1, %3 ], [ %30, %29 ], [ %41, %31 ]
  %44 = and i32 %5, 2
  %45 = icmp eq i32 %44, 0
  br i1 %45, label %83, label %46

46:                                               ; preds = %42
  %47 = getelementptr inbounds %"class.google::protobuf::io::EpsCopyOutputStream", %"class.google::protobuf::io::EpsCopyOutputStream"* %2, i64 0, i32 0
  %48 = load i8*, i8** %47, align 8
  %49 = icmp ugt i8* %48, %43
  br i1 %49, label %52, label %50, !prof !2

50:                                               ; preds = %46
  %51 = tail call i8* @_ZN6google8protobuf2io19EpsCopyOutputStream19EnsureSpaceFallbackEPh(%"class.google::protobuf::io::EpsCopyOutputStream"* %2, i8* %43) #14
  br label %52

52:                                               ; preds = %46, %50
  %53 = phi i8* [ %51, %50 ], [ %43, %46 ]
  %54 = getelementptr inbounds %"class.in_memory_url_index::InMemoryURLIndexCacheItem_WordMapItem_WordMapEntry", %"class.in_memory_url_index::InMemoryURLIndexCacheItem_WordMapItem_WordMapEntry"* %0, i64 0, i32 4
  %55 = load i32, i32* %54, align 8
  store i8 16, i8* %53, align 1
  %56 = getelementptr inbounds i8, i8* %53, i64 1
  %57 = icmp ult i32 %55, 128
  %58 = trunc i32 %55 to i8
  br i1 %57, label %59, label %61

59:                                               ; preds = %52
  store i8 %58, i8* %56, align 1
  %60 = getelementptr inbounds i8, i8* %53, i64 2
  br label %83

61:                                               ; preds = %52
  %62 = sext i32 %55 to i64
  %63 = or i8 %58, -128
  store i8 %63, i8* %56, align 1
  %64 = lshr i64 %62, 7
  %65 = icmp ult i32 %55, 16384
  br i1 %65, label %66, label %70

66:                                               ; preds = %61
  %67 = trunc i64 %64 to i8
  %68 = getelementptr inbounds i8, i8* %53, i64 2
  store i8 %67, i8* %68, align 1
  %69 = getelementptr inbounds i8, i8* %53, i64 3
  br label %83

70:                                               ; preds = %61
  %71 = getelementptr inbounds i8, i8* %53, i64 2
  br label %72

72:                                               ; preds = %72, %70
  %73 = phi i64 [ %64, %70 ], [ %77, %72 ]
  %74 = phi i8* [ %71, %70 ], [ %78, %72 ]
  %75 = trunc i64 %73 to i8
  %76 = or i8 %75, -128
  store i8 %76, i8* %74, align 1
  %77 = lshr i64 %73, 7
  %78 = getelementptr inbounds i8, i8* %74, i64 1
  %79 = icmp ugt i64 %73, 16383
  br i1 %79, label %72, label %80, !prof !3

80:                                               ; preds = %72
  %81 = trunc i64 %77 to i8
  %82 = getelementptr inbounds i8, i8* %74, i64 2
  store i8 %81, i8* %78, align 1
  br label %83

83:                                               ; preds = %80, %66, %59, %42
  %84 = phi i8* [ %43, %42 ], [ %60, %59 ], [ %69, %66 ], [ %82, %80 ]
  %85 = getelementptr inbounds %"class.in_memory_url_index::InMemoryURLIndexCacheItem_WordMapItem_WordMapEntry", %"class.in_memory_url_index::InMemoryURLIndexCacheItem_WordMapItem_WordMapEntry"* %0, i64 0, i32 0, i32 1
  %86 = bitcast %"class.google::protobuf::internal::InternalMetadata"* %85 to i64*
  %87 = load i64, i64* %86, align 8
  %88 = and i64 %87, 1
  %89 = icmp eq i64 %88, 0
  br i1 %89, label %121, label %90, !prof !2

90:                                               ; preds = %83
  %91 = and i64 %87, -2
  %92 = inttoptr i64 %91 to %"struct.google::protobuf::internal::InternalMetadata::Container"*
  %93 = getelementptr inbounds %"struct.google::protobuf::internal::InternalMetadata::Container", %"struct.google::protobuf::internal::InternalMetadata::Container"* %92, i64 0, i32 1
  %94 = bitcast %"class.std::__1::basic_string"* %93 to %"struct.std::__1::basic_string<char, std::__1::char_traits<char>, std::__1::allocator<char> >::__short"*
  %95 = getelementptr inbounds %"struct.std::__1::basic_string<char, std::__1::char_traits<char>, std::__1::allocator<char> >::__short", %"struct.std::__1::basic_string<char, std::__1::char_traits<char>, std::__1::allocator<char> >::__short"* %94, i64 0, i32 1, i32 0
  %96 = load i8, i8* %95, align 1
  %97 = icmp slt i8 %96, 0
  br i1 %97, label %98, label %103

98:                                               ; preds = %90
  %99 = getelementptr inbounds %"class.std::__1::basic_string", %"class.std::__1::basic_string"* %93, i64 0, i32 0, i32 0, i32 0, i32 0, i32 0, i32 0
  %100 = load i8*, i8** %99, align 8
  %101 = getelementptr inbounds %"struct.google::protobuf::internal::InternalMetadata::Container", %"struct.google::protobuf::internal::InternalMetadata::Container"* %92, i64 0, i32 1, i32 0, i32 0, i32 0, i32 0, i32 0, i32 1
  %102 = load i64, i64* %101, align 8
  br label %106

103:                                              ; preds = %90
  %104 = bitcast %"class.std::__1::basic_string"* %93 to i8*
  %105 = zext i8 %96 to i64
  br label %106

106:                                              ; preds = %98, %103
  %107 = phi i8* [ %100, %98 ], [ %104, %103 ]
  %108 = phi i64 [ %102, %98 ], [ %105, %103 ]
  %109 = bitcast %"class.google::protobuf::io::EpsCopyOutputStream"* %2 to i64*
  %110 = load i64, i64* %109, align 8
  %111 = ptrtoint i8* %84 to i64
  %112 = sub i64 %110, %111
  %113 = shl i64 %108, 32
  %114 = ashr exact i64 %113, 32
  %115 = icmp slt i64 %112, %114
  br i1 %115, label %116, label %119, !prof !3

116:                                              ; preds = %106
  %117 = trunc i64 %108 to i32
  %118 = tail call i8* @_ZN6google8protobuf2io19EpsCopyOutputStream16WriteRawFallbackEPKviPh(%"class.google::protobuf::io::EpsCopyOutputStream"* %2, i8* %107, i32 %117, i8* %84) #14
  br label %121

119:                                              ; preds = %106
  tail call void @llvm.memcpy.p0i8.p0i8.i64(i8* align 1 %84, i8* align 1 %107, i64 %114, i1 false) #14
  %120 = getelementptr inbounds i8, i8* %84, i64 %114
  br label %121

121:                                              ; preds = %83, %119, %116
  %122 = phi i8* [ %84, %83 ], [ %118, %116 ], [ %120, %119 ]
  ret i8* %122
}

; Function Attrs: nounwind readonly ssp uwtable
define hidden i64 @_ZNK19in_memory_url_index50InMemoryURLIndexCacheItem_WordMapItem_WordMapEntry30RequiredFieldsByteSizeFallbackEv(%"class.in_memory_url_index::InMemoryURLIndexCacheItem_WordMapItem_WordMapEntry"* nocapture readonly) local_unnamed_addr #8 align 2 {
  %2 = getelementptr inbounds %"class.in_memory_url_index::InMemoryURLIndexCacheItem_WordMapItem_WordMapEntry", %"class.in_memory_url_index::InMemoryURLIndexCacheItem_WordMapItem_WordMapEntry"* %0, i64 0, i32 1, i32 0, i64 0
  %3 = load i32, i32* %2, align 4
  %4 = and i32 %3, 1
  %5 = icmp eq i32 %4, 0
  br i1 %5, label %27, label %6

6:                                                ; preds = %1
  %7 = getelementptr inbounds %"class.in_memory_url_index::InMemoryURLIndexCacheItem_WordMapItem_WordMapEntry", %"class.in_memory_url_index::InMemoryURLIndexCacheItem_WordMapItem_WordMapEntry"* %0, i64 0, i32 3, i32 0
  %8 = load %"class.std::__1::basic_string"*, %"class.std::__1::basic_string"** %7, align 8
  %9 = bitcast %"class.std::__1::basic_string"* %8 to %"struct.std::__1::basic_string<char, std::__1::char_traits<char>, std::__1::allocator<char> >::__short"*
  %10 = getelementptr inbounds %"struct.std::__1::basic_string<char, std::__1::char_traits<char>, std::__1::allocator<char> >::__short", %"struct.std::__1::basic_string<char, std::__1::char_traits<char>, std::__1::allocator<char> >::__short"* %9, i64 0, i32 1, i32 0
  %11 = load i8, i8* %10, align 1
  %12 = icmp slt i8 %11, 0
  %13 = getelementptr inbounds %"class.std::__1::basic_string", %"class.std::__1::basic_string"* %8, i64 0, i32 0, i32 0, i32 0, i32 0, i32 0, i32 1
  %14 = load i64, i64* %13, align 8
  %15 = zext i8 %11 to i64
  %16 = select i1 %12, i64 %14, i64 %15
  %17 = trunc i64 %16 to i32
  %18 = or i32 %17, 1
  %19 = tail call i32 @llvm.ctlz.i32(i32 %18, i1 true) #14, !range !4
  %20 = xor i32 %19, 31
  %21 = mul nuw nsw i32 %20, 9
  %22 = add nuw nsw i32 %21, 73
  %23 = lshr i32 %22, 6
  %24 = zext i32 %23 to i64
  %25 = add i64 %16, 1
  %26 = add i64 %25, %24
  br label %27

27:                                               ; preds = %1, %6
  %28 = phi i64 [ %26, %6 ], [ 0, %1 ]
  %29 = and i32 %3, 2
  %30 = icmp eq i32 %29, 0
  br i1 %30, label %47, label %31

31:                                               ; preds = %27
  %32 = getelementptr inbounds %"class.in_memory_url_index::InMemoryURLIndexCacheItem_WordMapItem_WordMapEntry", %"class.in_memory_url_index::InMemoryURLIndexCacheItem_WordMapItem_WordMapEntry"* %0, i64 0, i32 4
  %33 = load i32, i32* %32, align 8
  %34 = icmp slt i32 %33, 0
  br i1 %34, label %44, label %35

35:                                               ; preds = %31
  %36 = or i32 %33, 1
  %37 = tail call i32 @llvm.ctlz.i32(i32 %36, i1 true) #14, !range !4
  %38 = xor i32 %37, 31
  %39 = mul nuw nsw i32 %38, 9
  %40 = add nuw nsw i32 %39, 73
  %41 = lshr i32 %40, 6
  %42 = add nuw nsw i32 %41, 1
  %43 = zext i32 %42 to i64
  br label %44

44:                                               ; preds = %31, %35
  %45 = phi i64 [ %43, %35 ], [ 11, %31 ]
  %46 = add i64 %45, %28
  br label %47

47:                                               ; preds = %27, %44
  %48 = phi i64 [ %46, %44 ], [ %28, %27 ]
  ret i64 %48
}

; Function Attrs: nounwind ssp uwtable
define hidden i64 @_ZNK19in_memory_url_index50InMemoryURLIndexCacheItem_WordMapItem_WordMapEntry12ByteSizeLongEv(%"class.in_memory_url_index::InMemoryURLIndexCacheItem_WordMapItem_WordMapEntry"* nocapture) unnamed_addr #0 align 2 {
  %2 = getelementptr inbounds %"class.in_memory_url_index::InMemoryURLIndexCacheItem_WordMapItem_WordMapEntry", %"class.in_memory_url_index::InMemoryURLIndexCacheItem_WordMapItem_WordMapEntry"* %0, i64 0, i32 1, i32 0, i64 0
  %3 = load i32, i32* %2, align 4
  %4 = and i32 %3, 3
  %5 = icmp eq i32 %4, 3
  br i1 %5, label %6, label %41

6:                                                ; preds = %1
  %7 = getelementptr inbounds %"class.in_memory_url_index::InMemoryURLIndexCacheItem_WordMapItem_WordMapEntry", %"class.in_memory_url_index::InMemoryURLIndexCacheItem_WordMapItem_WordMapEntry"* %0, i64 0, i32 3, i32 0
  %8 = load %"class.std::__1::basic_string"*, %"class.std::__1::basic_string"** %7, align 8
  %9 = bitcast %"class.std::__1::basic_string"* %8 to %"struct.std::__1::basic_string<char, std::__1::char_traits<char>, std::__1::allocator<char> >::__short"*
  %10 = getelementptr inbounds %"struct.std::__1::basic_string<char, std::__1::char_traits<char>, std::__1::allocator<char> >::__short", %"struct.std::__1::basic_string<char, std::__1::char_traits<char>, std::__1::allocator<char> >::__short"* %9, i64 0, i32 1, i32 0
  %11 = load i8, i8* %10, align 1
  %12 = icmp slt i8 %11, 0
  %13 = getelementptr inbounds %"class.std::__1::basic_string", %"class.std::__1::basic_string"* %8, i64 0, i32 0, i32 0, i32 0, i32 0, i32 0, i32 1
  %14 = load i64, i64* %13, align 8
  %15 = zext i8 %11 to i64
  %16 = select i1 %12, i64 %14, i64 %15
  %17 = trunc i64 %16 to i32
  %18 = or i32 %17, 1
  %19 = tail call i32 @llvm.ctlz.i32(i32 %18, i1 true) #14, !range !4
  %20 = xor i32 %19, 31
  %21 = mul nuw nsw i32 %20, 9
  %22 = add nuw nsw i32 %21, 73
  %23 = lshr i32 %22, 6
  %24 = zext i32 %23 to i64
  %25 = getelementptr inbounds %"class.in_memory_url_index::InMemoryURLIndexCacheItem_WordMapItem_WordMapEntry", %"class.in_memory_url_index::InMemoryURLIndexCacheItem_WordMapItem_WordMapEntry"* %0, i64 0, i32 4
  %26 = load i32, i32* %25, align 8
  %27 = icmp slt i32 %26, 0
  br i1 %27, label %36, label %28

28:                                               ; preds = %6
  %29 = or i32 %26, 1
  %30 = tail call i32 @llvm.ctlz.i32(i32 %29, i1 true) #14, !range !4
  %31 = xor i32 %30, 31
  %32 = mul nuw nsw i32 %31, 9
  %33 = add nuw nsw i32 %32, 73
  %34 = lshr i32 %33, 6
  %35 = zext i32 %34 to i64
  br label %36

36:                                               ; preds = %6, %28
  %37 = phi i64 [ %35, %28 ], [ 10, %6 ]
  %38 = add i64 %16, 2
  %39 = add i64 %38, %24
  %40 = add i64 %39, %37
  br label %85

41:                                               ; preds = %1
  %42 = and i32 %3, 1
  %43 = icmp eq i32 %42, 0
  br i1 %43, label %65, label %44

44:                                               ; preds = %41
  %45 = getelementptr inbounds %"class.in_memory_url_index::InMemoryURLIndexCacheItem_WordMapItem_WordMapEntry", %"class.in_memory_url_index::InMemoryURLIndexCacheItem_WordMapItem_WordMapEntry"* %0, i64 0, i32 3, i32 0
  %46 = load %"class.std::__1::basic_string"*, %"class.std::__1::basic_string"** %45, align 8
  %47 = bitcast %"class.std::__1::basic_string"* %46 to %"struct.std::__1::basic_string<char, std::__1::char_traits<char>, std::__1::allocator<char> >::__short"*
  %48 = getelementptr inbounds %"struct.std::__1::basic_string<char, std::__1::char_traits<char>, std::__1::allocator<char> >::__short", %"struct.std::__1::basic_string<char, std::__1::char_traits<char>, std::__1::allocator<char> >::__short"* %47, i64 0, i32 1, i32 0
  %49 = load i8, i8* %48, align 1
  %50 = icmp slt i8 %49, 0
  %51 = getelementptr inbounds %"class.std::__1::basic_string", %"class.std::__1::basic_string"* %46, i64 0, i32 0, i32 0, i32 0, i32 0, i32 0, i32 1
  %52 = load i64, i64* %51, align 8
  %53 = zext i8 %49 to i64
  %54 = select i1 %50, i64 %52, i64 %53
  %55 = trunc i64 %54 to i32
  %56 = or i32 %55, 1
  %57 = tail call i32 @llvm.ctlz.i32(i32 %56, i1 true) #14, !range !4
  %58 = xor i32 %57, 31
  %59 = mul nuw nsw i32 %58, 9
  %60 = add nuw nsw i32 %59, 73
  %61 = lshr i32 %60, 6
  %62 = zext i32 %61 to i64
  %63 = add i64 %54, 1
  %64 = add i64 %63, %62
  br label %65

65:                                               ; preds = %44, %41
  %66 = phi i64 [ %64, %44 ], [ 0, %41 ]
  %67 = and i32 %3, 2
  %68 = icmp eq i32 %67, 0
  br i1 %68, label %85, label %69

69:                                               ; preds = %65
  %70 = getelementptr inbounds %"class.in_memory_url_index::InMemoryURLIndexCacheItem_WordMapItem_WordMapEntry", %"class.in_memory_url_index::InMemoryURLIndexCacheItem_WordMapItem_WordMapEntry"* %0, i64 0, i32 4
  %71 = load i32, i32* %70, align 8
  %72 = icmp slt i32 %71, 0
  br i1 %72, label %82, label %73

73:                                               ; preds = %69
  %74 = or i32 %71, 1
  %75 = tail call i32 @llvm.ctlz.i32(i32 %74, i1 true) #14, !range !4
  %76 = xor i32 %75, 31
  %77 = mul nuw nsw i32 %76, 9
  %78 = add nuw nsw i32 %77, 73
  %79 = lshr i32 %78, 6
  %80 = add nuw nsw i32 %79, 1
  %81 = zext i32 %80 to i64
  br label %82

82:                                               ; preds = %73, %69
  %83 = phi i64 [ %81, %73 ], [ 11, %69 ]
  %84 = add i64 %83, %66
  br label %85

85:                                               ; preds = %82, %65, %36
  %86 = phi i64 [ %40, %36 ], [ %84, %82 ], [ %66, %65 ]
  %87 = getelementptr inbounds %"class.in_memory_url_index::InMemoryURLIndexCacheItem_WordMapItem_WordMapEntry", %"class.in_memory_url_index::InMemoryURLIndexCacheItem_WordMapItem_WordMapEntry"* %0, i64 0, i32 0, i32 1
  %88 = bitcast %"class.google::protobuf::internal::InternalMetadata"* %87 to i64*
  %89 = load i64, i64* %88, align 8
  %90 = and i64 %89, 1
  %91 = icmp eq i64 %90, 0
  br i1 %91, label %108, label %92, !prof !2

92:                                               ; preds = %85
  %93 = and i64 %89, -2
  %94 = inttoptr i64 %93 to %"struct.google::protobuf::internal::InternalMetadata::Container"*
  %95 = getelementptr inbounds %"struct.google::protobuf::internal::InternalMetadata::Container", %"struct.google::protobuf::internal::InternalMetadata::Container"* %94, i64 0, i32 1
  %96 = bitcast %"class.std::__1::basic_string"* %95 to %"struct.std::__1::basic_string<char, std::__1::char_traits<char>, std::__1::allocator<char> >::__short"*
  %97 = getelementptr inbounds %"struct.std::__1::basic_string<char, std::__1::char_traits<char>, std::__1::allocator<char> >::__short", %"struct.std::__1::basic_string<char, std::__1::char_traits<char>, std::__1::allocator<char> >::__short"* %96, i64 0, i32 1, i32 0
  %98 = load i8, i8* %97, align 1
  %99 = icmp slt i8 %98, 0
  br i1 %99, label %100, label %103

100:                                              ; preds = %92
  %101 = getelementptr inbounds %"struct.google::protobuf::internal::InternalMetadata::Container", %"struct.google::protobuf::internal::InternalMetadata::Container"* %94, i64 0, i32 1, i32 0, i32 0, i32 0, i32 0, i32 0, i32 1
  %102 = load i64, i64* %101, align 8
  br label %105

103:                                              ; preds = %92
  %104 = zext i8 %98 to i64
  br label %105

105:                                              ; preds = %100, %103
  %106 = phi i64 [ %102, %100 ], [ %104, %103 ]
  %107 = add i64 %106, %86
  br label %108

108:                                              ; preds = %85, %105
  %109 = phi i64 [ %107, %105 ], [ %86, %85 ]
  %110 = trunc i64 %109 to i32
  %111 = getelementptr inbounds %"class.in_memory_url_index::InMemoryURLIndexCacheItem_WordMapItem_WordMapEntry", %"class.in_memory_url_index::InMemoryURLIndexCacheItem_WordMapItem_WordMapEntry"* %0, i64 0, i32 2, i32 0, i32 0, i32 0, i32 0, i32 0, i32 0
  store atomic i32 %110, i32* %111 monotonic, align 4
  ret i64 %109
}

; Function Attrs: nounwind ssp uwtable
define hidden void @_ZN19in_memory_url_index50InMemoryURLIndexCacheItem_WordMapItem_WordMapEntry21CheckTypeAndMergeFromERKN6google8protobuf11MessageLiteE(%"class.in_memory_url_index::InMemoryURLIndexCacheItem_WordMapItem_WordMapEntry"*, %"class.google::protobuf::MessageLite"* nocapture readonly dereferenceable(16)) unnamed_addr #0 align 2 {
  %3 = bitcast %"class.google::protobuf::MessageLite"* %1 to %"class.in_memory_url_index::InMemoryURLIndexCacheItem_WordMapItem_WordMapEntry"*
  tail call void @_ZN19in_memory_url_index50InMemoryURLIndexCacheItem_WordMapItem_WordMapEntry9MergeFromERKS0_(%"class.in_memory_url_index::InMemoryURLIndexCacheItem_WordMapItem_WordMapEntry"* %0, %"class.in_memory_url_index::InMemoryURLIndexCacheItem_WordMapItem_WordMapEntry"* dereferenceable(40) %3)
  ret void
}

; Function Attrs: nounwind ssp uwtable
define hidden void @_ZN19in_memory_url_index50InMemoryURLIndexCacheItem_WordMapItem_WordMapEntry9MergeFromERKS0_(%"class.in_memory_url_index::InMemoryURLIndexCacheItem_WordMapItem_WordMapEntry"*, %"class.in_memory_url_index::InMemoryURLIndexCacheItem_WordMapItem_WordMapEntry"* nocapture readonly dereferenceable(40)) local_unnamed_addr #0 align 2 {
  %3 = getelementptr inbounds %"class.in_memory_url_index::InMemoryURLIndexCacheItem_WordMapItem_WordMapEntry", %"class.in_memory_url_index::InMemoryURLIndexCacheItem_WordMapItem_WordMapEntry"* %0, i64 0, i32 0, i32 1
  %4 = getelementptr inbounds %"class.in_memory_url_index::InMemoryURLIndexCacheItem_WordMapItem_WordMapEntry", %"class.in_memory_url_index::InMemoryURLIndexCacheItem_WordMapItem_WordMapEntry"* %1, i64 0, i32 0, i32 1
  %5 = bitcast %"class.google::protobuf::internal::InternalMetadata"* %4 to i64*
  %6 = load i64, i64* %5, align 8
  %7 = and i64 %6, 1
  %8 = icmp eq i64 %7, 0
  br i1 %8, label %38, label %9

9:                                                ; preds = %2
  %10 = and i64 %6, -2
  %11 = inttoptr i64 %10 to %"struct.google::protobuf::internal::InternalMetadata::Container"*
  %12 = getelementptr inbounds %"struct.google::protobuf::internal::InternalMetadata::Container", %"struct.google::protobuf::internal::InternalMetadata::Container"* %11, i64 0, i32 1
  %13 = bitcast %"class.google::protobuf::internal::InternalMetadata"* %3 to i64*
  %14 = load i64, i64* %13, align 8
  %15 = and i64 %14, 1
  %16 = icmp eq i64 %15, 0
  br i1 %16, label %21, label %17, !prof !3

17:                                               ; preds = %9
  %18 = and i64 %14, -2
  %19 = inttoptr i64 %18 to %"struct.google::protobuf::internal::InternalMetadata::Container"*
  %20 = getelementptr inbounds %"struct.google::protobuf::internal::InternalMetadata::Container", %"struct.google::protobuf::internal::InternalMetadata::Container"* %19, i64 0, i32 1
  br label %23

21:                                               ; preds = %9
  %22 = tail call %"class.std::__1::basic_string"* @_ZN6google8protobuf8internal16InternalMetadata27mutable_unknown_fields_slowINSt3__112basic_stringIcNS4_11char_traitsIcEENS4_9allocatorIcEEEEEEPT_v(%"class.google::protobuf::internal::InternalMetadata"* %3) #14
  br label %23

23:                                               ; preds = %21, %17
  %24 = phi %"class.std::__1::basic_string"* [ %20, %17 ], [ %22, %21 ]
  %25 = bitcast %"class.std::__1::basic_string"* %12 to %"struct.std::__1::basic_string<char, std::__1::char_traits<char>, std::__1::allocator<char> >::__short"*
  %26 = getelementptr inbounds %"struct.std::__1::basic_string<char, std::__1::char_traits<char>, std::__1::allocator<char> >::__short", %"struct.std::__1::basic_string<char, std::__1::char_traits<char>, std::__1::allocator<char> >::__short"* %25, i64 0, i32 1, i32 0
  %27 = load i8, i8* %26, align 1
  %28 = icmp slt i8 %27, 0
  %29 = getelementptr inbounds %"class.std::__1::basic_string", %"class.std::__1::basic_string"* %12, i64 0, i32 0, i32 0, i32 0, i32 0, i32 0, i32 0
  %30 = load i8*, i8** %29, align 8
  %31 = getelementptr inbounds %"struct.google::protobuf::internal::InternalMetadata::Container", %"struct.google::protobuf::internal::InternalMetadata::Container"* %11, i64 0, i32 1, i32 0, i32 0, i32 0, i32 0, i32 0, i32 1
  %32 = load i64, i64* %31, align 8
  %33 = bitcast %"class.std::__1::basic_string"* %12 to i8*
  %34 = zext i8 %27 to i64
  %35 = select i1 %28, i8* %30, i8* %33
  %36 = select i1 %28, i64 %32, i64 %34
  %37 = tail call dereferenceable(24) %"class.std::__1::basic_string"* @_ZNSt3__112basic_stringIcNS_11char_traitsIcEENS_9allocatorIcEEE6appendEPKcm(%"class.std::__1::basic_string"* %24, i8* %35, i64 %36) #14
  br label %38

38:                                               ; preds = %2, %23
  %39 = getelementptr inbounds %"class.in_memory_url_index::InMemoryURLIndexCacheItem_WordMapItem_WordMapEntry", %"class.in_memory_url_index::InMemoryURLIndexCacheItem_WordMapItem_WordMapEntry"* %1, i64 0, i32 1, i32 0, i64 0
  %40 = load i32, i32* %39, align 4
  %41 = and i32 %40, 3
  %42 = icmp eq i32 %41, 0
  br i1 %42, label %112, label %43

43:                                               ; preds = %38
  %44 = and i32 %40, 1
  %45 = icmp eq i32 %44, 0
  br i1 %45, label %101, label %46

46:                                               ; preds = %43
  %47 = getelementptr inbounds %"class.in_memory_url_index::InMemoryURLIndexCacheItem_WordMapItem_WordMapEntry", %"class.in_memory_url_index::InMemoryURLIndexCacheItem_WordMapItem_WordMapEntry"* %1, i64 0, i32 3, i32 0
  %48 = load %"class.std::__1::basic_string"*, %"class.std::__1::basic_string"** %47, align 8
  %49 = getelementptr inbounds %"class.in_memory_url_index::InMemoryURLIndexCacheItem_WordMapItem_WordMapEntry", %"class.in_memory_url_index::InMemoryURLIndexCacheItem_WordMapItem_WordMapEntry"* %0, i64 0, i32 1, i32 0, i64 0
  %50 = load i32, i32* %49, align 4
  %51 = or i32 %50, 1
  store i32 %51, i32* %49, align 4
  %52 = getelementptr inbounds %"class.in_memory_url_index::InMemoryURLIndexCacheItem_WordMapItem_WordMapEntry", %"class.in_memory_url_index::InMemoryURLIndexCacheItem_WordMapItem_WordMapEntry"* %0, i64 0, i32 3
  %53 = bitcast %"class.google::protobuf::internal::InternalMetadata"* %3 to i64*
  %54 = load i64, i64* %53, align 8
  %55 = and i64 %54, 1
  %56 = icmp eq i64 %55, 0
  %57 = and i64 %54, -2
  br i1 %56, label %62, label %58, !prof !2

58:                                               ; preds = %46
  %59 = inttoptr i64 %57 to %"struct.google::protobuf::internal::InternalMetadata::ContainerBase"*
  %60 = getelementptr inbounds %"struct.google::protobuf::internal::InternalMetadata::ContainerBase", %"struct.google::protobuf::internal::InternalMetadata::ContainerBase"* %59, i64 0, i32 0
  %61 = load %"class.google::protobuf::Arena"*, %"class.google::protobuf::Arena"** %60, align 8
  br label %64

62:                                               ; preds = %46
  %63 = inttoptr i64 %57 to %"class.google::protobuf::Arena"*
  br label %64

64:                                               ; preds = %62, %58
  %65 = phi %"class.google::protobuf::Arena"* [ %61, %58 ], [ %63, %62 ]
  %66 = getelementptr inbounds %"struct.google::protobuf::internal::ArenaStringPtr", %"struct.google::protobuf::internal::ArenaStringPtr"* %52, i64 0, i32 0
  %67 = load %"class.std::__1::basic_string"*, %"class.std::__1::basic_string"** %66, align 8
  %68 = icmp eq %"class.std::__1::basic_string"* %67, bitcast (%"class.google::protobuf::internal::ExplicitlyConstructed.39"* @_ZN6google8protobuf8internal26fixed_address_empty_stringE to %"class.std::__1::basic_string"*)
  br i1 %68, label %69, label %70

69:                                               ; preds = %64
  tail call void @_ZN6google8protobuf8internal14ArenaStringPtr14CreateInstanceEPNS0_5ArenaEPKNSt3__112basic_stringIcNS5_11char_traitsIcEENS5_9allocatorIcEEEE(%"struct.google::protobuf::internal::ArenaStringPtr"* %52, %"class.google::protobuf::Arena"* %65, %"class.std::__1::basic_string"* %48) #14
  br label %101

70:                                               ; preds = %64
  %71 = icmp eq %"class.std::__1::basic_string"* %67, %48
  br i1 %71, label %101, label %72

72:                                               ; preds = %70
  %73 = bitcast %"class.std::__1::basic_string"* %67 to %"struct.std::__1::basic_string<char, std::__1::char_traits<char>, std::__1::allocator<char> >::__short"*
  %74 = getelementptr inbounds %"struct.std::__1::basic_string<char, std::__1::char_traits<char>, std::__1::allocator<char> >::__short", %"struct.std::__1::basic_string<char, std::__1::char_traits<char>, std::__1::allocator<char> >::__short"* %73, i64 0, i32 1, i32 0
  %75 = load i8, i8* %74, align 1
  %76 = icmp slt i8 %75, 0
  %77 = bitcast %"class.std::__1::basic_string"* %48 to %"struct.std::__1::basic_string<char, std::__1::char_traits<char>, std::__1::allocator<char> >::__short"*
  %78 = getelementptr inbounds %"struct.std::__1::basic_string<char, std::__1::char_traits<char>, std::__1::allocator<char> >::__short", %"struct.std::__1::basic_string<char, std::__1::char_traits<char>, std::__1::allocator<char> >::__short"* %77, i64 0, i32 1, i32 0
  %79 = load i8, i8* %78, align 1
  %80 = icmp slt i8 %79, 0
  br i1 %76, label %91, label %81

81:                                               ; preds = %72
  br i1 %80, label %85, label %82

82:                                               ; preds = %81
  %83 = bitcast %"class.std::__1::basic_string"* %67 to i8*
  %84 = bitcast %"class.std::__1::basic_string"* %48 to i8*
  tail call void @llvm.memcpy.p0i8.p0i8.i64(i8* align 8 %83, i8* align 8 %84, i64 24, i1 false) #14
  br label %101

85:                                               ; preds = %81
  %86 = getelementptr inbounds %"class.std::__1::basic_string", %"class.std::__1::basic_string"* %48, i64 0, i32 0, i32 0, i32 0, i32 0, i32 0, i32 0
  %87 = load i8*, i8** %86, align 8
  %88 = getelementptr inbounds %"class.std::__1::basic_string", %"class.std::__1::basic_string"* %48, i64 0, i32 0, i32 0, i32 0, i32 0, i32 0, i32 1
  %89 = load i64, i64* %88, align 8
  %90 = tail call dereferenceable(24) %"class.std::__1::basic_string"* @_ZNSt3__112basic_stringIcNS_11char_traitsIcEENS_9allocatorIcEEE17__assign_no_aliasILb1EEERS5_PKcm(%"class.std::__1::basic_string"* %67, i8* %87, i64 %89) #14
  br label %101

91:                                               ; preds = %72
  %92 = getelementptr inbounds %"class.std::__1::basic_string", %"class.std::__1::basic_string"* %48, i64 0, i32 0, i32 0, i32 0, i32 0, i32 0, i32 0
  %93 = load i8*, i8** %92, align 8
  %94 = getelementptr inbounds %"class.std::__1::basic_string", %"class.std::__1::basic_string"* %48, i64 0, i32 0, i32 0, i32 0, i32 0, i32 0, i32 1
  %95 = load i64, i64* %94, align 8
  %96 = bitcast %"class.std::__1::basic_string"* %48 to i8*
  %97 = zext i8 %79 to i64
  %98 = select i1 %80, i8* %93, i8* %96
  %99 = select i1 %80, i64 %95, i64 %97
  %100 = tail call dereferenceable(24) %"class.std::__1::basic_string"* @_ZNSt3__112basic_stringIcNS_11char_traitsIcEENS_9allocatorIcEEE17__assign_no_aliasILb0EEERS5_PKcm(%"class.std::__1::basic_string"* %67, i8* %98, i64 %99) #14
  br label %101

101:                                              ; preds = %91, %85, %82, %70, %69, %43
  %102 = and i32 %40, 2
  %103 = icmp eq i32 %102, 0
  br i1 %103, label %108, label %104

104:                                              ; preds = %101
  %105 = getelementptr inbounds %"class.in_memory_url_index::InMemoryURLIndexCacheItem_WordMapItem_WordMapEntry", %"class.in_memory_url_index::InMemoryURLIndexCacheItem_WordMapItem_WordMapEntry"* %1, i64 0, i32 4
  %106 = load i32, i32* %105, align 8
  %107 = getelementptr inbounds %"class.in_memory_url_index::InMemoryURLIndexCacheItem_WordMapItem_WordMapEntry", %"class.in_memory_url_index::InMemoryURLIndexCacheItem_WordMapItem_WordMapEntry"* %0, i64 0, i32 4
  store i32 %106, i32* %107, align 8
  br label %108

108:                                              ; preds = %101, %104
  %109 = getelementptr inbounds %"class.in_memory_url_index::InMemoryURLIndexCacheItem_WordMapItem_WordMapEntry", %"class.in_memory_url_index::InMemoryURLIndexCacheItem_WordMapItem_WordMapEntry"* %0, i64 0, i32 1, i32 0, i64 0
  %110 = load i32, i32* %109, align 4
  %111 = or i32 %110, %40
  store i32 %111, i32* %109, align 4
  br label %112

112:                                              ; preds = %38, %108
  ret void
}

; Function Attrs: nounwind ssp uwtable
define hidden void @_ZN19in_memory_url_index50InMemoryURLIndexCacheItem_WordMapItem_WordMapEntry8CopyFromERKS0_(%"class.in_memory_url_index::InMemoryURLIndexCacheItem_WordMapItem_WordMapEntry"*, %"class.in_memory_url_index::InMemoryURLIndexCacheItem_WordMapItem_WordMapEntry"* readonly dereferenceable(40)) local_unnamed_addr #0 align 2 {
  %3 = icmp eq %"class.in_memory_url_index::InMemoryURLIndexCacheItem_WordMapItem_WordMapEntry"* %1, %0
  br i1 %3, label %44, label %4

4:                                                ; preds = %2
  %5 = getelementptr inbounds %"class.in_memory_url_index::InMemoryURLIndexCacheItem_WordMapItem_WordMapEntry", %"class.in_memory_url_index::InMemoryURLIndexCacheItem_WordMapItem_WordMapEntry"* %0, i64 0, i32 1, i32 0, i64 0
  %6 = load i32, i32* %5, align 4
  %7 = and i32 %6, 1
  %8 = icmp eq i32 %7, 0
  br i1 %8, label %22, label %9

9:                                                ; preds = %4
  %10 = getelementptr inbounds %"class.in_memory_url_index::InMemoryURLIndexCacheItem_WordMapItem_WordMapEntry", %"class.in_memory_url_index::InMemoryURLIndexCacheItem_WordMapItem_WordMapEntry"* %0, i64 0, i32 3, i32 0
  %11 = load %"class.std::__1::basic_string"*, %"class.std::__1::basic_string"** %10, align 8
  %12 = bitcast %"class.std::__1::basic_string"* %11 to %"struct.std::__1::basic_string<char, std::__1::char_traits<char>, std::__1::allocator<char> >::__short"*
  %13 = getelementptr inbounds %"struct.std::__1::basic_string<char, std::__1::char_traits<char>, std::__1::allocator<char> >::__short", %"struct.std::__1::basic_string<char, std::__1::char_traits<char>, std::__1::allocator<char> >::__short"* %12, i64 0, i32 1, i32 0
  %14 = load i8, i8* %13, align 1
  %15 = icmp slt i8 %14, 0
  br i1 %15, label %16, label %20

16:                                               ; preds = %9
  %17 = getelementptr inbounds %"class.std::__1::basic_string", %"class.std::__1::basic_string"* %11, i64 0, i32 0, i32 0, i32 0, i32 0, i32 0, i32 0
  %18 = load i8*, i8** %17, align 8
  store i8 0, i8* %18, align 1
  %19 = getelementptr inbounds %"class.std::__1::basic_string", %"class.std::__1::basic_string"* %11, i64 0, i32 0, i32 0, i32 0, i32 0, i32 0, i32 1
  store i64 0, i64* %19, align 8
  br label %22

20:                                               ; preds = %9
  %21 = bitcast %"class.std::__1::basic_string"* %11 to i8*
  store i8 0, i8* %21, align 1
  store i8 0, i8* %13, align 1
  br label %22

22:                                               ; preds = %20, %16, %4
  %23 = getelementptr inbounds %"class.in_memory_url_index::InMemoryURLIndexCacheItem_WordMapItem_WordMapEntry", %"class.in_memory_url_index::InMemoryURLIndexCacheItem_WordMapItem_WordMapEntry"* %0, i64 0, i32 4
  store i32 0, i32* %23, align 8
  store i32 0, i32* %5, align 4
  %24 = getelementptr inbounds %"class.in_memory_url_index::InMemoryURLIndexCacheItem_WordMapItem_WordMapEntry", %"class.in_memory_url_index::InMemoryURLIndexCacheItem_WordMapItem_WordMapEntry"* %0, i64 0, i32 0, i32 1
  %25 = bitcast %"class.google::protobuf::internal::InternalMetadata"* %24 to i64*
  %26 = load i64, i64* %25, align 8
  %27 = and i64 %26, 1
  %28 = icmp eq i64 %27, 0
  br i1 %28, label %43, label %29

29:                                               ; preds = %22
  %30 = and i64 %26, -2
  %31 = inttoptr i64 %30 to %"struct.google::protobuf::internal::InternalMetadata::Container"*
  %32 = getelementptr inbounds %"struct.google::protobuf::internal::InternalMetadata::Container", %"struct.google::protobuf::internal::InternalMetadata::Container"* %31, i64 0, i32 1
  %33 = bitcast %"class.std::__1::basic_string"* %32 to %"struct.std::__1::basic_string<char, std::__1::char_traits<char>, std::__1::allocator<char> >::__short"*
  %34 = getelementptr inbounds %"struct.std::__1::basic_string<char, std::__1::char_traits<char>, std::__1::allocator<char> >::__short", %"struct.std::__1::basic_string<char, std::__1::char_traits<char>, std::__1::allocator<char> >::__short"* %33, i64 0, i32 1, i32 0
  %35 = load i8, i8* %34, align 1
  %36 = icmp slt i8 %35, 0
  br i1 %36, label %37, label %41

37:                                               ; preds = %29
  %38 = getelementptr inbounds %"class.std::__1::basic_string", %"class.std::__1::basic_string"* %32, i64 0, i32 0, i32 0, i32 0, i32 0, i32 0, i32 0
  %39 = load i8*, i8** %38, align 8
  store i8 0, i8* %39, align 1
  %40 = getelementptr inbounds %"struct.google::protobuf::internal::InternalMetadata::Container", %"struct.google::protobuf::internal::InternalMetadata::Container"* %31, i64 0, i32 1, i32 0, i32 0, i32 0, i32 0, i32 0, i32 1
  store i64 0, i64* %40, align 8
  br label %43

41:                                               ; preds = %29
  %42 = bitcast %"class.std::__1::basic_string"* %32 to i8*
  store i8 0, i8* %42, align 2
  store i8 0, i8* %34, align 1
  br label %43

43:                                               ; preds = %22, %37, %41
  tail call void @_ZN19in_memory_url_index50InMemoryURLIndexCacheItem_WordMapItem_WordMapEntry9MergeFromERKS0_(%"class.in_memory_url_index::InMemoryURLIndexCacheItem_WordMapItem_WordMapEntry"* %0, %"class.in_memory_url_index::InMemoryURLIndexCacheItem_WordMapItem_WordMapEntry"* dereferenceable(40) %1)
  br label %44

44:                                               ; preds = %2, %43
  ret void
}

; Function Attrs: norecurse nounwind readonly ssp uwtable
define hidden zeroext i1 @_ZNK19in_memory_url_index50InMemoryURLIndexCacheItem_WordMapItem_WordMapEntry13IsInitializedEv(%"class.in_memory_url_index::InMemoryURLIndexCacheItem_WordMapItem_WordMapEntry"* nocapture readonly) unnamed_addr #7 align 2 {
  %2 = getelementptr inbounds %"class.in_memory_url_index::InMemoryURLIndexCacheItem_WordMapItem_WordMapEntry", %"class.in_memory_url_index::InMemoryURLIndexCacheItem_WordMapItem_WordMapEntry"* %0, i64 0, i32 1, i32 0, i64 0
  %3 = load i32, i32* %2, align 4
  %4 = and i32 %3, 3
  %5 = icmp eq i32 %4, 3
  ret i1 %5
}

; Function Attrs: nounwind ssp uwtable
define hidden void @_ZN19in_memory_url_index50InMemoryURLIndexCacheItem_WordMapItem_WordMapEntry12InternalSwapEPS0_(%"class.in_memory_url_index::InMemoryURLIndexCacheItem_WordMapItem_WordMapEntry"*, %"class.in_memory_url_index::InMemoryURLIndexCacheItem_WordMapItem_WordMapEntry"*) local_unnamed_addr #0 align 2 {
  %3 = getelementptr inbounds %"class.in_memory_url_index::InMemoryURLIndexCacheItem_WordMapItem_WordMapEntry", %"class.in_memory_url_index::InMemoryURLIndexCacheItem_WordMapItem_WordMapEntry"* %0, i64 0, i32 0, i32 1
  %4 = getelementptr inbounds %"class.in_memory_url_index::InMemoryURLIndexCacheItem_WordMapItem_WordMapEntry", %"class.in_memory_url_index::InMemoryURLIndexCacheItem_WordMapItem_WordMapEntry"* %1, i64 0, i32 0, i32 1
  %5 = bitcast %"class.google::protobuf::internal::InternalMetadata"* %3 to i64*
  %6 = load i64, i64* %5, align 8
  %7 = bitcast %"class.google::protobuf::internal::InternalMetadata"* %4 to i64*
  %8 = load i64, i64* %7, align 8
  %9 = or i64 %8, %6
  %10 = and i64 %9, 1
  %11 = icmp eq i64 %10, 0
  br i1 %11, label %43, label %12

12:                                               ; preds = %2
  %13 = and i64 %8, 1
  %14 = icmp eq i64 %13, 0
  br i1 %14, label %19, label %15, !prof !3

15:                                               ; preds = %12
  %16 = and i64 %8, -2
  %17 = inttoptr i64 %16 to %"struct.google::protobuf::internal::InternalMetadata::Container"*
  %18 = getelementptr inbounds %"struct.google::protobuf::internal::InternalMetadata::Container", %"struct.google::protobuf::internal::InternalMetadata::Container"* %17, i64 0, i32 1
  br label %22

19:                                               ; preds = %12
  %20 = tail call %"class.std::__1::basic_string"* @_ZN6google8protobuf8internal16InternalMetadata27mutable_unknown_fields_slowINSt3__112basic_stringIcNS4_11char_traitsIcEENS4_9allocatorIcEEEEEEPT_v(%"class.google::protobuf::internal::InternalMetadata"* %4) #14
  %21 = load i64, i64* %5, align 8
  br label %22

22:                                               ; preds = %19, %15
  %23 = phi i64 [ %6, %15 ], [ %21, %19 ]
  %24 = phi %"class.std::__1::basic_string"* [ %18, %15 ], [ %20, %19 ]
  %25 = and i64 %23, 1
  %26 = icmp eq i64 %25, 0
  br i1 %26, label %31, label %27, !prof !3

27:                                               ; preds = %22
  %28 = and i64 %23, -2
  %29 = inttoptr i64 %28 to %"struct.google::protobuf::internal::InternalMetadata::Container"*
  %30 = getelementptr inbounds %"struct.google::protobuf::internal::InternalMetadata::Container", %"struct.google::protobuf::internal::InternalMetadata::Container"* %29, i64 0, i32 1
  br label %33

31:                                               ; preds = %22
  %32 = tail call %"class.std::__1::basic_string"* @_ZN6google8protobuf8internal16InternalMetadata27mutable_unknown_fields_slowINSt3__112basic_stringIcNS4_11char_traitsIcEENS4_9allocatorIcEEEEEEPT_v(%"class.google::protobuf::internal::InternalMetadata"* %3) #14
  br label %33

33:                                               ; preds = %31, %27
  %34 = phi %"class.std::__1::basic_string"* [ %30, %27 ], [ %32, %31 ]
  %35 = bitcast %"class.std::__1::basic_string"* %34 to <2 x i64>*
  %36 = load <2 x i64>, <2 x i64>* %35, align 8
  %37 = getelementptr inbounds %"class.std::__1::basic_string", %"class.std::__1::basic_string"* %34, i64 0, i32 0, i32 0, i32 0, i32 0, i32 0, i32 2
  %38 = load i64, i64* %37, align 8
  %39 = bitcast %"class.std::__1::basic_string"* %34 to i8*
  %40 = bitcast %"class.std::__1::basic_string"* %24 to i8*
  tail call void @llvm.memcpy.p0i8.p0i8.i64(i8* align 8 %39, i8* align 8 %40, i64 24, i1 false) #14
  %41 = bitcast %"class.std::__1::basic_string"* %24 to <2 x i64>*
  store <2 x i64> %36, <2 x i64>* %41, align 8
  %42 = getelementptr inbounds %"class.std::__1::basic_string", %"class.std::__1::basic_string"* %24, i64 0, i32 0, i32 0, i32 0, i32 0, i32 0, i32 2
  store i64 %38, i64* %42, align 8
  br label %43

43:                                               ; preds = %2, %33
  %44 = getelementptr inbounds %"class.in_memory_url_index::InMemoryURLIndexCacheItem_WordMapItem_WordMapEntry", %"class.in_memory_url_index::InMemoryURLIndexCacheItem_WordMapItem_WordMapEntry"* %0, i64 0, i32 1, i32 0, i64 0
  %45 = getelementptr inbounds %"class.in_memory_url_index::InMemoryURLIndexCacheItem_WordMapItem_WordMapEntry", %"class.in_memory_url_index::InMemoryURLIndexCacheItem_WordMapItem_WordMapEntry"* %1, i64 0, i32 1, i32 0, i64 0
  %46 = load i32, i32* %44, align 4
  %47 = load i32, i32* %45, align 4
  store i32 %47, i32* %44, align 4
  store i32 %46, i32* %45, align 4
  %48 = getelementptr inbounds %"class.in_memory_url_index::InMemoryURLIndexCacheItem_WordMapItem_WordMapEntry", %"class.in_memory_url_index::InMemoryURLIndexCacheItem_WordMapItem_WordMapEntry"* %0, i64 0, i32 3
  %49 = getelementptr inbounds %"class.in_memory_url_index::InMemoryURLIndexCacheItem_WordMapItem_WordMapEntry", %"class.in_memory_url_index::InMemoryURLIndexCacheItem_WordMapItem_WordMapEntry"* %1, i64 0, i32 3
  %50 = bitcast %"struct.google::protobuf::internal::ArenaStringPtr"* %48 to i64*
  %51 = load i64, i64* %50, align 8
  %52 = bitcast %"struct.google::protobuf::internal::ArenaStringPtr"* %49 to i64*
  %53 = load i64, i64* %52, align 8
  store i64 %53, i64* %50, align 8
  store i64 %51, i64* %52, align 8
  %54 = getelementptr inbounds %"class.in_memory_url_index::InMemoryURLIndexCacheItem_WordMapItem_WordMapEntry", %"class.in_memory_url_index::InMemoryURLIndexCacheItem_WordMapItem_WordMapEntry"* %0, i64 0, i32 4
  %55 = getelementptr inbounds %"class.in_memory_url_index::InMemoryURLIndexCacheItem_WordMapItem_WordMapEntry", %"class.in_memory_url_index::InMemoryURLIndexCacheItem_WordMapItem_WordMapEntry"* %1, i64 0, i32 4
  %56 = load i32, i32* %54, align 4
  %57 = load i32, i32* %55, align 4
  store i32 %57, i32* %54, align 4
  store i32 %56, i32* %55, align 4
  ret void
}

; Function Attrs: nounwind ssp uwtable
define hidden void @_ZNK19in_memory_url_index50InMemoryURLIndexCacheItem_WordMapItem_WordMapEntry11GetTypeNameEv(%"class.std::__1::basic_string"* noalias sret, %"class.in_memory_url_index::InMemoryURLIndexCacheItem_WordMapItem_WordMapEntry"* nocapture readnone) unnamed_addr #0 align 2 {
  %3 = tail call i8* @_Znwm(i64 80) #15
  %4 = getelementptr inbounds %"class.std::__1::basic_string", %"class.std::__1::basic_string"* %0, i64 0, i32 0, i32 0, i32 0, i32 0, i32 0, i32 0
  store i8* %3, i8** %4, align 8
  %5 = getelementptr inbounds %"class.std::__1::basic_string", %"class.std::__1::basic_string"* %0, i64 0, i32 0, i32 0, i32 0, i32 0, i32 0, i32 1
  %6 = bitcast i64* %5 to <2 x i64>*
  store <2 x i64> <i64 70, i64 -9223372036854775728>, <2 x i64>* %6, align 8
  tail call void @llvm.memcpy.p0i8.p0i8.i64(i8* nonnull align 1 %3, i8* align 1 getelementptr inbounds ([71 x i8], [71 x i8]* @.str.15, i64 0, i64 0), i64 70, i1 false) #14
  %7 = getelementptr inbounds i8, i8* %3, i64 70
  store i8 0, i8* %7, align 1
  ret void
}

; Function Attrs: nounwind ssp uwtable
define hidden void @_ZN19in_memory_url_index37InMemoryURLIndexCacheItem_WordMapItemC2EPN6google8protobuf5ArenaE(%"class.in_memory_url_index::InMemoryURLIndexCacheItem_WordMapItem"* nocapture, %"class.google::protobuf::Arena"*) unnamed_addr #0 align 2 {
  %3 = getelementptr inbounds %"class.in_memory_url_index::InMemoryURLIndexCacheItem_WordMapItem", %"class.in_memory_url_index::InMemoryURLIndexCacheItem_WordMapItem"* %0, i64 0, i32 0, i32 0
  %4 = getelementptr inbounds %"class.in_memory_url_index::InMemoryURLIndexCacheItem_WordMapItem", %"class.in_memory_url_index::InMemoryURLIndexCacheItem_WordMapItem"* %0, i64 0, i32 0, i32 1
  %5 = bitcast %"class.google::protobuf::internal::InternalMetadata"* %4 to %"class.google::protobuf::Arena"**
  store %"class.google::protobuf::Arena"* %1, %"class.google::protobuf::Arena"** %5, align 8
  store i32 (...)** bitcast (i8** getelementptr inbounds ({ [16 x i8*] }, { [16 x i8*] }* @_ZTVN19in_memory_url_index37InMemoryURLIndexCacheItem_WordMapItemE, i64 0, inrange i32 0, i64 2) to i32 (...)**), i32 (...)*** %3, align 8
  %6 = getelementptr inbounds %"class.in_memory_url_index::InMemoryURLIndexCacheItem_WordMapItem", %"class.in_memory_url_index::InMemoryURLIndexCacheItem_WordMapItem"* %0, i64 0, i32 1, i32 0, i64 0
  store i32 0, i32* %6, align 4
  %7 = getelementptr inbounds %"class.in_memory_url_index::InMemoryURLIndexCacheItem_WordMapItem", %"class.in_memory_url_index::InMemoryURLIndexCacheItem_WordMapItem"* %0, i64 0, i32 2, i32 0, i32 0, i32 0, i32 0, i32 0, i32 0
  store i32 0, i32* %7, align 4
  %8 = getelementptr inbounds %"class.in_memory_url_index::InMemoryURLIndexCacheItem_WordMapItem", %"class.in_memory_url_index::InMemoryURLIndexCacheItem_WordMapItem"* %0, i64 0, i32 3, i32 0, i32 0
  store %"class.google::protobuf::Arena"* %1, %"class.google::protobuf::Arena"** %8, align 8
  %9 = getelementptr inbounds %"class.in_memory_url_index::InMemoryURLIndexCacheItem_WordMapItem", %"class.in_memory_url_index::InMemoryURLIndexCacheItem_WordMapItem"* %0, i64 0, i32 3, i32 0, i32 1
  %10 = bitcast i32* %9 to i8*
  tail call void @llvm.memset.p0i8.i64(i8* align 8 %10, i8 0, i64 16, i1 false) #14
  %11 = load atomic i32, i32* getelementptr inbounds ({ { { { i32 } }, i32, i32, void ()* }, [1 x i8*] }, { { { { i32 } }, i32, i32, void ()* }, [1 x i8*] }* @scc_info_InMemoryURLIndexCacheItem_WordMapItem_in_5fmemory_5furl_5findex_5fcache_2eproto, i64 0, i32 0, i32 0, i32 0, i32 0) acquire, align 8
  %12 = icmp eq i32 %11, 0
  br i1 %12, label %14, label %13, !prof !2

13:                                               ; preds = %2
  tail call void @_ZN6google8protobuf8internal11InitSCCImplEPNS1_11SCCInfoBaseE(%"struct.google::protobuf::internal::SCCInfoBase"* bitcast ({ { { { i32 } }, i32, i32, void ()* }, [1 x i8*] }* @scc_info_InMemoryURLIndexCacheItem_WordMapItem_in_5fmemory_5furl_5findex_5fcache_2eproto to %"struct.google::protobuf::internal::SCCInfoBase"*)) #14
  br label %14

14:                                               ; preds = %2, %13
  %15 = getelementptr inbounds %"class.in_memory_url_index::InMemoryURLIndexCacheItem_WordMapItem", %"class.in_memory_url_index::InMemoryURLIndexCacheItem_WordMapItem"* %0, i64 0, i32 4
  store i32 0, i32* %15, align 8
  ret void
}

; Function Attrs: nounwind ssp uwtable
define hidden void @_ZN19in_memory_url_index37InMemoryURLIndexCacheItem_WordMapItemC2ERKS0_(%"class.in_memory_url_index::InMemoryURLIndexCacheItem_WordMapItem"*, %"class.in_memory_url_index::InMemoryURLIndexCacheItem_WordMapItem"* nocapture readonly dereferenceable(56)) unnamed_addr #0 align 2 {
  %3 = getelementptr inbounds %"class.in_memory_url_index::InMemoryURLIndexCacheItem_WordMapItem", %"class.in_memory_url_index::InMemoryURLIndexCacheItem_WordMapItem"* %0, i64 0, i32 0, i32 0
  %4 = getelementptr inbounds %"class.in_memory_url_index::InMemoryURLIndexCacheItem_WordMapItem", %"class.in_memory_url_index::InMemoryURLIndexCacheItem_WordMapItem"* %0, i64 0, i32 0, i32 1, i32 0
  store i8* null, i8** %4, align 8
  store i32 (...)** bitcast (i8** getelementptr inbounds ({ [16 x i8*] }, { [16 x i8*] }* @_ZTVN19in_memory_url_index37InMemoryURLIndexCacheItem_WordMapItemE, i64 0, inrange i32 0, i64 2) to i32 (...)**), i32 (...)*** %3, align 8
  %5 = getelementptr inbounds %"class.in_memory_url_index::InMemoryURLIndexCacheItem_WordMapItem", %"class.in_memory_url_index::InMemoryURLIndexCacheItem_WordMapItem"* %1, i64 0, i32 1, i32 0, i64 0
  %6 = getelementptr inbounds %"class.in_memory_url_index::InMemoryURLIndexCacheItem_WordMapItem", %"class.in_memory_url_index::InMemoryURLIndexCacheItem_WordMapItem"* %0, i64 0, i32 1, i32 0, i64 0
  %7 = load i32, i32* %5, align 8
  store i32 %7, i32* %6, align 8
  %8 = getelementptr inbounds %"class.in_memory_url_index::InMemoryURLIndexCacheItem_WordMapItem", %"class.in_memory_url_index::InMemoryURLIndexCacheItem_WordMapItem"* %0, i64 0, i32 2, i32 0, i32 0, i32 0, i32 0, i32 0, i32 0
  %9 = getelementptr inbounds %"class.in_memory_url_index::InMemoryURLIndexCacheItem_WordMapItem", %"class.in_memory_url_index::InMemoryURLIndexCacheItem_WordMapItem"* %0, i64 0, i32 3
  %10 = getelementptr inbounds %"class.in_memory_url_index::InMemoryURLIndexCacheItem_WordMapItem", %"class.in_memory_url_index::InMemoryURLIndexCacheItem_WordMapItem"* %1, i64 0, i32 3, i32 0, i32 1
  %11 = bitcast i32* %8 to i8*
  call void @llvm.memset.p0i8.i64(i8* align 4 %11, i8 0, i64 28, i1 false)
  %12 = load i32, i32* %10, align 8
  %13 = icmp eq i32 %12, 0
  br i1 %13, label %69, label %14

14:                                               ; preds = %2
  %15 = getelementptr inbounds %"class.google::protobuf::RepeatedPtrField.25", %"class.google::protobuf::RepeatedPtrField.25"* %9, i64 0, i32 0
  %16 = getelementptr inbounds %"class.in_memory_url_index::InMemoryURLIndexCacheItem_WordMapItem", %"class.in_memory_url_index::InMemoryURLIndexCacheItem_WordMapItem"* %1, i64 0, i32 3, i32 0, i32 3
  %17 = load %"struct.google::protobuf::internal::RepeatedPtrFieldBase::Rep"*, %"struct.google::protobuf::internal::RepeatedPtrFieldBase::Rep"** %16, align 8
  %18 = tail call i8** @_ZN6google8protobuf8internal20RepeatedPtrFieldBase14InternalExtendEi(%"class.google::protobuf::internal::RepeatedPtrFieldBase"* %15, i32 %12) #14
  %19 = getelementptr inbounds %"class.in_memory_url_index::InMemoryURLIndexCacheItem_WordMapItem", %"class.in_memory_url_index::InMemoryURLIndexCacheItem_WordMapItem"* %0, i64 0, i32 3, i32 0, i32 3
  %20 = load %"struct.google::protobuf::internal::RepeatedPtrFieldBase::Rep"*, %"struct.google::protobuf::internal::RepeatedPtrFieldBase::Rep"** %19, align 8
  %21 = getelementptr inbounds %"struct.google::protobuf::internal::RepeatedPtrFieldBase::Rep", %"struct.google::protobuf::internal::RepeatedPtrFieldBase::Rep"* %20, i64 0, i32 0
  %22 = load i32, i32* %21, align 8
  %23 = getelementptr inbounds %"class.in_memory_url_index::InMemoryURLIndexCacheItem_WordMapItem", %"class.in_memory_url_index::InMemoryURLIndexCacheItem_WordMapItem"* %0, i64 0, i32 3, i32 0, i32 1
  %24 = load i32, i32* %23, align 8
  %25 = sub i32 %22, %24
  %26 = icmp sgt i32 %25, 0
  %27 = icmp sgt i32 %12, 0
  %28 = and i1 %27, %26
  br i1 %28, label %29, label %32

29:                                               ; preds = %14
  %30 = sext i32 %12 to i64
  %31 = sext i32 %25 to i64
  br label %38

32:                                               ; preds = %38, %14
  %33 = getelementptr inbounds %"class.google::protobuf::RepeatedPtrField.25", %"class.google::protobuf::RepeatedPtrField.25"* %9, i64 0, i32 0, i32 0
  %34 = load %"class.google::protobuf::Arena"*, %"class.google::protobuf::Arena"** %33, align 8
  %35 = icmp slt i32 %25, %12
  br i1 %35, label %36, label %61

36:                                               ; preds = %32
  %37 = sext i32 %25 to i64
  br label %50

38:                                               ; preds = %38, %29
  %39 = phi i64 [ 0, %29 ], [ %46, %38 ]
  %40 = getelementptr inbounds %"struct.google::protobuf::internal::RepeatedPtrFieldBase::Rep", %"struct.google::protobuf::internal::RepeatedPtrFieldBase::Rep"* %17, i64 0, i32 1, i64 %39
  %41 = bitcast i8** %40 to %"class.in_memory_url_index::InMemoryURLIndexCacheItem_WordMapItem_WordMapEntry"**
  %42 = load %"class.in_memory_url_index::InMemoryURLIndexCacheItem_WordMapItem_WordMapEntry"*, %"class.in_memory_url_index::InMemoryURLIndexCacheItem_WordMapItem_WordMapEntry"** %41, align 8
  %43 = getelementptr inbounds i8*, i8** %18, i64 %39
  %44 = bitcast i8** %43 to %"class.in_memory_url_index::InMemoryURLIndexCacheItem_WordMapItem_WordMapEntry"**
  %45 = load %"class.in_memory_url_index::InMemoryURLIndexCacheItem_WordMapItem_WordMapEntry"*, %"class.in_memory_url_index::InMemoryURLIndexCacheItem_WordMapItem_WordMapEntry"** %44, align 8
  tail call void @_ZN6google8protobuf8internal18GenericTypeHandlerIN19in_memory_url_index50InMemoryURLIndexCacheItem_WordMapItem_WordMapEntryEE5MergeERKS4_PS4_(%"class.in_memory_url_index::InMemoryURLIndexCacheItem_WordMapItem_WordMapEntry"* dereferenceable(40) %42, %"class.in_memory_url_index::InMemoryURLIndexCacheItem_WordMapItem_WordMapEntry"* %45) #14
  %46 = add nuw nsw i64 %39, 1
  %47 = icmp slt i64 %46, %31
  %48 = icmp slt i64 %46, %30
  %49 = and i1 %47, %48
  br i1 %49, label %38, label %32

50:                                               ; preds = %50, %36
  %51 = phi i64 [ %37, %36 ], [ %58, %50 ]
  %52 = getelementptr inbounds %"struct.google::protobuf::internal::RepeatedPtrFieldBase::Rep", %"struct.google::protobuf::internal::RepeatedPtrFieldBase::Rep"* %17, i64 0, i32 1, i64 %51
  %53 = bitcast i8** %52 to %"class.in_memory_url_index::InMemoryURLIndexCacheItem_WordMapItem_WordMapEntry"**
  %54 = load %"class.in_memory_url_index::InMemoryURLIndexCacheItem_WordMapItem_WordMapEntry"*, %"class.in_memory_url_index::InMemoryURLIndexCacheItem_WordMapItem_WordMapEntry"** %53, align 8
  %55 = tail call %"class.in_memory_url_index::InMemoryURLIndexCacheItem_WordMapItem_WordMapEntry"* @_ZN6google8protobuf5Arena18CreateMaybeMessageIN19in_memory_url_index50InMemoryURLIndexCacheItem_WordMapItem_WordMapEntryEJEEEPT_PS1_DpOT0_(%"class.google::protobuf::Arena"* %34) #14
  tail call void @_ZN6google8protobuf8internal18GenericTypeHandlerIN19in_memory_url_index50InMemoryURLIndexCacheItem_WordMapItem_WordMapEntryEE5MergeERKS4_PS4_(%"class.in_memory_url_index::InMemoryURLIndexCacheItem_WordMapItem_WordMapEntry"* dereferenceable(40) %54, %"class.in_memory_url_index::InMemoryURLIndexCacheItem_WordMapItem_WordMapEntry"* %55) #14
  %56 = getelementptr inbounds i8*, i8** %18, i64 %51
  %57 = bitcast i8** %56 to %"class.in_memory_url_index::InMemoryURLIndexCacheItem_WordMapItem_WordMapEntry"**
  store %"class.in_memory_url_index::InMemoryURLIndexCacheItem_WordMapItem_WordMapEntry"* %55, %"class.in_memory_url_index::InMemoryURLIndexCacheItem_WordMapItem_WordMapEntry"** %57, align 8
  %58 = add nsw i64 %51, 1
  %59 = trunc i64 %58 to i32
  %60 = icmp eq i32 %12, %59
  br i1 %60, label %61, label %50

61:                                               ; preds = %50, %32
  %62 = load i32, i32* %23, align 8
  %63 = add nsw i32 %62, %12
  store i32 %63, i32* %23, align 8
  %64 = load %"struct.google::protobuf::internal::RepeatedPtrFieldBase::Rep"*, %"struct.google::protobuf::internal::RepeatedPtrFieldBase::Rep"** %19, align 8
  %65 = getelementptr inbounds %"struct.google::protobuf::internal::RepeatedPtrFieldBase::Rep", %"struct.google::protobuf::internal::RepeatedPtrFieldBase::Rep"* %64, i64 0, i32 0
  %66 = load i32, i32* %65, align 8
  %67 = icmp slt i32 %66, %63
  br i1 %67, label %68, label %69

68:                                               ; preds = %61
  store i32 %63, i32* %65, align 8
  br label %69

69:                                               ; preds = %2, %61, %68
  %70 = getelementptr inbounds %"class.in_memory_url_index::InMemoryURLIndexCacheItem_WordMapItem", %"class.in_memory_url_index::InMemoryURLIndexCacheItem_WordMapItem"* %0, i64 0, i32 0, i32 1
  %71 = getelementptr inbounds %"class.in_memory_url_index::InMemoryURLIndexCacheItem_WordMapItem", %"class.in_memory_url_index::InMemoryURLIndexCacheItem_WordMapItem"* %1, i64 0, i32 0, i32 1
  %72 = bitcast %"class.google::protobuf::internal::InternalMetadata"* %71 to i64*
  %73 = load i64, i64* %72, align 8
  %74 = and i64 %73, 1
  %75 = icmp eq i64 %74, 0
  br i1 %75, label %105, label %76

76:                                               ; preds = %69
  %77 = and i64 %73, -2
  %78 = inttoptr i64 %77 to %"struct.google::protobuf::internal::InternalMetadata::Container"*
  %79 = getelementptr inbounds %"struct.google::protobuf::internal::InternalMetadata::Container", %"struct.google::protobuf::internal::InternalMetadata::Container"* %78, i64 0, i32 1
  %80 = bitcast %"class.google::protobuf::internal::InternalMetadata"* %70 to i64*
  %81 = load i64, i64* %80, align 8
  %82 = and i64 %81, 1
  %83 = icmp eq i64 %82, 0
  br i1 %83, label %88, label %84, !prof !3

84:                                               ; preds = %76
  %85 = and i64 %81, -2
  %86 = inttoptr i64 %85 to %"struct.google::protobuf::internal::InternalMetadata::Container"*
  %87 = getelementptr inbounds %"struct.google::protobuf::internal::InternalMetadata::Container", %"struct.google::protobuf::internal::InternalMetadata::Container"* %86, i64 0, i32 1
  br label %90

88:                                               ; preds = %76
  %89 = tail call %"class.std::__1::basic_string"* @_ZN6google8protobuf8internal16InternalMetadata27mutable_unknown_fields_slowINSt3__112basic_stringIcNS4_11char_traitsIcEENS4_9allocatorIcEEEEEEPT_v(%"class.google::protobuf::internal::InternalMetadata"* %70) #14
  br label %90

90:                                               ; preds = %88, %84
  %91 = phi %"class.std::__1::basic_string"* [ %87, %84 ], [ %89, %88 ]
  %92 = bitcast %"class.std::__1::basic_string"* %79 to %"struct.std::__1::basic_string<char, std::__1::char_traits<char>, std::__1::allocator<char> >::__short"*
  %93 = getelementptr inbounds %"struct.std::__1::basic_string<char, std::__1::char_traits<char>, std::__1::allocator<char> >::__short", %"struct.std::__1::basic_string<char, std::__1::char_traits<char>, std::__1::allocator<char> >::__short"* %92, i64 0, i32 1, i32 0
  %94 = load i8, i8* %93, align 1
  %95 = icmp slt i8 %94, 0
  %96 = getelementptr inbounds %"class.std::__1::basic_string", %"class.std::__1::basic_string"* %79, i64 0, i32 0, i32 0, i32 0, i32 0, i32 0, i32 0
  %97 = load i8*, i8** %96, align 8
  %98 = getelementptr inbounds %"struct.google::protobuf::internal::InternalMetadata::Container", %"struct.google::protobuf::internal::InternalMetadata::Container"* %78, i64 0, i32 1, i32 0, i32 0, i32 0, i32 0, i32 0, i32 1
  %99 = load i64, i64* %98, align 8
  %100 = bitcast %"class.std::__1::basic_string"* %79 to i8*
  %101 = zext i8 %94 to i64
  %102 = select i1 %95, i8* %97, i8* %100
  %103 = select i1 %95, i64 %99, i64 %101
  %104 = tail call dereferenceable(24) %"class.std::__1::basic_string"* @_ZNSt3__112basic_stringIcNS_11char_traitsIcEENS_9allocatorIcEEE6appendEPKcm(%"class.std::__1::basic_string"* %91, i8* %102, i64 %103) #14
  br label %105

105:                                              ; preds = %69, %90
  %106 = getelementptr inbounds %"class.in_memory_url_index::InMemoryURLIndexCacheItem_WordMapItem", %"class.in_memory_url_index::InMemoryURLIndexCacheItem_WordMapItem"* %1, i64 0, i32 4
  %107 = load i32, i32* %106, align 8
  %108 = getelementptr inbounds %"class.in_memory_url_index::InMemoryURLIndexCacheItem_WordMapItem", %"class.in_memory_url_index::InMemoryURLIndexCacheItem_WordMapItem"* %0, i64 0, i32 4
  store i32 %107, i32* %108, align 8
  ret void
}

; Function Attrs: nounwind ssp uwtable
define hidden void @_ZN19in_memory_url_index37InMemoryURLIndexCacheItem_WordMapItemD2Ev(%"class.in_memory_url_index::InMemoryURLIndexCacheItem_WordMapItem"* nocapture) unnamed_addr #0 align 2 {
  %2 = getelementptr inbounds %"class.in_memory_url_index::InMemoryURLIndexCacheItem_WordMapItem", %"class.in_memory_url_index::InMemoryURLIndexCacheItem_WordMapItem"* %0, i64 0, i32 0, i32 0
  store i32 (...)** bitcast (i8** getelementptr inbounds ({ [16 x i8*] }, { [16 x i8*] }* @_ZTVN19in_memory_url_index37InMemoryURLIndexCacheItem_WordMapItemE, i64 0, inrange i32 0, i64 2) to i32 (...)**), i32 (...)*** %2, align 8
  %3 = getelementptr inbounds %"class.in_memory_url_index::InMemoryURLIndexCacheItem_WordMapItem", %"class.in_memory_url_index::InMemoryURLIndexCacheItem_WordMapItem"* %0, i64 0, i32 0, i32 1
  %4 = bitcast %"class.google::protobuf::internal::InternalMetadata"* %3 to i64*
  %5 = load i64, i64* %4, align 8
  %6 = and i64 %5, 1
  %7 = icmp eq i64 %6, 0
  br i1 %7, label %28, label %8

8:                                                ; preds = %1
  %9 = and i64 %5, -2
  %10 = inttoptr i64 %9 to %"struct.google::protobuf::internal::InternalMetadata::ContainerBase"*
  %11 = getelementptr inbounds %"struct.google::protobuf::internal::InternalMetadata::ContainerBase", %"struct.google::protobuf::internal::InternalMetadata::ContainerBase"* %10, i64 0, i32 0
  %12 = load %"class.google::protobuf::Arena"*, %"class.google::protobuf::Arena"** %11, align 8
  %13 = icmp ne %"class.google::protobuf::Arena"* %12, null
  %14 = icmp eq i64 %9, 0
  %15 = or i1 %14, %13
  br i1 %15, label %28, label %16

16:                                               ; preds = %8
  %17 = inttoptr i64 %9 to %"struct.google::protobuf::internal::InternalMetadata::Container"*
  %18 = getelementptr inbounds %"struct.google::protobuf::internal::InternalMetadata::Container", %"struct.google::protobuf::internal::InternalMetadata::Container"* %17, i64 0, i32 1
  %19 = bitcast %"class.std::__1::basic_string"* %18 to %"struct.std::__1::basic_string<char, std::__1::char_traits<char>, std::__1::allocator<char> >::__short"*
  %20 = getelementptr inbounds %"struct.std::__1::basic_string<char, std::__1::char_traits<char>, std::__1::allocator<char> >::__short", %"struct.std::__1::basic_string<char, std::__1::char_traits<char>, std::__1::allocator<char> >::__short"* %19, i64 0, i32 1, i32 0
  %21 = load i8, i8* %20, align 1
  %22 = icmp slt i8 %21, 0
  br i1 %22, label %23, label %26

23:                                               ; preds = %16
  %24 = getelementptr inbounds %"class.std::__1::basic_string", %"class.std::__1::basic_string"* %18, i64 0, i32 0, i32 0, i32 0, i32 0, i32 0, i32 0
  %25 = load i8*, i8** %24, align 8
  tail call void @_ZdlPv(i8* %25) #15
  br label %26

26:                                               ; preds = %23, %16
  %27 = inttoptr i64 %9 to i8*
  tail call void @_ZdlPv(i8* %27) #15
  br label %28

28:                                               ; preds = %1, %8, %26
  %29 = getelementptr inbounds %"class.in_memory_url_index::InMemoryURLIndexCacheItem_WordMapItem", %"class.in_memory_url_index::InMemoryURLIndexCacheItem_WordMapItem"* %0, i64 0, i32 3, i32 0, i32 3
  %30 = load %"struct.google::protobuf::internal::RepeatedPtrFieldBase::Rep"*, %"struct.google::protobuf::internal::RepeatedPtrFieldBase::Rep"** %29, align 8
  %31 = icmp eq %"struct.google::protobuf::internal::RepeatedPtrFieldBase::Rep"* %30, null
  %32 = bitcast %"struct.google::protobuf::internal::RepeatedPtrFieldBase::Rep"* %30 to i8*
  br i1 %31, label %62, label %33

33:                                               ; preds = %28
  %34 = getelementptr inbounds %"class.in_memory_url_index::InMemoryURLIndexCacheItem_WordMapItem", %"class.in_memory_url_index::InMemoryURLIndexCacheItem_WordMapItem"* %0, i64 0, i32 3, i32 0, i32 0
  %35 = load %"class.google::protobuf::Arena"*, %"class.google::protobuf::Arena"** %34, align 8
  %36 = icmp eq %"class.google::protobuf::Arena"* %35, null
  br i1 %36, label %37, label %62

37:                                               ; preds = %33
  %38 = getelementptr inbounds %"struct.google::protobuf::internal::RepeatedPtrFieldBase::Rep", %"struct.google::protobuf::internal::RepeatedPtrFieldBase::Rep"* %30, i64 0, i32 0
  %39 = load i32, i32* %38, align 8
  %40 = icmp sgt i32 %39, 0
  br i1 %40, label %41, label %46

41:                                               ; preds = %37
  %42 = zext i32 %39 to i64
  br label %48

43:                                               ; preds = %59
  %44 = bitcast %"struct.google::protobuf::internal::RepeatedPtrFieldBase::Rep"** %29 to i8**
  %45 = load i8*, i8** %44, align 8
  br label %46

46:                                               ; preds = %43, %37
  %47 = phi i8* [ %45, %43 ], [ %32, %37 ]
  tail call void @_ZdlPv(i8* %47) #14
  br label %62

48:                                               ; preds = %59, %41
  %49 = phi i64 [ 0, %41 ], [ %60, %59 ]
  %50 = getelementptr inbounds %"struct.google::protobuf::internal::RepeatedPtrFieldBase::Rep", %"struct.google::protobuf::internal::RepeatedPtrFieldBase::Rep"* %30, i64 0, i32 1, i64 %49
  %51 = bitcast i8** %50 to %"class.in_memory_url_index::InMemoryURLIndexCacheItem_WordMapItem_WordMapEntry"**
  %52 = load %"class.in_memory_url_index::InMemoryURLIndexCacheItem_WordMapItem_WordMapEntry"*, %"class.in_memory_url_index::InMemoryURLIndexCacheItem_WordMapItem_WordMapEntry"** %51, align 8
  %53 = icmp eq %"class.in_memory_url_index::InMemoryURLIndexCacheItem_WordMapItem_WordMapEntry"* %52, null
  br i1 %53, label %59, label %54

54:                                               ; preds = %48
  %55 = bitcast %"class.in_memory_url_index::InMemoryURLIndexCacheItem_WordMapItem_WordMapEntry"* %52 to void (%"class.in_memory_url_index::InMemoryURLIndexCacheItem_WordMapItem_WordMapEntry"*)***
  %56 = load void (%"class.in_memory_url_index::InMemoryURLIndexCacheItem_WordMapItem_WordMapEntry"*)**, void (%"class.in_memory_url_index::InMemoryURLIndexCacheItem_WordMapItem_WordMapEntry"*)*** %55, align 8
  %57 = getelementptr inbounds void (%"class.in_memory_url_index::InMemoryURLIndexCacheItem_WordMapItem_WordMapEntry"*)*, void (%"class.in_memory_url_index::InMemoryURLIndexCacheItem_WordMapItem_WordMapEntry"*)** %56, i64 1
  %58 = load void (%"class.in_memory_url_index::InMemoryURLIndexCacheItem_WordMapItem_WordMapEntry"*)*, void (%"class.in_memory_url_index::InMemoryURLIndexCacheItem_WordMapItem_WordMapEntry"*)** %57, align 8
  tail call void %58(%"class.in_memory_url_index::InMemoryURLIndexCacheItem_WordMapItem_WordMapEntry"* nonnull %52) #14
  br label %59

59:                                               ; preds = %54, %48
  %60 = add nuw nsw i64 %49, 1
  %61 = icmp eq i64 %60, %42
  br i1 %61, label %43, label %48

62:                                               ; preds = %28, %33, %46
  store %"struct.google::protobuf::internal::RepeatedPtrFieldBase::Rep"* null, %"struct.google::protobuf::internal::RepeatedPtrFieldBase::Rep"** %29, align 8
  ret void
}

; Function Attrs: nounwind ssp uwtable
define hidden void @_ZN19in_memory_url_index37InMemoryURLIndexCacheItem_WordMapItemD0Ev(%"class.in_memory_url_index::InMemoryURLIndexCacheItem_WordMapItem"*) unnamed_addr #0 align 2 {
  tail call void @_ZN19in_memory_url_index37InMemoryURLIndexCacheItem_WordMapItemD2Ev(%"class.in_memory_url_index::InMemoryURLIndexCacheItem_WordMapItem"* %0) #14
  %2 = bitcast %"class.in_memory_url_index::InMemoryURLIndexCacheItem_WordMapItem"* %0 to i8*
  tail call void @_ZdlPv(i8* %2) #15
  ret void
}

; Function Attrs: norecurse nounwind readnone ssp uwtable
define hidden void @_ZN19in_memory_url_index37InMemoryURLIndexCacheItem_WordMapItem9ArenaDtorEPv(i8* nocapture) local_unnamed_addr #4 align 2 {
  ret void
}

; Function Attrs: nofree norecurse nounwind ssp uwtable
define hidden void @_ZNK19in_memory_url_index37InMemoryURLIndexCacheItem_WordMapItem13SetCachedSizeEi(%"class.in_memory_url_index::InMemoryURLIndexCacheItem_WordMapItem"* nocapture, i32) local_unnamed_addr #5 align 2 {
  %3 = getelementptr inbounds %"class.in_memory_url_index::InMemoryURLIndexCacheItem_WordMapItem", %"class.in_memory_url_index::InMemoryURLIndexCacheItem_WordMapItem"* %0, i64 0, i32 2, i32 0, i32 0, i32 0, i32 0, i32 0, i32 0
  store atomic i32 %1, i32* %3 monotonic, align 4
  ret void
}

; Function Attrs: nounwind ssp uwtable
define hidden dereferenceable(56) %"class.in_memory_url_index::InMemoryURLIndexCacheItem_WordMapItem"* @_ZN19in_memory_url_index37InMemoryURLIndexCacheItem_WordMapItem16default_instanceEv() local_unnamed_addr #0 align 2 {
  %1 = load atomic i32, i32* getelementptr inbounds ({ { { { i32 } }, i32, i32, void ()* }, [1 x i8*] }, { { { { i32 } }, i32, i32, void ()* }, [1 x i8*] }* @scc_info_InMemoryURLIndexCacheItem_WordMapItem_in_5fmemory_5furl_5findex_5fcache_2eproto, i64 0, i32 0, i32 0, i32 0, i32 0) acquire, align 8
  %2 = icmp eq i32 %1, 0
  br i1 %2, label %4, label %3, !prof !2

3:                                                ; preds = %0
  tail call void @_ZN6google8protobuf8internal11InitSCCImplEPNS1_11SCCInfoBaseE(%"struct.google::protobuf::internal::SCCInfoBase"* bitcast ({ { { { i32 } }, i32, i32, void ()* }, [1 x i8*] }* @scc_info_InMemoryURLIndexCacheItem_WordMapItem_in_5fmemory_5furl_5findex_5fcache_2eproto to %"struct.google::protobuf::internal::SCCInfoBase"*)) #14
  br label %4

4:                                                ; preds = %0, %3
  ret %"class.in_memory_url_index::InMemoryURLIndexCacheItem_WordMapItem"* bitcast (%"class.in_memory_url_index::InMemoryURLIndexCacheItem_WordMapItemDefaultTypeInternal"* @_ZN19in_memory_url_index56_InMemoryURLIndexCacheItem_WordMapItem_default_instance_E to %"class.in_memory_url_index::InMemoryURLIndexCacheItem_WordMapItem"*)
}

; Function Attrs: nofree norecurse nounwind ssp uwtable
define hidden void @_ZN19in_memory_url_index37InMemoryURLIndexCacheItem_WordMapItem5ClearEv(%"class.in_memory_url_index::InMemoryURLIndexCacheItem_WordMapItem"* nocapture) unnamed_addr #5 align 2 {
  %2 = getelementptr inbounds %"class.in_memory_url_index::InMemoryURLIndexCacheItem_WordMapItem", %"class.in_memory_url_index::InMemoryURLIndexCacheItem_WordMapItem"* %0, i64 0, i32 3, i32 0, i32 1
  %3 = load i32, i32* %2, align 8
  %4 = icmp sgt i32 %3, 0
  br i1 %4, label %5, label %56

5:                                                ; preds = %1
  %6 = getelementptr inbounds %"class.in_memory_url_index::InMemoryURLIndexCacheItem_WordMapItem", %"class.in_memory_url_index::InMemoryURLIndexCacheItem_WordMapItem"* %0, i64 0, i32 3, i32 0, i32 3
  %7 = load %"struct.google::protobuf::internal::RepeatedPtrFieldBase::Rep"*, %"struct.google::protobuf::internal::RepeatedPtrFieldBase::Rep"** %6, align 8
  %8 = zext i32 %3 to i64
  br label %9

9:                                                ; preds = %53, %5
  %10 = phi i64 [ %11, %53 ], [ 0, %5 ]
  %11 = add nuw nsw i64 %10, 1
  %12 = getelementptr inbounds %"struct.google::protobuf::internal::RepeatedPtrFieldBase::Rep", %"struct.google::protobuf::internal::RepeatedPtrFieldBase::Rep"* %7, i64 0, i32 1, i64 %10
  %13 = bitcast i8** %12 to %"class.in_memory_url_index::InMemoryURLIndexCacheItem_WordMapItem_WordMapEntry"**
  %14 = load %"class.in_memory_url_index::InMemoryURLIndexCacheItem_WordMapItem_WordMapEntry"*, %"class.in_memory_url_index::InMemoryURLIndexCacheItem_WordMapItem_WordMapEntry"** %13, align 8
  %15 = getelementptr inbounds %"class.in_memory_url_index::InMemoryURLIndexCacheItem_WordMapItem_WordMapEntry", %"class.in_memory_url_index::InMemoryURLIndexCacheItem_WordMapItem_WordMapEntry"* %14, i64 0, i32 1, i32 0, i64 0
  %16 = load i32, i32* %15, align 4
  %17 = and i32 %16, 1
  %18 = icmp eq i32 %17, 0
  br i1 %18, label %32, label %19

19:                                               ; preds = %9
  %20 = getelementptr inbounds %"class.in_memory_url_index::InMemoryURLIndexCacheItem_WordMapItem_WordMapEntry", %"class.in_memory_url_index::InMemoryURLIndexCacheItem_WordMapItem_WordMapEntry"* %14, i64 0, i32 3, i32 0
  %21 = load %"class.std::__1::basic_string"*, %"class.std::__1::basic_string"** %20, align 8
  %22 = bitcast %"class.std::__1::basic_string"* %21 to %"struct.std::__1::basic_string<char, std::__1::char_traits<char>, std::__1::allocator<char> >::__short"*
  %23 = getelementptr inbounds %"struct.std::__1::basic_string<char, std::__1::char_traits<char>, std::__1::allocator<char> >::__short", %"struct.std::__1::basic_string<char, std::__1::char_traits<char>, std::__1::allocator<char> >::__short"* %22, i64 0, i32 1, i32 0
  %24 = load i8, i8* %23, align 1
  %25 = icmp slt i8 %24, 0
  br i1 %25, label %26, label %30

26:                                               ; preds = %19
  %27 = getelementptr inbounds %"class.std::__1::basic_string", %"class.std::__1::basic_string"* %21, i64 0, i32 0, i32 0, i32 0, i32 0, i32 0, i32 0
  %28 = load i8*, i8** %27, align 8
  store i8 0, i8* %28, align 1
  %29 = getelementptr inbounds %"class.std::__1::basic_string", %"class.std::__1::basic_string"* %21, i64 0, i32 0, i32 0, i32 0, i32 0, i32 0, i32 1
  store i64 0, i64* %29, align 8
  br label %32

30:                                               ; preds = %19
  %31 = bitcast %"class.std::__1::basic_string"* %21 to i8*
  store i8 0, i8* %31, align 1
  store i8 0, i8* %23, align 1
  br label %32

32:                                               ; preds = %30, %26, %9
  %33 = getelementptr inbounds %"class.in_memory_url_index::InMemoryURLIndexCacheItem_WordMapItem_WordMapEntry", %"class.in_memory_url_index::InMemoryURLIndexCacheItem_WordMapItem_WordMapEntry"* %14, i64 0, i32 4
  store i32 0, i32* %33, align 8
  store i32 0, i32* %15, align 4
  %34 = getelementptr inbounds %"class.in_memory_url_index::InMemoryURLIndexCacheItem_WordMapItem_WordMapEntry", %"class.in_memory_url_index::InMemoryURLIndexCacheItem_WordMapItem_WordMapEntry"* %14, i64 0, i32 0, i32 1
  %35 = bitcast %"class.google::protobuf::internal::InternalMetadata"* %34 to i64*
  %36 = load i64, i64* %35, align 8
  %37 = and i64 %36, 1
  %38 = icmp eq i64 %37, 0
  br i1 %38, label %53, label %39

39:                                               ; preds = %32
  %40 = and i64 %36, -2
  %41 = inttoptr i64 %40 to %"struct.google::protobuf::internal::InternalMetadata::Container"*
  %42 = getelementptr inbounds %"struct.google::protobuf::internal::InternalMetadata::Container", %"struct.google::protobuf::internal::InternalMetadata::Container"* %41, i64 0, i32 1
  %43 = bitcast %"class.std::__1::basic_string"* %42 to %"struct.std::__1::basic_string<char, std::__1::char_traits<char>, std::__1::allocator<char> >::__short"*
  %44 = getelementptr inbounds %"struct.std::__1::basic_string<char, std::__1::char_traits<char>, std::__1::allocator<char> >::__short", %"struct.std::__1::basic_string<char, std::__1::char_traits<char>, std::__1::allocator<char> >::__short"* %43, i64 0, i32 1, i32 0
  %45 = load i8, i8* %44, align 1
  %46 = icmp slt i8 %45, 0
  br i1 %46, label %47, label %51

47:                                               ; preds = %39
  %48 = getelementptr inbounds %"class.std::__1::basic_string", %"class.std::__1::basic_string"* %42, i64 0, i32 0, i32 0, i32 0, i32 0, i32 0, i32 0
  %49 = load i8*, i8** %48, align 8
  store i8 0, i8* %49, align 1
  %50 = getelementptr inbounds %"struct.google::protobuf::internal::InternalMetadata::Container", %"struct.google::protobuf::internal::InternalMetadata::Container"* %41, i64 0, i32 1, i32 0, i32 0, i32 0, i32 0, i32 0, i32 1
  store i64 0, i64* %50, align 8
  br label %53

51:                                               ; preds = %39
  %52 = bitcast %"class.std::__1::basic_string"* %42 to i8*
  store i8 0, i8* %52, align 2
  store i8 0, i8* %44, align 1
  br label %53

53:                                               ; preds = %51, %47, %32
  %54 = icmp eq i64 %11, %8
  br i1 %54, label %55, label %9

55:                                               ; preds = %53
  store i32 0, i32* %2, align 8
  br label %56

56:                                               ; preds = %1, %55
  %57 = getelementptr inbounds %"class.in_memory_url_index::InMemoryURLIndexCacheItem_WordMapItem", %"class.in_memory_url_index::InMemoryURLIndexCacheItem_WordMapItem"* %0, i64 0, i32 4
  store i32 0, i32* %57, align 8
  %58 = getelementptr inbounds %"class.in_memory_url_index::InMemoryURLIndexCacheItem_WordMapItem", %"class.in_memory_url_index::InMemoryURLIndexCacheItem_WordMapItem"* %0, i64 0, i32 1, i32 0, i64 0
  store i32 0, i32* %58, align 4
  %59 = getelementptr inbounds %"class.in_memory_url_index::InMemoryURLIndexCacheItem_WordMapItem", %"class.in_memory_url_index::InMemoryURLIndexCacheItem_WordMapItem"* %0, i64 0, i32 0, i32 1
  %60 = bitcast %"class.google::protobuf::internal::InternalMetadata"* %59 to i64*
  %61 = load i64, i64* %60, align 8
  %62 = and i64 %61, 1
  %63 = icmp eq i64 %62, 0
  br i1 %63, label %78, label %64

64:                                               ; preds = %56
  %65 = and i64 %61, -2
  %66 = inttoptr i64 %65 to %"struct.google::protobuf::internal::InternalMetadata::Container"*
  %67 = getelementptr inbounds %"struct.google::protobuf::internal::InternalMetadata::Container", %"struct.google::protobuf::internal::InternalMetadata::Container"* %66, i64 0, i32 1
  %68 = bitcast %"class.std::__1::basic_string"* %67 to %"struct.std::__1::basic_string<char, std::__1::char_traits<char>, std::__1::allocator<char> >::__short"*
  %69 = getelementptr inbounds %"struct.std::__1::basic_string<char, std::__1::char_traits<char>, std::__1::allocator<char> >::__short", %"struct.std::__1::basic_string<char, std::__1::char_traits<char>, std::__1::allocator<char> >::__short"* %68, i64 0, i32 1, i32 0
  %70 = load i8, i8* %69, align 1
  %71 = icmp slt i8 %70, 0
  br i1 %71, label %72, label %76

72:                                               ; preds = %64
  %73 = getelementptr inbounds %"class.std::__1::basic_string", %"class.std::__1::basic_string"* %67, i64 0, i32 0, i32 0, i32 0, i32 0, i32 0, i32 0
  %74 = load i8*, i8** %73, align 8
  store i8 0, i8* %74, align 1
  %75 = getelementptr inbounds %"struct.google::protobuf::internal::InternalMetadata::Container", %"struct.google::protobuf::internal::InternalMetadata::Container"* %66, i64 0, i32 1, i32 0, i32 0, i32 0, i32 0, i32 0, i32 1
  store i64 0, i64* %75, align 8
  br label %78

76:                                               ; preds = %64
  %77 = bitcast %"class.std::__1::basic_string"* %67 to i8*
  store i8 0, i8* %77, align 2
  store i8 0, i8* %69, align 1
  br label %78

78:                                               ; preds = %56, %72, %76
  ret void
}

; Function Attrs: nounwind ssp uwtable
define hidden i8* @_ZN19in_memory_url_index37InMemoryURLIndexCacheItem_WordMapItem14_InternalParseEPKcPN6google8protobuf8internal12ParseContextE(%"class.in_memory_url_index::InMemoryURLIndexCacheItem_WordMapItem"*, i8*, %"class.google::protobuf::internal::ParseContext"*) unnamed_addr #0 align 2 {
  %4 = getelementptr inbounds %"class.google::protobuf::internal::ParseContext", %"class.google::protobuf::internal::ParseContext"* %2, i64 0, i32 0
  %5 = getelementptr inbounds %"class.google::protobuf::internal::ParseContext", %"class.google::protobuf::internal::ParseContext"* %2, i64 0, i32 2
  %6 = getelementptr inbounds %"class.google::protobuf::internal::ParseContext", %"class.google::protobuf::internal::ParseContext"* %2, i64 0, i32 0, i32 0
  %7 = getelementptr inbounds %"class.google::protobuf::internal::ParseContext", %"class.google::protobuf::internal::ParseContext"* %2, i64 0, i32 0, i32 1
  %8 = bitcast i8** %7 to i64*
  %9 = getelementptr inbounds %"class.google::protobuf::internal::ParseContext", %"class.google::protobuf::internal::ParseContext"* %2, i64 0, i32 0, i32 4
  %10 = getelementptr inbounds %"class.in_memory_url_index::InMemoryURLIndexCacheItem_WordMapItem", %"class.in_memory_url_index::InMemoryURLIndexCacheItem_WordMapItem"* %0, i64 0, i32 3
  %11 = getelementptr inbounds %"class.google::protobuf::RepeatedPtrField.25", %"class.google::protobuf::RepeatedPtrField.25"* %10, i64 0, i32 0
  %12 = getelementptr inbounds %"class.in_memory_url_index::InMemoryURLIndexCacheItem_WordMapItem", %"class.in_memory_url_index::InMemoryURLIndexCacheItem_WordMapItem"* %0, i64 0, i32 3, i32 0, i32 3
  %13 = getelementptr inbounds %"class.in_memory_url_index::InMemoryURLIndexCacheItem_WordMapItem", %"class.in_memory_url_index::InMemoryURLIndexCacheItem_WordMapItem"* %0, i64 0, i32 3, i32 0, i32 1
  %14 = getelementptr inbounds %"class.in_memory_url_index::InMemoryURLIndexCacheItem_WordMapItem", %"class.in_memory_url_index::InMemoryURLIndexCacheItem_WordMapItem"* %0, i64 0, i32 3, i32 0, i32 2
  %15 = getelementptr inbounds %"class.google::protobuf::RepeatedPtrField.25", %"class.google::protobuf::RepeatedPtrField.25"* %10, i64 0, i32 0, i32 0
  %16 = getelementptr inbounds %"class.in_memory_url_index::InMemoryURLIndexCacheItem_WordMapItem", %"class.in_memory_url_index::InMemoryURLIndexCacheItem_WordMapItem"* %0, i64 0, i32 4
  %17 = getelementptr inbounds %"class.in_memory_url_index::InMemoryURLIndexCacheItem_WordMapItem", %"class.in_memory_url_index::InMemoryURLIndexCacheItem_WordMapItem"* %0, i64 0, i32 0, i32 1
  %18 = bitcast %"class.google::protobuf::internal::InternalMetadata"* %17 to i64*
  br label %19

19:                                               ; preds = %87, %3
  %20 = phi i8* [ %89, %87 ], [ %1, %3 ]
  %21 = phi i32 [ %69, %87 ], [ 0, %3 ]
  br label %22

22:                                               ; preds = %168, %19
  %23 = phi i8* [ %20, %19 ], [ %169, %168 ]
  %24 = load i32, i32* %5, align 4
  %25 = load i8*, i8** %6, align 8
  %26 = icmp ult i8* %23, %25
  br i1 %26, label %40, label %27, !prof !2

27:                                               ; preds = %22
  %28 = load i64, i64* %8, align 8
  %29 = ptrtoint i8* %23 to i64
  %30 = sub i64 %29, %28
  %31 = load i32, i32* %9, align 4
  %32 = sext i32 %31 to i64
  %33 = icmp eq i64 %30, %32
  br i1 %33, label %170, label %34

34:                                               ; preds = %27
  %35 = tail call { i8*, i8 } @_ZN6google8protobuf8internal18EpsCopyInputStream12DoneFallbackEPKci(%"class.google::protobuf::internal::EpsCopyInputStream"* %4, i8* %23, i32 %24) #14
  %36 = extractvalue { i8*, i8 } %35, 0
  %37 = extractvalue { i8*, i8 } %35, 1
  %38 = and i8 %37, 1
  %39 = icmp eq i8 %38, 0
  br i1 %39, label %40, label %170

40:                                               ; preds = %34, %22
  %41 = phi i8* [ %36, %34 ], [ %23, %22 ]
  %42 = load i8, i8* %41, align 1
  %43 = zext i8 %42 to i32
  %44 = icmp sgt i8 %42, -1
  %45 = getelementptr inbounds i8, i8* %41, i64 1
  br i1 %44, label %59, label %46

46:                                               ; preds = %40
  %47 = load i8, i8* %45, align 1
  %48 = zext i8 %47 to i32
  %49 = shl nuw nsw i32 %48, 7
  %50 = add nsw i32 %43, -128
  %51 = add nsw i32 %50, %49
  %52 = icmp sgt i8 %47, -1
  br i1 %52, label %53, label %55

53:                                               ; preds = %46
  %54 = getelementptr inbounds i8, i8* %41, i64 2
  br label %59

55:                                               ; preds = %46
  %56 = tail call { i8*, i32 } @_ZN6google8protobuf8internal15ReadTagFallbackEPKcj(i8* %41, i32 %51) #14
  %57 = extractvalue { i8*, i32 } %56, 0
  %58 = extractvalue { i8*, i32 } %56, 1
  br label %59

59:                                               ; preds = %40, %53, %55
  %60 = phi i32 [ %51, %53 ], [ %58, %55 ], [ %43, %40 ]
  %61 = phi i8* [ %54, %53 ], [ %57, %55 ], [ %45, %40 ]
  %62 = icmp eq i8* %61, null
  br i1 %62, label %170, label %63, !prof !3

63:                                               ; preds = %59
  %64 = lshr i32 %60, 3
  switch i32 %64, label %146 [
    i32 1, label %65
    i32 2, label %91
  ]

65:                                               ; preds = %63
  %66 = and i32 %60, 255
  %67 = icmp eq i32 %66, 8
  br i1 %67, label %68, label %146, !prof !2

68:                                               ; preds = %65
  %69 = or i32 %21, 1
  %70 = load i8, i8* %61, align 1
  %71 = zext i8 %70 to i32
  %72 = icmp slt i8 %70, 0
  %73 = getelementptr inbounds i8, i8* %61, i64 1
  br i1 %72, label %74, label %87

74:                                               ; preds = %68
  %75 = load i8, i8* %73, align 1
  %76 = zext i8 %75 to i32
  %77 = shl nuw nsw i32 %76, 7
  %78 = add nsw i32 %71, -128
  %79 = add nsw i32 %78, %77
  %80 = icmp slt i8 %75, 0
  br i1 %80, label %83, label %81

81:                                               ; preds = %74
  %82 = getelementptr inbounds i8, i8* %61, i64 2
  br label %87

83:                                               ; preds = %74
  %84 = tail call { i8*, i32 } @_ZN6google8protobuf8internal17VarintParseSlow32EPKcj(i8* nonnull %61, i32 %79) #14
  %85 = extractvalue { i8*, i32 } %84, 0
  %86 = extractvalue { i8*, i32 } %84, 1
  br label %87

87:                                               ; preds = %68, %81, %83
  %88 = phi i32 [ %86, %83 ], [ %79, %81 ], [ %71, %68 ]
  %89 = phi i8* [ %85, %83 ], [ %82, %81 ], [ %73, %68 ]
  store i32 %88, i32* %16, align 8
  %90 = icmp eq i8* %89, null
  br i1 %90, label %170, label %19

91:                                               ; preds = %63
  %92 = and i32 %60, 255
  %93 = icmp eq i32 %92, 18
  br i1 %93, label %94, label %146, !prof !2

94:                                               ; preds = %91
  %95 = getelementptr inbounds i8, i8* %61, i64 -1
  br label %96

96:                                               ; preds = %143, %94
  %97 = phi i8* [ %95, %94 ], [ %138, %143 ]
  %98 = getelementptr inbounds i8, i8* %97, i64 1
  %99 = load %"struct.google::protobuf::internal::RepeatedPtrFieldBase::Rep"*, %"struct.google::protobuf::internal::RepeatedPtrFieldBase::Rep"** %12, align 8
  %100 = icmp eq %"struct.google::protobuf::internal::RepeatedPtrFieldBase::Rep"* %99, null
  br i1 %100, label %101, label %103

101:                                              ; preds = %96
  %102 = load i32, i32* %14, align 4
  br label %117

103:                                              ; preds = %96
  %104 = load i32, i32* %13, align 8
  %105 = getelementptr inbounds %"struct.google::protobuf::internal::RepeatedPtrFieldBase::Rep", %"struct.google::protobuf::internal::RepeatedPtrFieldBase::Rep"* %99, i64 0, i32 0
  %106 = load i32, i32* %105, align 8
  %107 = icmp slt i32 %104, %106
  br i1 %107, label %108, label %114

108:                                              ; preds = %103
  %109 = add nsw i32 %104, 1
  store i32 %109, i32* %13, align 8
  %110 = sext i32 %104 to i64
  %111 = getelementptr inbounds %"struct.google::protobuf::internal::RepeatedPtrFieldBase::Rep", %"struct.google::protobuf::internal::RepeatedPtrFieldBase::Rep"* %99, i64 0, i32 1, i64 %110
  %112 = bitcast i8** %111 to %"class.in_memory_url_index::InMemoryURLIndexCacheItem_WordMapItem_WordMapEntry"**
  %113 = load %"class.in_memory_url_index::InMemoryURLIndexCacheItem_WordMapItem_WordMapEntry"*, %"class.in_memory_url_index::InMemoryURLIndexCacheItem_WordMapItem_WordMapEntry"** %112, align 8
  br label %136

114:                                              ; preds = %103
  %115 = load i32, i32* %14, align 4
  %116 = icmp eq i32 %106, %115
  br i1 %116, label %117, label %123

117:                                              ; preds = %114, %101
  %118 = phi i32 [ %102, %101 ], [ %106, %114 ]
  %119 = add nsw i32 %118, 1
  tail call void @_ZN6google8protobuf8internal20RepeatedPtrFieldBase7ReserveEi(%"class.google::protobuf::internal::RepeatedPtrFieldBase"* %11, i32 %119) #14
  %120 = load %"struct.google::protobuf::internal::RepeatedPtrFieldBase::Rep"*, %"struct.google::protobuf::internal::RepeatedPtrFieldBase::Rep"** %12, align 8
  %121 = getelementptr inbounds %"struct.google::protobuf::internal::RepeatedPtrFieldBase::Rep", %"struct.google::protobuf::internal::RepeatedPtrFieldBase::Rep"* %120, i64 0, i32 0
  %122 = load i32, i32* %121, align 8
  br label %123

123:                                              ; preds = %117, %114
  %124 = phi i32 [ %122, %117 ], [ %106, %114 ]
  %125 = phi %"struct.google::protobuf::internal::RepeatedPtrFieldBase::Rep"* [ %120, %117 ], [ %99, %114 ]
  %126 = getelementptr inbounds %"struct.google::protobuf::internal::RepeatedPtrFieldBase::Rep", %"struct.google::protobuf::internal::RepeatedPtrFieldBase::Rep"* %125, i64 0, i32 0
  %127 = add nsw i32 %124, 1
  store i32 %127, i32* %126, align 8
  %128 = load %"class.google::protobuf::Arena"*, %"class.google::protobuf::Arena"** %15, align 8
  %129 = tail call %"class.in_memory_url_index::InMemoryURLIndexCacheItem_WordMapItem_WordMapEntry"* @_ZN6google8protobuf5Arena18CreateMaybeMessageIN19in_memory_url_index50InMemoryURLIndexCacheItem_WordMapItem_WordMapEntryEJEEEPT_PS1_DpOT0_(%"class.google::protobuf::Arena"* %128) #14
  %130 = load %"struct.google::protobuf::internal::RepeatedPtrFieldBase::Rep"*, %"struct.google::protobuf::internal::RepeatedPtrFieldBase::Rep"** %12, align 8
  %131 = load i32, i32* %13, align 8
  %132 = add nsw i32 %131, 1
  store i32 %132, i32* %13, align 8
  %133 = sext i32 %131 to i64
  %134 = getelementptr inbounds %"struct.google::protobuf::internal::RepeatedPtrFieldBase::Rep", %"struct.google::protobuf::internal::RepeatedPtrFieldBase::Rep"* %130, i64 0, i32 1, i64 %133
  %135 = bitcast i8** %134 to %"class.in_memory_url_index::InMemoryURLIndexCacheItem_WordMapItem_WordMapEntry"**
  store %"class.in_memory_url_index::InMemoryURLIndexCacheItem_WordMapItem_WordMapEntry"* %129, %"class.in_memory_url_index::InMemoryURLIndexCacheItem_WordMapItem_WordMapEntry"** %135, align 8
  br label %136

136:                                              ; preds = %108, %123
  %137 = phi %"class.in_memory_url_index::InMemoryURLIndexCacheItem_WordMapItem_WordMapEntry"* [ %113, %108 ], [ %129, %123 ]
  %138 = tail call i8* @_ZN6google8protobuf8internal12ParseContext12ParseMessageIN19in_memory_url_index50InMemoryURLIndexCacheItem_WordMapItem_WordMapEntryEEEPKcPT_S7_(%"class.google::protobuf::internal::ParseContext"* %2, %"class.in_memory_url_index::InMemoryURLIndexCacheItem_WordMapItem_WordMapEntry"* %137, i8* %98)
  %139 = icmp eq i8* %138, null
  br i1 %139, label %170, label %140, !prof !3

140:                                              ; preds = %136
  %141 = load i8*, i8** %6, align 8
  %142 = icmp ugt i8* %141, %138
  br i1 %142, label %143, label %168

143:                                              ; preds = %140
  %144 = load i8, i8* %138, align 1
  %145 = icmp eq i8 %144, 18
  br i1 %145, label %96, label %168

146:                                              ; preds = %63, %91, %65
  %147 = and i32 %60, 7
  %148 = icmp eq i32 %147, 4
  %149 = icmp eq i32 %60, 0
  %150 = or i1 %149, %148
  br i1 %150, label %151, label %154

151:                                              ; preds = %146
  %152 = add i32 %60, -1
  %153 = getelementptr inbounds %"class.google::protobuf::internal::ParseContext", %"class.google::protobuf::internal::ParseContext"* %2, i64 0, i32 0, i32 8
  store i32 %152, i32* %153, align 8
  br label %170

154:                                              ; preds = %146
  %155 = load i64, i64* %18, align 8
  %156 = and i64 %155, 1
  %157 = icmp eq i64 %156, 0
  br i1 %157, label %162, label %158, !prof !3

158:                                              ; preds = %154
  %159 = and i64 %155, -2
  %160 = inttoptr i64 %159 to %"struct.google::protobuf::internal::InternalMetadata::Container"*
  %161 = getelementptr inbounds %"struct.google::protobuf::internal::InternalMetadata::Container", %"struct.google::protobuf::internal::InternalMetadata::Container"* %160, i64 0, i32 1
  br label %164

162:                                              ; preds = %154
  %163 = tail call %"class.std::__1::basic_string"* @_ZN6google8protobuf8internal16InternalMetadata27mutable_unknown_fields_slowINSt3__112basic_stringIcNS4_11char_traitsIcEENS4_9allocatorIcEEEEEEPT_v(%"class.google::protobuf::internal::InternalMetadata"* %17) #14
  br label %164

164:                                              ; preds = %158, %162
  %165 = phi %"class.std::__1::basic_string"* [ %161, %158 ], [ %163, %162 ]
  %166 = tail call i8* @_ZN6google8protobuf8internal17UnknownFieldParseEjPNSt3__112basic_stringIcNS2_11char_traitsIcEENS2_9allocatorIcEEEEPKcPNS1_12ParseContextE(i32 %60, %"class.std::__1::basic_string"* %165, i8* nonnull %61, %"class.google::protobuf::internal::ParseContext"* %2) #14
  %167 = icmp eq i8* %166, null
  br i1 %167, label %170, label %168

168:                                              ; preds = %143, %140, %164
  %169 = phi i8* [ %166, %164 ], [ %138, %140 ], [ %138, %143 ]
  br label %22

170:                                              ; preds = %34, %164, %27, %59, %87, %136, %151
  %171 = phi i8* [ %61, %151 ], [ null, %136 ], [ %36, %34 ], [ null, %59 ], [ %23, %27 ], [ null, %164 ], [ null, %87 ]
  %172 = phi i32 [ %21, %151 ], [ %21, %136 ], [ %21, %34 ], [ %21, %164 ], [ %21, %27 ], [ %21, %59 ], [ %69, %87 ]
  %173 = getelementptr inbounds %"class.in_memory_url_index::InMemoryURLIndexCacheItem_WordMapItem", %"class.in_memory_url_index::InMemoryURLIndexCacheItem_WordMapItem"* %0, i64 0, i32 1, i32 0, i64 0
  %174 = load i32, i32* %173, align 4
  %175 = or i32 %174, %172
  store i32 %175, i32* %173, align 4
  ret i8* %171
}

; Function Attrs: nounwind ssp uwtable
define linkonce_odr hidden i8* @_ZN6google8protobuf8internal12ParseContext12ParseMessageIN19in_memory_url_index50InMemoryURLIndexCacheItem_WordMapItem_WordMapEntryEEEPKcPT_S7_(%"class.google::protobuf::internal::ParseContext"*, %"class.in_memory_url_index::InMemoryURLIndexCacheItem_WordMapItem_WordMapEntry"*, i8*) local_unnamed_addr #0 comdat align 2 {
  %4 = load i8, i8* %2, align 1
  %5 = zext i8 %4 to i32
  %6 = icmp sgt i8 %4, -1
  br i1 %6, label %7, label %9

7:                                                ; preds = %3
  %8 = getelementptr inbounds i8, i8* %2, i64 1
  br label %13

9:                                                ; preds = %3
  %10 = tail call { i8*, i32 } @_ZN6google8protobuf8internal16ReadSizeFallbackEPKcj(i8* %2, i32 %5) #14
  %11 = extractvalue { i8*, i32 } %10, 0
  %12 = extractvalue { i8*, i32 } %10, 1
  br label %13

13:                                               ; preds = %7, %9
  %14 = phi i8* [ %11, %9 ], [ %8, %7 ]
  %15 = phi i32 [ %12, %9 ], [ %5, %7 ]
  %16 = icmp eq i8* %14, null
  br i1 %16, label %55, label %17

17:                                               ; preds = %13
  %18 = getelementptr inbounds %"class.google::protobuf::internal::ParseContext", %"class.google::protobuf::internal::ParseContext"* %0, i64 0, i32 0, i32 1
  %19 = bitcast i8** %18 to i64*
  %20 = load i64, i64* %19, align 8
  %21 = ptrtoint i8* %14 to i64
  %22 = sub i64 %21, %20
  %23 = trunc i64 %22 to i32
  %24 = add nsw i32 %15, %23
  %25 = inttoptr i64 %20 to i8*
  %26 = icmp slt i32 %24, 0
  %27 = select i1 %26, i32 %24, i32 0
  %28 = sext i32 %27 to i64
  %29 = getelementptr inbounds i8, i8* %25, i64 %28
  %30 = getelementptr inbounds %"class.google::protobuf::internal::ParseContext", %"class.google::protobuf::internal::ParseContext"* %0, i64 0, i32 0, i32 0
  store i8* %29, i8** %30, align 8
  %31 = getelementptr inbounds %"class.google::protobuf::internal::ParseContext", %"class.google::protobuf::internal::ParseContext"* %0, i64 0, i32 0, i32 4
  %32 = load i32, i32* %31, align 4
  store i32 %24, i32* %31, align 4
  %33 = sub nsw i32 %32, %24
  %34 = getelementptr inbounds %"class.google::protobuf::internal::ParseContext", %"class.google::protobuf::internal::ParseContext"* %0, i64 0, i32 1
  %35 = load i32, i32* %34, align 8
  %36 = add nsw i32 %35, -1
  store i32 %36, i32* %34, align 8
  %37 = icmp slt i32 %35, 1
  br i1 %37, label %55, label %38

38:                                               ; preds = %17
  %39 = tail call i8* @_ZN19in_memory_url_index50InMemoryURLIndexCacheItem_WordMapItem_WordMapEntry14_InternalParseEPKcPN6google8protobuf8internal12ParseContextE(%"class.in_memory_url_index::InMemoryURLIndexCacheItem_WordMapItem_WordMapEntry"* %1, i8* nonnull %14, %"class.google::protobuf::internal::ParseContext"* %0)
  %40 = icmp eq i8* %39, null
  br i1 %40, label %55, label %41, !prof !3

41:                                               ; preds = %38
  %42 = load i32, i32* %34, align 8
  %43 = add nsw i32 %42, 1
  store i32 %43, i32* %34, align 8
  %44 = getelementptr inbounds %"class.google::protobuf::internal::ParseContext", %"class.google::protobuf::internal::ParseContext"* %0, i64 0, i32 0, i32 8
  %45 = load i32, i32* %44, align 8
  %46 = icmp eq i32 %45, 0
  br i1 %46, label %47, label %55, !prof !2

47:                                               ; preds = %41
  %48 = load i32, i32* %31, align 4
  %49 = add nsw i32 %48, %33
  store i32 %49, i32* %31, align 4
  %50 = load i8*, i8** %18, align 8
  %51 = icmp slt i32 %49, 0
  %52 = select i1 %51, i32 %49, i32 0
  %53 = sext i32 %52 to i64
  %54 = getelementptr inbounds i8, i8* %50, i64 %53
  store i8* %54, i8** %30, align 8
  br label %55

55:                                               ; preds = %13, %38, %17, %41, %47
  %56 = phi i8* [ %39, %47 ], [ null, %41 ], [ null, %17 ], [ null, %38 ], [ null, %13 ]
  ret i8* %56
}

; Function Attrs: nounwind ssp uwtable
define hidden i8* @_ZNK19in_memory_url_index37InMemoryURLIndexCacheItem_WordMapItem18_InternalSerializeEPhPN6google8protobuf2io19EpsCopyOutputStreamE(%"class.in_memory_url_index::InMemoryURLIndexCacheItem_WordMapItem"* nocapture readonly, i8*, %"class.google::protobuf::io::EpsCopyOutputStream"*) unnamed_addr #0 align 2 {
  %4 = getelementptr inbounds %"class.in_memory_url_index::InMemoryURLIndexCacheItem_WordMapItem", %"class.in_memory_url_index::InMemoryURLIndexCacheItem_WordMapItem"* %0, i64 0, i32 1, i32 0, i64 0
  %5 = load i32, i32* %4, align 4
  %6 = and i32 %5, 1
  %7 = icmp eq i32 %6, 0
  br i1 %7, label %44, label %8

8:                                                ; preds = %3
  %9 = getelementptr inbounds %"class.google::protobuf::io::EpsCopyOutputStream", %"class.google::protobuf::io::EpsCopyOutputStream"* %2, i64 0, i32 0
  %10 = load i8*, i8** %9, align 8
  %11 = icmp ugt i8* %10, %1
  br i1 %11, label %14, label %12, !prof !2

12:                                               ; preds = %8
  %13 = tail call i8* @_ZN6google8protobuf2io19EpsCopyOutputStream19EnsureSpaceFallbackEPh(%"class.google::protobuf::io::EpsCopyOutputStream"* %2, i8* %1) #14
  br label %14

14:                                               ; preds = %8, %12
  %15 = phi i8* [ %13, %12 ], [ %1, %8 ]
  %16 = getelementptr inbounds %"class.in_memory_url_index::InMemoryURLIndexCacheItem_WordMapItem", %"class.in_memory_url_index::InMemoryURLIndexCacheItem_WordMapItem"* %0, i64 0, i32 4
  %17 = load i32, i32* %16, align 8
  store i8 8, i8* %15, align 1
  %18 = getelementptr inbounds i8, i8* %15, i64 1
  %19 = icmp ult i32 %17, 128
  %20 = trunc i32 %17 to i8
  br i1 %19, label %21, label %23

21:                                               ; preds = %14
  store i8 %20, i8* %18, align 1
  %22 = getelementptr inbounds i8, i8* %15, i64 2
  br label %44

23:                                               ; preds = %14
  %24 = or i8 %20, -128
  store i8 %24, i8* %18, align 1
  %25 = lshr i32 %17, 7
  %26 = icmp ult i32 %17, 16384
  br i1 %26, label %27, label %31

27:                                               ; preds = %23
  %28 = trunc i32 %25 to i8
  %29 = getelementptr inbounds i8, i8* %15, i64 2
  store i8 %28, i8* %29, align 1
  %30 = getelementptr inbounds i8, i8* %15, i64 3
  br label %44

31:                                               ; preds = %23
  %32 = getelementptr inbounds i8, i8* %15, i64 2
  br label %33

33:                                               ; preds = %33, %31
  %34 = phi i32 [ %25, %31 ], [ %38, %33 ]
  %35 = phi i8* [ %32, %31 ], [ %39, %33 ]
  %36 = trunc i32 %34 to i8
  %37 = or i8 %36, -128
  store i8 %37, i8* %35, align 1
  %38 = lshr i32 %34, 7
  %39 = getelementptr inbounds i8, i8* %35, i64 1
  %40 = icmp ugt i32 %34, 16383
  br i1 %40, label %33, label %41, !prof !3

41:                                               ; preds = %33
  %42 = trunc i32 %38 to i8
  %43 = getelementptr inbounds i8, i8* %35, i64 2
  store i8 %42, i8* %39, align 1
  br label %44

44:                                               ; preds = %41, %27, %21, %3
  %45 = phi i8* [ %1, %3 ], [ %22, %21 ], [ %30, %27 ], [ %43, %41 ]
  %46 = getelementptr inbounds %"class.in_memory_url_index::InMemoryURLIndexCacheItem_WordMapItem", %"class.in_memory_url_index::InMemoryURLIndexCacheItem_WordMapItem"* %0, i64 0, i32 3, i32 0, i32 1
  %47 = load i32, i32* %46, align 8
  %48 = icmp eq i32 %47, 0
  br i1 %48, label %52, label %49

49:                                               ; preds = %44
  %50 = getelementptr inbounds %"class.google::protobuf::io::EpsCopyOutputStream", %"class.google::protobuf::io::EpsCopyOutputStream"* %2, i64 0, i32 0
  %51 = getelementptr inbounds %"class.in_memory_url_index::InMemoryURLIndexCacheItem_WordMapItem", %"class.in_memory_url_index::InMemoryURLIndexCacheItem_WordMapItem"* %0, i64 0, i32 3, i32 0, i32 3
  br label %59

52:                                               ; preds = %101, %44
  %53 = phi i8* [ %45, %44 ], [ %103, %101 ]
  %54 = getelementptr inbounds %"class.in_memory_url_index::InMemoryURLIndexCacheItem_WordMapItem", %"class.in_memory_url_index::InMemoryURLIndexCacheItem_WordMapItem"* %0, i64 0, i32 0, i32 1
  %55 = bitcast %"class.google::protobuf::internal::InternalMetadata"* %54 to i64*
  %56 = load i64, i64* %55, align 8
  %57 = and i64 %56, 1
  %58 = icmp eq i64 %57, 0
  br i1 %58, label %137, label %106, !prof !2

59:                                               ; preds = %101, %49
  %60 = phi i32 [ 0, %49 ], [ %104, %101 ]
  %61 = phi i8* [ %45, %49 ], [ %103, %101 ]
  %62 = load i8*, i8** %50, align 8
  %63 = icmp ugt i8* %62, %61
  br i1 %63, label %66, label %64, !prof !2

64:                                               ; preds = %59
  %65 = tail call i8* @_ZN6google8protobuf2io19EpsCopyOutputStream19EnsureSpaceFallbackEPh(%"class.google::protobuf::io::EpsCopyOutputStream"* %2, i8* %61) #14
  br label %66

66:                                               ; preds = %59, %64
  %67 = phi i8* [ %65, %64 ], [ %61, %59 ]
  %68 = load %"struct.google::protobuf::internal::RepeatedPtrFieldBase::Rep"*, %"struct.google::protobuf::internal::RepeatedPtrFieldBase::Rep"** %51, align 8
  %69 = sext i32 %60 to i64
  %70 = getelementptr inbounds %"struct.google::protobuf::internal::RepeatedPtrFieldBase::Rep", %"struct.google::protobuf::internal::RepeatedPtrFieldBase::Rep"* %68, i64 0, i32 1, i64 %69
  %71 = bitcast i8** %70 to %"class.in_memory_url_index::InMemoryURLIndexCacheItem_WordMapItem_WordMapEntry"**
  %72 = load %"class.in_memory_url_index::InMemoryURLIndexCacheItem_WordMapItem_WordMapEntry"*, %"class.in_memory_url_index::InMemoryURLIndexCacheItem_WordMapItem_WordMapEntry"** %71, align 8
  store i8 18, i8* %67, align 1
  %73 = getelementptr inbounds i8, i8* %67, i64 1
  %74 = getelementptr inbounds %"class.in_memory_url_index::InMemoryURLIndexCacheItem_WordMapItem_WordMapEntry", %"class.in_memory_url_index::InMemoryURLIndexCacheItem_WordMapItem_WordMapEntry"* %72, i64 0, i32 2, i32 0, i32 0, i32 0, i32 0, i32 0, i32 0
  %75 = load atomic i32, i32* %74 monotonic, align 4
  %76 = icmp ult i32 %75, 128
  %77 = trunc i32 %75 to i8
  br i1 %76, label %78, label %80

78:                                               ; preds = %66
  store i8 %77, i8* %73, align 1
  %79 = getelementptr inbounds i8, i8* %67, i64 2
  br label %101

80:                                               ; preds = %66
  %81 = or i8 %77, -128
  store i8 %81, i8* %73, align 1
  %82 = lshr i32 %75, 7
  %83 = icmp ult i32 %75, 16384
  br i1 %83, label %84, label %88

84:                                               ; preds = %80
  %85 = trunc i32 %82 to i8
  %86 = getelementptr inbounds i8, i8* %67, i64 2
  store i8 %85, i8* %86, align 1
  %87 = getelementptr inbounds i8, i8* %67, i64 3
  br label %101

88:                                               ; preds = %80
  %89 = getelementptr inbounds i8, i8* %67, i64 2
  br label %90

90:                                               ; preds = %90, %88
  %91 = phi i32 [ %82, %88 ], [ %95, %90 ]
  %92 = phi i8* [ %89, %88 ], [ %96, %90 ]
  %93 = trunc i32 %91 to i8
  %94 = or i8 %93, -128
  store i8 %94, i8* %92, align 1
  %95 = lshr i32 %91, 7
  %96 = getelementptr inbounds i8, i8* %92, i64 1
  %97 = icmp ugt i32 %91, 16383
  br i1 %97, label %90, label %98, !prof !3

98:                                               ; preds = %90
  %99 = trunc i32 %95 to i8
  %100 = getelementptr inbounds i8, i8* %92, i64 2
  store i8 %99, i8* %96, align 1
  br label %101

101:                                              ; preds = %78, %84, %98
  %102 = phi i8* [ %79, %78 ], [ %87, %84 ], [ %100, %98 ]
  %103 = tail call i8* @_ZNK19in_memory_url_index50InMemoryURLIndexCacheItem_WordMapItem_WordMapEntry18_InternalSerializeEPhPN6google8protobuf2io19EpsCopyOutputStreamE(%"class.in_memory_url_index::InMemoryURLIndexCacheItem_WordMapItem_WordMapEntry"* %72, i8* %102, %"class.google::protobuf::io::EpsCopyOutputStream"* %2) #14
  %104 = add nuw i32 %60, 1
  %105 = icmp eq i32 %104, %47
  br i1 %105, label %52, label %59

106:                                              ; preds = %52
  %107 = and i64 %56, -2
  %108 = inttoptr i64 %107 to %"struct.google::protobuf::internal::InternalMetadata::Container"*
  %109 = getelementptr inbounds %"struct.google::protobuf::internal::InternalMetadata::Container", %"struct.google::protobuf::internal::InternalMetadata::Container"* %108, i64 0, i32 1
  %110 = bitcast %"class.std::__1::basic_string"* %109 to %"struct.std::__1::basic_string<char, std::__1::char_traits<char>, std::__1::allocator<char> >::__short"*
  %111 = getelementptr inbounds %"struct.std::__1::basic_string<char, std::__1::char_traits<char>, std::__1::allocator<char> >::__short", %"struct.std::__1::basic_string<char, std::__1::char_traits<char>, std::__1::allocator<char> >::__short"* %110, i64 0, i32 1, i32 0
  %112 = load i8, i8* %111, align 1
  %113 = icmp slt i8 %112, 0
  br i1 %113, label %114, label %119

114:                                              ; preds = %106
  %115 = getelementptr inbounds %"class.std::__1::basic_string", %"class.std::__1::basic_string"* %109, i64 0, i32 0, i32 0, i32 0, i32 0, i32 0, i32 0
  %116 = load i8*, i8** %115, align 8
  %117 = getelementptr inbounds %"struct.google::protobuf::internal::InternalMetadata::Container", %"struct.google::protobuf::internal::InternalMetadata::Container"* %108, i64 0, i32 1, i32 0, i32 0, i32 0, i32 0, i32 0, i32 1
  %118 = load i64, i64* %117, align 8
  br label %122

119:                                              ; preds = %106
  %120 = bitcast %"class.std::__1::basic_string"* %109 to i8*
  %121 = zext i8 %112 to i64
  br label %122

122:                                              ; preds = %114, %119
  %123 = phi i8* [ %116, %114 ], [ %120, %119 ]
  %124 = phi i64 [ %118, %114 ], [ %121, %119 ]
  %125 = bitcast %"class.google::protobuf::io::EpsCopyOutputStream"* %2 to i64*
  %126 = load i64, i64* %125, align 8
  %127 = ptrtoint i8* %53 to i64
  %128 = sub i64 %126, %127
  %129 = shl i64 %124, 32
  %130 = ashr exact i64 %129, 32
  %131 = icmp slt i64 %128, %130
  br i1 %131, label %132, label %135, !prof !3

132:                                              ; preds = %122
  %133 = trunc i64 %124 to i32
  %134 = tail call i8* @_ZN6google8protobuf2io19EpsCopyOutputStream16WriteRawFallbackEPKviPh(%"class.google::protobuf::io::EpsCopyOutputStream"* %2, i8* %123, i32 %133, i8* %53) #14
  br label %137

135:                                              ; preds = %122
  tail call void @llvm.memcpy.p0i8.p0i8.i64(i8* align 1 %53, i8* align 1 %123, i64 %130, i1 false) #14
  %136 = getelementptr inbounds i8, i8* %53, i64 %130
  br label %137

137:                                              ; preds = %52, %135, %132
  %138 = phi i8* [ %53, %52 ], [ %134, %132 ], [ %136, %135 ]
  ret i8* %138
}

; Function Attrs: nounwind ssp uwtable
define hidden i64 @_ZNK19in_memory_url_index37InMemoryURLIndexCacheItem_WordMapItem12ByteSizeLongEv(%"class.in_memory_url_index::InMemoryURLIndexCacheItem_WordMapItem"* nocapture) unnamed_addr #0 align 2 {
  %2 = getelementptr inbounds %"class.in_memory_url_index::InMemoryURLIndexCacheItem_WordMapItem", %"class.in_memory_url_index::InMemoryURLIndexCacheItem_WordMapItem"* %0, i64 0, i32 1, i32 0, i64 0
  %3 = load i32, i32* %2, align 4
  %4 = and i32 %3, 1
  %5 = icmp eq i32 %4, 0
  br i1 %5, label %17, label %6

6:                                                ; preds = %1
  %7 = getelementptr inbounds %"class.in_memory_url_index::InMemoryURLIndexCacheItem_WordMapItem", %"class.in_memory_url_index::InMemoryURLIndexCacheItem_WordMapItem"* %0, i64 0, i32 4
  %8 = load i32, i32* %7, align 8
  %9 = or i32 %8, 1
  %10 = tail call i32 @llvm.ctlz.i32(i32 %9, i1 true) #14, !range !4
  %11 = xor i32 %10, 31
  %12 = mul nuw nsw i32 %11, 9
  %13 = add nuw nsw i32 %12, 73
  %14 = lshr i32 %13, 6
  %15 = add nuw nsw i32 %14, 1
  %16 = zext i32 %15 to i64
  br label %17

17:                                               ; preds = %1, %6
  %18 = phi i64 [ %16, %6 ], [ 0, %1 ]
  %19 = getelementptr inbounds %"class.in_memory_url_index::InMemoryURLIndexCacheItem_WordMapItem", %"class.in_memory_url_index::InMemoryURLIndexCacheItem_WordMapItem"* %0, i64 0, i32 3, i32 0, i32 1
  %20 = load i32, i32* %19, align 8
  %21 = sext i32 %20 to i64
  %22 = add nsw i64 %18, %21
  %23 = getelementptr inbounds %"class.in_memory_url_index::InMemoryURLIndexCacheItem_WordMapItem", %"class.in_memory_url_index::InMemoryURLIndexCacheItem_WordMapItem"* %0, i64 0, i32 3, i32 0, i32 3
  %24 = load %"struct.google::protobuf::internal::RepeatedPtrFieldBase::Rep"*, %"struct.google::protobuf::internal::RepeatedPtrFieldBase::Rep"** %23, align 8
  %25 = icmp eq %"struct.google::protobuf::internal::RepeatedPtrFieldBase::Rep"* %24, null
  %26 = getelementptr inbounds %"struct.google::protobuf::internal::RepeatedPtrFieldBase::Rep", %"struct.google::protobuf::internal::RepeatedPtrFieldBase::Rep"* %24, i64 0, i32 1, i64 0
  %27 = select i1 %25, i8** null, i8** %26
  %28 = getelementptr inbounds i8*, i8** %27, i64 %21
  %29 = icmp eq i32 %20, 0
  br i1 %29, label %30, label %37

30:                                               ; preds = %37, %17
  %31 = phi i64 [ %22, %17 ], [ %52, %37 ]
  %32 = getelementptr inbounds %"class.in_memory_url_index::InMemoryURLIndexCacheItem_WordMapItem", %"class.in_memory_url_index::InMemoryURLIndexCacheItem_WordMapItem"* %0, i64 0, i32 0, i32 1
  %33 = bitcast %"class.google::protobuf::internal::InternalMetadata"* %32 to i64*
  %34 = load i64, i64* %33, align 8
  %35 = and i64 %34, 1
  %36 = icmp eq i64 %35, 0
  br i1 %36, label %71, label %55, !prof !2

37:                                               ; preds = %17, %37
  %38 = phi i64 [ %52, %37 ], [ %22, %17 ]
  %39 = phi i8** [ %53, %37 ], [ %27, %17 ]
  %40 = bitcast i8** %39 to %"class.in_memory_url_index::InMemoryURLIndexCacheItem_WordMapItem_WordMapEntry"**
  %41 = load %"class.in_memory_url_index::InMemoryURLIndexCacheItem_WordMapItem_WordMapEntry"*, %"class.in_memory_url_index::InMemoryURLIndexCacheItem_WordMapItem_WordMapEntry"** %40, align 8
  %42 = tail call i64 @_ZNK19in_memory_url_index50InMemoryURLIndexCacheItem_WordMapItem_WordMapEntry12ByteSizeLongEv(%"class.in_memory_url_index::InMemoryURLIndexCacheItem_WordMapItem_WordMapEntry"* %41) #14
  %43 = trunc i64 %42 to i32
  %44 = or i32 %43, 1
  %45 = tail call i32 @llvm.ctlz.i32(i32 %44, i1 true) #14, !range !4
  %46 = xor i32 %45, 31
  %47 = mul nuw nsw i32 %46, 9
  %48 = add nuw nsw i32 %47, 73
  %49 = lshr i32 %48, 6
  %50 = zext i32 %49 to i64
  %51 = add i64 %42, %38
  %52 = add i64 %51, %50
  %53 = getelementptr inbounds i8*, i8** %39, i64 1
  %54 = icmp eq i8** %53, %28
  br i1 %54, label %30, label %37

55:                                               ; preds = %30
  %56 = and i64 %34, -2
  %57 = inttoptr i64 %56 to %"struct.google::protobuf::internal::InternalMetadata::Container"*
  %58 = getelementptr inbounds %"struct.google::protobuf::internal::InternalMetadata::Container", %"struct.google::protobuf::internal::InternalMetadata::Container"* %57, i64 0, i32 1
  %59 = bitcast %"class.std::__1::basic_string"* %58 to %"struct.std::__1::basic_string<char, std::__1::char_traits<char>, std::__1::allocator<char> >::__short"*
  %60 = getelementptr inbounds %"struct.std::__1::basic_string<char, std::__1::char_traits<char>, std::__1::allocator<char> >::__short", %"struct.std::__1::basic_string<char, std::__1::char_traits<char>, std::__1::allocator<char> >::__short"* %59, i64 0, i32 1, i32 0
  %61 = load i8, i8* %60, align 1
  %62 = icmp slt i8 %61, 0
  br i1 %62, label %63, label %66

63:                                               ; preds = %55
  %64 = getelementptr inbounds %"struct.google::protobuf::internal::InternalMetadata::Container", %"struct.google::protobuf::internal::InternalMetadata::Container"* %57, i64 0, i32 1, i32 0, i32 0, i32 0, i32 0, i32 0, i32 1
  %65 = load i64, i64* %64, align 8
  br label %68

66:                                               ; preds = %55
  %67 = zext i8 %61 to i64
  br label %68

68:                                               ; preds = %63, %66
  %69 = phi i64 [ %65, %63 ], [ %67, %66 ]
  %70 = add i64 %69, %31
  br label %71

71:                                               ; preds = %30, %68
  %72 = phi i64 [ %70, %68 ], [ %31, %30 ]
  %73 = trunc i64 %72 to i32
  %74 = getelementptr inbounds %"class.in_memory_url_index::InMemoryURLIndexCacheItem_WordMapItem", %"class.in_memory_url_index::InMemoryURLIndexCacheItem_WordMapItem"* %0, i64 0, i32 2, i32 0, i32 0, i32 0, i32 0, i32 0, i32 0
  store atomic i32 %73, i32* %74 monotonic, align 4
  ret i64 %72
}

; Function Attrs: nounwind ssp uwtable
define hidden void @_ZN19in_memory_url_index37InMemoryURLIndexCacheItem_WordMapItem21CheckTypeAndMergeFromERKN6google8protobuf11MessageLiteE(%"class.in_memory_url_index::InMemoryURLIndexCacheItem_WordMapItem"*, %"class.google::protobuf::MessageLite"* nocapture readonly dereferenceable(16)) unnamed_addr #0 align 2 {
  %3 = bitcast %"class.google::protobuf::MessageLite"* %1 to %"class.in_memory_url_index::InMemoryURLIndexCacheItem_WordMapItem"*
  tail call void @_ZN19in_memory_url_index37InMemoryURLIndexCacheItem_WordMapItem9MergeFromERKS0_(%"class.in_memory_url_index::InMemoryURLIndexCacheItem_WordMapItem"* %0, %"class.in_memory_url_index::InMemoryURLIndexCacheItem_WordMapItem"* dereferenceable(56) %3)
  ret void
}

; Function Attrs: nounwind ssp uwtable
define hidden void @_ZN19in_memory_url_index37InMemoryURLIndexCacheItem_WordMapItem9MergeFromERKS0_(%"class.in_memory_url_index::InMemoryURLIndexCacheItem_WordMapItem"*, %"class.in_memory_url_index::InMemoryURLIndexCacheItem_WordMapItem"* nocapture readonly dereferenceable(56)) local_unnamed_addr #0 align 2 {
  %3 = getelementptr inbounds %"class.in_memory_url_index::InMemoryURLIndexCacheItem_WordMapItem", %"class.in_memory_url_index::InMemoryURLIndexCacheItem_WordMapItem"* %0, i64 0, i32 0, i32 1
  %4 = getelementptr inbounds %"class.in_memory_url_index::InMemoryURLIndexCacheItem_WordMapItem", %"class.in_memory_url_index::InMemoryURLIndexCacheItem_WordMapItem"* %1, i64 0, i32 0, i32 1
  %5 = bitcast %"class.google::protobuf::internal::InternalMetadata"* %4 to i64*
  %6 = load i64, i64* %5, align 8
  %7 = and i64 %6, 1
  %8 = icmp eq i64 %7, 0
  br i1 %8, label %38, label %9

9:                                                ; preds = %2
  %10 = and i64 %6, -2
  %11 = inttoptr i64 %10 to %"struct.google::protobuf::internal::InternalMetadata::Container"*
  %12 = getelementptr inbounds %"struct.google::protobuf::internal::InternalMetadata::Container", %"struct.google::protobuf::internal::InternalMetadata::Container"* %11, i64 0, i32 1
  %13 = bitcast %"class.google::protobuf::internal::InternalMetadata"* %3 to i64*
  %14 = load i64, i64* %13, align 8
  %15 = and i64 %14, 1
  %16 = icmp eq i64 %15, 0
  br i1 %16, label %21, label %17, !prof !3

17:                                               ; preds = %9
  %18 = and i64 %14, -2
  %19 = inttoptr i64 %18 to %"struct.google::protobuf::internal::InternalMetadata::Container"*
  %20 = getelementptr inbounds %"struct.google::protobuf::internal::InternalMetadata::Container", %"struct.google::protobuf::internal::InternalMetadata::Container"* %19, i64 0, i32 1
  br label %23

21:                                               ; preds = %9
  %22 = tail call %"class.std::__1::basic_string"* @_ZN6google8protobuf8internal16InternalMetadata27mutable_unknown_fields_slowINSt3__112basic_stringIcNS4_11char_traitsIcEENS4_9allocatorIcEEEEEEPT_v(%"class.google::protobuf::internal::InternalMetadata"* %3) #14
  br label %23

23:                                               ; preds = %21, %17
  %24 = phi %"class.std::__1::basic_string"* [ %20, %17 ], [ %22, %21 ]
  %25 = bitcast %"class.std::__1::basic_string"* %12 to %"struct.std::__1::basic_string<char, std::__1::char_traits<char>, std::__1::allocator<char> >::__short"*
  %26 = getelementptr inbounds %"struct.std::__1::basic_string<char, std::__1::char_traits<char>, std::__1::allocator<char> >::__short", %"struct.std::__1::basic_string<char, std::__1::char_traits<char>, std::__1::allocator<char> >::__short"* %25, i64 0, i32 1, i32 0
  %27 = load i8, i8* %26, align 1
  %28 = icmp slt i8 %27, 0
  %29 = getelementptr inbounds %"class.std::__1::basic_string", %"class.std::__1::basic_string"* %12, i64 0, i32 0, i32 0, i32 0, i32 0, i32 0, i32 0
  %30 = load i8*, i8** %29, align 8
  %31 = getelementptr inbounds %"struct.google::protobuf::internal::InternalMetadata::Container", %"struct.google::protobuf::internal::InternalMetadata::Container"* %11, i64 0, i32 1, i32 0, i32 0, i32 0, i32 0, i32 0, i32 1
  %32 = load i64, i64* %31, align 8
  %33 = bitcast %"class.std::__1::basic_string"* %12 to i8*
  %34 = zext i8 %27 to i64
  %35 = select i1 %28, i8* %30, i8* %33
  %36 = select i1 %28, i64 %32, i64 %34
  %37 = tail call dereferenceable(24) %"class.std::__1::basic_string"* @_ZNSt3__112basic_stringIcNS_11char_traitsIcEENS_9allocatorIcEEE6appendEPKcm(%"class.std::__1::basic_string"* %24, i8* %35, i64 %36) #14
  br label %38

38:                                               ; preds = %2, %23
  %39 = getelementptr inbounds %"class.in_memory_url_index::InMemoryURLIndexCacheItem_WordMapItem", %"class.in_memory_url_index::InMemoryURLIndexCacheItem_WordMapItem"* %0, i64 0, i32 3
  %40 = getelementptr inbounds %"class.in_memory_url_index::InMemoryURLIndexCacheItem_WordMapItem", %"class.in_memory_url_index::InMemoryURLIndexCacheItem_WordMapItem"* %1, i64 0, i32 3, i32 0, i32 1
  %41 = load i32, i32* %40, align 8
  %42 = icmp eq i32 %41, 0
  br i1 %42, label %98, label %43

43:                                               ; preds = %38
  %44 = getelementptr inbounds %"class.google::protobuf::RepeatedPtrField.25", %"class.google::protobuf::RepeatedPtrField.25"* %39, i64 0, i32 0
  %45 = getelementptr inbounds %"class.in_memory_url_index::InMemoryURLIndexCacheItem_WordMapItem", %"class.in_memory_url_index::InMemoryURLIndexCacheItem_WordMapItem"* %1, i64 0, i32 3, i32 0, i32 3
  %46 = load %"struct.google::protobuf::internal::RepeatedPtrFieldBase::Rep"*, %"struct.google::protobuf::internal::RepeatedPtrFieldBase::Rep"** %45, align 8
  %47 = tail call i8** @_ZN6google8protobuf8internal20RepeatedPtrFieldBase14InternalExtendEi(%"class.google::protobuf::internal::RepeatedPtrFieldBase"* %44, i32 %41) #14
  %48 = getelementptr inbounds %"class.in_memory_url_index::InMemoryURLIndexCacheItem_WordMapItem", %"class.in_memory_url_index::InMemoryURLIndexCacheItem_WordMapItem"* %0, i64 0, i32 3, i32 0, i32 3
  %49 = load %"struct.google::protobuf::internal::RepeatedPtrFieldBase::Rep"*, %"struct.google::protobuf::internal::RepeatedPtrFieldBase::Rep"** %48, align 8
  %50 = getelementptr inbounds %"struct.google::protobuf::internal::RepeatedPtrFieldBase::Rep", %"struct.google::protobuf::internal::RepeatedPtrFieldBase::Rep"* %49, i64 0, i32 0
  %51 = load i32, i32* %50, align 8
  %52 = getelementptr inbounds %"class.in_memory_url_index::InMemoryURLIndexCacheItem_WordMapItem", %"class.in_memory_url_index::InMemoryURLIndexCacheItem_WordMapItem"* %0, i64 0, i32 3, i32 0, i32 1
  %53 = load i32, i32* %52, align 8
  %54 = sub i32 %51, %53
  %55 = icmp sgt i32 %54, 0
  %56 = icmp sgt i32 %41, 0
  %57 = and i1 %56, %55
  br i1 %57, label %58, label %61

58:                                               ; preds = %43
  %59 = sext i32 %41 to i64
  %60 = sext i32 %54 to i64
  br label %67

61:                                               ; preds = %67, %43
  %62 = getelementptr inbounds %"class.google::protobuf::RepeatedPtrField.25", %"class.google::protobuf::RepeatedPtrField.25"* %39, i64 0, i32 0, i32 0
  %63 = load %"class.google::protobuf::Arena"*, %"class.google::protobuf::Arena"** %62, align 8
  %64 = icmp slt i32 %54, %41
  br i1 %64, label %65, label %90

65:                                               ; preds = %61
  %66 = sext i32 %54 to i64
  br label %79

67:                                               ; preds = %67, %58
  %68 = phi i64 [ 0, %58 ], [ %75, %67 ]
  %69 = getelementptr inbounds %"struct.google::protobuf::internal::RepeatedPtrFieldBase::Rep", %"struct.google::protobuf::internal::RepeatedPtrFieldBase::Rep"* %46, i64 0, i32 1, i64 %68
  %70 = bitcast i8** %69 to %"class.in_memory_url_index::InMemoryURLIndexCacheItem_WordMapItem_WordMapEntry"**
  %71 = load %"class.in_memory_url_index::InMemoryURLIndexCacheItem_WordMapItem_WordMapEntry"*, %"class.in_memory_url_index::InMemoryURLIndexCacheItem_WordMapItem_WordMapEntry"** %70, align 8
  %72 = getelementptr inbounds i8*, i8** %47, i64 %68
  %73 = bitcast i8** %72 to %"class.in_memory_url_index::InMemoryURLIndexCacheItem_WordMapItem_WordMapEntry"**
  %74 = load %"class.in_memory_url_index::InMemoryURLIndexCacheItem_WordMapItem_WordMapEntry"*, %"class.in_memory_url_index::InMemoryURLIndexCacheItem_WordMapItem_WordMapEntry"** %73, align 8
  tail call void @_ZN6google8protobuf8internal18GenericTypeHandlerIN19in_memory_url_index50InMemoryURLIndexCacheItem_WordMapItem_WordMapEntryEE5MergeERKS4_PS4_(%"class.in_memory_url_index::InMemoryURLIndexCacheItem_WordMapItem_WordMapEntry"* dereferenceable(40) %71, %"class.in_memory_url_index::InMemoryURLIndexCacheItem_WordMapItem_WordMapEntry"* %74) #14
  %75 = add nuw nsw i64 %68, 1
  %76 = icmp slt i64 %75, %60
  %77 = icmp slt i64 %75, %59
  %78 = and i1 %76, %77
  br i1 %78, label %67, label %61

79:                                               ; preds = %79, %65
  %80 = phi i64 [ %66, %65 ], [ %87, %79 ]
  %81 = getelementptr inbounds %"struct.google::protobuf::internal::RepeatedPtrFieldBase::Rep", %"struct.google::protobuf::internal::RepeatedPtrFieldBase::Rep"* %46, i64 0, i32 1, i64 %80
  %82 = bitcast i8** %81 to %"class.in_memory_url_index::InMemoryURLIndexCacheItem_WordMapItem_WordMapEntry"**
  %83 = load %"class.in_memory_url_index::InMemoryURLIndexCacheItem_WordMapItem_WordMapEntry"*, %"class.in_memory_url_index::InMemoryURLIndexCacheItem_WordMapItem_WordMapEntry"** %82, align 8
  %84 = tail call %"class.in_memory_url_index::InMemoryURLIndexCacheItem_WordMapItem_WordMapEntry"* @_ZN6google8protobuf5Arena18CreateMaybeMessageIN19in_memory_url_index50InMemoryURLIndexCacheItem_WordMapItem_WordMapEntryEJEEEPT_PS1_DpOT0_(%"class.google::protobuf::Arena"* %63) #14
  tail call void @_ZN6google8protobuf8internal18GenericTypeHandlerIN19in_memory_url_index50InMemoryURLIndexCacheItem_WordMapItem_WordMapEntryEE5MergeERKS4_PS4_(%"class.in_memory_url_index::InMemoryURLIndexCacheItem_WordMapItem_WordMapEntry"* dereferenceable(40) %83, %"class.in_memory_url_index::InMemoryURLIndexCacheItem_WordMapItem_WordMapEntry"* %84) #14
  %85 = getelementptr inbounds i8*, i8** %47, i64 %80
  %86 = bitcast i8** %85 to %"class.in_memory_url_index::InMemoryURLIndexCacheItem_WordMapItem_WordMapEntry"**
  store %"class.in_memory_url_index::InMemoryURLIndexCacheItem_WordMapItem_WordMapEntry"* %84, %"class.in_memory_url_index::InMemoryURLIndexCacheItem_WordMapItem_WordMapEntry"** %86, align 8
  %87 = add nsw i64 %80, 1
  %88 = trunc i64 %87 to i32
  %89 = icmp eq i32 %41, %88
  br i1 %89, label %90, label %79

90:                                               ; preds = %79, %61
  %91 = load i32, i32* %52, align 8
  %92 = add nsw i32 %91, %41
  store i32 %92, i32* %52, align 8
  %93 = load %"struct.google::protobuf::internal::RepeatedPtrFieldBase::Rep"*, %"struct.google::protobuf::internal::RepeatedPtrFieldBase::Rep"** %48, align 8
  %94 = getelementptr inbounds %"struct.google::protobuf::internal::RepeatedPtrFieldBase::Rep", %"struct.google::protobuf::internal::RepeatedPtrFieldBase::Rep"* %93, i64 0, i32 0
  %95 = load i32, i32* %94, align 8
  %96 = icmp slt i32 %95, %92
  br i1 %96, label %97, label %98

97:                                               ; preds = %90
  store i32 %92, i32* %94, align 8
  br label %98

98:                                               ; preds = %38, %90, %97
  %99 = getelementptr inbounds %"class.in_memory_url_index::InMemoryURLIndexCacheItem_WordMapItem", %"class.in_memory_url_index::InMemoryURLIndexCacheItem_WordMapItem"* %1, i64 0, i32 1, i32 0, i64 0
  %100 = load i32, i32* %99, align 4
  %101 = and i32 %100, 1
  %102 = icmp eq i32 %101, 0
  br i1 %102, label %110, label %103

103:                                              ; preds = %98
  %104 = getelementptr inbounds %"class.in_memory_url_index::InMemoryURLIndexCacheItem_WordMapItem", %"class.in_memory_url_index::InMemoryURLIndexCacheItem_WordMapItem"* %1, i64 0, i32 4
  %105 = load i32, i32* %104, align 8
  %106 = getelementptr inbounds %"class.in_memory_url_index::InMemoryURLIndexCacheItem_WordMapItem", %"class.in_memory_url_index::InMemoryURLIndexCacheItem_WordMapItem"* %0, i64 0, i32 1, i32 0, i64 0
  %107 = load i32, i32* %106, align 4
  %108 = or i32 %107, 1
  store i32 %108, i32* %106, align 4
  %109 = getelementptr inbounds %"class.in_memory_url_index::InMemoryURLIndexCacheItem_WordMapItem", %"class.in_memory_url_index::InMemoryURLIndexCacheItem_WordMapItem"* %0, i64 0, i32 4
  store i32 %105, i32* %109, align 8
  br label %110

110:                                              ; preds = %98, %103
  ret void
}

; Function Attrs: nounwind ssp uwtable
define hidden void @_ZN19in_memory_url_index37InMemoryURLIndexCacheItem_WordMapItem8CopyFromERKS0_(%"class.in_memory_url_index::InMemoryURLIndexCacheItem_WordMapItem"*, %"class.in_memory_url_index::InMemoryURLIndexCacheItem_WordMapItem"* readonly dereferenceable(56)) local_unnamed_addr #0 align 2 {
  %3 = icmp eq %"class.in_memory_url_index::InMemoryURLIndexCacheItem_WordMapItem"* %1, %0
  br i1 %3, label %5, label %4

4:                                                ; preds = %2
  tail call void @_ZN19in_memory_url_index37InMemoryURLIndexCacheItem_WordMapItem5ClearEv(%"class.in_memory_url_index::InMemoryURLIndexCacheItem_WordMapItem"* %0)
  tail call void @_ZN19in_memory_url_index37InMemoryURLIndexCacheItem_WordMapItem9MergeFromERKS0_(%"class.in_memory_url_index::InMemoryURLIndexCacheItem_WordMapItem"* %0, %"class.in_memory_url_index::InMemoryURLIndexCacheItem_WordMapItem"* dereferenceable(56) %1)
  br label %5

5:                                                ; preds = %2, %4
  ret void
}

; Function Attrs: norecurse nounwind readonly ssp uwtable
define hidden zeroext i1 @_ZNK19in_memory_url_index37InMemoryURLIndexCacheItem_WordMapItem13IsInitializedEv(%"class.in_memory_url_index::InMemoryURLIndexCacheItem_WordMapItem"* nocapture readonly) unnamed_addr #7 align 2 {
  %2 = getelementptr inbounds %"class.in_memory_url_index::InMemoryURLIndexCacheItem_WordMapItem", %"class.in_memory_url_index::InMemoryURLIndexCacheItem_WordMapItem"* %0, i64 0, i32 1, i32 0, i64 0
  %3 = load i32, i32* %2, align 4
  %4 = and i32 %3, 1
  %5 = icmp eq i32 %4, 0
  br i1 %5, label %24, label %6

6:                                                ; preds = %1
  %7 = getelementptr inbounds %"class.in_memory_url_index::InMemoryURLIndexCacheItem_WordMapItem", %"class.in_memory_url_index::InMemoryURLIndexCacheItem_WordMapItem"* %0, i64 0, i32 3, i32 0, i32 1
  %8 = load i32, i32* %7, align 8
  %9 = getelementptr inbounds %"class.in_memory_url_index::InMemoryURLIndexCacheItem_WordMapItem", %"class.in_memory_url_index::InMemoryURLIndexCacheItem_WordMapItem"* %0, i64 0, i32 3, i32 0, i32 3
  %10 = load %"struct.google::protobuf::internal::RepeatedPtrFieldBase::Rep"*, %"struct.google::protobuf::internal::RepeatedPtrFieldBase::Rep"** %9, align 8
  %11 = sext i32 %8 to i64
  br label %12

12:                                               ; preds = %16, %6
  %13 = phi i64 [ %14, %16 ], [ %11, %6 ]
  %14 = add nsw i64 %13, -1
  %15 = icmp sgt i64 %13, 0
  br i1 %15, label %16, label %24

16:                                               ; preds = %12
  %17 = getelementptr inbounds %"struct.google::protobuf::internal::RepeatedPtrFieldBase::Rep", %"struct.google::protobuf::internal::RepeatedPtrFieldBase::Rep"* %10, i64 0, i32 1, i64 %14
  %18 = bitcast i8** %17 to %"class.in_memory_url_index::InMemoryURLIndexCacheItem_WordMapItem_WordMapEntry"**
  %19 = load %"class.in_memory_url_index::InMemoryURLIndexCacheItem_WordMapItem_WordMapEntry"*, %"class.in_memory_url_index::InMemoryURLIndexCacheItem_WordMapItem_WordMapEntry"** %18, align 8
  %20 = getelementptr inbounds %"class.in_memory_url_index::InMemoryURLIndexCacheItem_WordMapItem_WordMapEntry", %"class.in_memory_url_index::InMemoryURLIndexCacheItem_WordMapItem_WordMapEntry"* %19, i64 0, i32 1, i32 0, i64 0
  %21 = load i32, i32* %20, align 4
  %22 = and i32 %21, 3
  %23 = icmp eq i32 %22, 3
  br i1 %23, label %12, label %24

24:                                               ; preds = %16, %12, %1
  %25 = phi i1 [ false, %1 ], [ true, %12 ], [ false, %16 ]
  ret i1 %25
}

; Function Attrs: nounwind ssp uwtable
define hidden void @_ZN19in_memory_url_index37InMemoryURLIndexCacheItem_WordMapItem12InternalSwapEPS0_(%"class.in_memory_url_index::InMemoryURLIndexCacheItem_WordMapItem"*, %"class.in_memory_url_index::InMemoryURLIndexCacheItem_WordMapItem"*) local_unnamed_addr #0 align 2 {
  %3 = getelementptr inbounds %"class.in_memory_url_index::InMemoryURLIndexCacheItem_WordMapItem", %"class.in_memory_url_index::InMemoryURLIndexCacheItem_WordMapItem"* %0, i64 0, i32 0, i32 1
  %4 = getelementptr inbounds %"class.in_memory_url_index::InMemoryURLIndexCacheItem_WordMapItem", %"class.in_memory_url_index::InMemoryURLIndexCacheItem_WordMapItem"* %1, i64 0, i32 0, i32 1
  %5 = bitcast %"class.google::protobuf::internal::InternalMetadata"* %3 to i64*
  %6 = load i64, i64* %5, align 8
  %7 = bitcast %"class.google::protobuf::internal::InternalMetadata"* %4 to i64*
  %8 = load i64, i64* %7, align 8
  %9 = or i64 %8, %6
  %10 = and i64 %9, 1
  %11 = icmp eq i64 %10, 0
  br i1 %11, label %43, label %12

12:                                               ; preds = %2
  %13 = and i64 %8, 1
  %14 = icmp eq i64 %13, 0
  br i1 %14, label %19, label %15, !prof !3

15:                                               ; preds = %12
  %16 = and i64 %8, -2
  %17 = inttoptr i64 %16 to %"struct.google::protobuf::internal::InternalMetadata::Container"*
  %18 = getelementptr inbounds %"struct.google::protobuf::internal::InternalMetadata::Container", %"struct.google::protobuf::internal::InternalMetadata::Container"* %17, i64 0, i32 1
  br label %22

19:                                               ; preds = %12
  %20 = tail call %"class.std::__1::basic_string"* @_ZN6google8protobuf8internal16InternalMetadata27mutable_unknown_fields_slowINSt3__112basic_stringIcNS4_11char_traitsIcEENS4_9allocatorIcEEEEEEPT_v(%"class.google::protobuf::internal::InternalMetadata"* %4) #14
  %21 = load i64, i64* %5, align 8
  br label %22

22:                                               ; preds = %19, %15
  %23 = phi i64 [ %6, %15 ], [ %21, %19 ]
  %24 = phi %"class.std::__1::basic_string"* [ %18, %15 ], [ %20, %19 ]
  %25 = and i64 %23, 1
  %26 = icmp eq i64 %25, 0
  br i1 %26, label %31, label %27, !prof !3

27:                                               ; preds = %22
  %28 = and i64 %23, -2
  %29 = inttoptr i64 %28 to %"struct.google::protobuf::internal::InternalMetadata::Container"*
  %30 = getelementptr inbounds %"struct.google::protobuf::internal::InternalMetadata::Container", %"struct.google::protobuf::internal::InternalMetadata::Container"* %29, i64 0, i32 1
  br label %33

31:                                               ; preds = %22
  %32 = tail call %"class.std::__1::basic_string"* @_ZN6google8protobuf8internal16InternalMetadata27mutable_unknown_fields_slowINSt3__112basic_stringIcNS4_11char_traitsIcEENS4_9allocatorIcEEEEEEPT_v(%"class.google::protobuf::internal::InternalMetadata"* %3) #14
  br label %33

33:                                               ; preds = %31, %27
  %34 = phi %"class.std::__1::basic_string"* [ %30, %27 ], [ %32, %31 ]
  %35 = bitcast %"class.std::__1::basic_string"* %34 to <2 x i64>*
  %36 = load <2 x i64>, <2 x i64>* %35, align 8
  %37 = getelementptr inbounds %"class.std::__1::basic_string", %"class.std::__1::basic_string"* %34, i64 0, i32 0, i32 0, i32 0, i32 0, i32 0, i32 2
  %38 = load i64, i64* %37, align 8
  %39 = bitcast %"class.std::__1::basic_string"* %34 to i8*
  %40 = bitcast %"class.std::__1::basic_string"* %24 to i8*
  tail call void @llvm.memcpy.p0i8.p0i8.i64(i8* align 8 %39, i8* align 8 %40, i64 24, i1 false) #14
  %41 = bitcast %"class.std::__1::basic_string"* %24 to <2 x i64>*
  store <2 x i64> %36, <2 x i64>* %41, align 8
  %42 = getelementptr inbounds %"class.std::__1::basic_string", %"class.std::__1::basic_string"* %24, i64 0, i32 0, i32 0, i32 0, i32 0, i32 0, i32 2
  store i64 %38, i64* %42, align 8
  br label %43

43:                                               ; preds = %2, %33
  %44 = getelementptr inbounds %"class.in_memory_url_index::InMemoryURLIndexCacheItem_WordMapItem", %"class.in_memory_url_index::InMemoryURLIndexCacheItem_WordMapItem"* %0, i64 0, i32 1, i32 0, i64 0
  %45 = getelementptr inbounds %"class.in_memory_url_index::InMemoryURLIndexCacheItem_WordMapItem", %"class.in_memory_url_index::InMemoryURLIndexCacheItem_WordMapItem"* %1, i64 0, i32 1, i32 0, i64 0
  %46 = load i32, i32* %44, align 4
  %47 = load i32, i32* %45, align 4
  store i32 %47, i32* %44, align 4
  store i32 %46, i32* %45, align 4
  %48 = getelementptr inbounds %"class.in_memory_url_index::InMemoryURLIndexCacheItem_WordMapItem", %"class.in_memory_url_index::InMemoryURLIndexCacheItem_WordMapItem"* %0, i64 0, i32 3, i32 0, i32 1
  %49 = bitcast i32* %48 to i8*
  %50 = getelementptr inbounds %"class.in_memory_url_index::InMemoryURLIndexCacheItem_WordMapItem", %"class.in_memory_url_index::InMemoryURLIndexCacheItem_WordMapItem"* %1, i64 0, i32 3, i32 0, i32 1
  %51 = bitcast i32* %50 to i8*
  %52 = bitcast i32* %48 to i128*
  %53 = load i128, i128* %52, align 1
  tail call void @llvm.memcpy.p0i8.p0i8.i64(i8* align 1 %49, i8* align 1 %51, i64 16, i1 false) #14
  %54 = bitcast i32* %50 to i128*
  store i128 %53, i128* %54, align 1
  %55 = getelementptr inbounds %"class.in_memory_url_index::InMemoryURLIndexCacheItem_WordMapItem", %"class.in_memory_url_index::InMemoryURLIndexCacheItem_WordMapItem"* %0, i64 0, i32 4
  %56 = getelementptr inbounds %"class.in_memory_url_index::InMemoryURLIndexCacheItem_WordMapItem", %"class.in_memory_url_index::InMemoryURLIndexCacheItem_WordMapItem"* %1, i64 0, i32 4
  %57 = load i32, i32* %55, align 4
  %58 = load i32, i32* %56, align 4
  store i32 %58, i32* %55, align 4
  store i32 %57, i32* %56, align 4
  ret void
}

; Function Attrs: nounwind ssp uwtable
define hidden void @_ZNK19in_memory_url_index37InMemoryURLIndexCacheItem_WordMapItem11GetTypeNameEv(%"class.std::__1::basic_string"* noalias sret, %"class.in_memory_url_index::InMemoryURLIndexCacheItem_WordMapItem"* nocapture readnone) unnamed_addr #0 align 2 {
  %3 = tail call i8* @_Znwm(i64 64) #15
  %4 = getelementptr inbounds %"class.std::__1::basic_string", %"class.std::__1::basic_string"* %0, i64 0, i32 0, i32 0, i32 0, i32 0, i32 0, i32 0
  store i8* %3, i8** %4, align 8
  %5 = getelementptr inbounds %"class.std::__1::basic_string", %"class.std::__1::basic_string"* %0, i64 0, i32 0, i32 0, i32 0, i32 0, i32 0, i32 1
  %6 = bitcast i64* %5 to <2 x i64>*
  store <2 x i64> <i64 57, i64 -9223372036854775744>, <2 x i64>* %6, align 8
  tail call void @llvm.memcpy.p0i8.p0i8.i64(i8* nonnull align 1 %3, i8* align 1 getelementptr inbounds ([58 x i8], [58 x i8]* @.str.16, i64 0, i64 0), i64 57, i1 false) #14
  %7 = getelementptr inbounds i8, i8* %3, i64 57
  store i8 0, i8* %7, align 1
  ret void
}

; Function Attrs: nofree norecurse nounwind ssp uwtable writeonly
define hidden void @_ZN19in_memory_url_index58InMemoryURLIndexCacheItem_CharWordMapItem_CharWordMapEntryC2EPN6google8protobuf5ArenaE(%"class.in_memory_url_index::InMemoryURLIndexCacheItem_CharWordMapItem_CharWordMapEntry"* nocapture, %"class.google::protobuf::Arena"*) unnamed_addr #9 align 2 {
  %3 = getelementptr inbounds %"class.in_memory_url_index::InMemoryURLIndexCacheItem_CharWordMapItem_CharWordMapEntry", %"class.in_memory_url_index::InMemoryURLIndexCacheItem_CharWordMapItem_CharWordMapEntry"* %0, i64 0, i32 0, i32 0
  %4 = getelementptr inbounds %"class.in_memory_url_index::InMemoryURLIndexCacheItem_CharWordMapItem_CharWordMapEntry", %"class.in_memory_url_index::InMemoryURLIndexCacheItem_CharWordMapItem_CharWordMapEntry"* %0, i64 0, i32 0, i32 1
  %5 = bitcast %"class.google::protobuf::internal::InternalMetadata"* %4 to %"class.google::protobuf::Arena"**
  store %"class.google::protobuf::Arena"* %1, %"class.google::protobuf::Arena"** %5, align 8
  store i32 (...)** bitcast (i8** getelementptr inbounds ({ [16 x i8*] }, { [16 x i8*] }* @_ZTVN19in_memory_url_index58InMemoryURLIndexCacheItem_CharWordMapItem_CharWordMapEntryE, i64 0, inrange i32 0, i64 2) to i32 (...)**), i32 (...)*** %3, align 8
  %6 = getelementptr inbounds %"class.in_memory_url_index::InMemoryURLIndexCacheItem_CharWordMapItem_CharWordMapEntry", %"class.in_memory_url_index::InMemoryURLIndexCacheItem_CharWordMapItem_CharWordMapEntry"* %0, i64 0, i32 1, i32 0, i64 0
  %7 = getelementptr inbounds %"class.in_memory_url_index::InMemoryURLIndexCacheItem_CharWordMapItem_CharWordMapEntry", %"class.in_memory_url_index::InMemoryURLIndexCacheItem_CharWordMapItem_CharWordMapEntry"* %0, i64 0, i32 3, i32 2
  %8 = bitcast i8** %7 to %"class.google::protobuf::Arena"**
  %9 = bitcast i32* %6 to i8*
  call void @llvm.memset.p0i8.i64(i8* align 4 %9, i8 0, i64 16, i1 false)
  store %"class.google::protobuf::Arena"* %1, %"class.google::protobuf::Arena"** %8, align 8
  %10 = getelementptr inbounds %"class.in_memory_url_index::InMemoryURLIndexCacheItem_CharWordMapItem_CharWordMapEntry", %"class.in_memory_url_index::InMemoryURLIndexCacheItem_CharWordMapItem_CharWordMapEntry"* %0, i64 0, i32 5
  %11 = bitcast i32* %10 to i64*
  store i64 0, i64* %11, align 1
  ret void
}

; Function Attrs: nounwind ssp uwtable
define hidden void @_ZN19in_memory_url_index58InMemoryURLIndexCacheItem_CharWordMapItem_CharWordMapEntryC2ERKS0_(%"class.in_memory_url_index::InMemoryURLIndexCacheItem_CharWordMapItem_CharWordMapEntry"*, %"class.in_memory_url_index::InMemoryURLIndexCacheItem_CharWordMapItem_CharWordMapEntry"* nocapture readonly dereferenceable(56)) unnamed_addr #0 align 2 {
  %3 = getelementptr inbounds %"class.in_memory_url_index::InMemoryURLIndexCacheItem_CharWordMapItem_CharWordMapEntry", %"class.in_memory_url_index::InMemoryURLIndexCacheItem_CharWordMapItem_CharWordMapEntry"* %0, i64 0, i32 0, i32 0
  %4 = getelementptr inbounds %"class.in_memory_url_index::InMemoryURLIndexCacheItem_CharWordMapItem_CharWordMapEntry", %"class.in_memory_url_index::InMemoryURLIndexCacheItem_CharWordMapItem_CharWordMapEntry"* %0, i64 0, i32 0, i32 1, i32 0
  store i8* null, i8** %4, align 8
  store i32 (...)** bitcast (i8** getelementptr inbounds ({ [16 x i8*] }, { [16 x i8*] }* @_ZTVN19in_memory_url_index58InMemoryURLIndexCacheItem_CharWordMapItem_CharWordMapEntryE, i64 0, inrange i32 0, i64 2) to i32 (...)**), i32 (...)*** %3, align 8
  %5 = getelementptr inbounds %"class.in_memory_url_index::InMemoryURLIndexCacheItem_CharWordMapItem_CharWordMapEntry", %"class.in_memory_url_index::InMemoryURLIndexCacheItem_CharWordMapItem_CharWordMapEntry"* %1, i64 0, i32 1, i32 0, i64 0
  %6 = getelementptr inbounds %"class.in_memory_url_index::InMemoryURLIndexCacheItem_CharWordMapItem_CharWordMapEntry", %"class.in_memory_url_index::InMemoryURLIndexCacheItem_CharWordMapItem_CharWordMapEntry"* %0, i64 0, i32 1, i32 0, i64 0
  %7 = load i32, i32* %5, align 8
  store i32 %7, i32* %6, align 8
  %8 = getelementptr inbounds %"class.in_memory_url_index::InMemoryURLIndexCacheItem_CharWordMapItem_CharWordMapEntry", %"class.in_memory_url_index::InMemoryURLIndexCacheItem_CharWordMapItem_CharWordMapEntry"* %0, i64 0, i32 2, i32 0, i32 0, i32 0, i32 0, i32 0, i32 0
  %9 = getelementptr inbounds %"class.in_memory_url_index::InMemoryURLIndexCacheItem_CharWordMapItem_CharWordMapEntry", %"class.in_memory_url_index::InMemoryURLIndexCacheItem_CharWordMapItem_CharWordMapEntry"* %0, i64 0, i32 3
  %10 = getelementptr inbounds %"class.google::protobuf::RepeatedField", %"class.google::protobuf::RepeatedField"* %9, i64 0, i32 0
  %11 = getelementptr inbounds %"class.in_memory_url_index::InMemoryURLIndexCacheItem_CharWordMapItem_CharWordMapEntry", %"class.in_memory_url_index::InMemoryURLIndexCacheItem_CharWordMapItem_CharWordMapEntry"* %1, i64 0, i32 3, i32 0
  %12 = bitcast i32* %8 to i8*
  call void @llvm.memset.p0i8.i64(i8* align 4 %12, i8 0, i64 20, i1 false)
  %13 = load i32, i32* %11, align 8
  %14 = icmp eq i32 %13, 0
  br i1 %14, label %26, label %15

15:                                               ; preds = %2
  %16 = getelementptr inbounds %"class.in_memory_url_index::InMemoryURLIndexCacheItem_CharWordMapItem_CharWordMapEntry", %"class.in_memory_url_index::InMemoryURLIndexCacheItem_CharWordMapItem_CharWordMapEntry"* %0, i64 0, i32 3, i32 2
  tail call void @_ZN6google8protobuf13RepeatedFieldIiE7ReserveEi(%"class.google::protobuf::RepeatedField"* %9, i32 %13) #14
  %17 = load i32, i32* %11, align 8
  %18 = load i8*, i8** %16, align 8
  %19 = load i32, i32* %10, align 8
  %20 = add nsw i32 %19, %17
  store i32 %20, i32* %10, align 8
  %21 = getelementptr inbounds %"class.in_memory_url_index::InMemoryURLIndexCacheItem_CharWordMapItem_CharWordMapEntry", %"class.in_memory_url_index::InMemoryURLIndexCacheItem_CharWordMapItem_CharWordMapEntry"* %1, i64 0, i32 3, i32 2
  %22 = load i8*, i8** %21, align 8
  %23 = load i32, i32* %11, align 8
  %24 = sext i32 %23 to i64
  %25 = shl nsw i64 %24, 2
  tail call void @llvm.memcpy.p0i8.p0i8.i64(i8* align 4 %18, i8* align 4 %22, i64 %25, i1 false) #14
  br label %26

26:                                               ; preds = %2, %15
  %27 = getelementptr inbounds %"class.in_memory_url_index::InMemoryURLIndexCacheItem_CharWordMapItem_CharWordMapEntry", %"class.in_memory_url_index::InMemoryURLIndexCacheItem_CharWordMapItem_CharWordMapEntry"* %0, i64 0, i32 0, i32 1
  %28 = getelementptr inbounds %"class.in_memory_url_index::InMemoryURLIndexCacheItem_CharWordMapItem_CharWordMapEntry", %"class.in_memory_url_index::InMemoryURLIndexCacheItem_CharWordMapItem_CharWordMapEntry"* %1, i64 0, i32 0, i32 1
  %29 = bitcast %"class.google::protobuf::internal::InternalMetadata"* %28 to i64*
  %30 = load i64, i64* %29, align 8
  %31 = and i64 %30, 1
  %32 = icmp eq i64 %31, 0
  br i1 %32, label %62, label %33

33:                                               ; preds = %26
  %34 = and i64 %30, -2
  %35 = inttoptr i64 %34 to %"struct.google::protobuf::internal::InternalMetadata::Container"*
  %36 = getelementptr inbounds %"struct.google::protobuf::internal::InternalMetadata::Container", %"struct.google::protobuf::internal::InternalMetadata::Container"* %35, i64 0, i32 1
  %37 = bitcast %"class.google::protobuf::internal::InternalMetadata"* %27 to i64*
  %38 = load i64, i64* %37, align 8
  %39 = and i64 %38, 1
  %40 = icmp eq i64 %39, 0
  br i1 %40, label %45, label %41, !prof !3

41:                                               ; preds = %33
  %42 = and i64 %38, -2
  %43 = inttoptr i64 %42 to %"struct.google::protobuf::internal::InternalMetadata::Container"*
  %44 = getelementptr inbounds %"struct.google::protobuf::internal::InternalMetadata::Container", %"struct.google::protobuf::internal::InternalMetadata::Container"* %43, i64 0, i32 1
  br label %47

45:                                               ; preds = %33
  %46 = tail call %"class.std::__1::basic_string"* @_ZN6google8protobuf8internal16InternalMetadata27mutable_unknown_fields_slowINSt3__112basic_stringIcNS4_11char_traitsIcEENS4_9allocatorIcEEEEEEPT_v(%"class.google::protobuf::internal::InternalMetadata"* %27) #14
  br label %47

47:                                               ; preds = %45, %41
  %48 = phi %"class.std::__1::basic_string"* [ %44, %41 ], [ %46, %45 ]
  %49 = bitcast %"class.std::__1::basic_string"* %36 to %"struct.std::__1::basic_string<char, std::__1::char_traits<char>, std::__1::allocator<char> >::__short"*
  %50 = getelementptr inbounds %"struct.std::__1::basic_string<char, std::__1::char_traits<char>, std::__1::allocator<char> >::__short", %"struct.std::__1::basic_string<char, std::__1::char_traits<char>, std::__1::allocator<char> >::__short"* %49, i64 0, i32 1, i32 0
  %51 = load i8, i8* %50, align 1
  %52 = icmp slt i8 %51, 0
  %53 = getelementptr inbounds %"class.std::__1::basic_string", %"class.std::__1::basic_string"* %36, i64 0, i32 0, i32 0, i32 0, i32 0, i32 0, i32 0
  %54 = load i8*, i8** %53, align 8
  %55 = getelementptr inbounds %"struct.google::protobuf::internal::InternalMetadata::Container", %"struct.google::protobuf::internal::InternalMetadata::Container"* %35, i64 0, i32 1, i32 0, i32 0, i32 0, i32 0, i32 0, i32 1
  %56 = load i64, i64* %55, align 8
  %57 = bitcast %"class.std::__1::basic_string"* %36 to i8*
  %58 = zext i8 %51 to i64
  %59 = select i1 %52, i8* %54, i8* %57
  %60 = select i1 %52, i64 %56, i64 %58
  %61 = tail call dereferenceable(24) %"class.std::__1::basic_string"* @_ZNSt3__112basic_stringIcNS_11char_traitsIcEENS_9allocatorIcEEE6appendEPKcm(%"class.std::__1::basic_string"* %48, i8* %59, i64 %60) #14
  br label %62

62:                                               ; preds = %26, %47
  %63 = getelementptr inbounds %"class.in_memory_url_index::InMemoryURLIndexCacheItem_CharWordMapItem_CharWordMapEntry", %"class.in_memory_url_index::InMemoryURLIndexCacheItem_CharWordMapItem_CharWordMapEntry"* %0, i64 0, i32 5
  %64 = getelementptr inbounds %"class.in_memory_url_index::InMemoryURLIndexCacheItem_CharWordMapItem_CharWordMapEntry", %"class.in_memory_url_index::InMemoryURLIndexCacheItem_CharWordMapItem_CharWordMapEntry"* %1, i64 0, i32 5
  %65 = bitcast i32* %64 to i64*
  %66 = bitcast i32* %63 to i64*
  %67 = load i64, i64* %65, align 4
  store i64 %67, i64* %66, align 4
  ret void
}

; Function Attrs: nounwind ssp uwtable
define hidden void @_ZN19in_memory_url_index58InMemoryURLIndexCacheItem_CharWordMapItem_CharWordMapEntryD2Ev(%"class.in_memory_url_index::InMemoryURLIndexCacheItem_CharWordMapItem_CharWordMapEntry"*) unnamed_addr #0 align 2 {
  %2 = getelementptr inbounds %"class.in_memory_url_index::InMemoryURLIndexCacheItem_CharWordMapItem_CharWordMapEntry", %"class.in_memory_url_index::InMemoryURLIndexCacheItem_CharWordMapItem_CharWordMapEntry"* %0, i64 0, i32 0, i32 0
  store i32 (...)** bitcast (i8** getelementptr inbounds ({ [16 x i8*] }, { [16 x i8*] }* @_ZTVN19in_memory_url_index58InMemoryURLIndexCacheItem_CharWordMapItem_CharWordMapEntryE, i64 0, inrange i32 0, i64 2) to i32 (...)**), i32 (...)*** %2, align 8
  %3 = getelementptr inbounds %"class.in_memory_url_index::InMemoryURLIndexCacheItem_CharWordMapItem_CharWordMapEntry", %"class.in_memory_url_index::InMemoryURLIndexCacheItem_CharWordMapItem_CharWordMapEntry"* %0, i64 0, i32 0, i32 1
  %4 = bitcast %"class.google::protobuf::internal::InternalMetadata"* %3 to i64*
  %5 = load i64, i64* %4, align 8
  %6 = and i64 %5, 1
  %7 = icmp eq i64 %6, 0
  br i1 %7, label %28, label %8

8:                                                ; preds = %1
  %9 = and i64 %5, -2
  %10 = inttoptr i64 %9 to %"struct.google::protobuf::internal::InternalMetadata::ContainerBase"*
  %11 = getelementptr inbounds %"struct.google::protobuf::internal::InternalMetadata::ContainerBase", %"struct.google::protobuf::internal::InternalMetadata::ContainerBase"* %10, i64 0, i32 0
  %12 = load %"class.google::protobuf::Arena"*, %"class.google::protobuf::Arena"** %11, align 8
  %13 = icmp ne %"class.google::protobuf::Arena"* %12, null
  %14 = icmp eq i64 %9, 0
  %15 = or i1 %14, %13
  br i1 %15, label %28, label %16

16:                                               ; preds = %8
  %17 = inttoptr i64 %9 to %"struct.google::protobuf::internal::InternalMetadata::Container"*
  %18 = getelementptr inbounds %"struct.google::protobuf::internal::InternalMetadata::Container", %"struct.google::protobuf::internal::InternalMetadata::Container"* %17, i64 0, i32 1
  %19 = bitcast %"class.std::__1::basic_string"* %18 to %"struct.std::__1::basic_string<char, std::__1::char_traits<char>, std::__1::allocator<char> >::__short"*
  %20 = getelementptr inbounds %"struct.std::__1::basic_string<char, std::__1::char_traits<char>, std::__1::allocator<char> >::__short", %"struct.std::__1::basic_string<char, std::__1::char_traits<char>, std::__1::allocator<char> >::__short"* %19, i64 0, i32 1, i32 0
  %21 = load i8, i8* %20, align 1
  %22 = icmp slt i8 %21, 0
  br i1 %22, label %23, label %26

23:                                               ; preds = %16
  %24 = getelementptr inbounds %"class.std::__1::basic_string", %"class.std::__1::basic_string"* %18, i64 0, i32 0, i32 0, i32 0, i32 0, i32 0, i32 0
  %25 = load i8*, i8** %24, align 8
  tail call void @_ZdlPv(i8* %25) #15
  br label %26

26:                                               ; preds = %23, %16
  %27 = inttoptr i64 %9 to i8*
  tail call void @_ZdlPv(i8* %27) #15
  br label %28

28:                                               ; preds = %1, %8, %26
  %29 = getelementptr inbounds %"class.in_memory_url_index::InMemoryURLIndexCacheItem_CharWordMapItem_CharWordMapEntry", %"class.in_memory_url_index::InMemoryURLIndexCacheItem_CharWordMapItem_CharWordMapEntry"* %0, i64 0, i32 3
  tail call void @_ZN6google8protobuf13RepeatedFieldIiED1Ev(%"class.google::protobuf::RepeatedField"* %29) #14
  ret void
}

; Function Attrs: nounwind
declare void @_ZN6google8protobuf13RepeatedFieldIiED1Ev(%"class.google::protobuf::RepeatedField"*) unnamed_addr #2

; Function Attrs: nounwind ssp uwtable
define hidden void @_ZN19in_memory_url_index58InMemoryURLIndexCacheItem_CharWordMapItem_CharWordMapEntryD0Ev(%"class.in_memory_url_index::InMemoryURLIndexCacheItem_CharWordMapItem_CharWordMapEntry"*) unnamed_addr #0 align 2 {
  %2 = getelementptr inbounds %"class.in_memory_url_index::InMemoryURLIndexCacheItem_CharWordMapItem_CharWordMapEntry", %"class.in_memory_url_index::InMemoryURLIndexCacheItem_CharWordMapItem_CharWordMapEntry"* %0, i64 0, i32 0, i32 0
  store i32 (...)** bitcast (i8** getelementptr inbounds ({ [16 x i8*] }, { [16 x i8*] }* @_ZTVN19in_memory_url_index58InMemoryURLIndexCacheItem_CharWordMapItem_CharWordMapEntryE, i64 0, inrange i32 0, i64 2) to i32 (...)**), i32 (...)*** %2, align 8
  %3 = getelementptr inbounds %"class.in_memory_url_index::InMemoryURLIndexCacheItem_CharWordMapItem_CharWordMapEntry", %"class.in_memory_url_index::InMemoryURLIndexCacheItem_CharWordMapItem_CharWordMapEntry"* %0, i64 0, i32 0, i32 1
  %4 = bitcast %"class.google::protobuf::internal::InternalMetadata"* %3 to i64*
  %5 = load i64, i64* %4, align 8
  %6 = and i64 %5, 1
  %7 = icmp eq i64 %6, 0
  br i1 %7, label %28, label %8

8:                                                ; preds = %1
  %9 = and i64 %5, -2
  %10 = inttoptr i64 %9 to %"struct.google::protobuf::internal::InternalMetadata::ContainerBase"*
  %11 = getelementptr inbounds %"struct.google::protobuf::internal::InternalMetadata::ContainerBase", %"struct.google::protobuf::internal::InternalMetadata::ContainerBase"* %10, i64 0, i32 0
  %12 = load %"class.google::protobuf::Arena"*, %"class.google::protobuf::Arena"** %11, align 8
  %13 = icmp ne %"class.google::protobuf::Arena"* %12, null
  %14 = icmp eq i64 %9, 0
  %15 = or i1 %14, %13
  br i1 %15, label %28, label %16

16:                                               ; preds = %8
  %17 = inttoptr i64 %9 to %"struct.google::protobuf::internal::InternalMetadata::Container"*
  %18 = getelementptr inbounds %"struct.google::protobuf::internal::InternalMetadata::Container", %"struct.google::protobuf::internal::InternalMetadata::Container"* %17, i64 0, i32 1
  %19 = bitcast %"class.std::__1::basic_string"* %18 to %"struct.std::__1::basic_string<char, std::__1::char_traits<char>, std::__1::allocator<char> >::__short"*
  %20 = getelementptr inbounds %"struct.std::__1::basic_string<char, std::__1::char_traits<char>, std::__1::allocator<char> >::__short", %"struct.std::__1::basic_string<char, std::__1::char_traits<char>, std::__1::allocator<char> >::__short"* %19, i64 0, i32 1, i32 0
  %21 = load i8, i8* %20, align 1
  %22 = icmp slt i8 %21, 0
  br i1 %22, label %23, label %26

23:                                               ; preds = %16
  %24 = getelementptr inbounds %"class.std::__1::basic_string", %"class.std::__1::basic_string"* %18, i64 0, i32 0, i32 0, i32 0, i32 0, i32 0, i32 0
  %25 = load i8*, i8** %24, align 8
  tail call void @_ZdlPv(i8* %25) #15
  br label %26

26:                                               ; preds = %23, %16
  %27 = inttoptr i64 %9 to i8*
  tail call void @_ZdlPv(i8* %27) #15
  br label %28

28:                                               ; preds = %1, %8, %26
  %29 = getelementptr inbounds %"class.in_memory_url_index::InMemoryURLIndexCacheItem_CharWordMapItem_CharWordMapEntry", %"class.in_memory_url_index::InMemoryURLIndexCacheItem_CharWordMapItem_CharWordMapEntry"* %0, i64 0, i32 3
  tail call void @_ZN6google8protobuf13RepeatedFieldIiED1Ev(%"class.google::protobuf::RepeatedField"* %29) #14
  %30 = bitcast %"class.in_memory_url_index::InMemoryURLIndexCacheItem_CharWordMapItem_CharWordMapEntry"* %0 to i8*
  tail call void @_ZdlPv(i8* %30) #15
  ret void
}

; Function Attrs: norecurse nounwind readnone ssp uwtable
define hidden void @_ZN19in_memory_url_index58InMemoryURLIndexCacheItem_CharWordMapItem_CharWordMapEntry9ArenaDtorEPv(i8* nocapture) local_unnamed_addr #4 align 2 {
  ret void
}

; Function Attrs: nofree norecurse nounwind ssp uwtable
define hidden void @_ZNK19in_memory_url_index58InMemoryURLIndexCacheItem_CharWordMapItem_CharWordMapEntry13SetCachedSizeEi(%"class.in_memory_url_index::InMemoryURLIndexCacheItem_CharWordMapItem_CharWordMapEntry"* nocapture, i32) local_unnamed_addr #5 align 2 {
  %3 = getelementptr inbounds %"class.in_memory_url_index::InMemoryURLIndexCacheItem_CharWordMapItem_CharWordMapEntry", %"class.in_memory_url_index::InMemoryURLIndexCacheItem_CharWordMapItem_CharWordMapEntry"* %0, i64 0, i32 2, i32 0, i32 0, i32 0, i32 0, i32 0, i32 0
  store atomic i32 %1, i32* %3 monotonic, align 4
  ret void
}

; Function Attrs: nounwind ssp uwtable
define hidden dereferenceable(56) %"class.in_memory_url_index::InMemoryURLIndexCacheItem_CharWordMapItem_CharWordMapEntry"* @_ZN19in_memory_url_index58InMemoryURLIndexCacheItem_CharWordMapItem_CharWordMapEntry16default_instanceEv() local_unnamed_addr #0 align 2 {
  %1 = load atomic i32, i32* getelementptr inbounds ({ { { { i32 } }, i32, i32, void ()* }, [0 x i8*] }, { { { { i32 } }, i32, i32, void ()* }, [0 x i8*] }* @scc_info_InMemoryURLIndexCacheItem_CharWordMapItem_CharWordMapEntry_in_5fmemory_5furl_5findex_5fcache_2eproto, i64 0, i32 0, i32 0, i32 0, i32 0) acquire, align 8
  %2 = icmp eq i32 %1, 0
  br i1 %2, label %4, label %3, !prof !2

3:                                                ; preds = %0
  tail call void @_ZN6google8protobuf8internal11InitSCCImplEPNS1_11SCCInfoBaseE(%"struct.google::protobuf::internal::SCCInfoBase"* bitcast ({ { { { i32 } }, i32, i32, void ()* }, [0 x i8*] }* @scc_info_InMemoryURLIndexCacheItem_CharWordMapItem_CharWordMapEntry_in_5fmemory_5furl_5findex_5fcache_2eproto to %"struct.google::protobuf::internal::SCCInfoBase"*)) #14
  br label %4

4:                                                ; preds = %0, %3
  ret %"class.in_memory_url_index::InMemoryURLIndexCacheItem_CharWordMapItem_CharWordMapEntry"* bitcast (%"class.in_memory_url_index::InMemoryURLIndexCacheItem_CharWordMapItem_CharWordMapEntryDefaultTypeInternal"* @_ZN19in_memory_url_index77_InMemoryURLIndexCacheItem_CharWordMapItem_CharWordMapEntry_default_instance_E to %"class.in_memory_url_index::InMemoryURLIndexCacheItem_CharWordMapItem_CharWordMapEntry"*)
}

; Function Attrs: nofree norecurse nounwind ssp uwtable
define hidden void @_ZN19in_memory_url_index58InMemoryURLIndexCacheItem_CharWordMapItem_CharWordMapEntry5ClearEv(%"class.in_memory_url_index::InMemoryURLIndexCacheItem_CharWordMapItem_CharWordMapEntry"* nocapture) unnamed_addr #5 align 2 {
  %2 = getelementptr inbounds %"class.in_memory_url_index::InMemoryURLIndexCacheItem_CharWordMapItem_CharWordMapEntry", %"class.in_memory_url_index::InMemoryURLIndexCacheItem_CharWordMapItem_CharWordMapEntry"* %0, i64 0, i32 3, i32 0
  store i32 0, i32* %2, align 8
  %3 = getelementptr inbounds %"class.in_memory_url_index::InMemoryURLIndexCacheItem_CharWordMapItem_CharWordMapEntry", %"class.in_memory_url_index::InMemoryURLIndexCacheItem_CharWordMapItem_CharWordMapEntry"* %0, i64 0, i32 1, i32 0, i64 0
  %4 = load i32, i32* %3, align 4
  %5 = and i32 %4, 3
  %6 = icmp eq i32 %5, 0
  br i1 %6, label %10, label %7

7:                                                ; preds = %1
  %8 = getelementptr inbounds %"class.in_memory_url_index::InMemoryURLIndexCacheItem_CharWordMapItem_CharWordMapEntry", %"class.in_memory_url_index::InMemoryURLIndexCacheItem_CharWordMapItem_CharWordMapEntry"* %0, i64 0, i32 5
  %9 = bitcast i32* %8 to i64*
  store i64 0, i64* %9, align 4
  br label %10

10:                                               ; preds = %1, %7
  store i32 0, i32* %3, align 4
  %11 = getelementptr inbounds %"class.in_memory_url_index::InMemoryURLIndexCacheItem_CharWordMapItem_CharWordMapEntry", %"class.in_memory_url_index::InMemoryURLIndexCacheItem_CharWordMapItem_CharWordMapEntry"* %0, i64 0, i32 0, i32 1
  %12 = bitcast %"class.google::protobuf::internal::InternalMetadata"* %11 to i64*
  %13 = load i64, i64* %12, align 8
  %14 = and i64 %13, 1
  %15 = icmp eq i64 %14, 0
  br i1 %15, label %30, label %16

16:                                               ; preds = %10
  %17 = and i64 %13, -2
  %18 = inttoptr i64 %17 to %"struct.google::protobuf::internal::InternalMetadata::Container"*
  %19 = getelementptr inbounds %"struct.google::protobuf::internal::InternalMetadata::Container", %"struct.google::protobuf::internal::InternalMetadata::Container"* %18, i64 0, i32 1
  %20 = bitcast %"class.std::__1::basic_string"* %19 to %"struct.std::__1::basic_string<char, std::__1::char_traits<char>, std::__1::allocator<char> >::__short"*
  %21 = getelementptr inbounds %"struct.std::__1::basic_string<char, std::__1::char_traits<char>, std::__1::allocator<char> >::__short", %"struct.std::__1::basic_string<char, std::__1::char_traits<char>, std::__1::allocator<char> >::__short"* %20, i64 0, i32 1, i32 0
  %22 = load i8, i8* %21, align 1
  %23 = icmp slt i8 %22, 0
  br i1 %23, label %24, label %28

24:                                               ; preds = %16
  %25 = getelementptr inbounds %"class.std::__1::basic_string", %"class.std::__1::basic_string"* %19, i64 0, i32 0, i32 0, i32 0, i32 0, i32 0, i32 0
  %26 = load i8*, i8** %25, align 8
  store i8 0, i8* %26, align 1
  %27 = getelementptr inbounds %"struct.google::protobuf::internal::InternalMetadata::Container", %"struct.google::protobuf::internal::InternalMetadata::Container"* %18, i64 0, i32 1, i32 0, i32 0, i32 0, i32 0, i32 0, i32 1
  store i64 0, i64* %27, align 8
  br label %30

28:                                               ; preds = %16
  %29 = bitcast %"class.std::__1::basic_string"* %19 to i8*
  store i8 0, i8* %29, align 2
  store i8 0, i8* %21, align 1
  br label %30

30:                                               ; preds = %10, %24, %28
  ret void
}

; Function Attrs: argmemonly nounwind
declare void @llvm.memset.p0i8.i64(i8* nocapture writeonly, i8, i64, i1 immarg) #1

; Function Attrs: nounwind ssp uwtable
define hidden i8* @_ZN19in_memory_url_index58InMemoryURLIndexCacheItem_CharWordMapItem_CharWordMapEntry14_InternalParseEPKcPN6google8protobuf8internal12ParseContextE(%"class.in_memory_url_index::InMemoryURLIndexCacheItem_CharWordMapItem_CharWordMapEntry"*, i8*, %"class.google::protobuf::internal::ParseContext"*) unnamed_addr #0 align 2 {
  %4 = getelementptr inbounds %"class.google::protobuf::internal::ParseContext", %"class.google::protobuf::internal::ParseContext"* %2, i64 0, i32 0
  %5 = getelementptr inbounds %"class.google::protobuf::internal::ParseContext", %"class.google::protobuf::internal::ParseContext"* %2, i64 0, i32 2
  %6 = getelementptr inbounds %"class.google::protobuf::internal::ParseContext", %"class.google::protobuf::internal::ParseContext"* %2, i64 0, i32 0, i32 0
  %7 = getelementptr inbounds %"class.google::protobuf::internal::ParseContext", %"class.google::protobuf::internal::ParseContext"* %2, i64 0, i32 0, i32 1
  %8 = bitcast i8** %7 to i64*
  %9 = getelementptr inbounds %"class.google::protobuf::internal::ParseContext", %"class.google::protobuf::internal::ParseContext"* %2, i64 0, i32 0, i32 4
  %10 = getelementptr inbounds %"class.in_memory_url_index::InMemoryURLIndexCacheItem_CharWordMapItem_CharWordMapEntry", %"class.in_memory_url_index::InMemoryURLIndexCacheItem_CharWordMapItem_CharWordMapEntry"* %0, i64 0, i32 3
  %11 = getelementptr inbounds %"class.google::protobuf::RepeatedField", %"class.google::protobuf::RepeatedField"* %10, i64 0, i32 0
  %12 = getelementptr inbounds %"class.in_memory_url_index::InMemoryURLIndexCacheItem_CharWordMapItem_CharWordMapEntry", %"class.in_memory_url_index::InMemoryURLIndexCacheItem_CharWordMapItem_CharWordMapEntry"* %0, i64 0, i32 3, i32 1
  %13 = getelementptr inbounds %"class.in_memory_url_index::InMemoryURLIndexCacheItem_CharWordMapItem_CharWordMapEntry", %"class.in_memory_url_index::InMemoryURLIndexCacheItem_CharWordMapItem_CharWordMapEntry"* %0, i64 0, i32 3, i32 2
  %14 = bitcast i8** %13 to i32**
  %15 = bitcast %"class.google::protobuf::RepeatedField"* %10 to i8*
  %16 = getelementptr inbounds %"class.in_memory_url_index::InMemoryURLIndexCacheItem_CharWordMapItem_CharWordMapEntry", %"class.in_memory_url_index::InMemoryURLIndexCacheItem_CharWordMapItem_CharWordMapEntry"* %0, i64 0, i32 6
  %17 = getelementptr inbounds %"class.in_memory_url_index::InMemoryURLIndexCacheItem_CharWordMapItem_CharWordMapEntry", %"class.in_memory_url_index::InMemoryURLIndexCacheItem_CharWordMapItem_CharWordMapEntry"* %0, i64 0, i32 5
  %18 = getelementptr inbounds %"class.in_memory_url_index::InMemoryURLIndexCacheItem_CharWordMapItem_CharWordMapEntry", %"class.in_memory_url_index::InMemoryURLIndexCacheItem_CharWordMapItem_CharWordMapEntry"* %0, i64 0, i32 0, i32 1
  %19 = bitcast %"class.google::protobuf::internal::InternalMetadata"* %18 to i64*
  br label %20

20:                                               ; preds = %123, %3
  %21 = phi i8* [ %1, %3 ], [ %124, %123 ]
  %22 = phi i32 [ 0, %3 ], [ %125, %123 ]
  br label %23

23:                                               ; preds = %131, %20
  %24 = phi i8* [ %21, %20 ], [ %132, %131 ]
  %25 = load i32, i32* %5, align 4
  %26 = load i8*, i8** %6, align 8
  %27 = icmp ult i8* %24, %26
  br i1 %27, label %41, label %28, !prof !2

28:                                               ; preds = %23
  %29 = load i64, i64* %8, align 8
  %30 = ptrtoint i8* %24 to i64
  %31 = sub i64 %30, %29
  %32 = load i32, i32* %9, align 4
  %33 = sext i32 %32 to i64
  %34 = icmp eq i64 %31, %33
  br i1 %34, label %197, label %35

35:                                               ; preds = %28
  %36 = tail call { i8*, i8 } @_ZN6google8protobuf8internal18EpsCopyInputStream12DoneFallbackEPKci(%"class.google::protobuf::internal::EpsCopyInputStream"* %4, i8* %24, i32 %25) #14
  %37 = extractvalue { i8*, i8 } %36, 0
  %38 = extractvalue { i8*, i8 } %36, 1
  %39 = and i8 %38, 1
  %40 = icmp eq i8 %39, 0
  br i1 %40, label %41, label %197

41:                                               ; preds = %35, %23
  %42 = phi i8* [ %37, %35 ], [ %24, %23 ]
  %43 = load i8, i8* %42, align 1
  %44 = zext i8 %43 to i32
  %45 = icmp sgt i8 %43, -1
  %46 = getelementptr inbounds i8, i8* %42, i64 1
  br i1 %45, label %60, label %47

47:                                               ; preds = %41
  %48 = load i8, i8* %46, align 1
  %49 = zext i8 %48 to i32
  %50 = shl nuw nsw i32 %49, 7
  %51 = add nsw i32 %44, -128
  %52 = add nsw i32 %51, %50
  %53 = icmp sgt i8 %48, -1
  br i1 %53, label %54, label %56

54:                                               ; preds = %47
  %55 = getelementptr inbounds i8, i8* %42, i64 2
  br label %60

56:                                               ; preds = %47
  %57 = tail call { i8*, i32 } @_ZN6google8protobuf8internal15ReadTagFallbackEPKcj(i8* %42, i32 %52) #14
  %58 = extractvalue { i8*, i32 } %57, 0
  %59 = extractvalue { i8*, i32 } %57, 1
  br label %60

60:                                               ; preds = %41, %54, %56
  %61 = phi i32 [ %52, %54 ], [ %59, %56 ], [ %44, %41 ]
  %62 = phi i8* [ %55, %54 ], [ %58, %56 ], [ %46, %41 ]
  %63 = icmp eq i8* %62, null
  br i1 %63, label %197, label %64, !prof !3

64:                                               ; preds = %60
  %65 = lshr i32 %61, 3
  switch i32 %65, label %175 [
    i32 1, label %66
    i32 2, label %92
    i32 3, label %126
  ]

66:                                               ; preds = %64
  %67 = and i32 %61, 255
  %68 = icmp eq i32 %67, 8
  br i1 %68, label %69, label %175, !prof !2

69:                                               ; preds = %66
  %70 = or i32 %22, 1
  %71 = load i8, i8* %62, align 1
  %72 = zext i8 %71 to i32
  %73 = icmp slt i8 %71, 0
  %74 = getelementptr inbounds i8, i8* %62, i64 1
  br i1 %73, label %75, label %88

75:                                               ; preds = %69
  %76 = load i8, i8* %74, align 1
  %77 = zext i8 %76 to i32
  %78 = shl nuw nsw i32 %77, 7
  %79 = add nsw i32 %72, -128
  %80 = add nsw i32 %79, %78
  %81 = icmp slt i8 %76, 0
  br i1 %81, label %84, label %82

82:                                               ; preds = %75
  %83 = getelementptr inbounds i8, i8* %62, i64 2
  br label %88

84:                                               ; preds = %75
  %85 = tail call { i8*, i32 } @_ZN6google8protobuf8internal17VarintParseSlow32EPKcj(i8* nonnull %62, i32 %80) #14
  %86 = extractvalue { i8*, i32 } %85, 0
  %87 = extractvalue { i8*, i32 } %85, 1
  br label %88

88:                                               ; preds = %69, %82, %84
  %89 = phi i32 [ %87, %84 ], [ %80, %82 ], [ %72, %69 ]
  %90 = phi i8* [ %86, %84 ], [ %83, %82 ], [ %74, %69 ]
  store i32 %89, i32* %17, align 4
  %91 = icmp eq i8* %90, null
  br i1 %91, label %197, label %123

92:                                               ; preds = %64
  %93 = and i32 %61, 255
  %94 = icmp eq i32 %93, 16
  br i1 %94, label %95, label %175, !prof !2

95:                                               ; preds = %92
  %96 = or i32 %22, 2
  %97 = load i8, i8* %62, align 1
  %98 = icmp slt i8 %97, 0
  br i1 %98, label %102, label %99

99:                                               ; preds = %95
  %100 = zext i8 %97 to i64
  %101 = getelementptr inbounds i8, i8* %62, i64 1
  br label %118

102:                                              ; preds = %95
  %103 = zext i8 %97 to i32
  %104 = getelementptr inbounds i8, i8* %62, i64 1
  %105 = load i8, i8* %104, align 1
  %106 = zext i8 %105 to i32
  %107 = shl nuw nsw i32 %106, 7
  %108 = add nsw i32 %103, -128
  %109 = add nuw nsw i32 %108, %107
  %110 = icmp slt i8 %105, 0
  br i1 %110, label %114, label %111

111:                                              ; preds = %102
  %112 = zext i32 %109 to i64
  %113 = getelementptr inbounds i8, i8* %62, i64 2
  br label %118

114:                                              ; preds = %102
  %115 = tail call { i8*, i64 } @_ZN6google8protobuf8internal17VarintParseSlow64EPKcj(i8* nonnull %62, i32 %109) #14
  %116 = extractvalue { i8*, i64 } %115, 0
  %117 = extractvalue { i8*, i64 } %115, 1
  br label %118

118:                                              ; preds = %99, %111, %114
  %119 = phi i64 [ %117, %114 ], [ %112, %111 ], [ %100, %99 ]
  %120 = phi i8* [ %116, %114 ], [ %113, %111 ], [ %101, %99 ]
  %121 = trunc i64 %119 to i32
  store i32 %121, i32* %16, align 8
  %122 = icmp eq i8* %120, null
  br i1 %122, label %197, label %123

123:                                              ; preds = %118, %88
  %124 = phi i8* [ %90, %88 ], [ %120, %118 ]
  %125 = phi i32 [ %70, %88 ], [ %96, %118 ]
  br label %20

126:                                              ; preds = %64
  %127 = trunc i32 %61 to i8
  switch i8 %127, label %175 [
    i8 26, label %128
    i8 24, label %133
  ], !prof !5

128:                                              ; preds = %126
  %129 = tail call i8* @_ZN6google8protobuf8internal17PackedInt32ParserEPvPKcPNS1_12ParseContextE(i8* %15, i8* nonnull %62, %"class.google::protobuf::internal::ParseContext"* %2) #14
  %130 = icmp eq i8* %129, null
  br i1 %130, label %197, label %131, !prof !3

131:                                              ; preds = %128, %172, %193
  %132 = phi i8* [ %195, %193 ], [ %157, %172 ], [ %129, %128 ]
  br label %23

133:                                              ; preds = %126
  %134 = load i8, i8* %62, align 1
  %135 = icmp slt i8 %134, 0
  br i1 %135, label %139, label %136

136:                                              ; preds = %133
  %137 = zext i8 %134 to i64
  %138 = getelementptr inbounds i8, i8* %62, i64 1
  br label %155

139:                                              ; preds = %133
  %140 = zext i8 %134 to i32
  %141 = getelementptr inbounds i8, i8* %62, i64 1
  %142 = load i8, i8* %141, align 1
  %143 = zext i8 %142 to i32
  %144 = shl nuw nsw i32 %143, 7
  %145 = add nsw i32 %140, -128
  %146 = add nuw nsw i32 %145, %144
  %147 = icmp slt i8 %142, 0
  br i1 %147, label %151, label %148

148:                                              ; preds = %139
  %149 = zext i32 %146 to i64
  %150 = getelementptr inbounds i8, i8* %62, i64 2
  br label %155

151:                                              ; preds = %139
  %152 = tail call { i8*, i64 } @_ZN6google8protobuf8internal17VarintParseSlow64EPKcj(i8* nonnull %62, i32 %146) #14
  %153 = extractvalue { i8*, i64 } %152, 0
  %154 = extractvalue { i8*, i64 } %152, 1
  br label %155

155:                                              ; preds = %136, %148, %151
  %156 = phi i64 [ %154, %151 ], [ %149, %148 ], [ %137, %136 ]
  %157 = phi i8* [ %153, %151 ], [ %150, %148 ], [ %138, %136 ]
  %158 = trunc i64 %156 to i32
  %159 = load i32, i32* %11, align 8
  %160 = load i32, i32* %12, align 4
  %161 = icmp eq i32 %159, %160
  br i1 %161, label %162, label %167

162:                                              ; preds = %155
  %163 = add i32 %159, 1
  tail call void @_ZN6google8protobuf13RepeatedFieldIiE7ReserveEi(%"class.google::protobuf::RepeatedField"* %10, i32 %163) #14
  %164 = load i32*, i32** %14, align 8
  %165 = zext i32 %159 to i64
  %166 = getelementptr inbounds i32, i32* %164, i64 %165
  store i32 %158, i32* %166, align 4
  br label %172

167:                                              ; preds = %155
  %168 = load i32*, i32** %14, align 8
  %169 = zext i32 %159 to i64
  %170 = getelementptr inbounds i32, i32* %168, i64 %169
  store i32 %158, i32* %170, align 4
  %171 = add i32 %159, 1
  br label %172

172:                                              ; preds = %162, %167
  %173 = phi i32 [ %171, %167 ], [ %163, %162 ]
  store i32 %173, i32* %11, align 8
  %174 = icmp eq i8* %157, null
  br i1 %174, label %197, label %131, !prof !3

175:                                              ; preds = %126, %64, %92, %66
  %176 = and i32 %61, 7
  %177 = icmp eq i32 %176, 4
  %178 = icmp eq i32 %61, 0
  %179 = or i1 %178, %177
  br i1 %179, label %180, label %183

180:                                              ; preds = %175
  %181 = add i32 %61, -1
  %182 = getelementptr inbounds %"class.google::protobuf::internal::ParseContext", %"class.google::protobuf::internal::ParseContext"* %2, i64 0, i32 0, i32 8
  store i32 %181, i32* %182, align 8
  br label %197

183:                                              ; preds = %175
  %184 = load i64, i64* %19, align 8
  %185 = and i64 %184, 1
  %186 = icmp eq i64 %185, 0
  br i1 %186, label %191, label %187, !prof !3

187:                                              ; preds = %183
  %188 = and i64 %184, -2
  %189 = inttoptr i64 %188 to %"struct.google::protobuf::internal::InternalMetadata::Container"*
  %190 = getelementptr inbounds %"struct.google::protobuf::internal::InternalMetadata::Container", %"struct.google::protobuf::internal::InternalMetadata::Container"* %189, i64 0, i32 1
  br label %193

191:                                              ; preds = %183
  %192 = tail call %"class.std::__1::basic_string"* @_ZN6google8protobuf8internal16InternalMetadata27mutable_unknown_fields_slowINSt3__112basic_stringIcNS4_11char_traitsIcEENS4_9allocatorIcEEEEEEPT_v(%"class.google::protobuf::internal::InternalMetadata"* %18) #14
  br label %193

193:                                              ; preds = %187, %191
  %194 = phi %"class.std::__1::basic_string"* [ %190, %187 ], [ %192, %191 ]
  %195 = tail call i8* @_ZN6google8protobuf8internal17UnknownFieldParseEjPNSt3__112basic_stringIcNS2_11char_traitsIcEENS2_9allocatorIcEEEEPKcPNS1_12ParseContextE(i32 %61, %"class.std::__1::basic_string"* %194, i8* nonnull %62, %"class.google::protobuf::internal::ParseContext"* %2) #14
  %196 = icmp eq i8* %195, null
  br i1 %196, label %197, label %131

197:                                              ; preds = %35, %193, %28, %60, %128, %172, %118, %88, %180
  %198 = phi i8* [ %62, %180 ], [ %37, %35 ], [ null, %60 ], [ null, %128 ], [ null, %172 ], [ %24, %28 ], [ null, %193 ], [ null, %118 ], [ null, %88 ]
  %199 = phi i32 [ %22, %180 ], [ %22, %35 ], [ %22, %193 ], [ %22, %28 ], [ %22, %60 ], [ %22, %128 ], [ %22, %172 ], [ %70, %88 ], [ %96, %118 ]
  %200 = getelementptr inbounds %"class.in_memory_url_index::InMemoryURLIndexCacheItem_CharWordMapItem_CharWordMapEntry", %"class.in_memory_url_index::InMemoryURLIndexCacheItem_CharWordMapItem_CharWordMapEntry"* %0, i64 0, i32 1, i32 0, i64 0
  %201 = load i32, i32* %200, align 4
  %202 = or i32 %201, %199
  store i32 %202, i32* %200, align 4
  ret i8* %198
}

declare i8* @_ZN6google8protobuf8internal17PackedInt32ParserEPvPKcPNS1_12ParseContextE(i8*, i8*, %"class.google::protobuf::internal::ParseContext"*) local_unnamed_addr #6

; Function Attrs: nounwind ssp uwtable
define hidden i8* @_ZNK19in_memory_url_index58InMemoryURLIndexCacheItem_CharWordMapItem_CharWordMapEntry18_InternalSerializeEPhPN6google8protobuf2io19EpsCopyOutputStreamE(%"class.in_memory_url_index::InMemoryURLIndexCacheItem_CharWordMapItem_CharWordMapEntry"* nocapture readonly, i8*, %"class.google::protobuf::io::EpsCopyOutputStream"*) unnamed_addr #0 align 2 {
  %4 = getelementptr inbounds %"class.in_memory_url_index::InMemoryURLIndexCacheItem_CharWordMapItem_CharWordMapEntry", %"class.in_memory_url_index::InMemoryURLIndexCacheItem_CharWordMapItem_CharWordMapEntry"* %0, i64 0, i32 1, i32 0, i64 0
  %5 = load i32, i32* %4, align 4
  %6 = and i32 %5, 1
  %7 = icmp eq i32 %6, 0
  br i1 %7, label %44, label %8

8:                                                ; preds = %3
  %9 = getelementptr inbounds %"class.google::protobuf::io::EpsCopyOutputStream", %"class.google::protobuf::io::EpsCopyOutputStream"* %2, i64 0, i32 0
  %10 = load i8*, i8** %9, align 8
  %11 = icmp ugt i8* %10, %1
  br i1 %11, label %14, label %12, !prof !2

12:                                               ; preds = %8
  %13 = tail call i8* @_ZN6google8protobuf2io19EpsCopyOutputStream19EnsureSpaceFallbackEPh(%"class.google::protobuf::io::EpsCopyOutputStream"* %2, i8* %1) #14
  br label %14

14:                                               ; preds = %8, %12
  %15 = phi i8* [ %13, %12 ], [ %1, %8 ]
  %16 = getelementptr inbounds %"class.in_memory_url_index::InMemoryURLIndexCacheItem_CharWordMapItem_CharWordMapEntry", %"class.in_memory_url_index::InMemoryURLIndexCacheItem_CharWordMapItem_CharWordMapEntry"* %0, i64 0, i32 5
  %17 = load i32, i32* %16, align 4
  store i8 8, i8* %15, align 1
  %18 = getelementptr inbounds i8, i8* %15, i64 1
  %19 = icmp ult i32 %17, 128
  %20 = trunc i32 %17 to i8
  br i1 %19, label %21, label %23

21:                                               ; preds = %14
  store i8 %20, i8* %18, align 1
  %22 = getelementptr inbounds i8, i8* %15, i64 2
  br label %44

23:                                               ; preds = %14
  %24 = or i8 %20, -128
  store i8 %24, i8* %18, align 1
  %25 = lshr i32 %17, 7
  %26 = icmp ult i32 %17, 16384
  br i1 %26, label %27, label %31

27:                                               ; preds = %23
  %28 = trunc i32 %25 to i8
  %29 = getelementptr inbounds i8, i8* %15, i64 2
  store i8 %28, i8* %29, align 1
  %30 = getelementptr inbounds i8, i8* %15, i64 3
  br label %44

31:                                               ; preds = %23
  %32 = getelementptr inbounds i8, i8* %15, i64 2
  br label %33

33:                                               ; preds = %33, %31
  %34 = phi i32 [ %25, %31 ], [ %38, %33 ]
  %35 = phi i8* [ %32, %31 ], [ %39, %33 ]
  %36 = trunc i32 %34 to i8
  %37 = or i8 %36, -128
  store i8 %37, i8* %35, align 1
  %38 = lshr i32 %34, 7
  %39 = getelementptr inbounds i8, i8* %35, i64 1
  %40 = icmp ugt i32 %34, 16383
  br i1 %40, label %33, label %41, !prof !3

41:                                               ; preds = %33
  %42 = trunc i32 %38 to i8
  %43 = getelementptr inbounds i8, i8* %35, i64 2
  store i8 %42, i8* %39, align 1
  br label %44

44:                                               ; preds = %41, %27, %21, %3
  %45 = phi i8* [ %1, %3 ], [ %22, %21 ], [ %30, %27 ], [ %43, %41 ]
  %46 = and i32 %5, 2
  %47 = icmp eq i32 %46, 0
  br i1 %47, label %85, label %48

48:                                               ; preds = %44
  %49 = getelementptr inbounds %"class.google::protobuf::io::EpsCopyOutputStream", %"class.google::protobuf::io::EpsCopyOutputStream"* %2, i64 0, i32 0
  %50 = load i8*, i8** %49, align 8
  %51 = icmp ugt i8* %50, %45
  br i1 %51, label %54, label %52, !prof !2

52:                                               ; preds = %48
  %53 = tail call i8* @_ZN6google8protobuf2io19EpsCopyOutputStream19EnsureSpaceFallbackEPh(%"class.google::protobuf::io::EpsCopyOutputStream"* %2, i8* %45) #14
  br label %54

54:                                               ; preds = %48, %52
  %55 = phi i8* [ %53, %52 ], [ %45, %48 ]
  %56 = getelementptr inbounds %"class.in_memory_url_index::InMemoryURLIndexCacheItem_CharWordMapItem_CharWordMapEntry", %"class.in_memory_url_index::InMemoryURLIndexCacheItem_CharWordMapItem_CharWordMapEntry"* %0, i64 0, i32 6
  %57 = load i32, i32* %56, align 8
  store i8 16, i8* %55, align 1
  %58 = getelementptr inbounds i8, i8* %55, i64 1
  %59 = icmp ult i32 %57, 128
  %60 = trunc i32 %57 to i8
  br i1 %59, label %61, label %63

61:                                               ; preds = %54
  store i8 %60, i8* %58, align 1
  %62 = getelementptr inbounds i8, i8* %55, i64 2
  br label %85

63:                                               ; preds = %54
  %64 = sext i32 %57 to i64
  %65 = or i8 %60, -128
  store i8 %65, i8* %58, align 1
  %66 = lshr i64 %64, 7
  %67 = icmp ult i32 %57, 16384
  br i1 %67, label %68, label %72

68:                                               ; preds = %63
  %69 = trunc i64 %66 to i8
  %70 = getelementptr inbounds i8, i8* %55, i64 2
  store i8 %69, i8* %70, align 1
  %71 = getelementptr inbounds i8, i8* %55, i64 3
  br label %85

72:                                               ; preds = %63
  %73 = getelementptr inbounds i8, i8* %55, i64 2
  br label %74

74:                                               ; preds = %74, %72
  %75 = phi i64 [ %66, %72 ], [ %79, %74 ]
  %76 = phi i8* [ %73, %72 ], [ %80, %74 ]
  %77 = trunc i64 %75 to i8
  %78 = or i8 %77, -128
  store i8 %78, i8* %76, align 1
  %79 = lshr i64 %75, 7
  %80 = getelementptr inbounds i8, i8* %76, i64 1
  %81 = icmp ugt i64 %75, 16383
  br i1 %81, label %74, label %82, !prof !3

82:                                               ; preds = %74
  %83 = trunc i64 %79 to i8
  %84 = getelementptr inbounds i8, i8* %76, i64 2
  store i8 %83, i8* %80, align 1
  br label %85

85:                                               ; preds = %82, %68, %61, %44
  %86 = phi i8* [ %45, %44 ], [ %62, %61 ], [ %71, %68 ], [ %84, %82 ]
  %87 = getelementptr inbounds %"class.in_memory_url_index::InMemoryURLIndexCacheItem_CharWordMapItem_CharWordMapEntry", %"class.in_memory_url_index::InMemoryURLIndexCacheItem_CharWordMapItem_CharWordMapEntry"* %0, i64 0, i32 4, i32 0, i32 0, i32 0, i32 0, i32 0
  %88 = load atomic i32, i32* %87 monotonic, align 4
  %89 = icmp sgt i32 %88, 0
  br i1 %89, label %90, label %163

90:                                               ; preds = %85
  %91 = getelementptr inbounds %"class.google::protobuf::io::EpsCopyOutputStream", %"class.google::protobuf::io::EpsCopyOutputStream"* %2, i64 0, i32 0
  %92 = load i8*, i8** %91, align 8
  %93 = icmp ugt i8* %92, %86
  br i1 %93, label %96, label %94, !prof !2

94:                                               ; preds = %90
  %95 = tail call i8* @_ZN6google8protobuf2io19EpsCopyOutputStream19EnsureSpaceFallbackEPh(%"class.google::protobuf::io::EpsCopyOutputStream"* %2, i8* %86) #14
  br label %96

96:                                               ; preds = %94, %90
  %97 = phi i8* [ %95, %94 ], [ %86, %90 ]
  store i8 26, i8* %97, align 1
  %98 = getelementptr inbounds i8, i8* %97, i64 1
  %99 = icmp ugt i32 %88, 127
  %100 = trunc i32 %88 to i8
  br i1 %99, label %101, label %112, !prof !3

101:                                              ; preds = %96, %101
  %102 = phi i8 [ %109, %101 ], [ %100, %96 ]
  %103 = phi i8* [ %107, %101 ], [ %98, %96 ]
  %104 = phi i32 [ %106, %101 ], [ %88, %96 ]
  %105 = or i8 %102, -128
  store i8 %105, i8* %103, align 1
  %106 = lshr i32 %104, 7
  %107 = getelementptr inbounds i8, i8* %103, i64 1
  %108 = icmp ugt i32 %104, 16383
  %109 = trunc i32 %106 to i8
  br i1 %108, label %101, label %110, !prof !3

110:                                              ; preds = %101
  %111 = trunc i32 %106 to i8
  br label %112

112:                                              ; preds = %110, %96
  %113 = phi i8* [ %98, %96 ], [ %107, %110 ]
  %114 = phi i8 [ %100, %96 ], [ %111, %110 ]
  %115 = getelementptr inbounds i8, i8* %113, i64 1
  store i8 %114, i8* %113, align 1
  %116 = getelementptr inbounds %"class.in_memory_url_index::InMemoryURLIndexCacheItem_CharWordMapItem_CharWordMapEntry", %"class.in_memory_url_index::InMemoryURLIndexCacheItem_CharWordMapItem_CharWordMapEntry"* %0, i64 0, i32 3, i32 2
  %117 = bitcast i8** %116 to i32**
  %118 = load i32*, i32** %117, align 8
  %119 = getelementptr inbounds %"class.in_memory_url_index::InMemoryURLIndexCacheItem_CharWordMapItem_CharWordMapEntry", %"class.in_memory_url_index::InMemoryURLIndexCacheItem_CharWordMapItem_CharWordMapEntry"* %0, i64 0, i32 3, i32 0
  %120 = load i32, i32* %119, align 8
  %121 = sext i32 %120 to i64
  %122 = getelementptr inbounds i32, i32* %118, i64 %121
  br label %123

123:                                              ; preds = %160, %112
  %124 = phi i8* [ %115, %112 ], [ %161, %160 ]
  %125 = phi i32* [ %118, %112 ], [ %132, %160 ]
  %126 = load i8*, i8** %91, align 8
  %127 = icmp ugt i8* %126, %124
  br i1 %127, label %130, label %128, !prof !2

128:                                              ; preds = %123
  %129 = tail call i8* @_ZN6google8protobuf2io19EpsCopyOutputStream19EnsureSpaceFallbackEPh(%"class.google::protobuf::io::EpsCopyOutputStream"* %2, i8* %124) #14
  br label %130

130:                                              ; preds = %128, %123
  %131 = phi i8* [ %129, %128 ], [ %124, %123 ]
  %132 = getelementptr inbounds i32, i32* %125, i64 1
  %133 = load i32, i32* %125, align 4
  %134 = icmp ult i32 %133, 128
  %135 = trunc i32 %133 to i8
  br i1 %134, label %136, label %138

136:                                              ; preds = %130
  store i8 %135, i8* %131, align 1
  %137 = getelementptr inbounds i8, i8* %131, i64 1
  br label %160

138:                                              ; preds = %130
  %139 = sext i32 %133 to i64
  %140 = or i8 %135, -128
  store i8 %140, i8* %131, align 1
  %141 = lshr i64 %139, 7
  %142 = icmp ult i32 %133, 16384
  br i1 %142, label %143, label %147

143:                                              ; preds = %138
  %144 = trunc i64 %141 to i8
  %145 = getelementptr inbounds i8, i8* %131, i64 1
  store i8 %144, i8* %145, align 1
  %146 = getelementptr inbounds i8, i8* %131, i64 2
  br label %160

147:                                              ; preds = %138
  %148 = getelementptr inbounds i8, i8* %131, i64 1
  br label %149

149:                                              ; preds = %149, %147
  %150 = phi i64 [ %141, %147 ], [ %154, %149 ]
  %151 = phi i8* [ %148, %147 ], [ %155, %149 ]
  %152 = trunc i64 %150 to i8
  %153 = or i8 %152, -128
  store i8 %153, i8* %151, align 1
  %154 = lshr i64 %150, 7
  %155 = getelementptr inbounds i8, i8* %151, i64 1
  %156 = icmp ugt i64 %150, 16383
  br i1 %156, label %149, label %157, !prof !3

157:                                              ; preds = %149
  %158 = trunc i64 %154 to i8
  %159 = getelementptr inbounds i8, i8* %151, i64 2
  store i8 %158, i8* %155, align 1
  br label %160

160:                                              ; preds = %157, %143, %136
  %161 = phi i8* [ %137, %136 ], [ %146, %143 ], [ %159, %157 ]
  %162 = icmp ult i32* %132, %122
  br i1 %162, label %123, label %163

163:                                              ; preds = %160, %85
  %164 = phi i8* [ %86, %85 ], [ %161, %160 ]
  %165 = getelementptr inbounds %"class.in_memory_url_index::InMemoryURLIndexCacheItem_CharWordMapItem_CharWordMapEntry", %"class.in_memory_url_index::InMemoryURLIndexCacheItem_CharWordMapItem_CharWordMapEntry"* %0, i64 0, i32 0, i32 1
  %166 = bitcast %"class.google::protobuf::internal::InternalMetadata"* %165 to i64*
  %167 = load i64, i64* %166, align 8
  %168 = and i64 %167, 1
  %169 = icmp eq i64 %168, 0
  br i1 %169, label %201, label %170, !prof !2

170:                                              ; preds = %163
  %171 = and i64 %167, -2
  %172 = inttoptr i64 %171 to %"struct.google::protobuf::internal::InternalMetadata::Container"*
  %173 = getelementptr inbounds %"struct.google::protobuf::internal::InternalMetadata::Container", %"struct.google::protobuf::internal::InternalMetadata::Container"* %172, i64 0, i32 1
  %174 = bitcast %"class.std::__1::basic_string"* %173 to %"struct.std::__1::basic_string<char, std::__1::char_traits<char>, std::__1::allocator<char> >::__short"*
  %175 = getelementptr inbounds %"struct.std::__1::basic_string<char, std::__1::char_traits<char>, std::__1::allocator<char> >::__short", %"struct.std::__1::basic_string<char, std::__1::char_traits<char>, std::__1::allocator<char> >::__short"* %174, i64 0, i32 1, i32 0
  %176 = load i8, i8* %175, align 1
  %177 = icmp slt i8 %176, 0
  br i1 %177, label %178, label %183

178:                                              ; preds = %170
  %179 = getelementptr inbounds %"class.std::__1::basic_string", %"class.std::__1::basic_string"* %173, i64 0, i32 0, i32 0, i32 0, i32 0, i32 0, i32 0
  %180 = load i8*, i8** %179, align 8
  %181 = getelementptr inbounds %"struct.google::protobuf::internal::InternalMetadata::Container", %"struct.google::protobuf::internal::InternalMetadata::Container"* %172, i64 0, i32 1, i32 0, i32 0, i32 0, i32 0, i32 0, i32 1
  %182 = load i64, i64* %181, align 8
  br label %186

183:                                              ; preds = %170
  %184 = bitcast %"class.std::__1::basic_string"* %173 to i8*
  %185 = zext i8 %176 to i64
  br label %186

186:                                              ; preds = %178, %183
  %187 = phi i8* [ %180, %178 ], [ %184, %183 ]
  %188 = phi i64 [ %182, %178 ], [ %185, %183 ]
  %189 = bitcast %"class.google::protobuf::io::EpsCopyOutputStream"* %2 to i64*
  %190 = load i64, i64* %189, align 8
  %191 = ptrtoint i8* %164 to i64
  %192 = sub i64 %190, %191
  %193 = shl i64 %188, 32
  %194 = ashr exact i64 %193, 32
  %195 = icmp slt i64 %192, %194
  br i1 %195, label %196, label %199, !prof !3

196:                                              ; preds = %186
  %197 = trunc i64 %188 to i32
  %198 = tail call i8* @_ZN6google8protobuf2io19EpsCopyOutputStream16WriteRawFallbackEPKviPh(%"class.google::protobuf::io::EpsCopyOutputStream"* %2, i8* %187, i32 %197, i8* %164) #14
  br label %201

199:                                              ; preds = %186
  tail call void @llvm.memcpy.p0i8.p0i8.i64(i8* align 1 %164, i8* align 1 %187, i64 %194, i1 false) #14
  %200 = getelementptr inbounds i8, i8* %164, i64 %194
  br label %201

201:                                              ; preds = %163, %199, %196
  %202 = phi i8* [ %164, %163 ], [ %198, %196 ], [ %200, %199 ]
  ret i8* %202
}

; Function Attrs: nounwind readonly ssp uwtable
define hidden i64 @_ZNK19in_memory_url_index58InMemoryURLIndexCacheItem_CharWordMapItem_CharWordMapEntry30RequiredFieldsByteSizeFallbackEv(%"class.in_memory_url_index::InMemoryURLIndexCacheItem_CharWordMapItem_CharWordMapEntry"* nocapture readonly) local_unnamed_addr #8 align 2 {
  %2 = getelementptr inbounds %"class.in_memory_url_index::InMemoryURLIndexCacheItem_CharWordMapItem_CharWordMapEntry", %"class.in_memory_url_index::InMemoryURLIndexCacheItem_CharWordMapItem_CharWordMapEntry"* %0, i64 0, i32 1, i32 0, i64 0
  %3 = load i32, i32* %2, align 4
  %4 = and i32 %3, 1
  %5 = icmp eq i32 %4, 0
  br i1 %5, label %17, label %6

6:                                                ; preds = %1
  %7 = getelementptr inbounds %"class.in_memory_url_index::InMemoryURLIndexCacheItem_CharWordMapItem_CharWordMapEntry", %"class.in_memory_url_index::InMemoryURLIndexCacheItem_CharWordMapItem_CharWordMapEntry"* %0, i64 0, i32 5
  %8 = load i32, i32* %7, align 4
  %9 = or i32 %8, 1
  %10 = tail call i32 @llvm.ctlz.i32(i32 %9, i1 true) #14, !range !4
  %11 = xor i32 %10, 31
  %12 = mul nuw nsw i32 %11, 9
  %13 = add nuw nsw i32 %12, 73
  %14 = lshr i32 %13, 6
  %15 = add nuw nsw i32 %14, 1
  %16 = zext i32 %15 to i64
  br label %17

17:                                               ; preds = %1, %6
  %18 = phi i64 [ %16, %6 ], [ 0, %1 ]
  %19 = and i32 %3, 2
  %20 = icmp eq i32 %19, 0
  br i1 %20, label %37, label %21

21:                                               ; preds = %17
  %22 = getelementptr inbounds %"class.in_memory_url_index::InMemoryURLIndexCacheItem_CharWordMapItem_CharWordMapEntry", %"class.in_memory_url_index::InMemoryURLIndexCacheItem_CharWordMapItem_CharWordMapEntry"* %0, i64 0, i32 6
  %23 = load i32, i32* %22, align 8
  %24 = icmp slt i32 %23, 0
  br i1 %24, label %34, label %25

25:                                               ; preds = %21
  %26 = or i32 %23, 1
  %27 = tail call i32 @llvm.ctlz.i32(i32 %26, i1 true) #14, !range !4
  %28 = xor i32 %27, 31
  %29 = mul nuw nsw i32 %28, 9
  %30 = add nuw nsw i32 %29, 73
  %31 = lshr i32 %30, 6
  %32 = add nuw nsw i32 %31, 1
  %33 = zext i32 %32 to i64
  br label %34

34:                                               ; preds = %21, %25
  %35 = phi i64 [ %33, %25 ], [ 11, %21 ]
  %36 = add nuw nsw i64 %35, %18
  br label %37

37:                                               ; preds = %17, %34
  %38 = phi i64 [ %36, %34 ], [ %18, %17 ]
  ret i64 %38
}

; Function Attrs: nounwind ssp uwtable
define hidden i64 @_ZNK19in_memory_url_index58InMemoryURLIndexCacheItem_CharWordMapItem_CharWordMapEntry12ByteSizeLongEv(%"class.in_memory_url_index::InMemoryURLIndexCacheItem_CharWordMapItem_CharWordMapEntry"*) unnamed_addr #0 align 2 {
  %2 = getelementptr inbounds %"class.in_memory_url_index::InMemoryURLIndexCacheItem_CharWordMapItem_CharWordMapEntry", %"class.in_memory_url_index::InMemoryURLIndexCacheItem_CharWordMapItem_CharWordMapEntry"* %0, i64 0, i32 1, i32 0, i64 0
  %3 = load i32, i32* %2, align 4
  %4 = and i32 %3, 3
  %5 = icmp eq i32 %4, 3
  br i1 %5, label %6, label %31

6:                                                ; preds = %1
  %7 = getelementptr inbounds %"class.in_memory_url_index::InMemoryURLIndexCacheItem_CharWordMapItem_CharWordMapEntry", %"class.in_memory_url_index::InMemoryURLIndexCacheItem_CharWordMapItem_CharWordMapEntry"* %0, i64 0, i32 5
  %8 = load i32, i32* %7, align 4
  %9 = or i32 %8, 1
  %10 = tail call i32 @llvm.ctlz.i32(i32 %9, i1 true) #14, !range !4
  %11 = xor i32 %10, 31
  %12 = mul nuw nsw i32 %11, 9
  %13 = add nuw nsw i32 %12, 73
  %14 = lshr i32 %13, 6
  %15 = getelementptr inbounds %"class.in_memory_url_index::InMemoryURLIndexCacheItem_CharWordMapItem_CharWordMapEntry", %"class.in_memory_url_index::InMemoryURLIndexCacheItem_CharWordMapItem_CharWordMapEntry"* %0, i64 0, i32 6
  %16 = load i32, i32* %15, align 8
  %17 = icmp slt i32 %16, 0
  br i1 %17, label %26, label %18

18:                                               ; preds = %6
  %19 = or i32 %16, 1
  %20 = tail call i32 @llvm.ctlz.i32(i32 %19, i1 true) #14, !range !4
  %21 = xor i32 %20, 31
  %22 = mul nuw nsw i32 %21, 9
  %23 = add nuw nsw i32 %22, 73
  %24 = lshr i32 %23, 6
  %25 = zext i32 %24 to i64
  br label %26

26:                                               ; preds = %6, %18
  %27 = phi i64 [ %25, %18 ], [ 10, %6 ]
  %28 = add nuw nsw i32 %14, 2
  %29 = zext i32 %28 to i64
  %30 = add nuw nsw i64 %27, %29
  br label %65

31:                                               ; preds = %1
  %32 = and i32 %3, 1
  %33 = icmp eq i32 %32, 0
  br i1 %33, label %45, label %34

34:                                               ; preds = %31
  %35 = getelementptr inbounds %"class.in_memory_url_index::InMemoryURLIndexCacheItem_CharWordMapItem_CharWordMapEntry", %"class.in_memory_url_index::InMemoryURLIndexCacheItem_CharWordMapItem_CharWordMapEntry"* %0, i64 0, i32 5
  %36 = load i32, i32* %35, align 4
  %37 = or i32 %36, 1
  %38 = tail call i32 @llvm.ctlz.i32(i32 %37, i1 true) #14, !range !4
  %39 = xor i32 %38, 31
  %40 = mul nuw nsw i32 %39, 9
  %41 = add nuw nsw i32 %40, 73
  %42 = lshr i32 %41, 6
  %43 = add nuw nsw i32 %42, 1
  %44 = zext i32 %43 to i64
  br label %45

45:                                               ; preds = %34, %31
  %46 = phi i64 [ %44, %34 ], [ 0, %31 ]
  %47 = and i32 %3, 2
  %48 = icmp eq i32 %47, 0
  br i1 %48, label %65, label %49

49:                                               ; preds = %45
  %50 = getelementptr inbounds %"class.in_memory_url_index::InMemoryURLIndexCacheItem_CharWordMapItem_CharWordMapEntry", %"class.in_memory_url_index::InMemoryURLIndexCacheItem_CharWordMapItem_CharWordMapEntry"* %0, i64 0, i32 6
  %51 = load i32, i32* %50, align 8
  %52 = icmp slt i32 %51, 0
  br i1 %52, label %62, label %53

53:                                               ; preds = %49
  %54 = or i32 %51, 1
  %55 = tail call i32 @llvm.ctlz.i32(i32 %54, i1 true) #14, !range !4
  %56 = xor i32 %55, 31
  %57 = mul nuw nsw i32 %56, 9
  %58 = add nuw nsw i32 %57, 73
  %59 = lshr i32 %58, 6
  %60 = add nuw nsw i32 %59, 1
  %61 = zext i32 %60 to i64
  br label %62

62:                                               ; preds = %53, %49
  %63 = phi i64 [ %61, %53 ], [ 11, %49 ]
  %64 = add nuw nsw i64 %63, %46
  br label %65

65:                                               ; preds = %62, %45, %26
  %66 = phi i64 [ %30, %26 ], [ %64, %62 ], [ %46, %45 ]
  %67 = getelementptr inbounds %"class.in_memory_url_index::InMemoryURLIndexCacheItem_CharWordMapItem_CharWordMapEntry", %"class.in_memory_url_index::InMemoryURLIndexCacheItem_CharWordMapItem_CharWordMapEntry"* %0, i64 0, i32 3
  %68 = tail call i64 @_ZN6google8protobuf8internal14WireFormatLite9Int32SizeERKNS0_13RepeatedFieldIiEE(%"class.google::protobuf::RepeatedField"* dereferenceable(16) %67) #14
  %69 = icmp eq i64 %68, 0
  br i1 %69, label %85, label %70

70:                                               ; preds = %65
  %71 = trunc i64 %68 to i32
  %72 = icmp slt i32 %71, 0
  br i1 %72, label %82, label %73

73:                                               ; preds = %70
  %74 = or i32 %71, 1
  %75 = tail call i32 @llvm.ctlz.i32(i32 %74, i1 true) #14, !range !4
  %76 = xor i32 %75, 31
  %77 = mul nuw nsw i32 %76, 9
  %78 = add nuw nsw i32 %77, 73
  %79 = lshr i32 %78, 6
  %80 = add nuw nsw i32 %79, 1
  %81 = zext i32 %80 to i64
  br label %82

82:                                               ; preds = %70, %73
  %83 = phi i64 [ %81, %73 ], [ 11, %70 ]
  %84 = add nuw nsw i64 %83, %66
  br label %85

85:                                               ; preds = %65, %82
  %86 = phi i32 [ %71, %82 ], [ 0, %65 ]
  %87 = phi i64 [ %84, %82 ], [ %66, %65 ]
  %88 = getelementptr inbounds %"class.in_memory_url_index::InMemoryURLIndexCacheItem_CharWordMapItem_CharWordMapEntry", %"class.in_memory_url_index::InMemoryURLIndexCacheItem_CharWordMapItem_CharWordMapEntry"* %0, i64 0, i32 4, i32 0, i32 0, i32 0, i32 0, i32 0
  store atomic i32 %86, i32* %88 monotonic, align 4
  %89 = add i64 %87, %68
  %90 = getelementptr inbounds %"class.in_memory_url_index::InMemoryURLIndexCacheItem_CharWordMapItem_CharWordMapEntry", %"class.in_memory_url_index::InMemoryURLIndexCacheItem_CharWordMapItem_CharWordMapEntry"* %0, i64 0, i32 0, i32 1
  %91 = bitcast %"class.google::protobuf::internal::InternalMetadata"* %90 to i64*
  %92 = load i64, i64* %91, align 8
  %93 = and i64 %92, 1
  %94 = icmp eq i64 %93, 0
  br i1 %94, label %111, label %95, !prof !2

95:                                               ; preds = %85
  %96 = and i64 %92, -2
  %97 = inttoptr i64 %96 to %"struct.google::protobuf::internal::InternalMetadata::Container"*
  %98 = getelementptr inbounds %"struct.google::protobuf::internal::InternalMetadata::Container", %"struct.google::protobuf::internal::InternalMetadata::Container"* %97, i64 0, i32 1
  %99 = bitcast %"class.std::__1::basic_string"* %98 to %"struct.std::__1::basic_string<char, std::__1::char_traits<char>, std::__1::allocator<char> >::__short"*
  %100 = getelementptr inbounds %"struct.std::__1::basic_string<char, std::__1::char_traits<char>, std::__1::allocator<char> >::__short", %"struct.std::__1::basic_string<char, std::__1::char_traits<char>, std::__1::allocator<char> >::__short"* %99, i64 0, i32 1, i32 0
  %101 = load i8, i8* %100, align 1
  %102 = icmp slt i8 %101, 0
  br i1 %102, label %103, label %106

103:                                              ; preds = %95
  %104 = getelementptr inbounds %"struct.google::protobuf::internal::InternalMetadata::Container", %"struct.google::protobuf::internal::InternalMetadata::Container"* %97, i64 0, i32 1, i32 0, i32 0, i32 0, i32 0, i32 0, i32 1
  %105 = load i64, i64* %104, align 8
  br label %108

106:                                              ; preds = %95
  %107 = zext i8 %101 to i64
  br label %108

108:                                              ; preds = %103, %106
  %109 = phi i64 [ %105, %103 ], [ %107, %106 ]
  %110 = add i64 %109, %89
  br label %111

111:                                              ; preds = %85, %108
  %112 = phi i64 [ %110, %108 ], [ %89, %85 ]
  %113 = trunc i64 %112 to i32
  %114 = getelementptr inbounds %"class.in_memory_url_index::InMemoryURLIndexCacheItem_CharWordMapItem_CharWordMapEntry", %"class.in_memory_url_index::InMemoryURLIndexCacheItem_CharWordMapItem_CharWordMapEntry"* %0, i64 0, i32 2, i32 0, i32 0, i32 0, i32 0, i32 0, i32 0
  store atomic i32 %113, i32* %114 monotonic, align 4
  ret i64 %112
}

declare i64 @_ZN6google8protobuf8internal14WireFormatLite9Int32SizeERKNS0_13RepeatedFieldIiEE(%"class.google::protobuf::RepeatedField"* dereferenceable(16)) local_unnamed_addr #6

; Function Attrs: nounwind ssp uwtable
define hidden void @_ZN19in_memory_url_index58InMemoryURLIndexCacheItem_CharWordMapItem_CharWordMapEntry21CheckTypeAndMergeFromERKN6google8protobuf11MessageLiteE(%"class.in_memory_url_index::InMemoryURLIndexCacheItem_CharWordMapItem_CharWordMapEntry"*, %"class.google::protobuf::MessageLite"* nocapture readonly dereferenceable(16)) unnamed_addr #0 align 2 {
  %3 = bitcast %"class.google::protobuf::MessageLite"* %1 to %"class.in_memory_url_index::InMemoryURLIndexCacheItem_CharWordMapItem_CharWordMapEntry"*
  tail call void @_ZN19in_memory_url_index58InMemoryURLIndexCacheItem_CharWordMapItem_CharWordMapEntry9MergeFromERKS0_(%"class.in_memory_url_index::InMemoryURLIndexCacheItem_CharWordMapItem_CharWordMapEntry"* %0, %"class.in_memory_url_index::InMemoryURLIndexCacheItem_CharWordMapItem_CharWordMapEntry"* dereferenceable(56) %3)
  ret void
}

; Function Attrs: nounwind ssp uwtable
define hidden void @_ZN19in_memory_url_index58InMemoryURLIndexCacheItem_CharWordMapItem_CharWordMapEntry9MergeFromERKS0_(%"class.in_memory_url_index::InMemoryURLIndexCacheItem_CharWordMapItem_CharWordMapEntry"*, %"class.in_memory_url_index::InMemoryURLIndexCacheItem_CharWordMapItem_CharWordMapEntry"* nocapture readonly dereferenceable(56)) local_unnamed_addr #0 align 2 {
  %3 = getelementptr inbounds %"class.in_memory_url_index::InMemoryURLIndexCacheItem_CharWordMapItem_CharWordMapEntry", %"class.in_memory_url_index::InMemoryURLIndexCacheItem_CharWordMapItem_CharWordMapEntry"* %0, i64 0, i32 0, i32 1
  %4 = getelementptr inbounds %"class.in_memory_url_index::InMemoryURLIndexCacheItem_CharWordMapItem_CharWordMapEntry", %"class.in_memory_url_index::InMemoryURLIndexCacheItem_CharWordMapItem_CharWordMapEntry"* %1, i64 0, i32 0, i32 1
  %5 = bitcast %"class.google::protobuf::internal::InternalMetadata"* %4 to i64*
  %6 = load i64, i64* %5, align 8
  %7 = and i64 %6, 1
  %8 = icmp eq i64 %7, 0
  br i1 %8, label %38, label %9

9:                                                ; preds = %2
  %10 = and i64 %6, -2
  %11 = inttoptr i64 %10 to %"struct.google::protobuf::internal::InternalMetadata::Container"*
  %12 = getelementptr inbounds %"struct.google::protobuf::internal::InternalMetadata::Container", %"struct.google::protobuf::internal::InternalMetadata::Container"* %11, i64 0, i32 1
  %13 = bitcast %"class.google::protobuf::internal::InternalMetadata"* %3 to i64*
  %14 = load i64, i64* %13, align 8
  %15 = and i64 %14, 1
  %16 = icmp eq i64 %15, 0
  br i1 %16, label %21, label %17, !prof !3

17:                                               ; preds = %9
  %18 = and i64 %14, -2
  %19 = inttoptr i64 %18 to %"struct.google::protobuf::internal::InternalMetadata::Container"*
  %20 = getelementptr inbounds %"struct.google::protobuf::internal::InternalMetadata::Container", %"struct.google::protobuf::internal::InternalMetadata::Container"* %19, i64 0, i32 1
  br label %23

21:                                               ; preds = %9
  %22 = tail call %"class.std::__1::basic_string"* @_ZN6google8protobuf8internal16InternalMetadata27mutable_unknown_fields_slowINSt3__112basic_stringIcNS4_11char_traitsIcEENS4_9allocatorIcEEEEEEPT_v(%"class.google::protobuf::internal::InternalMetadata"* %3) #14
  br label %23

23:                                               ; preds = %21, %17
  %24 = phi %"class.std::__1::basic_string"* [ %20, %17 ], [ %22, %21 ]
  %25 = bitcast %"class.std::__1::basic_string"* %12 to %"struct.std::__1::basic_string<char, std::__1::char_traits<char>, std::__1::allocator<char> >::__short"*
  %26 = getelementptr inbounds %"struct.std::__1::basic_string<char, std::__1::char_traits<char>, std::__1::allocator<char> >::__short", %"struct.std::__1::basic_string<char, std::__1::char_traits<char>, std::__1::allocator<char> >::__short"* %25, i64 0, i32 1, i32 0
  %27 = load i8, i8* %26, align 1
  %28 = icmp slt i8 %27, 0
  %29 = getelementptr inbounds %"class.std::__1::basic_string", %"class.std::__1::basic_string"* %12, i64 0, i32 0, i32 0, i32 0, i32 0, i32 0, i32 0
  %30 = load i8*, i8** %29, align 8
  %31 = getelementptr inbounds %"struct.google::protobuf::internal::InternalMetadata::Container", %"struct.google::protobuf::internal::InternalMetadata::Container"* %11, i64 0, i32 1, i32 0, i32 0, i32 0, i32 0, i32 0, i32 1
  %32 = load i64, i64* %31, align 8
  %33 = bitcast %"class.std::__1::basic_string"* %12 to i8*
  %34 = zext i8 %27 to i64
  %35 = select i1 %28, i8* %30, i8* %33
  %36 = select i1 %28, i64 %32, i64 %34
  %37 = tail call dereferenceable(24) %"class.std::__1::basic_string"* @_ZNSt3__112basic_stringIcNS_11char_traitsIcEENS_9allocatorIcEEE6appendEPKcm(%"class.std::__1::basic_string"* %24, i8* %35, i64 %36) #14
  br label %38

38:                                               ; preds = %2, %23
  %39 = getelementptr inbounds %"class.in_memory_url_index::InMemoryURLIndexCacheItem_CharWordMapItem_CharWordMapEntry", %"class.in_memory_url_index::InMemoryURLIndexCacheItem_CharWordMapItem_CharWordMapEntry"* %0, i64 0, i32 3
  %40 = getelementptr inbounds %"class.in_memory_url_index::InMemoryURLIndexCacheItem_CharWordMapItem_CharWordMapEntry", %"class.in_memory_url_index::InMemoryURLIndexCacheItem_CharWordMapItem_CharWordMapEntry"* %1, i64 0, i32 3, i32 0
  %41 = load i32, i32* %40, align 8
  %42 = icmp eq i32 %41, 0
  br i1 %42, label %61, label %43

43:                                               ; preds = %38
  %44 = getelementptr inbounds %"class.google::protobuf::RepeatedField", %"class.google::protobuf::RepeatedField"* %39, i64 0, i32 0
  %45 = load i32, i32* %44, align 8
  %46 = add nsw i32 %45, %41
  tail call void @_ZN6google8protobuf13RepeatedFieldIiE7ReserveEi(%"class.google::protobuf::RepeatedField"* %39, i32 %46) #14
  %47 = load i32, i32* %40, align 8
  %48 = getelementptr inbounds %"class.in_memory_url_index::InMemoryURLIndexCacheItem_CharWordMapItem_CharWordMapEntry", %"class.in_memory_url_index::InMemoryURLIndexCacheItem_CharWordMapItem_CharWordMapEntry"* %0, i64 0, i32 3, i32 2
  %49 = bitcast i8** %48 to i32**
  %50 = load i32*, i32** %49, align 8
  %51 = load i32, i32* %44, align 8
  %52 = add nsw i32 %51, %47
  store i32 %52, i32* %44, align 8
  %53 = sext i32 %45 to i64
  %54 = getelementptr inbounds i32, i32* %50, i64 %53
  %55 = getelementptr inbounds %"class.in_memory_url_index::InMemoryURLIndexCacheItem_CharWordMapItem_CharWordMapEntry", %"class.in_memory_url_index::InMemoryURLIndexCacheItem_CharWordMapItem_CharWordMapEntry"* %1, i64 0, i32 3, i32 2
  %56 = load i8*, i8** %55, align 8
  %57 = load i32, i32* %40, align 8
  %58 = bitcast i32* %54 to i8*
  %59 = sext i32 %57 to i64
  %60 = shl nsw i64 %59, 2
  tail call void @llvm.memcpy.p0i8.p0i8.i64(i8* align 4 %58, i8* align 4 %56, i64 %60, i1 false) #14
  br label %61

61:                                               ; preds = %38, %43
  %62 = getelementptr inbounds %"class.in_memory_url_index::InMemoryURLIndexCacheItem_CharWordMapItem_CharWordMapEntry", %"class.in_memory_url_index::InMemoryURLIndexCacheItem_CharWordMapItem_CharWordMapEntry"* %1, i64 0, i32 1, i32 0, i64 0
  %63 = load i32, i32* %62, align 4
  %64 = and i32 %63, 3
  %65 = icmp eq i32 %64, 0
  br i1 %65, label %84, label %66

66:                                               ; preds = %61
  %67 = and i32 %63, 1
  %68 = icmp eq i32 %67, 0
  br i1 %68, label %73, label %69

69:                                               ; preds = %66
  %70 = getelementptr inbounds %"class.in_memory_url_index::InMemoryURLIndexCacheItem_CharWordMapItem_CharWordMapEntry", %"class.in_memory_url_index::InMemoryURLIndexCacheItem_CharWordMapItem_CharWordMapEntry"* %1, i64 0, i32 5
  %71 = load i32, i32* %70, align 4
  %72 = getelementptr inbounds %"class.in_memory_url_index::InMemoryURLIndexCacheItem_CharWordMapItem_CharWordMapEntry", %"class.in_memory_url_index::InMemoryURLIndexCacheItem_CharWordMapItem_CharWordMapEntry"* %0, i64 0, i32 5
  store i32 %71, i32* %72, align 4
  br label %73

73:                                               ; preds = %66, %69
  %74 = and i32 %63, 2
  %75 = icmp eq i32 %74, 0
  br i1 %75, label %80, label %76

76:                                               ; preds = %73
  %77 = getelementptr inbounds %"class.in_memory_url_index::InMemoryURLIndexCacheItem_CharWordMapItem_CharWordMapEntry", %"class.in_memory_url_index::InMemoryURLIndexCacheItem_CharWordMapItem_CharWordMapEntry"* %1, i64 0, i32 6
  %78 = load i32, i32* %77, align 8
  %79 = getelementptr inbounds %"class.in_memory_url_index::InMemoryURLIndexCacheItem_CharWordMapItem_CharWordMapEntry", %"class.in_memory_url_index::InMemoryURLIndexCacheItem_CharWordMapItem_CharWordMapEntry"* %0, i64 0, i32 6
  store i32 %78, i32* %79, align 8
  br label %80

80:                                               ; preds = %73, %76
  %81 = getelementptr inbounds %"class.in_memory_url_index::InMemoryURLIndexCacheItem_CharWordMapItem_CharWordMapEntry", %"class.in_memory_url_index::InMemoryURLIndexCacheItem_CharWordMapItem_CharWordMapEntry"* %0, i64 0, i32 1, i32 0, i64 0
  %82 = load i32, i32* %81, align 4
  %83 = or i32 %82, %63
  store i32 %83, i32* %81, align 4
  br label %84

84:                                               ; preds = %61, %80
  ret void
}

; Function Attrs: nounwind ssp uwtable
define hidden void @_ZN19in_memory_url_index58InMemoryURLIndexCacheItem_CharWordMapItem_CharWordMapEntry8CopyFromERKS0_(%"class.in_memory_url_index::InMemoryURLIndexCacheItem_CharWordMapItem_CharWordMapEntry"*, %"class.in_memory_url_index::InMemoryURLIndexCacheItem_CharWordMapItem_CharWordMapEntry"* readonly dereferenceable(56)) local_unnamed_addr #0 align 2 {
  %3 = icmp eq %"class.in_memory_url_index::InMemoryURLIndexCacheItem_CharWordMapItem_CharWordMapEntry"* %1, %0
  br i1 %3, label %34, label %4

4:                                                ; preds = %2
  %5 = getelementptr inbounds %"class.in_memory_url_index::InMemoryURLIndexCacheItem_CharWordMapItem_CharWordMapEntry", %"class.in_memory_url_index::InMemoryURLIndexCacheItem_CharWordMapItem_CharWordMapEntry"* %0, i64 0, i32 3, i32 0
  store i32 0, i32* %5, align 8
  %6 = getelementptr inbounds %"class.in_memory_url_index::InMemoryURLIndexCacheItem_CharWordMapItem_CharWordMapEntry", %"class.in_memory_url_index::InMemoryURLIndexCacheItem_CharWordMapItem_CharWordMapEntry"* %0, i64 0, i32 1, i32 0, i64 0
  %7 = load i32, i32* %6, align 4
  %8 = and i32 %7, 3
  %9 = icmp eq i32 %8, 0
  br i1 %9, label %13, label %10

10:                                               ; preds = %4
  %11 = getelementptr inbounds %"class.in_memory_url_index::InMemoryURLIndexCacheItem_CharWordMapItem_CharWordMapEntry", %"class.in_memory_url_index::InMemoryURLIndexCacheItem_CharWordMapItem_CharWordMapEntry"* %0, i64 0, i32 5
  %12 = bitcast i32* %11 to i64*
  store i64 0, i64* %12, align 4
  br label %13

13:                                               ; preds = %10, %4
  store i32 0, i32* %6, align 4
  %14 = getelementptr inbounds %"class.in_memory_url_index::InMemoryURLIndexCacheItem_CharWordMapItem_CharWordMapEntry", %"class.in_memory_url_index::InMemoryURLIndexCacheItem_CharWordMapItem_CharWordMapEntry"* %0, i64 0, i32 0, i32 1
  %15 = bitcast %"class.google::protobuf::internal::InternalMetadata"* %14 to i64*
  %16 = load i64, i64* %15, align 8
  %17 = and i64 %16, 1
  %18 = icmp eq i64 %17, 0
  br i1 %18, label %33, label %19

19:                                               ; preds = %13
  %20 = and i64 %16, -2
  %21 = inttoptr i64 %20 to %"struct.google::protobuf::internal::InternalMetadata::Container"*
  %22 = getelementptr inbounds %"struct.google::protobuf::internal::InternalMetadata::Container", %"struct.google::protobuf::internal::InternalMetadata::Container"* %21, i64 0, i32 1
  %23 = bitcast %"class.std::__1::basic_string"* %22 to %"struct.std::__1::basic_string<char, std::__1::char_traits<char>, std::__1::allocator<char> >::__short"*
  %24 = getelementptr inbounds %"struct.std::__1::basic_string<char, std::__1::char_traits<char>, std::__1::allocator<char> >::__short", %"struct.std::__1::basic_string<char, std::__1::char_traits<char>, std::__1::allocator<char> >::__short"* %23, i64 0, i32 1, i32 0
  %25 = load i8, i8* %24, align 1
  %26 = icmp slt i8 %25, 0
  br i1 %26, label %27, label %31

27:                                               ; preds = %19
  %28 = getelementptr inbounds %"class.std::__1::basic_string", %"class.std::__1::basic_string"* %22, i64 0, i32 0, i32 0, i32 0, i32 0, i32 0, i32 0
  %29 = load i8*, i8** %28, align 8
  store i8 0, i8* %29, align 1
  %30 = getelementptr inbounds %"struct.google::protobuf::internal::InternalMetadata::Container", %"struct.google::protobuf::internal::InternalMetadata::Container"* %21, i64 0, i32 1, i32 0, i32 0, i32 0, i32 0, i32 0, i32 1
  store i64 0, i64* %30, align 8
  br label %33

31:                                               ; preds = %19
  %32 = bitcast %"class.std::__1::basic_string"* %22 to i8*
  store i8 0, i8* %32, align 2
  store i8 0, i8* %24, align 1
  br label %33

33:                                               ; preds = %13, %27, %31
  tail call void @_ZN19in_memory_url_index58InMemoryURLIndexCacheItem_CharWordMapItem_CharWordMapEntry9MergeFromERKS0_(%"class.in_memory_url_index::InMemoryURLIndexCacheItem_CharWordMapItem_CharWordMapEntry"* %0, %"class.in_memory_url_index::InMemoryURLIndexCacheItem_CharWordMapItem_CharWordMapEntry"* dereferenceable(56) %1)
  br label %34

34:                                               ; preds = %2, %33
  ret void
}

; Function Attrs: norecurse nounwind readonly ssp uwtable
define hidden zeroext i1 @_ZNK19in_memory_url_index58InMemoryURLIndexCacheItem_CharWordMapItem_CharWordMapEntry13IsInitializedEv(%"class.in_memory_url_index::InMemoryURLIndexCacheItem_CharWordMapItem_CharWordMapEntry"* nocapture readonly) unnamed_addr #7 align 2 {
  %2 = getelementptr inbounds %"class.in_memory_url_index::InMemoryURLIndexCacheItem_CharWordMapItem_CharWordMapEntry", %"class.in_memory_url_index::InMemoryURLIndexCacheItem_CharWordMapItem_CharWordMapEntry"* %0, i64 0, i32 1, i32 0, i64 0
  %3 = load i32, i32* %2, align 4
  %4 = and i32 %3, 3
  %5 = icmp eq i32 %4, 3
  ret i1 %5
}

; Function Attrs: nounwind ssp uwtable
define hidden void @_ZN19in_memory_url_index58InMemoryURLIndexCacheItem_CharWordMapItem_CharWordMapEntry12InternalSwapEPS0_(%"class.in_memory_url_index::InMemoryURLIndexCacheItem_CharWordMapItem_CharWordMapEntry"*, %"class.in_memory_url_index::InMemoryURLIndexCacheItem_CharWordMapItem_CharWordMapEntry"*) local_unnamed_addr #0 align 2 {
  %3 = getelementptr inbounds %"class.in_memory_url_index::InMemoryURLIndexCacheItem_CharWordMapItem_CharWordMapEntry", %"class.in_memory_url_index::InMemoryURLIndexCacheItem_CharWordMapItem_CharWordMapEntry"* %0, i64 0, i32 0, i32 1
  %4 = getelementptr inbounds %"class.in_memory_url_index::InMemoryURLIndexCacheItem_CharWordMapItem_CharWordMapEntry", %"class.in_memory_url_index::InMemoryURLIndexCacheItem_CharWordMapItem_CharWordMapEntry"* %1, i64 0, i32 0, i32 1
  %5 = bitcast %"class.google::protobuf::internal::InternalMetadata"* %3 to i64*
  %6 = load i64, i64* %5, align 8
  %7 = bitcast %"class.google::protobuf::internal::InternalMetadata"* %4 to i64*
  %8 = load i64, i64* %7, align 8
  %9 = or i64 %8, %6
  %10 = and i64 %9, 1
  %11 = icmp eq i64 %10, 0
  br i1 %11, label %43, label %12

12:                                               ; preds = %2
  %13 = and i64 %8, 1
  %14 = icmp eq i64 %13, 0
  br i1 %14, label %19, label %15, !prof !3

15:                                               ; preds = %12
  %16 = and i64 %8, -2
  %17 = inttoptr i64 %16 to %"struct.google::protobuf::internal::InternalMetadata::Container"*
  %18 = getelementptr inbounds %"struct.google::protobuf::internal::InternalMetadata::Container", %"struct.google::protobuf::internal::InternalMetadata::Container"* %17, i64 0, i32 1
  br label %22

19:                                               ; preds = %12
  %20 = tail call %"class.std::__1::basic_string"* @_ZN6google8protobuf8internal16InternalMetadata27mutable_unknown_fields_slowINSt3__112basic_stringIcNS4_11char_traitsIcEENS4_9allocatorIcEEEEEEPT_v(%"class.google::protobuf::internal::InternalMetadata"* %4) #14
  %21 = load i64, i64* %5, align 8
  br label %22

22:                                               ; preds = %19, %15
  %23 = phi i64 [ %6, %15 ], [ %21, %19 ]
  %24 = phi %"class.std::__1::basic_string"* [ %18, %15 ], [ %20, %19 ]
  %25 = and i64 %23, 1
  %26 = icmp eq i64 %25, 0
  br i1 %26, label %31, label %27, !prof !3

27:                                               ; preds = %22
  %28 = and i64 %23, -2
  %29 = inttoptr i64 %28 to %"struct.google::protobuf::internal::InternalMetadata::Container"*
  %30 = getelementptr inbounds %"struct.google::protobuf::internal::InternalMetadata::Container", %"struct.google::protobuf::internal::InternalMetadata::Container"* %29, i64 0, i32 1
  br label %33

31:                                               ; preds = %22
  %32 = tail call %"class.std::__1::basic_string"* @_ZN6google8protobuf8internal16InternalMetadata27mutable_unknown_fields_slowINSt3__112basic_stringIcNS4_11char_traitsIcEENS4_9allocatorIcEEEEEEPT_v(%"class.google::protobuf::internal::InternalMetadata"* %3) #14
  br label %33

33:                                               ; preds = %31, %27
  %34 = phi %"class.std::__1::basic_string"* [ %30, %27 ], [ %32, %31 ]
  %35 = bitcast %"class.std::__1::basic_string"* %34 to <2 x i64>*
  %36 = load <2 x i64>, <2 x i64>* %35, align 8
  %37 = getelementptr inbounds %"class.std::__1::basic_string", %"class.std::__1::basic_string"* %34, i64 0, i32 0, i32 0, i32 0, i32 0, i32 0, i32 2
  %38 = load i64, i64* %37, align 8
  %39 = bitcast %"class.std::__1::basic_string"* %34 to i8*
  %40 = bitcast %"class.std::__1::basic_string"* %24 to i8*
  tail call void @llvm.memcpy.p0i8.p0i8.i64(i8* align 8 %39, i8* align 8 %40, i64 24, i1 false) #14
  %41 = bitcast %"class.std::__1::basic_string"* %24 to <2 x i64>*
  store <2 x i64> %36, <2 x i64>* %41, align 8
  %42 = getelementptr inbounds %"class.std::__1::basic_string", %"class.std::__1::basic_string"* %24, i64 0, i32 0, i32 0, i32 0, i32 0, i32 0, i32 2
  store i64 %38, i64* %42, align 8
  br label %43

43:                                               ; preds = %2, %33
  %44 = getelementptr inbounds %"class.in_memory_url_index::InMemoryURLIndexCacheItem_CharWordMapItem_CharWordMapEntry", %"class.in_memory_url_index::InMemoryURLIndexCacheItem_CharWordMapItem_CharWordMapEntry"* %0, i64 0, i32 1, i32 0, i64 0
  %45 = getelementptr inbounds %"class.in_memory_url_index::InMemoryURLIndexCacheItem_CharWordMapItem_CharWordMapEntry", %"class.in_memory_url_index::InMemoryURLIndexCacheItem_CharWordMapItem_CharWordMapEntry"* %1, i64 0, i32 1, i32 0, i64 0
  %46 = load i32, i32* %44, align 4
  %47 = load i32, i32* %45, align 4
  store i32 %47, i32* %44, align 4
  store i32 %46, i32* %45, align 4
  %48 = getelementptr inbounds %"class.in_memory_url_index::InMemoryURLIndexCacheItem_CharWordMapItem_CharWordMapEntry", %"class.in_memory_url_index::InMemoryURLIndexCacheItem_CharWordMapItem_CharWordMapEntry"* %0, i64 0, i32 3
  %49 = getelementptr inbounds %"class.in_memory_url_index::InMemoryURLIndexCacheItem_CharWordMapItem_CharWordMapEntry", %"class.in_memory_url_index::InMemoryURLIndexCacheItem_CharWordMapItem_CharWordMapEntry"* %1, i64 0, i32 3
  %50 = bitcast %"class.google::protobuf::RepeatedField"* %48 to i8*
  %51 = bitcast %"class.google::protobuf::RepeatedField"* %49 to i8*
  %52 = bitcast %"class.google::protobuf::RepeatedField"* %48 to i128*
  %53 = load i128, i128* %52, align 1
  tail call void @llvm.memcpy.p0i8.p0i8.i64(i8* align 1 %50, i8* align 1 %51, i64 16, i1 false) #14
  %54 = bitcast %"class.google::protobuf::RepeatedField"* %49 to i128*
  store i128 %53, i128* %54, align 1
  %55 = getelementptr inbounds %"class.in_memory_url_index::InMemoryURLIndexCacheItem_CharWordMapItem_CharWordMapEntry", %"class.in_memory_url_index::InMemoryURLIndexCacheItem_CharWordMapItem_CharWordMapEntry"* %0, i64 0, i32 5
  %56 = getelementptr inbounds %"class.in_memory_url_index::InMemoryURLIndexCacheItem_CharWordMapItem_CharWordMapEntry", %"class.in_memory_url_index::InMemoryURLIndexCacheItem_CharWordMapItem_CharWordMapEntry"* %1, i64 0, i32 5
  %57 = bitcast i32* %55 to i64*
  %58 = load i64, i64* %57, align 1
  %59 = bitcast i32* %56 to i64*
  %60 = load i64, i64* %59, align 1
  store i64 %60, i64* %57, align 1
  store i64 %58, i64* %59, align 1
  ret void
}

; Function Attrs: nounwind ssp uwtable
define hidden void @_ZNK19in_memory_url_index58InMemoryURLIndexCacheItem_CharWordMapItem_CharWordMapEntry11GetTypeNameEv(%"class.std::__1::basic_string"* noalias sret, %"class.in_memory_url_index::InMemoryURLIndexCacheItem_CharWordMapItem_CharWordMapEntry"* nocapture readnone) unnamed_addr #0 align 2 {
  %3 = tail call i8* @_Znwm(i64 80) #15
  %4 = getelementptr inbounds %"class.std::__1::basic_string", %"class.std::__1::basic_string"* %0, i64 0, i32 0, i32 0, i32 0, i32 0, i32 0, i32 0
  store i8* %3, i8** %4, align 8
  %5 = getelementptr inbounds %"class.std::__1::basic_string", %"class.std::__1::basic_string"* %0, i64 0, i32 0, i32 0, i32 0, i32 0, i32 0, i32 1
  %6 = bitcast i64* %5 to <2 x i64>*
  store <2 x i64> <i64 78, i64 -9223372036854775728>, <2 x i64>* %6, align 8
  tail call void @llvm.memcpy.p0i8.p0i8.i64(i8* nonnull align 1 %3, i8* align 1 getelementptr inbounds ([79 x i8], [79 x i8]* @.str.17, i64 0, i64 0), i64 78, i1 false) #14
  %7 = getelementptr inbounds i8, i8* %3, i64 78
  store i8 0, i8* %7, align 1
  ret void
}

; Function Attrs: nounwind ssp uwtable
define hidden void @_ZN19in_memory_url_index41InMemoryURLIndexCacheItem_CharWordMapItemC2EPN6google8protobuf5ArenaE(%"class.in_memory_url_index::InMemoryURLIndexCacheItem_CharWordMapItem"* nocapture, %"class.google::protobuf::Arena"*) unnamed_addr #0 align 2 {
  %3 = getelementptr inbounds %"class.in_memory_url_index::InMemoryURLIndexCacheItem_CharWordMapItem", %"class.in_memory_url_index::InMemoryURLIndexCacheItem_CharWordMapItem"* %0, i64 0, i32 0, i32 0
