; ModuleID = 'gen/components/services/storage/public/mojom/indexed_db_control.mojom-test-utils.cc'
source_filename = "gen/components/services/storage/public/mojom/indexed_db_control.mojom-test-utils.cc"
target datalayout = "e-m:e-i64:64-f80:128-n8:16:32:64-S128"
target triple = "x86_64-unknown-linux-gnu"

module asm ".symver exp, exp@GLIBC_2.2.5"
module asm ".symver exp2, exp2@GLIBC_2.2.5"
module asm ".symver exp2f, exp2f@GLIBC_2.2.5"
module asm ".symver expf, expf@GLIBC_2.2.5"
module asm ".symver lgamma, lgamma@GLIBC_2.2.5"
module asm ".symver lgammaf, lgammaf@GLIBC_2.2.5"
module asm ".symver lgammal, lgammal@GLIBC_2.2.5"
module asm ".symver log, log@GLIBC_2.2.5"
module asm ".symver log2, log2@GLIBC_2.2.5"
module asm ".symver log2f, log2f@GLIBC_2.2.5"
module asm ".symver logf, logf@GLIBC_2.2.5"
module asm ".symver pow, pow@GLIBC_2.2.5"
module asm ".symver powf, powf@GLIBC_2.2.5"

%"class.storage::mojom::IndexedDBObserverAsyncWaiter" = type { %"class.storage::mojom::IndexedDBObserver"* }
%"class.storage::mojom::IndexedDBObserver" = type { i32 (...)** }
%"class.storage::mojom::IndexedDBControlAsyncWaiter" = type { %"class.storage::mojom::IndexedDBControl"* }
%"class.storage::mojom::IndexedDBControl" = type { i32 (...)** }
%"class.storage::mojom::IndexedDBObserverInterceptorForTesting" = type { %"class.storage::mojom::IndexedDBObserver" }
%"class.url::Origin" = type { %"class.url::SchemeHostPort", %"class.absl::optional" }
%"class.url::SchemeHostPort" = type <{ %"class.std::__1::basic_string", %"class.std::__1::basic_string", i16, [6 x i8] }>
%"class.std::__1::basic_string" = type { %"class.std::__1::__compressed_pair" }
%"class.std::__1::__compressed_pair" = type { %"struct.std::__1::__compressed_pair_elem" }
%"struct.std::__1::__compressed_pair_elem" = type { %"struct.std::__1::basic_string<char, std::__1::char_traits<char>, std::__1::allocator<char> >::__rep" }
%"struct.std::__1::basic_string<char, std::__1::char_traits<char>, std::__1::allocator<char> >::__rep" = type { %union.anon }
%union.anon = type { %"struct.std::__1::basic_string<char, std::__1::char_traits<char>, std::__1::allocator<char> >::__long" }
%"struct.std::__1::basic_string<char, std::__1::char_traits<char>, std::__1::allocator<char> >::__long" = type { i8*, i64, i64 }
%"class.absl::optional" = type { %"class.absl::optional_internal::optional_data" }
%"class.absl::optional_internal::optional_data" = type { %"class.absl::optional_internal::optional_data_base" }
%"class.absl::optional_internal::optional_data_base" = type { %"class.absl::optional_internal::optional_data_dtor_base" }
%"class.absl::optional_internal::optional_data_dtor_base" = type { i8, %union.anon.1 }
%union.anon.1 = type { %"class.url::Origin::Nonce" }
%"class.url::Origin::Nonce" = type { %"class.base::UnguessableToken" }
%"class.base::UnguessableToken" = type { %"class.base::Token" }
%"class.base::Token" = type { i64, i64 }
%"class.std::__1::basic_string.2" = type { %"class.std::__1::__compressed_pair.3" }
%"class.std::__1::__compressed_pair.3" = type { %"struct.std::__1::__compressed_pair_elem.4" }
%"struct.std::__1::__compressed_pair_elem.4" = type { %"struct.std::__1::basic_string<char16_t, std::__1::char_traits<char16_t>, std::__1::allocator<char16_t> >::__rep" }
%"struct.std::__1::basic_string<char16_t, std::__1::char_traits<char16_t>, std::__1::allocator<char16_t> >::__rep" = type { %union.anon.5 }
%union.anon.5 = type { %"struct.std::__1::basic_string<char16_t, std::__1::char_traits<char16_t>, std::__1::allocator<char16_t> >::__long" }
%"struct.std::__1::basic_string<char16_t, std::__1::char_traits<char16_t>, std::__1::allocator<char16_t> >::__long" = type { i16*, i64, i64 }
%"class.storage::mojom::IndexedDBControlInterceptorForTesting" = type { %"class.storage::mojom::IndexedDBControl" }
%"class.mojo::PendingReceiver" = type { %"struct.mojo::internal::PendingReceiverState" }
%"struct.mojo::internal::PendingReceiverState" = type { %"class.mojo::ScopedHandleBase", %"class.mojo::ConnectionGroup::Ref" }
%"class.mojo::ScopedHandleBase" = type { %"class.mojo::MessagePipeHandle" }
%"class.mojo::MessagePipeHandle" = type { %"class.mojo::Handle" }
%"class.mojo::Handle" = type { i32 }
%"class.mojo::ConnectionGroup::Ref" = type { i32, %class.scoped_refptr }
%class.scoped_refptr = type { %"class.mojo::ConnectionGroup"* }
%"class.mojo::ConnectionGroup" = type <{ i32 (...)**, %"class.base::RefCountedThreadSafe", [4 x i8], %"class.base::RepeatingCallback", %class.scoped_refptr.14, %"class.mojo::ConnectionGroup::Ref", %"struct.std::__1::atomic.16", [4 x i8] }>
%"class.base::RefCountedThreadSafe" = type { %"class.base::subtle::RefCountedThreadSafeBase" }
%"class.base::subtle::RefCountedThreadSafeBase" = type { %"class.base::AtomicRefCount" }
%"class.base::AtomicRefCount" = type { %"struct.std::__1::atomic" }
%"struct.std::__1::atomic" = type { %"struct.std::__1::__atomic_base" }
%"struct.std::__1::__atomic_base" = type { %"struct.std::__1::__atomic_base.11" }
%"struct.std::__1::__atomic_base.11" = type { %"struct.std::__1::__cxx_atomic_impl" }
%"struct.std::__1::__cxx_atomic_impl" = type { %"struct.std::__1::__cxx_atomic_base_impl" }
%"struct.std::__1::__cxx_atomic_base_impl" = type { i32 }
%"class.base::RepeatingCallback" = type { %"class.base::internal::CallbackBaseCopyable" }
%"class.base::internal::CallbackBaseCopyable" = type { %"class.base::internal::CallbackBase" }
%"class.base::internal::CallbackBase" = type { %class.scoped_refptr.12 }
%class.scoped_refptr.12 = type { %"class.base::internal::BindStateBase"* }
%"class.base::internal::BindStateBase" = type { %"class.base::RefCountedThreadSafe.13", void ()*, void (%"class.base::internal::BindStateBase"*)*, i1 (%"class.base::internal::BindStateBase"*, i32)* }
%"class.base::RefCountedThreadSafe.13" = type { %"class.base::subtle::RefCountedThreadSafeBase" }
%class.scoped_refptr.14 = type { %"class.base::SequencedTaskRunner"* }
%"class.base::SequencedTaskRunner" = type { %"class.base::TaskRunner.base", [4 x i8] }
%"class.base::TaskRunner.base" = type <{ i32 (...)**, %"class.base::RefCountedThreadSafe.15" }>
%"class.base::RefCountedThreadSafe.15" = type { %"class.base::subtle::RefCountedThreadSafeBase" }
%"struct.std::__1::atomic.16" = type { %"struct.std::__1::__atomic_base.17" }
%"struct.std::__1::__atomic_base.17" = type { %"struct.std::__1::__atomic_base.18" }
%"struct.std::__1::__atomic_base.18" = type { %"struct.std::__1::__cxx_atomic_impl.19" }
%"struct.std::__1::__cxx_atomic_impl.19" = type { %"struct.std::__1::__cxx_atomic_base_impl.20" }
%"struct.std::__1::__cxx_atomic_base_impl.20" = type { i32 }
%"class.base::OnceCallback" = type { %"class.base::internal::CallbackBase" }
%"class.base::OnceCallback.21" = type { %"class.base::internal::CallbackBase" }
%"class.base::OnceCallback.22" = type { %"class.base::internal::CallbackBase" }
%"class.base::OnceCallback.23" = type { %"class.base::internal::CallbackBase" }
%"class.base::OnceCallback.24" = type { %"class.base::internal::CallbackBase" }
%"class.base::OnceCallback.25" = type { %"class.base::internal::CallbackBase" }
%"class.mojo::PendingRemote" = type { %"struct.mojo::internal::PendingRemoteState" }
%"struct.mojo::internal::PendingRemoteState" = type { %"class.mojo::ScopedHandleBase", i32 }
%"class.std::__1::vector" = type { %"class.std::__1::__vector_base" }
%"class.std::__1::__vector_base" = type { %"class.mojo::StructPtr"*, %"class.mojo::StructPtr"*, %"class.std::__1::__compressed_pair.29" }
%"class.mojo::StructPtr" = type { %"class.std::__1::unique_ptr" }
%"class.std::__1::unique_ptr" = type { %"class.std::__1::__compressed_pair.26" }
%"class.std::__1::__compressed_pair.26" = type { %"struct.std::__1::__compressed_pair_elem.27" }
%"struct.std::__1::__compressed_pair_elem.27" = type { %"class.storage::mojom::StoragePolicyUpdate"* }
%"class.storage::mojom::StoragePolicyUpdate" = type <{ %"class.url::Origin", i8, [7 x i8] }>
%"class.std::__1::__compressed_pair.29" = type { %"struct.std::__1::__compressed_pair_elem.30" }
%"struct.std::__1::__compressed_pair_elem.30" = type { %"class.mojo::StructPtr"* }
%"class.mojo::PendingReceiver.34" = type { %"struct.mojo::internal::PendingReceiverState" }
%"class.std::__1::vector.35" = type { %"class.std::__1::__vector_base.36" }
%"class.std::__1::__vector_base.36" = type { %"class.mojo::StructPtr.37"*, %"class.mojo::StructPtr.37"*, %"class.std::__1::__compressed_pair.44" }
%"class.mojo::StructPtr.37" = type { %"class.std::__1::unique_ptr.38" }
%"class.std::__1::unique_ptr.38" = type { %"class.std::__1::__compressed_pair.39" }
%"class.std::__1::__compressed_pair.39" = type { %"struct.std::__1::__compressed_pair_elem.40" }
%"struct.std::__1::__compressed_pair_elem.40" = type { %"class.storage::mojom::StorageUsageInfo"* }
%"class.storage::mojom::StorageUsageInfo" = type { %"class.url::Origin", i64, %"class.base::Time" }
%"class.base::Time" = type { %"class.base::time_internal::TimeBase" }
%"class.base::time_internal::TimeBase" = type { i64 }
%"class.std::__1::__compressed_pair.44" = type { %"struct.std::__1::__compressed_pair_elem.45" }
%"struct.std::__1::__compressed_pair_elem.45" = type { %"class.mojo::StructPtr.37"* }
%"class.base::RunLoop" = type { %"class.base::RunLoop::Delegate"*, i32, i8, i8, i8, i8, i8, %class.scoped_refptr.63, %"class.base::WeakPtrFactory" }
%"class.base::RunLoop::Delegate" = type <{ i32 (...)**, %"class.std::__1::stack", %"class.base::ObserverList", i8, [7 x i8] }>
%"class.std::__1::stack" = type { %"class.std::__1::vector.49" }
%"class.std::__1::vector.49" = type { %"class.std::__1::__vector_base.50" }
%"class.std::__1::__vector_base.50" = type { %"class.base::RunLoop"**, %"class.base::RunLoop"**, %"class.std::__1::__compressed_pair.51" }
%"class.std::__1::__compressed_pair.51" = type { %"struct.std::__1::__compressed_pair_elem.52" }
%"struct.std::__1::__compressed_pair_elem.52" = type { %"class.base::RunLoop"** }
%"class.base::ObserverList" = type <{ %"class.std::__1::vector.56", %"class.base::LinkedList", i64, i32, [4 x i8] }>
%"class.std::__1::vector.56" = type { %"class.std::__1::__vector_base.57" }
%"class.std::__1::__vector_base.57" = type { %"class.base::internal::UncheckedObserverAdapter"*, %"class.base::internal::UncheckedObserverAdapter"*, %"class.std::__1::__compressed_pair.58" }
%"class.base::internal::UncheckedObserverAdapter" = type { i8* }
%"class.std::__1::__compressed_pair.58" = type { %"struct.std::__1::__compressed_pair_elem.59" }
%"struct.std::__1::__compressed_pair_elem.59" = type { %"class.base::internal::UncheckedObserverAdapter"* }
%"class.base::LinkedList" = type { %"class.base::LinkNode" }
%"class.base::LinkNode" = type { %"class.base::internal::LinkNodeBase" }
%"class.base::internal::LinkNodeBase" = type { %"class.base::internal::LinkNodeBase"*, %"class.base::internal::LinkNodeBase"* }
%class.scoped_refptr.63 = type { %"class.base::SingleThreadTaskRunner"* }
%"class.base::SingleThreadTaskRunner" = type { %"class.base::SequencedTaskRunner.base", [4 x i8] }
%"class.base::SequencedTaskRunner.base" = type { %"class.base::TaskRunner.base" }
%"class.base::WeakPtrFactory" = type { %"class.base::internal::WeakPtrFactoryBase" }
%"class.base::internal::WeakPtrFactoryBase" = type { %"class.base::internal::WeakReferenceOwner", i64 }
%"class.base::internal::WeakReferenceOwner" = type { %class.scoped_refptr.64 }
%class.scoped_refptr.64 = type { %"class.base::internal::WeakReference::Flag"* }
%"class.base::internal::WeakReference::Flag" = type <{ %"class.base::RefCountedThreadSafe.65", %"class.base::AtomicFlag", [3 x i8] }>
%"class.base::RefCountedThreadSafe.65" = type { %"class.base::subtle::RefCountedThreadSafeBase" }
%"class.base::AtomicFlag" = type { %"struct.std::__1::atomic.66" }
%"struct.std::__1::atomic.66" = type { %"struct.std::__1::__atomic_base.67" }
%"struct.std::__1::__atomic_base.67" = type { %"struct.std::__1::__atomic_base.68" }
%"struct.std::__1::__atomic_base.68" = type { %"struct.std::__1::__cxx_atomic_impl.69" }
%"struct.std::__1::__cxx_atomic_impl.69" = type { %"struct.std::__1::__cxx_atomic_base_impl.70" }
%"struct.std::__1::__cxx_atomic_base_impl.70" = type { i8 }
%"class.base::Location" = type { i8*, i8*, i32, i8* }
%"class.base::FilePath" = type { %"class.std::__1::basic_string" }
%"class.base::Value" = type { %"class.absl::variant" }
%"class.absl::variant" = type { %"class.absl::variant_internal::VariantCopyAssignBaseNontrivial" }
%"class.absl::variant_internal::VariantCopyAssignBaseNontrivial" = type { %"class.absl::variant_internal::VariantMoveAssignBaseNontrivial" }
%"class.absl::variant_internal::VariantMoveAssignBaseNontrivial" = type { %"class.absl::variant_internal::VariantCopyBaseNontrivial" }
%"class.absl::variant_internal::VariantCopyBaseNontrivial" = type { %"class.absl::variant_internal::VariantMoveBaseNontrivial" }
%"class.absl::variant_internal::VariantMoveBaseNontrivial" = type { %"class.absl::variant_internal::VariantStateBaseDestructorNontrivial" }
%"class.absl::variant_internal::VariantStateBaseDestructorNontrivial" = type { %"class.absl::variant_internal::VariantStateBase" }
%"class.absl::variant_internal::VariantStateBase" = type { %"union.absl::variant_internal::DestructibleUnionImpl", i64 }
%"union.absl::variant_internal::DestructibleUnionImpl" = type { %"union.absl::variant_internal::DestructibleUnionImpl.79" }
%"union.absl::variant_internal::DestructibleUnionImpl.79" = type { %"union.absl::variant_internal::DestructibleUnionImpl.80" }
%"union.absl::variant_internal::DestructibleUnionImpl.80" = type { %"union.absl::variant_internal::DestructibleUnionImpl.81" }
%"union.absl::variant_internal::DestructibleUnionImpl.81" = type { %"union.absl::variant_internal::DestructibleUnionImpl.82" }
%"union.absl::variant_internal::DestructibleUnionImpl.82" = type { %"class.std::__1::basic_string" }

$_ZN7storage5mojom17IndexedDBObserverD2Ev = comdat any

$_ZN7storage5mojom38IndexedDBObserverInterceptorForTestingD0Ev = comdat any

$_ZN7storage5mojom16IndexedDBControlD2Ev = comdat any

$_ZN7storage5mojom37IndexedDBControlInterceptorForTestingD0Ev = comdat any

@.str = private unnamed_addr constant [9 x i8] c"GetUsage\00", align 1
@.str.1 = private unnamed_addr constant [84 x i8] c"gen/components/services/storage/public/mojom/indexed_db_control.mojom-test-utils.cc\00", align 1
@.str.2 = private unnamed_addr constant [16 x i8] c"DeleteForOrigin\00", align 1
@.str.3 = private unnamed_addr constant [11 x i8] c"ForceClose\00", align 1
@.str.4 = private unnamed_addr constant [19 x i8] c"GetConnectionCount\00", align 1
@.str.5 = private unnamed_addr constant [19 x i8] c"DownloadOriginData\00", align 1
@.str.6 = private unnamed_addr constant [21 x i8] c"GetAllOriginsDetails\00", align 1
@_ZTVN7storage5mojom38IndexedDBObserverInterceptorForTestingE = hidden unnamed_addr constant { [7 x i8*] } { [7 x i8*] [i8* null, i8* null, i8* bitcast (void (%"class.storage::mojom::IndexedDBObserver"*)* @_ZN7storage5mojom17IndexedDBObserverD2Ev to i8*), i8* bitcast (void (%"class.storage::mojom::IndexedDBObserverInterceptorForTesting"*)* @_ZN7storage5mojom38IndexedDBObserverInterceptorForTestingD0Ev to i8*), i8* bitcast (void (%"class.storage::mojom::IndexedDBObserverInterceptorForTesting"*, %"class.url::Origin"*)* @_ZN7storage5mojom38IndexedDBObserverInterceptorForTesting22OnIndexedDBListChangedERKN3url6OriginE to i8*), i8* bitcast (void (%"class.storage::mojom::IndexedDBObserverInterceptorForTesting"*, %"class.url::Origin"*, %"class.std::__1::basic_string.2"*, %"class.std::__1::basic_string.2"*)* @_ZN7storage5mojom38IndexedDBObserverInterceptorForTesting25OnIndexedDBContentChangedERKN3url6OriginERKNSt3__112basic_stringIDsNS6_11char_traitsIDsEENS6_9allocatorIDsEEEESE_ to i8*), i8* bitcast (void ()* @__cxa_pure_virtual to i8*)] }, align 8
@_ZTVN7storage5mojom37IndexedDBControlInterceptorForTestingE = hidden unnamed_addr constant { [16 x i8*] } { [16 x i8*] [i8* null, i8* null, i8* bitcast (void (%"class.storage::mojom::IndexedDBControl"*)* @_ZN7storage5mojom16IndexedDBControlD2Ev to i8*), i8* bitcast (void (%"class.storage::mojom::IndexedDBControlInterceptorForTesting"*)* @_ZN7storage5mojom37IndexedDBControlInterceptorForTestingD0Ev to i8*), i8* bitcast (void (%"class.storage::mojom::IndexedDBControlInterceptorForTesting"*, %"class.url::Origin"*, %"class.mojo::PendingReceiver"*)* @_ZN7storage5mojom37IndexedDBControlInterceptorForTesting13BindIndexedDBERKN3url6OriginEN4mojo15PendingReceiverIN5blink5mojom10IDBFactoryEEE to i8*), i8* bitcast (void (%"class.storage::mojom::IndexedDBControlInterceptorForTesting"*, %"class.base::OnceCallback"*)* @_ZN7storage5mojom37IndexedDBControlInterceptorForTesting8GetUsageEN4base12OnceCallbackIFvNSt3__16vectorIN4mojo9StructPtrINS0_16StorageUsageInfoEEENS4_9allocatorIS9_EEEEEEE to i8*), i8* bitcast (void (%"class.storage::mojom::IndexedDBControlInterceptorForTesting"*, %"class.url::Origin"*, %"class.base::OnceCallback.21"*)* @_ZN7storage5mojom37IndexedDBControlInterceptorForTesting15DeleteForOriginERKN3url6OriginEN4base12OnceCallbackIFvbEEE to i8*), i8* bitcast (void (%"class.storage::mojom::IndexedDBControlInterceptorForTesting"*, %"class.url::Origin"*, i32, %"class.base::OnceCallback.22"*)* @_ZN7storage5mojom37IndexedDBControlInterceptorForTesting10ForceCloseERKN3url6OriginENS0_16ForceCloseReasonEN4base12OnceCallbackIFvvEEE to i8*), i8* bitcast (void (%"class.storage::mojom::IndexedDBControlInterceptorForTesting"*, %"class.url::Origin"*, %"class.base::OnceCallback.23"*)* @_ZN7storage5mojom37IndexedDBControlInterceptorForTesting18GetConnectionCountERKN3url6OriginEN4base12OnceCallbackIFvmEEE to i8*), i8* bitcast (void (%"class.storage::mojom::IndexedDBControlInterceptorForTesting"*, %"class.url::Origin"*, %"class.base::OnceCallback.24"*)* @_ZN7storage5mojom37IndexedDBControlInterceptorForTesting18DownloadOriginDataERKN3url6OriginEN4base12OnceCallbackIFvbRKNS6_8FilePathESA_EEE to i8*), i8* bitcast (void (%"class.storage::mojom::IndexedDBControlInterceptorForTesting"*, %"class.base::OnceCallback.25"*)* @_ZN7storage5mojom37IndexedDBControlInterceptorForTesting20GetAllOriginsDetailsEN4base12OnceCallbackIFvbNS2_5ValueEEEE to i8*), i8* bitcast (void (%"class.storage::mojom::IndexedDBControlInterceptorForTesting"*)* @_ZN7storage5mojom37IndexedDBControlInterceptorForTesting24SetForceKeepSessionStateEv to i8*), i8* bitcast (void (%"class.storage::mojom::IndexedDBControlInterceptorForTesting"*, %"class.mojo::PendingRemote"*)* @_ZN7storage5mojom37IndexedDBControlInterceptorForTesting11AddObserverEN4mojo13PendingRemoteINS0_17IndexedDBObserverEEE to i8*), i8* bitcast (void (%"class.storage::mojom::IndexedDBControlInterceptorForTesting"*, %"class.std::__1::vector"*)* @_ZN7storage5mojom37IndexedDBControlInterceptorForTesting18ApplyPolicyUpdatesENSt3__16vectorIN4mojo9StructPtrINS0_19StoragePolicyUpdateEEENS2_9allocatorIS7_EEEE to i8*), i8* bitcast (void (%"class.storage::mojom::IndexedDBControlInterceptorForTesting"*, %"class.mojo::PendingReceiver.34"*)* @_ZN7storage5mojom37IndexedDBControlInterceptorForTesting17BindTestInterfaceEN4mojo15PendingReceiverINS0_20IndexedDBControlTestEEE to i8*), i8* bitcast (void ()* @__cxa_pure_virtual to i8*)] }, align 8

@_ZN7storage5mojom28IndexedDBObserverAsyncWaiterC1EPNS0_17IndexedDBObserverE = hidden unnamed_addr alias void (%"class.storage::mojom::IndexedDBObserverAsyncWaiter"*, %"class.storage::mojom::IndexedDBObserver"*), void (%"class.storage::mojom::IndexedDBObserverAsyncWaiter"*, %"class.storage::mojom::IndexedDBObserver"*)* @_ZN7storage5mojom28IndexedDBObserverAsyncWaiterC2EPNS0_17IndexedDBObserverE
@_ZN7storage5mojom28IndexedDBObserverAsyncWaiterD1Ev = hidden unnamed_addr alias void (%"class.storage::mojom::IndexedDBObserverAsyncWaiter"*), void (%"class.storage::mojom::IndexedDBObserverAsyncWaiter"*)* @_ZN7storage5mojom28IndexedDBObserverAsyncWaiterD2Ev
@_ZN7storage5mojom27IndexedDBControlAsyncWaiterC1EPNS0_16IndexedDBControlE = hidden unnamed_addr alias void (%"class.storage::mojom::IndexedDBControlAsyncWaiter"*, %"class.storage::mojom::IndexedDBControl"*), void (%"class.storage::mojom::IndexedDBControlAsyncWaiter"*, %"class.storage::mojom::IndexedDBControl"*)* @_ZN7storage5mojom27IndexedDBControlAsyncWaiterC2EPNS0_16IndexedDBControlE
@_ZN7storage5mojom27IndexedDBControlAsyncWaiterD1Ev = hidden unnamed_addr alias void (%"class.storage::mojom::IndexedDBControlAsyncWaiter"*), void (%"class.storage::mojom::IndexedDBControlAsyncWaiter"*)* @_ZN7storage5mojom27IndexedDBControlAsyncWaiterD2Ev

; Function Attrs: nounwind ssp uwtable
define hidden void @_ZN7storage5mojom38IndexedDBObserverInterceptorForTesting22OnIndexedDBListChangedERKN3url6OriginE(%"class.storage::mojom::IndexedDBObserverInterceptorForTesting"*, %"class.url::Origin"* dereferenceable(80)) unnamed_addr #0 align 2 {
  %3 = bitcast %"class.storage::mojom::IndexedDBObserverInterceptorForTesting"* %0 to %"class.storage::mojom::IndexedDBObserver"* (%"class.storage::mojom::IndexedDBObserverInterceptorForTesting"*)***
  %4 = load %"class.storage::mojom::IndexedDBObserver"* (%"class.storage::mojom::IndexedDBObserverInterceptorForTesting"*)**, %"class.storage::mojom::IndexedDBObserver"* (%"class.storage::mojom::IndexedDBObserverInterceptorForTesting"*)*** %3, align 8
  %5 = getelementptr inbounds %"class.storage::mojom::IndexedDBObserver"* (%"class.storage::mojom::IndexedDBObserverInterceptorForTesting"*)*, %"class.storage::mojom::IndexedDBObserver"* (%"class.storage::mojom::IndexedDBObserverInterceptorForTesting"*)** %4, i64 4
  %6 = load %"class.storage::mojom::IndexedDBObserver"* (%"class.storage::mojom::IndexedDBObserverInterceptorForTesting"*)*, %"class.storage::mojom::IndexedDBObserver"* (%"class.storage::mojom::IndexedDBObserverInterceptorForTesting"*)** %5, align 8
  %7 = tail call %"class.storage::mojom::IndexedDBObserver"* %6(%"class.storage::mojom::IndexedDBObserverInterceptorForTesting"* %0) #10
  %8 = bitcast %"class.storage::mojom::IndexedDBObserver"* %7 to void (%"class.storage::mojom::IndexedDBObserver"*, %"class.url::Origin"*)***
  %9 = load void (%"class.storage::mojom::IndexedDBObserver"*, %"class.url::Origin"*)**, void (%"class.storage::mojom::IndexedDBObserver"*, %"class.url::Origin"*)*** %8, align 8
  %10 = getelementptr inbounds void (%"class.storage::mojom::IndexedDBObserver"*, %"class.url::Origin"*)*, void (%"class.storage::mojom::IndexedDBObserver"*, %"class.url::Origin"*)** %9, i64 2
  %11 = load void (%"class.storage::mojom::IndexedDBObserver"*, %"class.url::Origin"*)*, void (%"class.storage::mojom::IndexedDBObserver"*, %"class.url::Origin"*)** %10, align 8
  tail call void %11(%"class.storage::mojom::IndexedDBObserver"* %7, %"class.url::Origin"* dereferenceable(80) %1) #10
  ret void
}

; Function Attrs: nounwind ssp uwtable
define hidden void @_ZN7storage5mojom38IndexedDBObserverInterceptorForTesting25OnIndexedDBContentChangedERKN3url6OriginERKNSt3__112basic_stringIDsNS6_11char_traitsIDsEENS6_9allocatorIDsEEEESE_(%"class.storage::mojom::IndexedDBObserverInterceptorForTesting"*, %"class.url::Origin"* dereferenceable(80), %"class.std::__1::basic_string.2"* dereferenceable(24), %"class.std::__1::basic_string.2"* dereferenceable(24)) unnamed_addr #0 align 2 {
  %5 = bitcast %"class.storage::mojom::IndexedDBObserverInterceptorForTesting"* %0 to %"class.storage::mojom::IndexedDBObserver"* (%"class.storage::mojom::IndexedDBObserverInterceptorForTesting"*)***
  %6 = load %"class.storage::mojom::IndexedDBObserver"* (%"class.storage::mojom::IndexedDBObserverInterceptorForTesting"*)**, %"class.storage::mojom::IndexedDBObserver"* (%"class.storage::mojom::IndexedDBObserverInterceptorForTesting"*)*** %5, align 8
  %7 = getelementptr inbounds %"class.storage::mojom::IndexedDBObserver"* (%"class.storage::mojom::IndexedDBObserverInterceptorForTesting"*)*, %"class.storage::mojom::IndexedDBObserver"* (%"class.storage::mojom::IndexedDBObserverInterceptorForTesting"*)** %6, i64 4
  %8 = load %"class.storage::mojom::IndexedDBObserver"* (%"class.storage::mojom::IndexedDBObserverInterceptorForTesting"*)*, %"class.storage::mojom::IndexedDBObserver"* (%"class.storage::mojom::IndexedDBObserverInterceptorForTesting"*)** %7, align 8
  %9 = tail call %"class.storage::mojom::IndexedDBObserver"* %8(%"class.storage::mojom::IndexedDBObserverInterceptorForTesting"* %0) #10
  %10 = bitcast %"class.storage::mojom::IndexedDBObserver"* %9 to void (%"class.storage::mojom::IndexedDBObserver"*, %"class.url::Origin"*, %"class.std::__1::basic_string.2"*, %"class.std::__1::basic_string.2"*)***
  %11 = load void (%"class.storage::mojom::IndexedDBObserver"*, %"class.url::Origin"*, %"class.std::__1::basic_string.2"*, %"class.std::__1::basic_string.2"*)**, void (%"class.storage::mojom::IndexedDBObserver"*, %"class.url::Origin"*, %"class.std::__1::basic_string.2"*, %"class.std::__1::basic_string.2"*)*** %10, align 8
  %12 = getelementptr inbounds void (%"class.storage::mojom::IndexedDBObserver"*, %"class.url::Origin"*, %"class.std::__1::basic_string.2"*, %"class.std::__1::basic_string.2"*)*, void (%"class.storage::mojom::IndexedDBObserver"*, %"class.url::Origin"*, %"class.std::__1::basic_string.2"*, %"class.std::__1::basic_string.2"*)** %11, i64 3
  %13 = load void (%"class.storage::mojom::IndexedDBObserver"*, %"class.url::Origin"*, %"class.std::__1::basic_string.2"*, %"class.std::__1::basic_string.2"*)*, void (%"class.storage::mojom::IndexedDBObserver"*, %"class.url::Origin"*, %"class.std::__1::basic_string.2"*, %"class.std::__1::basic_string.2"*)** %12, align 8
  tail call void %13(%"class.storage::mojom::IndexedDBObserver"* %9, %"class.url::Origin"* dereferenceable(80) %1, %"class.std::__1::basic_string.2"* dereferenceable(24) %2, %"class.std::__1::basic_string.2"* dereferenceable(24) %3) #10
  ret void
}

; Function Attrs: nofree norecurse nounwind ssp uwtable writeonly
define hidden void @_ZN7storage5mojom28IndexedDBObserverAsyncWaiterC2EPNS0_17IndexedDBObserverE(%"class.storage::mojom::IndexedDBObserverAsyncWaiter"* nocapture, %"class.storage::mojom::IndexedDBObserver"*) unnamed_addr #1 align 2 {
  %3 = getelementptr inbounds %"class.storage::mojom::IndexedDBObserverAsyncWaiter", %"class.storage::mojom::IndexedDBObserverAsyncWaiter"* %0, i64 0, i32 0
  store %"class.storage::mojom::IndexedDBObserver"* %1, %"class.storage::mojom::IndexedDBObserver"** %3, align 8
  ret void
}

; Function Attrs: norecurse nounwind readnone ssp uwtable
define hidden void @_ZN7storage5mojom28IndexedDBObserverAsyncWaiterD2Ev(%"class.storage::mojom::IndexedDBObserverAsyncWaiter"* nocapture) unnamed_addr #2 align 2 {
  ret void
}

; Function Attrs: nounwind ssp uwtable
define hidden void @_ZN7storage5mojom37IndexedDBControlInterceptorForTesting13BindIndexedDBERKN3url6OriginEN4mojo15PendingReceiverIN5blink5mojom10IDBFactoryEEE(%"class.storage::mojom::IndexedDBControlInterceptorForTesting"*, %"class.url::Origin"* dereferenceable(80), %"class.mojo::PendingReceiver"*) unnamed_addr #0 align 2 {
  %4 = alloca %"class.mojo::PendingReceiver", align 8
  %5 = bitcast %"class.storage::mojom::IndexedDBControlInterceptorForTesting"* %0 to %"class.storage::mojom::IndexedDBControl"* (%"class.storage::mojom::IndexedDBControlInterceptorForTesting"*)***
  %6 = load %"class.storage::mojom::IndexedDBControl"* (%"class.storage::mojom::IndexedDBControlInterceptorForTesting"*)**, %"class.storage::mojom::IndexedDBControl"* (%"class.storage::mojom::IndexedDBControlInterceptorForTesting"*)*** %5, align 8
  %7 = getelementptr inbounds %"class.storage::mojom::IndexedDBControl"* (%"class.storage::mojom::IndexedDBControlInterceptorForTesting"*)*, %"class.storage::mojom::IndexedDBControl"* (%"class.storage::mojom::IndexedDBControlInterceptorForTesting"*)** %6, i64 13
  %8 = load %"class.storage::mojom::IndexedDBControl"* (%"class.storage::mojom::IndexedDBControlInterceptorForTesting"*)*, %"class.storage::mojom::IndexedDBControl"* (%"class.storage::mojom::IndexedDBControlInterceptorForTesting"*)** %7, align 8
  %9 = tail call %"class.storage::mojom::IndexedDBControl"* %8(%"class.storage::mojom::IndexedDBControlInterceptorForTesting"* %0) #10
  %10 = getelementptr inbounds %"class.mojo::PendingReceiver", %"class.mojo::PendingReceiver"* %4, i64 0, i32 0
  %11 = getelementptr inbounds %"class.mojo::PendingReceiver", %"class.mojo::PendingReceiver"* %2, i64 0, i32 0
  call void @_ZN4mojo8internal20PendingReceiverStateC1EOS1_(%"struct.mojo::internal::PendingReceiverState"* nonnull %10, %"struct.mojo::internal::PendingReceiverState"* dereferenceable(24) %11) #10
  %12 = bitcast %"class.storage::mojom::IndexedDBControl"* %9 to void (%"class.storage::mojom::IndexedDBControl"*, %"class.url::Origin"*, %"class.mojo::PendingReceiver"*)***
  %13 = load void (%"class.storage::mojom::IndexedDBControl"*, %"class.url::Origin"*, %"class.mojo::PendingReceiver"*)**, void (%"class.storage::mojom::IndexedDBControl"*, %"class.url::Origin"*, %"class.mojo::PendingReceiver"*)*** %12, align 8
  %14 = getelementptr inbounds void (%"class.storage::mojom::IndexedDBControl"*, %"class.url::Origin"*, %"class.mojo::PendingReceiver"*)*, void (%"class.storage::mojom::IndexedDBControl"*, %"class.url::Origin"*, %"class.mojo::PendingReceiver"*)** %13, i64 2
  %15 = load void (%"class.storage::mojom::IndexedDBControl"*, %"class.url::Origin"*, %"class.mojo::PendingReceiver"*)*, void (%"class.storage::mojom::IndexedDBControl"*, %"class.url::Origin"*, %"class.mojo::PendingReceiver"*)** %14, align 8
  call void %15(%"class.storage::mojom::IndexedDBControl"* %9, %"class.url::Origin"* dereferenceable(80) %1, %"class.mojo::PendingReceiver"* nonnull %4) #10
  call void @_ZN4mojo8internal20PendingReceiverStateD1Ev(%"struct.mojo::internal::PendingReceiverState"* nonnull %10) #10
  ret void
}

; Function Attrs: nounwind ssp uwtable
define hidden void @_ZN7storage5mojom37IndexedDBControlInterceptorForTesting8GetUsageEN4base12OnceCallbackIFvNSt3__16vectorIN4mojo9StructPtrINS0_16StorageUsageInfoEEENS4_9allocatorIS9_EEEEEEE(%"class.storage::mojom::IndexedDBControlInterceptorForTesting"*, %"class.base::OnceCallback"* nocapture) unnamed_addr #0 align 2 {
  %3 = alloca %"class.base::OnceCallback", align 8
  %4 = bitcast %"class.storage::mojom::IndexedDBControlInterceptorForTesting"* %0 to %"class.storage::mojom::IndexedDBControl"* (%"class.storage::mojom::IndexedDBControlInterceptorForTesting"*)***
  %5 = load %"class.storage::mojom::IndexedDBControl"* (%"class.storage::mojom::IndexedDBControlInterceptorForTesting"*)**, %"class.storage::mojom::IndexedDBControl"* (%"class.storage::mojom::IndexedDBControlInterceptorForTesting"*)*** %4, align 8
  %6 = getelementptr inbounds %"class.storage::mojom::IndexedDBControl"* (%"class.storage::mojom::IndexedDBControlInterceptorForTesting"*)*, %"class.storage::mojom::IndexedDBControl"* (%"class.storage::mojom::IndexedDBControlInterceptorForTesting"*)** %5, i64 13
  %7 = load %"class.storage::mojom::IndexedDBControl"* (%"class.storage::mojom::IndexedDBControlInterceptorForTesting"*)*, %"class.storage::mojom::IndexedDBControl"* (%"class.storage::mojom::IndexedDBControlInterceptorForTesting"*)** %6, align 8
  %8 = tail call %"class.storage::mojom::IndexedDBControl"* %7(%"class.storage::mojom::IndexedDBControlInterceptorForTesting"* %0) #10
  %9 = getelementptr inbounds %"class.base::OnceCallback", %"class.base::OnceCallback"* %1, i64 0, i32 0, i32 0, i32 0
  %10 = bitcast %"class.base::OnceCallback"* %1 to i64*
  %11 = load i64, i64* %10, align 8
  %12 = bitcast %"class.base::OnceCallback"* %3 to i64*
  store i64 %11, i64* %12, align 8
  store %"class.base::internal::BindStateBase"* null, %"class.base::internal::BindStateBase"** %9, align 8
  %13 = bitcast %"class.storage::mojom::IndexedDBControl"* %8 to void (%"class.storage::mojom::IndexedDBControl"*, %"class.base::OnceCallback"*)***
  %14 = load void (%"class.storage::mojom::IndexedDBControl"*, %"class.base::OnceCallback"*)**, void (%"class.storage::mojom::IndexedDBControl"*, %"class.base::OnceCallback"*)*** %13, align 8
  %15 = getelementptr inbounds void (%"class.storage::mojom::IndexedDBControl"*, %"class.base::OnceCallback"*)*, void (%"class.storage::mojom::IndexedDBControl"*, %"class.base::OnceCallback"*)** %14, i64 3
  %16 = load void (%"class.storage::mojom::IndexedDBControl"*, %"class.base::OnceCallback"*)*, void (%"class.storage::mojom::IndexedDBControl"*, %"class.base::OnceCallback"*)** %15, align 8
  call void %16(%"class.storage::mojom::IndexedDBControl"* %8, %"class.base::OnceCallback"* nonnull %3) #10
  %17 = getelementptr inbounds %"class.base::OnceCallback", %"class.base::OnceCallback"* %3, i64 0, i32 0
  call void @_ZN4base8internal12CallbackBaseD2Ev(%"class.base::internal::CallbackBase"* nonnull %17) #10
  ret void
}

; Function Attrs: nounwind ssp uwtable
define hidden void @_ZN7storage5mojom37IndexedDBControlInterceptorForTesting15DeleteForOriginERKN3url6OriginEN4base12OnceCallbackIFvbEEE(%"class.storage::mojom::IndexedDBControlInterceptorForTesting"*, %"class.url::Origin"* dereferenceable(80), %"class.base::OnceCallback.21"* nocapture) unnamed_addr #0 align 2 {
  %4 = alloca %"class.base::OnceCallback.21", align 8
  %5 = bitcast %"class.storage::mojom::IndexedDBControlInterceptorForTesting"* %0 to %"class.storage::mojom::IndexedDBControl"* (%"class.storage::mojom::IndexedDBControlInterceptorForTesting"*)***
  %6 = load %"class.storage::mojom::IndexedDBControl"* (%"class.storage::mojom::IndexedDBControlInterceptorForTesting"*)**, %"class.storage::mojom::IndexedDBControl"* (%"class.storage::mojom::IndexedDBControlInterceptorForTesting"*)*** %5, align 8
  %7 = getelementptr inbounds %"class.storage::mojom::IndexedDBControl"* (%"class.storage::mojom::IndexedDBControlInterceptorForTesting"*)*, %"class.storage::mojom::IndexedDBControl"* (%"class.storage::mojom::IndexedDBControlInterceptorForTesting"*)** %6, i64 13
  %8 = load %"class.storage::mojom::IndexedDBControl"* (%"class.storage::mojom::IndexedDBControlInterceptorForTesting"*)*, %"class.storage::mojom::IndexedDBControl"* (%"class.storage::mojom::IndexedDBControlInterceptorForTesting"*)** %7, align 8
  %9 = tail call %"class.storage::mojom::IndexedDBControl"* %8(%"class.storage::mojom::IndexedDBControlInterceptorForTesting"* %0) #10
  %10 = getelementptr inbounds %"class.base::OnceCallback.21", %"class.base::OnceCallback.21"* %2, i64 0, i32 0, i32 0, i32 0
  %11 = bitcast %"class.base::OnceCallback.21"* %2 to i64*
  %12 = load i64, i64* %11, align 8
  %13 = bitcast %"class.base::OnceCallback.21"* %4 to i64*
  store i64 %12, i64* %13, align 8
  store %"class.base::internal::BindStateBase"* null, %"class.base::internal::BindStateBase"** %10, align 8
  %14 = bitcast %"class.storage::mojom::IndexedDBControl"* %9 to void (%"class.storage::mojom::IndexedDBControl"*, %"class.url::Origin"*, %"class.base::OnceCallback.21"*)***
  %15 = load void (%"class.storage::mojom::IndexedDBControl"*, %"class.url::Origin"*, %"class.base::OnceCallback.21"*)**, void (%"class.storage::mojom::IndexedDBControl"*, %"class.url::Origin"*, %"class.base::OnceCallback.21"*)*** %14, align 8
  %16 = getelementptr inbounds void (%"class.storage::mojom::IndexedDBControl"*, %"class.url::Origin"*, %"class.base::OnceCallback.21"*)*, void (%"class.storage::mojom::IndexedDBControl"*, %"class.url::Origin"*, %"class.base::OnceCallback.21"*)** %15, i64 4
  %17 = load void (%"class.storage::mojom::IndexedDBControl"*, %"class.url::Origin"*, %"class.base::OnceCallback.21"*)*, void (%"class.storage::mojom::IndexedDBControl"*, %"class.url::Origin"*, %"class.base::OnceCallback.21"*)** %16, align 8
  call void %17(%"class.storage::mojom::IndexedDBControl"* %9, %"class.url::Origin"* dereferenceable(80) %1, %"class.base::OnceCallback.21"* nonnull %4) #10
  %18 = getelementptr inbounds %"class.base::OnceCallback.21", %"class.base::OnceCallback.21"* %4, i64 0, i32 0
  call void @_ZN4base8internal12CallbackBaseD2Ev(%"class.base::internal::CallbackBase"* nonnull %18) #10
  ret void
}

; Function Attrs: nounwind ssp uwtable
define hidden void @_ZN7storage5mojom37IndexedDBControlInterceptorForTesting10ForceCloseERKN3url6OriginENS0_16ForceCloseReasonEN4base12OnceCallbackIFvvEEE(%"class.storage::mojom::IndexedDBControlInterceptorForTesting"*, %"class.url::Origin"* dereferenceable(80), i32, %"class.base::OnceCallback.22"* nocapture) unnamed_addr #0 align 2 {
  %5 = alloca %"class.base::OnceCallback.22", align 8
  %6 = bitcast %"class.storage::mojom::IndexedDBControlInterceptorForTesting"* %0 to %"class.storage::mojom::IndexedDBControl"* (%"class.storage::mojom::IndexedDBControlInterceptorForTesting"*)***
  %7 = load %"class.storage::mojom::IndexedDBControl"* (%"class.storage::mojom::IndexedDBControlInterceptorForTesting"*)**, %"class.storage::mojom::IndexedDBControl"* (%"class.storage::mojom::IndexedDBControlInterceptorForTesting"*)*** %6, align 8
  %8 = getelementptr inbounds %"class.storage::mojom::IndexedDBControl"* (%"class.storage::mojom::IndexedDBControlInterceptorForTesting"*)*, %"class.storage::mojom::IndexedDBControl"* (%"class.storage::mojom::IndexedDBControlInterceptorForTesting"*)** %7, i64 13
  %9 = load %"class.storage::mojom::IndexedDBControl"* (%"class.storage::mojom::IndexedDBControlInterceptorForTesting"*)*, %"class.storage::mojom::IndexedDBControl"* (%"class.storage::mojom::IndexedDBControlInterceptorForTesting"*)** %8, align 8
  %10 = tail call %"class.storage::mojom::IndexedDBControl"* %9(%"class.storage::mojom::IndexedDBControlInterceptorForTesting"* %0) #10
  %11 = getelementptr inbounds %"class.base::OnceCallback.22", %"class.base::OnceCallback.22"* %3, i64 0, i32 0, i32 0, i32 0
  %12 = bitcast %"class.base::OnceCallback.22"* %3 to i64*
  %13 = load i64, i64* %12, align 8
  %14 = bitcast %"class.base::OnceCallback.22"* %5 to i64*
  store i64 %13, i64* %14, align 8
  store %"class.base::internal::BindStateBase"* null, %"class.base::internal::BindStateBase"** %11, align 8
  %15 = bitcast %"class.storage::mojom::IndexedDBControl"* %10 to void (%"class.storage::mojom::IndexedDBControl"*, %"class.url::Origin"*, i32, %"class.base::OnceCallback.22"*)***
  %16 = load void (%"class.storage::mojom::IndexedDBControl"*, %"class.url::Origin"*, i32, %"class.base::OnceCallback.22"*)**, void (%"class.storage::mojom::IndexedDBControl"*, %"class.url::Origin"*, i32, %"class.base::OnceCallback.22"*)*** %15, align 8
  %17 = getelementptr inbounds void (%"class.storage::mojom::IndexedDBControl"*, %"class.url::Origin"*, i32, %"class.base::OnceCallback.22"*)*, void (%"class.storage::mojom::IndexedDBControl"*, %"class.url::Origin"*, i32, %"class.base::OnceCallback.22"*)** %16, i64 5
  %18 = load void (%"class.storage::mojom::IndexedDBControl"*, %"class.url::Origin"*, i32, %"class.base::OnceCallback.22"*)*, void (%"class.storage::mojom::IndexedDBControl"*, %"class.url::Origin"*, i32, %"class.base::OnceCallback.22"*)** %17, align 8
  call void %18(%"class.storage::mojom::IndexedDBControl"* %10, %"class.url::Origin"* dereferenceable(80) %1, i32 %2, %"class.base::OnceCallback.22"* nonnull %5) #10
  %19 = getelementptr inbounds %"class.base::OnceCallback.22", %"class.base::OnceCallback.22"* %5, i64 0, i32 0
  call void @_ZN4base8internal12CallbackBaseD2Ev(%"class.base::internal::CallbackBase"* nonnull %19) #10
  ret void
}

; Function Attrs: nounwind ssp uwtable
define hidden void @_ZN7storage5mojom37IndexedDBControlInterceptorForTesting18GetConnectionCountERKN3url6OriginEN4base12OnceCallbackIFvmEEE(%"class.storage::mojom::IndexedDBControlInterceptorForTesting"*, %"class.url::Origin"* dereferenceable(80), %"class.base::OnceCallback.23"* nocapture) unnamed_addr #0 align 2 {
  %4 = alloca %"class.base::OnceCallback.23", align 8
  %5 = bitcast %"class.storage::mojom::IndexedDBControlInterceptorForTesting"* %0 to %"class.storage::mojom::IndexedDBControl"* (%"class.storage::mojom::IndexedDBControlInterceptorForTesting"*)***
  %6 = load %"class.storage::mojom::IndexedDBControl"* (%"class.storage::mojom::IndexedDBControlInterceptorForTesting"*)**, %"class.storage::mojom::IndexedDBControl"* (%"class.storage::mojom::IndexedDBControlInterceptorForTesting"*)*** %5, align 8
  %7 = getelementptr inbounds %"class.storage::mojom::IndexedDBControl"* (%"class.storage::mojom::IndexedDBControlInterceptorForTesting"*)*, %"class.storage::mojom::IndexedDBControl"* (%"class.storage::mojom::IndexedDBControlInterceptorForTesting"*)** %6, i64 13
  %8 = load %"class.storage::mojom::IndexedDBControl"* (%"class.storage::mojom::IndexedDBControlInterceptorForTesting"*)*, %"class.storage::mojom::IndexedDBControl"* (%"class.storage::mojom::IndexedDBControlInterceptorForTesting"*)** %7, align 8
  %9 = tail call %"class.storage::mojom::IndexedDBControl"* %8(%"class.storage::mojom::IndexedDBControlInterceptorForTesting"* %0) #10
  %10 = getelementptr inbounds %"class.base::OnceCallback.23", %"class.base::OnceCallback.23"* %2, i64 0, i32 0, i32 0, i32 0
  %11 = bitcast %"class.base::OnceCallback.23"* %2 to i64*
  %12 = load i64, i64* %11, align 8
  %13 = bitcast %"class.base::OnceCallback.23"* %4 to i64*
  store i64 %12, i64* %13, align 8
  store %"class.base::internal::BindStateBase"* null, %"class.base::internal::BindStateBase"** %10, align 8
  %14 = bitcast %"class.storage::mojom::IndexedDBControl"* %9 to void (%"class.storage::mojom::IndexedDBControl"*, %"class.url::Origin"*, %"class.base::OnceCallback.23"*)***
  %15 = load void (%"class.storage::mojom::IndexedDBControl"*, %"class.url::Origin"*, %"class.base::OnceCallback.23"*)**, void (%"class.storage::mojom::IndexedDBControl"*, %"class.url::Origin"*, %"class.base::OnceCallback.23"*)*** %14, align 8
  %16 = getelementptr inbounds void (%"class.storage::mojom::IndexedDBControl"*, %"class.url::Origin"*, %"class.base::OnceCallback.23"*)*, void (%"class.storage::mojom::IndexedDBControl"*, %"class.url::Origin"*, %"class.base::OnceCallback.23"*)** %15, i64 6
  %17 = load void (%"class.storage::mojom::IndexedDBControl"*, %"class.url::Origin"*, %"class.base::OnceCallback.23"*)*, void (%"class.storage::mojom::IndexedDBControl"*, %"class.url::Origin"*, %"class.base::OnceCallback.23"*)** %16, align 8
  call void %17(%"class.storage::mojom::IndexedDBControl"* %9, %"class.url::Origin"* dereferenceable(80) %1, %"class.base::OnceCallback.23"* nonnull %4) #10
  %18 = getelementptr inbounds %"class.base::OnceCallback.23", %"class.base::OnceCallback.23"* %4, i64 0, i32 0
  call void @_ZN4base8internal12CallbackBaseD2Ev(%"class.base::internal::CallbackBase"* nonnull %18) #10
  ret void
}

; Function Attrs: nounwind
declare void @_ZN4base8internal12CallbackBaseD2Ev(%"class.base::internal::CallbackBase"*) unnamed_addr #3

; Function Attrs: nounwind ssp uwtable
define hidden void @_ZN7storage5mojom37IndexedDBControlInterceptorForTesting18DownloadOriginDataERKN3url6OriginEN4base12OnceCallbackIFvbRKNS6_8FilePathESA_EEE(%"class.storage::mojom::IndexedDBControlInterceptorForTesting"*, %"class.url::Origin"* dereferenceable(80), %"class.base::OnceCallback.24"* nocapture) unnamed_addr #0 align 2 {
  %4 = alloca %"class.base::OnceCallback.24", align 8
  %5 = bitcast %"class.storage::mojom::IndexedDBControlInterceptorForTesting"* %0 to %"class.storage::mojom::IndexedDBControl"* (%"class.storage::mojom::IndexedDBControlInterceptorForTesting"*)***
  %6 = load %"class.storage::mojom::IndexedDBControl"* (%"class.storage::mojom::IndexedDBControlInterceptorForTesting"*)**, %"class.storage::mojom::IndexedDBControl"* (%"class.storage::mojom::IndexedDBControlInterceptorForTesting"*)*** %5, align 8
  %7 = getelementptr inbounds %"class.storage::mojom::IndexedDBControl"* (%"class.storage::mojom::IndexedDBControlInterceptorForTesting"*)*, %"class.storage::mojom::IndexedDBControl"* (%"class.storage::mojom::IndexedDBControlInterceptorForTesting"*)** %6, i64 13
  %8 = load %"class.storage::mojom::IndexedDBControl"* (%"class.storage::mojom::IndexedDBControlInterceptorForTesting"*)*, %"class.storage::mojom::IndexedDBControl"* (%"class.storage::mojom::IndexedDBControlInterceptorForTesting"*)** %7, align 8
  %9 = tail call %"class.storage::mojom::IndexedDBControl"* %8(%"class.storage::mojom::IndexedDBControlInterceptorForTesting"* %0) #10
  %10 = getelementptr inbounds %"class.base::OnceCallback.24", %"class.base::OnceCallback.24"* %2, i64 0, i32 0, i32 0, i32 0
  %11 = bitcast %"class.base::OnceCallback.24"* %2 to i64*
  %12 = load i64, i64* %11, align 8
  %13 = bitcast %"class.base::OnceCallback.24"* %4 to i64*
  store i64 %12, i64* %13, align 8
  store %"class.base::internal::BindStateBase"* null, %"class.base::internal::BindStateBase"** %10, align 8
  %14 = bitcast %"class.storage::mojom::IndexedDBControl"* %9 to void (%"class.storage::mojom::IndexedDBControl"*, %"class.url::Origin"*, %"class.base::OnceCallback.24"*)***
  %15 = load void (%"class.storage::mojom::IndexedDBControl"*, %"class.url::Origin"*, %"class.base::OnceCallback.24"*)**, void (%"class.storage::mojom::IndexedDBControl"*, %"class.url::Origin"*, %"class.base::OnceCallback.24"*)*** %14, align 8
  %16 = getelementptr inbounds void (%"class.storage::mojom::IndexedDBControl"*, %"class.url::Origin"*, %"class.base::OnceCallback.24"*)*, void (%"class.storage::mojom::IndexedDBControl"*, %"class.url::Origin"*, %"class.base::OnceCallback.24"*)** %15, i64 7
  %17 = load void (%"class.storage::mojom::IndexedDBControl"*, %"class.url::Origin"*, %"class.base::OnceCallback.24"*)*, void (%"class.storage::mojom::IndexedDBControl"*, %"class.url::Origin"*, %"class.base::OnceCallback.24"*)** %16, align 8
  call void %17(%"class.storage::mojom::IndexedDBControl"* %9, %"class.url::Origin"* dereferenceable(80) %1, %"class.base::OnceCallback.24"* nonnull %4) #10
  %18 = getelementptr inbounds %"class.base::OnceCallback.24", %"class.base::OnceCallback.24"* %4, i64 0, i32 0
  call void @_ZN4base8internal12CallbackBaseD2Ev(%"class.base::internal::CallbackBase"* nonnull %18) #10
  ret void
}

; Function Attrs: nounwind ssp uwtable
define hidden void @_ZN7storage5mojom37IndexedDBControlInterceptorForTesting20GetAllOriginsDetailsEN4base12OnceCallbackIFvbNS2_5ValueEEEE(%"class.storage::mojom::IndexedDBControlInterceptorForTesting"*, %"class.base::OnceCallback.25"* nocapture) unnamed_addr #0 align 2 {
  %3 = alloca %"class.base::OnceCallback.25", align 8
  %4 = bitcast %"class.storage::mojom::IndexedDBControlInterceptorForTesting"* %0 to %"class.storage::mojom::IndexedDBControl"* (%"class.storage::mojom::IndexedDBControlInterceptorForTesting"*)***
  %5 = load %"class.storage::mojom::IndexedDBControl"* (%"class.storage::mojom::IndexedDBControlInterceptorForTesting"*)**, %"class.storage::mojom::IndexedDBControl"* (%"class.storage::mojom::IndexedDBControlInterceptorForTesting"*)*** %4, align 8
  %6 = getelementptr inbounds %"class.storage::mojom::IndexedDBControl"* (%"class.storage::mojom::IndexedDBControlInterceptorForTesting"*)*, %"class.storage::mojom::IndexedDBControl"* (%"class.storage::mojom::IndexedDBControlInterceptorForTesting"*)** %5, i64 13
  %7 = load %"class.storage::mojom::IndexedDBControl"* (%"class.storage::mojom::IndexedDBControlInterceptorForTesting"*)*, %"class.storage::mojom::IndexedDBControl"* (%"class.storage::mojom::IndexedDBControlInterceptorForTesting"*)** %6, align 8
  %8 = tail call %"class.storage::mojom::IndexedDBControl"* %7(%"class.storage::mojom::IndexedDBControlInterceptorForTesting"* %0) #10
  %9 = getelementptr inbounds %"class.base::OnceCallback.25", %"class.base::OnceCallback.25"* %1, i64 0, i32 0, i32 0, i32 0
  %10 = bitcast %"class.base::OnceCallback.25"* %1 to i64*
  %11 = load i64, i64* %10, align 8
  %12 = bitcast %"class.base::OnceCallback.25"* %3 to i64*
  store i64 %11, i64* %12, align 8
  store %"class.base::internal::BindStateBase"* null, %"class.base::internal::BindStateBase"** %9, align 8
  %13 = bitcast %"class.storage::mojom::IndexedDBControl"* %8 to void (%"class.storage::mojom::IndexedDBControl"*, %"class.base::OnceCallback.25"*)***
  %14 = load void (%"class.storage::mojom::IndexedDBControl"*, %"class.base::OnceCallback.25"*)**, void (%"class.storage::mojom::IndexedDBControl"*, %"class.base::OnceCallback.25"*)*** %13, align 8
  %15 = getelementptr inbounds void (%"class.storage::mojom::IndexedDBControl"*, %"class.base::OnceCallback.25"*)*, void (%"class.storage::mojom::IndexedDBControl"*, %"class.base::OnceCallback.25"*)** %14, i64 8
  %16 = load void (%"class.storage::mojom::IndexedDBControl"*, %"class.base::OnceCallback.25"*)*, void (%"class.storage::mojom::IndexedDBControl"*, %"class.base::OnceCallback.25"*)** %15, align 8
  call void %16(%"class.storage::mojom::IndexedDBControl"* %8, %"class.base::OnceCallback.25"* nonnull %3) #10
  %17 = getelementptr inbounds %"class.base::OnceCallback.25", %"class.base::OnceCallback.25"* %3, i64 0, i32 0
  call void @_ZN4base8internal12CallbackBaseD2Ev(%"class.base::internal::CallbackBase"* nonnull %17) #10
  ret void
}

; Function Attrs: nounwind ssp uwtable
define hidden void @_ZN7storage5mojom37IndexedDBControlInterceptorForTesting24SetForceKeepSessionStateEv(%"class.storage::mojom::IndexedDBControlInterceptorForTesting"*) unnamed_addr #0 align 2 {
  %2 = bitcast %"class.storage::mojom::IndexedDBControlInterceptorForTesting"* %0 to %"class.storage::mojom::IndexedDBControl"* (%"class.storage::mojom::IndexedDBControlInterceptorForTesting"*)***
  %3 = load %"class.storage::mojom::IndexedDBControl"* (%"class.storage::mojom::IndexedDBControlInterceptorForTesting"*)**, %"class.storage::mojom::IndexedDBControl"* (%"class.storage::mojom::IndexedDBControlInterceptorForTesting"*)*** %2, align 8
  %4 = getelementptr inbounds %"class.storage::mojom::IndexedDBControl"* (%"class.storage::mojom::IndexedDBControlInterceptorForTesting"*)*, %"class.storage::mojom::IndexedDBControl"* (%"class.storage::mojom::IndexedDBControlInterceptorForTesting"*)** %3, i64 13
  %5 = load %"class.storage::mojom::IndexedDBControl"* (%"class.storage::mojom::IndexedDBControlInterceptorForTesting"*)*, %"class.storage::mojom::IndexedDBControl"* (%"class.storage::mojom::IndexedDBControlInterceptorForTesting"*)** %4, align 8
  %6 = tail call %"class.storage::mojom::IndexedDBControl"* %5(%"class.storage::mojom::IndexedDBControlInterceptorForTesting"* %0) #10
  %7 = bitcast %"class.storage::mojom::IndexedDBControl"* %6 to void (%"class.storage::mojom::IndexedDBControl"*)***
  %8 = load void (%"class.storage::mojom::IndexedDBControl"*)**, void (%"class.storage::mojom::IndexedDBControl"*)*** %7, align 8
  %9 = getelementptr inbounds void (%"class.storage::mojom::IndexedDBControl"*)*, void (%"class.storage::mojom::IndexedDBControl"*)** %8, i64 9
  %10 = load void (%"class.storage::mojom::IndexedDBControl"*)*, void (%"class.storage::mojom::IndexedDBControl"*)** %9, align 8
  tail call void %10(%"class.storage::mojom::IndexedDBControl"* %6) #10
  ret void
}

; Function Attrs: nounwind ssp uwtable
define hidden void @_ZN7storage5mojom37IndexedDBControlInterceptorForTesting11AddObserverEN4mojo13PendingRemoteINS0_17IndexedDBObserverEEE(%"class.storage::mojom::IndexedDBControlInterceptorForTesting"*, %"class.mojo::PendingRemote"*) unnamed_addr #0 align 2 {
  %3 = alloca %"class.mojo::PendingRemote", align 4
  %4 = bitcast %"class.storage::mojom::IndexedDBControlInterceptorForTesting"* %0 to %"class.storage::mojom::IndexedDBControl"* (%"class.storage::mojom::IndexedDBControlInterceptorForTesting"*)***
  %5 = load %"class.storage::mojom::IndexedDBControl"* (%"class.storage::mojom::IndexedDBControlInterceptorForTesting"*)**, %"class.storage::mojom::IndexedDBControl"* (%"class.storage::mojom::IndexedDBControlInterceptorForTesting"*)*** %4, align 8
  %6 = getelementptr inbounds %"class.storage::mojom::IndexedDBControl"* (%"class.storage::mojom::IndexedDBControlInterceptorForTesting"*)*, %"class.storage::mojom::IndexedDBControl"* (%"class.storage::mojom::IndexedDBControlInterceptorForTesting"*)** %5, i64 13
  %7 = load %"class.storage::mojom::IndexedDBControl"* (%"class.storage::mojom::IndexedDBControlInterceptorForTesting"*)*, %"class.storage::mojom::IndexedDBControl"* (%"class.storage::mojom::IndexedDBControlInterceptorForTesting"*)** %6, align 8
  %8 = tail call %"class.storage::mojom::IndexedDBControl"* %7(%"class.storage::mojom::IndexedDBControlInterceptorForTesting"* %0) #10
  %9 = getelementptr inbounds %"class.mojo::PendingRemote", %"class.mojo::PendingRemote"* %3, i64 0, i32 0
  %10 = getelementptr inbounds %"class.mojo::PendingRemote", %"class.mojo::PendingRemote"* %1, i64 0, i32 0
  call void @_ZN4mojo8internal18PendingRemoteStateC1EOS1_(%"struct.mojo::internal::PendingRemoteState"* nonnull %9, %"struct.mojo::internal::PendingRemoteState"* dereferenceable(8) %10) #10
  %11 = bitcast %"class.storage::mojom::IndexedDBControl"* %8 to void (%"class.storage::mojom::IndexedDBControl"*, %"class.mojo::PendingRemote"*)***
  %12 = load void (%"class.storage::mojom::IndexedDBControl"*, %"class.mojo::PendingRemote"*)**, void (%"class.storage::mojom::IndexedDBControl"*, %"class.mojo::PendingRemote"*)*** %11, align 8
  %13 = getelementptr inbounds void (%"class.storage::mojom::IndexedDBControl"*, %"class.mojo::PendingRemote"*)*, void (%"class.storage::mojom::IndexedDBControl"*, %"class.mojo::PendingRemote"*)** %12, i64 10
  %14 = load void (%"class.storage::mojom::IndexedDBControl"*, %"class.mojo::PendingRemote"*)*, void (%"class.storage::mojom::IndexedDBControl"*, %"class.mojo::PendingRemote"*)** %13, align 8
  call void %14(%"class.storage::mojom::IndexedDBControl"* %8, %"class.mojo::PendingRemote"* nonnull %3) #10
  call void @_ZN4mojo8internal18PendingRemoteStateD1Ev(%"struct.mojo::internal::PendingRemoteState"* nonnull %9) #10
  ret void
}

; Function Attrs: nounwind ssp uwtable
define hidden void @_ZN7storage5mojom37IndexedDBControlInterceptorForTesting18ApplyPolicyUpdatesENSt3__16vectorIN4mojo9StructPtrINS0_19StoragePolicyUpdateEEENS2_9allocatorIS7_EEEE(%"class.storage::mojom::IndexedDBControlInterceptorForTesting"*, %"class.std::__1::vector"* nocapture) unnamed_addr #0 align 2 {
  %3 = alloca %"class.std::__1::vector", align 16
  %4 = bitcast %"class.storage::mojom::IndexedDBControlInterceptorForTesting"* %0 to %"class.storage::mojom::IndexedDBControl"* (%"class.storage::mojom::IndexedDBControlInterceptorForTesting"*)***
  %5 = load %"class.storage::mojom::IndexedDBControl"* (%"class.storage::mojom::IndexedDBControlInterceptorForTesting"*)**, %"class.storage::mojom::IndexedDBControl"* (%"class.storage::mojom::IndexedDBControlInterceptorForTesting"*)*** %4, align 8
  %6 = getelementptr inbounds %"class.storage::mojom::IndexedDBControl"* (%"class.storage::mojom::IndexedDBControlInterceptorForTesting"*)*, %"class.storage::mojom::IndexedDBControl"* (%"class.storage::mojom::IndexedDBControlInterceptorForTesting"*)** %5, i64 13
  %7 = load %"class.storage::mojom::IndexedDBControl"* (%"class.storage::mojom::IndexedDBControlInterceptorForTesting"*)*, %"class.storage::mojom::IndexedDBControl"* (%"class.storage::mojom::IndexedDBControlInterceptorForTesting"*)** %6, align 8
  %8 = tail call %"class.storage::mojom::IndexedDBControl"* %7(%"class.storage::mojom::IndexedDBControlInterceptorForTesting"* %0) #10
  %9 = bitcast %"class.std::__1::vector"* %1 to <2 x i64>*
  %10 = load <2 x i64>, <2 x i64>* %9, align 8
  %11 = getelementptr inbounds %"class.std::__1::vector", %"class.std::__1::vector"* %3, i64 0, i32 0, i32 1
  %12 = bitcast %"class.std::__1::vector"* %3 to <2 x i64>*
  store <2 x i64> %10, <2 x i64>* %12, align 16
  %13 = getelementptr inbounds %"class.std::__1::vector", %"class.std::__1::vector"* %1, i64 0, i32 0, i32 2, i32 0, i32 0
  %14 = bitcast %"class.mojo::StructPtr"** %13 to i64*
  %15 = load i64, i64* %14, align 8
  %16 = getelementptr inbounds %"class.std::__1::vector", %"class.std::__1::vector"* %3, i64 0, i32 0, i32 2, i32 0, i32 0
  %17 = bitcast %"class.mojo::StructPtr"** %16 to i64*
  store i64 %15, i64* %17, align 16
  %18 = bitcast %"class.std::__1::vector"* %1 to i8*
  tail call void @llvm.memset.p0i8.i64(i8* align 8 %18, i8 0, i64 24, i1 false) #10
  %19 = bitcast %"class.storage::mojom::IndexedDBControl"* %8 to void (%"class.storage::mojom::IndexedDBControl"*, %"class.std::__1::vector"*)***
  %20 = load void (%"class.storage::mojom::IndexedDBControl"*, %"class.std::__1::vector"*)**, void (%"class.storage::mojom::IndexedDBControl"*, %"class.std::__1::vector"*)*** %19, align 8
  %21 = getelementptr inbounds void (%"class.storage::mojom::IndexedDBControl"*, %"class.std::__1::vector"*)*, void (%"class.storage::mojom::IndexedDBControl"*, %"class.std::__1::vector"*)** %20, i64 11
  %22 = load void (%"class.storage::mojom::IndexedDBControl"*, %"class.std::__1::vector"*)*, void (%"class.storage::mojom::IndexedDBControl"*, %"class.std::__1::vector"*)** %21, align 8
  call void %22(%"class.storage::mojom::IndexedDBControl"* %8, %"class.std::__1::vector"* nonnull %3) #10
  %23 = getelementptr inbounds %"class.std::__1::vector", %"class.std::__1::vector"* %3, i64 0, i32 0, i32 0
  %24 = load %"class.mojo::StructPtr"*, %"class.mojo::StructPtr"** %23, align 16
  %25 = icmp eq %"class.mojo::StructPtr"* %24, null
  br i1 %25, label %45, label %26

26:                                               ; preds = %2
  %27 = bitcast %"class.mojo::StructPtr"* %24 to i8*
  %28 = load %"class.mojo::StructPtr"*, %"class.mojo::StructPtr"** %11, align 8
  %29 = icmp eq %"class.mojo::StructPtr"* %28, %24
  br i1 %29, label %43, label %30

30:                                               ; preds = %26, %38
  %31 = phi %"class.mojo::StructPtr"* [ %32, %38 ], [ %28, %26 ]
  %32 = getelementptr inbounds %"class.mojo::StructPtr", %"class.mojo::StructPtr"* %31, i64 -1
  %33 = getelementptr inbounds %"class.mojo::StructPtr", %"class.mojo::StructPtr"* %32, i64 0, i32 0, i32 0, i32 0, i32 0
  %34 = load %"class.storage::mojom::StoragePolicyUpdate"*, %"class.storage::mojom::StoragePolicyUpdate"** %33, align 8
  store %"class.storage::mojom::StoragePolicyUpdate"* null, %"class.storage::mojom::StoragePolicyUpdate"** %33, align 8
  %35 = icmp eq %"class.storage::mojom::StoragePolicyUpdate"* %34, null
  br i1 %35, label %38, label %36

36:                                               ; preds = %30
  call void @_ZN7storage5mojom19StoragePolicyUpdateD1Ev(%"class.storage::mojom::StoragePolicyUpdate"* nonnull %34) #10
  %37 = bitcast %"class.storage::mojom::StoragePolicyUpdate"* %34 to i8*
  call void @_ZdlPv(i8* %37) #11
  br label %38

38:                                               ; preds = %36, %30
  %39 = icmp eq %"class.mojo::StructPtr"* %32, %24
  br i1 %39, label %40, label %30

40:                                               ; preds = %38
  %41 = bitcast %"class.std::__1::vector"* %3 to i8**
  %42 = load i8*, i8** %41, align 16
  br label %43

43:                                               ; preds = %40, %26
  %44 = phi i8* [ %42, %40 ], [ %27, %26 ]
  store %"class.mojo::StructPtr"* %24, %"class.mojo::StructPtr"** %11, align 8
  call void @_ZdlPv(i8* %44) #11
  br label %45

45:                                               ; preds = %2, %43
  ret void
}

; Function Attrs: nounwind ssp uwtable
define hidden void @_ZN7storage5mojom37IndexedDBControlInterceptorForTesting17BindTestInterfaceEN4mojo15PendingReceiverINS0_20IndexedDBControlTestEEE(%"class.storage::mojom::IndexedDBControlInterceptorForTesting"*, %"class.mojo::PendingReceiver.34"*) unnamed_addr #0 align 2 {
  %3 = alloca %"class.mojo::PendingReceiver.34", align 8
  %4 = bitcast %"class.storage::mojom::IndexedDBControlInterceptorForTesting"* %0 to %"class.storage::mojom::IndexedDBControl"* (%"class.storage::mojom::IndexedDBControlInterceptorForTesting"*)***
  %5 = load %"class.storage::mojom::IndexedDBControl"* (%"class.storage::mojom::IndexedDBControlInterceptorForTesting"*)**, %"class.storage::mojom::IndexedDBControl"* (%"class.storage::mojom::IndexedDBControlInterceptorForTesting"*)*** %4, align 8
  %6 = getelementptr inbounds %"class.storage::mojom::IndexedDBControl"* (%"class.storage::mojom::IndexedDBControlInterceptorForTesting"*)*, %"class.storage::mojom::IndexedDBControl"* (%"class.storage::mojom::IndexedDBControlInterceptorForTesting"*)** %5, i64 13
  %7 = load %"class.storage::mojom::IndexedDBControl"* (%"class.storage::mojom::IndexedDBControlInterceptorForTesting"*)*, %"class.storage::mojom::IndexedDBControl"* (%"class.storage::mojom::IndexedDBControlInterceptorForTesting"*)** %6, align 8
  %8 = tail call %"class.storage::mojom::IndexedDBControl"* %7(%"class.storage::mojom::IndexedDBControlInterceptorForTesting"* %0) #10
  %9 = getelementptr inbounds %"class.mojo::PendingReceiver.34", %"class.mojo::PendingReceiver.34"* %3, i64 0, i32 0
  %10 = getelementptr inbounds %"class.mojo::PendingReceiver.34", %"class.mojo::PendingReceiver.34"* %1, i64 0, i32 0
  call void @_ZN4mojo8internal20PendingReceiverStateC1EOS1_(%"struct.mojo::internal::PendingReceiverState"* nonnull %9, %"struct.mojo::internal::PendingReceiverState"* dereferenceable(24) %10) #10
  %11 = bitcast %"class.storage::mojom::IndexedDBControl"* %8 to void (%"class.storage::mojom::IndexedDBControl"*, %"class.mojo::PendingReceiver.34"*)***
  %12 = load void (%"class.storage::mojom::IndexedDBControl"*, %"class.mojo::PendingReceiver.34"*)**, void (%"class.storage::mojom::IndexedDBControl"*, %"class.mojo::PendingReceiver.34"*)*** %11, align 8
  %13 = getelementptr inbounds void (%"class.storage::mojom::IndexedDBControl"*, %"class.mojo::PendingReceiver.34"*)*, void (%"class.storage::mojom::IndexedDBControl"*, %"class.mojo::PendingReceiver.34"*)** %12, i64 12
  %14 = load void (%"class.storage::mojom::IndexedDBControl"*, %"class.mojo::PendingReceiver.34"*)*, void (%"class.storage::mojom::IndexedDBControl"*, %"class.mojo::PendingReceiver.34"*)** %13, align 8
  call void %14(%"class.storage::mojom::IndexedDBControl"* %8, %"class.mojo::PendingReceiver.34"* nonnull %3) #10
  call void @_ZN4mojo8internal20PendingReceiverStateD1Ev(%"struct.mojo::internal::PendingReceiverState"* nonnull %9) #10
  ret void
}

; Function Attrs: nofree norecurse nounwind ssp uwtable writeonly
define hidden void @_ZN7storage5mojom27IndexedDBControlAsyncWaiterC2EPNS0_16IndexedDBControlE(%"class.storage::mojom::IndexedDBControlAsyncWaiter"* nocapture, %"class.storage::mojom::IndexedDBControl"*) unnamed_addr #1 align 2 {
  %3 = getelementptr inbounds %"class.storage::mojom::IndexedDBControlAsyncWaiter", %"class.storage::mojom::IndexedDBControlAsyncWaiter"* %0, i64 0, i32 0
  store %"class.storage::mojom::IndexedDBControl"* %1, %"class.storage::mojom::IndexedDBControl"** %3, align 8
  ret void
}

; Function Attrs: norecurse nounwind readnone ssp uwtable
define hidden void @_ZN7storage5mojom27IndexedDBControlAsyncWaiterD2Ev(%"class.storage::mojom::IndexedDBControlAsyncWaiter"* nocapture) unnamed_addr #2 align 2 {
  ret void
}

; Function Attrs: nounwind ssp uwtable
define hidden void @_ZN7storage5mojom27IndexedDBControlAsyncWaiter8GetUsageEPNSt3__16vectorIN4mojo9StructPtrINS0_16StorageUsageInfoEEENS2_9allocatorIS7_EEEE(%"class.storage::mojom::IndexedDBControlAsyncWaiter"* nocapture readonly, %"class.std::__1::vector.35"*) local_unnamed_addr #0 align 2 {
  %3 = alloca %"class.base::RunLoop", align 8
  %4 = alloca %"class.base::OnceCallback", align 8
  %5 = alloca %"class.base::Location", align 8
  %6 = ptrtoint %"class.std::__1::vector.35"* %1 to i64
  %7 = bitcast %"class.base::RunLoop"* %3 to i8*
  call void @llvm.lifetime.start.p0i8(i64 48, i8* nonnull %7) #10
  call void @llvm.memset.p0i8.i64(i8* nonnull align 8 %7, i8 -86, i64 48, i1 false)
  call void @_ZN4base7RunLoopC1ENS0_4TypeE(%"class.base::RunLoop"* nonnull %3, i32 0) #10
  %8 = getelementptr inbounds %"class.storage::mojom::IndexedDBControlAsyncWaiter", %"class.storage::mojom::IndexedDBControlAsyncWaiter"* %0, i64 0, i32 0
  %9 = load %"class.storage::mojom::IndexedDBControl"*, %"class.storage::mojom::IndexedDBControl"** %8, align 8
  %10 = ptrtoint %"class.base::RunLoop"* %3 to i64
  %11 = call i8* @_Znwm(i64 56) #11, !noalias !2
  %12 = bitcast i8* %11 to %"class.base::internal::BindStateBase"*
  call void @_ZN4base8internal13BindStateBaseC2EPFvvEPFvPKS1_E(%"class.base::internal::BindStateBase"* nonnull %12, void ()* bitcast (void (%"class.base::internal::BindStateBase"*, %"class.std::__1::vector.35"*)* @"_ZN4base8internal7InvokerINS0_9BindStateIZN7storage5mojom27IndexedDBControlAsyncWaiter8GetUsageEPNSt3__16vectorIN4mojo9StructPtrINS4_16StorageUsageInfoEEENS6_9allocatorISB_EEEEE3$_0JPNS_7RunLoopESF_EEEFvSE_EE7RunOnceEPNS0_13BindStateBaseEOSE_" to void ()*), void (%"class.base::internal::BindStateBase"*)* nonnull @"_ZN4base8internal9BindStateIZN7storage5mojom27IndexedDBControlAsyncWaiter8GetUsageEPNSt3__16vectorIN4mojo9StructPtrINS3_16StorageUsageInfoEEENS5_9allocatorISA_EEEEE3$_0JPNS_7RunLoopESE_EE7DestroyEPKNS0_13BindStateBaseE") #10, !noalias !2
  %13 = getelementptr inbounds i8, i8* %11, i64 40
  %14 = bitcast i8* %13 to i64*
  store i64 %10, i64* %14, align 8, !noalias !2
  %15 = getelementptr inbounds i8, i8* %11, i64 48
  %16 = bitcast i8* %15 to i64*
  store i64 %6, i64* %16, align 8, !noalias !2
  %17 = bitcast %"class.base::OnceCallback"* %4 to i8**
  store i8* %11, i8** %17, align 8, !alias.scope !2
  %18 = bitcast %"class.storage::mojom::IndexedDBControl"* %9 to void (%"class.storage::mojom::IndexedDBControl"*, %"class.base::OnceCallback"*)***
  %19 = load void (%"class.storage::mojom::IndexedDBControl"*, %"class.base::OnceCallback"*)**, void (%"class.storage::mojom::IndexedDBControl"*, %"class.base::OnceCallback"*)*** %18, align 8
  %20 = getelementptr inbounds void (%"class.storage::mojom::IndexedDBControl"*, %"class.base::OnceCallback"*)*, void (%"class.storage::mojom::IndexedDBControl"*, %"class.base::OnceCallback"*)** %19, i64 3
  %21 = load void (%"class.storage::mojom::IndexedDBControl"*, %"class.base::OnceCallback"*)*, void (%"class.storage::mojom::IndexedDBControl"*, %"class.base::OnceCallback"*)** %20, align 8
  call void %21(%"class.storage::mojom::IndexedDBControl"* %9, %"class.base::OnceCallback"* nonnull %4) #10
  %22 = getelementptr inbounds %"class.base::OnceCallback", %"class.base::OnceCallback"* %4, i64 0, i32 0
  call void @_ZN4base8internal12CallbackBaseD2Ev(%"class.base::internal::CallbackBase"* nonnull %22) #10
  %23 = bitcast %"class.base::Location"* %5 to i8*
  call void @llvm.lifetime.start.p0i8(i64 32, i8* nonnull %23) #10
  call void @_ZN4base8Location7CurrentEPKcS2_i(%"class.base::Location"* nonnull sret %5, i8* getelementptr inbounds ([9 x i8], [9 x i8]* @.str, i64 0, i64 0), i8* getelementptr inbounds ([84 x i8], [84 x i8]* @.str.1, i64 0, i64 0), i32 104) #10
  call void @_ZN4base7RunLoop3RunERKNS_8LocationE(%"class.base::RunLoop"* nonnull %3, %"class.base::Location"* nonnull dereferenceable(32) %5) #10
  call void @llvm.lifetime.end.p0i8(i64 32, i8* nonnull %23) #10
  call void @_ZN4base7RunLoopD1Ev(%"class.base::RunLoop"* nonnull %3) #10
  call void @llvm.lifetime.end.p0i8(i64 48, i8* nonnull %7) #10
  ret void
}

; Function Attrs: argmemonly nounwind
declare void @llvm.lifetime.start.p0i8(i64 immarg, i8* nocapture) #4

; Function Attrs: argmemonly nounwind
declare void @llvm.memset.p0i8.i64(i8* nocapture writeonly, i8, i64, i1 immarg) #4

declare void @_ZN4base7RunLoopC1ENS0_4TypeE(%"class.base::RunLoop"*, i32) unnamed_addr #5

; Function Attrs: argmemonly nounwind
declare void @llvm.lifetime.end.p0i8(i64 immarg, i8* nocapture) #4

declare void @_ZN4base7RunLoop3RunERKNS_8LocationE(%"class.base::RunLoop"*, %"class.base::Location"* dereferenceable(32)) local_unnamed_addr #5

declare void @_ZN4base8Location7CurrentEPKcS2_i(%"class.base::Location"* sret, i8*, i8*, i32) local_unnamed_addr #5

; Function Attrs: nounwind
declare void @_ZN4base7RunLoopD1Ev(%"class.base::RunLoop"*) unnamed_addr #3

; Function Attrs: nounwind ssp uwtable
define hidden void @_ZN7storage5mojom27IndexedDBControlAsyncWaiter15DeleteForOriginERKN3url6OriginEPb(%"class.storage::mojom::IndexedDBControlAsyncWaiter"* nocapture readonly, %"class.url::Origin"* dereferenceable(80), i8*) local_unnamed_addr #0 align 2 {
  %4 = alloca %"class.base::RunLoop", align 8
  %5 = alloca %"class.base::OnceCallback.21", align 8
  %6 = alloca %"class.base::Location", align 8
  %7 = ptrtoint i8* %2 to i64
  %8 = bitcast %"class.base::RunLoop"* %4 to i8*
  call void @llvm.lifetime.start.p0i8(i64 48, i8* nonnull %8) #10
  call void @llvm.memset.p0i8.i64(i8* nonnull align 8 %8, i8 -86, i64 48, i1 false)
  call void @_ZN4base7RunLoopC1ENS0_4TypeE(%"class.base::RunLoop"* nonnull %4, i32 0) #10
  %9 = getelementptr inbounds %"class.storage::mojom::IndexedDBControlAsyncWaiter", %"class.storage::mojom::IndexedDBControlAsyncWaiter"* %0, i64 0, i32 0
  %10 = load %"class.storage::mojom::IndexedDBControl"*, %"class.storage::mojom::IndexedDBControl"** %9, align 8
  %11 = ptrtoint %"class.base::RunLoop"* %4 to i64
  %12 = call i8* @_Znwm(i64 56) #11, !noalias !7
  %13 = bitcast i8* %12 to %"class.base::internal::BindStateBase"*
  call void @_ZN4base8internal13BindStateBaseC2EPFvvEPFvPKS1_E(%"class.base::internal::BindStateBase"* nonnull %13, void ()* bitcast (void (%"class.base::internal::BindStateBase"*, i1)* @"_ZN4base8internal7InvokerINS0_9BindStateIZN7storage5mojom27IndexedDBControlAsyncWaiter15DeleteForOriginERKN3url6OriginEPbE3$_1JPNS_7RunLoopESA_EEEFvbEE7RunOnceEPNS0_13BindStateBaseEb" to void ()*), void (%"class.base::internal::BindStateBase"*)* nonnull @"_ZN4base8internal9BindStateIZN7storage5mojom27IndexedDBControlAsyncWaiter15DeleteForOriginERKN3url6OriginEPbE3$_1JPNS_7RunLoopES9_EE7DestroyEPKNS0_13BindStateBaseE") #10, !noalias !7
  %14 = getelementptr inbounds i8, i8* %12, i64 40
  %15 = bitcast i8* %14 to i64*
  store i64 %11, i64* %15, align 8, !noalias !7
  %16 = getelementptr inbounds i8, i8* %12, i64 48
  %17 = bitcast i8* %16 to i64*
  store i64 %7, i64* %17, align 8, !noalias !7
  %18 = bitcast %"class.base::OnceCallback.21"* %5 to i8**
  store i8* %12, i8** %18, align 8, !alias.scope !7
  %19 = bitcast %"class.storage::mojom::IndexedDBControl"* %10 to void (%"class.storage::mojom::IndexedDBControl"*, %"class.url::Origin"*, %"class.base::OnceCallback.21"*)***
  %20 = load void (%"class.storage::mojom::IndexedDBControl"*, %"class.url::Origin"*, %"class.base::OnceCallback.21"*)**, void (%"class.storage::mojom::IndexedDBControl"*, %"class.url::Origin"*, %"class.base::OnceCallback.21"*)*** %19, align 8
  %21 = getelementptr inbounds void (%"class.storage::mojom::IndexedDBControl"*, %"class.url::Origin"*, %"class.base::OnceCallback.21"*)*, void (%"class.storage::mojom::IndexedDBControl"*, %"class.url::Origin"*, %"class.base::OnceCallback.21"*)** %20, i64 4
  %22 = load void (%"class.storage::mojom::IndexedDBControl"*, %"class.url::Origin"*, %"class.base::OnceCallback.21"*)*, void (%"class.storage::mojom::IndexedDBControl"*, %"class.url::Origin"*, %"class.base::OnceCallback.21"*)** %21, align 8
  call void %22(%"class.storage::mojom::IndexedDBControl"* %10, %"class.url::Origin"* dereferenceable(80) %1, %"class.base::OnceCallback.21"* nonnull %5) #10
  %23 = getelementptr inbounds %"class.base::OnceCallback.21", %"class.base::OnceCallback.21"* %5, i64 0, i32 0
  call void @_ZN4base8internal12CallbackBaseD2Ev(%"class.base::internal::CallbackBase"* nonnull %23) #10
  %24 = bitcast %"class.base::Location"* %6 to i8*
  call void @llvm.lifetime.start.p0i8(i64 32, i8* nonnull %24) #10
  call void @_ZN4base8Location7CurrentEPKcS2_i(%"class.base::Location"* nonnull sret %6, i8* getelementptr inbounds ([16 x i8], [16 x i8]* @.str.2, i64 0, i64 0), i8* getelementptr inbounds ([84 x i8], [84 x i8]* @.str.1, i64 0, i64 0), i32 119) #10
  call void @_ZN4base7RunLoop3RunERKNS_8LocationE(%"class.base::RunLoop"* nonnull %4, %"class.base::Location"* nonnull dereferenceable(32) %6) #10
  call void @llvm.lifetime.end.p0i8(i64 32, i8* nonnull %24) #10
  call void @_ZN4base7RunLoopD1Ev(%"class.base::RunLoop"* nonnull %4) #10
  call void @llvm.lifetime.end.p0i8(i64 48, i8* nonnull %8) #10
  ret void
}

; Function Attrs: nounwind ssp uwtable
define hidden void @_ZN7storage5mojom27IndexedDBControlAsyncWaiter10ForceCloseERKN3url6OriginENS0_16ForceCloseReasonE(%"class.storage::mojom::IndexedDBControlAsyncWaiter"* nocapture readonly, %"class.url::Origin"* dereferenceable(80), i32) local_unnamed_addr #0 align 2 {
  %4 = alloca %"class.base::RunLoop", align 8
  %5 = alloca %"class.base::OnceCallback.22", align 8
  %6 = alloca %"class.base::Location", align 8
  %7 = bitcast %"class.base::RunLoop"* %4 to i8*
  call void @llvm.lifetime.start.p0i8(i64 48, i8* nonnull %7) #10
  call void @llvm.memset.p0i8.i64(i8* nonnull align 8 %7, i8 -86, i64 48, i1 false)
  call void @_ZN4base7RunLoopC1ENS0_4TypeE(%"class.base::RunLoop"* nonnull %4, i32 0) #10
  %8 = getelementptr inbounds %"class.storage::mojom::IndexedDBControlAsyncWaiter", %"class.storage::mojom::IndexedDBControlAsyncWaiter"* %0, i64 0, i32 0
  %9 = load %"class.storage::mojom::IndexedDBControl"*, %"class.storage::mojom::IndexedDBControl"** %8, align 8
  %10 = ptrtoint %"class.base::RunLoop"* %4 to i64
  %11 = call i8* @_Znwm(i64 48) #11, !noalias !12
  %12 = bitcast i8* %11 to %"class.base::internal::BindStateBase"*
  call void @_ZN4base8internal13BindStateBaseC2EPFvvEPFvPKS1_E(%"class.base::internal::BindStateBase"* nonnull %12, void ()* bitcast (void (%"class.base::internal::BindStateBase"*)* @"_ZN4base8internal7InvokerINS0_9BindStateIZN7storage5mojom27IndexedDBControlAsyncWaiter10ForceCloseERKN3url6OriginENS4_16ForceCloseReasonEE3$_2JPNS_7RunLoopEEEEFvvEE7RunOnceEPNS0_13BindStateBaseE" to void ()*), void (%"class.base::internal::BindStateBase"*)* nonnull @"_ZN4base8internal9BindStateIZN7storage5mojom27IndexedDBControlAsyncWaiter10ForceCloseERKN3url6OriginENS3_16ForceCloseReasonEE3$_2JPNS_7RunLoopEEE7DestroyEPKNS0_13BindStateBaseE") #10, !noalias !12
  %13 = getelementptr inbounds i8, i8* %11, i64 40
  %14 = bitcast i8* %13 to i64*
  store i64 %10, i64* %14, align 8, !noalias !12
  %15 = bitcast %"class.base::OnceCallback.22"* %5 to i8**
  store i8* %11, i8** %15, align 8, !alias.scope !12
  %16 = bitcast %"class.storage::mojom::IndexedDBControl"* %9 to void (%"class.storage::mojom::IndexedDBControl"*, %"class.url::Origin"*, i32, %"class.base::OnceCallback.22"*)***
  %17 = load void (%"class.storage::mojom::IndexedDBControl"*, %"class.url::Origin"*, i32, %"class.base::OnceCallback.22"*)**, void (%"class.storage::mojom::IndexedDBControl"*, %"class.url::Origin"*, i32, %"class.base::OnceCallback.22"*)*** %16, align 8
  %18 = getelementptr inbounds void (%"class.storage::mojom::IndexedDBControl"*, %"class.url::Origin"*, i32, %"class.base::OnceCallback.22"*)*, void (%"class.storage::mojom::IndexedDBControl"*, %"class.url::Origin"*, i32, %"class.base::OnceCallback.22"*)** %17, i64 5
  %19 = load void (%"class.storage::mojom::IndexedDBControl"*, %"class.url::Origin"*, i32, %"class.base::OnceCallback.22"*)*, void (%"class.storage::mojom::IndexedDBControl"*, %"class.url::Origin"*, i32, %"class.base::OnceCallback.22"*)** %18, align 8
  call void %19(%"class.storage::mojom::IndexedDBControl"* %9, %"class.url::Origin"* dereferenceable(80) %1, i32 %2, %"class.base::OnceCallback.22"* nonnull %5) #10
  %20 = getelementptr inbounds %"class.base::OnceCallback.22", %"class.base::OnceCallback.22"* %5, i64 0, i32 0
  call void @_ZN4base8internal12CallbackBaseD2Ev(%"class.base::internal::CallbackBase"* nonnull %20) #10
  %21 = bitcast %"class.base::Location"* %6 to i8*
  call void @llvm.lifetime.start.p0i8(i64 32, i8* nonnull %21) #10
  call void @_ZN4base8Location7CurrentEPKcS2_i(%"class.base::Location"* nonnull sret %6, i8* getelementptr inbounds ([11 x i8], [11 x i8]* @.str.3, i64 0, i64 0), i8* getelementptr inbounds ([84 x i8], [84 x i8]* @.str.1, i64 0, i64 0), i32 130) #10
  call void @_ZN4base7RunLoop3RunERKNS_8LocationE(%"class.base::RunLoop"* nonnull %4, %"class.base::Location"* nonnull dereferenceable(32) %6) #10
  call void @llvm.lifetime.end.p0i8(i64 32, i8* nonnull %21) #10
  call void @_ZN4base7RunLoopD1Ev(%"class.base::RunLoop"* nonnull %4) #10
  call void @llvm.lifetime.end.p0i8(i64 48, i8* nonnull %7) #10
  ret void
}

; Function Attrs: nounwind ssp uwtable
define hidden void @_ZN7storage5mojom27IndexedDBControlAsyncWaiter18GetConnectionCountERKN3url6OriginEPm(%"class.storage::mojom::IndexedDBControlAsyncWaiter"* nocapture readonly, %"class.url::Origin"* dereferenceable(80), i64*) local_unnamed_addr #0 align 2 {
  %4 = alloca %"class.base::RunLoop", align 8
  %5 = alloca %"class.base::OnceCallback.23", align 8
  %6 = alloca %"class.base::Location", align 8
  %7 = ptrtoint i64* %2 to i64
  %8 = bitcast %"class.base::RunLoop"* %4 to i8*
  call void @llvm.lifetime.start.p0i8(i64 48, i8* nonnull %8) #10
  call void @llvm.memset.p0i8.i64(i8* nonnull align 8 %8, i8 -86, i64 48, i1 false)
  call void @_ZN4base7RunLoopC1ENS0_4TypeE(%"class.base::RunLoop"* nonnull %4, i32 0) #10
  %9 = getelementptr inbounds %"class.storage::mojom::IndexedDBControlAsyncWaiter", %"class.storage::mojom::IndexedDBControlAsyncWaiter"* %0, i64 0, i32 0
  %10 = load %"class.storage::mojom::IndexedDBControl"*, %"class.storage::mojom::IndexedDBControl"** %9, align 8
  %11 = ptrtoint %"class.base::RunLoop"* %4 to i64
  %12 = call i8* @_Znwm(i64 56) #11, !noalias !17
  %13 = bitcast i8* %12 to %"class.base::internal::BindStateBase"*
  call void @_ZN4base8internal13BindStateBaseC2EPFvvEPFvPKS1_E(%"class.base::internal::BindStateBase"* nonnull %13, void ()* bitcast (void (%"class.base::internal::BindStateBase"*, i64)* @"_ZN4base8internal7InvokerINS0_9BindStateIZN7storage5mojom27IndexedDBControlAsyncWaiter18GetConnectionCountERKN3url6OriginEPmE3$_3JPNS_7RunLoopESA_EEEFvmEE7RunOnceEPNS0_13BindStateBaseEm" to void ()*), void (%"class.base::internal::BindStateBase"*)* nonnull @"_ZN4base8internal9BindStateIZN7storage5mojom27IndexedDBControlAsyncWaiter18GetConnectionCountERKN3url6OriginEPmE3$_3JPNS_7RunLoopES9_EE7DestroyEPKNS0_13BindStateBaseE") #10, !noalias !17
  %14 = getelementptr inbounds i8, i8* %12, i64 40
  %15 = bitcast i8* %14 to i64*
  store i64 %11, i64* %15, align 8, !noalias !17
  %16 = getelementptr inbounds i8, i8* %12, i64 48
  %17 = bitcast i8* %16 to i64*
  store i64 %7, i64* %17, align 8, !noalias !17
  %18 = bitcast %"class.base::OnceCallback.23"* %5 to i8**
  store i8* %12, i8** %18, align 8, !alias.scope !17
  %19 = bitcast %"class.storage::mojom::IndexedDBControl"* %10 to void (%"class.storage::mojom::IndexedDBControl"*, %"class.url::Origin"*, %"class.base::OnceCallback.23"*)***
  %20 = load void (%"class.storage::mojom::IndexedDBControl"*, %"class.url::Origin"*, %"class.base::OnceCallback.23"*)**, void (%"class.storage::mojom::IndexedDBControl"*, %"class.url::Origin"*, %"class.base::OnceCallback.23"*)*** %19, align 8
  %21 = getelementptr inbounds void (%"class.storage::mojom::IndexedDBControl"*, %"class.url::Origin"*, %"class.base::OnceCallback.23"*)*, void (%"class.storage::mojom::IndexedDBControl"*, %"class.url::Origin"*, %"class.base::OnceCallback.23"*)** %20, i64 6
  %22 = load void (%"class.storage::mojom::IndexedDBControl"*, %"class.url::Origin"*, %"class.base::OnceCallback.23"*)*, void (%"class.storage::mojom::IndexedDBControl"*, %"class.url::Origin"*, %"class.base::OnceCallback.23"*)** %21, align 8
  call void %22(%"class.storage::mojom::IndexedDBControl"* %10, %"class.url::Origin"* dereferenceable(80) %1, %"class.base::OnceCallback.23"* nonnull %5) #10
  %23 = getelementptr inbounds %"class.base::OnceCallback.23", %"class.base::OnceCallback.23"* %5, i64 0, i32 0
  call void @_ZN4base8internal12CallbackBaseD2Ev(%"class.base::internal::CallbackBase"* nonnull %23) #10
  %24 = bitcast %"class.base::Location"* %6 to i8*
  call void @llvm.lifetime.start.p0i8(i64 32, i8* nonnull %24) #10
  call void @_ZN4base8Location7CurrentEPKcS2_i(%"class.base::Location"* nonnull sret %6, i8* getelementptr inbounds ([19 x i8], [19 x i8]* @.str.4, i64 0, i64 0), i8* getelementptr inbounds ([84 x i8], [84 x i8]* @.str.1, i64 0, i64 0), i32 145) #10
  call void @_ZN4base7RunLoop3RunERKNS_8LocationE(%"class.base::RunLoop"* nonnull %4, %"class.base::Location"* nonnull dereferenceable(32) %6) #10
  call void @llvm.lifetime.end.p0i8(i64 32, i8* nonnull %24) #10
  call void @_ZN4base7RunLoopD1Ev(%"class.base::RunLoop"* nonnull %4) #10
  call void @llvm.lifetime.end.p0i8(i64 48, i8* nonnull %8) #10
  ret void
}

; Function Attrs: nounwind ssp uwtable
define hidden void @_ZN7storage5mojom27IndexedDBControlAsyncWaiter18DownloadOriginDataERKN3url6OriginEPbPN4base8FilePathES9_(%"class.storage::mojom::IndexedDBControlAsyncWaiter"* nocapture readonly, %"class.url::Origin"* dereferenceable(80), i8*, %"class.base::FilePath"*, %"class.base::FilePath"*) local_unnamed_addr #0 align 2 {
  %6 = alloca %"class.base::RunLoop", align 8
  %7 = alloca %"class.base::OnceCallback.24", align 8
  %8 = alloca %"class.base::Location", align 8
  %9 = ptrtoint i8* %2 to i64
  %10 = ptrtoint %"class.base::FilePath"* %3 to i64
  %11 = ptrtoint %"class.base::FilePath"* %4 to i64
  %12 = bitcast %"class.base::RunLoop"* %6 to i8*
  call void @llvm.lifetime.start.p0i8(i64 48, i8* nonnull %12) #10
  call void @llvm.memset.p0i8.i64(i8* nonnull align 8 %12, i8 -86, i64 48, i1 false)
  call void @_ZN4base7RunLoopC1ENS0_4TypeE(%"class.base::RunLoop"* nonnull %6, i32 0) #10
  %13 = getelementptr inbounds %"class.storage::mojom::IndexedDBControlAsyncWaiter", %"class.storage::mojom::IndexedDBControlAsyncWaiter"* %0, i64 0, i32 0
  %14 = load %"class.storage::mojom::IndexedDBControl"*, %"class.storage::mojom::IndexedDBControl"** %13, align 8
  %15 = ptrtoint %"class.base::RunLoop"* %6 to i64
  %16 = call i8* @_Znwm(i64 72) #11, !noalias !22
  %17 = bitcast i8* %16 to %"class.base::internal::BindStateBase"*
  call void @_ZN4base8internal13BindStateBaseC2EPFvvEPFvPKS1_E(%"class.base::internal::BindStateBase"* nonnull %17, void ()* bitcast (void (%"class.base::internal::BindStateBase"*, i1, %"class.base::FilePath"*, %"class.base::FilePath"*)* @"_ZN4base8internal7InvokerINS0_9BindStateIZN7storage5mojom27IndexedDBControlAsyncWaiter18DownloadOriginDataERKN3url6OriginEPbPNS_8FilePathESC_E3$_4JPNS_7RunLoopESA_SC_SC_EEEFvbRKSB_SI_EE7RunOnceEPNS0_13BindStateBaseEbSI_SI_" to void ()*), void (%"class.base::internal::BindStateBase"*)* nonnull @"_ZN4base8internal9BindStateIZN7storage5mojom27IndexedDBControlAsyncWaiter18DownloadOriginDataERKN3url6OriginEPbPNS_8FilePathESB_E3$_4JPNS_7RunLoopES9_SB_SB_EE7DestroyEPKNS0_13BindStateBaseE") #10, !noalias !22
  %18 = getelementptr inbounds i8, i8* %16, i64 40
  %19 = bitcast i8* %18 to i64*
  store i64 %15, i64* %19, align 8, !noalias !22
  %20 = getelementptr inbounds i8, i8* %16, i64 48
  %21 = bitcast i8* %20 to i64*
  store i64 %9, i64* %21, align 8, !noalias !22
  %22 = getelementptr inbounds i8, i8* %16, i64 56
  %23 = bitcast i8* %22 to i64*
  store i64 %10, i64* %23, align 8, !noalias !22
  %24 = getelementptr inbounds i8, i8* %16, i64 64
  %25 = bitcast i8* %24 to i64*
  store i64 %11, i64* %25, align 8, !noalias !22
  %26 = bitcast %"class.base::OnceCallback.24"* %7 to i8**
  store i8* %16, i8** %26, align 8, !alias.scope !22
  %27 = bitcast %"class.storage::mojom::IndexedDBControl"* %14 to void (%"class.storage::mojom::IndexedDBControl"*, %"class.url::Origin"*, %"class.base::OnceCallback.24"*)***
  %28 = load void (%"class.storage::mojom::IndexedDBControl"*, %"class.url::Origin"*, %"class.base::OnceCallback.24"*)**, void (%"class.storage::mojom::IndexedDBControl"*, %"class.url::Origin"*, %"class.base::OnceCallback.24"*)*** %27, align 8
  %29 = getelementptr inbounds void (%"class.storage::mojom::IndexedDBControl"*, %"class.url::Origin"*, %"class.base::OnceCallback.24"*)*, void (%"class.storage::mojom::IndexedDBControl"*, %"class.url::Origin"*, %"class.base::OnceCallback.24"*)** %28, i64 7
  %30 = load void (%"class.storage::mojom::IndexedDBControl"*, %"class.url::Origin"*, %"class.base::OnceCallback.24"*)*, void (%"class.storage::mojom::IndexedDBControl"*, %"class.url::Origin"*, %"class.base::OnceCallback.24"*)** %29, align 8
  call void %30(%"class.storage::mojom::IndexedDBControl"* %14, %"class.url::Origin"* dereferenceable(80) %1, %"class.base::OnceCallback.24"* nonnull %7) #10
  %31 = getelementptr inbounds %"class.base::OnceCallback.24", %"class.base::OnceCallback.24"* %7, i64 0, i32 0
  call void @_ZN4base8internal12CallbackBaseD2Ev(%"class.base::internal::CallbackBase"* nonnull %31) #10
  %32 = bitcast %"class.base::Location"* %8 to i8*
  call void @llvm.lifetime.start.p0i8(i64 32, i8* nonnull %32) #10
  call void @_ZN4base8Location7CurrentEPKcS2_i(%"class.base::Location"* nonnull sret %8, i8* getelementptr inbounds ([19 x i8], [19 x i8]* @.str.5, i64 0, i64 0), i8* getelementptr inbounds ([84 x i8], [84 x i8]* @.str.1, i64 0, i64 0), i32 168) #10
  call void @_ZN4base7RunLoop3RunERKNS_8LocationE(%"class.base::RunLoop"* nonnull %6, %"class.base::Location"* nonnull dereferenceable(32) %8) #10
  call void @llvm.lifetime.end.p0i8(i64 32, i8* nonnull %32) #10
  call void @_ZN4base7RunLoopD1Ev(%"class.base::RunLoop"* nonnull %6) #10
  call void @llvm.lifetime.end.p0i8(i64 48, i8* nonnull %12) #10
  ret void
}

; Function Attrs: nounwind ssp uwtable
define hidden void @_ZN7storage5mojom27IndexedDBControlAsyncWaiter20GetAllOriginsDetailsEPbPN4base5ValueE(%"class.storage::mojom::IndexedDBControlAsyncWaiter"* nocapture readonly, i8*, %"class.base::Value"*) local_unnamed_addr #0 align 2 {
  %4 = alloca %"class.base::RunLoop", align 8
  %5 = alloca %"class.base::OnceCallback.25", align 8
  %6 = alloca %"class.base::Location", align 8
  %7 = ptrtoint i8* %1 to i64
  %8 = ptrtoint %"class.base::Value"* %2 to i64
  %9 = bitcast %"class.base::RunLoop"* %4 to i8*
  call void @llvm.lifetime.start.p0i8(i64 48, i8* nonnull %9) #10
  call void @llvm.memset.p0i8.i64(i8* nonnull align 8 %9, i8 -86, i64 48, i1 false)
  call void @_ZN4base7RunLoopC1ENS0_4TypeE(%"class.base::RunLoop"* nonnull %4, i32 0) #10
  %10 = getelementptr inbounds %"class.storage::mojom::IndexedDBControlAsyncWaiter", %"class.storage::mojom::IndexedDBControlAsyncWaiter"* %0, i64 0, i32 0
  %11 = load %"class.storage::mojom::IndexedDBControl"*, %"class.storage::mojom::IndexedDBControl"** %10, align 8
  %12 = ptrtoint %"class.base::RunLoop"* %4 to i64
  %13 = call i8* @_Znwm(i64 64) #11, !noalias !27
  %14 = bitcast i8* %13 to %"class.base::internal::BindStateBase"*
  call void @_ZN4base8internal13BindStateBaseC2EPFvvEPFvPKS1_E(%"class.base::internal::BindStateBase"* nonnull %14, void ()* bitcast (void (%"class.base::internal::BindStateBase"*, i1, %"class.base::Value"*)* @"_ZN4base8internal7InvokerINS0_9BindStateIZN7storage5mojom27IndexedDBControlAsyncWaiter20GetAllOriginsDetailsEPbPNS_5ValueEE3$_5JPNS_7RunLoopES6_S8_EEEFvbS7_EE7RunOnceEPNS0_13BindStateBaseEbOS7_" to void ()*), void (%"class.base::internal::BindStateBase"*)* nonnull @"_ZN4base8internal9BindStateIZN7storage5mojom27IndexedDBControlAsyncWaiter20GetAllOriginsDetailsEPbPNS_5ValueEE3$_5JPNS_7RunLoopES5_S7_EE7DestroyEPKNS0_13BindStateBaseE") #10, !noalias !27
  %15 = getelementptr inbounds i8, i8* %13, i64 40
  %16 = bitcast i8* %15 to i64*
  store i64 %12, i64* %16, align 8, !noalias !27
  %17 = getelementptr inbounds i8, i8* %13, i64 48
  %18 = bitcast i8* %17 to i64*
  store i64 %7, i64* %18, align 8, !noalias !27
  %19 = getelementptr inbounds i8, i8* %13, i64 56
  %20 = bitcast i8* %19 to i64*
  store i64 %8, i64* %20, align 8, !noalias !27
  %21 = bitcast %"class.base::OnceCallback.25"* %5 to i8**
  store i8* %13, i8** %21, align 8, !alias.scope !27
  %22 = bitcast %"class.storage::mojom::IndexedDBControl"* %11 to void (%"class.storage::mojom::IndexedDBControl"*, %"class.base::OnceCallback.25"*)***
  %23 = load void (%"class.storage::mojom::IndexedDBControl"*, %"class.base::OnceCallback.25"*)**, void (%"class.storage::mojom::IndexedDBControl"*, %"class.base::OnceCallback.25"*)*** %22, align 8
  %24 = getelementptr inbounds void (%"class.storage::mojom::IndexedDBControl"*, %"class.base::OnceCallback.25"*)*, void (%"class.storage::mojom::IndexedDBControl"*, %"class.base::OnceCallback.25"*)** %23, i64 8
  %25 = load void (%"class.storage::mojom::IndexedDBControl"*, %"class.base::OnceCallback.25"*)*, void (%"class.storage::mojom::IndexedDBControl"*, %"class.base::OnceCallback.25"*)** %24, align 8
  call void %25(%"class.storage::mojom::IndexedDBControl"* %11, %"class.base::OnceCallback.25"* nonnull %5) #10
  %26 = getelementptr inbounds %"class.base::OnceCallback.25", %"class.base::OnceCallback.25"* %5, i64 0, i32 0
  call void @_ZN4base8internal12CallbackBaseD2Ev(%"class.base::internal::CallbackBase"* nonnull %26) #10
  %27 = bitcast %"class.base::Location"* %6 to i8*
  call void @llvm.lifetime.start.p0i8(i64 32, i8* nonnull %27) #10
  call void @_ZN4base8Location7CurrentEPKcS2_i(%"class.base::Location"* nonnull sret %6, i8* getelementptr inbounds ([21 x i8], [21 x i8]* @.str.6, i64 0, i64 0), i8* getelementptr inbounds ([84 x i8], [84 x i8]* @.str.1, i64 0, i64 0), i32 187) #10
  call void @_ZN4base7RunLoop3RunERKNS_8LocationE(%"class.base::RunLoop"* nonnull %4, %"class.base::Location"* nonnull dereferenceable(32) %6) #10
  call void @llvm.lifetime.end.p0i8(i64 32, i8* nonnull %27) #10
  call void @_ZN4base7RunLoopD1Ev(%"class.base::RunLoop"* nonnull %4) #10
  call void @llvm.lifetime.end.p0i8(i64 48, i8* nonnull %9) #10
  ret void
}

; Function Attrs: nounwind ssp uwtable
define linkonce_odr hidden void @_ZN7storage5mojom17IndexedDBObserverD2Ev(%"class.storage::mojom::IndexedDBObserver"*) unnamed_addr #0 comdat align 2 {
  ret void
}

; Function Attrs: inlinehint nounwind ssp uwtable
define linkonce_odr hidden void @_ZN7storage5mojom38IndexedDBObserverInterceptorForTestingD0Ev(%"class.storage::mojom::IndexedDBObserverInterceptorForTesting"*) unnamed_addr #6 comdat align 2 {
  tail call void @llvm.trap() #12
  unreachable
}

declare void @__cxa_pure_virtual() unnamed_addr

; Function Attrs: nounwind ssp uwtable
define linkonce_odr hidden void @_ZN7storage5mojom16IndexedDBControlD2Ev(%"class.storage::mojom::IndexedDBControl"*) unnamed_addr #0 comdat align 2 {
  ret void
}

; Function Attrs: inlinehint nounwind ssp uwtable
define linkonce_odr hidden void @_ZN7storage5mojom37IndexedDBControlInterceptorForTestingD0Ev(%"class.storage::mojom::IndexedDBControlInterceptorForTesting"*) unnamed_addr #6 comdat align 2 {
  tail call void @llvm.trap() #12
  unreachable
}

; Function Attrs: nounwind
declare void @_ZN4mojo8internal20PendingReceiverStateC1EOS1_(%"struct.mojo::internal::PendingReceiverState"*, %"struct.mojo::internal::PendingReceiverState"* dereferenceable(24)) unnamed_addr #3

; Function Attrs: nounwind
declare void @_ZN4mojo8internal20PendingReceiverStateD1Ev(%"struct.mojo::internal::PendingReceiverState"*) unnamed_addr #3

; Function Attrs: nounwind
declare void @_ZN4mojo8internal18PendingRemoteStateC1EOS1_(%"struct.mojo::internal::PendingRemoteState"*, %"struct.mojo::internal::PendingRemoteState"* dereferenceable(8)) unnamed_addr #3

; Function Attrs: nounwind
declare void @_ZN4mojo8internal18PendingRemoteStateD1Ev(%"struct.mojo::internal::PendingRemoteState"*) unnamed_addr #3

; Function Attrs: cold noreturn nounwind
declare void @llvm.trap() #7

; Function Attrs: nounwind
declare void @_ZN7storage5mojom19StoragePolicyUpdateD1Ev(%"class.storage::mojom::StoragePolicyUpdate"*) unnamed_addr #3

; Function Attrs: nobuiltin nounwind
declare void @_ZdlPv(i8*) local_unnamed_addr #8

; Function Attrs: nounwind ssp uwtable
define internal void @"_ZN4base8internal7InvokerINS0_9BindStateIZN7storage5mojom27IndexedDBControlAsyncWaiter8GetUsageEPNSt3__16vectorIN4mojo9StructPtrINS4_16StorageUsageInfoEEENS6_9allocatorISB_EEEEE3$_0JPNS_7RunLoopESF_EEEFvSE_EE7RunOnceEPNS0_13BindStateBaseEOSE_"(%"class.base::internal::BindStateBase"* nocapture readonly, %"class.std::__1::vector.35"* nocapture dereferenceable(24)) #0 align 2 {
  %3 = getelementptr inbounds %"class.base::internal::BindStateBase", %"class.base::internal::BindStateBase"* %0, i64 1, i32 1
  %4 = bitcast void ()** %3 to %"class.base::RunLoop"**
  %5 = getelementptr inbounds void ()*, void ()** %3, i64 1
  %6 = bitcast void ()** %5 to %"class.std::__1::vector.35"**
  %7 = load %"class.base::RunLoop"*, %"class.base::RunLoop"** %4, align 8
  %8 = load %"class.std::__1::vector.35"*, %"class.std::__1::vector.35"** %6, align 8
  %9 = bitcast %"class.std::__1::vector.35"* %1 to <2 x i64>*
  %10 = load <2 x i64>, <2 x i64>* %9, align 8
  %11 = getelementptr inbounds %"class.std::__1::vector.35", %"class.std::__1::vector.35"* %1, i64 0, i32 0, i32 2, i32 0, i32 0
  %12 = bitcast %"class.mojo::StructPtr.37"** %11 to i64*
  %13 = load i64, i64* %12, align 8
  %14 = bitcast %"class.std::__1::vector.35"* %1 to i8*
  tail call void @llvm.memset.p0i8.i64(i8* align 8 %14, i8 0, i64 24, i1 false) #10
  %15 = getelementptr inbounds %"class.std::__1::vector.35", %"class.std::__1::vector.35"* %8, i64 0, i32 0, i32 0
  %16 = load %"class.mojo::StructPtr.37"*, %"class.mojo::StructPtr.37"** %15, align 8
  %17 = icmp eq %"class.mojo::StructPtr.37"* %16, null
  br i1 %17, label %39, label %18

18:                                               ; preds = %2
  %19 = bitcast %"class.mojo::StructPtr.37"* %16 to i8*
  %20 = getelementptr inbounds %"class.std::__1::vector.35", %"class.std::__1::vector.35"* %8, i64 0, i32 0, i32 1
  %21 = load %"class.mojo::StructPtr.37"*, %"class.mojo::StructPtr.37"** %20, align 8
  %22 = icmp eq %"class.mojo::StructPtr.37"* %21, %16
  br i1 %22, label %36, label %23

23:                                               ; preds = %18, %31
  %24 = phi %"class.mojo::StructPtr.37"* [ %25, %31 ], [ %21, %18 ]
  %25 = getelementptr inbounds %"class.mojo::StructPtr.37", %"class.mojo::StructPtr.37"* %24, i64 -1
  %26 = getelementptr inbounds %"class.mojo::StructPtr.37", %"class.mojo::StructPtr.37"* %25, i64 0, i32 0, i32 0, i32 0, i32 0
  %27 = load %"class.storage::mojom::StorageUsageInfo"*, %"class.storage::mojom::StorageUsageInfo"** %26, align 8
  store %"class.storage::mojom::StorageUsageInfo"* null, %"class.storage::mojom::StorageUsageInfo"** %26, align 8
  %28 = icmp eq %"class.storage::mojom::StorageUsageInfo"* %27, null
  br i1 %28, label %31, label %29

29:                                               ; preds = %23
  tail call void @_ZN7storage5mojom16StorageUsageInfoD1Ev(%"class.storage::mojom::StorageUsageInfo"* nonnull %27) #10
  %30 = bitcast %"class.storage::mojom::StorageUsageInfo"* %27 to i8*
  tail call void @_ZdlPv(i8* %30) #11
  br label %31

31:                                               ; preds = %29, %23
  %32 = icmp eq %"class.mojo::StructPtr.37"* %25, %16
  br i1 %32, label %33, label %23

33:                                               ; preds = %31
  %34 = bitcast %"class.std::__1::vector.35"* %8 to i8**
  %35 = load i8*, i8** %34, align 8
  br label %36

36:                                               ; preds = %33, %18
  %37 = phi i8* [ %35, %33 ], [ %19, %18 ]
  store %"class.mojo::StructPtr.37"* %16, %"class.mojo::StructPtr.37"** %20, align 8
  tail call void @_ZdlPv(i8* %37) #11
  %38 = bitcast %"class.std::__1::vector.35"* %8 to i8*
  tail call void @llvm.memset.p0i8.i64(i8* align 8 %38, i8 0, i64 24, i1 false) #10
  br label %39

39:                                               ; preds = %2, %36
  %40 = bitcast %"class.std::__1::vector.35"* %8 to <2 x i64>*
  store <2 x i64> %10, <2 x i64>* %40, align 8
  %41 = getelementptr inbounds %"class.std::__1::vector.35", %"class.std::__1::vector.35"* %8, i64 0, i32 0, i32 2, i32 0, i32 0
  %42 = bitcast %"class.mojo::StructPtr.37"** %41 to i64*
  store i64 %13, i64* %42, align 8
  tail call void @_ZN4base7RunLoop4QuitEv(%"class.base::RunLoop"* %7) #10
  ret void
}

declare void @_ZN4base7RunLoop4QuitEv(%"class.base::RunLoop"*) local_unnamed_addr #5

; Function Attrs: nounwind
declare void @_ZN7storage5mojom16StorageUsageInfoD1Ev(%"class.storage::mojom::StorageUsageInfo"*) unnamed_addr #3

; Function Attrs: nobuiltin nofree
declare noalias nonnull i8* @_Znwm(i64) local_unnamed_addr #9

; Function Attrs: nounwind ssp uwtable
define internal void @"_ZN4base8internal9BindStateIZN7storage5mojom27IndexedDBControlAsyncWaiter8GetUsageEPNSt3__16vectorIN4mojo9StructPtrINS3_16StorageUsageInfoEEENS5_9allocatorISA_EEEEE3$_0JPNS_7RunLoopESE_EE7DestroyEPKNS0_13BindStateBaseE"(%"class.base::internal::BindStateBase"*) #0 align 2 {
  %2 = icmp eq %"class.base::internal::BindStateBase"* %0, null
  br i1 %2, label %5, label %3

3:                                                ; preds = %1
  %4 = bitcast %"class.base::internal::BindStateBase"* %0 to i8*
  tail call void @_ZdlPv(i8* %4) #11
  br label %5

5:                                                ; preds = %3, %1
  ret void
}

declare void @_ZN4base8internal13BindStateBaseC2EPFvvEPFvPKS1_E(%"class.base::internal::BindStateBase"*, void ()*, void (%"class.base::internal::BindStateBase"*)*) unnamed_addr #5

; Function Attrs: nounwind ssp uwtable
define internal void @"_ZN4base8internal7InvokerINS0_9BindStateIZN7storage5mojom27IndexedDBControlAsyncWaiter15DeleteForOriginERKN3url6OriginEPbE3$_1JPNS_7RunLoopESA_EEEFvbEE7RunOnceEPNS0_13BindStateBaseEb"(%"class.base::internal::BindStateBase"* nocapture readonly, i1 zeroext) #0 align 2 {
  %3 = zext i1 %1 to i8
  %4 = getelementptr inbounds %"class.base::internal::BindStateBase", %"class.base::internal::BindStateBase"* %0, i64 1, i32 1
  %5 = bitcast void ()** %4 to %"class.base::RunLoop"**
  %6 = getelementptr inbounds void ()*, void ()** %4, i64 1
  %7 = bitcast void ()** %6 to i8**
  %8 = load %"class.base::RunLoop"*, %"class.base::RunLoop"** %5, align 8
  %9 = load i8*, i8** %7, align 8
  store i8 %3, i8* %9, align 1
  tail call void @_ZN4base7RunLoop4QuitEv(%"class.base::RunLoop"* %8) #10
  ret void
}

; Function Attrs: nounwind ssp uwtable
define internal void @"_ZN4base8internal9BindStateIZN7storage5mojom27IndexedDBControlAsyncWaiter15DeleteForOriginERKN3url6OriginEPbE3$_1JPNS_7RunLoopES9_EE7DestroyEPKNS0_13BindStateBaseE"(%"class.base::internal::BindStateBase"*) #0 align 2 {
  %2 = icmp eq %"class.base::internal::BindStateBase"* %0, null
  br i1 %2, label %5, label %3

3:                                                ; preds = %1
  %4 = bitcast %"class.base::internal::BindStateBase"* %0 to i8*
  tail call void @_ZdlPv(i8* %4) #11
  br label %5

5:                                                ; preds = %3, %1
  ret void
}

; Function Attrs: nounwind ssp uwtable
define internal void @"_ZN4base8internal7InvokerINS0_9BindStateIZN7storage5mojom27IndexedDBControlAsyncWaiter10ForceCloseERKN3url6OriginENS4_16ForceCloseReasonEE3$_2JPNS_7RunLoopEEEEFvvEE7RunOnceEPNS0_13BindStateBaseE"(%"class.base::internal::BindStateBase"* nocapture readonly) #0 align 2 {
  %2 = getelementptr inbounds %"class.base::internal::BindStateBase", %"class.base::internal::BindStateBase"* %0, i64 1, i32 1
  %3 = bitcast void ()** %2 to %"class.base::RunLoop"**
  %4 = load %"class.base::RunLoop"*, %"class.base::RunLoop"** %3, align 8
  tail call void @_ZN4base7RunLoop4QuitEv(%"class.base::RunLoop"* %4) #10
  ret void
}

; Function Attrs: nounwind ssp uwtable
define internal void @"_ZN4base8internal9BindStateIZN7storage5mojom27IndexedDBControlAsyncWaiter10ForceCloseERKN3url6OriginENS3_16ForceCloseReasonEE3$_2JPNS_7RunLoopEEE7DestroyEPKNS0_13BindStateBaseE"(%"class.base::internal::BindStateBase"*) #0 align 2 {
  %2 = icmp eq %"class.base::internal::BindStateBase"* %0, null
  br i1 %2, label %5, label %3

3:                                                ; preds = %1
  %4 = bitcast %"class.base::internal::BindStateBase"* %0 to i8*
  tail call void @_ZdlPv(i8* %4) #11
  br label %5

5:                                                ; preds = %3, %1
  ret void
}

; Function Attrs: nounwind ssp uwtable
define internal void @"_ZN4base8internal7InvokerINS0_9BindStateIZN7storage5mojom27IndexedDBControlAsyncWaiter18GetConnectionCountERKN3url6OriginEPmE3$_3JPNS_7RunLoopESA_EEEFvmEE7RunOnceEPNS0_13BindStateBaseEm"(%"class.base::internal::BindStateBase"* nocapture readonly, i64) #0 align 2 {
  %3 = getelementptr inbounds %"class.base::internal::BindStateBase", %"class.base::internal::BindStateBase"* %0, i64 1, i32 1
  %4 = bitcast void ()** %3 to %"class.base::RunLoop"**
  %5 = getelementptr inbounds void ()*, void ()** %3, i64 1
  %6 = bitcast void ()** %5 to i64**
  %7 = load %"class.base::RunLoop"*, %"class.base::RunLoop"** %4, align 8
  %8 = load i64*, i64** %6, align 8
  store i64 %1, i64* %8, align 8
  tail call void @_ZN4base7RunLoop4QuitEv(%"class.base::RunLoop"* %7) #10
  ret void
}

; Function Attrs: nounwind ssp uwtable
define internal void @"_ZN4base8internal9BindStateIZN7storage5mojom27IndexedDBControlAsyncWaiter18GetConnectionCountERKN3url6OriginEPmE3$_3JPNS_7RunLoopES9_EE7DestroyEPKNS0_13BindStateBaseE"(%"class.base::internal::BindStateBase"*) #0 align 2 {
  %2 = icmp eq %"class.base::internal::BindStateBase"* %0, null
  br i1 %2, label %5, label %3

3:                                                ; preds = %1
  %4 = bitcast %"class.base::internal::BindStateBase"* %0 to i8*
  tail call void @_ZdlPv(i8* %4) #11
  br label %5

5:                                                ; preds = %3, %1
  ret void
}

; Function Attrs: nounwind ssp uwtable
define internal void @"_ZN4base8internal7InvokerINS0_9BindStateIZN7storage5mojom27IndexedDBControlAsyncWaiter18DownloadOriginDataERKN3url6OriginEPbPNS_8FilePathESC_E3$_4JPNS_7RunLoopESA_SC_SC_EEEFvbRKSB_SI_EE7RunOnceEPNS0_13BindStateBaseEbSI_SI_"(%"class.base::internal::BindStateBase"* nocapture readonly, i1 zeroext, %"class.base::FilePath"* dereferenceable(24), %"class.base::FilePath"* dereferenceable(24)) #0 align 2 {
  %5 = zext i1 %1 to i8
  %6 = getelementptr inbounds %"class.base::internal::BindStateBase", %"class.base::internal::BindStateBase"* %0, i64 1, i32 1
  %7 = bitcast void ()** %6 to %"class.base::RunLoop"**
  %8 = getelementptr inbounds void ()*, void ()** %6, i64 1
  %9 = bitcast void ()** %8 to i8**
  %10 = getelementptr inbounds void ()*, void ()** %6, i64 2
  %11 = bitcast void ()** %10 to %"class.base::FilePath"**
  %12 = getelementptr inbounds void ()*, void ()** %6, i64 3
  %13 = bitcast void ()** %12 to %"class.base::FilePath"**
  %14 = load %"class.base::RunLoop"*, %"class.base::RunLoop"** %7, align 8
  %15 = load i8*, i8** %9, align 8
  %16 = load %"class.base::FilePath"*, %"class.base::FilePath"** %11, align 8
  %17 = load %"class.base::FilePath"*, %"class.base::FilePath"** %13, align 8
  store i8 %5, i8* %15, align 1
  %18 = tail call dereferenceable(24) %"class.base::FilePath"* @_ZN4base8FilePathaSERKS0_(%"class.base::FilePath"* %16, %"class.base::FilePath"* dereferenceable(24) %2) #10
  %19 = tail call dereferenceable(24) %"class.base::FilePath"* @_ZN4base8FilePathaSERKS0_(%"class.base::FilePath"* %17, %"class.base::FilePath"* dereferenceable(24) %3) #10
  tail call void @_ZN4base7RunLoop4QuitEv(%"class.base::RunLoop"* %14) #10
  ret void
}

declare dereferenceable(24) %"class.base::FilePath"* @_ZN4base8FilePathaSERKS0_(%"class.base::FilePath"*, %"class.base::FilePath"* dereferenceable(24)) local_unnamed_addr #5

; Function Attrs: nounwind ssp uwtable
define internal void @"_ZN4base8internal9BindStateIZN7storage5mojom27IndexedDBControlAsyncWaiter18DownloadOriginDataERKN3url6OriginEPbPNS_8FilePathESB_E3$_4JPNS_7RunLoopES9_SB_SB_EE7DestroyEPKNS0_13BindStateBaseE"(%"class.base::internal::BindStateBase"*) #0 align 2 {
  %2 = icmp eq %"class.base::internal::BindStateBase"* %0, null
  br i1 %2, label %5, label %3

3:                                                ; preds = %1
  %4 = bitcast %"class.base::internal::BindStateBase"* %0 to i8*
  tail call void @_ZdlPv(i8* %4) #11
  br label %5

5:                                                ; preds = %3, %1
  ret void
}

; Function Attrs: nounwind ssp uwtable
define internal void @"_ZN4base8internal7InvokerINS0_9BindStateIZN7storage5mojom27IndexedDBControlAsyncWaiter20GetAllOriginsDetailsEPbPNS_5ValueEE3$_5JPNS_7RunLoopES6_S8_EEEFvbS7_EE7RunOnceEPNS0_13BindStateBaseEbOS7_"(%"class.base::internal::BindStateBase"* nocapture readonly, i1 zeroext, %"class.base::Value"* dereferenceable(32)) #0 align 2 {
  %4 = alloca %"class.base::Value", align 8
  %5 = zext i1 %1 to i8
  %6 = getelementptr inbounds %"class.base::internal::BindStateBase", %"class.base::internal::BindStateBase"* %0, i64 1, i32 1
  %7 = bitcast void ()** %6 to %"class.base::RunLoop"**
  %8 = getelementptr inbounds void ()*, void ()** %6, i64 1
  %9 = bitcast void ()** %8 to i8**
  %10 = getelementptr inbounds void ()*, void ()** %6, i64 2
  %11 = bitcast void ()** %10 to %"class.base::Value"**
  %12 = bitcast %"class.base::Value"* %4 to i8*
  call void @llvm.lifetime.start.p0i8(i64 32, i8* nonnull %12) #10
  %13 = load %"class.base::RunLoop"*, %"class.base::RunLoop"** %7, align 8
  %14 = load i8*, i8** %9, align 8
  %15 = load %"class.base::Value"*, %"class.base::Value"** %11, align 8
  call void @_ZN4base5ValueC1EOS0_(%"class.base::Value"* nonnull %4, %"class.base::Value"* dereferenceable(32) %2) #10
  store i8 %5, i8* %14, align 1
  %16 = call dereferenceable(32) %"class.base::Value"* @_ZN4base5ValueaSEOS0_(%"class.base::Value"* %15, %"class.base::Value"* nonnull dereferenceable(32) %4) #10
  call void @_ZN4base7RunLoop4QuitEv(%"class.base::RunLoop"* %13) #10
  call void @_ZN4base5ValueD1Ev(%"class.base::Value"* nonnull %4) #10
  call void @llvm.lifetime.end.p0i8(i64 32, i8* nonnull %12) #10
  ret void
}

; Function Attrs: nounwind
declare void @_ZN4base5ValueC1EOS0_(%"class.base::Value"*, %"class.base::Value"* dereferenceable(32)) unnamed_addr #3

; Function Attrs: nounwind
declare void @_ZN4base5ValueD1Ev(%"class.base::Value"*) unnamed_addr #3

; Function Attrs: nounwind
declare dereferenceable(32) %"class.base::Value"* @_ZN4base5ValueaSEOS0_(%"class.base::Value"*, %"class.base::Value"* dereferenceable(32)) local_unnamed_addr #3

; Function Attrs: nounwind ssp uwtable
define internal void @"_ZN4base8internal9BindStateIZN7storage5mojom27IndexedDBControlAsyncWaiter20GetAllOriginsDetailsEPbPNS_5ValueEE3$_5JPNS_7RunLoopES5_S7_EE7DestroyEPKNS0_13BindStateBaseE"(%"class.base::internal::BindStateBase"*) #0 align 2 {
  %2 = icmp eq %"class.base::internal::BindStateBase"* %0, null
  br i1 %2, label %5, label %3

3:                                                ; preds = %1
  %4 = bitcast %"class.base::internal::BindStateBase"* %0 to i8*
  tail call void @_ZdlPv(i8* %4) #11
  br label %5

5:                                                ; preds = %3, %1
  ret void
}

attributes #0 = { nounwind ssp uwtable "correctly-rounded-divide-sqrt-fp-math"="false" "disable-tail-calls"="false" "less-precise-fpmad"="false" "min-legal-vector-width"="0" "no-frame-pointer-elim"="false" "no-frame-pointer-elim-non-leaf" "no-infs-fp-math"="false" "no-jump-tables"="false" "no-nans-fp-math"="false" "no-signed-zeros-fp-math"="false" "no-trapping-math"="false" "null-pointer-is-valid"="true" "stack-protector-buffer-size"="4" "target-cpu"="x86-64" "target-features"="+cx8,+fxsr,+mmx,+sse,+sse2,+sse3,+x87" "unsafe-fp-math"="false" "use-soft-float"="false" }
attributes #1 = { nofree norecurse nounwind ssp uwtable writeonly "correctly-rounded-divide-sqrt-fp-math"="false" "disable-tail-calls"="false" "less-precise-fpmad"="false" "min-legal-vector-width"="0" "no-frame-pointer-elim"="false" "no-frame-pointer-elim-non-leaf" "no-infs-fp-math"="false" "no-jump-tables"="false" "no-nans-fp-math"="false" "no-signed-zeros-fp-math"="false" "no-trapping-math"="false" "null-pointer-is-valid"="true" "stack-protector-buffer-size"="4" "target-cpu"="x86-64" "target-features"="+cx8,+fxsr,+mmx,+sse,+sse2,+sse3,+x87" "unsafe-fp-math"="false" "use-soft-float"="false" }
attributes #2 = { norecurse nounwind readnone ssp uwtable "correctly-rounded-divide-sqrt-fp-math"="false" "disable-tail-calls"="false" "less-precise-fpmad"="false" "min-legal-vector-width"="0" "no-frame-pointer-elim"="false" "no-frame-pointer-elim-non-leaf" "no-infs-fp-math"="false" "no-jump-tables"="false" "no-nans-fp-math"="false" "no-signed-zeros-fp-math"="false" "no-trapping-math"="false" "null-pointer-is-valid"="true" "stack-protector-buffer-size"="4" "target-cpu"="x86-64" "target-features"="+cx8,+fxsr,+mmx,+sse,+sse2,+sse3,+x87" "unsafe-fp-math"="false" "use-soft-float"="false" }
attributes #3 = { nounwind "correctly-rounded-divide-sqrt-fp-math"="false" "disable-tail-calls"="false" "less-precise-fpmad"="false" "no-frame-pointer-elim"="false" "no-frame-pointer-elim-non-leaf" "no-infs-fp-math"="false" "no-nans-fp-math"="false" "no-signed-zeros-fp-math"="false" "no-trapping-math"="false" "null-pointer-is-valid"="true" "stack-protector-buffer-size"="4" "target-cpu"="x86-64" "target-features"="+cx8,+fxsr,+mmx,+sse,+sse2,+sse3,+x87" "unsafe-fp-math"="false" "use-soft-float"="false" }
attributes #4 = { argmemonly nounwind }
attributes #5 = { "correctly-rounded-divide-sqrt-fp-math"="false" "disable-tail-calls"="false" "less-precise-fpmad"="false" "no-frame-pointer-elim"="false" "no-frame-pointer-elim-non-leaf" "no-infs-fp-math"="false" "no-nans-fp-math"="false" "no-signed-zeros-fp-math"="false" "no-trapping-math"="false" "null-pointer-is-valid"="true" "stack-protector-buffer-size"="4" "target-cpu"="x86-64" "target-features"="+cx8,+fxsr,+mmx,+sse,+sse2,+sse3,+x87" "unsafe-fp-math"="false" "use-soft-float"="false" }
attributes #6 = { inlinehint nounwind ssp uwtable "correctly-rounded-divide-sqrt-fp-math"="false" "disable-tail-calls"="false" "less-precise-fpmad"="false" "min-legal-vector-width"="0" "no-frame-pointer-elim"="false" "no-frame-pointer-elim-non-leaf" "no-infs-fp-math"="false" "no-jump-tables"="false" "no-nans-fp-math"="false" "no-signed-zeros-fp-math"="false" "no-trapping-math"="false" "null-pointer-is-valid"="true" "stack-protector-buffer-size"="4" "target-cpu"="x86-64" "target-features"="+cx8,+fxsr,+mmx,+sse,+sse2,+sse3,+x87" "unsafe-fp-math"="false" "use-soft-float"="false" }
attributes #7 = { cold noreturn nounwind }
attributes #8 = { nobuiltin nounwind "correctly-rounded-divide-sqrt-fp-math"="false" "disable-tail-calls"="false" "less-precise-fpmad"="false" "no-frame-pointer-elim"="false" "no-frame-pointer-elim-non-leaf" "no-infs-fp-math"="false" "no-nans-fp-math"="false" "no-signed-zeros-fp-math"="false" "no-trapping-math"="false" "null-pointer-is-valid"="true" "stack-protector-buffer-size"="4" "target-cpu"="x86-64" "target-features"="+cx8,+fxsr,+mmx,+sse,+sse2,+sse3,+x87" "unsafe-fp-math"="false" "use-soft-float"="false" }
attributes #9 = { nobuiltin nofree "correctly-rounded-divide-sqrt-fp-math"="false" "disable-tail-calls"="false" "less-precise-fpmad"="false" "no-frame-pointer-elim"="false" "no-frame-pointer-elim-non-leaf" "no-infs-fp-math"="false" "no-nans-fp-math"="false" "no-signed-zeros-fp-math"="false" "no-trapping-math"="false" "null-pointer-is-valid"="true" "stack-protector-buffer-size"="4" "target-cpu"="x86-64" "target-features"="+cx8,+fxsr,+mmx,+sse,+sse2,+sse3,+x87" "unsafe-fp-math"="false" "use-soft-float"="false" }
attributes #10 = { nounwind }
attributes #11 = { builtin nounwind }
attributes #12 = { noreturn nounwind }

!llvm.module.flags = !{!0, !1}

!0 = !{i32 1, !"wchar_size", i32 4}
!1 = !{i32 7, !"PIC Level", i32 2}
!2 = !{!3, !5}
!3 = distinct !{!3, !4, !"_ZN4base8internal8BindImplINS_12OnceCallbackEZN7storage5mojom27IndexedDBControlAsyncWaiter8GetUsageEPNSt3__16vectorIN4mojo9StructPtrINS4_16StorageUsageInfoEEENS6_9allocatorISB_EEEEE3$_0JPNS_7RunLoopERSF_EEEDcOT0_DpOT1_: argument 0"}
!4 = distinct !{!4, !"_ZN4base8internal8BindImplINS_12OnceCallbackEZN7storage5mojom27IndexedDBControlAsyncWaiter8GetUsageEPNSt3__16vectorIN4mojo9StructPtrINS4_16StorageUsageInfoEEENS6_9allocatorISB_EEEEE3$_0JPNS_7RunLoopERSF_EEEDcOT0_DpOT1_"}
!5 = distinct !{!5, !6, !"_ZN4base8BindOnceIZN7storage5mojom27IndexedDBControlAsyncWaiter8GetUsageEPNSt3__16vectorIN4mojo9StructPtrINS2_16StorageUsageInfoEEENS4_9allocatorIS9_EEEEE3$_0JPNS_7RunLoopERSD_EEENS_12OnceCallbackINS_8internal14BindTypeHelperIT_JDpT0_EE14UnboundRunTypeEEEOSL_DpOSM_: argument 0"}
!6 = distinct !{!6, !"_ZN4base8BindOnceIZN7storage5mojom27IndexedDBControlAsyncWaiter8GetUsageEPNSt3__16vectorIN4mojo9StructPtrINS2_16StorageUsageInfoEEENS4_9allocatorIS9_EEEEE3$_0JPNS_7RunLoopERSD_EEENS_12OnceCallbackINS_8internal14BindTypeHelperIT_JDpT0_EE14UnboundRunTypeEEEOSL_DpOSM_"}
!7 = !{!8, !10}
!8 = distinct !{!8, !9, !"_ZN4base8internal8BindImplINS_12OnceCallbackEZN7storage5mojom27IndexedDBControlAsyncWaiter15DeleteForOriginERKN3url6OriginEPbE3$_1JPNS_7RunLoopERSA_EEEDcOT0_DpOT1_: argument 0"}
!9 = distinct !{!9, !"_ZN4base8internal8BindImplINS_12OnceCallbackEZN7storage5mojom27IndexedDBControlAsyncWaiter15DeleteForOriginERKN3url6OriginEPbE3$_1JPNS_7RunLoopERSA_EEEDcOT0_DpOT1_"}
!10 = distinct !{!10, !11, !"_ZN4base8BindOnceIZN7storage5mojom27IndexedDBControlAsyncWaiter15DeleteForOriginERKN3url6OriginEPbE3$_1JPNS_7RunLoopERS8_EEENS_12OnceCallbackINS_8internal14BindTypeHelperIT_JDpT0_EE14UnboundRunTypeEEEOSG_DpOSH_: argument 0"}
!11 = distinct !{!11, !"_ZN4base8BindOnceIZN7storage5mojom27IndexedDBControlAsyncWaiter15DeleteForOriginERKN3url6OriginEPbE3$_1JPNS_7RunLoopERS8_EEENS_12OnceCallbackINS_8internal14BindTypeHelperIT_JDpT0_EE14UnboundRunTypeEEEOSG_DpOSH_"}
!12 = !{!13, !15}
!13 = distinct !{!13, !14, !"_ZN4base8internal8BindImplINS_12OnceCallbackEZN7storage5mojom27IndexedDBControlAsyncWaiter10ForceCloseERKN3url6OriginENS4_16ForceCloseReasonEE3$_2JPNS_7RunLoopEEEEDcOT0_DpOT1_: argument 0"}
!14 = distinct !{!14, !"_ZN4base8internal8BindImplINS_12OnceCallbackEZN7storage5mojom27IndexedDBControlAsyncWaiter10ForceCloseERKN3url6OriginENS4_16ForceCloseReasonEE3$_2JPNS_7RunLoopEEEEDcOT0_DpOT1_"}
!15 = distinct !{!15, !16, !"_ZN4base8BindOnceIZN7storage5mojom27IndexedDBControlAsyncWaiter10ForceCloseERKN3url6OriginENS2_16ForceCloseReasonEE3$_2JPNS_7RunLoopEEEENS_12OnceCallbackINS_8internal14BindTypeHelperIT_JDpT0_EE14UnboundRunTypeEEEOSF_DpOSG_: argument 0"}
!16 = distinct !{!16, !"_ZN4base8BindOnceIZN7storage5mojom27IndexedDBControlAsyncWaiter10ForceCloseERKN3url6OriginENS2_16ForceCloseReasonEE3$_2JPNS_7RunLoopEEEENS_12OnceCallbackINS_8internal14BindTypeHelperIT_JDpT0_EE14UnboundRunTypeEEEOSF_DpOSG_"}
!17 = !{!18, !20}
!18 = distinct !{!18, !19, !"_ZN4base8internal8BindImplINS_12OnceCallbackEZN7storage5mojom27IndexedDBControlAsyncWaiter18GetConnectionCountERKN3url6OriginEPmE3$_3JPNS_7RunLoopERSA_EEEDcOT0_DpOT1_: argument 0"}
!19 = distinct !{!19, !"_ZN4base8internal8BindImplINS_12OnceCallbackEZN7storage5mojom27IndexedDBControlAsyncWaiter18GetConnectionCountERKN3url6OriginEPmE3$_3JPNS_7RunLoopERSA_EEEDcOT0_DpOT1_"}
!20 = distinct !{!20, !21, !"_ZN4base8BindOnceIZN7storage5mojom27IndexedDBControlAsyncWaiter18GetConnectionCountERKN3url6OriginEPmE3$_3JPNS_7RunLoopERS8_EEENS_12OnceCallbackINS_8internal14BindTypeHelperIT_JDpT0_EE14UnboundRunTypeEEEOSG_DpOSH_: argument 0"}
!21 = distinct !{!21, !"_ZN4base8BindOnceIZN7storage5mojom27IndexedDBControlAsyncWaiter18GetConnectionCountERKN3url6OriginEPmE3$_3JPNS_7RunLoopERS8_EEENS_12OnceCallbackINS_8internal14BindTypeHelperIT_JDpT0_EE14UnboundRunTypeEEEOSG_DpOSH_"}
!22 = !{!23, !25}
!23 = distinct !{!23, !24, !"_ZN4base8internal8BindImplINS_12OnceCallbackEZN7storage5mojom27IndexedDBControlAsyncWaiter18DownloadOriginDataERKN3url6OriginEPbPNS_8FilePathESC_E3$_4JPNS_7RunLoopERSA_RSC_SH_EEEDcOT0_DpOT1_: argument 0"}
!24 = distinct !{!24, !"_ZN4base8internal8BindImplINS_12OnceCallbackEZN7storage5mojom27IndexedDBControlAsyncWaiter18DownloadOriginDataERKN3url6OriginEPbPNS_8FilePathESC_E3$_4JPNS_7RunLoopERSA_RSC_SH_EEEDcOT0_DpOT1_"}
!25 = distinct !{!25, !26, !"_ZN4base8BindOnceIZN7storage5mojom27IndexedDBControlAsyncWaiter18DownloadOriginDataERKN3url6OriginEPbPNS_8FilePathESA_E3$_4JPNS_7RunLoopERS8_RSA_SF_EEENS_12OnceCallbackINS_8internal14BindTypeHelperIT_JDpT0_EE14UnboundRunTypeEEEOSJ_DpOSK_: argument 0"}
!26 = distinct !{!26, !"_ZN4base8BindOnceIZN7storage5mojom27IndexedDBControlAsyncWaiter18DownloadOriginDataERKN3url6OriginEPbPNS_8FilePathESA_E3$_4JPNS_7RunLoopERS8_RSA_SF_EEENS_12OnceCallbackINS_8internal14BindTypeHelperIT_JDpT0_EE14UnboundRunTypeEEEOSJ_DpOSK_"}
!27 = !{!28, !30}
!28 = distinct !{!28, !29, !"_ZN4base8internal8BindImplINS_12OnceCallbackEZN7storage5mojom27IndexedDBControlAsyncWaiter20GetAllOriginsDetailsEPbPNS_5ValueEE3$_5JPNS_7RunLoopERS6_RS8_EEEDcOT0_DpOT1_: argument 0"}
!29 = distinct !{!29, !"_ZN4base8internal8BindImplINS_12OnceCallbackEZN7storage5mojom27IndexedDBControlAsyncWaiter20GetAllOriginsDetailsEPbPNS_5ValueEE3$_5JPNS_7RunLoopERS6_RS8_EEEDcOT0_DpOT1_"}
!30 = distinct !{!30, !31, !"_ZN4base8BindOnceIZN7storage5mojom27IndexedDBControlAsyncWaiter20GetAllOriginsDetailsEPbPNS_5ValueEE3$_5JPNS_7RunLoopERS4_RS6_EEENS_12OnceCallbackINS_8internal14BindTypeHelperIT_JDpT0_EE14UnboundRunTypeEEEOSF_DpOSG_: argument 0"}
!31 = distinct !{!31, !"_ZN4base8BindOnceIZN7storage5mojom27IndexedDBControlAsyncWaiter20GetAllOriginsDetailsEPbPNS_5ValueEE3$_5JPNS_7RunLoopERS4_RS6_EEENS_12OnceCallbackINS_8internal14BindTypeHelperIT_JDpT0_EE14UnboundRunTypeEEEOSF_DpOSG_"}
