; ModuleID = '../../chrome/installer/util/initial_preferences_constants.cc'
source_filename = "../../chrome/installer/util/initial_preferences_constants.cc"
target datalayout = "e-m:e-i64:64-f80:128-n8:16:32:64-S128"
target triple = "x86_64-unknown-linux-gnu"

@_ZN9installer19initial_preferences15kDisableLoggingE = hidden local_unnamed_addr constant [16 x i8] c"disable_logging\00", align 16
@_ZN9installer19initial_preferences11kDistroDictE = hidden local_unnamed_addr constant [13 x i8] c"distribution\00", align 1
@_ZN9installer19initial_preferences34kDistroImportBookmarksFromFilePrefE = hidden local_unnamed_addr constant [27 x i8] c"import_bookmarks_from_file\00", align 16
@_ZN9installer19initial_preferences39kDistroSuppressDefaultBrowserPromptPrefE = hidden local_unnamed_addr constant [44 x i8] c"suppress_default_browser_prompt_for_version\00", align 16
@_ZN9installer19initial_preferences24kDoNotCreateAnyShortcutsE = hidden local_unnamed_addr constant [28 x i8] c"do_not_create_any_shortcuts\00", align 16
@_ZN9installer19initial_preferences27kDoNotCreateDesktopShortcutE = hidden local_unnamed_addr constant [31 x i8] c"do_not_create_desktop_shortcut\00", align 16
@_ZN9installer19initial_preferences31kDoNotCreateQuickLaunchShortcutE = hidden local_unnamed_addr constant [36 x i8] c"do_not_create_quick_launch_shortcut\00", align 16
@_ZN9installer19initial_preferences27kDoNotCreateTaskbarShortcutE = hidden local_unnamed_addr constant [31 x i8] c"do_not_create_taskbar_shortcut\00", align 16
@_ZN9installer19initial_preferences18kDoNotLaunchChromeE = hidden local_unnamed_addr constant [21 x i8] c"do_not_launch_chrome\00", align 16
@_ZN9installer19initial_preferences29kDoNotRegisterForUpdateLaunchE = hidden local_unnamed_addr constant [34 x i8] c"do_not_register_for_update_launch\00", align 16
@_ZN9installer19initial_preferences8kLogFileE = hidden local_unnamed_addr constant [9 x i8] c"log_file\00", align 1
@_ZN9installer19initial_preferences18kMakeChromeDefaultE = hidden local_unnamed_addr constant [20 x i8] c"make_chrome_default\00", align 16
@_ZN9installer19initial_preferences25kMakeChromeDefaultForUserE = hidden local_unnamed_addr constant [29 x i8] c"make_chrome_default_for_user\00", align 16
@_ZN9installer19initial_preferences4kMsiE = hidden local_unnamed_addr constant [4 x i8] c"msi\00", align 1
@_ZN9installer19initial_preferences13kMsiProductIdE = hidden local_unnamed_addr constant [15 x i8] c"msi_product_id\00", align 1
@_ZN9installer19initial_preferences16kProgramFilesDirE = hidden local_unnamed_addr constant [18 x i8] c"program_files_dir\00", align 16
@_ZN9installer19initial_preferences12kRequireEulaE = hidden local_unnamed_addr constant [13 x i8] c"require_eula\00", align 1
@_ZN9installer19initial_preferences12kSystemLevelE = hidden local_unnamed_addr constant [13 x i8] c"system_level\00", align 1
@_ZN9installer19initial_preferences15kVerboseLoggingE = hidden local_unnamed_addr constant [16 x i8] c"verbose_logging\00", align 16
@_ZN9installer19initial_preferences16kExtensionsBlockE = hidden local_unnamed_addr constant [20 x i8] c"extensions.settings\00", align 16
@_ZN9installer19initial_preferences15kAllowDowngradeE = hidden local_unnamed_addr constant [16 x i8] c"allow_downgrade\00", align 16

!llvm.module.flags = !{!0, !1}

!0 = !{i32 1, !"wchar_size", i32 4}
!1 = !{i32 7, !"PIC Level", i32 2}
