; ModuleID = '../../v8/src/codegen/interface-descriptors.cc'
source_filename = "../../v8/src/codegen/interface-descriptors.cc"
target datalayout = "e-m:e-i64:64-f80:128-n8:16:32:64-S128"
target triple = "x86_64-unknown-linux-gnu"

module asm ".symver exp, exp@GLIBC_2.2.5"
module asm ".symver exp2, exp2@GLIBC_2.2.5"
module asm ".symver exp2f, exp2f@GLIBC_2.2.5"
module asm ".symver expf, expf@GLIBC_2.2.5"
module asm ".symver lgamma, lgamma@GLIBC_2.2.5"
module asm ".symver lgammaf, lgammaf@GLIBC_2.2.5"
module asm ".symver lgammal, lgammal@GLIBC_2.2.5"
module asm ".symver log, log@GLIBC_2.2.5"
module asm ".symver log2, log2@GLIBC_2.2.5"
module asm ".symver log2f, log2f@GLIBC_2.2.5"
module asm ".symver logf, logf@GLIBC_2.2.5"
module asm ".symver pow, pow@GLIBC_2.2.5"
module asm ".symver powf, powf@GLIBC_2.2.5"

%"class.v8::internal::CallInterfaceDescriptorData" = type { i32, i32, i32, %"class.v8::base::Flags", i32, i32, %"class.v8::internal::Register"*, %"class.v8::internal::MachineType"* }
%"class.v8::base::Flags" = type { i32 }
%"class.v8::internal::Register" = type { %"class.v8::internal::RegisterBase" }
%"class.v8::internal::RegisterBase" = type { i32 }
%"class.v8::internal::MachineType" = type { i8, i8 }
%"struct.std::nothrow_t" = type { i8 }
%"struct.std::__1::array" = type { [1 x %"class.v8::internal::Register"] }
%"class.v8::Platform" = type { i32 (...)** }
%"class.v8::internal::Isolate" = type { %"class.v8::internal::IsolateData", %"class.std::__1::unique_ptr", %"class.v8::internal::Heap", %"class.v8::internal::ReadOnlyHeap"*, %"class.std::__1::shared_ptr.727", %"class.std::__1::unique_ptr.728", i32, %"class.v8::internal::Isolate::EntryStackItem"*, i32, %"class.v8::internal::StringStream"*, [13 x i64], %"class.v8::internal::Bootstrapper"*, %"class.v8::internal::RuntimeProfiler"*, %"class.v8::internal::CompilationCache"*, %"class.std::__1::shared_ptr.734", %"class.v8::base::RecursiveMutex", %"class.v8::base::SharedMutex", %"class.v8::base::SharedMutex", %"class.v8::base::SharedMutex", %"class.v8::base::SharedMutex", %"class.v8::base::SharedMutex", %"class.v8::internal::Logger"*, %"class.v8::internal::StubCache"*, %"class.v8::internal::StubCache"*, %"class.v8::internal::Deoptimizer"*, i8, %"class.v8::internal::MaterializedObjectStore"*, i8, i32, i32, %"class.v8::internal::DescriptorLookupCache"*, %"struct.v8::internal::HandleScopeData", %"class.v8::internal::HandleScopeImplementer"*, %"class.v8::internal::UnicodeCache"*, %"class.v8::internal::AccountingAllocator"*, %"class.v8::internal::InnerPointerToCodeCache"*, %"class.v8::internal::GlobalHandles"*, %"class.v8::internal::EternalHandles"*, %"class.v8::internal::ThreadManager"*, %"class.v8::bigint::Processor"*, %"class.v8::internal::RuntimeState", %"class.v8::internal::Builtins", %"class.v8::internal::SetupIsolateDelegate"*, %"class.v8::internal::RegExpStack"*, %"class.std::__1::vector.759", %"class.v8::internal::DateCache"*, %"class.v8::base::RandomNumberGenerator"*, %"class.v8::base::RandomNumberGenerator"*, %"struct.std::__1::atomic.766", {}*, i8*, void (i32, %"class.v8::Promise"*, %"class.v8::Value"*)*, {}*, {}*, %"struct.std::__1::atomic.776", {}*, %"class.v8::base::Mutex", double, %"class.std::__1::basic_string", %"class.std::__1::unordered_map.786", %"struct.std::__1::atomic.451", i8, i8, i8, i8, i8, i8, double, %"class.v8::internal::Debug"*, %"class.v8::internal::HeapProfiler"*, %"class.std::__1::unique_ptr.812", %"class.v8::internal::AstStringConstants"*, %"class.v8::internal::interpreter::Interpreter"*, %"class.v8::internal::compiler::PerIsolateCompilerCache"*, %"class.v8::internal::Zone"*, %"class.v8::internal::CompilerDispatcher"*, %"class.std::__1::queue", void (i8*, i8*)*, void (i8*, i1)*, void (i8*, i32)*, i1 (%"class.v8::Context"*, %"class.v8::String"*)*, { i8, %"class.v8::String"* } (%"class.v8::Context"*, %"class.v8::Value"*)*, { i8, %"class.v8::String"* } (%"class.v8::Context"*, %"class.v8::Value"*, i1)*, i1 (%"class.v8::Context"*, %"class.v8::String"*)*, i1 (%"class.v8::FunctionCallbackInfo"*)*, i1 (%"class.v8::FunctionCallbackInfo"*)*, i1 (%"class.v8::Context"*)*, void (%"class.v8::FunctionCallbackInfo"*)*, %"class.v8::String"* (%"class.v8::Isolate"*, i8*)*, i1 (%"class.v8::Context"*)*, i1 (%"class.v8::Context"*)*, %"class.v8::internal::Relocatable"*, %"class.std::__1::vector.829"*, %"class.v8::internal::Object", i64*, %"class.v8::internal::AddressToIndexHashMap"*, %"class.v8::internal::HeapObjectToIndexHashMap"*, %"class.v8::internal::MicrotaskQueue"*, %"class.v8::internal::CompilationStatistics"*, %"class.v8::internal::CodeTracer"*, i32, void (%"class.v8::PromiseRejectMessage"*)*, %"class.v8::StartupData"*, i32, i32, i32, i64, i8, i8, i32, i8, i32, %"class.v8_inspector::V8Inspector"*, i8, i8, i8, i32, i32, %"class.v8::internal::compiler::NodeObserver"*, i8, [128 x i32], [256 x i32], [251 x i32], [251 x i32], %"class.v8::internal::OptimizingCompileDispatcher"*, %"class.std::__1::unique_ptr.837", i32, i8, i8, i32, i32, %"class.std::__1::vector.843", %"class.std::__1::vector.843", void (%"class.v8::Isolate"*, i32)*, %"class.std::__1::shared_ptr.850", i64, %"class.std::__1::unordered_map.851", i64, %"struct.v8::metrics::LongTaskStats", %"class.std::__1::vector.600", %"class.v8::internal::BuiltinsConstantsTableBuilder"*, i8*, i32, i8*, i32, %"class.v8::ArrayBuffer::Allocator"*, %"class.std::__1::shared_ptr.459", %"class.v8::internal::FutexWaitListNode", %"class.v8::internal::CancelableTaskManager"*, %"class.v8::debug::ConsoleDelegate"*, %"class.v8::debug::AsyncEventDelegate"*, i32, i32, %"class.std::__1::unique_ptr.910", i1 (%"class.v8::Isolate"*)*, i8, %"class.v8::base::Mutex", %"struct.v8::internal::ManagedPtrDestructor"*, i64, i64, %"class.v8::internal::wasm::WasmEngine"*, %"class.std::__1::unique_ptr.916", %"class.v8::internal::EmbeddedFileWriterInterface"*, %"class.v8::Context::BackupIncumbentScope"*, {}*, %"class.v8::base::Mutex", %"class.v8::internal::Isolate::ThreadDataTable", i8, %"class.v8::internal::Isolate"*, %"class.v8::base::Mutex", %"class.v8::internal::Isolate"*, %"class.v8::internal::Isolate"*, %"class.v8::internal::Isolate"*, %"struct.std::__1::atomic.950", %"class.std::__1::vector.954", %"class.std::__1::vector.954", void (i32, %"class.std::__1::basic_string"*)* }
%"class.v8::internal::IsolateData" = type { [4 x i8*], i64, i64, i64, i64, i64, %"class.v8::internal::StackGuard", %"class.v8::internal::RootsTable", %"class.v8::internal::ExternalReferenceTable", %"class.v8::internal::ThreadLocalTop", [1711 x i64], [1711 x i64], i8, [15 x i8] }
%"class.v8::internal::StackGuard" = type { %"class.v8::internal::Isolate"*, %"class.v8::internal::StackGuard::ThreadLocal" }
%"class.v8::internal::StackGuard::ThreadLocal" = type { i64, i64, i64, i64, %"class.v8::internal::InterruptsScope"*, i64 }
%"class.v8::internal::InterruptsScope" = type opaque
%"class.v8::internal::RootsTable" = type { [669 x i64] }
%"class.v8::internal::ExternalReferenceTable" = type { [1042 x i64], i32, i32 }
%"class.v8::internal::ThreadLocalTop" = type { %"class.v8::TryCatch"*, %"class.v8::internal::Isolate"*, %"class.v8::internal::Context", %"struct.std::__1::atomic", %"class.v8::internal::Object", %"class.v8::internal::Context", i64, i64, i64, i64, i64, %"class.v8::internal::Object", i8, i8, %"class.v8::internal::Object", i64, i64, i64, %"class.v8::internal::PromiseOnStack"*, %"class.v8::internal::Simulator"*, i64, %"class.v8::internal::ExternalCallbackScope"*, i32, void (%"class.v8::Object"*, i32, %"class.v8::Value"*)*, i64 }
%"class.v8::TryCatch" = type <{ %"class.v8::internal::Isolate"*, %"class.v8::TryCatch"*, i8*, i8*, i8*, i8, [7 x i8] }>
%"struct.std::__1::atomic" = type { %"struct.std::__1::__atomic_base" }
%"struct.std::__1::__atomic_base" = type { %"struct.std::__1::__cxx_atomic_impl" }
%"struct.std::__1::__cxx_atomic_impl" = type { %"struct.std::__1::__cxx_atomic_base_impl" }
%"struct.std::__1::__cxx_atomic_base_impl" = type { %"class.v8::internal::ThreadId" }
%"class.v8::internal::ThreadId" = type { i32 }
%"class.v8::internal::Context" = type { %"class.v8::internal::TorqueGeneratedContext" }
%"class.v8::internal::TorqueGeneratedContext" = type { %"class.v8::internal::HeapObject" }
%"class.v8::internal::HeapObject" = type { %"class.v8::internal::Object" }
%"class.v8::internal::PromiseOnStack" = type { %"class.v8::internal::Handle", %"class.v8::internal::PromiseOnStack"* }
%"class.v8::internal::Handle" = type { %"class.v8::internal::HandleBase" }
%"class.v8::internal::HandleBase" = type { i64* }
%"class.v8::internal::Simulator" = type opaque
%"class.v8::internal::ExternalCallbackScope" = type opaque
%"class.v8::Object" = type { i8 }
%"class.v8::Value" = type { i8 }
%"class.std::__1::unique_ptr" = type { %"class.std::__1::__compressed_pair" }
%"class.std::__1::__compressed_pair" = type { %"struct.std::__1::__compressed_pair_elem" }
%"struct.std::__1::__compressed_pair_elem" = type { %"class.v8::internal::IsolateAllocator"* }
%"class.v8::internal::IsolateAllocator" = type { i8*, %"class.v8::PageAllocator"* }
%"class.v8::PageAllocator" = type { i32 (...)** }
%"class.v8::internal::Heap" = type { %"class.std::__1::unordered_map", %"struct.std::__1::atomic.426", %"class.v8::internal::Heap::ExternalMemoryAccounting", %"class.v8::internal::Isolate"*, i64, i64, i64, i64, %"struct.std::__1::atomic.426", i64, i64, i64, i64, i64, i8, i64, i64, %"struct.std::__1::atomic.426", i64, i64, %"struct.std::__1::atomic.426", %"struct.std::__1::atomic.436", %"class.std::__1::vector", i32, %"class.v8::internal::NewSpace"*, %"class.v8::internal::OldSpace"*, %"class.v8::internal::CodeSpace"*, %"class.v8::internal::MapSpace"*, %"class.v8::internal::OldLargeObjectSpace"*, %"class.v8::internal::CodeLargeObjectSpace"*, %"class.v8::internal::NewLargeObjectSpace"*, %"class.v8::internal::ReadOnlySpace"*, %"class.v8::internal::OldSpace"*, %"class.v8::internal::MapSpace"*, %"class.std::__1::unique_ptr.445", %"class.std::__1::unique_ptr.445", [8 x %"class.v8::internal::Space"*], %"class.v8::internal::LocalHeap"*, %"class.v8::internal::ArrayBufferExtension"*, %"class.v8::internal::ArrayBufferExtension"*, i8, i64, %"struct.std::__1::atomic.460", i32, i32, i32, i32, %"class.v8::internal::AllocationObserver"*, %"class.v8::internal::StressScavengeObserver"*, double, i32, i32, i32, i64, i32, [128 x i64], %"struct.std::__1::atomic.426", i64, i8, %"struct.std::__1::atomic.426", %"class.v8::internal::Object", %"class.v8::internal::Object", %"class.v8::internal::Object", %"class.std::__1::vector.464", %"class.std::__1::vector.464", i64 ()*, [113 x i32], i64, double, double, i64, i64, double, i32, i32, i32, i32, double, double, double, %"class.std::__1::unique_ptr.471", %"class.std::__1::unique_ptr.477", %"class.v8::internal::MinorMarkCompactCollector"*, %"class.std::__1::unique_ptr.483", %"class.std::__1::unique_ptr.489", %"class.std::__1::unique_ptr.495", %"class.std::__1::unique_ptr.501", %"class.std::__1::unique_ptr.507", %"class.std::__1::unique_ptr.513", %"class.std::__1::unique_ptr.519", %"class.std::__1::unique_ptr.525", %"class.std::__1::unique_ptr.531", %"class.std::__1::unique_ptr.531", %"class.std::__1::unique_ptr.537", %"class.std::__1::unique_ptr.543", %"class.std::__1::unique_ptr.543", %"class.std::__1::unique_ptr.549", %"class.std::__1::unique_ptr.555", %"class.std::__1::shared_ptr.561", %"class.v8::CppHeap"*, %"class.v8::EmbedderRootsHandler"*, %"class.v8::internal::StrongRootsEntry"*, %"class.v8::base::Mutex", i8, i64, i64, i64, i64, %"class.std::__1::unordered_map.562", %"class.std::__1::unique_ptr.588", [512 x i8], i8, i8, i64, i8, i32, i32, %"class.std::__1::unique_ptr.594", i8, %"class.v8::internal::Heap::ExternalStringTable", %"class.v8::base::Mutex", %"class.std::__1::unique_ptr.607", i32, i8, i8, i8, i8, i8, %"class.v8::internal::HeapObject", %"class.v8::base::SharedMutex", %"class.v8::base::Mutex", %"class.std::__1::unordered_set", i8, [7 x i8], %"class.std::__1::unordered_map.636", %"class.std::__1::unordered_map.662", %"class.std::__1::unordered_map.636", %"class.std::__1::unordered_map.686", %"class.std::__1::vector.714", i8, %"class.std::__1::unique_ptr.721", i32, i32 }
%"class.std::__1::unordered_map" = type { %"class.std::__1::__hash_table" }
%"class.std::__1::__hash_table" = type <{ %"class.std::__1::unique_ptr.409", %"class.std::__1::__compressed_pair.416", %"class.std::__1::__compressed_pair.421", %"class.std::__1::__compressed_pair.423", [4 x i8] }>
%"class.std::__1::unique_ptr.409" = type { %"class.std::__1::__compressed_pair.410" }
%"class.std::__1::__compressed_pair.410" = type { %"struct.std::__1::__compressed_pair_elem.411", %"struct.std::__1::__compressed_pair_elem.412" }
%"struct.std::__1::__compressed_pair_elem.411" = type { %"struct.std::__1::__hash_node_base"** }
%"struct.std::__1::__hash_node_base" = type { %"struct.std::__1::__hash_node_base"* }
%"struct.std::__1::__compressed_pair_elem.412" = type { %"class.std::__1::__bucket_list_deallocator" }
%"class.std::__1::__bucket_list_deallocator" = type { %"class.std::__1::__compressed_pair.413" }
%"class.std::__1::__compressed_pair.413" = type { %"struct.std::__1::__compressed_pair_elem.414" }
%"struct.std::__1::__compressed_pair_elem.414" = type { i64 }
%"class.std::__1::__compressed_pair.416" = type { %"struct.std::__1::__compressed_pair_elem.417" }
%"struct.std::__1::__compressed_pair_elem.417" = type { %"struct.std::__1::__hash_node_base" }
%"class.std::__1::__compressed_pair.421" = type { %"struct.std::__1::__compressed_pair_elem.414" }
%"class.std::__1::__compressed_pair.423" = type { %"struct.std::__1::__compressed_pair_elem.424" }
%"struct.std::__1::__compressed_pair_elem.424" = type { float }
%"class.v8::internal::Heap::ExternalMemoryAccounting" = type { %"struct.std::__1::atomic.431", %"struct.std::__1::atomic.431", %"struct.std::__1::atomic.431" }
%"struct.std::__1::atomic.431" = type { %"struct.std::__1::__atomic_base.432" }
%"struct.std::__1::__atomic_base.432" = type { %"struct.std::__1::__atomic_base.433" }
%"struct.std::__1::__atomic_base.433" = type { %"struct.std::__1::__cxx_atomic_impl.434" }
%"struct.std::__1::__cxx_atomic_impl.434" = type { %"struct.std::__1::__cxx_atomic_base_impl.435" }
%"struct.std::__1::__cxx_atomic_base_impl.435" = type { i64 }
%"struct.std::__1::atomic.436" = type { %"struct.std::__1::__atomic_base.437" }
%"struct.std::__1::__atomic_base.437" = type { %"struct.std::__1::__cxx_atomic_impl.438" }
%"struct.std::__1::__cxx_atomic_impl.438" = type { %"struct.std::__1::__cxx_atomic_base_impl.439" }
%"struct.std::__1::__cxx_atomic_base_impl.439" = type { i32 }
%"class.std::__1::vector" = type { %"class.std::__1::__vector_base" }
%"class.std::__1::__vector_base" = type { %"struct.std::__1::pair"*, %"struct.std::__1::pair"*, %"class.std::__1::__compressed_pair.440" }
%"struct.std::__1::pair" = type opaque
%"class.std::__1::__compressed_pair.440" = type { %"struct.std::__1::__compressed_pair_elem.441" }
%"struct.std::__1::__compressed_pair_elem.441" = type { %"struct.std::__1::pair"* }
%"class.v8::internal::NewSpace" = type opaque
%"class.v8::internal::CodeSpace" = type opaque
%"class.v8::internal::OldLargeObjectSpace" = type opaque
%"class.v8::internal::CodeLargeObjectSpace" = type opaque
%"class.v8::internal::NewLargeObjectSpace" = type opaque
%"class.v8::internal::ReadOnlySpace" = type opaque
%"class.v8::internal::OldSpace" = type opaque
%"class.v8::internal::MapSpace" = type opaque
%"class.std::__1::unique_ptr.445" = type { %"class.std::__1::__compressed_pair.446" }
%"class.std::__1::__compressed_pair.446" = type { %"struct.std::__1::__compressed_pair_elem.447" }
%"struct.std::__1::__compressed_pair_elem.447" = type { %"class.v8::internal::ConcurrentAllocator"* }
%"class.v8::internal::ConcurrentAllocator" = type opaque
%"class.v8::internal::Space" = type opaque
%"class.v8::internal::LocalHeap" = type opaque
%"class.v8::internal::ArrayBufferExtension" = type { %"struct.std::__1::atomic.451", %"struct.std::__1::atomic.455", %"class.std::__1::shared_ptr", %"class.v8::internal::ArrayBufferExtension"*, %"struct.std::__1::atomic.426" }
%"struct.std::__1::atomic.455" = type { %"struct.std::__1::__atomic_base.456" }
%"struct.std::__1::__atomic_base.456" = type { %"struct.std::__1::__cxx_atomic_impl.457" }
%"struct.std::__1::__cxx_atomic_impl.457" = type { %"struct.std::__1::__cxx_atomic_base_impl.458" }
%"struct.std::__1::__cxx_atomic_base_impl.458" = type { i8 }
%"class.std::__1::shared_ptr" = type { %"class.v8::internal::BackingStore"*, %"class.std::__1::__shared_weak_count"* }
%"class.v8::internal::BackingStore" = type <{ i8*, %"struct.std::__1::atomic.426", i64, %"union.v8::internal::BackingStore::TypeSpecificData", i16, [6 x i8] }>
%"union.v8::internal::BackingStore::TypeSpecificData" = type { %"class.std::__1::shared_ptr.459" }
%"class.std::__1::__shared_weak_count" = type { %"class.std::__1::__shared_count", i64 }
%"class.std::__1::__shared_count" = type { i32 (...)**, i64 }
%"struct.std::__1::atomic.460" = type { %"struct.std::__1::__atomic_base.461" }
%"struct.std::__1::__atomic_base.461" = type { %"struct.std::__1::__cxx_atomic_impl.462" }
%"struct.std::__1::__cxx_atomic_impl.462" = type { %"struct.std::__1::__cxx_atomic_base_impl.463" }
%"struct.std::__1::__cxx_atomic_base_impl.463" = type { i32 }
%"class.v8::internal::AllocationObserver" = type { i32 (...)**, i64 }
%"class.v8::internal::StressScavengeObserver" = type opaque
%"struct.std::__1::atomic.426" = type { %"struct.std::__1::__atomic_base.427" }
%"struct.std::__1::__atomic_base.427" = type { %"struct.std::__1::__atomic_base.428" }
%"struct.std::__1::__atomic_base.428" = type { %"struct.std::__1::__cxx_atomic_impl.429" }
%"struct.std::__1::__cxx_atomic_impl.429" = type { %"struct.std::__1::__cxx_atomic_base_impl.430" }
%"struct.std::__1::__cxx_atomic_base_impl.430" = type { i64 }
%"class.std::__1::vector.464" = type { %"class.std::__1::__vector_base.465" }
%"class.std::__1::__vector_base.465" = type { %"struct.v8::internal::Heap::GCCallbackTuple"*, %"struct.v8::internal::Heap::GCCallbackTuple"*, %"class.std::__1::__compressed_pair.466" }
%"struct.v8::internal::Heap::GCCallbackTuple" = type { void (%"class.v8::Isolate"*, i32, i32, i8*)*, i32, i8* }
%"class.v8::Isolate" = type { i8 }
%"class.std::__1::__compressed_pair.466" = type { %"struct.std::__1::__compressed_pair_elem.467" }
%"struct.std::__1::__compressed_pair_elem.467" = type { %"struct.v8::internal::Heap::GCCallbackTuple"* }
%"class.std::__1::unique_ptr.471" = type { %"class.std::__1::__compressed_pair.472" }
%"class.std::__1::__compressed_pair.472" = type { %"struct.std::__1::__compressed_pair_elem.473" }
%"struct.std::__1::__compressed_pair_elem.473" = type { %"class.v8::internal::GCTracer"* }
%"class.v8::internal::GCTracer" = type opaque
%"class.std::__1::unique_ptr.477" = type { %"class.std::__1::__compressed_pair.478" }
%"class.std::__1::__compressed_pair.478" = type { %"struct.std::__1::__compressed_pair_elem.479" }
%"struct.std::__1::__compressed_pair_elem.479" = type { %"class.v8::internal::MarkCompactCollector"* }
%"class.v8::internal::MarkCompactCollector" = type opaque
%"class.v8::internal::MinorMarkCompactCollector" = type opaque
%"class.std::__1::unique_ptr.483" = type { %"class.std::__1::__compressed_pair.484" }
%"class.std::__1::__compressed_pair.484" = type { %"struct.std::__1::__compressed_pair_elem.485" }
%"struct.std::__1::__compressed_pair_elem.485" = type { %"class.v8::internal::ScavengerCollector"* }
%"class.v8::internal::ScavengerCollector" = type opaque
%"class.std::__1::unique_ptr.489" = type { %"class.std::__1::__compressed_pair.490" }
%"class.std::__1::__compressed_pair.490" = type { %"struct.std::__1::__compressed_pair_elem.491" }
%"struct.std::__1::__compressed_pair_elem.491" = type { %"class.v8::internal::ArrayBufferSweeper"* }
%"class.v8::internal::ArrayBufferSweeper" = type opaque
%"class.std::__1::unique_ptr.495" = type { %"class.std::__1::__compressed_pair.496" }
%"class.std::__1::__compressed_pair.496" = type { %"struct.std::__1::__compressed_pair_elem.497" }
%"struct.std::__1::__compressed_pair_elem.497" = type { %"class.v8::internal::MemoryAllocator"* }
%"class.v8::internal::MemoryAllocator" = type opaque
%"class.std::__1::unique_ptr.501" = type { %"class.std::__1::__compressed_pair.502" }
%"class.std::__1::__compressed_pair.502" = type { %"struct.std::__1::__compressed_pair_elem.503" }
%"struct.std::__1::__compressed_pair_elem.503" = type { %"class.v8::internal::IncrementalMarking"* }
%"class.v8::internal::IncrementalMarking" = type opaque
%"class.std::__1::unique_ptr.507" = type { %"class.std::__1::__compressed_pair.508" }
%"class.std::__1::__compressed_pair.508" = type { %"struct.std::__1::__compressed_pair_elem.509" }
%"struct.std::__1::__compressed_pair_elem.509" = type { %"class.v8::internal::ConcurrentMarking"* }
%"class.v8::internal::ConcurrentMarking" = type opaque
%"class.std::__1::unique_ptr.513" = type { %"class.std::__1::__compressed_pair.514" }
%"class.std::__1::__compressed_pair.514" = type { %"struct.std::__1::__compressed_pair_elem.515" }
%"struct.std::__1::__compressed_pair_elem.515" = type { %"class.v8::internal::GCIdleTimeHandler"* }
%"class.v8::internal::GCIdleTimeHandler" = type opaque
%"class.std::__1::unique_ptr.519" = type { %"class.std::__1::__compressed_pair.520" }
%"class.std::__1::__compressed_pair.520" = type { %"struct.std::__1::__compressed_pair_elem.521" }
%"struct.std::__1::__compressed_pair_elem.521" = type { %"class.v8::internal::MemoryMeasurement"* }
%"class.v8::internal::MemoryMeasurement" = type opaque
%"class.std::__1::unique_ptr.525" = type { %"class.std::__1::__compressed_pair.526" }
%"class.std::__1::__compressed_pair.526" = type { %"struct.std::__1::__compressed_pair_elem.527" }
%"struct.std::__1::__compressed_pair_elem.527" = type { %"class.v8::internal::MemoryReducer"* }
%"class.v8::internal::MemoryReducer" = type opaque
%"class.std::__1::unique_ptr.531" = type { %"class.std::__1::__compressed_pair.532" }
%"class.std::__1::__compressed_pair.532" = type { %"struct.std::__1::__compressed_pair_elem.533" }
%"struct.std::__1::__compressed_pair_elem.533" = type { %"class.v8::internal::ObjectStats"* }
%"class.v8::internal::ObjectStats" = type opaque
%"class.std::__1::unique_ptr.537" = type { %"class.std::__1::__compressed_pair.538" }
%"class.std::__1::__compressed_pair.538" = type { %"struct.std::__1::__compressed_pair_elem.539" }
%"struct.std::__1::__compressed_pair_elem.539" = type { %"class.v8::internal::ScavengeJob"* }
%"class.v8::internal::ScavengeJob" = type opaque
%"class.std::__1::unique_ptr.543" = type { %"class.std::__1::__compressed_pair.544" }
%"class.std::__1::__compressed_pair.544" = type { %"struct.std::__1::__compressed_pair_elem.545" }
%"struct.std::__1::__compressed_pair_elem.545" = type { %"class.v8::internal::AllocationObserver"* }
%"class.std::__1::unique_ptr.549" = type { %"class.std::__1::__compressed_pair.550" }
%"class.std::__1::__compressed_pair.550" = type { %"struct.std::__1::__compressed_pair_elem.551" }
%"struct.std::__1::__compressed_pair_elem.551" = type { %"class.v8::internal::LocalEmbedderHeapTracer"* }
%"class.v8::internal::LocalEmbedderHeapTracer" = type opaque
%"class.std::__1::unique_ptr.555" = type { %"class.std::__1::__compressed_pair.556" }
%"class.std::__1::__compressed_pair.556" = type { %"struct.std::__1::__compressed_pair_elem.557" }
%"struct.std::__1::__compressed_pair_elem.557" = type { %"class.v8::internal::MarkingBarrier"* }
%"class.v8::internal::MarkingBarrier" = type opaque
%"class.std::__1::shared_ptr.561" = type { %"class.v8::internal::CodeRange"*, %"class.std::__1::__shared_weak_count"* }
%"class.v8::internal::CodeRange" = type opaque
%"class.v8::CppHeap" = type opaque
%"class.v8::EmbedderRootsHandler" = type { i32 (...)** }
%"class.v8::internal::StrongRootsEntry" = type { %"class.v8::internal::FullObjectSlot", %"class.v8::internal::FullObjectSlot", %"class.v8::internal::StrongRootsEntry"*, %"class.v8::internal::StrongRootsEntry"* }
%"class.v8::internal::FullObjectSlot" = type { %"class.v8::internal::SlotBase" }
%"class.v8::internal::SlotBase" = type { i64 }
%"class.std::__1::unordered_map.562" = type { %"class.std::__1::__hash_table.563" }
%"class.std::__1::__hash_table.563" = type <{ %"class.std::__1::unique_ptr.564", %"class.std::__1::__compressed_pair.574", %"class.std::__1::__compressed_pair.579", %"class.std::__1::__compressed_pair.582", [4 x i8] }>
%"class.std::__1::unique_ptr.564" = type { %"class.std::__1::__compressed_pair.565" }
%"class.std::__1::__compressed_pair.565" = type { %"struct.std::__1::__compressed_pair_elem.566", %"struct.std::__1::__compressed_pair_elem.568" }
%"struct.std::__1::__compressed_pair_elem.566" = type { %"struct.std::__1::__hash_node_base.567"** }
%"struct.std::__1::__hash_node_base.567" = type { %"struct.std::__1::__hash_node_base.567"* }
%"struct.std::__1::__compressed_pair_elem.568" = type { %"class.std::__1::__bucket_list_deallocator.569" }
%"class.std::__1::__bucket_list_deallocator.569" = type { %"class.std::__1::__compressed_pair.570" }
%"class.std::__1::__compressed_pair.570" = type { %"struct.std::__1::__compressed_pair_elem.414" }
%"class.std::__1::__compressed_pair.574" = type { %"struct.std::__1::__compressed_pair_elem.575" }
%"struct.std::__1::__compressed_pair_elem.575" = type { %"struct.std::__1::__hash_node_base.567" }
%"class.std::__1::__compressed_pair.579" = type { %"struct.std::__1::__compressed_pair_elem.414" }
%"class.std::__1::__compressed_pair.582" = type { %"struct.std::__1::__compressed_pair_elem.424" }
%"class.std::__1::unique_ptr.588" = type { %"class.std::__1::__compressed_pair.589" }
%"class.std::__1::__compressed_pair.589" = type { %"struct.std::__1::__compressed_pair_elem.590" }
%"struct.std::__1::__compressed_pair_elem.590" = type { %"class.v8::internal::GlobalHandleVector"* }
%"class.v8::internal::GlobalHandleVector" = type opaque
%"class.std::__1::unique_ptr.594" = type { %"class.std::__1::__compressed_pair.595" }
%"class.std::__1::__compressed_pair.595" = type { %"struct.std::__1::__compressed_pair_elem.596" }
%"struct.std::__1::__compressed_pair_elem.596" = type { %"class.v8::internal::GlobalSafepoint"* }
%"class.v8::internal::GlobalSafepoint" = type opaque
%"class.v8::internal::Heap::ExternalStringTable" = type { %"class.v8::internal::Heap"*, %"class.std::__1::vector.600", %"class.std::__1::vector.600" }
%"class.std::__1::unique_ptr.607" = type { %"class.std::__1::__compressed_pair.608" }
%"class.std::__1::__compressed_pair.608" = type { %"struct.std::__1::__compressed_pair_elem.609" }
%"struct.std::__1::__compressed_pair_elem.609" = type { %"class.v8::internal::CollectionBarrier"* }
%"class.v8::internal::CollectionBarrier" = type opaque
%"class.std::__1::unordered_set" = type { %"class.std::__1::__hash_table.613" }
%"class.std::__1::__hash_table.613" = type <{ %"class.std::__1::unique_ptr.614", %"class.std::__1::__compressed_pair.624", %"class.std::__1::__compressed_pair.629", %"class.std::__1::__compressed_pair.631", [4 x i8] }>
%"class.std::__1::unique_ptr.614" = type { %"class.std::__1::__compressed_pair.615" }
%"class.std::__1::__compressed_pair.615" = type { %"struct.std::__1::__compressed_pair_elem.616", %"struct.std::__1::__compressed_pair_elem.618" }
%"struct.std::__1::__compressed_pair_elem.616" = type { %"struct.std::__1::__hash_node_base.617"** }
%"struct.std::__1::__hash_node_base.617" = type { %"struct.std::__1::__hash_node_base.617"* }
%"struct.std::__1::__compressed_pair_elem.618" = type { %"class.std::__1::__bucket_list_deallocator.619" }
%"class.std::__1::__bucket_list_deallocator.619" = type { %"class.std::__1::__compressed_pair.620" }
%"class.std::__1::__compressed_pair.620" = type { %"struct.std::__1::__compressed_pair_elem.414" }
%"class.std::__1::__compressed_pair.624" = type { %"struct.std::__1::__compressed_pair_elem.625" }
%"struct.std::__1::__compressed_pair_elem.625" = type { %"struct.std::__1::__hash_node_base.617" }
%"class.std::__1::__compressed_pair.629" = type { %"struct.std::__1::__compressed_pair_elem.414" }
%"class.std::__1::__compressed_pair.631" = type { %"struct.std::__1::__compressed_pair_elem.424" }
%"class.std::__1::unordered_map.662" = type { %"class.std::__1::__hash_table.663" }
%"class.std::__1::__hash_table.663" = type <{ %"class.std::__1::unique_ptr.664", %"class.std::__1::__compressed_pair.674", %"class.std::__1::__compressed_pair.679", %"class.std::__1::__compressed_pair.682", [4 x i8] }>
%"class.std::__1::unique_ptr.664" = type { %"class.std::__1::__compressed_pair.665" }
%"class.std::__1::__compressed_pair.665" = type { %"struct.std::__1::__compressed_pair_elem.666", %"struct.std::__1::__compressed_pair_elem.668" }
%"struct.std::__1::__compressed_pair_elem.666" = type { %"struct.std::__1::__hash_node_base.667"** }
%"struct.std::__1::__hash_node_base.667" = type { %"struct.std::__1::__hash_node_base.667"* }
%"struct.std::__1::__compressed_pair_elem.668" = type { %"class.std::__1::__bucket_list_deallocator.669" }
%"class.std::__1::__bucket_list_deallocator.669" = type { %"class.std::__1::__compressed_pair.670" }
%"class.std::__1::__compressed_pair.670" = type { %"struct.std::__1::__compressed_pair_elem.414" }
%"class.std::__1::__compressed_pair.674" = type { %"struct.std::__1::__compressed_pair_elem.675" }
%"struct.std::__1::__compressed_pair_elem.675" = type { %"struct.std::__1::__hash_node_base.667" }
%"class.std::__1::__compressed_pair.679" = type { %"struct.std::__1::__compressed_pair_elem.414" }
%"class.std::__1::__compressed_pair.682" = type { %"struct.std::__1::__compressed_pair_elem.424" }
%"class.std::__1::unordered_map.636" = type { %"class.std::__1::__hash_table.637" }
%"class.std::__1::__hash_table.637" = type <{ %"class.std::__1::unique_ptr.638", %"class.std::__1::__compressed_pair.648", %"class.std::__1::__compressed_pair.653", %"class.std::__1::__compressed_pair.656", [4 x i8] }>
%"class.std::__1::unique_ptr.638" = type { %"class.std::__1::__compressed_pair.639" }
%"class.std::__1::__compressed_pair.639" = type { %"struct.std::__1::__compressed_pair_elem.640", %"struct.std::__1::__compressed_pair_elem.642" }
%"struct.std::__1::__compressed_pair_elem.640" = type { %"struct.std::__1::__hash_node_base.641"** }
%"struct.std::__1::__hash_node_base.641" = type { %"struct.std::__1::__hash_node_base.641"* }
%"struct.std::__1::__compressed_pair_elem.642" = type { %"class.std::__1::__bucket_list_deallocator.643" }
%"class.std::__1::__bucket_list_deallocator.643" = type { %"class.std::__1::__compressed_pair.644" }
%"class.std::__1::__compressed_pair.644" = type { %"struct.std::__1::__compressed_pair_elem.414" }
%"class.std::__1::__compressed_pair.648" = type { %"struct.std::__1::__compressed_pair_elem.649" }
%"struct.std::__1::__compressed_pair_elem.649" = type { %"struct.std::__1::__hash_node_base.641" }
%"class.std::__1::__compressed_pair.653" = type { %"struct.std::__1::__compressed_pair_elem.414" }
%"class.std::__1::__compressed_pair.656" = type { %"struct.std::__1::__compressed_pair_elem.424" }
%"class.std::__1::unordered_map.686" = type { %"class.std::__1::__hash_table.687" }
%"class.std::__1::__hash_table.687" = type <{ %"class.std::__1::unique_ptr.688", %"class.std::__1::__compressed_pair.698", %"class.std::__1::__compressed_pair.703", %"class.std::__1::__compressed_pair.708", [4 x i8] }>
%"class.std::__1::unique_ptr.688" = type { %"class.std::__1::__compressed_pair.689" }
%"class.std::__1::__compressed_pair.689" = type { %"struct.std::__1::__compressed_pair_elem.690", %"struct.std::__1::__compressed_pair_elem.692" }
%"struct.std::__1::__compressed_pair_elem.690" = type { %"struct.std::__1::__hash_node_base.691"** }
%"struct.std::__1::__hash_node_base.691" = type { %"struct.std::__1::__hash_node_base.691"* }
%"struct.std::__1::__compressed_pair_elem.692" = type { %"class.std::__1::__bucket_list_deallocator.693" }
%"class.std::__1::__bucket_list_deallocator.693" = type { %"class.std::__1::__compressed_pair.694" }
%"class.std::__1::__compressed_pair.694" = type { %"struct.std::__1::__compressed_pair_elem.414" }
%"class.std::__1::__compressed_pair.698" = type { %"struct.std::__1::__compressed_pair_elem.699" }
%"struct.std::__1::__compressed_pair_elem.699" = type { %"struct.std::__1::__hash_node_base.691" }
%"class.std::__1::__compressed_pair.703" = type { %"struct.std::__1::__compressed_pair_elem.414" }
%"class.std::__1::__compressed_pair.708" = type { %"struct.std::__1::__compressed_pair_elem.424" }
%"class.std::__1::vector.714" = type { %"class.std::__1::__vector_base.715" }
%"class.std::__1::__vector_base.715" = type { %"class.v8::internal::HeapObjectAllocationTracker"**, %"class.v8::internal::HeapObjectAllocationTracker"**, %"class.std::__1::__compressed_pair.716" }
%"class.v8::internal::HeapObjectAllocationTracker" = type { i32 (...)** }
%"class.std::__1::__compressed_pair.716" = type { %"struct.std::__1::__compressed_pair_elem.717" }
%"struct.std::__1::__compressed_pair_elem.717" = type { %"class.v8::internal::HeapObjectAllocationTracker"** }
%"class.std::__1::unique_ptr.721" = type { %"class.std::__1::__compressed_pair.722" }
%"class.std::__1::__compressed_pair.722" = type { %"struct.std::__1::__compressed_pair_elem.723" }
%"struct.std::__1::__compressed_pair_elem.723" = type { %"class.v8::internal::third_party_heap::Heap"* }
%"class.v8::internal::third_party_heap::Heap" = type opaque
%"class.v8::internal::ReadOnlyHeap" = type { i32 (...)**, i8, %"class.v8::internal::ReadOnlySpace"*, %"class.std::__1::vector.600" }
%"class.std::__1::shared_ptr.727" = type { %"class.v8::internal::ReadOnlyArtifacts"*, %"class.std::__1::__shared_weak_count"* }
%"class.v8::internal::ReadOnlyArtifacts" = type opaque
%"class.std::__1::unique_ptr.728" = type { %"class.std::__1::__compressed_pair.729" }
%"class.std::__1::__compressed_pair.729" = type { %"struct.std::__1::__compressed_pair_elem.730" }
%"struct.std::__1::__compressed_pair_elem.730" = type { %"class.v8::internal::StringTable"* }
%"class.v8::internal::StringTable" = type opaque
%"class.v8::internal::Isolate::EntryStackItem" = type { i32, %"class.v8::internal::Isolate::PerIsolateThreadData"*, %"class.v8::internal::Isolate"*, %"class.v8::internal::Isolate::EntryStackItem"* }
%"class.v8::internal::Isolate::PerIsolateThreadData" = type { %"class.v8::internal::Isolate"*, %"class.v8::internal::ThreadId", i64, %"class.v8::internal::ThreadState"* }
%"class.v8::internal::ThreadState" = type opaque
%"class.v8::internal::StringStream" = type opaque
%"class.v8::internal::Bootstrapper" = type opaque
%"class.v8::internal::RuntimeProfiler" = type opaque
%"class.v8::internal::CompilationCache" = type opaque
%"class.std::__1::shared_ptr.734" = type { %"class.v8::internal::Counters"*, %"class.std::__1::__shared_weak_count"* }
%"class.v8::internal::Counters" = type opaque
%"class.v8::base::RecursiveMutex" = type { %union.pthread_mutex_t }
%union.pthread_mutex_t = type { %struct.__pthread_mutex_s }
%struct.__pthread_mutex_s = type { i32, i32, i32, i32, i32, i16, i16, %struct.__pthread_internal_list }
%struct.__pthread_internal_list = type { %struct.__pthread_internal_list*, %struct.__pthread_internal_list* }
%"class.v8::base::SharedMutex" = type { %union.pthread_rwlock_t }
%union.pthread_rwlock_t = type { %struct.__pthread_rwlock_arch_t }
%struct.__pthread_rwlock_arch_t = type { i32, i32, i32, i32, i32, i32, i32, i32, i8, [7 x i8], i64, i32 }
%"class.v8::internal::Logger" = type opaque
%"class.v8::internal::StubCache" = type opaque
%"class.v8::internal::Deoptimizer" = type opaque
%"class.v8::internal::MaterializedObjectStore" = type opaque
%"class.v8::internal::DescriptorLookupCache" = type opaque
%"struct.v8::internal::HandleScopeData" = type { i64*, i64*, i32, i32, %"class.v8::internal::CanonicalHandleScope"* }
%"class.v8::internal::CanonicalHandleScope" = type { %"class.v8::internal::Isolate"*, %"class.v8::internal::OptimizedCompilationInfo"*, %"class.v8::internal::Zone"*, %"class.v8::internal::RootIndexMap"*, %"class.std::__1::unique_ptr.747", i32, %"class.v8::internal::CanonicalHandleScope"* }
%"class.v8::internal::OptimizedCompilationInfo" = type opaque
%"class.v8::internal::RootIndexMap" = type opaque
%"class.std::__1::unique_ptr.747" = type { %"class.std::__1::__compressed_pair.748" }
%"class.std::__1::__compressed_pair.748" = type { %"struct.std::__1::__compressed_pair_elem.749" }
%"struct.std::__1::__compressed_pair_elem.749" = type { %"class.v8::internal::IdentityMap"* }
%"class.v8::internal::IdentityMap" = type opaque
%"class.v8::internal::HandleScopeImplementer" = type opaque
%"class.v8::internal::UnicodeCache" = type opaque
%"class.v8::internal::AccountingAllocator" = type { i32 (...)**, %"struct.std::__1::atomic.426", %"struct.std::__1::atomic.426", %"class.std::__1::unique_ptr.735", %"class.std::__1::unique_ptr.741" }
%"class.std::__1::unique_ptr.735" = type { %"class.std::__1::__compressed_pair.736" }
%"class.std::__1::__compressed_pair.736" = type { %"struct.std::__1::__compressed_pair_elem.737" }
%"struct.std::__1::__compressed_pair_elem.737" = type { %"class.v8::internal::VirtualMemory"* }
%"class.v8::internal::VirtualMemory" = type { %"class.v8::PageAllocator"*, %"class.v8::base::AddressRegion" }
%"class.v8::base::AddressRegion" = type { i64, i64 }
%"class.std::__1::unique_ptr.741" = type { %"class.std::__1::__compressed_pair.742" }
%"class.std::__1::__compressed_pair.742" = type { %"struct.std::__1::__compressed_pair_elem.743" }
%"struct.std::__1::__compressed_pair_elem.743" = type { %"class.v8::base::BoundedPageAllocator"* }
%"class.v8::base::BoundedPageAllocator" = type opaque
%"class.v8::internal::InnerPointerToCodeCache" = type opaque
%"class.v8::internal::GlobalHandles" = type opaque
%"class.v8::internal::EternalHandles" = type opaque
%"class.v8::internal::ThreadManager" = type opaque
%"class.v8::bigint::Processor" = type opaque
%"class.v8::internal::RuntimeState" = type { %"class.std::__1::unique_ptr.753" }
%"class.std::__1::unique_ptr.753" = type { %"class.std::__1::__compressed_pair.754" }
%"class.std::__1::__compressed_pair.754" = type { %"struct.std::__1::__compressed_pair_elem.755" }
%"struct.std::__1::__compressed_pair_elem.755" = type { %"struct.v8::internal::Runtime::Function"* }
%"struct.v8::internal::Runtime::Function" = type { i32, i32, i8*, i64, i8, i8 }
%"class.v8::internal::Builtins" = type { %"class.v8::internal::Isolate"*, i8, i32 }
%"class.v8::internal::SetupIsolateDelegate" = type opaque
%"class.v8::internal::RegExpStack" = type opaque
%"class.std::__1::vector.759" = type { %"class.std::__1::__vector_base.760" }
%"class.std::__1::__vector_base.760" = type { i32*, i32*, %"class.std::__1::__compressed_pair.761" }
%"class.std::__1::__compressed_pair.761" = type { %"struct.std::__1::__compressed_pair_elem.762" }
%"struct.std::__1::__compressed_pair_elem.762" = type { i32* }
%"class.v8::internal::DateCache" = type opaque
%"class.v8::base::RandomNumberGenerator" = type opaque
%"struct.std::__1::atomic.766" = type { %"struct.std::__1::__atomic_base.767" }
%"struct.std::__1::__atomic_base.767" = type { %"struct.std::__1::__cxx_atomic_impl.768" }
%"struct.std::__1::__cxx_atomic_impl.768" = type { %"struct.std::__1::__cxx_atomic_base_impl.769" }
%"struct.std::__1::__cxx_atomic_base_impl.769" = type { i32 }
%"class.v8::Promise" = type { i8 }
%"struct.std::__1::atomic.776" = type { %"struct.std::__1::__atomic_base.777" }
%"struct.std::__1::__atomic_base.777" = type { %"struct.std::__1::__cxx_atomic_impl.778" }
%"struct.std::__1::__cxx_atomic_impl.778" = type { %"struct.std::__1::__cxx_atomic_base_impl.779" }
%"struct.std::__1::__cxx_atomic_base_impl.779" = type { i32 }
%"class.std::__1::basic_string" = type { %"class.std::__1::__compressed_pair.781" }
%"class.std::__1::__compressed_pair.781" = type { %"struct.std::__1::__compressed_pair_elem.782" }
%"struct.std::__1::__compressed_pair_elem.782" = type { %"struct.std::__1::basic_string<char, std::__1::char_traits<char>, std::__1::allocator<char> >::__rep" }
%"struct.std::__1::basic_string<char, std::__1::char_traits<char>, std::__1::allocator<char> >::__rep" = type { %union.anon }
%union.anon = type { %"struct.std::__1::basic_string<char, std::__1::char_traits<char>, std::__1::allocator<char> >::__long" }
%"struct.std::__1::basic_string<char, std::__1::char_traits<char>, std::__1::allocator<char> >::__long" = type { i8*, i64, i64 }
%"class.std::__1::unordered_map.786" = type { %"class.std::__1::__hash_table.787" }
%"class.std::__1::__hash_table.787" = type <{ %"class.std::__1::unique_ptr.788", %"class.std::__1::__compressed_pair.798", %"class.std::__1::__compressed_pair.803", %"class.std::__1::__compressed_pair.806", [4 x i8] }>
%"class.std::__1::unique_ptr.788" = type { %"class.std::__1::__compressed_pair.789" }
%"class.std::__1::__compressed_pair.789" = type { %"struct.std::__1::__compressed_pair_elem.790", %"struct.std::__1::__compressed_pair_elem.792" }
%"struct.std::__1::__compressed_pair_elem.790" = type { %"struct.std::__1::__hash_node_base.791"** }
%"struct.std::__1::__hash_node_base.791" = type { %"struct.std::__1::__hash_node_base.791"* }
%"struct.std::__1::__compressed_pair_elem.792" = type { %"class.std::__1::__bucket_list_deallocator.793" }
%"class.std::__1::__bucket_list_deallocator.793" = type { %"class.std::__1::__compressed_pair.794" }
%"class.std::__1::__compressed_pair.794" = type { %"struct.std::__1::__compressed_pair_elem.414" }
%"class.std::__1::__compressed_pair.798" = type { %"struct.std::__1::__compressed_pair_elem.799" }
%"struct.std::__1::__compressed_pair_elem.799" = type { %"struct.std::__1::__hash_node_base.791" }
%"class.std::__1::__compressed_pair.803" = type { %"struct.std::__1::__compressed_pair_elem.414" }
%"class.std::__1::__compressed_pair.806" = type { %"struct.std::__1::__compressed_pair_elem.424" }
%"struct.std::__1::atomic.451" = type { %"struct.std::__1::__atomic_base.452" }
%"struct.std::__1::__atomic_base.452" = type { %"struct.std::__1::__cxx_atomic_impl.453" }
%"struct.std::__1::__cxx_atomic_impl.453" = type { %"struct.std::__1::__cxx_atomic_base_impl.454" }
%"struct.std::__1::__cxx_atomic_base_impl.454" = type { i8 }
%"class.v8::internal::Debug" = type opaque
%"class.v8::internal::HeapProfiler" = type opaque
%"class.std::__1::unique_ptr.812" = type { %"class.std::__1::__compressed_pair.813" }
%"class.std::__1::__compressed_pair.813" = type { %"struct.std::__1::__compressed_pair_elem.814" }
%"struct.std::__1::__compressed_pair_elem.814" = type { %"class.v8::internal::CodeEventDispatcher"* }
%"class.v8::internal::CodeEventDispatcher" = type opaque
%"class.v8::internal::AstStringConstants" = type opaque
%"class.v8::internal::interpreter::Interpreter" = type opaque
%"class.v8::internal::compiler::PerIsolateCompilerCache" = type opaque
%"class.v8::internal::Zone" = type <{ i64, i64, i64, i64, %"class.v8::internal::AccountingAllocator"*, %"class.v8::internal::Segment"*, i8*, i8, i8, [6 x i8] }>
%"class.v8::internal::Segment" = type { %"class.v8::internal::Zone"*, %"class.v8::internal::Segment"*, i64 }
%"class.v8::internal::CompilerDispatcher" = type opaque
%"class.std::__1::queue" = type { %"class.std::__1::deque" }
%"class.std::__1::deque" = type { %"class.std::__1::__deque_base" }
%"class.std::__1::__deque_base" = type { %"struct.std::__1::__split_buffer", i64, %"class.std::__1::__compressed_pair.824" }
%"struct.std::__1::__split_buffer" = type { %"struct.std::__1::pair.818"**, %"struct.std::__1::pair.818"**, %"struct.std::__1::pair.818"**, %"class.std::__1::__compressed_pair.819" }
%"struct.std::__1::pair.818" = type opaque
%"class.std::__1::__compressed_pair.819" = type { %"struct.std::__1::__compressed_pair_elem.820" }
%"struct.std::__1::__compressed_pair_elem.820" = type { %"struct.std::__1::pair.818"** }
%"class.std::__1::__compressed_pair.824" = type { %"struct.std::__1::__compressed_pair_elem.414" }
%"class.v8::String" = type { i8 }
%"class.v8::Context" = type { i8 }
%"class.v8::FunctionCallbackInfo" = type <{ i64*, i64*, i32, [4 x i8] }>
%"class.v8::internal::Relocatable" = type { i32 (...)**, %"class.v8::internal::Isolate"*, %"class.v8::internal::Relocatable"* }
%"class.std::__1::vector.829" = type { %"class.std::__1::__vector_base.830" }
%"class.std::__1::__vector_base.830" = type { %"class.v8::internal::Handle.831"*, %"class.v8::internal::Handle.831"*, %"class.std::__1::__compressed_pair.832" }
%"class.v8::internal::Handle.831" = type { %"class.v8::internal::HandleBase" }
%"class.std::__1::__compressed_pair.832" = type { %"struct.std::__1::__compressed_pair_elem.833" }
%"struct.std::__1::__compressed_pair_elem.833" = type { %"class.v8::internal::Handle.831"* }
%"class.v8::internal::Object" = type { %"class.v8::internal::TaggedImpl" }
%"class.v8::internal::TaggedImpl" = type { i64 }
%"class.v8::internal::AddressToIndexHashMap" = type opaque
%"class.v8::internal::HeapObjectToIndexHashMap" = type opaque
%"class.v8::internal::MicrotaskQueue" = type opaque
%"class.v8::internal::CompilationStatistics" = type opaque
%"class.v8::internal::CodeTracer" = type opaque
%"class.v8::PromiseRejectMessage" = type { %"class.v8::Local.771", i32, %"class.v8::Local.407" }
%"class.v8::Local.771" = type { %"class.v8::Promise"* }
%"class.v8::Local.407" = type { %"class.v8::Value"* }
%"class.v8::StartupData" = type { i8*, i32 }
%"class.v8_inspector::V8Inspector" = type opaque
%"class.v8::internal::compiler::NodeObserver" = type opaque
%"class.v8::internal::OptimizingCompileDispatcher" = type opaque
%"class.std::__1::unique_ptr.837" = type { %"class.std::__1::__compressed_pair.838" }
%"class.std::__1::__compressed_pair.838" = type { %"struct.std::__1::__compressed_pair_elem.839" }
%"struct.std::__1::__compressed_pair_elem.839" = type { %"class.v8::internal::PersistentHandlesList"* }
%"class.v8::internal::PersistentHandlesList" = type opaque
%"class.std::__1::vector.843" = type { %"class.std::__1::__vector_base.844" }
%"class.std::__1::__vector_base.844" = type { void (%"class.v8::Isolate"*)**, void (%"class.v8::Isolate"*)**, %"class.std::__1::__compressed_pair.845" }
%"class.std::__1::__compressed_pair.845" = type { %"struct.std::__1::__compressed_pair_elem.846" }
%"struct.std::__1::__compressed_pair_elem.846" = type { void (%"class.v8::Isolate"*)** }
%"class.std::__1::shared_ptr.850" = type { %"class.v8::internal::metrics::Recorder"*, %"class.std::__1::__shared_weak_count"* }
%"class.v8::internal::metrics::Recorder" = type opaque
%"class.std::__1::unordered_map.851" = type { %"class.std::__1::__hash_table.852" }
%"class.std::__1::__hash_table.852" = type <{ %"class.std::__1::unique_ptr.853", %"class.std::__1::__compressed_pair.863", %"class.std::__1::__compressed_pair.868", %"class.std::__1::__compressed_pair.873", [4 x i8] }>
%"class.std::__1::unique_ptr.853" = type { %"class.std::__1::__compressed_pair.854" }
%"class.std::__1::__compressed_pair.854" = type { %"struct.std::__1::__compressed_pair_elem.855", %"struct.std::__1::__compressed_pair_elem.857" }
%"struct.std::__1::__compressed_pair_elem.855" = type { %"struct.std::__1::__hash_node_base.856"** }
%"struct.std::__1::__hash_node_base.856" = type { %"struct.std::__1::__hash_node_base.856"* }
%"struct.std::__1::__compressed_pair_elem.857" = type { %"class.std::__1::__bucket_list_deallocator.858" }
%"class.std::__1::__bucket_list_deallocator.858" = type { %"class.std::__1::__compressed_pair.859" }
%"class.std::__1::__compressed_pair.859" = type { %"struct.std::__1::__compressed_pair_elem.414" }
%"class.std::__1::__compressed_pair.863" = type { %"struct.std::__1::__compressed_pair_elem.864" }
%"struct.std::__1::__compressed_pair_elem.864" = type { %"struct.std::__1::__hash_node_base.856" }
%"class.std::__1::__compressed_pair.868" = type { %"struct.std::__1::__compressed_pair_elem.414" }
%"class.std::__1::__compressed_pair.873" = type { %"struct.std::__1::__compressed_pair_elem.424" }
%"struct.v8::metrics::LongTaskStats" = type { i64, i64, i64 }
%"class.std::__1::vector.600" = type { %"class.std::__1::__vector_base.601" }
%"class.std::__1::__vector_base.601" = type { %"class.v8::internal::Object"*, %"class.v8::internal::Object"*, %"class.std::__1::__compressed_pair.602" }
%"class.std::__1::__compressed_pair.602" = type { %"struct.std::__1::__compressed_pair_elem.603" }
%"struct.std::__1::__compressed_pair_elem.603" = type { %"class.v8::internal::Object"* }
%"class.v8::internal::BuiltinsConstantsTableBuilder" = type opaque
%"class.v8::ArrayBuffer::Allocator" = type { i32 (...)** }
%"class.std::__1::shared_ptr.459" = type { %"class.v8::ArrayBuffer::Allocator"*, %"class.std::__1::__shared_weak_count"* }
%"class.v8::internal::FutexWaitListNode" = type { %"class.v8::internal::Isolate"*, %"class.std::__1::shared_ptr.879", %"class.v8::internal::CancelableTaskManager"*, %"class.v8::base::ConditionVariable", %"class.v8::internal::FutexWaitListNode"*, %"class.v8::internal::FutexWaitListNode"*, %"class.std::__1::weak_ptr", i64, i8*, i8, i8, %"class.v8::Global", %"class.v8::Global.908", %"class.v8::base::TimeTicks", i64 }
%"class.std::__1::shared_ptr.879" = type { %"class.v8::TaskRunner"*, %"class.std::__1::__shared_weak_count"* }
%"class.v8::TaskRunner" = type { i32 (...)** }
%"class.v8::base::ConditionVariable" = type { %union.pthread_cond_t }
%union.pthread_cond_t = type { %struct.__pthread_cond_s }
%struct.__pthread_cond_s = type { %union.anon.904, %union.anon.906, [2 x i32], [2 x i32], i32, i32, [2 x i32] }
%union.anon.904 = type { i64 }
%union.anon.906 = type { i64 }
%"class.std::__1::weak_ptr" = type { %"class.v8::internal::BackingStore"*, %"class.std::__1::__shared_weak_count"* }
%"class.v8::Global" = type { %"class.v8::PersistentBase" }
%"class.v8::PersistentBase" = type { %"class.v8::Promise"* }
%"class.v8::Global.908" = type { %"class.v8::PersistentBase.909" }
%"class.v8::PersistentBase.909" = type { %"class.v8::Context"* }
%"class.v8::base::TimeTicks" = type { %"class.v8::base::time_internal::TimeBase" }
%"class.v8::base::time_internal::TimeBase" = type { i64 }
%"class.v8::internal::CancelableTaskManager" = type <{ i64, %"class.std::__1::unordered_map.880", %"class.v8::base::ConditionVariable", %"class.v8::base::Mutex", i8, [7 x i8] }>
%"class.std::__1::unordered_map.880" = type { %"class.std::__1::__hash_table.881" }
%"class.std::__1::__hash_table.881" = type <{ %"class.std::__1::unique_ptr.882", %"class.std::__1::__compressed_pair.892", %"class.std::__1::__compressed_pair.897", %"class.std::__1::__compressed_pair.900", [4 x i8] }>
%"class.std::__1::unique_ptr.882" = type { %"class.std::__1::__compressed_pair.883" }
%"class.std::__1::__compressed_pair.883" = type { %"struct.std::__1::__compressed_pair_elem.884", %"struct.std::__1::__compressed_pair_elem.886" }
%"struct.std::__1::__compressed_pair_elem.884" = type { %"struct.std::__1::__hash_node_base.885"** }
%"struct.std::__1::__hash_node_base.885" = type { %"struct.std::__1::__hash_node_base.885"* }
%"struct.std::__1::__compressed_pair_elem.886" = type { %"class.std::__1::__bucket_list_deallocator.887" }
%"class.std::__1::__bucket_list_deallocator.887" = type { %"class.std::__1::__compressed_pair.888" }
%"class.std::__1::__compressed_pair.888" = type { %"struct.std::__1::__compressed_pair_elem.414" }
%"class.std::__1::__compressed_pair.892" = type { %"struct.std::__1::__compressed_pair_elem.893" }
%"struct.std::__1::__compressed_pair_elem.893" = type { %"struct.std::__1::__hash_node_base.885" }
%"class.std::__1::__compressed_pair.897" = type { %"struct.std::__1::__compressed_pair_elem.414" }
%"class.std::__1::__compressed_pair.900" = type { %"struct.std::__1::__compressed_pair_elem.424" }
%"class.v8::debug::ConsoleDelegate" = type { i32 (...)** }
%"class.v8::debug::AsyncEventDelegate" = type opaque
%"class.std::__1::unique_ptr.910" = type { %"class.std::__1::__compressed_pair.911" }
%"class.std::__1::__compressed_pair.911" = type { %"struct.std::__1::__compressed_pair_elem.912" }
%"struct.std::__1::__compressed_pair_elem.912" = type { %"class.v8::internal::LocalIsolate"* }
%"class.v8::internal::LocalIsolate" = type opaque
%"struct.v8::internal::ManagedPtrDestructor" = type opaque
%"class.v8::internal::wasm::WasmEngine" = type opaque
%"class.std::__1::unique_ptr.916" = type { %"class.std::__1::__compressed_pair.917" }
%"class.std::__1::__compressed_pair.917" = type { %"struct.std::__1::__compressed_pair_elem.918" }
%"struct.std::__1::__compressed_pair_elem.918" = type { %"class.v8::internal::TracingCpuProfilerImpl"* }
%"class.v8::internal::TracingCpuProfilerImpl" = type opaque
%"class.v8::internal::EmbeddedFileWriterInterface" = type opaque
%"class.v8::Context::BackupIncumbentScope" = type { %"class.v8::Local.772", i64, %"class.v8::Context::BackupIncumbentScope"* }
%"class.v8::Local.772" = type { %"class.v8::Context"* }
%"class.v8::internal::Isolate::ThreadDataTable" = type { %"class.std::__1::unordered_map.924" }
%"class.std::__1::unordered_map.924" = type { %"class.std::__1::__hash_table.925" }
%"class.std::__1::__hash_table.925" = type <{ %"class.std::__1::unique_ptr.926", %"class.std::__1::__compressed_pair.936", %"class.std::__1::__compressed_pair.941", %"class.std::__1::__compressed_pair.944", [4 x i8] }>
%"class.std::__1::unique_ptr.926" = type { %"class.std::__1::__compressed_pair.927" }
%"class.std::__1::__compressed_pair.927" = type { %"struct.std::__1::__compressed_pair_elem.928", %"struct.std::__1::__compressed_pair_elem.930" }
%"struct.std::__1::__compressed_pair_elem.928" = type { %"struct.std::__1::__hash_node_base.929"** }
%"struct.std::__1::__hash_node_base.929" = type { %"struct.std::__1::__hash_node_base.929"* }
%"struct.std::__1::__compressed_pair_elem.930" = type { %"class.std::__1::__bucket_list_deallocator.931" }
%"class.std::__1::__bucket_list_deallocator.931" = type { %"class.std::__1::__compressed_pair.932" }
%"class.std::__1::__compressed_pair.932" = type { %"struct.std::__1::__compressed_pair_elem.414" }
%"class.std::__1::__compressed_pair.936" = type { %"struct.std::__1::__compressed_pair_elem.937" }
%"struct.std::__1::__compressed_pair_elem.937" = type { %"struct.std::__1::__hash_node_base.929" }
%"class.std::__1::__compressed_pair.941" = type { %"struct.std::__1::__compressed_pair_elem.414" }
%"class.std::__1::__compressed_pair.944" = type { %"struct.std::__1::__compressed_pair_elem.424" }
%"class.v8::base::Mutex" = type { %union.pthread_mutex_t }
%"struct.std::__1::atomic.950" = type { %"struct.std::__1::__atomic_base.951" }
%"struct.std::__1::__atomic_base.951" = type { %"struct.std::__1::__cxx_atomic_impl.952" }
%"struct.std::__1::__cxx_atomic_impl.952" = type { %"struct.std::__1::__cxx_atomic_base_impl.953" }
%"struct.std::__1::__cxx_atomic_base_impl.953" = type { %"class.std::__1::vector.954"* }
%"class.std::__1::vector.954" = type { %"class.std::__1::__vector_base.955" }
%"class.std::__1::__vector_base.955" = type { %"struct.v8::MemoryRange"*, %"struct.v8::MemoryRange"*, %"class.std::__1::__compressed_pair.956" }
%"struct.v8::MemoryRange" = type { i8*, i64 }
%"class.std::__1::__compressed_pair.956" = type { %"struct.std::__1::__compressed_pair_elem.957" }
%"struct.std::__1::__compressed_pair_elem.957" = type { %"struct.v8::MemoryRange"* }
%"class.v8::internal::CallInterfaceDescriptor" = type { %"class.v8::internal::CallInterfaceDescriptorData"* }

$_ZZN2v88internal29StaticCallInterfaceDescriptorINS0_15AbortDescriptorEE10InitializeEPNS0_27CallInterfaceDescriptorDataEE9registers = comdat any

$_ZZN2v88internal29StaticCallInterfaceDescriptorINS0_18AllocateDescriptorEE10InitializeEPNS0_27CallInterfaceDescriptorDataEE9registers = comdat any

$_ZZN2v88internal29StaticCallInterfaceDescriptorINS0_21ApiCallbackDescriptorEE10InitializeEPNS0_27CallInterfaceDescriptorDataEE9registers = comdat any

$_ZZN2v88internal29StaticCallInterfaceDescriptorINS0_19ApiGetterDescriptorEE10InitializeEPNS0_27CallInterfaceDescriptorDataEE9registers = comdat any

$_ZZN2v88internal29StaticCallInterfaceDescriptorINS0_26ArrayConstructorDescriptorEE10InitializeEPNS0_27CallInterfaceDescriptorDataEE9registers = comdat any

$_ZZN2v88internal29StaticCallInterfaceDescriptorINS0_36ArrayNArgumentsConstructorDescriptorEE10InitializeEPNS0_27CallInterfaceDescriptorDataEE9registers = comdat any

$_ZZN2v88internal29StaticCallInterfaceDescriptorINS0_36ArrayNoArgumentConstructorDescriptorEE10InitializeEPNS0_27CallInterfaceDescriptorDataEE9registers = comdat any

$_ZZN2v88internal29StaticCallInterfaceDescriptorINS0_40ArraySingleArgumentConstructorDescriptorEE10InitializeEPNS0_27CallInterfaceDescriptorDataEE9registers = comdat any

$_ZZN2v88internal29StaticCallInterfaceDescriptorINS0_25BigIntToI32PairDescriptorEE10InitializeEPNS0_27CallInterfaceDescriptorDataEE9registers = comdat any

$_ZZN2v88internal29StaticCallInterfaceDescriptorINS0_21BigIntToI64DescriptorEE10InitializeEPNS0_27CallInterfaceDescriptorDataEE9registers = comdat any

$_ZZN2v88internal29StaticCallInterfaceDescriptorINS0_18BinaryOpDescriptorEE10InitializeEPNS0_27CallInterfaceDescriptorDataEE9registers = comdat any

$_ZZN2v88internal29StaticCallInterfaceDescriptorINS0_27BinaryOp_BaselineDescriptorEE10InitializeEPNS0_27CallInterfaceDescriptorDataEE9registers = comdat any

$_ZZN2v88internal29StaticCallInterfaceDescriptorINS0_31BinaryOp_WithFeedbackDescriptorEE10InitializeEPNS0_27CallInterfaceDescriptorDataEE9registers = comdat any

$_ZZN2v88internal29StaticCallInterfaceDescriptorINS0_28CallForwardVarargsDescriptorEE10InitializeEPNS0_27CallInterfaceDescriptorDataEE9registers = comdat any

$_ZZN2v88internal29StaticCallInterfaceDescriptorINS0_30CallFunctionTemplateDescriptorEE10InitializeEPNS0_27CallInterfaceDescriptorDataEE9registers = comdat any

$_ZZN2v88internal29StaticCallInterfaceDescriptorINS0_24CallTrampolineDescriptorEE10InitializeEPNS0_27CallInterfaceDescriptorDataEE9registers = comdat any

$_ZZN2v88internal29StaticCallInterfaceDescriptorINS0_33CallTrampoline_BaselineDescriptorEE10InitializeEPNS0_27CallInterfaceDescriptorDataEE9registers = comdat any

$_ZZN2v88internal29StaticCallInterfaceDescriptorINS0_41CallTrampoline_Baseline_CompactDescriptorEE10InitializeEPNS0_27CallInterfaceDescriptorDataEE9registers = comdat any

$_ZZN2v88internal29StaticCallInterfaceDescriptorINS0_37CallTrampoline_WithFeedbackDescriptorEE10InitializeEPNS0_27CallInterfaceDescriptorDataEE9registers = comdat any

$_ZZN2v88internal29StaticCallInterfaceDescriptorINS0_21CallVarargsDescriptorEE10InitializeEPNS0_27CallInterfaceDescriptorDataEE9registers = comdat any

$_ZZN2v88internal29StaticCallInterfaceDescriptorINS0_27CallWithArrayLikeDescriptorEE10InitializeEPNS0_27CallInterfaceDescriptorDataEE9registers = comdat any

$_ZZN2v88internal29StaticCallInterfaceDescriptorINS0_40CallWithArrayLike_WithFeedbackDescriptorEE10InitializeEPNS0_27CallInterfaceDescriptorDataEE9registers = comdat any

$_ZZN2v88internal29StaticCallInterfaceDescriptorINS0_24CallWithSpreadDescriptorEE10InitializeEPNS0_27CallInterfaceDescriptorDataEE9registers = comdat any

$_ZZN2v88internal29StaticCallInterfaceDescriptorINS0_33CallWithSpread_BaselineDescriptorEE10InitializeEPNS0_27CallInterfaceDescriptorDataEE9registers = comdat any

$_ZZN2v88internal29StaticCallInterfaceDescriptorINS0_37CallWithSpread_WithFeedbackDescriptorEE10InitializeEPNS0_27CallInterfaceDescriptorDataEE9registers = comdat any

$_ZZN2v88internal29StaticCallInterfaceDescriptorINS0_28CEntry1ArgvOnStackDescriptorEE10InitializeEPNS0_27CallInterfaceDescriptorDataEE9registers = comdat any

$_ZZN2v88internal29StaticCallInterfaceDescriptorINS0_29CloneObjectBaselineDescriptorEE10InitializeEPNS0_27CallInterfaceDescriptorDataEE9registers = comdat any

$_ZZN2v88internal29StaticCallInterfaceDescriptorINS0_31CloneObjectWithVectorDescriptorEE10InitializeEPNS0_27CallInterfaceDescriptorDataEE9registers = comdat any

$_ZZN2v88internal29StaticCallInterfaceDescriptorINS0_17CompareDescriptorEE10InitializeEPNS0_27CallInterfaceDescriptorDataEE9registers = comdat any

$_ZZN2v88internal29StaticCallInterfaceDescriptorINS0_26Compare_BaselineDescriptorEE10InitializeEPNS0_27CallInterfaceDescriptorDataEE9registers = comdat any

$_ZZN2v88internal29StaticCallInterfaceDescriptorINS0_30Compare_WithFeedbackDescriptorEE10InitializeEPNS0_27CallInterfaceDescriptorDataEE9registers = comdat any

$_ZZN2v88internal29StaticCallInterfaceDescriptorINS0_33ConstructForwardVarargsDescriptorEE10InitializeEPNS0_27CallInterfaceDescriptorDataEE9registers = comdat any

$_ZZN2v88internal29StaticCallInterfaceDescriptorINS0_23ConstructStubDescriptorEE10InitializeEPNS0_27CallInterfaceDescriptorDataEE9registers = comdat any

$_ZZN2v88internal29StaticCallInterfaceDescriptorINS0_26ConstructVarargsDescriptorEE10InitializeEPNS0_27CallInterfaceDescriptorDataEE9registers = comdat any

$_ZZN2v88internal29StaticCallInterfaceDescriptorINS0_32ConstructWithArrayLikeDescriptorEE10InitializeEPNS0_27CallInterfaceDescriptorDataEE9registers = comdat any

$_ZZN2v88internal29StaticCallInterfaceDescriptorINS0_45ConstructWithArrayLike_WithFeedbackDescriptorEE10InitializeEPNS0_27CallInterfaceDescriptorDataEE9registers = comdat any

$_ZZN2v88internal29StaticCallInterfaceDescriptorINS0_32Construct_WithFeedbackDescriptorEE10InitializeEPNS0_27CallInterfaceDescriptorDataEE9registers = comdat any

$_ZZN2v88internal29StaticCallInterfaceDescriptorINS0_28Construct_BaselineDescriptorEE10InitializeEPNS0_27CallInterfaceDescriptorDataEE9registers = comdat any

$_ZZN2v88internal29StaticCallInterfaceDescriptorINS0_29ConstructWithSpreadDescriptorEE10InitializeEPNS0_27CallInterfaceDescriptorDataEE9registers = comdat any

$_ZZN2v88internal29StaticCallInterfaceDescriptorINS0_38ConstructWithSpread_BaselineDescriptorEE10InitializeEPNS0_27CallInterfaceDescriptorDataEE9registers = comdat any

$_ZZN2v88internal29StaticCallInterfaceDescriptorINS0_42ConstructWithSpread_WithFeedbackDescriptorEE10InitializeEPNS0_27CallInterfaceDescriptorDataEE9registers = comdat any

$_ZZN2v88internal29StaticCallInterfaceDescriptorINS0_27CppBuiltinAdaptorDescriptorEE10InitializeEPNS0_27CallInterfaceDescriptorDataEE9registers = comdat any

$_ZZN2v88internal29StaticCallInterfaceDescriptorINS0_26DynamicCheckMapsDescriptorEE10InitializeEPNS0_27CallInterfaceDescriptorDataEE9registers = comdat any

$_ZZN2v88internal29StaticCallInterfaceDescriptorINS0_23FastNewObjectDescriptorEE10InitializeEPNS0_27CallInterfaceDescriptorDataEE9registers = comdat any

$_ZZN2v88internal29StaticCallInterfaceDescriptorINS0_22ForInPrepareDescriptorEE10InitializeEPNS0_27CallInterfaceDescriptorDataEE9registers = comdat any

$_ZZN2v88internal29StaticCallInterfaceDescriptorINS0_21GetPropertyDescriptorEE10InitializeEPNS0_27CallInterfaceDescriptorDataEE9registers = comdat any

$_ZZN2v88internal29StaticCallInterfaceDescriptorINS0_27GrowArrayElementsDescriptorEE10InitializeEPNS0_27CallInterfaceDescriptorDataEE9registers = comdat any

$_ZZN2v88internal29StaticCallInterfaceDescriptorINS0_25I32PairToBigIntDescriptorEE10InitializeEPNS0_27CallInterfaceDescriptorDataEE9registers = comdat any

$_ZZN2v88internal29StaticCallInterfaceDescriptorINS0_21I64ToBigIntDescriptorEE10InitializeEPNS0_27CallInterfaceDescriptorDataEE9registers = comdat any

$_ZZN2v88internal29StaticCallInterfaceDescriptorINS0_28InterpreterCEntry1DescriptorEE10InitializeEPNS0_27CallInterfaceDescriptorDataEE9registers = comdat any

$_ZZN2v88internal29StaticCallInterfaceDescriptorINS0_28InterpreterCEntry2DescriptorEE10InitializeEPNS0_27CallInterfaceDescriptorDataEE9registers = comdat any

$_ZZN2v88internal29StaticCallInterfaceDescriptorINS0_29InterpreterDispatchDescriptorEE10InitializeEPNS0_27CallInterfaceDescriptorDataEE9registers = comdat any

$_ZZN2v88internal29StaticCallInterfaceDescriptorINS0_35TailCallOptimizedCodeSlotDescriptorEE10InitializeEPNS0_27CallInterfaceDescriptorDataEE9registers = comdat any

$_ZZN2v88internal29StaticCallInterfaceDescriptorINS0_37InterpreterPushArgsThenCallDescriptorEE10InitializeEPNS0_27CallInterfaceDescriptorDataEE9registers = comdat any

$_ZZN2v88internal29StaticCallInterfaceDescriptorINS0_42InterpreterPushArgsThenConstructDescriptorEE10InitializeEPNS0_27CallInterfaceDescriptorDataEE9registers = comdat any

$_ZZN2v88internal29StaticCallInterfaceDescriptorINS0_22JSTrampolineDescriptorEE10InitializeEPNS0_27CallInterfaceDescriptorDataEE9registers = comdat any

$_ZZN2v88internal29StaticCallInterfaceDescriptorINS0_35BaselineOutOfLinePrologueDescriptorEE10InitializeEPNS0_27CallInterfaceDescriptorDataEE9registers = comdat any

$_ZZN2v88internal29StaticCallInterfaceDescriptorINS0_28BaselineLeaveFrameDescriptorEE10InitializeEPNS0_27CallInterfaceDescriptorDataEE9registers = comdat any

$_ZZN2v88internal29StaticCallInterfaceDescriptorINS0_14LoadDescriptorEE10InitializeEPNS0_27CallInterfaceDescriptorDataEE9registers = comdat any

$_ZZN2v88internal29StaticCallInterfaceDescriptorINS0_22LoadBaselineDescriptorEE10InitializeEPNS0_27CallInterfaceDescriptorDataEE9registers = comdat any

$_ZZN2v88internal29StaticCallInterfaceDescriptorINS0_20LoadGlobalDescriptorEE10InitializeEPNS0_27CallInterfaceDescriptorDataEE9registers = comdat any

$_ZZN2v88internal29StaticCallInterfaceDescriptorINS0_28LoadGlobalBaselineDescriptorEE10InitializeEPNS0_27CallInterfaceDescriptorDataEE9registers = comdat any

$_ZZN2v88internal29StaticCallInterfaceDescriptorINS0_30LoadGlobalNoFeedbackDescriptorEE10InitializeEPNS0_27CallInterfaceDescriptorDataEE9registers = comdat any

$_ZZN2v88internal29StaticCallInterfaceDescriptorINS0_30LoadGlobalWithVectorDescriptorEE10InitializeEPNS0_27CallInterfaceDescriptorDataEE9registers = comdat any

$_ZZN2v88internal29StaticCallInterfaceDescriptorINS0_24LoadNoFeedbackDescriptorEE10InitializeEPNS0_27CallInterfaceDescriptorDataEE9registers = comdat any

$_ZZN2v88internal29StaticCallInterfaceDescriptorINS0_24LoadWithVectorDescriptorEE10InitializeEPNS0_27CallInterfaceDescriptorDataEE9registers = comdat any

$_ZZN2v88internal29StaticCallInterfaceDescriptorINS0_35LoadWithReceiverAndVectorDescriptorEE10InitializeEPNS0_27CallInterfaceDescriptorDataEE9registers = comdat any

$_ZZN2v88internal29StaticCallInterfaceDescriptorINS0_34LoadWithReceiverBaselineDescriptorEE10InitializeEPNS0_27CallInterfaceDescriptorDataEE9registers = comdat any

$_ZZN2v88internal29StaticCallInterfaceDescriptorINS0_24LookupBaselineDescriptorEE10InitializeEPNS0_27CallInterfaceDescriptorDataEE9registers = comdat any

$_ZZN2v88internal29StaticCallInterfaceDescriptorINS0_25ResumeGeneratorDescriptorEE10InitializeEPNS0_27CallInterfaceDescriptorDataEE9registers = comdat any

$_ZZN2v88internal29StaticCallInterfaceDescriptorINS0_34SuspendGeneratorBaselineDescriptorEE10InitializeEPNS0_27CallInterfaceDescriptorDataEE9registers = comdat any

$_ZZN2v88internal29StaticCallInterfaceDescriptorINS0_33ResumeGeneratorBaselineDescriptorEE10InitializeEPNS0_27CallInterfaceDescriptorDataEE9registers = comdat any

$_ZZN2v88internal29StaticCallInterfaceDescriptorINS0_23RunMicrotasksDescriptorEE10InitializeEPNS0_27CallInterfaceDescriptorDataEE9registers = comdat any

$_ZZN2v88internal29StaticCallInterfaceDescriptorINS0_28RunMicrotasksEntryDescriptorEE10InitializeEPNS0_27CallInterfaceDescriptorDataEE9registers = comdat any

$_ZZN2v88internal29StaticCallInterfaceDescriptorINS0_15StoreDescriptorEE10InitializeEPNS0_27CallInterfaceDescriptorDataEE9registers = comdat any

$_ZZN2v88internal29StaticCallInterfaceDescriptorINS0_23StoreBaselineDescriptorEE10InitializeEPNS0_27CallInterfaceDescriptorDataEE9registers = comdat any

$_ZZN2v88internal29StaticCallInterfaceDescriptorINS0_21StoreGlobalDescriptorEE10InitializeEPNS0_27CallInterfaceDescriptorDataEE9registers = comdat any

$_ZZN2v88internal29StaticCallInterfaceDescriptorINS0_29StoreGlobalBaselineDescriptorEE10InitializeEPNS0_27CallInterfaceDescriptorDataEE9registers = comdat any

$_ZZN2v88internal29StaticCallInterfaceDescriptorINS0_31StoreGlobalWithVectorDescriptorEE10InitializeEPNS0_27CallInterfaceDescriptorDataEE9registers = comdat any

$_ZZN2v88internal29StaticCallInterfaceDescriptorINS0_25StoreTransitionDescriptorEE10InitializeEPNS0_27CallInterfaceDescriptorDataEE9registers = comdat any

$_ZZN2v88internal29StaticCallInterfaceDescriptorINS0_25StoreWithVectorDescriptorEE10InitializeEPNS0_27CallInterfaceDescriptorDataEE9registers = comdat any

$_ZZN2v88internal29StaticCallInterfaceDescriptorINS0_18StringAtDescriptorEE10InitializeEPNS0_27CallInterfaceDescriptorDataEE9registers = comdat any

$_ZZN2v88internal29StaticCallInterfaceDescriptorINS0_26StringAtAsStringDescriptorEE10InitializeEPNS0_27CallInterfaceDescriptorDataEE9registers = comdat any

$_ZZN2v88internal29StaticCallInterfaceDescriptorINS0_25StringSubstringDescriptorEE10InitializeEPNS0_27CallInterfaceDescriptorDataEE9registers = comdat any

$_ZZN2v88internal29StaticCallInterfaceDescriptorINS0_24TypeConversionDescriptorEE10InitializeEPNS0_27CallInterfaceDescriptorDataEE9registers = comdat any

$_ZZN2v88internal29StaticCallInterfaceDescriptorINS0_33TypeConversionNoContextDescriptorEE10InitializeEPNS0_27CallInterfaceDescriptorDataEE9registers = comdat any

$_ZZN2v88internal29StaticCallInterfaceDescriptorINS0_33TypeConversion_BaselineDescriptorEE10InitializeEPNS0_27CallInterfaceDescriptorDataEE9registers = comdat any

$_ZZN2v88internal29StaticCallInterfaceDescriptorINS0_16TypeofDescriptorEE10InitializeEPNS0_27CallInterfaceDescriptorDataEE9registers = comdat any

$_ZZN2v88internal29StaticCallInterfaceDescriptorINS0_26UnaryOp_BaselineDescriptorEE10InitializeEPNS0_27CallInterfaceDescriptorDataEE9registers = comdat any

$_ZZN2v88internal29StaticCallInterfaceDescriptorINS0_30UnaryOp_WithFeedbackDescriptorEE10InitializeEPNS0_27CallInterfaceDescriptorDataEE9registers = comdat any

$_ZZN2v88internal29StaticCallInterfaceDescriptorINS0_29WasmFloat32ToNumberDescriptorEE10InitializeEPNS0_27CallInterfaceDescriptorDataEE9registers = comdat any

$_ZZN2v88internal29StaticCallInterfaceDescriptorINS0_29WasmFloat64ToNumberDescriptorEE10InitializeEPNS0_27CallInterfaceDescriptorDataEE9registers = comdat any

$_ZZN2v88internal29StaticCallInterfaceDescriptorINS0_29WasmI32AtomicWait32DescriptorEE10InitializeEPNS0_27CallInterfaceDescriptorDataEE9registers = comdat any

$_ZZN2v88internal29StaticCallInterfaceDescriptorINS0_29WasmI64AtomicWait32DescriptorEE10InitializeEPNS0_27CallInterfaceDescriptorDataEE9registers = comdat any

$_ZZN2v88internal29StaticCallInterfaceDescriptorINS0_22WriteBarrierDescriptorEE10InitializeEPNS0_27CallInterfaceDescriptorDataEE9registers = comdat any

$_ZZN2v88internal29StaticCallInterfaceDescriptorINS0_24FastNewClosureDescriptorEE10InitializeEPNS0_27CallInterfaceDescriptorDataEE9registers = comdat any

$_ZZN2v88internal29StaticCallInterfaceDescriptorINS0_35OrderedHashTableHealIndexDescriptorEE10InitializeEPNS0_27CallInterfaceDescriptorDataEE9registers = comdat any

$_ZZN2v88internal29StaticCallInterfaceDescriptorINS0_37CopyFastSmiOrObjectElementsDescriptorEE10InitializeEPNS0_27CallInterfaceDescriptorDataEE9registers = comdat any

$_ZZN2v88internal29StaticCallInterfaceDescriptorINS0_26EnqueueMicrotaskDescriptorEE10InitializeEPNS0_27CallInterfaceDescriptorDataEE9registers = comdat any

$_ZZN2v88internal29StaticCallInterfaceDescriptorINS0_21HasPropertyDescriptorEE10InitializeEPNS0_27CallInterfaceDescriptorDataEE9registers = comdat any

$_ZZN2v88internal29StaticCallInterfaceDescriptorINS0_24DeletePropertyDescriptorEE10InitializeEPNS0_27CallInterfaceDescriptorDataEE9registers = comdat any

$_ZZN2v88internal29StaticCallInterfaceDescriptorINS0_28CopyDataPropertiesDescriptorEE10InitializeEPNS0_27CallInterfaceDescriptorDataEE9registers = comdat any

$_ZZN2v88internal29StaticCallInterfaceDescriptorINS0_27SetDataPropertiesDescriptorEE10InitializeEPNS0_27CallInterfaceDescriptorDataEE9registers = comdat any

$_ZZN2v88internal29StaticCallInterfaceDescriptorINS0_34ArrayIncludesSmiOrObjectDescriptorEE10InitializeEPNS0_27CallInterfaceDescriptorDataEE9registers = comdat any

$_ZZN2v88internal29StaticCallInterfaceDescriptorINS0_36ArrayIncludesPackedDoublesDescriptorEE10InitializeEPNS0_27CallInterfaceDescriptorDataEE9registers = comdat any

$_ZZN2v88internal29StaticCallInterfaceDescriptorINS0_35ArrayIncludesHoleyDoublesDescriptorEE10InitializeEPNS0_27CallInterfaceDescriptorDataEE9registers = comdat any

$_ZZN2v88internal29StaticCallInterfaceDescriptorINS0_33ArrayIndexOfSmiOrObjectDescriptorEE10InitializeEPNS0_27CallInterfaceDescriptorDataEE9registers = comdat any

$_ZZN2v88internal29StaticCallInterfaceDescriptorINS0_35ArrayIndexOfPackedDoublesDescriptorEE10InitializeEPNS0_27CallInterfaceDescriptorDataEE9registers = comdat any

$_ZZN2v88internal29StaticCallInterfaceDescriptorINS0_34ArrayIndexOfHoleyDoublesDescriptorEE10InitializeEPNS0_27CallInterfaceDescriptorDataEE9registers = comdat any

$_ZZN2v88internal29StaticCallInterfaceDescriptorINS0_26CloneFastJSArrayDescriptorEE10InitializeEPNS0_27CallInterfaceDescriptorDataEE9registers = comdat any

$_ZZN2v88internal29StaticCallInterfaceDescriptorINS0_38CloneFastJSArrayFillingHolesDescriptorEE10InitializeEPNS0_27CallInterfaceDescriptorDataEE9registers = comdat any

$_ZZN2v88internal29StaticCallInterfaceDescriptorINS0_28ExtractFastJSArrayDescriptorEE10InitializeEPNS0_27CallInterfaceDescriptorDataEE9registers = comdat any

$_ZZN2v88internal29StaticCallInterfaceDescriptorINS0_26FlattenIntoArrayDescriptorEE10InitializeEPNS0_27CallInterfaceDescriptorDataEE9registers = comdat any

$_ZZN2v88internal29StaticCallInterfaceDescriptorINS0_26FlatMapIntoArrayDescriptorEE10InitializeEPNS0_27CallInterfaceDescriptorDataEE9registers = comdat any

$_ZZN2v88internal29StaticCallInterfaceDescriptorINS0_28AsyncFunctionEnterDescriptorEE10InitializeEPNS0_27CallInterfaceDescriptorDataEE9registers = comdat any

$_ZZN2v88internal29StaticCallInterfaceDescriptorINS0_29AsyncFunctionRejectDescriptorEE10InitializeEPNS0_27CallInterfaceDescriptorDataEE9registers = comdat any

$_ZZN2v88internal29StaticCallInterfaceDescriptorINS0_30AsyncFunctionResolveDescriptorEE10InitializeEPNS0_27CallInterfaceDescriptorDataEE9registers = comdat any

$_ZZN2v88internal29StaticCallInterfaceDescriptorINS0_34AsyncFunctionAwaitCaughtDescriptorEE10InitializeEPNS0_27CallInterfaceDescriptorDataEE9registers = comdat any

$_ZZN2v88internal29StaticCallInterfaceDescriptorINS0_36AsyncFunctionAwaitUncaughtDescriptorEE10InitializeEPNS0_27CallInterfaceDescriptorDataEE9registers = comdat any

$_ZZN2v88internal29StaticCallInterfaceDescriptorINS0_32CreateIterResultObjectDescriptorEE10InitializeEPNS0_27CallInterfaceDescriptorDataEE9registers = comdat any

$_ZZN2v88internal29StaticCallInterfaceDescriptorINS0_31CreateGeneratorObjectDescriptorEE10InitializeEPNS0_27CallInterfaceDescriptorDataEE9registers = comdat any

$_ZZN2v88internal29StaticCallInterfaceDescriptorINS0_24IterableToListDescriptorEE10InitializeEPNS0_27CallInterfaceDescriptorDataEE9registers = comdat any

$_ZZN2v88internal29StaticCallInterfaceDescriptorINS0_30IterableToFixedArrayDescriptorEE10InitializeEPNS0_27CallInterfaceDescriptorDataEE9registers = comdat any

$_ZZN2v88internal29StaticCallInterfaceDescriptorINS0_40IterableToListWithSymbolLookupDescriptorEE10InitializeEPNS0_27CallInterfaceDescriptorDataEE9registers = comdat any

$_ZZN2v88internal29StaticCallInterfaceDescriptorINS0_50IterableToFixedArrayWithSymbolLookupSlowDescriptorEE10InitializeEPNS0_27CallInterfaceDescriptorDataEE9registers = comdat any

$_ZZN2v88internal29StaticCallInterfaceDescriptorINS0_40IterableToListMayPreserveHolesDescriptorEE10InitializeEPNS0_27CallInterfaceDescriptorDataEE9registers = comdat any

$_ZZN2v88internal29StaticCallInterfaceDescriptorINS0_37IterableToFixedArrayForWasmDescriptorEE10InitializeEPNS0_27CallInterfaceDescriptorDataEE9registers = comdat any

$_ZZN2v88internal29StaticCallInterfaceDescriptorINS0_32StringListFromIterableDescriptorEE10InitializeEPNS0_27CallInterfaceDescriptorDataEE9registers = comdat any

$_ZZN2v88internal29StaticCallInterfaceDescriptorINS0_33FindOrderedHashMapEntryDescriptorEE10InitializeEPNS0_27CallInterfaceDescriptorDataEE9registers = comdat any

$_ZZN2v88internal29StaticCallInterfaceDescriptorINS0_27MapIteratorToListDescriptorEE10InitializeEPNS0_27CallInterfaceDescriptorDataEE9registers = comdat any

$_ZZN2v88internal29StaticCallInterfaceDescriptorINS0_24ObjectToStringDescriptorEE10InitializeEPNS0_27CallInterfaceDescriptorDataEE9registers = comdat any

$_ZZN2v88internal29StaticCallInterfaceDescriptorINS0_24ForInEnumerateDescriptorEE10InitializeEPNS0_27CallInterfaceDescriptorDataEE9registers = comdat any

$_ZZN2v88internal29StaticCallInterfaceDescriptorINS0_21ForInFilterDescriptorEE10InitializeEPNS0_27CallInterfaceDescriptorDataEE9registers = comdat any

$_ZZN2v88internal29StaticCallInterfaceDescriptorINS0_24RegExpExecAtomDescriptorEE10InitializeEPNS0_27CallInterfaceDescriptorDataEE9registers = comdat any

$_ZZN2v88internal29StaticCallInterfaceDescriptorINS0_28RegExpExecInternalDescriptorEE10InitializeEPNS0_27CallInterfaceDescriptorDataEE9registers = comdat any

$_ZZN2v88internal29StaticCallInterfaceDescriptorINS0_32SetOrSetIteratorToListDescriptorEE10InitializeEPNS0_27CallInterfaceDescriptorDataEE9registers = comdat any

$_ZZN2v88internal29StaticCallInterfaceDescriptorINS0_32WeakMapLookupHashIndexDescriptorEE10InitializeEPNS0_27CallInterfaceDescriptorDataEE9registers = comdat any

$_ZZN2v88internal29StaticCallInterfaceDescriptorINS0_30WeakCollectionDeleteDescriptorEE10InitializeEPNS0_27CallInterfaceDescriptorDataEE9registers = comdat any

$_ZZN2v88internal29StaticCallInterfaceDescriptorINS0_27WeakCollectionSetDescriptorEE10InitializeEPNS0_27CallInterfaceDescriptorDataEE9registers = comdat any

$_ZZN2v88internal29StaticCallInterfaceDescriptorINS0_31AsyncGeneratorResolveDescriptorEE10InitializeEPNS0_27CallInterfaceDescriptorDataEE9registers = comdat any

$_ZZN2v88internal29StaticCallInterfaceDescriptorINS0_30AsyncGeneratorRejectDescriptorEE10InitializeEPNS0_27CallInterfaceDescriptorDataEE9registers = comdat any

$_ZZN2v88internal29StaticCallInterfaceDescriptorINS0_29AsyncGeneratorYieldDescriptorEE10InitializeEPNS0_27CallInterfaceDescriptorDataEE9registers = comdat any

$_ZZN2v88internal29StaticCallInterfaceDescriptorINS0_30AsyncGeneratorReturnDescriptorEE10InitializeEPNS0_27CallInterfaceDescriptorDataEE9registers = comdat any

$_ZZN2v88internal29StaticCallInterfaceDescriptorINS0_34AsyncGeneratorResumeNextDescriptorEE10InitializeEPNS0_27CallInterfaceDescriptorDataEE9registers = comdat any

$_ZZN2v88internal29StaticCallInterfaceDescriptorINS0_35AsyncGeneratorAwaitCaughtDescriptorEE10InitializeEPNS0_27CallInterfaceDescriptorDataEE9registers = comdat any

$_ZZN2v88internal29StaticCallInterfaceDescriptorINS0_37AsyncGeneratorAwaitUncaughtDescriptorEE10InitializeEPNS0_27CallInterfaceDescriptorDataEE9registers = comdat any

$_ZZN2v88internal29StaticCallInterfaceDescriptorINS0_29StringAdd_CheckNoneDescriptorEE10InitializeEPNS0_27CallInterfaceDescriptorDataEE9registers = comdat any

$_ZZN2v88internal29StaticCallInterfaceDescriptorINS0_19SubStringDescriptorEE10InitializeEPNS0_27CallInterfaceDescriptorDataEE9registers = comdat any

$_ZZN2v88internal29StaticCallInterfaceDescriptorINS0_33GetPropertyWithReceiverDescriptorEE10InitializeEPNS0_27CallInterfaceDescriptorDataEE9registers = comdat any

$_ZZN2v88internal29StaticCallInterfaceDescriptorINS0_21SetPropertyDescriptorEE10InitializeEPNS0_27CallInterfaceDescriptorDataEE9registers = comdat any

$_ZZN2v88internal29StaticCallInterfaceDescriptorINS0_30SetPropertyInLiteralDescriptorEE10InitializeEPNS0_27CallInterfaceDescriptorDataEE9registers = comdat any

$_ZZN2v88internal29StaticCallInterfaceDescriptorINS0_31StringToLowerCaseIntlDescriptorEE10InitializeEPNS0_27CallInterfaceDescriptorDataEE9registers = comdat any

$_ZZN2v88internal29StaticCallInterfaceDescriptorINS0_36ArrayEveryLoopContinuationDescriptorEE10InitializeEPNS0_27CallInterfaceDescriptorDataEE9registers = comdat any

$_ZZN2v88internal29StaticCallInterfaceDescriptorINS0_37ArrayFilterLoopContinuationDescriptorEE10InitializeEPNS0_27CallInterfaceDescriptorDataEE9registers = comdat any

$_ZZN2v88internal29StaticCallInterfaceDescriptorINS0_35ArrayFindLoopContinuationDescriptorEE10InitializeEPNS0_27CallInterfaceDescriptorDataEE9registers = comdat any

$_ZZN2v88internal29StaticCallInterfaceDescriptorINS0_40ArrayFindIndexLoopContinuationDescriptorEE10InitializeEPNS0_27CallInterfaceDescriptorDataEE9registers = comdat any

$_ZZN2v88internal29StaticCallInterfaceDescriptorINS0_38ArrayForEachLoopContinuationDescriptorEE10InitializeEPNS0_27CallInterfaceDescriptorDataEE9registers = comdat any

$_ZZN2v88internal29StaticCallInterfaceDescriptorINS0_46LoadJoinElement_DictionaryElements_0DescriptorEE10InitializeEPNS0_27CallInterfaceDescriptorDataEE9registers = comdat any

$_ZZN2v88internal29StaticCallInterfaceDescriptorINS0_51LoadJoinElement_FastSmiOrObjectElements_0DescriptorEE10InitializeEPNS0_27CallInterfaceDescriptorDataEE9registers = comdat any

$_ZZN2v88internal29StaticCallInterfaceDescriptorINS0_46LoadJoinElement_FastDoubleElements_0DescriptorEE10InitializeEPNS0_27CallInterfaceDescriptorDataEE9registers = comdat any

$_ZZN2v88internal29StaticCallInterfaceDescriptorINS0_31ConvertToLocaleStringDescriptorEE10InitializeEPNS0_27CallInterfaceDescriptorDataEE9registers = comdat any

$_ZZN2v88internal29StaticCallInterfaceDescriptorINS0_23JoinStackPushDescriptorEE10InitializeEPNS0_27CallInterfaceDescriptorDataEE9registers = comdat any

$_ZZN2v88internal29StaticCallInterfaceDescriptorINS0_22JoinStackPopDescriptorEE10InitializeEPNS0_27CallInterfaceDescriptorDataEE9registers = comdat any

$_ZZN2v88internal29StaticCallInterfaceDescriptorINS0_34ArrayMapLoopContinuationDescriptorEE10InitializeEPNS0_27CallInterfaceDescriptorDataEE9registers = comdat any

$_ZZN2v88internal29StaticCallInterfaceDescriptorINS0_42ArrayReduceRightLoopContinuationDescriptorEE10InitializeEPNS0_27CallInterfaceDescriptorDataEE9registers = comdat any

$_ZZN2v88internal29StaticCallInterfaceDescriptorINS0_37ArrayReduceLoopContinuationDescriptorEE10InitializeEPNS0_27CallInterfaceDescriptorDataEE9registers = comdat any

$_ZZN2v88internal29StaticCallInterfaceDescriptorINS0_35ArraySomeLoopContinuationDescriptorEE10InitializeEPNS0_27CallInterfaceDescriptorDataEE9registers = comdat any

$_ZZN2v88internal29StaticCallInterfaceDescriptorINS0_19ToIntegerDescriptorEE10InitializeEPNS0_27CallInterfaceDescriptorDataEE9registers = comdat any

$_ZZN2v88internal29StaticCallInterfaceDescriptorINS0_32FastCreateDataPropertyDescriptorEE10InitializeEPNS0_27CallInterfaceDescriptorDataEE9registers = comdat any

$_ZZN2v88internal29StaticCallInterfaceDescriptorINS0_28CheckNumberInRangeDescriptorEE10InitializeEPNS0_27CallInterfaceDescriptorDataEE9registers = comdat any

$_ZZN2v88internal29StaticCallInterfaceDescriptorINS0_25CheckSameObjectDescriptorEE10InitializeEPNS0_27CallInterfaceDescriptorDataEE9registers = comdat any

$_ZZN2v88internal29StaticCallInterfaceDescriptorINS0_26BigIntAddNoThrowDescriptorEE10InitializeEPNS0_27CallInterfaceDescriptorDataEE9registers = comdat any

$_ZZN2v88internal29StaticCallInterfaceDescriptorINS0_19BigIntAddDescriptorEE10InitializeEPNS0_27CallInterfaceDescriptorDataEE9registers = comdat any

$_ZZN2v88internal29StaticCallInterfaceDescriptorINS0_31BigIntSubtractNoThrowDescriptorEE10InitializeEPNS0_27CallInterfaceDescriptorDataEE9registers = comdat any

$_ZZN2v88internal29StaticCallInterfaceDescriptorINS0_24BigIntSubtractDescriptorEE10InitializeEPNS0_27CallInterfaceDescriptorDataEE9registers = comdat any

$_ZZN2v88internal29StaticCallInterfaceDescriptorINS0_26BigIntUnaryMinusDescriptorEE10InitializeEPNS0_27CallInterfaceDescriptorDataEE9registers = comdat any

$_ZZN2v88internal29StaticCallInterfaceDescriptorINS0_18ToStringDescriptorEE10InitializeEPNS0_27CallInterfaceDescriptorDataEE9registers = comdat any

$_ZZN2v88internal29StaticCallInterfaceDescriptorINS0_22StringToListDescriptorEE10InitializeEPNS0_27CallInterfaceDescriptorDataEE9registers = comdat any

$_ZZN2v88internal29StaticCallInterfaceDescriptorINS0_30StringAddConvertLeftDescriptorEE10InitializeEPNS0_27CallInterfaceDescriptorDataEE9registers = comdat any

$_ZZN2v88internal29StaticCallInterfaceDescriptorINS0_31StringAddConvertRightDescriptorEE10InitializeEPNS0_27CallInterfaceDescriptorDataEE9registers = comdat any

$_ZZN2v88internal29StaticCallInterfaceDescriptorINS0_22StringCharAtDescriptorEE10InitializeEPNS0_27CallInterfaceDescriptorDataEE9registers = comdat any

$_ZZN2v88internal29StaticCallInterfaceDescriptorINS0_32FastNewClosureBaselineDescriptorEE10InitializeEPNS0_27CallInterfaceDescriptorDataEE9registers = comdat any

$_ZZN2v88internal29StaticCallInterfaceDescriptorINS0_36FastNewFunctionContextEvalDescriptorEE10InitializeEPNS0_27CallInterfaceDescriptorDataEE9registers = comdat any

$_ZZN2v88internal29StaticCallInterfaceDescriptorINS0_40FastNewFunctionContextFunctionDescriptorEE10InitializeEPNS0_27CallInterfaceDescriptorDataEE9registers = comdat any

$_ZZN2v88internal29StaticCallInterfaceDescriptorINS0_29CreateRegExpLiteralDescriptorEE10InitializeEPNS0_27CallInterfaceDescriptorDataEE9registers = comdat any

$_ZZN2v88internal29StaticCallInterfaceDescriptorINS0_35CreateShallowArrayLiteralDescriptorEE10InitializeEPNS0_27CallInterfaceDescriptorDataEE9registers = comdat any

$_ZZN2v88internal29StaticCallInterfaceDescriptorINS0_33CreateEmptyArrayLiteralDescriptorEE10InitializeEPNS0_27CallInterfaceDescriptorDataEE9registers = comdat any

$_ZZN2v88internal29StaticCallInterfaceDescriptorINS0_36CreateShallowObjectLiteralDescriptorEE10InitializeEPNS0_27CallInterfaceDescriptorDataEE9registers = comdat any

$_ZZN2v88internal29StaticCallInterfaceDescriptorINS0_34CreateEmptyLiteralObjectDescriptorEE10InitializeEPNS0_27CallInterfaceDescriptorDataEE9registers = comdat any

$_ZZN2v88internal29StaticCallInterfaceDescriptorINS0_24StringToNumberDescriptorEE10InitializeEPNS0_27CallInterfaceDescriptorDataEE9registers = comdat any

$_ZZN2v88internal29StaticCallInterfaceDescriptorINS0_27NonNumberToNumberDescriptorEE10InitializeEPNS0_27CallInterfaceDescriptorDataEE9registers = comdat any

$_ZZN2v88internal29StaticCallInterfaceDescriptorINS0_28NonNumberToNumericDescriptorEE10InitializeEPNS0_27CallInterfaceDescriptorDataEE9registers = comdat any

$_ZZN2v88internal29StaticCallInterfaceDescriptorINS0_19ToNumericDescriptorEE10InitializeEPNS0_27CallInterfaceDescriptorDataEE9registers = comdat any

$_ZZN2v88internal29StaticCallInterfaceDescriptorINS0_24NumberToStringDescriptorEE10InitializeEPNS0_27CallInterfaceDescriptorDataEE9registers = comdat any

$_ZZN2v88internal29StaticCallInterfaceDescriptorINS0_19ToBooleanDescriptorEE10InitializeEPNS0_27CallInterfaceDescriptorDataEE9registers = comdat any

$_ZZN2v88internal29StaticCallInterfaceDescriptorINS0_34ToBooleanForBaselineJumpDescriptorEE10InitializeEPNS0_27CallInterfaceDescriptorDataEE9registers = comdat any

$_ZZN2v88internal29StaticCallInterfaceDescriptorINS0_18ToLengthDescriptorEE10InitializeEPNS0_27CallInterfaceDescriptorDataEE9registers = comdat any

$_ZZN2v88internal29StaticCallInterfaceDescriptorINS0_16ToNameDescriptorEE10InitializeEPNS0_27CallInterfaceDescriptorDataEE9registers = comdat any

$_ZZN2v88internal29StaticCallInterfaceDescriptorINS0_18ToObjectDescriptorEE10InitializeEPNS0_27CallInterfaceDescriptorDataEE9registers = comdat any

$_ZZN2v88internal29StaticCallInterfaceDescriptorINS0_41NonPrimitiveToPrimitive_DefaultDescriptorEE10InitializeEPNS0_27CallInterfaceDescriptorDataEE9registers = comdat any

$_ZZN2v88internal29StaticCallInterfaceDescriptorINS0_40NonPrimitiveToPrimitive_NumberDescriptorEE10InitializeEPNS0_27CallInterfaceDescriptorDataEE9registers = comdat any

$_ZZN2v88internal29StaticCallInterfaceDescriptorINS0_40NonPrimitiveToPrimitive_StringDescriptorEE10InitializeEPNS0_27CallInterfaceDescriptorDataEE9registers = comdat any

$_ZZN2v88internal29StaticCallInterfaceDescriptorINS0_36OrdinaryToPrimitive_NumberDescriptorEE10InitializeEPNS0_27CallInterfaceDescriptorDataEE9registers = comdat any

$_ZZN2v88internal29StaticCallInterfaceDescriptorINS0_36OrdinaryToPrimitive_StringDescriptorEE10InitializeEPNS0_27CallInterfaceDescriptorDataEE9registers = comdat any

$_ZZN2v88internal29StaticCallInterfaceDescriptorINS0_25IncBlockCounterDescriptorEE10InitializeEPNS0_27CallInterfaceDescriptorDataEE9registers = comdat any

$_ZZN2v88internal29StaticCallInterfaceDescriptorINS0_27GetTemplateObjectDescriptorEE10InitializeEPNS0_27CallInterfaceDescriptorDataEE9registers = comdat any

$_ZZN2v88internal29StaticCallInterfaceDescriptorINS0_41BytecodeBudgetInterruptFromCodeDescriptorEE10InitializeEPNS0_27CallInterfaceDescriptorDataEE9registers = comdat any

$_ZZN2v88internal29StaticCallInterfaceDescriptorINS0_19ForInNextDescriptorEE10InitializeEPNS0_27CallInterfaceDescriptorDataEE9registers = comdat any

$_ZZN2v88internal29StaticCallInterfaceDescriptorINS0_37GetImportMetaObjectBaselineDescriptorEE10InitializeEPNS0_27CallInterfaceDescriptorDataEE9registers = comdat any

$_ZZN2v88internal29StaticCallInterfaceDescriptorINS0_33GetIteratorWithFeedbackDescriptorEE10InitializeEPNS0_27CallInterfaceDescriptorDataEE9registers = comdat any

$_ZZN2v88internal29StaticCallInterfaceDescriptorINS0_29GetIteratorBaselineDescriptorEE10InitializeEPNS0_27CallInterfaceDescriptorDataEE9registers = comdat any

$_ZZN2v88internal29StaticCallInterfaceDescriptorINS0_45CreateAsyncFromSyncIteratorBaselineDescriptorEE10InitializeEPNS0_27CallInterfaceDescriptorDataEE9registers = comdat any

$_ZZN2v88internal29StaticCallInterfaceDescriptorINS0_34CallIteratorWithFeedbackDescriptorEE10InitializeEPNS0_27CallInterfaceDescriptorDataEE9registers = comdat any

$_ZZN2v88internal29StaticCallInterfaceDescriptorINS0_18ParseIntDescriptorEE10InitializeEPNS0_27CallInterfaceDescriptorDataEE9registers = comdat any

$_ZZN2v88internal29StaticCallInterfaceDescriptorINS0_13AddDescriptorEE10InitializeEPNS0_27CallInterfaceDescriptorDataEE9registers = comdat any

$_ZZN2v88internal29StaticCallInterfaceDescriptorINS0_18SubtractDescriptorEE10InitializeEPNS0_27CallInterfaceDescriptorDataEE9registers = comdat any

$_ZZN2v88internal29StaticCallInterfaceDescriptorINS0_18MultiplyDescriptorEE10InitializeEPNS0_27CallInterfaceDescriptorDataEE9registers = comdat any

$_ZZN2v88internal29StaticCallInterfaceDescriptorINS0_16DivideDescriptorEE10InitializeEPNS0_27CallInterfaceDescriptorDataEE9registers = comdat any

$_ZZN2v88internal29StaticCallInterfaceDescriptorINS0_17ModulusDescriptorEE10InitializeEPNS0_27CallInterfaceDescriptorDataEE9registers = comdat any

$_ZZN2v88internal29StaticCallInterfaceDescriptorINS0_22ExponentiateDescriptorEE10InitializeEPNS0_27CallInterfaceDescriptorDataEE9registers = comdat any

$_ZZN2v88internal29StaticCallInterfaceDescriptorINS0_16NegateDescriptorEE10InitializeEPNS0_27CallInterfaceDescriptorDataEE9registers = comdat any

$_ZZN2v88internal29StaticCallInterfaceDescriptorINS0_20BitwiseNotDescriptorEE10InitializeEPNS0_27CallInterfaceDescriptorDataEE9registers = comdat any

$_ZZN2v88internal29StaticCallInterfaceDescriptorINS0_19DecrementDescriptorEE10InitializeEPNS0_27CallInterfaceDescriptorDataEE9registers = comdat any

$_ZZN2v88internal29StaticCallInterfaceDescriptorINS0_19IncrementDescriptorEE10InitializeEPNS0_27CallInterfaceDescriptorDataEE9registers = comdat any

$_ZZN2v88internal29StaticCallInterfaceDescriptorINS0_19ShiftLeftDescriptorEE10InitializeEPNS0_27CallInterfaceDescriptorDataEE9registers = comdat any

$_ZZN2v88internal29StaticCallInterfaceDescriptorINS0_20ShiftRightDescriptorEE10InitializeEPNS0_27CallInterfaceDescriptorDataEE9registers = comdat any

$_ZZN2v88internal29StaticCallInterfaceDescriptorINS0_27ShiftRightLogicalDescriptorEE10InitializeEPNS0_27CallInterfaceDescriptorDataEE9registers = comdat any

$_ZZN2v88internal29StaticCallInterfaceDescriptorINS0_20BitwiseAndDescriptorEE10InitializeEPNS0_27CallInterfaceDescriptorDataEE9registers = comdat any

$_ZZN2v88internal29StaticCallInterfaceDescriptorINS0_19BitwiseOrDescriptorEE10InitializeEPNS0_27CallInterfaceDescriptorDataEE9registers = comdat any

$_ZZN2v88internal29StaticCallInterfaceDescriptorINS0_20BitwiseXorDescriptorEE10InitializeEPNS0_27CallInterfaceDescriptorDataEE9registers = comdat any

$_ZZN2v88internal29StaticCallInterfaceDescriptorINS0_18LessThanDescriptorEE10InitializeEPNS0_27CallInterfaceDescriptorDataEE9registers = comdat any

$_ZZN2v88internal29StaticCallInterfaceDescriptorINS0_25LessThanOrEqualDescriptorEE10InitializeEPNS0_27CallInterfaceDescriptorDataEE9registers = comdat any

$_ZZN2v88internal29StaticCallInterfaceDescriptorINS0_21GreaterThanDescriptorEE10InitializeEPNS0_27CallInterfaceDescriptorDataEE9registers = comdat any

$_ZZN2v88internal29StaticCallInterfaceDescriptorINS0_28GreaterThanOrEqualDescriptorEE10InitializeEPNS0_27CallInterfaceDescriptorDataEE9registers = comdat any

$_ZZN2v88internal29StaticCallInterfaceDescriptorINS0_15EqualDescriptorEE10InitializeEPNS0_27CallInterfaceDescriptorDataEE9registers = comdat any

$_ZZN2v88internal29StaticCallInterfaceDescriptorINS0_21StrictEqualDescriptorEE10InitializeEPNS0_27CallInterfaceDescriptorDataEE9registers = comdat any

$_ZZN2v88internal29StaticCallInterfaceDescriptorINS0_39CreateObjectWithoutPropertiesDescriptorEE10InitializeEPNS0_27CallInterfaceDescriptorDataEE9registers = comdat any

$_ZZN2v88internal29StaticCallInterfaceDescriptorINS0_24FulfillPromiseDescriptorEE10InitializeEPNS0_27CallInterfaceDescriptorDataEE9registers = comdat any

$_ZZN2v88internal29StaticCallInterfaceDescriptorINS0_23RejectPromiseDescriptorEE10InitializeEPNS0_27CallInterfaceDescriptorDataEE9registers = comdat any

$_ZZN2v88internal29StaticCallInterfaceDescriptorINS0_30NewPromiseCapabilityDescriptorEE10InitializeEPNS0_27CallInterfaceDescriptorDataEE9registers = comdat any

$_ZZN2v88internal29StaticCallInterfaceDescriptorINS0_28PerformPromiseThenDescriptorEE10InitializeEPNS0_27CallInterfaceDescriptorDataEE9registers = comdat any

$_ZZN2v88internal29StaticCallInterfaceDescriptorINS0_35PromiseFulfillReactionJobDescriptorEE10InitializeEPNS0_27CallInterfaceDescriptorDataEE9registers = comdat any

$_ZZN2v88internal29StaticCallInterfaceDescriptorINS0_34PromiseRejectReactionJobDescriptorEE10InitializeEPNS0_27CallInterfaceDescriptorDataEE9registers = comdat any

$_ZZN2v88internal29StaticCallInterfaceDescriptorINS0_24PromiseResolveDescriptorEE10InitializeEPNS0_27CallInterfaceDescriptorDataEE9registers = comdat any

$_ZZN2v88internal29StaticCallInterfaceDescriptorINS0_24ResolvePromiseDescriptorEE10InitializeEPNS0_27CallInterfaceDescriptorDataEE9registers = comdat any

$_ZZN2v88internal29StaticCallInterfaceDescriptorINS0_35PromiseResolveThenableJobDescriptorEE10InitializeEPNS0_27CallInterfaceDescriptorDataEE9registers = comdat any

$_ZZN2v88internal29StaticCallInterfaceDescriptorINS0_29ProxyDeletePropertyDescriptorEE10InitializeEPNS0_27CallInterfaceDescriptorDataEE9registers = comdat any

$_ZZN2v88internal29StaticCallInterfaceDescriptorINS0_26ProxyGetPropertyDescriptorEE10InitializeEPNS0_27CallInterfaceDescriptorDataEE9registers = comdat any

$_ZZN2v88internal29StaticCallInterfaceDescriptorINS0_29ProxyGetPrototypeOfDescriptorEE10InitializeEPNS0_27CallInterfaceDescriptorDataEE9registers = comdat any

$_ZZN2v88internal29StaticCallInterfaceDescriptorINS0_26ProxyHasPropertyDescriptorEE10InitializeEPNS0_27CallInterfaceDescriptorDataEE9registers = comdat any

$_ZZN2v88internal29StaticCallInterfaceDescriptorINS0_27ProxyIsExtensibleDescriptorEE10InitializeEPNS0_27CallInterfaceDescriptorDataEE9registers = comdat any

$_ZZN2v88internal29StaticCallInterfaceDescriptorINS0_32ProxyPreventExtensionsDescriptorEE10InitializeEPNS0_27CallInterfaceDescriptorDataEE9registers = comdat any

$_ZZN2v88internal29StaticCallInterfaceDescriptorINS0_26ProxySetPropertyDescriptorEE10InitializeEPNS0_27CallInterfaceDescriptorDataEE9registers = comdat any

$_ZZN2v88internal29StaticCallInterfaceDescriptorINS0_29ProxySetPrototypeOfDescriptorEE10InitializeEPNS0_27CallInterfaceDescriptorDataEE9registers = comdat any

$_ZZN2v88internal29StaticCallInterfaceDescriptorINS0_33RegExpPrototypeExecSlowDescriptorEE10InitializeEPNS0_27CallInterfaceDescriptorDataEE9registers = comdat any

$_ZZN2v88internal29StaticCallInterfaceDescriptorINS0_25RegExpMatchFastDescriptorEE10InitializeEPNS0_27CallInterfaceDescriptorDataEE9registers = comdat any

$_ZZN2v88internal29StaticCallInterfaceDescriptorINS0_23RegExpReplaceDescriptorEE10InitializeEPNS0_27CallInterfaceDescriptorDataEE9registers = comdat any

$_ZZN2v88internal29StaticCallInterfaceDescriptorINS0_26RegExpSearchFastDescriptorEE10InitializeEPNS0_27CallInterfaceDescriptorDataEE9registers = comdat any

$_ZZN2v88internal29StaticCallInterfaceDescriptorINS0_21RegExpSplitDescriptorEE10InitializeEPNS0_27CallInterfaceDescriptorDataEE9registers = comdat any

$_ZZN2v88internal29StaticCallInterfaceDescriptorINS0_33RegExpPrototypeTestFastDescriptorEE10InitializeEPNS0_27CallInterfaceDescriptorDataEE9registers = comdat any

$_ZZN2v88internal29StaticCallInterfaceDescriptorINS0_20CreateHTMLDescriptorEE10InitializeEPNS0_27CallInterfaceDescriptorDataEE9registers = comdat any

$_ZZN2v88internal29StaticCallInterfaceDescriptorINS0_22StringRepeatDescriptorEE10InitializeEPNS0_27CallInterfaceDescriptorDataEE9registers = comdat any

$_ZZN2v88internal29StaticCallInterfaceDescriptorINS0_26CreateTypedArrayDescriptorEE10InitializeEPNS0_27CallInterfaceDescriptorDataEE9registers = comdat any

$_ZZN2v88internal29StaticCallInterfaceDescriptorINS0_29TypedArrayMergeSortDescriptorEE10InitializeEPNS0_27CallInterfaceDescriptorDataEE9registers = comdat any

$_ZZN2v88internal29StaticCallInterfaceDescriptorINS0_36NewSloppyArgumentsElementsDescriptorEE10InitializeEPNS0_27CallInterfaceDescriptorDataEE9registers = comdat any

$_ZZN2v88internal29StaticCallInterfaceDescriptorINS0_36NewStrictArgumentsElementsDescriptorEE10InitializeEPNS0_27CallInterfaceDescriptorDataEE9registers = comdat any

$_ZZN2v88internal29StaticCallInterfaceDescriptorINS0_34NewRestArgumentsElementsDescriptorEE10InitializeEPNS0_27CallInterfaceDescriptorDataEE9registers = comdat any

$_ZZN2v88internal29StaticCallInterfaceDescriptorINS0_32FastNewSloppyArgumentsDescriptorEE10InitializeEPNS0_27CallInterfaceDescriptorDataEE9registers = comdat any

$_ZZN2v88internal29StaticCallInterfaceDescriptorINS0_32FastNewStrictArgumentsDescriptorEE10InitializeEPNS0_27CallInterfaceDescriptorDataEE9registers = comdat any

$_ZZN2v88internal29StaticCallInterfaceDescriptorINS0_30FastNewRestArgumentsDescriptorEE10InitializeEPNS0_27CallInterfaceDescriptorDataEE9registers = comdat any

$_ZZN2v88internal29StaticCallInterfaceDescriptorINS0_27StringSlowFlattenDescriptorEE10InitializeEPNS0_27CallInterfaceDescriptorDataEE9registers = comdat any

$_ZZN2v88internal29StaticCallInterfaceDescriptorINS0_23StringIndexOfDescriptorEE10InitializeEPNS0_27CallInterfaceDescriptorDataEE9registers = comdat any

$_ZZN2v88internal29StaticCallInterfaceDescriptorINS0_36GenericBuiltinTest_JSAny_0DescriptorEE10InitializeEPNS0_27CallInterfaceDescriptorDataEE9registers = comdat any

$_ZZN2v88internal29StaticCallInterfaceDescriptorINS0_25TestHelperPlus1DescriptorEE10InitializeEPNS0_27CallInterfaceDescriptorDataEE9registers = comdat any

$_ZZN2v88internal29StaticCallInterfaceDescriptorINS0_25TestHelperPlus2DescriptorEE10InitializeEPNS0_27CallInterfaceDescriptorDataEE9registers = comdat any

$_ZZN2v88internal29StaticCallInterfaceDescriptorINS0_19NewSmiBoxDescriptorEE10InitializeEPNS0_27CallInterfaceDescriptorDataEE9registers = comdat any

$_ZZN2v88internal29StaticCallInterfaceDescriptorINS0_25ReturnTwoValuesDescriptorEE10InitializeEPNS0_27CallInterfaceDescriptorDataEE9registers = comdat any

$_ZZN2v88internal29StaticCallInterfaceDescriptorINS0_32Load_FastSmiElements_0DescriptorEE10InitializeEPNS0_27CallInterfaceDescriptorDataEE9registers = comdat any

$_ZZN2v88internal29StaticCallInterfaceDescriptorINS0_35Load_FastObjectElements_0DescriptorEE10InitializeEPNS0_27CallInterfaceDescriptorDataEE9registers = comdat any

$_ZZN2v88internal29StaticCallInterfaceDescriptorINS0_35Load_FastDoubleElements_0DescriptorEE10InitializeEPNS0_27CallInterfaceDescriptorDataEE9registers = comdat any

$_ZZN2v88internal29StaticCallInterfaceDescriptorINS0_33Store_FastSmiElements_0DescriptorEE10InitializeEPNS0_27CallInterfaceDescriptorDataEE9registers = comdat any

$_ZZN2v88internal29StaticCallInterfaceDescriptorINS0_36Store_FastObjectElements_0DescriptorEE10InitializeEPNS0_27CallInterfaceDescriptorDataEE9registers = comdat any

$_ZZN2v88internal29StaticCallInterfaceDescriptorINS0_36Store_FastDoubleElements_0DescriptorEE10InitializeEPNS0_27CallInterfaceDescriptorDataEE9registers = comdat any

$_ZZN2v88internal29StaticCallInterfaceDescriptorINS0_34Delete_FastSmiElements_0DescriptorEE10InitializeEPNS0_27CallInterfaceDescriptorDataEE9registers = comdat any

$_ZZN2v88internal29StaticCallInterfaceDescriptorINS0_37Delete_FastObjectElements_0DescriptorEE10InitializeEPNS0_27CallInterfaceDescriptorDataEE9registers = comdat any

$_ZZN2v88internal29StaticCallInterfaceDescriptorINS0_37Delete_FastDoubleElements_0DescriptorEE10InitializeEPNS0_27CallInterfaceDescriptorDataEE9registers = comdat any

$_ZZN2v88internal29StaticCallInterfaceDescriptorINS0_28SortCompareDefaultDescriptorEE10InitializeEPNS0_27CallInterfaceDescriptorDataEE9registers = comdat any

$_ZZN2v88internal29StaticCallInterfaceDescriptorINS0_27SortCompareUserFnDescriptorEE10InitializeEPNS0_27CallInterfaceDescriptorDataEE9registers = comdat any

$_ZZN2v88internal29StaticCallInterfaceDescriptorINS0_54CanUseSameAccessor_GenericElementsAccessor_0DescriptorEE10InitializeEPNS0_27CallInterfaceDescriptorDataEE9registers = comdat any

$_ZZN2v88internal29StaticCallInterfaceDescriptorINS0_14CopyDescriptorEE10InitializeEPNS0_27CallInterfaceDescriptorDataEE9registers = comdat any

$_ZZN2v88internal29StaticCallInterfaceDescriptorINS0_17MergeAtDescriptorEE10InitializeEPNS0_27CallInterfaceDescriptorDataEE9registers = comdat any

$_ZZN2v88internal29StaticCallInterfaceDescriptorINS0_20GallopLeftDescriptorEE10InitializeEPNS0_27CallInterfaceDescriptorDataEE9registers = comdat any

$_ZZN2v88internal29StaticCallInterfaceDescriptorINS0_21GallopRightDescriptorEE10InitializeEPNS0_27CallInterfaceDescriptorDataEE9registers = comdat any

$_ZZN2v88internal29StaticCallInterfaceDescriptorINS0_22ArrayTimSortDescriptorEE10InitializeEPNS0_27CallInterfaceDescriptorDataEE9registers = comdat any

$_ZZN2v88internal29StaticCallInterfaceDescriptorINS0_31WasmInt32ToHeapNumberDescriptorEE10InitializeEPNS0_27CallInterfaceDescriptorDataEE9registers = comdat any

$_ZZN2v88internal29StaticCallInterfaceDescriptorINS0_33WasmTaggedNonSmiToInt32DescriptorEE10InitializeEPNS0_27CallInterfaceDescriptorDataEE9registers = comdat any

$_ZZN2v88internal29StaticCallInterfaceDescriptorINS0_29WasmTaggedToFloat64DescriptorEE10InitializeEPNS0_27CallInterfaceDescriptorDataEE9registers = comdat any

$_ZZN2v88internal29StaticCallInterfaceDescriptorINS0_24WasmMemoryGrowDescriptorEE10InitializeEPNS0_27CallInterfaceDescriptorDataEE9registers = comdat any

$_ZZN2v88internal29StaticCallInterfaceDescriptorINS0_23WasmTableInitDescriptorEE10InitializeEPNS0_27CallInterfaceDescriptorDataEE9registers = comdat any

$_ZZN2v88internal29StaticCallInterfaceDescriptorINS0_23WasmTableCopyDescriptorEE10InitializeEPNS0_27CallInterfaceDescriptorDataEE9registers = comdat any

$_ZZN2v88internal29StaticCallInterfaceDescriptorINS0_23WasmTableFillDescriptorEE10InitializeEPNS0_27CallInterfaceDescriptorDataEE9registers = comdat any

$_ZZN2v88internal29StaticCallInterfaceDescriptorINS0_23WasmTableGrowDescriptorEE10InitializeEPNS0_27CallInterfaceDescriptorDataEE9registers = comdat any

$_ZZN2v88internal29StaticCallInterfaceDescriptorINS0_22WasmTableGetDescriptorEE10InitializeEPNS0_27CallInterfaceDescriptorDataEE9registers = comdat any

$_ZZN2v88internal29StaticCallInterfaceDescriptorINS0_22WasmTableSetDescriptorEE10InitializeEPNS0_27CallInterfaceDescriptorDataEE9registers = comdat any

$_ZZN2v88internal29StaticCallInterfaceDescriptorINS0_21WasmRefFuncDescriptorEE10InitializeEPNS0_27CallInterfaceDescriptorDataEE9registers = comdat any

$_ZZN2v88internal29StaticCallInterfaceDescriptorINS0_32WasmAllocateFixedArrayDescriptorEE10InitializeEPNS0_27CallInterfaceDescriptorDataEE9registers = comdat any

$_ZZN2v88internal29StaticCallInterfaceDescriptorINS0_19WasmThrowDescriptorEE10InitializeEPNS0_27CallInterfaceDescriptorDataEE9registers = comdat any

$_ZZN2v88internal29StaticCallInterfaceDescriptorINS0_21WasmRethrowDescriptorEE10InitializeEPNS0_27CallInterfaceDescriptorDataEE9registers = comdat any

$_ZZN2v88internal29StaticCallInterfaceDescriptorINS0_27WasmTriggerTierUpDescriptorEE10InitializeEPNS0_27CallInterfaceDescriptorDataEE9registers = comdat any

$_ZZN2v88internal29StaticCallInterfaceDescriptorINS0_24WasmStackGuardDescriptorEE10InitializeEPNS0_27CallInterfaceDescriptorDataEE9registers = comdat any

$_ZZN2v88internal29StaticCallInterfaceDescriptorINS0_27WasmStackOverflowDescriptorEE10InitializeEPNS0_27CallInterfaceDescriptorDataEE9registers = comdat any

$_ZZN2v88internal29StaticCallInterfaceDescriptorINS0_25WasmTraceMemoryDescriptorEE10InitializeEPNS0_27CallInterfaceDescriptorDataEE9registers = comdat any

$_ZZN2v88internal29StaticCallInterfaceDescriptorINS0_24WasmTraceEnterDescriptorEE10InitializeEPNS0_27CallInterfaceDescriptorDataEE9registers = comdat any

$_ZZN2v88internal29StaticCallInterfaceDescriptorINS0_23WasmTraceExitDescriptorEE10InitializeEPNS0_27CallInterfaceDescriptorDataEE9registers = comdat any

$_ZZN2v88internal29StaticCallInterfaceDescriptorINS0_29WasmAllocateJSArrayDescriptorEE10InitializeEPNS0_27CallInterfaceDescriptorDataEE9registers = comdat any

$_ZZN2v88internal29StaticCallInterfaceDescriptorINS0_26WasmAllocatePairDescriptorEE10InitializeEPNS0_27CallInterfaceDescriptorDataEE9registers = comdat any

$_ZZN2v88internal29StaticCallInterfaceDescriptorINS0_25WasmAllocateRttDescriptorEE10InitializeEPNS0_27CallInterfaceDescriptorDataEE9registers = comdat any

$_ZZN2v88internal29StaticCallInterfaceDescriptorINS0_35WasmAllocateStructWithRttDescriptorEE10InitializeEPNS0_27CallInterfaceDescriptorDataEE9registers = comdat any

$_ZZN2v88internal29StaticCallInterfaceDescriptorINS0_34WasmAllocateArrayWithRttDescriptorEE10InitializeEPNS0_27CallInterfaceDescriptorDataEE9registers = comdat any

$_ZZN2v88internal29StaticCallInterfaceDescriptorINS0_33WasmArrayCopyWithChecksDescriptorEE10InitializeEPNS0_27CallInterfaceDescriptorDataEE9registers = comdat any

$_ZZN2v88internal29StaticCallInterfaceDescriptorINS0_23WasmArrayCopyDescriptorEE10InitializeEPNS0_27CallInterfaceDescriptorDataEE9registers = comdat any

$_ZZN2v88internal29StaticCallInterfaceDescriptorINS0_35WasmAllocateObjectWrapperDescriptorEE10InitializeEPNS0_27CallInterfaceDescriptorDataEE9registers = comdat any

$_ZZN2v88internal29StaticCallInterfaceDescriptorINS0_26WasmSubtypeCheckDescriptorEE10InitializeEPNS0_27CallInterfaceDescriptorDataEE9registers = comdat any

$_ZZN2v88internal29StaticCallInterfaceDescriptorINS0_27WasmInt32ToNumberDescriptorEE10InitializeEPNS0_27CallInterfaceDescriptorDataEE9registers = comdat any

$_ZZN2v88internal29StaticCallInterfaceDescriptorINS0_28WasmUint32ToNumberDescriptorEE10InitializeEPNS0_27CallInterfaceDescriptorDataEE9registers = comdat any

$_ZZN2v88internal29StaticCallInterfaceDescriptorINS0_27UintPtr53ToNumberDescriptorEE10InitializeEPNS0_27CallInterfaceDescriptorDataEE9registers = comdat any

$_ZZN2v88internal29StaticCallInterfaceDescriptorINS0_26WasmAtomicNotifyDescriptorEE10InitializeEPNS0_27CallInterfaceDescriptorDataEE9registers = comdat any

$_ZZN2v88internal29StaticCallInterfaceDescriptorINS0_29WasmI32AtomicWait64DescriptorEE10InitializeEPNS0_27CallInterfaceDescriptorDataEE9registers = comdat any

$_ZZN2v88internal29StaticCallInterfaceDescriptorINS0_29WasmI64AtomicWait64DescriptorEE10InitializeEPNS0_27CallInterfaceDescriptorDataEE9registers = comdat any

$_ZZN2v88internal29StaticCallInterfaceDescriptorINS0_28WasmGetOwnPropertyDescriptorEE10InitializeEPNS0_27CallInterfaceDescriptorDataEE9registers = comdat any

$_ZZN2v88internal29StaticCallInterfaceDescriptorINS0_18WasmTrapDescriptorEE10InitializeEPNS0_27CallInterfaceDescriptorDataEE9registers = comdat any

$_ZZN2v88internal29StaticCallInterfaceDescriptorINS0_34ThrowWasmTrapUnreachableDescriptorEE10InitializeEPNS0_27CallInterfaceDescriptorDataEE9registers = comdat any

$_ZZN2v88internal29StaticCallInterfaceDescriptorINS0_37ThrowWasmTrapMemOutOfBoundsDescriptorEE10InitializeEPNS0_27CallInterfaceDescriptorDataEE9registers = comdat any

$_ZZN2v88internal29StaticCallInterfaceDescriptorINS0_38ThrowWasmTrapUnalignedAccessDescriptorEE10InitializeEPNS0_27CallInterfaceDescriptorDataEE9registers = comdat any

$_ZZN2v88internal29StaticCallInterfaceDescriptorINS0_32ThrowWasmTrapDivByZeroDescriptorEE10InitializeEPNS0_27CallInterfaceDescriptorDataEE9registers = comdat any

$_ZZN2v88internal29StaticCallInterfaceDescriptorINS0_41ThrowWasmTrapDivUnrepresentableDescriptorEE10InitializeEPNS0_27CallInterfaceDescriptorDataEE9registers = comdat any

$_ZZN2v88internal29StaticCallInterfaceDescriptorINS0_32ThrowWasmTrapRemByZeroDescriptorEE10InitializeEPNS0_27CallInterfaceDescriptorDataEE9registers = comdat any

$_ZZN2v88internal29StaticCallInterfaceDescriptorINS0_43ThrowWasmTrapFloatUnrepresentableDescriptorEE10InitializeEPNS0_27CallInterfaceDescriptorDataEE9registers = comdat any

$_ZZN2v88internal29StaticCallInterfaceDescriptorINS0_38ThrowWasmTrapFuncSigMismatchDescriptorEE10InitializeEPNS0_27CallInterfaceDescriptorDataEE9registers = comdat any

$_ZZN2v88internal29StaticCallInterfaceDescriptorINS0_41ThrowWasmTrapDataSegmentDroppedDescriptorEE10InitializeEPNS0_27CallInterfaceDescriptorDataEE9registers = comdat any

$_ZZN2v88internal29StaticCallInterfaceDescriptorINS0_41ThrowWasmTrapElemSegmentDroppedDescriptorEE10InitializeEPNS0_27CallInterfaceDescriptorDataEE9registers = comdat any

$_ZZN2v88internal29StaticCallInterfaceDescriptorINS0_39ThrowWasmTrapTableOutOfBoundsDescriptorEE10InitializeEPNS0_27CallInterfaceDescriptorDataEE9registers = comdat any

$_ZZN2v88internal29StaticCallInterfaceDescriptorINS0_34ThrowWasmTrapRethrowNullDescriptorEE10InitializeEPNS0_27CallInterfaceDescriptorDataEE9registers = comdat any

$_ZZN2v88internal29StaticCallInterfaceDescriptorINS0_38ThrowWasmTrapNullDereferenceDescriptorEE10InitializeEPNS0_27CallInterfaceDescriptorDataEE9registers = comdat any

$_ZZN2v88internal29StaticCallInterfaceDescriptorINS0_34ThrowWasmTrapIllegalCastDescriptorEE10InitializeEPNS0_27CallInterfaceDescriptorDataEE9registers = comdat any

$_ZZN2v88internal29StaticCallInterfaceDescriptorINS0_39ThrowWasmTrapArrayOutOfBoundsDescriptorEE10InitializeEPNS0_27CallInterfaceDescriptorDataEE9registers = comdat any

$_ZZN2v88internal29StaticCallInterfaceDescriptorINS0_51LoadJoinElement_GenericElementsAccessor_0DescriptorEE10InitializeEPNS0_27CallInterfaceDescriptorDataEE9registers = comdat any

$_ZZN2v88internal29StaticCallInterfaceDescriptorINS0_46LoadJoinTypedElement_Int32Elements_0DescriptorEE10InitializeEPNS0_27CallInterfaceDescriptorDataEE9registers = comdat any

$_ZZN2v88internal29StaticCallInterfaceDescriptorINS0_48LoadJoinTypedElement_Float32Elements_0DescriptorEE10InitializeEPNS0_27CallInterfaceDescriptorDataEE9registers = comdat any

$_ZZN2v88internal29StaticCallInterfaceDescriptorINS0_48LoadJoinTypedElement_Float64Elements_0DescriptorEE10InitializeEPNS0_27CallInterfaceDescriptorDataEE9registers = comdat any

$_ZZN2v88internal29StaticCallInterfaceDescriptorINS0_53LoadJoinTypedElement_Uint8ClampedElements_0DescriptorEE10InitializeEPNS0_27CallInterfaceDescriptorDataEE9registers = comdat any

$_ZZN2v88internal29StaticCallInterfaceDescriptorINS0_50LoadJoinTypedElement_BigUint64Elements_0DescriptorEE10InitializeEPNS0_27CallInterfaceDescriptorDataEE9registers = comdat any

$_ZZN2v88internal29StaticCallInterfaceDescriptorINS0_49LoadJoinTypedElement_BigInt64Elements_0DescriptorEE10InitializeEPNS0_27CallInterfaceDescriptorDataEE9registers = comdat any

$_ZZN2v88internal29StaticCallInterfaceDescriptorINS0_46LoadJoinTypedElement_Uint8Elements_0DescriptorEE10InitializeEPNS0_27CallInterfaceDescriptorDataEE9registers = comdat any

$_ZZN2v88internal29StaticCallInterfaceDescriptorINS0_45LoadJoinTypedElement_Int8Elements_0DescriptorEE10InitializeEPNS0_27CallInterfaceDescriptorDataEE9registers = comdat any

$_ZZN2v88internal29StaticCallInterfaceDescriptorINS0_47LoadJoinTypedElement_Uint16Elements_0DescriptorEE10InitializeEPNS0_27CallInterfaceDescriptorDataEE9registers = comdat any

$_ZZN2v88internal29StaticCallInterfaceDescriptorINS0_46LoadJoinTypedElement_Int16Elements_0DescriptorEE10InitializeEPNS0_27CallInterfaceDescriptorDataEE9registers = comdat any

$_ZZN2v88internal29StaticCallInterfaceDescriptorINS0_47LoadJoinTypedElement_Uint32Elements_0DescriptorEE10InitializeEPNS0_27CallInterfaceDescriptorDataEE9registers = comdat any

$_ZZN2v88internal29StaticCallInterfaceDescriptorINS0_34GenericBuiltinTest_Smi_0DescriptorEE10InitializeEPNS0_27CallInterfaceDescriptorDataEE9registers = comdat any

$_ZZN2v88internal29StaticCallInterfaceDescriptorINS0_49CanUseSameAccessor_FastDoubleElements_0DescriptorEE10InitializeEPNS0_27CallInterfaceDescriptorDataEE9registers = comdat any

$_ZZN2v88internal29StaticCallInterfaceDescriptorINS0_46CanUseSameAccessor_FastSmiElements_0DescriptorEE10InitializeEPNS0_27CallInterfaceDescriptorDataEE9registers = comdat any

$_ZZN2v88internal29StaticCallInterfaceDescriptorINS0_49CanUseSameAccessor_FastObjectElements_0DescriptorEE10InitializeEPNS0_27CallInterfaceDescriptorDataEE9registers = comdat any

$_ZZN2v88internal29StaticCallInterfaceDescriptorINS0_40Load_GenericElementsAccessor_0DescriptorEE10InitializeEPNS0_27CallInterfaceDescriptorDataEE9registers = comdat any

$_ZZN2v88internal29StaticCallInterfaceDescriptorINS0_41Store_GenericElementsAccessor_0DescriptorEE10InitializeEPNS0_27CallInterfaceDescriptorDataEE9registers = comdat any

$_ZZN2v88internal29StaticCallInterfaceDescriptorINS0_42Delete_GenericElementsAccessor_0DescriptorEE10InitializeEPNS0_27CallInterfaceDescriptorDataEE9registers = comdat any

$_ZZN2v88internal29StaticCallInterfaceDescriptorINS0_42LoadTypedElement_Int32Elements_0DescriptorEE10InitializeEPNS0_27CallInterfaceDescriptorDataEE9registers = comdat any

$_ZZN2v88internal29StaticCallInterfaceDescriptorINS0_50StoreTypedElementNumeric_Int32Elements_0DescriptorEE10InitializeEPNS0_27CallInterfaceDescriptorDataEE9registers = comdat any

$_ZZN2v88internal29StaticCallInterfaceDescriptorINS0_48StoreTypedElementJSAny_Int32Elements_0DescriptorEE10InitializeEPNS0_27CallInterfaceDescriptorDataEE9registers = comdat any

$_ZZN2v88internal29StaticCallInterfaceDescriptorINS0_44LoadTypedElement_Float32Elements_0DescriptorEE10InitializeEPNS0_27CallInterfaceDescriptorDataEE9registers = comdat any

$_ZZN2v88internal29StaticCallInterfaceDescriptorINS0_52StoreTypedElementNumeric_Float32Elements_0DescriptorEE10InitializeEPNS0_27CallInterfaceDescriptorDataEE9registers = comdat any

$_ZZN2v88internal29StaticCallInterfaceDescriptorINS0_50StoreTypedElementJSAny_Float32Elements_0DescriptorEE10InitializeEPNS0_27CallInterfaceDescriptorDataEE9registers = comdat any

$_ZZN2v88internal29StaticCallInterfaceDescriptorINS0_44LoadTypedElement_Float64Elements_0DescriptorEE10InitializeEPNS0_27CallInterfaceDescriptorDataEE9registers = comdat any

$_ZZN2v88internal29StaticCallInterfaceDescriptorINS0_52StoreTypedElementNumeric_Float64Elements_0DescriptorEE10InitializeEPNS0_27CallInterfaceDescriptorDataEE9registers = comdat any

$_ZZN2v88internal29StaticCallInterfaceDescriptorINS0_50StoreTypedElementJSAny_Float64Elements_0DescriptorEE10InitializeEPNS0_27CallInterfaceDescriptorDataEE9registers = comdat any

$_ZZN2v88internal29StaticCallInterfaceDescriptorINS0_49LoadTypedElement_Uint8ClampedElements_0DescriptorEE10InitializeEPNS0_27CallInterfaceDescriptorDataEE9registers = comdat any

$_ZZN2v88internal29StaticCallInterfaceDescriptorINS0_57StoreTypedElementNumeric_Uint8ClampedElements_0DescriptorEE10InitializeEPNS0_27CallInterfaceDescriptorDataEE9registers = comdat any

$_ZZN2v88internal29StaticCallInterfaceDescriptorINS0_55StoreTypedElementJSAny_Uint8ClampedElements_0DescriptorEE10InitializeEPNS0_27CallInterfaceDescriptorDataEE9registers = comdat any

$_ZZN2v88internal29StaticCallInterfaceDescriptorINS0_46LoadTypedElement_BigUint64Elements_0DescriptorEE10InitializeEPNS0_27CallInterfaceDescriptorDataEE9registers = comdat any

$_ZZN2v88internal29StaticCallInterfaceDescriptorINS0_54StoreTypedElementNumeric_BigUint64Elements_0DescriptorEE10InitializeEPNS0_27CallInterfaceDescriptorDataEE9registers = comdat any

$_ZZN2v88internal29StaticCallInterfaceDescriptorINS0_52StoreTypedElementJSAny_BigUint64Elements_0DescriptorEE10InitializeEPNS0_27CallInterfaceDescriptorDataEE9registers = comdat any

$_ZZN2v88internal29StaticCallInterfaceDescriptorINS0_45LoadTypedElement_BigInt64Elements_0DescriptorEE10InitializeEPNS0_27CallInterfaceDescriptorDataEE9registers = comdat any

$_ZZN2v88internal29StaticCallInterfaceDescriptorINS0_53StoreTypedElementNumeric_BigInt64Elements_0DescriptorEE10InitializeEPNS0_27CallInterfaceDescriptorDataEE9registers = comdat any

$_ZZN2v88internal29StaticCallInterfaceDescriptorINS0_51StoreTypedElementJSAny_BigInt64Elements_0DescriptorEE10InitializeEPNS0_27CallInterfaceDescriptorDataEE9registers = comdat any

$_ZZN2v88internal29StaticCallInterfaceDescriptorINS0_42LoadTypedElement_Uint8Elements_0DescriptorEE10InitializeEPNS0_27CallInterfaceDescriptorDataEE9registers = comdat any

$_ZZN2v88internal29StaticCallInterfaceDescriptorINS0_50StoreTypedElementNumeric_Uint8Elements_0DescriptorEE10InitializeEPNS0_27CallInterfaceDescriptorDataEE9registers = comdat any

$_ZZN2v88internal29StaticCallInterfaceDescriptorINS0_48StoreTypedElementJSAny_Uint8Elements_0DescriptorEE10InitializeEPNS0_27CallInterfaceDescriptorDataEE9registers = comdat any

$_ZZN2v88internal29StaticCallInterfaceDescriptorINS0_41LoadTypedElement_Int8Elements_0DescriptorEE10InitializeEPNS0_27CallInterfaceDescriptorDataEE9registers = comdat any

$_ZZN2v88internal29StaticCallInterfaceDescriptorINS0_49StoreTypedElementNumeric_Int8Elements_0DescriptorEE10InitializeEPNS0_27CallInterfaceDescriptorDataEE9registers = comdat any

$_ZZN2v88internal29StaticCallInterfaceDescriptorINS0_47StoreTypedElementJSAny_Int8Elements_0DescriptorEE10InitializeEPNS0_27CallInterfaceDescriptorDataEE9registers = comdat any

$_ZZN2v88internal29StaticCallInterfaceDescriptorINS0_43LoadTypedElement_Uint16Elements_0DescriptorEE10InitializeEPNS0_27CallInterfaceDescriptorDataEE9registers = comdat any

$_ZZN2v88internal29StaticCallInterfaceDescriptorINS0_51StoreTypedElementNumeric_Uint16Elements_0DescriptorEE10InitializeEPNS0_27CallInterfaceDescriptorDataEE9registers = comdat any

$_ZZN2v88internal29StaticCallInterfaceDescriptorINS0_49StoreTypedElementJSAny_Uint16Elements_0DescriptorEE10InitializeEPNS0_27CallInterfaceDescriptorDataEE9registers = comdat any

$_ZZN2v88internal29StaticCallInterfaceDescriptorINS0_42LoadTypedElement_Int16Elements_0DescriptorEE10InitializeEPNS0_27CallInterfaceDescriptorDataEE9registers = comdat any

$_ZZN2v88internal29StaticCallInterfaceDescriptorINS0_50StoreTypedElementNumeric_Int16Elements_0DescriptorEE10InitializeEPNS0_27CallInterfaceDescriptorDataEE9registers = comdat any

$_ZZN2v88internal29StaticCallInterfaceDescriptorINS0_48StoreTypedElementJSAny_Int16Elements_0DescriptorEE10InitializeEPNS0_27CallInterfaceDescriptorDataEE9registers = comdat any

$_ZZN2v88internal29StaticCallInterfaceDescriptorINS0_43LoadTypedElement_Uint32Elements_0DescriptorEE10InitializeEPNS0_27CallInterfaceDescriptorDataEE9registers = comdat any

$_ZZN2v88internal29StaticCallInterfaceDescriptorINS0_51StoreTypedElementNumeric_Uint32Elements_0DescriptorEE10InitializeEPNS0_27CallInterfaceDescriptorDataEE9registers = comdat any

$_ZZN2v88internal29StaticCallInterfaceDescriptorINS0_49StoreTypedElementJSAny_Uint32Elements_0DescriptorEE10InitializeEPNS0_27CallInterfaceDescriptorDataEE9registers = comdat any

@_ZN2v88internal15CallDescriptors21call_descriptor_data_E = hidden global [404 x %"class.v8::internal::CallInterfaceDescriptorData"] [%"class.v8::internal::CallInterfaceDescriptorData" { i32 -1, i32 -1, i32 -1, %"class.v8::base::Flags" zeroinitializer, i32 0, i32 0, %"class.v8::internal::Register"* null, %"class.v8::internal::MachineType"* null }, %"class.v8::internal::CallInterfaceDescriptorData" { i32 -1, i32 -1, i32 -1, %"class.v8::base::Flags" zeroinitializer, i32 0, i32 0, %"class.v8::internal::Register"* null, %"class.v8::internal::MachineType"* null }, %"class.v8::internal::CallInterfaceDescriptorData" { i32 -1, i32 -1, i32 -1, %"class.v8::base::Flags" zeroinitializer, i32 0, i32 0, %"class.v8::internal::Register"* null, %"class.v8::internal::MachineType"* null }, %"class.v8::internal::CallInterfaceDescriptorData" { i32 -1, i32 -1, i32 -1, %"class.v8::base::Flags" zeroinitializer, i32 0, i32 0, %"class.v8::internal::Register"* null, %"class.v8::internal::MachineType"* null }, %"class.v8::internal::CallInterfaceDescriptorData" { i32 -1, i32 -1, i32 -1, %"class.v8::base::Flags" zeroinitializer, i32 0, i32 0, %"class.v8::internal::Register"* null, %"class.v8::internal::MachineType"* null }, %"class.v8::internal::CallInterfaceDescriptorData" { i32 -1, i32 -1, i32 -1, %"class.v8::base::Flags" zeroinitializer, i32 0, i32 0, %"class.v8::internal::Register"* null, %"class.v8::internal::MachineType"* null }, %"class.v8::internal::CallInterfaceDescriptorData" { i32 -1, i32 -1, i32 -1, %"class.v8::base::Flags" zeroinitializer, i32 0, i32 0, %"class.v8::internal::Register"* null, %"class.v8::internal::MachineType"* null }, %"class.v8::internal::CallInterfaceDescriptorData" { i32 -1, i32 -1, i32 -1, %"class.v8::base::Flags" zeroinitializer, i32 0, i32 0, %"class.v8::internal::Register"* null, %"class.v8::internal::MachineType"* null }, %"class.v8::internal::CallInterfaceDescriptorData" { i32 -1, i32 -1, i32 -1, %"class.v8::base::Flags" zeroinitializer, i32 0, i32 0, %"class.v8::internal::Register"* null, %"class.v8::internal::MachineType"* null }, %"class.v8::internal::CallInterfaceDescriptorData" { i32 -1, i32 -1, i32 -1, %"class.v8::base::Flags" zeroinitializer, i32 0, i32 0, %"class.v8::internal::Register"* null, %"class.v8::internal::MachineType"* null }, %"class.v8::internal::CallInterfaceDescriptorData" { i32 -1, i32 -1, i32 -1, %"class.v8::base::Flags" zeroinitializer, i32 0, i32 0, %"class.v8::internal::Register"* null, %"class.v8::internal::MachineType"* null }, %"class.v8::internal::CallInterfaceDescriptorData" { i32 -1, i32 -1, i32 -1, %"class.v8::base::Flags" zeroinitializer, i32 0, i32 0, %"class.v8::internal::Register"* null, %"class.v8::internal::MachineType"* null }, %"class.v8::internal::CallInterfaceDescriptorData" { i32 -1, i32 -1, i32 -1, %"class.v8::base::Flags" zeroinitializer, i32 0, i32 0, %"class.v8::internal::Register"* null, %"class.v8::internal::MachineType"* null }, %"class.v8::internal::CallInterfaceDescriptorData" { i32 -1, i32 -1, i32 -1, %"class.v8::base::Flags" zeroinitializer, i32 0, i32 0, %"class.v8::internal::Register"* null, %"class.v8::internal::MachineType"* null }, %"class.v8::internal::CallInterfaceDescriptorData" { i32 -1, i32 -1, i32 -1, %"class.v8::base::Flags" zeroinitializer, i32 0, i32 0, %"class.v8::internal::Register"* null, %"class.v8::internal::MachineType"* null }, %"class.v8::internal::CallInterfaceDescriptorData" { i32 -1, i32 -1, i32 -1, %"class.v8::base::Flags" zeroinitializer, i32 0, i32 0, %"class.v8::internal::Register"* null, %"class.v8::internal::MachineType"* null }, %"class.v8::internal::CallInterfaceDescriptorData" { i32 -1, i32 -1, i32 -1, %"class.v8::base::Flags" zeroinitializer, i32 0, i32 0, %"class.v8::internal::Register"* null, %"class.v8::internal::MachineType"* null }, %"class.v8::internal::CallInterfaceDescriptorData" { i32 -1, i32 -1, i32 -1, %"class.v8::base::Flags" zeroinitializer, i32 0, i32 0, %"class.v8::internal::Register"* null, %"class.v8::internal::MachineType"* null }, %"class.v8::internal::CallInterfaceDescriptorData" { i32 -1, i32 -1, i32 -1, %"class.v8::base::Flags" zeroinitializer, i32 0, i32 0, %"class.v8::internal::Register"* null, %"class.v8::internal::MachineType"* null }, %"class.v8::internal::CallInterfaceDescriptorData" { i32 -1, i32 -1, i32 -1, %"class.v8::base::Flags" zeroinitializer, i32 0, i32 0, %"class.v8::internal::Register"* null, %"class.v8::internal::MachineType"* null }, %"class.v8::internal::CallInterfaceDescriptorData" { i32 -1, i32 -1, i32 -1, %"class.v8::base::Flags" zeroinitializer, i32 0, i32 0, %"class.v8::internal::Register"* null, %"class.v8::internal::MachineType"* null }, %"class.v8::internal::CallInterfaceDescriptorData" { i32 -1, i32 -1, i32 -1, %"class.v8::base::Flags" zeroinitializer, i32 0, i32 0, %"class.v8::internal::Register"* null, %"class.v8::internal::MachineType"* null }, %"class.v8::internal::CallInterfaceDescriptorData" { i32 -1, i32 -1, i32 -1, %"class.v8::base::Flags" zeroinitializer, i32 0, i32 0, %"class.v8::internal::Register"* null, %"class.v8::internal::MachineType"* null }, %"class.v8::internal::CallInterfaceDescriptorData" { i32 -1, i32 -1, i32 -1, %"class.v8::base::Flags" zeroinitializer, i32 0, i32 0, %"class.v8::internal::Register"* null, %"class.v8::internal::MachineType"* null }, %"class.v8::internal::CallInterfaceDescriptorData" { i32 -1, i32 -1, i32 -1, %"class.v8::base::Flags" zeroinitializer, i32 0, i32 0, %"class.v8::internal::Register"* null, %"class.v8::internal::MachineType"* null }, %"class.v8::internal::CallInterfaceDescriptorData" { i32 -1, i32 -1, i32 -1, %"class.v8::base::Flags" zeroinitializer, i32 0, i32 0, %"class.v8::internal::Register"* null, %"class.v8::internal::MachineType"* null }, %"class.v8::internal::CallInterfaceDescriptorData" { i32 -1, i32 -1, i32 -1, %"class.v8::base::Flags" zeroinitializer, i32 0, i32 0, %"class.v8::internal::Register"* null, %"class.v8::internal::MachineType"* null }, %"class.v8::internal::CallInterfaceDescriptorData" { i32 -1, i32 -1, i32 -1, %"class.v8::base::Flags" zeroinitializer, i32 0, i32 0, %"class.v8::internal::Register"* null, %"class.v8::internal::MachineType"* null }, %"class.v8::internal::CallInterfaceDescriptorData" { i32 -1, i32 -1, i32 -1, %"class.v8::base::Flags" zeroinitializer, i32 0, i32 0, %"class.v8::internal::Register"* null, %"class.v8::internal::MachineType"* null }, %"class.v8::internal::CallInterfaceDescriptorData" { i32 -1, i32 -1, i32 -1, %"class.v8::base::Flags" zeroinitializer, i32 0, i32 0, %"class.v8::internal::Register"* null, %"class.v8::internal::MachineType"* null }, %"class.v8::internal::CallInterfaceDescriptorData" { i32 -1, i32 -1, i32 -1, %"class.v8::base::Flags" zeroinitializer, i32 0, i32 0, %"class.v8::internal::Register"* null, %"class.v8::internal::MachineType"* null }, %"class.v8::internal::CallInterfaceDescriptorData" { i32 -1, i32 -1, i32 -1, %"class.v8::base::Flags" zeroinitializer, i32 0, i32 0, %"class.v8::internal::Register"* null, %"class.v8::internal::MachineType"* null }, %"class.v8::internal::CallInterfaceDescriptorData" { i32 -1, i32 -1, i32 -1, %"class.v8::base::Flags" zeroinitializer, i32 0, i32 0, %"class.v8::internal::Register"* null, %"class.v8::internal::MachineType"* null }, %"class.v8::internal::CallInterfaceDescriptorData" { i32 -1, i32 -1, i32 -1, %"class.v8::base::Flags" zeroinitializer, i32 0, i32 0, %"class.v8::internal::Register"* null, %"class.v8::internal::MachineType"* null }, %"class.v8::internal::CallInterfaceDescriptorData" { i32 -1, i32 -1, i32 -1, %"class.v8::base::Flags" zeroinitializer, i32 0, i32 0, %"class.v8::internal::Register"* null, %"class.v8::internal::MachineType"* null }, %"class.v8::internal::CallInterfaceDescriptorData" { i32 -1, i32 -1, i32 -1, %"class.v8::base::Flags" zeroinitializer, i32 0, i32 0, %"class.v8::internal::Register"* null, %"class.v8::internal::MachineType"* null }, %"class.v8::internal::CallInterfaceDescriptorData" { i32 -1, i32 -1, i32 -1, %"class.v8::base::Flags" zeroinitializer, i32 0, i32 0, %"class.v8::internal::Register"* null, %"class.v8::internal::MachineType"* null }, %"class.v8::internal::CallInterfaceDescriptorData" { i32 -1, i32 -1, i32 -1, %"class.v8::base::Flags" zeroinitializer, i32 0, i32 0, %"class.v8::internal::Register"* null, %"class.v8::internal::MachineType"* null }, %"class.v8::internal::CallInterfaceDescriptorData" { i32 -1, i32 -1, i32 -1, %"class.v8::base::Flags" zeroinitializer, i32 0, i32 0, %"class.v8::internal::Register"* null, %"class.v8::internal::MachineType"* null }, %"class.v8::internal::CallInterfaceDescriptorData" { i32 -1, i32 -1, i32 -1, %"class.v8::base::Flags" zeroinitializer, i32 0, i32 0, %"class.v8::internal::Register"* null, %"class.v8::internal::MachineType"* null }, %"class.v8::internal::CallInterfaceDescriptorData" { i32 -1, i32 -1, i32 -1, %"class.v8::base::Flags" zeroinitializer, i32 0, i32 0, %"class.v8::internal::Register"* null, %"class.v8::internal::MachineType"* null }, %"class.v8::internal::CallInterfaceDescriptorData" { i32 -1, i32 -1, i32 -1, %"class.v8::base::Flags" zeroinitializer, i32 0, i32 0, %"class.v8::internal::Register"* null, %"class.v8::internal::MachineType"* null }, %"class.v8::internal::CallInterfaceDescriptorData" { i32 -1, i32 -1, i32 -1, %"class.v8::base::Flags" zeroinitializer, i32 0, i32 0, %"class.v8::internal::Register"* null, %"class.v8::internal::MachineType"* null }, %"class.v8::internal::CallInterfaceDescriptorData" { i32 -1, i32 -1, i32 -1, %"class.v8::base::Flags" zeroinitializer, i32 0, i32 0, %"class.v8::internal::Register"* null, %"class.v8::internal::MachineType"* null }, %"class.v8::internal::CallInterfaceDescriptorData" { i32 -1, i32 -1, i32 -1, %"class.v8::base::Flags" zeroinitializer, i32 0, i32 0, %"class.v8::internal::Register"* null, %"class.v8::internal::MachineType"* null }, %"class.v8::internal::CallInterfaceDescriptorData" { i32 -1, i32 -1, i32 -1, %"class.v8::base::Flags" zeroinitializer, i32 0, i32 0, %"class.v8::internal::Register"* null, %"class.v8::internal::MachineType"* null }, %"class.v8::internal::CallInterfaceDescriptorData" { i32 -1, i32 -1, i32 -1, %"class.v8::base::Flags" zeroinitializer, i32 0, i32 0, %"class.v8::internal::Register"* null, %"class.v8::internal::MachineType"* null }, %"class.v8::internal::CallInterfaceDescriptorData" { i32 -1, i32 -1, i32 -1, %"class.v8::base::Flags" zeroinitializer, i32 0, i32 0, %"class.v8::internal::Register"* null, %"class.v8::internal::MachineType"* null }, %"class.v8::internal::CallInterfaceDescriptorData" { i32 -1, i32 -1, i32 -1, %"class.v8::base::Flags" zeroinitializer, i32 0, i32 0, %"class.v8::internal::Register"* null, %"class.v8::internal::MachineType"* null }, %"class.v8::internal::CallInterfaceDescriptorData" { i32 -1, i32 -1, i32 -1, %"class.v8::base::Flags" zeroinitializer, i32 0, i32 0, %"class.v8::internal::Register"* null, %"class.v8::internal::MachineType"* null }, %"class.v8::internal::CallInterfaceDescriptorData" { i32 -1, i32 -1, i32 -1, %"class.v8::base::Flags" zeroinitializer, i32 0, i32 0, %"class.v8::internal::Register"* null, %"class.v8::internal::MachineType"* null }, %"class.v8::internal::CallInterfaceDescriptorData" { i32 -1, i32 -1, i32 -1, %"class.v8::base::Flags" zeroinitializer, i32 0, i32 0, %"class.v8::internal::Register"* null, %"class.v8::internal::MachineType"* null }, %"class.v8::internal::CallInterfaceDescriptorData" { i32 -1, i32 -1, i32 -1, %"class.v8::base::Flags" zeroinitializer, i32 0, i32 0, %"class.v8::internal::Register"* null, %"class.v8::internal::MachineType"* null }, %"class.v8::internal::CallInterfaceDescriptorData" { i32 -1, i32 -1, i32 -1, %"class.v8::base::Flags" zeroinitializer, i32 0, i32 0, %"class.v8::internal::Register"* null, %"class.v8::internal::MachineType"* null }, %"class.v8::internal::CallInterfaceDescriptorData" { i32 -1, i32 -1, i32 -1, %"class.v8::base::Flags" zeroinitializer, i32 0, i32 0, %"class.v8::internal::Register"* null, %"class.v8::internal::MachineType"* null }, %"class.v8::internal::CallInterfaceDescriptorData" { i32 -1, i32 -1, i32 -1, %"class.v8::base::Flags" zeroinitializer, i32 0, i32 0, %"class.v8::internal::Register"* null, %"class.v8::internal::MachineType"* null }, %"class.v8::internal::CallInterfaceDescriptorData" { i32 -1, i32 -1, i32 -1, %"class.v8::base::Flags" zeroinitializer, i32 0, i32 0, %"class.v8::internal::Register"* null, %"class.v8::internal::MachineType"* null }, %"class.v8::internal::CallInterfaceDescriptorData" { i32 -1, i32 -1, i32 -1, %"class.v8::base::Flags" zeroinitializer, i32 0, i32 0, %"class.v8::internal::Register"* null, %"class.v8::internal::MachineType"* null }, %"class.v8::internal::CallInterfaceDescriptorData" { i32 -1, i32 -1, i32 -1, %"class.v8::base::Flags" zeroinitializer, i32 0, i32 0, %"class.v8::internal::Register"* null, %"class.v8::internal::MachineType"* null }, %"class.v8::internal::CallInterfaceDescriptorData" { i32 -1, i32 -1, i32 -1, %"class.v8::base::Flags" zeroinitializer, i32 0, i32 0, %"class.v8::internal::Register"* null, %"class.v8::internal::MachineType"* null }, %"class.v8::internal::CallInterfaceDescriptorData" { i32 -1, i32 -1, i32 -1, %"class.v8::base::Flags" zeroinitializer, i32 0, i32 0, %"class.v8::internal::Register"* null, %"class.v8::internal::MachineType"* null }, %"class.v8::internal::CallInterfaceDescriptorData" { i32 -1, i32 -1, i32 -1, %"class.v8::base::Flags" zeroinitializer, i32 0, i32 0, %"class.v8::internal::Register"* null, %"class.v8::internal::MachineType"* null }, %"class.v8::internal::CallInterfaceDescriptorData" { i32 -1, i32 -1, i32 -1, %"class.v8::base::Flags" zeroinitializer, i32 0, i32 0, %"class.v8::internal::Register"* null, %"class.v8::internal::MachineType"* null }, %"class.v8::internal::CallInterfaceDescriptorData" { i32 -1, i32 -1, i32 -1, %"class.v8::base::Flags" zeroinitializer, i32 0, i32 0, %"class.v8::internal::Register"* null, %"class.v8::internal::MachineType"* null }, %"class.v8::internal::CallInterfaceDescriptorData" { i32 -1, i32 -1, i32 -1, %"class.v8::base::Flags" zeroinitializer, i32 0, i32 0, %"class.v8::internal::Register"* null, %"class.v8::internal::MachineType"* null }, %"class.v8::internal::CallInterfaceDescriptorData" { i32 -1, i32 -1, i32 -1, %"class.v8::base::Flags" zeroinitializer, i32 0, i32 0, %"class.v8::internal::Register"* null, %"class.v8::internal::MachineType"* null }, %"class.v8::internal::CallInterfaceDescriptorData" { i32 -1, i32 -1, i32 -1, %"class.v8::base::Flags" zeroinitializer, i32 0, i32 0, %"class.v8::internal::Register"* null, %"class.v8::internal::MachineType"* null }, %"class.v8::internal::CallInterfaceDescriptorData" { i32 -1, i32 -1, i32 -1, %"class.v8::base::Flags" zeroinitializer, i32 0, i32 0, %"class.v8::internal::Register"* null, %"class.v8::internal::MachineType"* null }, %"class.v8::internal::CallInterfaceDescriptorData" { i32 -1, i32 -1, i32 -1, %"class.v8::base::Flags" zeroinitializer, i32 0, i32 0, %"class.v8::internal::Register"* null, %"class.v8::internal::MachineType"* null }, %"class.v8::internal::CallInterfaceDescriptorData" { i32 -1, i32 -1, i32 -1, %"class.v8::base::Flags" zeroinitializer, i32 0, i32 0, %"class.v8::internal::Register"* null, %"class.v8::internal::MachineType"* null }, %"class.v8::internal::CallInterfaceDescriptorData" { i32 -1, i32 -1, i32 -1, %"class.v8::base::Flags" zeroinitializer, i32 0, i32 0, %"class.v8::internal::Register"* null, %"class.v8::internal::MachineType"* null }, %"class.v8::internal::CallInterfaceDescriptorData" { i32 -1, i32 -1, i32 -1, %"class.v8::base::Flags" zeroinitializer, i32 0, i32 0, %"class.v8::internal::Register"* null, %"class.v8::internal::MachineType"* null }, %"class.v8::internal::CallInterfaceDescriptorData" { i32 -1, i32 -1, i32 -1, %"class.v8::base::Flags" zeroinitializer, i32 0, i32 0, %"class.v8::internal::Register"* null, %"class.v8::internal::MachineType"* null }, %"class.v8::internal::CallInterfaceDescriptorData" { i32 -1, i32 -1, i32 -1, %"class.v8::base::Flags" zeroinitializer, i32 0, i32 0, %"class.v8::internal::Register"* null, %"class.v8::internal::MachineType"* null }, %"class.v8::internal::CallInterfaceDescriptorData" { i32 -1, i32 -1, i32 -1, %"class.v8::base::Flags" zeroinitializer, i32 0, i32 0, %"class.v8::internal::Register"* null, %"class.v8::internal::MachineType"* null }, %"class.v8::internal::CallInterfaceDescriptorData" { i32 -1, i32 -1, i32 -1, %"class.v8::base::Flags" zeroinitializer, i32 0, i32 0, %"class.v8::internal::Register"* null, %"class.v8::internal::MachineType"* null }, %"class.v8::internal::CallInterfaceDescriptorData" { i32 -1, i32 -1, i32 -1, %"class.v8::base::Flags" zeroinitializer, i32 0, i32 0, %"class.v8::internal::Register"* null, %"class.v8::internal::MachineType"* null }, %"class.v8::internal::CallInterfaceDescriptorData" { i32 -1, i32 -1, i32 -1, %"class.v8::base::Flags" zeroinitializer, i32 0, i32 0, %"class.v8::internal::Register"* null, %"class.v8::internal::MachineType"* null }, %"class.v8::internal::CallInterfaceDescriptorData" { i32 -1, i32 -1, i32 -1, %"class.v8::base::Flags" zeroinitializer, i32 0, i32 0, %"class.v8::internal::Register"* null, %"class.v8::internal::MachineType"* null }, %"class.v8::internal::CallInterfaceDescriptorData" { i32 -1, i32 -1, i32 -1, %"class.v8::base::Flags" zeroinitializer, i32 0, i32 0, %"class.v8::internal::Register"* null, %"class.v8::internal::MachineType"* null }, %"class.v8::internal::CallInterfaceDescriptorData" { i32 -1, i32 -1, i32 -1, %"class.v8::base::Flags" zeroinitializer, i32 0, i32 0, %"class.v8::internal::Register"* null, %"class.v8::internal::MachineType"* null }, %"class.v8::internal::CallInterfaceDescriptorData" { i32 -1, i32 -1, i32 -1, %"class.v8::base::Flags" zeroinitializer, i32 0, i32 0, %"class.v8::internal::Register"* null, %"class.v8::internal::MachineType"* null }, %"class.v8::internal::CallInterfaceDescriptorData" { i32 -1, i32 -1, i32 -1, %"class.v8::base::Flags" zeroinitializer, i32 0, i32 0, %"class.v8::internal::Register"* null, %"class.v8::internal::MachineType"* null }, %"class.v8::internal::CallInterfaceDescriptorData" { i32 -1, i32 -1, i32 -1, %"class.v8::base::Flags" zeroinitializer, i32 0, i32 0, %"class.v8::internal::Register"* null, %"class.v8::internal::MachineType"* null }, %"class.v8::internal::CallInterfaceDescriptorData" { i32 -1, i32 -1, i32 -1, %"class.v8::base::Flags" zeroinitializer, i32 0, i32 0, %"class.v8::internal::Register"* null, %"class.v8::internal::MachineType"* null }, %"class.v8::internal::CallInterfaceDescriptorData" { i32 -1, i32 -1, i32 -1, %"class.v8::base::Flags" zeroinitializer, i32 0, i32 0, %"class.v8::internal::Register"* null, %"class.v8::internal::MachineType"* null }, %"class.v8::internal::CallInterfaceDescriptorData" { i32 -1, i32 -1, i32 -1, %"class.v8::base::Flags" zeroinitializer, i32 0, i32 0, %"class.v8::internal::Register"* null, %"class.v8::internal::MachineType"* null }, %"class.v8::internal::CallInterfaceDescriptorData" { i32 -1, i32 -1, i32 -1, %"class.v8::base::Flags" zeroinitializer, i32 0, i32 0, %"class.v8::internal::Register"* null, %"class.v8::internal::MachineType"* null }, %"class.v8::internal::CallInterfaceDescriptorData" { i32 -1, i32 -1, i32 -1, %"class.v8::base::Flags" zeroinitializer, i32 0, i32 0, %"class.v8::internal::Register"* null, %"class.v8::internal::MachineType"* null }, %"class.v8::internal::CallInterfaceDescriptorData" { i32 -1, i32 -1, i32 -1, %"class.v8::base::Flags" zeroinitializer, i32 0, i32 0, %"class.v8::internal::Register"* null, %"class.v8::internal::MachineType"* null }, %"class.v8::internal::CallInterfaceDescriptorData" { i32 -1, i32 -1, i32 -1, %"class.v8::base::Flags" zeroinitializer, i32 0, i32 0, %"class.v8::internal::Register"* null, %"class.v8::internal::MachineType"* null }, %"class.v8::internal::CallInterfaceDescriptorData" { i32 -1, i32 -1, i32 -1, %"class.v8::base::Flags" zeroinitializer, i32 0, i32 0, %"class.v8::internal::Register"* null, %"class.v8::internal::MachineType"* null }, %"class.v8::internal::CallInterfaceDescriptorData" { i32 -1, i32 -1, i32 -1, %"class.v8::base::Flags" zeroinitializer, i32 0, i32 0, %"class.v8::internal::Register"* null, %"class.v8::internal::MachineType"* null }, %"class.v8::internal::CallInterfaceDescriptorData" { i32 -1, i32 -1, i32 -1, %"class.v8::base::Flags" zeroinitializer, i32 0, i32 0, %"class.v8::internal::Register"* null, %"class.v8::internal::MachineType"* null }, %"class.v8::internal::CallInterfaceDescriptorData" { i32 -1, i32 -1, i32 -1, %"class.v8::base::Flags" zeroinitializer, i32 0, i32 0, %"class.v8::internal::Register"* null, %"class.v8::internal::MachineType"* null }, %"class.v8::internal::CallInterfaceDescriptorData" { i32 -1, i32 -1, i32 -1, %"class.v8::base::Flags" zeroinitializer, i32 0, i32 0, %"class.v8::internal::Register"* null, %"class.v8::internal::MachineType"* null }, %"class.v8::internal::CallInterfaceDescriptorData" { i32 -1, i32 -1, i32 -1, %"class.v8::base::Flags" zeroinitializer, i32 0, i32 0, %"class.v8::internal::Register"* null, %"class.v8::internal::MachineType"* null }, %"class.v8::internal::CallInterfaceDescriptorData" { i32 -1, i32 -1, i32 -1, %"class.v8::base::Flags" zeroinitializer, i32 0, i32 0, %"class.v8::internal::Register"* null, %"class.v8::internal::MachineType"* null }, %"class.v8::internal::CallInterfaceDescriptorData" { i32 -1, i32 -1, i32 -1, %"class.v8::base::Flags" zeroinitializer, i32 0, i32 0, %"class.v8::internal::Register"* null, %"class.v8::internal::MachineType"* null }, %"class.v8::internal::CallInterfaceDescriptorData" { i32 -1, i32 -1, i32 -1, %"class.v8::base::Flags" zeroinitializer, i32 0, i32 0, %"class.v8::internal::Register"* null, %"class.v8::internal::MachineType"* null }, %"class.v8::internal::CallInterfaceDescriptorData" { i32 -1, i32 -1, i32 -1, %"class.v8::base::Flags" zeroinitializer, i32 0, i32 0, %"class.v8::internal::Register"* null, %"class.v8::internal::MachineType"* null }, %"class.v8::internal::CallInterfaceDescriptorData" { i32 -1, i32 -1, i32 -1, %"class.v8::base::Flags" zeroinitializer, i32 0, i32 0, %"class.v8::internal::Register"* null, %"class.v8::internal::MachineType"* null }, %"class.v8::internal::CallInterfaceDescriptorData" { i32 -1, i32 -1, i32 -1, %"class.v8::base::Flags" zeroinitializer, i32 0, i32 0, %"class.v8::internal::Register"* null, %"class.v8::internal::MachineType"* null }, %"class.v8::internal::CallInterfaceDescriptorData" { i32 -1, i32 -1, i32 -1, %"class.v8::base::Flags" zeroinitializer, i32 0, i32 0, %"class.v8::internal::Register"* null, %"class.v8::internal::MachineType"* null }, %"class.v8::internal::CallInterfaceDescriptorData" { i32 -1, i32 -1, i32 -1, %"class.v8::base::Flags" zeroinitializer, i32 0, i32 0, %"class.v8::internal::Register"* null, %"class.v8::internal::MachineType"* null }, %"class.v8::internal::CallInterfaceDescriptorData" { i32 -1, i32 -1, i32 -1, %"class.v8::base::Flags" zeroinitializer, i32 0, i32 0, %"class.v8::internal::Register"* null, %"class.v8::internal::MachineType"* null }, %"class.v8::internal::CallInterfaceDescriptorData" { i32 -1, i32 -1, i32 -1, %"class.v8::base::Flags" zeroinitializer, i32 0, i32 0, %"class.v8::internal::Register"* null, %"class.v8::internal::MachineType"* null }, %"class.v8::internal::CallInterfaceDescriptorData" { i32 -1, i32 -1, i32 -1, %"class.v8::base::Flags" zeroinitializer, i32 0, i32 0, %"class.v8::internal::Register"* null, %"class.v8::internal::MachineType"* null }, %"class.v8::internal::CallInterfaceDescriptorData" { i32 -1, i32 -1, i32 -1, %"class.v8::base::Flags" zeroinitializer, i32 0, i32 0, %"class.v8::internal::Register"* null, %"class.v8::internal::MachineType"* null }, %"class.v8::internal::CallInterfaceDescriptorData" { i32 -1, i32 -1, i32 -1, %"class.v8::base::Flags" zeroinitializer, i32 0, i32 0, %"class.v8::internal::Register"* null, %"class.v8::internal::MachineType"* null }, %"class.v8::internal::CallInterfaceDescriptorData" { i32 -1, i32 -1, i32 -1, %"class.v8::base::Flags" zeroinitializer, i32 0, i32 0, %"class.v8::internal::Register"* null, %"class.v8::internal::MachineType"* null }, %"class.v8::internal::CallInterfaceDescriptorData" { i32 -1, i32 -1, i32 -1, %"class.v8::base::Flags" zeroinitializer, i32 0, i32 0, %"class.v8::internal::Register"* null, %"class.v8::internal::MachineType"* null }, %"class.v8::internal::CallInterfaceDescriptorData" { i32 -1, i32 -1, i32 -1, %"class.v8::base::Flags" zeroinitializer, i32 0, i32 0, %"class.v8::internal::Register"* null, %"class.v8::internal::MachineType"* null }, %"class.v8::internal::CallInterfaceDescriptorData" { i32 -1, i32 -1, i32 -1, %"class.v8::base::Flags" zeroinitializer, i32 0, i32 0, %"class.v8::internal::Register"* null, %"class.v8::internal::MachineType"* null }, %"class.v8::internal::CallInterfaceDescriptorData" { i32 -1, i32 -1, i32 -1, %"class.v8::base::Flags" zeroinitializer, i32 0, i32 0, %"class.v8::internal::Register"* null, %"class.v8::internal::MachineType"* null }, %"class.v8::internal::CallInterfaceDescriptorData" { i32 -1, i32 -1, i32 -1, %"class.v8::base::Flags" zeroinitializer, i32 0, i32 0, %"class.v8::internal::Register"* null, %"class.v8::internal::MachineType"* null }, %"class.v8::internal::CallInterfaceDescriptorData" { i32 -1, i32 -1, i32 -1, %"class.v8::base::Flags" zeroinitializer, i32 0, i32 0, %"class.v8::internal::Register"* null, %"class.v8::internal::MachineType"* null }, %"class.v8::internal::CallInterfaceDescriptorData" { i32 -1, i32 -1, i32 -1, %"class.v8::base::Flags" zeroinitializer, i32 0, i32 0, %"class.v8::internal::Register"* null, %"class.v8::internal::MachineType"* null }, %"class.v8::internal::CallInterfaceDescriptorData" { i32 -1, i32 -1, i32 -1, %"class.v8::base::Flags" zeroinitializer, i32 0, i32 0, %"class.v8::internal::Register"* null, %"class.v8::internal::MachineType"* null }, %"class.v8::internal::CallInterfaceDescriptorData" { i32 -1, i32 -1, i32 -1, %"class.v8::base::Flags" zeroinitializer, i32 0, i32 0, %"class.v8::internal::Register"* null, %"class.v8::internal::MachineType"* null }, %"class.v8::internal::CallInterfaceDescriptorData" { i32 -1, i32 -1, i32 -1, %"class.v8::base::Flags" zeroinitializer, i32 0, i32 0, %"class.v8::internal::Register"* null, %"class.v8::internal::MachineType"* null }, %"class.v8::internal::CallInterfaceDescriptorData" { i32 -1, i32 -1, i32 -1, %"class.v8::base::Flags" zeroinitializer, i32 0, i32 0, %"class.v8::internal::Register"* null, %"class.v8::internal::MachineType"* null }, %"class.v8::internal::CallInterfaceDescriptorData" { i32 -1, i32 -1, i32 -1, %"class.v8::base::Flags" zeroinitializer, i32 0, i32 0, %"class.v8::internal::Register"* null, %"class.v8::internal::MachineType"* null }, %"class.v8::internal::CallInterfaceDescriptorData" { i32 -1, i32 -1, i32 -1, %"class.v8::base::Flags" zeroinitializer, i32 0, i32 0, %"class.v8::internal::Register"* null, %"class.v8::internal::MachineType"* null }, %"class.v8::internal::CallInterfaceDescriptorData" { i32 -1, i32 -1, i32 -1, %"class.v8::base::Flags" zeroinitializer, i32 0, i32 0, %"class.v8::internal::Register"* null, %"class.v8::internal::MachineType"* null }, %"class.v8::internal::CallInterfaceDescriptorData" { i32 -1, i32 -1, i32 -1, %"class.v8::base::Flags" zeroinitializer, i32 0, i32 0, %"class.v8::internal::Register"* null, %"class.v8::internal::MachineType"* null }, %"class.v8::internal::CallInterfaceDescriptorData" { i32 -1, i32 -1, i32 -1, %"class.v8::base::Flags" zeroinitializer, i32 0, i32 0, %"class.v8::internal::Register"* null, %"class.v8::internal::MachineType"* null }, %"class.v8::internal::CallInterfaceDescriptorData" { i32 -1, i32 -1, i32 -1, %"class.v8::base::Flags" zeroinitializer, i32 0, i32 0, %"class.v8::internal::Register"* null, %"class.v8::internal::MachineType"* null }, %"class.v8::internal::CallInterfaceDescriptorData" { i32 -1, i32 -1, i32 -1, %"class.v8::base::Flags" zeroinitializer, i32 0, i32 0, %"class.v8::internal::Register"* null, %"class.v8::internal::MachineType"* null }, %"class.v8::internal::CallInterfaceDescriptorData" { i32 -1, i32 -1, i32 -1, %"class.v8::base::Flags" zeroinitializer, i32 0, i32 0, %"class.v8::internal::Register"* null, %"class.v8::internal::MachineType"* null }, %"class.v8::internal::CallInterfaceDescriptorData" { i32 -1, i32 -1, i32 -1, %"class.v8::base::Flags" zeroinitializer, i32 0, i32 0, %"class.v8::internal::Register"* null, %"class.v8::internal::MachineType"* null }, %"class.v8::internal::CallInterfaceDescriptorData" { i32 -1, i32 -1, i32 -1, %"class.v8::base::Flags" zeroinitializer, i32 0, i32 0, %"class.v8::internal::Register"* null, %"class.v8::internal::MachineType"* null }, %"class.v8::internal::CallInterfaceDescriptorData" { i32 -1, i32 -1, i32 -1, %"class.v8::base::Flags" zeroinitializer, i32 0, i32 0, %"class.v8::internal::Register"* null, %"class.v8::internal::MachineType"* null }, %"class.v8::internal::CallInterfaceDescriptorData" { i32 -1, i32 -1, i32 -1, %"class.v8::base::Flags" zeroinitializer, i32 0, i32 0, %"class.v8::internal::Register"* null, %"class.v8::internal::MachineType"* null }, %"class.v8::internal::CallInterfaceDescriptorData" { i32 -1, i32 -1, i32 -1, %"class.v8::base::Flags" zeroinitializer, i32 0, i32 0, %"class.v8::internal::Register"* null, %"class.v8::internal::MachineType"* null }, %"class.v8::internal::CallInterfaceDescriptorData" { i32 -1, i32 -1, i32 -1, %"class.v8::base::Flags" zeroinitializer, i32 0, i32 0, %"class.v8::internal::Register"* null, %"class.v8::internal::MachineType"* null }, %"class.v8::internal::CallInterfaceDescriptorData" { i32 -1, i32 -1, i32 -1, %"class.v8::base::Flags" zeroinitializer, i32 0, i32 0, %"class.v8::internal::Register"* null, %"class.v8::internal::MachineType"* null }, %"class.v8::internal::CallInterfaceDescriptorData" { i32 -1, i32 -1, i32 -1, %"class.v8::base::Flags" zeroinitializer, i32 0, i32 0, %"class.v8::internal::Register"* null, %"class.v8::internal::MachineType"* null }, %"class.v8::internal::CallInterfaceDescriptorData" { i32 -1, i32 -1, i32 -1, %"class.v8::base::Flags" zeroinitializer, i32 0, i32 0, %"class.v8::internal::Register"* null, %"class.v8::internal::MachineType"* null }, %"class.v8::internal::CallInterfaceDescriptorData" { i32 -1, i32 -1, i32 -1, %"class.v8::base::Flags" zeroinitializer, i32 0, i32 0, %"class.v8::internal::Register"* null, %"class.v8::internal::MachineType"* null }, %"class.v8::internal::CallInterfaceDescriptorData" { i32 -1, i32 -1, i32 -1, %"class.v8::base::Flags" zeroinitializer, i32 0, i32 0, %"class.v8::internal::Register"* null, %"class.v8::internal::MachineType"* null }, %"class.v8::internal::CallInterfaceDescriptorData" { i32 -1, i32 -1, i32 -1, %"class.v8::base::Flags" zeroinitializer, i32 0, i32 0, %"class.v8::internal::Register"* null, %"class.v8::internal::MachineType"* null }, %"class.v8::internal::CallInterfaceDescriptorData" { i32 -1, i32 -1, i32 -1, %"class.v8::base::Flags" zeroinitializer, i32 0, i32 0, %"class.v8::internal::Register"* null, %"class.v8::internal::MachineType"* null }, %"class.v8::internal::CallInterfaceDescriptorData" { i32 -1, i32 -1, i32 -1, %"class.v8::base::Flags" zeroinitializer, i32 0, i32 0, %"class.v8::internal::Register"* null, %"class.v8::internal::MachineType"* null }, %"class.v8::internal::CallInterfaceDescriptorData" { i32 -1, i32 -1, i32 -1, %"class.v8::base::Flags" zeroinitializer, i32 0, i32 0, %"class.v8::internal::Register"* null, %"class.v8::internal::MachineType"* null }, %"class.v8::internal::CallInterfaceDescriptorData" { i32 -1, i32 -1, i32 -1, %"class.v8::base::Flags" zeroinitializer, i32 0, i32 0, %"class.v8::internal::Register"* null, %"class.v8::internal::MachineType"* null }, %"class.v8::internal::CallInterfaceDescriptorData" { i32 -1, i32 -1, i32 -1, %"class.v8::base::Flags" zeroinitializer, i32 0, i32 0, %"class.v8::internal::Register"* null, %"class.v8::internal::MachineType"* null }, %"class.v8::internal::CallInterfaceDescriptorData" { i32 -1, i32 -1, i32 -1, %"class.v8::base::Flags" zeroinitializer, i32 0, i32 0, %"class.v8::internal::Register"* null, %"class.v8::internal::MachineType"* null }, %"class.v8::internal::CallInterfaceDescriptorData" { i32 -1, i32 -1, i32 -1, %"class.v8::base::Flags" zeroinitializer, i32 0, i32 0, %"class.v8::internal::Register"* null, %"class.v8::internal::MachineType"* null }, %"class.v8::internal::CallInterfaceDescriptorData" { i32 -1, i32 -1, i32 -1, %"class.v8::base::Flags" zeroinitializer, i32 0, i32 0, %"class.v8::internal::Register"* null, %"class.v8::internal::MachineType"* null }, %"class.v8::internal::CallInterfaceDescriptorData" { i32 -1, i32 -1, i32 -1, %"class.v8::base::Flags" zeroinitializer, i32 0, i32 0, %"class.v8::internal::Register"* null, %"class.v8::internal::MachineType"* null }, %"class.v8::internal::CallInterfaceDescriptorData" { i32 -1, i32 -1, i32 -1, %"class.v8::base::Flags" zeroinitializer, i32 0, i32 0, %"class.v8::internal::Register"* null, %"class.v8::internal::MachineType"* null }, %"class.v8::internal::CallInterfaceDescriptorData" { i32 -1, i32 -1, i32 -1, %"class.v8::base::Flags" zeroinitializer, i32 0, i32 0, %"class.v8::internal::Register"* null, %"class.v8::internal::MachineType"* null }, %"class.v8::internal::CallInterfaceDescriptorData" { i32 -1, i32 -1, i32 -1, %"class.v8::base::Flags" zeroinitializer, i32 0, i32 0, %"class.v8::internal::Register"* null, %"class.v8::internal::MachineType"* null }, %"class.v8::internal::CallInterfaceDescriptorData" { i32 -1, i32 -1, i32 -1, %"class.v8::base::Flags" zeroinitializer, i32 0, i32 0, %"class.v8::internal::Register"* null, %"class.v8::internal::MachineType"* null }, %"class.v8::internal::CallInterfaceDescriptorData" { i32 -1, i32 -1, i32 -1, %"class.v8::base::Flags" zeroinitializer, i32 0, i32 0, %"class.v8::internal::Register"* null, %"class.v8::internal::MachineType"* null }, %"class.v8::internal::CallInterfaceDescriptorData" { i32 -1, i32 -1, i32 -1, %"class.v8::base::Flags" zeroinitializer, i32 0, i32 0, %"class.v8::internal::Register"* null, %"class.v8::internal::MachineType"* null }, %"class.v8::internal::CallInterfaceDescriptorData" { i32 -1, i32 -1, i32 -1, %"class.v8::base::Flags" zeroinitializer, i32 0, i32 0, %"class.v8::internal::Register"* null, %"class.v8::internal::MachineType"* null }, %"class.v8::internal::CallInterfaceDescriptorData" { i32 -1, i32 -1, i32 -1, %"class.v8::base::Flags" zeroinitializer, i32 0, i32 0, %"class.v8::internal::Register"* null, %"class.v8::internal::MachineType"* null }, %"class.v8::internal::CallInterfaceDescriptorData" { i32 -1, i32 -1, i32 -1, %"class.v8::base::Flags" zeroinitializer, i32 0, i32 0, %"class.v8::internal::Register"* null, %"class.v8::internal::MachineType"* null }, %"class.v8::internal::CallInterfaceDescriptorData" { i32 -1, i32 -1, i32 -1, %"class.v8::base::Flags" zeroinitializer, i32 0, i32 0, %"class.v8::internal::Register"* null, %"class.v8::internal::MachineType"* null }, %"class.v8::internal::CallInterfaceDescriptorData" { i32 -1, i32 -1, i32 -1, %"class.v8::base::Flags" zeroinitializer, i32 0, i32 0, %"class.v8::internal::Register"* null, %"class.v8::internal::MachineType"* null }, %"class.v8::internal::CallInterfaceDescriptorData" { i32 -1, i32 -1, i32 -1, %"class.v8::base::Flags" zeroinitializer, i32 0, i32 0, %"class.v8::internal::Register"* null, %"class.v8::internal::MachineType"* null }, %"class.v8::internal::CallInterfaceDescriptorData" { i32 -1, i32 -1, i32 -1, %"class.v8::base::Flags" zeroinitializer, i32 0, i32 0, %"class.v8::internal::Register"* null, %"class.v8::internal::MachineType"* null }, %"class.v8::internal::CallInterfaceDescriptorData" { i32 -1, i32 -1, i32 -1, %"class.v8::base::Flags" zeroinitializer, i32 0, i32 0, %"class.v8::internal::Register"* null, %"class.v8::internal::MachineType"* null }, %"class.v8::internal::CallInterfaceDescriptorData" { i32 -1, i32 -1, i32 -1, %"class.v8::base::Flags" zeroinitializer, i32 0, i32 0, %"class.v8::internal::Register"* null, %"class.v8::internal::MachineType"* null }, %"class.v8::internal::CallInterfaceDescriptorData" { i32 -1, i32 -1, i32 -1, %"class.v8::base::Flags" zeroinitializer, i32 0, i32 0, %"class.v8::internal::Register"* null, %"class.v8::internal::MachineType"* null }, %"class.v8::internal::CallInterfaceDescriptorData" { i32 -1, i32 -1, i32 -1, %"class.v8::base::Flags" zeroinitializer, i32 0, i32 0, %"class.v8::internal::Register"* null, %"class.v8::internal::MachineType"* null }, %"class.v8::internal::CallInterfaceDescriptorData" { i32 -1, i32 -1, i32 -1, %"class.v8::base::Flags" zeroinitializer, i32 0, i32 0, %"class.v8::internal::Register"* null, %"class.v8::internal::MachineType"* null }, %"class.v8::internal::CallInterfaceDescriptorData" { i32 -1, i32 -1, i32 -1, %"class.v8::base::Flags" zeroinitializer, i32 0, i32 0, %"class.v8::internal::Register"* null, %"class.v8::internal::MachineType"* null }, %"class.v8::internal::CallInterfaceDescriptorData" { i32 -1, i32 -1, i32 -1, %"class.v8::base::Flags" zeroinitializer, i32 0, i32 0, %"class.v8::internal::Register"* null, %"class.v8::internal::MachineType"* null }, %"class.v8::internal::CallInterfaceDescriptorData" { i32 -1, i32 -1, i32 -1, %"class.v8::base::Flags" zeroinitializer, i32 0, i32 0, %"class.v8::internal::Register"* null, %"class.v8::internal::MachineType"* null }, %"class.v8::internal::CallInterfaceDescriptorData" { i32 -1, i32 -1, i32 -1, %"class.v8::base::Flags" zeroinitializer, i32 0, i32 0, %"class.v8::internal::Register"* null, %"class.v8::internal::MachineType"* null }, %"class.v8::internal::CallInterfaceDescriptorData" { i32 -1, i32 -1, i32 -1, %"class.v8::base::Flags" zeroinitializer, i32 0, i32 0, %"class.v8::internal::Register"* null, %"class.v8::internal::MachineType"* null }, %"class.v8::internal::CallInterfaceDescriptorData" { i32 -1, i32 -1, i32 -1, %"class.v8::base::Flags" zeroinitializer, i32 0, i32 0, %"class.v8::internal::Register"* null, %"class.v8::internal::MachineType"* null }, %"class.v8::internal::CallInterfaceDescriptorData" { i32 -1, i32 -1, i32 -1, %"class.v8::base::Flags" zeroinitializer, i32 0, i32 0, %"class.v8::internal::Register"* null, %"class.v8::internal::MachineType"* null }, %"class.v8::internal::CallInterfaceDescriptorData" { i32 -1, i32 -1, i32 -1, %"class.v8::base::Flags" zeroinitializer, i32 0, i32 0, %"class.v8::internal::Register"* null, %"class.v8::internal::MachineType"* null }, %"class.v8::internal::CallInterfaceDescriptorData" { i32 -1, i32 -1, i32 -1, %"class.v8::base::Flags" zeroinitializer, i32 0, i32 0, %"class.v8::internal::Register"* null, %"class.v8::internal::MachineType"* null }, %"class.v8::internal::CallInterfaceDescriptorData" { i32 -1, i32 -1, i32 -1, %"class.v8::base::Flags" zeroinitializer, i32 0, i32 0, %"class.v8::internal::Register"* null, %"class.v8::internal::MachineType"* null }, %"class.v8::internal::CallInterfaceDescriptorData" { i32 -1, i32 -1, i32 -1, %"class.v8::base::Flags" zeroinitializer, i32 0, i32 0, %"class.v8::internal::Register"* null, %"class.v8::internal::MachineType"* null }, %"class.v8::internal::CallInterfaceDescriptorData" { i32 -1, i32 -1, i32 -1, %"class.v8::base::Flags" zeroinitializer, i32 0, i32 0, %"class.v8::internal::Register"* null, %"class.v8::internal::MachineType"* null }, %"class.v8::internal::CallInterfaceDescriptorData" { i32 -1, i32 -1, i32 -1, %"class.v8::base::Flags" zeroinitializer, i32 0, i32 0, %"class.v8::internal::Register"* null, %"class.v8::internal::MachineType"* null }, %"class.v8::internal::CallInterfaceDescriptorData" { i32 -1, i32 -1, i32 -1, %"class.v8::base::Flags" zeroinitializer, i32 0, i32 0, %"class.v8::internal::Register"* null, %"class.v8::internal::MachineType"* null }, %"class.v8::internal::CallInterfaceDescriptorData" { i32 -1, i32 -1, i32 -1, %"class.v8::base::Flags" zeroinitializer, i32 0, i32 0, %"class.v8::internal::Register"* null, %"class.v8::internal::MachineType"* null }, %"class.v8::internal::CallInterfaceDescriptorData" { i32 -1, i32 -1, i32 -1, %"class.v8::base::Flags" zeroinitializer, i32 0, i32 0, %"class.v8::internal::Register"* null, %"class.v8::internal::MachineType"* null }, %"class.v8::internal::CallInterfaceDescriptorData" { i32 -1, i32 -1, i32 -1, %"class.v8::base::Flags" zeroinitializer, i32 0, i32 0, %"class.v8::internal::Register"* null, %"class.v8::internal::MachineType"* null }, %"class.v8::internal::CallInterfaceDescriptorData" { i32 -1, i32 -1, i32 -1, %"class.v8::base::Flags" zeroinitializer, i32 0, i32 0, %"class.v8::internal::Register"* null, %"class.v8::internal::MachineType"* null }, %"class.v8::internal::CallInterfaceDescriptorData" { i32 -1, i32 -1, i32 -1, %"class.v8::base::Flags" zeroinitializer, i32 0, i32 0, %"class.v8::internal::Register"* null, %"class.v8::internal::MachineType"* null }, %"class.v8::internal::CallInterfaceDescriptorData" { i32 -1, i32 -1, i32 -1, %"class.v8::base::Flags" zeroinitializer, i32 0, i32 0, %"class.v8::internal::Register"* null, %"class.v8::internal::MachineType"* null }, %"class.v8::internal::CallInterfaceDescriptorData" { i32 -1, i32 -1, i32 -1, %"class.v8::base::Flags" zeroinitializer, i32 0, i32 0, %"class.v8::internal::Register"* null, %"class.v8::internal::MachineType"* null }, %"class.v8::internal::CallInterfaceDescriptorData" { i32 -1, i32 -1, i32 -1, %"class.v8::base::Flags" zeroinitializer, i32 0, i32 0, %"class.v8::internal::Register"* null, %"class.v8::internal::MachineType"* null }, %"class.v8::internal::CallInterfaceDescriptorData" { i32 -1, i32 -1, i32 -1, %"class.v8::base::Flags" zeroinitializer, i32 0, i32 0, %"class.v8::internal::Register"* null, %"class.v8::internal::MachineType"* null }, %"class.v8::internal::CallInterfaceDescriptorData" { i32 -1, i32 -1, i32 -1, %"class.v8::base::Flags" zeroinitializer, i32 0, i32 0, %"class.v8::internal::Register"* null, %"class.v8::internal::MachineType"* null }, %"class.v8::internal::CallInterfaceDescriptorData" { i32 -1, i32 -1, i32 -1, %"class.v8::base::Flags" zeroinitializer, i32 0, i32 0, %"class.v8::internal::Register"* null, %"class.v8::internal::MachineType"* null }, %"class.v8::internal::CallInterfaceDescriptorData" { i32 -1, i32 -1, i32 -1, %"class.v8::base::Flags" zeroinitializer, i32 0, i32 0, %"class.v8::internal::Register"* null, %"class.v8::internal::MachineType"* null }, %"class.v8::internal::CallInterfaceDescriptorData" { i32 -1, i32 -1, i32 -1, %"class.v8::base::Flags" zeroinitializer, i32 0, i32 0, %"class.v8::internal::Register"* null, %"class.v8::internal::MachineType"* null }, %"class.v8::internal::CallInterfaceDescriptorData" { i32 -1, i32 -1, i32 -1, %"class.v8::base::Flags" zeroinitializer, i32 0, i32 0, %"class.v8::internal::Register"* null, %"class.v8::internal::MachineType"* null }, %"class.v8::internal::CallInterfaceDescriptorData" { i32 -1, i32 -1, i32 -1, %"class.v8::base::Flags" zeroinitializer, i32 0, i32 0, %"class.v8::internal::Register"* null, %"class.v8::internal::MachineType"* null }, %"class.v8::internal::CallInterfaceDescriptorData" { i32 -1, i32 -1, i32 -1, %"class.v8::base::Flags" zeroinitializer, i32 0, i32 0, %"class.v8::internal::Register"* null, %"class.v8::internal::MachineType"* null }, %"class.v8::internal::CallInterfaceDescriptorData" { i32 -1, i32 -1, i32 -1, %"class.v8::base::Flags" zeroinitializer, i32 0, i32 0, %"class.v8::internal::Register"* null, %"class.v8::internal::MachineType"* null }, %"class.v8::internal::CallInterfaceDescriptorData" { i32 -1, i32 -1, i32 -1, %"class.v8::base::Flags" zeroinitializer, i32 0, i32 0, %"class.v8::internal::Register"* null, %"class.v8::internal::MachineType"* null }, %"class.v8::internal::CallInterfaceDescriptorData" { i32 -1, i32 -1, i32 -1, %"class.v8::base::Flags" zeroinitializer, i32 0, i32 0, %"class.v8::internal::Register"* null, %"class.v8::internal::MachineType"* null }, %"class.v8::internal::CallInterfaceDescriptorData" { i32 -1, i32 -1, i32 -1, %"class.v8::base::Flags" zeroinitializer, i32 0, i32 0, %"class.v8::internal::Register"* null, %"class.v8::internal::MachineType"* null }, %"class.v8::internal::CallInterfaceDescriptorData" { i32 -1, i32 -1, i32 -1, %"class.v8::base::Flags" zeroinitializer, i32 0, i32 0, %"class.v8::internal::Register"* null, %"class.v8::internal::MachineType"* null }, %"class.v8::internal::CallInterfaceDescriptorData" { i32 -1, i32 -1, i32 -1, %"class.v8::base::Flags" zeroinitializer, i32 0, i32 0, %"class.v8::internal::Register"* null, %"class.v8::internal::MachineType"* null }, %"class.v8::internal::CallInterfaceDescriptorData" { i32 -1, i32 -1, i32 -1, %"class.v8::base::Flags" zeroinitializer, i32 0, i32 0, %"class.v8::internal::Register"* null, %"class.v8::internal::MachineType"* null }, %"class.v8::internal::CallInterfaceDescriptorData" { i32 -1, i32 -1, i32 -1, %"class.v8::base::Flags" zeroinitializer, i32 0, i32 0, %"class.v8::internal::Register"* null, %"class.v8::internal::MachineType"* null }, %"class.v8::internal::CallInterfaceDescriptorData" { i32 -1, i32 -1, i32 -1, %"class.v8::base::Flags" zeroinitializer, i32 0, i32 0, %"class.v8::internal::Register"* null, %"class.v8::internal::MachineType"* null }, %"class.v8::internal::CallInterfaceDescriptorData" { i32 -1, i32 -1, i32 -1, %"class.v8::base::Flags" zeroinitializer, i32 0, i32 0, %"class.v8::internal::Register"* null, %"class.v8::internal::MachineType"* null }, %"class.v8::internal::CallInterfaceDescriptorData" { i32 -1, i32 -1, i32 -1, %"class.v8::base::Flags" zeroinitializer, i32 0, i32 0, %"class.v8::internal::Register"* null, %"class.v8::internal::MachineType"* null }, %"class.v8::internal::CallInterfaceDescriptorData" { i32 -1, i32 -1, i32 -1, %"class.v8::base::Flags" zeroinitializer, i32 0, i32 0, %"class.v8::internal::Register"* null, %"class.v8::internal::MachineType"* null }, %"class.v8::internal::CallInterfaceDescriptorData" { i32 -1, i32 -1, i32 -1, %"class.v8::base::Flags" zeroinitializer, i32 0, i32 0, %"class.v8::internal::Register"* null, %"class.v8::internal::MachineType"* null }, %"class.v8::internal::CallInterfaceDescriptorData" { i32 -1, i32 -1, i32 -1, %"class.v8::base::Flags" zeroinitializer, i32 0, i32 0, %"class.v8::internal::Register"* null, %"class.v8::internal::MachineType"* null }, %"class.v8::internal::CallInterfaceDescriptorData" { i32 -1, i32 -1, i32 -1, %"class.v8::base::Flags" zeroinitializer, i32 0, i32 0, %"class.v8::internal::Register"* null, %"class.v8::internal::MachineType"* null }, %"class.v8::internal::CallInterfaceDescriptorData" { i32 -1, i32 -1, i32 -1, %"class.v8::base::Flags" zeroinitializer, i32 0, i32 0, %"class.v8::internal::Register"* null, %"class.v8::internal::MachineType"* null }, %"class.v8::internal::CallInterfaceDescriptorData" { i32 -1, i32 -1, i32 -1, %"class.v8::base::Flags" zeroinitializer, i32 0, i32 0, %"class.v8::internal::Register"* null, %"class.v8::internal::MachineType"* null }, %"class.v8::internal::CallInterfaceDescriptorData" { i32 -1, i32 -1, i32 -1, %"class.v8::base::Flags" zeroinitializer, i32 0, i32 0, %"class.v8::internal::Register"* null, %"class.v8::internal::MachineType"* null }, %"class.v8::internal::CallInterfaceDescriptorData" { i32 -1, i32 -1, i32 -1, %"class.v8::base::Flags" zeroinitializer, i32 0, i32 0, %"class.v8::internal::Register"* null, %"class.v8::internal::MachineType"* null }, %"class.v8::internal::CallInterfaceDescriptorData" { i32 -1, i32 -1, i32 -1, %"class.v8::base::Flags" zeroinitializer, i32 0, i32 0, %"class.v8::internal::Register"* null, %"class.v8::internal::MachineType"* null }, %"class.v8::internal::CallInterfaceDescriptorData" { i32 -1, i32 -1, i32 -1, %"class.v8::base::Flags" zeroinitializer, i32 0, i32 0, %"class.v8::internal::Register"* null, %"class.v8::internal::MachineType"* null }, %"class.v8::internal::CallInterfaceDescriptorData" { i32 -1, i32 -1, i32 -1, %"class.v8::base::Flags" zeroinitializer, i32 0, i32 0, %"class.v8::internal::Register"* null, %"class.v8::internal::MachineType"* null }, %"class.v8::internal::CallInterfaceDescriptorData" { i32 -1, i32 -1, i32 -1, %"class.v8::base::Flags" zeroinitializer, i32 0, i32 0, %"class.v8::internal::Register"* null, %"class.v8::internal::MachineType"* null }, %"class.v8::internal::CallInterfaceDescriptorData" { i32 -1, i32 -1, i32 -1, %"class.v8::base::Flags" zeroinitializer, i32 0, i32 0, %"class.v8::internal::Register"* null, %"class.v8::internal::MachineType"* null }, %"class.v8::internal::CallInterfaceDescriptorData" { i32 -1, i32 -1, i32 -1, %"class.v8::base::Flags" zeroinitializer, i32 0, i32 0, %"class.v8::internal::Register"* null, %"class.v8::internal::MachineType"* null }, %"class.v8::internal::CallInterfaceDescriptorData" { i32 -1, i32 -1, i32 -1, %"class.v8::base::Flags" zeroinitializer, i32 0, i32 0, %"class.v8::internal::Register"* null, %"class.v8::internal::MachineType"* null }, %"class.v8::internal::CallInterfaceDescriptorData" { i32 -1, i32 -1, i32 -1, %"class.v8::base::Flags" zeroinitializer, i32 0, i32 0, %"class.v8::internal::Register"* null, %"class.v8::internal::MachineType"* null }, %"class.v8::internal::CallInterfaceDescriptorData" { i32 -1, i32 -1, i32 -1, %"class.v8::base::Flags" zeroinitializer, i32 0, i32 0, %"class.v8::internal::Register"* null, %"class.v8::internal::MachineType"* null }, %"class.v8::internal::CallInterfaceDescriptorData" { i32 -1, i32 -1, i32 -1, %"class.v8::base::Flags" zeroinitializer, i32 0, i32 0, %"class.v8::internal::Register"* null, %"class.v8::internal::MachineType"* null }, %"class.v8::internal::CallInterfaceDescriptorData" { i32 -1, i32 -1, i32 -1, %"class.v8::base::Flags" zeroinitializer, i32 0, i32 0, %"class.v8::internal::Register"* null, %"class.v8::internal::MachineType"* null }, %"class.v8::internal::CallInterfaceDescriptorData" { i32 -1, i32 -1, i32 -1, %"class.v8::base::Flags" zeroinitializer, i32 0, i32 0, %"class.v8::internal::Register"* null, %"class.v8::internal::MachineType"* null }, %"class.v8::internal::CallInterfaceDescriptorData" { i32 -1, i32 -1, i32 -1, %"class.v8::base::Flags" zeroinitializer, i32 0, i32 0, %"class.v8::internal::Register"* null, %"class.v8::internal::MachineType"* null }, %"class.v8::internal::CallInterfaceDescriptorData" { i32 -1, i32 -1, i32 -1, %"class.v8::base::Flags" zeroinitializer, i32 0, i32 0, %"class.v8::internal::Register"* null, %"class.v8::internal::MachineType"* null }, %"class.v8::internal::CallInterfaceDescriptorData" { i32 -1, i32 -1, i32 -1, %"class.v8::base::Flags" zeroinitializer, i32 0, i32 0, %"class.v8::internal::Register"* null, %"class.v8::internal::MachineType"* null }, %"class.v8::internal::CallInterfaceDescriptorData" { i32 -1, i32 -1, i32 -1, %"class.v8::base::Flags" zeroinitializer, i32 0, i32 0, %"class.v8::internal::Register"* null, %"class.v8::internal::MachineType"* null }, %"class.v8::internal::CallInterfaceDescriptorData" { i32 -1, i32 -1, i32 -1, %"class.v8::base::Flags" zeroinitializer, i32 0, i32 0, %"class.v8::internal::Register"* null, %"class.v8::internal::MachineType"* null }, %"class.v8::internal::CallInterfaceDescriptorData" { i32 -1, i32 -1, i32 -1, %"class.v8::base::Flags" zeroinitializer, i32 0, i32 0, %"class.v8::internal::Register"* null, %"class.v8::internal::MachineType"* null }, %"class.v8::internal::CallInterfaceDescriptorData" { i32 -1, i32 -1, i32 -1, %"class.v8::base::Flags" zeroinitializer, i32 0, i32 0, %"class.v8::internal::Register"* null, %"class.v8::internal::MachineType"* null }, %"class.v8::internal::CallInterfaceDescriptorData" { i32 -1, i32 -1, i32 -1, %"class.v8::base::Flags" zeroinitializer, i32 0, i32 0, %"class.v8::internal::Register"* null, %"class.v8::internal::MachineType"* null }, %"class.v8::internal::CallInterfaceDescriptorData" { i32 -1, i32 -1, i32 -1, %"class.v8::base::Flags" zeroinitializer, i32 0, i32 0, %"class.v8::internal::Register"* null, %"class.v8::internal::MachineType"* null }, %"class.v8::internal::CallInterfaceDescriptorData" { i32 -1, i32 -1, i32 -1, %"class.v8::base::Flags" zeroinitializer, i32 0, i32 0, %"class.v8::internal::Register"* null, %"class.v8::internal::MachineType"* null }, %"class.v8::internal::CallInterfaceDescriptorData" { i32 -1, i32 -1, i32 -1, %"class.v8::base::Flags" zeroinitializer, i32 0, i32 0, %"class.v8::internal::Register"* null, %"class.v8::internal::MachineType"* null }, %"class.v8::internal::CallInterfaceDescriptorData" { i32 -1, i32 -1, i32 -1, %"class.v8::base::Flags" zeroinitializer, i32 0, i32 0, %"class.v8::internal::Register"* null, %"class.v8::internal::MachineType"* null }, %"class.v8::internal::CallInterfaceDescriptorData" { i32 -1, i32 -1, i32 -1, %"class.v8::base::Flags" zeroinitializer, i32 0, i32 0, %"class.v8::internal::Register"* null, %"class.v8::internal::MachineType"* null }, %"class.v8::internal::CallInterfaceDescriptorData" { i32 -1, i32 -1, i32 -1, %"class.v8::base::Flags" zeroinitializer, i32 0, i32 0, %"class.v8::internal::Register"* null, %"class.v8::internal::MachineType"* null }, %"class.v8::internal::CallInterfaceDescriptorData" { i32 -1, i32 -1, i32 -1, %"class.v8::base::Flags" zeroinitializer, i32 0, i32 0, %"class.v8::internal::Register"* null, %"class.v8::internal::MachineType"* null }, %"class.v8::internal::CallInterfaceDescriptorData" { i32 -1, i32 -1, i32 -1, %"class.v8::base::Flags" zeroinitializer, i32 0, i32 0, %"class.v8::internal::Register"* null, %"class.v8::internal::MachineType"* null }, %"class.v8::internal::CallInterfaceDescriptorData" { i32 -1, i32 -1, i32 -1, %"class.v8::base::Flags" zeroinitializer, i32 0, i32 0, %"class.v8::internal::Register"* null, %"class.v8::internal::MachineType"* null }, %"class.v8::internal::CallInterfaceDescriptorData" { i32 -1, i32 -1, i32 -1, %"class.v8::base::Flags" zeroinitializer, i32 0, i32 0, %"class.v8::internal::Register"* null, %"class.v8::internal::MachineType"* null }, %"class.v8::internal::CallInterfaceDescriptorData" { i32 -1, i32 -1, i32 -1, %"class.v8::base::Flags" zeroinitializer, i32 0, i32 0, %"class.v8::internal::Register"* null, %"class.v8::internal::MachineType"* null }, %"class.v8::internal::CallInterfaceDescriptorData" { i32 -1, i32 -1, i32 -1, %"class.v8::base::Flags" zeroinitializer, i32 0, i32 0, %"class.v8::internal::Register"* null, %"class.v8::internal::MachineType"* null }, %"class.v8::internal::CallInterfaceDescriptorData" { i32 -1, i32 -1, i32 -1, %"class.v8::base::Flags" zeroinitializer, i32 0, i32 0, %"class.v8::internal::Register"* null, %"class.v8::internal::MachineType"* null }, %"class.v8::internal::CallInterfaceDescriptorData" { i32 -1, i32 -1, i32 -1, %"class.v8::base::Flags" zeroinitializer, i32 0, i32 0, %"class.v8::internal::Register"* null, %"class.v8::internal::MachineType"* null }, %"class.v8::internal::CallInterfaceDescriptorData" { i32 -1, i32 -1, i32 -1, %"class.v8::base::Flags" zeroinitializer, i32 0, i32 0, %"class.v8::internal::Register"* null, %"class.v8::internal::MachineType"* null }, %"class.v8::internal::CallInterfaceDescriptorData" { i32 -1, i32 -1, i32 -1, %"class.v8::base::Flags" zeroinitializer, i32 0, i32 0, %"class.v8::internal::Register"* null, %"class.v8::internal::MachineType"* null }, %"class.v8::internal::CallInterfaceDescriptorData" { i32 -1, i32 -1, i32 -1, %"class.v8::base::Flags" zeroinitializer, i32 0, i32 0, %"class.v8::internal::Register"* null, %"class.v8::internal::MachineType"* null }, %"class.v8::internal::CallInterfaceDescriptorData" { i32 -1, i32 -1, i32 -1, %"class.v8::base::Flags" zeroinitializer, i32 0, i32 0, %"class.v8::internal::Register"* null, %"class.v8::internal::MachineType"* null }, %"class.v8::internal::CallInterfaceDescriptorData" { i32 -1, i32 -1, i32 -1, %"class.v8::base::Flags" zeroinitializer, i32 0, i32 0, %"class.v8::internal::Register"* null, %"class.v8::internal::MachineType"* null }, %"class.v8::internal::CallInterfaceDescriptorData" { i32 -1, i32 -1, i32 -1, %"class.v8::base::Flags" zeroinitializer, i32 0, i32 0, %"class.v8::internal::Register"* null, %"class.v8::internal::MachineType"* null }, %"class.v8::internal::CallInterfaceDescriptorData" { i32 -1, i32 -1, i32 -1, %"class.v8::base::Flags" zeroinitializer, i32 0, i32 0, %"class.v8::internal::Register"* null, %"class.v8::internal::MachineType"* null }, %"class.v8::internal::CallInterfaceDescriptorData" { i32 -1, i32 -1, i32 -1, %"class.v8::base::Flags" zeroinitializer, i32 0, i32 0, %"class.v8::internal::Register"* null, %"class.v8::internal::MachineType"* null }, %"class.v8::internal::CallInterfaceDescriptorData" { i32 -1, i32 -1, i32 -1, %"class.v8::base::Flags" zeroinitializer, i32 0, i32 0, %"class.v8::internal::Register"* null, %"class.v8::internal::MachineType"* null }, %"class.v8::internal::CallInterfaceDescriptorData" { i32 -1, i32 -1, i32 -1, %"class.v8::base::Flags" zeroinitializer, i32 0, i32 0, %"class.v8::internal::Register"* null, %"class.v8::internal::MachineType"* null }, %"class.v8::internal::CallInterfaceDescriptorData" { i32 -1, i32 -1, i32 -1, %"class.v8::base::Flags" zeroinitializer, i32 0, i32 0, %"class.v8::internal::Register"* null, %"class.v8::internal::MachineType"* null }, %"class.v8::internal::CallInterfaceDescriptorData" { i32 -1, i32 -1, i32 -1, %"class.v8::base::Flags" zeroinitializer, i32 0, i32 0, %"class.v8::internal::Register"* null, %"class.v8::internal::MachineType"* null }, %"class.v8::internal::CallInterfaceDescriptorData" { i32 -1, i32 -1, i32 -1, %"class.v8::base::Flags" zeroinitializer, i32 0, i32 0, %"class.v8::internal::Register"* null, %"class.v8::internal::MachineType"* null }, %"class.v8::internal::CallInterfaceDescriptorData" { i32 -1, i32 -1, i32 -1, %"class.v8::base::Flags" zeroinitializer, i32 0, i32 0, %"class.v8::internal::Register"* null, %"class.v8::internal::MachineType"* null }, %"class.v8::internal::CallInterfaceDescriptorData" { i32 -1, i32 -1, i32 -1, %"class.v8::base::Flags" zeroinitializer, i32 0, i32 0, %"class.v8::internal::Register"* null, %"class.v8::internal::MachineType"* null }, %"class.v8::internal::CallInterfaceDescriptorData" { i32 -1, i32 -1, i32 -1, %"class.v8::base::Flags" zeroinitializer, i32 0, i32 0, %"class.v8::internal::Register"* null, %"class.v8::internal::MachineType"* null }, %"class.v8::internal::CallInterfaceDescriptorData" { i32 -1, i32 -1, i32 -1, %"class.v8::base::Flags" zeroinitializer, i32 0, i32 0, %"class.v8::internal::Register"* null, %"class.v8::internal::MachineType"* null }, %"class.v8::internal::CallInterfaceDescriptorData" { i32 -1, i32 -1, i32 -1, %"class.v8::base::Flags" zeroinitializer, i32 0, i32 0, %"class.v8::internal::Register"* null, %"class.v8::internal::MachineType"* null }, %"class.v8::internal::CallInterfaceDescriptorData" { i32 -1, i32 -1, i32 -1, %"class.v8::base::Flags" zeroinitializer, i32 0, i32 0, %"class.v8::internal::Register"* null, %"class.v8::internal::MachineType"* null }, %"class.v8::internal::CallInterfaceDescriptorData" { i32 -1, i32 -1, i32 -1, %"class.v8::base::Flags" zeroinitializer, i32 0, i32 0, %"class.v8::internal::Register"* null, %"class.v8::internal::MachineType"* null }, %"class.v8::internal::CallInterfaceDescriptorData" { i32 -1, i32 -1, i32 -1, %"class.v8::base::Flags" zeroinitializer, i32 0, i32 0, %"class.v8::internal::Register"* null, %"class.v8::internal::MachineType"* null }, %"class.v8::internal::CallInterfaceDescriptorData" { i32 -1, i32 -1, i32 -1, %"class.v8::base::Flags" zeroinitializer, i32 0, i32 0, %"class.v8::internal::Register"* null, %"class.v8::internal::MachineType"* null }, %"class.v8::internal::CallInterfaceDescriptorData" { i32 -1, i32 -1, i32 -1, %"class.v8::base::Flags" zeroinitializer, i32 0, i32 0, %"class.v8::internal::Register"* null, %"class.v8::internal::MachineType"* null }, %"class.v8::internal::CallInterfaceDescriptorData" { i32 -1, i32 -1, i32 -1, %"class.v8::base::Flags" zeroinitializer, i32 0, i32 0, %"class.v8::internal::Register"* null, %"class.v8::internal::MachineType"* null }, %"class.v8::internal::CallInterfaceDescriptorData" { i32 -1, i32 -1, i32 -1, %"class.v8::base::Flags" zeroinitializer, i32 0, i32 0, %"class.v8::internal::Register"* null, %"class.v8::internal::MachineType"* null }, %"class.v8::internal::CallInterfaceDescriptorData" { i32 -1, i32 -1, i32 -1, %"class.v8::base::Flags" zeroinitializer, i32 0, i32 0, %"class.v8::internal::Register"* null, %"class.v8::internal::MachineType"* null }, %"class.v8::internal::CallInterfaceDescriptorData" { i32 -1, i32 -1, i32 -1, %"class.v8::base::Flags" zeroinitializer, i32 0, i32 0, %"class.v8::internal::Register"* null, %"class.v8::internal::MachineType"* null }, %"class.v8::internal::CallInterfaceDescriptorData" { i32 -1, i32 -1, i32 -1, %"class.v8::base::Flags" zeroinitializer, i32 0, i32 0, %"class.v8::internal::Register"* null, %"class.v8::internal::MachineType"* null }, %"class.v8::internal::CallInterfaceDescriptorData" { i32 -1, i32 -1, i32 -1, %"class.v8::base::Flags" zeroinitializer, i32 0, i32 0, %"class.v8::internal::Register"* null, %"class.v8::internal::MachineType"* null }, %"class.v8::internal::CallInterfaceDescriptorData" { i32 -1, i32 -1, i32 -1, %"class.v8::base::Flags" zeroinitializer, i32 0, i32 0, %"class.v8::internal::Register"* null, %"class.v8::internal::MachineType"* null }, %"class.v8::internal::CallInterfaceDescriptorData" { i32 -1, i32 -1, i32 -1, %"class.v8::base::Flags" zeroinitializer, i32 0, i32 0, %"class.v8::internal::Register"* null, %"class.v8::internal::MachineType"* null }, %"class.v8::internal::CallInterfaceDescriptorData" { i32 -1, i32 -1, i32 -1, %"class.v8::base::Flags" zeroinitializer, i32 0, i32 0, %"class.v8::internal::Register"* null, %"class.v8::internal::MachineType"* null }, %"class.v8::internal::CallInterfaceDescriptorData" { i32 -1, i32 -1, i32 -1, %"class.v8::base::Flags" zeroinitializer, i32 0, i32 0, %"class.v8::internal::Register"* null, %"class.v8::internal::MachineType"* null }, %"class.v8::internal::CallInterfaceDescriptorData" { i32 -1, i32 -1, i32 -1, %"class.v8::base::Flags" zeroinitializer, i32 0, i32 0, %"class.v8::internal::Register"* null, %"class.v8::internal::MachineType"* null }, %"class.v8::internal::CallInterfaceDescriptorData" { i32 -1, i32 -1, i32 -1, %"class.v8::base::Flags" zeroinitializer, i32 0, i32 0, %"class.v8::internal::Register"* null, %"class.v8::internal::MachineType"* null }, %"class.v8::internal::CallInterfaceDescriptorData" { i32 -1, i32 -1, i32 -1, %"class.v8::base::Flags" zeroinitializer, i32 0, i32 0, %"class.v8::internal::Register"* null, %"class.v8::internal::MachineType"* null }, %"class.v8::internal::CallInterfaceDescriptorData" { i32 -1, i32 -1, i32 -1, %"class.v8::base::Flags" zeroinitializer, i32 0, i32 0, %"class.v8::internal::Register"* null, %"class.v8::internal::MachineType"* null }, %"class.v8::internal::CallInterfaceDescriptorData" { i32 -1, i32 -1, i32 -1, %"class.v8::base::Flags" zeroinitializer, i32 0, i32 0, %"class.v8::internal::Register"* null, %"class.v8::internal::MachineType"* null }, %"class.v8::internal::CallInterfaceDescriptorData" { i32 -1, i32 -1, i32 -1, %"class.v8::base::Flags" zeroinitializer, i32 0, i32 0, %"class.v8::internal::Register"* null, %"class.v8::internal::MachineType"* null }, %"class.v8::internal::CallInterfaceDescriptorData" { i32 -1, i32 -1, i32 -1, %"class.v8::base::Flags" zeroinitializer, i32 0, i32 0, %"class.v8::internal::Register"* null, %"class.v8::internal::MachineType"* null }, %"class.v8::internal::CallInterfaceDescriptorData" { i32 -1, i32 -1, i32 -1, %"class.v8::base::Flags" zeroinitializer, i32 0, i32 0, %"class.v8::internal::Register"* null, %"class.v8::internal::MachineType"* null }, %"class.v8::internal::CallInterfaceDescriptorData" { i32 -1, i32 -1, i32 -1, %"class.v8::base::Flags" zeroinitializer, i32 0, i32 0, %"class.v8::internal::Register"* null, %"class.v8::internal::MachineType"* null }, %"class.v8::internal::CallInterfaceDescriptorData" { i32 -1, i32 -1, i32 -1, %"class.v8::base::Flags" zeroinitializer, i32 0, i32 0, %"class.v8::internal::Register"* null, %"class.v8::internal::MachineType"* null }, %"class.v8::internal::CallInterfaceDescriptorData" { i32 -1, i32 -1, i32 -1, %"class.v8::base::Flags" zeroinitializer, i32 0, i32 0, %"class.v8::internal::Register"* null, %"class.v8::internal::MachineType"* null }, %"class.v8::internal::CallInterfaceDescriptorData" { i32 -1, i32 -1, i32 -1, %"class.v8::base::Flags" zeroinitializer, i32 0, i32 0, %"class.v8::internal::Register"* null, %"class.v8::internal::MachineType"* null }, %"class.v8::internal::CallInterfaceDescriptorData" { i32 -1, i32 -1, i32 -1, %"class.v8::base::Flags" zeroinitializer, i32 0, i32 0, %"class.v8::internal::Register"* null, %"class.v8::internal::MachineType"* null }, %"class.v8::internal::CallInterfaceDescriptorData" { i32 -1, i32 -1, i32 -1, %"class.v8::base::Flags" zeroinitializer, i32 0, i32 0, %"class.v8::internal::Register"* null, %"class.v8::internal::MachineType"* null }, %"class.v8::internal::CallInterfaceDescriptorData" { i32 -1, i32 -1, i32 -1, %"class.v8::base::Flags" zeroinitializer, i32 0, i32 0, %"class.v8::internal::Register"* null, %"class.v8::internal::MachineType"* null }, %"class.v8::internal::CallInterfaceDescriptorData" { i32 -1, i32 -1, i32 -1, %"class.v8::base::Flags" zeroinitializer, i32 0, i32 0, %"class.v8::internal::Register"* null, %"class.v8::internal::MachineType"* null }, %"class.v8::internal::CallInterfaceDescriptorData" { i32 -1, i32 -1, i32 -1, %"class.v8::base::Flags" zeroinitializer, i32 0, i32 0, %"class.v8::internal::Register"* null, %"class.v8::internal::MachineType"* null }, %"class.v8::internal::CallInterfaceDescriptorData" { i32 -1, i32 -1, i32 -1, %"class.v8::base::Flags" zeroinitializer, i32 0, i32 0, %"class.v8::internal::Register"* null, %"class.v8::internal::MachineType"* null }, %"class.v8::internal::CallInterfaceDescriptorData" { i32 -1, i32 -1, i32 -1, %"class.v8::base::Flags" zeroinitializer, i32 0, i32 0, %"class.v8::internal::Register"* null, %"class.v8::internal::MachineType"* null }, %"class.v8::internal::CallInterfaceDescriptorData" { i32 -1, i32 -1, i32 -1, %"class.v8::base::Flags" zeroinitializer, i32 0, i32 0, %"class.v8::internal::Register"* null, %"class.v8::internal::MachineType"* null }, %"class.v8::internal::CallInterfaceDescriptorData" { i32 -1, i32 -1, i32 -1, %"class.v8::base::Flags" zeroinitializer, i32 0, i32 0, %"class.v8::internal::Register"* null, %"class.v8::internal::MachineType"* null }, %"class.v8::internal::CallInterfaceDescriptorData" { i32 -1, i32 -1, i32 -1, %"class.v8::base::Flags" zeroinitializer, i32 0, i32 0, %"class.v8::internal::Register"* null, %"class.v8::internal::MachineType"* null }, %"class.v8::internal::CallInterfaceDescriptorData" { i32 -1, i32 -1, i32 -1, %"class.v8::base::Flags" zeroinitializer, i32 0, i32 0, %"class.v8::internal::Register"* null, %"class.v8::internal::MachineType"* null }, %"class.v8::internal::CallInterfaceDescriptorData" { i32 -1, i32 -1, i32 -1, %"class.v8::base::Flags" zeroinitializer, i32 0, i32 0, %"class.v8::internal::Register"* null, %"class.v8::internal::MachineType"* null }, %"class.v8::internal::CallInterfaceDescriptorData" { i32 -1, i32 -1, i32 -1, %"class.v8::base::Flags" zeroinitializer, i32 0, i32 0, %"class.v8::internal::Register"* null, %"class.v8::internal::MachineType"* null }, %"class.v8::internal::CallInterfaceDescriptorData" { i32 -1, i32 -1, i32 -1, %"class.v8::base::Flags" zeroinitializer, i32 0, i32 0, %"class.v8::internal::Register"* null, %"class.v8::internal::MachineType"* null }, %"class.v8::internal::CallInterfaceDescriptorData" { i32 -1, i32 -1, i32 -1, %"class.v8::base::Flags" zeroinitializer, i32 0, i32 0, %"class.v8::internal::Register"* null, %"class.v8::internal::MachineType"* null }, %"class.v8::internal::CallInterfaceDescriptorData" { i32 -1, i32 -1, i32 -1, %"class.v8::base::Flags" zeroinitializer, i32 0, i32 0, %"class.v8::internal::Register"* null, %"class.v8::internal::MachineType"* null }, %"class.v8::internal::CallInterfaceDescriptorData" { i32 -1, i32 -1, i32 -1, %"class.v8::base::Flags" zeroinitializer, i32 0, i32 0, %"class.v8::internal::Register"* null, %"class.v8::internal::MachineType"* null }, %"class.v8::internal::CallInterfaceDescriptorData" { i32 -1, i32 -1, i32 -1, %"class.v8::base::Flags" zeroinitializer, i32 0, i32 0, %"class.v8::internal::Register"* null, %"class.v8::internal::MachineType"* null }, %"class.v8::internal::CallInterfaceDescriptorData" { i32 -1, i32 -1, i32 -1, %"class.v8::base::Flags" zeroinitializer, i32 0, i32 0, %"class.v8::internal::Register"* null, %"class.v8::internal::MachineType"* null }, %"class.v8::internal::CallInterfaceDescriptorData" { i32 -1, i32 -1, i32 -1, %"class.v8::base::Flags" zeroinitializer, i32 0, i32 0, %"class.v8::internal::Register"* null, %"class.v8::internal::MachineType"* null }, %"class.v8::internal::CallInterfaceDescriptorData" { i32 -1, i32 -1, i32 -1, %"class.v8::base::Flags" zeroinitializer, i32 0, i32 0, %"class.v8::internal::Register"* null, %"class.v8::internal::MachineType"* null }, %"class.v8::internal::CallInterfaceDescriptorData" { i32 -1, i32 -1, i32 -1, %"class.v8::base::Flags" zeroinitializer, i32 0, i32 0, %"class.v8::internal::Register"* null, %"class.v8::internal::MachineType"* null }, %"class.v8::internal::CallInterfaceDescriptorData" { i32 -1, i32 -1, i32 -1, %"class.v8::base::Flags" zeroinitializer, i32 0, i32 0, %"class.v8::internal::Register"* null, %"class.v8::internal::MachineType"* null }, %"class.v8::internal::CallInterfaceDescriptorData" { i32 -1, i32 -1, i32 -1, %"class.v8::base::Flags" zeroinitializer, i32 0, i32 0, %"class.v8::internal::Register"* null, %"class.v8::internal::MachineType"* null }, %"class.v8::internal::CallInterfaceDescriptorData" { i32 -1, i32 -1, i32 -1, %"class.v8::base::Flags" zeroinitializer, i32 0, i32 0, %"class.v8::internal::Register"* null, %"class.v8::internal::MachineType"* null }, %"class.v8::internal::CallInterfaceDescriptorData" { i32 -1, i32 -1, i32 -1, %"class.v8::base::Flags" zeroinitializer, i32 0, i32 0, %"class.v8::internal::Register"* null, %"class.v8::internal::MachineType"* null }, %"class.v8::internal::CallInterfaceDescriptorData" { i32 -1, i32 -1, i32 -1, %"class.v8::base::Flags" zeroinitializer, i32 0, i32 0, %"class.v8::internal::Register"* null, %"class.v8::internal::MachineType"* null }, %"class.v8::internal::CallInterfaceDescriptorData" { i32 -1, i32 -1, i32 -1, %"class.v8::base::Flags" zeroinitializer, i32 0, i32 0, %"class.v8::internal::Register"* null, %"class.v8::internal::MachineType"* null }, %"class.v8::internal::CallInterfaceDescriptorData" { i32 -1, i32 -1, i32 -1, %"class.v8::base::Flags" zeroinitializer, i32 0, i32 0, %"class.v8::internal::Register"* null, %"class.v8::internal::MachineType"* null }, %"class.v8::internal::CallInterfaceDescriptorData" { i32 -1, i32 -1, i32 -1, %"class.v8::base::Flags" zeroinitializer, i32 0, i32 0, %"class.v8::internal::Register"* null, %"class.v8::internal::MachineType"* null }, %"class.v8::internal::CallInterfaceDescriptorData" { i32 -1, i32 -1, i32 -1, %"class.v8::base::Flags" zeroinitializer, i32 0, i32 0, %"class.v8::internal::Register"* null, %"class.v8::internal::MachineType"* null }, %"class.v8::internal::CallInterfaceDescriptorData" { i32 -1, i32 -1, i32 -1, %"class.v8::base::Flags" zeroinitializer, i32 0, i32 0, %"class.v8::internal::Register"* null, %"class.v8::internal::MachineType"* null }, %"class.v8::internal::CallInterfaceDescriptorData" { i32 -1, i32 -1, i32 -1, %"class.v8::base::Flags" zeroinitializer, i32 0, i32 0, %"class.v8::internal::Register"* null, %"class.v8::internal::MachineType"* null }, %"class.v8::internal::CallInterfaceDescriptorData" { i32 -1, i32 -1, i32 -1, %"class.v8::base::Flags" zeroinitializer, i32 0, i32 0, %"class.v8::internal::Register"* null, %"class.v8::internal::MachineType"* null }, %"class.v8::internal::CallInterfaceDescriptorData" { i32 -1, i32 -1, i32 -1, %"class.v8::base::Flags" zeroinitializer, i32 0, i32 0, %"class.v8::internal::Register"* null, %"class.v8::internal::MachineType"* null }, %"class.v8::internal::CallInterfaceDescriptorData" { i32 -1, i32 -1, i32 -1, %"class.v8::base::Flags" zeroinitializer, i32 0, i32 0, %"class.v8::internal::Register"* null, %"class.v8::internal::MachineType"* null }, %"class.v8::internal::CallInterfaceDescriptorData" { i32 -1, i32 -1, i32 -1, %"class.v8::base::Flags" zeroinitializer, i32 0, i32 0, %"class.v8::internal::Register"* null, %"class.v8::internal::MachineType"* null }, %"class.v8::internal::CallInterfaceDescriptorData" { i32 -1, i32 -1, i32 -1, %"class.v8::base::Flags" zeroinitializer, i32 0, i32 0, %"class.v8::internal::Register"* null, %"class.v8::internal::MachineType"* null }, %"class.v8::internal::CallInterfaceDescriptorData" { i32 -1, i32 -1, i32 -1, %"class.v8::base::Flags" zeroinitializer, i32 0, i32 0, %"class.v8::internal::Register"* null, %"class.v8::internal::MachineType"* null }, %"class.v8::internal::CallInterfaceDescriptorData" { i32 -1, i32 -1, i32 -1, %"class.v8::base::Flags" zeroinitializer, i32 0, i32 0, %"class.v8::internal::Register"* null, %"class.v8::internal::MachineType"* null }, %"class.v8::internal::CallInterfaceDescriptorData" { i32 -1, i32 -1, i32 -1, %"class.v8::base::Flags" zeroinitializer, i32 0, i32 0, %"class.v8::internal::Register"* null, %"class.v8::internal::MachineType"* null }, %"class.v8::internal::CallInterfaceDescriptorData" { i32 -1, i32 -1, i32 -1, %"class.v8::base::Flags" zeroinitializer, i32 0, i32 0, %"class.v8::internal::Register"* null, %"class.v8::internal::MachineType"* null }, %"class.v8::internal::CallInterfaceDescriptorData" { i32 -1, i32 -1, i32 -1, %"class.v8::base::Flags" zeroinitializer, i32 0, i32 0, %"class.v8::internal::Register"* null, %"class.v8::internal::MachineType"* null }, %"class.v8::internal::CallInterfaceDescriptorData" { i32 -1, i32 -1, i32 -1, %"class.v8::base::Flags" zeroinitializer, i32 0, i32 0, %"class.v8::internal::Register"* null, %"class.v8::internal::MachineType"* null }, %"class.v8::internal::CallInterfaceDescriptorData" { i32 -1, i32 -1, i32 -1, %"class.v8::base::Flags" zeroinitializer, i32 0, i32 0, %"class.v8::internal::Register"* null, %"class.v8::internal::MachineType"* null }, %"class.v8::internal::CallInterfaceDescriptorData" { i32 -1, i32 -1, i32 -1, %"class.v8::base::Flags" zeroinitializer, i32 0, i32 0, %"class.v8::internal::Register"* null, %"class.v8::internal::MachineType"* null }, %"class.v8::internal::CallInterfaceDescriptorData" { i32 -1, i32 -1, i32 -1, %"class.v8::base::Flags" zeroinitializer, i32 0, i32 0, %"class.v8::internal::Register"* null, %"class.v8::internal::MachineType"* null }, %"class.v8::internal::CallInterfaceDescriptorData" { i32 -1, i32 -1, i32 -1, %"class.v8::base::Flags" zeroinitializer, i32 0, i32 0, %"class.v8::internal::Register"* null, %"class.v8::internal::MachineType"* null }, %"class.v8::internal::CallInterfaceDescriptorData" { i32 -1, i32 -1, i32 -1, %"class.v8::base::Flags" zeroinitializer, i32 0, i32 0, %"class.v8::internal::Register"* null, %"class.v8::internal::MachineType"* null }, %"class.v8::internal::CallInterfaceDescriptorData" { i32 -1, i32 -1, i32 -1, %"class.v8::base::Flags" zeroinitializer, i32 0, i32 0, %"class.v8::internal::Register"* null, %"class.v8::internal::MachineType"* null }, %"class.v8::internal::CallInterfaceDescriptorData" { i32 -1, i32 -1, i32 -1, %"class.v8::base::Flags" zeroinitializer, i32 0, i32 0, %"class.v8::internal::Register"* null, %"class.v8::internal::MachineType"* null }, %"class.v8::internal::CallInterfaceDescriptorData" { i32 -1, i32 -1, i32 -1, %"class.v8::base::Flags" zeroinitializer, i32 0, i32 0, %"class.v8::internal::Register"* null, %"class.v8::internal::MachineType"* null }, %"class.v8::internal::CallInterfaceDescriptorData" { i32 -1, i32 -1, i32 -1, %"class.v8::base::Flags" zeroinitializer, i32 0, i32 0, %"class.v8::internal::Register"* null, %"class.v8::internal::MachineType"* null }, %"class.v8::internal::CallInterfaceDescriptorData" { i32 -1, i32 -1, i32 -1, %"class.v8::base::Flags" zeroinitializer, i32 0, i32 0, %"class.v8::internal::Register"* null, %"class.v8::internal::MachineType"* null }, %"class.v8::internal::CallInterfaceDescriptorData" { i32 -1, i32 -1, i32 -1, %"class.v8::base::Flags" zeroinitializer, i32 0, i32 0, %"class.v8::internal::Register"* null, %"class.v8::internal::MachineType"* null }, %"class.v8::internal::CallInterfaceDescriptorData" { i32 -1, i32 -1, i32 -1, %"class.v8::base::Flags" zeroinitializer, i32 0, i32 0, %"class.v8::internal::Register"* null, %"class.v8::internal::MachineType"* null }, %"class.v8::internal::CallInterfaceDescriptorData" { i32 -1, i32 -1, i32 -1, %"class.v8::base::Flags" zeroinitializer, i32 0, i32 0, %"class.v8::internal::Register"* null, %"class.v8::internal::MachineType"* null }, %"class.v8::internal::CallInterfaceDescriptorData" { i32 -1, i32 -1, i32 -1, %"class.v8::base::Flags" zeroinitializer, i32 0, i32 0, %"class.v8::internal::Register"* null, %"class.v8::internal::MachineType"* null }, %"class.v8::internal::CallInterfaceDescriptorData" { i32 -1, i32 -1, i32 -1, %"class.v8::base::Flags" zeroinitializer, i32 0, i32 0, %"class.v8::internal::Register"* null, %"class.v8::internal::MachineType"* null }, %"class.v8::internal::CallInterfaceDescriptorData" { i32 -1, i32 -1, i32 -1, %"class.v8::base::Flags" zeroinitializer, i32 0, i32 0, %"class.v8::internal::Register"* null, %"class.v8::internal::MachineType"* null }, %"class.v8::internal::CallInterfaceDescriptorData" { i32 -1, i32 -1, i32 -1, %"class.v8::base::Flags" zeroinitializer, i32 0, i32 0, %"class.v8::internal::Register"* null, %"class.v8::internal::MachineType"* null }, %"class.v8::internal::CallInterfaceDescriptorData" { i32 -1, i32 -1, i32 -1, %"class.v8::base::Flags" zeroinitializer, i32 0, i32 0, %"class.v8::internal::Register"* null, %"class.v8::internal::MachineType"* null }, %"class.v8::internal::CallInterfaceDescriptorData" { i32 -1, i32 -1, i32 -1, %"class.v8::base::Flags" zeroinitializer, i32 0, i32 0, %"class.v8::internal::Register"* null, %"class.v8::internal::MachineType"* null }, %"class.v8::internal::CallInterfaceDescriptorData" { i32 -1, i32 -1, i32 -1, %"class.v8::base::Flags" zeroinitializer, i32 0, i32 0, %"class.v8::internal::Register"* null, %"class.v8::internal::MachineType"* null }, %"class.v8::internal::CallInterfaceDescriptorData" { i32 -1, i32 -1, i32 -1, %"class.v8::base::Flags" zeroinitializer, i32 0, i32 0, %"class.v8::internal::Register"* null, %"class.v8::internal::MachineType"* null }, %"class.v8::internal::CallInterfaceDescriptorData" { i32 -1, i32 -1, i32 -1, %"class.v8::base::Flags" zeroinitializer, i32 0, i32 0, %"class.v8::internal::Register"* null, %"class.v8::internal::MachineType"* null }, %"class.v8::internal::CallInterfaceDescriptorData" { i32 -1, i32 -1, i32 -1, %"class.v8::base::Flags" zeroinitializer, i32 0, i32 0, %"class.v8::internal::Register"* null, %"class.v8::internal::MachineType"* null }, %"class.v8::internal::CallInterfaceDescriptorData" { i32 -1, i32 -1, i32 -1, %"class.v8::base::Flags" zeroinitializer, i32 0, i32 0, %"class.v8::internal::Register"* null, %"class.v8::internal::MachineType"* null }, %"class.v8::internal::CallInterfaceDescriptorData" { i32 -1, i32 -1, i32 -1, %"class.v8::base::Flags" zeroinitializer, i32 0, i32 0, %"class.v8::internal::Register"* null, %"class.v8::internal::MachineType"* null }, %"class.v8::internal::CallInterfaceDescriptorData" { i32 -1, i32 -1, i32 -1, %"class.v8::base::Flags" zeroinitializer, i32 0, i32 0, %"class.v8::internal::Register"* null, %"class.v8::internal::MachineType"* null }, %"class.v8::internal::CallInterfaceDescriptorData" { i32 -1, i32 -1, i32 -1, %"class.v8::base::Flags" zeroinitializer, i32 0, i32 0, %"class.v8::internal::Register"* null, %"class.v8::internal::MachineType"* null }, %"class.v8::internal::CallInterfaceDescriptorData" { i32 -1, i32 -1, i32 -1, %"class.v8::base::Flags" zeroinitializer, i32 0, i32 0, %"class.v8::internal::Register"* null, %"class.v8::internal::MachineType"* null }, %"class.v8::internal::CallInterfaceDescriptorData" { i32 -1, i32 -1, i32 -1, %"class.v8::base::Flags" zeroinitializer, i32 0, i32 0, %"class.v8::internal::Register"* null, %"class.v8::internal::MachineType"* null }, %"class.v8::internal::CallInterfaceDescriptorData" { i32 -1, i32 -1, i32 -1, %"class.v8::base::Flags" zeroinitializer, i32 0, i32 0, %"class.v8::internal::Register"* null, %"class.v8::internal::MachineType"* null }, %"class.v8::internal::CallInterfaceDescriptorData" { i32 -1, i32 -1, i32 -1, %"class.v8::base::Flags" zeroinitializer, i32 0, i32 0, %"class.v8::internal::Register"* null, %"class.v8::internal::MachineType"* null }, %"class.v8::internal::CallInterfaceDescriptorData" { i32 -1, i32 -1, i32 -1, %"class.v8::base::Flags" zeroinitializer, i32 0, i32 0, %"class.v8::internal::Register"* null, %"class.v8::internal::MachineType"* null }, %"class.v8::internal::CallInterfaceDescriptorData" { i32 -1, i32 -1, i32 -1, %"class.v8::base::Flags" zeroinitializer, i32 0, i32 0, %"class.v8::internal::Register"* null, %"class.v8::internal::MachineType"* null }, %"class.v8::internal::CallInterfaceDescriptorData" { i32 -1, i32 -1, i32 -1, %"class.v8::base::Flags" zeroinitializer, i32 0, i32 0, %"class.v8::internal::Register"* null, %"class.v8::internal::MachineType"* null }, %"class.v8::internal::CallInterfaceDescriptorData" { i32 -1, i32 -1, i32 -1, %"class.v8::base::Flags" zeroinitializer, i32 0, i32 0, %"class.v8::internal::Register"* null, %"class.v8::internal::MachineType"* null }, %"class.v8::internal::CallInterfaceDescriptorData" { i32 -1, i32 -1, i32 -1, %"class.v8::base::Flags" zeroinitializer, i32 0, i32 0, %"class.v8::internal::Register"* null, %"class.v8::internal::MachineType"* null }, %"class.v8::internal::CallInterfaceDescriptorData" { i32 -1, i32 -1, i32 -1, %"class.v8::base::Flags" zeroinitializer, i32 0, i32 0, %"class.v8::internal::Register"* null, %"class.v8::internal::MachineType"* null }, %"class.v8::internal::CallInterfaceDescriptorData" { i32 -1, i32 -1, i32 -1, %"class.v8::base::Flags" zeroinitializer, i32 0, i32 0, %"class.v8::internal::Register"* null, %"class.v8::internal::MachineType"* null }, %"class.v8::internal::CallInterfaceDescriptorData" { i32 -1, i32 -1, i32 -1, %"class.v8::base::Flags" zeroinitializer, i32 0, i32 0, %"class.v8::internal::Register"* null, %"class.v8::internal::MachineType"* null }, %"class.v8::internal::CallInterfaceDescriptorData" { i32 -1, i32 -1, i32 -1, %"class.v8::base::Flags" zeroinitializer, i32 0, i32 0, %"class.v8::internal::Register"* null, %"class.v8::internal::MachineType"* null }, %"class.v8::internal::CallInterfaceDescriptorData" { i32 -1, i32 -1, i32 -1, %"class.v8::base::Flags" zeroinitializer, i32 0, i32 0, %"class.v8::internal::Register"* null, %"class.v8::internal::MachineType"* null }, %"class.v8::internal::CallInterfaceDescriptorData" { i32 -1, i32 -1, i32 -1, %"class.v8::base::Flags" zeroinitializer, i32 0, i32 0, %"class.v8::internal::Register"* null, %"class.v8::internal::MachineType"* null }, %"class.v8::internal::CallInterfaceDescriptorData" { i32 -1, i32 -1, i32 -1, %"class.v8::base::Flags" zeroinitializer, i32 0, i32 0, %"class.v8::internal::Register"* null, %"class.v8::internal::MachineType"* null }, %"class.v8::internal::CallInterfaceDescriptorData" { i32 -1, i32 -1, i32 -1, %"class.v8::base::Flags" zeroinitializer, i32 0, i32 0, %"class.v8::internal::Register"* null, %"class.v8::internal::MachineType"* null }, %"class.v8::internal::CallInterfaceDescriptorData" { i32 -1, i32 -1, i32 -1, %"class.v8::base::Flags" zeroinitializer, i32 0, i32 0, %"class.v8::internal::Register"* null, %"class.v8::internal::MachineType"* null }, %"class.v8::internal::CallInterfaceDescriptorData" { i32 -1, i32 -1, i32 -1, %"class.v8::base::Flags" zeroinitializer, i32 0, i32 0, %"class.v8::internal::Register"* null, %"class.v8::internal::MachineType"* null }, %"class.v8::internal::CallInterfaceDescriptorData" { i32 -1, i32 -1, i32 -1, %"class.v8::base::Flags" zeroinitializer, i32 0, i32 0, %"class.v8::internal::Register"* null, %"class.v8::internal::MachineType"* null }, %"class.v8::internal::CallInterfaceDescriptorData" { i32 -1, i32 -1, i32 -1, %"class.v8::base::Flags" zeroinitializer, i32 0, i32 0, %"class.v8::internal::Register"* null, %"class.v8::internal::MachineType"* null }, %"class.v8::internal::CallInterfaceDescriptorData" { i32 -1, i32 -1, i32 -1, %"class.v8::base::Flags" zeroinitializer, i32 0, i32 0, %"class.v8::internal::Register"* null, %"class.v8::internal::MachineType"* null }, %"class.v8::internal::CallInterfaceDescriptorData" { i32 -1, i32 -1, i32 -1, %"class.v8::base::Flags" zeroinitializer, i32 0, i32 0, %"class.v8::internal::Register"* null, %"class.v8::internal::MachineType"* null }, %"class.v8::internal::CallInterfaceDescriptorData" { i32 -1, i32 -1, i32 -1, %"class.v8::base::Flags" zeroinitializer, i32 0, i32 0, %"class.v8::internal::Register"* null, %"class.v8::internal::MachineType"* null }, %"class.v8::internal::CallInterfaceDescriptorData" { i32 -1, i32 -1, i32 -1, %"class.v8::base::Flags" zeroinitializer, i32 0, i32 0, %"class.v8::internal::Register"* null, %"class.v8::internal::MachineType"* null }, %"class.v8::internal::CallInterfaceDescriptorData" { i32 -1, i32 -1, i32 -1, %"class.v8::base::Flags" zeroinitializer, i32 0, i32 0, %"class.v8::internal::Register"* null, %"class.v8::internal::MachineType"* null }, %"class.v8::internal::CallInterfaceDescriptorData" { i32 -1, i32 -1, i32 -1, %"class.v8::base::Flags" zeroinitializer, i32 0, i32 0, %"class.v8::internal::Register"* null, %"class.v8::internal::MachineType"* null }, %"class.v8::internal::CallInterfaceDescriptorData" { i32 -1, i32 -1, i32 -1, %"class.v8::base::Flags" zeroinitializer, i32 0, i32 0, %"class.v8::internal::Register"* null, %"class.v8::internal::MachineType"* null }, %"class.v8::internal::CallInterfaceDescriptorData" { i32 -1, i32 -1, i32 -1, %"class.v8::base::Flags" zeroinitializer, i32 0, i32 0, %"class.v8::internal::Register"* null, %"class.v8::internal::MachineType"* null }, %"class.v8::internal::CallInterfaceDescriptorData" { i32 -1, i32 -1, i32 -1, %"class.v8::base::Flags" zeroinitializer, i32 0, i32 0, %"class.v8::internal::Register"* null, %"class.v8::internal::MachineType"* null }, %"class.v8::internal::CallInterfaceDescriptorData" { i32 -1, i32 -1, i32 -1, %"class.v8::base::Flags" zeroinitializer, i32 0, i32 0, %"class.v8::internal::Register"* null, %"class.v8::internal::MachineType"* null }, %"class.v8::internal::CallInterfaceDescriptorData" { i32 -1, i32 -1, i32 -1, %"class.v8::base::Flags" zeroinitializer, i32 0, i32 0, %"class.v8::internal::Register"* null, %"class.v8::internal::MachineType"* null }, %"class.v8::internal::CallInterfaceDescriptorData" { i32 -1, i32 -1, i32 -1, %"class.v8::base::Flags" zeroinitializer, i32 0, i32 0, %"class.v8::internal::Register"* null, %"class.v8::internal::MachineType"* null }, %"class.v8::internal::CallInterfaceDescriptorData" { i32 -1, i32 -1, i32 -1, %"class.v8::base::Flags" zeroinitializer, i32 0, i32 0, %"class.v8::internal::Register"* null, %"class.v8::internal::MachineType"* null }, %"class.v8::internal::CallInterfaceDescriptorData" { i32 -1, i32 -1, i32 -1, %"class.v8::base::Flags" zeroinitializer, i32 0, i32 0, %"class.v8::internal::Register"* null, %"class.v8::internal::MachineType"* null }, %"class.v8::internal::CallInterfaceDescriptorData" { i32 -1, i32 -1, i32 -1, %"class.v8::base::Flags" zeroinitializer, i32 0, i32 0, %"class.v8::internal::Register"* null, %"class.v8::internal::MachineType"* null }], align 16
@.str = private unnamed_addr constant [17 x i8] c"Abort Descriptor\00", align 1
@.str.1 = private unnamed_addr constant [20 x i8] c"Allocate Descriptor\00", align 1
@.str.2 = private unnamed_addr constant [23 x i8] c"ApiCallback Descriptor\00", align 1
@.str.3 = private unnamed_addr constant [21 x i8] c"ApiGetter Descriptor\00", align 1
@.str.4 = private unnamed_addr constant [28 x i8] c"ArrayConstructor Descriptor\00", align 1
@.str.5 = private unnamed_addr constant [38 x i8] c"ArrayNArgumentsConstructor Descriptor\00", align 1
@.str.6 = private unnamed_addr constant [38 x i8] c"ArrayNoArgumentConstructor Descriptor\00", align 1
@.str.7 = private unnamed_addr constant [42 x i8] c"ArraySingleArgumentConstructor Descriptor\00", align 1
@.str.8 = private unnamed_addr constant [39 x i8] c"AsyncFunctionStackParameter Descriptor\00", align 1
@.str.9 = private unnamed_addr constant [27 x i8] c"BigIntToI32Pair Descriptor\00", align 1
@.str.10 = private unnamed_addr constant [23 x i8] c"BigIntToI64 Descriptor\00", align 1
@.str.11 = private unnamed_addr constant [20 x i8] c"BinaryOp Descriptor\00", align 1
@.str.12 = private unnamed_addr constant [29 x i8] c"BinaryOp_Baseline Descriptor\00", align 1
@.str.13 = private unnamed_addr constant [33 x i8] c"BinaryOp_WithFeedback Descriptor\00", align 1
@.str.14 = private unnamed_addr constant [30 x i8] c"CallForwardVarargs Descriptor\00", align 1
@.str.15 = private unnamed_addr constant [32 x i8] c"CallFunctionTemplate Descriptor\00", align 1
@.str.16 = private unnamed_addr constant [26 x i8] c"CallTrampoline Descriptor\00", align 1
@.str.17 = private unnamed_addr constant [35 x i8] c"CallTrampoline_Baseline Descriptor\00", align 1
@.str.18 = private unnamed_addr constant [43 x i8] c"CallTrampoline_Baseline_Compact Descriptor\00", align 1
@.str.19 = private unnamed_addr constant [39 x i8] c"CallTrampoline_WithFeedback Descriptor\00", align 1
@.str.20 = private unnamed_addr constant [23 x i8] c"CallVarargs Descriptor\00", align 1
@.str.21 = private unnamed_addr constant [29 x i8] c"CallWithArrayLike Descriptor\00", align 1
@.str.22 = private unnamed_addr constant [42 x i8] c"CallWithArrayLike_WithFeedback Descriptor\00", align 1
@.str.23 = private unnamed_addr constant [26 x i8] c"CallWithSpread Descriptor\00", align 1
@.str.24 = private unnamed_addr constant [35 x i8] c"CallWithSpread_Baseline Descriptor\00", align 1
@.str.25 = private unnamed_addr constant [39 x i8] c"CallWithSpread_WithFeedback Descriptor\00", align 1
@.str.26 = private unnamed_addr constant [30 x i8] c"CEntry1ArgvOnStack Descriptor\00", align 1
@.str.27 = private unnamed_addr constant [31 x i8] c"CloneObjectBaseline Descriptor\00", align 1
@.str.28 = private unnamed_addr constant [33 x i8] c"CloneObjectWithVector Descriptor\00", align 1
@.str.29 = private unnamed_addr constant [19 x i8] c"Compare Descriptor\00", align 1
@.str.30 = private unnamed_addr constant [28 x i8] c"Compare_Baseline Descriptor\00", align 1
@.str.31 = private unnamed_addr constant [32 x i8] c"Compare_WithFeedback Descriptor\00", align 1
@.str.32 = private unnamed_addr constant [35 x i8] c"ConstructForwardVarargs Descriptor\00", align 1
@.str.33 = private unnamed_addr constant [25 x i8] c"ConstructStub Descriptor\00", align 1
@.str.34 = private unnamed_addr constant [28 x i8] c"ConstructVarargs Descriptor\00", align 1
@.str.35 = private unnamed_addr constant [34 x i8] c"ConstructWithArrayLike Descriptor\00", align 1
@.str.36 = private unnamed_addr constant [47 x i8] c"ConstructWithArrayLike_WithFeedback Descriptor\00", align 1
@.str.37 = private unnamed_addr constant [34 x i8] c"Construct_WithFeedback Descriptor\00", align 1
@.str.38 = private unnamed_addr constant [30 x i8] c"Construct_Baseline Descriptor\00", align 1
@.str.39 = private unnamed_addr constant [31 x i8] c"ConstructWithSpread Descriptor\00", align 1
@.str.40 = private unnamed_addr constant [40 x i8] c"ConstructWithSpread_Baseline Descriptor\00", align 1
@.str.41 = private unnamed_addr constant [44 x i8] c"ConstructWithSpread_WithFeedback Descriptor\00", align 1
@.str.42 = private unnamed_addr constant [23 x i8] c"ContextOnly Descriptor\00", align 1
@.str.43 = private unnamed_addr constant [29 x i8] c"CppBuiltinAdaptor Descriptor\00", align 1
@.str.44 = private unnamed_addr constant [28 x i8] c"DynamicCheckMaps Descriptor\00", align 1
@.str.45 = private unnamed_addr constant [25 x i8] c"FastNewObject Descriptor\00", align 1
@.str.46 = private unnamed_addr constant [24 x i8] c"ForInPrepare Descriptor\00", align 1
@.str.47 = private unnamed_addr constant [37 x i8] c"GetIteratorStackParameter Descriptor\00", align 1
@.str.48 = private unnamed_addr constant [23 x i8] c"GetProperty Descriptor\00", align 1
@.str.49 = private unnamed_addr constant [29 x i8] c"GrowArrayElements Descriptor\00", align 1
@.str.50 = private unnamed_addr constant [27 x i8] c"I32PairToBigInt Descriptor\00", align 1
@.str.51 = private unnamed_addr constant [23 x i8] c"I64ToBigInt Descriptor\00", align 1
@.str.52 = private unnamed_addr constant [30 x i8] c"InterpreterCEntry1 Descriptor\00", align 1
@.str.53 = private unnamed_addr constant [30 x i8] c"InterpreterCEntry2 Descriptor\00", align 1
@.str.54 = private unnamed_addr constant [31 x i8] c"InterpreterDispatch Descriptor\00", align 1
@.str.55 = private unnamed_addr constant [37 x i8] c"TailCallOptimizedCodeSlot Descriptor\00", align 1
@.str.56 = private unnamed_addr constant [39 x i8] c"InterpreterPushArgsThenCall Descriptor\00", align 1
@.str.57 = private unnamed_addr constant [44 x i8] c"InterpreterPushArgsThenConstruct Descriptor\00", align 1
@.str.58 = private unnamed_addr constant [24 x i8] c"JSTrampoline Descriptor\00", align 1
@.str.59 = private unnamed_addr constant [37 x i8] c"BaselineOutOfLinePrologue Descriptor\00", align 1
@.str.60 = private unnamed_addr constant [30 x i8] c"BaselineLeaveFrame Descriptor\00", align 1
@.str.61 = private unnamed_addr constant [16 x i8] c"Load Descriptor\00", align 1
@.str.62 = private unnamed_addr constant [24 x i8] c"LoadBaseline Descriptor\00", align 1
@.str.63 = private unnamed_addr constant [22 x i8] c"LoadGlobal Descriptor\00", align 1
@.str.64 = private unnamed_addr constant [30 x i8] c"LoadGlobalBaseline Descriptor\00", align 1
@.str.65 = private unnamed_addr constant [32 x i8] c"LoadGlobalNoFeedback Descriptor\00", align 1
@.str.66 = private unnamed_addr constant [32 x i8] c"LoadGlobalWithVector Descriptor\00", align 1
@.str.67 = private unnamed_addr constant [26 x i8] c"LoadNoFeedback Descriptor\00", align 1
@.str.68 = private unnamed_addr constant [26 x i8] c"LoadWithVector Descriptor\00", align 1
@.str.69 = private unnamed_addr constant [37 x i8] c"LoadWithReceiverAndVector Descriptor\00", align 1
@.str.70 = private unnamed_addr constant [36 x i8] c"LoadWithReceiverBaseline Descriptor\00", align 1
@.str.71 = private unnamed_addr constant [26 x i8] c"LookupBaseline Descriptor\00", align 1
@.str.72 = private unnamed_addr constant [21 x i8] c"NoContext Descriptor\00", align 1
@.str.73 = private unnamed_addr constant [27 x i8] c"ResumeGenerator Descriptor\00", align 1
@.str.74 = private unnamed_addr constant [36 x i8] c"SuspendGeneratorBaseline Descriptor\00", align 1
@.str.75 = private unnamed_addr constant [35 x i8] c"ResumeGeneratorBaseline Descriptor\00", align 1
@.str.76 = private unnamed_addr constant [25 x i8] c"RunMicrotasks Descriptor\00", align 1
@.str.77 = private unnamed_addr constant [30 x i8] c"RunMicrotasksEntry Descriptor\00", align 1
@.str.78 = private unnamed_addr constant [34 x i8] c"SingleParameterOnStack Descriptor\00", align 1
@.str.79 = private unnamed_addr constant [17 x i8] c"Store Descriptor\00", align 1
@.str.80 = private unnamed_addr constant [25 x i8] c"StoreBaseline Descriptor\00", align 1
@.str.81 = private unnamed_addr constant [23 x i8] c"StoreGlobal Descriptor\00", align 1
@.str.82 = private unnamed_addr constant [31 x i8] c"StoreGlobalBaseline Descriptor\00", align 1
@.str.83 = private unnamed_addr constant [33 x i8] c"StoreGlobalWithVector Descriptor\00", align 1
@.str.84 = private unnamed_addr constant [27 x i8] c"StoreTransition Descriptor\00", align 1
@.str.85 = private unnamed_addr constant [27 x i8] c"StoreWithVector Descriptor\00", align 1
@.str.86 = private unnamed_addr constant [20 x i8] c"StringAt Descriptor\00", align 1
@.str.87 = private unnamed_addr constant [28 x i8] c"StringAtAsString Descriptor\00", align 1
@.str.88 = private unnamed_addr constant [27 x i8] c"StringSubstring Descriptor\00", align 1
@.str.89 = private unnamed_addr constant [26 x i8] c"TypeConversion Descriptor\00", align 1
@.str.90 = private unnamed_addr constant [35 x i8] c"TypeConversionNoContext Descriptor\00", align 1
@.str.91 = private unnamed_addr constant [35 x i8] c"TypeConversion_Baseline Descriptor\00", align 1
@.str.92 = private unnamed_addr constant [18 x i8] c"Typeof Descriptor\00", align 1
@.str.93 = private unnamed_addr constant [28 x i8] c"UnaryOp_Baseline Descriptor\00", align 1
@.str.94 = private unnamed_addr constant [32 x i8] c"UnaryOp_WithFeedback Descriptor\00", align 1
@.str.95 = private unnamed_addr constant [16 x i8] c"Void Descriptor\00", align 1
@.str.96 = private unnamed_addr constant [31 x i8] c"WasmFloat32ToNumber Descriptor\00", align 1
@.str.97 = private unnamed_addr constant [31 x i8] c"WasmFloat64ToNumber Descriptor\00", align 1
@.str.98 = private unnamed_addr constant [31 x i8] c"WasmI32AtomicWait32 Descriptor\00", align 1
@.str.99 = private unnamed_addr constant [31 x i8] c"WasmI64AtomicWait32 Descriptor\00", align 1
@.str.100 = private unnamed_addr constant [24 x i8] c"WriteBarrier Descriptor\00", align 1
@.str.101 = private unnamed_addr constant [26 x i8] c"FastNewClosure Descriptor\00", align 1
@.str.102 = private unnamed_addr constant [37 x i8] c"OrderedHashTableHealIndex Descriptor\00", align 1
@.str.103 = private unnamed_addr constant [39 x i8] c"CopyFastSmiOrObjectElements Descriptor\00", align 1
@.str.104 = private unnamed_addr constant [28 x i8] c"EnqueueMicrotask Descriptor\00", align 1
@.str.105 = private unnamed_addr constant [23 x i8] c"HasProperty Descriptor\00", align 1
@.str.106 = private unnamed_addr constant [26 x i8] c"DeleteProperty Descriptor\00", align 1
@.str.107 = private unnamed_addr constant [30 x i8] c"CopyDataProperties Descriptor\00", align 1
@.str.108 = private unnamed_addr constant [29 x i8] c"SetDataProperties Descriptor\00", align 1
@.str.109 = private unnamed_addr constant [36 x i8] c"ArrayIncludesSmiOrObject Descriptor\00", align 1
@.str.110 = private unnamed_addr constant [38 x i8] c"ArrayIncludesPackedDoubles Descriptor\00", align 1
@.str.111 = private unnamed_addr constant [37 x i8] c"ArrayIncludesHoleyDoubles Descriptor\00", align 1
@.str.112 = private unnamed_addr constant [35 x i8] c"ArrayIndexOfSmiOrObject Descriptor\00", align 1
@.str.113 = private unnamed_addr constant [37 x i8] c"ArrayIndexOfPackedDoubles Descriptor\00", align 1
@.str.114 = private unnamed_addr constant [36 x i8] c"ArrayIndexOfHoleyDoubles Descriptor\00", align 1
@.str.115 = private unnamed_addr constant [28 x i8] c"CloneFastJSArray Descriptor\00", align 1
@.str.116 = private unnamed_addr constant [40 x i8] c"CloneFastJSArrayFillingHoles Descriptor\00", align 1
@.str.117 = private unnamed_addr constant [30 x i8] c"ExtractFastJSArray Descriptor\00", align 1
@.str.118 = private unnamed_addr constant [28 x i8] c"FlattenIntoArray Descriptor\00", align 1
@.str.119 = private unnamed_addr constant [28 x i8] c"FlatMapIntoArray Descriptor\00", align 1
@.str.120 = private unnamed_addr constant [30 x i8] c"AsyncFunctionEnter Descriptor\00", align 1
@.str.121 = private unnamed_addr constant [31 x i8] c"AsyncFunctionReject Descriptor\00", align 1
@.str.122 = private unnamed_addr constant [32 x i8] c"AsyncFunctionResolve Descriptor\00", align 1
@.str.123 = private unnamed_addr constant [36 x i8] c"AsyncFunctionAwaitCaught Descriptor\00", align 1
@.str.124 = private unnamed_addr constant [38 x i8] c"AsyncFunctionAwaitUncaught Descriptor\00", align 1
@.str.125 = private unnamed_addr constant [34 x i8] c"CreateIterResultObject Descriptor\00", align 1
@.str.126 = private unnamed_addr constant [33 x i8] c"CreateGeneratorObject Descriptor\00", align 1
@.str.127 = private unnamed_addr constant [26 x i8] c"IterableToList Descriptor\00", align 1
@.str.128 = private unnamed_addr constant [32 x i8] c"IterableToFixedArray Descriptor\00", align 1
@.str.129 = private unnamed_addr constant [42 x i8] c"IterableToListWithSymbolLookup Descriptor\00", align 1
@.str.130 = private unnamed_addr constant [52 x i8] c"IterableToFixedArrayWithSymbolLookupSlow Descriptor\00", align 1
@.str.131 = private unnamed_addr constant [42 x i8] c"IterableToListMayPreserveHoles Descriptor\00", align 1
@.str.132 = private unnamed_addr constant [39 x i8] c"IterableToFixedArrayForWasm Descriptor\00", align 1
@.str.133 = private unnamed_addr constant [34 x i8] c"StringListFromIterable Descriptor\00", align 1
@.str.134 = private unnamed_addr constant [35 x i8] c"FindOrderedHashMapEntry Descriptor\00", align 1
@.str.135 = private unnamed_addr constant [29 x i8] c"MapIteratorToList Descriptor\00", align 1
@.str.136 = private unnamed_addr constant [26 x i8] c"ObjectToString Descriptor\00", align 1
@.str.137 = private unnamed_addr constant [26 x i8] c"ForInEnumerate Descriptor\00", align 1
@.str.138 = private unnamed_addr constant [23 x i8] c"ForInFilter Descriptor\00", align 1
@.str.139 = private unnamed_addr constant [26 x i8] c"RegExpExecAtom Descriptor\00", align 1
@.str.140 = private unnamed_addr constant [30 x i8] c"RegExpExecInternal Descriptor\00", align 1
@.str.141 = private unnamed_addr constant [34 x i8] c"SetOrSetIteratorToList Descriptor\00", align 1
@.str.142 = private unnamed_addr constant [34 x i8] c"WeakMapLookupHashIndex Descriptor\00", align 1
@.str.143 = private unnamed_addr constant [32 x i8] c"WeakCollectionDelete Descriptor\00", align 1
@.str.144 = private unnamed_addr constant [29 x i8] c"WeakCollectionSet Descriptor\00", align 1
@.str.145 = private unnamed_addr constant [33 x i8] c"AsyncGeneratorResolve Descriptor\00", align 1
@.str.146 = private unnamed_addr constant [32 x i8] c"AsyncGeneratorReject Descriptor\00", align 1
@.str.147 = private unnamed_addr constant [31 x i8] c"AsyncGeneratorYield Descriptor\00", align 1
@.str.148 = private unnamed_addr constant [32 x i8] c"AsyncGeneratorReturn Descriptor\00", align 1
@.str.149 = private unnamed_addr constant [36 x i8] c"AsyncGeneratorResumeNext Descriptor\00", align 1
@.str.150 = private unnamed_addr constant [37 x i8] c"AsyncGeneratorAwaitCaught Descriptor\00", align 1
@.str.151 = private unnamed_addr constant [39 x i8] c"AsyncGeneratorAwaitUncaught Descriptor\00", align 1
@.str.152 = private unnamed_addr constant [31 x i8] c"StringAdd_CheckNone Descriptor\00", align 1
@.str.153 = private unnamed_addr constant [21 x i8] c"SubString Descriptor\00", align 1
@.str.154 = private unnamed_addr constant [35 x i8] c"GetPropertyWithReceiver Descriptor\00", align 1
@.str.155 = private unnamed_addr constant [23 x i8] c"SetProperty Descriptor\00", align 1
@.str.156 = private unnamed_addr constant [32 x i8] c"SetPropertyInLiteral Descriptor\00", align 1
@.str.157 = private unnamed_addr constant [33 x i8] c"StringToLowerCaseIntl Descriptor\00", align 1
@.str.158 = private unnamed_addr constant [38 x i8] c"ArrayEveryLoopContinuation Descriptor\00", align 1
@.str.159 = private unnamed_addr constant [39 x i8] c"ArrayFilterLoopContinuation Descriptor\00", align 1
@.str.160 = private unnamed_addr constant [37 x i8] c"ArrayFindLoopContinuation Descriptor\00", align 1
@.str.161 = private unnamed_addr constant [42 x i8] c"ArrayFindIndexLoopContinuation Descriptor\00", align 1
@.str.162 = private unnamed_addr constant [40 x i8] c"ArrayForEachLoopContinuation Descriptor\00", align 1
@.str.163 = private unnamed_addr constant [48 x i8] c"LoadJoinElement_DictionaryElements_0 Descriptor\00", align 1
@.str.164 = private unnamed_addr constant [53 x i8] c"LoadJoinElement_FastSmiOrObjectElements_0 Descriptor\00", align 1
@.str.165 = private unnamed_addr constant [48 x i8] c"LoadJoinElement_FastDoubleElements_0 Descriptor\00", align 1
@.str.166 = private unnamed_addr constant [33 x i8] c"ConvertToLocaleString Descriptor\00", align 1
@.str.167 = private unnamed_addr constant [25 x i8] c"JoinStackPush Descriptor\00", align 1
@.str.168 = private unnamed_addr constant [24 x i8] c"JoinStackPop Descriptor\00", align 1
@.str.169 = private unnamed_addr constant [36 x i8] c"ArrayMapLoopContinuation Descriptor\00", align 1
@.str.170 = private unnamed_addr constant [44 x i8] c"ArrayReduceRightLoopContinuation Descriptor\00", align 1
@.str.171 = private unnamed_addr constant [39 x i8] c"ArrayReduceLoopContinuation Descriptor\00", align 1
@.str.172 = private unnamed_addr constant [37 x i8] c"ArraySomeLoopContinuation Descriptor\00", align 1
@.str.173 = private unnamed_addr constant [21 x i8] c"ToInteger Descriptor\00", align 1
@.str.174 = private unnamed_addr constant [34 x i8] c"FastCreateDataProperty Descriptor\00", align 1
@.str.175 = private unnamed_addr constant [30 x i8] c"CheckNumberInRange Descriptor\00", align 1
@.str.176 = private unnamed_addr constant [27 x i8] c"CheckSameObject Descriptor\00", align 1
@.str.177 = private unnamed_addr constant [28 x i8] c"BigIntAddNoThrow Descriptor\00", align 1
@.str.178 = private unnamed_addr constant [21 x i8] c"BigIntAdd Descriptor\00", align 1
@.str.179 = private unnamed_addr constant [33 x i8] c"BigIntSubtractNoThrow Descriptor\00", align 1
@.str.180 = private unnamed_addr constant [26 x i8] c"BigIntSubtract Descriptor\00", align 1
@.str.181 = private unnamed_addr constant [28 x i8] c"BigIntUnaryMinus Descriptor\00", align 1
@.str.182 = private unnamed_addr constant [20 x i8] c"ToString Descriptor\00", align 1
@.str.183 = private unnamed_addr constant [24 x i8] c"StringToList Descriptor\00", align 1
@.str.184 = private unnamed_addr constant [32 x i8] c"StringAddConvertLeft Descriptor\00", align 1
@.str.185 = private unnamed_addr constant [33 x i8] c"StringAddConvertRight Descriptor\00", align 1
@.str.186 = private unnamed_addr constant [24 x i8] c"StringCharAt Descriptor\00", align 1
@.str.187 = private unnamed_addr constant [34 x i8] c"FastNewClosureBaseline Descriptor\00", align 1
@.str.188 = private unnamed_addr constant [38 x i8] c"FastNewFunctionContextEval Descriptor\00", align 1
@.str.189 = private unnamed_addr constant [42 x i8] c"FastNewFunctionContextFunction Descriptor\00", align 1
@.str.190 = private unnamed_addr constant [31 x i8] c"CreateRegExpLiteral Descriptor\00", align 1
@.str.191 = private unnamed_addr constant [37 x i8] c"CreateShallowArrayLiteral Descriptor\00", align 1
@.str.192 = private unnamed_addr constant [35 x i8] c"CreateEmptyArrayLiteral Descriptor\00", align 1
@.str.193 = private unnamed_addr constant [38 x i8] c"CreateShallowObjectLiteral Descriptor\00", align 1
@.str.194 = private unnamed_addr constant [36 x i8] c"CreateEmptyLiteralObject Descriptor\00", align 1
@.str.195 = private unnamed_addr constant [26 x i8] c"StringToNumber Descriptor\00", align 1
@.str.196 = private unnamed_addr constant [29 x i8] c"NonNumberToNumber Descriptor\00", align 1
@.str.197 = private unnamed_addr constant [30 x i8] c"NonNumberToNumeric Descriptor\00", align 1
@.str.198 = private unnamed_addr constant [21 x i8] c"ToNumeric Descriptor\00", align 1
@.str.199 = private unnamed_addr constant [26 x i8] c"NumberToString Descriptor\00", align 1
@.str.200 = private unnamed_addr constant [21 x i8] c"ToBoolean Descriptor\00", align 1
@.str.201 = private unnamed_addr constant [36 x i8] c"ToBooleanForBaselineJump Descriptor\00", align 1
@.str.202 = private unnamed_addr constant [20 x i8] c"ToLength Descriptor\00", align 1
@.str.203 = private unnamed_addr constant [18 x i8] c"ToName Descriptor\00", align 1
@.str.204 = private unnamed_addr constant [20 x i8] c"ToObject Descriptor\00", align 1
@.str.205 = private unnamed_addr constant [43 x i8] c"NonPrimitiveToPrimitive_Default Descriptor\00", align 1
@.str.206 = private unnamed_addr constant [42 x i8] c"NonPrimitiveToPrimitive_Number Descriptor\00", align 1
@.str.207 = private unnamed_addr constant [42 x i8] c"NonPrimitiveToPrimitive_String Descriptor\00", align 1
@.str.208 = private unnamed_addr constant [38 x i8] c"OrdinaryToPrimitive_Number Descriptor\00", align 1
@.str.209 = private unnamed_addr constant [38 x i8] c"OrdinaryToPrimitive_String Descriptor\00", align 1
@.str.210 = private unnamed_addr constant [27 x i8] c"IncBlockCounter Descriptor\00", align 1
@.str.211 = private unnamed_addr constant [29 x i8] c"GetTemplateObject Descriptor\00", align 1
@.str.212 = private unnamed_addr constant [43 x i8] c"BytecodeBudgetInterruptFromCode Descriptor\00", align 1
@.str.213 = private unnamed_addr constant [21 x i8] c"ForInNext Descriptor\00", align 1
@.str.214 = private unnamed_addr constant [39 x i8] c"GetImportMetaObjectBaseline Descriptor\00", align 1
@.str.215 = private unnamed_addr constant [35 x i8] c"GetIteratorWithFeedback Descriptor\00", align 1
@.str.216 = private unnamed_addr constant [31 x i8] c"GetIteratorBaseline Descriptor\00", align 1
@.str.217 = private unnamed_addr constant [47 x i8] c"CreateAsyncFromSyncIteratorBaseline Descriptor\00", align 1
@.str.218 = private unnamed_addr constant [36 x i8] c"CallIteratorWithFeedback Descriptor\00", align 1
@.str.219 = private unnamed_addr constant [20 x i8] c"ParseInt Descriptor\00", align 1
@.str.220 = private unnamed_addr constant [15 x i8] c"Add Descriptor\00", align 1
@.str.221 = private unnamed_addr constant [20 x i8] c"Subtract Descriptor\00", align 1
@.str.222 = private unnamed_addr constant [20 x i8] c"Multiply Descriptor\00", align 1
@.str.223 = private unnamed_addr constant [18 x i8] c"Divide Descriptor\00", align 1
@.str.224 = private unnamed_addr constant [19 x i8] c"Modulus Descriptor\00", align 1
@.str.225 = private unnamed_addr constant [24 x i8] c"Exponentiate Descriptor\00", align 1
@.str.226 = private unnamed_addr constant [18 x i8] c"Negate Descriptor\00", align 1
@.str.227 = private unnamed_addr constant [22 x i8] c"BitwiseNot Descriptor\00", align 1
@.str.228 = private unnamed_addr constant [21 x i8] c"Decrement Descriptor\00", align 1
@.str.229 = private unnamed_addr constant [21 x i8] c"Increment Descriptor\00", align 1
@.str.230 = private unnamed_addr constant [21 x i8] c"ShiftLeft Descriptor\00", align 1
@.str.231 = private unnamed_addr constant [22 x i8] c"ShiftRight Descriptor\00", align 1
@.str.232 = private unnamed_addr constant [29 x i8] c"ShiftRightLogical Descriptor\00", align 1
@.str.233 = private unnamed_addr constant [22 x i8] c"BitwiseAnd Descriptor\00", align 1
@.str.234 = private unnamed_addr constant [21 x i8] c"BitwiseOr Descriptor\00", align 1
@.str.235 = private unnamed_addr constant [22 x i8] c"BitwiseXor Descriptor\00", align 1
@.str.236 = private unnamed_addr constant [20 x i8] c"LessThan Descriptor\00", align 1
@.str.237 = private unnamed_addr constant [27 x i8] c"LessThanOrEqual Descriptor\00", align 1
@.str.238 = private unnamed_addr constant [23 x i8] c"GreaterThan Descriptor\00", align 1
@.str.239 = private unnamed_addr constant [30 x i8] c"GreaterThanOrEqual Descriptor\00", align 1
@.str.240 = private unnamed_addr constant [17 x i8] c"Equal Descriptor\00", align 1
@.str.241 = private unnamed_addr constant [23 x i8] c"StrictEqual Descriptor\00", align 1
@.str.242 = private unnamed_addr constant [41 x i8] c"CreateObjectWithoutProperties Descriptor\00", align 1
@.str.243 = private unnamed_addr constant [26 x i8] c"FulfillPromise Descriptor\00", align 1
@.str.244 = private unnamed_addr constant [25 x i8] c"RejectPromise Descriptor\00", align 1
@.str.245 = private unnamed_addr constant [32 x i8] c"NewPromiseCapability Descriptor\00", align 1
@.str.246 = private unnamed_addr constant [30 x i8] c"PerformPromiseThen Descriptor\00", align 1
@.str.247 = private unnamed_addr constant [37 x i8] c"PromiseFulfillReactionJob Descriptor\00", align 1
@.str.248 = private unnamed_addr constant [36 x i8] c"PromiseRejectReactionJob Descriptor\00", align 1
@.str.249 = private unnamed_addr constant [26 x i8] c"PromiseResolve Descriptor\00", align 1
@.str.250 = private unnamed_addr constant [26 x i8] c"ResolvePromise Descriptor\00", align 1
@.str.251 = private unnamed_addr constant [37 x i8] c"PromiseResolveThenableJob Descriptor\00", align 1
@.str.252 = private unnamed_addr constant [31 x i8] c"ProxyDeleteProperty Descriptor\00", align 1
@.str.253 = private unnamed_addr constant [28 x i8] c"ProxyGetProperty Descriptor\00", align 1
@.str.254 = private unnamed_addr constant [31 x i8] c"ProxyGetPrototypeOf Descriptor\00", align 1
@.str.255 = private unnamed_addr constant [28 x i8] c"ProxyHasProperty Descriptor\00", align 1
@.str.256 = private unnamed_addr constant [29 x i8] c"ProxyIsExtensible Descriptor\00", align 1
@.str.257 = private unnamed_addr constant [34 x i8] c"ProxyPreventExtensions Descriptor\00", align 1
@.str.258 = private unnamed_addr constant [28 x i8] c"ProxySetProperty Descriptor\00", align 1
@.str.259 = private unnamed_addr constant [31 x i8] c"ProxySetPrototypeOf Descriptor\00", align 1
@.str.260 = private unnamed_addr constant [35 x i8] c"RegExpPrototypeExecSlow Descriptor\00", align 1
@.str.261 = private unnamed_addr constant [27 x i8] c"RegExpMatchFast Descriptor\00", align 1
@.str.262 = private unnamed_addr constant [25 x i8] c"RegExpReplace Descriptor\00", align 1
@.str.263 = private unnamed_addr constant [28 x i8] c"RegExpSearchFast Descriptor\00", align 1
@.str.264 = private unnamed_addr constant [23 x i8] c"RegExpSplit Descriptor\00", align 1
@.str.265 = private unnamed_addr constant [35 x i8] c"RegExpPrototypeTestFast Descriptor\00", align 1
@.str.266 = private unnamed_addr constant [22 x i8] c"CreateHTML Descriptor\00", align 1
@.str.267 = private unnamed_addr constant [24 x i8] c"StringRepeat Descriptor\00", align 1
@.str.268 = private unnamed_addr constant [28 x i8] c"CreateTypedArray Descriptor\00", align 1
@.str.269 = private unnamed_addr constant [31 x i8] c"TypedArrayMergeSort Descriptor\00", align 1
@.str.270 = private unnamed_addr constant [38 x i8] c"NewSloppyArgumentsElements Descriptor\00", align 1
@.str.271 = private unnamed_addr constant [38 x i8] c"NewStrictArgumentsElements Descriptor\00", align 1
@.str.272 = private unnamed_addr constant [36 x i8] c"NewRestArgumentsElements Descriptor\00", align 1
@.str.273 = private unnamed_addr constant [34 x i8] c"FastNewSloppyArguments Descriptor\00", align 1
@.str.274 = private unnamed_addr constant [34 x i8] c"FastNewStrictArguments Descriptor\00", align 1
@.str.275 = private unnamed_addr constant [32 x i8] c"FastNewRestArguments Descriptor\00", align 1
@.str.276 = private unnamed_addr constant [29 x i8] c"StringSlowFlatten Descriptor\00", align 1
@.str.277 = private unnamed_addr constant [25 x i8] c"StringIndexOf Descriptor\00", align 1
@.str.278 = private unnamed_addr constant [38 x i8] c"GenericBuiltinTest_JSAny_0 Descriptor\00", align 1
@.str.279 = private unnamed_addr constant [27 x i8] c"TestHelperPlus1 Descriptor\00", align 1
@.str.280 = private unnamed_addr constant [27 x i8] c"TestHelperPlus2 Descriptor\00", align 1
@.str.281 = private unnamed_addr constant [21 x i8] c"NewSmiBox Descriptor\00", align 1
@.str.282 = private unnamed_addr constant [27 x i8] c"ReturnTwoValues Descriptor\00", align 1
@.str.283 = private unnamed_addr constant [34 x i8] c"Load_FastSmiElements_0 Descriptor\00", align 1
@.str.284 = private unnamed_addr constant [37 x i8] c"Load_FastObjectElements_0 Descriptor\00", align 1
@.str.285 = private unnamed_addr constant [37 x i8] c"Load_FastDoubleElements_0 Descriptor\00", align 1
@.str.286 = private unnamed_addr constant [35 x i8] c"Store_FastSmiElements_0 Descriptor\00", align 1
@.str.287 = private unnamed_addr constant [38 x i8] c"Store_FastObjectElements_0 Descriptor\00", align 1
@.str.288 = private unnamed_addr constant [38 x i8] c"Store_FastDoubleElements_0 Descriptor\00", align 1
@.str.289 = private unnamed_addr constant [36 x i8] c"Delete_FastSmiElements_0 Descriptor\00", align 1
@.str.290 = private unnamed_addr constant [39 x i8] c"Delete_FastObjectElements_0 Descriptor\00", align 1
@.str.291 = private unnamed_addr constant [39 x i8] c"Delete_FastDoubleElements_0 Descriptor\00", align 1
@.str.292 = private unnamed_addr constant [30 x i8] c"SortCompareDefault Descriptor\00", align 1
@.str.293 = private unnamed_addr constant [29 x i8] c"SortCompareUserFn Descriptor\00", align 1
@.str.294 = private unnamed_addr constant [56 x i8] c"CanUseSameAccessor_GenericElementsAccessor_0 Descriptor\00", align 1
@.str.295 = private unnamed_addr constant [16 x i8] c"Copy Descriptor\00", align 1
@.str.296 = private unnamed_addr constant [19 x i8] c"MergeAt Descriptor\00", align 1
@.str.297 = private unnamed_addr constant [22 x i8] c"GallopLeft Descriptor\00", align 1
@.str.298 = private unnamed_addr constant [23 x i8] c"GallopRight Descriptor\00", align 1
@.str.299 = private unnamed_addr constant [24 x i8] c"ArrayTimSort Descriptor\00", align 1
@.str.300 = private unnamed_addr constant [33 x i8] c"WasmInt32ToHeapNumber Descriptor\00", align 1
@.str.301 = private unnamed_addr constant [35 x i8] c"WasmTaggedNonSmiToInt32 Descriptor\00", align 1
@.str.302 = private unnamed_addr constant [31 x i8] c"WasmTaggedToFloat64 Descriptor\00", align 1
@.str.303 = private unnamed_addr constant [26 x i8] c"WasmMemoryGrow Descriptor\00", align 1
@.str.304 = private unnamed_addr constant [25 x i8] c"WasmTableInit Descriptor\00", align 1
@.str.305 = private unnamed_addr constant [25 x i8] c"WasmTableCopy Descriptor\00", align 1
@.str.306 = private unnamed_addr constant [25 x i8] c"WasmTableFill Descriptor\00", align 1
@.str.307 = private unnamed_addr constant [25 x i8] c"WasmTableGrow Descriptor\00", align 1
@.str.308 = private unnamed_addr constant [24 x i8] c"WasmTableGet Descriptor\00", align 1
@.str.309 = private unnamed_addr constant [24 x i8] c"WasmTableSet Descriptor\00", align 1
@.str.310 = private unnamed_addr constant [23 x i8] c"WasmRefFunc Descriptor\00", align 1
@.str.311 = private unnamed_addr constant [34 x i8] c"WasmAllocateFixedArray Descriptor\00", align 1
@.str.312 = private unnamed_addr constant [21 x i8] c"WasmThrow Descriptor\00", align 1
@.str.313 = private unnamed_addr constant [23 x i8] c"WasmRethrow Descriptor\00", align 1
@.str.314 = private unnamed_addr constant [29 x i8] c"WasmTriggerTierUp Descriptor\00", align 1
@.str.315 = private unnamed_addr constant [26 x i8] c"WasmStackGuard Descriptor\00", align 1
@.str.316 = private unnamed_addr constant [29 x i8] c"WasmStackOverflow Descriptor\00", align 1
@.str.317 = private unnamed_addr constant [27 x i8] c"WasmTraceMemory Descriptor\00", align 1
@.str.318 = private unnamed_addr constant [26 x i8] c"WasmTraceEnter Descriptor\00", align 1
@.str.319 = private unnamed_addr constant [25 x i8] c"WasmTraceExit Descriptor\00", align 1
@.str.320 = private unnamed_addr constant [31 x i8] c"WasmAllocateJSArray Descriptor\00", align 1
@.str.321 = private unnamed_addr constant [28 x i8] c"WasmAllocatePair Descriptor\00", align 1
@.str.322 = private unnamed_addr constant [27 x i8] c"WasmAllocateRtt Descriptor\00", align 1
@.str.323 = private unnamed_addr constant [37 x i8] c"WasmAllocateStructWithRtt Descriptor\00", align 1
@.str.324 = private unnamed_addr constant [36 x i8] c"WasmAllocateArrayWithRtt Descriptor\00", align 1
@.str.325 = private unnamed_addr constant [35 x i8] c"WasmArrayCopyWithChecks Descriptor\00", align 1
@.str.326 = private unnamed_addr constant [25 x i8] c"WasmArrayCopy Descriptor\00", align 1
@.str.327 = private unnamed_addr constant [37 x i8] c"WasmAllocateObjectWrapper Descriptor\00", align 1
@.str.328 = private unnamed_addr constant [28 x i8] c"WasmSubtypeCheck Descriptor\00", align 1
@.str.329 = private unnamed_addr constant [29 x i8] c"WasmInt32ToNumber Descriptor\00", align 1
@.str.330 = private unnamed_addr constant [30 x i8] c"WasmUint32ToNumber Descriptor\00", align 1
@.str.331 = private unnamed_addr constant [29 x i8] c"UintPtr53ToNumber Descriptor\00", align 1
@.str.332 = private unnamed_addr constant [28 x i8] c"WasmAtomicNotify Descriptor\00", align 1
@.str.333 = private unnamed_addr constant [31 x i8] c"WasmI32AtomicWait64 Descriptor\00", align 1
@.str.334 = private unnamed_addr constant [31 x i8] c"WasmI64AtomicWait64 Descriptor\00", align 1
@.str.335 = private unnamed_addr constant [30 x i8] c"WasmGetOwnProperty Descriptor\00", align 1
@.str.336 = private unnamed_addr constant [20 x i8] c"WasmTrap Descriptor\00", align 1
@.str.337 = private unnamed_addr constant [36 x i8] c"ThrowWasmTrapUnreachable Descriptor\00", align 1
@.str.338 = private unnamed_addr constant [39 x i8] c"ThrowWasmTrapMemOutOfBounds Descriptor\00", align 1
@.str.339 = private unnamed_addr constant [40 x i8] c"ThrowWasmTrapUnalignedAccess Descriptor\00", align 1
@.str.340 = private unnamed_addr constant [34 x i8] c"ThrowWasmTrapDivByZero Descriptor\00", align 1
@.str.341 = private unnamed_addr constant [43 x i8] c"ThrowWasmTrapDivUnrepresentable Descriptor\00", align 1
@.str.342 = private unnamed_addr constant [34 x i8] c"ThrowWasmTrapRemByZero Descriptor\00", align 1
@.str.343 = private unnamed_addr constant [45 x i8] c"ThrowWasmTrapFloatUnrepresentable Descriptor\00", align 1
@.str.344 = private unnamed_addr constant [40 x i8] c"ThrowWasmTrapFuncSigMismatch Descriptor\00", align 1
@.str.345 = private unnamed_addr constant [43 x i8] c"ThrowWasmTrapDataSegmentDropped Descriptor\00", align 1
@.str.346 = private unnamed_addr constant [43 x i8] c"ThrowWasmTrapElemSegmentDropped Descriptor\00", align 1
@.str.347 = private unnamed_addr constant [41 x i8] c"ThrowWasmTrapTableOutOfBounds Descriptor\00", align 1
@.str.348 = private unnamed_addr constant [36 x i8] c"ThrowWasmTrapRethrowNull Descriptor\00", align 1
@.str.349 = private unnamed_addr constant [40 x i8] c"ThrowWasmTrapNullDereference Descriptor\00", align 1
@.str.350 = private unnamed_addr constant [36 x i8] c"ThrowWasmTrapIllegalCast Descriptor\00", align 1
@.str.351 = private unnamed_addr constant [41 x i8] c"ThrowWasmTrapArrayOutOfBounds Descriptor\00", align 1
@.str.352 = private unnamed_addr constant [53 x i8] c"LoadJoinElement_GenericElementsAccessor_0 Descriptor\00", align 1
@.str.353 = private unnamed_addr constant [48 x i8] c"LoadJoinTypedElement_Int32Elements_0 Descriptor\00", align 1
@.str.354 = private unnamed_addr constant [50 x i8] c"LoadJoinTypedElement_Float32Elements_0 Descriptor\00", align 1
@.str.355 = private unnamed_addr constant [50 x i8] c"LoadJoinTypedElement_Float64Elements_0 Descriptor\00", align 1
@.str.356 = private unnamed_addr constant [55 x i8] c"LoadJoinTypedElement_Uint8ClampedElements_0 Descriptor\00", align 1
@.str.357 = private unnamed_addr constant [52 x i8] c"LoadJoinTypedElement_BigUint64Elements_0 Descriptor\00", align 1
@.str.358 = private unnamed_addr constant [51 x i8] c"LoadJoinTypedElement_BigInt64Elements_0 Descriptor\00", align 1
@.str.359 = private unnamed_addr constant [48 x i8] c"LoadJoinTypedElement_Uint8Elements_0 Descriptor\00", align 1
@.str.360 = private unnamed_addr constant [47 x i8] c"LoadJoinTypedElement_Int8Elements_0 Descriptor\00", align 1
@.str.361 = private unnamed_addr constant [49 x i8] c"LoadJoinTypedElement_Uint16Elements_0 Descriptor\00", align 1
@.str.362 = private unnamed_addr constant [48 x i8] c"LoadJoinTypedElement_Int16Elements_0 Descriptor\00", align 1
@.str.363 = private unnamed_addr constant [49 x i8] c"LoadJoinTypedElement_Uint32Elements_0 Descriptor\00", align 1
@.str.364 = private unnamed_addr constant [36 x i8] c"GenericBuiltinTest_Smi_0 Descriptor\00", align 1
@.str.365 = private unnamed_addr constant [51 x i8] c"CanUseSameAccessor_FastDoubleElements_0 Descriptor\00", align 1
@.str.366 = private unnamed_addr constant [48 x i8] c"CanUseSameAccessor_FastSmiElements_0 Descriptor\00", align 1
@.str.367 = private unnamed_addr constant [51 x i8] c"CanUseSameAccessor_FastObjectElements_0 Descriptor\00", align 1
@.str.368 = private unnamed_addr constant [42 x i8] c"Load_GenericElementsAccessor_0 Descriptor\00", align 1
@.str.369 = private unnamed_addr constant [43 x i8] c"Store_GenericElementsAccessor_0 Descriptor\00", align 1
@.str.370 = private unnamed_addr constant [44 x i8] c"Delete_GenericElementsAccessor_0 Descriptor\00", align 1
@.str.371 = private unnamed_addr constant [44 x i8] c"LoadTypedElement_Int32Elements_0 Descriptor\00", align 1
@.str.372 = private unnamed_addr constant [52 x i8] c"StoreTypedElementNumeric_Int32Elements_0 Descriptor\00", align 1
@.str.373 = private unnamed_addr constant [50 x i8] c"StoreTypedElementJSAny_Int32Elements_0 Descriptor\00", align 1
@.str.374 = private unnamed_addr constant [46 x i8] c"LoadTypedElement_Float32Elements_0 Descriptor\00", align 1
@.str.375 = private unnamed_addr constant [54 x i8] c"StoreTypedElementNumeric_Float32Elements_0 Descriptor\00", align 1
@.str.376 = private unnamed_addr constant [52 x i8] c"StoreTypedElementJSAny_Float32Elements_0 Descriptor\00", align 1
@.str.377 = private unnamed_addr constant [46 x i8] c"LoadTypedElement_Float64Elements_0 Descriptor\00", align 1
@.str.378 = private unnamed_addr constant [54 x i8] c"StoreTypedElementNumeric_Float64Elements_0 Descriptor\00", align 1
@.str.379 = private unnamed_addr constant [52 x i8] c"StoreTypedElementJSAny_Float64Elements_0 Descriptor\00", align 1
@.str.380 = private unnamed_addr constant [51 x i8] c"LoadTypedElement_Uint8ClampedElements_0 Descriptor\00", align 1
@.str.381 = private unnamed_addr constant [59 x i8] c"StoreTypedElementNumeric_Uint8ClampedElements_0 Descriptor\00", align 1
@.str.382 = private unnamed_addr constant [57 x i8] c"StoreTypedElementJSAny_Uint8ClampedElements_0 Descriptor\00", align 1
@.str.383 = private unnamed_addr constant [48 x i8] c"LoadTypedElement_BigUint64Elements_0 Descriptor\00", align 1
@.str.384 = private unnamed_addr constant [56 x i8] c"StoreTypedElementNumeric_BigUint64Elements_0 Descriptor\00", align 1
@.str.385 = private unnamed_addr constant [54 x i8] c"StoreTypedElementJSAny_BigUint64Elements_0 Descriptor\00", align 1
@.str.386 = private unnamed_addr constant [47 x i8] c"LoadTypedElement_BigInt64Elements_0 Descriptor\00", align 1
@.str.387 = private unnamed_addr constant [55 x i8] c"StoreTypedElementNumeric_BigInt64Elements_0 Descriptor\00", align 1
@.str.388 = private unnamed_addr constant [53 x i8] c"StoreTypedElementJSAny_BigInt64Elements_0 Descriptor\00", align 1
@.str.389 = private unnamed_addr constant [44 x i8] c"LoadTypedElement_Uint8Elements_0 Descriptor\00", align 1
@.str.390 = private unnamed_addr constant [52 x i8] c"StoreTypedElementNumeric_Uint8Elements_0 Descriptor\00", align 1
@.str.391 = private unnamed_addr constant [50 x i8] c"StoreTypedElementJSAny_Uint8Elements_0 Descriptor\00", align 1
@.str.392 = private unnamed_addr constant [43 x i8] c"LoadTypedElement_Int8Elements_0 Descriptor\00", align 1
@.str.393 = private unnamed_addr constant [51 x i8] c"StoreTypedElementNumeric_Int8Elements_0 Descriptor\00", align 1
@.str.394 = private unnamed_addr constant [49 x i8] c"StoreTypedElementJSAny_Int8Elements_0 Descriptor\00", align 1
@.str.395 = private unnamed_addr constant [45 x i8] c"LoadTypedElement_Uint16Elements_0 Descriptor\00", align 1
@.str.396 = private unnamed_addr constant [53 x i8] c"StoreTypedElementNumeric_Uint16Elements_0 Descriptor\00", align 1
@.str.397 = private unnamed_addr constant [51 x i8] c"StoreTypedElementJSAny_Uint16Elements_0 Descriptor\00", align 1
@.str.398 = private unnamed_addr constant [44 x i8] c"LoadTypedElement_Int16Elements_0 Descriptor\00", align 1
@.str.399 = private unnamed_addr constant [52 x i8] c"StoreTypedElementNumeric_Int16Elements_0 Descriptor\00", align 1
@.str.400 = private unnamed_addr constant [50 x i8] c"StoreTypedElementJSAny_Int16Elements_0 Descriptor\00", align 1
@.str.401 = private unnamed_addr constant [45 x i8] c"LoadTypedElement_Uint32Elements_0 Descriptor\00", align 1
@.str.402 = private unnamed_addr constant [53 x i8] c"StoreTypedElementNumeric_Uint32Elements_0 Descriptor\00", align 1
@.str.403 = private unnamed_addr constant [51 x i8] c"StoreTypedElementJSAny_Uint32Elements_0 Descriptor\00", align 1
@.str.404 = private unnamed_addr constant [1 x i8] zeroinitializer, align 1
@_ZSt7nothrow = external global %"struct.std::nothrow_t", align 1
@.str.405 = private unnamed_addr constant [9 x i8] c"NewArray\00", align 1
@_ZZN2v88internal29StaticCallInterfaceDescriptorINS0_15AbortDescriptorEE10InitializeEPNS0_27CallInterfaceDescriptorDataEE9registers = linkonce_odr hidden global { [1 x { i32 }] } { [1 x { i32 }] [{ i32 } { i32 2 }] }, comdat, align 4
@_ZZN2v88internal29StaticCallInterfaceDescriptorINS0_18AllocateDescriptorEE10InitializeEPNS0_27CallInterfaceDescriptorDataEE9registers = linkonce_odr hidden global { [1 x { i32 }] } { [1 x { i32 }] [{ i32 } { i32 2 }] }, comdat, align 4
@_ZZN2v88internal29StaticCallInterfaceDescriptorINS0_21ApiCallbackDescriptorEE10InitializeEPNS0_27CallInterfaceDescriptorDataEE9registers = linkonce_odr hidden global { [4 x { i32 }] } { [4 x { i32 }] [{ i32 } { i32 2 }, { i32 } { i32 1 }, { i32 } { i32 3 }, { i32 } { i32 7 }] }, comdat, align 4
@_ZZN2v88internal29StaticCallInterfaceDescriptorINS0_19ApiGetterDescriptorEE10InitializeEPNS0_27CallInterfaceDescriptorDataEE9registers = linkonce_odr hidden global { [3 x { i32 }] } { [3 x { i32 }] [{ i32 } { i32 2 }, { i32 } { i32 1 }, { i32 } { i32 3 }] }, comdat, align 4
@_ZZN2v88internal29StaticCallInterfaceDescriptorINS0_26ArrayConstructorDescriptorEE10InitializeEPNS0_27CallInterfaceDescriptorDataEE9registers = linkonce_odr hidden global { [4 x { i32 }] } { [4 x { i32 }] [{ i32 } { i32 7 }, { i32 } { i32 2 }, { i32 } zeroinitializer, { i32 } { i32 3 }] }, comdat, align 4
@_ZZN2v88internal29StaticCallInterfaceDescriptorINS0_36ArrayNArgumentsConstructorDescriptorEE10InitializeEPNS0_27CallInterfaceDescriptorDataEE9registers = linkonce_odr hidden global { [3 x { i32 }] } { [3 x { i32 }] [{ i32 } { i32 7 }, { i32 } { i32 3 }, { i32 } zeroinitializer] }, comdat, align 4
@_ZZN2v88internal29StaticCallInterfaceDescriptorINS0_36ArrayNoArgumentConstructorDescriptorEE10InitializeEPNS0_27CallInterfaceDescriptorDataEE9registers = linkonce_odr hidden global { [3 x { i32 }] } { [3 x { i32 }] [{ i32 } { i32 7 }, { i32 } { i32 3 }, { i32 } zeroinitializer] }, comdat, align 4
@_ZZN2v88internal29StaticCallInterfaceDescriptorINS0_40ArraySingleArgumentConstructorDescriptorEE10InitializeEPNS0_27CallInterfaceDescriptorDataEE9registers = linkonce_odr hidden global { [3 x { i32 }] } { [3 x { i32 }] [{ i32 } { i32 7 }, { i32 } { i32 3 }, { i32 } zeroinitializer] }, comdat, align 4
@_ZZN2v88internal29StaticCallInterfaceDescriptorINS0_25BigIntToI32PairDescriptorEE10InitializeEPNS0_27CallInterfaceDescriptorDataEE9registers = linkonce_odr hidden global { [5 x { i32 }] } { [5 x { i32 }] [{ i32 } zeroinitializer, { i32 } { i32 3 }, { i32 } { i32 1 }, { i32 } { i32 2 }, { i32 } { i32 7 }] }, comdat, align 4
@_ZZN2v88internal29StaticCallInterfaceDescriptorINS0_21BigIntToI64DescriptorEE10InitializeEPNS0_27CallInterfaceDescriptorDataEE9registers = linkonce_odr hidden global { [5 x { i32 }] } { [5 x { i32 }] [{ i32 } zeroinitializer, { i32 } { i32 3 }, { i32 } { i32 1 }, { i32 } { i32 2 }, { i32 } { i32 7 }] }, comdat, align 4
@_ZZN2v88internal29StaticCallInterfaceDescriptorINS0_18BinaryOpDescriptorEE10InitializeEPNS0_27CallInterfaceDescriptorDataEE9registers = linkonce_odr hidden global { [2 x { i32 }] } { [2 x { i32 }] [{ i32 } { i32 2 }, { i32 } zeroinitializer] }, comdat, align 4
@_ZZN2v88internal29StaticCallInterfaceDescriptorINS0_27BinaryOp_BaselineDescriptorEE10InitializeEPNS0_27CallInterfaceDescriptorDataEE9registers = linkonce_odr hidden global { [3 x { i32 }] } { [3 x { i32 }] [{ i32 } { i32 2 }, { i32 } zeroinitializer, { i32 } { i32 3 }] }, comdat, align 4
@_ZZN2v88internal29StaticCallInterfaceDescriptorINS0_31BinaryOp_WithFeedbackDescriptorEE10InitializeEPNS0_27CallInterfaceDescriptorDataEE9registers = linkonce_odr hidden global { [5 x { i32 }] } { [5 x { i32 }] [{ i32 } zeroinitializer, { i32 } { i32 3 }, { i32 } { i32 1 }, { i32 } { i32 2 }, { i32 } { i32 7 }] }, comdat, align 4
@_ZZN2v88internal29StaticCallInterfaceDescriptorINS0_28CallForwardVarargsDescriptorEE10InitializeEPNS0_27CallInterfaceDescriptorDataEE9registers = linkonce_odr hidden global { [3 x { i32 }] } { [3 x { i32 }] [{ i32 } { i32 7 }, { i32 } zeroinitializer, { i32 } { i32 1 }] }, comdat, align 4
@_ZZN2v88internal29StaticCallInterfaceDescriptorINS0_30CallFunctionTemplateDescriptorEE10InitializeEPNS0_27CallInterfaceDescriptorDataEE9registers = linkonce_odr hidden global { [2 x { i32 }] } { [2 x { i32 }] [{ i32 } { i32 2 }, { i32 } { i32 1 }] }, comdat, align 4
@_ZZN2v88internal29StaticCallInterfaceDescriptorINS0_24CallTrampolineDescriptorEE10InitializeEPNS0_27CallInterfaceDescriptorDataEE9registers = linkonce_odr hidden global { [2 x { i32 }] } { [2 x { i32 }] [{ i32 } { i32 7 }, { i32 } zeroinitializer] }, comdat, align 4
@_ZZN2v88internal29StaticCallInterfaceDescriptorINS0_33CallTrampoline_BaselineDescriptorEE10InitializeEPNS0_27CallInterfaceDescriptorDataEE9registers = linkonce_odr hidden global { [5 x { i32 }] } { [5 x { i32 }] [{ i32 } zeroinitializer, { i32 } { i32 3 }, { i32 } { i32 1 }, { i32 } { i32 2 }, { i32 } { i32 7 }] }, comdat, align 4
@_ZZN2v88internal29StaticCallInterfaceDescriptorINS0_41CallTrampoline_Baseline_CompactDescriptorEE10InitializeEPNS0_27CallInterfaceDescriptorDataEE9registers = linkonce_odr hidden global { [5 x { i32 }] } { [5 x { i32 }] [{ i32 } zeroinitializer, { i32 } { i32 3 }, { i32 } { i32 1 }, { i32 } { i32 2 }, { i32 } { i32 7 }] }, comdat, align 4
@_ZZN2v88internal29StaticCallInterfaceDescriptorINS0_37CallTrampoline_WithFeedbackDescriptorEE10InitializeEPNS0_27CallInterfaceDescriptorDataEE9registers = linkonce_odr hidden global { [5 x { i32 }] } { [5 x { i32 }] [{ i32 } zeroinitializer, { i32 } { i32 3 }, { i32 } { i32 1 }, { i32 } { i32 2 }, { i32 } { i32 7 }] }, comdat, align 4
@_ZZN2v88internal29StaticCallInterfaceDescriptorINS0_21CallVarargsDescriptorEE10InitializeEPNS0_27CallInterfaceDescriptorDataEE9registers = linkonce_odr hidden global { [4 x { i32 }] } { [4 x { i32 }] [{ i32 } { i32 7 }, { i32 } zeroinitializer, { i32 } { i32 1 }, { i32 } { i32 3 }] }, comdat, align 4
@_ZZN2v88internal29StaticCallInterfaceDescriptorINS0_27CallWithArrayLikeDescriptorEE10InitializeEPNS0_27CallInterfaceDescriptorDataEE9registers = linkonce_odr hidden global { [2 x { i32 }] } { [2 x { i32 }] [{ i32 } { i32 7 }, { i32 } { i32 3 }] }, comdat, align 4
@_ZZN2v88internal29StaticCallInterfaceDescriptorINS0_40CallWithArrayLike_WithFeedbackDescriptorEE10InitializeEPNS0_27CallInterfaceDescriptorDataEE9registers = linkonce_odr hidden global { [5 x { i32 }] } { [5 x { i32 }] [{ i32 } zeroinitializer, { i32 } { i32 3 }, { i32 } { i32 1 }, { i32 } { i32 2 }, { i32 } { i32 7 }] }, comdat, align 4
@_ZZN2v88internal29StaticCallInterfaceDescriptorINS0_24CallWithSpreadDescriptorEE10InitializeEPNS0_27CallInterfaceDescriptorDataEE9registers = linkonce_odr hidden global { [3 x { i32 }] } { [3 x { i32 }] [{ i32 } { i32 7 }, { i32 } zeroinitializer, { i32 } { i32 3 }] }, comdat, align 4
@_ZZN2v88internal29StaticCallInterfaceDescriptorINS0_33CallWithSpread_BaselineDescriptorEE10InitializeEPNS0_27CallInterfaceDescriptorDataEE9registers = linkonce_odr hidden global { [5 x { i32 }] } { [5 x { i32 }] [{ i32 } zeroinitializer, { i32 } { i32 3 }, { i32 } { i32 1 }, { i32 } { i32 2 }, { i32 } { i32 7 }] }, comdat, align 4
@_ZZN2v88internal29StaticCallInterfaceDescriptorINS0_37CallWithSpread_WithFeedbackDescriptorEE10InitializeEPNS0_27CallInterfaceDescriptorDataEE9registers = linkonce_odr hidden global { [5 x { i32 }] } { [5 x { i32 }] [{ i32 } zeroinitializer, { i32 } { i32 3 }, { i32 } { i32 1 }, { i32 } { i32 2 }, { i32 } { i32 7 }] }, comdat, align 4
@_ZZN2v88internal29StaticCallInterfaceDescriptorINS0_28CEntry1ArgvOnStackDescriptorEE10InitializeEPNS0_27CallInterfaceDescriptorDataEE9registers = linkonce_odr hidden global { [2 x { i32 }] } { [2 x { i32 }] [{ i32 } zeroinitializer, { i32 } { i32 3 }] }, comdat, align 4
@_ZZN2v88internal29StaticCallInterfaceDescriptorINS0_29CloneObjectBaselineDescriptorEE10InitializeEPNS0_27CallInterfaceDescriptorDataEE9registers = linkonce_odr hidden global { [5 x { i32 }] } { [5 x { i32 }] [{ i32 } zeroinitializer, { i32 } { i32 3 }, { i32 } { i32 1 }, { i32 } { i32 2 }, { i32 } { i32 7 }] }, comdat, align 4
@_ZZN2v88internal29StaticCallInterfaceDescriptorINS0_31CloneObjectWithVectorDescriptorEE10InitializeEPNS0_27CallInterfaceDescriptorDataEE9registers = linkonce_odr hidden global { [5 x { i32 }] } { [5 x { i32 }] [{ i32 } zeroinitializer, { i32 } { i32 3 }, { i32 } { i32 1 }, { i32 } { i32 2 }, { i32 } { i32 7 }] }, comdat, align 4
@_ZZN2v88internal29StaticCallInterfaceDescriptorINS0_17CompareDescriptorEE10InitializeEPNS0_27CallInterfaceDescriptorDataEE9registers = linkonce_odr hidden global { [2 x { i32 }] } { [2 x { i32 }] [{ i32 } { i32 2 }, { i32 } zeroinitializer] }, comdat, align 4
@_ZZN2v88internal29StaticCallInterfaceDescriptorINS0_26Compare_BaselineDescriptorEE10InitializeEPNS0_27CallInterfaceDescriptorDataEE9registers = linkonce_odr hidden global { [3 x { i32 }] } { [3 x { i32 }] [{ i32 } { i32 2 }, { i32 } zeroinitializer, { i32 } { i32 3 }] }, comdat, align 4
@_ZZN2v88internal29StaticCallInterfaceDescriptorINS0_30Compare_WithFeedbackDescriptorEE10InitializeEPNS0_27CallInterfaceDescriptorDataEE9registers = linkonce_odr hidden global { [5 x { i32 }] } { [5 x { i32 }] [{ i32 } zeroinitializer, { i32 } { i32 3 }, { i32 } { i32 1 }, { i32 } { i32 2 }, { i32 } { i32 7 }] }, comdat, align 4
@_ZZN2v88internal29StaticCallInterfaceDescriptorINS0_33ConstructForwardVarargsDescriptorEE10InitializeEPNS0_27CallInterfaceDescriptorDataEE9registers = linkonce_odr hidden global { [4 x { i32 }] } { [4 x { i32 }] [{ i32 } { i32 7 }, { i32 } { i32 2 }, { i32 } zeroinitializer, { i32 } { i32 1 }] }, comdat, align 4
@_ZZN2v88internal29StaticCallInterfaceDescriptorINS0_23ConstructStubDescriptorEE10InitializeEPNS0_27CallInterfaceDescriptorDataEE9registers = linkonce_odr hidden global { [4 x { i32 }] } { [4 x { i32 }] [{ i32 } { i32 7 }, { i32 } { i32 2 }, { i32 } zeroinitializer, { i32 } { i32 3 }] }, comdat, align 4
@_ZZN2v88internal29StaticCallInterfaceDescriptorINS0_26ConstructVarargsDescriptorEE10InitializeEPNS0_27CallInterfaceDescriptorDataEE9registers = linkonce_odr hidden global { [5 x { i32 }] } { [5 x { i32 }] [{ i32 } { i32 7 }, { i32 } { i32 2 }, { i32 } zeroinitializer, { i32 } { i32 1 }, { i32 } { i32 3 }] }, comdat, align 4
@_ZZN2v88internal29StaticCallInterfaceDescriptorINS0_32ConstructWithArrayLikeDescriptorEE10InitializeEPNS0_27CallInterfaceDescriptorDataEE9registers = linkonce_odr hidden global { [3 x { i32 }] } { [3 x { i32 }] [{ i32 } { i32 7 }, { i32 } { i32 2 }, { i32 } { i32 3 }] }, comdat, align 4
@_ZZN2v88internal29StaticCallInterfaceDescriptorINS0_45ConstructWithArrayLike_WithFeedbackDescriptorEE10InitializeEPNS0_27CallInterfaceDescriptorDataEE9registers = linkonce_odr hidden global { [5 x { i32 }] } { [5 x { i32 }] [{ i32 } zeroinitializer, { i32 } { i32 3 }, { i32 } { i32 1 }, { i32 } { i32 2 }, { i32 } { i32 7 }] }, comdat, align 4
@_ZZN2v88internal29StaticCallInterfaceDescriptorINS0_32Construct_WithFeedbackDescriptorEE10InitializeEPNS0_27CallInterfaceDescriptorDataEE9registers = linkonce_odr hidden global { [4 x { i32 }] } { [4 x { i32 }] [{ i32 } { i32 7 }, { i32 } { i32 2 }, { i32 } zeroinitializer, { i32 } { i32 3 }] }, comdat, align 4
@_ZZN2v88internal29StaticCallInterfaceDescriptorINS0_28Construct_BaselineDescriptorEE10InitializeEPNS0_27CallInterfaceDescriptorDataEE9registers = linkonce_odr hidden global { [4 x { i32 }] } { [4 x { i32 }] [{ i32 } { i32 7 }, { i32 } { i32 2 }, { i32 } zeroinitializer, { i32 } { i32 3 }] }, comdat, align 4
@_ZZN2v88internal29StaticCallInterfaceDescriptorINS0_29ConstructWithSpreadDescriptorEE10InitializeEPNS0_27CallInterfaceDescriptorDataEE9registers = linkonce_odr hidden global { [4 x { i32 }] } { [4 x { i32 }] [{ i32 } { i32 7 }, { i32 } { i32 2 }, { i32 } zeroinitializer, { i32 } { i32 3 }] }, comdat, align 4
@_ZZN2v88internal29StaticCallInterfaceDescriptorINS0_38ConstructWithSpread_BaselineDescriptorEE10InitializeEPNS0_27CallInterfaceDescriptorDataEE9registers = linkonce_odr hidden global { [5 x { i32 }] } { [5 x { i32 }] [{ i32 } zeroinitializer, { i32 } { i32 3 }, { i32 } { i32 1 }, { i32 } { i32 2 }, { i32 } { i32 7 }] }, comdat, align 4
@_ZZN2v88internal29StaticCallInterfaceDescriptorINS0_42ConstructWithSpread_WithFeedbackDescriptorEE10InitializeEPNS0_27CallInterfaceDescriptorDataEE9registers = linkonce_odr hidden global { [5 x { i32 }] } { [5 x { i32 }] [{ i32 } zeroinitializer, { i32 } { i32 3 }, { i32 } { i32 1 }, { i32 } { i32 2 }, { i32 } { i32 7 }] }, comdat, align 4
@_ZZN2v88internal29StaticCallInterfaceDescriptorINS0_27CppBuiltinAdaptorDescriptorEE10InitializeEPNS0_27CallInterfaceDescriptorDataEE9registers = linkonce_odr hidden global { [4 x { i32 }] } { [4 x { i32 }] [{ i32 } { i32 7 }, { i32 } { i32 2 }, { i32 } zeroinitializer, { i32 } { i32 3 }] }, comdat, align 4
@_ZZN2v88internal29StaticCallInterfaceDescriptorINS0_26DynamicCheckMapsDescriptorEE10InitializeEPNS0_27CallInterfaceDescriptorDataEE9registers = linkonce_odr hidden global { [6 x { i32 }] } { [6 x { i32 }] [{ i32 } zeroinitializer, { i32 } { i32 7 }, { i32 } { i32 6 }, { i32 } { i32 2 }, { i32 } { i32 3 }, { i32 } { i32 6 }] }, comdat, align 4
@_ZZN2v88internal29StaticCallInterfaceDescriptorINS0_23FastNewObjectDescriptorEE10InitializeEPNS0_27CallInterfaceDescriptorDataEE9registers = linkonce_odr hidden global { [2 x { i32 }] } { [2 x { i32 }] [{ i32 } { i32 7 }, { i32 } { i32 2 }] }, comdat, align 4
@_ZZN2v88internal29StaticCallInterfaceDescriptorINS0_22ForInPrepareDescriptorEE10InitializeEPNS0_27CallInterfaceDescriptorDataEE9registers = linkonce_odr hidden global { [5 x { i32 }] } { [5 x { i32 }] [{ i32 } zeroinitializer, { i32 } { i32 3 }, { i32 } { i32 1 }, { i32 } { i32 2 }, { i32 } { i32 7 }] }, comdat, align 4
@_ZZN2v88internal29StaticCallInterfaceDescriptorINS0_21GetPropertyDescriptorEE10InitializeEPNS0_27CallInterfaceDescriptorDataEE9registers = linkonce_odr hidden global { [5 x { i32 }] } { [5 x { i32 }] [{ i32 } zeroinitializer, { i32 } { i32 3 }, { i32 } { i32 1 }, { i32 } { i32 2 }, { i32 } { i32 7 }] }, comdat, align 4
@_ZZN2v88internal29StaticCallInterfaceDescriptorINS0_27GrowArrayElementsDescriptorEE10InitializeEPNS0_27CallInterfaceDescriptorDataEE9registers = linkonce_odr hidden global { [2 x { i32 }] } { [2 x { i32 }] [{ i32 } zeroinitializer, { i32 } { i32 3 }] }, comdat, align 4
@_ZZN2v88internal29StaticCallInterfaceDescriptorINS0_25I32PairToBigIntDescriptorEE10InitializeEPNS0_27CallInterfaceDescriptorDataEE9registers = linkonce_odr hidden global { [5 x { i32 }] } { [5 x { i32 }] [{ i32 } zeroinitializer, { i32 } { i32 3 }, { i32 } { i32 1 }, { i32 } { i32 2 }, { i32 } { i32 7 }] }, comdat, align 4
@_ZZN2v88internal29StaticCallInterfaceDescriptorINS0_21I64ToBigIntDescriptorEE10InitializeEPNS0_27CallInterfaceDescriptorDataEE9registers = linkonce_odr hidden global { [5 x { i32 }] } { [5 x { i32 }] [{ i32 } zeroinitializer, { i32 } { i32 3 }, { i32 } { i32 1 }, { i32 } { i32 2 }, { i32 } { i32 7 }] }, comdat, align 4
@_ZZN2v88internal29StaticCallInterfaceDescriptorINS0_28InterpreterCEntry1DescriptorEE10InitializeEPNS0_27CallInterfaceDescriptorDataEE9registers = linkonce_odr hidden global { [3 x { i32 }] } { [3 x { i32 }] [{ i32 } zeroinitializer, { i32 } { i32 15 }, { i32 } { i32 3 }] }, comdat, align 4
@_ZZN2v88internal29StaticCallInterfaceDescriptorINS0_28InterpreterCEntry2DescriptorEE10InitializeEPNS0_27CallInterfaceDescriptorDataEE9registers = linkonce_odr hidden global { [3 x { i32 }] } { [3 x { i32 }] [{ i32 } zeroinitializer, { i32 } { i32 15 }, { i32 } { i32 3 }] }, comdat, align 4
@_ZZN2v88internal29StaticCallInterfaceDescriptorINS0_29InterpreterDispatchDescriptorEE10InitializeEPNS0_27CallInterfaceDescriptorDataEE9registers = linkonce_odr hidden global { [4 x { i32 }] } { [4 x { i32 }] [{ i32 } zeroinitializer, { i32 } { i32 9 }, { i32 } { i32 12 }, { i32 } { i32 15 }] }, comdat, align 4
@_ZZN2v88internal29StaticCallInterfaceDescriptorINS0_35TailCallOptimizedCodeSlotDescriptorEE10InitializeEPNS0_27CallInterfaceDescriptorDataEE9registers = linkonce_odr hidden global { [1 x { i32 }] } { [1 x { i32 }] [{ i32 } { i32 1 }] }, comdat, align 4
@_ZZN2v88internal29StaticCallInterfaceDescriptorINS0_37InterpreterPushArgsThenCallDescriptorEE10InitializeEPNS0_27CallInterfaceDescriptorDataEE9registers = linkonce_odr hidden global { [3 x { i32 }] } { [3 x { i32 }] [{ i32 } zeroinitializer, { i32 } { i32 3 }, { i32 } { i32 7 }] }, comdat, align 4
@_ZZN2v88internal29StaticCallInterfaceDescriptorINS0_42InterpreterPushArgsThenConstructDescriptorEE10InitializeEPNS0_27CallInterfaceDescriptorDataEE9registers = linkonce_odr hidden global { [5 x { i32 }] } { [5 x { i32 }] [{ i32 } zeroinitializer, { i32 } { i32 1 }, { i32 } { i32 7 }, { i32 } { i32 2 }, { i32 } { i32 3 }] }, comdat, align 4
@_ZZN2v88internal29StaticCallInterfaceDescriptorINS0_22JSTrampolineDescriptorEE10InitializeEPNS0_27CallInterfaceDescriptorDataEE9registers = linkonce_odr hidden global { [4 x { i32 }] } { [4 x { i32 }] [{ i32 } { i32 7 }, { i32 } { i32 2 }, { i32 } zeroinitializer, { i32 } { i32 3 }] }, comdat, align 4
@_ZZN2v88internal29StaticCallInterfaceDescriptorINS0_35BaselineOutOfLinePrologueDescriptorEE10InitializeEPNS0_27CallInterfaceDescriptorDataEE9registers = linkonce_odr hidden global { [6 x { i32 }] } { [6 x { i32 }] [{ i32 } { i32 6 }, { i32 } { i32 7 }, { i32 } zeroinitializer, { i32 } { i32 3 }, { i32 } { i32 2 }, { i32 } { i32 12 }] }, comdat, align 4
@_ZZN2v88internal29StaticCallInterfaceDescriptorINS0_28BaselineLeaveFrameDescriptorEE10InitializeEPNS0_27CallInterfaceDescriptorDataEE9registers = linkonce_odr hidden global { [2 x { i32 }] } { [2 x { i32 }] [{ i32 } { i32 3 }, { i32 } { i32 1 }] }, comdat, align 4
@_ZZN2v88internal29StaticCallInterfaceDescriptorINS0_14LoadDescriptorEE10InitializeEPNS0_27CallInterfaceDescriptorDataEE9registers = linkonce_odr hidden global { [3 x { i32 }] } { [3 x { i32 }] [{ i32 } { i32 2 }, { i32 } { i32 1 }, { i32 } zeroinitializer] }, comdat, align 4
@_ZZN2v88internal29StaticCallInterfaceDescriptorINS0_22LoadBaselineDescriptorEE10InitializeEPNS0_27CallInterfaceDescriptorDataEE9registers = linkonce_odr hidden global { [3 x { i32 }] } { [3 x { i32 }] [{ i32 } { i32 2 }, { i32 } { i32 1 }, { i32 } zeroinitializer] }, comdat, align 4
@_ZZN2v88internal29StaticCallInterfaceDescriptorINS0_20LoadGlobalDescriptorEE10InitializeEPNS0_27CallInterfaceDescriptorDataEE9registers = linkonce_odr hidden global { [2 x { i32 }] } { [2 x { i32 }] [{ i32 } { i32 1 }, { i32 } zeroinitializer] }, comdat, align 4
@_ZZN2v88internal29StaticCallInterfaceDescriptorINS0_28LoadGlobalBaselineDescriptorEE10InitializeEPNS0_27CallInterfaceDescriptorDataEE9registers = linkonce_odr hidden global { [2 x { i32 }] } { [2 x { i32 }] [{ i32 } { i32 1 }, { i32 } zeroinitializer] }, comdat, align 4
@_ZZN2v88internal29StaticCallInterfaceDescriptorINS0_30LoadGlobalNoFeedbackDescriptorEE10InitializeEPNS0_27CallInterfaceDescriptorDataEE9registers = linkonce_odr hidden global { [2 x { i32 }] } { [2 x { i32 }] [{ i32 } { i32 1 }, { i32 } zeroinitializer] }, comdat, align 4
@_ZZN2v88internal29StaticCallInterfaceDescriptorINS0_30LoadGlobalWithVectorDescriptorEE10InitializeEPNS0_27CallInterfaceDescriptorDataEE9registers = linkonce_odr hidden global { [3 x { i32 }] } { [3 x { i32 }] [{ i32 } { i32 1 }, { i32 } zeroinitializer, { i32 } { i32 3 }] }, comdat, align 4
@_ZZN2v88internal29StaticCallInterfaceDescriptorINS0_24LoadNoFeedbackDescriptorEE10InitializeEPNS0_27CallInterfaceDescriptorDataEE9registers = linkonce_odr hidden global { [3 x { i32 }] } { [3 x { i32 }] [{ i32 } { i32 2 }, { i32 } { i32 1 }, { i32 } zeroinitializer] }, comdat, align 4
@_ZZN2v88internal29StaticCallInterfaceDescriptorINS0_24LoadWithVectorDescriptorEE10InitializeEPNS0_27CallInterfaceDescriptorDataEE9registers = linkonce_odr hidden global { [4 x { i32 }] } { [4 x { i32 }] [{ i32 } { i32 2 }, { i32 } { i32 1 }, { i32 } zeroinitializer, { i32 } { i32 3 }] }, comdat, align 4
@_ZZN2v88internal29StaticCallInterfaceDescriptorINS0_35LoadWithReceiverAndVectorDescriptorEE10InitializeEPNS0_27CallInterfaceDescriptorDataEE9registers = linkonce_odr hidden global { [5 x { i32 }] } { [5 x { i32 }] [{ i32 } { i32 2 }, { i32 } { i32 7 }, { i32 } { i32 1 }, { i32 } zeroinitializer, { i32 } { i32 3 }] }, comdat, align 4
@_ZZN2v88internal29StaticCallInterfaceDescriptorINS0_34LoadWithReceiverBaselineDescriptorEE10InitializeEPNS0_27CallInterfaceDescriptorDataEE9registers = linkonce_odr hidden global { [4 x { i32 }] } { [4 x { i32 }] [{ i32 } { i32 2 }, { i32 } { i32 7 }, { i32 } { i32 1 }, { i32 } zeroinitializer] }, comdat, align 4
@_ZZN2v88internal29StaticCallInterfaceDescriptorINS0_24LookupBaselineDescriptorEE10InitializeEPNS0_27CallInterfaceDescriptorDataEE9registers = linkonce_odr hidden global { [5 x { i32 }] } { [5 x { i32 }] [{ i32 } zeroinitializer, { i32 } { i32 3 }, { i32 } { i32 1 }, { i32 } { i32 2 }, { i32 } { i32 7 }] }, comdat, align 4
@_ZZN2v88internal29StaticCallInterfaceDescriptorINS0_25ResumeGeneratorDescriptorEE10InitializeEPNS0_27CallInterfaceDescriptorDataEE9registers = linkonce_odr hidden global { [2 x { i32 }] } { [2 x { i32 }] [{ i32 } zeroinitializer, { i32 } { i32 2 }] }, comdat, align 4
@_ZZN2v88internal29StaticCallInterfaceDescriptorINS0_34SuspendGeneratorBaselineDescriptorEE10InitializeEPNS0_27CallInterfaceDescriptorDataEE9registers = linkonce_odr hidden global { [5 x { i32 }] } { [5 x { i32 }] [{ i32 } zeroinitializer, { i32 } { i32 3 }, { i32 } { i32 1 }, { i32 } { i32 2 }, { i32 } { i32 7 }] }, comdat, align 4
@_ZZN2v88internal29StaticCallInterfaceDescriptorINS0_33ResumeGeneratorBaselineDescriptorEE10InitializeEPNS0_27CallInterfaceDescriptorDataEE9registers = linkonce_odr hidden global { [5 x { i32 }] } { [5 x { i32 }] [{ i32 } zeroinitializer, { i32 } { i32 3 }, { i32 } { i32 1 }, { i32 } { i32 2 }, { i32 } { i32 7 }] }, comdat, align 4
@_ZZN2v88internal29StaticCallInterfaceDescriptorINS0_23RunMicrotasksDescriptorEE10InitializeEPNS0_27CallInterfaceDescriptorDataEE9registers = linkonce_odr hidden global { [5 x { i32 }] } { [5 x { i32 }] [{ i32 } zeroinitializer, { i32 } { i32 3 }, { i32 } { i32 1 }, { i32 } { i32 2 }, { i32 } { i32 7 }] }, comdat, align 4
@_ZZN2v88internal29StaticCallInterfaceDescriptorINS0_28RunMicrotasksEntryDescriptorEE10InitializeEPNS0_27CallInterfaceDescriptorDataEE9registers = linkonce_odr hidden global { [2 x { i32 }] } { [2 x { i32 }] [{ i32 } { i32 7 }, { i32 } { i32 6 }] }, comdat, align 4
@_ZZN2v88internal29StaticCallInterfaceDescriptorINS0_15StoreDescriptorEE10InitializeEPNS0_27CallInterfaceDescriptorDataEE9registers = linkonce_odr hidden global { [4 x { i32 }] } { [4 x { i32 }] [{ i32 } { i32 2 }, { i32 } { i32 1 }, { i32 } zeroinitializer, { i32 } { i32 7 }] }, comdat, align 4
@_ZZN2v88internal29StaticCallInterfaceDescriptorINS0_23StoreBaselineDescriptorEE10InitializeEPNS0_27CallInterfaceDescriptorDataEE9registers = linkonce_odr hidden global { [4 x { i32 }] } { [4 x { i32 }] [{ i32 } { i32 2 }, { i32 } { i32 1 }, { i32 } zeroinitializer, { i32 } { i32 7 }] }, comdat, align 4
@_ZZN2v88internal29StaticCallInterfaceDescriptorINS0_21StoreGlobalDescriptorEE10InitializeEPNS0_27CallInterfaceDescriptorDataEE9registers = linkonce_odr hidden global { [3 x { i32 }] } { [3 x { i32 }] [{ i32 } { i32 1 }, { i32 } zeroinitializer, { i32 } { i32 7 }] }, comdat, align 4
@_ZZN2v88internal29StaticCallInterfaceDescriptorINS0_29StoreGlobalBaselineDescriptorEE10InitializeEPNS0_27CallInterfaceDescriptorDataEE9registers = linkonce_odr hidden global { [3 x { i32 }] } { [3 x { i32 }] [{ i32 } { i32 1 }, { i32 } zeroinitializer, { i32 } { i32 7 }] }, comdat, align 4
@_ZZN2v88internal29StaticCallInterfaceDescriptorINS0_31StoreGlobalWithVectorDescriptorEE10InitializeEPNS0_27CallInterfaceDescriptorDataEE9registers = linkonce_odr hidden global { [4 x { i32 }] } { [4 x { i32 }] [{ i32 } { i32 1 }, { i32 } zeroinitializer, { i32 } { i32 7 }, { i32 } { i32 3 }] }, comdat, align 4
@_ZZN2v88internal29StaticCallInterfaceDescriptorINS0_25StoreTransitionDescriptorEE10InitializeEPNS0_27CallInterfaceDescriptorDataEE9registers = linkonce_odr hidden global { [6 x { i32 }] } { [6 x { i32 }] [{ i32 } { i32 2 }, { i32 } { i32 1 }, { i32 } { i32 11 }, { i32 } zeroinitializer, { i32 } { i32 7 }, { i32 } { i32 3 }] }, comdat, align 4
@_ZZN2v88internal29StaticCallInterfaceDescriptorINS0_25StoreWithVectorDescriptorEE10InitializeEPNS0_27CallInterfaceDescriptorDataEE9registers = linkonce_odr hidden global { [5 x { i32 }] } { [5 x { i32 }] [{ i32 } { i32 2 }, { i32 } { i32 1 }, { i32 } zeroinitializer, { i32 } { i32 7 }, { i32 } { i32 3 }] }, comdat, align 4
@_ZZN2v88internal29StaticCallInterfaceDescriptorINS0_18StringAtDescriptorEE10InitializeEPNS0_27CallInterfaceDescriptorDataEE9registers = linkonce_odr hidden global { [5 x { i32 }] } { [5 x { i32 }] [{ i32 } zeroinitializer, { i32 } { i32 3 }, { i32 } { i32 1 }, { i32 } { i32 2 }, { i32 } { i32 7 }] }, comdat, align 4
@_ZZN2v88internal29StaticCallInterfaceDescriptorINS0_26StringAtAsStringDescriptorEE10InitializeEPNS0_27CallInterfaceDescriptorDataEE9registers = linkonce_odr hidden global { [5 x { i32 }] } { [5 x { i32 }] [{ i32 } zeroinitializer, { i32 } { i32 3 }, { i32 } { i32 1 }, { i32 } { i32 2 }, { i32 } { i32 7 }] }, comdat, align 4
@_ZZN2v88internal29StaticCallInterfaceDescriptorINS0_25StringSubstringDescriptorEE10InitializeEPNS0_27CallInterfaceDescriptorDataEE9registers = linkonce_odr hidden global { [5 x { i32 }] } { [5 x { i32 }] [{ i32 } zeroinitializer, { i32 } { i32 3 }, { i32 } { i32 1 }, { i32 } { i32 2 }, { i32 } { i32 7 }] }, comdat, align 4
@_ZZN2v88internal29StaticCallInterfaceDescriptorINS0_24TypeConversionDescriptorEE10InitializeEPNS0_27CallInterfaceDescriptorDataEE9registers = linkonce_odr hidden global %"struct.std::__1::array" zeroinitializer, comdat, align 4
@_ZZN2v88internal29StaticCallInterfaceDescriptorINS0_33TypeConversionNoContextDescriptorEE10InitializeEPNS0_27CallInterfaceDescriptorDataEE9registers = linkonce_odr hidden global %"struct.std::__1::array" zeroinitializer, comdat, align 4
@_ZZN2v88internal29StaticCallInterfaceDescriptorINS0_33TypeConversion_BaselineDescriptorEE10InitializeEPNS0_27CallInterfaceDescriptorDataEE9registers = linkonce_odr hidden global { [5 x { i32 }] } { [5 x { i32 }] [{ i32 } zeroinitializer, { i32 } { i32 3 }, { i32 } { i32 1 }, { i32 } { i32 2 }, { i32 } { i32 7 }] }, comdat, align 4
@_ZZN2v88internal29StaticCallInterfaceDescriptorINS0_16TypeofDescriptorEE10InitializeEPNS0_27CallInterfaceDescriptorDataEE9registers = linkonce_odr hidden global { [1 x { i32 }] } { [1 x { i32 }] [{ i32 } { i32 3 }] }, comdat, align 4
@_ZZN2v88internal29StaticCallInterfaceDescriptorINS0_26UnaryOp_BaselineDescriptorEE10InitializeEPNS0_27CallInterfaceDescriptorDataEE9registers = linkonce_odr hidden global { [5 x { i32 }] } { [5 x { i32 }] [{ i32 } zeroinitializer, { i32 } { i32 3 }, { i32 } { i32 1 }, { i32 } { i32 2 }, { i32 } { i32 7 }] }, comdat, align 4
@_ZZN2v88internal29StaticCallInterfaceDescriptorINS0_30UnaryOp_WithFeedbackDescriptorEE10InitializeEPNS0_27CallInterfaceDescriptorDataEE9registers = linkonce_odr hidden global { [5 x { i32 }] } { [5 x { i32 }] [{ i32 } zeroinitializer, { i32 } { i32 3 }, { i32 } { i32 1 }, { i32 } { i32 2 }, { i32 } { i32 7 }] }, comdat, align 4
@_ZZN2v88internal29StaticCallInterfaceDescriptorINS0_29WasmFloat32ToNumberDescriptorEE10InitializeEPNS0_27CallInterfaceDescriptorDataEE9registers = linkonce_odr hidden global { [5 x { i32 }] } { [5 x { i32 }] [{ i32 } zeroinitializer, { i32 } { i32 3 }, { i32 } { i32 1 }, { i32 } { i32 2 }, { i32 } { i32 7 }] }, comdat, align 4
@_ZZN2v88internal29StaticCallInterfaceDescriptorINS0_29WasmFloat64ToNumberDescriptorEE10InitializeEPNS0_27CallInterfaceDescriptorDataEE9registers = linkonce_odr hidden global { [5 x { i32 }] } { [5 x { i32 }] [{ i32 } zeroinitializer, { i32 } { i32 3 }, { i32 } { i32 1 }, { i32 } { i32 2 }, { i32 } { i32 7 }] }, comdat, align 4
@_ZZN2v88internal29StaticCallInterfaceDescriptorINS0_29WasmI32AtomicWait32DescriptorEE10InitializeEPNS0_27CallInterfaceDescriptorDataEE9registers = linkonce_odr hidden global { [5 x { i32 }] } { [5 x { i32 }] [{ i32 } zeroinitializer, { i32 } { i32 3 }, { i32 } { i32 1 }, { i32 } { i32 2 }, { i32 } { i32 7 }] }, comdat, align 4
@_ZZN2v88internal29StaticCallInterfaceDescriptorINS0_29WasmI64AtomicWait32DescriptorEE10InitializeEPNS0_27CallInterfaceDescriptorDataEE9registers = linkonce_odr hidden global { [5 x { i32 }] } { [5 x { i32 }] [{ i32 } zeroinitializer, { i32 } { i32 3 }, { i32 } { i32 1 }, { i32 } { i32 2 }, { i32 } { i32 7 }] }, comdat, align 4
@_ZZN2v88internal29StaticCallInterfaceDescriptorINS0_22WriteBarrierDescriptorEE10InitializeEPNS0_27CallInterfaceDescriptorDataEE9registers = linkonce_odr hidden global { [5 x { i32 }] } { [5 x { i32 }] [{ i32 } { i32 7 }, { i32 } { i32 6 }, { i32 } { i32 2 }, { i32 } { i32 1 }, { i32 } zeroinitializer] }, comdat, align 4
@_ZZN2v88internal29StaticCallInterfaceDescriptorINS0_24FastNewClosureDescriptorEE10InitializeEPNS0_27CallInterfaceDescriptorDataEE9registers = linkonce_odr hidden global { [5 x { i32 }] } { [5 x { i32 }] [{ i32 } zeroinitializer, { i32 } { i32 3 }, { i32 } { i32 1 }, { i32 } { i32 2 }, { i32 } { i32 7 }] }, comdat, align 4
@_ZZN2v88internal29StaticCallInterfaceDescriptorINS0_35OrderedHashTableHealIndexDescriptorEE10InitializeEPNS0_27CallInterfaceDescriptorDataEE9registers = linkonce_odr hidden global { [5 x { i32 }] } { [5 x { i32 }] [{ i32 } zeroinitializer, { i32 } { i32 3 }, { i32 } { i32 1 }, { i32 } { i32 2 }, { i32 } { i32 7 }] }, comdat, align 4
@_ZZN2v88internal29StaticCallInterfaceDescriptorINS0_37CopyFastSmiOrObjectElementsDescriptorEE10InitializeEPNS0_27CallInterfaceDescriptorDataEE9registers = linkonce_odr hidden global { [5 x { i32 }] } { [5 x { i32 }] [{ i32 } zeroinitializer, { i32 } { i32 3 }, { i32 } { i32 1 }, { i32 } { i32 2 }, { i32 } { i32 7 }] }, comdat, align 4
@_ZZN2v88internal29StaticCallInterfaceDescriptorINS0_26EnqueueMicrotaskDescriptorEE10InitializeEPNS0_27CallInterfaceDescriptorDataEE9registers = linkonce_odr hidden global { [5 x { i32 }] } { [5 x { i32 }] [{ i32 } zeroinitializer, { i32 } { i32 3 }, { i32 } { i32 1 }, { i32 } { i32 2 }, { i32 } { i32 7 }] }, comdat, align 4
@_ZZN2v88internal29StaticCallInterfaceDescriptorINS0_21HasPropertyDescriptorEE10InitializeEPNS0_27CallInterfaceDescriptorDataEE9registers = linkonce_odr hidden global { [5 x { i32 }] } { [5 x { i32 }] [{ i32 } zeroinitializer, { i32 } { i32 3 }, { i32 } { i32 1 }, { i32 } { i32 2 }, { i32 } { i32 7 }] }, comdat, align 4
@_ZZN2v88internal29StaticCallInterfaceDescriptorINS0_24DeletePropertyDescriptorEE10InitializeEPNS0_27CallInterfaceDescriptorDataEE9registers = linkonce_odr hidden global { [5 x { i32 }] } { [5 x { i32 }] [{ i32 } zeroinitializer, { i32 } { i32 3 }, { i32 } { i32 1 }, { i32 } { i32 2 }, { i32 } { i32 7 }] }, comdat, align 4
@_ZZN2v88internal29StaticCallInterfaceDescriptorINS0_28CopyDataPropertiesDescriptorEE10InitializeEPNS0_27CallInterfaceDescriptorDataEE9registers = linkonce_odr hidden global { [5 x { i32 }] } { [5 x { i32 }] [{ i32 } zeroinitializer, { i32 } { i32 3 }, { i32 } { i32 1 }, { i32 } { i32 2 }, { i32 } { i32 7 }] }, comdat, align 4
@_ZZN2v88internal29StaticCallInterfaceDescriptorINS0_27SetDataPropertiesDescriptorEE10InitializeEPNS0_27CallInterfaceDescriptorDataEE9registers = linkonce_odr hidden global { [5 x { i32 }] } { [5 x { i32 }] [{ i32 } zeroinitializer, { i32 } { i32 3 }, { i32 } { i32 1 }, { i32 } { i32 2 }, { i32 } { i32 7 }] }, comdat, align 4
@_ZZN2v88internal29StaticCallInterfaceDescriptorINS0_34ArrayIncludesSmiOrObjectDescriptorEE10InitializeEPNS0_27CallInterfaceDescriptorDataEE9registers = linkonce_odr hidden global { [5 x { i32 }] } { [5 x { i32 }] [{ i32 } zeroinitializer, { i32 } { i32 3 }, { i32 } { i32 1 }, { i32 } { i32 2 }, { i32 } { i32 7 }] }, comdat, align 4
@_ZZN2v88internal29StaticCallInterfaceDescriptorINS0_36ArrayIncludesPackedDoublesDescriptorEE10InitializeEPNS0_27CallInterfaceDescriptorDataEE9registers = linkonce_odr hidden global { [5 x { i32 }] } { [5 x { i32 }] [{ i32 } zeroinitializer, { i32 } { i32 3 }, { i32 } { i32 1 }, { i32 } { i32 2 }, { i32 } { i32 7 }] }, comdat, align 4
@_ZZN2v88internal29StaticCallInterfaceDescriptorINS0_35ArrayIncludesHoleyDoublesDescriptorEE10InitializeEPNS0_27CallInterfaceDescriptorDataEE9registers = linkonce_odr hidden global { [5 x { i32 }] } { [5 x { i32 }] [{ i32 } zeroinitializer, { i32 } { i32 3 }, { i32 } { i32 1 }, { i32 } { i32 2 }, { i32 } { i32 7 }] }, comdat, align 4
@_ZZN2v88internal29StaticCallInterfaceDescriptorINS0_33ArrayIndexOfSmiOrObjectDescriptorEE10InitializeEPNS0_27CallInterfaceDescriptorDataEE9registers = linkonce_odr hidden global { [5 x { i32 }] } { [5 x { i32 }] [{ i32 } zeroinitializer, { i32 } { i32 3 }, { i32 } { i32 1 }, { i32 } { i32 2 }, { i32 } { i32 7 }] }, comdat, align 4
@_ZZN2v88internal29StaticCallInterfaceDescriptorINS0_35ArrayIndexOfPackedDoublesDescriptorEE10InitializeEPNS0_27CallInterfaceDescriptorDataEE9registers = linkonce_odr hidden global { [5 x { i32 }] } { [5 x { i32 }] [{ i32 } zeroinitializer, { i32 } { i32 3 }, { i32 } { i32 1 }, { i32 } { i32 2 }, { i32 } { i32 7 }] }, comdat, align 4
@_ZZN2v88internal29StaticCallInterfaceDescriptorINS0_34ArrayIndexOfHoleyDoublesDescriptorEE10InitializeEPNS0_27CallInterfaceDescriptorDataEE9registers = linkonce_odr hidden global { [5 x { i32 }] } { [5 x { i32 }] [{ i32 } zeroinitializer, { i32 } { i32 3 }, { i32 } { i32 1 }, { i32 } { i32 2 }, { i32 } { i32 7 }] }, comdat, align 4
@_ZZN2v88internal29StaticCallInterfaceDescriptorINS0_26CloneFastJSArrayDescriptorEE10InitializeEPNS0_27CallInterfaceDescriptorDataEE9registers = linkonce_odr hidden global { [5 x { i32 }] } { [5 x { i32 }] [{ i32 } zeroinitializer, { i32 } { i32 3 }, { i32 } { i32 1 }, { i32 } { i32 2 }, { i32 } { i32 7 }] }, comdat, align 4
@_ZZN2v88internal29StaticCallInterfaceDescriptorINS0_38CloneFastJSArrayFillingHolesDescriptorEE10InitializeEPNS0_27CallInterfaceDescriptorDataEE9registers = linkonce_odr hidden global { [5 x { i32 }] } { [5 x { i32 }] [{ i32 } zeroinitializer, { i32 } { i32 3 }, { i32 } { i32 1 }, { i32 } { i32 2 }, { i32 } { i32 7 }] }, comdat, align 4
@_ZZN2v88internal29StaticCallInterfaceDescriptorINS0_28ExtractFastJSArrayDescriptorEE10InitializeEPNS0_27CallInterfaceDescriptorDataEE9registers = linkonce_odr hidden global { [5 x { i32 }] } { [5 x { i32 }] [{ i32 } zeroinitializer, { i32 } { i32 3 }, { i32 } { i32 1 }, { i32 } { i32 2 }, { i32 } { i32 7 }] }, comdat, align 4
@_ZZN2v88internal29StaticCallInterfaceDescriptorINS0_26FlattenIntoArrayDescriptorEE10InitializeEPNS0_27CallInterfaceDescriptorDataEE9registers = linkonce_odr hidden global { [5 x { i32 }] } { [5 x { i32 }] [{ i32 } zeroinitializer, { i32 } { i32 3 }, { i32 } { i32 1 }, { i32 } { i32 2 }, { i32 } { i32 7 }] }, comdat, align 4
@_ZZN2v88internal29StaticCallInterfaceDescriptorINS0_26FlatMapIntoArrayDescriptorEE10InitializeEPNS0_27CallInterfaceDescriptorDataEE9registers = linkonce_odr hidden global { [5 x { i32 }] } { [5 x { i32 }] [{ i32 } zeroinitializer, { i32 } { i32 3 }, { i32 } { i32 1 }, { i32 } { i32 2 }, { i32 } { i32 7 }] }, comdat, align 4
@_ZZN2v88internal29StaticCallInterfaceDescriptorINS0_28AsyncFunctionEnterDescriptorEE10InitializeEPNS0_27CallInterfaceDescriptorDataEE9registers = linkonce_odr hidden global { [5 x { i32 }] } { [5 x { i32 }] [{ i32 } zeroinitializer, { i32 } { i32 3 }, { i32 } { i32 1 }, { i32 } { i32 2 }, { i32 } { i32 7 }] }, comdat, align 4
@_ZZN2v88internal29StaticCallInterfaceDescriptorINS0_29AsyncFunctionRejectDescriptorEE10InitializeEPNS0_27CallInterfaceDescriptorDataEE9registers = linkonce_odr hidden global { [5 x { i32 }] } { [5 x { i32 }] [{ i32 } zeroinitializer, { i32 } { i32 3 }, { i32 } { i32 1 }, { i32 } { i32 2 }, { i32 } { i32 7 }] }, comdat, align 4
@_ZZN2v88internal29StaticCallInterfaceDescriptorINS0_30AsyncFunctionResolveDescriptorEE10InitializeEPNS0_27CallInterfaceDescriptorDataEE9registers = linkonce_odr hidden global { [5 x { i32 }] } { [5 x { i32 }] [{ i32 } zeroinitializer, { i32 } { i32 3 }, { i32 } { i32 1 }, { i32 } { i32 2 }, { i32 } { i32 7 }] }, comdat, align 4
@_ZZN2v88internal29StaticCallInterfaceDescriptorINS0_34AsyncFunctionAwaitCaughtDescriptorEE10InitializeEPNS0_27CallInterfaceDescriptorDataEE9registers = linkonce_odr hidden global { [5 x { i32 }] } { [5 x { i32 }] [{ i32 } zeroinitializer, { i32 } { i32 3 }, { i32 } { i32 1 }, { i32 } { i32 2 }, { i32 } { i32 7 }] }, comdat, align 4
@_ZZN2v88internal29StaticCallInterfaceDescriptorINS0_36AsyncFunctionAwaitUncaughtDescriptorEE10InitializeEPNS0_27CallInterfaceDescriptorDataEE9registers = linkonce_odr hidden global { [5 x { i32 }] } { [5 x { i32 }] [{ i32 } zeroinitializer, { i32 } { i32 3 }, { i32 } { i32 1 }, { i32 } { i32 2 }, { i32 } { i32 7 }] }, comdat, align 4
@_ZZN2v88internal29StaticCallInterfaceDescriptorINS0_32CreateIterResultObjectDescriptorEE10InitializeEPNS0_27CallInterfaceDescriptorDataEE9registers = linkonce_odr hidden global { [5 x { i32 }] } { [5 x { i32 }] [{ i32 } zeroinitializer, { i32 } { i32 3 }, { i32 } { i32 1 }, { i32 } { i32 2 }, { i32 } { i32 7 }] }, comdat, align 4
@_ZZN2v88internal29StaticCallInterfaceDescriptorINS0_31CreateGeneratorObjectDescriptorEE10InitializeEPNS0_27CallInterfaceDescriptorDataEE9registers = linkonce_odr hidden global { [5 x { i32 }] } { [5 x { i32 }] [{ i32 } zeroinitializer, { i32 } { i32 3 }, { i32 } { i32 1 }, { i32 } { i32 2 }, { i32 } { i32 7 }] }, comdat, align 4
@_ZZN2v88internal29StaticCallInterfaceDescriptorINS0_24IterableToListDescriptorEE10InitializeEPNS0_27CallInterfaceDescriptorDataEE9registers = linkonce_odr hidden global { [5 x { i32 }] } { [5 x { i32 }] [{ i32 } zeroinitializer, { i32 } { i32 3 }, { i32 } { i32 1 }, { i32 } { i32 2 }, { i32 } { i32 7 }] }, comdat, align 4
@_ZZN2v88internal29StaticCallInterfaceDescriptorINS0_30IterableToFixedArrayDescriptorEE10InitializeEPNS0_27CallInterfaceDescriptorDataEE9registers = linkonce_odr hidden global { [5 x { i32 }] } { [5 x { i32 }] [{ i32 } zeroinitializer, { i32 } { i32 3 }, { i32 } { i32 1 }, { i32 } { i32 2 }, { i32 } { i32 7 }] }, comdat, align 4
@_ZZN2v88internal29StaticCallInterfaceDescriptorINS0_40IterableToListWithSymbolLookupDescriptorEE10InitializeEPNS0_27CallInterfaceDescriptorDataEE9registers = linkonce_odr hidden global { [5 x { i32 }] } { [5 x { i32 }] [{ i32 } zeroinitializer, { i32 } { i32 3 }, { i32 } { i32 1 }, { i32 } { i32 2 }, { i32 } { i32 7 }] }, comdat, align 4
@_ZZN2v88internal29StaticCallInterfaceDescriptorINS0_50IterableToFixedArrayWithSymbolLookupSlowDescriptorEE10InitializeEPNS0_27CallInterfaceDescriptorDataEE9registers = linkonce_odr hidden global { [5 x { i32 }] } { [5 x { i32 }] [{ i32 } zeroinitializer, { i32 } { i32 3 }, { i32 } { i32 1 }, { i32 } { i32 2 }, { i32 } { i32 7 }] }, comdat, align 4
@_ZZN2v88internal29StaticCallInterfaceDescriptorINS0_40IterableToListMayPreserveHolesDescriptorEE10InitializeEPNS0_27CallInterfaceDescriptorDataEE9registers = linkonce_odr hidden global { [5 x { i32 }] } { [5 x { i32 }] [{ i32 } zeroinitializer, { i32 } { i32 3 }, { i32 } { i32 1 }, { i32 } { i32 2 }, { i32 } { i32 7 }] }, comdat, align 4
@_ZZN2v88internal29StaticCallInterfaceDescriptorINS0_37IterableToFixedArrayForWasmDescriptorEE10InitializeEPNS0_27CallInterfaceDescriptorDataEE9registers = linkonce_odr hidden global { [5 x { i32 }] } { [5 x { i32 }] [{ i32 } zeroinitializer, { i32 } { i32 3 }, { i32 } { i32 1 }, { i32 } { i32 2 }, { i32 } { i32 7 }] }, comdat, align 4
@_ZZN2v88internal29StaticCallInterfaceDescriptorINS0_32StringListFromIterableDescriptorEE10InitializeEPNS0_27CallInterfaceDescriptorDataEE9registers = linkonce_odr hidden global { [5 x { i32 }] } { [5 x { i32 }] [{ i32 } zeroinitializer, { i32 } { i32 3 }, { i32 } { i32 1 }, { i32 } { i32 2 }, { i32 } { i32 7 }] }, comdat, align 4
@_ZZN2v88internal29StaticCallInterfaceDescriptorINS0_33FindOrderedHashMapEntryDescriptorEE10InitializeEPNS0_27CallInterfaceDescriptorDataEE9registers = linkonce_odr hidden global { [5 x { i32 }] } { [5 x { i32 }] [{ i32 } zeroinitializer, { i32 } { i32 3 }, { i32 } { i32 1 }, { i32 } { i32 2 }, { i32 } { i32 7 }] }, comdat, align 4
@_ZZN2v88internal29StaticCallInterfaceDescriptorINS0_27MapIteratorToListDescriptorEE10InitializeEPNS0_27CallInterfaceDescriptorDataEE9registers = linkonce_odr hidden global { [5 x { i32 }] } { [5 x { i32 }] [{ i32 } zeroinitializer, { i32 } { i32 3 }, { i32 } { i32 1 }, { i32 } { i32 2 }, { i32 } { i32 7 }] }, comdat, align 4
@_ZZN2v88internal29StaticCallInterfaceDescriptorINS0_24ObjectToStringDescriptorEE10InitializeEPNS0_27CallInterfaceDescriptorDataEE9registers = linkonce_odr hidden global { [5 x { i32 }] } { [5 x { i32 }] [{ i32 } zeroinitializer, { i32 } { i32 3 }, { i32 } { i32 1 }, { i32 } { i32 2 }, { i32 } { i32 7 }] }, comdat, align 4
@_ZZN2v88internal29StaticCallInterfaceDescriptorINS0_24ForInEnumerateDescriptorEE10InitializeEPNS0_27CallInterfaceDescriptorDataEE9registers = linkonce_odr hidden global { [5 x { i32 }] } { [5 x { i32 }] [{ i32 } zeroinitializer, { i32 } { i32 3 }, { i32 } { i32 1 }, { i32 } { i32 2 }, { i32 } { i32 7 }] }, comdat, align 4
@_ZZN2v88internal29StaticCallInterfaceDescriptorINS0_21ForInFilterDescriptorEE10InitializeEPNS0_27CallInterfaceDescriptorDataEE9registers = linkonce_odr hidden global { [5 x { i32 }] } { [5 x { i32 }] [{ i32 } zeroinitializer, { i32 } { i32 3 }, { i32 } { i32 1 }, { i32 } { i32 2 }, { i32 } { i32 7 }] }, comdat, align 4
@_ZZN2v88internal29StaticCallInterfaceDescriptorINS0_24RegExpExecAtomDescriptorEE10InitializeEPNS0_27CallInterfaceDescriptorDataEE9registers = linkonce_odr hidden global { [5 x { i32 }] } { [5 x { i32 }] [{ i32 } zeroinitializer, { i32 } { i32 3 }, { i32 } { i32 1 }, { i32 } { i32 2 }, { i32 } { i32 7 }] }, comdat, align 4
@_ZZN2v88internal29StaticCallInterfaceDescriptorINS0_28RegExpExecInternalDescriptorEE10InitializeEPNS0_27CallInterfaceDescriptorDataEE9registers = linkonce_odr hidden global { [5 x { i32 }] } { [5 x { i32 }] [{ i32 } zeroinitializer, { i32 } { i32 3 }, { i32 } { i32 1 }, { i32 } { i32 2 }, { i32 } { i32 7 }] }, comdat, align 4
@_ZZN2v88internal29StaticCallInterfaceDescriptorINS0_32SetOrSetIteratorToListDescriptorEE10InitializeEPNS0_27CallInterfaceDescriptorDataEE9registers = linkonce_odr hidden global { [5 x { i32 }] } { [5 x { i32 }] [{ i32 } zeroinitializer, { i32 } { i32 3 }, { i32 } { i32 1 }, { i32 } { i32 2 }, { i32 } { i32 7 }] }, comdat, align 4
@_ZZN2v88internal29StaticCallInterfaceDescriptorINS0_32WeakMapLookupHashIndexDescriptorEE10InitializeEPNS0_27CallInterfaceDescriptorDataEE9registers = linkonce_odr hidden global { [5 x { i32 }] } { [5 x { i32 }] [{ i32 } zeroinitializer, { i32 } { i32 3 }, { i32 } { i32 1 }, { i32 } { i32 2 }, { i32 } { i32 7 }] }, comdat, align 4
@_ZZN2v88internal29StaticCallInterfaceDescriptorINS0_30WeakCollectionDeleteDescriptorEE10InitializeEPNS0_27CallInterfaceDescriptorDataEE9registers = linkonce_odr hidden global { [5 x { i32 }] } { [5 x { i32 }] [{ i32 } zeroinitializer, { i32 } { i32 3 }, { i32 } { i32 1 }, { i32 } { i32 2 }, { i32 } { i32 7 }] }, comdat, align 4
@_ZZN2v88internal29StaticCallInterfaceDescriptorINS0_27WeakCollectionSetDescriptorEE10InitializeEPNS0_27CallInterfaceDescriptorDataEE9registers = linkonce_odr hidden global { [5 x { i32 }] } { [5 x { i32 }] [{ i32 } zeroinitializer, { i32 } { i32 3 }, { i32 } { i32 1 }, { i32 } { i32 2 }, { i32 } { i32 7 }] }, comdat, align 4
@_ZZN2v88internal29StaticCallInterfaceDescriptorINS0_31AsyncGeneratorResolveDescriptorEE10InitializeEPNS0_27CallInterfaceDescriptorDataEE9registers = linkonce_odr hidden global { [5 x { i32 }] } { [5 x { i32 }] [{ i32 } zeroinitializer, { i32 } { i32 3 }, { i32 } { i32 1 }, { i32 } { i32 2 }, { i32 } { i32 7 }] }, comdat, align 4
@_ZZN2v88internal29StaticCallInterfaceDescriptorINS0_30AsyncGeneratorRejectDescriptorEE10InitializeEPNS0_27CallInterfaceDescriptorDataEE9registers = linkonce_odr hidden global { [5 x { i32 }] } { [5 x { i32 }] [{ i32 } zeroinitializer, { i32 } { i32 3 }, { i32 } { i32 1 }, { i32 } { i32 2 }, { i32 } { i32 7 }] }, comdat, align 4
@_ZZN2v88internal29StaticCallInterfaceDescriptorINS0_29AsyncGeneratorYieldDescriptorEE10InitializeEPNS0_27CallInterfaceDescriptorDataEE9registers = linkonce_odr hidden global { [5 x { i32 }] } { [5 x { i32 }] [{ i32 } zeroinitializer, { i32 } { i32 3 }, { i32 } { i32 1 }, { i32 } { i32 2 }, { i32 } { i32 7 }] }, comdat, align 4
@_ZZN2v88internal29StaticCallInterfaceDescriptorINS0_30AsyncGeneratorReturnDescriptorEE10InitializeEPNS0_27CallInterfaceDescriptorDataEE9registers = linkonce_odr hidden global { [5 x { i32 }] } { [5 x { i32 }] [{ i32 } zeroinitializer, { i32 } { i32 3 }, { i32 } { i32 1 }, { i32 } { i32 2 }, { i32 } { i32 7 }] }, comdat, align 4
@_ZZN2v88internal29StaticCallInterfaceDescriptorINS0_34AsyncGeneratorResumeNextDescriptorEE10InitializeEPNS0_27CallInterfaceDescriptorDataEE9registers = linkonce_odr hidden global { [5 x { i32 }] } { [5 x { i32 }] [{ i32 } zeroinitializer, { i32 } { i32 3 }, { i32 } { i32 1 }, { i32 } { i32 2 }, { i32 } { i32 7 }] }, comdat, align 4
@_ZZN2v88internal29StaticCallInterfaceDescriptorINS0_35AsyncGeneratorAwaitCaughtDescriptorEE10InitializeEPNS0_27CallInterfaceDescriptorDataEE9registers = linkonce_odr hidden global { [5 x { i32 }] } { [5 x { i32 }] [{ i32 } zeroinitializer, { i32 } { i32 3 }, { i32 } { i32 1 }, { i32 } { i32 2 }, { i32 } { i32 7 }] }, comdat, align 4
@_ZZN2v88internal29StaticCallInterfaceDescriptorINS0_37AsyncGeneratorAwaitUncaughtDescriptorEE10InitializeEPNS0_27CallInterfaceDescriptorDataEE9registers = linkonce_odr hidden global { [5 x { i32 }] } { [5 x { i32 }] [{ i32 } zeroinitializer, { i32 } { i32 3 }, { i32 } { i32 1 }, { i32 } { i32 2 }, { i32 } { i32 7 }] }, comdat, align 4
@_ZZN2v88internal29StaticCallInterfaceDescriptorINS0_29StringAdd_CheckNoneDescriptorEE10InitializeEPNS0_27CallInterfaceDescriptorDataEE9registers = linkonce_odr hidden global { [5 x { i32 }] } { [5 x { i32 }] [{ i32 } zeroinitializer, { i32 } { i32 3 }, { i32 } { i32 1 }, { i32 } { i32 2 }, { i32 } { i32 7 }] }, comdat, align 4
@_ZZN2v88internal29StaticCallInterfaceDescriptorINS0_19SubStringDescriptorEE10InitializeEPNS0_27CallInterfaceDescriptorDataEE9registers = linkonce_odr hidden global { [5 x { i32 }] } { [5 x { i32 }] [{ i32 } zeroinitializer, { i32 } { i32 3 }, { i32 } { i32 1 }, { i32 } { i32 2 }, { i32 } { i32 7 }] }, comdat, align 4
@_ZZN2v88internal29StaticCallInterfaceDescriptorINS0_33GetPropertyWithReceiverDescriptorEE10InitializeEPNS0_27CallInterfaceDescriptorDataEE9registers = linkonce_odr hidden global { [5 x { i32 }] } { [5 x { i32 }] [{ i32 } zeroinitializer, { i32 } { i32 3 }, { i32 } { i32 1 }, { i32 } { i32 2 }, { i32 } { i32 7 }] }, comdat, align 4
@_ZZN2v88internal29StaticCallInterfaceDescriptorINS0_21SetPropertyDescriptorEE10InitializeEPNS0_27CallInterfaceDescriptorDataEE9registers = linkonce_odr hidden global { [5 x { i32 }] } { [5 x { i32 }] [{ i32 } zeroinitializer, { i32 } { i32 3 }, { i32 } { i32 1 }, { i32 } { i32 2 }, { i32 } { i32 7 }] }, comdat, align 4
@_ZZN2v88internal29StaticCallInterfaceDescriptorINS0_30SetPropertyInLiteralDescriptorEE10InitializeEPNS0_27CallInterfaceDescriptorDataEE9registers = linkonce_odr hidden global { [5 x { i32 }] } { [5 x { i32 }] [{ i32 } zeroinitializer, { i32 } { i32 3 }, { i32 } { i32 1 }, { i32 } { i32 2 }, { i32 } { i32 7 }] }, comdat, align 4
@_ZZN2v88internal29StaticCallInterfaceDescriptorINS0_31StringToLowerCaseIntlDescriptorEE10InitializeEPNS0_27CallInterfaceDescriptorDataEE9registers = linkonce_odr hidden global { [5 x { i32 }] } { [5 x { i32 }] [{ i32 } zeroinitializer, { i32 } { i32 3 }, { i32 } { i32 1 }, { i32 } { i32 2 }, { i32 } { i32 7 }] }, comdat, align 4
@_ZZN2v88internal29StaticCallInterfaceDescriptorINS0_36ArrayEveryLoopContinuationDescriptorEE10InitializeEPNS0_27CallInterfaceDescriptorDataEE9registers = linkonce_odr hidden global { [5 x { i32 }] } { [5 x { i32 }] [{ i32 } zeroinitializer, { i32 } { i32 3 }, { i32 } { i32 1 }, { i32 } { i32 2 }, { i32 } { i32 7 }] }, comdat, align 4
@_ZZN2v88internal29StaticCallInterfaceDescriptorINS0_37ArrayFilterLoopContinuationDescriptorEE10InitializeEPNS0_27CallInterfaceDescriptorDataEE9registers = linkonce_odr hidden global { [5 x { i32 }] } { [5 x { i32 }] [{ i32 } zeroinitializer, { i32 } { i32 3 }, { i32 } { i32 1 }, { i32 } { i32 2 }, { i32 } { i32 7 }] }, comdat, align 4
@constinit.565 = private unnamed_addr constant [9 x %"class.v8::internal::MachineType"] [%"class.v8::internal::MachineType" { i8 9, i8 7 }, %"class.v8::internal::MachineType" { i8 8, i8 7 }, %"class.v8::internal::MachineType" { i8 8, i8 7 }, %"class.v8::internal::MachineType" { i8 9, i8 7 }, %"class.v8::internal::MachineType" { i8 8, i8 7 }, %"class.v8::internal::MachineType" { i8 8, i8 7 }, %"class.v8::internal::MachineType" { i8 9, i8 7 }, %"class.v8::internal::MachineType" { i8 9, i8 7 }, %"class.v8::internal::MachineType" { i8 9, i8 7 }], align 1
@_ZZN2v88internal29StaticCallInterfaceDescriptorINS0_35ArrayFindLoopContinuationDescriptorEE10InitializeEPNS0_27CallInterfaceDescriptorDataEE9registers = linkonce_odr hidden global { [5 x { i32 }] } { [5 x { i32 }] [{ i32 } zeroinitializer, { i32 } { i32 3 }, { i32 } { i32 1 }, { i32 } { i32 2 }, { i32 } { i32 7 }] }, comdat, align 4
@_ZZN2v88internal29StaticCallInterfaceDescriptorINS0_40ArrayFindIndexLoopContinuationDescriptorEE10InitializeEPNS0_27CallInterfaceDescriptorDataEE9registers = linkonce_odr hidden global { [5 x { i32 }] } { [5 x { i32 }] [{ i32 } zeroinitializer, { i32 } { i32 3 }, { i32 } { i32 1 }, { i32 } { i32 2 }, { i32 } { i32 7 }] }, comdat, align 4
@_ZZN2v88internal29StaticCallInterfaceDescriptorINS0_38ArrayForEachLoopContinuationDescriptorEE10InitializeEPNS0_27CallInterfaceDescriptorDataEE9registers = linkonce_odr hidden global { [5 x { i32 }] } { [5 x { i32 }] [{ i32 } zeroinitializer, { i32 } { i32 3 }, { i32 } { i32 1 }, { i32 } { i32 2 }, { i32 } { i32 7 }] }, comdat, align 4
@_ZZN2v88internal29StaticCallInterfaceDescriptorINS0_46LoadJoinElement_DictionaryElements_0DescriptorEE10InitializeEPNS0_27CallInterfaceDescriptorDataEE9registers = linkonce_odr hidden global { [5 x { i32 }] } { [5 x { i32 }] [{ i32 } zeroinitializer, { i32 } { i32 3 }, { i32 } { i32 1 }, { i32 } { i32 2 }, { i32 } { i32 7 }] }, comdat, align 4
@_ZZN2v88internal29StaticCallInterfaceDescriptorINS0_51LoadJoinElement_FastSmiOrObjectElements_0DescriptorEE10InitializeEPNS0_27CallInterfaceDescriptorDataEE9registers = linkonce_odr hidden global { [5 x { i32 }] } { [5 x { i32 }] [{ i32 } zeroinitializer, { i32 } { i32 3 }, { i32 } { i32 1 }, { i32 } { i32 2 }, { i32 } { i32 7 }] }, comdat, align 4
@_ZZN2v88internal29StaticCallInterfaceDescriptorINS0_46LoadJoinElement_FastDoubleElements_0DescriptorEE10InitializeEPNS0_27CallInterfaceDescriptorDataEE9registers = linkonce_odr hidden global { [5 x { i32 }] } { [5 x { i32 }] [{ i32 } zeroinitializer, { i32 } { i32 3 }, { i32 } { i32 1 }, { i32 } { i32 2 }, { i32 } { i32 7 }] }, comdat, align 4
@_ZZN2v88internal29StaticCallInterfaceDescriptorINS0_31ConvertToLocaleStringDescriptorEE10InitializeEPNS0_27CallInterfaceDescriptorDataEE9registers = linkonce_odr hidden global { [5 x { i32 }] } { [5 x { i32 }] [{ i32 } zeroinitializer, { i32 } { i32 3 }, { i32 } { i32 1 }, { i32 } { i32 2 }, { i32 } { i32 7 }] }, comdat, align 4
@_ZZN2v88internal29StaticCallInterfaceDescriptorINS0_23JoinStackPushDescriptorEE10InitializeEPNS0_27CallInterfaceDescriptorDataEE9registers = linkonce_odr hidden global { [5 x { i32 }] } { [5 x { i32 }] [{ i32 } zeroinitializer, { i32 } { i32 3 }, { i32 } { i32 1 }, { i32 } { i32 2 }, { i32 } { i32 7 }] }, comdat, align 4
@_ZZN2v88internal29StaticCallInterfaceDescriptorINS0_22JoinStackPopDescriptorEE10InitializeEPNS0_27CallInterfaceDescriptorDataEE9registers = linkonce_odr hidden global { [5 x { i32 }] } { [5 x { i32 }] [{ i32 } zeroinitializer, { i32 } { i32 3 }, { i32 } { i32 1 }, { i32 } { i32 2 }, { i32 } { i32 7 }] }, comdat, align 4
@_ZZN2v88internal29StaticCallInterfaceDescriptorINS0_34ArrayMapLoopContinuationDescriptorEE10InitializeEPNS0_27CallInterfaceDescriptorDataEE9registers = linkonce_odr hidden global { [5 x { i32 }] } { [5 x { i32 }] [{ i32 } zeroinitializer, { i32 } { i32 3 }, { i32 } { i32 1 }, { i32 } { i32 2 }, { i32 } { i32 7 }] }, comdat, align 4
@_ZZN2v88internal29StaticCallInterfaceDescriptorINS0_42ArrayReduceRightLoopContinuationDescriptorEE10InitializeEPNS0_27CallInterfaceDescriptorDataEE9registers = linkonce_odr hidden global { [5 x { i32 }] } { [5 x { i32 }] [{ i32 } zeroinitializer, { i32 } { i32 3 }, { i32 } { i32 1 }, { i32 } { i32 2 }, { i32 } { i32 7 }] }, comdat, align 4
@_ZZN2v88internal29StaticCallInterfaceDescriptorINS0_37ArrayReduceLoopContinuationDescriptorEE10InitializeEPNS0_27CallInterfaceDescriptorDataEE9registers = linkonce_odr hidden global { [5 x { i32 }] } { [5 x { i32 }] [{ i32 } zeroinitializer, { i32 } { i32 3 }, { i32 } { i32 1 }, { i32 } { i32 2 }, { i32 } { i32 7 }] }, comdat, align 4
@_ZZN2v88internal29StaticCallInterfaceDescriptorINS0_35ArraySomeLoopContinuationDescriptorEE10InitializeEPNS0_27CallInterfaceDescriptorDataEE9registers = linkonce_odr hidden global { [5 x { i32 }] } { [5 x { i32 }] [{ i32 } zeroinitializer, { i32 } { i32 3 }, { i32 } { i32 1 }, { i32 } { i32 2 }, { i32 } { i32 7 }] }, comdat, align 4
@constinit.580 = private unnamed_addr constant [9 x %"class.v8::internal::MachineType"] [%"class.v8::internal::MachineType" { i8 9, i8 7 }, %"class.v8::internal::MachineType" { i8 8, i8 7 }, %"class.v8::internal::MachineType" { i8 8, i8 7 }, %"class.v8::internal::MachineType" { i8 9, i8 7 }, %"class.v8::internal::MachineType" { i8 9, i8 7 }, %"class.v8::internal::MachineType" { i8 8, i8 7 }, %"class.v8::internal::MachineType" { i8 9, i8 7 }, %"class.v8::internal::MachineType" { i8 9, i8 7 }, %"class.v8::internal::MachineType" { i8 9, i8 7 }], align 1
@_ZZN2v88internal29StaticCallInterfaceDescriptorINS0_19ToIntegerDescriptorEE10InitializeEPNS0_27CallInterfaceDescriptorDataEE9registers = linkonce_odr hidden global { [5 x { i32 }] } { [5 x { i32 }] [{ i32 } zeroinitializer, { i32 } { i32 3 }, { i32 } { i32 1 }, { i32 } { i32 2 }, { i32 } { i32 7 }] }, comdat, align 4
@_ZZN2v88internal29StaticCallInterfaceDescriptorINS0_32FastCreateDataPropertyDescriptorEE10InitializeEPNS0_27CallInterfaceDescriptorDataEE9registers = linkonce_odr hidden global { [5 x { i32 }] } { [5 x { i32 }] [{ i32 } zeroinitializer, { i32 } { i32 3 }, { i32 } { i32 1 }, { i32 } { i32 2 }, { i32 } { i32 7 }] }, comdat, align 4
@_ZZN2v88internal29StaticCallInterfaceDescriptorINS0_28CheckNumberInRangeDescriptorEE10InitializeEPNS0_27CallInterfaceDescriptorDataEE9registers = linkonce_odr hidden global { [5 x { i32 }] } { [5 x { i32 }] [{ i32 } zeroinitializer, { i32 } { i32 3 }, { i32 } { i32 1 }, { i32 } { i32 2 }, { i32 } { i32 7 }] }, comdat, align 4
@_ZZN2v88internal29StaticCallInterfaceDescriptorINS0_25CheckSameObjectDescriptorEE10InitializeEPNS0_27CallInterfaceDescriptorDataEE9registers = linkonce_odr hidden global { [5 x { i32 }] } { [5 x { i32 }] [{ i32 } zeroinitializer, { i32 } { i32 3 }, { i32 } { i32 1 }, { i32 } { i32 2 }, { i32 } { i32 7 }] }, comdat, align 4
@_ZZN2v88internal29StaticCallInterfaceDescriptorINS0_26BigIntAddNoThrowDescriptorEE10InitializeEPNS0_27CallInterfaceDescriptorDataEE9registers = linkonce_odr hidden global { [5 x { i32 }] } { [5 x { i32 }] [{ i32 } zeroinitializer, { i32 } { i32 3 }, { i32 } { i32 1 }, { i32 } { i32 2 }, { i32 } { i32 7 }] }, comdat, align 4
@_ZZN2v88internal29StaticCallInterfaceDescriptorINS0_19BigIntAddDescriptorEE10InitializeEPNS0_27CallInterfaceDescriptorDataEE9registers = linkonce_odr hidden global { [5 x { i32 }] } { [5 x { i32 }] [{ i32 } zeroinitializer, { i32 } { i32 3 }, { i32 } { i32 1 }, { i32 } { i32 2 }, { i32 } { i32 7 }] }, comdat, align 4
@_ZZN2v88internal29StaticCallInterfaceDescriptorINS0_31BigIntSubtractNoThrowDescriptorEE10InitializeEPNS0_27CallInterfaceDescriptorDataEE9registers = linkonce_odr hidden global { [5 x { i32 }] } { [5 x { i32 }] [{ i32 } zeroinitializer, { i32 } { i32 3 }, { i32 } { i32 1 }, { i32 } { i32 2 }, { i32 } { i32 7 }] }, comdat, align 4
@_ZZN2v88internal29StaticCallInterfaceDescriptorINS0_24BigIntSubtractDescriptorEE10InitializeEPNS0_27CallInterfaceDescriptorDataEE9registers = linkonce_odr hidden global { [5 x { i32 }] } { [5 x { i32 }] [{ i32 } zeroinitializer, { i32 } { i32 3 }, { i32 } { i32 1 }, { i32 } { i32 2 }, { i32 } { i32 7 }] }, comdat, align 4
@_ZZN2v88internal29StaticCallInterfaceDescriptorINS0_26BigIntUnaryMinusDescriptorEE10InitializeEPNS0_27CallInterfaceDescriptorDataEE9registers = linkonce_odr hidden global { [5 x { i32 }] } { [5 x { i32 }] [{ i32 } zeroinitializer, { i32 } { i32 3 }, { i32 } { i32 1 }, { i32 } { i32 2 }, { i32 } { i32 7 }] }, comdat, align 4
@_ZZN2v88internal29StaticCallInterfaceDescriptorINS0_18ToStringDescriptorEE10InitializeEPNS0_27CallInterfaceDescriptorDataEE9registers = linkonce_odr hidden global { [5 x { i32 }] } { [5 x { i32 }] [{ i32 } zeroinitializer, { i32 } { i32 3 }, { i32 } { i32 1 }, { i32 } { i32 2 }, { i32 } { i32 7 }] }, comdat, align 4
@_ZZN2v88internal29StaticCallInterfaceDescriptorINS0_22StringToListDescriptorEE10InitializeEPNS0_27CallInterfaceDescriptorDataEE9registers = linkonce_odr hidden global { [5 x { i32 }] } { [5 x { i32 }] [{ i32 } zeroinitializer, { i32 } { i32 3 }, { i32 } { i32 1 }, { i32 } { i32 2 }, { i32 } { i32 7 }] }, comdat, align 4
@_ZZN2v88internal29StaticCallInterfaceDescriptorINS0_30StringAddConvertLeftDescriptorEE10InitializeEPNS0_27CallInterfaceDescriptorDataEE9registers = linkonce_odr hidden global { [5 x { i32 }] } { [5 x { i32 }] [{ i32 } zeroinitializer, { i32 } { i32 3 }, { i32 } { i32 1 }, { i32 } { i32 2 }, { i32 } { i32 7 }] }, comdat, align 4
@_ZZN2v88internal29StaticCallInterfaceDescriptorINS0_31StringAddConvertRightDescriptorEE10InitializeEPNS0_27CallInterfaceDescriptorDataEE9registers = linkonce_odr hidden global { [5 x { i32 }] } { [5 x { i32 }] [{ i32 } zeroinitializer, { i32 } { i32 3 }, { i32 } { i32 1 }, { i32 } { i32 2 }, { i32 } { i32 7 }] }, comdat, align 4
@_ZZN2v88internal29StaticCallInterfaceDescriptorINS0_22StringCharAtDescriptorEE10InitializeEPNS0_27CallInterfaceDescriptorDataEE9registers = linkonce_odr hidden global { [5 x { i32 }] } { [5 x { i32 }] [{ i32 } zeroinitializer, { i32 } { i32 3 }, { i32 } { i32 1 }, { i32 } { i32 2 }, { i32 } { i32 7 }] }, comdat, align 4
@_ZZN2v88internal29StaticCallInterfaceDescriptorINS0_32FastNewClosureBaselineDescriptorEE10InitializeEPNS0_27CallInterfaceDescriptorDataEE9registers = linkonce_odr hidden global { [5 x { i32 }] } { [5 x { i32 }] [{ i32 } zeroinitializer, { i32 } { i32 3 }, { i32 } { i32 1 }, { i32 } { i32 2 }, { i32 } { i32 7 }] }, comdat, align 4
@_ZZN2v88internal29StaticCallInterfaceDescriptorINS0_36FastNewFunctionContextEvalDescriptorEE10InitializeEPNS0_27CallInterfaceDescriptorDataEE9registers = linkonce_odr hidden global { [5 x { i32 }] } { [5 x { i32 }] [{ i32 } zeroinitializer, { i32 } { i32 3 }, { i32 } { i32 1 }, { i32 } { i32 2 }, { i32 } { i32 7 }] }, comdat, align 4
@_ZZN2v88internal29StaticCallInterfaceDescriptorINS0_40FastNewFunctionContextFunctionDescriptorEE10InitializeEPNS0_27CallInterfaceDescriptorDataEE9registers = linkonce_odr hidden global { [5 x { i32 }] } { [5 x { i32 }] [{ i32 } zeroinitializer, { i32 } { i32 3 }, { i32 } { i32 1 }, { i32 } { i32 2 }, { i32 } { i32 7 }] }, comdat, align 4
@_ZZN2v88internal29StaticCallInterfaceDescriptorINS0_29CreateRegExpLiteralDescriptorEE10InitializeEPNS0_27CallInterfaceDescriptorDataEE9registers = linkonce_odr hidden global { [5 x { i32 }] } { [5 x { i32 }] [{ i32 } zeroinitializer, { i32 } { i32 3 }, { i32 } { i32 1 }, { i32 } { i32 2 }, { i32 } { i32 7 }] }, comdat, align 4
@_ZZN2v88internal29StaticCallInterfaceDescriptorINS0_35CreateShallowArrayLiteralDescriptorEE10InitializeEPNS0_27CallInterfaceDescriptorDataEE9registers = linkonce_odr hidden global { [5 x { i32 }] } { [5 x { i32 }] [{ i32 } zeroinitializer, { i32 } { i32 3 }, { i32 } { i32 1 }, { i32 } { i32 2 }, { i32 } { i32 7 }] }, comdat, align 4
@_ZZN2v88internal29StaticCallInterfaceDescriptorINS0_33CreateEmptyArrayLiteralDescriptorEE10InitializeEPNS0_27CallInterfaceDescriptorDataEE9registers = linkonce_odr hidden global { [5 x { i32 }] } { [5 x { i32 }] [{ i32 } zeroinitializer, { i32 } { i32 3 }, { i32 } { i32 1 }, { i32 } { i32 2 }, { i32 } { i32 7 }] }, comdat, align 4
@_ZZN2v88internal29StaticCallInterfaceDescriptorINS0_36CreateShallowObjectLiteralDescriptorEE10InitializeEPNS0_27CallInterfaceDescriptorDataEE9registers = linkonce_odr hidden global { [5 x { i32 }] } { [5 x { i32 }] [{ i32 } zeroinitializer, { i32 } { i32 3 }, { i32 } { i32 1 }, { i32 } { i32 2 }, { i32 } { i32 7 }] }, comdat, align 4
@_ZZN2v88internal29StaticCallInterfaceDescriptorINS0_34CreateEmptyLiteralObjectDescriptorEE10InitializeEPNS0_27CallInterfaceDescriptorDataEE9registers = linkonce_odr hidden global { [5 x { i32 }] } { [5 x { i32 }] [{ i32 } zeroinitializer, { i32 } { i32 3 }, { i32 } { i32 1 }, { i32 } { i32 2 }, { i32 } { i32 7 }] }, comdat, align 4
@_ZZN2v88internal29StaticCallInterfaceDescriptorINS0_24StringToNumberDescriptorEE10InitializeEPNS0_27CallInterfaceDescriptorDataEE9registers = linkonce_odr hidden global { [5 x { i32 }] } { [5 x { i32 }] [{ i32 } zeroinitializer, { i32 } { i32 3 }, { i32 } { i32 1 }, { i32 } { i32 2 }, { i32 } { i32 7 }] }, comdat, align 4
@_ZZN2v88internal29StaticCallInterfaceDescriptorINS0_27NonNumberToNumberDescriptorEE10InitializeEPNS0_27CallInterfaceDescriptorDataEE9registers = linkonce_odr hidden global { [5 x { i32 }] } { [5 x { i32 }] [{ i32 } zeroinitializer, { i32 } { i32 3 }, { i32 } { i32 1 }, { i32 } { i32 2 }, { i32 } { i32 7 }] }, comdat, align 4
@_ZZN2v88internal29StaticCallInterfaceDescriptorINS0_28NonNumberToNumericDescriptorEE10InitializeEPNS0_27CallInterfaceDescriptorDataEE9registers = linkonce_odr hidden global { [5 x { i32 }] } { [5 x { i32 }] [{ i32 } zeroinitializer, { i32 } { i32 3 }, { i32 } { i32 1 }, { i32 } { i32 2 }, { i32 } { i32 7 }] }, comdat, align 4
@_ZZN2v88internal29StaticCallInterfaceDescriptorINS0_19ToNumericDescriptorEE10InitializeEPNS0_27CallInterfaceDescriptorDataEE9registers = linkonce_odr hidden global { [5 x { i32 }] } { [5 x { i32 }] [{ i32 } zeroinitializer, { i32 } { i32 3 }, { i32 } { i32 1 }, { i32 } { i32 2 }, { i32 } { i32 7 }] }, comdat, align 4
@_ZZN2v88internal29StaticCallInterfaceDescriptorINS0_24NumberToStringDescriptorEE10InitializeEPNS0_27CallInterfaceDescriptorDataEE9registers = linkonce_odr hidden global { [5 x { i32 }] } { [5 x { i32 }] [{ i32 } zeroinitializer, { i32 } { i32 3 }, { i32 } { i32 1 }, { i32 } { i32 2 }, { i32 } { i32 7 }] }, comdat, align 4
@_ZZN2v88internal29StaticCallInterfaceDescriptorINS0_19ToBooleanDescriptorEE10InitializeEPNS0_27CallInterfaceDescriptorDataEE9registers = linkonce_odr hidden global { [5 x { i32 }] } { [5 x { i32 }] [{ i32 } zeroinitializer, { i32 } { i32 3 }, { i32 } { i32 1 }, { i32 } { i32 2 }, { i32 } { i32 7 }] }, comdat, align 4
@_ZZN2v88internal29StaticCallInterfaceDescriptorINS0_34ToBooleanForBaselineJumpDescriptorEE10InitializeEPNS0_27CallInterfaceDescriptorDataEE9registers = linkonce_odr hidden global { [5 x { i32 }] } { [5 x { i32 }] [{ i32 } zeroinitializer, { i32 } { i32 3 }, { i32 } { i32 1 }, { i32 } { i32 2 }, { i32 } { i32 7 }] }, comdat, align 4
@_ZZN2v88internal29StaticCallInterfaceDescriptorINS0_18ToLengthDescriptorEE10InitializeEPNS0_27CallInterfaceDescriptorDataEE9registers = linkonce_odr hidden global { [5 x { i32 }] } { [5 x { i32 }] [{ i32 } zeroinitializer, { i32 } { i32 3 }, { i32 } { i32 1 }, { i32 } { i32 2 }, { i32 } { i32 7 }] }, comdat, align 4
@_ZZN2v88internal29StaticCallInterfaceDescriptorINS0_16ToNameDescriptorEE10InitializeEPNS0_27CallInterfaceDescriptorDataEE9registers = linkonce_odr hidden global { [5 x { i32 }] } { [5 x { i32 }] [{ i32 } zeroinitializer, { i32 } { i32 3 }, { i32 } { i32 1 }, { i32 } { i32 2 }, { i32 } { i32 7 }] }, comdat, align 4
@_ZZN2v88internal29StaticCallInterfaceDescriptorINS0_18ToObjectDescriptorEE10InitializeEPNS0_27CallInterfaceDescriptorDataEE9registers = linkonce_odr hidden global { [5 x { i32 }] } { [5 x { i32 }] [{ i32 } zeroinitializer, { i32 } { i32 3 }, { i32 } { i32 1 }, { i32 } { i32 2 }, { i32 } { i32 7 }] }, comdat, align 4
@_ZZN2v88internal29StaticCallInterfaceDescriptorINS0_41NonPrimitiveToPrimitive_DefaultDescriptorEE10InitializeEPNS0_27CallInterfaceDescriptorDataEE9registers = linkonce_odr hidden global { [5 x { i32 }] } { [5 x { i32 }] [{ i32 } zeroinitializer, { i32 } { i32 3 }, { i32 } { i32 1 }, { i32 } { i32 2 }, { i32 } { i32 7 }] }, comdat, align 4
@_ZZN2v88internal29StaticCallInterfaceDescriptorINS0_40NonPrimitiveToPrimitive_NumberDescriptorEE10InitializeEPNS0_27CallInterfaceDescriptorDataEE9registers = linkonce_odr hidden global { [5 x { i32 }] } { [5 x { i32 }] [{ i32 } zeroinitializer, { i32 } { i32 3 }, { i32 } { i32 1 }, { i32 } { i32 2 }, { i32 } { i32 7 }] }, comdat, align 4
@_ZZN2v88internal29StaticCallInterfaceDescriptorINS0_40NonPrimitiveToPrimitive_StringDescriptorEE10InitializeEPNS0_27CallInterfaceDescriptorDataEE9registers = linkonce_odr hidden global { [5 x { i32 }] } { [5 x { i32 }] [{ i32 } zeroinitializer, { i32 } { i32 3 }, { i32 } { i32 1 }, { i32 } { i32 2 }, { i32 } { i32 7 }] }, comdat, align 4
@_ZZN2v88internal29StaticCallInterfaceDescriptorINS0_36OrdinaryToPrimitive_NumberDescriptorEE10InitializeEPNS0_27CallInterfaceDescriptorDataEE9registers = linkonce_odr hidden global { [5 x { i32 }] } { [5 x { i32 }] [{ i32 } zeroinitializer, { i32 } { i32 3 }, { i32 } { i32 1 }, { i32 } { i32 2 }, { i32 } { i32 7 }] }, comdat, align 4
@_ZZN2v88internal29StaticCallInterfaceDescriptorINS0_36OrdinaryToPrimitive_StringDescriptorEE10InitializeEPNS0_27CallInterfaceDescriptorDataEE9registers = linkonce_odr hidden global { [5 x { i32 }] } { [5 x { i32 }] [{ i32 } zeroinitializer, { i32 } { i32 3 }, { i32 } { i32 1 }, { i32 } { i32 2 }, { i32 } { i32 7 }] }, comdat, align 4
@_ZZN2v88internal29StaticCallInterfaceDescriptorINS0_25IncBlockCounterDescriptorEE10InitializeEPNS0_27CallInterfaceDescriptorDataEE9registers = linkonce_odr hidden global { [5 x { i32 }] } { [5 x { i32 }] [{ i32 } zeroinitializer, { i32 } { i32 3 }, { i32 } { i32 1 }, { i32 } { i32 2 }, { i32 } { i32 7 }] }, comdat, align 4
@_ZZN2v88internal29StaticCallInterfaceDescriptorINS0_27GetTemplateObjectDescriptorEE10InitializeEPNS0_27CallInterfaceDescriptorDataEE9registers = linkonce_odr hidden global { [5 x { i32 }] } { [5 x { i32 }] [{ i32 } zeroinitializer, { i32 } { i32 3 }, { i32 } { i32 1 }, { i32 } { i32 2 }, { i32 } { i32 7 }] }, comdat, align 4
@_ZZN2v88internal29StaticCallInterfaceDescriptorINS0_41BytecodeBudgetInterruptFromCodeDescriptorEE10InitializeEPNS0_27CallInterfaceDescriptorDataEE9registers = linkonce_odr hidden global { [5 x { i32 }] } { [5 x { i32 }] [{ i32 } zeroinitializer, { i32 } { i32 3 }, { i32 } { i32 1 }, { i32 } { i32 2 }, { i32 } { i32 7 }] }, comdat, align 4
@_ZZN2v88internal29StaticCallInterfaceDescriptorINS0_19ForInNextDescriptorEE10InitializeEPNS0_27CallInterfaceDescriptorDataEE9registers = linkonce_odr hidden global { [5 x { i32 }] } { [5 x { i32 }] [{ i32 } zeroinitializer, { i32 } { i32 3 }, { i32 } { i32 1 }, { i32 } { i32 2 }, { i32 } { i32 7 }] }, comdat, align 4
@_ZZN2v88internal29StaticCallInterfaceDescriptorINS0_37GetImportMetaObjectBaselineDescriptorEE10InitializeEPNS0_27CallInterfaceDescriptorDataEE9registers = linkonce_odr hidden global { [5 x { i32 }] } { [5 x { i32 }] [{ i32 } zeroinitializer, { i32 } { i32 3 }, { i32 } { i32 1 }, { i32 } { i32 2 }, { i32 } { i32 7 }] }, comdat, align 4
@_ZZN2v88internal29StaticCallInterfaceDescriptorINS0_33GetIteratorWithFeedbackDescriptorEE10InitializeEPNS0_27CallInterfaceDescriptorDataEE9registers = linkonce_odr hidden global { [5 x { i32 }] } { [5 x { i32 }] [{ i32 } zeroinitializer, { i32 } { i32 3 }, { i32 } { i32 1 }, { i32 } { i32 2 }, { i32 } { i32 7 }] }, comdat, align 4
@_ZZN2v88internal29StaticCallInterfaceDescriptorINS0_29GetIteratorBaselineDescriptorEE10InitializeEPNS0_27CallInterfaceDescriptorDataEE9registers = linkonce_odr hidden global { [5 x { i32 }] } { [5 x { i32 }] [{ i32 } zeroinitializer, { i32 } { i32 3 }, { i32 } { i32 1 }, { i32 } { i32 2 }, { i32 } { i32 7 }] }, comdat, align 4
@_ZZN2v88internal29StaticCallInterfaceDescriptorINS0_45CreateAsyncFromSyncIteratorBaselineDescriptorEE10InitializeEPNS0_27CallInterfaceDescriptorDataEE9registers = linkonce_odr hidden global { [5 x { i32 }] } { [5 x { i32 }] [{ i32 } zeroinitializer, { i32 } { i32 3 }, { i32 } { i32 1 }, { i32 } { i32 2 }, { i32 } { i32 7 }] }, comdat, align 4
@_ZZN2v88internal29StaticCallInterfaceDescriptorINS0_34CallIteratorWithFeedbackDescriptorEE10InitializeEPNS0_27CallInterfaceDescriptorDataEE9registers = linkonce_odr hidden global { [5 x { i32 }] } { [5 x { i32 }] [{ i32 } zeroinitializer, { i32 } { i32 3 }, { i32 } { i32 1 }, { i32 } { i32 2 }, { i32 } { i32 7 }] }, comdat, align 4
@_ZZN2v88internal29StaticCallInterfaceDescriptorINS0_18ParseIntDescriptorEE10InitializeEPNS0_27CallInterfaceDescriptorDataEE9registers = linkonce_odr hidden global { [5 x { i32 }] } { [5 x { i32 }] [{ i32 } zeroinitializer, { i32 } { i32 3 }, { i32 } { i32 1 }, { i32 } { i32 2 }, { i32 } { i32 7 }] }, comdat, align 4
@_ZZN2v88internal29StaticCallInterfaceDescriptorINS0_13AddDescriptorEE10InitializeEPNS0_27CallInterfaceDescriptorDataEE9registers = linkonce_odr hidden global { [5 x { i32 }] } { [5 x { i32 }] [{ i32 } zeroinitializer, { i32 } { i32 3 }, { i32 } { i32 1 }, { i32 } { i32 2 }, { i32 } { i32 7 }] }, comdat, align 4
@_ZZN2v88internal29StaticCallInterfaceDescriptorINS0_18SubtractDescriptorEE10InitializeEPNS0_27CallInterfaceDescriptorDataEE9registers = linkonce_odr hidden global { [5 x { i32 }] } { [5 x { i32 }] [{ i32 } zeroinitializer, { i32 } { i32 3 }, { i32 } { i32 1 }, { i32 } { i32 2 }, { i32 } { i32 7 }] }, comdat, align 4
@_ZZN2v88internal29StaticCallInterfaceDescriptorINS0_18MultiplyDescriptorEE10InitializeEPNS0_27CallInterfaceDescriptorDataEE9registers = linkonce_odr hidden global { [5 x { i32 }] } { [5 x { i32 }] [{ i32 } zeroinitializer, { i32 } { i32 3 }, { i32 } { i32 1 }, { i32 } { i32 2 }, { i32 } { i32 7 }] }, comdat, align 4
@_ZZN2v88internal29StaticCallInterfaceDescriptorINS0_16DivideDescriptorEE10InitializeEPNS0_27CallInterfaceDescriptorDataEE9registers = linkonce_odr hidden global { [5 x { i32 }] } { [5 x { i32 }] [{ i32 } zeroinitializer, { i32 } { i32 3 }, { i32 } { i32 1 }, { i32 } { i32 2 }, { i32 } { i32 7 }] }, comdat, align 4
@_ZZN2v88internal29StaticCallInterfaceDescriptorINS0_17ModulusDescriptorEE10InitializeEPNS0_27CallInterfaceDescriptorDataEE9registers = linkonce_odr hidden global { [5 x { i32 }] } { [5 x { i32 }] [{ i32 } zeroinitializer, { i32 } { i32 3 }, { i32 } { i32 1 }, { i32 } { i32 2 }, { i32 } { i32 7 }] }, comdat, align 4
@_ZZN2v88internal29StaticCallInterfaceDescriptorINS0_22ExponentiateDescriptorEE10InitializeEPNS0_27CallInterfaceDescriptorDataEE9registers = linkonce_odr hidden global { [5 x { i32 }] } { [5 x { i32 }] [{ i32 } zeroinitializer, { i32 } { i32 3 }, { i32 } { i32 1 }, { i32 } { i32 2 }, { i32 } { i32 7 }] }, comdat, align 4
@_ZZN2v88internal29StaticCallInterfaceDescriptorINS0_16NegateDescriptorEE10InitializeEPNS0_27CallInterfaceDescriptorDataEE9registers = linkonce_odr hidden global { [5 x { i32 }] } { [5 x { i32 }] [{ i32 } zeroinitializer, { i32 } { i32 3 }, { i32 } { i32 1 }, { i32 } { i32 2 }, { i32 } { i32 7 }] }, comdat, align 4
@_ZZN2v88internal29StaticCallInterfaceDescriptorINS0_20BitwiseNotDescriptorEE10InitializeEPNS0_27CallInterfaceDescriptorDataEE9registers = linkonce_odr hidden global { [5 x { i32 }] } { [5 x { i32 }] [{ i32 } zeroinitializer, { i32 } { i32 3 }, { i32 } { i32 1 }, { i32 } { i32 2 }, { i32 } { i32 7 }] }, comdat, align 4
@_ZZN2v88internal29StaticCallInterfaceDescriptorINS0_19DecrementDescriptorEE10InitializeEPNS0_27CallInterfaceDescriptorDataEE9registers = linkonce_odr hidden global { [5 x { i32 }] } { [5 x { i32 }] [{ i32 } zeroinitializer, { i32 } { i32 3 }, { i32 } { i32 1 }, { i32 } { i32 2 }, { i32 } { i32 7 }] }, comdat, align 4
@_ZZN2v88internal29StaticCallInterfaceDescriptorINS0_19IncrementDescriptorEE10InitializeEPNS0_27CallInterfaceDescriptorDataEE9registers = linkonce_odr hidden global { [5 x { i32 }] } { [5 x { i32 }] [{ i32 } zeroinitializer, { i32 } { i32 3 }, { i32 } { i32 1 }, { i32 } { i32 2 }, { i32 } { i32 7 }] }, comdat, align 4
@_ZZN2v88internal29StaticCallInterfaceDescriptorINS0_19ShiftLeftDescriptorEE10InitializeEPNS0_27CallInterfaceDescriptorDataEE9registers = linkonce_odr hidden global { [5 x { i32 }] } { [5 x { i32 }] [{ i32 } zeroinitializer, { i32 } { i32 3 }, { i32 } { i32 1 }, { i32 } { i32 2 }, { i32 } { i32 7 }] }, comdat, align 4
@_ZZN2v88internal29StaticCallInterfaceDescriptorINS0_20ShiftRightDescriptorEE10InitializeEPNS0_27CallInterfaceDescriptorDataEE9registers = linkonce_odr hidden global { [5 x { i32 }] } { [5 x { i32 }] [{ i32 } zeroinitializer, { i32 } { i32 3 }, { i32 } { i32 1 }, { i32 } { i32 2 }, { i32 } { i32 7 }] }, comdat, align 4
@_ZZN2v88internal29StaticCallInterfaceDescriptorINS0_27ShiftRightLogicalDescriptorEE10InitializeEPNS0_27CallInterfaceDescriptorDataEE9registers = linkonce_odr hidden global { [5 x { i32 }] } { [5 x { i32 }] [{ i32 } zeroinitializer, { i32 } { i32 3 }, { i32 } { i32 1 }, { i32 } { i32 2 }, { i32 } { i32 7 }] }, comdat, align 4
@_ZZN2v88internal29StaticCallInterfaceDescriptorINS0_20BitwiseAndDescriptorEE10InitializeEPNS0_27CallInterfaceDescriptorDataEE9registers = linkonce_odr hidden global { [5 x { i32 }] } { [5 x { i32 }] [{ i32 } zeroinitializer, { i32 } { i32 3 }, { i32 } { i32 1 }, { i32 } { i32 2 }, { i32 } { i32 7 }] }, comdat, align 4
@_ZZN2v88internal29StaticCallInterfaceDescriptorINS0_19BitwiseOrDescriptorEE10InitializeEPNS0_27CallInterfaceDescriptorDataEE9registers = linkonce_odr hidden global { [5 x { i32 }] } { [5 x { i32 }] [{ i32 } zeroinitializer, { i32 } { i32 3 }, { i32 } { i32 1 }, { i32 } { i32 2 }, { i32 } { i32 7 }] }, comdat, align 4
@_ZZN2v88internal29StaticCallInterfaceDescriptorINS0_20BitwiseXorDescriptorEE10InitializeEPNS0_27CallInterfaceDescriptorDataEE9registers = linkonce_odr hidden global { [5 x { i32 }] } { [5 x { i32 }] [{ i32 } zeroinitializer, { i32 } { i32 3 }, { i32 } { i32 1 }, { i32 } { i32 2 }, { i32 } { i32 7 }] }, comdat, align 4
@_ZZN2v88internal29StaticCallInterfaceDescriptorINS0_18LessThanDescriptorEE10InitializeEPNS0_27CallInterfaceDescriptorDataEE9registers = linkonce_odr hidden global { [5 x { i32 }] } { [5 x { i32 }] [{ i32 } zeroinitializer, { i32 } { i32 3 }, { i32 } { i32 1 }, { i32 } { i32 2 }, { i32 } { i32 7 }] }, comdat, align 4
@_ZZN2v88internal29StaticCallInterfaceDescriptorINS0_25LessThanOrEqualDescriptorEE10InitializeEPNS0_27CallInterfaceDescriptorDataEE9registers = linkonce_odr hidden global { [5 x { i32 }] } { [5 x { i32 }] [{ i32 } zeroinitializer, { i32 } { i32 3 }, { i32 } { i32 1 }, { i32 } { i32 2 }, { i32 } { i32 7 }] }, comdat, align 4
@_ZZN2v88internal29StaticCallInterfaceDescriptorINS0_21GreaterThanDescriptorEE10InitializeEPNS0_27CallInterfaceDescriptorDataEE9registers = linkonce_odr hidden global { [5 x { i32 }] } { [5 x { i32 }] [{ i32 } zeroinitializer, { i32 } { i32 3 }, { i32 } { i32 1 }, { i32 } { i32 2 }, { i32 } { i32 7 }] }, comdat, align 4
@_ZZN2v88internal29StaticCallInterfaceDescriptorINS0_28GreaterThanOrEqualDescriptorEE10InitializeEPNS0_27CallInterfaceDescriptorDataEE9registers = linkonce_odr hidden global { [5 x { i32 }] } { [5 x { i32 }] [{ i32 } zeroinitializer, { i32 } { i32 3 }, { i32 } { i32 1 }, { i32 } { i32 2 }, { i32 } { i32 7 }] }, comdat, align 4
@_ZZN2v88internal29StaticCallInterfaceDescriptorINS0_15EqualDescriptorEE10InitializeEPNS0_27CallInterfaceDescriptorDataEE9registers = linkonce_odr hidden global { [5 x { i32 }] } { [5 x { i32 }] [{ i32 } zeroinitializer, { i32 } { i32 3 }, { i32 } { i32 1 }, { i32 } { i32 2 }, { i32 } { i32 7 }] }, comdat, align 4
@_ZZN2v88internal29StaticCallInterfaceDescriptorINS0_21StrictEqualDescriptorEE10InitializeEPNS0_27CallInterfaceDescriptorDataEE9registers = linkonce_odr hidden global { [5 x { i32 }] } { [5 x { i32 }] [{ i32 } zeroinitializer, { i32 } { i32 3 }, { i32 } { i32 1 }, { i32 } { i32 2 }, { i32 } { i32 7 }] }, comdat, align 4
@_ZZN2v88internal29StaticCallInterfaceDescriptorINS0_39CreateObjectWithoutPropertiesDescriptorEE10InitializeEPNS0_27CallInterfaceDescriptorDataEE9registers = linkonce_odr hidden global { [5 x { i32 }] } { [5 x { i32 }] [{ i32 } zeroinitializer, { i32 } { i32 3 }, { i32 } { i32 1 }, { i32 } { i32 2 }, { i32 } { i32 7 }] }, comdat, align 4
@_ZZN2v88internal29StaticCallInterfaceDescriptorINS0_24FulfillPromiseDescriptorEE10InitializeEPNS0_27CallInterfaceDescriptorDataEE9registers = linkonce_odr hidden global { [5 x { i32 }] } { [5 x { i32 }] [{ i32 } zeroinitializer, { i32 } { i32 3 }, { i32 } { i32 1 }, { i32 } { i32 2 }, { i32 } { i32 7 }] }, comdat, align 4
@_ZZN2v88internal29StaticCallInterfaceDescriptorINS0_23RejectPromiseDescriptorEE10InitializeEPNS0_27CallInterfaceDescriptorDataEE9registers = linkonce_odr hidden global { [5 x { i32 }] } { [5 x { i32 }] [{ i32 } zeroinitializer, { i32 } { i32 3 }, { i32 } { i32 1 }, { i32 } { i32 2 }, { i32 } { i32 7 }] }, comdat, align 4
@_ZZN2v88internal29StaticCallInterfaceDescriptorINS0_30NewPromiseCapabilityDescriptorEE10InitializeEPNS0_27CallInterfaceDescriptorDataEE9registers = linkonce_odr hidden global { [5 x { i32 }] } { [5 x { i32 }] [{ i32 } zeroinitializer, { i32 } { i32 3 }, { i32 } { i32 1 }, { i32 } { i32 2 }, { i32 } { i32 7 }] }, comdat, align 4
@_ZZN2v88internal29StaticCallInterfaceDescriptorINS0_28PerformPromiseThenDescriptorEE10InitializeEPNS0_27CallInterfaceDescriptorDataEE9registers = linkonce_odr hidden global { [5 x { i32 }] } { [5 x { i32 }] [{ i32 } zeroinitializer, { i32 } { i32 3 }, { i32 } { i32 1 }, { i32 } { i32 2 }, { i32 } { i32 7 }] }, comdat, align 4
@_ZZN2v88internal29StaticCallInterfaceDescriptorINS0_35PromiseFulfillReactionJobDescriptorEE10InitializeEPNS0_27CallInterfaceDescriptorDataEE9registers = linkonce_odr hidden global { [5 x { i32 }] } { [5 x { i32 }] [{ i32 } zeroinitializer, { i32 } { i32 3 }, { i32 } { i32 1 }, { i32 } { i32 2 }, { i32 } { i32 7 }] }, comdat, align 4
@_ZZN2v88internal29StaticCallInterfaceDescriptorINS0_34PromiseRejectReactionJobDescriptorEE10InitializeEPNS0_27CallInterfaceDescriptorDataEE9registers = linkonce_odr hidden global { [5 x { i32 }] } { [5 x { i32 }] [{ i32 } zeroinitializer, { i32 } { i32 3 }, { i32 } { i32 1 }, { i32 } { i32 2 }, { i32 } { i32 7 }] }, comdat, align 4
@_ZZN2v88internal29StaticCallInterfaceDescriptorINS0_24PromiseResolveDescriptorEE10InitializeEPNS0_27CallInterfaceDescriptorDataEE9registers = linkonce_odr hidden global { [5 x { i32 }] } { [5 x { i32 }] [{ i32 } zeroinitializer, { i32 } { i32 3 }, { i32 } { i32 1 }, { i32 } { i32 2 }, { i32 } { i32 7 }] }, comdat, align 4
@_ZZN2v88internal29StaticCallInterfaceDescriptorINS0_24ResolvePromiseDescriptorEE10InitializeEPNS0_27CallInterfaceDescriptorDataEE9registers = linkonce_odr hidden global { [5 x { i32 }] } { [5 x { i32 }] [{ i32 } zeroinitializer, { i32 } { i32 3 }, { i32 } { i32 1 }, { i32 } { i32 2 }, { i32 } { i32 7 }] }, comdat, align 4
@_ZZN2v88internal29StaticCallInterfaceDescriptorINS0_35PromiseResolveThenableJobDescriptorEE10InitializeEPNS0_27CallInterfaceDescriptorDataEE9registers = linkonce_odr hidden global { [5 x { i32 }] } { [5 x { i32 }] [{ i32 } zeroinitializer, { i32 } { i32 3 }, { i32 } { i32 1 }, { i32 } { i32 2 }, { i32 } { i32 7 }] }, comdat, align 4
@_ZZN2v88internal29StaticCallInterfaceDescriptorINS0_29ProxyDeletePropertyDescriptorEE10InitializeEPNS0_27CallInterfaceDescriptorDataEE9registers = linkonce_odr hidden global { [5 x { i32 }] } { [5 x { i32 }] [{ i32 } zeroinitializer, { i32 } { i32 3 }, { i32 } { i32 1 }, { i32 } { i32 2 }, { i32 } { i32 7 }] }, comdat, align 4
@_ZZN2v88internal29StaticCallInterfaceDescriptorINS0_26ProxyGetPropertyDescriptorEE10InitializeEPNS0_27CallInterfaceDescriptorDataEE9registers = linkonce_odr hidden global { [5 x { i32 }] } { [5 x { i32 }] [{ i32 } zeroinitializer, { i32 } { i32 3 }, { i32 } { i32 1 }, { i32 } { i32 2 }, { i32 } { i32 7 }] }, comdat, align 4
@_ZZN2v88internal29StaticCallInterfaceDescriptorINS0_29ProxyGetPrototypeOfDescriptorEE10InitializeEPNS0_27CallInterfaceDescriptorDataEE9registers = linkonce_odr hidden global { [5 x { i32 }] } { [5 x { i32 }] [{ i32 } zeroinitializer, { i32 } { i32 3 }, { i32 } { i32 1 }, { i32 } { i32 2 }, { i32 } { i32 7 }] }, comdat, align 4
@_ZZN2v88internal29StaticCallInterfaceDescriptorINS0_26ProxyHasPropertyDescriptorEE10InitializeEPNS0_27CallInterfaceDescriptorDataEE9registers = linkonce_odr hidden global { [5 x { i32 }] } { [5 x { i32 }] [{ i32 } zeroinitializer, { i32 } { i32 3 }, { i32 } { i32 1 }, { i32 } { i32 2 }, { i32 } { i32 7 }] }, comdat, align 4
@_ZZN2v88internal29StaticCallInterfaceDescriptorINS0_27ProxyIsExtensibleDescriptorEE10InitializeEPNS0_27CallInterfaceDescriptorDataEE9registers = linkonce_odr hidden global { [5 x { i32 }] } { [5 x { i32 }] [{ i32 } zeroinitializer, { i32 } { i32 3 }, { i32 } { i32 1 }, { i32 } { i32 2 }, { i32 } { i32 7 }] }, comdat, align 4
@_ZZN2v88internal29StaticCallInterfaceDescriptorINS0_32ProxyPreventExtensionsDescriptorEE10InitializeEPNS0_27CallInterfaceDescriptorDataEE9registers = linkonce_odr hidden global { [5 x { i32 }] } { [5 x { i32 }] [{ i32 } zeroinitializer, { i32 } { i32 3 }, { i32 } { i32 1 }, { i32 } { i32 2 }, { i32 } { i32 7 }] }, comdat, align 4
@_ZZN2v88internal29StaticCallInterfaceDescriptorINS0_26ProxySetPropertyDescriptorEE10InitializeEPNS0_27CallInterfaceDescriptorDataEE9registers = linkonce_odr hidden global { [5 x { i32 }] } { [5 x { i32 }] [{ i32 } zeroinitializer, { i32 } { i32 3 }, { i32 } { i32 1 }, { i32 } { i32 2 }, { i32 } { i32 7 }] }, comdat, align 4
@_ZZN2v88internal29StaticCallInterfaceDescriptorINS0_29ProxySetPrototypeOfDescriptorEE10InitializeEPNS0_27CallInterfaceDescriptorDataEE9registers = linkonce_odr hidden global { [5 x { i32 }] } { [5 x { i32 }] [{ i32 } zeroinitializer, { i32 } { i32 3 }, { i32 } { i32 1 }, { i32 } { i32 2 }, { i32 } { i32 7 }] }, comdat, align 4
@_ZZN2v88internal29StaticCallInterfaceDescriptorINS0_33RegExpPrototypeExecSlowDescriptorEE10InitializeEPNS0_27CallInterfaceDescriptorDataEE9registers = linkonce_odr hidden global { [5 x { i32 }] } { [5 x { i32 }] [{ i32 } zeroinitializer, { i32 } { i32 3 }, { i32 } { i32 1 }, { i32 } { i32 2 }, { i32 } { i32 7 }] }, comdat, align 4
@_ZZN2v88internal29StaticCallInterfaceDescriptorINS0_25RegExpMatchFastDescriptorEE10InitializeEPNS0_27CallInterfaceDescriptorDataEE9registers = linkonce_odr hidden global { [5 x { i32 }] } { [5 x { i32 }] [{ i32 } zeroinitializer, { i32 } { i32 3 }, { i32 } { i32 1 }, { i32 } { i32 2 }, { i32 } { i32 7 }] }, comdat, align 4
@_ZZN2v88internal29StaticCallInterfaceDescriptorINS0_23RegExpReplaceDescriptorEE10InitializeEPNS0_27CallInterfaceDescriptorDataEE9registers = linkonce_odr hidden global { [5 x { i32 }] } { [5 x { i32 }] [{ i32 } zeroinitializer, { i32 } { i32 3 }, { i32 } { i32 1 }, { i32 } { i32 2 }, { i32 } { i32 7 }] }, comdat, align 4
@_ZZN2v88internal29StaticCallInterfaceDescriptorINS0_26RegExpSearchFastDescriptorEE10InitializeEPNS0_27CallInterfaceDescriptorDataEE9registers = linkonce_odr hidden global { [5 x { i32 }] } { [5 x { i32 }] [{ i32 } zeroinitializer, { i32 } { i32 3 }, { i32 } { i32 1 }, { i32 } { i32 2 }, { i32 } { i32 7 }] }, comdat, align 4
@_ZZN2v88internal29StaticCallInterfaceDescriptorINS0_21RegExpSplitDescriptorEE10InitializeEPNS0_27CallInterfaceDescriptorDataEE9registers = linkonce_odr hidden global { [5 x { i32 }] } { [5 x { i32 }] [{ i32 } zeroinitializer, { i32 } { i32 3 }, { i32 } { i32 1 }, { i32 } { i32 2 }, { i32 } { i32 7 }] }, comdat, align 4
@_ZZN2v88internal29StaticCallInterfaceDescriptorINS0_33RegExpPrototypeTestFastDescriptorEE10InitializeEPNS0_27CallInterfaceDescriptorDataEE9registers = linkonce_odr hidden global { [5 x { i32 }] } { [5 x { i32 }] [{ i32 } zeroinitializer, { i32 } { i32 3 }, { i32 } { i32 1 }, { i32 } { i32 2 }, { i32 } { i32 7 }] }, comdat, align 4
@_ZZN2v88internal29StaticCallInterfaceDescriptorINS0_20CreateHTMLDescriptorEE10InitializeEPNS0_27CallInterfaceDescriptorDataEE9registers = linkonce_odr hidden global { [5 x { i32 }] } { [5 x { i32 }] [{ i32 } zeroinitializer, { i32 } { i32 3 }, { i32 } { i32 1 }, { i32 } { i32 2 }, { i32 } { i32 7 }] }, comdat, align 4
@_ZZN2v88internal29StaticCallInterfaceDescriptorINS0_22StringRepeatDescriptorEE10InitializeEPNS0_27CallInterfaceDescriptorDataEE9registers = linkonce_odr hidden global { [5 x { i32 }] } { [5 x { i32 }] [{ i32 } zeroinitializer, { i32 } { i32 3 }, { i32 } { i32 1 }, { i32 } { i32 2 }, { i32 } { i32 7 }] }, comdat, align 4
@_ZZN2v88internal29StaticCallInterfaceDescriptorINS0_26CreateTypedArrayDescriptorEE10InitializeEPNS0_27CallInterfaceDescriptorDataEE9registers = linkonce_odr hidden global { [5 x { i32 }] } { [5 x { i32 }] [{ i32 } zeroinitializer, { i32 } { i32 3 }, { i32 } { i32 1 }, { i32 } { i32 2 }, { i32 } { i32 7 }] }, comdat, align 4
@_ZZN2v88internal29StaticCallInterfaceDescriptorINS0_29TypedArrayMergeSortDescriptorEE10InitializeEPNS0_27CallInterfaceDescriptorDataEE9registers = linkonce_odr hidden global { [5 x { i32 }] } { [5 x { i32 }] [{ i32 } zeroinitializer, { i32 } { i32 3 }, { i32 } { i32 1 }, { i32 } { i32 2 }, { i32 } { i32 7 }] }, comdat, align 4
@_ZZN2v88internal29StaticCallInterfaceDescriptorINS0_36NewSloppyArgumentsElementsDescriptorEE10InitializeEPNS0_27CallInterfaceDescriptorDataEE9registers = linkonce_odr hidden global { [5 x { i32 }] } { [5 x { i32 }] [{ i32 } zeroinitializer, { i32 } { i32 3 }, { i32 } { i32 1 }, { i32 } { i32 2 }, { i32 } { i32 7 }] }, comdat, align 4
@_ZZN2v88internal29StaticCallInterfaceDescriptorINS0_36NewStrictArgumentsElementsDescriptorEE10InitializeEPNS0_27CallInterfaceDescriptorDataEE9registers = linkonce_odr hidden global { [5 x { i32 }] } { [5 x { i32 }] [{ i32 } zeroinitializer, { i32 } { i32 3 }, { i32 } { i32 1 }, { i32 } { i32 2 }, { i32 } { i32 7 }] }, comdat, align 4
@_ZZN2v88internal29StaticCallInterfaceDescriptorINS0_34NewRestArgumentsElementsDescriptorEE10InitializeEPNS0_27CallInterfaceDescriptorDataEE9registers = linkonce_odr hidden global { [5 x { i32 }] } { [5 x { i32 }] [{ i32 } zeroinitializer, { i32 } { i32 3 }, { i32 } { i32 1 }, { i32 } { i32 2 }, { i32 } { i32 7 }] }, comdat, align 4
@_ZZN2v88internal29StaticCallInterfaceDescriptorINS0_32FastNewSloppyArgumentsDescriptorEE10InitializeEPNS0_27CallInterfaceDescriptorDataEE9registers = linkonce_odr hidden global { [5 x { i32 }] } { [5 x { i32 }] [{ i32 } zeroinitializer, { i32 } { i32 3 }, { i32 } { i32 1 }, { i32 } { i32 2 }, { i32 } { i32 7 }] }, comdat, align 4
@_ZZN2v88internal29StaticCallInterfaceDescriptorINS0_32FastNewStrictArgumentsDescriptorEE10InitializeEPNS0_27CallInterfaceDescriptorDataEE9registers = linkonce_odr hidden global { [5 x { i32 }] } { [5 x { i32 }] [{ i32 } zeroinitializer, { i32 } { i32 3 }, { i32 } { i32 1 }, { i32 } { i32 2 }, { i32 } { i32 7 }] }, comdat, align 4
@_ZZN2v88internal29StaticCallInterfaceDescriptorINS0_30FastNewRestArgumentsDescriptorEE10InitializeEPNS0_27CallInterfaceDescriptorDataEE9registers = linkonce_odr hidden global { [5 x { i32 }] } { [5 x { i32 }] [{ i32 } zeroinitializer, { i32 } { i32 3 }, { i32 } { i32 1 }, { i32 } { i32 2 }, { i32 } { i32 7 }] }, comdat, align 4
@_ZZN2v88internal29StaticCallInterfaceDescriptorINS0_27StringSlowFlattenDescriptorEE10InitializeEPNS0_27CallInterfaceDescriptorDataEE9registers = linkonce_odr hidden global { [5 x { i32 }] } { [5 x { i32 }] [{ i32 } zeroinitializer, { i32 } { i32 3 }, { i32 } { i32 1 }, { i32 } { i32 2 }, { i32 } { i32 7 }] }, comdat, align 4
@_ZZN2v88internal29StaticCallInterfaceDescriptorINS0_23StringIndexOfDescriptorEE10InitializeEPNS0_27CallInterfaceDescriptorDataEE9registers = linkonce_odr hidden global { [5 x { i32 }] } { [5 x { i32 }] [{ i32 } zeroinitializer, { i32 } { i32 3 }, { i32 } { i32 1 }, { i32 } { i32 2 }, { i32 } { i32 7 }] }, comdat, align 4
@_ZZN2v88internal29StaticCallInterfaceDescriptorINS0_36GenericBuiltinTest_JSAny_0DescriptorEE10InitializeEPNS0_27CallInterfaceDescriptorDataEE9registers = linkonce_odr hidden global { [5 x { i32 }] } { [5 x { i32 }] [{ i32 } zeroinitializer, { i32 } { i32 3 }, { i32 } { i32 1 }, { i32 } { i32 2 }, { i32 } { i32 7 }] }, comdat, align 4
@_ZZN2v88internal29StaticCallInterfaceDescriptorINS0_25TestHelperPlus1DescriptorEE10InitializeEPNS0_27CallInterfaceDescriptorDataEE9registers = linkonce_odr hidden global { [5 x { i32 }] } { [5 x { i32 }] [{ i32 } zeroinitializer, { i32 } { i32 3 }, { i32 } { i32 1 }, { i32 } { i32 2 }, { i32 } { i32 7 }] }, comdat, align 4
@_ZZN2v88internal29StaticCallInterfaceDescriptorINS0_25TestHelperPlus2DescriptorEE10InitializeEPNS0_27CallInterfaceDescriptorDataEE9registers = linkonce_odr hidden global { [5 x { i32 }] } { [5 x { i32 }] [{ i32 } zeroinitializer, { i32 } { i32 3 }, { i32 } { i32 1 }, { i32 } { i32 2 }, { i32 } { i32 7 }] }, comdat, align 4
@_ZZN2v88internal29StaticCallInterfaceDescriptorINS0_19NewSmiBoxDescriptorEE10InitializeEPNS0_27CallInterfaceDescriptorDataEE9registers = linkonce_odr hidden global { [5 x { i32 }] } { [5 x { i32 }] [{ i32 } zeroinitializer, { i32 } { i32 3 }, { i32 } { i32 1 }, { i32 } { i32 2 }, { i32 } { i32 7 }] }, comdat, align 4
@_ZZN2v88internal29StaticCallInterfaceDescriptorINS0_25ReturnTwoValuesDescriptorEE10InitializeEPNS0_27CallInterfaceDescriptorDataEE9registers = linkonce_odr hidden global { [5 x { i32 }] } { [5 x { i32 }] [{ i32 } zeroinitializer, { i32 } { i32 3 }, { i32 } { i32 1 }, { i32 } { i32 2 }, { i32 } { i32 7 }] }, comdat, align 4
@_ZZN2v88internal29StaticCallInterfaceDescriptorINS0_32Load_FastSmiElements_0DescriptorEE10InitializeEPNS0_27CallInterfaceDescriptorDataEE9registers = linkonce_odr hidden global { [5 x { i32 }] } { [5 x { i32 }] [{ i32 } zeroinitializer, { i32 } { i32 3 }, { i32 } { i32 1 }, { i32 } { i32 2 }, { i32 } { i32 7 }] }, comdat, align 4
@_ZZN2v88internal29StaticCallInterfaceDescriptorINS0_35Load_FastObjectElements_0DescriptorEE10InitializeEPNS0_27CallInterfaceDescriptorDataEE9registers = linkonce_odr hidden global { [5 x { i32 }] } { [5 x { i32 }] [{ i32 } zeroinitializer, { i32 } { i32 3 }, { i32 } { i32 1 }, { i32 } { i32 2 }, { i32 } { i32 7 }] }, comdat, align 4
@_ZZN2v88internal29StaticCallInterfaceDescriptorINS0_35Load_FastDoubleElements_0DescriptorEE10InitializeEPNS0_27CallInterfaceDescriptorDataEE9registers = linkonce_odr hidden global { [5 x { i32 }] } { [5 x { i32 }] [{ i32 } zeroinitializer, { i32 } { i32 3 }, { i32 } { i32 1 }, { i32 } { i32 2 }, { i32 } { i32 7 }] }, comdat, align 4
@_ZZN2v88internal29StaticCallInterfaceDescriptorINS0_33Store_FastSmiElements_0DescriptorEE10InitializeEPNS0_27CallInterfaceDescriptorDataEE9registers = linkonce_odr hidden global { [5 x { i32 }] } { [5 x { i32 }] [{ i32 } zeroinitializer, { i32 } { i32 3 }, { i32 } { i32 1 }, { i32 } { i32 2 }, { i32 } { i32 7 }] }, comdat, align 4
@_ZZN2v88internal29StaticCallInterfaceDescriptorINS0_36Store_FastObjectElements_0DescriptorEE10InitializeEPNS0_27CallInterfaceDescriptorDataEE9registers = linkonce_odr hidden global { [5 x { i32 }] } { [5 x { i32 }] [{ i32 } zeroinitializer, { i32 } { i32 3 }, { i32 } { i32 1 }, { i32 } { i32 2 }, { i32 } { i32 7 }] }, comdat, align 4
@_ZZN2v88internal29StaticCallInterfaceDescriptorINS0_36Store_FastDoubleElements_0DescriptorEE10InitializeEPNS0_27CallInterfaceDescriptorDataEE9registers = linkonce_odr hidden global { [5 x { i32 }] } { [5 x { i32 }] [{ i32 } zeroinitializer, { i32 } { i32 3 }, { i32 } { i32 1 }, { i32 } { i32 2 }, { i32 } { i32 7 }] }, comdat, align 4
@_ZZN2v88internal29StaticCallInterfaceDescriptorINS0_34Delete_FastSmiElements_0DescriptorEE10InitializeEPNS0_27CallInterfaceDescriptorDataEE9registers = linkonce_odr hidden global { [5 x { i32 }] } { [5 x { i32 }] [{ i32 } zeroinitializer, { i32 } { i32 3 }, { i32 } { i32 1 }, { i32 } { i32 2 }, { i32 } { i32 7 }] }, comdat, align 4
@_ZZN2v88internal29StaticCallInterfaceDescriptorINS0_37Delete_FastObjectElements_0DescriptorEE10InitializeEPNS0_27CallInterfaceDescriptorDataEE9registers = linkonce_odr hidden global { [5 x { i32 }] } { [5 x { i32 }] [{ i32 } zeroinitializer, { i32 } { i32 3 }, { i32 } { i32 1 }, { i32 } { i32 2 }, { i32 } { i32 7 }] }, comdat, align 4
@_ZZN2v88internal29StaticCallInterfaceDescriptorINS0_37Delete_FastDoubleElements_0DescriptorEE10InitializeEPNS0_27CallInterfaceDescriptorDataEE9registers = linkonce_odr hidden global { [5 x { i32 }] } { [5 x { i32 }] [{ i32 } zeroinitializer, { i32 } { i32 3 }, { i32 } { i32 1 }, { i32 } { i32 2 }, { i32 } { i32 7 }] }, comdat, align 4
@_ZZN2v88internal29StaticCallInterfaceDescriptorINS0_28SortCompareDefaultDescriptorEE10InitializeEPNS0_27CallInterfaceDescriptorDataEE9registers = linkonce_odr hidden global { [5 x { i32 }] } { [5 x { i32 }] [{ i32 } zeroinitializer, { i32 } { i32 3 }, { i32 } { i32 1 }, { i32 } { i32 2 }, { i32 } { i32 7 }] }, comdat, align 4
@_ZZN2v88internal29StaticCallInterfaceDescriptorINS0_27SortCompareUserFnDescriptorEE10InitializeEPNS0_27CallInterfaceDescriptorDataEE9registers = linkonce_odr hidden global { [5 x { i32 }] } { [5 x { i32 }] [{ i32 } zeroinitializer, { i32 } { i32 3 }, { i32 } { i32 1 }, { i32 } { i32 2 }, { i32 } { i32 7 }] }, comdat, align 4
@_ZZN2v88internal29StaticCallInterfaceDescriptorINS0_54CanUseSameAccessor_GenericElementsAccessor_0DescriptorEE10InitializeEPNS0_27CallInterfaceDescriptorDataEE9registers = linkonce_odr hidden global { [5 x { i32 }] } { [5 x { i32 }] [{ i32 } zeroinitializer, { i32 } { i32 3 }, { i32 } { i32 1 }, { i32 } { i32 2 }, { i32 } { i32 7 }] }, comdat, align 4
@_ZZN2v88internal29StaticCallInterfaceDescriptorINS0_14CopyDescriptorEE10InitializeEPNS0_27CallInterfaceDescriptorDataEE9registers = linkonce_odr hidden global { [5 x { i32 }] } { [5 x { i32 }] [{ i32 } zeroinitializer, { i32 } { i32 3 }, { i32 } { i32 1 }, { i32 } { i32 2 }, { i32 } { i32 7 }] }, comdat, align 4
@_ZZN2v88internal29StaticCallInterfaceDescriptorINS0_17MergeAtDescriptorEE10InitializeEPNS0_27CallInterfaceDescriptorDataEE9registers = linkonce_odr hidden global { [5 x { i32 }] } { [5 x { i32 }] [{ i32 } zeroinitializer, { i32 } { i32 3 }, { i32 } { i32 1 }, { i32 } { i32 2 }, { i32 } { i32 7 }] }, comdat, align 4
@_ZZN2v88internal29StaticCallInterfaceDescriptorINS0_20GallopLeftDescriptorEE10InitializeEPNS0_27CallInterfaceDescriptorDataEE9registers = linkonce_odr hidden global { [5 x { i32 }] } { [5 x { i32 }] [{ i32 } zeroinitializer, { i32 } { i32 3 }, { i32 } { i32 1 }, { i32 } { i32 2 }, { i32 } { i32 7 }] }, comdat, align 4
@_ZZN2v88internal29StaticCallInterfaceDescriptorINS0_21GallopRightDescriptorEE10InitializeEPNS0_27CallInterfaceDescriptorDataEE9registers = linkonce_odr hidden global { [5 x { i32 }] } { [5 x { i32 }] [{ i32 } zeroinitializer, { i32 } { i32 3 }, { i32 } { i32 1 }, { i32 } { i32 2 }, { i32 } { i32 7 }] }, comdat, align 4
@_ZZN2v88internal29StaticCallInterfaceDescriptorINS0_22ArrayTimSortDescriptorEE10InitializeEPNS0_27CallInterfaceDescriptorDataEE9registers = linkonce_odr hidden global { [5 x { i32 }] } { [5 x { i32 }] [{ i32 } zeroinitializer, { i32 } { i32 3 }, { i32 } { i32 1 }, { i32 } { i32 2 }, { i32 } { i32 7 }] }, comdat, align 4
@_ZZN2v88internal29StaticCallInterfaceDescriptorINS0_31WasmInt32ToHeapNumberDescriptorEE10InitializeEPNS0_27CallInterfaceDescriptorDataEE9registers = linkonce_odr hidden global { [5 x { i32 }] } { [5 x { i32 }] [{ i32 } zeroinitializer, { i32 } { i32 3 }, { i32 } { i32 1 }, { i32 } { i32 2 }, { i32 } { i32 7 }] }, comdat, align 4
@_ZZN2v88internal29StaticCallInterfaceDescriptorINS0_33WasmTaggedNonSmiToInt32DescriptorEE10InitializeEPNS0_27CallInterfaceDescriptorDataEE9registers = linkonce_odr hidden global { [5 x { i32 }] } { [5 x { i32 }] [{ i32 } zeroinitializer, { i32 } { i32 3 }, { i32 } { i32 1 }, { i32 } { i32 2 }, { i32 } { i32 7 }] }, comdat, align 4
@_ZZN2v88internal29StaticCallInterfaceDescriptorINS0_29WasmTaggedToFloat64DescriptorEE10InitializeEPNS0_27CallInterfaceDescriptorDataEE9registers = linkonce_odr hidden global { [5 x { i32 }] } { [5 x { i32 }] [{ i32 } zeroinitializer, { i32 } { i32 3 }, { i32 } { i32 1 }, { i32 } { i32 2 }, { i32 } { i32 7 }] }, comdat, align 4
@_ZZN2v88internal29StaticCallInterfaceDescriptorINS0_24WasmMemoryGrowDescriptorEE10InitializeEPNS0_27CallInterfaceDescriptorDataEE9registers = linkonce_odr hidden global { [5 x { i32 }] } { [5 x { i32 }] [{ i32 } zeroinitializer, { i32 } { i32 3 }, { i32 } { i32 1 }, { i32 } { i32 2 }, { i32 } { i32 7 }] }, comdat, align 4
@_ZZN2v88internal29StaticCallInterfaceDescriptorINS0_23WasmTableInitDescriptorEE10InitializeEPNS0_27CallInterfaceDescriptorDataEE9registers = linkonce_odr hidden global { [5 x { i32 }] } { [5 x { i32 }] [{ i32 } zeroinitializer, { i32 } { i32 3 }, { i32 } { i32 1 }, { i32 } { i32 2 }, { i32 } { i32 7 }] }, comdat, align 4
@_ZZN2v88internal29StaticCallInterfaceDescriptorINS0_23WasmTableCopyDescriptorEE10InitializeEPNS0_27CallInterfaceDescriptorDataEE9registers = linkonce_odr hidden global { [5 x { i32 }] } { [5 x { i32 }] [{ i32 } zeroinitializer, { i32 } { i32 3 }, { i32 } { i32 1 }, { i32 } { i32 2 }, { i32 } { i32 7 }] }, comdat, align 4
@_ZZN2v88internal29StaticCallInterfaceDescriptorINS0_23WasmTableFillDescriptorEE10InitializeEPNS0_27CallInterfaceDescriptorDataEE9registers = linkonce_odr hidden global { [5 x { i32 }] } { [5 x { i32 }] [{ i32 } zeroinitializer, { i32 } { i32 3 }, { i32 } { i32 1 }, { i32 } { i32 2 }, { i32 } { i32 7 }] }, comdat, align 4
@_ZZN2v88internal29StaticCallInterfaceDescriptorINS0_23WasmTableGrowDescriptorEE10InitializeEPNS0_27CallInterfaceDescriptorDataEE9registers = linkonce_odr hidden global { [5 x { i32 }] } { [5 x { i32 }] [{ i32 } zeroinitializer, { i32 } { i32 3 }, { i32 } { i32 1 }, { i32 } { i32 2 }, { i32 } { i32 7 }] }, comdat, align 4
@_ZZN2v88internal29StaticCallInterfaceDescriptorINS0_22WasmTableGetDescriptorEE10InitializeEPNS0_27CallInterfaceDescriptorDataEE9registers = linkonce_odr hidden global { [5 x { i32 }] } { [5 x { i32 }] [{ i32 } zeroinitializer, { i32 } { i32 3 }, { i32 } { i32 1 }, { i32 } { i32 2 }, { i32 } { i32 7 }] }, comdat, align 4
@_ZZN2v88internal29StaticCallInterfaceDescriptorINS0_22WasmTableSetDescriptorEE10InitializeEPNS0_27CallInterfaceDescriptorDataEE9registers = linkonce_odr hidden global { [5 x { i32 }] } { [5 x { i32 }] [{ i32 } zeroinitializer, { i32 } { i32 3 }, { i32 } { i32 1 }, { i32 } { i32 2 }, { i32 } { i32 7 }] }, comdat, align 4
@_ZZN2v88internal29StaticCallInterfaceDescriptorINS0_21WasmRefFuncDescriptorEE10InitializeEPNS0_27CallInterfaceDescriptorDataEE9registers = linkonce_odr hidden global { [5 x { i32 }] } { [5 x { i32 }] [{ i32 } zeroinitializer, { i32 } { i32 3 }, { i32 } { i32 1 }, { i32 } { i32 2 }, { i32 } { i32 7 }] }, comdat, align 4
@_ZZN2v88internal29StaticCallInterfaceDescriptorINS0_32WasmAllocateFixedArrayDescriptorEE10InitializeEPNS0_27CallInterfaceDescriptorDataEE9registers = linkonce_odr hidden global { [5 x { i32 }] } { [5 x { i32 }] [{ i32 } zeroinitializer, { i32 } { i32 3 }, { i32 } { i32 1 }, { i32 } { i32 2 }, { i32 } { i32 7 }] }, comdat, align 4
@_ZZN2v88internal29StaticCallInterfaceDescriptorINS0_19WasmThrowDescriptorEE10InitializeEPNS0_27CallInterfaceDescriptorDataEE9registers = linkonce_odr hidden global { [5 x { i32 }] } { [5 x { i32 }] [{ i32 } zeroinitializer, { i32 } { i32 3 }, { i32 } { i32 1 }, { i32 } { i32 2 }, { i32 } { i32 7 }] }, comdat, align 4
@_ZZN2v88internal29StaticCallInterfaceDescriptorINS0_21WasmRethrowDescriptorEE10InitializeEPNS0_27CallInterfaceDescriptorDataEE9registers = linkonce_odr hidden global { [5 x { i32 }] } { [5 x { i32 }] [{ i32 } zeroinitializer, { i32 } { i32 3 }, { i32 } { i32 1 }, { i32 } { i32 2 }, { i32 } { i32 7 }] }, comdat, align 4
@_ZZN2v88internal29StaticCallInterfaceDescriptorINS0_27WasmTriggerTierUpDescriptorEE10InitializeEPNS0_27CallInterfaceDescriptorDataEE9registers = linkonce_odr hidden global { [5 x { i32 }] } { [5 x { i32 }] [{ i32 } zeroinitializer, { i32 } { i32 3 }, { i32 } { i32 1 }, { i32 } { i32 2 }, { i32 } { i32 7 }] }, comdat, align 4
@_ZZN2v88internal29StaticCallInterfaceDescriptorINS0_24WasmStackGuardDescriptorEE10InitializeEPNS0_27CallInterfaceDescriptorDataEE9registers = linkonce_odr hidden global { [5 x { i32 }] } { [5 x { i32 }] [{ i32 } zeroinitializer, { i32 } { i32 3 }, { i32 } { i32 1 }, { i32 } { i32 2 }, { i32 } { i32 7 }] }, comdat, align 4
@_ZZN2v88internal29StaticCallInterfaceDescriptorINS0_27WasmStackOverflowDescriptorEE10InitializeEPNS0_27CallInterfaceDescriptorDataEE9registers = linkonce_odr hidden global { [5 x { i32 }] } { [5 x { i32 }] [{ i32 } zeroinitializer, { i32 } { i32 3 }, { i32 } { i32 1 }, { i32 } { i32 2 }, { i32 } { i32 7 }] }, comdat, align 4
@_ZZN2v88internal29StaticCallInterfaceDescriptorINS0_25WasmTraceMemoryDescriptorEE10InitializeEPNS0_27CallInterfaceDescriptorDataEE9registers = linkonce_odr hidden global { [5 x { i32 }] } { [5 x { i32 }] [{ i32 } zeroinitializer, { i32 } { i32 3 }, { i32 } { i32 1 }, { i32 } { i32 2 }, { i32 } { i32 7 }] }, comdat, align 4
@_ZZN2v88internal29StaticCallInterfaceDescriptorINS0_24WasmTraceEnterDescriptorEE10InitializeEPNS0_27CallInterfaceDescriptorDataEE9registers = linkonce_odr hidden global { [5 x { i32 }] } { [5 x { i32 }] [{ i32 } zeroinitializer, { i32 } { i32 3 }, { i32 } { i32 1 }, { i32 } { i32 2 }, { i32 } { i32 7 }] }, comdat, align 4
@_ZZN2v88internal29StaticCallInterfaceDescriptorINS0_23WasmTraceExitDescriptorEE10InitializeEPNS0_27CallInterfaceDescriptorDataEE9registers = linkonce_odr hidden global { [5 x { i32 }] } { [5 x { i32 }] [{ i32 } zeroinitializer, { i32 } { i32 3 }, { i32 } { i32 1 }, { i32 } { i32 2 }, { i32 } { i32 7 }] }, comdat, align 4
@_ZZN2v88internal29StaticCallInterfaceDescriptorINS0_29WasmAllocateJSArrayDescriptorEE10InitializeEPNS0_27CallInterfaceDescriptorDataEE9registers = linkonce_odr hidden global { [5 x { i32 }] } { [5 x { i32 }] [{ i32 } zeroinitializer, { i32 } { i32 3 }, { i32 } { i32 1 }, { i32 } { i32 2 }, { i32 } { i32 7 }] }, comdat, align 4
@_ZZN2v88internal29StaticCallInterfaceDescriptorINS0_26WasmAllocatePairDescriptorEE10InitializeEPNS0_27CallInterfaceDescriptorDataEE9registers = linkonce_odr hidden global { [5 x { i32 }] } { [5 x { i32 }] [{ i32 } zeroinitializer, { i32 } { i32 3 }, { i32 } { i32 1 }, { i32 } { i32 2 }, { i32 } { i32 7 }] }, comdat, align 4
@_ZZN2v88internal29StaticCallInterfaceDescriptorINS0_25WasmAllocateRttDescriptorEE10InitializeEPNS0_27CallInterfaceDescriptorDataEE9registers = linkonce_odr hidden global { [5 x { i32 }] } { [5 x { i32 }] [{ i32 } zeroinitializer, { i32 } { i32 3 }, { i32 } { i32 1 }, { i32 } { i32 2 }, { i32 } { i32 7 }] }, comdat, align 4
@_ZZN2v88internal29StaticCallInterfaceDescriptorINS0_35WasmAllocateStructWithRttDescriptorEE10InitializeEPNS0_27CallInterfaceDescriptorDataEE9registers = linkonce_odr hidden global { [5 x { i32 }] } { [5 x { i32 }] [{ i32 } zeroinitializer, { i32 } { i32 3 }, { i32 } { i32 1 }, { i32 } { i32 2 }, { i32 } { i32 7 }] }, comdat, align 4
@_ZZN2v88internal29StaticCallInterfaceDescriptorINS0_34WasmAllocateArrayWithRttDescriptorEE10InitializeEPNS0_27CallInterfaceDescriptorDataEE9registers = linkonce_odr hidden global { [5 x { i32 }] } { [5 x { i32 }] [{ i32 } zeroinitializer, { i32 } { i32 3 }, { i32 } { i32 1 }, { i32 } { i32 2 }, { i32 } { i32 7 }] }, comdat, align 4
@_ZZN2v88internal29StaticCallInterfaceDescriptorINS0_33WasmArrayCopyWithChecksDescriptorEE10InitializeEPNS0_27CallInterfaceDescriptorDataEE9registers = linkonce_odr hidden global { [5 x { i32 }] } { [5 x { i32 }] [{ i32 } zeroinitializer, { i32 } { i32 3 }, { i32 } { i32 1 }, { i32 } { i32 2 }, { i32 } { i32 7 }] }, comdat, align 4
@_ZZN2v88internal29StaticCallInterfaceDescriptorINS0_23WasmArrayCopyDescriptorEE10InitializeEPNS0_27CallInterfaceDescriptorDataEE9registers = linkonce_odr hidden global { [5 x { i32 }] } { [5 x { i32 }] [{ i32 } zeroinitializer, { i32 } { i32 3 }, { i32 } { i32 1 }, { i32 } { i32 2 }, { i32 } { i32 7 }] }, comdat, align 4
@_ZZN2v88internal29StaticCallInterfaceDescriptorINS0_35WasmAllocateObjectWrapperDescriptorEE10InitializeEPNS0_27CallInterfaceDescriptorDataEE9registers = linkonce_odr hidden global { [5 x { i32 }] } { [5 x { i32 }] [{ i32 } zeroinitializer, { i32 } { i32 3 }, { i32 } { i32 1 }, { i32 } { i32 2 }, { i32 } { i32 7 }] }, comdat, align 4
@_ZZN2v88internal29StaticCallInterfaceDescriptorINS0_26WasmSubtypeCheckDescriptorEE10InitializeEPNS0_27CallInterfaceDescriptorDataEE9registers = linkonce_odr hidden global { [5 x { i32 }] } { [5 x { i32 }] [{ i32 } zeroinitializer, { i32 } { i32 3 }, { i32 } { i32 1 }, { i32 } { i32 2 }, { i32 } { i32 7 }] }, comdat, align 4
@_ZZN2v88internal29StaticCallInterfaceDescriptorINS0_27WasmInt32ToNumberDescriptorEE10InitializeEPNS0_27CallInterfaceDescriptorDataEE9registers = linkonce_odr hidden global { [5 x { i32 }] } { [5 x { i32 }] [{ i32 } zeroinitializer, { i32 } { i32 3 }, { i32 } { i32 1 }, { i32 } { i32 2 }, { i32 } { i32 7 }] }, comdat, align 4
@_ZZN2v88internal29StaticCallInterfaceDescriptorINS0_28WasmUint32ToNumberDescriptorEE10InitializeEPNS0_27CallInterfaceDescriptorDataEE9registers = linkonce_odr hidden global { [5 x { i32 }] } { [5 x { i32 }] [{ i32 } zeroinitializer, { i32 } { i32 3 }, { i32 } { i32 1 }, { i32 } { i32 2 }, { i32 } { i32 7 }] }, comdat, align 4
@_ZZN2v88internal29StaticCallInterfaceDescriptorINS0_27UintPtr53ToNumberDescriptorEE10InitializeEPNS0_27CallInterfaceDescriptorDataEE9registers = linkonce_odr hidden global { [5 x { i32 }] } { [5 x { i32 }] [{ i32 } zeroinitializer, { i32 } { i32 3 }, { i32 } { i32 1 }, { i32 } { i32 2 }, { i32 } { i32 7 }] }, comdat, align 4
@_ZZN2v88internal29StaticCallInterfaceDescriptorINS0_26WasmAtomicNotifyDescriptorEE10InitializeEPNS0_27CallInterfaceDescriptorDataEE9registers = linkonce_odr hidden global { [5 x { i32 }] } { [5 x { i32 }] [{ i32 } zeroinitializer, { i32 } { i32 3 }, { i32 } { i32 1 }, { i32 } { i32 2 }, { i32 } { i32 7 }] }, comdat, align 4
@_ZZN2v88internal29StaticCallInterfaceDescriptorINS0_29WasmI32AtomicWait64DescriptorEE10InitializeEPNS0_27CallInterfaceDescriptorDataEE9registers = linkonce_odr hidden global { [5 x { i32 }] } { [5 x { i32 }] [{ i32 } zeroinitializer, { i32 } { i32 3 }, { i32 } { i32 1 }, { i32 } { i32 2 }, { i32 } { i32 7 }] }, comdat, align 4
@_ZZN2v88internal29StaticCallInterfaceDescriptorINS0_29WasmI64AtomicWait64DescriptorEE10InitializeEPNS0_27CallInterfaceDescriptorDataEE9registers = linkonce_odr hidden global { [5 x { i32 }] } { [5 x { i32 }] [{ i32 } zeroinitializer, { i32 } { i32 3 }, { i32 } { i32 1 }, { i32 } { i32 2 }, { i32 } { i32 7 }] }, comdat, align 4
@_ZZN2v88internal29StaticCallInterfaceDescriptorINS0_28WasmGetOwnPropertyDescriptorEE10InitializeEPNS0_27CallInterfaceDescriptorDataEE9registers = linkonce_odr hidden global { [5 x { i32 }] } { [5 x { i32 }] [{ i32 } zeroinitializer, { i32 } { i32 3 }, { i32 } { i32 1 }, { i32 } { i32 2 }, { i32 } { i32 7 }] }, comdat, align 4
@_ZZN2v88internal29StaticCallInterfaceDescriptorINS0_18WasmTrapDescriptorEE10InitializeEPNS0_27CallInterfaceDescriptorDataEE9registers = linkonce_odr hidden global { [5 x { i32 }] } { [5 x { i32 }] [{ i32 } zeroinitializer, { i32 } { i32 3 }, { i32 } { i32 1 }, { i32 } { i32 2 }, { i32 } { i32 7 }] }, comdat, align 4
@_ZZN2v88internal29StaticCallInterfaceDescriptorINS0_34ThrowWasmTrapUnreachableDescriptorEE10InitializeEPNS0_27CallInterfaceDescriptorDataEE9registers = linkonce_odr hidden global { [5 x { i32 }] } { [5 x { i32 }] [{ i32 } zeroinitializer, { i32 } { i32 3 }, { i32 } { i32 1 }, { i32 } { i32 2 }, { i32 } { i32 7 }] }, comdat, align 4
@_ZZN2v88internal29StaticCallInterfaceDescriptorINS0_37ThrowWasmTrapMemOutOfBoundsDescriptorEE10InitializeEPNS0_27CallInterfaceDescriptorDataEE9registers = linkonce_odr hidden global { [5 x { i32 }] } { [5 x { i32 }] [{ i32 } zeroinitializer, { i32 } { i32 3 }, { i32 } { i32 1 }, { i32 } { i32 2 }, { i32 } { i32 7 }] }, comdat, align 4
@_ZZN2v88internal29StaticCallInterfaceDescriptorINS0_38ThrowWasmTrapUnalignedAccessDescriptorEE10InitializeEPNS0_27CallInterfaceDescriptorDataEE9registers = linkonce_odr hidden global { [5 x { i32 }] } { [5 x { i32 }] [{ i32 } zeroinitializer, { i32 } { i32 3 }, { i32 } { i32 1 }, { i32 } { i32 2 }, { i32 } { i32 7 }] }, comdat, align 4
@_ZZN2v88internal29StaticCallInterfaceDescriptorINS0_32ThrowWasmTrapDivByZeroDescriptorEE10InitializeEPNS0_27CallInterfaceDescriptorDataEE9registers = linkonce_odr hidden global { [5 x { i32 }] } { [5 x { i32 }] [{ i32 } zeroinitializer, { i32 } { i32 3 }, { i32 } { i32 1 }, { i32 } { i32 2 }, { i32 } { i32 7 }] }, comdat, align 4
@_ZZN2v88internal29StaticCallInterfaceDescriptorINS0_41ThrowWasmTrapDivUnrepresentableDescriptorEE10InitializeEPNS0_27CallInterfaceDescriptorDataEE9registers = linkonce_odr hidden global { [5 x { i32 }] } { [5 x { i32 }] [{ i32 } zeroinitializer, { i32 } { i32 3 }, { i32 } { i32 1 }, { i32 } { i32 2 }, { i32 } { i32 7 }] }, comdat, align 4
@_ZZN2v88internal29StaticCallInterfaceDescriptorINS0_32ThrowWasmTrapRemByZeroDescriptorEE10InitializeEPNS0_27CallInterfaceDescriptorDataEE9registers = linkonce_odr hidden global { [5 x { i32 }] } { [5 x { i32 }] [{ i32 } zeroinitializer, { i32 } { i32 3 }, { i32 } { i32 1 }, { i32 } { i32 2 }, { i32 } { i32 7 }] }, comdat, align 4
@_ZZN2v88internal29StaticCallInterfaceDescriptorINS0_43ThrowWasmTrapFloatUnrepresentableDescriptorEE10InitializeEPNS0_27CallInterfaceDescriptorDataEE9registers = linkonce_odr hidden global { [5 x { i32 }] } { [5 x { i32 }] [{ i32 } zeroinitializer, { i32 } { i32 3 }, { i32 } { i32 1 }, { i32 } { i32 2 }, { i32 } { i32 7 }] }, comdat, align 4
@_ZZN2v88internal29StaticCallInterfaceDescriptorINS0_38ThrowWasmTrapFuncSigMismatchDescriptorEE10InitializeEPNS0_27CallInterfaceDescriptorDataEE9registers = linkonce_odr hidden global { [5 x { i32 }] } { [5 x { i32 }] [{ i32 } zeroinitializer, { i32 } { i32 3 }, { i32 } { i32 1 }, { i32 } { i32 2 }, { i32 } { i32 7 }] }, comdat, align 4
@_ZZN2v88internal29StaticCallInterfaceDescriptorINS0_41ThrowWasmTrapDataSegmentDroppedDescriptorEE10InitializeEPNS0_27CallInterfaceDescriptorDataEE9registers = linkonce_odr hidden global { [5 x { i32 }] } { [5 x { i32 }] [{ i32 } zeroinitializer, { i32 } { i32 3 }, { i32 } { i32 1 }, { i32 } { i32 2 }, { i32 } { i32 7 }] }, comdat, align 4
@_ZZN2v88internal29StaticCallInterfaceDescriptorINS0_41ThrowWasmTrapElemSegmentDroppedDescriptorEE10InitializeEPNS0_27CallInterfaceDescriptorDataEE9registers = linkonce_odr hidden global { [5 x { i32 }] } { [5 x { i32 }] [{ i32 } zeroinitializer, { i32 } { i32 3 }, { i32 } { i32 1 }, { i32 } { i32 2 }, { i32 } { i32 7 }] }, comdat, align 4
@_ZZN2v88internal29StaticCallInterfaceDescriptorINS0_39ThrowWasmTrapTableOutOfBoundsDescriptorEE10InitializeEPNS0_27CallInterfaceDescriptorDataEE9registers = linkonce_odr hidden global { [5 x { i32 }] } { [5 x { i32 }] [{ i32 } zeroinitializer, { i32 } { i32 3 }, { i32 } { i32 1 }, { i32 } { i32 2 }, { i32 } { i32 7 }] }, comdat, align 4
@_ZZN2v88internal29StaticCallInterfaceDescriptorINS0_34ThrowWasmTrapRethrowNullDescriptorEE10InitializeEPNS0_27CallInterfaceDescriptorDataEE9registers = linkonce_odr hidden global { [5 x { i32 }] } { [5 x { i32 }] [{ i32 } zeroinitializer, { i32 } { i32 3 }, { i32 } { i32 1 }, { i32 } { i32 2 }, { i32 } { i32 7 }] }, comdat, align 4
@_ZZN2v88internal29StaticCallInterfaceDescriptorINS0_38ThrowWasmTrapNullDereferenceDescriptorEE10InitializeEPNS0_27CallInterfaceDescriptorDataEE9registers = linkonce_odr hidden global { [5 x { i32 }] } { [5 x { i32 }] [{ i32 } zeroinitializer, { i32 } { i32 3 }, { i32 } { i32 1 }, { i32 } { i32 2 }, { i32 } { i32 7 }] }, comdat, align 4
@_ZZN2v88internal29StaticCallInterfaceDescriptorINS0_34ThrowWasmTrapIllegalCastDescriptorEE10InitializeEPNS0_27CallInterfaceDescriptorDataEE9registers = linkonce_odr hidden global { [5 x { i32 }] } { [5 x { i32 }] [{ i32 } zeroinitializer, { i32 } { i32 3 }, { i32 } { i32 1 }, { i32 } { i32 2 }, { i32 } { i32 7 }] }, comdat, align 4
@_ZZN2v88internal29StaticCallInterfaceDescriptorINS0_39ThrowWasmTrapArrayOutOfBoundsDescriptorEE10InitializeEPNS0_27CallInterfaceDescriptorDataEE9registers = linkonce_odr hidden global { [5 x { i32 }] } { [5 x { i32 }] [{ i32 } zeroinitializer, { i32 } { i32 3 }, { i32 } { i32 1 }, { i32 } { i32 2 }, { i32 } { i32 7 }] }, comdat, align 4
@_ZZN2v88internal29StaticCallInterfaceDescriptorINS0_51LoadJoinElement_GenericElementsAccessor_0DescriptorEE10InitializeEPNS0_27CallInterfaceDescriptorDataEE9registers = linkonce_odr hidden global { [5 x { i32 }] } { [5 x { i32 }] [{ i32 } zeroinitializer, { i32 } { i32 3 }, { i32 } { i32 1 }, { i32 } { i32 2 }, { i32 } { i32 7 }] }, comdat, align 4
@_ZZN2v88internal29StaticCallInterfaceDescriptorINS0_46LoadJoinTypedElement_Int32Elements_0DescriptorEE10InitializeEPNS0_27CallInterfaceDescriptorDataEE9registers = linkonce_odr hidden global { [5 x { i32 }] } { [5 x { i32 }] [{ i32 } zeroinitializer, { i32 } { i32 3 }, { i32 } { i32 1 }, { i32 } { i32 2 }, { i32 } { i32 7 }] }, comdat, align 4
@_ZZN2v88internal29StaticCallInterfaceDescriptorINS0_48LoadJoinTypedElement_Float32Elements_0DescriptorEE10InitializeEPNS0_27CallInterfaceDescriptorDataEE9registers = linkonce_odr hidden global { [5 x { i32 }] } { [5 x { i32 }] [{ i32 } zeroinitializer, { i32 } { i32 3 }, { i32 } { i32 1 }, { i32 } { i32 2 }, { i32 } { i32 7 }] }, comdat, align 4
@_ZZN2v88internal29StaticCallInterfaceDescriptorINS0_48LoadJoinTypedElement_Float64Elements_0DescriptorEE10InitializeEPNS0_27CallInterfaceDescriptorDataEE9registers = linkonce_odr hidden global { [5 x { i32 }] } { [5 x { i32 }] [{ i32 } zeroinitializer, { i32 } { i32 3 }, { i32 } { i32 1 }, { i32 } { i32 2 }, { i32 } { i32 7 }] }, comdat, align 4
@_ZZN2v88internal29StaticCallInterfaceDescriptorINS0_53LoadJoinTypedElement_Uint8ClampedElements_0DescriptorEE10InitializeEPNS0_27CallInterfaceDescriptorDataEE9registers = linkonce_odr hidden global { [5 x { i32 }] } { [5 x { i32 }] [{ i32 } zeroinitializer, { i32 } { i32 3 }, { i32 } { i32 1 }, { i32 } { i32 2 }, { i32 } { i32 7 }] }, comdat, align 4
@_ZZN2v88internal29StaticCallInterfaceDescriptorINS0_50LoadJoinTypedElement_BigUint64Elements_0DescriptorEE10InitializeEPNS0_27CallInterfaceDescriptorDataEE9registers = linkonce_odr hidden global { [5 x { i32 }] } { [5 x { i32 }] [{ i32 } zeroinitializer, { i32 } { i32 3 }, { i32 } { i32 1 }, { i32 } { i32 2 }, { i32 } { i32 7 }] }, comdat, align 4
@_ZZN2v88internal29StaticCallInterfaceDescriptorINS0_49LoadJoinTypedElement_BigInt64Elements_0DescriptorEE10InitializeEPNS0_27CallInterfaceDescriptorDataEE9registers = linkonce_odr hidden global { [5 x { i32 }] } { [5 x { i32 }] [{ i32 } zeroinitializer, { i32 } { i32 3 }, { i32 } { i32 1 }, { i32 } { i32 2 }, { i32 } { i32 7 }] }, comdat, align 4
@_ZZN2v88internal29StaticCallInterfaceDescriptorINS0_46LoadJoinTypedElement_Uint8Elements_0DescriptorEE10InitializeEPNS0_27CallInterfaceDescriptorDataEE9registers = linkonce_odr hidden global { [5 x { i32 }] } { [5 x { i32 }] [{ i32 } zeroinitializer, { i32 } { i32 3 }, { i32 } { i32 1 }, { i32 } { i32 2 }, { i32 } { i32 7 }] }, comdat, align 4
@_ZZN2v88internal29StaticCallInterfaceDescriptorINS0_45LoadJoinTypedElement_Int8Elements_0DescriptorEE10InitializeEPNS0_27CallInterfaceDescriptorDataEE9registers = linkonce_odr hidden global { [5 x { i32 }] } { [5 x { i32 }] [{ i32 } zeroinitializer, { i32 } { i32 3 }, { i32 } { i32 1 }, { i32 } { i32 2 }, { i32 } { i32 7 }] }, comdat, align 4
@_ZZN2v88internal29StaticCallInterfaceDescriptorINS0_47LoadJoinTypedElement_Uint16Elements_0DescriptorEE10InitializeEPNS0_27CallInterfaceDescriptorDataEE9registers = linkonce_odr hidden global { [5 x { i32 }] } { [5 x { i32 }] [{ i32 } zeroinitializer, { i32 } { i32 3 }, { i32 } { i32 1 }, { i32 } { i32 2 }, { i32 } { i32 7 }] }, comdat, align 4
@_ZZN2v88internal29StaticCallInterfaceDescriptorINS0_46LoadJoinTypedElement_Int16Elements_0DescriptorEE10InitializeEPNS0_27CallInterfaceDescriptorDataEE9registers = linkonce_odr hidden global { [5 x { i32 }] } { [5 x { i32 }] [{ i32 } zeroinitializer, { i32 } { i32 3 }, { i32 } { i32 1 }, { i32 } { i32 2 }, { i32 } { i32 7 }] }, comdat, align 4
@_ZZN2v88internal29StaticCallInterfaceDescriptorINS0_47LoadJoinTypedElement_Uint32Elements_0DescriptorEE10InitializeEPNS0_27CallInterfaceDescriptorDataEE9registers = linkonce_odr hidden global { [5 x { i32 }] } { [5 x { i32 }] [{ i32 } zeroinitializer, { i32 } { i32 3 }, { i32 } { i32 1 }, { i32 } { i32 2 }, { i32 } { i32 7 }] }, comdat, align 4
@_ZZN2v88internal29StaticCallInterfaceDescriptorINS0_34GenericBuiltinTest_Smi_0DescriptorEE10InitializeEPNS0_27CallInterfaceDescriptorDataEE9registers = linkonce_odr hidden global { [5 x { i32 }] } { [5 x { i32 }] [{ i32 } zeroinitializer, { i32 } { i32 3 }, { i32 } { i32 1 }, { i32 } { i32 2 }, { i32 } { i32 7 }] }, comdat, align 4
@_ZZN2v88internal29StaticCallInterfaceDescriptorINS0_49CanUseSameAccessor_FastDoubleElements_0DescriptorEE10InitializeEPNS0_27CallInterfaceDescriptorDataEE9registers = linkonce_odr hidden global { [5 x { i32 }] } { [5 x { i32 }] [{ i32 } zeroinitializer, { i32 } { i32 3 }, { i32 } { i32 1 }, { i32 } { i32 2 }, { i32 } { i32 7 }] }, comdat, align 4
@_ZZN2v88internal29StaticCallInterfaceDescriptorINS0_46CanUseSameAccessor_FastSmiElements_0DescriptorEE10InitializeEPNS0_27CallInterfaceDescriptorDataEE9registers = linkonce_odr hidden global { [5 x { i32 }] } { [5 x { i32 }] [{ i32 } zeroinitializer, { i32 } { i32 3 }, { i32 } { i32 1 }, { i32 } { i32 2 }, { i32 } { i32 7 }] }, comdat, align 4
@_ZZN2v88internal29StaticCallInterfaceDescriptorINS0_49CanUseSameAccessor_FastObjectElements_0DescriptorEE10InitializeEPNS0_27CallInterfaceDescriptorDataEE9registers = linkonce_odr hidden global { [5 x { i32 }] } { [5 x { i32 }] [{ i32 } zeroinitializer, { i32 } { i32 3 }, { i32 } { i32 1 }, { i32 } { i32 2 }, { i32 } { i32 7 }] }, comdat, align 4
@_ZZN2v88internal29StaticCallInterfaceDescriptorINS0_40Load_GenericElementsAccessor_0DescriptorEE10InitializeEPNS0_27CallInterfaceDescriptorDataEE9registers = linkonce_odr hidden global { [5 x { i32 }] } { [5 x { i32 }] [{ i32 } zeroinitializer, { i32 } { i32 3 }, { i32 } { i32 1 }, { i32 } { i32 2 }, { i32 } { i32 7 }] }, comdat, align 4
@_ZZN2v88internal29StaticCallInterfaceDescriptorINS0_41Store_GenericElementsAccessor_0DescriptorEE10InitializeEPNS0_27CallInterfaceDescriptorDataEE9registers = linkonce_odr hidden global { [5 x { i32 }] } { [5 x { i32 }] [{ i32 } zeroinitializer, { i32 } { i32 3 }, { i32 } { i32 1 }, { i32 } { i32 2 }, { i32 } { i32 7 }] }, comdat, align 4
@_ZZN2v88internal29StaticCallInterfaceDescriptorINS0_42Delete_GenericElementsAccessor_0DescriptorEE10InitializeEPNS0_27CallInterfaceDescriptorDataEE9registers = linkonce_odr hidden global { [5 x { i32 }] } { [5 x { i32 }] [{ i32 } zeroinitializer, { i32 } { i32 3 }, { i32 } { i32 1 }, { i32 } { i32 2 }, { i32 } { i32 7 }] }, comdat, align 4
@_ZZN2v88internal29StaticCallInterfaceDescriptorINS0_42LoadTypedElement_Int32Elements_0DescriptorEE10InitializeEPNS0_27CallInterfaceDescriptorDataEE9registers = linkonce_odr hidden global { [5 x { i32 }] } { [5 x { i32 }] [{ i32 } zeroinitializer, { i32 } { i32 3 }, { i32 } { i32 1 }, { i32 } { i32 2 }, { i32 } { i32 7 }] }, comdat, align 4
@_ZZN2v88internal29StaticCallInterfaceDescriptorINS0_50StoreTypedElementNumeric_Int32Elements_0DescriptorEE10InitializeEPNS0_27CallInterfaceDescriptorDataEE9registers = linkonce_odr hidden global { [5 x { i32 }] } { [5 x { i32 }] [{ i32 } zeroinitializer, { i32 } { i32 3 }, { i32 } { i32 1 }, { i32 } { i32 2 }, { i32 } { i32 7 }] }, comdat, align 4
@_ZZN2v88internal29StaticCallInterfaceDescriptorINS0_48StoreTypedElementJSAny_Int32Elements_0DescriptorEE10InitializeEPNS0_27CallInterfaceDescriptorDataEE9registers = linkonce_odr hidden global { [5 x { i32 }] } { [5 x { i32 }] [{ i32 } zeroinitializer, { i32 } { i32 3 }, { i32 } { i32 1 }, { i32 } { i32 2 }, { i32 } { i32 7 }] }, comdat, align 4
@_ZZN2v88internal29StaticCallInterfaceDescriptorINS0_44LoadTypedElement_Float32Elements_0DescriptorEE10InitializeEPNS0_27CallInterfaceDescriptorDataEE9registers = linkonce_odr hidden global { [5 x { i32 }] } { [5 x { i32 }] [{ i32 } zeroinitializer, { i32 } { i32 3 }, { i32 } { i32 1 }, { i32 } { i32 2 }, { i32 } { i32 7 }] }, comdat, align 4
@_ZZN2v88internal29StaticCallInterfaceDescriptorINS0_52StoreTypedElementNumeric_Float32Elements_0DescriptorEE10InitializeEPNS0_27CallInterfaceDescriptorDataEE9registers = linkonce_odr hidden global { [5 x { i32 }] } { [5 x { i32 }] [{ i32 } zeroinitializer, { i32 } { i32 3 }, { i32 } { i32 1 }, { i32 } { i32 2 }, { i32 } { i32 7 }] }, comdat, align 4
@_ZZN2v88internal29StaticCallInterfaceDescriptorINS0_50StoreTypedElementJSAny_Float32Elements_0DescriptorEE10InitializeEPNS0_27CallInterfaceDescriptorDataEE9registers = linkonce_odr hidden global { [5 x { i32 }] } { [5 x { i32 }] [{ i32 } zeroinitializer, { i32 } { i32 3 }, { i32 } { i32 1 }, { i32 } { i32 2 }, { i32 } { i32 7 }] }, comdat, align 4
@_ZZN2v88internal29StaticCallInterfaceDescriptorINS0_44LoadTypedElement_Float64Elements_0DescriptorEE10InitializeEPNS0_27CallInterfaceDescriptorDataEE9registers = linkonce_odr hidden global { [5 x { i32 }] } { [5 x { i32 }] [{ i32 } zeroinitializer, { i32 } { i32 3 }, { i32 } { i32 1 }, { i32 } { i32 2 }, { i32 } { i32 7 }] }, comdat, align 4
@_ZZN2v88internal29StaticCallInterfaceDescriptorINS0_52StoreTypedElementNumeric_Float64Elements_0DescriptorEE10InitializeEPNS0_27CallInterfaceDescriptorDataEE9registers = linkonce_odr hidden global { [5 x { i32 }] } { [5 x { i32 }] [{ i32 } zeroinitializer, { i32 } { i32 3 }, { i32 } { i32 1 }, { i32 } { i32 2 }, { i32 } { i32 7 }] }, comdat, align 4
@_ZZN2v88internal29StaticCallInterfaceDescriptorINS0_50StoreTypedElementJSAny_Float64Elements_0DescriptorEE10InitializeEPNS0_27CallInterfaceDescriptorDataEE9registers = linkonce_odr hidden global { [5 x { i32 }] } { [5 x { i32 }] [{ i32 } zeroinitializer, { i32 } { i32 3 }, { i32 } { i32 1 }, { i32 } { i32 2 }, { i32 } { i32 7 }] }, comdat, align 4
@_ZZN2v88internal29StaticCallInterfaceDescriptorINS0_49LoadTypedElement_Uint8ClampedElements_0DescriptorEE10InitializeEPNS0_27CallInterfaceDescriptorDataEE9registers = linkonce_odr hidden global { [5 x { i32 }] } { [5 x { i32 }] [{ i32 } zeroinitializer, { i32 } { i32 3 }, { i32 } { i32 1 }, { i32 } { i32 2 }, { i32 } { i32 7 }] }, comdat, align 4
@_ZZN2v88internal29StaticCallInterfaceDescriptorINS0_57StoreTypedElementNumeric_Uint8ClampedElements_0DescriptorEE10InitializeEPNS0_27CallInterfaceDescriptorDataEE9registers = linkonce_odr hidden global { [5 x { i32 }] } { [5 x { i32 }] [{ i32 } zeroinitializer, { i32 } { i32 3 }, { i32 } { i32 1 }, { i32 } { i32 2 }, { i32 } { i32 7 }] }, comdat, align 4
@_ZZN2v88internal29StaticCallInterfaceDescriptorINS0_55StoreTypedElementJSAny_Uint8ClampedElements_0DescriptorEE10InitializeEPNS0_27CallInterfaceDescriptorDataEE9registers = linkonce_odr hidden global { [5 x { i32 }] } { [5 x { i32 }] [{ i32 } zeroinitializer, { i32 } { i32 3 }, { i32 } { i32 1 }, { i32 } { i32 2 }, { i32 } { i32 7 }] }, comdat, align 4
@_ZZN2v88internal29StaticCallInterfaceDescriptorINS0_46LoadTypedElement_BigUint64Elements_0DescriptorEE10InitializeEPNS0_27CallInterfaceDescriptorDataEE9registers = linkonce_odr hidden global { [5 x { i32 }] } { [5 x { i32 }] [{ i32 } zeroinitializer, { i32 } { i32 3 }, { i32 } { i32 1 }, { i32 } { i32 2 }, { i32 } { i32 7 }] }, comdat, align 4
@_ZZN2v88internal29StaticCallInterfaceDescriptorINS0_54StoreTypedElementNumeric_BigUint64Elements_0DescriptorEE10InitializeEPNS0_27CallInterfaceDescriptorDataEE9registers = linkonce_odr hidden global { [5 x { i32 }] } { [5 x { i32 }] [{ i32 } zeroinitializer, { i32 } { i32 3 }, { i32 } { i32 1 }, { i32 } { i32 2 }, { i32 } { i32 7 }] }, comdat, align 4
@_ZZN2v88internal29StaticCallInterfaceDescriptorINS0_52StoreTypedElementJSAny_BigUint64Elements_0DescriptorEE10InitializeEPNS0_27CallInterfaceDescriptorDataEE9registers = linkonce_odr hidden global { [5 x { i32 }] } { [5 x { i32 }] [{ i32 } zeroinitializer, { i32 } { i32 3 }, { i32 } { i32 1 }, { i32 } { i32 2 }, { i32 } { i32 7 }] }, comdat, align 4
@_ZZN2v88internal29StaticCallInterfaceDescriptorINS0_45LoadTypedElement_BigInt64Elements_0DescriptorEE10InitializeEPNS0_27CallInterfaceDescriptorDataEE9registers = linkonce_odr hidden global { [5 x { i32 }] } { [5 x { i32 }] [{ i32 } zeroinitializer, { i32 } { i32 3 }, { i32 } { i32 1 }, { i32 } { i32 2 }, { i32 } { i32 7 }] }, comdat, align 4
@_ZZN2v88internal29StaticCallInterfaceDescriptorINS0_53StoreTypedElementNumeric_BigInt64Elements_0DescriptorEE10InitializeEPNS0_27CallInterfaceDescriptorDataEE9registers = linkonce_odr hidden global { [5 x { i32 }] } { [5 x { i32 }] [{ i32 } zeroinitializer, { i32 } { i32 3 }, { i32 } { i32 1 }, { i32 } { i32 2 }, { i32 } { i32 7 }] }, comdat, align 4
@_ZZN2v88internal29StaticCallInterfaceDescriptorINS0_51StoreTypedElementJSAny_BigInt64Elements_0DescriptorEE10InitializeEPNS0_27CallInterfaceDescriptorDataEE9registers = linkonce_odr hidden global { [5 x { i32 }] } { [5 x { i32 }] [{ i32 } zeroinitializer, { i32 } { i32 3 }, { i32 } { i32 1 }, { i32 } { i32 2 }, { i32 } { i32 7 }] }, comdat, align 4
@_ZZN2v88internal29StaticCallInterfaceDescriptorINS0_42LoadTypedElement_Uint8Elements_0DescriptorEE10InitializeEPNS0_27CallInterfaceDescriptorDataEE9registers = linkonce_odr hidden global { [5 x { i32 }] } { [5 x { i32 }] [{ i32 } zeroinitializer, { i32 } { i32 3 }, { i32 } { i32 1 }, { i32 } { i32 2 }, { i32 } { i32 7 }] }, comdat, align 4
@_ZZN2v88internal29StaticCallInterfaceDescriptorINS0_50StoreTypedElementNumeric_Uint8Elements_0DescriptorEE10InitializeEPNS0_27CallInterfaceDescriptorDataEE9registers = linkonce_odr hidden global { [5 x { i32 }] } { [5 x { i32 }] [{ i32 } zeroinitializer, { i32 } { i32 3 }, { i32 } { i32 1 }, { i32 } { i32 2 }, { i32 } { i32 7 }] }, comdat, align 4
@_ZZN2v88internal29StaticCallInterfaceDescriptorINS0_48StoreTypedElementJSAny_Uint8Elements_0DescriptorEE10InitializeEPNS0_27CallInterfaceDescriptorDataEE9registers = linkonce_odr hidden global { [5 x { i32 }] } { [5 x { i32 }] [{ i32 } zeroinitializer, { i32 } { i32 3 }, { i32 } { i32 1 }, { i32 } { i32 2 }, { i32 } { i32 7 }] }, comdat, align 4
@_ZZN2v88internal29StaticCallInterfaceDescriptorINS0_41LoadTypedElement_Int8Elements_0DescriptorEE10InitializeEPNS0_27CallInterfaceDescriptorDataEE9registers = linkonce_odr hidden global { [5 x { i32 }] } { [5 x { i32 }] [{ i32 } zeroinitializer, { i32 } { i32 3 }, { i32 } { i32 1 }, { i32 } { i32 2 }, { i32 } { i32 7 }] }, comdat, align 4
@_ZZN2v88internal29StaticCallInterfaceDescriptorINS0_49StoreTypedElementNumeric_Int8Elements_0DescriptorEE10InitializeEPNS0_27CallInterfaceDescriptorDataEE9registers = linkonce_odr hidden global { [5 x { i32 }] } { [5 x { i32 }] [{ i32 } zeroinitializer, { i32 } { i32 3 }, { i32 } { i32 1 }, { i32 } { i32 2 }, { i32 } { i32 7 }] }, comdat, align 4
@_ZZN2v88internal29StaticCallInterfaceDescriptorINS0_47StoreTypedElementJSAny_Int8Elements_0DescriptorEE10InitializeEPNS0_27CallInterfaceDescriptorDataEE9registers = linkonce_odr hidden global { [5 x { i32 }] } { [5 x { i32 }] [{ i32 } zeroinitializer, { i32 } { i32 3 }, { i32 } { i32 1 }, { i32 } { i32 2 }, { i32 } { i32 7 }] }, comdat, align 4
@_ZZN2v88internal29StaticCallInterfaceDescriptorINS0_43LoadTypedElement_Uint16Elements_0DescriptorEE10InitializeEPNS0_27CallInterfaceDescriptorDataEE9registers = linkonce_odr hidden global { [5 x { i32 }] } { [5 x { i32 }] [{ i32 } zeroinitializer, { i32 } { i32 3 }, { i32 } { i32 1 }, { i32 } { i32 2 }, { i32 } { i32 7 }] }, comdat, align 4
@_ZZN2v88internal29StaticCallInterfaceDescriptorINS0_51StoreTypedElementNumeric_Uint16Elements_0DescriptorEE10InitializeEPNS0_27CallInterfaceDescriptorDataEE9registers = linkonce_odr hidden global { [5 x { i32 }] } { [5 x { i32 }] [{ i32 } zeroinitializer, { i32 } { i32 3 }, { i32 } { i32 1 }, { i32 } { i32 2 }, { i32 } { i32 7 }] }, comdat, align 4
@_ZZN2v88internal29StaticCallInterfaceDescriptorINS0_49StoreTypedElementJSAny_Uint16Elements_0DescriptorEE10InitializeEPNS0_27CallInterfaceDescriptorDataEE9registers = linkonce_odr hidden global { [5 x { i32 }] } { [5 x { i32 }] [{ i32 } zeroinitializer, { i32 } { i32 3 }, { i32 } { i32 1 }, { i32 } { i32 2 }, { i32 } { i32 7 }] }, comdat, align 4
@_ZZN2v88internal29StaticCallInterfaceDescriptorINS0_42LoadTypedElement_Int16Elements_0DescriptorEE10InitializeEPNS0_27CallInterfaceDescriptorDataEE9registers = linkonce_odr hidden global { [5 x { i32 }] } { [5 x { i32 }] [{ i32 } zeroinitializer, { i32 } { i32 3 }, { i32 } { i32 1 }, { i32 } { i32 2 }, { i32 } { i32 7 }] }, comdat, align 4
@_ZZN2v88internal29StaticCallInterfaceDescriptorINS0_50StoreTypedElementNumeric_Int16Elements_0DescriptorEE10InitializeEPNS0_27CallInterfaceDescriptorDataEE9registers = linkonce_odr hidden global { [5 x { i32 }] } { [5 x { i32 }] [{ i32 } zeroinitializer, { i32 } { i32 3 }, { i32 } { i32 1 }, { i32 } { i32 2 }, { i32 } { i32 7 }] }, comdat, align 4
@_ZZN2v88internal29StaticCallInterfaceDescriptorINS0_48StoreTypedElementJSAny_Int16Elements_0DescriptorEE10InitializeEPNS0_27CallInterfaceDescriptorDataEE9registers = linkonce_odr hidden global { [5 x { i32 }] } { [5 x { i32 }] [{ i32 } zeroinitializer, { i32 } { i32 3 }, { i32 } { i32 1 }, { i32 } { i32 2 }, { i32 } { i32 7 }] }, comdat, align 4
@_ZZN2v88internal29StaticCallInterfaceDescriptorINS0_43LoadTypedElement_Uint32Elements_0DescriptorEE10InitializeEPNS0_27CallInterfaceDescriptorDataEE9registers = linkonce_odr hidden global { [5 x { i32 }] } { [5 x { i32 }] [{ i32 } zeroinitializer, { i32 } { i32 3 }, { i32 } { i32 1 }, { i32 } { i32 2 }, { i32 } { i32 7 }] }, comdat, align 4
@_ZZN2v88internal29StaticCallInterfaceDescriptorINS0_51StoreTypedElementNumeric_Uint32Elements_0DescriptorEE10InitializeEPNS0_27CallInterfaceDescriptorDataEE9registers = linkonce_odr hidden global { [5 x { i32 }] } { [5 x { i32 }] [{ i32 } zeroinitializer, { i32 } { i32 3 }, { i32 } { i32 1 }, { i32 } { i32 2 }, { i32 } { i32 7 }] }, comdat, align 4
@_ZZN2v88internal29StaticCallInterfaceDescriptorINS0_49StoreTypedElementJSAny_Uint32Elements_0DescriptorEE10InitializeEPNS0_27CallInterfaceDescriptorDataEE9registers = linkonce_odr hidden global { [5 x { i32 }] } { [5 x { i32 }] [{ i32 } zeroinitializer, { i32 } { i32 3 }, { i32 } { i32 1 }, { i32 } { i32 2 }, { i32 } { i32 7 }] }, comdat, align 4
@switch.table._ZNK2v88internal23CallInterfaceDescriptor9DebugNameEv = private unnamed_addr constant [404 x i8*] [i8* getelementptr inbounds ([17 x i8], [17 x i8]* @.str, i64 0, i64 0), i8* getelementptr inbounds ([20 x i8], [20 x i8]* @.str.1, i64 0, i64 0), i8* getelementptr inbounds ([23 x i8], [23 x i8]* @.str.2, i64 0, i64 0), i8* getelementptr inbounds ([21 x i8], [21 x i8]* @.str.3, i64 0, i64 0), i8* getelementptr inbounds ([28 x i8], [28 x i8]* @.str.4, i64 0, i64 0), i8* getelementptr inbounds ([38 x i8], [38 x i8]* @.str.5, i64 0, i64 0), i8* getelementptr inbounds ([38 x i8], [38 x i8]* @.str.6, i64 0, i64 0), i8* getelementptr inbounds ([42 x i8], [42 x i8]* @.str.7, i64 0, i64 0), i8* getelementptr inbounds ([39 x i8], [39 x i8]* @.str.8, i64 0, i64 0), i8* getelementptr inbounds ([27 x i8], [27 x i8]* @.str.9, i64 0, i64 0), i8* getelementptr inbounds ([23 x i8], [23 x i8]* @.str.10, i64 0, i64 0), i8* getelementptr inbounds ([20 x i8], [20 x i8]* @.str.11, i64 0, i64 0), i8* getelementptr inbounds ([29 x i8], [29 x i8]* @.str.12, i64 0, i64 0), i8* getelementptr inbounds ([33 x i8], [33 x i8]* @.str.13, i64 0, i64 0), i8* getelementptr inbounds ([30 x i8], [30 x i8]* @.str.14, i64 0, i64 0), i8* getelementptr inbounds ([32 x i8], [32 x i8]* @.str.15, i64 0, i64 0), i8* getelementptr inbounds ([26 x i8], [26 x i8]* @.str.16, i64 0, i64 0), i8* getelementptr inbounds ([35 x i8], [35 x i8]* @.str.17, i64 0, i64 0), i8* getelementptr inbounds ([43 x i8], [43 x i8]* @.str.18, i64 0, i64 0), i8* getelementptr inbounds ([39 x i8], [39 x i8]* @.str.19, i64 0, i64 0), i8* getelementptr inbounds ([23 x i8], [23 x i8]* @.str.20, i64 0, i64 0), i8* getelementptr inbounds ([29 x i8], [29 x i8]* @.str.21, i64 0, i64 0), i8* getelementptr inbounds ([42 x i8], [42 x i8]* @.str.22, i64 0, i64 0), i8* getelementptr inbounds ([26 x i8], [26 x i8]* @.str.23, i64 0, i64 0), i8* getelementptr inbounds ([35 x i8], [35 x i8]* @.str.24, i64 0, i64 0), i8* getelementptr inbounds ([39 x i8], [39 x i8]* @.str.25, i64 0, i64 0), i8* getelementptr inbounds ([30 x i8], [30 x i8]* @.str.26, i64 0, i64 0), i8* getelementptr inbounds ([31 x i8], [31 x i8]* @.str.27, i64 0, i64 0), i8* getelementptr inbounds ([33 x i8], [33 x i8]* @.str.28, i64 0, i64 0), i8* getelementptr inbounds ([19 x i8], [19 x i8]* @.str.29, i64 0, i64 0), i8* getelementptr inbounds ([28 x i8], [28 x i8]* @.str.30, i64 0, i64 0), i8* getelementptr inbounds ([32 x i8], [32 x i8]* @.str.31, i64 0, i64 0), i8* getelementptr inbounds ([35 x i8], [35 x i8]* @.str.32, i64 0, i64 0), i8* getelementptr inbounds ([25 x i8], [25 x i8]* @.str.33, i64 0, i64 0), i8* getelementptr inbounds ([28 x i8], [28 x i8]* @.str.34, i64 0, i64 0), i8* getelementptr inbounds ([34 x i8], [34 x i8]* @.str.35, i64 0, i64 0), i8* getelementptr inbounds ([47 x i8], [47 x i8]* @.str.36, i64 0, i64 0), i8* getelementptr inbounds ([34 x i8], [34 x i8]* @.str.37, i64 0, i64 0), i8* getelementptr inbounds ([30 x i8], [30 x i8]* @.str.38, i64 0, i64 0), i8* getelementptr inbounds ([31 x i8], [31 x i8]* @.str.39, i64 0, i64 0), i8* getelementptr inbounds ([40 x i8], [40 x i8]* @.str.40, i64 0, i64 0), i8* getelementptr inbounds ([44 x i8], [44 x i8]* @.str.41, i64 0, i64 0), i8* getelementptr inbounds ([23 x i8], [23 x i8]* @.str.42, i64 0, i64 0), i8* getelementptr inbounds ([29 x i8], [29 x i8]* @.str.43, i64 0, i64 0), i8* getelementptr inbounds ([28 x i8], [28 x i8]* @.str.44, i64 0, i64 0), i8* getelementptr inbounds ([25 x i8], [25 x i8]* @.str.45, i64 0, i64 0), i8* getelementptr inbounds ([24 x i8], [24 x i8]* @.str.46, i64 0, i64 0), i8* getelementptr inbounds ([37 x i8], [37 x i8]* @.str.47, i64 0, i64 0), i8* getelementptr inbounds ([23 x i8], [23 x i8]* @.str.48, i64 0, i64 0), i8* getelementptr inbounds ([29 x i8], [29 x i8]* @.str.49, i64 0, i64 0), i8* getelementptr inbounds ([27 x i8], [27 x i8]* @.str.50, i64 0, i64 0), i8* getelementptr inbounds ([23 x i8], [23 x i8]* @.str.51, i64 0, i64 0), i8* getelementptr inbounds ([30 x i8], [30 x i8]* @.str.52, i64 0, i64 0), i8* getelementptr inbounds ([30 x i8], [30 x i8]* @.str.53, i64 0, i64 0), i8* getelementptr inbounds ([31 x i8], [31 x i8]* @.str.54, i64 0, i64 0), i8* getelementptr inbounds ([37 x i8], [37 x i8]* @.str.55, i64 0, i64 0), i8* getelementptr inbounds ([39 x i8], [39 x i8]* @.str.56, i64 0, i64 0), i8* getelementptr inbounds ([44 x i8], [44 x i8]* @.str.57, i64 0, i64 0), i8* getelementptr inbounds ([24 x i8], [24 x i8]* @.str.58, i64 0, i64 0), i8* getelementptr inbounds ([37 x i8], [37 x i8]* @.str.59, i64 0, i64 0), i8* getelementptr inbounds ([30 x i8], [30 x i8]* @.str.60, i64 0, i64 0), i8* getelementptr inbounds ([16 x i8], [16 x i8]* @.str.61, i64 0, i64 0), i8* getelementptr inbounds ([24 x i8], [24 x i8]* @.str.62, i64 0, i64 0), i8* getelementptr inbounds ([22 x i8], [22 x i8]* @.str.63, i64 0, i64 0), i8* getelementptr inbounds ([30 x i8], [30 x i8]* @.str.64, i64 0, i64 0), i8* getelementptr inbounds ([32 x i8], [32 x i8]* @.str.65, i64 0, i64 0), i8* getelementptr inbounds ([32 x i8], [32 x i8]* @.str.66, i64 0, i64 0), i8* getelementptr inbounds ([26 x i8], [26 x i8]* @.str.67, i64 0, i64 0), i8* getelementptr inbounds ([26 x i8], [26 x i8]* @.str.68, i64 0, i64 0), i8* getelementptr inbounds ([37 x i8], [37 x i8]* @.str.69, i64 0, i64 0), i8* getelementptr inbounds ([36 x i8], [36 x i8]* @.str.70, i64 0, i64 0), i8* getelementptr inbounds ([26 x i8], [26 x i8]* @.str.71, i64 0, i64 0), i8* getelementptr inbounds ([21 x i8], [21 x i8]* @.str.72, i64 0, i64 0), i8* getelementptr inbounds ([27 x i8], [27 x i8]* @.str.73, i64 0, i64 0), i8* getelementptr inbounds ([36 x i8], [36 x i8]* @.str.74, i64 0, i64 0), i8* getelementptr inbounds ([35 x i8], [35 x i8]* @.str.75, i64 0, i64 0), i8* getelementptr inbounds ([25 x i8], [25 x i8]* @.str.76, i64 0, i64 0), i8* getelementptr inbounds ([30 x i8], [30 x i8]* @.str.77, i64 0, i64 0), i8* getelementptr inbounds ([34 x i8], [34 x i8]* @.str.78, i64 0, i64 0), i8* getelementptr inbounds ([17 x i8], [17 x i8]* @.str.79, i64 0, i64 0), i8* getelementptr inbounds ([25 x i8], [25 x i8]* @.str.80, i64 0, i64 0), i8* getelementptr inbounds ([23 x i8], [23 x i8]* @.str.81, i64 0, i64 0), i8* getelementptr inbounds ([31 x i8], [31 x i8]* @.str.82, i64 0, i64 0), i8* getelementptr inbounds ([33 x i8], [33 x i8]* @.str.83, i64 0, i64 0), i8* getelementptr inbounds ([27 x i8], [27 x i8]* @.str.84, i64 0, i64 0), i8* getelementptr inbounds ([27 x i8], [27 x i8]* @.str.85, i64 0, i64 0), i8* getelementptr inbounds ([20 x i8], [20 x i8]* @.str.86, i64 0, i64 0), i8* getelementptr inbounds ([28 x i8], [28 x i8]* @.str.87, i64 0, i64 0), i8* getelementptr inbounds ([27 x i8], [27 x i8]* @.str.88, i64 0, i64 0), i8* getelementptr inbounds ([26 x i8], [26 x i8]* @.str.89, i64 0, i64 0), i8* getelementptr inbounds ([35 x i8], [35 x i8]* @.str.90, i64 0, i64 0), i8* getelementptr inbounds ([35 x i8], [35 x i8]* @.str.91, i64 0, i64 0), i8* getelementptr inbounds ([18 x i8], [18 x i8]* @.str.92, i64 0, i64 0), i8* getelementptr inbounds ([28 x i8], [28 x i8]* @.str.93, i64 0, i64 0), i8* getelementptr inbounds ([32 x i8], [32 x i8]* @.str.94, i64 0, i64 0), i8* getelementptr inbounds ([16 x i8], [16 x i8]* @.str.95, i64 0, i64 0), i8* getelementptr inbounds ([31 x i8], [31 x i8]* @.str.96, i64 0, i64 0), i8* getelementptr inbounds ([31 x i8], [31 x i8]* @.str.97, i64 0, i64 0), i8* getelementptr inbounds ([31 x i8], [31 x i8]* @.str.98, i64 0, i64 0), i8* getelementptr inbounds ([31 x i8], [31 x i8]* @.str.99, i64 0, i64 0), i8* getelementptr inbounds ([24 x i8], [24 x i8]* @.str.100, i64 0, i64 0), i8* getelementptr inbounds ([26 x i8], [26 x i8]* @.str.101, i64 0, i64 0), i8* getelementptr inbounds ([37 x i8], [37 x i8]* @.str.102, i64 0, i64 0), i8* getelementptr inbounds ([39 x i8], [39 x i8]* @.str.103, i64 0, i64 0), i8* getelementptr inbounds ([28 x i8], [28 x i8]* @.str.104, i64 0, i64 0), i8* getelementptr inbounds ([23 x i8], [23 x i8]* @.str.105, i64 0, i64 0), i8* getelementptr inbounds ([26 x i8], [26 x i8]* @.str.106, i64 0, i64 0), i8* getelementptr inbounds ([30 x i8], [30 x i8]* @.str.107, i64 0, i64 0), i8* getelementptr inbounds ([29 x i8], [29 x i8]* @.str.108, i64 0, i64 0), i8* getelementptr inbounds ([36 x i8], [36 x i8]* @.str.109, i64 0, i64 0), i8* getelementptr inbounds ([38 x i8], [38 x i8]* @.str.110, i64 0, i64 0), i8* getelementptr inbounds ([37 x i8], [37 x i8]* @.str.111, i64 0, i64 0), i8* getelementptr inbounds ([35 x i8], [35 x i8]* @.str.112, i64 0, i64 0), i8* getelementptr inbounds ([37 x i8], [37 x i8]* @.str.113, i64 0, i64 0), i8* getelementptr inbounds ([36 x i8], [36 x i8]* @.str.114, i64 0, i64 0), i8* getelementptr inbounds ([28 x i8], [28 x i8]* @.str.115, i64 0, i64 0), i8* getelementptr inbounds ([40 x i8], [40 x i8]* @.str.116, i64 0, i64 0), i8* getelementptr inbounds ([30 x i8], [30 x i8]* @.str.117, i64 0, i64 0), i8* getelementptr inbounds ([28 x i8], [28 x i8]* @.str.118, i64 0, i64 0), i8* getelementptr inbounds ([28 x i8], [28 x i8]* @.str.119, i64 0, i64 0), i8* getelementptr inbounds ([30 x i8], [30 x i8]* @.str.120, i64 0, i64 0), i8* getelementptr inbounds ([31 x i8], [31 x i8]* @.str.121, i64 0, i64 0), i8* getelementptr inbounds ([32 x i8], [32 x i8]* @.str.122, i64 0, i64 0), i8* getelementptr inbounds ([36 x i8], [36 x i8]* @.str.123, i64 0, i64 0), i8* getelementptr inbounds ([38 x i8], [38 x i8]* @.str.124, i64 0, i64 0), i8* getelementptr inbounds ([34 x i8], [34 x i8]* @.str.125, i64 0, i64 0), i8* getelementptr inbounds ([33 x i8], [33 x i8]* @.str.126, i64 0, i64 0), i8* getelementptr inbounds ([26 x i8], [26 x i8]* @.str.127, i64 0, i64 0), i8* getelementptr inbounds ([32 x i8], [32 x i8]* @.str.128, i64 0, i64 0), i8* getelementptr inbounds ([42 x i8], [42 x i8]* @.str.129, i64 0, i64 0), i8* getelementptr inbounds ([52 x i8], [52 x i8]* @.str.130, i64 0, i64 0), i8* getelementptr inbounds ([42 x i8], [42 x i8]* @.str.131, i64 0, i64 0), i8* getelementptr inbounds ([39 x i8], [39 x i8]* @.str.132, i64 0, i64 0), i8* getelementptr inbounds ([34 x i8], [34 x i8]* @.str.133, i64 0, i64 0), i8* getelementptr inbounds ([35 x i8], [35 x i8]* @.str.134, i64 0, i64 0), i8* getelementptr inbounds ([29 x i8], [29 x i8]* @.str.135, i64 0, i64 0), i8* getelementptr inbounds ([26 x i8], [26 x i8]* @.str.136, i64 0, i64 0), i8* getelementptr inbounds ([26 x i8], [26 x i8]* @.str.137, i64 0, i64 0), i8* getelementptr inbounds ([23 x i8], [23 x i8]* @.str.138, i64 0, i64 0), i8* getelementptr inbounds ([26 x i8], [26 x i8]* @.str.139, i64 0, i64 0), i8* getelementptr inbounds ([30 x i8], [30 x i8]* @.str.140, i64 0, i64 0), i8* getelementptr inbounds ([34 x i8], [34 x i8]* @.str.141, i64 0, i64 0), i8* getelementptr inbounds ([34 x i8], [34 x i8]* @.str.142, i64 0, i64 0), i8* getelementptr inbounds ([32 x i8], [32 x i8]* @.str.143, i64 0, i64 0), i8* getelementptr inbounds ([29 x i8], [29 x i8]* @.str.144, i64 0, i64 0), i8* getelementptr inbounds ([33 x i8], [33 x i8]* @.str.145, i64 0, i64 0), i8* getelementptr inbounds ([32 x i8], [32 x i8]* @.str.146, i64 0, i64 0), i8* getelementptr inbounds ([31 x i8], [31 x i8]* @.str.147, i64 0, i64 0), i8* getelementptr inbounds ([32 x i8], [32 x i8]* @.str.148, i64 0, i64 0), i8* getelementptr inbounds ([36 x i8], [36 x i8]* @.str.149, i64 0, i64 0), i8* getelementptr inbounds ([37 x i8], [37 x i8]* @.str.150, i64 0, i64 0), i8* getelementptr inbounds ([39 x i8], [39 x i8]* @.str.151, i64 0, i64 0), i8* getelementptr inbounds ([31 x i8], [31 x i8]* @.str.152, i64 0, i64 0), i8* getelementptr inbounds ([21 x i8], [21 x i8]* @.str.153, i64 0, i64 0), i8* getelementptr inbounds ([35 x i8], [35 x i8]* @.str.154, i64 0, i64 0), i8* getelementptr inbounds ([23 x i8], [23 x i8]* @.str.155, i64 0, i64 0), i8* getelementptr inbounds ([32 x i8], [32 x i8]* @.str.156, i64 0, i64 0), i8* getelementptr inbounds ([33 x i8], [33 x i8]* @.str.157, i64 0, i64 0), i8* getelementptr inbounds ([38 x i8], [38 x i8]* @.str.158, i64 0, i64 0), i8* getelementptr inbounds ([39 x i8], [39 x i8]* @.str.159, i64 0, i64 0), i8* getelementptr inbounds ([37 x i8], [37 x i8]* @.str.160, i64 0, i64 0), i8* getelementptr inbounds ([42 x i8], [42 x i8]* @.str.161, i64 0, i64 0), i8* getelementptr inbounds ([40 x i8], [40 x i8]* @.str.162, i64 0, i64 0), i8* getelementptr inbounds ([48 x i8], [48 x i8]* @.str.163, i64 0, i64 0), i8* getelementptr inbounds ([53 x i8], [53 x i8]* @.str.164, i64 0, i64 0), i8* getelementptr inbounds ([48 x i8], [48 x i8]* @.str.165, i64 0, i64 0), i8* getelementptr inbounds ([33 x i8], [33 x i8]* @.str.166, i64 0, i64 0), i8* getelementptr inbounds ([25 x i8], [25 x i8]* @.str.167, i64 0, i64 0), i8* getelementptr inbounds ([24 x i8], [24 x i8]* @.str.168, i64 0, i64 0), i8* getelementptr inbounds ([36 x i8], [36 x i8]* @.str.169, i64 0, i64 0), i8* getelementptr inbounds ([44 x i8], [44 x i8]* @.str.170, i64 0, i64 0), i8* getelementptr inbounds ([39 x i8], [39 x i8]* @.str.171, i64 0, i64 0), i8* getelementptr inbounds ([37 x i8], [37 x i8]* @.str.172, i64 0, i64 0), i8* getelementptr inbounds ([21 x i8], [21 x i8]* @.str.173, i64 0, i64 0), i8* getelementptr inbounds ([34 x i8], [34 x i8]* @.str.174, i64 0, i64 0), i8* getelementptr inbounds ([30 x i8], [30 x i8]* @.str.175, i64 0, i64 0), i8* getelementptr inbounds ([27 x i8], [27 x i8]* @.str.176, i64 0, i64 0), i8* getelementptr inbounds ([28 x i8], [28 x i8]* @.str.177, i64 0, i64 0), i8* getelementptr inbounds ([21 x i8], [21 x i8]* @.str.178, i64 0, i64 0), i8* getelementptr inbounds ([33 x i8], [33 x i8]* @.str.179, i64 0, i64 0), i8* getelementptr inbounds ([26 x i8], [26 x i8]* @.str.180, i64 0, i64 0), i8* getelementptr inbounds ([28 x i8], [28 x i8]* @.str.181, i64 0, i64 0), i8* getelementptr inbounds ([20 x i8], [20 x i8]* @.str.182, i64 0, i64 0), i8* getelementptr inbounds ([24 x i8], [24 x i8]* @.str.183, i64 0, i64 0), i8* getelementptr inbounds ([32 x i8], [32 x i8]* @.str.184, i64 0, i64 0), i8* getelementptr inbounds ([33 x i8], [33 x i8]* @.str.185, i64 0, i64 0), i8* getelementptr inbounds ([24 x i8], [24 x i8]* @.str.186, i64 0, i64 0), i8* getelementptr inbounds ([34 x i8], [34 x i8]* @.str.187, i64 0, i64 0), i8* getelementptr inbounds ([38 x i8], [38 x i8]* @.str.188, i64 0, i64 0), i8* getelementptr inbounds ([42 x i8], [42 x i8]* @.str.189, i64 0, i64 0), i8* getelementptr inbounds ([31 x i8], [31 x i8]* @.str.190, i64 0, i64 0), i8* getelementptr inbounds ([37 x i8], [37 x i8]* @.str.191, i64 0, i64 0), i8* getelementptr inbounds ([35 x i8], [35 x i8]* @.str.192, i64 0, i64 0), i8* getelementptr inbounds ([38 x i8], [38 x i8]* @.str.193, i64 0, i64 0), i8* getelementptr inbounds ([36 x i8], [36 x i8]* @.str.194, i64 0, i64 0), i8* getelementptr inbounds ([26 x i8], [26 x i8]* @.str.195, i64 0, i64 0), i8* getelementptr inbounds ([29 x i8], [29 x i8]* @.str.196, i64 0, i64 0), i8* getelementptr inbounds ([30 x i8], [30 x i8]* @.str.197, i64 0, i64 0), i8* getelementptr inbounds ([21 x i8], [21 x i8]* @.str.198, i64 0, i64 0), i8* getelementptr inbounds ([26 x i8], [26 x i8]* @.str.199, i64 0, i64 0), i8* getelementptr inbounds ([21 x i8], [21 x i8]* @.str.200, i64 0, i64 0), i8* getelementptr inbounds ([36 x i8], [36 x i8]* @.str.201, i64 0, i64 0), i8* getelementptr inbounds ([20 x i8], [20 x i8]* @.str.202, i64 0, i64 0), i8* getelementptr inbounds ([18 x i8], [18 x i8]* @.str.203, i64 0, i64 0), i8* getelementptr inbounds ([20 x i8], [20 x i8]* @.str.204, i64 0, i64 0), i8* getelementptr inbounds ([43 x i8], [43 x i8]* @.str.205, i64 0, i64 0), i8* getelementptr inbounds ([42 x i8], [42 x i8]* @.str.206, i64 0, i64 0), i8* getelementptr inbounds ([42 x i8], [42 x i8]* @.str.207, i64 0, i64 0), i8* getelementptr inbounds ([38 x i8], [38 x i8]* @.str.208, i64 0, i64 0), i8* getelementptr inbounds ([38 x i8], [38 x i8]* @.str.209, i64 0, i64 0), i8* getelementptr inbounds ([27 x i8], [27 x i8]* @.str.210, i64 0, i64 0), i8* getelementptr inbounds ([29 x i8], [29 x i8]* @.str.211, i64 0, i64 0), i8* getelementptr inbounds ([43 x i8], [43 x i8]* @.str.212, i64 0, i64 0), i8* getelementptr inbounds ([21 x i8], [21 x i8]* @.str.213, i64 0, i64 0), i8* getelementptr inbounds ([39 x i8], [39 x i8]* @.str.214, i64 0, i64 0), i8* getelementptr inbounds ([35 x i8], [35 x i8]* @.str.215, i64 0, i64 0), i8* getelementptr inbounds ([31 x i8], [31 x i8]* @.str.216, i64 0, i64 0), i8* getelementptr inbounds ([47 x i8], [47 x i8]* @.str.217, i64 0, i64 0), i8* getelementptr inbounds ([36 x i8], [36 x i8]* @.str.218, i64 0, i64 0), i8* getelementptr inbounds ([20 x i8], [20 x i8]* @.str.219, i64 0, i64 0), i8* getelementptr inbounds ([15 x i8], [15 x i8]* @.str.220, i64 0, i64 0), i8* getelementptr inbounds ([20 x i8], [20 x i8]* @.str.221, i64 0, i64 0), i8* getelementptr inbounds ([20 x i8], [20 x i8]* @.str.222, i64 0, i64 0), i8* getelementptr inbounds ([18 x i8], [18 x i8]* @.str.223, i64 0, i64 0), i8* getelementptr inbounds ([19 x i8], [19 x i8]* @.str.224, i64 0, i64 0), i8* getelementptr inbounds ([24 x i8], [24 x i8]* @.str.225, i64 0, i64 0), i8* getelementptr inbounds ([18 x i8], [18 x i8]* @.str.226, i64 0, i64 0), i8* getelementptr inbounds ([22 x i8], [22 x i8]* @.str.227, i64 0, i64 0), i8* getelementptr inbounds ([21 x i8], [21 x i8]* @.str.228, i64 0, i64 0), i8* getelementptr inbounds ([21 x i8], [21 x i8]* @.str.229, i64 0, i64 0), i8* getelementptr inbounds ([21 x i8], [21 x i8]* @.str.230, i64 0, i64 0), i8* getelementptr inbounds ([22 x i8], [22 x i8]* @.str.231, i64 0, i64 0), i8* getelementptr inbounds ([29 x i8], [29 x i8]* @.str.232, i64 0, i64 0), i8* getelementptr inbounds ([22 x i8], [22 x i8]* @.str.233, i64 0, i64 0), i8* getelementptr inbounds ([21 x i8], [21 x i8]* @.str.234, i64 0, i64 0), i8* getelementptr inbounds ([22 x i8], [22 x i8]* @.str.235, i64 0, i64 0), i8* getelementptr inbounds ([20 x i8], [20 x i8]* @.str.236, i64 0, i64 0), i8* getelementptr inbounds ([27 x i8], [27 x i8]* @.str.237, i64 0, i64 0), i8* getelementptr inbounds ([23 x i8], [23 x i8]* @.str.238, i64 0, i64 0), i8* getelementptr inbounds ([30 x i8], [30 x i8]* @.str.239, i64 0, i64 0), i8* getelementptr inbounds ([17 x i8], [17 x i8]* @.str.240, i64 0, i64 0), i8* getelementptr inbounds ([23 x i8], [23 x i8]* @.str.241, i64 0, i64 0), i8* getelementptr inbounds ([41 x i8], [41 x i8]* @.str.242, i64 0, i64 0), i8* getelementptr inbounds ([26 x i8], [26 x i8]* @.str.243, i64 0, i64 0), i8* getelementptr inbounds ([25 x i8], [25 x i8]* @.str.244, i64 0, i64 0), i8* getelementptr inbounds ([32 x i8], [32 x i8]* @.str.245, i64 0, i64 0), i8* getelementptr inbounds ([30 x i8], [30 x i8]* @.str.246, i64 0, i64 0), i8* getelementptr inbounds ([37 x i8], [37 x i8]* @.str.247, i64 0, i64 0), i8* getelementptr inbounds ([36 x i8], [36 x i8]* @.str.248, i64 0, i64 0), i8* getelementptr inbounds ([26 x i8], [26 x i8]* @.str.249, i64 0, i64 0), i8* getelementptr inbounds ([26 x i8], [26 x i8]* @.str.250, i64 0, i64 0), i8* getelementptr inbounds ([37 x i8], [37 x i8]* @.str.251, i64 0, i64 0), i8* getelementptr inbounds ([31 x i8], [31 x i8]* @.str.252, i64 0, i64 0), i8* getelementptr inbounds ([28 x i8], [28 x i8]* @.str.253, i64 0, i64 0), i8* getelementptr inbounds ([31 x i8], [31 x i8]* @.str.254, i64 0, i64 0), i8* getelementptr inbounds ([28 x i8], [28 x i8]* @.str.255, i64 0, i64 0), i8* getelementptr inbounds ([29 x i8], [29 x i8]* @.str.256, i64 0, i64 0), i8* getelementptr inbounds ([34 x i8], [34 x i8]* @.str.257, i64 0, i64 0), i8* getelementptr inbounds ([28 x i8], [28 x i8]* @.str.258, i64 0, i64 0), i8* getelementptr inbounds ([31 x i8], [31 x i8]* @.str.259, i64 0, i64 0), i8* getelementptr inbounds ([35 x i8], [35 x i8]* @.str.260, i64 0, i64 0), i8* getelementptr inbounds ([27 x i8], [27 x i8]* @.str.261, i64 0, i64 0), i8* getelementptr inbounds ([25 x i8], [25 x i8]* @.str.262, i64 0, i64 0), i8* getelementptr inbounds ([28 x i8], [28 x i8]* @.str.263, i64 0, i64 0), i8* getelementptr inbounds ([23 x i8], [23 x i8]* @.str.264, i64 0, i64 0), i8* getelementptr inbounds ([35 x i8], [35 x i8]* @.str.265, i64 0, i64 0), i8* getelementptr inbounds ([22 x i8], [22 x i8]* @.str.266, i64 0, i64 0), i8* getelementptr inbounds ([24 x i8], [24 x i8]* @.str.267, i64 0, i64 0), i8* getelementptr inbounds ([28 x i8], [28 x i8]* @.str.268, i64 0, i64 0), i8* getelementptr inbounds ([31 x i8], [31 x i8]* @.str.269, i64 0, i64 0), i8* getelementptr inbounds ([38 x i8], [38 x i8]* @.str.270, i64 0, i64 0), i8* getelementptr inbounds ([38 x i8], [38 x i8]* @.str.271, i64 0, i64 0), i8* getelementptr inbounds ([36 x i8], [36 x i8]* @.str.272, i64 0, i64 0), i8* getelementptr inbounds ([34 x i8], [34 x i8]* @.str.273, i64 0, i64 0), i8* getelementptr inbounds ([34 x i8], [34 x i8]* @.str.274, i64 0, i64 0), i8* getelementptr inbounds ([32 x i8], [32 x i8]* @.str.275, i64 0, i64 0), i8* getelementptr inbounds ([29 x i8], [29 x i8]* @.str.276, i64 0, i64 0), i8* getelementptr inbounds ([25 x i8], [25 x i8]* @.str.277, i64 0, i64 0), i8* getelementptr inbounds ([38 x i8], [38 x i8]* @.str.278, i64 0, i64 0), i8* getelementptr inbounds ([27 x i8], [27 x i8]* @.str.279, i64 0, i64 0), i8* getelementptr inbounds ([27 x i8], [27 x i8]* @.str.280, i64 0, i64 0), i8* getelementptr inbounds ([21 x i8], [21 x i8]* @.str.281, i64 0, i64 0), i8* getelementptr inbounds ([27 x i8], [27 x i8]* @.str.282, i64 0, i64 0), i8* getelementptr inbounds ([34 x i8], [34 x i8]* @.str.283, i64 0, i64 0), i8* getelementptr inbounds ([37 x i8], [37 x i8]* @.str.284, i64 0, i64 0), i8* getelementptr inbounds ([37 x i8], [37 x i8]* @.str.285, i64 0, i64 0), i8* getelementptr inbounds ([35 x i8], [35 x i8]* @.str.286, i64 0, i64 0), i8* getelementptr inbounds ([38 x i8], [38 x i8]* @.str.287, i64 0, i64 0), i8* getelementptr inbounds ([38 x i8], [38 x i8]* @.str.288, i64 0, i64 0), i8* getelementptr inbounds ([36 x i8], [36 x i8]* @.str.289, i64 0, i64 0), i8* getelementptr inbounds ([39 x i8], [39 x i8]* @.str.290, i64 0, i64 0), i8* getelementptr inbounds ([39 x i8], [39 x i8]* @.str.291, i64 0, i64 0), i8* getelementptr inbounds ([30 x i8], [30 x i8]* @.str.292, i64 0, i64 0), i8* getelementptr inbounds ([29 x i8], [29 x i8]* @.str.293, i64 0, i64 0), i8* getelementptr inbounds ([56 x i8], [56 x i8]* @.str.294, i64 0, i64 0), i8* getelementptr inbounds ([16 x i8], [16 x i8]* @.str.295, i64 0, i64 0), i8* getelementptr inbounds ([19 x i8], [19 x i8]* @.str.296, i64 0, i64 0), i8* getelementptr inbounds ([22 x i8], [22 x i8]* @.str.297, i64 0, i64 0), i8* getelementptr inbounds ([23 x i8], [23 x i8]* @.str.298, i64 0, i64 0), i8* getelementptr inbounds ([24 x i8], [24 x i8]* @.str.299, i64 0, i64 0), i8* getelementptr inbounds ([33 x i8], [33 x i8]* @.str.300, i64 0, i64 0), i8* getelementptr inbounds ([35 x i8], [35 x i8]* @.str.301, i64 0, i64 0), i8* getelementptr inbounds ([31 x i8], [31 x i8]* @.str.302, i64 0, i64 0), i8* getelementptr inbounds ([26 x i8], [26 x i8]* @.str.303, i64 0, i64 0), i8* getelementptr inbounds ([25 x i8], [25 x i8]* @.str.304, i64 0, i64 0), i8* getelementptr inbounds ([25 x i8], [25 x i8]* @.str.305, i64 0, i64 0), i8* getelementptr inbounds ([25 x i8], [25 x i8]* @.str.306, i64 0, i64 0), i8* getelementptr inbounds ([25 x i8], [25 x i8]* @.str.307, i64 0, i64 0), i8* getelementptr inbounds ([24 x i8], [24 x i8]* @.str.308, i64 0, i64 0), i8* getelementptr inbounds ([24 x i8], [24 x i8]* @.str.309, i64 0, i64 0), i8* getelementptr inbounds ([23 x i8], [23 x i8]* @.str.310, i64 0, i64 0), i8* getelementptr inbounds ([34 x i8], [34 x i8]* @.str.311, i64 0, i64 0), i8* getelementptr inbounds ([21 x i8], [21 x i8]* @.str.312, i64 0, i64 0), i8* getelementptr inbounds ([23 x i8], [23 x i8]* @.str.313, i64 0, i64 0), i8* getelementptr inbounds ([29 x i8], [29 x i8]* @.str.314, i64 0, i64 0), i8* getelementptr inbounds ([26 x i8], [26 x i8]* @.str.315, i64 0, i64 0), i8* getelementptr inbounds ([29 x i8], [29 x i8]* @.str.316, i64 0, i64 0), i8* getelementptr inbounds ([27 x i8], [27 x i8]* @.str.317, i64 0, i64 0), i8* getelementptr inbounds ([26 x i8], [26 x i8]* @.str.318, i64 0, i64 0), i8* getelementptr inbounds ([25 x i8], [25 x i8]* @.str.319, i64 0, i64 0), i8* getelementptr inbounds ([31 x i8], [31 x i8]* @.str.320, i64 0, i64 0), i8* getelementptr inbounds ([28 x i8], [28 x i8]* @.str.321, i64 0, i64 0), i8* getelementptr inbounds ([27 x i8], [27 x i8]* @.str.322, i64 0, i64 0), i8* getelementptr inbounds ([37 x i8], [37 x i8]* @.str.323, i64 0, i64 0), i8* getelementptr inbounds ([36 x i8], [36 x i8]* @.str.324, i64 0, i64 0), i8* getelementptr inbounds ([35 x i8], [35 x i8]* @.str.325, i64 0, i64 0), i8* getelementptr inbounds ([25 x i8], [25 x i8]* @.str.326, i64 0, i64 0), i8* getelementptr inbounds ([37 x i8], [37 x i8]* @.str.327, i64 0, i64 0), i8* getelementptr inbounds ([28 x i8], [28 x i8]* @.str.328, i64 0, i64 0), i8* getelementptr inbounds ([29 x i8], [29 x i8]* @.str.329, i64 0, i64 0), i8* getelementptr inbounds ([30 x i8], [30 x i8]* @.str.330, i64 0, i64 0), i8* getelementptr inbounds ([29 x i8], [29 x i8]* @.str.331, i64 0, i64 0), i8* getelementptr inbounds ([28 x i8], [28 x i8]* @.str.332, i64 0, i64 0), i8* getelementptr inbounds ([31 x i8], [31 x i8]* @.str.333, i64 0, i64 0), i8* getelementptr inbounds ([31 x i8], [31 x i8]* @.str.334, i64 0, i64 0), i8* getelementptr inbounds ([30 x i8], [30 x i8]* @.str.335, i64 0, i64 0), i8* getelementptr inbounds ([20 x i8], [20 x i8]* @.str.336, i64 0, i64 0), i8* getelementptr inbounds ([36 x i8], [36 x i8]* @.str.337, i64 0, i64 0), i8* getelementptr inbounds ([39 x i8], [39 x i8]* @.str.338, i64 0, i64 0), i8* getelementptr inbounds ([40 x i8], [40 x i8]* @.str.339, i64 0, i64 0), i8* getelementptr inbounds ([34 x i8], [34 x i8]* @.str.340, i64 0, i64 0), i8* getelementptr inbounds ([43 x i8], [43 x i8]* @.str.341, i64 0, i64 0), i8* getelementptr inbounds ([34 x i8], [34 x i8]* @.str.342, i64 0, i64 0), i8* getelementptr inbounds ([45 x i8], [45 x i8]* @.str.343, i64 0, i64 0), i8* getelementptr inbounds ([40 x i8], [40 x i8]* @.str.344, i64 0, i64 0), i8* getelementptr inbounds ([43 x i8], [43 x i8]* @.str.345, i64 0, i64 0), i8* getelementptr inbounds ([43 x i8], [43 x i8]* @.str.346, i64 0, i64 0), i8* getelementptr inbounds ([41 x i8], [41 x i8]* @.str.347, i64 0, i64 0), i8* getelementptr inbounds ([36 x i8], [36 x i8]* @.str.348, i64 0, i64 0), i8* getelementptr inbounds ([40 x i8], [40 x i8]* @.str.349, i64 0, i64 0), i8* getelementptr inbounds ([36 x i8], [36 x i8]* @.str.350, i64 0, i64 0), i8* getelementptr inbounds ([41 x i8], [41 x i8]* @.str.351, i64 0, i64 0), i8* getelementptr inbounds ([53 x i8], [53 x i8]* @.str.352, i64 0, i64 0), i8* getelementptr inbounds ([48 x i8], [48 x i8]* @.str.353, i64 0, i64 0), i8* getelementptr inbounds ([50 x i8], [50 x i8]* @.str.354, i64 0, i64 0), i8* getelementptr inbounds ([50 x i8], [50 x i8]* @.str.355, i64 0, i64 0), i8* getelementptr inbounds ([55 x i8], [55 x i8]* @.str.356, i64 0, i64 0), i8* getelementptr inbounds ([52 x i8], [52 x i8]* @.str.357, i64 0, i64 0), i8* getelementptr inbounds ([51 x i8], [51 x i8]* @.str.358, i64 0, i64 0), i8* getelementptr inbounds ([48 x i8], [48 x i8]* @.str.359, i64 0, i64 0), i8* getelementptr inbounds ([47 x i8], [47 x i8]* @.str.360, i64 0, i64 0), i8* getelementptr inbounds ([49 x i8], [49 x i8]* @.str.361, i64 0, i64 0), i8* getelementptr inbounds ([48 x i8], [48 x i8]* @.str.362, i64 0, i64 0), i8* getelementptr inbounds ([49 x i8], [49 x i8]* @.str.363, i64 0, i64 0), i8* getelementptr inbounds ([36 x i8], [36 x i8]* @.str.364, i64 0, i64 0), i8* getelementptr inbounds ([51 x i8], [51 x i8]* @.str.365, i64 0, i64 0), i8* getelementptr inbounds ([48 x i8], [48 x i8]* @.str.366, i64 0, i64 0), i8* getelementptr inbounds ([51 x i8], [51 x i8]* @.str.367, i64 0, i64 0), i8* getelementptr inbounds ([42 x i8], [42 x i8]* @.str.368, i64 0, i64 0), i8* getelementptr inbounds ([43 x i8], [43 x i8]* @.str.369, i64 0, i64 0), i8* getelementptr inbounds ([44 x i8], [44 x i8]* @.str.370, i64 0, i64 0), i8* getelementptr inbounds ([44 x i8], [44 x i8]* @.str.371, i64 0, i64 0), i8* getelementptr inbounds ([52 x i8], [52 x i8]* @.str.372, i64 0, i64 0), i8* getelementptr inbounds ([50 x i8], [50 x i8]* @.str.373, i64 0, i64 0), i8* getelementptr inbounds ([46 x i8], [46 x i8]* @.str.374, i64 0, i64 0), i8* getelementptr inbounds ([54 x i8], [54 x i8]* @.str.375, i64 0, i64 0), i8* getelementptr inbounds ([52 x i8], [52 x i8]* @.str.376, i64 0, i64 0), i8* getelementptr inbounds ([46 x i8], [46 x i8]* @.str.377, i64 0, i64 0), i8* getelementptr inbounds ([54 x i8], [54 x i8]* @.str.378, i64 0, i64 0), i8* getelementptr inbounds ([52 x i8], [52 x i8]* @.str.379, i64 0, i64 0), i8* getelementptr inbounds ([51 x i8], [51 x i8]* @.str.380, i64 0, i64 0), i8* getelementptr inbounds ([59 x i8], [59 x i8]* @.str.381, i64 0, i64 0), i8* getelementptr inbounds ([57 x i8], [57 x i8]* @.str.382, i64 0, i64 0), i8* getelementptr inbounds ([48 x i8], [48 x i8]* @.str.383, i64 0, i64 0), i8* getelementptr inbounds ([56 x i8], [56 x i8]* @.str.384, i64 0, i64 0), i8* getelementptr inbounds ([54 x i8], [54 x i8]* @.str.385, i64 0, i64 0), i8* getelementptr inbounds ([47 x i8], [47 x i8]* @.str.386, i64 0, i64 0), i8* getelementptr inbounds ([55 x i8], [55 x i8]* @.str.387, i64 0, i64 0), i8* getelementptr inbounds ([53 x i8], [53 x i8]* @.str.388, i64 0, i64 0), i8* getelementptr inbounds ([44 x i8], [44 x i8]* @.str.389, i64 0, i64 0), i8* getelementptr inbounds ([52 x i8], [52 x i8]* @.str.390, i64 0, i64 0), i8* getelementptr inbounds ([50 x i8], [50 x i8]* @.str.391, i64 0, i64 0), i8* getelementptr inbounds ([43 x i8], [43 x i8]* @.str.392, i64 0, i64 0), i8* getelementptr inbounds ([51 x i8], [51 x i8]* @.str.393, i64 0, i64 0), i8* getelementptr inbounds ([49 x i8], [49 x i8]* @.str.394, i64 0, i64 0), i8* getelementptr inbounds ([45 x i8], [45 x i8]* @.str.395, i64 0, i64 0), i8* getelementptr inbounds ([53 x i8], [53 x i8]* @.str.396, i64 0, i64 0), i8* getelementptr inbounds ([51 x i8], [51 x i8]* @.str.397, i64 0, i64 0), i8* getelementptr inbounds ([44 x i8], [44 x i8]* @.str.398, i64 0, i64 0), i8* getelementptr inbounds ([52 x i8], [52 x i8]* @.str.399, i64 0, i64 0), i8* getelementptr inbounds ([50 x i8], [50 x i8]* @.str.400, i64 0, i64 0), i8* getelementptr inbounds ([45 x i8], [45 x i8]* @.str.401, i64 0, i64 0), i8* getelementptr inbounds ([53 x i8], [53 x i8]* @.str.402, i64 0, i64 0), i8* getelementptr inbounds ([51 x i8], [51 x i8]* @.str.403, i64 0, i64 0)], align 8

; Function Attrs: nofree norecurse nounwind ssp uwtable writeonly
define hidden void @_ZN2v88internal27CallInterfaceDescriptorData19InitializeRegistersENS_4base5FlagsINS1_4FlagEiEEiiNS0_18StackArgumentOrderEiPKNS0_8RegisterE(%"class.v8::internal::CallInterfaceDescriptorData"* nocapture, i32, i32, i32, i32, i32, %"class.v8::internal::Register"*) local_unnamed_addr #0 align 2 {
  %8 = getelementptr inbounds %"class.v8::internal::CallInterfaceDescriptorData", %"class.v8::internal::CallInterfaceDescriptorData"* %0, i64 0, i32 3, i32 0
  store i32 %1, i32* %8, align 4
  %9 = getelementptr inbounds %"class.v8::internal::CallInterfaceDescriptorData", %"class.v8::internal::CallInterfaceDescriptorData"* %0, i64 0, i32 4
  store i32 %4, i32* %9, align 8
  %10 = getelementptr inbounds %"class.v8::internal::CallInterfaceDescriptorData", %"class.v8::internal::CallInterfaceDescriptorData"* %0, i64 0, i32 1
  store i32 %2, i32* %10, align 4
  %11 = getelementptr inbounds %"class.v8::internal::CallInterfaceDescriptorData", %"class.v8::internal::CallInterfaceDescriptorData"* %0, i64 0, i32 2
  store i32 %3, i32* %11, align 8
  %12 = getelementptr inbounds %"class.v8::internal::CallInterfaceDescriptorData", %"class.v8::internal::CallInterfaceDescriptorData"* %0, i64 0, i32 0
  store i32 %5, i32* %12, align 8
  %13 = getelementptr inbounds %"class.v8::internal::CallInterfaceDescriptorData", %"class.v8::internal::CallInterfaceDescriptorData"* %0, i64 0, i32 6
  store %"class.v8::internal::Register"* %6, %"class.v8::internal::Register"** %13, align 8
  ret void
}

; Function Attrs: argmemonly nounwind
declare void @llvm.memcpy.p0i8.p0i8.i64(i8* nocapture writeonly, i8* nocapture readonly, i64, i1 immarg) #1

; Function Attrs: nounwind ssp uwtable
define hidden void @_ZN2v88internal27CallInterfaceDescriptorData15InitializeTypesEPKNS0_11MachineTypeEi(%"class.v8::internal::CallInterfaceDescriptorData"* nocapture, %"class.v8::internal::MachineType"* readonly, i32) local_unnamed_addr #2 align 2 {
  %4 = getelementptr inbounds %"class.v8::internal::CallInterfaceDescriptorData", %"class.v8::internal::CallInterfaceDescriptorData"* %0, i64 0, i32 1
  %5 = load i32, i32* %4, align 4
  %6 = getelementptr inbounds %"class.v8::internal::CallInterfaceDescriptorData", %"class.v8::internal::CallInterfaceDescriptorData"* %0, i64 0, i32 2
  %7 = load i32, i32* %6, align 8
  %8 = add i32 %7, %5
  %9 = icmp eq %"class.v8::internal::MachineType"* %1, null
  %10 = sext i32 %8 to i64
  br i1 %9, label %11, label %110

11:                                               ; preds = %3
  %12 = shl nsw i64 %10, 1
  %13 = tail call noalias i8* @_ZnamRKSt9nothrow_t(i64 %12, %"struct.std::nothrow_t"* dereferenceable(1) @_ZSt7nothrow) #10
  %14 = icmp eq i8* %13, null
  br i1 %14, label %15, label %24

15:                                               ; preds = %11
  %16 = tail call %"class.v8::Platform"* @_ZN2v88internal2V818GetCurrentPlatformEv() #11
  %17 = bitcast %"class.v8::Platform"* %16 to void (%"class.v8::Platform"*)***
  %18 = load void (%"class.v8::Platform"*)**, void (%"class.v8::Platform"*)*** %17, align 8
  %19 = getelementptr inbounds void (%"class.v8::Platform"*)*, void (%"class.v8::Platform"*)** %18, i64 3
  %20 = load void (%"class.v8::Platform"*)*, void (%"class.v8::Platform"*)** %19, align 8
  tail call void %20(%"class.v8::Platform"* %16) #11
  %21 = tail call noalias i8* @_ZnamRKSt9nothrow_t(i64 %12, %"struct.std::nothrow_t"* dereferenceable(1) @_ZSt7nothrow) #10
  %22 = icmp eq i8* %21, null
  br i1 %22, label %23, label %24

23:                                               ; preds = %15
  tail call void @_ZN2v88internal23FatalProcessOutOfMemoryEPNS0_7IsolateEPKc(%"class.v8::internal::Isolate"* null, i8* getelementptr inbounds ([9 x i8], [9 x i8]* @.str.405, i64 0, i64 0)) #12
  unreachable

24:                                               ; preds = %15, %11
  %25 = phi i8* [ %21, %15 ], [ %13, %11 ]
  %26 = bitcast i8* %25 to %"class.v8::internal::MachineType"*
  %27 = icmp eq i32 %8, 0
  br i1 %27, label %107, label %28

28:                                               ; preds = %24
  %29 = icmp ult i32 %8, 16
  br i1 %29, label %99, label %30

30:                                               ; preds = %28
  %31 = and i64 %10, -16
  %32 = add nsw i64 %31, -16
  %33 = lshr exact i64 %32, 4
  %34 = add nuw nsw i64 %33, 1
  %35 = and i64 %34, 7
  %36 = icmp ult i64 %32, 112
  br i1 %36, label %84, label %37

37:                                               ; preds = %30
  %38 = sub nsw i64 %34, %35
  br label %39

39:                                               ; preds = %39, %37
  %40 = phi i64 [ 0, %37 ], [ %81, %39 ]
  %41 = phi i64 [ %38, %37 ], [ %82, %39 ]
  %42 = getelementptr inbounds %"class.v8::internal::MachineType", %"class.v8::internal::MachineType"* %26, i64 %40
  %43 = bitcast %"class.v8::internal::MachineType"* %42 to <8 x i16>*
  store <8 x i16> <i16 1801, i16 1801, i16 1801, i16 1801, i16 1801, i16 1801, i16 1801, i16 1801>, <8 x i16>* %43, align 1
  %44 = getelementptr inbounds %"class.v8::internal::MachineType", %"class.v8::internal::MachineType"* %42, i64 8
  %45 = bitcast %"class.v8::internal::MachineType"* %44 to <8 x i16>*
  store <8 x i16> <i16 1801, i16 1801, i16 1801, i16 1801, i16 1801, i16 1801, i16 1801, i16 1801>, <8 x i16>* %45, align 1
  %46 = or i64 %40, 16
  %47 = getelementptr inbounds %"class.v8::internal::MachineType", %"class.v8::internal::MachineType"* %26, i64 %46
  %48 = bitcast %"class.v8::internal::MachineType"* %47 to <8 x i16>*
  store <8 x i16> <i16 1801, i16 1801, i16 1801, i16 1801, i16 1801, i16 1801, i16 1801, i16 1801>, <8 x i16>* %48, align 1
  %49 = getelementptr inbounds %"class.v8::internal::MachineType", %"class.v8::internal::MachineType"* %47, i64 8
  %50 = bitcast %"class.v8::internal::MachineType"* %49 to <8 x i16>*
  store <8 x i16> <i16 1801, i16 1801, i16 1801, i16 1801, i16 1801, i16 1801, i16 1801, i16 1801>, <8 x i16>* %50, align 1
  %51 = or i64 %40, 32
  %52 = getelementptr inbounds %"class.v8::internal::MachineType", %"class.v8::internal::MachineType"* %26, i64 %51
  %53 = bitcast %"class.v8::internal::MachineType"* %52 to <8 x i16>*
  store <8 x i16> <i16 1801, i16 1801, i16 1801, i16 1801, i16 1801, i16 1801, i16 1801, i16 1801>, <8 x i16>* %53, align 1
  %54 = getelementptr inbounds %"class.v8::internal::MachineType", %"class.v8::internal::MachineType"* %52, i64 8
  %55 = bitcast %"class.v8::internal::MachineType"* %54 to <8 x i16>*
  store <8 x i16> <i16 1801, i16 1801, i16 1801, i16 1801, i16 1801, i16 1801, i16 1801, i16 1801>, <8 x i16>* %55, align 1
  %56 = or i64 %40, 48
  %57 = getelementptr inbounds %"class.v8::internal::MachineType", %"class.v8::internal::MachineType"* %26, i64 %56
  %58 = bitcast %"class.v8::internal::MachineType"* %57 to <8 x i16>*
  store <8 x i16> <i16 1801, i16 1801, i16 1801, i16 1801, i16 1801, i16 1801, i16 1801, i16 1801>, <8 x i16>* %58, align 1
  %59 = getelementptr inbounds %"class.v8::internal::MachineType", %"class.v8::internal::MachineType"* %57, i64 8
  %60 = bitcast %"class.v8::internal::MachineType"* %59 to <8 x i16>*
  store <8 x i16> <i16 1801, i16 1801, i16 1801, i16 1801, i16 1801, i16 1801, i16 1801, i16 1801>, <8 x i16>* %60, align 1
  %61 = or i64 %40, 64
  %62 = getelementptr inbounds %"class.v8::internal::MachineType", %"class.v8::internal::MachineType"* %26, i64 %61
  %63 = bitcast %"class.v8::internal::MachineType"* %62 to <8 x i16>*
  store <8 x i16> <i16 1801, i16 1801, i16 1801, i16 1801, i16 1801, i16 1801, i16 1801, i16 1801>, <8 x i16>* %63, align 1
  %64 = getelementptr inbounds %"class.v8::internal::MachineType", %"class.v8::internal::MachineType"* %62, i64 8
  %65 = bitcast %"class.v8::internal::MachineType"* %64 to <8 x i16>*
  store <8 x i16> <i16 1801, i16 1801, i16 1801, i16 1801, i16 1801, i16 1801, i16 1801, i16 1801>, <8 x i16>* %65, align 1
  %66 = or i64 %40, 80
  %67 = getelementptr inbounds %"class.v8::internal::MachineType", %"class.v8::internal::MachineType"* %26, i64 %66
  %68 = bitcast %"class.v8::internal::MachineType"* %67 to <8 x i16>*
  store <8 x i16> <i16 1801, i16 1801, i16 1801, i16 1801, i16 1801, i16 1801, i16 1801, i16 1801>, <8 x i16>* %68, align 1
  %69 = getelementptr inbounds %"class.v8::internal::MachineType", %"class.v8::internal::MachineType"* %67, i64 8
  %70 = bitcast %"class.v8::internal::MachineType"* %69 to <8 x i16>*
  store <8 x i16> <i16 1801, i16 1801, i16 1801, i16 1801, i16 1801, i16 1801, i16 1801, i16 1801>, <8 x i16>* %70, align 1
  %71 = or i64 %40, 96
  %72 = getelementptr inbounds %"class.v8::internal::MachineType", %"class.v8::internal::MachineType"* %26, i64 %71
  %73 = bitcast %"class.v8::internal::MachineType"* %72 to <8 x i16>*
  store <8 x i16> <i16 1801, i16 1801, i16 1801, i16 1801, i16 1801, i16 1801, i16 1801, i16 1801>, <8 x i16>* %73, align 1
  %74 = getelementptr inbounds %"class.v8::internal::MachineType", %"class.v8::internal::MachineType"* %72, i64 8
  %75 = bitcast %"class.v8::internal::MachineType"* %74 to <8 x i16>*
  store <8 x i16> <i16 1801, i16 1801, i16 1801, i16 1801, i16 1801, i16 1801, i16 1801, i16 1801>, <8 x i16>* %75, align 1
  %76 = or i64 %40, 112
  %77 = getelementptr inbounds %"class.v8::internal::MachineType", %"class.v8::internal::MachineType"* %26, i64 %76
  %78 = bitcast %"class.v8::internal::MachineType"* %77 to <8 x i16>*
  store <8 x i16> <i16 1801, i16 1801, i16 1801, i16 1801, i16 1801, i16 1801, i16 1801, i16 1801>, <8 x i16>* %78, align 1
  %79 = getelementptr inbounds %"class.v8::internal::MachineType", %"class.v8::internal::MachineType"* %77, i64 8
  %80 = bitcast %"class.v8::internal::MachineType"* %79 to <8 x i16>*
  store <8 x i16> <i16 1801, i16 1801, i16 1801, i16 1801, i16 1801, i16 1801, i16 1801, i16 1801>, <8 x i16>* %80, align 1
  %81 = add i64 %40, 128
  %82 = add i64 %41, -8
  %83 = icmp eq i64 %82, 0
  br i1 %83, label %84, label %39, !llvm.loop !2

84:                                               ; preds = %39, %30
  %85 = phi i64 [ 0, %30 ], [ %81, %39 ]
  %86 = icmp eq i64 %35, 0
  br i1 %86, label %97, label %87

87:                                               ; preds = %84, %87
  %88 = phi i64 [ %94, %87 ], [ %85, %84 ]
  %89 = phi i64 [ %95, %87 ], [ %35, %84 ]
  %90 = getelementptr inbounds %"class.v8::internal::MachineType", %"class.v8::internal::MachineType"* %26, i64 %88
  %91 = bitcast %"class.v8::internal::MachineType"* %90 to <8 x i16>*
  store <8 x i16> <i16 1801, i16 1801, i16 1801, i16 1801, i16 1801, i16 1801, i16 1801, i16 1801>, <8 x i16>* %91, align 1
  %92 = getelementptr inbounds %"class.v8::internal::MachineType", %"class.v8::internal::MachineType"* %90, i64 8
  %93 = bitcast %"class.v8::internal::MachineType"* %92 to <8 x i16>*
  store <8 x i16> <i16 1801, i16 1801, i16 1801, i16 1801, i16 1801, i16 1801, i16 1801, i16 1801>, <8 x i16>* %93, align 1
  %94 = add i64 %88, 16
  %95 = add i64 %89, -1
  %96 = icmp eq i64 %95, 0
  br i1 %96, label %97, label %87, !llvm.loop !4

97:                                               ; preds = %87, %84
  %98 = icmp eq i64 %31, %10
  br i1 %98, label %107, label %99

99:                                               ; preds = %97, %28
  %100 = phi i64 [ 0, %28 ], [ %31, %97 ]
  br label %101

101:                                              ; preds = %99, %101
  %102 = phi i64 [ %105, %101 ], [ %100, %99 ]
  %103 = getelementptr inbounds %"class.v8::internal::MachineType", %"class.v8::internal::MachineType"* %26, i64 %102
  %104 = bitcast %"class.v8::internal::MachineType"* %103 to i16*
  store i16 1801, i16* %104, align 1
  %105 = add nuw i64 %102, 1
  %106 = icmp eq i64 %105, %10
  br i1 %106, label %107, label %101, !llvm.loop !6

107:                                              ; preds = %101, %97, %24
  %108 = getelementptr inbounds %"class.v8::internal::CallInterfaceDescriptorData", %"class.v8::internal::CallInterfaceDescriptorData"* %0, i64 0, i32 7
  %109 = bitcast %"class.v8::internal::MachineType"** %108 to i8**
  store i8* %25, i8** %109, align 8
  br label %202

110:                                              ; preds = %3
  %111 = tail call { i64, i1 } @llvm.umul.with.overflow.i64(i64 %10, i64 2) #11
  %112 = extractvalue { i64, i1 } %111, 1
  %113 = extractvalue { i64, i1 } %111, 0
  %114 = select i1 %112, i64 -1, i64 %113
  %115 = tail call noalias i8* @_ZnamRKSt9nothrow_t(i64 %114, %"struct.std::nothrow_t"* dereferenceable(1) @_ZSt7nothrow) #10
  %116 = icmp eq i8* %115, null
  br i1 %116, label %120, label %117

117:                                              ; preds = %110
  %118 = bitcast i8* %115 to %"class.v8::internal::MachineType"*
  %119 = icmp eq i32 %8, 0
  br i1 %119, label %132, label %135

120:                                              ; preds = %110
  %121 = tail call %"class.v8::Platform"* @_ZN2v88internal2V818GetCurrentPlatformEv() #11
  %122 = bitcast %"class.v8::Platform"* %121 to void (%"class.v8::Platform"*)***
  %123 = load void (%"class.v8::Platform"*)**, void (%"class.v8::Platform"*)*** %122, align 8
  %124 = getelementptr inbounds void (%"class.v8::Platform"*)*, void (%"class.v8::Platform"*)** %123, i64 3
  %125 = load void (%"class.v8::Platform"*)*, void (%"class.v8::Platform"*)** %124, align 8
  tail call void %125(%"class.v8::Platform"* %121) #11
  %126 = tail call noalias i8* @_ZnamRKSt9nothrow_t(i64 %114, %"struct.std::nothrow_t"* dereferenceable(1) @_ZSt7nothrow) #10
  %127 = icmp eq i8* %126, null
  br i1 %127, label %131, label %128

128:                                              ; preds = %120
  %129 = bitcast i8* %126 to %"class.v8::internal::MachineType"*
  %130 = icmp eq i32 %8, 0
  br i1 %130, label %132, label %135

131:                                              ; preds = %120
  tail call void @_ZN2v88internal23FatalProcessOutOfMemoryEPNS0_7IsolateEPKc(%"class.v8::internal::Isolate"* null, i8* getelementptr inbounds ([9 x i8], [9 x i8]* @.str.405, i64 0, i64 0)) #12
  unreachable

132:                                              ; preds = %117, %128
  %133 = phi %"class.v8::internal::MachineType"* [ %129, %128 ], [ %118, %117 ]
  %134 = getelementptr inbounds %"class.v8::internal::CallInterfaceDescriptorData", %"class.v8::internal::CallInterfaceDescriptorData"* %0, i64 0, i32 7
  store %"class.v8::internal::MachineType"* %133, %"class.v8::internal::MachineType"** %134, align 8
  br label %202

135:                                              ; preds = %128, %117
  %136 = phi i8* [ %115, %117 ], [ %126, %128 ]
  %137 = phi %"class.v8::internal::MachineType"* [ %118, %117 ], [ %129, %128 ]
  %138 = shl nsw i64 %10, 1
  tail call void @llvm.memset.p0i8.i64(i8* nonnull align 1 %136, i8 0, i64 %138, i1 false) #11
  %139 = getelementptr inbounds %"class.v8::internal::CallInterfaceDescriptorData", %"class.v8::internal::CallInterfaceDescriptorData"* %0, i64 0, i32 7
  store %"class.v8::internal::MachineType"* %137, %"class.v8::internal::MachineType"** %139, align 8
  %140 = icmp sgt i32 %8, 0
  br i1 %140, label %141, label %202

141:                                              ; preds = %135
  %142 = zext i32 %8 to i64
  %143 = bitcast %"class.v8::internal::MachineType"* %1 to i16*
  %144 = bitcast %"class.v8::internal::MachineType"* %137 to i16*
  %145 = load i16, i16* %143, align 1
  store i16 %145, i16* %144, align 1
  %146 = icmp eq i32 %8, 1
  br i1 %146, label %202, label %147

147:                                              ; preds = %141
  %148 = add nsw i64 %142, -1
  %149 = add nsw i64 %142, -2
  %150 = and i64 %148, 3
  %151 = icmp ult i64 %149, 3
  br i1 %151, label %187, label %152

152:                                              ; preds = %147
  %153 = sub nsw i64 %148, %150
  br label %154

154:                                              ; preds = %154, %152
  %155 = phi i64 [ 1, %152 ], [ %184, %154 ]
  %156 = phi i64 [ %153, %152 ], [ %185, %154 ]
  %157 = load %"class.v8::internal::MachineType"*, %"class.v8::internal::MachineType"** %139, align 8
  %158 = getelementptr inbounds %"class.v8::internal::MachineType", %"class.v8::internal::MachineType"* %157, i64 %155, i32 0
  %159 = getelementptr inbounds %"class.v8::internal::MachineType", %"class.v8::internal::MachineType"* %1, i64 %155, i32 0
  %160 = bitcast i8* %159 to i16*
  %161 = bitcast i8* %158 to i16*
  %162 = load i16, i16* %160, align 1
  store i16 %162, i16* %161, align 1
  %163 = add nuw nsw i64 %155, 1
  %164 = load %"class.v8::internal::MachineType"*, %"class.v8::internal::MachineType"** %139, align 8
  %165 = getelementptr inbounds %"class.v8::internal::MachineType", %"class.v8::internal::MachineType"* %164, i64 %163, i32 0
  %166 = getelementptr inbounds %"class.v8::internal::MachineType", %"class.v8::internal::MachineType"* %1, i64 %163, i32 0
  %167 = bitcast i8* %166 to i16*
  %168 = bitcast i8* %165 to i16*
  %169 = load i16, i16* %167, align 1
  store i16 %169, i16* %168, align 1
  %170 = add nuw nsw i64 %155, 2
  %171 = load %"class.v8::internal::MachineType"*, %"class.v8::internal::MachineType"** %139, align 8
  %172 = getelementptr inbounds %"class.v8::internal::MachineType", %"class.v8::internal::MachineType"* %171, i64 %170, i32 0
  %173 = getelementptr inbounds %"class.v8::internal::MachineType", %"class.v8::internal::MachineType"* %1, i64 %170, i32 0
  %174 = bitcast i8* %173 to i16*
  %175 = bitcast i8* %172 to i16*
  %176 = load i16, i16* %174, align 1
  store i16 %176, i16* %175, align 1
  %177 = add nuw nsw i64 %155, 3
  %178 = load %"class.v8::internal::MachineType"*, %"class.v8::internal::MachineType"** %139, align 8
  %179 = getelementptr inbounds %"class.v8::internal::MachineType", %"class.v8::internal::MachineType"* %178, i64 %177, i32 0
  %180 = getelementptr inbounds %"class.v8::internal::MachineType", %"class.v8::internal::MachineType"* %1, i64 %177, i32 0
  %181 = bitcast i8* %180 to i16*
  %182 = bitcast i8* %179 to i16*
  %183 = load i16, i16* %181, align 1
  store i16 %183, i16* %182, align 1
  %184 = add nuw nsw i64 %155, 4
  %185 = add i64 %156, -4
  %186 = icmp eq i64 %185, 0
  br i1 %186, label %187, label %154

187:                                              ; preds = %154, %147
  %188 = phi i64 [ 1, %147 ], [ %184, %154 ]
  %189 = icmp eq i64 %150, 0
  br i1 %189, label %202, label %190

190:                                              ; preds = %187, %190
  %191 = phi i64 [ %199, %190 ], [ %188, %187 ]
  %192 = phi i64 [ %200, %190 ], [ %150, %187 ]
  %193 = load %"class.v8::internal::MachineType"*, %"class.v8::internal::MachineType"** %139, align 8
  %194 = getelementptr inbounds %"class.v8::internal::MachineType", %"class.v8::internal::MachineType"* %193, i64 %191, i32 0
  %195 = getelementptr inbounds %"class.v8::internal::MachineType", %"class.v8::internal::MachineType"* %1, i64 %191, i32 0
  %196 = bitcast i8* %195 to i16*
  %197 = bitcast i8* %194 to i16*
  %198 = load i16, i16* %196, align 1
  store i16 %198, i16* %197, align 1
  %199 = add nuw nsw i64 %191, 1
  %200 = add i64 %192, -1
  %201 = icmp eq i64 %200, 0
  br i1 %201, label %202, label %190, !llvm.loop !8

202:                                              ; preds = %187, %190, %141, %132, %135, %107
  ret void
}

; Function Attrs: argmemonly nounwind
declare void @llvm.lifetime.start.p0i8(i64 immarg, i8* nocapture) #1

; Function Attrs: argmemonly nounwind
declare void @llvm.lifetime.end.p0i8(i64 immarg, i8* nocapture) #1

; Function Attrs: nounwind ssp uwtable
define hidden void @_ZN2v88internal27CallInterfaceDescriptorData5ResetEv(%"class.v8::internal::CallInterfaceDescriptorData"* nocapture) local_unnamed_addr #2 align 2 {
  %2 = getelementptr inbounds %"class.v8::internal::CallInterfaceDescriptorData", %"class.v8::internal::CallInterfaceDescriptorData"* %0, i64 0, i32 7
  %3 = load %"class.v8::internal::MachineType"*, %"class.v8::internal::MachineType"** %2, align 8
  %4 = icmp eq %"class.v8::internal::MachineType"* %3, null
  br i1 %4, label %7, label %5

5:                                                ; preds = %1
  %6 = getelementptr inbounds %"class.v8::internal::MachineType", %"class.v8::internal::MachineType"* %3, i64 0, i32 0
  tail call void @_ZdaPv(i8* %6) #10
  br label %7

7:                                                ; preds = %5, %1
  %8 = getelementptr inbounds %"class.v8::internal::CallInterfaceDescriptorData", %"class.v8::internal::CallInterfaceDescriptorData"* %0, i64 0, i32 6
  %9 = bitcast %"class.v8::internal::Register"** %8 to i8*
  call void @llvm.memset.p0i8.i64(i8* align 8 %9, i8 0, i64 16, i1 false)
  ret void
}

; Function Attrs: nobuiltin nounwind
declare void @_ZdaPv(i8*) local_unnamed_addr #3

; Function Attrs: nounwind ssp uwtable
define hidden void @_ZN2v88internal15CallDescriptors24InitializeOncePerProcessEv() local_unnamed_addr #2 align 2 {
  %1 = alloca i16, align 2
  %2 = alloca i16, align 2
  %3 = alloca <8 x i16>, align 16
  %4 = alloca [9 x %"class.v8::internal::MachineType"], align 16
  %5 = alloca i16, align 2
  %6 = alloca i16, align 2
  %7 = alloca i16, align 2
  %8 = alloca i16, align 2
  %9 = alloca i16, align 2
  %10 = alloca i16, align 2
  %11 = alloca i16, align 2
  %12 = alloca i16, align 2
  %13 = alloca i16, align 2
  %14 = alloca i16, align 2
  %15 = alloca i16, align 2
  %16 = alloca i16, align 2
  %17 = alloca i16, align 2
  %18 = alloca i16, align 2
  %19 = alloca i16, align 2
  %20 = alloca i16, align 2
  %21 = alloca i16, align 2
  %22 = alloca i16, align 2
  %23 = alloca i16, align 2
  %24 = alloca i16, align 2
  %25 = alloca i16, align 2
  %26 = alloca i16, align 2
  %27 = alloca [7 x %"class.v8::internal::MachineType"], align 2
  %28 = alloca [6 x %"class.v8::internal::MachineType"], align 2
  %29 = alloca [5 x %"class.v8::internal::MachineType"], align 2
  %30 = alloca [3 x %"class.v8::internal::MachineType"], align 2
  %31 = alloca [2 x %"class.v8::internal::MachineType"], align 2
  %32 = alloca [4 x %"class.v8::internal::MachineType"], align 2
  store i32 0, i32* getelementptr inbounds ([404 x %"class.v8::internal::CallInterfaceDescriptorData"], [404 x %"class.v8::internal::CallInterfaceDescriptorData"]* @_ZN2v88internal15CallDescriptors21call_descriptor_data_E, i64 0, i64 0, i32 4), align 16
  store <4 x i32> <i32 1, i32 1, i32 1, i32 1>, <4 x i32>* bitcast ([404 x %"class.v8::internal::CallInterfaceDescriptorData"]* @_ZN2v88internal15CallDescriptors21call_descriptor_data_E to <4 x i32>*), align 16
  store %"class.v8::internal::Register"* bitcast ({ [1 x { i32 }] }* @_ZZN2v88internal29StaticCallInterfaceDescriptorINS0_15AbortDescriptorEE10InitializeEPNS0_27CallInterfaceDescriptorDataEE9registers to %"class.v8::internal::Register"*), %"class.v8::internal::Register"** getelementptr inbounds ([404 x %"class.v8::internal::CallInterfaceDescriptorData"], [404 x %"class.v8::internal::CallInterfaceDescriptorData"]* @_ZN2v88internal15CallDescriptors21call_descriptor_data_E, i64 0, i64 0, i32 6), align 8
  %33 = getelementptr inbounds [2 x %"class.v8::internal::MachineType"], [2 x %"class.v8::internal::MachineType"]* %31, i64 0, i64 0, i32 0
  call void @llvm.lifetime.start.p0i8(i64 4, i8* nonnull %33) #11
  %34 = getelementptr inbounds [2 x %"class.v8::internal::MachineType"], [2 x %"class.v8::internal::MachineType"]* %31, i64 0, i64 0
  %35 = bitcast [2 x %"class.v8::internal::MachineType"]* %31 to i16*
  store i16 1801, i16* %35, align 2
  %36 = getelementptr inbounds [2 x %"class.v8::internal::MachineType"], [2 x %"class.v8::internal::MachineType"]* %31, i64 0, i64 1
  %37 = bitcast %"class.v8::internal::MachineType"* %36 to i16*
  store i16 1801, i16* %37, align 2
  call void @_ZN2v88internal27CallInterfaceDescriptorData15InitializeTypesEPKNS0_11MachineTypeEi(%"class.v8::internal::CallInterfaceDescriptorData"* getelementptr inbounds ([404 x %"class.v8::internal::CallInterfaceDescriptorData"], [404 x %"class.v8::internal::CallInterfaceDescriptorData"]* @_ZN2v88internal15CallDescriptors21call_descriptor_data_E, i64 0, i64 0), %"class.v8::internal::MachineType"* nonnull %34, i32 undef) #11
  call void @llvm.lifetime.end.p0i8(i64 4, i8* nonnull %33) #11
  store i32 0, i32* getelementptr inbounds ([404 x %"class.v8::internal::CallInterfaceDescriptorData"], [404 x %"class.v8::internal::CallInterfaceDescriptorData"]* @_ZN2v88internal15CallDescriptors21call_descriptor_data_E, i64 0, i64 1, i32 4), align 8
  store <4 x i32> <i32 1, i32 1, i32 1, i32 1>, <4 x i32>* bitcast (i32* getelementptr inbounds ([404 x %"class.v8::internal::CallInterfaceDescriptorData"], [404 x %"class.v8::internal::CallInterfaceDescriptorData"]* @_ZN2v88internal15CallDescriptors21call_descriptor_data_E, i64 0, i64 1, i32 0) to <4 x i32>*), align 8
  store %"class.v8::internal::Register"* bitcast ({ [1 x { i32 }] }* @_ZZN2v88internal29StaticCallInterfaceDescriptorINS0_18AllocateDescriptorEE10InitializeEPNS0_27CallInterfaceDescriptorDataEE9registers to %"class.v8::internal::Register"*), %"class.v8::internal::Register"** getelementptr inbounds ([404 x %"class.v8::internal::CallInterfaceDescriptorData"], [404 x %"class.v8::internal::CallInterfaceDescriptorData"]* @_ZN2v88internal15CallDescriptors21call_descriptor_data_E, i64 0, i64 1, i32 6), align 8
  call void @llvm.lifetime.start.p0i8(i64 4, i8* nonnull %33) #11
  store i16 1800, i16* %35, align 2
  store i16 1029, i16* %37, align 2
  call void @_ZN2v88internal27CallInterfaceDescriptorData15InitializeTypesEPKNS0_11MachineTypeEi(%"class.v8::internal::CallInterfaceDescriptorData"* getelementptr inbounds ([404 x %"class.v8::internal::CallInterfaceDescriptorData"], [404 x %"class.v8::internal::CallInterfaceDescriptorData"]* @_ZN2v88internal15CallDescriptors21call_descriptor_data_E, i64 0, i64 1), %"class.v8::internal::MachineType"* nonnull %34, i32 undef) #11
  call void @llvm.lifetime.end.p0i8(i64 4, i8* nonnull %33) #11
  store <4 x i32> <i32 1, i32 4, i32 4, i32 1>, <4 x i32>* bitcast (i32* getelementptr inbounds ([404 x %"class.v8::internal::CallInterfaceDescriptorData"], [404 x %"class.v8::internal::CallInterfaceDescriptorData"]* @_ZN2v88internal15CallDescriptors21call_descriptor_data_E, i64 0, i64 2, i32 1) to <4 x i32>*), align 4
  store i32 4, i32* getelementptr inbounds ([404 x %"class.v8::internal::CallInterfaceDescriptorData"], [404 x %"class.v8::internal::CallInterfaceDescriptorData"]* @_ZN2v88internal15CallDescriptors21call_descriptor_data_E, i64 0, i64 2, i32 0), align 16
  store %"class.v8::internal::Register"* bitcast ({ [4 x { i32 }] }* @_ZZN2v88internal29StaticCallInterfaceDescriptorINS0_21ApiCallbackDescriptorEE10InitializeEPNS0_27CallInterfaceDescriptorDataEE9registers to %"class.v8::internal::Register"*), %"class.v8::internal::Register"** getelementptr inbounds ([404 x %"class.v8::internal::CallInterfaceDescriptorData"], [404 x %"class.v8::internal::CallInterfaceDescriptorData"]* @_ZN2v88internal15CallDescriptors21call_descriptor_data_E, i64 0, i64 2, i32 6), align 8
  %38 = getelementptr inbounds [5 x %"class.v8::internal::MachineType"], [5 x %"class.v8::internal::MachineType"]* %29, i64 0, i64 0, i32 0
  call void @llvm.lifetime.start.p0i8(i64 10, i8* nonnull %38) #11
  %39 = getelementptr inbounds [5 x %"class.v8::internal::MachineType"], [5 x %"class.v8::internal::MachineType"]* %29, i64 0, i64 0
  %40 = bitcast [5 x %"class.v8::internal::MachineType"]* %29 to i16*
  store i16 1801, i16* %40, align 2
  %41 = getelementptr inbounds [5 x %"class.v8::internal::MachineType"], [5 x %"class.v8::internal::MachineType"]* %29, i64 0, i64 1
  %42 = bitcast %"class.v8::internal::MachineType"* %41 to i16*
  store i16 5, i16* %42, align 2
  %43 = getelementptr inbounds [5 x %"class.v8::internal::MachineType"], [5 x %"class.v8::internal::MachineType"]* %29, i64 0, i64 2
  %44 = bitcast %"class.v8::internal::MachineType"* %43 to i16*
  store i16 1029, i16* %44, align 2
  %45 = getelementptr inbounds [5 x %"class.v8::internal::MachineType"], [5 x %"class.v8::internal::MachineType"]* %29, i64 0, i64 3
  %46 = bitcast %"class.v8::internal::MachineType"* %45 to i16*
  store i16 1801, i16* %46, align 2
  %47 = getelementptr inbounds [5 x %"class.v8::internal::MachineType"], [5 x %"class.v8::internal::MachineType"]* %29, i64 0, i64 4
  %48 = bitcast %"class.v8::internal::MachineType"* %47 to i16*
  store i16 1801, i16* %48, align 2
  call void @_ZN2v88internal27CallInterfaceDescriptorData15InitializeTypesEPKNS0_11MachineTypeEi(%"class.v8::internal::CallInterfaceDescriptorData"* getelementptr inbounds ([404 x %"class.v8::internal::CallInterfaceDescriptorData"], [404 x %"class.v8::internal::CallInterfaceDescriptorData"]* @_ZN2v88internal15CallDescriptors21call_descriptor_data_E, i64 0, i64 2), %"class.v8::internal::MachineType"* nonnull %39, i32 undef) #11
  call void @llvm.lifetime.end.p0i8(i64 10, i8* nonnull %38) #11
  store i32 0, i32* getelementptr inbounds ([404 x %"class.v8::internal::CallInterfaceDescriptorData"], [404 x %"class.v8::internal::CallInterfaceDescriptorData"]* @_ZN2v88internal15CallDescriptors21call_descriptor_data_E, i64 0, i64 3, i32 4), align 8
  store <4 x i32> <i32 3, i32 1, i32 3, i32 0>, <4 x i32>* bitcast (i32* getelementptr inbounds ([404 x %"class.v8::internal::CallInterfaceDescriptorData"], [404 x %"class.v8::internal::CallInterfaceDescriptorData"]* @_ZN2v88internal15CallDescriptors21call_descriptor_data_E, i64 0, i64 3, i32 0) to <4 x i32>*), align 8
  store %"class.v8::internal::Register"* bitcast ({ [3 x { i32 }] }* @_ZZN2v88internal29StaticCallInterfaceDescriptorINS0_19ApiGetterDescriptorEE10InitializeEPNS0_27CallInterfaceDescriptorDataEE9registers to %"class.v8::internal::Register"*), %"class.v8::internal::Register"** getelementptr inbounds ([404 x %"class.v8::internal::CallInterfaceDescriptorData"], [404 x %"class.v8::internal::CallInterfaceDescriptorData"]* @_ZN2v88internal15CallDescriptors21call_descriptor_data_E, i64 0, i64 3, i32 6), align 8
  %49 = getelementptr inbounds [4 x %"class.v8::internal::MachineType"], [4 x %"class.v8::internal::MachineType"]* %32, i64 0, i64 0, i32 0
  call void @llvm.lifetime.start.p0i8(i64 8, i8* nonnull %49) #11
  %50 = getelementptr inbounds [4 x %"class.v8::internal::MachineType"], [4 x %"class.v8::internal::MachineType"]* %32, i64 0, i64 0
  %51 = bitcast [4 x %"class.v8::internal::MachineType"]* %32 to i16*
  store i16 1801, i16* %51, align 2
  %52 = getelementptr inbounds [4 x %"class.v8::internal::MachineType"], [4 x %"class.v8::internal::MachineType"]* %32, i64 0, i64 1
  %53 = bitcast %"class.v8::internal::MachineType"* %52 to i16*
  store i16 1801, i16* %53, align 2
  %54 = getelementptr inbounds [4 x %"class.v8::internal::MachineType"], [4 x %"class.v8::internal::MachineType"]* %32, i64 0, i64 2
  %55 = bitcast %"class.v8::internal::MachineType"* %54 to i16*
  store i16 1801, i16* %55, align 2
  %56 = getelementptr inbounds [4 x %"class.v8::internal::MachineType"], [4 x %"class.v8::internal::MachineType"]* %32, i64 0, i64 3
  %57 = bitcast %"class.v8::internal::MachineType"* %56 to i16*
  store i16 1801, i16* %57, align 2
  call void @_ZN2v88internal27CallInterfaceDescriptorData15InitializeTypesEPKNS0_11MachineTypeEi(%"class.v8::internal::CallInterfaceDescriptorData"* getelementptr inbounds ([404 x %"class.v8::internal::CallInterfaceDescriptorData"], [404 x %"class.v8::internal::CallInterfaceDescriptorData"]* @_ZN2v88internal15CallDescriptors21call_descriptor_data_E, i64 0, i64 3), %"class.v8::internal::MachineType"* nonnull %50, i32 undef) #11
  call void @llvm.lifetime.end.p0i8(i64 8, i8* nonnull %49) #11
  store i32 1, i32* getelementptr inbounds ([404 x %"class.v8::internal::CallInterfaceDescriptorData"], [404 x %"class.v8::internal::CallInterfaceDescriptorData"]* @_ZN2v88internal15CallDescriptors21call_descriptor_data_E, i64 0, i64 4, i32 4), align 16
  store <4 x i32> <i32 4, i32 1, i32 4, i32 4>, <4 x i32>* bitcast (i32* getelementptr inbounds ([404 x %"class.v8::internal::CallInterfaceDescriptorData"], [404 x %"class.v8::internal::CallInterfaceDescriptorData"]* @_ZN2v88internal15CallDescriptors21call_descriptor_data_E, i64 0, i64 4, i32 0) to <4 x i32>*), align 16
  store %"class.v8::internal::Register"* bitcast ({ [4 x { i32 }] }* @_ZZN2v88internal29StaticCallInterfaceDescriptorINS0_26ArrayConstructorDescriptorEE10InitializeEPNS0_27CallInterfaceDescriptorDataEE9registers to %"class.v8::internal::Register"*), %"class.v8::internal::Register"** getelementptr inbounds ([404 x %"class.v8::internal::CallInterfaceDescriptorData"], [404 x %"class.v8::internal::CallInterfaceDescriptorData"]* @_ZN2v88internal15CallDescriptors21call_descriptor_data_E, i64 0, i64 4, i32 6), align 8
  call void @llvm.lifetime.start.p0i8(i64 10, i8* nonnull %38) #11
  store i16 1801, i16* %40, align 2
  store i16 1801, i16* %42, align 2
  store i16 1801, i16* %44, align 2
  store i16 516, i16* %46, align 2
  store i16 1801, i16* %48, align 2
  call void @_ZN2v88internal27CallInterfaceDescriptorData15InitializeTypesEPKNS0_11MachineTypeEi(%"class.v8::internal::CallInterfaceDescriptorData"* getelementptr inbounds ([404 x %"class.v8::internal::CallInterfaceDescriptorData"], [404 x %"class.v8::internal::CallInterfaceDescriptorData"]* @_ZN2v88internal15CallDescriptors21call_descriptor_data_E, i64 0, i64 4), %"class.v8::internal::MachineType"* nonnull %39, i32 undef) #11
  call void @llvm.lifetime.end.p0i8(i64 10, i8* nonnull %38) #11
  store i32 0, i32* getelementptr inbounds ([404 x %"class.v8::internal::CallInterfaceDescriptorData"], [404 x %"class.v8::internal::CallInterfaceDescriptorData"]* @_ZN2v88internal15CallDescriptors21call_descriptor_data_E, i64 0, i64 5, i32 3, i32 0), align 4
  store i32 0, i32* getelementptr inbounds ([404 x %"class.v8::internal::CallInterfaceDescriptorData"], [404 x %"class.v8::internal::CallInterfaceDescriptorData"]* @_ZN2v88internal15CallDescriptors21call_descriptor_data_E, i64 0, i64 5, i32 4), align 8
  store i32 1, i32* getelementptr inbounds ([404 x %"class.v8::internal::CallInterfaceDescriptorData"], [404 x %"class.v8::internal::CallInterfaceDescriptorData"]* @_ZN2v88internal15CallDescriptors21call_descriptor_data_E, i64 0, i64 5, i32 1), align 4
  store i32 3, i32* getelementptr inbounds ([404 x %"class.v8::internal::CallInterfaceDescriptorData"], [404 x %"class.v8::internal::CallInterfaceDescriptorData"]* @_ZN2v88internal15CallDescriptors21call_descriptor_data_E, i64 0, i64 5, i32 2), align 8
  store i32 3, i32* getelementptr inbounds ([404 x %"class.v8::internal::CallInterfaceDescriptorData"], [404 x %"class.v8::internal::CallInterfaceDescriptorData"]* @_ZN2v88internal15CallDescriptors21call_descriptor_data_E, i64 0, i64 5, i32 0), align 8
  store %"class.v8::internal::Register"* bitcast ({ [3 x { i32 }] }* @_ZZN2v88internal29StaticCallInterfaceDescriptorINS0_36ArrayNArgumentsConstructorDescriptorEE10InitializeEPNS0_27CallInterfaceDescriptorDataEE9registers to %"class.v8::internal::Register"*), %"class.v8::internal::Register"** getelementptr inbounds ([404 x %"class.v8::internal::CallInterfaceDescriptorData"], [404 x %"class.v8::internal::CallInterfaceDescriptorData"]* @_ZN2v88internal15CallDescriptors21call_descriptor_data_E, i64 0, i64 5, i32 6), align 8
  call void @llvm.lifetime.start.p0i8(i64 8, i8* nonnull %49) #11
  store i16 1801, i16* %51, align 2
  store i16 1801, i16* %53, align 2
  store i16 1801, i16* %55, align 2
  store i16 516, i16* %57, align 2
  call void @_ZN2v88internal27CallInterfaceDescriptorData15InitializeTypesEPKNS0_11MachineTypeEi(%"class.v8::internal::CallInterfaceDescriptorData"* getelementptr inbounds ([404 x %"class.v8::internal::CallInterfaceDescriptorData"], [404 x %"class.v8::internal::CallInterfaceDescriptorData"]* @_ZN2v88internal15CallDescriptors21call_descriptor_data_E, i64 0, i64 5), %"class.v8::internal::MachineType"* nonnull %50, i32 undef) #11
  call void @llvm.lifetime.end.p0i8(i64 8, i8* nonnull %49) #11
  store i32 0, i32* getelementptr inbounds ([404 x %"class.v8::internal::CallInterfaceDescriptorData"], [404 x %"class.v8::internal::CallInterfaceDescriptorData"]* @_ZN2v88internal15CallDescriptors21call_descriptor_data_E, i64 0, i64 6, i32 4), align 16
  store <4 x i32> <i32 3, i32 1, i32 4, i32 0>, <4 x i32>* bitcast (i32* getelementptr inbounds ([404 x %"class.v8::internal::CallInterfaceDescriptorData"], [404 x %"class.v8::internal::CallInterfaceDescriptorData"]* @_ZN2v88internal15CallDescriptors21call_descriptor_data_E, i64 0, i64 6, i32 0) to <4 x i32>*), align 16
  store %"class.v8::internal::Register"* bitcast ({ [3 x { i32 }] }* @_ZZN2v88internal29StaticCallInterfaceDescriptorINS0_36ArrayNoArgumentConstructorDescriptorEE10InitializeEPNS0_27CallInterfaceDescriptorDataEE9registers to %"class.v8::internal::Register"*), %"class.v8::internal::Register"** getelementptr inbounds ([404 x %"class.v8::internal::CallInterfaceDescriptorData"], [404 x %"class.v8::internal::CallInterfaceDescriptorData"]* @_ZN2v88internal15CallDescriptors21call_descriptor_data_E, i64 0, i64 6, i32 6), align 8
  call void @llvm.lifetime.start.p0i8(i64 10, i8* nonnull %38) #11
  store i16 1801, i16* %40, align 2
  store i16 1801, i16* %42, align 2
  store i16 1801, i16* %44, align 2
  store i16 516, i16* %46, align 2
  store i16 1801, i16* %48, align 2
  call void @_ZN2v88internal27CallInterfaceDescriptorData15InitializeTypesEPKNS0_11MachineTypeEi(%"class.v8::internal::CallInterfaceDescriptorData"* getelementptr inbounds ([404 x %"class.v8::internal::CallInterfaceDescriptorData"], [404 x %"class.v8::internal::CallInterfaceDescriptorData"]* @_ZN2v88internal15CallDescriptors21call_descriptor_data_E, i64 0, i64 6), %"class.v8::internal::MachineType"* nonnull %39, i32 undef) #11
  call void @llvm.lifetime.end.p0i8(i64 10, i8* nonnull %38) #11
  store i32 0, i32* getelementptr inbounds ([404 x %"class.v8::internal::CallInterfaceDescriptorData"], [404 x %"class.v8::internal::CallInterfaceDescriptorData"]* @_ZN2v88internal15CallDescriptors21call_descriptor_data_E, i64 0, i64 7, i32 4), align 8
  store <4 x i32> <i32 3, i32 1, i32 5, i32 0>, <4 x i32>* bitcast (i32* getelementptr inbounds ([404 x %"class.v8::internal::CallInterfaceDescriptorData"], [404 x %"class.v8::internal::CallInterfaceDescriptorData"]* @_ZN2v88internal15CallDescriptors21call_descriptor_data_E, i64 0, i64 7, i32 0) to <4 x i32>*), align 8
  store %"class.v8::internal::Register"* bitcast ({ [3 x { i32 }] }* @_ZZN2v88internal29StaticCallInterfaceDescriptorINS0_40ArraySingleArgumentConstructorDescriptorEE10InitializeEPNS0_27CallInterfaceDescriptorDataEE9registers to %"class.v8::internal::Register"*), %"class.v8::internal::Register"** getelementptr inbounds ([404 x %"class.v8::internal::CallInterfaceDescriptorData"], [404 x %"class.v8::internal::CallInterfaceDescriptorData"]* @_ZN2v88internal15CallDescriptors21call_descriptor_data_E, i64 0, i64 7, i32 6), align 8
  %58 = getelementptr inbounds [6 x %"class.v8::internal::MachineType"], [6 x %"class.v8::internal::MachineType"]* %28, i64 0, i64 0, i32 0
  call void @llvm.lifetime.start.p0i8(i64 12, i8* nonnull %58) #11
  %59 = getelementptr inbounds [6 x %"class.v8::internal::MachineType"], [6 x %"class.v8::internal::MachineType"]* %28, i64 0, i64 0
  %60 = bitcast [6 x %"class.v8::internal::MachineType"]* %28 to i16*
  store i16 1801, i16* %60, align 2
  %61 = getelementptr inbounds [6 x %"class.v8::internal::MachineType"], [6 x %"class.v8::internal::MachineType"]* %28, i64 0, i64 1
  %62 = bitcast %"class.v8::internal::MachineType"* %61 to i16*
  store i16 1801, i16* %62, align 2
  %63 = getelementptr inbounds [6 x %"class.v8::internal::MachineType"], [6 x %"class.v8::internal::MachineType"]* %28, i64 0, i64 2
  %64 = bitcast %"class.v8::internal::MachineType"* %63 to i16*
  store i16 1801, i16* %64, align 2
  %65 = getelementptr inbounds [6 x %"class.v8::internal::MachineType"], [6 x %"class.v8::internal::MachineType"]* %28, i64 0, i64 3
  %66 = bitcast %"class.v8::internal::MachineType"* %65 to i16*
  store i16 516, i16* %66, align 2
  %67 = getelementptr inbounds [6 x %"class.v8::internal::MachineType"], [6 x %"class.v8::internal::MachineType"]* %28, i64 0, i64 4
  %68 = bitcast %"class.v8::internal::MachineType"* %67 to i16*
  store i16 1801, i16* %68, align 2
  %69 = getelementptr inbounds [6 x %"class.v8::internal::MachineType"], [6 x %"class.v8::internal::MachineType"]* %28, i64 0, i64 5
  %70 = bitcast %"class.v8::internal::MachineType"* %69 to i16*
  store i16 1801, i16* %70, align 2
  call void @_ZN2v88internal27CallInterfaceDescriptorData15InitializeTypesEPKNS0_11MachineTypeEi(%"class.v8::internal::CallInterfaceDescriptorData"* getelementptr inbounds ([404 x %"class.v8::internal::CallInterfaceDescriptorData"], [404 x %"class.v8::internal::CallInterfaceDescriptorData"]* @_ZN2v88internal15CallDescriptors21call_descriptor_data_E, i64 0, i64 7), %"class.v8::internal::MachineType"* nonnull %59, i32 undef) #11
  call void @llvm.lifetime.end.p0i8(i64 12, i8* nonnull %58) #11
  store i32 0, i32* getelementptr inbounds ([404 x %"class.v8::internal::CallInterfaceDescriptorData"], [404 x %"class.v8::internal::CallInterfaceDescriptorData"]* @_ZN2v88internal15CallDescriptors21call_descriptor_data_E, i64 0, i64 8, i32 4), align 16
  store <4 x i32> <i32 0, i32 1, i32 2, i32 0>, <4 x i32>* bitcast (i32* getelementptr inbounds ([404 x %"class.v8::internal::CallInterfaceDescriptorData"], [404 x %"class.v8::internal::CallInterfaceDescriptorData"]* @_ZN2v88internal15CallDescriptors21call_descriptor_data_E, i64 0, i64 8, i32 0) to <4 x i32>*), align 16
  store %"class.v8::internal::Register"* null, %"class.v8::internal::Register"** getelementptr inbounds ([404 x %"class.v8::internal::CallInterfaceDescriptorData"], [404 x %"class.v8::internal::CallInterfaceDescriptorData"]* @_ZN2v88internal15CallDescriptors21call_descriptor_data_E, i64 0, i64 8, i32 6), align 8
  %71 = getelementptr inbounds [3 x %"class.v8::internal::MachineType"], [3 x %"class.v8::internal::MachineType"]* %30, i64 0, i64 0, i32 0
  call void @llvm.lifetime.start.p0i8(i64 6, i8* nonnull %71) #11
  %72 = getelementptr inbounds [3 x %"class.v8::internal::MachineType"], [3 x %"class.v8::internal::MachineType"]* %30, i64 0, i64 0
  %73 = bitcast [3 x %"class.v8::internal::MachineType"]* %30 to i16*
  store i16 1801, i16* %73, align 2
  %74 = getelementptr inbounds [3 x %"class.v8::internal::MachineType"], [3 x %"class.v8::internal::MachineType"]* %30, i64 0, i64 1
  %75 = bitcast %"class.v8::internal::MachineType"* %74 to i16*
  store i16 1800, i16* %75, align 2
  %76 = getelementptr inbounds [3 x %"class.v8::internal::MachineType"], [3 x %"class.v8::internal::MachineType"]* %30, i64 0, i64 2
  %77 = bitcast %"class.v8::internal::MachineType"* %76 to i16*
  store i16 1801, i16* %77, align 2
  call void @_ZN2v88internal27CallInterfaceDescriptorData15InitializeTypesEPKNS0_11MachineTypeEi(%"class.v8::internal::CallInterfaceDescriptorData"* getelementptr inbounds ([404 x %"class.v8::internal::CallInterfaceDescriptorData"], [404 x %"class.v8::internal::CallInterfaceDescriptorData"]* @_ZN2v88internal15CallDescriptors21call_descriptor_data_E, i64 0, i64 8), %"class.v8::internal::MachineType"* nonnull %72, i32 undef) #11
  call void @llvm.lifetime.end.p0i8(i64 6, i8* nonnull %71) #11
  store i32 0, i32* getelementptr inbounds ([404 x %"class.v8::internal::CallInterfaceDescriptorData"], [404 x %"class.v8::internal::CallInterfaceDescriptorData"]* @_ZN2v88internal15CallDescriptors21call_descriptor_data_E, i64 0, i64 9, i32 4), align 8
  store <4 x i32> <i32 1, i32 2, i32 1, i32 0>, <4 x i32>* bitcast (i32* getelementptr inbounds ([404 x %"class.v8::internal::CallInterfaceDescriptorData"], [404 x %"class.v8::internal::CallInterfaceDescriptorData"]* @_ZN2v88internal15CallDescriptors21call_descriptor_data_E, i64 0, i64 9, i32 0) to <4 x i32>*), align 8
  store %"class.v8::internal::Register"* bitcast ({ [5 x { i32 }] }* @_ZZN2v88internal29StaticCallInterfaceDescriptorINS0_25BigIntToI32PairDescriptorEE10InitializeEPNS0_27CallInterfaceDescriptorDataEE9registers to %"class.v8::internal::Register"*), %"class.v8::internal::Register"** getelementptr inbounds ([404 x %"class.v8::internal::CallInterfaceDescriptorData"], [404 x %"class.v8::internal::CallInterfaceDescriptorData"]* @_ZN2v88internal15CallDescriptors21call_descriptor_data_E, i64 0, i64 9, i32 6), align 8
  call void @llvm.lifetime.start.p0i8(i64 6, i8* nonnull %71) #11
  store i16 772, i16* %73, align 2
  store i16 772, i16* %75, align 2
  store i16 1801, i16* %77, align 2
  call void @_ZN2v88internal27CallInterfaceDescriptorData15InitializeTypesEPKNS0_11MachineTypeEi(%"class.v8::internal::CallInterfaceDescriptorData"* getelementptr inbounds ([404 x %"class.v8::internal::CallInterfaceDescriptorData"], [404 x %"class.v8::internal::CallInterfaceDescriptorData"]* @_ZN2v88internal15CallDescriptors21call_descriptor_data_E, i64 0, i64 9), %"class.v8::internal::MachineType"* nonnull %72, i32 undef) #11
  call void @llvm.lifetime.end.p0i8(i64 6, i8* nonnull %71) #11
  store <4 x i32> <i32 1, i32 1, i32 0, i32 0>, <4 x i32>* bitcast (i32* getelementptr inbounds ([404 x %"class.v8::internal::CallInterfaceDescriptorData"], [404 x %"class.v8::internal::CallInterfaceDescriptorData"]* @_ZN2v88internal15CallDescriptors21call_descriptor_data_E, i64 0, i64 10, i32 1) to <4 x i32>*), align 4
  store i32 1, i32* getelementptr inbounds ([404 x %"class.v8::internal::CallInterfaceDescriptorData"], [404 x %"class.v8::internal::CallInterfaceDescriptorData"]* @_ZN2v88internal15CallDescriptors21call_descriptor_data_E, i64 0, i64 10, i32 0), align 16
  store %"class.v8::internal::Register"* bitcast ({ [5 x { i32 }] }* @_ZZN2v88internal29StaticCallInterfaceDescriptorINS0_21BigIntToI64DescriptorEE10InitializeEPNS0_27CallInterfaceDescriptorDataEE9registers to %"class.v8::internal::Register"*), %"class.v8::internal::Register"** getelementptr inbounds ([404 x %"class.v8::internal::CallInterfaceDescriptorData"], [404 x %"class.v8::internal::CallInterfaceDescriptorData"]* @_ZN2v88internal15CallDescriptors21call_descriptor_data_E, i64 0, i64 10, i32 6), align 8
  call void @llvm.lifetime.start.p0i8(i64 4, i8* nonnull %33) #11
  store i16 1029, i16* %35, align 2
  store i16 1801, i16* %37, align 2
  call void @_ZN2v88internal27CallInterfaceDescriptorData15InitializeTypesEPKNS0_11MachineTypeEi(%"class.v8::internal::CallInterfaceDescriptorData"* getelementptr inbounds ([404 x %"class.v8::internal::CallInterfaceDescriptorData"], [404 x %"class.v8::internal::CallInterfaceDescriptorData"]* @_ZN2v88internal15CallDescriptors21call_descriptor_data_E, i64 0, i64 10), %"class.v8::internal::MachineType"* nonnull %34, i32 undef) #11
  call void @llvm.lifetime.end.p0i8(i64 4, i8* nonnull %33) #11
  store i32 0, i32* getelementptr inbounds ([404 x %"class.v8::internal::CallInterfaceDescriptorData"], [404 x %"class.v8::internal::CallInterfaceDescriptorData"]* @_ZN2v88internal15CallDescriptors21call_descriptor_data_E, i64 0, i64 11, i32 4), align 8
  store <4 x i32> <i32 2, i32 1, i32 2, i32 0>, <4 x i32>* bitcast (i32* getelementptr inbounds ([404 x %"class.v8::internal::CallInterfaceDescriptorData"], [404 x %"class.v8::internal::CallInterfaceDescriptorData"]* @_ZN2v88internal15CallDescriptors21call_descriptor_data_E, i64 0, i64 11, i32 0) to <4 x i32>*), align 8
  store %"class.v8::internal::Register"* bitcast ({ [2 x { i32 }] }* @_ZZN2v88internal29StaticCallInterfaceDescriptorINS0_18BinaryOpDescriptorEE10InitializeEPNS0_27CallInterfaceDescriptorDataEE9registers to %"class.v8::internal::Register"*), %"class.v8::internal::Register"** getelementptr inbounds ([404 x %"class.v8::internal::CallInterfaceDescriptorData"], [404 x %"class.v8::internal::CallInterfaceDescriptorData"]* @_ZN2v88internal15CallDescriptors21call_descriptor_data_E, i64 0, i64 11, i32 6), align 8
  %78 = call noalias i8* @_ZnamRKSt9nothrow_t(i64 6, %"struct.std::nothrow_t"* dereferenceable(1) @_ZSt7nothrow) #10
  %79 = icmp eq i8* %78, null
  br i1 %79, label %80, label %89

80:                                               ; preds = %0
  %81 = call %"class.v8::Platform"* @_ZN2v88internal2V818GetCurrentPlatformEv() #11
  %82 = bitcast %"class.v8::Platform"* %81 to void (%"class.v8::Platform"*)***
  %83 = load void (%"class.v8::Platform"*)**, void (%"class.v8::Platform"*)*** %82, align 8
  %84 = getelementptr inbounds void (%"class.v8::Platform"*)*, void (%"class.v8::Platform"*)** %83, i64 3
  %85 = load void (%"class.v8::Platform"*)*, void (%"class.v8::Platform"*)** %84, align 8
  call void %85(%"class.v8::Platform"* %81) #11
  %86 = call noalias i8* @_ZnamRKSt9nothrow_t(i64 6, %"struct.std::nothrow_t"* dereferenceable(1) @_ZSt7nothrow) #10
  %87 = icmp eq i8* %86, null
  br i1 %87, label %88, label %89

88:                                               ; preds = %80
  call void @_ZN2v88internal23FatalProcessOutOfMemoryEPNS0_7IsolateEPKc(%"class.v8::internal::Isolate"* null, i8* getelementptr inbounds ([9 x i8], [9 x i8]* @.str.405, i64 0, i64 0)) #12
  unreachable

89:                                               ; preds = %0, %80
  %90 = phi i8* [ %86, %80 ], [ %78, %0 ]
  %91 = bitcast i8* %90 to i16*
  store i16 1801, i16* %91, align 1
  %92 = getelementptr inbounds i8, i8* %90, i64 2
  %93 = bitcast i8* %92 to i16*
  store i16 1801, i16* %93, align 1
  %94 = getelementptr inbounds i8, i8* %90, i64 4
  %95 = bitcast i8* %94 to i16*
  store i16 1801, i16* %95, align 1
  store i8* %90, i8** bitcast (%"class.v8::internal::MachineType"** getelementptr inbounds ([404 x %"class.v8::internal::CallInterfaceDescriptorData"], [404 x %"class.v8::internal::CallInterfaceDescriptorData"]* @_ZN2v88internal15CallDescriptors21call_descriptor_data_E, i64 0, i64 11, i32 7) to i8**), align 8
  store i32 0, i32* getelementptr inbounds ([404 x %"class.v8::internal::CallInterfaceDescriptorData"], [404 x %"class.v8::internal::CallInterfaceDescriptorData"]* @_ZN2v88internal15CallDescriptors21call_descriptor_data_E, i64 0, i64 12, i32 4), align 16
  store <4 x i32> <i32 3, i32 1, i32 3, i32 1>, <4 x i32>* bitcast (i32* getelementptr inbounds ([404 x %"class.v8::internal::CallInterfaceDescriptorData"], [404 x %"class.v8::internal::CallInterfaceDescriptorData"]* @_ZN2v88internal15CallDescriptors21call_descriptor_data_E, i64 0, i64 12, i32 0) to <4 x i32>*), align 16
  store %"class.v8::internal::Register"* bitcast ({ [3 x { i32 }] }* @_ZZN2v88internal29StaticCallInterfaceDescriptorINS0_27BinaryOp_BaselineDescriptorEE10InitializeEPNS0_27CallInterfaceDescriptorDataEE9registers to %"class.v8::internal::Register"*), %"class.v8::internal::Register"** getelementptr inbounds ([404 x %"class.v8::internal::CallInterfaceDescriptorData"], [404 x %"class.v8::internal::CallInterfaceDescriptorData"]* @_ZN2v88internal15CallDescriptors21call_descriptor_data_E, i64 0, i64 12, i32 6), align 8
  call void @llvm.lifetime.start.p0i8(i64 8, i8* nonnull %49) #11
  store i16 1801, i16* %51, align 2
  store i16 1801, i16* %53, align 2
  store i16 1801, i16* %55, align 2
  store i16 1285, i16* %57, align 2
  call void @_ZN2v88internal27CallInterfaceDescriptorData15InitializeTypesEPKNS0_11MachineTypeEi(%"class.v8::internal::CallInterfaceDescriptorData"* getelementptr inbounds ([404 x %"class.v8::internal::CallInterfaceDescriptorData"], [404 x %"class.v8::internal::CallInterfaceDescriptorData"]* @_ZN2v88internal15CallDescriptors21call_descriptor_data_E, i64 0, i64 12), %"class.v8::internal::MachineType"* nonnull %50, i32 undef) #11
  call void @llvm.lifetime.end.p0i8(i64 8, i8* nonnull %49) #11
  store i32 0, i32* getelementptr inbounds ([404 x %"class.v8::internal::CallInterfaceDescriptorData"], [404 x %"class.v8::internal::CallInterfaceDescriptorData"]* @_ZN2v88internal15CallDescriptors21call_descriptor_data_E, i64 0, i64 13, i32 4), align 8
  store <4 x i32> <i32 4, i32 1, i32 4, i32 0>, <4 x i32>* bitcast (i32* getelementptr inbounds ([404 x %"class.v8::internal::CallInterfaceDescriptorData"], [404 x %"class.v8::internal::CallInterfaceDescriptorData"]* @_ZN2v88internal15CallDescriptors21call_descriptor_data_E, i64 0, i64 13, i32 0) to <4 x i32>*), align 8
  store %"class.v8::internal::Register"* bitcast ({ [5 x { i32 }] }* @_ZZN2v88internal29StaticCallInterfaceDescriptorINS0_31BinaryOp_WithFeedbackDescriptorEE10InitializeEPNS0_27CallInterfaceDescriptorDataEE9registers to %"class.v8::internal::Register"*), %"class.v8::internal::Register"** getelementptr inbounds ([404 x %"class.v8::internal::CallInterfaceDescriptorData"], [404 x %"class.v8::internal::CallInterfaceDescriptorData"]* @_ZN2v88internal15CallDescriptors21call_descriptor_data_E, i64 0, i64 13, i32 6), align 8
  call void @llvm.lifetime.start.p0i8(i64 10, i8* nonnull %38) #11
  store i16 1801, i16* %40, align 2
  store i16 1801, i16* %42, align 2
  store i16 1801, i16* %44, align 2
  store i16 1285, i16* %46, align 2
  store i16 1801, i16* %48, align 2
  call void @_ZN2v88internal27CallInterfaceDescriptorData15InitializeTypesEPKNS0_11MachineTypeEi(%"class.v8::internal::CallInterfaceDescriptorData"* getelementptr inbounds ([404 x %"class.v8::internal::CallInterfaceDescriptorData"], [404 x %"class.v8::internal::CallInterfaceDescriptorData"]* @_ZN2v88internal15CallDescriptors21call_descriptor_data_E, i64 0, i64 13), %"class.v8::internal::MachineType"* nonnull %39, i32 undef) #11
  call void @llvm.lifetime.end.p0i8(i64 10, i8* nonnull %38) #11
  store i32 4, i32* getelementptr inbounds ([404 x %"class.v8::internal::CallInterfaceDescriptorData"], [404 x %"class.v8::internal::CallInterfaceDescriptorData"]* @_ZN2v88internal15CallDescriptors21call_descriptor_data_E, i64 0, i64 14, i32 3, i32 0), align 4
  store i32 1, i32* getelementptr inbounds ([404 x %"class.v8::internal::CallInterfaceDescriptorData"], [404 x %"class.v8::internal::CallInterfaceDescriptorData"]* @_ZN2v88internal15CallDescriptors21call_descriptor_data_E, i64 0, i64 14, i32 4), align 16
  store i32 1, i32* getelementptr inbounds ([404 x %"class.v8::internal::CallInterfaceDescriptorData"], [404 x %"class.v8::internal::CallInterfaceDescriptorData"]* @_ZN2v88internal15CallDescriptors21call_descriptor_data_E, i64 0, i64 14, i32 1), align 4
  store i32 3, i32* getelementptr inbounds ([404 x %"class.v8::internal::CallInterfaceDescriptorData"], [404 x %"class.v8::internal::CallInterfaceDescriptorData"]* @_ZN2v88internal15CallDescriptors21call_descriptor_data_E, i64 0, i64 14, i32 2), align 8
  store i32 3, i32* getelementptr inbounds ([404 x %"class.v8::internal::CallInterfaceDescriptorData"], [404 x %"class.v8::internal::CallInterfaceDescriptorData"]* @_ZN2v88internal15CallDescriptors21call_descriptor_data_E, i64 0, i64 14, i32 0), align 16
  store %"class.v8::internal::Register"* bitcast ({ [3 x { i32 }] }* @_ZZN2v88internal29StaticCallInterfaceDescriptorINS0_28CallForwardVarargsDescriptorEE10InitializeEPNS0_27CallInterfaceDescriptorDataEE9registers to %"class.v8::internal::Register"*), %"class.v8::internal::Register"** getelementptr inbounds ([404 x %"class.v8::internal::CallInterfaceDescriptorData"], [404 x %"class.v8::internal::CallInterfaceDescriptorData"]* @_ZN2v88internal15CallDescriptors21call_descriptor_data_E, i64 0, i64 14, i32 6), align 8
  call void @llvm.lifetime.start.p0i8(i64 8, i8* nonnull %49) #11
  store i16 1801, i16* %51, align 2
  store i16 1801, i16* %53, align 2
  store i16 516, i16* %55, align 2
  store i16 516, i16* %57, align 2
  call void @_ZN2v88internal27CallInterfaceDescriptorData15InitializeTypesEPKNS0_11MachineTypeEi(%"class.v8::internal::CallInterfaceDescriptorData"* getelementptr inbounds ([404 x %"class.v8::internal::CallInterfaceDescriptorData"], [404 x %"class.v8::internal::CallInterfaceDescriptorData"]* @_ZN2v88internal15CallDescriptors21call_descriptor_data_E, i64 0, i64 14), %"class.v8::internal::MachineType"* nonnull %50, i32 undef) #11
  call void @llvm.lifetime.end.p0i8(i64 8, i8* nonnull %49) #11
  store i32 1, i32* getelementptr inbounds ([404 x %"class.v8::internal::CallInterfaceDescriptorData"], [404 x %"class.v8::internal::CallInterfaceDescriptorData"]* @_ZN2v88internal15CallDescriptors21call_descriptor_data_E, i64 0, i64 15, i32 4), align 8
  store <4 x i32> <i32 2, i32 1, i32 2, i32 4>, <4 x i32>* bitcast (i32* getelementptr inbounds ([404 x %"class.v8::internal::CallInterfaceDescriptorData"], [404 x %"class.v8::internal::CallInterfaceDescriptorData"]* @_ZN2v88internal15CallDescriptors21call_descriptor_data_E, i64 0, i64 15, i32 0) to <4 x i32>*), align 8
  store %"class.v8::internal::Register"* bitcast ({ [2 x { i32 }] }* @_ZZN2v88internal29StaticCallInterfaceDescriptorINS0_30CallFunctionTemplateDescriptorEE10InitializeEPNS0_27CallInterfaceDescriptorDataEE9registers to %"class.v8::internal::Register"*), %"class.v8::internal::Register"** getelementptr inbounds ([404 x %"class.v8::internal::CallInterfaceDescriptorData"], [404 x %"class.v8::internal::CallInterfaceDescriptorData"]* @_ZN2v88internal15CallDescriptors21call_descriptor_data_E, i64 0, i64 15, i32 6), align 8
  call void @llvm.lifetime.start.p0i8(i64 6, i8* nonnull %71) #11
  store i16 1801, i16* %73, align 2
  store i16 1801, i16* %75, align 2
  store i16 1029, i16* %77, align 2
  call void @_ZN2v88internal27CallInterfaceDescriptorData15InitializeTypesEPKNS0_11MachineTypeEi(%"class.v8::internal::CallInterfaceDescriptorData"* getelementptr inbounds ([404 x %"class.v8::internal::CallInterfaceDescriptorData"], [404 x %"class.v8::internal::CallInterfaceDescriptorData"]* @_ZN2v88internal15CallDescriptors21call_descriptor_data_E, i64 0, i64 15), %"class.v8::internal::MachineType"* nonnull %72, i32 undef) #11
  call void @llvm.lifetime.end.p0i8(i64 6, i8* nonnull %71) #11
  store i32 1, i32* getelementptr inbounds ([404 x %"class.v8::internal::CallInterfaceDescriptorData"], [404 x %"class.v8::internal::CallInterfaceDescriptorData"]* @_ZN2v88internal15CallDescriptors21call_descriptor_data_E, i64 0, i64 16, i32 4), align 16
  store <4 x i32> <i32 2, i32 1, i32 2, i32 4>, <4 x i32>* bitcast (i32* getelementptr inbounds ([404 x %"class.v8::internal::CallInterfaceDescriptorData"], [404 x %"class.v8::internal::CallInterfaceDescriptorData"]* @_ZN2v88internal15CallDescriptors21call_descriptor_data_E, i64 0, i64 16, i32 0) to <4 x i32>*), align 16
  store %"class.v8::internal::Register"* bitcast ({ [2 x { i32 }] }* @_ZZN2v88internal29StaticCallInterfaceDescriptorINS0_24CallTrampolineDescriptorEE10InitializeEPNS0_27CallInterfaceDescriptorDataEE9registers to %"class.v8::internal::Register"*), %"class.v8::internal::Register"** getelementptr inbounds ([404 x %"class.v8::internal::CallInterfaceDescriptorData"], [404 x %"class.v8::internal::CallInterfaceDescriptorData"]* @_ZN2v88internal15CallDescriptors21call_descriptor_data_E, i64 0, i64 16, i32 6), align 8
  call void @llvm.lifetime.start.p0i8(i64 6, i8* nonnull %71) #11
  store i16 1801, i16* %73, align 2
  store i16 1801, i16* %75, align 2
  store i16 516, i16* %77, align 2
  call void @_ZN2v88internal27CallInterfaceDescriptorData15InitializeTypesEPKNS0_11MachineTypeEi(%"class.v8::internal::CallInterfaceDescriptorData"* getelementptr inbounds ([404 x %"class.v8::internal::CallInterfaceDescriptorData"], [404 x %"class.v8::internal::CallInterfaceDescriptorData"]* @_ZN2v88internal15CallDescriptors21call_descriptor_data_E, i64 0, i64 16), %"class.v8::internal::MachineType"* nonnull %72, i32 undef) #11
  call void @llvm.lifetime.end.p0i8(i64 6, i8* nonnull %71) #11
  store i32 5, i32* getelementptr inbounds ([404 x %"class.v8::internal::CallInterfaceDescriptorData"], [404 x %"class.v8::internal::CallInterfaceDescriptorData"]* @_ZN2v88internal15CallDescriptors21call_descriptor_data_E, i64 0, i64 17, i32 3, i32 0), align 4
  store i32 1, i32* getelementptr inbounds ([404 x %"class.v8::internal::CallInterfaceDescriptorData"], [404 x %"class.v8::internal::CallInterfaceDescriptorData"]* @_ZN2v88internal15CallDescriptors21call_descriptor_data_E, i64 0, i64 17, i32 4), align 8
  store i32 1, i32* getelementptr inbounds ([404 x %"class.v8::internal::CallInterfaceDescriptorData"], [404 x %"class.v8::internal::CallInterfaceDescriptorData"]* @_ZN2v88internal15CallDescriptors21call_descriptor_data_E, i64 0, i64 17, i32 1), align 4
  store i32 3, i32* getelementptr inbounds ([404 x %"class.v8::internal::CallInterfaceDescriptorData"], [404 x %"class.v8::internal::CallInterfaceDescriptorData"]* @_ZN2v88internal15CallDescriptors21call_descriptor_data_E, i64 0, i64 17, i32 2), align 8
  store i32 3, i32* getelementptr inbounds ([404 x %"class.v8::internal::CallInterfaceDescriptorData"], [404 x %"class.v8::internal::CallInterfaceDescriptorData"]* @_ZN2v88internal15CallDescriptors21call_descriptor_data_E, i64 0, i64 17, i32 0), align 8
  store %"class.v8::internal::Register"* bitcast ({ [5 x { i32 }] }* @_ZZN2v88internal29StaticCallInterfaceDescriptorINS0_33CallTrampoline_BaselineDescriptorEE10InitializeEPNS0_27CallInterfaceDescriptorDataEE9registers to %"class.v8::internal::Register"*), %"class.v8::internal::Register"** getelementptr inbounds ([404 x %"class.v8::internal::CallInterfaceDescriptorData"], [404 x %"class.v8::internal::CallInterfaceDescriptorData"]* @_ZN2v88internal15CallDescriptors21call_descriptor_data_E, i64 0, i64 17, i32 6), align 8
  call void @llvm.lifetime.start.p0i8(i64 8, i8* nonnull %49) #11
  store i16 1801, i16* %51, align 2
  store i16 1801, i16* %53, align 2
  store i16 516, i16* %55, align 2
  store i16 1285, i16* %57, align 2
  call void @_ZN2v88internal27CallInterfaceDescriptorData15InitializeTypesEPKNS0_11MachineTypeEi(%"class.v8::internal::CallInterfaceDescriptorData"* getelementptr inbounds ([404 x %"class.v8::internal::CallInterfaceDescriptorData"], [404 x %"class.v8::internal::CallInterfaceDescriptorData"]* @_ZN2v88internal15CallDescriptors21call_descriptor_data_E, i64 0, i64 17), %"class.v8::internal::MachineType"* nonnull %50, i32 undef) #11
  call void @llvm.lifetime.end.p0i8(i64 8, i8* nonnull %49) #11
  store i32 1, i32* getelementptr inbounds ([404 x %"class.v8::internal::CallInterfaceDescriptorData"], [404 x %"class.v8::internal::CallInterfaceDescriptorData"]* @_ZN2v88internal15CallDescriptors21call_descriptor_data_E, i64 0, i64 18, i32 4), align 16
  store <4 x i32> <i32 2, i32 1, i32 2, i32 5>, <4 x i32>* bitcast (i32* getelementptr inbounds ([404 x %"class.v8::internal::CallInterfaceDescriptorData"], [404 x %"class.v8::internal::CallInterfaceDescriptorData"]* @_ZN2v88internal15CallDescriptors21call_descriptor_data_E, i64 0, i64 18, i32 0) to <4 x i32>*), align 16
  store %"class.v8::internal::Register"* bitcast ({ [5 x { i32 }] }* @_ZZN2v88internal29StaticCallInterfaceDescriptorINS0_41CallTrampoline_Baseline_CompactDescriptorEE10InitializeEPNS0_27CallInterfaceDescriptorDataEE9registers to %"class.v8::internal::Register"*), %"class.v8::internal::Register"** getelementptr inbounds ([404 x %"class.v8::internal::CallInterfaceDescriptorData"], [404 x %"class.v8::internal::CallInterfaceDescriptorData"]* @_ZN2v88internal15CallDescriptors21call_descriptor_data_E, i64 0, i64 18, i32 6), align 8
  call void @llvm.lifetime.start.p0i8(i64 6, i8* nonnull %71) #11
  store i16 1801, i16* %73, align 2
  store i16 1801, i16* %75, align 2
  store i16 772, i16* %77, align 2
  call void @_ZN2v88internal27CallInterfaceDescriptorData15InitializeTypesEPKNS0_11MachineTypeEi(%"class.v8::internal::CallInterfaceDescriptorData"* getelementptr inbounds ([404 x %"class.v8::internal::CallInterfaceDescriptorData"], [404 x %"class.v8::internal::CallInterfaceDescriptorData"]* @_ZN2v88internal15CallDescriptors21call_descriptor_data_E, i64 0, i64 18), %"class.v8::internal::MachineType"* nonnull %72, i32 undef) #11
  call void @llvm.lifetime.end.p0i8(i64 6, i8* nonnull %71) #11
  store i32 1, i32* getelementptr inbounds ([404 x %"class.v8::internal::CallInterfaceDescriptorData"], [404 x %"class.v8::internal::CallInterfaceDescriptorData"]* @_ZN2v88internal15CallDescriptors21call_descriptor_data_E, i64 0, i64 19, i32 4), align 8
  store <4 x i32> <i32 5, i32 1, i32 5, i32 4>, <4 x i32>* bitcast (i32* getelementptr inbounds ([404 x %"class.v8::internal::CallInterfaceDescriptorData"], [404 x %"class.v8::internal::CallInterfaceDescriptorData"]* @_ZN2v88internal15CallDescriptors21call_descriptor_data_E, i64 0, i64 19, i32 0) to <4 x i32>*), align 8
  store %"class.v8::internal::Register"* bitcast ({ [5 x { i32 }] }* @_ZZN2v88internal29StaticCallInterfaceDescriptorINS0_37CallTrampoline_WithFeedbackDescriptorEE10InitializeEPNS0_27CallInterfaceDescriptorDataEE9registers to %"class.v8::internal::Register"*), %"class.v8::internal::Register"** getelementptr inbounds ([404 x %"class.v8::internal::CallInterfaceDescriptorData"], [404 x %"class.v8::internal::CallInterfaceDescriptorData"]* @_ZN2v88internal15CallDescriptors21call_descriptor_data_E, i64 0, i64 19, i32 6), align 8
  call void @llvm.lifetime.start.p0i8(i64 12, i8* nonnull %58) #11
  store i16 1801, i16* %60, align 2
  store i16 1801, i16* %62, align 2
  store i16 516, i16* %64, align 2
  store i16 1285, i16* %66, align 2
  store i16 1801, i16* %68, align 2
  store i16 1801, i16* %70, align 2
  call void @_ZN2v88internal27CallInterfaceDescriptorData15InitializeTypesEPKNS0_11MachineTypeEi(%"class.v8::internal::CallInterfaceDescriptorData"* getelementptr inbounds ([404 x %"class.v8::internal::CallInterfaceDescriptorData"], [404 x %"class.v8::internal::CallInterfaceDescriptorData"]* @_ZN2v88internal15CallDescriptors21call_descriptor_data_E, i64 0, i64 19), %"class.v8::internal::MachineType"* nonnull %59, i32 undef) #11
  call void @llvm.lifetime.end.p0i8(i64 12, i8* nonnull %58) #11
  store i32 1, i32* getelementptr inbounds ([404 x %"class.v8::internal::CallInterfaceDescriptorData"], [404 x %"class.v8::internal::CallInterfaceDescriptorData"]* @_ZN2v88internal15CallDescriptors21call_descriptor_data_E, i64 0, i64 20, i32 4), align 16
  store <4 x i32> <i32 4, i32 1, i32 4, i32 4>, <4 x i32>* bitcast (i32* getelementptr inbounds ([404 x %"class.v8::internal::CallInterfaceDescriptorData"], [404 x %"class.v8::internal::CallInterfaceDescriptorData"]* @_ZN2v88internal15CallDescriptors21call_descriptor_data_E, i64 0, i64 20, i32 0) to <4 x i32>*), align 16
  store %"class.v8::internal::Register"* bitcast ({ [4 x { i32 }] }* @_ZZN2v88internal29StaticCallInterfaceDescriptorINS0_21CallVarargsDescriptorEE10InitializeEPNS0_27CallInterfaceDescriptorDataEE9registers to %"class.v8::internal::Register"*), %"class.v8::internal::Register"** getelementptr inbounds ([404 x %"class.v8::internal::CallInterfaceDescriptorData"], [404 x %"class.v8::internal::CallInterfaceDescriptorData"]* @_ZN2v88internal15CallDescriptors21call_descriptor_data_E, i64 0, i64 20, i32 6), align 8
  call void @llvm.lifetime.start.p0i8(i64 10, i8* nonnull %38) #11
  store i16 1801, i16* %40, align 2
  store i16 1801, i16* %42, align 2
  store i16 516, i16* %44, align 2
  store i16 516, i16* %46, align 2
  store i16 1801, i16* %48, align 2
  call void @_ZN2v88internal27CallInterfaceDescriptorData15InitializeTypesEPKNS0_11MachineTypeEi(%"class.v8::internal::CallInterfaceDescriptorData"* getelementptr inbounds ([404 x %"class.v8::internal::CallInterfaceDescriptorData"], [404 x %"class.v8::internal::CallInterfaceDescriptorData"]* @_ZN2v88internal15CallDescriptors21call_descriptor_data_E, i64 0, i64 20), %"class.v8::internal::MachineType"* nonnull %39, i32 undef) #11
  call void @llvm.lifetime.end.p0i8(i64 10, i8* nonnull %38) #11
  store i32 0, i32* getelementptr inbounds ([404 x %"class.v8::internal::CallInterfaceDescriptorData"], [404 x %"class.v8::internal::CallInterfaceDescriptorData"]* @_ZN2v88internal15CallDescriptors21call_descriptor_data_E, i64 0, i64 21, i32 4), align 8
  store <4 x i32> <i32 2, i32 1, i32 2, i32 0>, <4 x i32>* bitcast (i32* getelementptr inbounds ([404 x %"class.v8::internal::CallInterfaceDescriptorData"], [404 x %"class.v8::internal::CallInterfaceDescriptorData"]* @_ZN2v88internal15CallDescriptors21call_descriptor_data_E, i64 0, i64 21, i32 0) to <4 x i32>*), align 8
  store %"class.v8::internal::Register"* bitcast ({ [2 x { i32 }] }* @_ZZN2v88internal29StaticCallInterfaceDescriptorINS0_27CallWithArrayLikeDescriptorEE10InitializeEPNS0_27CallInterfaceDescriptorDataEE9registers to %"class.v8::internal::Register"*), %"class.v8::internal::Register"** getelementptr inbounds ([404 x %"class.v8::internal::CallInterfaceDescriptorData"], [404 x %"class.v8::internal::CallInterfaceDescriptorData"]* @_ZN2v88internal15CallDescriptors21call_descriptor_data_E, i64 0, i64 21, i32 6), align 8
  call void @llvm.lifetime.start.p0i8(i64 6, i8* nonnull %71) #11
  store i16 1801, i16* %73, align 2
  store i16 1801, i16* %75, align 2
  store i16 1801, i16* %77, align 2
  call void @_ZN2v88internal27CallInterfaceDescriptorData15InitializeTypesEPKNS0_11MachineTypeEi(%"class.v8::internal::CallInterfaceDescriptorData"* getelementptr inbounds ([404 x %"class.v8::internal::CallInterfaceDescriptorData"], [404 x %"class.v8::internal::CallInterfaceDescriptorData"]* @_ZN2v88internal15CallDescriptors21call_descriptor_data_E, i64 0, i64 21), %"class.v8::internal::MachineType"* nonnull %72, i32 undef) #11
  call void @llvm.lifetime.end.p0i8(i64 6, i8* nonnull %71) #11
  store i32 0, i32* getelementptr inbounds ([404 x %"class.v8::internal::CallInterfaceDescriptorData"], [404 x %"class.v8::internal::CallInterfaceDescriptorData"]* @_ZN2v88internal15CallDescriptors21call_descriptor_data_E, i64 0, i64 22, i32 3, i32 0), align 4
  store i32 0, i32* getelementptr inbounds ([404 x %"class.v8::internal::CallInterfaceDescriptorData"], [404 x %"class.v8::internal::CallInterfaceDescriptorData"]* @_ZN2v88internal15CallDescriptors21call_descriptor_data_E, i64 0, i64 22, i32 4), align 16
  store i32 1, i32* getelementptr inbounds ([404 x %"class.v8::internal::CallInterfaceDescriptorData"], [404 x %"class.v8::internal::CallInterfaceDescriptorData"]* @_ZN2v88internal15CallDescriptors21call_descriptor_data_E, i64 0, i64 22, i32 1), align 4
  store i32 5, i32* getelementptr inbounds ([404 x %"class.v8::internal::CallInterfaceDescriptorData"], [404 x %"class.v8::internal::CallInterfaceDescriptorData"]* @_ZN2v88internal15CallDescriptors21call_descriptor_data_E, i64 0, i64 22, i32 2), align 8
  store i32 5, i32* getelementptr inbounds ([404 x %"class.v8::internal::CallInterfaceDescriptorData"], [404 x %"class.v8::internal::CallInterfaceDescriptorData"]* @_ZN2v88internal15CallDescriptors21call_descriptor_data_E, i64 0, i64 22, i32 0), align 16
  store %"class.v8::internal::Register"* bitcast ({ [5 x { i32 }] }* @_ZZN2v88internal29StaticCallInterfaceDescriptorINS0_40CallWithArrayLike_WithFeedbackDescriptorEE10InitializeEPNS0_27CallInterfaceDescriptorDataEE9registers to %"class.v8::internal::Register"*), %"class.v8::internal::Register"** getelementptr inbounds ([404 x %"class.v8::internal::CallInterfaceDescriptorData"], [404 x %"class.v8::internal::CallInterfaceDescriptorData"]* @_ZN2v88internal15CallDescriptors21call_descriptor_data_E, i64 0, i64 22, i32 6), align 8
  call void @llvm.lifetime.start.p0i8(i64 12, i8* nonnull %58) #11
  store i16 1801, i16* %60, align 2
  store i16 1801, i16* %62, align 2
  store i16 1801, i16* %64, align 2
  store i16 1285, i16* %66, align 2
  store i16 1801, i16* %68, align 2
  store i16 1801, i16* %70, align 2
  call void @_ZN2v88internal27CallInterfaceDescriptorData15InitializeTypesEPKNS0_11MachineTypeEi(%"class.v8::internal::CallInterfaceDescriptorData"* getelementptr inbounds ([404 x %"class.v8::internal::CallInterfaceDescriptorData"], [404 x %"class.v8::internal::CallInterfaceDescriptorData"]* @_ZN2v88internal15CallDescriptors21call_descriptor_data_E, i64 0, i64 22), %"class.v8::internal::MachineType"* nonnull %59, i32 undef) #11
  call void @llvm.lifetime.end.p0i8(i64 12, i8* nonnull %58) #11
  store i32 1, i32* getelementptr inbounds ([404 x %"class.v8::internal::CallInterfaceDescriptorData"], [404 x %"class.v8::internal::CallInterfaceDescriptorData"]* @_ZN2v88internal15CallDescriptors21call_descriptor_data_E, i64 0, i64 23, i32 4), align 8
  store <4 x i32> <i32 3, i32 1, i32 3, i32 4>, <4 x i32>* bitcast (i32* getelementptr inbounds ([404 x %"class.v8::internal::CallInterfaceDescriptorData"], [404 x %"class.v8::internal::CallInterfaceDescriptorData"]* @_ZN2v88internal15CallDescriptors21call_descriptor_data_E, i64 0, i64 23, i32 0) to <4 x i32>*), align 8
  store %"class.v8::internal::Register"* bitcast ({ [3 x { i32 }] }* @_ZZN2v88internal29StaticCallInterfaceDescriptorINS0_24CallWithSpreadDescriptorEE10InitializeEPNS0_27CallInterfaceDescriptorDataEE9registers to %"class.v8::internal::Register"*), %"class.v8::internal::Register"** getelementptr inbounds ([404 x %"class.v8::internal::CallInterfaceDescriptorData"], [404 x %"class.v8::internal::CallInterfaceDescriptorData"]* @_ZN2v88internal15CallDescriptors21call_descriptor_data_E, i64 0, i64 23, i32 6), align 8
  call void @llvm.lifetime.start.p0i8(i64 8, i8* nonnull %49) #11
  store i16 1801, i16* %51, align 2
  store i16 1801, i16* %53, align 2
  store i16 516, i16* %55, align 2
  store i16 1801, i16* %57, align 2
  call void @_ZN2v88internal27CallInterfaceDescriptorData15InitializeTypesEPKNS0_11MachineTypeEi(%"class.v8::internal::CallInterfaceDescriptorData"* getelementptr inbounds ([404 x %"class.v8::internal::CallInterfaceDescriptorData"], [404 x %"class.v8::internal::CallInterfaceDescriptorData"]* @_ZN2v88internal15CallDescriptors21call_descriptor_data_E, i64 0, i64 23), %"class.v8::internal::MachineType"* nonnull %50, i32 undef) #11
  call void @llvm.lifetime.end.p0i8(i64 8, i8* nonnull %49) #11
  store i32 1, i32* getelementptr inbounds ([404 x %"class.v8::internal::CallInterfaceDescriptorData"], [404 x %"class.v8::internal::CallInterfaceDescriptorData"]* @_ZN2v88internal15CallDescriptors21call_descriptor_data_E, i64 0, i64 24, i32 4), align 16
  store <4 x i32> <i32 4, i32 1, i32 4, i32 5>, <4 x i32>* bitcast (i32* getelementptr inbounds ([404 x %"class.v8::internal::CallInterfaceDescriptorData"], [404 x %"class.v8::internal::CallInterfaceDescriptorData"]* @_ZN2v88internal15CallDescriptors21call_descriptor_data_E, i64 0, i64 24, i32 0) to <4 x i32>*), align 16
  store %"class.v8::internal::Register"* bitcast ({ [5 x { i32 }] }* @_ZZN2v88internal29StaticCallInterfaceDescriptorINS0_33CallWithSpread_BaselineDescriptorEE10InitializeEPNS0_27CallInterfaceDescriptorDataEE9registers to %"class.v8::internal::Register"*), %"class.v8::internal::Register"** getelementptr inbounds ([404 x %"class.v8::internal::CallInterfaceDescriptorData"], [404 x %"class.v8::internal::CallInterfaceDescriptorData"]* @_ZN2v88internal15CallDescriptors21call_descriptor_data_E, i64 0, i64 24, i32 6), align 8
  call void @llvm.lifetime.start.p0i8(i64 10, i8* nonnull %38) #11
  store i16 1801, i16* %40, align 2
  store i16 1801, i16* %42, align 2
  store i16 516, i16* %44, align 2
  store i16 1801, i16* %46, align 2
  store i16 1285, i16* %48, align 2
  call void @_ZN2v88internal27CallInterfaceDescriptorData15InitializeTypesEPKNS0_11MachineTypeEi(%"class.v8::internal::CallInterfaceDescriptorData"* getelementptr inbounds ([404 x %"class.v8::internal::CallInterfaceDescriptorData"], [404 x %"class.v8::internal::CallInterfaceDescriptorData"]* @_ZN2v88internal15CallDescriptors21call_descriptor_data_E, i64 0, i64 24), %"class.v8::internal::MachineType"* nonnull %39, i32 undef) #11
  call void @llvm.lifetime.end.p0i8(i64 10, i8* nonnull %38) #11
  store i32 4, i32* getelementptr inbounds ([404 x %"class.v8::internal::CallInterfaceDescriptorData"], [404 x %"class.v8::internal::CallInterfaceDescriptorData"]* @_ZN2v88internal15CallDescriptors21call_descriptor_data_E, i64 0, i64 25, i32 3, i32 0), align 4
  store i32 1, i32* getelementptr inbounds ([404 x %"class.v8::internal::CallInterfaceDescriptorData"], [404 x %"class.v8::internal::CallInterfaceDescriptorData"]* @_ZN2v88internal15CallDescriptors21call_descriptor_data_E, i64 0, i64 25, i32 4), align 8
  store i32 1, i32* getelementptr inbounds ([404 x %"class.v8::internal::CallInterfaceDescriptorData"], [404 x %"class.v8::internal::CallInterfaceDescriptorData"]* @_ZN2v88internal15CallDescriptors21call_descriptor_data_E, i64 0, i64 25, i32 1), align 4
  store i32 6, i32* getelementptr inbounds ([404 x %"class.v8::internal::CallInterfaceDescriptorData"], [404 x %"class.v8::internal::CallInterfaceDescriptorData"]* @_ZN2v88internal15CallDescriptors21call_descriptor_data_E, i64 0, i64 25, i32 2), align 8
  store i32 5, i32* getelementptr inbounds ([404 x %"class.v8::internal::CallInterfaceDescriptorData"], [404 x %"class.v8::internal::CallInterfaceDescriptorData"]* @_ZN2v88internal15CallDescriptors21call_descriptor_data_E, i64 0, i64 25, i32 0), align 8
  store %"class.v8::internal::Register"* bitcast ({ [5 x { i32 }] }* @_ZZN2v88internal29StaticCallInterfaceDescriptorINS0_37CallWithSpread_WithFeedbackDescriptorEE10InitializeEPNS0_27CallInterfaceDescriptorDataEE9registers to %"class.v8::internal::Register"*), %"class.v8::internal::Register"** getelementptr inbounds ([404 x %"class.v8::internal::CallInterfaceDescriptorData"], [404 x %"class.v8::internal::CallInterfaceDescriptorData"]* @_ZN2v88internal15CallDescriptors21call_descriptor_data_E, i64 0, i64 25, i32 6), align 8
  %96 = getelementptr inbounds [7 x %"class.v8::internal::MachineType"], [7 x %"class.v8::internal::MachineType"]* %27, i64 0, i64 0, i32 0
  call void @llvm.lifetime.start.p0i8(i64 14, i8* nonnull %96) #11
  %97 = getelementptr inbounds [7 x %"class.v8::internal::MachineType"], [7 x %"class.v8::internal::MachineType"]* %27, i64 0, i64 0
  %98 = bitcast [7 x %"class.v8::internal::MachineType"]* %27 to i16*
  store i16 1801, i16* %98, align 2
  %99 = getelementptr inbounds [7 x %"class.v8::internal::MachineType"], [7 x %"class.v8::internal::MachineType"]* %27, i64 0, i64 1
  %100 = bitcast %"class.v8::internal::MachineType"* %99 to i16*
  store i16 1801, i16* %100, align 2
  %101 = getelementptr inbounds [7 x %"class.v8::internal::MachineType"], [7 x %"class.v8::internal::MachineType"]* %27, i64 0, i64 2
  %102 = bitcast %"class.v8::internal::MachineType"* %101 to i16*
  store i16 516, i16* %102, align 2
  %103 = getelementptr inbounds [7 x %"class.v8::internal::MachineType"], [7 x %"class.v8::internal::MachineType"]* %27, i64 0, i64 3
  %104 = bitcast %"class.v8::internal::MachineType"* %103 to i16*
  store i16 1801, i16* %104, align 2
  %105 = getelementptr inbounds [7 x %"class.v8::internal::MachineType"], [7 x %"class.v8::internal::MachineType"]* %27, i64 0, i64 4
  %106 = bitcast %"class.v8::internal::MachineType"* %105 to i16*
  store i16 1285, i16* %106, align 2
  %107 = getelementptr inbounds [7 x %"class.v8::internal::MachineType"], [7 x %"class.v8::internal::MachineType"]* %27, i64 0, i64 5
  %108 = bitcast %"class.v8::internal::MachineType"* %107 to i16*
  store i16 1801, i16* %108, align 2
  %109 = getelementptr inbounds [7 x %"class.v8::internal::MachineType"], [7 x %"class.v8::internal::MachineType"]* %27, i64 0, i64 6
  %110 = bitcast %"class.v8::internal::MachineType"* %109 to i16*
  store i16 1801, i16* %110, align 2
  call void @_ZN2v88internal27CallInterfaceDescriptorData15InitializeTypesEPKNS0_11MachineTypeEi(%"class.v8::internal::CallInterfaceDescriptorData"* getelementptr inbounds ([404 x %"class.v8::internal::CallInterfaceDescriptorData"], [404 x %"class.v8::internal::CallInterfaceDescriptorData"]* @_ZN2v88internal15CallDescriptors21call_descriptor_data_E, i64 0, i64 25), %"class.v8::internal::MachineType"* nonnull %97, i32 undef) #11
  call void @llvm.lifetime.end.p0i8(i64 14, i8* nonnull %96) #11
  store i32 0, i32* getelementptr inbounds ([404 x %"class.v8::internal::CallInterfaceDescriptorData"], [404 x %"class.v8::internal::CallInterfaceDescriptorData"]* @_ZN2v88internal15CallDescriptors21call_descriptor_data_E, i64 0, i64 26, i32 4), align 16
  store <4 x i32> <i32 2, i32 1, i32 6, i32 0>, <4 x i32>* bitcast (i32* getelementptr inbounds ([404 x %"class.v8::internal::CallInterfaceDescriptorData"], [404 x %"class.v8::internal::CallInterfaceDescriptorData"]* @_ZN2v88internal15CallDescriptors21call_descriptor_data_E, i64 0, i64 26, i32 0) to <4 x i32>*), align 16
  store %"class.v8::internal::Register"* bitcast ({ [2 x { i32 }] }* @_ZZN2v88internal29StaticCallInterfaceDescriptorINS0_28CEntry1ArgvOnStackDescriptorEE10InitializeEPNS0_27CallInterfaceDescriptorDataEE9registers to %"class.v8::internal::Register"*), %"class.v8::internal::Register"** getelementptr inbounds ([404 x %"class.v8::internal::CallInterfaceDescriptorData"], [404 x %"class.v8::internal::CallInterfaceDescriptorData"]* @_ZN2v88internal15CallDescriptors21call_descriptor_data_E, i64 0, i64 26, i32 6), align 8
  call void @llvm.lifetime.start.p0i8(i64 14, i8* nonnull %96) #11
  store i16 1801, i16* %98, align 2
  store i16 516, i16* %100, align 2
  store i16 5, i16* %102, align 2
  store i16 1801, i16* %104, align 2
  store i16 1801, i16* %106, align 2
  store i16 1801, i16* %108, align 2
  store i16 1801, i16* %110, align 2
  call void @_ZN2v88internal27CallInterfaceDescriptorData15InitializeTypesEPKNS0_11MachineTypeEi(%"class.v8::internal::CallInterfaceDescriptorData"* getelementptr inbounds ([404 x %"class.v8::internal::CallInterfaceDescriptorData"], [404 x %"class.v8::internal::CallInterfaceDescriptorData"]* @_ZN2v88internal15CallDescriptors21call_descriptor_data_E, i64 0, i64 26), %"class.v8::internal::MachineType"* nonnull %97, i32 undef) #11
  call void @llvm.lifetime.end.p0i8(i64 14, i8* nonnull %96) #11
  store i32 0, i32* getelementptr inbounds ([404 x %"class.v8::internal::CallInterfaceDescriptorData"], [404 x %"class.v8::internal::CallInterfaceDescriptorData"]* @_ZN2v88internal15CallDescriptors21call_descriptor_data_E, i64 0, i64 27, i32 4), align 8
  store <4 x i32> <i32 3, i32 1, i32 3, i32 1>, <4 x i32>* bitcast (i32* getelementptr inbounds ([404 x %"class.v8::internal::CallInterfaceDescriptorData"], [404 x %"class.v8::internal::CallInterfaceDescriptorData"]* @_ZN2v88internal15CallDescriptors21call_descriptor_data_E, i64 0, i64 27, i32 0) to <4 x i32>*), align 8
  store %"class.v8::internal::Register"* bitcast ({ [5 x { i32 }] }* @_ZZN2v88internal29StaticCallInterfaceDescriptorINS0_29CloneObjectBaselineDescriptorEE10InitializeEPNS0_27CallInterfaceDescriptorDataEE9registers to %"class.v8::internal::Register"*), %"class.v8::internal::Register"** getelementptr inbounds ([404 x %"class.v8::internal::CallInterfaceDescriptorData"], [404 x %"class.v8::internal::CallInterfaceDescriptorData"]* @_ZN2v88internal15CallDescriptors21call_descriptor_data_E, i64 0, i64 27, i32 6), align 8
  call void @llvm.lifetime.start.p0i8(i64 8, i8* nonnull %49) #11
  store i16 1801, i16* %51, align 2
  store i16 1801, i16* %53, align 2
  store i16 519, i16* %55, align 2
  store i16 519, i16* %57, align 2
  call void @_ZN2v88internal27CallInterfaceDescriptorData15InitializeTypesEPKNS0_11MachineTypeEi(%"class.v8::internal::CallInterfaceDescriptorData"* getelementptr inbounds ([404 x %"class.v8::internal::CallInterfaceDescriptorData"], [404 x %"class.v8::internal::CallInterfaceDescriptorData"]* @_ZN2v88internal15CallDescriptors21call_descriptor_data_E, i64 0, i64 27), %"class.v8::internal::MachineType"* nonnull %50, i32 undef) #11
  call void @llvm.lifetime.end.p0i8(i64 8, i8* nonnull %49) #11
  store i32 0, i32* getelementptr inbounds ([404 x %"class.v8::internal::CallInterfaceDescriptorData"], [404 x %"class.v8::internal::CallInterfaceDescriptorData"]* @_ZN2v88internal15CallDescriptors21call_descriptor_data_E, i64 0, i64 28, i32 4), align 16
  store <4 x i32> <i32 4, i32 1, i32 4, i32 0>, <4 x i32>* bitcast (i32* getelementptr inbounds ([404 x %"class.v8::internal::CallInterfaceDescriptorData"], [404 x %"class.v8::internal::CallInterfaceDescriptorData"]* @_ZN2v88internal15CallDescriptors21call_descriptor_data_E, i64 0, i64 28, i32 0) to <4 x i32>*), align 16
  store %"class.v8::internal::Register"* bitcast ({ [5 x { i32 }] }* @_ZZN2v88internal29StaticCallInterfaceDescriptorINS0_31CloneObjectWithVectorDescriptorEE10InitializeEPNS0_27CallInterfaceDescriptorDataEE9registers to %"class.v8::internal::Register"*), %"class.v8::internal::Register"** getelementptr inbounds ([404 x %"class.v8::internal::CallInterfaceDescriptorData"], [404 x %"class.v8::internal::CallInterfaceDescriptorData"]* @_ZN2v88internal15CallDescriptors21call_descriptor_data_E, i64 0, i64 28, i32 6), align 8
  call void @llvm.lifetime.start.p0i8(i64 10, i8* nonnull %38) #11
  store i16 1800, i16* %40, align 2
  store i16 1801, i16* %42, align 2
  store i16 519, i16* %44, align 2
  store i16 519, i16* %46, align 2
  store i16 1801, i16* %48, align 2
  call void @_ZN2v88internal27CallInterfaceDescriptorData15InitializeTypesEPKNS0_11MachineTypeEi(%"class.v8::internal::CallInterfaceDescriptorData"* getelementptr inbounds ([404 x %"class.v8::internal::CallInterfaceDescriptorData"], [404 x %"class.v8::internal::CallInterfaceDescriptorData"]* @_ZN2v88internal15CallDescriptors21call_descriptor_data_E, i64 0, i64 28), %"class.v8::internal::MachineType"* nonnull %39, i32 undef) #11
  call void @llvm.lifetime.end.p0i8(i64 10, i8* nonnull %38) #11
  store i32 0, i32* getelementptr inbounds ([404 x %"class.v8::internal::CallInterfaceDescriptorData"], [404 x %"class.v8::internal::CallInterfaceDescriptorData"]* @_ZN2v88internal15CallDescriptors21call_descriptor_data_E, i64 0, i64 29, i32 4), align 8
  store <4 x i32> <i32 2, i32 1, i32 2, i32 0>, <4 x i32>* bitcast (i32* getelementptr inbounds ([404 x %"class.v8::internal::CallInterfaceDescriptorData"], [404 x %"class.v8::internal::CallInterfaceDescriptorData"]* @_ZN2v88internal15CallDescriptors21call_descriptor_data_E, i64 0, i64 29, i32 0) to <4 x i32>*), align 8
  store %"class.v8::internal::Register"* bitcast ({ [2 x { i32 }] }* @_ZZN2v88internal29StaticCallInterfaceDescriptorINS0_17CompareDescriptorEE10InitializeEPNS0_27CallInterfaceDescriptorDataEE9registers to %"class.v8::internal::Register"*), %"class.v8::internal::Register"** getelementptr inbounds ([404 x %"class.v8::internal::CallInterfaceDescriptorData"], [404 x %"class.v8::internal::CallInterfaceDescriptorData"]* @_ZN2v88internal15CallDescriptors21call_descriptor_data_E, i64 0, i64 29, i32 6), align 8
  %111 = call noalias i8* @_ZnamRKSt9nothrow_t(i64 6, %"struct.std::nothrow_t"* dereferenceable(1) @_ZSt7nothrow) #10
  %112 = icmp eq i8* %111, null
  br i1 %112, label %113, label %122

113:                                              ; preds = %89
  %114 = call %"class.v8::Platform"* @_ZN2v88internal2V818GetCurrentPlatformEv() #11
  %115 = bitcast %"class.v8::Platform"* %114 to void (%"class.v8::Platform"*)***
  %116 = load void (%"class.v8::Platform"*)**, void (%"class.v8::Platform"*)*** %115, align 8
  %117 = getelementptr inbounds void (%"class.v8::Platform"*)*, void (%"class.v8::Platform"*)** %116, i64 3
  %118 = load void (%"class.v8::Platform"*)*, void (%"class.v8::Platform"*)** %117, align 8
  call void %118(%"class.v8::Platform"* %114) #11
  %119 = call noalias i8* @_ZnamRKSt9nothrow_t(i64 6, %"struct.std::nothrow_t"* dereferenceable(1) @_ZSt7nothrow) #10
  %120 = icmp eq i8* %119, null
  br i1 %120, label %121, label %122

121:                                              ; preds = %113
  call void @_ZN2v88internal23FatalProcessOutOfMemoryEPNS0_7IsolateEPKc(%"class.v8::internal::Isolate"* null, i8* getelementptr inbounds ([9 x i8], [9 x i8]* @.str.405, i64 0, i64 0)) #12
  unreachable

122:                                              ; preds = %89, %113
  %123 = phi i8* [ %119, %113 ], [ %111, %89 ]
  %124 = bitcast i8* %123 to i16*
  store i16 1801, i16* %124, align 1
  %125 = getelementptr inbounds i8, i8* %123, i64 2
  %126 = bitcast i8* %125 to i16*
  store i16 1801, i16* %126, align 1
  %127 = getelementptr inbounds i8, i8* %123, i64 4
  %128 = bitcast i8* %127 to i16*
  store i16 1801, i16* %128, align 1
  store i8* %123, i8** bitcast (%"class.v8::internal::MachineType"** getelementptr inbounds ([404 x %"class.v8::internal::CallInterfaceDescriptorData"], [404 x %"class.v8::internal::CallInterfaceDescriptorData"]* @_ZN2v88internal15CallDescriptors21call_descriptor_data_E, i64 0, i64 29, i32 7) to i8**), align 8
  store i32 0, i32* getelementptr inbounds ([404 x %"class.v8::internal::CallInterfaceDescriptorData"], [404 x %"class.v8::internal::CallInterfaceDescriptorData"]* @_ZN2v88internal15CallDescriptors21call_descriptor_data_E, i64 0, i64 30, i32 4), align 16
  store <4 x i32> <i32 3, i32 1, i32 3, i32 1>, <4 x i32>* bitcast (i32* getelementptr inbounds ([404 x %"class.v8::internal::CallInterfaceDescriptorData"], [404 x %"class.v8::internal::CallInterfaceDescriptorData"]* @_ZN2v88internal15CallDescriptors21call_descriptor_data_E, i64 0, i64 30, i32 0) to <4 x i32>*), align 16
  store %"class.v8::internal::Register"* bitcast ({ [3 x { i32 }] }* @_ZZN2v88internal29StaticCallInterfaceDescriptorINS0_26Compare_BaselineDescriptorEE10InitializeEPNS0_27CallInterfaceDescriptorDataEE9registers to %"class.v8::internal::Register"*), %"class.v8::internal::Register"** getelementptr inbounds ([404 x %"class.v8::internal::CallInterfaceDescriptorData"], [404 x %"class.v8::internal::CallInterfaceDescriptorData"]* @_ZN2v88internal15CallDescriptors21call_descriptor_data_E, i64 0, i64 30, i32 6), align 8
  call void @llvm.lifetime.start.p0i8(i64 8, i8* nonnull %49) #11
  store i16 1801, i16* %51, align 2
  store i16 1801, i16* %53, align 2
  store i16 1801, i16* %55, align 2
  store i16 1285, i16* %57, align 2
  call void @_ZN2v88internal27CallInterfaceDescriptorData15InitializeTypesEPKNS0_11MachineTypeEi(%"class.v8::internal::CallInterfaceDescriptorData"* getelementptr inbounds ([404 x %"class.v8::internal::CallInterfaceDescriptorData"], [404 x %"class.v8::internal::CallInterfaceDescriptorData"]* @_ZN2v88internal15CallDescriptors21call_descriptor_data_E, i64 0, i64 30), %"class.v8::internal::MachineType"* nonnull %50, i32 undef) #11
  call void @llvm.lifetime.end.p0i8(i64 8, i8* nonnull %49) #11
  store i32 0, i32* getelementptr inbounds ([404 x %"class.v8::internal::CallInterfaceDescriptorData"], [404 x %"class.v8::internal::CallInterfaceDescriptorData"]* @_ZN2v88internal15CallDescriptors21call_descriptor_data_E, i64 0, i64 31, i32 4), align 8
  store <4 x i32> <i32 4, i32 1, i32 4, i32 0>, <4 x i32>* bitcast (i32* getelementptr inbounds ([404 x %"class.v8::internal::CallInterfaceDescriptorData"], [404 x %"class.v8::internal::CallInterfaceDescriptorData"]* @_ZN2v88internal15CallDescriptors21call_descriptor_data_E, i64 0, i64 31, i32 0) to <4 x i32>*), align 8
