; ModuleID = '../../third_party/dawn/third_party/tint/src/intrinsic_table.cc'
source_filename = "../../third_party/dawn/third_party/tint/src/intrinsic_table.cc"
target datalayout = "e-m:e-i64:64-f80:128-n8:16:32:64-S128"
target triple = "x86_64-unknown-linux-gnu"

module asm ".symver exp, exp@GLIBC_2.2.5"
module asm ".symver exp2, exp2@GLIBC_2.2.5"
module asm ".symver exp2f, exp2f@GLIBC_2.2.5"
module asm ".symver expf, expf@GLIBC_2.2.5"
module asm ".symver lgamma, lgamma@GLIBC_2.2.5"
module asm ".symver lgammaf, lgammaf@GLIBC_2.2.5"
module asm ".symver lgammal, lgammal@GLIBC_2.2.5"
module asm ".symver log, log@GLIBC_2.2.5"
module asm ".symver log2, log2@GLIBC_2.2.5"
module asm ".symver log2f, log2f@GLIBC_2.2.5"
module asm ".symver logf, logf@GLIBC_2.2.5"
module asm ".symver pow, pow@GLIBC_2.2.5"
module asm ".symver powf, powf@GLIBC_2.2.5"

%"struct.tint::TypeInfo" = type { %"struct.tint::TypeInfo"*, i8* }
%"class.tint::(anonymous namespace)::Builder" = type { %"class.tint::(anonymous namespace)::Matcher" }
%"class.tint::(anonymous namespace)::Matcher" = type { i32 (...)** }
%"class.std::__1::vector.10" = type { %"class.std::__1::__vector_base.11" }
%"class.std::__1::__vector_base.11" = type { %"struct.tint::(anonymous namespace)::Impl::Parameter"*, %"struct.tint::(anonymous namespace)::Impl::Parameter"*, %"class.std::__1::__compressed_pair.12" }
%"struct.tint::(anonymous namespace)::Impl::Parameter" = type <{ %"class.tint::(anonymous namespace)::Builder"*, i32, [4 x i8] }>
%"class.std::__1::__compressed_pair.12" = type { %"struct.std::__1::__compressed_pair_elem.13" }
%"struct.std::__1::__compressed_pair_elem.13" = type { %"struct.tint::(anonymous namespace)::Impl::Parameter"* }
%"class.std::__1::unordered_map" = type { %"class.std::__1::__hash_table" }
%"class.std::__1::__hash_table" = type <{ %"class.std::__1::unique_ptr.17", %"class.std::__1::__compressed_pair.26", %"class.std::__1::__compressed_pair.31", %"class.std::__1::__compressed_pair.33", [4 x i8] }>
%"class.std::__1::unique_ptr.17" = type { %"class.std::__1::__compressed_pair.18" }
%"class.std::__1::__compressed_pair.18" = type { %"struct.std::__1::__compressed_pair_elem.19", %"struct.std::__1::__compressed_pair_elem.20" }
%"struct.std::__1::__compressed_pair_elem.19" = type { %"struct.std::__1::__hash_node_base"** }
%"struct.std::__1::__hash_node_base" = type { %"struct.std::__1::__hash_node_base"* }
%"struct.std::__1::__compressed_pair_elem.20" = type { %"class.std::__1::__bucket_list_deallocator" }
%"class.std::__1::__bucket_list_deallocator" = type { %"class.std::__1::__compressed_pair.21" }
%"class.std::__1::__compressed_pair.21" = type { %"struct.std::__1::__compressed_pair_elem.22" }
%"struct.std::__1::__compressed_pair_elem.22" = type { i64 }
%"class.std::__1::__compressed_pair.26" = type { %"struct.std::__1::__compressed_pair_elem.27" }
%"struct.std::__1::__compressed_pair_elem.27" = type { %"struct.std::__1::__hash_node_base" }
%"class.std::__1::__compressed_pair.31" = type { %"struct.std::__1::__compressed_pair_elem.22" }
%"class.std::__1::__compressed_pair.33" = type { %"struct.std::__1::__compressed_pair_elem.34" }
%"struct.std::__1::__compressed_pair_elem.34" = type { float }
%"class.std::__1::locale::id" = type <{ %"struct.std::__1::once_flag", i32, [4 x i8] }>
%"struct.std::__1::once_flag" = type { i64 }
%"struct.tint::(anonymous namespace)::Matcher::MatchState" = type { %"class.std::__1::unordered_map.287", %"class.std::__1::unordered_map.311" }
%"class.std::__1::unordered_map.287" = type { %"class.std::__1::__hash_table.288" }
%"class.std::__1::__hash_table.288" = type <{ %"class.std::__1::unique_ptr.289", %"class.std::__1::__compressed_pair.299", %"class.std::__1::__compressed_pair.304", %"class.std::__1::__compressed_pair.307", [4 x i8] }>
%"class.std::__1::unique_ptr.289" = type { %"class.std::__1::__compressed_pair.290" }
%"class.std::__1::__compressed_pair.290" = type { %"struct.std::__1::__compressed_pair_elem.291", %"struct.std::__1::__compressed_pair_elem.293" }
%"struct.std::__1::__compressed_pair_elem.291" = type { %"struct.std::__1::__hash_node_base.292"** }
%"struct.std::__1::__hash_node_base.292" = type { %"struct.std::__1::__hash_node_base.292"* }
%"struct.std::__1::__compressed_pair_elem.293" = type { %"class.std::__1::__bucket_list_deallocator.294" }
%"class.std::__1::__bucket_list_deallocator.294" = type { %"class.std::__1::__compressed_pair.295" }
%"class.std::__1::__compressed_pair.295" = type { %"struct.std::__1::__compressed_pair_elem.22" }
%"class.std::__1::__compressed_pair.299" = type { %"struct.std::__1::__compressed_pair_elem.300" }
%"struct.std::__1::__compressed_pair_elem.300" = type { %"struct.std::__1::__hash_node_base.292" }
%"class.std::__1::__compressed_pair.304" = type { %"struct.std::__1::__compressed_pair_elem.22" }
%"class.std::__1::__compressed_pair.307" = type { %"struct.std::__1::__compressed_pair_elem.34" }
%"class.std::__1::unordered_map.311" = type { %"class.std::__1::__hash_table.312" }
%"class.std::__1::__hash_table.312" = type <{ %"class.std::__1::unique_ptr.313", %"class.std::__1::__compressed_pair.323", %"class.std::__1::__compressed_pair.328", %"class.std::__1::__compressed_pair.334", [4 x i8] }>
%"class.std::__1::unique_ptr.313" = type { %"class.std::__1::__compressed_pair.314" }
%"class.std::__1::__compressed_pair.314" = type { %"struct.std::__1::__compressed_pair_elem.315", %"struct.std::__1::__compressed_pair_elem.317" }
%"struct.std::__1::__compressed_pair_elem.315" = type { %"struct.std::__1::__hash_node_base.316"** }
%"struct.std::__1::__hash_node_base.316" = type { %"struct.std::__1::__hash_node_base.316"* }
%"struct.std::__1::__compressed_pair_elem.317" = type { %"class.std::__1::__bucket_list_deallocator.318" }
%"class.std::__1::__bucket_list_deallocator.318" = type { %"class.std::__1::__compressed_pair.319" }
%"class.std::__1::__compressed_pair.319" = type { %"struct.std::__1::__compressed_pair_elem.22" }
%"class.std::__1::__compressed_pair.323" = type { %"struct.std::__1::__compressed_pair_elem.324" }
%"struct.std::__1::__compressed_pair_elem.324" = type { %"struct.std::__1::__hash_node_base.316" }
%"class.std::__1::__compressed_pair.328" = type { %"struct.std::__1::__compressed_pair_elem.22" }
%"class.std::__1::__compressed_pair.334" = type { %"struct.std::__1::__compressed_pair_elem.34" }
%"struct.tint::(anonymous namespace)::Builder::BuildState" = type { %"class.tint::sem::Manager"*, %"class.std::__1::unordered_map.287", %"class.std::__1::unordered_map.311" }
%"class.tint::sem::Manager" = type { %"class.std::__1::unordered_map.69", %"class.tint::BlockAllocator.97" }
%"class.std::__1::unordered_map.69" = type { %"class.std::__1::__hash_table.70" }
%"class.std::__1::__hash_table.70" = type <{ %"class.std::__1::unique_ptr.71", %"class.std::__1::__compressed_pair.81", %"class.std::__1::__compressed_pair.86", %"class.std::__1::__compressed_pair.91", [4 x i8] }>
%"class.std::__1::unique_ptr.71" = type { %"class.std::__1::__compressed_pair.72" }
%"class.std::__1::__compressed_pair.72" = type { %"struct.std::__1::__compressed_pair_elem.73", %"struct.std::__1::__compressed_pair_elem.75" }
%"struct.std::__1::__compressed_pair_elem.73" = type { %"struct.std::__1::__hash_node_base.74"** }
%"struct.std::__1::__hash_node_base.74" = type { %"struct.std::__1::__hash_node_base.74"* }
%"struct.std::__1::__compressed_pair_elem.75" = type { %"class.std::__1::__bucket_list_deallocator.76" }
%"class.std::__1::__bucket_list_deallocator.76" = type { %"class.std::__1::__compressed_pair.77" }
%"class.std::__1::__compressed_pair.77" = type { %"struct.std::__1::__compressed_pair_elem.22" }
%"class.std::__1::__compressed_pair.81" = type { %"struct.std::__1::__compressed_pair_elem.82" }
%"struct.std::__1::__compressed_pair_elem.82" = type { %"struct.std::__1::__hash_node_base.74" }
%"class.std::__1::__compressed_pair.86" = type { %"struct.std::__1::__compressed_pair_elem.22" }
%"class.std::__1::__compressed_pair.91" = type { %"struct.std::__1::__compressed_pair_elem.34" }
%"class.tint::BlockAllocator.97" = type { %"class.std::__1::vector.98" }
%"class.std::__1::vector.98" = type { %"class.std::__1::__vector_base.99" }
%"class.std::__1::__vector_base.99" = type { %"class.std::__1::unique_ptr.100"*, %"class.std::__1::unique_ptr.100"*, %"class.std::__1::__compressed_pair.107" }
%"class.std::__1::unique_ptr.100" = type { %"class.std::__1::__compressed_pair.101" }
%"class.std::__1::__compressed_pair.101" = type { %"struct.std::__1::__compressed_pair_elem.102" }
%"struct.std::__1::__compressed_pair_elem.102" = type { %"class.tint::sem::Type"* }
%"class.tint::sem::Type" = type { %"class.tint::Castable" }
%"class.tint::Castable" = type { %"class.tint::sem::Node" }
%"class.tint::sem::Node" = type { %"class.tint::Castable.103" }
%"class.tint::Castable.103" = type { %"class.tint::CastableBase" }
%"class.tint::CastableBase" = type { i32 (...)** }
%"class.std::__1::__compressed_pair.107" = type { %"struct.std::__1::__compressed_pair_elem.108" }
%"struct.std::__1::__compressed_pair_elem.108" = type { %"class.std::__1::unique_ptr.100"* }
%"struct.std::nothrow_t" = type { i8 }
%"class.tint::IntrinsicTable" = type { i32 (...)** }
%"class.tint::(anonymous namespace)::Impl" = type { %"class.tint::IntrinsicTable", %"class.tint::BlockAllocator", %struct.anon, %"class.std::__1::vector.8" }
%"class.tint::BlockAllocator" = type { %"class.std::__1::vector" }
%"class.std::__1::vector" = type { %"class.std::__1::__vector_base" }
%"class.std::__1::__vector_base" = type { %"class.std::__1::unique_ptr.4"*, %"class.std::__1::unique_ptr.4"*, %"class.std::__1::__compressed_pair.5" }
%"class.std::__1::unique_ptr.4" = type { %"class.std::__1::__compressed_pair.44" }
%"class.std::__1::__compressed_pair.44" = type { %"struct.std::__1::__compressed_pair_elem.45" }
%"struct.std::__1::__compressed_pair_elem.45" = type { %"class.tint::(anonymous namespace)::Matcher"* }
%"class.std::__1::__compressed_pair.5" = type { %"struct.std::__1::__compressed_pair_elem.6" }
%"struct.std::__1::__compressed_pair_elem.6" = type { %"class.std::__1::unique_ptr.4"* }
%struct.anon = type { %"class.tint::(anonymous namespace)::VoidBuilder", %"class.tint::(anonymous namespace)::BoolBuilder", %"class.tint::(anonymous namespace)::F32Builder", %"class.tint::(anonymous namespace)::I32Builder", %"class.tint::(anonymous namespace)::IU32Matcher", %"class.tint::(anonymous namespace)::FIU32Matcher", %"class.tint::(anonymous namespace)::ScalarMatcher", %"class.tint::(anonymous namespace)::U32Builder", %"class.tint::(anonymous namespace)::OpenTypeBuilder" }
%"class.tint::(anonymous namespace)::VoidBuilder" = type { %"class.tint::(anonymous namespace)::Builder" }
%"class.tint::(anonymous namespace)::BoolBuilder" = type { %"class.tint::(anonymous namespace)::Builder" }
%"class.tint::(anonymous namespace)::F32Builder" = type { %"class.tint::(anonymous namespace)::Builder" }
%"class.tint::(anonymous namespace)::I32Builder" = type { %"class.tint::(anonymous namespace)::Builder" }
%"class.tint::(anonymous namespace)::IU32Matcher" = type { %"class.tint::(anonymous namespace)::Matcher" }
%"class.tint::(anonymous namespace)::FIU32Matcher" = type { %"class.tint::(anonymous namespace)::Matcher" }
%"class.tint::(anonymous namespace)::ScalarMatcher" = type { %"class.tint::(anonymous namespace)::Matcher" }
%"class.tint::(anonymous namespace)::U32Builder" = type { %"class.tint::(anonymous namespace)::Builder" }
%"class.tint::(anonymous namespace)::OpenTypeBuilder" = type <{ %"class.tint::(anonymous namespace)::Builder", i32, [4 x i8] }>
%"class.std::__1::vector.8" = type { %"class.std::__1::__vector_base.9" }
%"class.std::__1::__vector_base.9" = type { %"struct.tint::(anonymous namespace)::Impl::Overload"*, %"struct.tint::(anonymous namespace)::Impl::Overload"*, %"class.std::__1::__compressed_pair.36" }
%"struct.tint::(anonymous namespace)::Impl::Overload" = type { i32, %"class.tint::(anonymous namespace)::Builder"*, %"class.std::__1::vector.10", %"class.std::__1::unordered_map" }
%"class.std::__1::__compressed_pair.36" = type { %"struct.std::__1::__compressed_pair_elem.37" }
%"struct.std::__1::__compressed_pair_elem.37" = type { %"struct.tint::(anonymous namespace)::Impl::Overload"* }
%"class.std::__1::unique_ptr.556" = type { %"class.std::__1::__compressed_pair.557" }
%"class.std::__1::__compressed_pair.557" = type { %"struct.std::__1::__compressed_pair_elem.558" }
%"struct.std::__1::__compressed_pair_elem.558" = type { %"class.tint::(anonymous namespace)::StorageTextureBuilder"* }
%"class.tint::(anonymous namespace)::StorageTextureBuilder" = type <{ %"class.tint::(anonymous namespace)::Builder", i32, %"union.tint::(anonymous namespace)::StorageTextureBuilder::Access", i8, [3 x i8], i32, i32, [4 x i8] }>
%"union.tint::(anonymous namespace)::StorageTextureBuilder::Access" = type { i32 }
%"class.tint::diag::List" = type { %"class.std::__1::vector.49", i64 }
%"class.std::__1::vector.49" = type { %"class.std::__1::__vector_base.50" }
%"class.std::__1::__vector_base.50" = type { %"class.tint::diag::Diagnostic"*, %"class.tint::diag::Diagnostic"*, %"class.std::__1::__compressed_pair.64" }
%"class.tint::diag::Diagnostic" = type { i32, %"class.tint::Source", %"class.std::__1::basic_string", i8* }
%"class.tint::Source" = type { %"class.tint::Source::Range", %"class.std::__1::basic_string", %"class.tint::Source::FileContent"* }
%"class.tint::Source::Range" = type { %"class.tint::Source::Location", %"class.tint::Source::Location" }
%"class.tint::Source::Location" = type { i64, i64 }
%"class.tint::Source::FileContent" = type { %"class.std::__1::basic_string", %"class.std::__1::vector.57" }
%"class.std::__1::vector.57" = type { %"class.std::__1::__vector_base.58" }
%"class.std::__1::__vector_base.58" = type { %"class.std::__1::basic_string"*, %"class.std::__1::basic_string"*, %"class.std::__1::__compressed_pair.59" }
%"class.std::__1::__compressed_pair.59" = type { %"struct.std::__1::__compressed_pair_elem.60" }
%"struct.std::__1::__compressed_pair_elem.60" = type { %"class.std::__1::basic_string"* }
%"class.std::__1::basic_string" = type { %"class.std::__1::__compressed_pair.51" }
%"class.std::__1::__compressed_pair.51" = type { %"struct.std::__1::__compressed_pair_elem.52" }
%"struct.std::__1::__compressed_pair_elem.52" = type { %"struct.std::__1::basic_string<char, std::__1::char_traits<char>, std::__1::allocator<char> >::__rep" }
%"struct.std::__1::basic_string<char, std::__1::char_traits<char>, std::__1::allocator<char> >::__rep" = type { %union.anon }
%union.anon = type { %"struct.std::__1::basic_string<char, std::__1::char_traits<char>, std::__1::allocator<char> >::__long" }
%"struct.std::__1::basic_string<char, std::__1::char_traits<char>, std::__1::allocator<char> >::__long" = type { i8*, i64, i64 }
%"class.std::__1::__compressed_pair.64" = type { %"struct.std::__1::__compressed_pair_elem.65" }
%"struct.std::__1::__compressed_pair_elem.65" = type { %"class.tint::diag::Diagnostic"* }
%"class.tint::InternalCompilerError" = type { i8*, i64, %"class.tint::diag::List"*, %"class.std::__1::basic_stringstream" }
%"class.std::__1::basic_stringstream" = type { %"class.std::__1::basic_iostream.base", %"class.std::__1::basic_stringbuf", %"class.std::__1::basic_ios.base" }
%"class.std::__1::basic_iostream.base" = type { %"class.std::__1::basic_istream.base", %"class.std::__1::basic_ostream.base" }
%"class.std::__1::basic_istream.base" = type { i32 (...)**, i64 }
%"class.std::__1::basic_ostream.base" = type { i32 (...)** }
%"class.std::__1::basic_stringbuf" = type <{ %"class.std::__1::basic_streambuf", %"class.std::__1::basic_string", i8*, i32, [4 x i8] }>
%"class.std::__1::basic_streambuf" = type { i32 (...)**, %"class.std::__1::locale", i8*, i8*, i8*, i8*, i8*, i8* }
%"class.std::__1::locale" = type { %"class.std::__1::locale::__imp"* }
%"class.std::__1::locale::__imp" = type opaque
%"class.std::__1::basic_ios.base" = type <{ %"class.std::__1::ios_base", %"class.std::__1::basic_ostream"*, i32 }>
%"class.std::__1::ios_base" = type { i32 (...)**, i32, i64, i64, i32, i32, i8*, i8*, void (i32, %"class.std::__1::ios_base"*, i32)**, i32*, i64, i64, i64*, i64, i64, i8**, i64, i64 }
%"class.std::__1::basic_ostream" = type { i32 (...)**, %"class.std::__1::basic_ios.base" }
%"class.std::__1::__vector_base_common" = type { i8 }
%"struct.tint::IntrinsicTable::Result" = type { %"class.tint::sem::Intrinsic"*, %"class.tint::diag::List" }
%"class.tint::sem::Intrinsic" = type <{ %"class.tint::Castable.278", i32, [4 x i8] }>
%"class.tint::Castable.278" = type { %"class.tint::sem::CallTarget" }
%"class.tint::sem::CallTarget" = type { %"class.tint::Castable.279", %"class.tint::sem::Type"*, %"class.std::__1::vector.280" }
%"class.tint::Castable.279" = type { %"class.tint::sem::Node" }
%"class.std::__1::vector.280" = type { %"class.std::__1::__vector_base.281" }
%"class.std::__1::__vector_base.281" = type { %"struct.tint::sem::Parameter"*, %"struct.tint::sem::Parameter"*, %"class.std::__1::__compressed_pair.282" }
%"struct.tint::sem::Parameter" = type <{ %"class.tint::sem::Type"*, i32, [4 x i8] }>
%"class.std::__1::__compressed_pair.282" = type { %"struct.std::__1::__compressed_pair_elem.283" }
%"struct.std::__1::__compressed_pair_elem.283" = type { %"struct.tint::sem::Parameter"* }
%"class.tint::ProgramBuilder" = type <{ i32 (...)**, %"class.tint::ProgramBuilder::TypesBuilder", %"class.tint::ProgramID", [4 x i8], %"class.tint::sem::Manager", %"class.tint::BlockAllocator.112", %"class.tint::BlockAllocator.128", %"class.tint::ast::Module"*, %"class.tint::sem::Info", %"class.tint::SymbolTable", %"class.tint::diag::List", %"class.tint::Source", i8, i8, [6 x i8] }>
%"class.tint::ProgramBuilder::TypesBuilder" = type { %"class.tint::ProgramBuilder"* }
%"class.tint::ProgramID" = type { i32 }
%"class.tint::BlockAllocator.112" = type { %"class.std::__1::vector.113" }
%"class.std::__1::vector.113" = type { %"class.std::__1::__vector_base.114" }
%"class.std::__1::__vector_base.114" = type { %"class.std::__1::unique_ptr.115"*, %"class.std::__1::unique_ptr.115"*, %"class.std::__1::__compressed_pair.123" }
%"class.std::__1::unique_ptr.115" = type { %"class.std::__1::__compressed_pair.116" }
%"class.std::__1::__compressed_pair.116" = type { %"struct.std::__1::__compressed_pair_elem.117" }
%"struct.std::__1::__compressed_pair_elem.117" = type { %"class.tint::ast::Node"* }
%"class.tint::ast::Node" = type { %"class.tint::Castable.118", %"class.tint::ProgramID", %"class.tint::Source" }
%"class.tint::Castable.118" = type { %"class.tint::Cloneable" }
%"class.tint::Cloneable" = type { %"class.tint::Castable.119" }
%"class.tint::Castable.119" = type { %"class.tint::CastableBase" }
%"class.std::__1::__compressed_pair.123" = type { %"struct.std::__1::__compressed_pair_elem.124" }
%"struct.std::__1::__compressed_pair_elem.124" = type { %"class.std::__1::unique_ptr.115"* }
%"class.tint::BlockAllocator.128" = type { %"class.std::__1::vector.129" }
%"class.std::__1::vector.129" = type { %"class.std::__1::__vector_base.130" }
%"class.std::__1::__vector_base.130" = type { %"class.std::__1::unique_ptr.131"*, %"class.std::__1::unique_ptr.131"*, %"class.std::__1::__compressed_pair.137" }
%"class.std::__1::unique_ptr.131" = type { %"class.std::__1::__compressed_pair.132" }
%"class.std::__1::__compressed_pair.132" = type { %"struct.std::__1::__compressed_pair_elem.133" }
%"struct.std::__1::__compressed_pair_elem.133" = type { %"class.tint::sem::Node"* }
%"class.std::__1::__compressed_pair.137" = type { %"struct.std::__1::__compressed_pair_elem.138" }
%"struct.std::__1::__compressed_pair_elem.138" = type { %"class.std::__1::unique_ptr.131"* }
%"class.tint::ast::Module" = type { %"class.tint::Castable.142", %"class.std::__1::vector.143", %"class.std::__1::vector.150", %"class.tint::ast::FunctionList", %"class.std::__1::vector.162" }
%"class.tint::Castable.142" = type { %"class.tint::ast::Node" }
%"class.std::__1::vector.143" = type { %"class.std::__1::__vector_base.144" }
%"class.std::__1::__vector_base.144" = type { %"class.tint::ast::Node"**, %"class.tint::ast::Node"**, %"class.std::__1::__compressed_pair.145" }
%"class.std::__1::__compressed_pair.145" = type { %"struct.std::__1::__compressed_pair_elem.146" }
%"struct.std::__1::__compressed_pair_elem.146" = type { %"class.tint::ast::Node"** }
%"class.std::__1::vector.150" = type { %"class.std::__1::__vector_base.151" }
%"class.std::__1::__vector_base.151" = type { %"class.tint::ast::NamedType"**, %"class.tint::ast::NamedType"**, %"class.std::__1::__compressed_pair.154" }
%"class.tint::ast::NamedType" = type { %"class.tint::Castable.152", %"class.tint::Symbol" }
%"class.tint::Castable.152" = type { %"class.tint::ast::Type" }
%"class.tint::ast::Type" = type { %"class.tint::Castable.153" }
%"class.tint::Castable.153" = type { %"class.tint::ast::Node" }
%"class.tint::Symbol" = type { i32, %"class.tint::ProgramID" }
%"class.std::__1::__compressed_pair.154" = type { %"struct.std::__1::__compressed_pair_elem.155" }
%"struct.std::__1::__compressed_pair_elem.155" = type { %"class.tint::ast::NamedType"** }
%"class.tint::ast::FunctionList" = type { %"class.std::__1::vector.159" }
%"class.std::__1::vector.159" = type { %"class.std::__1::__vector_base.160" }
%"class.std::__1::__vector_base.160" = type { %"class.tint::ast::Function"**, %"class.tint::ast::Function"**, %"class.std::__1::__compressed_pair.188" }
%"class.tint::ast::Function" = type { %"class.tint::Castable.161", %"class.tint::Symbol", %"class.std::__1::vector.162", %"class.tint::ast::Type"*, %"class.tint::ast::BlockStatement"*, %"class.std::__1::vector.166", %"class.std::__1::vector.166" }
%"class.tint::Castable.161" = type { %"class.tint::ast::Node" }
%"class.tint::ast::BlockStatement" = type { %"class.tint::Castable.179", %"class.std::__1::vector.181" }
%"class.tint::Castable.179" = type { %"class.tint::ast::Statement" }
%"class.tint::ast::Statement" = type { %"class.tint::Castable.180" }
%"class.tint::Castable.180" = type { %"class.tint::ast::Node" }
%"class.std::__1::vector.181" = type { %"class.std::__1::__vector_base.182" }
%"class.std::__1::__vector_base.182" = type { %"class.tint::ast::Statement"**, %"class.tint::ast::Statement"**, %"class.std::__1::__compressed_pair.183" }
%"class.std::__1::__compressed_pair.183" = type { %"struct.std::__1::__compressed_pair_elem.184" }
%"struct.std::__1::__compressed_pair_elem.184" = type { %"class.tint::ast::Statement"** }
%"class.std::__1::vector.166" = type { %"class.std::__1::__vector_base.167" }
%"class.std::__1::__vector_base.167" = type { %"class.tint::ast::Decoration"**, %"class.tint::ast::Decoration"**, %"class.std::__1::__compressed_pair.169" }
%"class.tint::ast::Decoration" = type { %"class.tint::Castable.168" }
%"class.tint::Castable.168" = type { %"class.tint::ast::Node" }
%"class.std::__1::__compressed_pair.169" = type { %"struct.std::__1::__compressed_pair_elem.170" }
%"struct.std::__1::__compressed_pair_elem.170" = type { %"class.tint::ast::Decoration"** }
%"class.std::__1::__compressed_pair.188" = type { %"struct.std::__1::__compressed_pair_elem.189" }
%"struct.std::__1::__compressed_pair_elem.189" = type { %"class.tint::ast::Function"** }
%"class.std::__1::vector.162" = type { %"class.std::__1::__vector_base.163" }
%"class.std::__1::__vector_base.163" = type { %"class.tint::ast::Variable"**, %"class.tint::ast::Variable"**, %"class.std::__1::__compressed_pair.174" }
%"class.tint::ast::Variable" = type <{ %"class.tint::Castable.164", %"class.tint::Symbol", %"class.tint::ast::Type"*, i8, [7 x i8], %"class.tint::ast::Expression"*, %"class.std::__1::vector.166", i32, [4 x i8] }>
%"class.tint::Castable.164" = type { %"class.tint::ast::Node" }
%"class.tint::ast::Expression" = type { %"class.tint::Castable.165" }
%"class.tint::Castable.165" = type { %"class.tint::ast::Node" }
%"class.std::__1::__compressed_pair.174" = type { %"struct.std::__1::__compressed_pair_elem.175" }
%"struct.std::__1::__compressed_pair_elem.175" = type { %"class.tint::ast::Variable"** }
%"class.tint::sem::Info" = type { %"class.std::__1::unordered_map.193" }
%"class.std::__1::unordered_map.193" = type { %"class.std::__1::__hash_table.194" }
%"class.std::__1::__hash_table.194" = type <{ %"class.std::__1::unique_ptr.195", %"class.std::__1::__compressed_pair.205", %"class.std::__1::__compressed_pair.210", %"class.std::__1::__compressed_pair.215", [4 x i8] }>
%"class.std::__1::unique_ptr.195" = type { %"class.std::__1::__compressed_pair.196" }
%"class.std::__1::__compressed_pair.196" = type { %"struct.std::__1::__compressed_pair_elem.197", %"struct.std::__1::__compressed_pair_elem.199" }
%"struct.std::__1::__compressed_pair_elem.197" = type { %"struct.std::__1::__hash_node_base.198"** }
%"struct.std::__1::__hash_node_base.198" = type { %"struct.std::__1::__hash_node_base.198"* }
%"struct.std::__1::__compressed_pair_elem.199" = type { %"class.std::__1::__bucket_list_deallocator.200" }
%"class.std::__1::__bucket_list_deallocator.200" = type { %"class.std::__1::__compressed_pair.201" }
%"class.std::__1::__compressed_pair.201" = type { %"struct.std::__1::__compressed_pair_elem.22" }
%"class.std::__1::__compressed_pair.205" = type { %"struct.std::__1::__compressed_pair_elem.206" }
%"struct.std::__1::__compressed_pair_elem.206" = type { %"struct.std::__1::__hash_node_base.198" }
%"class.std::__1::__compressed_pair.210" = type { %"struct.std::__1::__compressed_pair_elem.22" }
%"class.std::__1::__compressed_pair.215" = type { %"struct.std::__1::__compressed_pair_elem.34" }
%"class.tint::SymbolTable" = type { i32, [4 x i8], %"class.std::__1::unordered_map.221", %"class.std::__1::unordered_map.247", %"class.tint::ProgramID", [4 x i8] }
%"class.std::__1::unordered_map.221" = type { %"class.std::__1::__hash_table.222" }
%"class.std::__1::__hash_table.222" = type <{ %"class.std::__1::unique_ptr.223", %"class.std::__1::__compressed_pair.233", %"class.std::__1::__compressed_pair.238", %"class.std::__1::__compressed_pair.241", [4 x i8] }>
%"class.std::__1::unique_ptr.223" = type { %"class.std::__1::__compressed_pair.224" }
%"class.std::__1::__compressed_pair.224" = type { %"struct.std::__1::__compressed_pair_elem.225", %"struct.std::__1::__compressed_pair_elem.227" }
%"struct.std::__1::__compressed_pair_elem.225" = type { %"struct.std::__1::__hash_node_base.226"** }
%"struct.std::__1::__hash_node_base.226" = type { %"struct.std::__1::__hash_node_base.226"* }
%"struct.std::__1::__compressed_pair_elem.227" = type { %"class.std::__1::__bucket_list_deallocator.228" }
%"class.std::__1::__bucket_list_deallocator.228" = type { %"class.std::__1::__compressed_pair.229" }
%"class.std::__1::__compressed_pair.229" = type { %"struct.std::__1::__compressed_pair_elem.22" }
%"class.std::__1::__compressed_pair.233" = type { %"struct.std::__1::__compressed_pair_elem.234" }
%"struct.std::__1::__compressed_pair_elem.234" = type { %"struct.std::__1::__hash_node_base.226" }
%"class.std::__1::__compressed_pair.238" = type { %"struct.std::__1::__compressed_pair_elem.22" }
%"class.std::__1::__compressed_pair.241" = type { %"struct.std::__1::__compressed_pair_elem.34" }
%"class.std::__1::unordered_map.247" = type { %"class.std::__1::__hash_table.248" }
%"class.std::__1::__hash_table.248" = type <{ %"class.std::__1::unique_ptr.249", %"class.std::__1::__compressed_pair.259", %"class.std::__1::__compressed_pair.264", %"class.std::__1::__compressed_pair.267", [4 x i8] }>
%"class.std::__1::unique_ptr.249" = type { %"class.std::__1::__compressed_pair.250" }
%"class.std::__1::__compressed_pair.250" = type { %"struct.std::__1::__compressed_pair_elem.251", %"struct.std::__1::__compressed_pair_elem.253" }
%"struct.std::__1::__compressed_pair_elem.251" = type { %"struct.std::__1::__hash_node_base.252"** }
%"struct.std::__1::__hash_node_base.252" = type { %"struct.std::__1::__hash_node_base.252"* }
%"struct.std::__1::__compressed_pair_elem.253" = type { %"class.std::__1::__bucket_list_deallocator.254" }
%"class.std::__1::__bucket_list_deallocator.254" = type { %"class.std::__1::__compressed_pair.255" }
%"class.std::__1::__compressed_pair.255" = type { %"struct.std::__1::__compressed_pair_elem.22" }
%"class.std::__1::__compressed_pair.259" = type { %"struct.std::__1::__compressed_pair_elem.260" }
%"struct.std::__1::__compressed_pair_elem.260" = type { %"struct.std::__1::__hash_node_base.252" }
%"class.std::__1::__compressed_pair.264" = type { %"struct.std::__1::__compressed_pair_elem.22" }
%"class.std::__1::__compressed_pair.267" = type { %"struct.std::__1::__compressed_pair_elem.34" }
%"class.std::__1::vector.271" = type { %"class.std::__1::__vector_base.272" }
%"class.std::__1::__vector_base.272" = type { %"class.tint::sem::Type"**, %"class.tint::sem::Type"**, %"class.std::__1::__compressed_pair.273" }
%"class.std::__1::__compressed_pair.273" = type { %"struct.std::__1::__compressed_pair_elem.274" }
%"struct.std::__1::__compressed_pair_elem.274" = type { %"class.tint::sem::Type"** }
%class.anon = type { i8 }
%"class.std::__1::unique_ptr.596" = type { %"class.std::__1::__compressed_pair.597" }
%"class.std::__1::__compressed_pair.597" = type { %"struct.std::__1::__compressed_pair_elem.598" }
%"struct.std::__1::__compressed_pair_elem.598" = type { %"class.tint::sem::Intrinsic"* }
%"class.std::__1::vector.583" = type { %"class.std::__1::__vector_base.584" }
%"class.std::__1::__vector_base.584" = type { %struct.Candidate*, %struct.Candidate*, %"class.std::__1::__compressed_pair.585" }
%struct.Candidate = type { %"struct.tint::(anonymous namespace)::Impl::Overload"*, i32 }
%"class.std::__1::__compressed_pair.585" = type { %"struct.std::__1::__compressed_pair_elem.586" }
%"struct.std::__1::__compressed_pair_elem.586" = type { %struct.Candidate* }
%"struct.std::__1::basic_string<char, std::__1::char_traits<char>, std::__1::allocator<char> >::__short" = type { [23 x i8], %struct.anon.53 }
%struct.anon.53 = type { i8 }
%"struct.std::__1::__hash_node.487" = type { %"struct.std::__1::__hash_node_base", i64, %"struct.std::__1::__hash_value_type.488" }
%"struct.std::__1::__hash_value_type.488" = type { %"struct.std::__1::pair.489" }
%"struct.std::__1::pair.489" = type { i32, %"class.tint::(anonymous namespace)::Matcher"* }
%"struct.std::__1::__hash_node.390" = type { %"struct.std::__1::__hash_node_base.292", i64, %"struct.std::__1::__hash_value_type.389" }
%"struct.std::__1::__hash_value_type.389" = type { %"struct.std::__1::pair.388" }
%"struct.std::__1::pair.388" = type { i32, %"class.tint::sem::Type"* }
%"struct.std::__1::__hash_node.443" = type { %"struct.std::__1::__hash_node_base.316", i64, %"struct.std::__1::__hash_value_type.442" }
%"struct.std::__1::__hash_value_type.442" = type { %"struct.std::__1::pair.441" }
%"struct.std::__1::pair.441" = type { i32, i32 }
%"class.std::__1::locale::facet" = type { %"class.std::__1::__shared_count" }
%"class.std::__1::__shared_count" = type { i32 (...)**, i64 }
%"class.std::__1::ctype" = type <{ %"class.std::__1::locale::facet", i16*, i8, [7 x i8] }>
%"class.std::__1::basic_iostream" = type { %"class.std::__1::basic_istream.base", %"class.std::__1::basic_ostream.base", %"class.std::__1::basic_ios.base" }
%"class.std::__1::basic_ios" = type <{ %"class.std::__1::ios_base", %"class.std::__1::basic_ostream"*, i32, [4 x i8] }>
%"class.tint::sem::Void" = type { %"class.tint::Castable.340" }
%"class.tint::Castable.340" = type { %"class.tint::sem::Type" }
%"class.std::__1::__basic_string_common" = type { i8 }
%"class.std::__1::unique_ptr.344" = type { %"class.std::__1::__compressed_pair.345" }
%"class.std::__1::__compressed_pair.345" = type { %"struct.std::__1::__compressed_pair_elem.346" }
%"struct.std::__1::__compressed_pair_elem.346" = type { %"class.tint::sem::Void"* }
%"struct.std::__1::__murmur2_or_cityhash" = type { i8 }
%"class.tint::sem::Bool" = type { %"class.tint::Castable.358" }
%"class.tint::Castable.358" = type { %"class.tint::sem::Type" }
%"class.std::__1::unique_ptr.359" = type { %"class.std::__1::__compressed_pair.360" }
%"class.std::__1::__compressed_pair.360" = type { %"struct.std::__1::__compressed_pair_elem.361" }
%"struct.std::__1::__compressed_pair_elem.361" = type { %"class.tint::sem::Bool"* }
%"class.tint::sem::F32" = type { %"class.tint::Castable.365" }
%"class.tint::Castable.365" = type { %"class.tint::sem::Type" }
%"class.std::__1::unique_ptr.366" = type { %"class.std::__1::__compressed_pair.367" }
%"class.std::__1::__compressed_pair.367" = type { %"struct.std::__1::__compressed_pair_elem.368" }
%"struct.std::__1::__compressed_pair_elem.368" = type { %"class.tint::sem::F32"* }
%"class.tint::sem::I32" = type { %"class.tint::Castable.372" }
%"class.tint::Castable.372" = type { %"class.tint::sem::Type" }
%"class.std::__1::unique_ptr.373" = type { %"class.std::__1::__compressed_pair.374" }
%"class.std::__1::__compressed_pair.374" = type { %"struct.std::__1::__compressed_pair_elem.375" }
%"struct.std::__1::__compressed_pair_elem.375" = type { %"class.tint::sem::I32"* }
%"class.tint::sem::U32" = type { %"class.tint::Castable.379" }
%"class.tint::Castable.379" = type { %"class.tint::sem::Type" }
%"class.std::__1::unique_ptr.380" = type { %"class.std::__1::__compressed_pair.381" }
%"class.std::__1::__compressed_pair.381" = type { %"struct.std::__1::__compressed_pair_elem.382" }
%"struct.std::__1::__compressed_pair_elem.382" = type { %"class.tint::sem::U32"* }
%"class.tint::(anonymous namespace)::ArrayBuilder" = type { %"class.tint::(anonymous namespace)::Builder", %"class.tint::(anonymous namespace)::Builder"* }
%"class.tint::sem::Array" = type <{ %"class.tint::Castable.410", %"class.tint::sem::Type"*, i32, i32, i32, i32, i8, [7 x i8] }>
%"class.tint::Castable.410" = type { %"class.tint::sem::Type" }
%"class.std::__1::unique_ptr.411" = type { %"class.std::__1::__compressed_pair.412" }
%"class.std::__1::__compressed_pair.412" = type { %"struct.std::__1::__compressed_pair_elem.413" }
%"struct.std::__1::__compressed_pair_elem.413" = type { %"class.tint::sem::Array"* }
%"class.tint::(anonymous namespace)::VecBuilder" = type { %"class.tint::(anonymous namespace)::Builder", i32, %"class.tint::(anonymous namespace)::Builder"* }
%"class.tint::sem::Vector" = type <{ %"class.tint::Castable.426", %"class.tint::sem::Type"*, i32, [4 x i8] }>
%"class.tint::Castable.426" = type { %"class.tint::sem::Type" }
%"class.std::__1::unique_ptr.427" = type { %"class.std::__1::__compressed_pair.428" }
%"class.std::__1::__compressed_pair.428" = type { %"struct.std::__1::__compressed_pair_elem.429" }
%"struct.std::__1::__compressed_pair_elem.429" = type { %"class.tint::sem::Vector"* }
%"class.tint::(anonymous namespace)::OpenSizeVecBuilder" = type { %"class.tint::(anonymous namespace)::Builder", i32, %"class.tint::(anonymous namespace)::Builder"* }
%"class.tint::(anonymous namespace)::OpenSizeMatBuilder" = type { %"class.tint::(anonymous namespace)::Builder", i32, i32, %"class.tint::(anonymous namespace)::Builder"* }
%"class.tint::sem::Matrix" = type { %"class.tint::Castable.464", %"class.tint::sem::Type"*, %"class.tint::sem::Vector"*, i32, i32 }
%"class.tint::Castable.464" = type { %"class.tint::sem::Type" }
%"class.std::__1::unique_ptr.465" = type { %"class.std::__1::__compressed_pair.466" }
%"class.std::__1::__compressed_pair.466" = type { %"struct.std::__1::__compressed_pair_elem.467" }
%"struct.std::__1::__compressed_pair_elem.467" = type { %"class.tint::sem::Matrix"* }
%"class.tint::(anonymous namespace)::PtrBuilder" = type { %"class.tint::(anonymous namespace)::Builder", %"class.tint::(anonymous namespace)::Builder"* }
%"class.tint::sem::Pointer" = type <{ %"class.tint::Castable.477", %"class.tint::sem::Type"*, i32, [4 x i8] }>
%"class.tint::Castable.477" = type { %"class.tint::sem::Type" }
%"class.std::__1::unique_ptr.478" = type { %"class.std::__1::__compressed_pair.479" }
%"class.std::__1::__compressed_pair.479" = type { %"struct.std::__1::__compressed_pair_elem.480" }
%"struct.std::__1::__compressed_pair_elem.480" = type { %"class.tint::sem::Pointer"* }
%"class.tint::(anonymous namespace)::SampledTextureBuilder" = type { %"class.tint::(anonymous namespace)::Builder", i32, %"class.tint::(anonymous namespace)::Builder"* }
%"class.tint::sem::SampledTexture" = type { %"class.tint::Castable.base", %"class.tint::sem::Type"* }
%"class.tint::Castable.base" = type { %"class.tint::sem::Texture.base" }
%"class.tint::sem::Texture.base" = type <{ %"class.tint::Castable.507", i32 }>
%"class.tint::Castable.507" = type { %"class.tint::sem::Type" }
%"class.std::__1::basic_ostream<char, std::__1::char_traits<char> >::sentry" = type { i8, %"class.std::__1::basic_ostream"* }
%"class.std::__1::unique_ptr.508" = type { %"class.std::__1::__compressed_pair.509" }
%"class.std::__1::__compressed_pair.509" = type { %"struct.std::__1::__compressed_pair_elem.510" }
%"struct.std::__1::__compressed_pair_elem.510" = type { %"class.tint::sem::SampledTexture"* }
%"class.tint::(anonymous namespace)::MultisampledTextureBuilder" = type { %"class.tint::(anonymous namespace)::Builder", i32, %"class.tint::(anonymous namespace)::Builder"* }
%"class.tint::sem::MultisampledTexture" = type { %"class.tint::Castable.base.521", %"class.tint::sem::Type"* }
%"class.tint::Castable.base.521" = type { %"class.tint::sem::Texture.base" }
%"class.std::__1::unique_ptr.522" = type { %"class.std::__1::__compressed_pair.523" }
%"class.std::__1::__compressed_pair.523" = type { %"struct.std::__1::__compressed_pair_elem.524" }
%"struct.std::__1::__compressed_pair_elem.524" = type { %"class.tint::sem::MultisampledTexture"* }
%"class.tint::(anonymous namespace)::DepthTextureBuilder" = type <{ %"class.tint::(anonymous namespace)::Builder", i32, [4 x i8] }>
%"class.tint::sem::DepthTexture" = type { %"class.tint::Castable.base.535", [4 x i8] }
%"class.tint::Castable.base.535" = type { %"class.tint::sem::Texture.base" }
%"class.std::__1::unique_ptr.536" = type { %"class.std::__1::__compressed_pair.537" }
%"class.std::__1::__compressed_pair.537" = type { %"struct.std::__1::__compressed_pair_elem.538" }
%"struct.std::__1::__compressed_pair_elem.538" = type { %"class.tint::sem::DepthTexture"* }
%"class.tint::(anonymous namespace)::ExternalTextureBuilder" = type { %"class.tint::(anonymous namespace)::Builder" }
%"class.tint::sem::ExternalTexture" = type { %"class.tint::Castable.base.549", [4 x i8] }
%"class.tint::Castable.base.549" = type { %"class.tint::sem::Texture.base" }
%"class.std::__1::unique_ptr.550" = type { %"class.std::__1::__compressed_pair.551" }
%"class.std::__1::__compressed_pair.551" = type { %"struct.std::__1::__compressed_pair_elem.552" }
%"struct.std::__1::__compressed_pair_elem.552" = type { %"class.tint::sem::ExternalTexture"* }
%"class.tint::sem::StorageTexture" = type { %"class.tint::Castable.base.563", i32, i32, %"class.tint::sem::Type"* }
%"class.tint::Castable.base.563" = type { %"class.tint::sem::Texture.base" }
%"class.std::__1::unique_ptr.564" = type { %"class.std::__1::__compressed_pair.565" }
%"class.std::__1::__compressed_pair.565" = type { %"struct.std::__1::__compressed_pair_elem.566" }
%"struct.std::__1::__compressed_pair_elem.566" = type { %"class.tint::sem::StorageTexture"* }
%"class.tint::(anonymous namespace)::SamplerBuilder" = type <{ %"class.tint::(anonymous namespace)::Builder", i32, [4 x i8] }>
%"class.tint::sem::Sampler" = type <{ %"class.tint::Castable.576", i32, [4 x i8] }>
%"class.tint::Castable.576" = type { %"class.tint::sem::Type" }
%"class.std::__1::unique_ptr.577" = type { %"class.std::__1::__compressed_pair.578" }
%"class.std::__1::__compressed_pair.578" = type { %"struct.std::__1::__compressed_pair_elem.579" }
%"struct.std::__1::__compressed_pair_elem.579" = type { %"class.tint::sem::Sampler"* }

$_ZN4tint3sem7Manager3GetINS0_4VoidEJEEEPT_DpOT0_ = comdat any

$_ZNSt3__112__hash_tableINS_17__hash_value_typeINS_12basic_stringIcNS_11char_traitsIcEENS_9allocatorIcEEEEPN4tint3sem4TypeEEENS_22__unordered_map_hasherIS7_SC_NS_4hashIS7_EENS_8equal_toIS7_EELb1EEENS_21__unordered_map_equalIS7_SC_SH_SF_Lb1EEENS5_ISC_EEE4findIS7_EENS_15__hash_iteratorIPNS_11__hash_nodeISC_PvEEEERKT_ = comdat any

$_ZNSt3__121__murmur2_or_cityhashImLm64EEclEPKvm = comdat any

$_ZNSt3__121__murmur2_or_cityhashImLm64EE18__hash_len_0_to_16EPKcm = comdat any

$_ZNSt3__16vectorINS_10unique_ptrIN4tint3sem4TypeENS_14default_deleteIS4_EEEENS_9allocatorIS7_EEE24__emplace_back_slow_pathIJNS1_INS3_4VoidENS5_ISC_EEEEEEEvDpOT_ = comdat any

$_ZNSt3__112__hash_tableINS_17__hash_value_typeINS_12basic_stringIcNS_11char_traitsIcEENS_9allocatorIcEEEEPN4tint3sem4TypeEEENS_22__unordered_map_hasherIS7_SC_NS_4hashIS7_EENS_8equal_toIS7_EELb1EEENS_21__unordered_map_equalIS7_SC_SH_SF_Lb1EEENS5_ISC_EEE25__emplace_unique_key_argsIS7_JRS7_RPNS9_4VoidEEEENS_4pairINS_15__hash_iteratorIPNS_11__hash_nodeISC_PvEEEEbEERKT_DpOT0_ = comdat any

$_ZNSt3__112__hash_tableINS_17__hash_value_typeINS_12basic_stringIcNS_11char_traitsIcEENS_9allocatorIcEEEEPN4tint3sem4TypeEEENS_22__unordered_map_hasherIS7_SC_NS_4hashIS7_EENS_8equal_toIS7_EELb1EEENS_21__unordered_map_equalIS7_SC_SH_SF_Lb1EEENS5_ISC_EEE6rehashEm = comdat any

$_ZNSt3__112__hash_tableINS_17__hash_value_typeINS_12basic_stringIcNS_11char_traitsIcEENS_9allocatorIcEEEEPN4tint3sem4TypeEEENS_22__unordered_map_hasherIS7_SC_NS_4hashIS7_EENS_8equal_toIS7_EELb1EEENS_21__unordered_map_equalIS7_SC_SH_SF_Lb1EEENS5_ISC_EEE8__rehashEm = comdat any

$_ZN4tint3sem7Manager3GetINS0_4BoolEJEEEPT_DpOT0_ = comdat any

$_ZNSt3__16vectorINS_10unique_ptrIN4tint3sem4TypeENS_14default_deleteIS4_EEEENS_9allocatorIS7_EEE24__emplace_back_slow_pathIJNS1_INS3_4BoolENS5_ISC_EEEEEEEvDpOT_ = comdat any

$_ZNSt3__112__hash_tableINS_17__hash_value_typeINS_12basic_stringIcNS_11char_traitsIcEENS_9allocatorIcEEEEPN4tint3sem4TypeEEENS_22__unordered_map_hasherIS7_SC_NS_4hashIS7_EENS_8equal_toIS7_EELb1EEENS_21__unordered_map_equalIS7_SC_SH_SF_Lb1EEENS5_ISC_EEE25__emplace_unique_key_argsIS7_JRS7_RPNS9_4BoolEEEENS_4pairINS_15__hash_iteratorIPNS_11__hash_nodeISC_PvEEEEbEERKT_DpOT0_ = comdat any

$_ZN4tint3sem7Manager3GetINS0_3F32EJEEEPT_DpOT0_ = comdat any

$_ZNSt3__16vectorINS_10unique_ptrIN4tint3sem4TypeENS_14default_deleteIS4_EEEENS_9allocatorIS7_EEE24__emplace_back_slow_pathIJNS1_INS3_3F32ENS5_ISC_EEEEEEEvDpOT_ = comdat any

$_ZNSt3__112__hash_tableINS_17__hash_value_typeINS_12basic_stringIcNS_11char_traitsIcEENS_9allocatorIcEEEEPN4tint3sem4TypeEEENS_22__unordered_map_hasherIS7_SC_NS_4hashIS7_EENS_8equal_toIS7_EELb1EEENS_21__unordered_map_equalIS7_SC_SH_SF_Lb1EEENS5_ISC_EEE25__emplace_unique_key_argsIS7_JRS7_RPNS9_3F32EEEENS_4pairINS_15__hash_iteratorIPNS_11__hash_nodeISC_PvEEEEbEERKT_DpOT0_ = comdat any

$_ZN4tint3sem7Manager3GetINS0_3I32EJEEEPT_DpOT0_ = comdat any

$_ZNSt3__16vectorINS_10unique_ptrIN4tint3sem4TypeENS_14default_deleteIS4_EEEENS_9allocatorIS7_EEE24__emplace_back_slow_pathIJNS1_INS3_3I32ENS5_ISC_EEEEEEEvDpOT_ = comdat any

$_ZNSt3__112__hash_tableINS_17__hash_value_typeINS_12basic_stringIcNS_11char_traitsIcEENS_9allocatorIcEEEEPN4tint3sem4TypeEEENS_22__unordered_map_hasherIS7_SC_NS_4hashIS7_EENS_8equal_toIS7_EELb1EEENS_21__unordered_map_equalIS7_SC_SH_SF_Lb1EEENS5_ISC_EEE25__emplace_unique_key_argsIS7_JRS7_RPNS9_3I32EEEENS_4pairINS_15__hash_iteratorIPNS_11__hash_nodeISC_PvEEEEbEERKT_DpOT0_ = comdat any

$_ZN4tint3sem7Manager3GetINS0_3U32EJEEEPT_DpOT0_ = comdat any

$_ZNSt3__16vectorINS_10unique_ptrIN4tint3sem4TypeENS_14default_deleteIS4_EEEENS_9allocatorIS7_EEE24__emplace_back_slow_pathIJNS1_INS3_3U32ENS5_ISC_EEEEEEEvDpOT_ = comdat any

$_ZNSt3__112__hash_tableINS_17__hash_value_typeINS_12basic_stringIcNS_11char_traitsIcEENS_9allocatorIcEEEEPN4tint3sem4TypeEEENS_22__unordered_map_hasherIS7_SC_NS_4hashIS7_EENS_8equal_toIS7_EELb1EEENS_21__unordered_map_equalIS7_SC_SH_SF_Lb1EEENS5_ISC_EEE25__emplace_unique_key_argsIS7_JRS7_RPNS9_3U32EEEENS_4pairINS_15__hash_iteratorIPNS_11__hash_nodeISC_PvEEEEbEERKT_DpOT0_ = comdat any

$_ZN4tint3sem7Manager3GetINS0_5ArrayEJRPKNS0_4TypeEiiiibEEEPT_DpOT0_ = comdat any

$_ZNSt3__16vectorINS_10unique_ptrIN4tint3sem4TypeENS_14default_deleteIS4_EEEENS_9allocatorIS7_EEE24__emplace_back_slow_pathIJNS1_INS3_5ArrayENS5_ISC_EEEEEEEvDpOT_ = comdat any

$_ZNSt3__112__hash_tableINS_17__hash_value_typeINS_12basic_stringIcNS_11char_traitsIcEENS_9allocatorIcEEEEPN4tint3sem4TypeEEENS_22__unordered_map_hasherIS7_SC_NS_4hashIS7_EENS_8equal_toIS7_EELb1EEENS_21__unordered_map_equalIS7_SC_SH_SF_Lb1EEENS5_ISC_EEE25__emplace_unique_key_argsIS7_JRS7_RPNS9_5ArrayEEEENS_4pairINS_15__hash_iteratorIPNS_11__hash_nodeISC_PvEEEEbEERKT_DpOT0_ = comdat any

$_ZN4tint3sem7Manager3GetINS0_6VectorEJRPKNS0_4TypeERKjEEEPT_DpOT0_ = comdat any

$_ZNSt3__16vectorINS_10unique_ptrIN4tint3sem4TypeENS_14default_deleteIS4_EEEENS_9allocatorIS7_EEE24__emplace_back_slow_pathIJNS1_INS3_6VectorENS5_ISC_EEEEEEEvDpOT_ = comdat any

$_ZNSt3__112__hash_tableINS_17__hash_value_typeINS_12basic_stringIcNS_11char_traitsIcEENS_9allocatorIcEEEEPN4tint3sem4TypeEEENS_22__unordered_map_hasherIS7_SC_NS_4hashIS7_EENS_8equal_toIS7_EELb1EEENS_21__unordered_map_equalIS7_SC_SH_SF_Lb1EEENS5_ISC_EEE25__emplace_unique_key_argsIS7_JRS7_RPNS9_6VectorEEEENS_4pairINS_15__hash_iteratorIPNS_11__hash_nodeISC_PvEEEEbEERKT_DpOT0_ = comdat any

$_ZN4tint3sem7Manager3GetINS0_6VectorEJRPKNS0_4TypeERjEEEPT_DpOT0_ = comdat any

$_ZN4tint3sem7Manager3GetINS0_6VectorEJPNS0_4TypeERjEEEPT_DpOT0_ = comdat any

$_ZN4tint3sem7Manager3GetINS0_6MatrixEJRPNS0_6VectorERjEEEPT_DpOT0_ = comdat any

$_ZNSt3__16vectorINS_10unique_ptrIN4tint3sem4TypeENS_14default_deleteIS4_EEEENS_9allocatorIS7_EEE24__emplace_back_slow_pathIJNS1_INS3_6MatrixENS5_ISC_EEEEEEEvDpOT_ = comdat any

$_ZNSt3__112__hash_tableINS_17__hash_value_typeINS_12basic_stringIcNS_11char_traitsIcEENS_9allocatorIcEEEEPN4tint3sem4TypeEEENS_22__unordered_map_hasherIS7_SC_NS_4hashIS7_EENS_8equal_toIS7_EELb1EEENS_21__unordered_map_equalIS7_SC_SH_SF_Lb1EEENS5_ISC_EEE25__emplace_unique_key_argsIS7_JRS7_RPNS9_6MatrixEEEENS_4pairINS_15__hash_iteratorIPNS_11__hash_nodeISC_PvEEEEbEERKT_DpOT0_ = comdat any

$_ZN4tint3sem7Manager3GetINS0_7PointerEJPNS0_4TypeENS_3ast12StorageClassEEEEPT_DpOT0_ = comdat any

$_ZNSt3__16vectorINS_10unique_ptrIN4tint3sem4TypeENS_14default_deleteIS4_EEEENS_9allocatorIS7_EEE24__emplace_back_slow_pathIJNS1_INS3_7PointerENS5_ISC_EEEEEEEvDpOT_ = comdat any

$_ZNSt3__112__hash_tableINS_17__hash_value_typeINS_12basic_stringIcNS_11char_traitsIcEENS_9allocatorIcEEEEPN4tint3sem4TypeEEENS_22__unordered_map_hasherIS7_SC_NS_4hashIS7_EENS_8equal_toIS7_EELb1EEENS_21__unordered_map_equalIS7_SC_SH_SF_Lb1EEENS5_ISC_EEE25__emplace_unique_key_argsIS7_JRS7_RPNS9_7PointerEEEENS_4pairINS_15__hash_iteratorIPNS_11__hash_nodeISC_PvEEEEbEERKT_DpOT0_ = comdat any

$_ZNSt3__124__put_character_sequenceIcNS_11char_traitsIcEEEERNS_13basic_ostreamIT_T0_EES7_PKS4_m = comdat any

$_ZNSt3__116__pad_and_outputIcNS_11char_traitsIcEEEENS_19ostreambuf_iteratorIT_T0_EES6_PKS4_S8_S8_RNS_8ios_baseES4_ = comdat any

$_ZN4tint3sem7Manager3GetINS0_14SampledTextureEJRKNS_3ast16TextureDimensionERPKNS0_4TypeEEEEPT_DpOT0_ = comdat any

$_ZNSt3__16vectorINS_10unique_ptrIN4tint3sem4TypeENS_14default_deleteIS4_EEEENS_9allocatorIS7_EEE24__emplace_back_slow_pathIJNS1_INS3_14SampledTextureENS5_ISC_EEEEEEEvDpOT_ = comdat any

$_ZNSt3__112__hash_tableINS_17__hash_value_typeINS_12basic_stringIcNS_11char_traitsIcEENS_9allocatorIcEEEEPN4tint3sem4TypeEEENS_22__unordered_map_hasherIS7_SC_NS_4hashIS7_EENS_8equal_toIS7_EELb1EEENS_21__unordered_map_equalIS7_SC_SH_SF_Lb1EEENS5_ISC_EEE25__emplace_unique_key_argsIS7_JRS7_RPNS9_14SampledTextureEEEENS_4pairINS_15__hash_iteratorIPNS_11__hash_nodeISC_PvEEEEbEERKT_DpOT0_ = comdat any

$_ZN4tint3sem7Manager3GetINS0_19MultisampledTextureEJRKNS_3ast16TextureDimensionERPKNS0_4TypeEEEEPT_DpOT0_ = comdat any

$_ZNSt3__16vectorINS_10unique_ptrIN4tint3sem4TypeENS_14default_deleteIS4_EEEENS_9allocatorIS7_EEE24__emplace_back_slow_pathIJNS1_INS3_19MultisampledTextureENS5_ISC_EEEEEEEvDpOT_ = comdat any

$_ZNSt3__112__hash_tableINS_17__hash_value_typeINS_12basic_stringIcNS_11char_traitsIcEENS_9allocatorIcEEEEPN4tint3sem4TypeEEENS_22__unordered_map_hasherIS7_SC_NS_4hashIS7_EENS_8equal_toIS7_EELb1EEENS_21__unordered_map_equalIS7_SC_SH_SF_Lb1EEENS5_ISC_EEE25__emplace_unique_key_argsIS7_JRS7_RPNS9_19MultisampledTextureEEEENS_4pairINS_15__hash_iteratorIPNS_11__hash_nodeISC_PvEEEEbEERKT_DpOT0_ = comdat any

$_ZN4tint3sem7Manager3GetINS0_12DepthTextureEJRKNS_3ast16TextureDimensionEEEEPT_DpOT0_ = comdat any

$_ZNSt3__16vectorINS_10unique_ptrIN4tint3sem4TypeENS_14default_deleteIS4_EEEENS_9allocatorIS7_EEE24__emplace_back_slow_pathIJNS1_INS3_12DepthTextureENS5_ISC_EEEEEEEvDpOT_ = comdat any

$_ZNSt3__112__hash_tableINS_17__hash_value_typeINS_12basic_stringIcNS_11char_traitsIcEENS_9allocatorIcEEEEPN4tint3sem4TypeEEENS_22__unordered_map_hasherIS7_SC_NS_4hashIS7_EENS_8equal_toIS7_EELb1EEENS_21__unordered_map_equalIS7_SC_SH_SF_Lb1EEENS5_ISC_EEE25__emplace_unique_key_argsIS7_JRS7_RPNS9_12DepthTextureEEEENS_4pairINS_15__hash_iteratorIPNS_11__hash_nodeISC_PvEEEEbEERKT_DpOT0_ = comdat any

$_ZN4tint3sem7Manager3GetINS0_15ExternalTextureEJEEEPT_DpOT0_ = comdat any

$_ZNSt3__16vectorINS_10unique_ptrIN4tint3sem4TypeENS_14default_deleteIS4_EEEENS_9allocatorIS7_EEE24__emplace_back_slow_pathIJNS1_INS3_15ExternalTextureENS5_ISC_EEEEEEEvDpOT_ = comdat any

$_ZNSt3__112__hash_tableINS_17__hash_value_typeINS_12basic_stringIcNS_11char_traitsIcEENS_9allocatorIcEEEEPN4tint3sem4TypeEEENS_22__unordered_map_hasherIS7_SC_NS_4hashIS7_EENS_8equal_toIS7_EELb1EEENS_21__unordered_map_equalIS7_SC_SH_SF_Lb1EEENS5_ISC_EEE25__emplace_unique_key_argsIS7_JRS7_RPNS9_15ExternalTextureEEEENS_4pairINS_15__hash_iteratorIPNS_11__hash_nodeISC_PvEEEEbEERKT_DpOT0_ = comdat any

$_ZN4tint3sem7Manager3GetINS0_14StorageTextureEJRKNS_3ast16TextureDimensionERNS4_11ImageFormatERNS4_13AccessControl6AccessEPNS0_4TypeEEEEPT_DpOT0_ = comdat any

$_ZNSt3__16vectorINS_10unique_ptrIN4tint3sem4TypeENS_14default_deleteIS4_EEEENS_9allocatorIS7_EEE24__emplace_back_slow_pathIJNS1_INS3_14StorageTextureENS5_ISC_EEEEEEEvDpOT_ = comdat any

$_ZNSt3__112__hash_tableINS_17__hash_value_typeINS_12basic_stringIcNS_11char_traitsIcEENS_9allocatorIcEEEEPN4tint3sem4TypeEEENS_22__unordered_map_hasherIS7_SC_NS_4hashIS7_EENS_8equal_toIS7_EELb1EEENS_21__unordered_map_equalIS7_SC_SH_SF_Lb1EEENS5_ISC_EEE25__emplace_unique_key_argsIS7_JRS7_RPNS9_14StorageTextureEEEENS_4pairINS_15__hash_iteratorIPNS_11__hash_nodeISC_PvEEEEbEERKT_DpOT0_ = comdat any

$_ZN4tint3sem7Manager3GetINS0_7SamplerEJRKNS_3ast11SamplerKindEEEEPT_DpOT0_ = comdat any

$_ZNSt3__16vectorINS_10unique_ptrIN4tint3sem4TypeENS_14default_deleteIS4_EEEENS_9allocatorIS7_EEE24__emplace_back_slow_pathIJNS1_INS3_7SamplerENS5_ISC_EEEEEEEvDpOT_ = comdat any

$_ZNSt3__112__hash_tableINS_17__hash_value_typeINS_12basic_stringIcNS_11char_traitsIcEENS_9allocatorIcEEEEPN4tint3sem4TypeEEENS_22__unordered_map_hasherIS7_SC_NS_4hashIS7_EENS_8equal_toIS7_EELb1EEENS_21__unordered_map_equalIS7_SC_SH_SF_Lb1EEENS5_ISC_EEE25__emplace_unique_key_argsIS7_JRS7_RPNS9_7SamplerEEEENS_4pairINS_15__hash_iteratorIPNS_11__hash_nodeISC_PvEEEEbEERKT_DpOT0_ = comdat any

$_ZN4tint4diag4List9add_errorENSt3__112basic_stringIcNS2_11char_traitsIcEENS2_9allocatorIcEEEERKNS_6SourceE = comdat any

$_ZNSt3__16vectorINS_10unique_ptrIN4tint3sem4NodeENS_14default_deleteIS4_EEEENS_9allocatorIS7_EEE24__emplace_back_slow_pathIJNS1_INS3_9IntrinsicENS5_ISC_EEEEEEEvDpOT_ = comdat any

$_ZNSt3__16vectorIN4tint4diag10DiagnosticENS_9allocatorIS3_EEE24__emplace_back_slow_pathIJS3_EEEvDpOT_ = comdat any

@_ZTVN4tint14IntrinsicTableE = hidden unnamed_addr constant { [5 x i8*] } { [5 x i8*] [i8* null, i8* null, i8* bitcast (void (%"class.tint::IntrinsicTable"*)* @_ZN4tint14IntrinsicTableD2Ev to i8*), i8* bitcast (void (%"class.tint::IntrinsicTable"*)* @_ZN4tint14IntrinsicTableD0Ev to i8*), i8* bitcast (void ()* @__cxa_pure_virtual to i8*)] }, align 8
@_ZTVN4tint12_GLOBAL__N_14ImplE = internal unnamed_addr constant { [5 x i8*] } { [5 x i8*] [i8* null, i8* null, i8* bitcast (void (%"class.tint::(anonymous namespace)::Impl"*)* @_ZN4tint12_GLOBAL__N_14ImplD2Ev to i8*), i8* bitcast (void (%"class.tint::(anonymous namespace)::Impl"*)* @_ZN4tint12_GLOBAL__N_14ImplD0Ev to i8*), i8* bitcast (void (%"struct.tint::IntrinsicTable::Result"*, %"class.tint::(anonymous namespace)::Impl"*, %"class.tint::ProgramBuilder"*, i32, %"class.std::__1::vector.271"*, %"class.tint::Source"*)* @_ZNK4tint12_GLOBAL__N_14Impl6LookupERNS_14ProgramBuilderENS_3sem13IntrinsicTypeERKNSt3__16vectorIPKNS4_4TypeENS6_9allocatorISA_EEEERKNS_6SourceE to i8*)] }, align 8
@.str = private unnamed_addr constant [63 x i8] c"../../third_party/dawn/third_party/tint/src/intrinsic_table.cc\00", align 1
@.str.1 = private unnamed_addr constant [13 x i8] c"TINT_ASSERT(\00", align 1
@.str.2 = private unnamed_addr constant [44 x i8] c"overloads_.size() <= overloads_reserve_size\00", align 1
@.str.3 = private unnamed_addr constant [2 x i8] c")\00", align 1
@_ZTVN4tint12_GLOBAL__N_111VoidBuilderE = internal unnamed_addr constant { [8 x i8*] } { [8 x i8*] [i8* null, i8* null, i8* bitcast (void (%"class.tint::(anonymous namespace)::Matcher"*)* @_ZN4tint12_GLOBAL__N_17MatcherD2Ev to i8*), i8* bitcast (void (%"class.tint::(anonymous namespace)::VoidBuilder"*)* @_ZN4tint12_GLOBAL__N_111VoidBuilderD0Ev to i8*), i8* bitcast (i1 (%"class.tint::(anonymous namespace)::VoidBuilder"*, %"struct.tint::(anonymous namespace)::Matcher::MatchState"*, %"class.tint::sem::Type"*)* @_ZNK4tint12_GLOBAL__N_111VoidBuilder5MatchERNS0_7Matcher10MatchStateEPKNS_3sem4TypeE to i8*), i8* bitcast (i1 (%"class.tint::(anonymous namespace)::Matcher"*)* @_ZNK4tint12_GLOBAL__N_17Matcher14ExpectsPointerEv to i8*), i8* bitcast (void (%"class.std::__1::basic_string"*, %"class.tint::(anonymous namespace)::VoidBuilder"*)* @_ZNK4tint12_GLOBAL__N_111VoidBuilder3strEv to i8*), i8* bitcast (%"class.tint::sem::Type"* (%"class.tint::(anonymous namespace)::VoidBuilder"*, %"struct.tint::(anonymous namespace)::Builder::BuildState"*)* @_ZNK4tint12_GLOBAL__N_111VoidBuilder5BuildERNS0_7Builder10BuildStateE to i8*)] }, align 8
@_ZN4tint6detail10TypeInfoOfINS_3sem4VoidEE4infoE = external global %"struct.tint::TypeInfo", align 8
@_ZTVN4tint12_GLOBAL__N_111BoolBuilderE = internal unnamed_addr constant { [8 x i8*] } { [8 x i8*] [i8* null, i8* null, i8* bitcast (void (%"class.tint::(anonymous namespace)::Matcher"*)* @_ZN4tint12_GLOBAL__N_17MatcherD2Ev to i8*), i8* bitcast (void (%"class.tint::(anonymous namespace)::BoolBuilder"*)* @_ZN4tint12_GLOBAL__N_111BoolBuilderD0Ev to i8*), i8* bitcast (i1 (%"class.tint::(anonymous namespace)::BoolBuilder"*, %"struct.tint::(anonymous namespace)::Matcher::MatchState"*, %"class.tint::sem::Type"*)* @_ZNK4tint12_GLOBAL__N_111BoolBuilder5MatchERNS0_7Matcher10MatchStateEPKNS_3sem4TypeE to i8*), i8* bitcast (i1 (%"class.tint::(anonymous namespace)::Matcher"*)* @_ZNK4tint12_GLOBAL__N_17Matcher14ExpectsPointerEv to i8*), i8* bitcast (void (%"class.std::__1::basic_string"*, %"class.tint::(anonymous namespace)::BoolBuilder"*)* @_ZNK4tint12_GLOBAL__N_111BoolBuilder3strEv to i8*), i8* bitcast (%"class.tint::sem::Type"* (%"class.tint::(anonymous namespace)::BoolBuilder"*, %"struct.tint::(anonymous namespace)::Builder::BuildState"*)* @_ZNK4tint12_GLOBAL__N_111BoolBuilder5BuildERNS0_7Builder10BuildStateE to i8*)] }, align 8
@_ZN4tint6detail10TypeInfoOfINS_3sem4BoolEE4infoE = external global %"struct.tint::TypeInfo", align 8
@_ZTVN4tint12_GLOBAL__N_110F32BuilderE = internal unnamed_addr constant { [8 x i8*] } { [8 x i8*] [i8* null, i8* null, i8* bitcast (void (%"class.tint::(anonymous namespace)::Matcher"*)* @_ZN4tint12_GLOBAL__N_17MatcherD2Ev to i8*), i8* bitcast (void (%"class.tint::(anonymous namespace)::F32Builder"*)* @_ZN4tint12_GLOBAL__N_110F32BuilderD0Ev to i8*), i8* bitcast (i1 (%"class.tint::(anonymous namespace)::F32Builder"*, %"struct.tint::(anonymous namespace)::Matcher::MatchState"*, %"class.tint::sem::Type"*)* @_ZNK4tint12_GLOBAL__N_110F32Builder5MatchERNS0_7Matcher10MatchStateEPKNS_3sem4TypeE to i8*), i8* bitcast (i1 (%"class.tint::(anonymous namespace)::Matcher"*)* @_ZNK4tint12_GLOBAL__N_17Matcher14ExpectsPointerEv to i8*), i8* bitcast (void (%"class.std::__1::basic_string"*, %"class.tint::(anonymous namespace)::F32Builder"*)* @_ZNK4tint12_GLOBAL__N_110F32Builder3strEv to i8*), i8* bitcast (%"class.tint::sem::Type"* (%"class.tint::(anonymous namespace)::F32Builder"*, %"struct.tint::(anonymous namespace)::Builder::BuildState"*)* @_ZNK4tint12_GLOBAL__N_110F32Builder5BuildERNS0_7Builder10BuildStateE to i8*)] }, align 8
@_ZN4tint6detail10TypeInfoOfINS_3sem3F32EE4infoE = external global %"struct.tint::TypeInfo", align 8
@.str.7 = private unnamed_addr constant [4 x i8] c"f32\00", align 1
@_ZTVN4tint12_GLOBAL__N_110I32BuilderE = internal unnamed_addr constant { [8 x i8*] } { [8 x i8*] [i8* null, i8* null, i8* bitcast (void (%"class.tint::(anonymous namespace)::Matcher"*)* @_ZN4tint12_GLOBAL__N_17MatcherD2Ev to i8*), i8* bitcast (void (%"class.tint::(anonymous namespace)::I32Builder"*)* @_ZN4tint12_GLOBAL__N_110I32BuilderD0Ev to i8*), i8* bitcast (i1 (%"class.tint::(anonymous namespace)::I32Builder"*, %"struct.tint::(anonymous namespace)::Matcher::MatchState"*, %"class.tint::sem::Type"*)* @_ZNK4tint12_GLOBAL__N_110I32Builder5MatchERNS0_7Matcher10MatchStateEPKNS_3sem4TypeE to i8*), i8* bitcast (i1 (%"class.tint::(anonymous namespace)::Matcher"*)* @_ZNK4tint12_GLOBAL__N_17Matcher14ExpectsPointerEv to i8*), i8* bitcast (void (%"class.std::__1::basic_string"*, %"class.tint::(anonymous namespace)::I32Builder"*)* @_ZNK4tint12_GLOBAL__N_110I32Builder3strEv to i8*), i8* bitcast (%"class.tint::sem::Type"* (%"class.tint::(anonymous namespace)::I32Builder"*, %"struct.tint::(anonymous namespace)::Builder::BuildState"*)* @_ZNK4tint12_GLOBAL__N_110I32Builder5BuildERNS0_7Builder10BuildStateE to i8*)] }, align 8
@_ZN4tint6detail10TypeInfoOfINS_3sem3I32EE4infoE = external global %"struct.tint::TypeInfo", align 8
@.str.8 = private unnamed_addr constant [4 x i8] c"i32\00", align 1
@_ZTVN4tint12_GLOBAL__N_111IU32MatcherE = internal unnamed_addr constant { [7 x i8*] } { [7 x i8*] [i8* null, i8* null, i8* bitcast (void (%"class.tint::(anonymous namespace)::Matcher"*)* @_ZN4tint12_GLOBAL__N_17MatcherD2Ev to i8*), i8* bitcast (void (%"class.tint::(anonymous namespace)::IU32Matcher"*)* @_ZN4tint12_GLOBAL__N_111IU32MatcherD0Ev to i8*), i8* bitcast (i1 (%"class.tint::(anonymous namespace)::IU32Matcher"*, %"struct.tint::(anonymous namespace)::Matcher::MatchState"*, %"class.tint::sem::Type"*)* @_ZNK4tint12_GLOBAL__N_111IU32Matcher5MatchERNS0_7Matcher10MatchStateEPKNS_3sem4TypeE to i8*), i8* bitcast (i1 (%"class.tint::(anonymous namespace)::Matcher"*)* @_ZNK4tint12_GLOBAL__N_17Matcher14ExpectsPointerEv to i8*), i8* bitcast (void (%"class.std::__1::basic_string"*, %"class.tint::(anonymous namespace)::IU32Matcher"*)* @_ZNK4tint12_GLOBAL__N_111IU32Matcher3strEv to i8*)] }, align 8
@_ZN4tint6detail10TypeInfoOfINS_3sem3U32EE4infoE = external global %"struct.tint::TypeInfo", align 8
@.str.9 = private unnamed_addr constant [11 x i8] c"i32 or u32\00", align 1
@_ZTVN4tint12_GLOBAL__N_112FIU32MatcherE = internal unnamed_addr constant { [7 x i8*] } { [7 x i8*] [i8* null, i8* null, i8* bitcast (void (%"class.tint::(anonymous namespace)::Matcher"*)* @_ZN4tint12_GLOBAL__N_17MatcherD2Ev to i8*), i8* bitcast (void (%"class.tint::(anonymous namespace)::FIU32Matcher"*)* @_ZN4tint12_GLOBAL__N_112FIU32MatcherD0Ev to i8*), i8* bitcast (i1 (%"class.tint::(anonymous namespace)::FIU32Matcher"*, %"struct.tint::(anonymous namespace)::Matcher::MatchState"*, %"class.tint::sem::Type"*)* @_ZNK4tint12_GLOBAL__N_112FIU32Matcher5MatchERNS0_7Matcher10MatchStateEPKNS_3sem4TypeE to i8*), i8* bitcast (i1 (%"class.tint::(anonymous namespace)::Matcher"*)* @_ZNK4tint12_GLOBAL__N_17Matcher14ExpectsPointerEv to i8*), i8* bitcast (void (%"class.std::__1::basic_string"*, %"class.tint::(anonymous namespace)::FIU32Matcher"*)* @_ZNK4tint12_GLOBAL__N_112FIU32Matcher3strEv to i8*)] }, align 8
@.str.10 = private unnamed_addr constant [16 x i8] c"f32, i32 or u32\00", align 1
@_ZTVN4tint12_GLOBAL__N_113ScalarMatcherE = internal unnamed_addr constant { [7 x i8*] } { [7 x i8*] [i8* null, i8* null, i8* bitcast (void (%"class.tint::(anonymous namespace)::Matcher"*)* @_ZN4tint12_GLOBAL__N_17MatcherD2Ev to i8*), i8* bitcast (void (%"class.tint::(anonymous namespace)::ScalarMatcher"*)* @_ZN4tint12_GLOBAL__N_113ScalarMatcherD0Ev to i8*), i8* bitcast (i1 (%"class.tint::(anonymous namespace)::ScalarMatcher"*, %"struct.tint::(anonymous namespace)::Matcher::MatchState"*, %"class.tint::sem::Type"*)* @_ZNK4tint12_GLOBAL__N_113ScalarMatcher5MatchERNS0_7Matcher10MatchStateEPKNS_3sem4TypeE to i8*), i8* bitcast (i1 (%"class.tint::(anonymous namespace)::Matcher"*)* @_ZNK4tint12_GLOBAL__N_17Matcher14ExpectsPointerEv to i8*), i8* bitcast (void (%"class.std::__1::basic_string"*, %"class.tint::(anonymous namespace)::ScalarMatcher"*)* @_ZNK4tint12_GLOBAL__N_113ScalarMatcher3strEv to i8*)] }, align 8
@.str.11 = private unnamed_addr constant [7 x i8] c"scalar\00", align 1
@_ZTVN4tint12_GLOBAL__N_110U32BuilderE = internal unnamed_addr constant { [8 x i8*] } { [8 x i8*] [i8* null, i8* null, i8* bitcast (void (%"class.tint::(anonymous namespace)::Matcher"*)* @_ZN4tint12_GLOBAL__N_17MatcherD2Ev to i8*), i8* bitcast (void (%"class.tint::(anonymous namespace)::U32Builder"*)* @_ZN4tint12_GLOBAL__N_110U32BuilderD0Ev to i8*), i8* bitcast (i1 (%"class.tint::(anonymous namespace)::U32Builder"*, %"struct.tint::(anonymous namespace)::Matcher::MatchState"*, %"class.tint::sem::Type"*)* @_ZNK4tint12_GLOBAL__N_110U32Builder5MatchERNS0_7Matcher10MatchStateEPKNS_3sem4TypeE to i8*), i8* bitcast (i1 (%"class.tint::(anonymous namespace)::Matcher"*)* @_ZNK4tint12_GLOBAL__N_17Matcher14ExpectsPointerEv to i8*), i8* bitcast (void (%"class.std::__1::basic_string"*, %"class.tint::(anonymous namespace)::U32Builder"*)* @_ZNK4tint12_GLOBAL__N_110U32Builder3strEv to i8*), i8* bitcast (%"class.tint::sem::Type"* (%"class.tint::(anonymous namespace)::U32Builder"*, %"struct.tint::(anonymous namespace)::Builder::BuildState"*)* @_ZNK4tint12_GLOBAL__N_110U32Builder5BuildERNS0_7Builder10BuildStateE to i8*)] }, align 8
@.str.12 = private unnamed_addr constant [4 x i8] c"u32\00", align 1
@_ZTVN4tint12_GLOBAL__N_115OpenTypeBuilderE = internal unnamed_addr constant { [8 x i8*] } { [8 x i8*] [i8* null, i8* null, i8* bitcast (void (%"class.tint::(anonymous namespace)::Matcher"*)* @_ZN4tint12_GLOBAL__N_17MatcherD2Ev to i8*), i8* bitcast (void (%"class.tint::(anonymous namespace)::OpenTypeBuilder"*)* @_ZN4tint12_GLOBAL__N_115OpenTypeBuilderD0Ev to i8*), i8* bitcast (i1 (%"class.tint::(anonymous namespace)::OpenTypeBuilder"*, %"struct.tint::(anonymous namespace)::Matcher::MatchState"*, %"class.tint::sem::Type"*)* @_ZNK4tint12_GLOBAL__N_115OpenTypeBuilder5MatchERNS0_7Matcher10MatchStateEPKNS_3sem4TypeE to i8*), i8* bitcast (i1 (%"class.tint::(anonymous namespace)::Matcher"*)* @_ZNK4tint12_GLOBAL__N_17Matcher14ExpectsPointerEv to i8*), i8* bitcast (void (%"class.std::__1::basic_string"*, %"class.tint::(anonymous namespace)::OpenTypeBuilder"*)* @_ZNK4tint12_GLOBAL__N_115OpenTypeBuilder3strEv to i8*), i8* bitcast (%"class.tint::sem::Type"* (%"class.tint::(anonymous namespace)::OpenTypeBuilder"*, %"struct.tint::(anonymous namespace)::Builder::BuildState"*)* @_ZNK4tint12_GLOBAL__N_115OpenTypeBuilder5BuildERNS0_7Builder10BuildStateE to i8*)] }, align 8
@.str.13 = private unnamed_addr constant [2 x i8] c"T\00", align 1
@.str.14 = private unnamed_addr constant [1 x i8] zeroinitializer, align 1
@_ZTVN4tint12_GLOBAL__N_112ArrayBuilderE = internal unnamed_addr constant { [8 x i8*] } { [8 x i8*] [i8* null, i8* null, i8* bitcast (void (%"class.tint::(anonymous namespace)::Matcher"*)* @_ZN4tint12_GLOBAL__N_17MatcherD2Ev to i8*), i8* bitcast (void (%"class.tint::(anonymous namespace)::ArrayBuilder"*)* @_ZN4tint12_GLOBAL__N_112ArrayBuilderD0Ev to i8*), i8* bitcast (i1 (%"class.tint::(anonymous namespace)::ArrayBuilder"*, %"struct.tint::(anonymous namespace)::Matcher::MatchState"*, %"class.tint::sem::Type"*)* @_ZNK4tint12_GLOBAL__N_112ArrayBuilder5MatchERNS0_7Matcher10MatchStateEPKNS_3sem4TypeE to i8*), i8* bitcast (i1 (%"class.tint::(anonymous namespace)::Matcher"*)* @_ZNK4tint12_GLOBAL__N_17Matcher14ExpectsPointerEv to i8*), i8* bitcast (void (%"class.std::__1::basic_string"*, %"class.tint::(anonymous namespace)::ArrayBuilder"*)* @_ZNK4tint12_GLOBAL__N_112ArrayBuilder3strEv to i8*), i8* bitcast (%"class.tint::sem::Type"* (%"class.tint::(anonymous namespace)::ArrayBuilder"*, %"struct.tint::(anonymous namespace)::Builder::BuildState"*)* @_ZNK4tint12_GLOBAL__N_112ArrayBuilder5BuildERNS0_7Builder10BuildStateE to i8*)] }, align 8
@_ZN4tint6detail10TypeInfoOfINS_3sem5ArrayEE4infoE = external global %"struct.tint::TypeInfo", align 8
@.str.16 = private unnamed_addr constant [7 x i8] c"array<\00", align 1
@.str.17 = private unnamed_addr constant [2 x i8] c">\00", align 1
@_ZTVN4tint12_GLOBAL__N_110VecBuilderE = internal unnamed_addr constant { [8 x i8*] } { [8 x i8*] [i8* null, i8* null, i8* bitcast (void (%"class.tint::(anonymous namespace)::Matcher"*)* @_ZN4tint12_GLOBAL__N_17MatcherD2Ev to i8*), i8* bitcast (void (%"class.tint::(anonymous namespace)::VecBuilder"*)* @_ZN4tint12_GLOBAL__N_110VecBuilderD0Ev to i8*), i8* bitcast (i1 (%"class.tint::(anonymous namespace)::VecBuilder"*, %"struct.tint::(anonymous namespace)::Matcher::MatchState"*, %"class.tint::sem::Type"*)* @_ZNK4tint12_GLOBAL__N_110VecBuilder5MatchERNS0_7Matcher10MatchStateEPKNS_3sem4TypeE to i8*), i8* bitcast (i1 (%"class.tint::(anonymous namespace)::Matcher"*)* @_ZNK4tint12_GLOBAL__N_17Matcher14ExpectsPointerEv to i8*), i8* bitcast (void (%"class.std::__1::basic_string"*, %"class.tint::(anonymous namespace)::VecBuilder"*)* @_ZNK4tint12_GLOBAL__N_110VecBuilder3strEv to i8*), i8* bitcast (%"class.tint::sem::Type"* (%"class.tint::(anonymous namespace)::VecBuilder"*, %"struct.tint::(anonymous namespace)::Builder::BuildState"*)* @_ZNK4tint12_GLOBAL__N_110VecBuilder5BuildERNS0_7Builder10BuildStateE to i8*)] }, align 8
@_ZN4tint6detail10TypeInfoOfINS_3sem6VectorEE4infoE = external global %"struct.tint::TypeInfo", align 8
@.str.18 = private unnamed_addr constant [4 x i8] c"vec\00", align 1
@.str.19 = private unnamed_addr constant [2 x i8] c"<\00", align 1
@_ZTVN4tint12_GLOBAL__N_118OpenSizeVecBuilderE = internal unnamed_addr constant { [8 x i8*] } { [8 x i8*] [i8* null, i8* null, i8* bitcast (void (%"class.tint::(anonymous namespace)::Matcher"*)* @_ZN4tint12_GLOBAL__N_17MatcherD2Ev to i8*), i8* bitcast (void (%"class.tint::(anonymous namespace)::OpenSizeVecBuilder"*)* @_ZN4tint12_GLOBAL__N_118OpenSizeVecBuilderD0Ev to i8*), i8* bitcast (i1 (%"class.tint::(anonymous namespace)::OpenSizeVecBuilder"*, %"struct.tint::(anonymous namespace)::Matcher::MatchState"*, %"class.tint::sem::Type"*)* @_ZNK4tint12_GLOBAL__N_118OpenSizeVecBuilder5MatchERNS0_7Matcher10MatchStateEPKNS_3sem4TypeE to i8*), i8* bitcast (i1 (%"class.tint::(anonymous namespace)::Matcher"*)* @_ZNK4tint12_GLOBAL__N_17Matcher14ExpectsPointerEv to i8*), i8* bitcast (void (%"class.std::__1::basic_string"*, %"class.tint::(anonymous namespace)::OpenSizeVecBuilder"*)* @_ZNK4tint12_GLOBAL__N_118OpenSizeVecBuilder3strEv to i8*), i8* bitcast (%"class.tint::sem::Type"* (%"class.tint::(anonymous namespace)::OpenSizeVecBuilder"*, %"struct.tint::(anonymous namespace)::Builder::BuildState"*)* @_ZNK4tint12_GLOBAL__N_118OpenSizeVecBuilder5BuildERNS0_7Builder10BuildStateE to i8*)] }, align 8
@.str.20 = private unnamed_addr constant [2 x i8] c"N\00", align 1
@.str.21 = private unnamed_addr constant [2 x i8] c"M\00", align 1
@.str.22 = private unnamed_addr constant [2 x i8] c"F\00", align 1
@.str.23 = private unnamed_addr constant [2 x i8] c"A\00", align 1
@_ZTVN4tint12_GLOBAL__N_118OpenSizeMatBuilderE = internal unnamed_addr constant { [8 x i8*] } { [8 x i8*] [i8* null, i8* null, i8* bitcast (void (%"class.tint::(anonymous namespace)::Matcher"*)* @_ZN4tint12_GLOBAL__N_17MatcherD2Ev to i8*), i8* bitcast (void (%"class.tint::(anonymous namespace)::OpenSizeMatBuilder"*)* @_ZN4tint12_GLOBAL__N_118OpenSizeMatBuilderD0Ev to i8*), i8* bitcast (i1 (%"class.tint::(anonymous namespace)::OpenSizeMatBuilder"*, %"struct.tint::(anonymous namespace)::Matcher::MatchState"*, %"class.tint::sem::Type"*)* @_ZNK4tint12_GLOBAL__N_118OpenSizeMatBuilder5MatchERNS0_7Matcher10MatchStateEPKNS_3sem4TypeE to i8*), i8* bitcast (i1 (%"class.tint::(anonymous namespace)::Matcher"*)* @_ZNK4tint12_GLOBAL__N_17Matcher14ExpectsPointerEv to i8*), i8* bitcast (void (%"class.std::__1::basic_string"*, %"class.tint::(anonymous namespace)::OpenSizeMatBuilder"*)* @_ZNK4tint12_GLOBAL__N_118OpenSizeMatBuilder3strEv to i8*), i8* bitcast (%"class.tint::sem::Type"* (%"class.tint::(anonymous namespace)::OpenSizeMatBuilder"*, %"struct.tint::(anonymous namespace)::Builder::BuildState"*)* @_ZNK4tint12_GLOBAL__N_118OpenSizeMatBuilder5BuildERNS0_7Builder10BuildStateE to i8*)] }, align 8
@_ZN4tint6detail10TypeInfoOfINS_3sem6MatrixEE4infoE = external global %"struct.tint::TypeInfo", align 8
@.str.24 = private unnamed_addr constant [4 x i8] c"mat\00", align 1
@.str.25 = private unnamed_addr constant [2 x i8] c"x\00", align 1
@_ZTVN4tint12_GLOBAL__N_110PtrBuilderE = internal unnamed_addr constant { [8 x i8*] } { [8 x i8*] [i8* null, i8* null, i8* bitcast (void (%"class.tint::(anonymous namespace)::Matcher"*)* @_ZN4tint12_GLOBAL__N_17MatcherD2Ev to i8*), i8* bitcast (void (%"class.tint::(anonymous namespace)::PtrBuilder"*)* @_ZN4tint12_GLOBAL__N_110PtrBuilderD0Ev to i8*), i8* bitcast (i1 (%"class.tint::(anonymous namespace)::PtrBuilder"*, %"struct.tint::(anonymous namespace)::Matcher::MatchState"*, %"class.tint::sem::Type"*)* @_ZNK4tint12_GLOBAL__N_110PtrBuilder5MatchERNS0_7Matcher10MatchStateEPKNS_3sem4TypeE to i8*), i8* bitcast (i1 (%"class.tint::(anonymous namespace)::PtrBuilder"*)* @_ZNK4tint12_GLOBAL__N_110PtrBuilder14ExpectsPointerEv to i8*), i8* bitcast (void (%"class.std::__1::basic_string"*, %"class.tint::(anonymous namespace)::PtrBuilder"*)* @_ZNK4tint12_GLOBAL__N_110PtrBuilder3strEv to i8*), i8* bitcast (%"class.tint::sem::Type"* (%"class.tint::(anonymous namespace)::PtrBuilder"*, %"struct.tint::(anonymous namespace)::Builder::BuildState"*)* @_ZNK4tint12_GLOBAL__N_110PtrBuilder5BuildERNS0_7Builder10BuildStateE to i8*)] }, align 8
@_ZN4tint6detail10TypeInfoOfINS_3sem7PointerEE4infoE = external global %"struct.tint::TypeInfo", align 8
@.str.26 = private unnamed_addr constant [5 x i8] c"ptr<\00", align 1
@__const._ZN4tint12_GLOBAL__N_14Impl8RegisterENS_3sem13IntrinsicTypeEPNS0_7BuilderENSt3__16vectorINS1_9ParameterENS6_9allocatorIS8_EEEE.overload = private unnamed_addr constant { i32, [4 x i8], %"class.tint::(anonymous namespace)::Builder"*, %"class.std::__1::vector.10", %"class.std::__1::unordered_map" } { i32 -1431655766, [4 x i8] c"\AA\AA\AA\AA", %"class.tint::(anonymous namespace)::Builder"* inttoptr (i64 -6148914691236517206 to %"class.tint::(anonymous namespace)::Builder"*), %"class.std::__1::vector.10" { %"class.std::__1::__vector_base.11" { %"struct.tint::(anonymous namespace)::Impl::Parameter"* inttoptr (i64 -6148914691236517206 to %"struct.tint::(anonymous namespace)::Impl::Parameter"*), %"struct.tint::(anonymous namespace)::Impl::Parameter"* inttoptr (i64 -6148914691236517206 to %"struct.tint::(anonymous namespace)::Impl::Parameter"*), %"class.std::__1::__compressed_pair.12" { %"struct.std::__1::__compressed_pair_elem.13" { %"struct.tint::(anonymous namespace)::Impl::Parameter"* inttoptr (i64 -6148914691236517206 to %"struct.tint::(anonymous namespace)::Impl::Parameter"*) } } } }, %"class.std::__1::unordered_map" { %"class.std::__1::__hash_table" <{ %"class.std::__1::unique_ptr.17" { %"class.std::__1::__compressed_pair.18" { %"struct.std::__1::__compressed_pair_elem.19" { %"struct.std::__1::__hash_node_base"** inttoptr (i64 -6148914691236517206 to %"struct.std::__1::__hash_node_base"**) }, %"struct.std::__1::__compressed_pair_elem.20" { %"class.std::__1::__bucket_list_deallocator" { %"class.std::__1::__compressed_pair.21" { %"struct.std::__1::__compressed_pair_elem.22" { i64 -6148914691236517206 } } } } } }, %"class.std::__1::__compressed_pair.26" { %"struct.std::__1::__compressed_pair_elem.27" { %"struct.std::__1::__hash_node_base" { %"struct.std::__1::__hash_node_base"* inttoptr (i64 -6148914691236517206 to %"struct.std::__1::__hash_node_base"*) } } }, %"class.std::__1::__compressed_pair.31" { %"struct.std::__1::__compressed_pair_elem.22" { i64 -6148914691236517206 } }, %"class.std::__1::__compressed_pair.33" { %"struct.std::__1::__compressed_pair_elem.34" { float 0xFFFFFFFFE0000000 } }, [4 x i8] c"\AA\AA\AA\AA" }> } }, align 8
@_ZTVN4tint12_GLOBAL__N_121SampledTextureBuilderE = internal unnamed_addr constant { [8 x i8*] } { [8 x i8*] [i8* null, i8* null, i8* bitcast (void (%"class.tint::(anonymous namespace)::Matcher"*)* @_ZN4tint12_GLOBAL__N_17MatcherD2Ev to i8*), i8* bitcast (void (%"class.tint::(anonymous namespace)::SampledTextureBuilder"*)* @_ZN4tint12_GLOBAL__N_121SampledTextureBuilderD0Ev to i8*), i8* bitcast (i1 (%"class.tint::(anonymous namespace)::SampledTextureBuilder"*, %"struct.tint::(anonymous namespace)::Matcher::MatchState"*, %"class.tint::sem::Type"*)* @_ZNK4tint12_GLOBAL__N_121SampledTextureBuilder5MatchERNS0_7Matcher10MatchStateEPKNS_3sem4TypeE to i8*), i8* bitcast (i1 (%"class.tint::(anonymous namespace)::Matcher"*)* @_ZNK4tint12_GLOBAL__N_17Matcher14ExpectsPointerEv to i8*), i8* bitcast (void (%"class.std::__1::basic_string"*, %"class.tint::(anonymous namespace)::SampledTextureBuilder"*)* @_ZNK4tint12_GLOBAL__N_121SampledTextureBuilder3strEv to i8*), i8* bitcast (%"class.tint::sem::Type"* (%"class.tint::(anonymous namespace)::SampledTextureBuilder"*, %"struct.tint::(anonymous namespace)::Builder::BuildState"*)* @_ZNK4tint12_GLOBAL__N_121SampledTextureBuilder5BuildERNS0_7Builder10BuildStateE to i8*)] }, align 8
@_ZN4tint6detail10TypeInfoOfINS_3sem14SampledTextureEE4infoE = external global %"struct.tint::TypeInfo", align 8
@.str.27 = private unnamed_addr constant [9 x i8] c"texture_\00", align 1
@_ZTVNSt3__118basic_stringstreamIcNS_11char_traitsIcEENS_9allocatorIcEEEE = external unnamed_addr constant { [5 x i8*], [5 x i8*], [5 x i8*] }, align 8
@_ZTTNSt3__118basic_stringstreamIcNS_11char_traitsIcEENS_9allocatorIcEEEE = external unnamed_addr constant [10 x i8*], align 8
@_ZTVNSt3__115basic_stringbufIcNS_11char_traitsIcEENS_9allocatorIcEEEE = external unnamed_addr constant { [16 x i8*] }, align 8
@_ZNSt3__15ctypeIcE2idE = external global %"class.std::__1::locale::id", align 8
@_ZTVN4tint12_GLOBAL__N_126MultisampledTextureBuilderE = internal unnamed_addr constant { [8 x i8*] } { [8 x i8*] [i8* null, i8* null, i8* bitcast (void (%"class.tint::(anonymous namespace)::Matcher"*)* @_ZN4tint12_GLOBAL__N_17MatcherD2Ev to i8*), i8* bitcast (void (%"class.tint::(anonymous namespace)::MultisampledTextureBuilder"*)* @_ZN4tint12_GLOBAL__N_126MultisampledTextureBuilderD0Ev to i8*), i8* bitcast (i1 (%"class.tint::(anonymous namespace)::MultisampledTextureBuilder"*, %"struct.tint::(anonymous namespace)::Matcher::MatchState"*, %"class.tint::sem::Type"*)* @_ZNK4tint12_GLOBAL__N_126MultisampledTextureBuilder5MatchERNS0_7Matcher10MatchStateEPKNS_3sem4TypeE to i8*), i8* bitcast (i1 (%"class.tint::(anonymous namespace)::Matcher"*)* @_ZNK4tint12_GLOBAL__N_17Matcher14ExpectsPointerEv to i8*), i8* bitcast (void (%"class.std::__1::basic_string"*, %"class.tint::(anonymous namespace)::MultisampledTextureBuilder"*)* @_ZNK4tint12_GLOBAL__N_126MultisampledTextureBuilder3strEv to i8*), i8* bitcast (%"class.tint::sem::Type"* (%"class.tint::(anonymous namespace)::MultisampledTextureBuilder"*, %"struct.tint::(anonymous namespace)::Builder::BuildState"*)* @_ZNK4tint12_GLOBAL__N_126MultisampledTextureBuilder5BuildERNS0_7Builder10BuildStateE to i8*)] }, align 8
@_ZN4tint6detail10TypeInfoOfINS_3sem19MultisampledTextureEE4infoE = external global %"struct.tint::TypeInfo", align 8
@.str.28 = private unnamed_addr constant [22 x i8] c"texture_multisampled_\00", align 1
@_ZTVN4tint12_GLOBAL__N_119DepthTextureBuilderE = internal unnamed_addr constant { [8 x i8*] } { [8 x i8*] [i8* null, i8* null, i8* bitcast (void (%"class.tint::(anonymous namespace)::Matcher"*)* @_ZN4tint12_GLOBAL__N_17MatcherD2Ev to i8*), i8* bitcast (void (%"class.tint::(anonymous namespace)::DepthTextureBuilder"*)* @_ZN4tint12_GLOBAL__N_119DepthTextureBuilderD0Ev to i8*), i8* bitcast (i1 (%"class.tint::(anonymous namespace)::DepthTextureBuilder"*, %"struct.tint::(anonymous namespace)::Matcher::MatchState"*, %"class.tint::sem::Type"*)* @_ZNK4tint12_GLOBAL__N_119DepthTextureBuilder5MatchERNS0_7Matcher10MatchStateEPKNS_3sem4TypeE to i8*), i8* bitcast (i1 (%"class.tint::(anonymous namespace)::Matcher"*)* @_ZNK4tint12_GLOBAL__N_17Matcher14ExpectsPointerEv to i8*), i8* bitcast (void (%"class.std::__1::basic_string"*, %"class.tint::(anonymous namespace)::DepthTextureBuilder"*)* @_ZNK4tint12_GLOBAL__N_119DepthTextureBuilder3strEv to i8*), i8* bitcast (%"class.tint::sem::Type"* (%"class.tint::(anonymous namespace)::DepthTextureBuilder"*, %"struct.tint::(anonymous namespace)::Builder::BuildState"*)* @_ZNK4tint12_GLOBAL__N_119DepthTextureBuilder5BuildERNS0_7Builder10BuildStateE to i8*)] }, align 8
@_ZN4tint6detail10TypeInfoOfINS_3sem12DepthTextureEE4infoE = external global %"struct.tint::TypeInfo", align 8
@.str.29 = private unnamed_addr constant [15 x i8] c"texture_depth_\00", align 1
@_ZTVN4tint12_GLOBAL__N_122ExternalTextureBuilderE = internal unnamed_addr constant { [8 x i8*] } { [8 x i8*] [i8* null, i8* null, i8* bitcast (void (%"class.tint::(anonymous namespace)::Matcher"*)* @_ZN4tint12_GLOBAL__N_17MatcherD2Ev to i8*), i8* bitcast (void (%"class.tint::(anonymous namespace)::ExternalTextureBuilder"*)* @_ZN4tint12_GLOBAL__N_122ExternalTextureBuilderD0Ev to i8*), i8* bitcast (i1 (%"class.tint::(anonymous namespace)::ExternalTextureBuilder"*, %"struct.tint::(anonymous namespace)::Matcher::MatchState"*, %"class.tint::sem::Type"*)* @_ZNK4tint12_GLOBAL__N_122ExternalTextureBuilder5MatchERNS0_7Matcher10MatchStateEPKNS_3sem4TypeE to i8*), i8* bitcast (i1 (%"class.tint::(anonymous namespace)::Matcher"*)* @_ZNK4tint12_GLOBAL__N_17Matcher14ExpectsPointerEv to i8*), i8* bitcast (void (%"class.std::__1::basic_string"*, %"class.tint::(anonymous namespace)::ExternalTextureBuilder"*)* @_ZNK4tint12_GLOBAL__N_122ExternalTextureBuilder3strEv to i8*), i8* bitcast (%"class.tint::sem::Type"* (%"class.tint::(anonymous namespace)::ExternalTextureBuilder"*, %"struct.tint::(anonymous namespace)::Builder::BuildState"*)* @_ZNK4tint12_GLOBAL__N_122ExternalTextureBuilder5BuildERNS0_7Builder10BuildStateE to i8*)] }, align 8
@_ZN4tint6detail10TypeInfoOfINS_3sem15ExternalTextureEE4infoE = external global %"struct.tint::TypeInfo", align 8
@.str.30 = private unnamed_addr constant [17 x i8] c"texture_external\00", align 1
@_ZTVN4tint12_GLOBAL__N_121StorageTextureBuilderE = internal unnamed_addr constant { [8 x i8*] } { [8 x i8*] [i8* null, i8* null, i8* bitcast (void (%"class.tint::(anonymous namespace)::Matcher"*)* @_ZN4tint12_GLOBAL__N_17MatcherD2Ev to i8*), i8* bitcast (void (%"class.tint::(anonymous namespace)::StorageTextureBuilder"*)* @_ZN4tint12_GLOBAL__N_121StorageTextureBuilderD0Ev to i8*), i8* bitcast (i1 (%"class.tint::(anonymous namespace)::StorageTextureBuilder"*, %"struct.tint::(anonymous namespace)::Matcher::MatchState"*, %"class.tint::sem::Type"*)* @_ZNK4tint12_GLOBAL__N_121StorageTextureBuilder5MatchERNS0_7Matcher10MatchStateEPKNS_3sem4TypeE to i8*), i8* bitcast (i1 (%"class.tint::(anonymous namespace)::Matcher"*)* @_ZNK4tint12_GLOBAL__N_17Matcher14ExpectsPointerEv to i8*), i8* bitcast (void (%"class.std::__1::basic_string"*, %"class.tint::(anonymous namespace)::StorageTextureBuilder"*)* @_ZNK4tint12_GLOBAL__N_121StorageTextureBuilder3strEv to i8*), i8* bitcast (%"class.tint::sem::Type"* (%"class.tint::(anonymous namespace)::StorageTextureBuilder"*, %"struct.tint::(anonymous namespace)::Builder::BuildState"*)* @_ZNK4tint12_GLOBAL__N_121StorageTextureBuilder5BuildERNS0_7Builder10BuildStateE to i8*)] }, align 8
@_ZN4tint6detail10TypeInfoOfINS_3sem14StorageTextureEE4infoE = external global %"struct.tint::TypeInfo", align 8
@.str.31 = private unnamed_addr constant [17 x i8] c"texture_storage_\00", align 1
@.str.32 = private unnamed_addr constant [5 x i8] c"<F, \00", align 1
@_ZTVN4tint12_GLOBAL__N_114SamplerBuilderE = internal unnamed_addr constant { [8 x i8*] } { [8 x i8*] [i8* null, i8* null, i8* bitcast (void (%"class.tint::(anonymous namespace)::Matcher"*)* @_ZN4tint12_GLOBAL__N_17MatcherD2Ev to i8*), i8* bitcast (void (%"class.tint::(anonymous namespace)::SamplerBuilder"*)* @_ZN4tint12_GLOBAL__N_114SamplerBuilderD0Ev to i8*), i8* bitcast (i1 (%"class.tint::(anonymous namespace)::SamplerBuilder"*, %"struct.tint::(anonymous namespace)::Matcher::MatchState"*, %"class.tint::sem::Type"*)* @_ZNK4tint12_GLOBAL__N_114SamplerBuilder5MatchERNS0_7Matcher10MatchStateEPKNS_3sem4TypeE to i8*), i8* bitcast (i1 (%"class.tint::(anonymous namespace)::Matcher"*)* @_ZNK4tint12_GLOBAL__N_17Matcher14ExpectsPointerEv to i8*), i8* bitcast (void (%"class.std::__1::basic_string"*, %"class.tint::(anonymous namespace)::SamplerBuilder"*)* @_ZNK4tint12_GLOBAL__N_114SamplerBuilder3strEv to i8*), i8* bitcast (%"class.tint::sem::Type"* (%"class.tint::(anonymous namespace)::SamplerBuilder"*, %"struct.tint::(anonymous namespace)::Builder::BuildState"*)* @_ZNK4tint12_GLOBAL__N_114SamplerBuilder5BuildERNS0_7Builder10BuildStateE to i8*)] }, align 8
@_ZN4tint6detail10TypeInfoOfINS_3sem7SamplerEE4infoE = external global %"struct.tint::TypeInfo", align 8
@.str.33 = private unnamed_addr constant [8 x i8] c"sampler\00", align 1
@.str.34 = private unnamed_addr constant [19 x i8] c"sampler_comparison\00", align 1
@.str.35 = private unnamed_addr constant [21 x i8] c"no matching call to \00", align 1
@.str.36 = private unnamed_addr constant [20 x i8] c" candidate function\00", align 1
@.str.37 = private unnamed_addr constant [3 x i8] c"s:\00", align 1
@.str.38 = private unnamed_addr constant [2 x i8] c":\00", align 1
@.str.39 = private unnamed_addr constant [3 x i8] c"  \00", align 1
@__const._ZNK4tint12_GLOBAL__N_14Impl8Overload5MatchERNS_14ProgramBuilderENS_3sem13IntrinsicTypeERKNSt3__16vectorIPKNS5_4TypeENS7_9allocatorISB_EEEERNS_4diag4ListERi.matcher_state = private unnamed_addr constant %"struct.tint::(anonymous namespace)::Matcher::MatchState" { %"class.std::__1::unordered_map.287" { %"class.std::__1::__hash_table.288" <{ %"class.std::__1::unique_ptr.289" { %"class.std::__1::__compressed_pair.290" { %"struct.std::__1::__compressed_pair_elem.291" { %"struct.std::__1::__hash_node_base.292"** inttoptr (i64 -6148914691236517206 to %"struct.std::__1::__hash_node_base.292"**) }, %"struct.std::__1::__compressed_pair_elem.293" { %"class.std::__1::__bucket_list_deallocator.294" { %"class.std::__1::__compressed_pair.295" { %"struct.std::__1::__compressed_pair_elem.22" { i64 -6148914691236517206 } } } } } }, %"class.std::__1::__compressed_pair.299" { %"struct.std::__1::__compressed_pair_elem.300" { %"struct.std::__1::__hash_node_base.292" { %"struct.std::__1::__hash_node_base.292"* inttoptr (i64 -6148914691236517206 to %"struct.std::__1::__hash_node_base.292"*) } } }, %"class.std::__1::__compressed_pair.304" { %"struct.std::__1::__compressed_pair_elem.22" { i64 -6148914691236517206 } }, %"class.std::__1::__compressed_pair.307" { %"struct.std::__1::__compressed_pair_elem.34" { float 0xFFFFFFFFE0000000 } }, [4 x i8] c"\AA\AA\AA\AA" }> }, %"class.std::__1::unordered_map.311" { %"class.std::__1::__hash_table.312" <{ %"class.std::__1::unique_ptr.313" { %"class.std::__1::__compressed_pair.314" { %"struct.std::__1::__compressed_pair_elem.315" { %"struct.std::__1::__hash_node_base.316"** inttoptr (i64 -6148914691236517206 to %"struct.std::__1::__hash_node_base.316"**) }, %"struct.std::__1::__compressed_pair_elem.317" { %"class.std::__1::__bucket_list_deallocator.318" { %"class.std::__1::__compressed_pair.319" { %"struct.std::__1::__compressed_pair_elem.22" { i64 -6148914691236517206 } } } } } }, %"class.std::__1::__compressed_pair.323" { %"struct.std::__1::__compressed_pair_elem.324" { %"struct.std::__1::__hash_node_base.316" { %"struct.std::__1::__hash_node_base.316"* inttoptr (i64 -6148914691236517206 to %"struct.std::__1::__hash_node_base.316"*) } } }, %"class.std::__1::__compressed_pair.328" { %"struct.std::__1::__compressed_pair_elem.22" { i64 -6148914691236517206 } }, %"class.std::__1::__compressed_pair.334" { %"struct.std::__1::__compressed_pair_elem.34" { float 0xFFFFFFFFE0000000 } }, [4 x i8] c"\AA\AA\AA\AA" }> } }, align 8
@.str.40 = private unnamed_addr constant [6 x i8] c"args[\00", align 1
@.str.41 = private unnamed_addr constant [13 x i8] c"] is nullptr\00", align 1
@.str.42 = private unnamed_addr constant [37 x i8] c"IntrinsicTable overload matched for \00", align 1
@.str.43 = private unnamed_addr constant [36 x i8] c", but didn't resolve the open type \00", align 1
@.str.44 = private unnamed_addr constant [17 x i8] c", but open type \00", align 1
@.str.45 = private unnamed_addr constant [12 x i8] c" is nullptr\00", align 1
@__const._ZNK4tint12_GLOBAL__N_14Impl8Overload5MatchERNS_14ProgramBuilderENS_3sem13IntrinsicTypeERKNSt3__16vectorIPKNS5_4TypeENS7_9allocatorISB_EEEERNS_4diag4ListERi.builder_state = private unnamed_addr constant %"struct.tint::(anonymous namespace)::Builder::BuildState" { %"class.tint::sem::Manager"* inttoptr (i64 -6148914691236517206 to %"class.tint::sem::Manager"*), %"class.std::__1::unordered_map.287" { %"class.std::__1::__hash_table.288" <{ %"class.std::__1::unique_ptr.289" { %"class.std::__1::__compressed_pair.290" { %"struct.std::__1::__compressed_pair_elem.291" { %"struct.std::__1::__hash_node_base.292"** inttoptr (i64 -6148914691236517206 to %"struct.std::__1::__hash_node_base.292"**) }, %"struct.std::__1::__compressed_pair_elem.293" { %"class.std::__1::__bucket_list_deallocator.294" { %"class.std::__1::__compressed_pair.295" { %"struct.std::__1::__compressed_pair_elem.22" { i64 -6148914691236517206 } } } } } }, %"class.std::__1::__compressed_pair.299" { %"struct.std::__1::__compressed_pair_elem.300" { %"struct.std::__1::__hash_node_base.292" { %"struct.std::__1::__hash_node_base.292"* inttoptr (i64 -6148914691236517206 to %"struct.std::__1::__hash_node_base.292"*) } } }, %"class.std::__1::__compressed_pair.304" { %"struct.std::__1::__compressed_pair_elem.22" { i64 -6148914691236517206 } }, %"class.std::__1::__compressed_pair.307" { %"struct.std::__1::__compressed_pair_elem.34" { float 0xFFFFFFFFE0000000 } }, [4 x i8] c"\AA\AA\AA\AA" }> }, %"class.std::__1::unordered_map.311" { %"class.std::__1::__hash_table.312" <{ %"class.std::__1::unique_ptr.313" { %"class.std::__1::__compressed_pair.314" { %"struct.std::__1::__compressed_pair_elem.315" { %"struct.std::__1::__hash_node_base.316"** inttoptr (i64 -6148914691236517206 to %"struct.std::__1::__hash_node_base.316"**) }, %"struct.std::__1::__compressed_pair_elem.317" { %"class.std::__1::__bucket_list_deallocator.318" { %"class.std::__1::__compressed_pair.319" { %"struct.std::__1::__compressed_pair_elem.22" { i64 -6148914691236517206 } } } } } }, %"class.std::__1::__compressed_pair.323" { %"struct.std::__1::__compressed_pair_elem.324" { %"struct.std::__1::__hash_node_base.316" { %"struct.std::__1::__hash_node_base.316"* inttoptr (i64 -6148914691236517206 to %"struct.std::__1::__hash_node_base.316"*) } } }, %"class.std::__1::__compressed_pair.328" { %"struct.std::__1::__compressed_pair_elem.22" { i64 -6148914691236517206 } }, %"class.std::__1::__compressed_pair.334" { %"struct.std::__1::__compressed_pair_elem.34" { float 0xFFFFFFFFE0000000 } }, [4 x i8] c"\AA\AA\AA\AA" }> } }, align 8
@.str.46 = private unnamed_addr constant [30 x i8] c"Build() did not return a type\00", align 1
@_ZSt7nothrow = external global %"struct.std::nothrow_t", align 1
@.str.47 = private unnamed_addr constant [2 x i8] c"(\00", align 1
@.str.48 = private unnamed_addr constant [3 x i8] c", \00", align 1
@.str.49 = private unnamed_addr constant [4 x i8] c" : \00", align 1
@.str.50 = private unnamed_addr constant [6 x i8] c") -> \00", align 1
@.str.51 = private unnamed_addr constant [10 x i8] c"  where: \00", align 1
@.str.52 = private unnamed_addr constant [5 x i8] c" is \00", align 1
@switch.table._ZNK4tint12_GLOBAL__N_118OpenSizeMatBuilder3strEv.53 = private unnamed_addr constant [4 x i8*] [i8* getelementptr inbounds ([2 x i8], [2 x i8]* @.str.20, i64 0, i64 0), i8* getelementptr inbounds ([2 x i8], [2 x i8]* @.str.21, i64 0, i64 0), i8* getelementptr inbounds ([2 x i8], [2 x i8]* @.str.22, i64 0, i64 0), i8* getelementptr inbounds ([2 x i8], [2 x i8]* @.str.23, i64 0, i64 0)], align 8

@_ZN4tint14IntrinsicTableD1Ev = hidden unnamed_addr alias void (%"class.tint::IntrinsicTable"*), void (%"class.tint::IntrinsicTable"*)* @_ZN4tint14IntrinsicTableD2Ev

; Function Attrs: nounwind ssp uwtable
define hidden %"class.tint::IntrinsicTable"* @_ZN4tint14IntrinsicTable6CreateEv() local_unnamed_addr #0 align 2 {
  %1 = tail call i8* @_Znwm(i64 136) #16
  %2 = bitcast i8* %1 to %"class.tint::(anonymous namespace)::Impl"*
  tail call fastcc void @_ZN4tint12_GLOBAL__N_14ImplC2Ev(%"class.tint::(anonymous namespace)::Impl"* nonnull %2) #17
  %3 = bitcast i8* %1 to %"class.tint::IntrinsicTable"*
  ret %"class.tint::IntrinsicTable"* %3
}

; Function Attrs: argmemonly nounwind
declare void @llvm.lifetime.start.p0i8(i64 immarg, i8* nocapture) #1

; Function Attrs: argmemonly nounwind
declare void @llvm.lifetime.end.p0i8(i64 immarg, i8* nocapture) #1

; Function Attrs: norecurse nounwind readnone ssp uwtable
define hidden void @_ZN4tint14IntrinsicTableD2Ev(%"class.tint::IntrinsicTable"* nocapture) unnamed_addr #2 align 2 {
  ret void
}

; Function Attrs: noreturn nounwind ssp uwtable
define hidden void @_ZN4tint14IntrinsicTableD0Ev(%"class.tint::IntrinsicTable"* nocapture readnone) unnamed_addr #3 align 2 {
  tail call void @llvm.trap() #18
  unreachable
}

; Function Attrs: cold noreturn nounwind
declare void @llvm.trap() #4

declare void @__cxa_pure_virtual() unnamed_addr

; Function Attrs: nobuiltin nofree
declare noalias nonnull i8* @_Znwm(i64) local_unnamed_addr #5

; Function Attrs: nounwind ssp uwtable
define internal fastcc void @_ZN4tint12_GLOBAL__N_14ImplC2Ev(%"class.tint::(anonymous namespace)::Impl"*) unnamed_addr #0 align 2 {
  %2 = alloca %"struct.tint::(anonymous namespace)::Impl::Overload", align 8
  %3 = alloca %"struct.tint::(anonymous namespace)::Impl::Overload", align 8
  %4 = alloca %"struct.tint::(anonymous namespace)::Impl::Overload", align 8
  %5 = alloca %"struct.tint::(anonymous namespace)::Impl::Overload", align 8
  %6 = alloca %"struct.tint::(anonymous namespace)::Impl::Overload", align 8
  %7 = alloca %"struct.tint::(anonymous namespace)::Impl::Overload", align 8
  %8 = alloca %"struct.tint::(anonymous namespace)::Impl::Overload", align 8
  %9 = alloca %"struct.tint::(anonymous namespace)::Impl::Overload", align 8
  %10 = alloca %"struct.tint::(anonymous namespace)::Impl::Overload", align 8
  %11 = alloca %"struct.tint::(anonymous namespace)::Impl::Overload", align 8
  %12 = alloca %"struct.tint::(anonymous namespace)::Impl::Overload", align 8
  %13 = alloca %"struct.tint::(anonymous namespace)::Impl::Overload", align 8
  %14 = alloca %"struct.tint::(anonymous namespace)::Impl::Overload", align 8
  %15 = alloca %"struct.tint::(anonymous namespace)::Impl::Overload", align 8
  %16 = alloca %"struct.tint::(anonymous namespace)::Impl::Overload", align 8
  %17 = alloca %"struct.tint::(anonymous namespace)::Impl::Overload", align 8
  %18 = alloca %"struct.tint::(anonymous namespace)::Impl::Overload", align 8
  %19 = alloca %"struct.tint::(anonymous namespace)::Impl::Overload", align 8
  %20 = alloca %"struct.tint::(anonymous namespace)::Impl::Overload", align 8
  %21 = alloca %"struct.tint::(anonymous namespace)::Impl::Overload", align 8
  %22 = alloca %"struct.tint::(anonymous namespace)::Impl::Overload", align 8
  %23 = alloca %"struct.tint::(anonymous namespace)::Impl::Overload", align 8
  %24 = alloca %"struct.tint::(anonymous namespace)::Impl::Overload", align 8
  %25 = alloca %"struct.tint::(anonymous namespace)::Impl::Overload", align 8
  %26 = alloca %"struct.tint::(anonymous namespace)::Impl::Overload", align 8
  %27 = alloca %"struct.tint::(anonymous namespace)::Impl::Overload", align 8
  %28 = alloca %"struct.tint::(anonymous namespace)::Impl::Overload", align 8
  %29 = alloca %"struct.tint::(anonymous namespace)::Impl::Overload", align 8
  %30 = alloca %"struct.tint::(anonymous namespace)::Impl::Overload", align 8
  %31 = alloca %"struct.tint::(anonymous namespace)::Impl::Overload", align 8
  %32 = alloca %"struct.tint::(anonymous namespace)::Impl::Overload", align 8
  %33 = alloca %"struct.tint::(anonymous namespace)::Impl::Overload", align 8
  %34 = alloca %"struct.tint::(anonymous namespace)::Impl::Overload", align 8
  %35 = alloca %"struct.tint::(anonymous namespace)::Impl::Overload", align 8
  %36 = alloca %"struct.tint::(anonymous namespace)::Impl::Overload", align 8
  %37 = alloca %"struct.tint::(anonymous namespace)::Impl::Overload", align 8
  %38 = alloca %"struct.tint::(anonymous namespace)::Impl::Overload", align 8
  %39 = alloca %"struct.tint::(anonymous namespace)::Impl::Overload", align 8
  %40 = alloca %"struct.tint::(anonymous namespace)::Impl::Overload", align 8
  %41 = alloca %"struct.tint::(anonymous namespace)::Impl::Overload", align 8
  %42 = alloca %"struct.tint::(anonymous namespace)::Impl::Overload", align 8
  %43 = alloca %"struct.tint::(anonymous namespace)::Impl::Overload", align 8
  %44 = alloca %"struct.tint::(anonymous namespace)::Impl::Overload", align 8
  %45 = alloca %"struct.tint::(anonymous namespace)::Impl::Overload", align 8
  %46 = alloca %"struct.tint::(anonymous namespace)::Impl::Overload", align 8
  %47 = alloca %"struct.tint::(anonymous namespace)::Impl::Overload", align 8
  %48 = alloca %"struct.tint::(anonymous namespace)::Impl::Overload", align 8
  %49 = alloca %"struct.tint::(anonymous namespace)::Impl::Overload", align 8
  %50 = alloca %"struct.tint::(anonymous namespace)::Impl::Overload", align 8
  %51 = alloca %"struct.tint::(anonymous namespace)::Impl::Overload", align 8
  %52 = alloca %"struct.tint::(anonymous namespace)::Impl::Overload", align 8
  %53 = alloca %"struct.tint::(anonymous namespace)::Impl::Overload", align 8
  %54 = alloca %"struct.tint::(anonymous namespace)::Impl::Overload", align 8
  %55 = alloca %"struct.tint::(anonymous namespace)::Impl::Overload", align 8
  %56 = alloca %"struct.tint::(anonymous namespace)::Impl::Overload", align 8
  %57 = alloca %"struct.tint::(anonymous namespace)::Impl::Overload", align 8
  %58 = alloca %"struct.tint::(anonymous namespace)::Impl::Overload", align 8
  %59 = alloca %"struct.tint::(anonymous namespace)::Impl::Overload", align 8
  %60 = alloca %"struct.tint::(anonymous namespace)::Impl::Overload", align 8
  %61 = alloca %"struct.tint::(anonymous namespace)::Impl::Overload", align 8
  %62 = alloca %"struct.tint::(anonymous namespace)::Impl::Overload", align 8
  %63 = alloca %"struct.tint::(anonymous namespace)::Impl::Overload", align 8
  %64 = alloca %"struct.tint::(anonymous namespace)::Impl::Overload", align 8
  %65 = alloca %"struct.tint::(anonymous namespace)::Impl::Overload", align 8
  %66 = alloca %"struct.tint::(anonymous namespace)::Impl::Overload", align 8
  %67 = alloca %"struct.tint::(anonymous namespace)::Impl::Overload", align 8
  %68 = alloca %"struct.tint::(anonymous namespace)::Impl::Overload", align 8
  %69 = alloca %"struct.tint::(anonymous namespace)::Impl::Overload", align 8
  %70 = alloca %"struct.tint::(anonymous namespace)::Impl::Overload", align 8
  %71 = alloca %"struct.tint::(anonymous namespace)::Impl::Overload", align 8
  %72 = alloca %"struct.tint::(anonymous namespace)::Impl::Overload", align 8
  %73 = alloca %"struct.tint::(anonymous namespace)::Impl::Overload", align 8
  %74 = alloca %"struct.tint::(anonymous namespace)::Impl::Overload", align 8
  %75 = alloca %"struct.tint::(anonymous namespace)::Impl::Overload", align 8
  %76 = alloca %"struct.tint::(anonymous namespace)::Impl::Overload", align 8
  %77 = alloca %"struct.tint::(anonymous namespace)::Impl::Overload", align 8
  %78 = alloca %"struct.tint::(anonymous namespace)::Impl::Overload", align 8
  %79 = alloca %"struct.tint::(anonymous namespace)::Impl::Overload", align 8
  %80 = alloca %"struct.tint::(anonymous namespace)::Impl::Overload", align 8
  %81 = alloca %"struct.tint::(anonymous namespace)::Impl::Overload", align 8
  %82 = alloca %"struct.tint::(anonymous namespace)::Impl::Overload", align 8
  %83 = alloca %"struct.tint::(anonymous namespace)::Impl::Overload", align 8
  %84 = alloca %"struct.tint::(anonymous namespace)::Impl::Overload", align 8
  %85 = alloca %"struct.tint::(anonymous namespace)::Impl::Overload", align 8
  %86 = alloca %"struct.tint::(anonymous namespace)::Impl::Overload", align 8
  %87 = alloca %"struct.tint::(anonymous namespace)::Impl::Overload", align 8
  %88 = alloca %"struct.tint::(anonymous namespace)::Impl::Overload", align 8
  %89 = alloca %"struct.tint::(anonymous namespace)::Impl::Overload", align 8
  %90 = alloca %"struct.tint::(anonymous namespace)::Impl::Overload", align 8
  %91 = alloca %"struct.tint::(anonymous namespace)::Impl::Overload", align 8
  %92 = alloca %"struct.tint::(anonymous namespace)::Impl::Overload", align 8
  %93 = alloca %"struct.tint::(anonymous namespace)::Impl::Overload", align 8
  %94 = alloca %"struct.tint::(anonymous namespace)::Impl::Overload", align 8
  %95 = alloca %"struct.tint::(anonymous namespace)::Impl::Overload", align 8
  %96 = alloca %"struct.tint::(anonymous namespace)::Impl::Overload", align 8
  %97 = alloca %"struct.tint::(anonymous namespace)::Impl::Overload", align 8
  %98 = alloca %"struct.tint::(anonymous namespace)::Impl::Overload", align 8
  %99 = alloca %"struct.tint::(anonymous namespace)::Impl::Overload", align 8
  %100 = alloca %"struct.tint::(anonymous namespace)::Impl::Overload", align 8
  %101 = alloca %"struct.tint::(anonymous namespace)::Impl::Overload", align 8
  %102 = alloca %"struct.tint::(anonymous namespace)::Impl::Overload", align 8
  %103 = alloca %"struct.tint::(anonymous namespace)::Impl::Overload", align 8
  %104 = alloca %"struct.tint::(anonymous namespace)::Impl::Overload", align 8
  %105 = alloca %"struct.tint::(anonymous namespace)::Impl::Overload", align 8
  %106 = alloca %"struct.tint::(anonymous namespace)::Impl::Overload", align 8
  %107 = alloca %"struct.tint::(anonymous namespace)::Impl::Overload", align 8
  %108 = alloca %"struct.tint::(anonymous namespace)::Impl::Overload", align 8
  %109 = alloca %"struct.tint::(anonymous namespace)::Impl::Overload", align 8
  %110 = alloca %"struct.tint::(anonymous namespace)::Impl::Overload", align 8
  %111 = alloca %"struct.tint::(anonymous namespace)::Impl::Overload", align 8
  %112 = alloca %"struct.tint::(anonymous namespace)::Impl::Overload", align 8
  %113 = alloca %"struct.tint::(anonymous namespace)::Impl::Overload", align 8
  %114 = alloca %"struct.tint::(anonymous namespace)::Impl::Overload", align 8
  %115 = alloca %"class.std::__1::unique_ptr.556", align 8
  %116 = alloca %"class.std::__1::unique_ptr.556", align 8
  %117 = alloca %"class.std::__1::unique_ptr.556", align 8
  %118 = alloca %"class.std::__1::unique_ptr.556", align 8
  %119 = alloca %"class.std::__1::unique_ptr.556", align 8
  %120 = alloca %"class.std::__1::unique_ptr.556", align 8
  %121 = alloca %"class.std::__1::unique_ptr.556", align 8
  %122 = alloca %"class.std::__1::unique_ptr.556", align 8
  %123 = alloca %"class.std::__1::unique_ptr.556", align 8
  %124 = alloca %"class.std::__1::unique_ptr.556", align 8
  %125 = alloca %"class.std::__1::unique_ptr.556", align 8
  %126 = alloca %"class.std::__1::unique_ptr.556", align 8
  %127 = alloca %"struct.tint::(anonymous namespace)::Impl::Overload", align 8
  %128 = alloca %"struct.tint::(anonymous namespace)::Impl::Overload", align 8
  %129 = alloca %"struct.tint::(anonymous namespace)::Impl::Overload", align 8
  %130 = alloca %"struct.tint::(anonymous namespace)::Impl::Overload", align 8
  %131 = alloca %"struct.tint::(anonymous namespace)::Impl::Overload", align 8
  %132 = alloca %"struct.tint::(anonymous namespace)::Impl::Overload", align 8
  %133 = alloca %"struct.tint::(anonymous namespace)::Impl::Overload", align 8
  %134 = alloca %"struct.tint::(anonymous namespace)::Impl::Overload", align 8
  %135 = alloca %"struct.tint::(anonymous namespace)::Impl::Overload", align 8
  %136 = alloca %"struct.tint::(anonymous namespace)::Impl::Overload", align 8
  %137 = alloca %"struct.tint::(anonymous namespace)::Impl::Overload", align 8
  %138 = alloca %"struct.tint::(anonymous namespace)::Impl::Overload", align 8
  %139 = alloca %"struct.tint::(anonymous namespace)::Impl::Overload", align 8
  %140 = alloca %"struct.tint::(anonymous namespace)::Impl::Overload", align 8
  %141 = alloca %"struct.tint::(anonymous namespace)::Impl::Overload", align 8
  %142 = alloca %"struct.tint::(anonymous namespace)::Impl::Overload", align 8
  %143 = alloca %"struct.tint::(anonymous namespace)::Impl::Overload", align 8
  %144 = alloca %"struct.tint::(anonymous namespace)::Impl::Overload", align 8
  %145 = alloca %"struct.tint::(anonymous namespace)::Impl::Overload", align 8
  %146 = alloca %"struct.tint::(anonymous namespace)::Impl::Overload", align 8
  %147 = alloca %"struct.tint::(anonymous namespace)::Impl::Overload", align 8
  %148 = alloca %"struct.tint::(anonymous namespace)::Impl::Overload", align 8
  %149 = alloca %"struct.tint::(anonymous namespace)::Impl::Overload", align 8
  %150 = alloca %"struct.tint::(anonymous namespace)::Impl::Overload", align 8
  %151 = alloca %"struct.tint::(anonymous namespace)::Impl::Overload", align 8
  %152 = alloca %"struct.tint::(anonymous namespace)::Impl::Overload", align 8
  %153 = alloca %"struct.tint::(anonymous namespace)::Impl::Overload", align 8
  %154 = alloca %"struct.tint::(anonymous namespace)::Impl::Overload", align 8
  %155 = alloca %"struct.tint::(anonymous namespace)::Impl::Overload", align 8
  %156 = alloca %"struct.tint::(anonymous namespace)::Impl::Overload", align 8
  %157 = alloca %"struct.tint::(anonymous namespace)::Impl::Overload", align 8
  %158 = alloca %"struct.tint::(anonymous namespace)::Impl::Overload", align 8
  %159 = alloca %"struct.tint::(anonymous namespace)::Impl::Overload", align 8
  %160 = alloca %"struct.tint::(anonymous namespace)::Impl::Overload", align 8
  %161 = alloca %"struct.tint::(anonymous namespace)::Impl::Overload", align 8
  %162 = alloca %"struct.tint::(anonymous namespace)::Impl::Overload", align 8
  %163 = alloca %"struct.tint::(anonymous namespace)::Impl::Overload", align 8
  %164 = alloca %"struct.tint::(anonymous namespace)::Impl::Overload", align 8
  %165 = alloca %"struct.tint::(anonymous namespace)::Impl::Overload", align 8
  %166 = alloca %"struct.tint::(anonymous namespace)::Impl::Overload", align 8
  %167 = alloca %"struct.tint::(anonymous namespace)::Impl::Overload", align 8
  %168 = alloca %"struct.tint::(anonymous namespace)::Impl::Overload", align 8
  %169 = alloca %"struct.tint::(anonymous namespace)::Impl::Overload", align 8
  %170 = alloca %"struct.tint::(anonymous namespace)::Impl::Overload", align 8
  %171 = alloca %"struct.tint::(anonymous namespace)::Impl::Overload", align 8
  %172 = alloca %"struct.tint::(anonymous namespace)::Impl::Overload", align 8
  %173 = alloca %"struct.tint::(anonymous namespace)::Impl::Overload", align 8
  %174 = alloca %"struct.tint::(anonymous namespace)::Impl::Overload", align 8
  %175 = alloca %"struct.tint::(anonymous namespace)::Impl::Overload", align 8
  %176 = alloca %"struct.tint::(anonymous namespace)::Impl::Overload", align 8
  %177 = alloca %"struct.tint::(anonymous namespace)::Impl::Overload", align 8
  %178 = alloca %"struct.tint::(anonymous namespace)::Impl::Overload", align 8
  %179 = alloca %"struct.tint::(anonymous namespace)::Impl::Overload", align 8
  %180 = alloca %"struct.tint::(anonymous namespace)::Impl::Overload", align 8
  %181 = alloca %"struct.tint::(anonymous namespace)::Impl::Overload", align 8
  %182 = alloca %"struct.tint::(anonymous namespace)::Impl::Overload", align 8
  %183 = alloca %"struct.tint::(anonymous namespace)::Impl::Overload", align 8
  %184 = alloca %"struct.tint::(anonymous namespace)::Impl::Overload", align 8
  %185 = alloca %"struct.tint::(anonymous namespace)::Impl::Overload", align 8
  %186 = alloca %"struct.tint::(anonymous namespace)::Impl::Overload", align 8
  %187 = alloca %"struct.tint::(anonymous namespace)::Impl::Overload", align 8
  %188 = alloca %"struct.tint::(anonymous namespace)::Impl::Overload", align 8
  %189 = alloca %"struct.tint::(anonymous namespace)::Impl::Overload", align 8
  %190 = alloca %"struct.tint::(anonymous namespace)::Impl::Overload", align 8
  %191 = alloca %"struct.tint::(anonymous namespace)::Impl::Overload", align 8
  %192 = alloca %"struct.tint::(anonymous namespace)::Impl::Overload", align 8
  %193 = alloca %"struct.tint::(anonymous namespace)::Impl::Overload", align 8
  %194 = alloca %"struct.tint::(anonymous namespace)::Impl::Overload", align 8
  %195 = alloca %"struct.tint::(anonymous namespace)::Impl::Overload", align 8
  %196 = alloca %"struct.tint::(anonymous namespace)::Impl::Overload", align 8
  %197 = alloca %"struct.tint::(anonymous namespace)::Impl::Overload", align 8
  %198 = alloca %"struct.tint::(anonymous namespace)::Impl::Overload", align 8
  %199 = alloca %"struct.tint::(anonymous namespace)::Impl::Overload", align 8
  %200 = alloca %"struct.tint::(anonymous namespace)::Impl::Overload", align 8
  %201 = alloca %"struct.tint::(anonymous namespace)::Impl::Overload", align 8
  %202 = alloca %"struct.tint::(anonymous namespace)::Impl::Overload", align 8
  %203 = alloca %"struct.tint::(anonymous namespace)::Impl::Overload", align 8
  %204 = alloca %"struct.tint::(anonymous namespace)::Impl::Overload", align 8
  %205 = alloca %"struct.tint::(anonymous namespace)::Impl::Overload", align 8
  %206 = alloca %"struct.tint::(anonymous namespace)::Impl::Overload", align 8
  %207 = alloca %"struct.tint::(anonymous namespace)::Impl::Overload", align 8
  %208 = alloca %"struct.tint::(anonymous namespace)::Impl::Overload", align 8
  %209 = alloca %"struct.tint::(anonymous namespace)::Impl::Overload", align 8
  %210 = alloca %"struct.tint::(anonymous namespace)::Impl::Overload", align 8
  %211 = alloca %"struct.tint::(anonymous namespace)::Impl::Overload", align 8
  %212 = alloca %"struct.tint::(anonymous namespace)::Impl::Overload", align 8
  %213 = alloca %"struct.tint::(anonymous namespace)::Impl::Overload", align 8
  %214 = alloca %"struct.tint::(anonymous namespace)::Impl::Overload", align 8
  %215 = alloca %"struct.tint::(anonymous namespace)::Impl::Overload", align 8
  %216 = alloca %"struct.tint::(anonymous namespace)::Impl::Overload", align 8
  %217 = alloca %"struct.tint::(anonymous namespace)::Impl::Overload", align 8
  %218 = alloca %"struct.tint::(anonymous namespace)::Impl::Overload", align 8
  %219 = alloca %"struct.tint::(anonymous namespace)::Impl::Overload", align 8
  %220 = alloca %"struct.tint::(anonymous namespace)::Impl::Overload", align 8
  %221 = alloca %"struct.tint::(anonymous namespace)::Impl::Overload", align 8
  %222 = alloca %"struct.tint::(anonymous namespace)::Impl::Overload", align 8
  %223 = alloca %"struct.tint::(anonymous namespace)::Impl::Overload", align 8
  %224 = alloca %"struct.tint::(anonymous namespace)::Impl::Overload", align 8
  %225 = alloca %"struct.tint::(anonymous namespace)::Impl::Overload", align 8
  %226 = alloca %"struct.tint::(anonymous namespace)::Impl::Overload", align 8
  %227 = alloca %"struct.tint::(anonymous namespace)::Impl::Overload", align 8
  %228 = alloca %"struct.tint::(anonymous namespace)::Impl::Overload", align 8
  %229 = alloca %"struct.tint::(anonymous namespace)::Impl::Overload", align 8
  %230 = alloca %"struct.tint::(anonymous namespace)::Impl::Overload", align 8
  %231 = alloca %"struct.tint::(anonymous namespace)::Impl::Overload", align 8
  %232 = alloca %"struct.tint::(anonymous namespace)::Impl::Overload", align 8
  %233 = alloca %"struct.tint::(anonymous namespace)::Impl::Overload", align 8
  %234 = alloca %"struct.tint::(anonymous namespace)::Impl::Overload", align 8
  %235 = alloca %"struct.tint::(anonymous namespace)::Impl::Overload", align 8
  %236 = alloca %"class.std::__1::vector.10", align 8
  %237 = alloca %"class.std::__1::vector.10", align 8
  %238 = alloca %"class.std::__1::vector.10", align 8
  %239 = alloca %"class.std::__1::vector.10", align 8
  %240 = alloca %"class.std::__1::vector.10", align 8
  %241 = alloca %"class.std::__1::vector.10", align 8
  %242 = alloca %"class.std::__1::vector.10", align 8
  %243 = alloca %"class.std::__1::vector.10", align 8
  %244 = alloca %"class.std::__1::vector.10", align 8
  %245 = alloca %"class.std::__1::vector.10", align 8
  %246 = alloca %"class.std::__1::vector.10", align 8
  %247 = alloca %"class.std::__1::vector.10", align 8
  %248 = alloca %"class.std::__1::vector.10", align 8
  %249 = alloca %"class.std::__1::vector.10", align 8
  %250 = alloca %"class.std::__1::vector.10", align 8
  %251 = alloca %"class.std::__1::vector.10", align 8
  %252 = alloca %"class.std::__1::vector.10", align 8
  %253 = alloca %"class.std::__1::vector.10", align 8
  %254 = alloca %"class.tint::diag::List", align 8
  %255 = alloca %"class.tint::InternalCompilerError", align 8
  %256 = getelementptr inbounds %"class.tint::(anonymous namespace)::Impl", %"class.tint::(anonymous namespace)::Impl"* %0, i64 0, i32 0, i32 0
  store i32 (...)** bitcast (i8** getelementptr inbounds ({ [5 x i8*] }, { [5 x i8*] }* @_ZTVN4tint12_GLOBAL__N_14ImplE, i64 0, inrange i32 0, i64 2) to i32 (...)**), i32 (...)*** %256, align 8
  %257 = getelementptr inbounds %"class.tint::(anonymous namespace)::Impl", %"class.tint::(anonymous namespace)::Impl"* %0, i64 0, i32 1
  %258 = getelementptr inbounds %"class.tint::(anonymous namespace)::Impl", %"class.tint::(anonymous namespace)::Impl"* %0, i64 0, i32 2
  %259 = bitcast %struct.anon* %258 to <2 x i32 (...)**>*
  store <2 x i32 (...)**> <i32 (...)** bitcast (i8** getelementptr inbounds ({ [8 x i8*] }, { [8 x i8*] }* @_ZTVN4tint12_GLOBAL__N_111VoidBuilderE, i64 0, inrange i32 0, i64 2) to i32 (...)**), i32 (...)** bitcast (i8** getelementptr inbounds ({ [8 x i8*] }, { [8 x i8*] }* @_ZTVN4tint12_GLOBAL__N_111BoolBuilderE, i64 0, inrange i32 0, i64 2) to i32 (...)**)>, <2 x i32 (...)**>* %259, align 8
  %260 = getelementptr inbounds %"class.tint::(anonymous namespace)::Impl", %"class.tint::(anonymous namespace)::Impl"* %0, i64 0, i32 2, i32 2, i32 0, i32 0, i32 0
  %261 = bitcast i32 (...)*** %260 to <2 x i32 (...)**>*
  store <2 x i32 (...)**> <i32 (...)** bitcast (i8** getelementptr inbounds ({ [8 x i8*] }, { [8 x i8*] }* @_ZTVN4tint12_GLOBAL__N_110F32BuilderE, i64 0, inrange i32 0, i64 2) to i32 (...)**), i32 (...)** bitcast (i8** getelementptr inbounds ({ [8 x i8*] }, { [8 x i8*] }* @_ZTVN4tint12_GLOBAL__N_110I32BuilderE, i64 0, inrange i32 0, i64 2) to i32 (...)**)>, <2 x i32 (...)**>* %261, align 8
  %262 = getelementptr inbounds %"class.tint::(anonymous namespace)::Impl", %"class.tint::(anonymous namespace)::Impl"* %0, i64 0, i32 2, i32 4, i32 0, i32 0
  %263 = bitcast i32 (...)*** %262 to <2 x i32 (...)**>*
  store <2 x i32 (...)**> <i32 (...)** bitcast (i8** getelementptr inbounds ({ [7 x i8*] }, { [7 x i8*] }* @_ZTVN4tint12_GLOBAL__N_111IU32MatcherE, i64 0, inrange i32 0, i64 2) to i32 (...)**), i32 (...)** bitcast (i8** getelementptr inbounds ({ [7 x i8*] }, { [7 x i8*] }* @_ZTVN4tint12_GLOBAL__N_112FIU32MatcherE, i64 0, inrange i32 0, i64 2) to i32 (...)**)>, <2 x i32 (...)**>* %263, align 8
  %264 = getelementptr inbounds %"class.tint::(anonymous namespace)::Impl", %"class.tint::(anonymous namespace)::Impl"* %0, i64 0, i32 2, i32 6, i32 0, i32 0
  %265 = bitcast i32 (...)*** %264 to <2 x i32 (...)**>*
  store <2 x i32 (...)**> <i32 (...)** bitcast (i8** getelementptr inbounds ({ [7 x i8*] }, { [7 x i8*] }* @_ZTVN4tint12_GLOBAL__N_113ScalarMatcherE, i64 0, inrange i32 0, i64 2) to i32 (...)**), i32 (...)** bitcast (i8** getelementptr inbounds ({ [8 x i8*] }, { [8 x i8*] }* @_ZTVN4tint12_GLOBAL__N_110U32BuilderE, i64 0, inrange i32 0, i64 2) to i32 (...)**)>, <2 x i32 (...)**>* %265, align 8
  %266 = getelementptr inbounds %"class.tint::(anonymous namespace)::Impl", %"class.tint::(anonymous namespace)::Impl"* %0, i64 0, i32 2, i32 8, i32 0, i32 0, i32 0
  store i32 (...)** bitcast (i8** getelementptr inbounds ({ [8 x i8*] }, { [8 x i8*] }* @_ZTVN4tint12_GLOBAL__N_115OpenTypeBuilderE, i64 0, inrange i32 0, i64 2) to i32 (...)**), i32 (...)*** %266, align 8
  %267 = getelementptr inbounds %"class.tint::(anonymous namespace)::Impl", %"class.tint::(anonymous namespace)::Impl"* %0, i64 0, i32 2, i32 8, i32 1
  store i32 0, i32* %267, align 8
  %268 = getelementptr inbounds %"class.tint::(anonymous namespace)::Impl", %"class.tint::(anonymous namespace)::Impl"* %0, i64 0, i32 3
  %269 = bitcast %"class.std::__1::vector.8"* %268 to i8*
  tail call void @llvm.memset.p0i8.i64(i8* align 8 %269, i8 0, i64 24, i1 false) #17
  %270 = getelementptr inbounds %"class.tint::(anonymous namespace)::Impl", %"class.tint::(anonymous namespace)::Impl"* %0, i64 0, i32 2, i32 2
  %271 = ptrtoint %"class.tint::(anonymous namespace)::F32Builder"* %270 to i64
  %272 = getelementptr inbounds %"class.tint::(anonymous namespace)::Impl", %"class.tint::(anonymous namespace)::Impl"* %0, i64 0, i32 2, i32 8, i32 0
  %273 = ptrtoint %"class.tint::(anonymous namespace)::Builder"* %272 to i64
  %274 = tail call i8* @_Znwm(i64 16) #16
  %275 = bitcast i8* %274 to i32 (...)***
  store i32 (...)** bitcast (i8** getelementptr inbounds ({ [8 x i8*] }, { [8 x i8*] }* @_ZTVN4tint12_GLOBAL__N_112ArrayBuilderE, i64 0, inrange i32 0, i64 2) to i32 (...)**), i32 (...)*** %275, align 8
  %276 = getelementptr inbounds i8, i8* %274, i64 8
  %277 = bitcast i8* %276 to i64*
  store i64 %273, i64* %277, align 8
  %278 = ptrtoint i8* %274 to i64
  %279 = getelementptr inbounds %"class.tint::(anonymous namespace)::Impl", %"class.tint::(anonymous namespace)::Impl"* %0, i64 0, i32 1, i32 0, i32 0, i32 1
  %280 = getelementptr inbounds %"class.tint::(anonymous namespace)::Impl", %"class.tint::(anonymous namespace)::Impl"* %0, i64 0, i32 1, i32 0, i32 0, i32 2, i32 0, i32 0
  %281 = bitcast %"class.std::__1::unique_ptr.4"** %279 to i64*
  %282 = bitcast %"class.tint::BlockAllocator"* %257 to i64*
  %283 = bitcast %"class.std::__1::unique_ptr.4"** %280 to i64*
  %284 = tail call i8* @_Znwm(i64 8) #16
  %285 = getelementptr inbounds i8, i8* %284, i64 8
  %286 = ptrtoint i8* %285 to i64
  %287 = bitcast i8* %284 to i64*
  store i64 %278, i64* %287, align 8
  %288 = ptrtoint i8* %284 to i64
  store i64 %288, i64* %282, align 8
  store i64 %286, i64* %281, align 8
  store i64 %286, i64* %283, align 8
  %289 = getelementptr inbounds %"class.tint::(anonymous namespace)::F32Builder", %"class.tint::(anonymous namespace)::F32Builder"* %270, i64 0, i32 0
  %290 = tail call fastcc %"class.tint::(anonymous namespace)::Builder"* @_ZN4tint12_GLOBAL__N_14Impl3vecEjPNS0_7BuilderE(%"class.tint::(anonymous namespace)::Impl"* %0, i32 2, %"class.tint::(anonymous namespace)::Builder"* %289)
  %291 = tail call fastcc %"class.tint::(anonymous namespace)::Builder"* @_ZN4tint12_GLOBAL__N_14Impl3vecEjPNS0_7BuilderE(%"class.tint::(anonymous namespace)::Impl"* %0, i32 3, %"class.tint::(anonymous namespace)::Builder"* %289)
  %292 = tail call fastcc %"class.tint::(anonymous namespace)::Builder"* @_ZN4tint12_GLOBAL__N_14Impl3vecEjPNS0_7BuilderE(%"class.tint::(anonymous namespace)::Impl"* %0, i32 4, %"class.tint::(anonymous namespace)::Builder"* %289)
  %293 = tail call fastcc %"class.tint::(anonymous namespace)::Builder"* @_ZN4tint12_GLOBAL__N_14Impl3vecEjPNS0_7BuilderE(%"class.tint::(anonymous namespace)::Impl"* %0, i32 4, %"class.tint::(anonymous namespace)::Builder"* %272)
  %294 = getelementptr inbounds %"class.tint::(anonymous namespace)::Impl", %"class.tint::(anonymous namespace)::Impl"* %0, i64 0, i32 2, i32 3, i32 0
  %295 = tail call fastcc %"class.tint::(anonymous namespace)::Builder"* @_ZN4tint12_GLOBAL__N_14Impl3vecEjPNS0_7BuilderE(%"class.tint::(anonymous namespace)::Impl"* %0, i32 2, %"class.tint::(anonymous namespace)::Builder"* %294)
  %296 = tail call fastcc %"class.tint::(anonymous namespace)::Builder"* @_ZN4tint12_GLOBAL__N_14Impl3vecEjPNS0_7BuilderE(%"class.tint::(anonymous namespace)::Impl"* %0, i32 3, %"class.tint::(anonymous namespace)::Builder"* %294)
  %297 = tail call fastcc %"class.tint::(anonymous namespace)::Builder"* @_ZN4tint12_GLOBAL__N_14Impl4vecNEPNS0_7BuilderE(%"class.tint::(anonymous namespace)::Impl"* %0, %"class.tint::(anonymous namespace)::Builder"* %289)
  %298 = tail call fastcc %"class.tint::(anonymous namespace)::Builder"* @_ZN4tint12_GLOBAL__N_14Impl4vecNEPNS0_7BuilderE(%"class.tint::(anonymous namespace)::Impl"* %0, %"class.tint::(anonymous namespace)::Builder"* %272)
  %299 = getelementptr inbounds %"class.tint::(anonymous namespace)::Impl", %"class.tint::(anonymous namespace)::Impl"* %0, i64 0, i32 2, i32 1, i32 0
  %300 = tail call fastcc %"class.tint::(anonymous namespace)::Builder"* @_ZN4tint12_GLOBAL__N_14Impl4vecNEPNS0_7BuilderE(%"class.tint::(anonymous namespace)::Impl"* %0, %"class.tint::(anonymous namespace)::Builder"* %299)
  %301 = tail call i8* @_Znwm(i64 24) #16
  %302 = bitcast i8* %301 to i32 (...)***
  store i32 (...)** bitcast (i8** getelementptr inbounds ({ [8 x i8*] }, { [8 x i8*] }* @_ZTVN4tint12_GLOBAL__N_118OpenSizeMatBuilderE, i64 0, inrange i32 0, i64 2) to i32 (...)**), i32 (...)*** %302, align 8
  %303 = getelementptr inbounds i8, i8* %301, i64 8
  %304 = bitcast i8* %303 to i32*
  store i32 0, i32* %304, align 8
  %305 = getelementptr inbounds i8, i8* %301, i64 12
  %306 = bitcast i8* %305 to i32*
  store i32 0, i32* %306, align 4
  %307 = getelementptr inbounds i8, i8* %301, i64 16
  %308 = bitcast i8* %307 to i64*
  store i64 %271, i64* %308, align 8
  %309 = ptrtoint i8* %301 to i64
  %310 = load %"class.std::__1::unique_ptr.4"*, %"class.std::__1::unique_ptr.4"** %279, align 8
  %311 = load %"class.std::__1::unique_ptr.4"*, %"class.std::__1::unique_ptr.4"** %280, align 8
  %312 = icmp ult %"class.std::__1::unique_ptr.4"* %310, %311
  %313 = ptrtoint %"class.std::__1::unique_ptr.4"* %311 to i64
  br i1 %312, label %314, label %319

314:                                              ; preds = %1
  %315 = bitcast %"class.std::__1::unique_ptr.4"* %310 to i64*
  store i64 %309, i64* %315, align 8
  %316 = getelementptr inbounds %"class.std::__1::unique_ptr.4", %"class.std::__1::unique_ptr.4"* %310, i64 1
  %317 = ptrtoint %"class.std::__1::unique_ptr.4"* %316 to i64
  %318 = bitcast %"class.std::__1::unique_ptr.4"** %279 to i64*
  store i64 %317, i64* %318, align 8
  br label %467

319:                                              ; preds = %1
  %320 = ptrtoint %"class.std::__1::unique_ptr.4"* %310 to i64
  %321 = bitcast %"class.std::__1::unique_ptr.4"** %279 to i64*
  %322 = bitcast %"class.tint::BlockAllocator"* %257 to i64*
  %323 = load i64, i64* %322, align 8
  %324 = sub i64 %320, %323
  %325 = ashr exact i64 %324, 3
  %326 = add nsw i64 %325, 1
  %327 = icmp ugt i64 %326, 2305843009213693951
  br i1 %327, label %328, label %330

328:                                              ; preds = %319
  %329 = bitcast %"class.tint::BlockAllocator"* %257 to %"class.std::__1::__vector_base_common"*
  tail call void @_ZNKSt3__120__vector_base_commonILb1EE20__throw_length_errorEv(%"class.std::__1::__vector_base_common"* %329) #18
  unreachable

330:                                              ; preds = %319
  %331 = bitcast %"class.std::__1::unique_ptr.4"** %280 to i64*
  %332 = sub i64 %313, %323
  %333 = ashr exact i64 %332, 3
  %334 = icmp ult i64 %333, 1152921504606846975
  br i1 %334, label %335, label %343

335:                                              ; preds = %330
  %336 = ashr exact i64 %332, 2
  %337 = icmp ult i64 %336, %326
  %338 = select i1 %337, i64 %326, i64 %336
  %339 = icmp eq i64 %338, 0
  br i1 %339, label %348, label %340

340:                                              ; preds = %335
  %341 = icmp ugt i64 %338, 2305843009213693951
  br i1 %341, label %342, label %343

342:                                              ; preds = %340
  tail call void @abort() #18
  unreachable

343:                                              ; preds = %340, %330
  %344 = phi i64 [ %338, %340 ], [ 2305843009213693951, %330 ]
  %345 = shl i64 %344, 3
  %346 = tail call i8* @_Znwm(i64 %345) #16
  %347 = bitcast i8* %346 to %"class.std::__1::unique_ptr.4"*
  br label %348

348:                                              ; preds = %343, %335
  %349 = phi i64 [ %344, %343 ], [ 0, %335 ]
  %350 = phi %"class.std::__1::unique_ptr.4"* [ %347, %343 ], [ null, %335 ]
  %351 = getelementptr inbounds %"class.std::__1::unique_ptr.4", %"class.std::__1::unique_ptr.4"* %350, i64 %325
  %352 = getelementptr inbounds %"class.std::__1::unique_ptr.4", %"class.std::__1::unique_ptr.4"* %350, i64 %349
  %353 = ptrtoint %"class.std::__1::unique_ptr.4"* %352 to i64
  %354 = bitcast %"class.std::__1::unique_ptr.4"* %351 to i64*
  store i64 %309, i64* %354, align 8
  %355 = getelementptr inbounds %"class.std::__1::unique_ptr.4", %"class.std::__1::unique_ptr.4"* %351, i64 1
  %356 = ptrtoint %"class.std::__1::unique_ptr.4"* %355 to i64
  %357 = getelementptr inbounds %"class.tint::BlockAllocator", %"class.tint::BlockAllocator"* %257, i64 0, i32 0, i32 0, i32 0
  %358 = load %"class.std::__1::unique_ptr.4"*, %"class.std::__1::unique_ptr.4"** %357, align 8
  %359 = ptrtoint %"class.std::__1::unique_ptr.4"* %358 to i64
  %360 = load %"class.std::__1::unique_ptr.4"*, %"class.std::__1::unique_ptr.4"** %279, align 8
  %361 = icmp eq %"class.std::__1::unique_ptr.4"* %360, %358
  br i1 %361, label %443, label %362

362:                                              ; preds = %348
  %363 = getelementptr %"class.std::__1::unique_ptr.4", %"class.std::__1::unique_ptr.4"* %360, i64 -1, i32 0, i32 0, i32 0
  %364 = ptrtoint %"class.tint::(anonymous namespace)::Matcher"** %363 to i64
  %365 = sub i64 %364, %359
  %366 = lshr i64 %365, 3
  %367 = add nuw nsw i64 %366, 1
  %368 = and i64 %367, 7
  %369 = icmp eq i64 %368, 0
  br i1 %369, label %382, label %370

370:                                              ; preds = %362, %370
  %371 = phi %"class.std::__1::unique_ptr.4"* [ %374, %370 ], [ %351, %362 ]
  %372 = phi %"class.std::__1::unique_ptr.4"* [ %375, %370 ], [ %360, %362 ]
  %373 = phi i64 [ %380, %370 ], [ %368, %362 ]
  %374 = getelementptr inbounds %"class.std::__1::unique_ptr.4", %"class.std::__1::unique_ptr.4"* %371, i64 -1
  %375 = getelementptr inbounds %"class.std::__1::unique_ptr.4", %"class.std::__1::unique_ptr.4"* %372, i64 -1
  %376 = getelementptr inbounds %"class.std::__1::unique_ptr.4", %"class.std::__1::unique_ptr.4"* %375, i64 0, i32 0, i32 0, i32 0
  %377 = bitcast %"class.std::__1::unique_ptr.4"* %375 to i64*
  %378 = load i64, i64* %377, align 8
  store %"class.tint::(anonymous namespace)::Matcher"* null, %"class.tint::(anonymous namespace)::Matcher"** %376, align 8
  %379 = bitcast %"class.std::__1::unique_ptr.4"* %374 to i64*
  store i64 %378, i64* %379, align 8
  %380 = add i64 %373, -1
  %381 = icmp eq i64 %380, 0
  br i1 %381, label %382, label %370, !llvm.loop !2

382:                                              ; preds = %370, %362
  %383 = phi %"class.std::__1::unique_ptr.4"* [ undef, %362 ], [ %374, %370 ]
  %384 = phi %"class.std::__1::unique_ptr.4"* [ %351, %362 ], [ %374, %370 ]
  %385 = phi %"class.std::__1::unique_ptr.4"* [ %360, %362 ], [ %375, %370 ]
  %386 = icmp ult i64 %365, 56
  br i1 %386, label %439, label %387

387:                                              ; preds = %382, %387
  %388 = phi %"class.std::__1::unique_ptr.4"* [ %432, %387 ], [ %384, %382 ]
  %389 = phi %"class.std::__1::unique_ptr.4"* [ %433, %387 ], [ %385, %382 ]
  %390 = getelementptr inbounds %"class.std::__1::unique_ptr.4", %"class.std::__1::unique_ptr.4"* %388, i64 -1
  %391 = getelementptr inbounds %"class.std::__1::unique_ptr.4", %"class.std::__1::unique_ptr.4"* %389, i64 -1
  %392 = getelementptr inbounds %"class.std::__1::unique_ptr.4", %"class.std::__1::unique_ptr.4"* %391, i64 0, i32 0, i32 0, i32 0
  %393 = bitcast %"class.std::__1::unique_ptr.4"* %391 to i64*
  %394 = load i64, i64* %393, align 8
  store %"class.tint::(anonymous namespace)::Matcher"* null, %"class.tint::(anonymous namespace)::Matcher"** %392, align 8
  %395 = bitcast %"class.std::__1::unique_ptr.4"* %390 to i64*
  store i64 %394, i64* %395, align 8
  %396 = getelementptr inbounds %"class.std::__1::unique_ptr.4", %"class.std::__1::unique_ptr.4"* %388, i64 -2
  %397 = getelementptr inbounds %"class.std::__1::unique_ptr.4", %"class.std::__1::unique_ptr.4"* %389, i64 -2
  %398 = getelementptr inbounds %"class.std::__1::unique_ptr.4", %"class.std::__1::unique_ptr.4"* %397, i64 0, i32 0, i32 0, i32 0
  %399 = bitcast %"class.std::__1::unique_ptr.4"* %397 to i64*
  %400 = load i64, i64* %399, align 8
  store %"class.tint::(anonymous namespace)::Matcher"* null, %"class.tint::(anonymous namespace)::Matcher"** %398, align 8
  %401 = bitcast %"class.std::__1::unique_ptr.4"* %396 to i64*
  store i64 %400, i64* %401, align 8
  %402 = getelementptr inbounds %"class.std::__1::unique_ptr.4", %"class.std::__1::unique_ptr.4"* %388, i64 -3
  %403 = getelementptr inbounds %"class.std::__1::unique_ptr.4", %"class.std::__1::unique_ptr.4"* %389, i64 -3
  %404 = getelementptr inbounds %"class.std::__1::unique_ptr.4", %"class.std::__1::unique_ptr.4"* %403, i64 0, i32 0, i32 0, i32 0
  %405 = bitcast %"class.std::__1::unique_ptr.4"* %403 to i64*
  %406 = load i64, i64* %405, align 8
  store %"class.tint::(anonymous namespace)::Matcher"* null, %"class.tint::(anonymous namespace)::Matcher"** %404, align 8
  %407 = bitcast %"class.std::__1::unique_ptr.4"* %402 to i64*
  store i64 %406, i64* %407, align 8
  %408 = getelementptr inbounds %"class.std::__1::unique_ptr.4", %"class.std::__1::unique_ptr.4"* %388, i64 -4
  %409 = getelementptr inbounds %"class.std::__1::unique_ptr.4", %"class.std::__1::unique_ptr.4"* %389, i64 -4
  %410 = getelementptr inbounds %"class.std::__1::unique_ptr.4", %"class.std::__1::unique_ptr.4"* %409, i64 0, i32 0, i32 0, i32 0
  %411 = bitcast %"class.std::__1::unique_ptr.4"* %409 to i64*
  %412 = load i64, i64* %411, align 8
  store %"class.tint::(anonymous namespace)::Matcher"* null, %"class.tint::(anonymous namespace)::Matcher"** %410, align 8
  %413 = bitcast %"class.std::__1::unique_ptr.4"* %408 to i64*
  store i64 %412, i64* %413, align 8
  %414 = getelementptr inbounds %"class.std::__1::unique_ptr.4", %"class.std::__1::unique_ptr.4"* %388, i64 -5
  %415 = getelementptr inbounds %"class.std::__1::unique_ptr.4", %"class.std::__1::unique_ptr.4"* %389, i64 -5
  %416 = getelementptr inbounds %"class.std::__1::unique_ptr.4", %"class.std::__1::unique_ptr.4"* %415, i64 0, i32 0, i32 0, i32 0
  %417 = bitcast %"class.std::__1::unique_ptr.4"* %415 to i64*
  %418 = load i64, i64* %417, align 8
  store %"class.tint::(anonymous namespace)::Matcher"* null, %"class.tint::(anonymous namespace)::Matcher"** %416, align 8
  %419 = bitcast %"class.std::__1::unique_ptr.4"* %414 to i64*
  store i64 %418, i64* %419, align 8
  %420 = getelementptr inbounds %"class.std::__1::unique_ptr.4", %"class.std::__1::unique_ptr.4"* %388, i64 -6
  %421 = getelementptr inbounds %"class.std::__1::unique_ptr.4", %"class.std::__1::unique_ptr.4"* %389, i64 -6
  %422 = getelementptr inbounds %"class.std::__1::unique_ptr.4", %"class.std::__1::unique_ptr.4"* %421, i64 0, i32 0, i32 0, i32 0
  %423 = bitcast %"class.std::__1::unique_ptr.4"* %421 to i64*
  %424 = load i64, i64* %423, align 8
  store %"class.tint::(anonymous namespace)::Matcher"* null, %"class.tint::(anonymous namespace)::Matcher"** %422, align 8
  %425 = bitcast %"class.std::__1::unique_ptr.4"* %420 to i64*
  store i64 %424, i64* %425, align 8
  %426 = getelementptr inbounds %"class.std::__1::unique_ptr.4", %"class.std::__1::unique_ptr.4"* %388, i64 -7
  %427 = getelementptr inbounds %"class.std::__1::unique_ptr.4", %"class.std::__1::unique_ptr.4"* %389, i64 -7
  %428 = getelementptr inbounds %"class.std::__1::unique_ptr.4", %"class.std::__1::unique_ptr.4"* %427, i64 0, i32 0, i32 0, i32 0
  %429 = bitcast %"class.std::__1::unique_ptr.4"* %427 to i64*
  %430 = load i64, i64* %429, align 8
  store %"class.tint::(anonymous namespace)::Matcher"* null, %"class.tint::(anonymous namespace)::Matcher"** %428, align 8
  %431 = bitcast %"class.std::__1::unique_ptr.4"* %426 to i64*
  store i64 %430, i64* %431, align 8
  %432 = getelementptr inbounds %"class.std::__1::unique_ptr.4", %"class.std::__1::unique_ptr.4"* %388, i64 -8
  %433 = getelementptr inbounds %"class.std::__1::unique_ptr.4", %"class.std::__1::unique_ptr.4"* %389, i64 -8
  %434 = getelementptr inbounds %"class.std::__1::unique_ptr.4", %"class.std::__1::unique_ptr.4"* %433, i64 0, i32 0, i32 0, i32 0
  %435 = bitcast %"class.std::__1::unique_ptr.4"* %433 to i64*
  %436 = load i64, i64* %435, align 8
  store %"class.tint::(anonymous namespace)::Matcher"* null, %"class.tint::(anonymous namespace)::Matcher"** %434, align 8
  %437 = bitcast %"class.std::__1::unique_ptr.4"* %432 to i64*
  store i64 %436, i64* %437, align 8
  %438 = icmp eq %"class.std::__1::unique_ptr.4"* %433, %358
  br i1 %438, label %439, label %387

439:                                              ; preds = %387, %382
  %440 = phi %"class.std::__1::unique_ptr.4"* [ %383, %382 ], [ %432, %387 ]
  %441 = load i64, i64* %322, align 8
  %442 = load %"class.std::__1::unique_ptr.4"*, %"class.std::__1::unique_ptr.4"** %279, align 8
  br label %443

443:                                              ; preds = %348, %439
  %444 = phi %"class.std::__1::unique_ptr.4"* [ %442, %439 ], [ %358, %348 ]
  %445 = phi %"class.std::__1::unique_ptr.4"* [ %440, %439 ], [ %351, %348 ]
  %446 = phi i64 [ %441, %439 ], [ %359, %348 ]
  %447 = ptrtoint %"class.std::__1::unique_ptr.4"* %445 to i64
  store i64 %447, i64* %322, align 8
  store i64 %356, i64* %321, align 8
  store i64 %353, i64* %331, align 8
  %448 = inttoptr i64 %446 to %"class.std::__1::unique_ptr.4"*
  %449 = icmp eq %"class.std::__1::unique_ptr.4"* %444, %448
  br i1 %449, label %463, label %450

450:                                              ; preds = %443, %461
  %451 = phi %"class.std::__1::unique_ptr.4"* [ %452, %461 ], [ %444, %443 ]
  %452 = getelementptr inbounds %"class.std::__1::unique_ptr.4", %"class.std::__1::unique_ptr.4"* %451, i64 -1
  %453 = getelementptr inbounds %"class.std::__1::unique_ptr.4", %"class.std::__1::unique_ptr.4"* %452, i64 0, i32 0, i32 0, i32 0
  %454 = load %"class.tint::(anonymous namespace)::Matcher"*, %"class.tint::(anonymous namespace)::Matcher"** %453, align 8
  store %"class.tint::(anonymous namespace)::Matcher"* null, %"class.tint::(anonymous namespace)::Matcher"** %453, align 8
  %455 = icmp eq %"class.tint::(anonymous namespace)::Matcher"* %454, null
  br i1 %455, label %461, label %456

456:                                              ; preds = %450
  %457 = bitcast %"class.tint::(anonymous namespace)::Matcher"* %454 to void (%"class.tint::(anonymous namespace)::Matcher"*)***
  %458 = load void (%"class.tint::(anonymous namespace)::Matcher"*)**, void (%"class.tint::(anonymous namespace)::Matcher"*)*** %457, align 8
  %459 = getelementptr inbounds void (%"class.tint::(anonymous namespace)::Matcher"*)*, void (%"class.tint::(anonymous namespace)::Matcher"*)** %458, i64 1
  %460 = load void (%"class.tint::(anonymous namespace)::Matcher"*)*, void (%"class.tint::(anonymous namespace)::Matcher"*)** %459, align 8
  tail call void %460(%"class.tint::(anonymous namespace)::Matcher"* nonnull %454) #17
  br label %461

461:                                              ; preds = %456, %450
  %462 = icmp eq %"class.std::__1::unique_ptr.4"* %452, %448
  br i1 %462, label %463, label %450

463:                                              ; preds = %461, %443
  %464 = icmp eq i64 %446, 0
  br i1 %464, label %467, label %465

465:                                              ; preds = %463
  %466 = inttoptr i64 %446 to i8*
  tail call void @_ZdlPv(i8* %466) #16
  br label %467

467:                                              ; preds = %314, %463, %465
  %468 = tail call fastcc %"class.tint::(anonymous namespace)::Builder"* @_ZN4tint12_GLOBAL__N_14Impl3ptrEPNS0_7BuilderE(%"class.tint::(anonymous namespace)::Impl"* %0, %"class.tint::(anonymous namespace)::Builder"* %272)
  %469 = tail call fastcc %"class.tint::(anonymous namespace)::Builder"* @_ZN4tint12_GLOBAL__N_14Impl3ptrEPNS0_7BuilderE(%"class.tint::(anonymous namespace)::Impl"* %0, %"class.tint::(anonymous namespace)::Builder"* %289)
  %470 = tail call fastcc %"class.tint::(anonymous namespace)::Builder"* @_ZN4tint12_GLOBAL__N_14Impl3ptrEPNS0_7BuilderE(%"class.tint::(anonymous namespace)::Impl"* %0, %"class.tint::(anonymous namespace)::Builder"* nonnull %298)
  %471 = tail call fastcc %"class.tint::(anonymous namespace)::Builder"* @_ZN4tint12_GLOBAL__N_14Impl3ptrEPNS0_7BuilderE(%"class.tint::(anonymous namespace)::Impl"* %0, %"class.tint::(anonymous namespace)::Builder"* nonnull %297)
  %472 = getelementptr inbounds %"class.tint::(anonymous namespace)::Impl", %"class.tint::(anonymous namespace)::Impl"* %0, i64 0, i32 3, i32 0, i32 2, i32 0, i32 0
  %473 = bitcast %"struct.tint::(anonymous namespace)::Impl::Overload"** %472 to i64*
  %474 = load i64, i64* %473, align 8
  %475 = bitcast %"class.std::__1::vector.8"* %268 to i64*
  %476 = load i64, i64* %475, align 8
  %477 = sub i64 %474, %476
  %478 = sdiv exact i64 %477, 80
  %479 = icmp ult i64 %478, 300
  %480 = inttoptr i64 %476 to %"struct.tint::(anonymous namespace)::Impl::Overload"*
  br i1 %479, label %481, label %607

481:                                              ; preds = %467
  %482 = getelementptr inbounds %"class.tint::(anonymous namespace)::Impl", %"class.tint::(anonymous namespace)::Impl"* %0, i64 0, i32 3, i32 0, i32 1
  %483 = bitcast %"struct.tint::(anonymous namespace)::Impl::Overload"** %482 to i64*
  %484 = load i64, i64* %483, align 8
  %485 = sub i64 %484, %476
  %486 = sdiv exact i64 %485, 80
  %487 = tail call i8* @_Znwm(i64 24000) #16
  %488 = bitcast i8* %487 to %"struct.tint::(anonymous namespace)::Impl::Overload"*
  %489 = getelementptr inbounds %"struct.tint::(anonymous namespace)::Impl::Overload", %"struct.tint::(anonymous namespace)::Impl::Overload"* %488, i64 %486
  %490 = ptrtoint %"struct.tint::(anonymous namespace)::Impl::Overload"* %489 to i64
  %491 = getelementptr inbounds i8, i8* %487, i64 24000
  %492 = ptrtoint i8* %491 to i64
  %493 = inttoptr i64 %484 to %"struct.tint::(anonymous namespace)::Impl::Overload"*
  %494 = icmp eq %"struct.tint::(anonymous namespace)::Impl::Overload"* %493, %480
  br i1 %494, label %495, label %496

495:                                              ; preds = %481
  store i64 %490, i64* %475, align 8
  store i64 %490, i64* %483, align 8
  store i64 %492, i64* %473, align 8
  br label %602

496:                                              ; preds = %481, %565
  %497 = phi %"struct.tint::(anonymous namespace)::Impl::Overload"* [ %499, %565 ], [ %489, %481 ]
  %498 = phi %"struct.tint::(anonymous namespace)::Impl::Overload"* [ %500, %565 ], [ %493, %481 ]
  %499 = getelementptr inbounds %"struct.tint::(anonymous namespace)::Impl::Overload", %"struct.tint::(anonymous namespace)::Impl::Overload"* %497, i64 -1
  %500 = getelementptr inbounds %"struct.tint::(anonymous namespace)::Impl::Overload", %"struct.tint::(anonymous namespace)::Impl::Overload"* %498, i64 -1
  %501 = bitcast %"struct.tint::(anonymous namespace)::Impl::Overload"* %499 to i8*
  %502 = bitcast %"struct.tint::(anonymous namespace)::Impl::Overload"* %500 to i8*
  tail call void @llvm.memcpy.p0i8.p0i8.i64(i8* align 8 %501, i8* align 8 %502, i64 16, i1 false) #17
  %503 = getelementptr inbounds %"struct.tint::(anonymous namespace)::Impl::Overload", %"struct.tint::(anonymous namespace)::Impl::Overload"* %497, i64 -1, i32 2
  %504 = getelementptr inbounds %"struct.tint::(anonymous namespace)::Impl::Overload", %"struct.tint::(anonymous namespace)::Impl::Overload"* %498, i64 -1, i32 2
  %505 = bitcast %"class.std::__1::vector.10"* %503 to i8*
  tail call void @llvm.memset.p0i8.i64(i8* align 8 %505, i8 0, i64 24, i1 false) #17
  %506 = bitcast %"class.std::__1::vector.10"* %504 to i64*
  %507 = load i64, i64* %506, align 8
  %508 = bitcast %"class.std::__1::vector.10"* %503 to i64*
  store i64 %507, i64* %508, align 8
  %509 = getelementptr inbounds %"struct.tint::(anonymous namespace)::Impl::Overload", %"struct.tint::(anonymous namespace)::Impl::Overload"* %498, i64 -1, i32 2, i32 0, i32 1
  %510 = bitcast %"struct.tint::(anonymous namespace)::Impl::Parameter"** %509 to i64*
  %511 = load i64, i64* %510, align 8
  %512 = getelementptr inbounds %"struct.tint::(anonymous namespace)::Impl::Overload", %"struct.tint::(anonymous namespace)::Impl::Overload"* %497, i64 -1, i32 2, i32 0, i32 1
  %513 = bitcast %"struct.tint::(anonymous namespace)::Impl::Parameter"** %512 to i64*
  store i64 %511, i64* %513, align 8
  %514 = getelementptr inbounds %"struct.tint::(anonymous namespace)::Impl::Overload", %"struct.tint::(anonymous namespace)::Impl::Overload"* %498, i64 -1, i32 2, i32 0, i32 2, i32 0, i32 0
  %515 = bitcast %"struct.tint::(anonymous namespace)::Impl::Parameter"** %514 to i64*
  %516 = load i64, i64* %515, align 8
  %517 = getelementptr inbounds %"struct.tint::(anonymous namespace)::Impl::Overload", %"struct.tint::(anonymous namespace)::Impl::Overload"* %497, i64 -1, i32 2, i32 0, i32 2, i32 0, i32 0
  %518 = bitcast %"struct.tint::(anonymous namespace)::Impl::Parameter"** %517 to i64*
  store i64 %516, i64* %518, align 8
  %519 = bitcast %"class.std::__1::vector.10"* %504 to i8*
  tail call void @llvm.memset.p0i8.i64(i8* align 8 %519, i8 0, i64 24, i1 false) #17
  %520 = getelementptr inbounds %"struct.tint::(anonymous namespace)::Impl::Overload", %"struct.tint::(anonymous namespace)::Impl::Overload"* %497, i64 -1, i32 3
  %521 = getelementptr inbounds %"struct.tint::(anonymous namespace)::Impl::Overload", %"struct.tint::(anonymous namespace)::Impl::Overload"* %498, i64 -1, i32 3
  %522 = getelementptr inbounds %"class.std::__1::unordered_map", %"class.std::__1::unordered_map"* %521, i64 0, i32 0, i32 0, i32 0, i32 0, i32 0
  %523 = bitcast %"class.std::__1::unordered_map"* %521 to i64*
  %524 = load i64, i64* %523, align 8
  store %"struct.std::__1::__hash_node_base"** null, %"struct.std::__1::__hash_node_base"*** %522, align 8
  %525 = bitcast %"class.std::__1::unordered_map"* %520 to i64*
  store i64 %524, i64* %525, align 8
  %526 = getelementptr inbounds %"struct.tint::(anonymous namespace)::Impl::Overload", %"struct.tint::(anonymous namespace)::Impl::Overload"* %498, i64 -1, i32 3, i32 0, i32 0, i32 0, i32 1, i32 0, i32 0, i32 0, i32 0
  %527 = getelementptr inbounds %"struct.tint::(anonymous namespace)::Impl::Overload", %"struct.tint::(anonymous namespace)::Impl::Overload"* %497, i64 -1, i32 3, i32 0, i32 0, i32 0, i32 1, i32 0, i32 0, i32 0, i32 0
  %528 = load i64, i64* %526, align 8
  store i64 %528, i64* %527, align 8
  store i64 0, i64* %526, align 8
  %529 = getelementptr inbounds %"struct.tint::(anonymous namespace)::Impl::Overload", %"struct.tint::(anonymous namespace)::Impl::Overload"* %497, i64 -1, i32 3, i32 0, i32 1
  %530 = getelementptr inbounds %"struct.tint::(anonymous namespace)::Impl::Overload", %"struct.tint::(anonymous namespace)::Impl::Overload"* %498, i64 -1, i32 3, i32 0, i32 1
  %531 = bitcast %"class.std::__1::__compressed_pair.26"* %530 to i64*
  %532 = bitcast %"class.std::__1::__compressed_pair.26"* %529 to i64*
  %533 = load i64, i64* %531, align 8
  store i64 %533, i64* %532, align 8
  %534 = getelementptr inbounds %"struct.tint::(anonymous namespace)::Impl::Overload", %"struct.tint::(anonymous namespace)::Impl::Overload"* %498, i64 -1, i32 3, i32 0, i32 2, i32 0, i32 0
  %535 = getelementptr inbounds %"struct.tint::(anonymous namespace)::Impl::Overload", %"struct.tint::(anonymous namespace)::Impl::Overload"* %497, i64 -1, i32 3, i32 0, i32 2, i32 0, i32 0
  %536 = load i64, i64* %534, align 8
  store i64 %536, i64* %535, align 8
  %537 = getelementptr inbounds %"struct.tint::(anonymous namespace)::Impl::Overload", %"struct.tint::(anonymous namespace)::Impl::Overload"* %497, i64 -1, i32 3, i32 0, i32 3
  %538 = getelementptr inbounds %"struct.tint::(anonymous namespace)::Impl::Overload", %"struct.tint::(anonymous namespace)::Impl::Overload"* %498, i64 -1, i32 3, i32 0, i32 3
  %539 = bitcast %"class.std::__1::__compressed_pair.33"* %538 to i32*
  %540 = bitcast %"class.std::__1::__compressed_pair.33"* %537 to i32*
  %541 = load i32, i32* %539, align 4
  store i32 %541, i32* %540, align 8
  %542 = icmp eq i64 %536, 0
  br i1 %542, label %565, label %543

543:                                              ; preds = %496
  %544 = inttoptr i64 %533 to %"struct.std::__1::__hash_node_base"*
  %545 = getelementptr inbounds %"class.std::__1::__compressed_pair.26", %"class.std::__1::__compressed_pair.26"* %529, i64 0, i32 0, i32 0
  %546 = getelementptr inbounds %"struct.std::__1::__hash_node_base", %"struct.std::__1::__hash_node_base"* %544, i64 1
  %547 = bitcast %"struct.std::__1::__hash_node_base"* %546 to i64*
  %548 = load i64, i64* %547, align 8
  %549 = load i64, i64* %527, align 8
  %550 = tail call i64 @llvm.ctpop.i64(i64 %549) #17, !range !4
  %551 = icmp ugt i64 %550, 1
  br i1 %551, label %555, label %552

552:                                              ; preds = %543
  %553 = add i64 %549, -1
  %554 = and i64 %553, %548
  br label %559

555:                                              ; preds = %543
  %556 = icmp ult i64 %548, %549
  br i1 %556, label %559, label %557

557:                                              ; preds = %555
  %558 = urem i64 %548, %549
  br label %559

559:                                              ; preds = %557, %555, %552
  %560 = phi i64 [ %554, %552 ], [ %558, %557 ], [ %548, %555 ]
  %561 = getelementptr inbounds %"class.std::__1::unordered_map", %"class.std::__1::unordered_map"* %520, i64 0, i32 0, i32 0, i32 0, i32 0, i32 0
  %562 = load %"struct.std::__1::__hash_node_base"**, %"struct.std::__1::__hash_node_base"*** %561, align 8
  %563 = getelementptr inbounds %"struct.std::__1::__hash_node_base"*, %"struct.std::__1::__hash_node_base"** %562, i64 %560
  store %"struct.std::__1::__hash_node_base"* %545, %"struct.std::__1::__hash_node_base"** %563, align 8
  %564 = bitcast %"class.std::__1::__compressed_pair.26"* %530 to i8*
  tail call void @llvm.memset.p0i8.i64(i8* align 8 %564, i8 0, i64 16, i1 false) #17
  br label %565

565:                                              ; preds = %559, %496
  %566 = icmp eq %"struct.tint::(anonymous namespace)::Impl::Overload"* %500, %480
  br i1 %566, label %567, label %496

567:                                              ; preds = %565
  %568 = ptrtoint %"struct.tint::(anonymous namespace)::Impl::Overload"* %499 to i64
  %569 = load i64, i64* %475, align 8
  %570 = load %"struct.tint::(anonymous namespace)::Impl::Overload"*, %"struct.tint::(anonymous namespace)::Impl::Overload"** %482, align 8
  %571 = inttoptr i64 %569 to %"struct.tint::(anonymous namespace)::Impl::Overload"*
  store i64 %568, i64* %475, align 8
  store i64 %490, i64* %483, align 8
  store i64 %492, i64* %473, align 8
  %572 = icmp eq %"struct.tint::(anonymous namespace)::Impl::Overload"* %570, %571
  br i1 %572, label %602, label %573

573:                                              ; preds = %567, %600
  %574 = phi %"struct.tint::(anonymous namespace)::Impl::Overload"* [ %575, %600 ], [ %570, %567 ]
  %575 = getelementptr inbounds %"struct.tint::(anonymous namespace)::Impl::Overload", %"struct.tint::(anonymous namespace)::Impl::Overload"* %574, i64 -1
  %576 = getelementptr inbounds %"struct.tint::(anonymous namespace)::Impl::Overload", %"struct.tint::(anonymous namespace)::Impl::Overload"* %574, i64 -1, i32 3, i32 0, i32 1, i32 0, i32 0, i32 0
  %577 = load %"struct.std::__1::__hash_node_base"*, %"struct.std::__1::__hash_node_base"** %576, align 8
  %578 = icmp eq %"struct.std::__1::__hash_node_base"* %577, null
  br i1 %578, label %585, label %579

579:                                              ; preds = %573, %579
  %580 = phi %"struct.std::__1::__hash_node_base"* [ %582, %579 ], [ %577, %573 ]
  %581 = getelementptr inbounds %"struct.std::__1::__hash_node_base", %"struct.std::__1::__hash_node_base"* %580, i64 0, i32 0
  %582 = load %"struct.std::__1::__hash_node_base"*, %"struct.std::__1::__hash_node_base"** %581, align 8
  %583 = bitcast %"struct.std::__1::__hash_node_base"* %580 to i8*
  tail call void @_ZdlPv(i8* %583) #16
  %584 = icmp eq %"struct.std::__1::__hash_node_base"* %582, null
  br i1 %584, label %585, label %579

585:                                              ; preds = %579, %573
  %586 = getelementptr inbounds %"struct.tint::(anonymous namespace)::Impl::Overload", %"struct.tint::(anonymous namespace)::Impl::Overload"* %574, i64 -1, i32 3, i32 0, i32 0, i32 0, i32 0, i32 0
  %587 = load %"struct.std::__1::__hash_node_base"**, %"struct.std::__1::__hash_node_base"*** %586, align 8
  store %"struct.std::__1::__hash_node_base"** null, %"struct.std::__1::__hash_node_base"*** %586, align 8
  %588 = icmp eq %"struct.std::__1::__hash_node_base"** %587, null
  br i1 %588, label %591, label %589

589:                                              ; preds = %585
  %590 = bitcast %"struct.std::__1::__hash_node_base"** %587 to i8*
  tail call void @_ZdlPv(i8* %590) #16
  br label %591

591:                                              ; preds = %589, %585
  %592 = getelementptr inbounds %"struct.tint::(anonymous namespace)::Impl::Overload", %"struct.tint::(anonymous namespace)::Impl::Overload"* %574, i64 -1, i32 2, i32 0, i32 0
  %593 = load %"struct.tint::(anonymous namespace)::Impl::Parameter"*, %"struct.tint::(anonymous namespace)::Impl::Parameter"** %592, align 8
  %594 = icmp eq %"struct.tint::(anonymous namespace)::Impl::Parameter"* %593, null
  br i1 %594, label %600, label %595

595:                                              ; preds = %591
  %596 = ptrtoint %"struct.tint::(anonymous namespace)::Impl::Parameter"* %593 to i64
  %597 = getelementptr inbounds %"struct.tint::(anonymous namespace)::Impl::Overload", %"struct.tint::(anonymous namespace)::Impl::Overload"* %574, i64 -1, i32 2, i32 0, i32 1
  %598 = bitcast %"struct.tint::(anonymous namespace)::Impl::Parameter"** %597 to i64*
  store i64 %596, i64* %598, align 8
  %599 = bitcast %"struct.tint::(anonymous namespace)::Impl::Parameter"* %593 to i8*
  tail call void @_ZdlPv(i8* %599) #16
  br label %600

600:                                              ; preds = %595, %591
  %601 = icmp eq %"struct.tint::(anonymous namespace)::Impl::Overload"* %575, %571
  br i1 %601, label %602, label %573

602:                                              ; preds = %600, %495, %567
  %603 = phi i64 [ %484, %495 ], [ %569, %567 ], [ %569, %600 ]
  %604 = icmp eq i64 %603, 0
  br i1 %604, label %607, label %605

605:                                              ; preds = %602
  %606 = inttoptr i64 %603 to i8*
  tail call void @_ZdlPv(i8* %606) #16
  br label %607

607:                                              ; preds = %467, %602, %605
  %608 = tail call i8* @_Znwm(i64 16) #16
  %609 = getelementptr inbounds %"class.std::__1::vector.10", %"class.std::__1::vector.10"* %236, i64 0, i32 0, i32 1
  %610 = bitcast %"class.std::__1::vector.10"* %236 to i8**
  store i8* %608, i8** %610, align 8
  %611 = getelementptr inbounds i8, i8* %608, i64 16
  %612 = getelementptr inbounds %"class.std::__1::vector.10", %"class.std::__1::vector.10"* %236, i64 0, i32 0, i32 2, i32 0, i32 0
  %613 = bitcast %"struct.tint::(anonymous namespace)::Impl::Parameter"** %612 to i8**
  store i8* %611, i8** %613, align 8
  %614 = bitcast %"struct.tint::(anonymous namespace)::Impl::Parameter"** %609 to i64*
  %615 = bitcast i8* %608 to %"class.tint::(anonymous namespace)::Builder"**
  store %"class.tint::(anonymous namespace)::Builder"* %272, %"class.tint::(anonymous namespace)::Builder"** %615, align 8
  %616 = getelementptr inbounds i8, i8* %608, i64 8
  %617 = bitcast i8* %616 to i32*
  store i32 0, i32* %617, align 8
  %618 = ptrtoint i8* %611 to i64
  store i64 %618, i64* %614, align 8
  %619 = getelementptr inbounds %"class.tint::(anonymous namespace)::Impl", %"class.tint::(anonymous namespace)::Impl"* %0, i64 0, i32 2, i32 5, i32 0
  call fastcc void @_ZN4tint12_GLOBAL__N_14Impl8RegisterENS_3sem13IntrinsicTypeEPNS0_7BuilderENSt3__16vectorINS1_9ParameterENS6_9allocatorIS8_EEEENS6_4pairINS0_8OpenTypeEPNS0_7MatcherEEE(%"class.tint::(anonymous namespace)::Impl"* %0, i32 0, %"class.tint::(anonymous namespace)::Builder"* %272, %"class.std::__1::vector.10"* nonnull %236, i32 0, %"class.tint::(anonymous namespace)::Matcher"* %619)
  %620 = getelementptr inbounds %"class.std::__1::vector.10", %"class.std::__1::vector.10"* %236, i64 0, i32 0, i32 0
  %621 = load %"struct.tint::(anonymous namespace)::Impl::Parameter"*, %"struct.tint::(anonymous namespace)::Impl::Parameter"** %620, align 8
  %622 = icmp eq %"struct.tint::(anonymous namespace)::Impl::Parameter"* %621, null
  br i1 %622, label %626, label %623

623:                                              ; preds = %607
  %624 = ptrtoint %"struct.tint::(anonymous namespace)::Impl::Parameter"* %621 to i64
  store i64 %624, i64* %614, align 8
  %625 = bitcast %"struct.tint::(anonymous namespace)::Impl::Parameter"* %621 to i8*
  tail call void @_ZdlPv(i8* %625) #16
  br label %626

626:                                              ; preds = %607, %623
  %627 = tail call i8* @_Znwm(i64 16) #16
  %628 = getelementptr inbounds %"class.std::__1::vector.10", %"class.std::__1::vector.10"* %237, i64 0, i32 0, i32 1
  %629 = bitcast %"class.std::__1::vector.10"* %237 to i8**
  store i8* %627, i8** %629, align 8
  %630 = getelementptr inbounds i8, i8* %627, i64 16
  %631 = getelementptr inbounds %"class.std::__1::vector.10", %"class.std::__1::vector.10"* %237, i64 0, i32 0, i32 2, i32 0, i32 0
  %632 = bitcast %"struct.tint::(anonymous namespace)::Impl::Parameter"** %631 to i8**
  store i8* %630, i8** %632, align 8
  %633 = bitcast %"struct.tint::(anonymous namespace)::Impl::Parameter"** %628 to i64*
  %634 = bitcast i8* %627 to %"class.tint::(anonymous namespace)::Builder"**
  store %"class.tint::(anonymous namespace)::Builder"* %298, %"class.tint::(anonymous namespace)::Builder"** %634, align 8
  %635 = getelementptr inbounds i8, i8* %627, i64 8
  %636 = bitcast i8* %635 to i32*
  store i32 0, i32* %636, align 8
  %637 = ptrtoint i8* %630 to i64
  store i64 %637, i64* %633, align 8
  call fastcc void @_ZN4tint12_GLOBAL__N_14Impl8RegisterENS_3sem13IntrinsicTypeEPNS0_7BuilderENSt3__16vectorINS1_9ParameterENS6_9allocatorIS8_EEEENS6_4pairINS0_8OpenTypeEPNS0_7MatcherEEE(%"class.tint::(anonymous namespace)::Impl"* %0, i32 0, %"class.tint::(anonymous namespace)::Builder"* nonnull %298, %"class.std::__1::vector.10"* nonnull %237, i32 0, %"class.tint::(anonymous namespace)::Matcher"* %619)
  %638 = getelementptr inbounds %"class.std::__1::vector.10", %"class.std::__1::vector.10"* %237, i64 0, i32 0, i32 0
  %639 = load %"struct.tint::(anonymous namespace)::Impl::Parameter"*, %"struct.tint::(anonymous namespace)::Impl::Parameter"** %638, align 8
  %640 = icmp eq %"struct.tint::(anonymous namespace)::Impl::Parameter"* %639, null
  br i1 %640, label %644, label %641

641:                                              ; preds = %626
  %642 = ptrtoint %"struct.tint::(anonymous namespace)::Impl::Parameter"* %639 to i64
  store i64 %642, i64* %633, align 8
  %643 = bitcast %"struct.tint::(anonymous namespace)::Impl::Parameter"* %639 to i8*
  tail call void @_ZdlPv(i8* %643) #16
  br label %644

644:                                              ; preds = %626, %641
  %645 = tail call i8* @_Znwm(i64 16) #16
  %646 = ptrtoint i8* %645 to i64
  %647 = getelementptr inbounds i8, i8* %645, i64 16
  %648 = ptrtoint i8* %647 to i64
  %649 = bitcast i8* %645 to %"class.tint::(anonymous namespace)::Builder"**
  store %"class.tint::(anonymous namespace)::Builder"* %289, %"class.tint::(anonymous namespace)::Builder"** %649, align 8
  %650 = getelementptr inbounds i8, i8* %645, i64 8
  %651 = bitcast i8* %650 to i32*
  store i32 0, i32* %651, align 8
  %652 = bitcast %"struct.tint::(anonymous namespace)::Impl::Overload"* %235 to i8*
  call void @llvm.lifetime.start.p0i8(i64 80, i8* nonnull %652) #17
  call void @llvm.memcpy.p0i8.p0i8.i64(i8* nonnull align 8 %652, i8* align 8 bitcast ({ i32, [4 x i8], %"class.tint::(anonymous namespace)::Builder"*, %"class.std::__1::vector.10", %"class.std::__1::unordered_map" }* @__const._ZN4tint12_GLOBAL__N_14Impl8RegisterENS_3sem13IntrinsicTypeEPNS0_7BuilderENSt3__16vectorINS1_9ParameterENS6_9allocatorIS8_EEEE.overload to i8*), i64 80, i1 false) #17
  %653 = getelementptr inbounds %"struct.tint::(anonymous namespace)::Impl::Overload", %"struct.tint::(anonymous namespace)::Impl::Overload"* %235, i64 0, i32 0
  store i32 1, i32* %653, align 8
  %654 = getelementptr inbounds %"struct.tint::(anonymous namespace)::Impl::Overload", %"struct.tint::(anonymous namespace)::Impl::Overload"* %235, i64 0, i32 1
  store %"class.tint::(anonymous namespace)::Builder"* %289, %"class.tint::(anonymous namespace)::Builder"** %654, align 8
  %655 = getelementptr inbounds %"struct.tint::(anonymous namespace)::Impl::Overload", %"struct.tint::(anonymous namespace)::Impl::Overload"* %235, i64 0, i32 2
  %656 = bitcast %"class.std::__1::vector.10"* %655 to i64*
  store i64 %646, i64* %656, align 8
  %657 = getelementptr inbounds %"struct.tint::(anonymous namespace)::Impl::Overload", %"struct.tint::(anonymous namespace)::Impl::Overload"* %235, i64 0, i32 2, i32 0, i32 1
  %658 = bitcast %"struct.tint::(anonymous namespace)::Impl::Parameter"** %657 to i64*
  store i64 %648, i64* %658, align 8
  %659 = getelementptr inbounds %"struct.tint::(anonymous namespace)::Impl::Overload", %"struct.tint::(anonymous namespace)::Impl::Overload"* %235, i64 0, i32 2, i32 0, i32 2, i32 0, i32 0
  %660 = bitcast %"struct.tint::(anonymous namespace)::Impl::Parameter"** %659 to i64*
  store i64 %648, i64* %660, align 8
  %661 = getelementptr inbounds %"struct.tint::(anonymous namespace)::Impl::Overload", %"struct.tint::(anonymous namespace)::Impl::Overload"* %235, i64 0, i32 3
  %662 = getelementptr inbounds %"struct.tint::(anonymous namespace)::Impl::Overload", %"struct.tint::(anonymous namespace)::Impl::Overload"* %235, i64 0, i32 3, i32 0, i32 3
  %663 = bitcast %"class.std::__1::__compressed_pair.33"* %662 to i32*
  %664 = bitcast %"class.std::__1::unordered_map"* %661 to i8*
  call void @llvm.memset.p0i8.i64(i8* align 8 %664, i8 0, i64 32, i1 false) #17
  store i32 1065353216, i32* %663, align 8
  call fastcc void @_ZNSt3__16vectorIN4tint12_GLOBAL__N_14Impl8OverloadENS_9allocatorIS4_EEE12emplace_backIJS4_EEEvDpOT_(%"class.std::__1::vector.8"* %268, %"struct.tint::(anonymous namespace)::Impl::Overload"* nonnull dereferenceable(80) %235) #17
  %665 = getelementptr inbounds %"struct.tint::(anonymous namespace)::Impl::Overload", %"struct.tint::(anonymous namespace)::Impl::Overload"* %235, i64 0, i32 3, i32 0, i32 1, i32 0, i32 0, i32 0
  %666 = load %"struct.std::__1::__hash_node_base"*, %"struct.std::__1::__hash_node_base"** %665, align 8
  %667 = icmp eq %"struct.std::__1::__hash_node_base"* %666, null
  br i1 %667, label %674, label %668

668:                                              ; preds = %644, %668
  %669 = phi %"struct.std::__1::__hash_node_base"* [ %671, %668 ], [ %666, %644 ]
  %670 = getelementptr inbounds %"struct.std::__1::__hash_node_base", %"struct.std::__1::__hash_node_base"* %669, i64 0, i32 0
  %671 = load %"struct.std::__1::__hash_node_base"*, %"struct.std::__1::__hash_node_base"** %670, align 8
  %672 = bitcast %"struct.std::__1::__hash_node_base"* %669 to i8*
  tail call void @_ZdlPv(i8* %672) #16
  %673 = icmp eq %"struct.std::__1::__hash_node_base"* %671, null
  br i1 %673, label %674, label %668

674:                                              ; preds = %668, %644
  %675 = getelementptr inbounds %"struct.tint::(anonymous namespace)::Impl::Overload", %"struct.tint::(anonymous namespace)::Impl::Overload"* %235, i64 0, i32 3, i32 0, i32 0, i32 0, i32 0, i32 0
  %676 = load %"struct.std::__1::__hash_node_base"**, %"struct.std::__1::__hash_node_base"*** %675, align 8
  store %"struct.std::__1::__hash_node_base"** null, %"struct.std::__1::__hash_node_base"*** %675, align 8
  %677 = icmp eq %"struct.std::__1::__hash_node_base"** %676, null
  br i1 %677, label %680, label %678

678:                                              ; preds = %674
  %679 = bitcast %"struct.std::__1::__hash_node_base"** %676 to i8*
  tail call void @_ZdlPv(i8* %679) #16
  br label %680

680:                                              ; preds = %678, %674
  %681 = getelementptr inbounds %"struct.tint::(anonymous namespace)::Impl::Overload", %"struct.tint::(anonymous namespace)::Impl::Overload"* %235, i64 0, i32 2, i32 0, i32 0
  %682 = load %"struct.tint::(anonymous namespace)::Impl::Parameter"*, %"struct.tint::(anonymous namespace)::Impl::Parameter"** %681, align 8
  %683 = icmp eq %"struct.tint::(anonymous namespace)::Impl::Parameter"* %682, null
  br i1 %683, label %687, label %684

684:                                              ; preds = %680
  %685 = ptrtoint %"struct.tint::(anonymous namespace)::Impl::Parameter"* %682 to i64
  store i64 %685, i64* %658, align 8
  %686 = bitcast %"struct.tint::(anonymous namespace)::Impl::Parameter"* %682 to i8*
  tail call void @_ZdlPv(i8* %686) #16
  br label %687

687:                                              ; preds = %684, %680
  call void @llvm.lifetime.end.p0i8(i64 80, i8* nonnull %652) #17
  %688 = tail call i8* @_Znwm(i64 16) #16
  %689 = ptrtoint i8* %688 to i64
  %690 = getelementptr inbounds i8, i8* %688, i64 16
  %691 = ptrtoint i8* %690 to i64
  %692 = bitcast i8* %688 to %"class.tint::(anonymous namespace)::Builder"**
  store %"class.tint::(anonymous namespace)::Builder"* %297, %"class.tint::(anonymous namespace)::Builder"** %692, align 8
  %693 = getelementptr inbounds i8, i8* %688, i64 8
  %694 = bitcast i8* %693 to i32*
  store i32 0, i32* %694, align 8
  %695 = bitcast %"struct.tint::(anonymous namespace)::Impl::Overload"* %234 to i8*
  call void @llvm.lifetime.start.p0i8(i64 80, i8* nonnull %695) #17
  call void @llvm.memcpy.p0i8.p0i8.i64(i8* nonnull align 8 %695, i8* align 8 bitcast ({ i32, [4 x i8], %"class.tint::(anonymous namespace)::Builder"*, %"class.std::__1::vector.10", %"class.std::__1::unordered_map" }* @__const._ZN4tint12_GLOBAL__N_14Impl8RegisterENS_3sem13IntrinsicTypeEPNS0_7BuilderENSt3__16vectorINS1_9ParameterENS6_9allocatorIS8_EEEE.overload to i8*), i64 80, i1 false) #17
  %696 = getelementptr inbounds %"struct.tint::(anonymous namespace)::Impl::Overload", %"struct.tint::(anonymous namespace)::Impl::Overload"* %234, i64 0, i32 0
  store i32 1, i32* %696, align 8
  %697 = getelementptr inbounds %"struct.tint::(anonymous namespace)::Impl::Overload", %"struct.tint::(anonymous namespace)::Impl::Overload"* %234, i64 0, i32 1
  store %"class.tint::(anonymous namespace)::Builder"* %297, %"class.tint::(anonymous namespace)::Builder"** %697, align 8
  %698 = getelementptr inbounds %"struct.tint::(anonymous namespace)::Impl::Overload", %"struct.tint::(anonymous namespace)::Impl::Overload"* %234, i64 0, i32 2
  %699 = bitcast %"class.std::__1::vector.10"* %698 to i64*
  store i64 %689, i64* %699, align 8
  %700 = getelementptr inbounds %"struct.tint::(anonymous namespace)::Impl::Overload", %"struct.tint::(anonymous namespace)::Impl::Overload"* %234, i64 0, i32 2, i32 0, i32 1
  %701 = bitcast %"struct.tint::(anonymous namespace)::Impl::Parameter"** %700 to i64*
  store i64 %691, i64* %701, align 8
  %702 = getelementptr inbounds %"struct.tint::(anonymous namespace)::Impl::Overload", %"struct.tint::(anonymous namespace)::Impl::Overload"* %234, i64 0, i32 2, i32 0, i32 2, i32 0, i32 0
  %703 = bitcast %"struct.tint::(anonymous namespace)::Impl::Parameter"** %702 to i64*
  store i64 %691, i64* %703, align 8
  %704 = getelementptr inbounds %"struct.tint::(anonymous namespace)::Impl::Overload", %"struct.tint::(anonymous namespace)::Impl::Overload"* %234, i64 0, i32 3
  %705 = getelementptr inbounds %"struct.tint::(anonymous namespace)::Impl::Overload", %"struct.tint::(anonymous namespace)::Impl::Overload"* %234, i64 0, i32 3, i32 0, i32 3
  %706 = bitcast %"class.std::__1::__compressed_pair.33"* %705 to i32*
  %707 = bitcast %"class.std::__1::unordered_map"* %704 to i8*
  call void @llvm.memset.p0i8.i64(i8* align 8 %707, i8 0, i64 32, i1 false) #17
  store i32 1065353216, i32* %706, align 8
  call fastcc void @_ZNSt3__16vectorIN4tint12_GLOBAL__N_14Impl8OverloadENS_9allocatorIS4_EEE12emplace_backIJS4_EEEvDpOT_(%"class.std::__1::vector.8"* %268, %"struct.tint::(anonymous namespace)::Impl::Overload"* nonnull dereferenceable(80) %234) #17
  %708 = getelementptr inbounds %"struct.tint::(anonymous namespace)::Impl::Overload", %"struct.tint::(anonymous namespace)::Impl::Overload"* %234, i64 0, i32 3, i32 0, i32 1, i32 0, i32 0, i32 0
  %709 = load %"struct.std::__1::__hash_node_base"*, %"struct.std::__1::__hash_node_base"** %708, align 8
  %710 = icmp eq %"struct.std::__1::__hash_node_base"* %709, null
  br i1 %710, label %717, label %711

711:                                              ; preds = %687, %711
  %712 = phi %"struct.std::__1::__hash_node_base"* [ %714, %711 ], [ %709, %687 ]
  %713 = getelementptr inbounds %"struct.std::__1::__hash_node_base", %"struct.std::__1::__hash_node_base"* %712, i64 0, i32 0
  %714 = load %"struct.std::__1::__hash_node_base"*, %"struct.std::__1::__hash_node_base"** %713, align 8
  %715 = bitcast %"struct.std::__1::__hash_node_base"* %712 to i8*
  tail call void @_ZdlPv(i8* %715) #16
  %716 = icmp eq %"struct.std::__1::__hash_node_base"* %714, null
  br i1 %716, label %717, label %711

717:                                              ; preds = %711, %687
  %718 = getelementptr inbounds %"struct.tint::(anonymous namespace)::Impl::Overload", %"struct.tint::(anonymous namespace)::Impl::Overload"* %234, i64 0, i32 3, i32 0, i32 0, i32 0, i32 0, i32 0
  %719 = load %"struct.std::__1::__hash_node_base"**, %"struct.std::__1::__hash_node_base"*** %718, align 8
  store %"struct.std::__1::__hash_node_base"** null, %"struct.std::__1::__hash_node_base"*** %718, align 8
  %720 = icmp eq %"struct.std::__1::__hash_node_base"** %719, null
  br i1 %720, label %723, label %721

721:                                              ; preds = %717
  %722 = bitcast %"struct.std::__1::__hash_node_base"** %719 to i8*
  tail call void @_ZdlPv(i8* %722) #16
  br label %723

723:                                              ; preds = %721, %717
  %724 = getelementptr inbounds %"struct.tint::(anonymous namespace)::Impl::Overload", %"struct.tint::(anonymous namespace)::Impl::Overload"* %234, i64 0, i32 2, i32 0, i32 0
  %725 = load %"struct.tint::(anonymous namespace)::Impl::Parameter"*, %"struct.tint::(anonymous namespace)::Impl::Parameter"** %724, align 8
  %726 = icmp eq %"struct.tint::(anonymous namespace)::Impl::Parameter"* %725, null
  br i1 %726, label %730, label %727

727:                                              ; preds = %723
  %728 = ptrtoint %"struct.tint::(anonymous namespace)::Impl::Parameter"* %725 to i64
  store i64 %728, i64* %701, align 8
  %729 = bitcast %"struct.tint::(anonymous namespace)::Impl::Parameter"* %725 to i8*
  tail call void @_ZdlPv(i8* %729) #16
  br label %730

730:                                              ; preds = %727, %723
  call void @llvm.lifetime.end.p0i8(i64 80, i8* nonnull %695) #17
  %731 = tail call i8* @_Znwm(i64 16) #16
  %732 = ptrtoint i8* %731 to i64
  %733 = getelementptr inbounds i8, i8* %731, i64 16
  %734 = ptrtoint i8* %733 to i64
  %735 = bitcast i8* %731 to %"class.tint::(anonymous namespace)::Builder"**
  store %"class.tint::(anonymous namespace)::Builder"* %300, %"class.tint::(anonymous namespace)::Builder"** %735, align 8
  %736 = getelementptr inbounds i8, i8* %731, i64 8
  %737 = bitcast i8* %736 to i32*
  store i32 0, i32* %737, align 8
  %738 = bitcast %"struct.tint::(anonymous namespace)::Impl::Overload"* %233 to i8*
  call void @llvm.lifetime.start.p0i8(i64 80, i8* nonnull %738) #17
  call void @llvm.memcpy.p0i8.p0i8.i64(i8* nonnull align 8 %738, i8* align 8 bitcast ({ i32, [4 x i8], %"class.tint::(anonymous namespace)::Builder"*, %"class.std::__1::vector.10", %"class.std::__1::unordered_map" }* @__const._ZN4tint12_GLOBAL__N_14Impl8RegisterENS_3sem13IntrinsicTypeEPNS0_7BuilderENSt3__16vectorINS1_9ParameterENS6_9allocatorIS8_EEEE.overload to i8*), i64 80, i1 false) #17
  %739 = getelementptr inbounds %"struct.tint::(anonymous namespace)::Impl::Overload", %"struct.tint::(anonymous namespace)::Impl::Overload"* %233, i64 0, i32 0
  store i32 2, i32* %739, align 8
  %740 = getelementptr inbounds %"struct.tint::(anonymous namespace)::Impl::Overload", %"struct.tint::(anonymous namespace)::Impl::Overload"* %233, i64 0, i32 1
  store %"class.tint::(anonymous namespace)::Builder"* %299, %"class.tint::(anonymous namespace)::Builder"** %740, align 8
  %741 = getelementptr inbounds %"struct.tint::(anonymous namespace)::Impl::Overload", %"struct.tint::(anonymous namespace)::Impl::Overload"* %233, i64 0, i32 2
  %742 = bitcast %"class.std::__1::vector.10"* %741 to i64*
  store i64 %732, i64* %742, align 8
  %743 = getelementptr inbounds %"struct.tint::(anonymous namespace)::Impl::Overload", %"struct.tint::(anonymous namespace)::Impl::Overload"* %233, i64 0, i32 2, i32 0, i32 1
  %744 = bitcast %"struct.tint::(anonymous namespace)::Impl::Parameter"** %743 to i64*
  store i64 %734, i64* %744, align 8
  %745 = getelementptr inbounds %"struct.tint::(anonymous namespace)::Impl::Overload", %"struct.tint::(anonymous namespace)::Impl::Overload"* %233, i64 0, i32 2, i32 0, i32 2, i32 0, i32 0
  %746 = bitcast %"struct.tint::(anonymous namespace)::Impl::Parameter"** %745 to i64*
  store i64 %734, i64* %746, align 8
  %747 = getelementptr inbounds %"struct.tint::(anonymous namespace)::Impl::Overload", %"struct.tint::(anonymous namespace)::Impl::Overload"* %233, i64 0, i32 3
  %748 = getelementptr inbounds %"struct.tint::(anonymous namespace)::Impl::Overload", %"struct.tint::(anonymous namespace)::Impl::Overload"* %233, i64 0, i32 3, i32 0, i32 3
  %749 = bitcast %"class.std::__1::__compressed_pair.33"* %748 to i32*
  %750 = bitcast %"class.std::__1::unordered_map"* %747 to i8*
  call void @llvm.memset.p0i8.i64(i8* align 8 %750, i8 0, i64 32, i1 false) #17
  store i32 1065353216, i32* %749, align 8
  call fastcc void @_ZNSt3__16vectorIN4tint12_GLOBAL__N_14Impl8OverloadENS_9allocatorIS4_EEE12emplace_backIJS4_EEEvDpOT_(%"class.std::__1::vector.8"* %268, %"struct.tint::(anonymous namespace)::Impl::Overload"* nonnull dereferenceable(80) %233) #17
  %751 = getelementptr inbounds %"struct.tint::(anonymous namespace)::Impl::Overload", %"struct.tint::(anonymous namespace)::Impl::Overload"* %233, i64 0, i32 3, i32 0, i32 1, i32 0, i32 0, i32 0
  %752 = load %"struct.std::__1::__hash_node_base"*, %"struct.std::__1::__hash_node_base"** %751, align 8
  %753 = icmp eq %"struct.std::__1::__hash_node_base"* %752, null
  br i1 %753, label %760, label %754

754:                                              ; preds = %730, %754
  %755 = phi %"struct.std::__1::__hash_node_base"* [ %757, %754 ], [ %752, %730 ]
  %756 = getelementptr inbounds %"struct.std::__1::__hash_node_base", %"struct.std::__1::__hash_node_base"* %755, i64 0, i32 0
  %757 = load %"struct.std::__1::__hash_node_base"*, %"struct.std::__1::__hash_node_base"** %756, align 8
  %758 = bitcast %"struct.std::__1::__hash_node_base"* %755 to i8*
  tail call void @_ZdlPv(i8* %758) #16
  %759 = icmp eq %"struct.std::__1::__hash_node_base"* %757, null
  br i1 %759, label %760, label %754

760:                                              ; preds = %754, %730
  %761 = getelementptr inbounds %"struct.tint::(anonymous namespace)::Impl::Overload", %"struct.tint::(anonymous namespace)::Impl::Overload"* %233, i64 0, i32 3, i32 0, i32 0, i32 0, i32 0, i32 0
  %762 = load %"struct.std::__1::__hash_node_base"**, %"struct.std::__1::__hash_node_base"*** %761, align 8
  store %"struct.std::__1::__hash_node_base"** null, %"struct.std::__1::__hash_node_base"*** %761, align 8
  %763 = icmp eq %"struct.std::__1::__hash_node_base"** %762, null
  br i1 %763, label %766, label %764

764:                                              ; preds = %760
  %765 = bitcast %"struct.std::__1::__hash_node_base"** %762 to i8*
  tail call void @_ZdlPv(i8* %765) #16
  br label %766

766:                                              ; preds = %764, %760
  %767 = getelementptr inbounds %"struct.tint::(anonymous namespace)::Impl::Overload", %"struct.tint::(anonymous namespace)::Impl::Overload"* %233, i64 0, i32 2, i32 0, i32 0
  %768 = load %"struct.tint::(anonymous namespace)::Impl::Parameter"*, %"struct.tint::(anonymous namespace)::Impl::Parameter"** %767, align 8
  %769 = icmp eq %"struct.tint::(anonymous namespace)::Impl::Parameter"* %768, null
  br i1 %769, label %773, label %770

770:                                              ; preds = %766
  %771 = ptrtoint %"struct.tint::(anonymous namespace)::Impl::Parameter"* %768 to i64
  store i64 %771, i64* %744, align 8
  %772 = bitcast %"struct.tint::(anonymous namespace)::Impl::Parameter"* %768 to i8*
  tail call void @_ZdlPv(i8* %772) #16
  br label %773

773:                                              ; preds = %770, %766
  call void @llvm.lifetime.end.p0i8(i64 80, i8* nonnull %738) #17
  %774 = tail call i8* @_Znwm(i64 16) #16
  %775 = ptrtoint i8* %774 to i64
  %776 = getelementptr inbounds i8, i8* %774, i64 16
  %777 = ptrtoint i8* %776 to i64
  %778 = bitcast i8* %774 to %"class.tint::(anonymous namespace)::Builder"**
  store %"class.tint::(anonymous namespace)::Builder"* %300, %"class.tint::(anonymous namespace)::Builder"** %778, align 8
  %779 = getelementptr inbounds i8, i8* %774, i64 8
  %780 = bitcast i8* %779 to i32*
  store i32 0, i32* %780, align 8
  %781 = bitcast %"struct.tint::(anonymous namespace)::Impl::Overload"* %232 to i8*
  call void @llvm.lifetime.start.p0i8(i64 80, i8* nonnull %781) #17
  call void @llvm.memcpy.p0i8.p0i8.i64(i8* nonnull align 8 %781, i8* align 8 bitcast ({ i32, [4 x i8], %"class.tint::(anonymous namespace)::Builder"*, %"class.std::__1::vector.10", %"class.std::__1::unordered_map" }* @__const._ZN4tint12_GLOBAL__N_14Impl8RegisterENS_3sem13IntrinsicTypeEPNS0_7BuilderENSt3__16vectorINS1_9ParameterENS6_9allocatorIS8_EEEE.overload to i8*), i64 80, i1 false) #17
  %782 = getelementptr inbounds %"struct.tint::(anonymous namespace)::Impl::Overload", %"struct.tint::(anonymous namespace)::Impl::Overload"* %232, i64 0, i32 0
  store i32 3, i32* %782, align 8
  %783 = getelementptr inbounds %"struct.tint::(anonymous namespace)::Impl::Overload", %"struct.tint::(anonymous namespace)::Impl::Overload"* %232, i64 0, i32 1
  store %"class.tint::(anonymous namespace)::Builder"* %299, %"class.tint::(anonymous namespace)::Builder"** %783, align 8
  %784 = getelementptr inbounds %"struct.tint::(anonymous namespace)::Impl::Overload", %"struct.tint::(anonymous namespace)::Impl::Overload"* %232, i64 0, i32 2
  %785 = bitcast %"class.std::__1::vector.10"* %784 to i64*
  store i64 %775, i64* %785, align 8
  %786 = getelementptr inbounds %"struct.tint::(anonymous namespace)::Impl::Overload", %"struct.tint::(anonymous namespace)::Impl::Overload"* %232, i64 0, i32 2, i32 0, i32 1
  %787 = bitcast %"struct.tint::(anonymous namespace)::Impl::Parameter"** %786 to i64*
  store i64 %777, i64* %787, align 8
  %788 = getelementptr inbounds %"struct.tint::(anonymous namespace)::Impl::Overload", %"struct.tint::(anonymous namespace)::Impl::Overload"* %232, i64 0, i32 2, i32 0, i32 2, i32 0, i32 0
  %789 = bitcast %"struct.tint::(anonymous namespace)::Impl::Parameter"** %788 to i64*
  store i64 %777, i64* %789, align 8
  %790 = getelementptr inbounds %"struct.tint::(anonymous namespace)::Impl::Overload", %"struct.tint::(anonymous namespace)::Impl::Overload"* %232, i64 0, i32 3
  %791 = getelementptr inbounds %"struct.tint::(anonymous namespace)::Impl::Overload", %"struct.tint::(anonymous namespace)::Impl::Overload"* %232, i64 0, i32 3, i32 0, i32 3
  %792 = bitcast %"class.std::__1::__compressed_pair.33"* %791 to i32*
  %793 = bitcast %"class.std::__1::unordered_map"* %790 to i8*
  call void @llvm.memset.p0i8.i64(i8* align 8 %793, i8 0, i64 32, i1 false) #17
  store i32 1065353216, i32* %792, align 8
  call fastcc void @_ZNSt3__16vectorIN4tint12_GLOBAL__N_14Impl8OverloadENS_9allocatorIS4_EEE12emplace_backIJS4_EEEvDpOT_(%"class.std::__1::vector.8"* %268, %"struct.tint::(anonymous namespace)::Impl::Overload"* nonnull dereferenceable(80) %232) #17
  %794 = getelementptr inbounds %"struct.tint::(anonymous namespace)::Impl::Overload", %"struct.tint::(anonymous namespace)::Impl::Overload"* %232, i64 0, i32 3, i32 0, i32 1, i32 0, i32 0, i32 0
  %795 = load %"struct.std::__1::__hash_node_base"*, %"struct.std::__1::__hash_node_base"** %794, align 8
  %796 = icmp eq %"struct.std::__1::__hash_node_base"* %795, null
  br i1 %796, label %803, label %797

797:                                              ; preds = %773, %797
  %798 = phi %"struct.std::__1::__hash_node_base"* [ %800, %797 ], [ %795, %773 ]
  %799 = getelementptr inbounds %"struct.std::__1::__hash_node_base", %"struct.std::__1::__hash_node_base"* %798, i64 0, i32 0
  %800 = load %"struct.std::__1::__hash_node_base"*, %"struct.std::__1::__hash_node_base"** %799, align 8
  %801 = bitcast %"struct.std::__1::__hash_node_base"* %798 to i8*
  tail call void @_ZdlPv(i8* %801) #16
  %802 = icmp eq %"struct.std::__1::__hash_node_base"* %800, null
  br i1 %802, label %803, label %797

803:                                              ; preds = %797, %773
  %804 = getelementptr inbounds %"struct.tint::(anonymous namespace)::Impl::Overload", %"struct.tint::(anonymous namespace)::Impl::Overload"* %232, i64 0, i32 3, i32 0, i32 0, i32 0, i32 0, i32 0
  %805 = load %"struct.std::__1::__hash_node_base"**, %"struct.std::__1::__hash_node_base"*** %804, align 8
  store %"struct.std::__1::__hash_node_base"** null, %"struct.std::__1::__hash_node_base"*** %804, align 8
  %806 = icmp eq %"struct.std::__1::__hash_node_base"** %805, null
  br i1 %806, label %809, label %807

807:                                              ; preds = %803
  %808 = bitcast %"struct.std::__1::__hash_node_base"** %805 to i8*
  tail call void @_ZdlPv(i8* %808) #16
  br label %809

809:                                              ; preds = %807, %803
  %810 = getelementptr inbounds %"struct.tint::(anonymous namespace)::Impl::Overload", %"struct.tint::(anonymous namespace)::Impl::Overload"* %232, i64 0, i32 2, i32 0, i32 0
  %811 = load %"struct.tint::(anonymous namespace)::Impl::Parameter"*, %"struct.tint::(anonymous namespace)::Impl::Parameter"** %810, align 8
  %812 = icmp eq %"struct.tint::(anonymous namespace)::Impl::Parameter"* %811, null
  br i1 %812, label %816, label %813

813:                                              ; preds = %809
  %814 = ptrtoint %"struct.tint::(anonymous namespace)::Impl::Parameter"* %811 to i64
  store i64 %814, i64* %787, align 8
  %815 = bitcast %"struct.tint::(anonymous namespace)::Impl::Parameter"* %811 to i8*
  tail call void @_ZdlPv(i8* %815) #16
  br label %816

816:                                              ; preds = %813, %809
  call void @llvm.lifetime.end.p0i8(i64 80, i8* nonnull %781) #17
  %817 = getelementptr inbounds %"class.tint::(anonymous namespace)::Impl", %"class.tint::(anonymous namespace)::Impl"* %0, i64 0, i32 2, i32 7, i32 0
  %818 = tail call i8* @_Znwm(i64 16) #16
  %819 = ptrtoint i8* %818 to i64
  %820 = getelementptr inbounds i8, i8* %818, i64 16
  %821 = ptrtoint i8* %820 to i64
  %822 = bitcast i8* %818 to i8**
  store i8* %274, i8** %822, align 8
  %823 = getelementptr inbounds i8, i8* %818, i64 8
  %824 = bitcast i8* %823 to i32*
  store i32 0, i32* %824, align 8
  %825 = bitcast %"struct.tint::(anonymous namespace)::Impl::Overload"* %231 to i8*
  call void @llvm.lifetime.start.p0i8(i64 80, i8* nonnull %825) #17
  call void @llvm.memcpy.p0i8.p0i8.i64(i8* nonnull align 8 %825, i8* align 8 bitcast ({ i32, [4 x i8], %"class.tint::(anonymous namespace)::Builder"*, %"class.std::__1::vector.10", %"class.std::__1::unordered_map" }* @__const._ZN4tint12_GLOBAL__N_14Impl8RegisterENS_3sem13IntrinsicTypeEPNS0_7BuilderENSt3__16vectorINS1_9ParameterENS6_9allocatorIS8_EEEE.overload to i8*), i64 80, i1 false) #17
  %826 = getelementptr inbounds %"struct.tint::(anonymous namespace)::Impl::Overload", %"struct.tint::(anonymous namespace)::Impl::Overload"* %231, i64 0, i32 0
  store i32 4, i32* %826, align 8
  %827 = getelementptr inbounds %"struct.tint::(anonymous namespace)::Impl::Overload", %"struct.tint::(anonymous namespace)::Impl::Overload"* %231, i64 0, i32 1
  store %"class.tint::(anonymous namespace)::Builder"* %817, %"class.tint::(anonymous namespace)::Builder"** %827, align 8
  %828 = getelementptr inbounds %"struct.tint::(anonymous namespace)::Impl::Overload", %"struct.tint::(anonymous namespace)::Impl::Overload"* %231, i64 0, i32 2
  %829 = bitcast %"class.std::__1::vector.10"* %828 to i64*
  store i64 %819, i64* %829, align 8
  %830 = getelementptr inbounds %"struct.tint::(anonymous namespace)::Impl::Overload", %"struct.tint::(anonymous namespace)::Impl::Overload"* %231, i64 0, i32 2, i32 0, i32 1
  %831 = bitcast %"struct.tint::(anonymous namespace)::Impl::Parameter"** %830 to i64*
  store i64 %821, i64* %831, align 8
  %832 = getelementptr inbounds %"struct.tint::(anonymous namespace)::Impl::Overload", %"struct.tint::(anonymous namespace)::Impl::Overload"* %231, i64 0, i32 2, i32 0, i32 2, i32 0, i32 0
  %833 = bitcast %"struct.tint::(anonymous namespace)::Impl::Parameter"** %832 to i64*
  store i64 %821, i64* %833, align 8
  %834 = getelementptr inbounds %"struct.tint::(anonymous namespace)::Impl::Overload", %"struct.tint::(anonymous namespace)::Impl::Overload"* %231, i64 0, i32 3
  %835 = getelementptr inbounds %"struct.tint::(anonymous namespace)::Impl::Overload", %"struct.tint::(anonymous namespace)::Impl::Overload"* %231, i64 0, i32 3, i32 0, i32 3
  %836 = bitcast %"class.std::__1::__compressed_pair.33"* %835 to i32*
  %837 = bitcast %"class.std::__1::unordered_map"* %834 to i8*
  call void @llvm.memset.p0i8.i64(i8* align 8 %837, i8 0, i64 32, i1 false) #17
  store i32 1065353216, i32* %836, align 8
  call fastcc void @_ZNSt3__16vectorIN4tint12_GLOBAL__N_14Impl8OverloadENS_9allocatorIS4_EEE12emplace_backIJS4_EEEvDpOT_(%"class.std::__1::vector.8"* %268, %"struct.tint::(anonymous namespace)::Impl::Overload"* nonnull dereferenceable(80) %231) #17
  %838 = getelementptr inbounds %"struct.tint::(anonymous namespace)::Impl::Overload", %"struct.tint::(anonymous namespace)::Impl::Overload"* %231, i64 0, i32 3, i32 0, i32 1, i32 0, i32 0, i32 0
  %839 = load %"struct.std::__1::__hash_node_base"*, %"struct.std::__1::__hash_node_base"** %838, align 8
  %840 = icmp eq %"struct.std::__1::__hash_node_base"* %839, null
  br i1 %840, label %847, label %841

841:                                              ; preds = %816, %841
  %842 = phi %"struct.std::__1::__hash_node_base"* [ %844, %841 ], [ %839, %816 ]
  %843 = getelementptr inbounds %"struct.std::__1::__hash_node_base", %"struct.std::__1::__hash_node_base"* %842, i64 0, i32 0
  %844 = load %"struct.std::__1::__hash_node_base"*, %"struct.std::__1::__hash_node_base"** %843, align 8
  %845 = bitcast %"struct.std::__1::__hash_node_base"* %842 to i8*
  tail call void @_ZdlPv(i8* %845) #16
  %846 = icmp eq %"struct.std::__1::__hash_node_base"* %844, null
  br i1 %846, label %847, label %841

847:                                              ; preds = %841, %816
  %848 = getelementptr inbounds %"struct.tint::(anonymous namespace)::Impl::Overload", %"struct.tint::(anonymous namespace)::Impl::Overload"* %231, i64 0, i32 3, i32 0, i32 0, i32 0, i32 0, i32 0
  %849 = load %"struct.std::__1::__hash_node_base"**, %"struct.std::__1::__hash_node_base"*** %848, align 8
  store %"struct.std::__1::__hash_node_base"** null, %"struct.std::__1::__hash_node_base"*** %848, align 8
  %850 = icmp eq %"struct.std::__1::__hash_node_base"** %849, null
  br i1 %850, label %853, label %851

851:                                              ; preds = %847
  %852 = bitcast %"struct.std::__1::__hash_node_base"** %849 to i8*
  tail call void @_ZdlPv(i8* %852) #16
  br label %853

853:                                              ; preds = %851, %847
  %854 = getelementptr inbounds %"struct.tint::(anonymous namespace)::Impl::Overload", %"struct.tint::(anonymous namespace)::Impl::Overload"* %231, i64 0, i32 2, i32 0, i32 0
  %855 = load %"struct.tint::(anonymous namespace)::Impl::Parameter"*, %"struct.tint::(anonymous namespace)::Impl::Parameter"** %854, align 8
  %856 = icmp eq %"struct.tint::(anonymous namespace)::Impl::Parameter"* %855, null
  br i1 %856, label %860, label %857

857:                                              ; preds = %853
  %858 = ptrtoint %"struct.tint::(anonymous namespace)::Impl::Parameter"* %855 to i64
  store i64 %858, i64* %831, align 8
  %859 = bitcast %"struct.tint::(anonymous namespace)::Impl::Parameter"* %855 to i8*
  tail call void @_ZdlPv(i8* %859) #16
  br label %860

860:                                              ; preds = %857, %853
  call void @llvm.lifetime.end.p0i8(i64 80, i8* nonnull %825) #17
  %861 = tail call i8* @_Znwm(i64 16) #16
  %862 = ptrtoint i8* %861 to i64
  %863 = getelementptr inbounds i8, i8* %861, i64 16
  %864 = ptrtoint i8* %863 to i64
  %865 = bitcast i8* %861 to %"class.tint::(anonymous namespace)::Builder"**
  store %"class.tint::(anonymous namespace)::Builder"* %289, %"class.tint::(anonymous namespace)::Builder"** %865, align 8
  %866 = getelementptr inbounds i8, i8* %861, i64 8
  %867 = bitcast i8* %866 to i32*
  store i32 0, i32* %867, align 8
  %868 = bitcast %"struct.tint::(anonymous namespace)::Impl::Overload"* %230 to i8*
  call void @llvm.lifetime.start.p0i8(i64 80, i8* nonnull %868) #17
  call void @llvm.memcpy.p0i8.p0i8.i64(i8* nonnull align 8 %868, i8* align 8 bitcast ({ i32, [4 x i8], %"class.tint::(anonymous namespace)::Builder"*, %"class.std::__1::vector.10", %"class.std::__1::unordered_map" }* @__const._ZN4tint12_GLOBAL__N_14Impl8RegisterENS_3sem13IntrinsicTypeEPNS0_7BuilderENSt3__16vectorINS1_9ParameterENS6_9allocatorIS8_EEEE.overload to i8*), i64 80, i1 false) #17
  %869 = getelementptr inbounds %"struct.tint::(anonymous namespace)::Impl::Overload", %"struct.tint::(anonymous namespace)::Impl::Overload"* %230, i64 0, i32 0
  store i32 5, i32* %869, align 8
  %870 = getelementptr inbounds %"struct.tint::(anonymous namespace)::Impl::Overload", %"struct.tint::(anonymous namespace)::Impl::Overload"* %230, i64 0, i32 1
  store %"class.tint::(anonymous namespace)::Builder"* %289, %"class.tint::(anonymous namespace)::Builder"** %870, align 8
  %871 = getelementptr inbounds %"struct.tint::(anonymous namespace)::Impl::Overload", %"struct.tint::(anonymous namespace)::Impl::Overload"* %230, i64 0, i32 2
  %872 = bitcast %"class.std::__1::vector.10"* %871 to i64*
  store i64 %862, i64* %872, align 8
  %873 = getelementptr inbounds %"struct.tint::(anonymous namespace)::Impl::Overload", %"struct.tint::(anonymous namespace)::Impl::Overload"* %230, i64 0, i32 2, i32 0, i32 1
  %874 = bitcast %"struct.tint::(anonymous namespace)::Impl::Parameter"** %873 to i64*
  store i64 %864, i64* %874, align 8
  %875 = getelementptr inbounds %"struct.tint::(anonymous namespace)::Impl::Overload", %"struct.tint::(anonymous namespace)::Impl::Overload"* %230, i64 0, i32 2, i32 0, i32 2, i32 0, i32 0
  %876 = bitcast %"struct.tint::(anonymous namespace)::Impl::Parameter"** %875 to i64*
  store i64 %864, i64* %876, align 8
  %877 = getelementptr inbounds %"struct.tint::(anonymous namespace)::Impl::Overload", %"struct.tint::(anonymous namespace)::Impl::Overload"* %230, i64 0, i32 3
  %878 = getelementptr inbounds %"struct.tint::(anonymous namespace)::Impl::Overload", %"struct.tint::(anonymous namespace)::Impl::Overload"* %230, i64 0, i32 3, i32 0, i32 3
  %879 = bitcast %"class.std::__1::__compressed_pair.33"* %878 to i32*
  %880 = bitcast %"class.std::__1::unordered_map"* %877 to i8*
  call void @llvm.memset.p0i8.i64(i8* align 8 %880, i8 0, i64 32, i1 false) #17
  store i32 1065353216, i32* %879, align 8
  call fastcc void @_ZNSt3__16vectorIN4tint12_GLOBAL__N_14Impl8OverloadENS_9allocatorIS4_EEE12emplace_backIJS4_EEEvDpOT_(%"class.std::__1::vector.8"* %268, %"struct.tint::(anonymous namespace)::Impl::Overload"* nonnull dereferenceable(80) %230) #17
  %881 = getelementptr inbounds %"struct.tint::(anonymous namespace)::Impl::Overload", %"struct.tint::(anonymous namespace)::Impl::Overload"* %230, i64 0, i32 3, i32 0, i32 1, i32 0, i32 0, i32 0
  %882 = load %"struct.std::__1::__hash_node_base"*, %"struct.std::__1::__hash_node_base"** %881, align 8
  %883 = icmp eq %"struct.std::__1::__hash_node_base"* %882, null
  br i1 %883, label %890, label %884

884:                                              ; preds = %860, %884
  %885 = phi %"struct.std::__1::__hash_node_base"* [ %887, %884 ], [ %882, %860 ]
  %886 = getelementptr inbounds %"struct.std::__1::__hash_node_base", %"struct.std::__1::__hash_node_base"* %885, i64 0, i32 0
  %887 = load %"struct.std::__1::__hash_node_base"*, %"struct.std::__1::__hash_node_base"** %886, align 8
  %888 = bitcast %"struct.std::__1::__hash_node_base"* %885 to i8*
  tail call void @_ZdlPv(i8* %888) #16
  %889 = icmp eq %"struct.std::__1::__hash_node_base"* %887, null
  br i1 %889, label %890, label %884

890:                                              ; preds = %884, %860
  %891 = getelementptr inbounds %"struct.tint::(anonymous namespace)::Impl::Overload", %"struct.tint::(anonymous namespace)::Impl::Overload"* %230, i64 0, i32 3, i32 0, i32 0, i32 0, i32 0, i32 0
  %892 = load %"struct.std::__1::__hash_node_base"**, %"struct.std::__1::__hash_node_base"*** %891, align 8
  store %"struct.std::__1::__hash_node_base"** null, %"struct.std::__1::__hash_node_base"*** %891, align 8
  %893 = icmp eq %"struct.std::__1::__hash_node_base"** %892, null
  br i1 %893, label %896, label %894

894:                                              ; preds = %890
  %895 = bitcast %"struct.std::__1::__hash_node_base"** %892 to i8*
  tail call void @_ZdlPv(i8* %895) #16
  br label %896

896:                                              ; preds = %894, %890
  %897 = getelementptr inbounds %"struct.tint::(anonymous namespace)::Impl::Overload", %"struct.tint::(anonymous namespace)::Impl::Overload"* %230, i64 0, i32 2, i32 0, i32 0
  %898 = load %"struct.tint::(anonymous namespace)::Impl::Parameter"*, %"struct.tint::(anonymous namespace)::Impl::Parameter"** %897, align 8
  %899 = icmp eq %"struct.tint::(anonymous namespace)::Impl::Parameter"* %898, null
  br i1 %899, label %903, label %900

900:                                              ; preds = %896
  %901 = ptrtoint %"struct.tint::(anonymous namespace)::Impl::Parameter"* %898 to i64
  store i64 %901, i64* %874, align 8
  %902 = bitcast %"struct.tint::(anonymous namespace)::Impl::Parameter"* %898 to i8*
  tail call void @_ZdlPv(i8* %902) #16
  br label %903

903:                                              ; preds = %900, %896
  call void @llvm.lifetime.end.p0i8(i64 80, i8* nonnull %868) #17
  %904 = tail call i8* @_Znwm(i64 16) #16
  %905 = ptrtoint i8* %904 to i64
  %906 = getelementptr inbounds i8, i8* %904, i64 16
  %907 = ptrtoint i8* %906 to i64
  %908 = bitcast i8* %904 to %"class.tint::(anonymous namespace)::Builder"**
  store %"class.tint::(anonymous namespace)::Builder"* %297, %"class.tint::(anonymous namespace)::Builder"** %908, align 8
  %909 = getelementptr inbounds i8, i8* %904, i64 8
  %910 = bitcast i8* %909 to i32*
  store i32 0, i32* %910, align 8
  %911 = bitcast %"struct.tint::(anonymous namespace)::Impl::Overload"* %229 to i8*
  call void @llvm.lifetime.start.p0i8(i64 80, i8* nonnull %911) #17
  call void @llvm.memcpy.p0i8.p0i8.i64(i8* nonnull align 8 %911, i8* align 8 bitcast ({ i32, [4 x i8], %"class.tint::(anonymous namespace)::Builder"*, %"class.std::__1::vector.10", %"class.std::__1::unordered_map" }* @__const._ZN4tint12_GLOBAL__N_14Impl8RegisterENS_3sem13IntrinsicTypeEPNS0_7BuilderENSt3__16vectorINS1_9ParameterENS6_9allocatorIS8_EEEE.overload to i8*), i64 80, i1 false) #17
  %912 = getelementptr inbounds %"struct.tint::(anonymous namespace)::Impl::Overload", %"struct.tint::(anonymous namespace)::Impl::Overload"* %229, i64 0, i32 0
  store i32 5, i32* %912, align 8
  %913 = getelementptr inbounds %"struct.tint::(anonymous namespace)::Impl::Overload", %"struct.tint::(anonymous namespace)::Impl::Overload"* %229, i64 0, i32 1
  store %"class.tint::(anonymous namespace)::Builder"* %297, %"class.tint::(anonymous namespace)::Builder"** %913, align 8
  %914 = getelementptr inbounds %"struct.tint::(anonymous namespace)::Impl::Overload", %"struct.tint::(anonymous namespace)::Impl::Overload"* %229, i64 0, i32 2
  %915 = bitcast %"class.std::__1::vector.10"* %914 to i64*
  store i64 %905, i64* %915, align 8
  %916 = getelementptr inbounds %"struct.tint::(anonymous namespace)::Impl::Overload", %"struct.tint::(anonymous namespace)::Impl::Overload"* %229, i64 0, i32 2, i32 0, i32 1
  %917 = bitcast %"struct.tint::(anonymous namespace)::Impl::Parameter"** %916 to i64*
  store i64 %907, i64* %917, align 8
  %918 = getelementptr inbounds %"struct.tint::(anonymous namespace)::Impl::Overload", %"struct.tint::(anonymous namespace)::Impl::Overload"* %229, i64 0, i32 2, i32 0, i32 2, i32 0, i32 0
  %919 = bitcast %"struct.tint::(anonymous namespace)::Impl::Parameter"** %918 to i64*
  store i64 %907, i64* %919, align 8
  %920 = getelementptr inbounds %"struct.tint::(anonymous namespace)::Impl::Overload", %"struct.tint::(anonymous namespace)::Impl::Overload"* %229, i64 0, i32 3
  %921 = getelementptr inbounds %"struct.tint::(anonymous namespace)::Impl::Overload", %"struct.tint::(anonymous namespace)::Impl::Overload"* %229, i64 0, i32 3, i32 0, i32 3
  %922 = bitcast %"class.std::__1::__compressed_pair.33"* %921 to i32*
  %923 = bitcast %"class.std::__1::unordered_map"* %920 to i8*
  call void @llvm.memset.p0i8.i64(i8* align 8 %923, i8 0, i64 32, i1 false) #17
  store i32 1065353216, i32* %922, align 8
  call fastcc void @_ZNSt3__16vectorIN4tint12_GLOBAL__N_14Impl8OverloadENS_9allocatorIS4_EEE12emplace_backIJS4_EEEvDpOT_(%"class.std::__1::vector.8"* %268, %"struct.tint::(anonymous namespace)::Impl::Overload"* nonnull dereferenceable(80) %229) #17
  %924 = getelementptr inbounds %"struct.tint::(anonymous namespace)::Impl::Overload", %"struct.tint::(anonymous namespace)::Impl::Overload"* %229, i64 0, i32 3, i32 0, i32 1, i32 0, i32 0, i32 0
  %925 = load %"struct.std::__1::__hash_node_base"*, %"struct.std::__1::__hash_node_base"** %924, align 8
  %926 = icmp eq %"struct.std::__1::__hash_node_base"* %925, null
  br i1 %926, label %933, label %927

927:                                              ; preds = %903, %927
  %928 = phi %"struct.std::__1::__hash_node_base"* [ %930, %927 ], [ %925, %903 ]
  %929 = getelementptr inbounds %"struct.std::__1::__hash_node_base", %"struct.std::__1::__hash_node_base"* %928, i64 0, i32 0
  %930 = load %"struct.std::__1::__hash_node_base"*, %"struct.std::__1::__hash_node_base"** %929, align 8
  %931 = bitcast %"struct.std::__1::__hash_node_base"* %928 to i8*
  tail call void @_ZdlPv(i8* %931) #16
  %932 = icmp eq %"struct.std::__1::__hash_node_base"* %930, null
  br i1 %932, label %933, label %927

933:                                              ; preds = %927, %903
  %934 = getelementptr inbounds %"struct.tint::(anonymous namespace)::Impl::Overload", %"struct.tint::(anonymous namespace)::Impl::Overload"* %229, i64 0, i32 3, i32 0, i32 0, i32 0, i32 0, i32 0
  %935 = load %"struct.std::__1::__hash_node_base"**, %"struct.std::__1::__hash_node_base"*** %934, align 8
  store %"struct.std::__1::__hash_node_base"** null, %"struct.std::__1::__hash_node_base"*** %934, align 8
  %936 = icmp eq %"struct.std::__1::__hash_node_base"** %935, null
  br i1 %936, label %939, label %937

937:                                              ; preds = %933
  %938 = bitcast %"struct.std::__1::__hash_node_base"** %935 to i8*
  tail call void @_ZdlPv(i8* %938) #16
  br label %939

939:                                              ; preds = %937, %933
  %940 = getelementptr inbounds %"struct.tint::(anonymous namespace)::Impl::Overload", %"struct.tint::(anonymous namespace)::Impl::Overload"* %229, i64 0, i32 2, i32 0, i32 0
  %941 = load %"struct.tint::(anonymous namespace)::Impl::Parameter"*, %"struct.tint::(anonymous namespace)::Impl::Parameter"** %940, align 8
  %942 = icmp eq %"struct.tint::(anonymous namespace)::Impl::Parameter"* %941, null
  br i1 %942, label %946, label %943

943:                                              ; preds = %939
  %944 = ptrtoint %"struct.tint::(anonymous namespace)::Impl::Parameter"* %941 to i64
  store i64 %944, i64* %917, align 8
  %945 = bitcast %"struct.tint::(anonymous namespace)::Impl::Parameter"* %941 to i8*
  tail call void @_ZdlPv(i8* %945) #16
  br label %946

946:                                              ; preds = %943, %939
  call void @llvm.lifetime.end.p0i8(i64 80, i8* nonnull %911) #17
  %947 = tail call i8* @_Znwm(i64 16) #16
  %948 = ptrtoint i8* %947 to i64
  %949 = getelementptr inbounds i8, i8* %947, i64 16
  %950 = ptrtoint i8* %949 to i64
  %951 = bitcast i8* %947 to %"class.tint::(anonymous namespace)::Builder"**
  store %"class.tint::(anonymous namespace)::Builder"* %289, %"class.tint::(anonymous namespace)::Builder"** %951, align 8
  %952 = getelementptr inbounds i8, i8* %947, i64 8
  %953 = bitcast i8* %952 to i32*
  store i32 0, i32* %953, align 8
  %954 = bitcast %"struct.tint::(anonymous namespace)::Impl::Overload"* %228 to i8*
  call void @llvm.lifetime.start.p0i8(i64 80, i8* nonnull %954) #17
  call void @llvm.memcpy.p0i8.p0i8.i64(i8* nonnull align 8 %954, i8* align 8 bitcast ({ i32, [4 x i8], %"class.tint::(anonymous namespace)::Builder"*, %"class.std::__1::vector.10", %"class.std::__1::unordered_map" }* @__const._ZN4tint12_GLOBAL__N_14Impl8RegisterENS_3sem13IntrinsicTypeEPNS0_7BuilderENSt3__16vectorINS1_9ParameterENS6_9allocatorIS8_EEEE.overload to i8*), i64 80, i1 false) #17
  %955 = getelementptr inbounds %"struct.tint::(anonymous namespace)::Impl::Overload", %"struct.tint::(anonymous namespace)::Impl::Overload"* %228, i64 0, i32 0
  store i32 6, i32* %955, align 8
  %956 = getelementptr inbounds %"struct.tint::(anonymous namespace)::Impl::Overload", %"struct.tint::(anonymous namespace)::Impl::Overload"* %228, i64 0, i32 1
  store %"class.tint::(anonymous namespace)::Builder"* %289, %"class.tint::(anonymous namespace)::Builder"** %956, align 8
  %957 = getelementptr inbounds %"struct.tint::(anonymous namespace)::Impl::Overload", %"struct.tint::(anonymous namespace)::Impl::Overload"* %228, i64 0, i32 2
  %958 = bitcast %"class.std::__1::vector.10"* %957 to i64*
  store i64 %948, i64* %958, align 8
  %959 = getelementptr inbounds %"struct.tint::(anonymous namespace)::Impl::Overload", %"struct.tint::(anonymous namespace)::Impl::Overload"* %228, i64 0, i32 2, i32 0, i32 1
  %960 = bitcast %"struct.tint::(anonymous namespace)::Impl::Parameter"** %959 to i64*
  store i64 %950, i64* %960, align 8
  %961 = getelementptr inbounds %"struct.tint::(anonymous namespace)::Impl::Overload", %"struct.tint::(anonymous namespace)::Impl::Overload"* %228, i64 0, i32 2, i32 0, i32 2, i32 0, i32 0
  %962 = bitcast %"struct.tint::(anonymous namespace)::Impl::Parameter"** %961 to i64*
  store i64 %950, i64* %962, align 8
  %963 = getelementptr inbounds %"struct.tint::(anonymous namespace)::Impl::Overload", %"struct.tint::(anonymous namespace)::Impl::Overload"* %228, i64 0, i32 3
  %964 = getelementptr inbounds %"struct.tint::(anonymous namespace)::Impl::Overload", %"struct.tint::(anonymous namespace)::Impl::Overload"* %228, i64 0, i32 3, i32 0, i32 3
  %965 = bitcast %"class.std::__1::__compressed_pair.33"* %964 to i32*
  %966 = bitcast %"class.std::__1::unordered_map"* %963 to i8*
  call void @llvm.memset.p0i8.i64(i8* align 8 %966, i8 0, i64 32, i1 false) #17
  store i32 1065353216, i32* %965, align 8
  call fastcc void @_ZNSt3__16vectorIN4tint12_GLOBAL__N_14Impl8OverloadENS_9allocatorIS4_EEE12emplace_backIJS4_EEEvDpOT_(%"class.std::__1::vector.8"* %268, %"struct.tint::(anonymous namespace)::Impl::Overload"* nonnull dereferenceable(80) %228) #17
  %967 = getelementptr inbounds %"struct.tint::(anonymous namespace)::Impl::Overload", %"struct.tint::(anonymous namespace)::Impl::Overload"* %228, i64 0, i32 3, i32 0, i32 1, i32 0, i32 0, i32 0
  %968 = load %"struct.std::__1::__hash_node_base"*, %"struct.std::__1::__hash_node_base"** %967, align 8
  %969 = icmp eq %"struct.std::__1::__hash_node_base"* %968, null
  br i1 %969, label %976, label %970

970:                                              ; preds = %946, %970
  %971 = phi %"struct.std::__1::__hash_node_base"* [ %973, %970 ], [ %968, %946 ]
  %972 = getelementptr inbounds %"struct.std::__1::__hash_node_base", %"struct.std::__1::__hash_node_base"* %971, i64 0, i32 0
  %973 = load %"struct.std::__1::__hash_node_base"*, %"struct.std::__1::__hash_node_base"** %972, align 8
  %974 = bitcast %"struct.std::__1::__hash_node_base"* %971 to i8*
  tail call void @_ZdlPv(i8* %974) #16
  %975 = icmp eq %"struct.std::__1::__hash_node_base"* %973, null
  br i1 %975, label %976, label %970

976:                                              ; preds = %970, %946
  %977 = getelementptr inbounds %"struct.tint::(anonymous namespace)::Impl::Overload", %"struct.tint::(anonymous namespace)::Impl::Overload"* %228, i64 0, i32 3, i32 0, i32 0, i32 0, i32 0, i32 0
  %978 = load %"struct.std::__1::__hash_node_base"**, %"struct.std::__1::__hash_node_base"*** %977, align 8
  store %"struct.std::__1::__hash_node_base"** null, %"struct.std::__1::__hash_node_base"*** %977, align 8
  %979 = icmp eq %"struct.std::__1::__hash_node_base"** %978, null
  br i1 %979, label %982, label %980

980:                                              ; preds = %976
  %981 = bitcast %"struct.std::__1::__hash_node_base"** %978 to i8*
  tail call void @_ZdlPv(i8* %981) #16
  br label %982

982:                                              ; preds = %980, %976
  %983 = getelementptr inbounds %"struct.tint::(anonymous namespace)::Impl::Overload", %"struct.tint::(anonymous namespace)::Impl::Overload"* %228, i64 0, i32 2, i32 0, i32 0
  %984 = load %"struct.tint::(anonymous namespace)::Impl::Parameter"*, %"struct.tint::(anonymous namespace)::Impl::Parameter"** %983, align 8
  %985 = icmp eq %"struct.tint::(anonymous namespace)::Impl::Parameter"* %984, null
  br i1 %985, label %989, label %986

986:                                              ; preds = %982
  %987 = ptrtoint %"struct.tint::(anonymous namespace)::Impl::Parameter"* %984 to i64
  store i64 %987, i64* %960, align 8
  %988 = bitcast %"struct.tint::(anonymous namespace)::Impl::Parameter"* %984 to i8*
  tail call void @_ZdlPv(i8* %988) #16
  br label %989

989:                                              ; preds = %986, %982
  call void @llvm.lifetime.end.p0i8(i64 80, i8* nonnull %954) #17
  %990 = tail call i8* @_Znwm(i64 16) #16
  %991 = ptrtoint i8* %990 to i64
  %992 = getelementptr inbounds i8, i8* %990, i64 16
  %993 = ptrtoint i8* %992 to i64
  %994 = bitcast i8* %990 to %"class.tint::(anonymous namespace)::Builder"**
  store %"class.tint::(anonymous namespace)::Builder"* %297, %"class.tint::(anonymous namespace)::Builder"** %994, align 8
  %995 = getelementptr inbounds i8, i8* %990, i64 8
  %996 = bitcast i8* %995 to i32*
  store i32 0, i32* %996, align 8
  %997 = bitcast %"struct.tint::(anonymous namespace)::Impl::Overload"* %227 to i8*
  call void @llvm.lifetime.start.p0i8(i64 80, i8* nonnull %997) #17
  call void @llvm.memcpy.p0i8.p0i8.i64(i8* nonnull align 8 %997, i8* align 8 bitcast ({ i32, [4 x i8], %"class.tint::(anonymous namespace)::Builder"*, %"class.std::__1::vector.10", %"class.std::__1::unordered_map" }* @__const._ZN4tint12_GLOBAL__N_14Impl8RegisterENS_3sem13IntrinsicTypeEPNS0_7BuilderENSt3__16vectorINS1_9ParameterENS6_9allocatorIS8_EEEE.overload to i8*), i64 80, i1 false) #17
  %998 = getelementptr inbounds %"struct.tint::(anonymous namespace)::Impl::Overload", %"struct.tint::(anonymous namespace)::Impl::Overload"* %227, i64 0, i32 0
  store i32 6, i32* %998, align 8
  %999 = getelementptr inbounds %"struct.tint::(anonymous namespace)::Impl::Overload", %"struct.tint::(anonymous namespace)::Impl::Overload"* %227, i64 0, i32 1
  store %"class.tint::(anonymous namespace)::Builder"* %297, %"class.tint::(anonymous namespace)::Builder"** %999, align 8
  %1000 = getelementptr inbounds %"struct.tint::(anonymous namespace)::Impl::Overload", %"struct.tint::(anonymous namespace)::Impl::Overload"* %227, i64 0, i32 2
  %1001 = bitcast %"class.std::__1::vector.10"* %1000 to i64*
  store i64 %991, i64* %1001, align 8
  %1002 = getelementptr inbounds %"struct.tint::(anonymous namespace)::Impl::Overload", %"struct.tint::(anonymous namespace)::Impl::Overload"* %227, i64 0, i32 2, i32 0, i32 1
  %1003 = bitcast %"struct.tint::(anonymous namespace)::Impl::Parameter"** %1002 to i64*
  store i64 %993, i64* %1003, align 8
  %1004 = getelementptr inbounds %"struct.tint::(anonymous namespace)::Impl::Overload", %"struct.tint::(anonymous namespace)::Impl::Overload"* %227, i64 0, i32 2, i32 0, i32 2, i32 0, i32 0
  %1005 = bitcast %"struct.tint::(anonymous namespace)::Impl::Parameter"** %1004 to i64*
  store i64 %993, i64* %1005, align 8
  %1006 = getelementptr inbounds %"struct.tint::(anonymous namespace)::Impl::Overload", %"struct.tint::(anonymous namespace)::Impl::Overload"* %227, i64 0, i32 3
  %1007 = getelementptr inbounds %"struct.tint::(anonymous namespace)::Impl::Overload", %"struct.tint::(anonymous namespace)::Impl::Overload"* %227, i64 0, i32 3, i32 0, i32 3
  %1008 = bitcast %"class.std::__1::__compressed_pair.33"* %1007 to i32*
  %1009 = bitcast %"class.std::__1::unordered_map"* %1006 to i8*
  call void @llvm.memset.p0i8.i64(i8* align 8 %1009, i8 0, i64 32, i1 false) #17
  store i32 1065353216, i32* %1008, align 8
  call fastcc void @_ZNSt3__16vectorIN4tint12_GLOBAL__N_14Impl8OverloadENS_9allocatorIS4_EEE12emplace_backIJS4_EEEvDpOT_(%"class.std::__1::vector.8"* %268, %"struct.tint::(anonymous namespace)::Impl::Overload"* nonnull dereferenceable(80) %227) #17
  %1010 = getelementptr inbounds %"struct.tint::(anonymous namespace)::Impl::Overload", %"struct.tint::(anonymous namespace)::Impl::Overload"* %227, i64 0, i32 3, i32 0, i32 1, i32 0, i32 0, i32 0
  %1011 = load %"struct.std::__1::__hash_node_base"*, %"struct.std::__1::__hash_node_base"** %1010, align 8
  %1012 = icmp eq %"struct.std::__1::__hash_node_base"* %1011, null
  br i1 %1012, label %1019, label %1013

1013:                                             ; preds = %989, %1013
  %1014 = phi %"struct.std::__1::__hash_node_base"* [ %1016, %1013 ], [ %1011, %989 ]
  %1015 = getelementptr inbounds %"struct.std::__1::__hash_node_base", %"struct.std::__1::__hash_node_base"* %1014, i64 0, i32 0
  %1016 = load %"struct.std::__1::__hash_node_base"*, %"struct.std::__1::__hash_node_base"** %1015, align 8
  %1017 = bitcast %"struct.std::__1::__hash_node_base"* %1014 to i8*
  tail call void @_ZdlPv(i8* %1017) #16
  %1018 = icmp eq %"struct.std::__1::__hash_node_base"* %1016, null
  br i1 %1018, label %1019, label %1013

1019:                                             ; preds = %1013, %989
  %1020 = getelementptr inbounds %"struct.tint::(anonymous namespace)::Impl::Overload", %"struct.tint::(anonymous namespace)::Impl::Overload"* %227, i64 0, i32 3, i32 0, i32 0, i32 0, i32 0, i32 0
  %1021 = load %"struct.std::__1::__hash_node_base"**, %"struct.std::__1::__hash_node_base"*** %1020, align 8
  store %"struct.std::__1::__hash_node_base"** null, %"struct.std::__1::__hash_node_base"*** %1020, align 8
  %1022 = icmp eq %"struct.std::__1::__hash_node_base"** %1021, null
  br i1 %1022, label %1025, label %1023

1023:                                             ; preds = %1019
  %1024 = bitcast %"struct.std::__1::__hash_node_base"** %1021 to i8*
  tail call void @_ZdlPv(i8* %1024) #16
  br label %1025

1025:                                             ; preds = %1023, %1019
  %1026 = getelementptr inbounds %"struct.tint::(anonymous namespace)::Impl::Overload", %"struct.tint::(anonymous namespace)::Impl::Overload"* %227, i64 0, i32 2, i32 0, i32 0
  %1027 = load %"struct.tint::(anonymous namespace)::Impl::Parameter"*, %"struct.tint::(anonymous namespace)::Impl::Parameter"** %1026, align 8
  %1028 = icmp eq %"struct.tint::(anonymous namespace)::Impl::Parameter"* %1027, null
  br i1 %1028, label %1032, label %1029

1029:                                             ; preds = %1025
  %1030 = ptrtoint %"struct.tint::(anonymous namespace)::Impl::Parameter"* %1027 to i64
  store i64 %1030, i64* %1003, align 8
  %1031 = bitcast %"struct.tint::(anonymous namespace)::Impl::Parameter"* %1027 to i8*
  tail call void @_ZdlPv(i8* %1031) #16
  br label %1032

1032:                                             ; preds = %1029, %1025
  call void @llvm.lifetime.end.p0i8(i64 80, i8* nonnull %997) #17
  %1033 = tail call i8* @_Znwm(i64 32) #16
  %1034 = ptrtoint i8* %1033 to i64
  %1035 = getelementptr inbounds i8, i8* %1033, i64 32
  %1036 = ptrtoint i8* %1035 to i64
  %1037 = bitcast i8* %1033 to %"class.tint::(anonymous namespace)::Builder"**
  store %"class.tint::(anonymous namespace)::Builder"* %289, %"class.tint::(anonymous namespace)::Builder"** %1037, align 8
  %1038 = getelementptr inbounds i8, i8* %1033, i64 8
  %1039 = bitcast i8* %1038 to i32*
  store i32 0, i32* %1039, align 8
  %1040 = getelementptr inbounds i8, i8* %1033, i64 16
  %1041 = bitcast i8* %1040 to %"class.tint::(anonymous namespace)::Builder"**
  store %"class.tint::(anonymous namespace)::Builder"* %289, %"class.tint::(anonymous namespace)::Builder"** %1041, align 8
  %1042 = getelementptr inbounds i8, i8* %1033, i64 24
  %1043 = bitcast i8* %1042 to i32*
  store i32 0, i32* %1043, align 8
  %1044 = bitcast %"struct.tint::(anonymous namespace)::Impl::Overload"* %226 to i8*
  call void @llvm.lifetime.start.p0i8(i64 80, i8* nonnull %1044) #17
  call void @llvm.memcpy.p0i8.p0i8.i64(i8* nonnull align 8 %1044, i8* align 8 bitcast ({ i32, [4 x i8], %"class.tint::(anonymous namespace)::Builder"*, %"class.std::__1::vector.10", %"class.std::__1::unordered_map" }* @__const._ZN4tint12_GLOBAL__N_14Impl8RegisterENS_3sem13IntrinsicTypeEPNS0_7BuilderENSt3__16vectorINS1_9ParameterENS6_9allocatorIS8_EEEE.overload to i8*), i64 80, i1 false) #17
  %1045 = getelementptr inbounds %"struct.tint::(anonymous namespace)::Impl::Overload", %"struct.tint::(anonymous namespace)::Impl::Overload"* %226, i64 0, i32 0
  store i32 7, i32* %1045, align 8
  %1046 = getelementptr inbounds %"struct.tint::(anonymous namespace)::Impl::Overload", %"struct.tint::(anonymous namespace)::Impl::Overload"* %226, i64 0, i32 1
  store %"class.tint::(anonymous namespace)::Builder"* %289, %"class.tint::(anonymous namespace)::Builder"** %1046, align 8
  %1047 = getelementptr inbounds %"struct.tint::(anonymous namespace)::Impl::Overload", %"struct.tint::(anonymous namespace)::Impl::Overload"* %226, i64 0, i32 2
  %1048 = bitcast %"class.std::__1::vector.10"* %1047 to i64*
  store i64 %1034, i64* %1048, align 8
  %1049 = getelementptr inbounds %"struct.tint::(anonymous namespace)::Impl::Overload", %"struct.tint::(anonymous namespace)::Impl::Overload"* %226, i64 0, i32 2, i32 0, i32 1
  %1050 = bitcast %"struct.tint::(anonymous namespace)::Impl::Parameter"** %1049 to i64*
  store i64 %1036, i64* %1050, align 8
  %1051 = getelementptr inbounds %"struct.tint::(anonymous namespace)::Impl::Overload", %"struct.tint::(anonymous namespace)::Impl::Overload"* %226, i64 0, i32 2, i32 0, i32 2, i32 0, i32 0
  %1052 = bitcast %"struct.tint::(anonymous namespace)::Impl::Parameter"** %1051 to i64*
  store i64 %1036, i64* %1052, align 8
  %1053 = getelementptr inbounds %"struct.tint::(anonymous namespace)::Impl::Overload", %"struct.tint::(anonymous namespace)::Impl::Overload"* %226, i64 0, i32 3
  %1054 = getelementptr inbounds %"struct.tint::(anonymous namespace)::Impl::Overload", %"struct.tint::(anonymous namespace)::Impl::Overload"* %226, i64 0, i32 3, i32 0, i32 3
  %1055 = bitcast %"class.std::__1::__compressed_pair.33"* %1054 to i32*
  %1056 = bitcast %"class.std::__1::unordered_map"* %1053 to i8*
  call void @llvm.memset.p0i8.i64(i8* align 8 %1056, i8 0, i64 32, i1 false) #17
  store i32 1065353216, i32* %1055, align 8
  call fastcc void @_ZNSt3__16vectorIN4tint12_GLOBAL__N_14Impl8OverloadENS_9allocatorIS4_EEE12emplace_backIJS4_EEEvDpOT_(%"class.std::__1::vector.8"* %268, %"struct.tint::(anonymous namespace)::Impl::Overload"* nonnull dereferenceable(80) %226) #17
  %1057 = getelementptr inbounds %"struct.tint::(anonymous namespace)::Impl::Overload", %"struct.tint::(anonymous namespace)::Impl::Overload"* %226, i64 0, i32 3, i32 0, i32 1, i32 0, i32 0, i32 0
  %1058 = load %"struct.std::__1::__hash_node_base"*, %"struct.std::__1::__hash_node_base"** %1057, align 8
  %1059 = icmp eq %"struct.std::__1::__hash_node_base"* %1058, null
  br i1 %1059, label %1066, label %1060

1060:                                             ; preds = %1032, %1060
  %1061 = phi %"struct.std::__1::__hash_node_base"* [ %1063, %1060 ], [ %1058, %1032 ]
  %1062 = getelementptr inbounds %"struct.std::__1::__hash_node_base", %"struct.std::__1::__hash_node_base"* %1061, i64 0, i32 0
  %1063 = load %"struct.std::__1::__hash_node_base"*, %"struct.std::__1::__hash_node_base"** %1062, align 8
  %1064 = bitcast %"struct.std::__1::__hash_node_base"* %1061 to i8*
  tail call void @_ZdlPv(i8* %1064) #16
  %1065 = icmp eq %"struct.std::__1::__hash_node_base"* %1063, null
  br i1 %1065, label %1066, label %1060

1066:                                             ; preds = %1060, %1032
  %1067 = getelementptr inbounds %"struct.tint::(anonymous namespace)::Impl::Overload", %"struct.tint::(anonymous namespace)::Impl::Overload"* %226, i64 0, i32 3, i32 0, i32 0, i32 0, i32 0, i32 0
  %1068 = load %"struct.std::__1::__hash_node_base"**, %"struct.std::__1::__hash_node_base"*** %1067, align 8
  store %"struct.std::__1::__hash_node_base"** null, %"struct.std::__1::__hash_node_base"*** %1067, align 8
  %1069 = icmp eq %"struct.std::__1::__hash_node_base"** %1068, null
  br i1 %1069, label %1072, label %1070

1070:                                             ; preds = %1066
  %1071 = bitcast %"struct.std::__1::__hash_node_base"** %1068 to i8*
  tail call void @_ZdlPv(i8* %1071) #16
  br label %1072

1072:                                             ; preds = %1070, %1066
  %1073 = getelementptr inbounds %"struct.tint::(anonymous namespace)::Impl::Overload", %"struct.tint::(anonymous namespace)::Impl::Overload"* %226, i64 0, i32 2, i32 0, i32 0
  %1074 = load %"struct.tint::(anonymous namespace)::Impl::Parameter"*, %"struct.tint::(anonymous namespace)::Impl::Parameter"** %1073, align 8
  %1075 = icmp eq %"struct.tint::(anonymous namespace)::Impl::Parameter"* %1074, null
  br i1 %1075, label %1079, label %1076

1076:                                             ; preds = %1072
  %1077 = ptrtoint %"struct.tint::(anonymous namespace)::Impl::Parameter"* %1074 to i64
  store i64 %1077, i64* %1050, align 8
  %1078 = bitcast %"struct.tint::(anonymous namespace)::Impl::Parameter"* %1074 to i8*
  tail call void @_ZdlPv(i8* %1078) #16
  br label %1079

1079:                                             ; preds = %1076, %1072
  call void @llvm.lifetime.end.p0i8(i64 80, i8* nonnull %1044) #17
  %1080 = tail call i8* @_Znwm(i64 32) #16
  %1081 = ptrtoint i8* %1080 to i64
  %1082 = getelementptr inbounds i8, i8* %1080, i64 32
  %1083 = ptrtoint i8* %1082 to i64
  %1084 = bitcast i8* %1080 to %"class.tint::(anonymous namespace)::Builder"**
  store %"class.tint::(anonymous namespace)::Builder"* %297, %"class.tint::(anonymous namespace)::Builder"** %1084, align 8
  %1085 = getelementptr inbounds i8, i8* %1080, i64 8
  %1086 = bitcast i8* %1085 to i32*
  store i32 0, i32* %1086, align 8
  %1087 = getelementptr inbounds i8, i8* %1080, i64 16
  %1088 = bitcast i8* %1087 to %"class.tint::(anonymous namespace)::Builder"**
  store %"class.tint::(anonymous namespace)::Builder"* %297, %"class.tint::(anonymous namespace)::Builder"** %1088, align 8
  %1089 = getelementptr inbounds i8, i8* %1080, i64 24
  %1090 = bitcast i8* %1089 to i32*
  store i32 0, i32* %1090, align 8
  %1091 = bitcast %"struct.tint::(anonymous namespace)::Impl::Overload"* %225 to i8*
  call void @llvm.lifetime.start.p0i8(i64 80, i8* nonnull %1091) #17
  call void @llvm.memcpy.p0i8.p0i8.i64(i8* nonnull align 8 %1091, i8* align 8 bitcast ({ i32, [4 x i8], %"class.tint::(anonymous namespace)::Builder"*, %"class.std::__1::vector.10", %"class.std::__1::unordered_map" }* @__const._ZN4tint12_GLOBAL__N_14Impl8RegisterENS_3sem13IntrinsicTypeEPNS0_7BuilderENSt3__16vectorINS1_9ParameterENS6_9allocatorIS8_EEEE.overload to i8*), i64 80, i1 false) #17
  %1092 = getelementptr inbounds %"struct.tint::(anonymous namespace)::Impl::Overload", %"struct.tint::(anonymous namespace)::Impl::Overload"* %225, i64 0, i32 0
  store i32 7, i32* %1092, align 8
  %1093 = getelementptr inbounds %"struct.tint::(anonymous namespace)::Impl::Overload", %"struct.tint::(anonymous namespace)::Impl::Overload"* %225, i64 0, i32 1
  store %"class.tint::(anonymous namespace)::Builder"* %297, %"class.tint::(anonymous namespace)::Builder"** %1093, align 8
  %1094 = getelementptr inbounds %"struct.tint::(anonymous namespace)::Impl::Overload", %"struct.tint::(anonymous namespace)::Impl::Overload"* %225, i64 0, i32 2
  %1095 = bitcast %"class.std::__1::vector.10"* %1094 to i64*
  store i64 %1081, i64* %1095, align 8
  %1096 = getelementptr inbounds %"struct.tint::(anonymous namespace)::Impl::Overload", %"struct.tint::(anonymous namespace)::Impl::Overload"* %225, i64 0, i32 2, i32 0, i32 1
  %1097 = bitcast %"struct.tint::(anonymous namespace)::Impl::Parameter"** %1096 to i64*
  store i64 %1083, i64* %1097, align 8
  %1098 = getelementptr inbounds %"struct.tint::(anonymous namespace)::Impl::Overload", %"struct.tint::(anonymous namespace)::Impl::Overload"* %225, i64 0, i32 2, i32 0, i32 2, i32 0, i32 0
  %1099 = bitcast %"struct.tint::(anonymous namespace)::Impl::Parameter"** %1098 to i64*
  store i64 %1083, i64* %1099, align 8
  %1100 = getelementptr inbounds %"struct.tint::(anonymous namespace)::Impl::Overload", %"struct.tint::(anonymous namespace)::Impl::Overload"* %225, i64 0, i32 3
  %1101 = getelementptr inbounds %"struct.tint::(anonymous namespace)::Impl::Overload", %"struct.tint::(anonymous namespace)::Impl::Overload"* %225, i64 0, i32 3, i32 0, i32 3
  %1102 = bitcast %"class.std::__1::__compressed_pair.33"* %1101 to i32*
  %1103 = bitcast %"class.std::__1::unordered_map"* %1100 to i8*
  call void @llvm.memset.p0i8.i64(i8* align 8 %1103, i8 0, i64 32, i1 false) #17
  store i32 1065353216, i32* %1102, align 8
  call fastcc void @_ZNSt3__16vectorIN4tint12_GLOBAL__N_14Impl8OverloadENS_9allocatorIS4_EEE12emplace_backIJS4_EEEvDpOT_(%"class.std::__1::vector.8"* %268, %"struct.tint::(anonymous namespace)::Impl::Overload"* nonnull dereferenceable(80) %225) #17
  %1104 = getelementptr inbounds %"struct.tint::(anonymous namespace)::Impl::Overload", %"struct.tint::(anonymous namespace)::Impl::Overload"* %225, i64 0, i32 3, i32 0, i32 1, i32 0, i32 0, i32 0
  %1105 = load %"struct.std::__1::__hash_node_base"*, %"struct.std::__1::__hash_node_base"** %1104, align 8
  %1106 = icmp eq %"struct.std::__1::__hash_node_base"* %1105, null
  br i1 %1106, label %1113, label %1107

1107:                                             ; preds = %1079, %1107
  %1108 = phi %"struct.std::__1::__hash_node_base"* [ %1110, %1107 ], [ %1105, %1079 ]
  %1109 = getelementptr inbounds %"struct.std::__1::__hash_node_base", %"struct.std::__1::__hash_node_base"* %1108, i64 0, i32 0
  %1110 = load %"struct.std::__1::__hash_node_base"*, %"struct.std::__1::__hash_node_base"** %1109, align 8
  %1111 = bitcast %"struct.std::__1::__hash_node_base"* %1108 to i8*
  tail call void @_ZdlPv(i8* %1111) #16
  %1112 = icmp eq %"struct.std::__1::__hash_node_base"* %1110, null
  br i1 %1112, label %1113, label %1107

1113:                                             ; preds = %1107, %1079
  %1114 = getelementptr inbounds %"struct.tint::(anonymous namespace)::Impl::Overload", %"struct.tint::(anonymous namespace)::Impl::Overload"* %225, i64 0, i32 3, i32 0, i32 0, i32 0, i32 0, i32 0
  %1115 = load %"struct.std::__1::__hash_node_base"**, %"struct.std::__1::__hash_node_base"*** %1114, align 8
  store %"struct.std::__1::__hash_node_base"** null, %"struct.std::__1::__hash_node_base"*** %1114, align 8
  %1116 = icmp eq %"struct.std::__1::__hash_node_base"** %1115, null
  br i1 %1116, label %1119, label %1117

1117:                                             ; preds = %1113
  %1118 = bitcast %"struct.std::__1::__hash_node_base"** %1115 to i8*
  tail call void @_ZdlPv(i8* %1118) #16
  br label %1119

1119:                                             ; preds = %1117, %1113
  %1120 = getelementptr inbounds %"struct.tint::(anonymous namespace)::Impl::Overload", %"struct.tint::(anonymous namespace)::Impl::Overload"* %225, i64 0, i32 2, i32 0, i32 0
  %1121 = load %"struct.tint::(anonymous namespace)::Impl::Parameter"*, %"struct.tint::(anonymous namespace)::Impl::Parameter"** %1120, align 8
  %1122 = icmp eq %"struct.tint::(anonymous namespace)::Impl::Parameter"* %1121, null
  br i1 %1122, label %1126, label %1123

1123:                                             ; preds = %1119
  %1124 = ptrtoint %"struct.tint::(anonymous namespace)::Impl::Parameter"* %1121 to i64
  store i64 %1124, i64* %1097, align 8
  %1125 = bitcast %"struct.tint::(anonymous namespace)::Impl::Parameter"* %1121 to i8*
  tail call void @_ZdlPv(i8* %1125) #16
  br label %1126

1126:                                             ; preds = %1123, %1119
  call void @llvm.lifetime.end.p0i8(i64 80, i8* nonnull %1091) #17
  %1127 = tail call i8* @_Znwm(i64 16) #16
  %1128 = ptrtoint i8* %1127 to i64
  %1129 = getelementptr inbounds i8, i8* %1127, i64 16
  %1130 = ptrtoint i8* %1129 to i64
  %1131 = bitcast i8* %1127 to %"class.tint::(anonymous namespace)::Builder"**
  store %"class.tint::(anonymous namespace)::Builder"* %289, %"class.tint::(anonymous namespace)::Builder"** %1131, align 8
  %1132 = getelementptr inbounds i8, i8* %1127, i64 8
  %1133 = bitcast i8* %1132 to i32*
  store i32 0, i32* %1133, align 8
  %1134 = bitcast %"struct.tint::(anonymous namespace)::Impl::Overload"* %224 to i8*
  call void @llvm.lifetime.start.p0i8(i64 80, i8* nonnull %1134) #17
  call void @llvm.memcpy.p0i8.p0i8.i64(i8* nonnull align 8 %1134, i8* align 8 bitcast ({ i32, [4 x i8], %"class.tint::(anonymous namespace)::Builder"*, %"class.std::__1::vector.10", %"class.std::__1::unordered_map" }* @__const._ZN4tint12_GLOBAL__N_14Impl8RegisterENS_3sem13IntrinsicTypeEPNS0_7BuilderENSt3__16vectorINS1_9ParameterENS6_9allocatorIS8_EEEE.overload to i8*), i64 80, i1 false) #17
  %1135 = getelementptr inbounds %"struct.tint::(anonymous namespace)::Impl::Overload", %"struct.tint::(anonymous namespace)::Impl::Overload"* %224, i64 0, i32 0
  store i32 8, i32* %1135, align 8
  %1136 = getelementptr inbounds %"struct.tint::(anonymous namespace)::Impl::Overload", %"struct.tint::(anonymous namespace)::Impl::Overload"* %224, i64 0, i32 1
  store %"class.tint::(anonymous namespace)::Builder"* %289, %"class.tint::(anonymous namespace)::Builder"** %1136, align 8
  %1137 = getelementptr inbounds %"struct.tint::(anonymous namespace)::Impl::Overload", %"struct.tint::(anonymous namespace)::Impl::Overload"* %224, i64 0, i32 2
  %1138 = bitcast %"class.std::__1::vector.10"* %1137 to i64*
  store i64 %1128, i64* %1138, align 8
  %1139 = getelementptr inbounds %"struct.tint::(anonymous namespace)::Impl::Overload", %"struct.tint::(anonymous namespace)::Impl::Overload"* %224, i64 0, i32 2, i32 0, i32 1
  %1140 = bitcast %"struct.tint::(anonymous namespace)::Impl::Parameter"** %1139 to i64*
  store i64 %1130, i64* %1140, align 8
  %1141 = getelementptr inbounds %"struct.tint::(anonymous namespace)::Impl::Overload", %"struct.tint::(anonymous namespace)::Impl::Overload"* %224, i64 0, i32 2, i32 0, i32 2, i32 0, i32 0
  %1142 = bitcast %"struct.tint::(anonymous namespace)::Impl::Parameter"** %1141 to i64*
  store i64 %1130, i64* %1142, align 8
  %1143 = getelementptr inbounds %"struct.tint::(anonymous namespace)::Impl::Overload", %"struct.tint::(anonymous namespace)::Impl::Overload"* %224, i64 0, i32 3
  %1144 = getelementptr inbounds %"struct.tint::(anonymous namespace)::Impl::Overload", %"struct.tint::(anonymous namespace)::Impl::Overload"* %224, i64 0, i32 3, i32 0, i32 3
  %1145 = bitcast %"class.std::__1::__compressed_pair.33"* %1144 to i32*
  %1146 = bitcast %"class.std::__1::unordered_map"* %1143 to i8*
  call void @llvm.memset.p0i8.i64(i8* align 8 %1146, i8 0, i64 32, i1 false) #17
  store i32 1065353216, i32* %1145, align 8
  call fastcc void @_ZNSt3__16vectorIN4tint12_GLOBAL__N_14Impl8OverloadENS_9allocatorIS4_EEE12emplace_backIJS4_EEEvDpOT_(%"class.std::__1::vector.8"* %268, %"struct.tint::(anonymous namespace)::Impl::Overload"* nonnull dereferenceable(80) %224) #17
  %1147 = getelementptr inbounds %"struct.tint::(anonymous namespace)::Impl::Overload", %"struct.tint::(anonymous namespace)::Impl::Overload"* %224, i64 0, i32 3, i32 0, i32 1, i32 0, i32 0, i32 0
  %1148 = load %"struct.std::__1::__hash_node_base"*, %"struct.std::__1::__hash_node_base"** %1147, align 8
  %1149 = icmp eq %"struct.std::__1::__hash_node_base"* %1148, null
  br i1 %1149, label %1156, label %1150

1150:                                             ; preds = %1126, %1150
  %1151 = phi %"struct.std::__1::__hash_node_base"* [ %1153, %1150 ], [ %1148, %1126 ]
  %1152 = getelementptr inbounds %"struct.std::__1::__hash_node_base", %"struct.std::__1::__hash_node_base"* %1151, i64 0, i32 0
  %1153 = load %"struct.std::__1::__hash_node_base"*, %"struct.std::__1::__hash_node_base"** %1152, align 8
  %1154 = bitcast %"struct.std::__1::__hash_node_base"* %1151 to i8*
  tail call void @_ZdlPv(i8* %1154) #16
  %1155 = icmp eq %"struct.std::__1::__hash_node_base"* %1153, null
  br i1 %1155, label %1156, label %1150

1156:                                             ; preds = %1150, %1126
  %1157 = getelementptr inbounds %"struct.tint::(anonymous namespace)::Impl::Overload", %"struct.tint::(anonymous namespace)::Impl::Overload"* %224, i64 0, i32 3, i32 0, i32 0, i32 0, i32 0, i32 0
  %1158 = load %"struct.std::__1::__hash_node_base"**, %"struct.std::__1::__hash_node_base"*** %1157, align 8
  store %"struct.std::__1::__hash_node_base"** null, %"struct.std::__1::__hash_node_base"*** %1157, align 8
  %1159 = icmp eq %"struct.std::__1::__hash_node_base"** %1158, null
  br i1 %1159, label %1162, label %1160

1160:                                             ; preds = %1156
  %1161 = bitcast %"struct.std::__1::__hash_node_base"** %1158 to i8*
  tail call void @_ZdlPv(i8* %1161) #16
  br label %1162

1162:                                             ; preds = %1160, %1156
  %1163 = getelementptr inbounds %"struct.tint::(anonymous namespace)::Impl::Overload", %"struct.tint::(anonymous namespace)::Impl::Overload"* %224, i64 0, i32 2, i32 0, i32 0
  %1164 = load %"struct.tint::(anonymous namespace)::Impl::Parameter"*, %"struct.tint::(anonymous namespace)::Impl::Parameter"** %1163, align 8
  %1165 = icmp eq %"struct.tint::(anonymous namespace)::Impl::Parameter"* %1164, null
  br i1 %1165, label %1169, label %1166

1166:                                             ; preds = %1162
  %1167 = ptrtoint %"struct.tint::(anonymous namespace)::Impl::Parameter"* %1164 to i64
  store i64 %1167, i64* %1140, align 8
  %1168 = bitcast %"struct.tint::(anonymous namespace)::Impl::Parameter"* %1164 to i8*
  tail call void @_ZdlPv(i8* %1168) #16
  br label %1169

1169:                                             ; preds = %1166, %1162
  call void @llvm.lifetime.end.p0i8(i64 80, i8* nonnull %1134) #17
  %1170 = tail call i8* @_Znwm(i64 16) #16
  %1171 = ptrtoint i8* %1170 to i64
  %1172 = getelementptr inbounds i8, i8* %1170, i64 16
  %1173 = ptrtoint i8* %1172 to i64
  %1174 = bitcast i8* %1170 to %"class.tint::(anonymous namespace)::Builder"**
  store %"class.tint::(anonymous namespace)::Builder"* %297, %"class.tint::(anonymous namespace)::Builder"** %1174, align 8
  %1175 = getelementptr inbounds i8, i8* %1170, i64 8
  %1176 = bitcast i8* %1175 to i32*
  store i32 0, i32* %1176, align 8
  %1177 = bitcast %"struct.tint::(anonymous namespace)::Impl::Overload"* %223 to i8*
  call void @llvm.lifetime.start.p0i8(i64 80, i8* nonnull %1177) #17
  call void @llvm.memcpy.p0i8.p0i8.i64(i8* nonnull align 8 %1177, i8* align 8 bitcast ({ i32, [4 x i8], %"class.tint::(anonymous namespace)::Builder"*, %"class.std::__1::vector.10", %"class.std::__1::unordered_map" }* @__const._ZN4tint12_GLOBAL__N_14Impl8RegisterENS_3sem13IntrinsicTypeEPNS0_7BuilderENSt3__16vectorINS1_9ParameterENS6_9allocatorIS8_EEEE.overload to i8*), i64 80, i1 false) #17
  %1178 = getelementptr inbounds %"struct.tint::(anonymous namespace)::Impl::Overload", %"struct.tint::(anonymous namespace)::Impl::Overload"* %223, i64 0, i32 0
  store i32 8, i32* %1178, align 8
  %1179 = getelementptr inbounds %"struct.tint::(anonymous namespace)::Impl::Overload", %"struct.tint::(anonymous namespace)::Impl::Overload"* %223, i64 0, i32 1
  store %"class.tint::(anonymous namespace)::Builder"* %297, %"class.tint::(anonymous namespace)::Builder"** %1179, align 8
  %1180 = getelementptr inbounds %"struct.tint::(anonymous namespace)::Impl::Overload", %"struct.tint::(anonymous namespace)::Impl::Overload"* %223, i64 0, i32 2
  %1181 = bitcast %"class.std::__1::vector.10"* %1180 to i64*
  store i64 %1171, i64* %1181, align 8
  %1182 = getelementptr inbounds %"struct.tint::(anonymous namespace)::Impl::Overload", %"struct.tint::(anonymous namespace)::Impl::Overload"* %223, i64 0, i32 2, i32 0, i32 1
  %1183 = bitcast %"struct.tint::(anonymous namespace)::Impl::Parameter"** %1182 to i64*
  store i64 %1173, i64* %1183, align 8
  %1184 = getelementptr inbounds %"struct.tint::(anonymous namespace)::Impl::Overload", %"struct.tint::(anonymous namespace)::Impl::Overload"* %223, i64 0, i32 2, i32 0, i32 2, i32 0, i32 0
  %1185 = bitcast %"struct.tint::(anonymous namespace)::Impl::Parameter"** %1184 to i64*
  store i64 %1173, i64* %1185, align 8
  %1186 = getelementptr inbounds %"struct.tint::(anonymous namespace)::Impl::Overload", %"struct.tint::(anonymous namespace)::Impl::Overload"* %223, i64 0, i32 3
  %1187 = getelementptr inbounds %"struct.tint::(anonymous namespace)::Impl::Overload", %"struct.tint::(anonymous namespace)::Impl::Overload"* %223, i64 0, i32 3, i32 0, i32 3
  %1188 = bitcast %"class.std::__1::__compressed_pair.33"* %1187 to i32*
  %1189 = bitcast %"class.std::__1::unordered_map"* %1186 to i8*
  call void @llvm.memset.p0i8.i64(i8* align 8 %1189, i8 0, i64 32, i1 false) #17
  store i32 1065353216, i32* %1188, align 8
  call fastcc void @_ZNSt3__16vectorIN4tint12_GLOBAL__N_14Impl8OverloadENS_9allocatorIS4_EEE12emplace_backIJS4_EEEvDpOT_(%"class.std::__1::vector.8"* %268, %"struct.tint::(anonymous namespace)::Impl::Overload"* nonnull dereferenceable(80) %223) #17
  %1190 = getelementptr inbounds %"struct.tint::(anonymous namespace)::Impl::Overload", %"struct.tint::(anonymous namespace)::Impl::Overload"* %223, i64 0, i32 3, i32 0, i32 1, i32 0, i32 0, i32 0
  %1191 = load %"struct.std::__1::__hash_node_base"*, %"struct.std::__1::__hash_node_base"** %1190, align 8
  %1192 = icmp eq %"struct.std::__1::__hash_node_base"* %1191, null
  br i1 %1192, label %1199, label %1193

1193:                                             ; preds = %1169, %1193
  %1194 = phi %"struct.std::__1::__hash_node_base"* [ %1196, %1193 ], [ %1191, %1169 ]
  %1195 = getelementptr inbounds %"struct.std::__1::__hash_node_base", %"struct.std::__1::__hash_node_base"* %1194, i64 0, i32 0
  %1196 = load %"struct.std::__1::__hash_node_base"*, %"struct.std::__1::__hash_node_base"** %1195, align 8
  %1197 = bitcast %"struct.std::__1::__hash_node_base"* %1194 to i8*
  tail call void @_ZdlPv(i8* %1197) #16
  %1198 = icmp eq %"struct.std::__1::__hash_node_base"* %1196, null
  br i1 %1198, label %1199, label %1193

1199:                                             ; preds = %1193, %1169
  %1200 = getelementptr inbounds %"struct.tint::(anonymous namespace)::Impl::Overload", %"struct.tint::(anonymous namespace)::Impl::Overload"* %223, i64 0, i32 3, i32 0, i32 0, i32 0, i32 0, i32 0
  %1201 = load %"struct.std::__1::__hash_node_base"**, %"struct.std::__1::__hash_node_base"*** %1200, align 8
  store %"struct.std::__1::__hash_node_base"** null, %"struct.std::__1::__hash_node_base"*** %1200, align 8
  %1202 = icmp eq %"struct.std::__1::__hash_node_base"** %1201, null
  br i1 %1202, label %1205, label %1203

1203:                                             ; preds = %1199
  %1204 = bitcast %"struct.std::__1::__hash_node_base"** %1201 to i8*
  tail call void @_ZdlPv(i8* %1204) #16
  br label %1205

1205:                                             ; preds = %1203, %1199
  %1206 = getelementptr inbounds %"struct.tint::(anonymous namespace)::Impl::Overload", %"struct.tint::(anonymous namespace)::Impl::Overload"* %223, i64 0, i32 2, i32 0, i32 0
  %1207 = load %"struct.tint::(anonymous namespace)::Impl::Parameter"*, %"struct.tint::(anonymous namespace)::Impl::Parameter"** %1206, align 8
  %1208 = icmp eq %"struct.tint::(anonymous namespace)::Impl::Parameter"* %1207, null
  br i1 %1208, label %1212, label %1209

1209:                                             ; preds = %1205
  %1210 = ptrtoint %"struct.tint::(anonymous namespace)::Impl::Parameter"* %1207 to i64
  store i64 %1210, i64* %1183, align 8
  %1211 = bitcast %"struct.tint::(anonymous namespace)::Impl::Parameter"* %1207 to i8*
  tail call void @_ZdlPv(i8* %1211) #16
  br label %1212

1212:                                             ; preds = %1209, %1205
  call void @llvm.lifetime.end.p0i8(i64 80, i8* nonnull %1177) #17
  %1213 = tail call i8* @_Znwm(i64 48) #16
  %1214 = getelementptr inbounds %"class.std::__1::vector.10", %"class.std::__1::vector.10"* %238, i64 0, i32 0, i32 1
  %1215 = bitcast %"class.std::__1::vector.10"* %238 to i8**
  store i8* %1213, i8** %1215, align 8
  %1216 = getelementptr inbounds i8, i8* %1213, i64 48
  %1217 = getelementptr inbounds %"class.std::__1::vector.10", %"class.std::__1::vector.10"* %238, i64 0, i32 0, i32 2, i32 0, i32 0
  %1218 = bitcast %"struct.tint::(anonymous namespace)::Impl::Parameter"** %1217 to i8**
  store i8* %1216, i8** %1218, align 8
  %1219 = bitcast %"struct.tint::(anonymous namespace)::Impl::Parameter"** %1214 to i64*
  %1220 = bitcast i8* %1213 to %"class.tint::(anonymous namespace)::Builder"**
  store %"class.tint::(anonymous namespace)::Builder"* %272, %"class.tint::(anonymous namespace)::Builder"** %1220, align 8
  %1221 = getelementptr inbounds i8, i8* %1213, i64 8
  %1222 = bitcast i8* %1221 to i32*
  store i32 0, i32* %1222, align 8
  %1223 = getelementptr inbounds i8, i8* %1213, i64 16
  %1224 = bitcast i8* %1223 to %"class.tint::(anonymous namespace)::Builder"**
  store %"class.tint::(anonymous namespace)::Builder"* %272, %"class.tint::(anonymous namespace)::Builder"** %1224, align 8
  %1225 = getelementptr inbounds i8, i8* %1213, i64 24
  %1226 = bitcast i8* %1225 to i32*
  store i32 0, i32* %1226, align 8
  %1227 = getelementptr inbounds i8, i8* %1213, i64 32
  %1228 = bitcast i8* %1227 to %"class.tint::(anonymous namespace)::Builder"**
  store %"class.tint::(anonymous namespace)::Builder"* %272, %"class.tint::(anonymous namespace)::Builder"** %1228, align 8
  %1229 = getelementptr inbounds i8, i8* %1213, i64 40
  %1230 = bitcast i8* %1229 to i32*
  store i32 0, i32* %1230, align 8
  %1231 = ptrtoint i8* %1216 to i64
  store i64 %1231, i64* %1219, align 8
  call fastcc void @_ZN4tint12_GLOBAL__N_14Impl8RegisterENS_3sem13IntrinsicTypeEPNS0_7BuilderENSt3__16vectorINS1_9ParameterENS6_9allocatorIS8_EEEENS6_4pairINS0_8OpenTypeEPNS0_7MatcherEEE(%"class.tint::(anonymous namespace)::Impl"* %0, i32 9, %"class.tint::(anonymous namespace)::Builder"* %272, %"class.std::__1::vector.10"* nonnull %238, i32 0, %"class.tint::(anonymous namespace)::Matcher"* %619)
  %1232 = getelementptr inbounds %"class.std::__1::vector.10", %"class.std::__1::vector.10"* %238, i64 0, i32 0, i32 0
  %1233 = load %"struct.tint::(anonymous namespace)::Impl::Parameter"*, %"struct.tint::(anonymous namespace)::Impl::Parameter"** %1232, align 8
  %1234 = icmp eq %"struct.tint::(anonymous namespace)::Impl::Parameter"* %1233, null
  br i1 %1234, label %1238, label %1235

1235:                                             ; preds = %1212
  %1236 = ptrtoint %"struct.tint::(anonymous namespace)::Impl::Parameter"* %1233 to i64
  store i64 %1236, i64* %1219, align 8
  %1237 = bitcast %"struct.tint::(anonymous namespace)::Impl::Parameter"* %1233 to i8*
  tail call void @_ZdlPv(i8* %1237) #16
  br label %1238

1238:                                             ; preds = %1212, %1235
  %1239 = tail call i8* @_Znwm(i64 48) #16
  %1240 = getelementptr inbounds %"class.std::__1::vector.10", %"class.std::__1::vector.10"* %239, i64 0, i32 0, i32 1
  %1241 = bitcast %"class.std::__1::vector.10"* %239 to i8**
  store i8* %1239, i8** %1241, align 8
  %1242 = getelementptr inbounds i8, i8* %1239, i64 48
  %1243 = getelementptr inbounds %"class.std::__1::vector.10", %"class.std::__1::vector.10"* %239, i64 0, i32 0, i32 2, i32 0, i32 0
  %1244 = bitcast %"struct.tint::(anonymous namespace)::Impl::Parameter"** %1243 to i8**
  store i8* %1242, i8** %1244, align 8
  %1245 = bitcast %"struct.tint::(anonymous namespace)::Impl::Parameter"** %1240 to i64*
  %1246 = bitcast i8* %1239 to %"class.tint::(anonymous namespace)::Builder"**
  store %"class.tint::(anonymous namespace)::Builder"* %298, %"class.tint::(anonymous namespace)::Builder"** %1246, align 8
  %1247 = getelementptr inbounds i8, i8* %1239, i64 8
  %1248 = bitcast i8* %1247 to i32*
  store i32 0, i32* %1248, align 8
  %1249 = getelementptr inbounds i8, i8* %1239, i64 16
  %1250 = bitcast i8* %1249 to %"class.tint::(anonymous namespace)::Builder"**
  store %"class.tint::(anonymous namespace)::Builder"* %298, %"class.tint::(anonymous namespace)::Builder"** %1250, align 8
  %1251 = getelementptr inbounds i8, i8* %1239, i64 24
  %1252 = bitcast i8* %1251 to i32*
  store i32 0, i32* %1252, align 8
  %1253 = getelementptr inbounds i8, i8* %1239, i64 32
  %1254 = bitcast i8* %1253 to %"class.tint::(anonymous namespace)::Builder"**
  store %"class.tint::(anonymous namespace)::Builder"* %298, %"class.tint::(anonymous namespace)::Builder"** %1254, align 8
  %1255 = getelementptr inbounds i8, i8* %1239, i64 40
  %1256 = bitcast i8* %1255 to i32*
  store i32 0, i32* %1256, align 8
  %1257 = ptrtoint i8* %1242 to i64
  store i64 %1257, i64* %1245, align 8
  call fastcc void @_ZN4tint12_GLOBAL__N_14Impl8RegisterENS_3sem13IntrinsicTypeEPNS0_7BuilderENSt3__16vectorINS1_9ParameterENS6_9allocatorIS8_EEEENS6_4pairINS0_8OpenTypeEPNS0_7MatcherEEE(%"class.tint::(anonymous namespace)::Impl"* %0, i32 9, %"class.tint::(anonymous namespace)::Builder"* nonnull %298, %"class.std::__1::vector.10"* nonnull %239, i32 0, %"class.tint::(anonymous namespace)::Matcher"* %619)
  %1258 = getelementptr inbounds %"class.std::__1::vector.10", %"class.std::__1::vector.10"* %239, i64 0, i32 0, i32 0
  %1259 = load %"struct.tint::(anonymous namespace)::Impl::Parameter"*, %"struct.tint::(anonymous namespace)::Impl::Parameter"** %1258, align 8
  %1260 = icmp eq %"struct.tint::(anonymous namespace)::Impl::Parameter"* %1259, null
  br i1 %1260, label %1264, label %1261

1261:                                             ; preds = %1238
  %1262 = ptrtoint %"struct.tint::(anonymous namespace)::Impl::Parameter"* %1259 to i64
  store i64 %1262, i64* %1245, align 8
  %1263 = bitcast %"struct.tint::(anonymous namespace)::Impl::Parameter"* %1259 to i8*
  tail call void @_ZdlPv(i8* %1263) #16
  br label %1264

1264:                                             ; preds = %1238, %1261
  %1265 = tail call i8* @_Znwm(i64 16) #16
  %1266 = ptrtoint i8* %1265 to i64
  %1267 = getelementptr inbounds i8, i8* %1265, i64 16
  %1268 = ptrtoint i8* %1267 to i64
  %1269 = bitcast i8* %1265 to %"class.tint::(anonymous namespace)::Builder"**
  store %"class.tint::(anonymous namespace)::Builder"* %289, %"class.tint::(anonymous namespace)::Builder"** %1269, align 8
  %1270 = getelementptr inbounds i8, i8* %1265, i64 8
  %1271 = bitcast i8* %1270 to i32*
  store i32 0, i32* %1271, align 8
  %1272 = bitcast %"struct.tint::(anonymous namespace)::Impl::Overload"* %222 to i8*
  call void @llvm.lifetime.start.p0i8(i64 80, i8* nonnull %1272) #17
  call void @llvm.memcpy.p0i8.p0i8.i64(i8* nonnull align 8 %1272, i8* align 8 bitcast ({ i32, [4 x i8], %"class.tint::(anonymous namespace)::Builder"*, %"class.std::__1::vector.10", %"class.std::__1::unordered_map" }* @__const._ZN4tint12_GLOBAL__N_14Impl8RegisterENS_3sem13IntrinsicTypeEPNS0_7BuilderENSt3__16vectorINS1_9ParameterENS6_9allocatorIS8_EEEE.overload to i8*), i64 80, i1 false) #17
  %1273 = getelementptr inbounds %"struct.tint::(anonymous namespace)::Impl::Overload", %"struct.tint::(anonymous namespace)::Impl::Overload"* %222, i64 0, i32 0
  store i32 10, i32* %1273, align 8
  %1274 = getelementptr inbounds %"struct.tint::(anonymous namespace)::Impl::Overload", %"struct.tint::(anonymous namespace)::Impl::Overload"* %222, i64 0, i32 1
  store %"class.tint::(anonymous namespace)::Builder"* %289, %"class.tint::(anonymous namespace)::Builder"** %1274, align 8
  %1275 = getelementptr inbounds %"struct.tint::(anonymous namespace)::Impl::Overload", %"struct.tint::(anonymous namespace)::Impl::Overload"* %222, i64 0, i32 2
  %1276 = bitcast %"class.std::__1::vector.10"* %1275 to i64*
  store i64 %1266, i64* %1276, align 8
  %1277 = getelementptr inbounds %"struct.tint::(anonymous namespace)::Impl::Overload", %"struct.tint::(anonymous namespace)::Impl::Overload"* %222, i64 0, i32 2, i32 0, i32 1
  %1278 = bitcast %"struct.tint::(anonymous namespace)::Impl::Parameter"** %1277 to i64*
  store i64 %1268, i64* %1278, align 8
  %1279 = getelementptr inbounds %"struct.tint::(anonymous namespace)::Impl::Overload", %"struct.tint::(anonymous namespace)::Impl::Overload"* %222, i64 0, i32 2, i32 0, i32 2, i32 0, i32 0
  %1280 = bitcast %"struct.tint::(anonymous namespace)::Impl::Parameter"** %1279 to i64*
  store i64 %1268, i64* %1280, align 8
  %1281 = getelementptr inbounds %"struct.tint::(anonymous namespace)::Impl::Overload", %"struct.tint::(anonymous namespace)::Impl::Overload"* %222, i64 0, i32 3
  %1282 = getelementptr inbounds %"struct.tint::(anonymous namespace)::Impl::Overload", %"struct.tint::(anonymous namespace)::Impl::Overload"* %222, i64 0, i32 3, i32 0, i32 3
  %1283 = bitcast %"class.std::__1::__compressed_pair.33"* %1282 to i32*
  %1284 = bitcast %"class.std::__1::unordered_map"* %1281 to i8*
  call void @llvm.memset.p0i8.i64(i8* align 8 %1284, i8 0, i64 32, i1 false) #17
  store i32 1065353216, i32* %1283, align 8
  call fastcc void @_ZNSt3__16vectorIN4tint12_GLOBAL__N_14Impl8OverloadENS_9allocatorIS4_EEE12emplace_backIJS4_EEEvDpOT_(%"class.std::__1::vector.8"* %268, %"struct.tint::(anonymous namespace)::Impl::Overload"* nonnull dereferenceable(80) %222) #17
  %1285 = getelementptr inbounds %"struct.tint::(anonymous namespace)::Impl::Overload", %"struct.tint::(anonymous namespace)::Impl::Overload"* %222, i64 0, i32 3, i32 0, i32 1, i32 0, i32 0, i32 0
  %1286 = load %"struct.std::__1::__hash_node_base"*, %"struct.std::__1::__hash_node_base"** %1285, align 8
  %1287 = icmp eq %"struct.std::__1::__hash_node_base"* %1286, null
  br i1 %1287, label %1294, label %1288

1288:                                             ; preds = %1264, %1288
  %1289 = phi %"struct.std::__1::__hash_node_base"* [ %1291, %1288 ], [ %1286, %1264 ]
  %1290 = getelementptr inbounds %"struct.std::__1::__hash_node_base", %"struct.std::__1::__hash_node_base"* %1289, i64 0, i32 0
  %1291 = load %"struct.std::__1::__hash_node_base"*, %"struct.std::__1::__hash_node_base"** %1290, align 8
  %1292 = bitcast %"struct.std::__1::__hash_node_base"* %1289 to i8*
  tail call void @_ZdlPv(i8* %1292) #16
  %1293 = icmp eq %"struct.std::__1::__hash_node_base"* %1291, null
  br i1 %1293, label %1294, label %1288

1294:                                             ; preds = %1288, %1264
  %1295 = getelementptr inbounds %"struct.tint::(anonymous namespace)::Impl::Overload", %"struct.tint::(anonymous namespace)::Impl::Overload"* %222, i64 0, i32 3, i32 0, i32 0, i32 0, i32 0, i32 0
  %1296 = load %"struct.std::__1::__hash_node_base"**, %"struct.std::__1::__hash_node_base"*** %1295, align 8
  store %"struct.std::__1::__hash_node_base"** null, %"struct.std::__1::__hash_node_base"*** %1295, align 8
  %1297 = icmp eq %"struct.std::__1::__hash_node_base"** %1296, null
  br i1 %1297, label %1300, label %1298

1298:                                             ; preds = %1294
  %1299 = bitcast %"struct.std::__1::__hash_node_base"** %1296 to i8*
  tail call void @_ZdlPv(i8* %1299) #16
  br label %1300

1300:                                             ; preds = %1298, %1294
  %1301 = getelementptr inbounds %"struct.tint::(anonymous namespace)::Impl::Overload", %"struct.tint::(anonymous namespace)::Impl::Overload"* %222, i64 0, i32 2, i32 0, i32 0
  %1302 = load %"struct.tint::(anonymous namespace)::Impl::Parameter"*, %"struct.tint::(anonymous namespace)::Impl::Parameter"** %1301, align 8
  %1303 = icmp eq %"struct.tint::(anonymous namespace)::Impl::Parameter"* %1302, null
  br i1 %1303, label %1307, label %1304

1304:                                             ; preds = %1300
  %1305 = ptrtoint %"struct.tint::(anonymous namespace)::Impl::Parameter"* %1302 to i64
  store i64 %1305, i64* %1278, align 8
  %1306 = bitcast %"struct.tint::(anonymous namespace)::Impl::Parameter"* %1302 to i8*
  tail call void @_ZdlPv(i8* %1306) #16
  br label %1307

1307:                                             ; preds = %1304, %1300
  call void @llvm.lifetime.end.p0i8(i64 80, i8* nonnull %1272) #17
  %1308 = tail call i8* @_Znwm(i64 16) #16
  %1309 = ptrtoint i8* %1308 to i64
  %1310 = getelementptr inbounds i8, i8* %1308, i64 16
  %1311 = ptrtoint i8* %1310 to i64
  %1312 = bitcast i8* %1308 to %"class.tint::(anonymous namespace)::Builder"**
  store %"class.tint::(anonymous namespace)::Builder"* %297, %"class.tint::(anonymous namespace)::Builder"** %1312, align 8
  %1313 = getelementptr inbounds i8, i8* %1308, i64 8
  %1314 = bitcast i8* %1313 to i32*
  store i32 0, i32* %1314, align 8
  %1315 = bitcast %"struct.tint::(anonymous namespace)::Impl::Overload"* %221 to i8*
  call void @llvm.lifetime.start.p0i8(i64 80, i8* nonnull %1315) #17
  call void @llvm.memcpy.p0i8.p0i8.i64(i8* nonnull align 8 %1315, i8* align 8 bitcast ({ i32, [4 x i8], %"class.tint::(anonymous namespace)::Builder"*, %"class.std::__1::vector.10", %"class.std::__1::unordered_map" }* @__const._ZN4tint12_GLOBAL__N_14Impl8RegisterENS_3sem13IntrinsicTypeEPNS0_7BuilderENSt3__16vectorINS1_9ParameterENS6_9allocatorIS8_EEEE.overload to i8*), i64 80, i1 false) #17
  %1316 = getelementptr inbounds %"struct.tint::(anonymous namespace)::Impl::Overload", %"struct.tint::(anonymous namespace)::Impl::Overload"* %221, i64 0, i32 0
  store i32 10, i32* %1316, align 8
  %1317 = getelementptr inbounds %"struct.tint::(anonymous namespace)::Impl::Overload", %"struct.tint::(anonymous namespace)::Impl::Overload"* %221, i64 0, i32 1
  store %"class.tint::(anonymous namespace)::Builder"* %297, %"class.tint::(anonymous namespace)::Builder"** %1317, align 8
  %1318 = getelementptr inbounds %"struct.tint::(anonymous namespace)::Impl::Overload", %"struct.tint::(anonymous namespace)::Impl::Overload"* %221, i64 0, i32 2
  %1319 = bitcast %"class.std::__1::vector.10"* %1318 to i64*
  store i64 %1309, i64* %1319, align 8
  %1320 = getelementptr inbounds %"struct.tint::(anonymous namespace)::Impl::Overload", %"struct.tint::(anonymous namespace)::Impl::Overload"* %221, i64 0, i32 2, i32 0, i32 1
  %1321 = bitcast %"struct.tint::(anonymous namespace)::Impl::Parameter"** %1320 to i64*
  store i64 %1311, i64* %1321, align 8
  %1322 = getelementptr inbounds %"struct.tint::(anonymous namespace)::Impl::Overload", %"struct.tint::(anonymous namespace)::Impl::Overload"* %221, i64 0, i32 2, i32 0, i32 2, i32 0, i32 0
  %1323 = bitcast %"struct.tint::(anonymous namespace)::Impl::Parameter"** %1322 to i64*
  store i64 %1311, i64* %1323, align 8
  %1324 = getelementptr inbounds %"struct.tint::(anonymous namespace)::Impl::Overload", %"struct.tint::(anonymous namespace)::Impl::Overload"* %221, i64 0, i32 3
  %1325 = getelementptr inbounds %"struct.tint::(anonymous namespace)::Impl::Overload", %"struct.tint::(anonymous namespace)::Impl::Overload"* %221, i64 0, i32 3, i32 0, i32 3
  %1326 = bitcast %"class.std::__1::__compressed_pair.33"* %1325 to i32*
  %1327 = bitcast %"class.std::__1::unordered_map"* %1324 to i8*
  call void @llvm.memset.p0i8.i64(i8* align 8 %1327, i8 0, i64 32, i1 false) #17
  store i32 1065353216, i32* %1326, align 8
  call fastcc void @_ZNSt3__16vectorIN4tint12_GLOBAL__N_14Impl8OverloadENS_9allocatorIS4_EEE12emplace_backIJS4_EEEvDpOT_(%"class.std::__1::vector.8"* %268, %"struct.tint::(anonymous namespace)::Impl::Overload"* nonnull dereferenceable(80) %221) #17
  %1328 = getelementptr inbounds %"struct.tint::(anonymous namespace)::Impl::Overload", %"struct.tint::(anonymous namespace)::Impl::Overload"* %221, i64 0, i32 3, i32 0, i32 1, i32 0, i32 0, i32 0
  %1329 = load %"struct.std::__1::__hash_node_base"*, %"struct.std::__1::__hash_node_base"** %1328, align 8
  %1330 = icmp eq %"struct.std::__1::__hash_node_base"* %1329, null
  br i1 %1330, label %1337, label %1331

1331:                                             ; preds = %1307, %1331
  %1332 = phi %"struct.std::__1::__hash_node_base"* [ %1334, %1331 ], [ %1329, %1307 ]
  %1333 = getelementptr inbounds %"struct.std::__1::__hash_node_base", %"struct.std::__1::__hash_node_base"* %1332, i64 0, i32 0
  %1334 = load %"struct.std::__1::__hash_node_base"*, %"struct.std::__1::__hash_node_base"** %1333, align 8
  %1335 = bitcast %"struct.std::__1::__hash_node_base"* %1332 to i8*
  tail call void @_ZdlPv(i8* %1335) #16
  %1336 = icmp eq %"struct.std::__1::__hash_node_base"* %1334, null
  br i1 %1336, label %1337, label %1331

1337:                                             ; preds = %1331, %1307
  %1338 = getelementptr inbounds %"struct.tint::(anonymous namespace)::Impl::Overload", %"struct.tint::(anonymous namespace)::Impl::Overload"* %221, i64 0, i32 3, i32 0, i32 0, i32 0, i32 0, i32 0
  %1339 = load %"struct.std::__1::__hash_node_base"**, %"struct.std::__1::__hash_node_base"*** %1338, align 8
  store %"struct.std::__1::__hash_node_base"** null, %"struct.std::__1::__hash_node_base"*** %1338, align 8
  %1340 = icmp eq %"struct.std::__1::__hash_node_base"** %1339, null
  br i1 %1340, label %1343, label %1341

1341:                                             ; preds = %1337
  %1342 = bitcast %"struct.std::__1::__hash_node_base"** %1339 to i8*
  tail call void @_ZdlPv(i8* %1342) #16
  br label %1343

1343:                                             ; preds = %1341, %1337
  %1344 = getelementptr inbounds %"struct.tint::(anonymous namespace)::Impl::Overload", %"struct.tint::(anonymous namespace)::Impl::Overload"* %221, i64 0, i32 2, i32 0, i32 0
  %1345 = load %"struct.tint::(anonymous namespace)::Impl::Parameter"*, %"struct.tint::(anonymous namespace)::Impl::Parameter"** %1344, align 8
  %1346 = icmp eq %"struct.tint::(anonymous namespace)::Impl::Parameter"* %1345, null
  br i1 %1346, label %1350, label %1347

1347:                                             ; preds = %1343
  %1348 = ptrtoint %"struct.tint::(anonymous namespace)::Impl::Parameter"* %1345 to i64
  store i64 %1348, i64* %1321, align 8
  %1349 = bitcast %"struct.tint::(anonymous namespace)::Impl::Parameter"* %1345 to i8*
  tail call void @_ZdlPv(i8* %1349) #16
  br label %1350

1350:                                             ; preds = %1347, %1343
  call void @llvm.lifetime.end.p0i8(i64 80, i8* nonnull %1315) #17
  %1351 = tail call i8* @_Znwm(i64 16) #16
  %1352 = ptrtoint i8* %1351 to i64
  %1353 = getelementptr inbounds i8, i8* %1351, i64 16
  %1354 = ptrtoint i8* %1353 to i64
