; ModuleID = '../../chrome/browser/extensions/api/language_settings_private/language_settings_private_delegate.cc'
source_filename = "../../chrome/browser/extensions/api/language_settings_private/language_settings_private_delegate.cc"
target datalayout = "e-m:e-i64:64-f80:128-n8:16:32:64-S128"
target triple = "x86_64-unknown-linux-gnu"

module asm ".symver exp, exp@GLIBC_2.2.5"
module asm ".symver exp2, exp2@GLIBC_2.2.5"
module asm ".symver exp2f, exp2f@GLIBC_2.2.5"
module asm ".symver expf, expf@GLIBC_2.2.5"
module asm ".symver lgamma, lgamma@GLIBC_2.2.5"
module asm ".symver lgammaf, lgammaf@GLIBC_2.2.5"
module asm ".symver lgammal, lgammal@GLIBC_2.2.5"
module asm ".symver log, log@GLIBC_2.2.5"
module asm ".symver log2, log2@GLIBC_2.2.5"
module asm ".symver log2f, log2f@GLIBC_2.2.5"
module asm ".symver logf, logf@GLIBC_2.2.5"
module asm ".symver pow, pow@GLIBC_2.2.5"
module asm ".symver powf, powf@GLIBC_2.2.5"

%"class.extensions::LanguageSettingsPrivateDelegate" = type { %class.KeyedService, %"class.extensions::EventRouter::Observer", %"class.content::NotificationObserver", %"class.SpellcheckHunspellDictionary::Observer", %"class.SpellcheckCustomDictionary::Observer", %"class.std::__1::vector", %class.SpellcheckCustomDictionary*, %"class.content::BrowserContext"*, i8, i8, i8, %"class.content::NotificationRegistrar", %class.PrefChangeRegistrar }
%class.KeyedService = type { i32 (...)** }
%"class.extensions::EventRouter::Observer" = type { %"class.base::CheckedObserver" }
%"class.base::CheckedObserver" = type { i32 (...)**, %"class.base::WeakPtrFactory" }
%"class.base::WeakPtrFactory" = type { %"class.base::internal::WeakPtrFactoryBase" }
%"class.base::internal::WeakPtrFactoryBase" = type { %"class.base::internal::WeakReferenceOwner", i64 }
%"class.base::internal::WeakReferenceOwner" = type { %class.scoped_refptr }
%class.scoped_refptr = type { %"class.base::internal::WeakReference::Flag"* }
%"class.base::internal::WeakReference::Flag" = type <{ %"class.base::RefCountedThreadSafe", %"class.base::AtomicFlag", [3 x i8] }>
%"class.base::RefCountedThreadSafe" = type { %"class.base::subtle::RefCountedThreadSafeBase" }
%"class.base::subtle::RefCountedThreadSafeBase" = type { %"class.base::AtomicRefCount" }
%"class.base::AtomicRefCount" = type { %"struct.std::__1::atomic" }
%"struct.std::__1::atomic" = type { %"struct.std::__1::__atomic_base" }
%"struct.std::__1::__atomic_base" = type { %"struct.std::__1::__atomic_base.0" }
%"struct.std::__1::__atomic_base.0" = type { %"struct.std::__1::__cxx_atomic_impl" }
%"struct.std::__1::__cxx_atomic_impl" = type { %"struct.std::__1::__cxx_atomic_base_impl" }
%"struct.std::__1::__cxx_atomic_base_impl" = type { i32 }
%"class.base::AtomicFlag" = type { %"struct.std::__1::atomic.1" }
%"struct.std::__1::atomic.1" = type { %"struct.std::__1::__atomic_base.2" }
%"struct.std::__1::__atomic_base.2" = type { %"struct.std::__1::__atomic_base.3" }
%"struct.std::__1::__atomic_base.3" = type { %"struct.std::__1::__cxx_atomic_impl.4" }
%"struct.std::__1::__cxx_atomic_impl.4" = type { %"struct.std::__1::__cxx_atomic_base_impl.5" }
%"struct.std::__1::__cxx_atomic_base_impl.5" = type { i8 }
%"class.content::NotificationObserver" = type { i32 (...)** }
%"class.SpellcheckHunspellDictionary::Observer" = type { i32 (...)** }
%"class.SpellcheckCustomDictionary::Observer" = type { i32 (...)** }
%"class.std::__1::vector" = type { %"class.std::__1::__vector_base" }
%"class.std::__1::__vector_base" = type { %"class.base::WeakPtr"*, %"class.base::WeakPtr"*, %"class.std::__1::__compressed_pair" }
%"class.base::WeakPtr" = type { %"class.base::internal::WeakPtrBase" }
%"class.base::internal::WeakPtrBase" = type { %"class.base::internal::WeakReference", i64 }
%"class.base::internal::WeakReference" = type { %class.scoped_refptr.6 }
%class.scoped_refptr.6 = type { %"class.base::internal::WeakReference::Flag"* }
%"class.std::__1::__compressed_pair" = type { %"struct.std::__1::__compressed_pair_elem" }
%"struct.std::__1::__compressed_pair_elem" = type { %"class.base::WeakPtr"* }
%class.SpellcheckCustomDictionary = type { %class.SpellcheckDictionary, %"class.syncer::SyncableService", %class.scoped_refptr.8, %"class.std::__1::set", %"class.base::FilePath", %"class.base::ObserverList", %"class.std::__1::unique_ptr", %"class.std::__1::unique_ptr.33", i8, %"class.base::OnceCallback", %"class.base::internal::CancelableCallbackImpl", %"class.base::WeakPtrFactory.42" }
%class.SpellcheckDictionary = type { i32 (...)** }
%"class.syncer::SyncableService" = type { i32 (...)**, %"class.base::SupportsWeakPtr" }
%"class.base::SupportsWeakPtr" = type { %"class.base::internal::WeakReferenceOwner" }
%class.scoped_refptr.8 = type { %"class.base::SequencedTaskRunner"* }
%"class.base::SequencedTaskRunner" = type { %"class.base::TaskRunner.base", [4 x i8] }
%"class.base::TaskRunner.base" = type <{ i32 (...)**, %"class.base::RefCountedThreadSafe.9" }>
%"class.base::RefCountedThreadSafe.9" = type { %"class.base::subtle::RefCountedThreadSafeBase" }
%"class.std::__1::set" = type { %"class.std::__1::__tree" }
%"class.std::__1::__tree" = type { %"class.std::__1::__tree_end_node"*, %"class.std::__1::__compressed_pair.10", %"class.std::__1::__compressed_pair.15" }
%"class.std::__1::__tree_end_node" = type { %"class.std::__1::__tree_node_base"* }
%"class.std::__1::__tree_node_base" = type <{ %"class.std::__1::__tree_end_node", %"class.std::__1::__tree_node_base"*, %"class.std::__1::__tree_end_node"*, i8, [7 x i8] }>
%"class.std::__1::__compressed_pair.10" = type { %"struct.std::__1::__compressed_pair_elem.11" }
%"struct.std::__1::__compressed_pair_elem.11" = type { %"class.std::__1::__tree_end_node" }
%"class.std::__1::__compressed_pair.15" = type { %"struct.std::__1::__compressed_pair_elem.16" }
%"struct.std::__1::__compressed_pair_elem.16" = type { i64 }
%"class.base::FilePath" = type { %"class.std::__1::basic_string" }
%"class.std::__1::basic_string" = type { %"class.std::__1::__compressed_pair.18" }
%"class.std::__1::__compressed_pair.18" = type { %"struct.std::__1::__compressed_pair_elem.19" }
%"struct.std::__1::__compressed_pair_elem.19" = type { %"struct.std::__1::basic_string<char, std::__1::char_traits<char>, std::__1::allocator<char> >::__rep" }
%"struct.std::__1::basic_string<char, std::__1::char_traits<char>, std::__1::allocator<char> >::__rep" = type { %union.anon }
%union.anon = type { %"struct.std::__1::basic_string<char, std::__1::char_traits<char>, std::__1::allocator<char> >::__long" }
%"struct.std::__1::basic_string<char, std::__1::char_traits<char>, std::__1::allocator<char> >::__long" = type { i8*, i64, i64 }
%"class.base::ObserverList" = type <{ %"class.std::__1::vector.23", %"class.base::LinkedList", i64, i32, [4 x i8] }>
%"class.std::__1::vector.23" = type { %"class.std::__1::__vector_base.24" }
%"class.std::__1::__vector_base.24" = type { %"class.base::internal::UncheckedObserverAdapter"*, %"class.base::internal::UncheckedObserverAdapter"*, %"class.std::__1::__compressed_pair.25" }
%"class.base::internal::UncheckedObserverAdapter" = type { i8* }
%"class.std::__1::__compressed_pair.25" = type { %"struct.std::__1::__compressed_pair_elem.26" }
%"struct.std::__1::__compressed_pair_elem.26" = type { %"class.base::internal::UncheckedObserverAdapter"* }
%"class.base::LinkedList" = type { %"class.base::LinkNode" }
%"class.base::LinkNode" = type { %"class.base::internal::LinkNodeBase" }
%"class.base::internal::LinkNodeBase" = type { %"class.base::internal::LinkNodeBase"*, %"class.base::internal::LinkNodeBase"* }
%"class.std::__1::unique_ptr" = type { %"class.std::__1::__compressed_pair.30" }
%"class.std::__1::__compressed_pair.30" = type { %"struct.std::__1::__compressed_pair_elem.31" }
%"struct.std::__1::__compressed_pair_elem.31" = type { %"class.syncer::SyncChangeProcessor"* }
%"class.syncer::SyncChangeProcessor" = type opaque
%"class.std::__1::unique_ptr.33" = type { %"class.std::__1::__compressed_pair.34" }
%"class.std::__1::__compressed_pair.34" = type { %"struct.std::__1::__compressed_pair_elem.35" }
%"struct.std::__1::__compressed_pair_elem.35" = type { %"class.syncer::SyncErrorFactory"* }
%"class.syncer::SyncErrorFactory" = type opaque
%"class.base::OnceCallback" = type { %"class.base::internal::CallbackBase" }
%"class.base::internal::CallbackBase" = type { %class.scoped_refptr.39 }
%class.scoped_refptr.39 = type { %"class.base::internal::BindStateBase"* }
%"class.base::internal::BindStateBase" = type { %"class.base::RefCountedThreadSafe.40", void ()*, void (%"class.base::internal::BindStateBase"*)*, i1 (%"class.base::internal::BindStateBase"*, i32)* }
%"class.base::RefCountedThreadSafe.40" = type { %"class.base::subtle::RefCountedThreadSafeBase" }
%"class.base::internal::CancelableCallbackImpl" = type { %"class.base::OnceCallback", %"class.base::WeakPtrFactory.41" }
%"class.base::WeakPtrFactory.41" = type { %"class.base::internal::WeakPtrFactoryBase" }
%"class.base::WeakPtrFactory.42" = type { %"class.base::internal::WeakPtrFactoryBase" }
%"class.content::NotificationRegistrar" = type { %"class.std::__1::vector.58" }
%"class.std::__1::vector.58" = type { %"class.std::__1::__vector_base.59" }
%"class.std::__1::__vector_base.59" = type { %"struct.content::NotificationRegistrar::Record"*, %"struct.content::NotificationRegistrar::Record"*, %"class.std::__1::__compressed_pair.60" }
%"struct.content::NotificationRegistrar::Record" = type opaque
%"class.std::__1::__compressed_pair.60" = type { %"struct.std::__1::__compressed_pair_elem.61" }
%"struct.std::__1::__compressed_pair_elem.61" = type { %"struct.content::NotificationRegistrar::Record"* }
%class.PrefChangeRegistrar = type { %class.PrefObserver, %"class.std::__1::map.65", %class.PrefService* }
%class.PrefObserver = type { i32 (...)** }
%"class.std::__1::map.65" = type { %"class.std::__1::__tree.66" }
%"class.std::__1::__tree.66" = type { %"class.std::__1::__tree_end_node"*, %"class.std::__1::__compressed_pair.67", %"class.std::__1::__compressed_pair.71" }
%"class.std::__1::__compressed_pair.67" = type { %"struct.std::__1::__compressed_pair_elem.11" }
%"class.std::__1::__compressed_pair.71" = type { %"struct.std::__1::__compressed_pair_elem.16" }
%class.PrefService = type { i32 (...)**, %"class.std::__1::unique_ptr.74", %"class.std::__1::unique_ptr.80", %class.scoped_refptr.102, %"class.base::RepeatingCallback.103", %class.scoped_refptr.104, %"class.std::__1::unordered_map" }
%"class.std::__1::unique_ptr.74" = type { %"class.std::__1::__compressed_pair.75" }
%"class.std::__1::__compressed_pair.75" = type { %"struct.std::__1::__compressed_pair_elem.76" }
%"struct.std::__1::__compressed_pair_elem.76" = type { %class.PrefNotifierImpl* }
%class.PrefNotifierImpl = type opaque
%"class.std::__1::unique_ptr.80" = type { %"class.std::__1::__compressed_pair.81" }
%"class.std::__1::__compressed_pair.81" = type { %"struct.std::__1::__compressed_pair_elem.82" }
%"struct.std::__1::__compressed_pair_elem.82" = type { %class.PrefValueStore* }
%class.PrefValueStore = type { i32 (...)**, [7 x %"class.PrefValueStore::PrefStoreKeeper"], %"class.base::RepeatingCallback", %class.PrefNotifier*, %"class.std::__1::map.84", i8, %"class.std::__1::unique_ptr.93" }
%"class.PrefValueStore::PrefStoreKeeper" = type <{ %"class.PrefStore::Observer", %class.PrefValueStore*, %class.scoped_refptr.83, i32, [4 x i8] }>
%"class.PrefStore::Observer" = type { i32 (...)** }
%class.scoped_refptr.83 = type { %class.PrefStore* }
%class.PrefStore = type <{ i32 (...)**, %"class.base::RefCounted", [4 x i8] }>
%"class.base::RefCounted" = type { %"class.base::subtle::RefCountedBase" }
%"class.base::subtle::RefCountedBase" = type { i32 }
%"class.base::RepeatingCallback" = type { %"class.base::internal::CallbackBaseCopyable" }
%"class.base::internal::CallbackBaseCopyable" = type { %"class.base::internal::CallbackBase" }
%class.PrefNotifier = type opaque
%"class.std::__1::map.84" = type { %"class.std::__1::__tree.85" }
%"class.std::__1::__tree.85" = type { %"class.std::__1::__tree_end_node"*, %"class.std::__1::__compressed_pair.86", %"class.std::__1::__compressed_pair.90" }
%"class.std::__1::__compressed_pair.86" = type { %"struct.std::__1::__compressed_pair_elem.11" }
%"class.std::__1::__compressed_pair.90" = type { %"struct.std::__1::__compressed_pair_elem.16" }
%"class.std::__1::unique_ptr.93" = type { %"class.std::__1::__compressed_pair.94" }
%"class.std::__1::__compressed_pair.94" = type { %"struct.std::__1::__compressed_pair_elem.95" }
%"struct.std::__1::__compressed_pair_elem.95" = type { %"class.PrefValueStore::Delegate"* }
%"class.PrefValueStore::Delegate" = type { i32 (...)** }
%class.scoped_refptr.102 = type { %class.PersistentPrefStore* }
%class.PersistentPrefStore = type { %class.WriteablePrefStore.base, [4 x i8] }
%class.WriteablePrefStore.base = type { %class.PrefStore.base }
%class.PrefStore.base = type <{ i32 (...)**, %"class.base::RefCounted" }>
%"class.base::RepeatingCallback.103" = type { %"class.base::internal::CallbackBaseCopyable" }
%class.scoped_refptr.104 = type { %class.PrefRegistry* }
%class.PrefRegistry = type opaque
%"class.std::__1::unordered_map" = type { %"class.std::__1::__hash_table" }
%"class.std::__1::__hash_table" = type <{ %"class.std::__1::unique_ptr.105", %"class.std::__1::__compressed_pair.113", %"class.std::__1::__compressed_pair.118", %"class.std::__1::__compressed_pair.120", [4 x i8] }>
%"class.std::__1::unique_ptr.105" = type { %"class.std::__1::__compressed_pair.106" }
%"class.std::__1::__compressed_pair.106" = type { %"struct.std::__1::__compressed_pair_elem.107", %"struct.std::__1::__compressed_pair_elem.108" }
%"struct.std::__1::__compressed_pair_elem.107" = type { %"struct.std::__1::__hash_node_base"** }
%"struct.std::__1::__hash_node_base" = type { %"struct.std::__1::__hash_node_base"* }
%"struct.std::__1::__compressed_pair_elem.108" = type { %"class.std::__1::__bucket_list_deallocator" }
%"class.std::__1::__bucket_list_deallocator" = type { %"class.std::__1::__compressed_pair.109" }
%"class.std::__1::__compressed_pair.109" = type { %"struct.std::__1::__compressed_pair_elem.16" }
%"class.std::__1::__compressed_pair.113" = type { %"struct.std::__1::__compressed_pair_elem.114" }
%"struct.std::__1::__compressed_pair_elem.114" = type { %"struct.std::__1::__hash_node_base" }
%"class.std::__1::__compressed_pair.118" = type { %"struct.std::__1::__compressed_pair_elem.16" }
%"class.std::__1::__compressed_pair.120" = type { %"struct.std::__1::__compressed_pair_elem.121" }
%"struct.std::__1::__compressed_pair_elem.121" = type { float }
%"class.content::BrowserContext" = type { %"class.base::SupportsUserData.base", %"class.std::__1::unique_ptr.52" }
%"class.base::SupportsUserData.base" = type <{ i32 (...)**, %"class.std::__1::map", %"class.base::SequenceCheckerDoNothing" }>
%"class.std::__1::map" = type { %"class.std::__1::__tree.43" }
%"class.std::__1::__tree.43" = type { %"class.std::__1::__tree_end_node"*, %"class.std::__1::__compressed_pair.44", %"class.std::__1::__compressed_pair.48" }
%"class.std::__1::__compressed_pair.44" = type { %"struct.std::__1::__compressed_pair_elem.11" }
%"class.std::__1::__compressed_pair.48" = type { %"struct.std::__1::__compressed_pair_elem.16" }
%"class.base::SequenceCheckerDoNothing" = type { i8 }
%"class.std::__1::unique_ptr.52" = type { %"class.std::__1::__compressed_pair.53" }
%"class.std::__1::__compressed_pair.53" = type { %"struct.std::__1::__compressed_pair_elem.54" }
%"struct.std::__1::__compressed_pair_elem.54" = type { %"class.content::BrowserContext::Impl"* }
%"class.content::BrowserContext::Impl" = type opaque
%"class.content::Source" = type { %"class.content::NotificationSource" }
%"class.content::NotificationSource" = type { i8* }
%"class.extensions::EventRouter" = type { %class.KeyedService, %"class.extensions::ExtensionRegistryObserver", %"class.extensions::EventListenerMap::Delegate", %"class.content::RenderProcessHostObserver", %"class.extensions::mojom::EventRouter", %"class.content::BrowserContext"*, %"class.extensions::ExtensionPrefs"*, %"class.base::ScopedObservation", %"class.extensions::EventListenerMap", %"class.std::__1::unordered_map.267", %"class.base::ObserverList.291", %"class.std::__1::set.295", %"class.extensions::LazyEventDispatchUtil", %"class.extensions::EventAckData", %"class.mojo::ReceiverSetBase", %"class.base::WeakPtrFactory.325" }
%"class.extensions::ExtensionRegistryObserver" = type { i32 (...)** }
%"class.extensions::EventListenerMap::Delegate" = type { i32 (...)** }
%"class.content::RenderProcessHostObserver" = type { %"class.base::CheckedObserver" }
%"class.extensions::mojom::EventRouter" = type { i32 (...)** }
%"class.extensions::ExtensionPrefs" = type opaque
%"class.base::ScopedObservation" = type { %"class.extensions::ExtensionRegistryObserver"*, %"class.extensions::ExtensionRegistry"* }
%"class.extensions::ExtensionRegistry" = type { %class.KeyedService, %"class.extensions::ExtensionSet", %"class.extensions::ExtensionSet", %"class.extensions::ExtensionSet", %"class.extensions::ExtensionSet", %"class.extensions::ExtensionSet", %"class.extensions::ExtensionSet", %"class.base::ObserverList.132", %"class.content::BrowserContext"* }
%"class.extensions::ExtensionSet" = type { %"class.std::__1::map.123" }
%"class.std::__1::map.123" = type { %"class.std::__1::__tree.124" }
%"class.std::__1::__tree.124" = type { %"class.std::__1::__tree_end_node"*, %"class.std::__1::__compressed_pair.125", %"class.std::__1::__compressed_pair.129" }
%"class.std::__1::__compressed_pair.125" = type { %"struct.std::__1::__compressed_pair_elem.11" }
%"class.std::__1::__compressed_pair.129" = type { %"struct.std::__1::__compressed_pair_elem.16" }
%"class.base::ObserverList.132" = type <{ %"class.std::__1::vector.23", %"class.base::LinkedList.133", i64, i32, [4 x i8] }>
%"class.base::LinkedList.133" = type { %"class.base::LinkNode.134" }
%"class.base::LinkNode.134" = type { %"class.base::internal::LinkNodeBase" }
%"class.extensions::EventListenerMap" = type { %"class.extensions::EventListenerMap::Delegate"*, %"class.std::__1::set", %"class.std::__1::unordered_map.136", %"class.std::__1::map.160", %"class.extensions::EventFilter" }
%"class.std::__1::unordered_map.136" = type { %"class.std::__1::__hash_table.137" }
%"class.std::__1::__hash_table.137" = type <{ %"class.std::__1::unique_ptr.138", %"class.std::__1::__compressed_pair.148", %"class.std::__1::__compressed_pair.153", %"class.std::__1::__compressed_pair.156", [4 x i8] }>
%"class.std::__1::unique_ptr.138" = type { %"class.std::__1::__compressed_pair.139" }
%"class.std::__1::__compressed_pair.139" = type { %"struct.std::__1::__compressed_pair_elem.140", %"struct.std::__1::__compressed_pair_elem.142" }
%"struct.std::__1::__compressed_pair_elem.140" = type { %"struct.std::__1::__hash_node_base.141"** }
%"struct.std::__1::__hash_node_base.141" = type { %"struct.std::__1::__hash_node_base.141"* }
%"struct.std::__1::__compressed_pair_elem.142" = type { %"class.std::__1::__bucket_list_deallocator.143" }
%"class.std::__1::__bucket_list_deallocator.143" = type { %"class.std::__1::__compressed_pair.144" }
%"class.std::__1::__compressed_pair.144" = type { %"struct.std::__1::__compressed_pair_elem.16" }
%"class.std::__1::__compressed_pair.148" = type { %"struct.std::__1::__compressed_pair_elem.149" }
%"struct.std::__1::__compressed_pair_elem.149" = type { %"struct.std::__1::__hash_node_base.141" }
%"class.std::__1::__compressed_pair.153" = type { %"struct.std::__1::__compressed_pair_elem.16" }
%"class.std::__1::__compressed_pair.156" = type { %"struct.std::__1::__compressed_pair_elem.121" }
%"class.std::__1::map.160" = type { %"class.std::__1::__tree.161" }
%"class.std::__1::__tree.161" = type { %"class.std::__1::__tree_end_node"*, %"class.std::__1::__compressed_pair.162", %"class.std::__1::__compressed_pair.166" }
%"class.std::__1::__compressed_pair.162" = type { %"struct.std::__1::__compressed_pair_elem.11" }
%"class.std::__1::__compressed_pair.166" = type { %"struct.std::__1::__compressed_pair_elem.16" }
%"class.extensions::EventFilter" = type { %"class.url_matcher::URLMatcher", %"class.std::__1::map.240", i32, i32, %"class.std::__1::map.249", %"class.std::__1::map.258" }
%"class.url_matcher::URLMatcher" = type { %"class.url_matcher::URLMatcherConditionFactory", %"class.std::__1::map.180", %"class.std::__1::map.189", %"class.std::__1::unique_ptr.198", %"class.std::__1::unique_ptr.198", %"class.url_matcher::RegexSetMatcher", %"class.url_matcher::RegexSetMatcher" }
%"class.url_matcher::URLMatcherConditionFactory" = type { i32, %"class.std::__1::map.171", %"class.std::__1::map.171", %"class.std::__1::map.171" }
%"class.std::__1::map.171" = type { %"class.std::__1::__tree.172" }
%"class.std::__1::__tree.172" = type { %"class.std::__1::__tree_end_node"*, %"class.std::__1::__compressed_pair.173", %"class.std::__1::__compressed_pair.177" }
%"class.std::__1::__compressed_pair.173" = type { %"struct.std::__1::__compressed_pair_elem.11" }
%"class.std::__1::__compressed_pair.177" = type { %"struct.std::__1::__compressed_pair_elem.16" }
%"class.std::__1::map.180" = type { %"class.std::__1::__tree.181" }
%"class.std::__1::__tree.181" = type { %"class.std::__1::__tree_end_node"*, %"class.std::__1::__compressed_pair.182", %"class.std::__1::__compressed_pair.186" }
%"class.std::__1::__compressed_pair.182" = type { %"struct.std::__1::__compressed_pair_elem.11" }
%"class.std::__1::__compressed_pair.186" = type { %"struct.std::__1::__compressed_pair_elem.16" }
%"class.std::__1::map.189" = type { %"class.std::__1::__tree.190" }
%"class.std::__1::__tree.190" = type { %"class.std::__1::__tree_end_node"*, %"class.std::__1::__compressed_pair.191", %"class.std::__1::__compressed_pair.195" }
%"class.std::__1::__compressed_pair.191" = type { %"struct.std::__1::__compressed_pair_elem.11" }
%"class.std::__1::__compressed_pair.195" = type { %"struct.std::__1::__compressed_pair_elem.16" }
%"class.std::__1::unique_ptr.198" = type { %"class.std::__1::__compressed_pair.199" }
%"class.std::__1::__compressed_pair.199" = type { %"struct.std::__1::__compressed_pair_elem.200" }
%"struct.std::__1::__compressed_pair_elem.200" = type { %"class.url_matcher::SubstringSetMatcher"* }
%"class.url_matcher::SubstringSetMatcher" = type <{ %"class.std::__1::vector.201", i8, [7 x i8] }>
%"class.std::__1::vector.201" = type { %"class.std::__1::__vector_base.202" }
%"class.std::__1::__vector_base.202" = type { %"class.url_matcher::SubstringSetMatcher::AhoCorasickNode"*, %"class.url_matcher::SubstringSetMatcher::AhoCorasickNode"*, %"class.std::__1::__compressed_pair.210" }
%"class.url_matcher::SubstringSetMatcher::AhoCorasickNode" = type <{ %"class.base::flat_map", i32, i32, i32, [4 x i8] }>
%"class.base::flat_map" = type { %"class.base::internal::flat_tree" }
%"class.base::internal::flat_tree" = type { %"class.std::__1::vector.203" }
%"class.std::__1::vector.203" = type { %"class.std::__1::__vector_base.204" }
%"class.std::__1::__vector_base.204" = type { %"struct.std::__1::pair"*, %"struct.std::__1::pair"*, %"class.std::__1::__compressed_pair.205" }
%"struct.std::__1::pair" = type { i8, i32 }
%"class.std::__1::__compressed_pair.205" = type { %"struct.std::__1::__compressed_pair_elem.206" }
%"struct.std::__1::__compressed_pair_elem.206" = type { %"struct.std::__1::pair"* }
%"class.std::__1::__compressed_pair.210" = type { %"struct.std::__1::__compressed_pair_elem.211" }
%"struct.std::__1::__compressed_pair_elem.211" = type { %"class.url_matcher::SubstringSetMatcher::AhoCorasickNode"* }
%"class.url_matcher::RegexSetMatcher" = type { i32 (...)**, %"class.std::__1::map.218", %"class.std::__1::vector.227", %"class.std::__1::unique_ptr.234", %"class.std::__1::unique_ptr.198" }
%"class.std::__1::map.218" = type { %"class.std::__1::__tree.219" }
%"class.std::__1::__tree.219" = type { %"class.std::__1::__tree_end_node"*, %"class.std::__1::__compressed_pair.220", %"class.std::__1::__compressed_pair.224" }
%"class.std::__1::__compressed_pair.220" = type { %"struct.std::__1::__compressed_pair_elem.11" }
%"class.std::__1::__compressed_pair.224" = type { %"struct.std::__1::__compressed_pair_elem.16" }
%"class.std::__1::vector.227" = type { %"class.std::__1::__vector_base.228" }
%"class.std::__1::__vector_base.228" = type { i32*, i32*, %"class.std::__1::__compressed_pair.229" }
%"class.std::__1::__compressed_pair.229" = type { %"struct.std::__1::__compressed_pair_elem.230" }
%"struct.std::__1::__compressed_pair_elem.230" = type { i32* }
%"class.std::__1::unique_ptr.234" = type { %"class.std::__1::__compressed_pair.235" }
%"class.std::__1::__compressed_pair.235" = type { %"struct.std::__1::__compressed_pair_elem.236" }
%"struct.std::__1::__compressed_pair_elem.236" = type { %"class.re2::FilteredRE2"* }
%"class.re2::FilteredRE2" = type opaque
%"class.std::__1::map.240" = type { %"class.std::__1::__tree.241" }
%"class.std::__1::__tree.241" = type { %"class.std::__1::__tree_end_node"*, %"class.std::__1::__compressed_pair.242", %"class.std::__1::__compressed_pair.246" }
%"class.std::__1::__compressed_pair.242" = type { %"struct.std::__1::__compressed_pair_elem.11" }
%"class.std::__1::__compressed_pair.246" = type { %"struct.std::__1::__compressed_pair_elem.16" }
%"class.std::__1::map.249" = type { %"class.std::__1::__tree.250" }
%"class.std::__1::__tree.250" = type { %"class.std::__1::__tree_end_node"*, %"class.std::__1::__compressed_pair.251", %"class.std::__1::__compressed_pair.255" }
%"class.std::__1::__compressed_pair.251" = type { %"struct.std::__1::__compressed_pair_elem.11" }
%"class.std::__1::__compressed_pair.255" = type { %"struct.std::__1::__compressed_pair_elem.16" }
%"class.std::__1::map.258" = type { %"class.std::__1::__tree.259" }
%"class.std::__1::__tree.259" = type { %"class.std::__1::__tree_end_node"*, %"class.std::__1::__compressed_pair.260", %"class.std::__1::__compressed_pair.264" }
%"class.std::__1::__compressed_pair.260" = type { %"struct.std::__1::__compressed_pair_elem.11" }
%"class.std::__1::__compressed_pair.264" = type { %"struct.std::__1::__compressed_pair_elem.16" }
%"class.std::__1::unordered_map.267" = type { %"class.std::__1::__hash_table.268" }
%"class.std::__1::__hash_table.268" = type <{ %"class.std::__1::unique_ptr.269", %"class.std::__1::__compressed_pair.279", %"class.std::__1::__compressed_pair.284", %"class.std::__1::__compressed_pair.287", [4 x i8] }>
%"class.std::__1::unique_ptr.269" = type { %"class.std::__1::__compressed_pair.270" }
%"class.std::__1::__compressed_pair.270" = type { %"struct.std::__1::__compressed_pair_elem.271", %"struct.std::__1::__compressed_pair_elem.273" }
%"struct.std::__1::__compressed_pair_elem.271" = type { %"struct.std::__1::__hash_node_base.272"** }
%"struct.std::__1::__hash_node_base.272" = type { %"struct.std::__1::__hash_node_base.272"* }
%"struct.std::__1::__compressed_pair_elem.273" = type { %"class.std::__1::__bucket_list_deallocator.274" }
%"class.std::__1::__bucket_list_deallocator.274" = type { %"class.std::__1::__compressed_pair.275" }
%"class.std::__1::__compressed_pair.275" = type { %"struct.std::__1::__compressed_pair_elem.16" }
%"class.std::__1::__compressed_pair.279" = type { %"struct.std::__1::__compressed_pair_elem.280" }
%"struct.std::__1::__compressed_pair_elem.280" = type { %"struct.std::__1::__hash_node_base.272" }
%"class.std::__1::__compressed_pair.284" = type { %"struct.std::__1::__compressed_pair_elem.16" }
%"class.std::__1::__compressed_pair.287" = type { %"struct.std::__1::__compressed_pair_elem.121" }
%"class.base::ObserverList.291" = type <{ %"class.std::__1::vector.23", %"class.base::LinkedList.292", i64, i32, [4 x i8] }>
%"class.base::LinkedList.292" = type { %"class.base::LinkNode.293" }
%"class.base::LinkNode.293" = type { %"class.base::internal::LinkNodeBase" }
%"class.std::__1::set.295" = type { %"class.std::__1::__tree.296" }
%"class.std::__1::__tree.296" = type { %"class.std::__1::__tree_end_node"*, %"class.std::__1::__compressed_pair.297", %"class.std::__1::__compressed_pair.301" }
%"class.std::__1::__compressed_pair.297" = type { %"struct.std::__1::__compressed_pair_elem.11" }
%"class.std::__1::__compressed_pair.301" = type { %"struct.std::__1::__compressed_pair_elem.16" }
%"class.extensions::LazyEventDispatchUtil" = type { %"class.extensions::ExtensionRegistryObserver", %"class.content::BrowserContext"*, %"class.base::ObserverList.305", %"class.base::ScopedObservation" }
%"class.base::ObserverList.305" = type <{ %"class.std::__1::vector.23", %"class.base::LinkedList.306", i64, i32, [4 x i8] }>
%"class.base::LinkedList.306" = type { %"class.base::LinkNode.307" }
%"class.base::LinkNode.307" = type { %"class.base::internal::LinkNodeBase" }
%"class.extensions::EventAckData" = type { %class.scoped_refptr.309, %"class.base::WeakPtrFactory.310" }
%class.scoped_refptr.309 = type { %"class.extensions::EventAckData::CoreThreadEventInfo"* }
%"class.extensions::EventAckData::CoreThreadEventInfo" = type opaque
%"class.base::WeakPtrFactory.310" = type { %"class.base::internal::WeakPtrFactoryBase" }
%"class.mojo::ReceiverSetBase" = type { %"class.mojo::ReceiverSetState" }
%"class.mojo::ReceiverSetState" = type { %"class.base::RepeatingCallback.311", %"class.base::RepeatingCallback.312", i64, %"class.std::__1::map.313", i8*, i64, %"class.base::WeakPtrFactory.324" }
%"class.base::RepeatingCallback.311" = type { %"class.base::internal::CallbackBaseCopyable" }
%"class.base::RepeatingCallback.312" = type { %"class.base::internal::CallbackBaseCopyable" }
%"class.std::__1::map.313" = type { %"class.std::__1::__tree.314" }
%"class.std::__1::__tree.314" = type { %"class.std::__1::__tree_end_node"*, %"class.std::__1::__compressed_pair.315", %"class.std::__1::__compressed_pair.319" }
%"class.std::__1::__compressed_pair.315" = type { %"struct.std::__1::__compressed_pair_elem.11" }
%"class.std::__1::__compressed_pair.319" = type { %"struct.std::__1::__compressed_pair_elem.16" }
%"class.base::WeakPtrFactory.324" = type { %"class.base::internal::WeakPtrFactoryBase" }
%"class.base::WeakPtrFactory.325" = type { %"class.base::internal::WeakPtrFactoryBase" }
%"class.std::__1::__basic_string_common" = type { i8 }
%"struct.std::__1::basic_string<char, std::__1::char_traits<char>, std::__1::allocator<char> >::__short" = type { [23 x i8], %struct.anon }
%struct.anon = type { i8 }
%class.Profile = type { %"class.content::BrowserContext", %"class.std::__1::unique_ptr.326", i8, i8, i32, %"class.base::ObserverList.332", %"class.std::__1::unique_ptr.344" }
%"class.std::__1::unique_ptr.326" = type { %"class.std::__1::__compressed_pair.327" }
%"class.std::__1::__compressed_pair.327" = type { %"struct.std::__1::__compressed_pair_elem.328" }
%"struct.std::__1::__compressed_pair_elem.328" = type { %"class.content::ResourceContext"* }
%"class.content::ResourceContext" = type opaque
%"class.base::ObserverList.332" = type <{ %"class.std::__1::vector.333", %"class.base::LinkedList.341", i64, i32, [4 x i8] }>
%"class.std::__1::vector.333" = type { %"class.std::__1::__vector_base.334" }
%"class.std::__1::__vector_base.334" = type { %"class.base::internal::CheckedObserverAdapter"*, %"class.base::internal::CheckedObserverAdapter"*, %"class.std::__1::__compressed_pair.336" }
%"class.base::internal::CheckedObserverAdapter" = type { %"class.base::WeakPtr.335" }
%"class.base::WeakPtr.335" = type { %"class.base::internal::WeakPtrBase" }
%"class.std::__1::__compressed_pair.336" = type { %"struct.std::__1::__compressed_pair_elem.337" }
%"struct.std::__1::__compressed_pair_elem.337" = type { %"class.base::internal::CheckedObserverAdapter"* }
%"class.base::LinkedList.341" = type { %"class.base::LinkNode.342" }
%"class.base::LinkNode.342" = type { %"class.base::internal::LinkNodeBase" }
%"class.std::__1::unique_ptr.344" = type { %"class.std::__1::__compressed_pair.345" }
%"class.std::__1::__compressed_pair.345" = type { %"struct.std::__1::__compressed_pair_elem.346" }
%"struct.std::__1::__compressed_pair_elem.346" = type { %"class.variations::VariationsClient"* }
%"class.variations::VariationsClient" = type opaque
%"class.std::__1::vector.350" = type { %"class.std::__1::__vector_base.351" }
%"class.std::__1::__vector_base.351" = type { %"struct.extensions::api::language_settings_private::SpellcheckDictionaryStatus"*, %"struct.extensions::api::language_settings_private::SpellcheckDictionaryStatus"*, %"class.std::__1::__compressed_pair.358" }
%"struct.extensions::api::language_settings_private::SpellcheckDictionaryStatus" = type { %"class.std::__1::basic_string", i8, %"class.std::__1::unique_ptr.352", %"class.std::__1::unique_ptr.352" }
%"class.std::__1::unique_ptr.352" = type { %"class.std::__1::__compressed_pair.353" }
%"class.std::__1::__compressed_pair.353" = type { %"struct.std::__1::__compressed_pair_elem.354" }
%"struct.std::__1::__compressed_pair_elem.354" = type { i8* }
%"class.std::__1::__compressed_pair.358" = type { %"struct.std::__1::__compressed_pair_elem.359" }
%"struct.std::__1::__compressed_pair_elem.359" = type { %"struct.extensions::api::language_settings_private::SpellcheckDictionaryStatus"* }
%"class.logging::CheckError" = type { %"class.logging::LogMessage"* }
%"class.logging::LogMessage" = type { i32 (...)**, i32, %"class.std::__1::basic_ostringstream", i64, i8*, i32, %"class.base::ScopedClearLastErrorBase" }
%"class.std::__1::basic_ostringstream" = type { %"class.std::__1::basic_ostream.base", %"class.std::__1::basic_stringbuf", %"class.std::__1::basic_ios.base" }
%"class.std::__1::basic_ostream.base" = type { i32 (...)** }
%"class.std::__1::basic_stringbuf" = type <{ %"class.std::__1::basic_streambuf", %"class.std::__1::basic_string", i8*, i32, [4 x i8] }>
%"class.std::__1::basic_streambuf" = type { i32 (...)**, %"class.std::__1::locale", i8*, i8*, i8*, i8*, i8*, i8* }
%"class.std::__1::locale" = type { %"class.std::__1::locale::__imp"* }
%"class.std::__1::locale::__imp" = type opaque
%"class.std::__1::basic_ios.base" = type <{ %"class.std::__1::ios_base", %"class.std::__1::basic_ostream"*, i32 }>
%"class.std::__1::ios_base" = type { i32 (...)**, i32, i64, i64, i32, i32, i8*, i8*, void (i32, %"class.std::__1::ios_base"*, i32)**, i32*, i64, i64, i64*, i64, i64, i8**, i64, i64 }
%"class.std::__1::basic_ostream" = type { i32 (...)**, %"class.std::__1::basic_ios.base" }
%"class.base::ScopedClearLastErrorBase" = type { i32 }
%class.SpellcheckHunspellDictionary = type { %class.SpellcheckDictionary, %"class.base::SupportsWeakPtr.363", %class.scoped_refptr.8, %"class.std::__1::basic_string", %"class.std::__1::basic_string", i8, %"class.content::BrowserContext"*, %"class.std::__1::unique_ptr.364", %class.SpellcheckService*, %"class.base::ObserverList.402", i32, %"struct.SpellcheckHunspellDictionary::DictionaryFile", %"class.base::WeakPtrFactory.407" }
%"class.base::SupportsWeakPtr.363" = type { %"class.base::internal::WeakReferenceOwner" }
%"class.std::__1::unique_ptr.364" = type { %"class.std::__1::__compressed_pair.365" }
%"class.std::__1::__compressed_pair.365" = type { %"struct.std::__1::__compressed_pair_elem.366" }
%"struct.std::__1::__compressed_pair_elem.366" = type { %"class.network::SimpleURLLoader"* }
%"class.network::SimpleURLLoader" = type { i32 (...)** }
%class.SpellcheckService = type { %class.KeyedService, %"class.content::NotificationObserver", %"class.SpellcheckCustomDictionary::Observer", %"class.SpellcheckHunspellDictionary::Observer", %"class.std::__1::unique_ptr.370", %class.PrefChangeRegistrar, %"class.content::NotificationRegistrar", %"class.content::BrowserContext"*, %"class.std::__1::unique_ptr.376", %"class.std::__1::unique_ptr.382", %"class.std::__1::vector.388", i8, %"class.base::WeakPtrFactory.401" }
%"class.std::__1::unique_ptr.370" = type { %"class.std::__1::__compressed_pair.371" }
%"class.std::__1::__compressed_pair.371" = type { %"struct.std::__1::__compressed_pair_elem.372" }
%"struct.std::__1::__compressed_pair_elem.372" = type { %class.PlatformSpellChecker* }
%class.PlatformSpellChecker = type { i32 (...)** }
%"class.std::__1::unique_ptr.376" = type { %"class.std::__1::__compressed_pair.377" }
%"class.std::__1::__compressed_pair.377" = type { %"struct.std::__1::__compressed_pair_elem.378" }
%"struct.std::__1::__compressed_pair_elem.378" = type { %class.SpellCheckHostMetrics* }
%class.SpellCheckHostMetrics = type opaque
%"class.std::__1::unique_ptr.382" = type { %"class.std::__1::__compressed_pair.383" }
%"class.std::__1::__compressed_pair.383" = type { %"struct.std::__1::__compressed_pair_elem.384" }
%"struct.std::__1::__compressed_pair_elem.384" = type { %class.SpellcheckCustomDictionary* }
%"class.std::__1::vector.388" = type { %"class.std::__1::__vector_base.389" }
%"class.std::__1::__vector_base.389" = type { %"class.std::__1::unique_ptr.390"*, %"class.std::__1::unique_ptr.390"*, %"class.std::__1::__compressed_pair.396" }
%"class.std::__1::unique_ptr.390" = type { %"class.std::__1::__compressed_pair.391" }
%"class.std::__1::__compressed_pair.391" = type { %"struct.std::__1::__compressed_pair_elem.392" }
%"struct.std::__1::__compressed_pair_elem.392" = type { %class.SpellcheckHunspellDictionary* }
%"class.std::__1::__compressed_pair.396" = type { %"struct.std::__1::__compressed_pair_elem.397" }
%"struct.std::__1::__compressed_pair_elem.397" = type { %"class.std::__1::unique_ptr.390"* }
%"class.base::WeakPtrFactory.401" = type { %"class.base::internal::WeakPtrFactoryBase" }
%"class.base::ObserverList.402" = type <{ %"class.std::__1::vector.23", %"class.base::LinkedList.403", i64, i32, [4 x i8] }>
%"class.base::LinkedList.403" = type { %"class.base::LinkNode.404" }
%"class.base::LinkNode.404" = type { %"class.base::internal::LinkNodeBase" }
%"struct.SpellcheckHunspellDictionary::DictionaryFile" = type { %"class.base::FilePath", %"class.base::File", %class.scoped_refptr.406 }
%"class.base::File" = type <{ %"class.base::ScopedGeneric", %"class.base::FilePath", %"class.base::FileTracing::ScopedEnabler", [3 x i8], i32, i8, i8, [6 x i8] }>
%"class.base::ScopedGeneric" = type <{ i32 (...)**, %"struct.base::ScopedGeneric<int, base::internal::ScopedFDCloseTraits>::Data", i8, [3 x i8] }>
%"struct.base::ScopedGeneric<int, base::internal::ScopedFDCloseTraits>::Data" = type { i32 }
%"class.base::FileTracing::ScopedEnabler" = type { i8 }
%class.scoped_refptr.406 = type { %"class.base::TaskRunner"* }
%"class.base::TaskRunner" = type <{ i32 (...)**, %"class.base::RefCountedThreadSafe.9", [4 x i8] }>
%"class.base::WeakPtrFactory.407" = type { %"class.base::internal::WeakPtrFactoryBase" }
%"struct.extensions::EventListenerInfo" = type { %"class.std::__1::basic_string", %"class.std::__1::basic_string", %class.GURL, %"class.content::BrowserContext"*, i32, i64 }
%class.GURL = type { %"class.std::__1::basic_string", i8, %"struct.url::Parsed", %"class.std::__1::unique_ptr.408" }
%"struct.url::Parsed" = type { %"struct.url::Component", %"struct.url::Component", %"struct.url::Component", %"struct.url::Component", %"struct.url::Component", %"struct.url::Component", %"struct.url::Component", %"struct.url::Component", i8, %"struct.url::Parsed"* }
%"struct.url::Component" = type { i32, i32 }
%"class.std::__1::unique_ptr.408" = type { %"class.std::__1::__compressed_pair.409" }
%"class.std::__1::__compressed_pair.409" = type { %"struct.std::__1::__compressed_pair_elem.410" }
%"struct.std::__1::__compressed_pair_elem.410" = type { %class.GURL* }
%"class.content::NotificationDetails" = type opaque
%"class.std::__1::vector.421" = type { %"class.std::__1::__vector_base.422" }
%"class.std::__1::__vector_base.422" = type { %"class.base::Value"*, %"class.base::Value"*, %"class.std::__1::__compressed_pair.423" }
%"class.base::Value" = type { %"class.absl::variant" }
%"class.absl::variant" = type { %"class.absl::variant_internal::VariantCopyAssignBaseNontrivial" }
%"class.absl::variant_internal::VariantCopyAssignBaseNontrivial" = type { %"class.absl::variant_internal::VariantMoveAssignBaseNontrivial" }
%"class.absl::variant_internal::VariantMoveAssignBaseNontrivial" = type { %"class.absl::variant_internal::VariantCopyBaseNontrivial" }
%"class.absl::variant_internal::VariantCopyBaseNontrivial" = type { %"class.absl::variant_internal::VariantMoveBaseNontrivial" }
%"class.absl::variant_internal::VariantMoveBaseNontrivial" = type { %"class.absl::variant_internal::VariantStateBaseDestructorNontrivial" }
%"class.absl::variant_internal::VariantStateBaseDestructorNontrivial" = type { %"class.absl::variant_internal::VariantStateBase" }
%"class.absl::variant_internal::VariantStateBase" = type { %"union.absl::variant_internal::DestructibleUnionImpl", i64 }
%"union.absl::variant_internal::DestructibleUnionImpl" = type { %"union.absl::variant_internal::DestructibleUnionImpl.428" }
%"union.absl::variant_internal::DestructibleUnionImpl.428" = type { %"union.absl::variant_internal::DestructibleUnionImpl.429" }
%"union.absl::variant_internal::DestructibleUnionImpl.429" = type { %"union.absl::variant_internal::DestructibleUnionImpl.430" }
%"union.absl::variant_internal::DestructibleUnionImpl.430" = type { %"union.absl::variant_internal::DestructibleUnionImpl.431" }
%"union.absl::variant_internal::DestructibleUnionImpl.431" = type { %"class.std::__1::basic_string" }
%"class.std::__1::__compressed_pair.423" = type { %"struct.std::__1::__compressed_pair_elem.424" }
%"struct.std::__1::__compressed_pair_elem.424" = type { %"class.base::Value"* }
%"struct.extensions::Event" = type { i32, %"class.std::__1::basic_string", %"class.std::__1::unique_ptr.456", %"class.content::BrowserContext"*, %class.GURL, i32, [4 x i8], %"struct.extensions::EventFilteringInfo", %"class.base::RepeatingCallback.478" }
%"class.std::__1::unique_ptr.456" = type { %"class.std::__1::__compressed_pair.457" }
%"class.std::__1::__compressed_pair.457" = type { %"struct.std::__1::__compressed_pair_elem.458" }
%"struct.std::__1::__compressed_pair_elem.458" = type { %"class.base::ListValue"* }
%"class.base::ListValue" = type { %"class.base::Value" }
%"struct.extensions::EventFilteringInfo" = type <{ %"class.absl::optional", %"class.absl::optional.463", %"class.absl::optional.468", %"class.absl::optional.463", %"class.absl::optional.473", [6 x i8] }>
%"class.absl::optional" = type { %"class.absl::optional_internal::optional_data" }
%"class.absl::optional_internal::optional_data" = type { %"class.absl::optional_internal::optional_data_base" }
%"class.absl::optional_internal::optional_data_base" = type { %"class.absl::optional_internal::optional_data_dtor_base" }
%"class.absl::optional_internal::optional_data_dtor_base" = type { i8, %union.anon.462 }
%union.anon.462 = type { %class.GURL }
%"class.absl::optional.468" = type { %"class.absl::optional_internal::optional_data.469" }
%"class.absl::optional_internal::optional_data.469" = type { %"class.absl::optional_internal::optional_data_base.470" }
%"class.absl::optional_internal::optional_data_base.470" = type { %"class.absl::optional_internal::optional_data_dtor_base.471" }
%"class.absl::optional_internal::optional_data_dtor_base.471" = type { i8, %union.anon.472 }
%union.anon.472 = type { i32 }
%"class.absl::optional.463" = type { %"class.absl::optional_internal::optional_data.464" }
%"class.absl::optional_internal::optional_data.464" = type { %"class.absl::optional_internal::optional_data_base.465" }
%"class.absl::optional_internal::optional_data_base.465" = type { %"class.absl::optional_internal::optional_data_dtor_base.466" }
%"class.absl::optional_internal::optional_data_dtor_base.466" = type { i8, %union.anon.467 }
%union.anon.467 = type { %"class.std::__1::basic_string" }
%"class.absl::optional.473" = type { %"class.absl::optional_internal::optional_data.474" }
%"class.absl::optional_internal::optional_data.474" = type { %"class.absl::optional_internal::optional_data_base.475" }
%"class.absl::optional_internal::optional_data_base.475" = type { %"class.absl::optional_internal::optional_data_dtor_base.476" }
%"class.absl::optional_internal::optional_data_dtor_base.476" = type { i8, %union.anon.477 }
%union.anon.477 = type { i8 }
%"class.base::RepeatingCallback.478" = type { %"class.base::internal::CallbackBaseCopyable" }
%"class.SpellcheckCustomDictionary::Change" = type <{ %"class.std::__1::set", %"class.std::__1::set", i8, [7 x i8] }>
%"class.std::__1::vector.414" = type { %"class.std::__1::__vector_base.415" }
%"class.std::__1::__vector_base.415" = type { %"class.std::__1::basic_string"*, %"class.std::__1::basic_string"*, %"class.std::__1::__compressed_pair.416" }
%"class.std::__1::__compressed_pair.416" = type { %"struct.std::__1::__compressed_pair_elem.417" }
%"struct.std::__1::__compressed_pair_elem.417" = type { %"class.std::__1::basic_string"* }
%"class.std::__1::__vector_base_common" = type { i8 }

$_ZNSt3__16vectorINS_12basic_stringIcNS_11char_traitsIcEENS_9allocatorIcEEEENS4_IS6_EEEC2INS_21__tree_const_iteratorIS6_PNS_11__tree_nodeIS6_PvEElEEEET_NS_9enable_ifIXaasr27__is_cpp17_forward_iteratorISG_EE5valuesr16is_constructibleIS6_NS_15iterator_traitsISG_E9referenceEEE5valueESG_E4typeE = comdat any

$_ZNSt3__16vectorIN10extensions3api25language_settings_private26SpellcheckDictionaryStatusENS_9allocatorIS4_EEE21__push_back_slow_pathIS4_EEvOT_ = comdat any

$_ZNSt3__16vectorIN4base7WeakPtrI28SpellcheckHunspellDictionaryEENS_9allocatorIS4_EEE21__push_back_slow_pathIS4_EEvOT_ = comdat any

$_ZN4base8internal7InvokerINS0_9BindStateIMN10extensions31LanguageSettingsPrivateDelegateEFvvEJNS0_17UnretainedWrapperIS4_EEEEEFvvEE3RunEPNS0_13BindStateBaseE = comdat any

$_ZN4base8internal9BindStateIMN10extensions31LanguageSettingsPrivateDelegateEFvvEJNS0_17UnretainedWrapperIS3_EEEE7DestroyEPKNS0_13BindStateBaseE = comdat any

@_ZTVN10extensions31LanguageSettingsPrivateDelegateE = hidden unnamed_addr constant { [16 x i8*], [6 x i8*], [5 x i8*], [6 x i8*], [4 x i8*] } { [16 x i8*] [i8* null, i8* null, i8* bitcast (void (%"class.extensions::LanguageSettingsPrivateDelegate"*)* @_ZN10extensions31LanguageSettingsPrivateDelegateD2Ev to i8*), i8* bitcast (void (%"class.extensions::LanguageSettingsPrivateDelegate"*)* @_ZN10extensions31LanguageSettingsPrivateDelegateD0Ev to i8*), i8* bitcast (void (%"class.extensions::LanguageSettingsPrivateDelegate"*)* @_ZN10extensions31LanguageSettingsPrivateDelegate8ShutdownEv to i8*), i8* bitcast (void (%"class.std::__1::vector.350"*, %"class.extensions::LanguageSettingsPrivateDelegate"*)* @_ZN10extensions31LanguageSettingsPrivateDelegate29GetHunspellDictionaryStatusesEv to i8*), i8* bitcast (void (%"class.extensions::LanguageSettingsPrivateDelegate"*, %"class.std::__1::basic_string"*)* @_ZN10extensions31LanguageSettingsPrivateDelegate31RetryDownloadHunspellDictionaryERKNSt3__112basic_stringIcNS1_11char_traitsIcEENS1_9allocatorIcEEEE to i8*), i8* bitcast (void (%"class.extensions::LanguageSettingsPrivateDelegate"*, i32, %"class.content::NotificationSource"*, %"class.content::NotificationDetails"*)* @_ZN10extensions31LanguageSettingsPrivateDelegate7ObserveEiRKN7content18NotificationSourceERKNS1_19NotificationDetailsE to i8*), i8* bitcast (void (%"class.extensions::LanguageSettingsPrivateDelegate"*, %"struct.extensions::EventListenerInfo"*)* @_ZN10extensions31LanguageSettingsPrivateDelegate15OnListenerAddedERKNS_17EventListenerInfoE to i8*), i8* bitcast (void (%"class.extensions::LanguageSettingsPrivateDelegate"*, %"struct.extensions::EventListenerInfo"*)* @_ZN10extensions31LanguageSettingsPrivateDelegate17OnListenerRemovedERKNS_17EventListenerInfoE to i8*), i8* bitcast (void (%"class.extensions::LanguageSettingsPrivateDelegate"*, %"class.std::__1::basic_string"*)* @_ZN10extensions31LanguageSettingsPrivateDelegate31OnHunspellDictionaryInitializedERKNSt3__112basic_stringIcNS1_11char_traitsIcEENS1_9allocatorIcEEEE to i8*), i8* bitcast (void (%"class.extensions::LanguageSettingsPrivateDelegate"*, %"class.std::__1::basic_string"*)* @_ZN10extensions31LanguageSettingsPrivateDelegate33OnHunspellDictionaryDownloadBeginERKNSt3__112basic_stringIcNS1_11char_traitsIcEENS1_9allocatorIcEEEE to i8*), i8* bitcast (void (%"class.extensions::LanguageSettingsPrivateDelegate"*, %"class.std::__1::basic_string"*)* @_ZN10extensions31LanguageSettingsPrivateDelegate35OnHunspellDictionaryDownloadSuccessERKNSt3__112basic_stringIcNS1_11char_traitsIcEENS1_9allocatorIcEEEE to i8*), i8* bitcast (void (%"class.extensions::LanguageSettingsPrivateDelegate"*, %"class.std::__1::basic_string"*)* @_ZN10extensions31LanguageSettingsPrivateDelegate35OnHunspellDictionaryDownloadFailureERKNSt3__112basic_stringIcNS1_11char_traitsIcEENS1_9allocatorIcEEEE to i8*), i8* bitcast (void (%"class.extensions::LanguageSettingsPrivateDelegate"*)* @_ZN10extensions31LanguageSettingsPrivateDelegate24OnCustomDictionaryLoadedEv to i8*), i8* bitcast (void (%"class.extensions::LanguageSettingsPrivateDelegate"*, %"class.SpellcheckCustomDictionary::Change"*)* @_ZN10extensions31LanguageSettingsPrivateDelegate25OnCustomDictionaryChangedERKN26SpellcheckCustomDictionary6ChangeE to i8*)], [6 x i8*] [i8* inttoptr (i64 -8 to i8*), i8* null, i8* bitcast (void (%"class.extensions::LanguageSettingsPrivateDelegate"*)* @_ZThn8_N10extensions31LanguageSettingsPrivateDelegateD1Ev to i8*), i8* bitcast (void (%"class.extensions::LanguageSettingsPrivateDelegate"*)* @_ZThn8_N10extensions31LanguageSettingsPrivateDelegateD0Ev to i8*), i8* bitcast (void (%"class.extensions::LanguageSettingsPrivateDelegate"*, %"struct.extensions::EventListenerInfo"*)* @_ZThn8_N10extensions31LanguageSettingsPrivateDelegate15OnListenerAddedERKNS_17EventListenerInfoE to i8*), i8* bitcast (void (%"class.extensions::LanguageSettingsPrivateDelegate"*, %"struct.extensions::EventListenerInfo"*)* @_ZThn8_N10extensions31LanguageSettingsPrivateDelegate17OnListenerRemovedERKNS_17EventListenerInfoE to i8*)], [5 x i8*] [i8* inttoptr (i64 -32 to i8*), i8* null, i8* bitcast (void (%"class.extensions::LanguageSettingsPrivateDelegate"*, i32, %"class.content::NotificationSource"*, %"class.content::NotificationDetails"*)* @_ZThn32_N10extensions31LanguageSettingsPrivateDelegate7ObserveEiRKN7content18NotificationSourceERKNS1_19NotificationDetailsE to i8*), i8* bitcast (void (%"class.extensions::LanguageSettingsPrivateDelegate"*)* @_ZThn32_N10extensions31LanguageSettingsPrivateDelegateD1Ev to i8*), i8* bitcast (void (%"class.extensions::LanguageSettingsPrivateDelegate"*)* @_ZThn32_N10extensions31LanguageSettingsPrivateDelegateD0Ev to i8*)], [6 x i8*] [i8* inttoptr (i64 -40 to i8*), i8* null, i8* bitcast (void (%"class.extensions::LanguageSettingsPrivateDelegate"*, %"class.std::__1::basic_string"*)* @_ZThn40_N10extensions31LanguageSettingsPrivateDelegate31OnHunspellDictionaryInitializedERKNSt3__112basic_stringIcNS1_11char_traitsIcEENS1_9allocatorIcEEEE to i8*), i8* bitcast (void (%"class.extensions::LanguageSettingsPrivateDelegate"*, %"class.std::__1::basic_string"*)* @_ZThn40_N10extensions31LanguageSettingsPrivateDelegate33OnHunspellDictionaryDownloadBeginERKNSt3__112basic_stringIcNS1_11char_traitsIcEENS1_9allocatorIcEEEE to i8*), i8* bitcast (void (%"class.extensions::LanguageSettingsPrivateDelegate"*, %"class.std::__1::basic_string"*)* @_ZThn40_N10extensions31LanguageSettingsPrivateDelegate35OnHunspellDictionaryDownloadSuccessERKNSt3__112basic_stringIcNS1_11char_traitsIcEENS1_9allocatorIcEEEE to i8*), i8* bitcast (void (%"class.extensions::LanguageSettingsPrivateDelegate"*, %"class.std::__1::basic_string"*)* @_ZThn40_N10extensions31LanguageSettingsPrivateDelegate35OnHunspellDictionaryDownloadFailureERKNSt3__112basic_stringIcNS1_11char_traitsIcEENS1_9allocatorIcEEEE to i8*)], [4 x i8*] [i8* inttoptr (i64 -48 to i8*), i8* null, i8* bitcast (void (%"class.extensions::LanguageSettingsPrivateDelegate"*)* @_ZThn48_N10extensions31LanguageSettingsPrivateDelegate24OnCustomDictionaryLoadedEv to i8*), i8* bitcast (void (%"class.extensions::LanguageSettingsPrivateDelegate"*, %"class.SpellcheckCustomDictionary::Change"*)* @_ZThn48_N10extensions31LanguageSettingsPrivateDelegate25OnCustomDictionaryChangedERKN26SpellcheckCustomDictionary6ChangeE to i8*)] }, align 8
@_ZN10extensions3api25language_settings_private31OnSpellcheckDictionariesChanged10kEventNameE = external constant [0 x i8], align 1
@_ZN10extensions3api25language_settings_private25OnCustomDictionaryChanged10kEventNameE = external constant [0 x i8], align 1
@_ZN10extensions3api25language_settings_private18OnInputMethodAdded10kEventNameE = external constant [0 x i8], align 1
@_ZN10extensions3api25language_settings_private20OnInputMethodRemoved10kEventNameE = external constant [0 x i8], align 1
@_ZN10spellcheck5prefs23kSpellCheckDictionariesE = external constant [0 x i8], align 1
@.str.1 = private unnamed_addr constant [29 x i8] c"../../base/memory/weak_ptr.h\00", align 1
@.str.2 = private unnamed_addr constant [15 x i8] c"ref_.IsValid()\00", align 1

@_ZN10extensions31LanguageSettingsPrivateDelegateC1EPN7content14BrowserContextE = hidden unnamed_addr alias void (%"class.extensions::LanguageSettingsPrivateDelegate"*, %"class.content::BrowserContext"*), void (%"class.extensions::LanguageSettingsPrivateDelegate"*, %"class.content::BrowserContext"*)* @_ZN10extensions31LanguageSettingsPrivateDelegateC2EPN7content14BrowserContextE
@_ZN10extensions31LanguageSettingsPrivateDelegateD1Ev = hidden unnamed_addr alias void (%"class.extensions::LanguageSettingsPrivateDelegate"*), void (%"class.extensions::LanguageSettingsPrivateDelegate"*)* @_ZN10extensions31LanguageSettingsPrivateDelegateD2Ev

; Function Attrs: nounwind ssp uwtable
define hidden void @_ZN10extensions31LanguageSettingsPrivateDelegateC2EPN7content14BrowserContextE(%"class.extensions::LanguageSettingsPrivateDelegate"*, %"class.content::BrowserContext"*) unnamed_addr #0 align 2 {
  %3 = alloca %"class.std::__1::basic_string", align 8
  %4 = alloca %"class.std::__1::basic_string", align 8
  %5 = alloca %"class.std::__1::basic_string", align 8
  %6 = alloca %"class.std::__1::basic_string", align 8
  %7 = alloca %"class.content::Source", align 8
  %8 = getelementptr inbounds %"class.extensions::LanguageSettingsPrivateDelegate", %"class.extensions::LanguageSettingsPrivateDelegate"* %0, i64 0, i32 0
  tail call void @_ZN12KeyedServiceC2Ev(%class.KeyedService* %8) #12
  %9 = getelementptr inbounds %"class.extensions::LanguageSettingsPrivateDelegate", %"class.extensions::LanguageSettingsPrivateDelegate"* %0, i64 0, i32 1
  %10 = getelementptr inbounds %"class.extensions::EventRouter::Observer", %"class.extensions::EventRouter::Observer"* %9, i64 0, i32 0
  tail call void @_ZN4base15CheckedObserverC2Ev(%"class.base::CheckedObserver"* %10) #12
  %11 = getelementptr inbounds %"class.extensions::LanguageSettingsPrivateDelegate", %"class.extensions::LanguageSettingsPrivateDelegate"* %0, i64 0, i32 2
  %12 = getelementptr inbounds %"class.extensions::LanguageSettingsPrivateDelegate", %"class.extensions::LanguageSettingsPrivateDelegate"* %0, i64 0, i32 4, i32 0
  %13 = bitcast %"class.extensions::LanguageSettingsPrivateDelegate"* %0 to <2 x i32 (...)**>*
  store <2 x i32 (...)**> <i32 (...)** bitcast (i8** getelementptr inbounds ({ [16 x i8*], [6 x i8*], [5 x i8*], [6 x i8*], [4 x i8*] }, { [16 x i8*], [6 x i8*], [5 x i8*], [6 x i8*], [4 x i8*] }* @_ZTVN10extensions31LanguageSettingsPrivateDelegateE, i64 0, inrange i32 0, i64 2) to i32 (...)**), i32 (...)** bitcast (i8** getelementptr inbounds ({ [16 x i8*], [6 x i8*], [5 x i8*], [6 x i8*], [4 x i8*] }, { [16 x i8*], [6 x i8*], [5 x i8*], [6 x i8*], [4 x i8*] }* @_ZTVN10extensions31LanguageSettingsPrivateDelegateE, i64 0, inrange i32 1, i64 2) to i32 (...)**)>, <2 x i32 (...)**>* %13, align 8
  %14 = bitcast %"class.content::NotificationObserver"* %11 to <2 x i32 (...)**>*
  store <2 x i32 (...)**> <i32 (...)** bitcast (i8** getelementptr inbounds ({ [16 x i8*], [6 x i8*], [5 x i8*], [6 x i8*], [4 x i8*] }, { [16 x i8*], [6 x i8*], [5 x i8*], [6 x i8*], [4 x i8*] }* @_ZTVN10extensions31LanguageSettingsPrivateDelegateE, i64 0, inrange i32 2, i64 2) to i32 (...)**), i32 (...)** bitcast (i8** getelementptr inbounds ({ [16 x i8*], [6 x i8*], [5 x i8*], [6 x i8*], [4 x i8*] }, { [16 x i8*], [6 x i8*], [5 x i8*], [6 x i8*], [4 x i8*] }* @_ZTVN10extensions31LanguageSettingsPrivateDelegateE, i64 0, inrange i32 3, i64 2) to i32 (...)**)>, <2 x i32 (...)**>* %14, align 8
  store i32 (...)** bitcast (i8** getelementptr inbounds ({ [16 x i8*], [6 x i8*], [5 x i8*], [6 x i8*], [4 x i8*] }, { [16 x i8*], [6 x i8*], [5 x i8*], [6 x i8*], [4 x i8*] }* @_ZTVN10extensions31LanguageSettingsPrivateDelegateE, i64 0, inrange i32 4, i64 2) to i32 (...)**), i32 (...)*** %12, align 8
  %15 = getelementptr inbounds %"class.extensions::LanguageSettingsPrivateDelegate", %"class.extensions::LanguageSettingsPrivateDelegate"* %0, i64 0, i32 5
  %16 = getelementptr inbounds %"class.extensions::LanguageSettingsPrivateDelegate", %"class.extensions::LanguageSettingsPrivateDelegate"* %0, i64 0, i32 7
  %17 = bitcast %"class.std::__1::vector"* %15 to i8*
  call void @llvm.memset.p0i8.i64(i8* align 8 %17, i8 0, i64 32, i1 false)
  store %"class.content::BrowserContext"* %1, %"class.content::BrowserContext"** %16, align 8
  %18 = getelementptr inbounds %"class.extensions::LanguageSettingsPrivateDelegate", %"class.extensions::LanguageSettingsPrivateDelegate"* %0, i64 0, i32 8
  store i8 0, i8* %18, align 8
  %19 = getelementptr inbounds %"class.extensions::LanguageSettingsPrivateDelegate", %"class.extensions::LanguageSettingsPrivateDelegate"* %0, i64 0, i32 9
  store i8 0, i8* %19, align 1
  %20 = getelementptr inbounds %"class.extensions::LanguageSettingsPrivateDelegate", %"class.extensions::LanguageSettingsPrivateDelegate"* %0, i64 0, i32 10
  store i8 0, i8* %20, align 2
  %21 = getelementptr inbounds %"class.extensions::LanguageSettingsPrivateDelegate", %"class.extensions::LanguageSettingsPrivateDelegate"* %0, i64 0, i32 11
  tail call void @_ZN7content21NotificationRegistrarC1Ev(%"class.content::NotificationRegistrar"* %21) #12
  %22 = getelementptr inbounds %"class.extensions::LanguageSettingsPrivateDelegate", %"class.extensions::LanguageSettingsPrivateDelegate"* %0, i64 0, i32 12
  tail call void @_ZN19PrefChangeRegistrarC1Ev(%class.PrefChangeRegistrar* %22) #12
  %23 = load %"class.content::BrowserContext"*, %"class.content::BrowserContext"** %16, align 8
  %24 = tail call %"class.extensions::EventRouter"* @_ZN10extensions11EventRouter3GetEPN7content14BrowserContextE(%"class.content::BrowserContext"* %23) #12
  %25 = icmp eq %"class.extensions::EventRouter"* %24, null
  br i1 %25, label %179, label %26

26:                                               ; preds = %2
  %27 = bitcast %"class.std::__1::basic_string"* %3 to i8*
  call void @llvm.lifetime.start.p0i8(i64 24, i8* nonnull %27) #12
  %28 = tail call i64 @strlen(i8* getelementptr inbounds ([0 x i8], [0 x i8]* @_ZN10extensions3api25language_settings_private31OnSpellcheckDictionariesChanged10kEventNameE, i64 0, i64 0)) #12
  %29 = icmp ugt i64 %28, -17
  br i1 %29, label %30, label %32

30:                                               ; preds = %26
  %31 = bitcast %"class.std::__1::basic_string"* %3 to %"class.std::__1::__basic_string_common"*
  call void @_ZNKSt3__121__basic_string_commonILb1EE20__throw_length_errorEv(%"class.std::__1::__basic_string_common"* nonnull %31) #13
  unreachable

32:                                               ; preds = %26
  %33 = icmp ult i64 %28, 23
  br i1 %33, label %43, label %34

34:                                               ; preds = %32
  %35 = add nuw i64 %28, 16
  %36 = and i64 %35, -16
  %37 = tail call i8* @_Znwm(i64 %36) #14
  %38 = getelementptr inbounds %"class.std::__1::basic_string", %"class.std::__1::basic_string"* %3, i64 0, i32 0, i32 0, i32 0, i32 0, i32 0, i32 0
  store i8* %37, i8** %38, align 8
  %39 = or i64 %36, -9223372036854775808
  %40 = getelementptr inbounds %"class.std::__1::basic_string", %"class.std::__1::basic_string"* %3, i64 0, i32 0, i32 0, i32 0, i32 0, i32 0, i32 2
  store i64 %39, i64* %40, align 8
  %41 = getelementptr inbounds %"class.std::__1::basic_string", %"class.std::__1::basic_string"* %3, i64 0, i32 0, i32 0, i32 0, i32 0, i32 0, i32 1
  store i64 %28, i64* %41, align 8
  %42 = bitcast %"class.std::__1::basic_string"* %3 to %"struct.std::__1::basic_string<char, std::__1::char_traits<char>, std::__1::allocator<char> >::__short"*
  br label %48

43:                                               ; preds = %32
  %44 = trunc i64 %28 to i8
  %45 = bitcast %"class.std::__1::basic_string"* %3 to %"struct.std::__1::basic_string<char, std::__1::char_traits<char>, std::__1::allocator<char> >::__short"*
  %46 = getelementptr inbounds %"struct.std::__1::basic_string<char, std::__1::char_traits<char>, std::__1::allocator<char> >::__short", %"struct.std::__1::basic_string<char, std::__1::char_traits<char>, std::__1::allocator<char> >::__short"* %45, i64 0, i32 1, i32 0
  store i8 %44, i8* %46, align 1
  %47 = icmp eq i64 %28, 0
  br i1 %47, label %51, label %48

48:                                               ; preds = %43, %34
  %49 = phi %"struct.std::__1::basic_string<char, std::__1::char_traits<char>, std::__1::allocator<char> >::__short"* [ %45, %43 ], [ %42, %34 ]
  %50 = phi i8* [ %27, %43 ], [ %37, %34 ]
  call void @llvm.memcpy.p0i8.p0i8.i64(i8* nonnull align 1 %50, i8* align 1 getelementptr inbounds ([0 x i8], [0 x i8]* @_ZN10extensions3api25language_settings_private31OnSpellcheckDictionariesChanged10kEventNameE, i64 0, i64 0), i64 %28, i1 false) #12
  br label %51

51:                                               ; preds = %43, %48
  %52 = phi %"struct.std::__1::basic_string<char, std::__1::char_traits<char>, std::__1::allocator<char> >::__short"* [ %45, %43 ], [ %49, %48 ]
  %53 = phi i8* [ %27, %43 ], [ %50, %48 ]
  %54 = getelementptr inbounds i8, i8* %53, i64 %28
  store i8 0, i8* %54, align 1
  call void @_ZN10extensions11EventRouter16RegisterObserverEPNS0_8ObserverERKNSt3__112basic_stringIcNS3_11char_traitsIcEENS3_9allocatorIcEEEE(%"class.extensions::EventRouter"* nonnull %24, %"class.extensions::EventRouter::Observer"* %9, %"class.std::__1::basic_string"* nonnull dereferenceable(24) %3) #12
  %55 = getelementptr inbounds %"struct.std::__1::basic_string<char, std::__1::char_traits<char>, std::__1::allocator<char> >::__short", %"struct.std::__1::basic_string<char, std::__1::char_traits<char>, std::__1::allocator<char> >::__short"* %52, i64 0, i32 1, i32 0
  %56 = load i8, i8* %55, align 1
  %57 = icmp slt i8 %56, 0
  br i1 %57, label %58, label %61

58:                                               ; preds = %51
  %59 = getelementptr inbounds %"class.std::__1::basic_string", %"class.std::__1::basic_string"* %3, i64 0, i32 0, i32 0, i32 0, i32 0, i32 0, i32 0
  %60 = load i8*, i8** %59, align 8
  call void @_ZdlPv(i8* %60) #14
  br label %61

61:                                               ; preds = %51, %58
  call void @llvm.lifetime.end.p0i8(i64 24, i8* nonnull %27) #12
  %62 = bitcast %"class.std::__1::basic_string"* %4 to i8*
  call void @llvm.lifetime.start.p0i8(i64 24, i8* nonnull %62) #12
  %63 = call i64 @strlen(i8* getelementptr inbounds ([0 x i8], [0 x i8]* @_ZN10extensions3api25language_settings_private25OnCustomDictionaryChanged10kEventNameE, i64 0, i64 0)) #12
  %64 = icmp ugt i64 %63, -17
  br i1 %64, label %65, label %67

65:                                               ; preds = %61
  %66 = bitcast %"class.std::__1::basic_string"* %4 to %"class.std::__1::__basic_string_common"*
  call void @_ZNKSt3__121__basic_string_commonILb1EE20__throw_length_errorEv(%"class.std::__1::__basic_string_common"* nonnull %66) #13
  unreachable

67:                                               ; preds = %61
  %68 = icmp ult i64 %63, 23
  br i1 %68, label %78, label %69

69:                                               ; preds = %67
  %70 = add nuw i64 %63, 16
  %71 = and i64 %70, -16
  %72 = call i8* @_Znwm(i64 %71) #14
  %73 = getelementptr inbounds %"class.std::__1::basic_string", %"class.std::__1::basic_string"* %4, i64 0, i32 0, i32 0, i32 0, i32 0, i32 0, i32 0
  store i8* %72, i8** %73, align 8
  %74 = or i64 %71, -9223372036854775808
  %75 = getelementptr inbounds %"class.std::__1::basic_string", %"class.std::__1::basic_string"* %4, i64 0, i32 0, i32 0, i32 0, i32 0, i32 0, i32 2
  store i64 %74, i64* %75, align 8
  %76 = getelementptr inbounds %"class.std::__1::basic_string", %"class.std::__1::basic_string"* %4, i64 0, i32 0, i32 0, i32 0, i32 0, i32 0, i32 1
  store i64 %63, i64* %76, align 8
  %77 = bitcast %"class.std::__1::basic_string"* %4 to %"struct.std::__1::basic_string<char, std::__1::char_traits<char>, std::__1::allocator<char> >::__short"*
  br label %83

78:                                               ; preds = %67
  %79 = trunc i64 %63 to i8
  %80 = bitcast %"class.std::__1::basic_string"* %4 to %"struct.std::__1::basic_string<char, std::__1::char_traits<char>, std::__1::allocator<char> >::__short"*
  %81 = getelementptr inbounds %"struct.std::__1::basic_string<char, std::__1::char_traits<char>, std::__1::allocator<char> >::__short", %"struct.std::__1::basic_string<char, std::__1::char_traits<char>, std::__1::allocator<char> >::__short"* %80, i64 0, i32 1, i32 0
  store i8 %79, i8* %81, align 1
  %82 = icmp eq i64 %63, 0
  br i1 %82, label %86, label %83

83:                                               ; preds = %78, %69
  %84 = phi %"struct.std::__1::basic_string<char, std::__1::char_traits<char>, std::__1::allocator<char> >::__short"* [ %80, %78 ], [ %77, %69 ]
  %85 = phi i8* [ %62, %78 ], [ %72, %69 ]
  call void @llvm.memcpy.p0i8.p0i8.i64(i8* nonnull align 1 %85, i8* align 1 getelementptr inbounds ([0 x i8], [0 x i8]* @_ZN10extensions3api25language_settings_private25OnCustomDictionaryChanged10kEventNameE, i64 0, i64 0), i64 %63, i1 false) #12
  br label %86

86:                                               ; preds = %78, %83
  %87 = phi %"struct.std::__1::basic_string<char, std::__1::char_traits<char>, std::__1::allocator<char> >::__short"* [ %80, %78 ], [ %84, %83 ]
  %88 = phi i8* [ %62, %78 ], [ %85, %83 ]
  %89 = getelementptr inbounds i8, i8* %88, i64 %63
  store i8 0, i8* %89, align 1
  call void @_ZN10extensions11EventRouter16RegisterObserverEPNS0_8ObserverERKNSt3__112basic_stringIcNS3_11char_traitsIcEENS3_9allocatorIcEEEE(%"class.extensions::EventRouter"* nonnull %24, %"class.extensions::EventRouter::Observer"* %9, %"class.std::__1::basic_string"* nonnull dereferenceable(24) %4) #12
  %90 = getelementptr inbounds %"struct.std::__1::basic_string<char, std::__1::char_traits<char>, std::__1::allocator<char> >::__short", %"struct.std::__1::basic_string<char, std::__1::char_traits<char>, std::__1::allocator<char> >::__short"* %87, i64 0, i32 1, i32 0
  %91 = load i8, i8* %90, align 1
  %92 = icmp slt i8 %91, 0
  br i1 %92, label %93, label %96

93:                                               ; preds = %86
  %94 = getelementptr inbounds %"class.std::__1::basic_string", %"class.std::__1::basic_string"* %4, i64 0, i32 0, i32 0, i32 0, i32 0, i32 0, i32 0
  %95 = load i8*, i8** %94, align 8
  call void @_ZdlPv(i8* %95) #14
  br label %96

96:                                               ; preds = %86, %93
  call void @llvm.lifetime.end.p0i8(i64 24, i8* nonnull %62) #12
  %97 = bitcast %"class.std::__1::basic_string"* %5 to i8*
  call void @llvm.lifetime.start.p0i8(i64 24, i8* nonnull %97) #12
  %98 = call i64 @strlen(i8* getelementptr inbounds ([0 x i8], [0 x i8]* @_ZN10extensions3api25language_settings_private18OnInputMethodAdded10kEventNameE, i64 0, i64 0)) #12
  %99 = icmp ugt i64 %98, -17
  br i1 %99, label %100, label %102

100:                                              ; preds = %96
  %101 = bitcast %"class.std::__1::basic_string"* %5 to %"class.std::__1::__basic_string_common"*
  call void @_ZNKSt3__121__basic_string_commonILb1EE20__throw_length_errorEv(%"class.std::__1::__basic_string_common"* nonnull %101) #13
  unreachable

102:                                              ; preds = %96
  %103 = icmp ult i64 %98, 23
  br i1 %103, label %113, label %104

104:                                              ; preds = %102
  %105 = add nuw i64 %98, 16
  %106 = and i64 %105, -16
  %107 = call i8* @_Znwm(i64 %106) #14
  %108 = getelementptr inbounds %"class.std::__1::basic_string", %"class.std::__1::basic_string"* %5, i64 0, i32 0, i32 0, i32 0, i32 0, i32 0, i32 0
  store i8* %107, i8** %108, align 8
  %109 = or i64 %106, -9223372036854775808
  %110 = getelementptr inbounds %"class.std::__1::basic_string", %"class.std::__1::basic_string"* %5, i64 0, i32 0, i32 0, i32 0, i32 0, i32 0, i32 2
  store i64 %109, i64* %110, align 8
  %111 = getelementptr inbounds %"class.std::__1::basic_string", %"class.std::__1::basic_string"* %5, i64 0, i32 0, i32 0, i32 0, i32 0, i32 0, i32 1
  store i64 %98, i64* %111, align 8
  %112 = bitcast %"class.std::__1::basic_string"* %5 to %"struct.std::__1::basic_string<char, std::__1::char_traits<char>, std::__1::allocator<char> >::__short"*
  br label %118

113:                                              ; preds = %102
  %114 = trunc i64 %98 to i8
  %115 = bitcast %"class.std::__1::basic_string"* %5 to %"struct.std::__1::basic_string<char, std::__1::char_traits<char>, std::__1::allocator<char> >::__short"*
  %116 = getelementptr inbounds %"struct.std::__1::basic_string<char, std::__1::char_traits<char>, std::__1::allocator<char> >::__short", %"struct.std::__1::basic_string<char, std::__1::char_traits<char>, std::__1::allocator<char> >::__short"* %115, i64 0, i32 1, i32 0
  store i8 %114, i8* %116, align 1
  %117 = icmp eq i64 %98, 0
  br i1 %117, label %121, label %118

118:                                              ; preds = %113, %104
  %119 = phi %"struct.std::__1::basic_string<char, std::__1::char_traits<char>, std::__1::allocator<char> >::__short"* [ %115, %113 ], [ %112, %104 ]
  %120 = phi i8* [ %97, %113 ], [ %107, %104 ]
  call void @llvm.memcpy.p0i8.p0i8.i64(i8* nonnull align 1 %120, i8* align 1 getelementptr inbounds ([0 x i8], [0 x i8]* @_ZN10extensions3api25language_settings_private18OnInputMethodAdded10kEventNameE, i64 0, i64 0), i64 %98, i1 false) #12
  br label %121

121:                                              ; preds = %113, %118
  %122 = phi %"struct.std::__1::basic_string<char, std::__1::char_traits<char>, std::__1::allocator<char> >::__short"* [ %115, %113 ], [ %119, %118 ]
  %123 = phi i8* [ %97, %113 ], [ %120, %118 ]
  %124 = getelementptr inbounds i8, i8* %123, i64 %98
  store i8 0, i8* %124, align 1
  call void @_ZN10extensions11EventRouter16RegisterObserverEPNS0_8ObserverERKNSt3__112basic_stringIcNS3_11char_traitsIcEENS3_9allocatorIcEEEE(%"class.extensions::EventRouter"* nonnull %24, %"class.extensions::EventRouter::Observer"* %9, %"class.std::__1::basic_string"* nonnull dereferenceable(24) %5) #12
  %125 = getelementptr inbounds %"struct.std::__1::basic_string<char, std::__1::char_traits<char>, std::__1::allocator<char> >::__short", %"struct.std::__1::basic_string<char, std::__1::char_traits<char>, std::__1::allocator<char> >::__short"* %122, i64 0, i32 1, i32 0
  %126 = load i8, i8* %125, align 1
  %127 = icmp slt i8 %126, 0
  br i1 %127, label %128, label %131

128:                                              ; preds = %121
  %129 = getelementptr inbounds %"class.std::__1::basic_string", %"class.std::__1::basic_string"* %5, i64 0, i32 0, i32 0, i32 0, i32 0, i32 0, i32 0
  %130 = load i8*, i8** %129, align 8
  call void @_ZdlPv(i8* %130) #14
  br label %131

131:                                              ; preds = %121, %128
  call void @llvm.lifetime.end.p0i8(i64 24, i8* nonnull %97) #12
  %132 = bitcast %"class.std::__1::basic_string"* %6 to i8*
  call void @llvm.lifetime.start.p0i8(i64 24, i8* nonnull %132) #12
  %133 = call i64 @strlen(i8* getelementptr inbounds ([0 x i8], [0 x i8]* @_ZN10extensions3api25language_settings_private20OnInputMethodRemoved10kEventNameE, i64 0, i64 0)) #12
  %134 = icmp ugt i64 %133, -17
  br i1 %134, label %135, label %137

135:                                              ; preds = %131
  %136 = bitcast %"class.std::__1::basic_string"* %6 to %"class.std::__1::__basic_string_common"*
  call void @_ZNKSt3__121__basic_string_commonILb1EE20__throw_length_errorEv(%"class.std::__1::__basic_string_common"* nonnull %136) #13
  unreachable

137:                                              ; preds = %131
  %138 = icmp ult i64 %133, 23
  br i1 %138, label %148, label %139

139:                                              ; preds = %137
  %140 = add nuw i64 %133, 16
  %141 = and i64 %140, -16
  %142 = call i8* @_Znwm(i64 %141) #14
  %143 = getelementptr inbounds %"class.std::__1::basic_string", %"class.std::__1::basic_string"* %6, i64 0, i32 0, i32 0, i32 0, i32 0, i32 0, i32 0
  store i8* %142, i8** %143, align 8
  %144 = or i64 %141, -9223372036854775808
  %145 = getelementptr inbounds %"class.std::__1::basic_string", %"class.std::__1::basic_string"* %6, i64 0, i32 0, i32 0, i32 0, i32 0, i32 0, i32 2
  store i64 %144, i64* %145, align 8
  %146 = getelementptr inbounds %"class.std::__1::basic_string", %"class.std::__1::basic_string"* %6, i64 0, i32 0, i32 0, i32 0, i32 0, i32 0, i32 1
  store i64 %133, i64* %146, align 8
  %147 = bitcast %"class.std::__1::basic_string"* %6 to %"struct.std::__1::basic_string<char, std::__1::char_traits<char>, std::__1::allocator<char> >::__short"*
  br label %153

148:                                              ; preds = %137
  %149 = trunc i64 %133 to i8
  %150 = bitcast %"class.std::__1::basic_string"* %6 to %"struct.std::__1::basic_string<char, std::__1::char_traits<char>, std::__1::allocator<char> >::__short"*
  %151 = getelementptr inbounds %"struct.std::__1::basic_string<char, std::__1::char_traits<char>, std::__1::allocator<char> >::__short", %"struct.std::__1::basic_string<char, std::__1::char_traits<char>, std::__1::allocator<char> >::__short"* %150, i64 0, i32 1, i32 0
  store i8 %149, i8* %151, align 1
  %152 = icmp eq i64 %133, 0
  br i1 %152, label %156, label %153

153:                                              ; preds = %148, %139
  %154 = phi %"struct.std::__1::basic_string<char, std::__1::char_traits<char>, std::__1::allocator<char> >::__short"* [ %150, %148 ], [ %147, %139 ]
  %155 = phi i8* [ %132, %148 ], [ %142, %139 ]
  call void @llvm.memcpy.p0i8.p0i8.i64(i8* nonnull align 1 %155, i8* align 1 getelementptr inbounds ([0 x i8], [0 x i8]* @_ZN10extensions3api25language_settings_private20OnInputMethodRemoved10kEventNameE, i64 0, i64 0), i64 %133, i1 false) #12
  br label %156

156:                                              ; preds = %148, %153
  %157 = phi %"struct.std::__1::basic_string<char, std::__1::char_traits<char>, std::__1::allocator<char> >::__short"* [ %150, %148 ], [ %154, %153 ]
  %158 = phi i8* [ %132, %148 ], [ %155, %153 ]
  %159 = getelementptr inbounds i8, i8* %158, i64 %133
  store i8 0, i8* %159, align 1
  call void @_ZN10extensions11EventRouter16RegisterObserverEPNS0_8ObserverERKNSt3__112basic_stringIcNS3_11char_traitsIcEENS3_9allocatorIcEEEE(%"class.extensions::EventRouter"* nonnull %24, %"class.extensions::EventRouter::Observer"* %9, %"class.std::__1::basic_string"* nonnull dereferenceable(24) %6) #12
  %160 = getelementptr inbounds %"struct.std::__1::basic_string<char, std::__1::char_traits<char>, std::__1::allocator<char> >::__short", %"struct.std::__1::basic_string<char, std::__1::char_traits<char>, std::__1::allocator<char> >::__short"* %157, i64 0, i32 1, i32 0
  %161 = load i8, i8* %160, align 1
  %162 = icmp slt i8 %161, 0
  br i1 %162, label %163, label %166

163:                                              ; preds = %156
  %164 = getelementptr inbounds %"class.std::__1::basic_string", %"class.std::__1::basic_string"* %6, i64 0, i32 0, i32 0, i32 0, i32 0, i32 0, i32 0
  %165 = load i8*, i8** %164, align 8
  call void @_ZdlPv(i8* %165) #14
  br label %166

166:                                              ; preds = %156, %163
  call void @llvm.lifetime.end.p0i8(i64 24, i8* nonnull %132) #12
  %167 = bitcast %"class.content::Source"* %7 to i8*
  call void @llvm.lifetime.start.p0i8(i64 8, i8* nonnull %167) #12
  %168 = load %"class.content::BrowserContext"*, %"class.content::BrowserContext"** %16, align 8
  %169 = call %class.Profile* @_ZN7Profile18FromBrowserContextEPN7content14BrowserContextE(%"class.content::BrowserContext"* %168) #12
  %170 = bitcast %"class.content::Source"* %7 to %class.Profile**
  store %class.Profile* %169, %class.Profile** %170, align 8
  %171 = getelementptr inbounds %"class.content::Source", %"class.content::Source"* %7, i64 0, i32 0
  call void @_ZN7content21NotificationRegistrar3AddEPNS_20NotificationObserverEiRKNS_18NotificationSourceE(%"class.content::NotificationRegistrar"* %21, %"class.content::NotificationObserver"* %11, i32 35, %"class.content::NotificationSource"* nonnull dereferenceable(8) %171) #12
  call void @llvm.lifetime.end.p0i8(i64 8, i8* nonnull %167) #12
  %172 = load %"class.content::BrowserContext"*, %"class.content::BrowserContext"** %16, align 8
  %173 = call %class.Profile* @_ZN7Profile18FromBrowserContextEPN7content14BrowserContextE(%"class.content::BrowserContext"* %172) #12
  %174 = bitcast %class.Profile* %173 to %class.PrefService* (%class.Profile*)***
  %175 = load %class.PrefService* (%class.Profile*)**, %class.PrefService* (%class.Profile*)*** %174, align 8
  %176 = getelementptr inbounds %class.PrefService* (%class.Profile*)*, %class.PrefService* (%class.Profile*)** %175, i64 46
  %177 = load %class.PrefService* (%class.Profile*)*, %class.PrefService* (%class.Profile*)** %176, align 8
  %178 = call %class.PrefService* %177(%class.Profile* %173) #12
  call void @_ZN19PrefChangeRegistrar4InitEP11PrefService(%class.PrefChangeRegistrar* %22, %class.PrefService* %178) #12
  call void @_ZN10extensions31LanguageSettingsPrivateDelegate40StartOrStopListeningForSpellcheckChangesEv(%"class.extensions::LanguageSettingsPrivateDelegate"* %0)
  br label %179

179:                                              ; preds = %2, %166
  ret void
}

declare void @_ZN12KeyedServiceC2Ev(%class.KeyedService*) unnamed_addr #1

declare void @_ZN7content21NotificationRegistrarC1Ev(%"class.content::NotificationRegistrar"*) unnamed_addr #1

declare void @_ZN19PrefChangeRegistrarC1Ev(%class.PrefChangeRegistrar*) unnamed_addr #1

; Function Attrs: argmemonly nounwind
declare void @llvm.lifetime.start.p0i8(i64 immarg, i8* nocapture) #2

declare %"class.extensions::EventRouter"* @_ZN10extensions11EventRouter3GetEPN7content14BrowserContextE(%"class.content::BrowserContext"*) local_unnamed_addr #1

declare void @_ZN10extensions11EventRouter16RegisterObserverEPNS0_8ObserverERKNSt3__112basic_stringIcNS3_11char_traitsIcEENS3_9allocatorIcEEEE(%"class.extensions::EventRouter"*, %"class.extensions::EventRouter::Observer"*, %"class.std::__1::basic_string"* dereferenceable(24)) local_unnamed_addr #1

; Function Attrs: argmemonly nounwind
declare void @llvm.lifetime.end.p0i8(i64 immarg, i8* nocapture) #2

declare void @_ZN7content21NotificationRegistrar3AddEPNS_20NotificationObserverEiRKNS_18NotificationSourceE(%"class.content::NotificationRegistrar"*, %"class.content::NotificationObserver"*, i32, %"class.content::NotificationSource"* dereferenceable(8)) local_unnamed_addr #1

declare %class.Profile* @_ZN7Profile18FromBrowserContextEPN7content14BrowserContextE(%"class.content::BrowserContext"*) local_unnamed_addr #1

declare void @_ZN19PrefChangeRegistrar4InitEP11PrefService(%class.PrefChangeRegistrar*, %class.PrefService*) local_unnamed_addr #1

; Function Attrs: nounwind ssp uwtable
define hidden void @_ZN10extensions31LanguageSettingsPrivateDelegate40StartOrStopListeningForSpellcheckChangesEv(%"class.extensions::LanguageSettingsPrivateDelegate"*) local_unnamed_addr #0 align 2 {
  %2 = alloca %"class.std::__1::basic_string", align 8
  %3 = alloca %"class.std::__1::basic_string", align 8
  %4 = alloca %"class.std::__1::basic_string", align 8
  %5 = alloca %"class.base::RepeatingCallback.311", align 8
  %6 = alloca %"class.std::__1::basic_string", align 8
  %7 = getelementptr inbounds %"class.extensions::LanguageSettingsPrivateDelegate", %"class.extensions::LanguageSettingsPrivateDelegate"* %0, i64 0, i32 7
  %8 = load %"class.content::BrowserContext"*, %"class.content::BrowserContext"** %7, align 8
  %9 = tail call %"class.extensions::EventRouter"* @_ZN10extensions11EventRouter3GetEPN7content14BrowserContextE(%"class.content::BrowserContext"* %8) #12
  %10 = bitcast %"class.std::__1::basic_string"* %2 to i8*
  call void @llvm.lifetime.start.p0i8(i64 24, i8* nonnull %10) #12
  %11 = tail call i64 @strlen(i8* getelementptr inbounds ([0 x i8], [0 x i8]* @_ZN10extensions3api25language_settings_private31OnSpellcheckDictionariesChanged10kEventNameE, i64 0, i64 0)) #12
  %12 = icmp ugt i64 %11, -17
  br i1 %12, label %13, label %15

13:                                               ; preds = %1
  %14 = bitcast %"class.std::__1::basic_string"* %2 to %"class.std::__1::__basic_string_common"*
  call void @_ZNKSt3__121__basic_string_commonILb1EE20__throw_length_errorEv(%"class.std::__1::__basic_string_common"* nonnull %14) #13
  unreachable

15:                                               ; preds = %1
  %16 = icmp ult i64 %11, 23
  br i1 %16, label %25, label %17

17:                                               ; preds = %15
  %18 = add nuw i64 %11, 16
  %19 = and i64 %18, -16
  %20 = tail call i8* @_Znwm(i64 %19) #14
  %21 = getelementptr inbounds %"class.std::__1::basic_string", %"class.std::__1::basic_string"* %2, i64 0, i32 0, i32 0, i32 0, i32 0, i32 0, i32 0
  store i8* %20, i8** %21, align 8
  %22 = or i64 %19, -9223372036854775808
  %23 = getelementptr inbounds %"class.std::__1::basic_string", %"class.std::__1::basic_string"* %2, i64 0, i32 0, i32 0, i32 0, i32 0, i32 0, i32 2
  store i64 %22, i64* %23, align 8
  %24 = getelementptr inbounds %"class.std::__1::basic_string", %"class.std::__1::basic_string"* %2, i64 0, i32 0, i32 0, i32 0, i32 0, i32 0, i32 1
  store i64 %11, i64* %24, align 8
  br label %30

25:                                               ; preds = %15
  %26 = trunc i64 %11 to i8
  %27 = bitcast %"class.std::__1::basic_string"* %2 to %"struct.std::__1::basic_string<char, std::__1::char_traits<char>, std::__1::allocator<char> >::__short"*
  %28 = getelementptr inbounds %"struct.std::__1::basic_string<char, std::__1::char_traits<char>, std::__1::allocator<char> >::__short", %"struct.std::__1::basic_string<char, std::__1::char_traits<char>, std::__1::allocator<char> >::__short"* %27, i64 0, i32 1, i32 0
  store i8 %26, i8* %28, align 1
  %29 = icmp eq i64 %11, 0
  br i1 %29, label %32, label %30

30:                                               ; preds = %25, %17
  %31 = phi i8* [ %20, %17 ], [ %10, %25 ]
  call void @llvm.memcpy.p0i8.p0i8.i64(i8* nonnull align 1 %31, i8* align 1 getelementptr inbounds ([0 x i8], [0 x i8]* @_ZN10extensions3api25language_settings_private31OnSpellcheckDictionariesChanged10kEventNameE, i64 0, i64 0), i64 %11, i1 false) #12
  br label %32

32:                                               ; preds = %25, %30
  %33 = phi i8* [ %10, %25 ], [ %31, %30 ]
  %34 = getelementptr inbounds i8, i8* %33, i64 %11
  store i8 0, i8* %34, align 1
  %35 = call zeroext i1 @_ZNK10extensions11EventRouter16HasEventListenerERKNSt3__112basic_stringIcNS1_11char_traitsIcEENS1_9allocatorIcEEEE(%"class.extensions::EventRouter"* %9, %"class.std::__1::basic_string"* nonnull dereferenceable(24) %2) #12
  br i1 %35, label %73, label %36

36:                                               ; preds = %32
  %37 = bitcast %"class.std::__1::basic_string"* %3 to i8*
  call void @llvm.lifetime.start.p0i8(i64 24, i8* nonnull %37) #12
  %38 = call i64 @strlen(i8* getelementptr inbounds ([0 x i8], [0 x i8]* @_ZN10extensions3api25language_settings_private25OnCustomDictionaryChanged10kEventNameE, i64 0, i64 0)) #12
  %39 = icmp ugt i64 %38, -17
  br i1 %39, label %40, label %42

40:                                               ; preds = %36
  %41 = bitcast %"class.std::__1::basic_string"* %3 to %"class.std::__1::__basic_string_common"*
  call void @_ZNKSt3__121__basic_string_commonILb1EE20__throw_length_errorEv(%"class.std::__1::__basic_string_common"* nonnull %41) #13
  unreachable

42:                                               ; preds = %36
  %43 = icmp ult i64 %38, 23
  br i1 %43, label %53, label %44

44:                                               ; preds = %42
  %45 = add nuw i64 %38, 16
  %46 = and i64 %45, -16
  %47 = call i8* @_Znwm(i64 %46) #14
  %48 = getelementptr inbounds %"class.std::__1::basic_string", %"class.std::__1::basic_string"* %3, i64 0, i32 0, i32 0, i32 0, i32 0, i32 0, i32 0
  store i8* %47, i8** %48, align 8
  %49 = or i64 %46, -9223372036854775808
  %50 = getelementptr inbounds %"class.std::__1::basic_string", %"class.std::__1::basic_string"* %3, i64 0, i32 0, i32 0, i32 0, i32 0, i32 0, i32 2
  store i64 %49, i64* %50, align 8
  %51 = getelementptr inbounds %"class.std::__1::basic_string", %"class.std::__1::basic_string"* %3, i64 0, i32 0, i32 0, i32 0, i32 0, i32 0, i32 1
  store i64 %38, i64* %51, align 8
  %52 = bitcast %"class.std::__1::basic_string"* %3 to %"struct.std::__1::basic_string<char, std::__1::char_traits<char>, std::__1::allocator<char> >::__short"*
  br label %58

53:                                               ; preds = %42
  %54 = trunc i64 %38 to i8
  %55 = bitcast %"class.std::__1::basic_string"* %3 to %"struct.std::__1::basic_string<char, std::__1::char_traits<char>, std::__1::allocator<char> >::__short"*
  %56 = getelementptr inbounds %"struct.std::__1::basic_string<char, std::__1::char_traits<char>, std::__1::allocator<char> >::__short", %"struct.std::__1::basic_string<char, std::__1::char_traits<char>, std::__1::allocator<char> >::__short"* %55, i64 0, i32 1, i32 0
  store i8 %54, i8* %56, align 1
  %57 = icmp eq i64 %38, 0
  br i1 %57, label %61, label %58

58:                                               ; preds = %53, %44
  %59 = phi %"struct.std::__1::basic_string<char, std::__1::char_traits<char>, std::__1::allocator<char> >::__short"* [ %55, %53 ], [ %52, %44 ]
  %60 = phi i8* [ %37, %53 ], [ %47, %44 ]
  call void @llvm.memcpy.p0i8.p0i8.i64(i8* nonnull align 1 %60, i8* align 1 getelementptr inbounds ([0 x i8], [0 x i8]* @_ZN10extensions3api25language_settings_private25OnCustomDictionaryChanged10kEventNameE, i64 0, i64 0), i64 %38, i1 false) #12
  br label %61

61:                                               ; preds = %58, %53
  %62 = phi %"struct.std::__1::basic_string<char, std::__1::char_traits<char>, std::__1::allocator<char> >::__short"* [ %59, %58 ], [ %55, %53 ]
  %63 = phi i8* [ %60, %58 ], [ %37, %53 ]
  %64 = getelementptr inbounds i8, i8* %63, i64 %38
  store i8 0, i8* %64, align 1
  %65 = call zeroext i1 @_ZNK10extensions11EventRouter16HasEventListenerERKNSt3__112basic_stringIcNS1_11char_traitsIcEENS1_9allocatorIcEEEE(%"class.extensions::EventRouter"* %9, %"class.std::__1::basic_string"* nonnull dereferenceable(24) %3) #12
  %66 = getelementptr inbounds %"struct.std::__1::basic_string<char, std::__1::char_traits<char>, std::__1::allocator<char> >::__short", %"struct.std::__1::basic_string<char, std::__1::char_traits<char>, std::__1::allocator<char> >::__short"* %62, i64 0, i32 1, i32 0
  %67 = load i8, i8* %66, align 1
  %68 = icmp slt i8 %67, 0
  br i1 %68, label %69, label %72

69:                                               ; preds = %61
  %70 = getelementptr inbounds %"class.std::__1::basic_string", %"class.std::__1::basic_string"* %3, i64 0, i32 0, i32 0, i32 0, i32 0, i32 0, i32 0
  %71 = load i8*, i8** %70, align 8
  call void @_ZdlPv(i8* %71) #14
  br label %72

72:                                               ; preds = %61, %69
  call void @llvm.lifetime.end.p0i8(i64 24, i8* nonnull %37) #12
  br label %73

73:                                               ; preds = %32, %72
  %74 = phi i1 [ %65, %72 ], [ true, %32 ]
  %75 = bitcast %"class.std::__1::basic_string"* %2 to %"struct.std::__1::basic_string<char, std::__1::char_traits<char>, std::__1::allocator<char> >::__short"*
  %76 = getelementptr inbounds %"struct.std::__1::basic_string<char, std::__1::char_traits<char>, std::__1::allocator<char> >::__short", %"struct.std::__1::basic_string<char, std::__1::char_traits<char>, std::__1::allocator<char> >::__short"* %75, i64 0, i32 1, i32 0
  %77 = load i8, i8* %76, align 1
  %78 = icmp slt i8 %77, 0
  br i1 %78, label %79, label %82

79:                                               ; preds = %73
  %80 = getelementptr inbounds %"class.std::__1::basic_string", %"class.std::__1::basic_string"* %2, i64 0, i32 0, i32 0, i32 0, i32 0, i32 0, i32 0
  %81 = load i8*, i8** %80, align 8
  call void @_ZdlPv(i8* %81) #14
  br label %82

82:                                               ; preds = %73, %79
  call void @llvm.lifetime.end.p0i8(i64 24, i8* nonnull %10) #12
  %83 = zext i1 %74 to i8
  %84 = getelementptr inbounds %"class.extensions::LanguageSettingsPrivateDelegate", %"class.extensions::LanguageSettingsPrivateDelegate"* %0, i64 0, i32 8
  %85 = load i8, i8* %84, align 8, !range !2
  %86 = icmp eq i8 %85, 0
  br i1 %74, label %87, label %140

87:                                               ; preds = %82
  br i1 %86, label %88, label %194

88:                                               ; preds = %87
  call void @_ZN10extensions31LanguageSettingsPrivateDelegate19RefreshDictionariesEbb(%"class.extensions::LanguageSettingsPrivateDelegate"* %0, i1 zeroext false, i1 zeroext true)
  %89 = getelementptr inbounds %"class.extensions::LanguageSettingsPrivateDelegate", %"class.extensions::LanguageSettingsPrivateDelegate"* %0, i64 0, i32 12
  %90 = bitcast %"class.std::__1::basic_string"* %4 to i8*
  call void @llvm.lifetime.start.p0i8(i64 24, i8* nonnull %90) #12
  %91 = call i64 @strlen(i8* getelementptr inbounds ([0 x i8], [0 x i8]* @_ZN10spellcheck5prefs23kSpellCheckDictionariesE, i64 0, i64 0)) #12
  %92 = icmp ugt i64 %91, -17
  br i1 %92, label %93, label %95

93:                                               ; preds = %88
  %94 = bitcast %"class.std::__1::basic_string"* %4 to %"class.std::__1::__basic_string_common"*
  call void @_ZNKSt3__121__basic_string_commonILb1EE20__throw_length_errorEv(%"class.std::__1::__basic_string_common"* nonnull %94) #13
  unreachable

95:                                               ; preds = %88
  %96 = icmp ult i64 %91, 23
  br i1 %96, label %106, label %97

97:                                               ; preds = %95
  %98 = add nuw i64 %91, 16
  %99 = and i64 %98, -16
  %100 = call i8* @_Znwm(i64 %99) #14
  %101 = getelementptr inbounds %"class.std::__1::basic_string", %"class.std::__1::basic_string"* %4, i64 0, i32 0, i32 0, i32 0, i32 0, i32 0, i32 0
  store i8* %100, i8** %101, align 8
  %102 = or i64 %99, -9223372036854775808
  %103 = getelementptr inbounds %"class.std::__1::basic_string", %"class.std::__1::basic_string"* %4, i64 0, i32 0, i32 0, i32 0, i32 0, i32 0, i32 2
  store i64 %102, i64* %103, align 8
  %104 = getelementptr inbounds %"class.std::__1::basic_string", %"class.std::__1::basic_string"* %4, i64 0, i32 0, i32 0, i32 0, i32 0, i32 0, i32 1
  store i64 %91, i64* %104, align 8
  %105 = bitcast %"class.std::__1::basic_string"* %4 to %"struct.std::__1::basic_string<char, std::__1::char_traits<char>, std::__1::allocator<char> >::__short"*
  br label %111

106:                                              ; preds = %95
  %107 = trunc i64 %91 to i8
  %108 = bitcast %"class.std::__1::basic_string"* %4 to %"struct.std::__1::basic_string<char, std::__1::char_traits<char>, std::__1::allocator<char> >::__short"*
  %109 = getelementptr inbounds %"struct.std::__1::basic_string<char, std::__1::char_traits<char>, std::__1::allocator<char> >::__short", %"struct.std::__1::basic_string<char, std::__1::char_traits<char>, std::__1::allocator<char> >::__short"* %108, i64 0, i32 1, i32 0
  store i8 %107, i8* %109, align 1
  %110 = icmp eq i64 %91, 0
  br i1 %110, label %114, label %111

111:                                              ; preds = %106, %97
  %112 = phi %"struct.std::__1::basic_string<char, std::__1::char_traits<char>, std::__1::allocator<char> >::__short"* [ %108, %106 ], [ %105, %97 ]
  %113 = phi i8* [ %90, %106 ], [ %100, %97 ]
  call void @llvm.memcpy.p0i8.p0i8.i64(i8* nonnull align 1 %113, i8* align 1 getelementptr inbounds ([0 x i8], [0 x i8]* @_ZN10spellcheck5prefs23kSpellCheckDictionariesE, i64 0, i64 0), i64 %91, i1 false) #12
  br label %114

114:                                              ; preds = %106, %111
  %115 = phi %"struct.std::__1::basic_string<char, std::__1::char_traits<char>, std::__1::allocator<char> >::__short"* [ %108, %106 ], [ %112, %111 ]
  %116 = phi i8* [ %90, %106 ], [ %113, %111 ]
  %117 = getelementptr inbounds i8, i8* %116, i64 %91
  store i8 0, i8* %117, align 1
  %118 = bitcast %"class.base::RepeatingCallback.311"* %5 to i8*
  call void @llvm.lifetime.start.p0i8(i64 8, i8* nonnull %118) #12
  %119 = ptrtoint %"class.extensions::LanguageSettingsPrivateDelegate"* %0 to i64
  %120 = call i8* @_Znwm(i64 56) #14, !noalias !3
  %121 = bitcast i8* %120 to %"class.base::internal::BindStateBase"*
  call void @_ZN4base8internal13BindStateBaseC2EPFvvEPFvPKS1_E(%"class.base::internal::BindStateBase"* nonnull %121, void ()* bitcast (void (%"class.base::internal::BindStateBase"*)* @_ZN4base8internal7InvokerINS0_9BindStateIMN10extensions31LanguageSettingsPrivateDelegateEFvvEJNS0_17UnretainedWrapperIS4_EEEEEFvvEE3RunEPNS0_13BindStateBaseE to void ()*), void (%"class.base::internal::BindStateBase"*)* nonnull @_ZN4base8internal9BindStateIMN10extensions31LanguageSettingsPrivateDelegateEFvvEJNS0_17UnretainedWrapperIS3_EEEE7DestroyEPKNS0_13BindStateBaseE) #12, !noalias !3
  %122 = getelementptr inbounds i8, i8* %120, i64 32
  %123 = bitcast i8* %122 to <2 x i64>*
  store <2 x i64> <i64 ptrtoint (void (%"class.extensions::LanguageSettingsPrivateDelegate"*)* @_ZN10extensions31LanguageSettingsPrivateDelegate31OnSpellcheckDictionariesChangedEv to i64), i64 0>, <2 x i64>* %123, align 8, !noalias !3
  %124 = getelementptr inbounds i8, i8* %120, i64 48
  %125 = bitcast i8* %124 to i64*
  store i64 %119, i64* %125, align 8, !noalias !3
  %126 = bitcast %"class.base::RepeatingCallback.311"* %5 to i8**
  store i8* %120, i8** %126, align 8, !alias.scope !3
  call void @_ZN19PrefChangeRegistrar3AddERKNSt3__112basic_stringIcNS0_11char_traitsIcEENS0_9allocatorIcEEEERKN4base17RepeatingCallbackIFvvEEE(%class.PrefChangeRegistrar* %89, %"class.std::__1::basic_string"* nonnull dereferenceable(24) %4, %"class.base::RepeatingCallback.311"* nonnull dereferenceable(8) %5) #12
  %127 = getelementptr inbounds %"class.base::RepeatingCallback.311", %"class.base::RepeatingCallback.311"* %5, i64 0, i32 0, i32 0
  call void @_ZN4base8internal12CallbackBaseD2Ev(%"class.base::internal::CallbackBase"* nonnull %127) #12
  call void @llvm.lifetime.end.p0i8(i64 8, i8* nonnull %118) #12
  %128 = getelementptr inbounds %"struct.std::__1::basic_string<char, std::__1::char_traits<char>, std::__1::allocator<char> >::__short", %"struct.std::__1::basic_string<char, std::__1::char_traits<char>, std::__1::allocator<char> >::__short"* %115, i64 0, i32 1, i32 0
  %129 = load i8, i8* %128, align 1
  %130 = icmp slt i8 %129, 0
  br i1 %130, label %131, label %134

131:                                              ; preds = %114
  %132 = getelementptr inbounds %"class.std::__1::basic_string", %"class.std::__1::basic_string"* %4, i64 0, i32 0, i32 0, i32 0, i32 0, i32 0, i32 0
  %133 = load i8*, i8** %132, align 8
  call void @_ZdlPv(i8* %133) #14
  br label %134

134:                                              ; preds = %114, %131
  call void @llvm.lifetime.end.p0i8(i64 24, i8* nonnull %90) #12
  %135 = getelementptr inbounds %"class.extensions::LanguageSettingsPrivateDelegate", %"class.extensions::LanguageSettingsPrivateDelegate"* %0, i64 0, i32 6
  %136 = load %class.SpellcheckCustomDictionary*, %class.SpellcheckCustomDictionary** %135, align 8
  %137 = icmp eq %class.SpellcheckCustomDictionary* %136, null
  br i1 %137, label %194, label %138

138:                                              ; preds = %134
  %139 = getelementptr inbounds %"class.extensions::LanguageSettingsPrivateDelegate", %"class.extensions::LanguageSettingsPrivateDelegate"* %0, i64 0, i32 4
  call void @_ZN26SpellcheckCustomDictionary11AddObserverEPNS_8ObserverE(%class.SpellcheckCustomDictionary* nonnull %136, %"class.SpellcheckCustomDictionary::Observer"* %139) #12
  br label %194

140:                                              ; preds = %82
  br i1 %86, label %194, label %141

141:                                              ; preds = %140
  call void @_ZN10extensions31LanguageSettingsPrivateDelegate25RemoveDictionaryObserversEv(%"class.extensions::LanguageSettingsPrivateDelegate"* %0)
  %142 = getelementptr inbounds %"class.extensions::LanguageSettingsPrivateDelegate", %"class.extensions::LanguageSettingsPrivateDelegate"* %0, i64 0, i32 5, i32 0, i32 0
  %143 = load %"class.base::WeakPtr"*, %"class.base::WeakPtr"** %142, align 8
  %144 = getelementptr inbounds %"class.extensions::LanguageSettingsPrivateDelegate", %"class.extensions::LanguageSettingsPrivateDelegate"* %0, i64 0, i32 5, i32 0, i32 1
  %145 = load %"class.base::WeakPtr"*, %"class.base::WeakPtr"** %144, align 8
  %146 = icmp eq %"class.base::WeakPtr"* %145, %143
  br i1 %146, label %152, label %147

147:                                              ; preds = %141, %147
  %148 = phi %"class.base::WeakPtr"* [ %149, %147 ], [ %145, %141 ]
  %149 = getelementptr inbounds %"class.base::WeakPtr", %"class.base::WeakPtr"* %148, i64 -1
  %150 = getelementptr inbounds %"class.base::WeakPtr", %"class.base::WeakPtr"* %149, i64 0, i32 0
  call void @_ZN4base8internal11WeakPtrBaseD2Ev(%"class.base::internal::WeakPtrBase"* %150) #12
  %151 = icmp eq %"class.base::WeakPtr"* %149, %143
  br i1 %151, label %152, label %147

152:                                              ; preds = %147, %141
  store %"class.base::WeakPtr"* %143, %"class.base::WeakPtr"** %144, align 8
  %153 = getelementptr inbounds %"class.extensions::LanguageSettingsPrivateDelegate", %"class.extensions::LanguageSettingsPrivateDelegate"* %0, i64 0, i32 12
  %154 = bitcast %"class.std::__1::basic_string"* %6 to i8*
  call void @llvm.lifetime.start.p0i8(i64 24, i8* nonnull %154) #12
  %155 = call i64 @strlen(i8* getelementptr inbounds ([0 x i8], [0 x i8]* @_ZN10spellcheck5prefs23kSpellCheckDictionariesE, i64 0, i64 0)) #12
  %156 = icmp ugt i64 %155, -17
  br i1 %156, label %157, label %159

157:                                              ; preds = %152
  %158 = bitcast %"class.std::__1::basic_string"* %6 to %"class.std::__1::__basic_string_common"*
  call void @_ZNKSt3__121__basic_string_commonILb1EE20__throw_length_errorEv(%"class.std::__1::__basic_string_common"* nonnull %158) #13
  unreachable

159:                                              ; preds = %152
  %160 = icmp ult i64 %155, 23
  br i1 %160, label %170, label %161

161:                                              ; preds = %159
  %162 = add nuw i64 %155, 16
  %163 = and i64 %162, -16
  %164 = call i8* @_Znwm(i64 %163) #14
  %165 = getelementptr inbounds %"class.std::__1::basic_string", %"class.std::__1::basic_string"* %6, i64 0, i32 0, i32 0, i32 0, i32 0, i32 0, i32 0
  store i8* %164, i8** %165, align 8
  %166 = or i64 %163, -9223372036854775808
  %167 = getelementptr inbounds %"class.std::__1::basic_string", %"class.std::__1::basic_string"* %6, i64 0, i32 0, i32 0, i32 0, i32 0, i32 0, i32 2
  store i64 %166, i64* %167, align 8
  %168 = getelementptr inbounds %"class.std::__1::basic_string", %"class.std::__1::basic_string"* %6, i64 0, i32 0, i32 0, i32 0, i32 0, i32 0, i32 1
  store i64 %155, i64* %168, align 8
  %169 = bitcast %"class.std::__1::basic_string"* %6 to %"struct.std::__1::basic_string<char, std::__1::char_traits<char>, std::__1::allocator<char> >::__short"*
  br label %175

170:                                              ; preds = %159
  %171 = trunc i64 %155 to i8
  %172 = bitcast %"class.std::__1::basic_string"* %6 to %"struct.std::__1::basic_string<char, std::__1::char_traits<char>, std::__1::allocator<char> >::__short"*
  %173 = getelementptr inbounds %"struct.std::__1::basic_string<char, std::__1::char_traits<char>, std::__1::allocator<char> >::__short", %"struct.std::__1::basic_string<char, std::__1::char_traits<char>, std::__1::allocator<char> >::__short"* %172, i64 0, i32 1, i32 0
  store i8 %171, i8* %173, align 1
  %174 = icmp eq i64 %155, 0
  br i1 %174, label %178, label %175

175:                                              ; preds = %170, %161
  %176 = phi %"struct.std::__1::basic_string<char, std::__1::char_traits<char>, std::__1::allocator<char> >::__short"* [ %172, %170 ], [ %169, %161 ]
  %177 = phi i8* [ %154, %170 ], [ %164, %161 ]
  call void @llvm.memcpy.p0i8.p0i8.i64(i8* nonnull align 1 %177, i8* align 1 getelementptr inbounds ([0 x i8], [0 x i8]* @_ZN10spellcheck5prefs23kSpellCheckDictionariesE, i64 0, i64 0), i64 %155, i1 false) #12
  br label %178

178:                                              ; preds = %170, %175
  %179 = phi %"struct.std::__1::basic_string<char, std::__1::char_traits<char>, std::__1::allocator<char> >::__short"* [ %172, %170 ], [ %176, %175 ]
  %180 = phi i8* [ %154, %170 ], [ %177, %175 ]
  %181 = getelementptr inbounds i8, i8* %180, i64 %155
  store i8 0, i8* %181, align 1
  call void @_ZN19PrefChangeRegistrar6RemoveERKNSt3__112basic_stringIcNS0_11char_traitsIcEENS0_9allocatorIcEEEE(%class.PrefChangeRegistrar* %153, %"class.std::__1::basic_string"* nonnull dereferenceable(24) %6) #12
  %182 = getelementptr inbounds %"struct.std::__1::basic_string<char, std::__1::char_traits<char>, std::__1::allocator<char> >::__short", %"struct.std::__1::basic_string<char, std::__1::char_traits<char>, std::__1::allocator<char> >::__short"* %179, i64 0, i32 1, i32 0
  %183 = load i8, i8* %182, align 1
  %184 = icmp slt i8 %183, 0
  br i1 %184, label %185, label %188

185:                                              ; preds = %178
  %186 = getelementptr inbounds %"class.std::__1::basic_string", %"class.std::__1::basic_string"* %6, i64 0, i32 0, i32 0, i32 0, i32 0, i32 0, i32 0
  %187 = load i8*, i8** %186, align 8
  call void @_ZdlPv(i8* %187) #14
  br label %188

188:                                              ; preds = %178, %185
  call void @llvm.lifetime.end.p0i8(i64 24, i8* nonnull %154) #12
  %189 = getelementptr inbounds %"class.extensions::LanguageSettingsPrivateDelegate", %"class.extensions::LanguageSettingsPrivateDelegate"* %0, i64 0, i32 6
  %190 = load %class.SpellcheckCustomDictionary*, %class.SpellcheckCustomDictionary** %189, align 8
  %191 = icmp eq %class.SpellcheckCustomDictionary* %190, null
  br i1 %191, label %194, label %192

192:                                              ; preds = %188
  %193 = getelementptr inbounds %"class.extensions::LanguageSettingsPrivateDelegate", %"class.extensions::LanguageSettingsPrivateDelegate"* %0, i64 0, i32 4
  call void @_ZN26SpellcheckCustomDictionary14RemoveObserverEPNS_8ObserverE(%class.SpellcheckCustomDictionary* nonnull %190, %"class.SpellcheckCustomDictionary::Observer"* %193) #12
  br label %194

194:                                              ; preds = %87, %134, %188, %140, %192, %138
  store i8 %83, i8* %84, align 8
  ret void
}

; Function Attrs: nounwind ssp uwtable
define hidden void @_ZN10extensions31LanguageSettingsPrivateDelegateD2Ev(%"class.extensions::LanguageSettingsPrivateDelegate"*) unnamed_addr #0 align 2 {
  %2 = bitcast %"class.extensions::LanguageSettingsPrivateDelegate"* %0 to <2 x i32 (...)**>*
  store <2 x i32 (...)**> <i32 (...)** bitcast (i8** getelementptr inbounds ({ [16 x i8*], [6 x i8*], [5 x i8*], [6 x i8*], [4 x i8*] }, { [16 x i8*], [6 x i8*], [5 x i8*], [6 x i8*], [4 x i8*] }* @_ZTVN10extensions31LanguageSettingsPrivateDelegateE, i64 0, inrange i32 0, i64 2) to i32 (...)**), i32 (...)** bitcast (i8** getelementptr inbounds ({ [16 x i8*], [6 x i8*], [5 x i8*], [6 x i8*], [4 x i8*] }, { [16 x i8*], [6 x i8*], [5 x i8*], [6 x i8*], [4 x i8*] }* @_ZTVN10extensions31LanguageSettingsPrivateDelegateE, i64 0, inrange i32 1, i64 2) to i32 (...)**)>, <2 x i32 (...)**>* %2, align 8
  %3 = getelementptr inbounds %"class.extensions::LanguageSettingsPrivateDelegate", %"class.extensions::LanguageSettingsPrivateDelegate"* %0, i64 0, i32 2, i32 0
  %4 = bitcast i32 (...)*** %3 to <2 x i32 (...)**>*
  store <2 x i32 (...)**> <i32 (...)** bitcast (i8** getelementptr inbounds ({ [16 x i8*], [6 x i8*], [5 x i8*], [6 x i8*], [4 x i8*] }, { [16 x i8*], [6 x i8*], [5 x i8*], [6 x i8*], [4 x i8*] }* @_ZTVN10extensions31LanguageSettingsPrivateDelegateE, i64 0, inrange i32 2, i64 2) to i32 (...)**), i32 (...)** bitcast (i8** getelementptr inbounds ({ [16 x i8*], [6 x i8*], [5 x i8*], [6 x i8*], [4 x i8*] }, { [16 x i8*], [6 x i8*], [5 x i8*], [6 x i8*], [4 x i8*] }* @_ZTVN10extensions31LanguageSettingsPrivateDelegateE, i64 0, inrange i32 3, i64 2) to i32 (...)**)>, <2 x i32 (...)**>* %4, align 8
  %5 = getelementptr inbounds %"class.extensions::LanguageSettingsPrivateDelegate", %"class.extensions::LanguageSettingsPrivateDelegate"* %0, i64 0, i32 4, i32 0
  store i32 (...)** bitcast (i8** getelementptr inbounds ({ [16 x i8*], [6 x i8*], [5 x i8*], [6 x i8*], [4 x i8*] }, { [16 x i8*], [6 x i8*], [5 x i8*], [6 x i8*], [4 x i8*] }* @_ZTVN10extensions31LanguageSettingsPrivateDelegateE, i64 0, inrange i32 4, i64 2) to i32 (...)**), i32 (...)*** %5, align 8
  %6 = getelementptr inbounds %"class.extensions::LanguageSettingsPrivateDelegate", %"class.extensions::LanguageSettingsPrivateDelegate"* %0, i64 0, i32 12
  tail call void @_ZN19PrefChangeRegistrar9RemoveAllEv(%class.PrefChangeRegistrar* %6) #12
  %7 = getelementptr inbounds %"class.extensions::LanguageSettingsPrivateDelegate", %"class.extensions::LanguageSettingsPrivateDelegate"* %0, i64 0, i32 11
  tail call void @_ZN7content21NotificationRegistrar9RemoveAllEv(%"class.content::NotificationRegistrar"* %7) #12
  tail call void @_ZN19PrefChangeRegistrarD1Ev(%class.PrefChangeRegistrar* %6) #12
  tail call void @_ZN7content21NotificationRegistrarD1Ev(%"class.content::NotificationRegistrar"* %7) #12
  %8 = getelementptr inbounds %"class.extensions::LanguageSettingsPrivateDelegate", %"class.extensions::LanguageSettingsPrivateDelegate"* %0, i64 0, i32 5
  %9 = getelementptr inbounds %"class.std::__1::vector", %"class.std::__1::vector"* %8, i64 0, i32 0, i32 0
  %10 = load %"class.base::WeakPtr"*, %"class.base::WeakPtr"** %9, align 8
  %11 = icmp eq %"class.base::WeakPtr"* %10, null
  br i1 %11, label %27, label %12

12:                                               ; preds = %1
  %13 = bitcast %"class.base::WeakPtr"* %10 to i8*
  %14 = getelementptr inbounds %"class.extensions::LanguageSettingsPrivateDelegate", %"class.extensions::LanguageSettingsPrivateDelegate"* %0, i64 0, i32 5, i32 0, i32 1
  %15 = load %"class.base::WeakPtr"*, %"class.base::WeakPtr"** %14, align 8
  %16 = icmp eq %"class.base::WeakPtr"* %15, %10
  br i1 %16, label %25, label %17

17:                                               ; preds = %12, %17
  %18 = phi %"class.base::WeakPtr"* [ %19, %17 ], [ %15, %12 ]
  %19 = getelementptr inbounds %"class.base::WeakPtr", %"class.base::WeakPtr"* %18, i64 -1
  %20 = getelementptr inbounds %"class.base::WeakPtr", %"class.base::WeakPtr"* %19, i64 0, i32 0
  tail call void @_ZN4base8internal11WeakPtrBaseD2Ev(%"class.base::internal::WeakPtrBase"* %20) #12
  %21 = icmp eq %"class.base::WeakPtr"* %19, %10
  br i1 %21, label %22, label %17

22:                                               ; preds = %17
  %23 = bitcast %"class.std::__1::vector"* %8 to i8**
  %24 = load i8*, i8** %23, align 8
  br label %25

25:                                               ; preds = %22, %12
  %26 = phi i8* [ %24, %22 ], [ %13, %12 ]
  store %"class.base::WeakPtr"* %10, %"class.base::WeakPtr"** %14, align 8
  tail call void @_ZdlPv(i8* %26) #14
  br label %27

27:                                               ; preds = %1, %25
  %28 = getelementptr inbounds %"class.extensions::LanguageSettingsPrivateDelegate", %"class.extensions::LanguageSettingsPrivateDelegate"* %0, i64 0, i32 1, i32 0
  tail call void @_ZN4base15CheckedObserverD2Ev(%"class.base::CheckedObserver"* %28) #12
  %29 = getelementptr inbounds %"class.extensions::LanguageSettingsPrivateDelegate", %"class.extensions::LanguageSettingsPrivateDelegate"* %0, i64 0, i32 0
  tail call void @_ZN12KeyedServiceD2Ev(%class.KeyedService* %29) #12
  ret void
}

declare void @_ZN19PrefChangeRegistrar9RemoveAllEv(%class.PrefChangeRegistrar*) local_unnamed_addr #1

declare void @_ZN7content21NotificationRegistrar9RemoveAllEv(%"class.content::NotificationRegistrar"*) local_unnamed_addr #1

; Function Attrs: nounwind
declare void @_ZN19PrefChangeRegistrarD1Ev(%class.PrefChangeRegistrar*) unnamed_addr #3

; Function Attrs: nounwind
declare void @_ZN7content21NotificationRegistrarD1Ev(%"class.content::NotificationRegistrar"*) unnamed_addr #3

; Function Attrs: nounwind
declare void @_ZN12KeyedServiceD2Ev(%class.KeyedService*) unnamed_addr #3

; Function Attrs: nounwind ssp uwtable
define hidden void @_ZThn8_N10extensions31LanguageSettingsPrivateDelegateD1Ev(%"class.extensions::LanguageSettingsPrivateDelegate"*) unnamed_addr #0 align 2 {
  %2 = getelementptr inbounds %"class.extensions::LanguageSettingsPrivateDelegate", %"class.extensions::LanguageSettingsPrivateDelegate"* %0, i64 -1, i32 12, i32 2
  %3 = bitcast %class.PrefService** %2 to %"class.extensions::LanguageSettingsPrivateDelegate"*
  tail call void @_ZN10extensions31LanguageSettingsPrivateDelegateD2Ev(%"class.extensions::LanguageSettingsPrivateDelegate"* %3) #12
  ret void
}

; Function Attrs: nounwind ssp uwtable
define hidden void @_ZThn32_N10extensions31LanguageSettingsPrivateDelegateD1Ev(%"class.extensions::LanguageSettingsPrivateDelegate"*) unnamed_addr #0 align 2 {
  %2 = getelementptr inbounds %"class.extensions::LanguageSettingsPrivateDelegate", %"class.extensions::LanguageSettingsPrivateDelegate"* %0, i64 -1, i32 12, i32 1
  %3 = bitcast %"class.std::__1::map.65"* %2 to %"class.extensions::LanguageSettingsPrivateDelegate"*
  tail call void @_ZN10extensions31LanguageSettingsPrivateDelegateD2Ev(%"class.extensions::LanguageSettingsPrivateDelegate"* %3) #12
  ret void
}

; Function Attrs: nounwind ssp uwtable
define hidden void @_ZN10extensions31LanguageSettingsPrivateDelegateD0Ev(%"class.extensions::LanguageSettingsPrivateDelegate"*) unnamed_addr #0 align 2 {
  tail call void @_ZN10extensions31LanguageSettingsPrivateDelegateD2Ev(%"class.extensions::LanguageSettingsPrivateDelegate"* %0) #12
  %2 = bitcast %"class.extensions::LanguageSettingsPrivateDelegate"* %0 to i8*
  tail call void @_ZdlPv(i8* %2) #14
  ret void
}

; Function Attrs: nobuiltin nounwind
declare void @_ZdlPv(i8*) local_unnamed_addr #4

; Function Attrs: nounwind ssp uwtable
define hidden void @_ZThn8_N10extensions31LanguageSettingsPrivateDelegateD0Ev(%"class.extensions::LanguageSettingsPrivateDelegate"*) unnamed_addr #0 align 2 {
  %2 = getelementptr inbounds %"class.extensions::LanguageSettingsPrivateDelegate", %"class.extensions::LanguageSettingsPrivateDelegate"* %0, i64 -1, i32 12, i32 2
  %3 = bitcast %class.PrefService** %2 to %"class.extensions::LanguageSettingsPrivateDelegate"*
  tail call void @_ZN10extensions31LanguageSettingsPrivateDelegateD2Ev(%"class.extensions::LanguageSettingsPrivateDelegate"* %3) #12
  %4 = bitcast %class.PrefService** %2 to i8*
  tail call void @_ZdlPv(i8* %4) #14
  ret void
}

; Function Attrs: nounwind ssp uwtable
define hidden void @_ZThn32_N10extensions31LanguageSettingsPrivateDelegateD0Ev(%"class.extensions::LanguageSettingsPrivateDelegate"*) unnamed_addr #0 align 2 {
  %2 = getelementptr inbounds %"class.extensions::LanguageSettingsPrivateDelegate", %"class.extensions::LanguageSettingsPrivateDelegate"* %0, i64 -1, i32 12, i32 1
  %3 = bitcast %"class.std::__1::map.65"* %2 to %"class.extensions::LanguageSettingsPrivateDelegate"*
  tail call void @_ZN10extensions31LanguageSettingsPrivateDelegateD2Ev(%"class.extensions::LanguageSettingsPrivateDelegate"* %3) #12
  %4 = bitcast %"class.std::__1::map.65"* %2 to i8*
  tail call void @_ZdlPv(i8* %4) #14
  ret void
}

; Function Attrs: nounwind ssp uwtable
define hidden nonnull %"class.extensions::LanguageSettingsPrivateDelegate"* @_ZN10extensions31LanguageSettingsPrivateDelegate6CreateEPN7content14BrowserContextE(%"class.content::BrowserContext"*) local_unnamed_addr #0 align 2 {
  %2 = tail call i8* @_Znwm(i64 168) #14
  %3 = bitcast i8* %2 to %"class.extensions::LanguageSettingsPrivateDelegate"*
  tail call void @_ZN10extensions31LanguageSettingsPrivateDelegateC2EPN7content14BrowserContextE(%"class.extensions::LanguageSettingsPrivateDelegate"* nonnull %3, %"class.content::BrowserContext"* %0)
  ret %"class.extensions::LanguageSettingsPrivateDelegate"* %3
}

; Function Attrs: nobuiltin nofree
declare noalias nonnull i8* @_Znwm(i64) local_unnamed_addr #5

; Function Attrs: nounwind ssp uwtable
define hidden void @_ZN10extensions31LanguageSettingsPrivateDelegate29GetHunspellDictionaryStatusesEv(%"class.std::__1::vector.350"* noalias sret, %"class.extensions::LanguageSettingsPrivateDelegate"*) unnamed_addr #0 align 2 {
  %3 = alloca %"class.logging::CheckError", align 8
  %4 = alloca %"class.logging::CheckError", align 8
  %5 = alloca %"class.logging::CheckError", align 8
  %6 = alloca %"class.logging::CheckError", align 8
  %7 = alloca %"struct.extensions::api::language_settings_private::SpellcheckDictionaryStatus", align 8
  %8 = getelementptr inbounds %"class.std::__1::vector.350", %"class.std::__1::vector.350"* %0, i64 0, i32 0, i32 1
  %9 = getelementptr inbounds %"class.std::__1::vector.350", %"class.std::__1::vector.350"* %0, i64 0, i32 0, i32 2, i32 0, i32 0
  %10 = bitcast %"class.std::__1::vector.350"* %0 to i8*
  tail call void @llvm.memset.p0i8.i64(i8* align 8 %10, i8 0, i64 24, i1 false) #12
  %11 = getelementptr inbounds %"class.extensions::LanguageSettingsPrivateDelegate", %"class.extensions::LanguageSettingsPrivateDelegate"* %1, i64 0, i32 5, i32 0, i32 0
  %12 = load %"class.base::WeakPtr"*, %"class.base::WeakPtr"** %11, align 8
  %13 = getelementptr inbounds %"class.extensions::LanguageSettingsPrivateDelegate", %"class.extensions::LanguageSettingsPrivateDelegate"* %1, i64 0, i32 5, i32 0, i32 1
  %14 = load %"class.base::WeakPtr"*, %"class.base::WeakPtr"** %13, align 8
  %15 = icmp eq %"class.base::WeakPtr"* %12, %14
  br i1 %15, label %24, label %16

16:                                               ; preds = %2
  %17 = getelementptr inbounds %"class.base::WeakPtr", %"class.base::WeakPtr"* %12, i64 0, i32 0, i32 0
  %18 = tail call zeroext i1 @_ZNK4base8internal13WeakReference7IsValidEv(%"class.base::internal::WeakReference"* %17) #12
  br i1 %18, label %19, label %24

19:                                               ; preds = %16
  %20 = getelementptr inbounds %"class.base::WeakPtr", %"class.base::WeakPtr"* %12, i64 0, i32 0, i32 1
  %21 = bitcast i64* %20 to %class.SpellcheckHunspellDictionary**
  %22 = load %class.SpellcheckHunspellDictionary*, %class.SpellcheckHunspellDictionary** %21, align 8
  %23 = icmp eq %class.SpellcheckHunspellDictionary* %22, null
  br i1 %23, label %24, label %28

24:                                               ; preds = %19, %16, %2
  %25 = getelementptr inbounds %"class.extensions::LanguageSettingsPrivateDelegate", %"class.extensions::LanguageSettingsPrivateDelegate"* %1, i64 0, i32 8
  %26 = load i8, i8* %25, align 8, !range !2
  %27 = icmp ne i8 %26, 0
  tail call void @_ZN10extensions31LanguageSettingsPrivateDelegate19RefreshDictionariesEbb(%"class.extensions::LanguageSettingsPrivateDelegate"* %1, i1 zeroext %27, i1 zeroext %27) #12
  br label %28

28:                                               ; preds = %19, %24
  %29 = load %"class.base::WeakPtr"*, %"class.base::WeakPtr"** %11, align 8
  %30 = load %"class.base::WeakPtr"*, %"class.base::WeakPtr"** %13, align 8
  %31 = icmp eq %"class.base::WeakPtr"* %29, %30
  br i1 %31, label %49, label %32

32:                                               ; preds = %28
  %33 = bitcast %"struct.extensions::api::language_settings_private::SpellcheckDictionaryStatus"* %7 to i8*
  %34 = bitcast %"class.logging::CheckError"* %6 to i8*
  %35 = getelementptr inbounds %"struct.extensions::api::language_settings_private::SpellcheckDictionaryStatus", %"struct.extensions::api::language_settings_private::SpellcheckDictionaryStatus"* %7, i64 0, i32 0
  %36 = bitcast %"struct.extensions::api::language_settings_private::SpellcheckDictionaryStatus"* %7 to %"struct.std::__1::basic_string<char, std::__1::char_traits<char>, std::__1::allocator<char> >::__short"*
  %37 = getelementptr inbounds %"struct.std::__1::basic_string<char, std::__1::char_traits<char>, std::__1::allocator<char> >::__short", %"struct.std::__1::basic_string<char, std::__1::char_traits<char>, std::__1::allocator<char> >::__short"* %36, i64 0, i32 1, i32 0
  %38 = bitcast %"class.logging::CheckError"* %5 to i8*
  %39 = getelementptr inbounds %"struct.extensions::api::language_settings_private::SpellcheckDictionaryStatus", %"struct.extensions::api::language_settings_private::SpellcheckDictionaryStatus"* %7, i64 0, i32 1
  %40 = bitcast %"class.logging::CheckError"* %4 to i8*
  %41 = getelementptr inbounds %"struct.extensions::api::language_settings_private::SpellcheckDictionaryStatus", %"struct.extensions::api::language_settings_private::SpellcheckDictionaryStatus"* %7, i64 0, i32 2
  %42 = getelementptr inbounds %"class.std::__1::unique_ptr.352", %"class.std::__1::unique_ptr.352"* %41, i64 0, i32 0, i32 0, i32 0
  %43 = bitcast %"class.std::__1::unique_ptr.352"* %41 to i64*
  %44 = bitcast %"class.logging::CheckError"* %3 to i8*
  %45 = getelementptr inbounds %"struct.extensions::api::language_settings_private::SpellcheckDictionaryStatus", %"struct.extensions::api::language_settings_private::SpellcheckDictionaryStatus"* %7, i64 0, i32 3
  %46 = getelementptr inbounds %"class.std::__1::unique_ptr.352", %"class.std::__1::unique_ptr.352"* %45, i64 0, i32 0, i32 0, i32 0
  %47 = bitcast %"class.std::__1::unique_ptr.352"* %45 to i64*
  %48 = bitcast %"struct.extensions::api::language_settings_private::SpellcheckDictionaryStatus"** %8 to i64*
  br label %50

49:                                               ; preds = %157, %28
  ret void

50:                                               ; preds = %32, %157
  %51 = phi %"class.base::WeakPtr"* [ %29, %32 ], [ %158, %157 ]
  %52 = getelementptr inbounds %"class.base::WeakPtr", %"class.base::WeakPtr"* %51, i64 0, i32 0, i32 0
  %53 = call zeroext i1 @_ZNK4base8internal13WeakReference7IsValidEv(%"class.base::internal::WeakReference"* %52) #12
  br i1 %53, label %54, label %157

54:                                               ; preds = %50
  %55 = getelementptr inbounds %"class.base::WeakPtr", %"class.base::WeakPtr"* %51, i64 0, i32 0, i32 1
  %56 = bitcast i64* %55 to %class.SpellcheckHunspellDictionary**
  %57 = load %class.SpellcheckHunspellDictionary*, %class.SpellcheckHunspellDictionary** %56, align 8
  %58 = icmp eq %class.SpellcheckHunspellDictionary* %57, null
  br i1 %58, label %157, label %59

59:                                               ; preds = %54
  call void @llvm.lifetime.start.p0i8(i64 48, i8* nonnull %33) #12
  call void @llvm.memset.p0i8.i64(i8* nonnull align 8 %33, i8 -86, i64 48, i1 false)
  call void @_ZN10extensions3api25language_settings_private26SpellcheckDictionaryStatusC1Ev(%"struct.extensions::api::language_settings_private::SpellcheckDictionaryStatus"* nonnull %7) #12
  %60 = call zeroext i1 @_ZNK4base8internal13WeakReference7IsValidEv(%"class.base::internal::WeakReference"* %52) #12
  br i1 %60, label %63, label %61

61:                                               ; preds = %59
  call void @llvm.lifetime.start.p0i8(i64 8, i8* nonnull %34) #12
  call void @_ZN7logging10CheckError5CheckEPKciS2_(%"class.logging::CheckError"* nonnull sret %6, i8* getelementptr inbounds ([29 x i8], [29 x i8]* @.str.1, i64 0, i64 0), i32 255, i8* getelementptr inbounds ([15 x i8], [15 x i8]* @.str.2, i64 0, i64 0)) #12
  %62 = call dereferenceable(160) %"class.std::__1::basic_ostream"* @_ZN7logging10CheckError6streamEv(%"class.logging::CheckError"* nonnull %6) #12
  call void @_ZN7logging10CheckErrorD1Ev(%"class.logging::CheckError"* nonnull %6) #12
  call void @llvm.lifetime.end.p0i8(i64 8, i8* nonnull %34) #12
  br label %63

63:                                               ; preds = %61, %59
  %64 = call zeroext i1 @_ZNK4base8internal13WeakReference7IsValidEv(%"class.base::internal::WeakReference"* %52) #12
  br i1 %64, label %65, label %67

65:                                               ; preds = %63
  %66 = load %class.SpellcheckHunspellDictionary*, %class.SpellcheckHunspellDictionary** %56, align 8
  br label %67

67:                                               ; preds = %63, %65
  %68 = phi %class.SpellcheckHunspellDictionary* [ %66, %65 ], [ null, %63 ]
  %69 = call dereferenceable(24) %"class.std::__1::basic_string"* @_ZNK28SpellcheckHunspellDictionary11GetLanguageEv(%class.SpellcheckHunspellDictionary* %68) #12
  %70 = icmp eq %"class.std::__1::basic_string"* %35, %69
  br i1 %70, label %97, label %71

71:                                               ; preds = %67
  %72 = load i8, i8* %37, align 1
  %73 = icmp slt i8 %72, 0
  %74 = bitcast %"class.std::__1::basic_string"* %69 to %"struct.std::__1::basic_string<char, std::__1::char_traits<char>, std::__1::allocator<char> >::__short"*
  %75 = getelementptr inbounds %"struct.std::__1::basic_string<char, std::__1::char_traits<char>, std::__1::allocator<char> >::__short", %"struct.std::__1::basic_string<char, std::__1::char_traits<char>, std::__1::allocator<char> >::__short"* %74, i64 0, i32 1, i32 0
  %76 = load i8, i8* %75, align 1
  %77 = icmp slt i8 %76, 0
  br i1 %73, label %87, label %78

78:                                               ; preds = %71
  br i1 %77, label %81, label %79

79:                                               ; preds = %78
  %80 = bitcast %"class.std::__1::basic_string"* %69 to i8*
  call void @llvm.memcpy.p0i8.p0i8.i64(i8* nonnull align 8 %33, i8* align 8 %80, i64 24, i1 false) #12
  br label %97

81:                                               ; preds = %78
  %82 = getelementptr inbounds %"class.std::__1::basic_string", %"class.std::__1::basic_string"* %69, i64 0, i32 0, i32 0, i32 0, i32 0, i32 0, i32 0
  %83 = load i8*, i8** %82, align 8
  %84 = getelementptr inbounds %"class.std::__1::basic_string", %"class.std::__1::basic_string"* %69, i64 0, i32 0, i32 0, i32 0, i32 0, i32 0, i32 1
  %85 = load i64, i64* %84, align 8
  %86 = call dereferenceable(24) %"class.std::__1::basic_string"* @_ZNSt3__112basic_stringIcNS_11char_traitsIcEENS_9allocatorIcEEE17__assign_no_aliasILb1EEERS5_PKcm(%"class.std::__1::basic_string"* nonnull %35, i8* %83, i64 %85) #12
  br label %97

87:                                               ; preds = %71
  %88 = getelementptr inbounds %"class.std::__1::basic_string", %"class.std::__1::basic_string"* %69, i64 0, i32 0, i32 0, i32 0, i32 0, i32 0, i32 0
  %89 = load i8*, i8** %88, align 8
  %90 = getelementptr inbounds %"class.std::__1::basic_string", %"class.std::__1::basic_string"* %69, i64 0, i32 0, i32 0, i32 0, i32 0, i32 0, i32 1
  %91 = load i64, i64* %90, align 8
  %92 = bitcast %"class.std::__1::basic_string"* %69 to i8*
  %93 = zext i8 %76 to i64
  %94 = select i1 %77, i8* %89, i8* %92
  %95 = select i1 %77, i64 %91, i64 %93
  %96 = call dereferenceable(24) %"class.std::__1::basic_string"* @_ZNSt3__112basic_stringIcNS_11char_traitsIcEENS_9allocatorIcEEE17__assign_no_aliasILb0EEERS5_PKcm(%"class.std::__1::basic_string"* nonnull %35, i8* %94, i64 %95) #12
  br label %97

97:                                               ; preds = %67, %79, %81, %87
  %98 = call zeroext i1 @_ZNK4base8internal13WeakReference7IsValidEv(%"class.base::internal::WeakReference"* %52) #12
  br i1 %98, label %101, label %99

99:                                               ; preds = %97
  call void @llvm.lifetime.start.p0i8(i64 8, i8* nonnull %38) #12
  call void @_ZN7logging10CheckError5CheckEPKciS2_(%"class.logging::CheckError"* nonnull sret %5, i8* getelementptr inbounds ([29 x i8], [29 x i8]* @.str.1, i64 0, i64 0), i32 255, i8* getelementptr inbounds ([15 x i8], [15 x i8]* @.str.2, i64 0, i64 0)) #12
  %100 = call dereferenceable(160) %"class.std::__1::basic_ostream"* @_ZN7logging10CheckError6streamEv(%"class.logging::CheckError"* nonnull %5) #12
  call void @_ZN7logging10CheckErrorD1Ev(%"class.logging::CheckError"* nonnull %5) #12
  call void @llvm.lifetime.end.p0i8(i64 8, i8* nonnull %38) #12
  br label %101

101:                                              ; preds = %99, %97
  %102 = call zeroext i1 @_ZNK4base8internal13WeakReference7IsValidEv(%"class.base::internal::WeakReference"* %52) #12
  br i1 %102, label %103, label %106

103:                                              ; preds = %101
  %104 = load %class.SpellcheckHunspellDictionary*, %class.SpellcheckHunspellDictionary** %56, align 8
  %105 = bitcast %class.SpellcheckHunspellDictionary* %104 to i1 (%class.SpellcheckHunspellDictionary*)***
  br label %106

106:                                              ; preds = %101, %103
  %107 = phi i1 (%class.SpellcheckHunspellDictionary*)*** [ %105, %103 ], [ null, %101 ]
  %108 = phi %class.SpellcheckHunspellDictionary* [ %104, %103 ], [ null, %101 ]
  %109 = load i1 (%class.SpellcheckHunspellDictionary*)**, i1 (%class.SpellcheckHunspellDictionary*)*** %107, align 8
  %110 = getelementptr inbounds i1 (%class.SpellcheckHunspellDictionary*)*, i1 (%class.SpellcheckHunspellDictionary*)** %109, i64 3
  %111 = load i1 (%class.SpellcheckHunspellDictionary*)*, i1 (%class.SpellcheckHunspellDictionary*)** %110, align 8
  %112 = call zeroext i1 %111(%class.SpellcheckHunspellDictionary* %108) #12
  %113 = zext i1 %112 to i8
  store i8 %113, i8* %39, align 8
  br i1 %112, label %148, label %114

114:                                              ; preds = %106
  %115 = call zeroext i1 @_ZNK4base8internal13WeakReference7IsValidEv(%"class.base::internal::WeakReference"* %52) #12
  br i1 %115, label %118, label %116

116:                                              ; preds = %114
  call void @llvm.lifetime.start.p0i8(i64 8, i8* nonnull %40) #12
  call void @_ZN7logging10CheckError5CheckEPKciS2_(%"class.logging::CheckError"* nonnull sret %4, i8* getelementptr inbounds ([29 x i8], [29 x i8]* @.str.1, i64 0, i64 0), i32 255, i8* getelementptr inbounds ([15 x i8], [15 x i8]* @.str.2, i64 0, i64 0)) #12
  %117 = call dereferenceable(160) %"class.std::__1::basic_ostream"* @_ZN7logging10CheckError6streamEv(%"class.logging::CheckError"* nonnull %4) #12
  call void @_ZN7logging10CheckErrorD1Ev(%"class.logging::CheckError"* nonnull %4) #12
  call void @llvm.lifetime.end.p0i8(i64 8, i8* nonnull %40) #12
  br label %118

118:                                              ; preds = %116, %114
  %119 = call zeroext i1 @_ZNK4base8internal13WeakReference7IsValidEv(%"class.base::internal::WeakReference"* %52) #12
  br i1 %119, label %120, label %122

120:                                              ; preds = %118
  %121 = load %class.SpellcheckHunspellDictionary*, %class.SpellcheckHunspellDictionary** %56, align 8
  br label %122

122:                                              ; preds = %118, %120
  %123 = phi %class.SpellcheckHunspellDictionary* [ %121, %120 ], [ null, %118 ]
  %124 = call zeroext i1 @_ZN28SpellcheckHunspellDictionary20IsDownloadInProgressEv(%class.SpellcheckHunspellDictionary* %123) #12
  br i1 %124, label %125, label %131

125:                                              ; preds = %122
  %126 = call i8* @_Znwm(i64 1) #14
  store i8 1, i8* %126, align 1
  %127 = ptrtoint i8* %126 to i64
  %128 = load i8*, i8** %42, align 8
  store i64 %127, i64* %43, align 8
  %129 = icmp eq i8* %128, null
  br i1 %129, label %131, label %130

130:                                              ; preds = %125
  call void @_ZdlPv(i8* nonnull %128) #14
  br label %131

131:                                              ; preds = %125, %130, %122
  %132 = call zeroext i1 @_ZNK4base8internal13WeakReference7IsValidEv(%"class.base::internal::WeakReference"* %52) #12
  br i1 %132, label %135, label %133

133:                                              ; preds = %131
  call void @llvm.lifetime.start.p0i8(i64 8, i8* nonnull %44) #12
  call void @_ZN7logging10CheckError5CheckEPKciS2_(%"class.logging::CheckError"* nonnull sret %3, i8* getelementptr inbounds ([29 x i8], [29 x i8]* @.str.1, i64 0, i64 0), i32 255, i8* getelementptr inbounds ([15 x i8], [15 x i8]* @.str.2, i64 0, i64 0)) #12
  %134 = call dereferenceable(160) %"class.std::__1::basic_ostream"* @_ZN7logging10CheckError6streamEv(%"class.logging::CheckError"* nonnull %3) #12
  call void @_ZN7logging10CheckErrorD1Ev(%"class.logging::CheckError"* nonnull %3) #12
  call void @llvm.lifetime.end.p0i8(i64 8, i8* nonnull %44) #12
  br label %135

135:                                              ; preds = %133, %131
  %136 = call zeroext i1 @_ZNK4base8internal13WeakReference7IsValidEv(%"class.base::internal::WeakReference"* %52) #12
  br i1 %136, label %137, label %139

137:                                              ; preds = %135
  %138 = load %class.SpellcheckHunspellDictionary*, %class.SpellcheckHunspellDictionary** %56, align 8
  br label %139

139:                                              ; preds = %135, %137
  %140 = phi %class.SpellcheckHunspellDictionary* [ %138, %137 ], [ null, %135 ]
  %141 = call zeroext i1 @_ZN28SpellcheckHunspellDictionary17IsDownloadFailureEv(%class.SpellcheckHunspellDictionary* %140) #12
  br i1 %141, label %142, label %148

142:                                              ; preds = %139
  %143 = call i8* @_Znwm(i64 1) #14
  store i8 1, i8* %143, align 1
  %144 = ptrtoint i8* %143 to i64
  %145 = load i8*, i8** %46, align 8
  store i64 %144, i64* %47, align 8
  %146 = icmp eq i8* %145, null
  br i1 %146, label %148, label %147

147:                                              ; preds = %142
  call void @_ZdlPv(i8* nonnull %145) #14
  br label %148

148:                                              ; preds = %142, %147, %139, %106
  %149 = load %"struct.extensions::api::language_settings_private::SpellcheckDictionaryStatus"*, %"struct.extensions::api::language_settings_private::SpellcheckDictionaryStatus"** %8, align 8
  %150 = load %"struct.extensions::api::language_settings_private::SpellcheckDictionaryStatus"*, %"struct.extensions::api::language_settings_private::SpellcheckDictionaryStatus"** %9, align 8
  %151 = icmp ult %"struct.extensions::api::language_settings_private::SpellcheckDictionaryStatus"* %149, %150
  br i1 %151, label %152, label %155

152:                                              ; preds = %148
  call void @_ZN10extensions3api25language_settings_private26SpellcheckDictionaryStatusC1EOS2_(%"struct.extensions::api::language_settings_private::SpellcheckDictionaryStatus"* %149, %"struct.extensions::api::language_settings_private::SpellcheckDictionaryStatus"* nonnull dereferenceable(48) %7) #12
  %153 = getelementptr inbounds %"struct.extensions::api::language_settings_private::SpellcheckDictionaryStatus", %"struct.extensions::api::language_settings_private::SpellcheckDictionaryStatus"* %149, i64 1
  %154 = ptrtoint %"struct.extensions::api::language_settings_private::SpellcheckDictionaryStatus"* %153 to i64
  store i64 %154, i64* %48, align 8
  br label %156

155:                                              ; preds = %148
  call void @_ZNSt3__16vectorIN10extensions3api25language_settings_private26SpellcheckDictionaryStatusENS_9allocatorIS4_EEE21__push_back_slow_pathIS4_EEvOT_(%"class.std::__1::vector.350"* %0, %"struct.extensions::api::language_settings_private::SpellcheckDictionaryStatus"* nonnull dereferenceable(48) %7) #12
  br label %156

156:                                              ; preds = %152, %155
  call void @_ZN10extensions3api25language_settings_private26SpellcheckDictionaryStatusD1Ev(%"struct.extensions::api::language_settings_private::SpellcheckDictionaryStatus"* nonnull %7) #12
  call void @llvm.lifetime.end.p0i8(i64 48, i8* nonnull %33) #12
  br label %157

157:                                              ; preds = %54, %50, %156
  %158 = getelementptr inbounds %"class.base::WeakPtr", %"class.base::WeakPtr"* %51, i64 1
  %159 = icmp eq %"class.base::WeakPtr"* %158, %30
  br i1 %159, label %49, label %50
}

; Function Attrs: nounwind ssp uwtable
define hidden dereferenceable(24) %"class.std::__1::vector"* @_ZN10extensions31LanguageSettingsPrivateDelegate23GetHunspellDictionariesEv(%"class.extensions::LanguageSettingsPrivateDelegate"*) local_unnamed_addr #0 align 2 {
  %2 = getelementptr inbounds %"class.extensions::LanguageSettingsPrivateDelegate", %"class.extensions::LanguageSettingsPrivateDelegate"* %0, i64 0, i32 5
  %3 = getelementptr inbounds %"class.std::__1::vector", %"class.std::__1::vector"* %2, i64 0, i32 0, i32 0
  %4 = load %"class.base::WeakPtr"*, %"class.base::WeakPtr"** %3, align 8
  %5 = getelementptr inbounds %"class.extensions::LanguageSettingsPrivateDelegate", %"class.extensions::LanguageSettingsPrivateDelegate"* %0, i64 0, i32 5, i32 0, i32 1
  %6 = load %"class.base::WeakPtr"*, %"class.base::WeakPtr"** %5, align 8
  %7 = icmp eq %"class.base::WeakPtr"* %4, %6
  br i1 %7, label %16, label %8

8:                                                ; preds = %1
  %9 = getelementptr inbounds %"class.base::WeakPtr", %"class.base::WeakPtr"* %4, i64 0, i32 0, i32 0
  %10 = tail call zeroext i1 @_ZNK4base8internal13WeakReference7IsValidEv(%"class.base::internal::WeakReference"* %9) #12
  br i1 %10, label %11, label %16

11:                                               ; preds = %8
  %12 = getelementptr inbounds %"class.base::WeakPtr", %"class.base::WeakPtr"* %4, i64 0, i32 0, i32 1
  %13 = bitcast i64* %12 to %class.SpellcheckHunspellDictionary**
  %14 = load %class.SpellcheckHunspellDictionary*, %class.SpellcheckHunspellDictionary** %13, align 8
  %15 = icmp eq %class.SpellcheckHunspellDictionary* %14, null
  br i1 %15, label %16, label %20

16:                                               ; preds = %11, %8, %1
  %17 = getelementptr inbounds %"class.extensions::LanguageSettingsPrivateDelegate", %"class.extensions::LanguageSettingsPrivateDelegate"* %0, i64 0, i32 8
  %18 = load i8, i8* %17, align 8, !range !2
  %19 = icmp ne i8 %18, 0
  tail call void @_ZN10extensions31LanguageSettingsPrivateDelegate19RefreshDictionariesEbb(%"class.extensions::LanguageSettingsPrivateDelegate"* %0, i1 zeroext %19, i1 zeroext %19)
  br label %20

20:                                               ; preds = %11, %16
  ret %"class.std::__1::vector"* %2
}

; Function Attrs: argmemonly nounwind
declare void @llvm.memset.p0i8.i64(i8* nocapture writeonly, i8, i64, i1 immarg) #2

declare void @_ZN10extensions3api25language_settings_private26SpellcheckDictionaryStatusC1Ev(%"struct.extensions::api::language_settings_private::SpellcheckDictionaryStatus"*) unnamed_addr #1

declare dereferenceable(24) %"class.std::__1::basic_string"* @_ZNK28SpellcheckHunspellDictionary11GetLanguageEv(%class.SpellcheckHunspellDictionary*) local_unnamed_addr #1

declare zeroext i1 @_ZN28SpellcheckHunspellDictionary20IsDownloadInProgressEv(%class.SpellcheckHunspellDictionary*) local_unnamed_addr #1

declare zeroext i1 @_ZN28SpellcheckHunspellDictionary17IsDownloadFailureEv(%class.SpellcheckHunspellDictionary*) local_unnamed_addr #1

; Function Attrs: nounwind
declare void @_ZN10extensions3api25language_settings_private26SpellcheckDictionaryStatusD1Ev(%"struct.extensions::api::language_settings_private::SpellcheckDictionaryStatus"*) unnamed_addr #3

; Function Attrs: nounwind ssp uwtable
define hidden void @_ZN10extensions31LanguageSettingsPrivateDelegate8ShutdownEv(%"class.extensions::LanguageSettingsPrivateDelegate"*) unnamed_addr #0 align 2 {
  %2 = getelementptr inbounds %"class.extensions::LanguageSettingsPrivateDelegate", %"class.extensions::LanguageSettingsPrivateDelegate"* %0, i64 0, i32 7
  %3 = load %"class.content::BrowserContext"*, %"class.content::BrowserContext"** %2, align 8
  %4 = tail call %"class.extensions::EventRouter"* @_ZN10extensions11EventRouter3GetEPN7content14BrowserContextE(%"class.content::BrowserContext"* %3) #12
  %5 = icmp eq %"class.extensions::EventRouter"* %4, null
  br i1 %5, label %8, label %6

6:                                                ; preds = %1
  %7 = getelementptr inbounds %"class.extensions::LanguageSettingsPrivateDelegate", %"class.extensions::LanguageSettingsPrivateDelegate"* %0, i64 0, i32 1
  tail call void @_ZN10extensions11EventRouter18UnregisterObserverEPNS0_8ObserverE(%"class.extensions::EventRouter"* nonnull %4, %"class.extensions::EventRouter::Observer"* %7) #12
  br label %8

8:                                                ; preds = %1, %6
  %9 = getelementptr inbounds %"class.extensions::LanguageSettingsPrivateDelegate", %"class.extensions::LanguageSettingsPrivateDelegate"* %0, i64 0, i32 8
  %10 = load i8, i8* %9, align 8, !range !2
  %11 = icmp eq i8 %10, 0
  br i1 %11, label %13, label %12

12:                                               ; preds = %8
  tail call void @_ZN10extensions31LanguageSettingsPrivateDelegate25RemoveDictionaryObserversEv(%"class.extensions::LanguageSettingsPrivateDelegate"* %0)
  store i8 0, i8* %9, align 8
  br label %13

13:                                               ; preds = %8, %12
  ret void
}

declare void @_ZN10extensions11EventRouter18UnregisterObserverEPNS0_8ObserverE(%"class.extensions::EventRouter"*, %"class.extensions::EventRouter::Observer"*) local_unnamed_addr #1

; Function Attrs: nounwind ssp uwtable
define hidden void @_ZN10extensions31LanguageSettingsPrivateDelegate25RemoveDictionaryObserversEv(%"class.extensions::LanguageSettingsPrivateDelegate"*) local_unnamed_addr #0 align 2 {
  %2 = alloca %"class.logging::CheckError", align 8
  %3 = getelementptr inbounds %"class.extensions::LanguageSettingsPrivateDelegate", %"class.extensions::LanguageSettingsPrivateDelegate"* %0, i64 0, i32 5, i32 0, i32 0
  %4 = load %"class.base::WeakPtr"*, %"class.base::WeakPtr"** %3, align 8
  %5 = getelementptr inbounds %"class.extensions::LanguageSettingsPrivateDelegate", %"class.extensions::LanguageSettingsPrivateDelegate"* %0, i64 0, i32 5, i32 0, i32 1
  %6 = load %"class.base::WeakPtr"*, %"class.base::WeakPtr"** %5, align 8
  %7 = icmp eq %"class.base::WeakPtr"* %4, %6
  br i1 %7, label %11, label %8

8:                                                ; preds = %1
  %9 = bitcast %"class.logging::CheckError"* %2 to i8*
  %10 = getelementptr inbounds %"class.extensions::LanguageSettingsPrivateDelegate", %"class.extensions::LanguageSettingsPrivateDelegate"* %0, i64 0, i32 3
  br label %12

11:                                               ; preds = %31, %1
  ret void

12:                                               ; preds = %8, %31
  %13 = phi %"class.base::WeakPtr"* [ %4, %8 ], [ %32, %31 ]
  %14 = getelementptr inbounds %"class.base::WeakPtr", %"class.base::WeakPtr"* %13, i64 0, i32 0, i32 0
  %15 = call zeroext i1 @_ZNK4base8internal13WeakReference7IsValidEv(%"class.base::internal::WeakReference"* %14) #12
  br i1 %15, label %16, label %31

16:                                               ; preds = %12
  %17 = getelementptr inbounds %"class.base::WeakPtr", %"class.base::WeakPtr"* %13, i64 0, i32 0, i32 1
  %18 = bitcast i64* %17 to %class.SpellcheckHunspellDictionary**
  %19 = load %class.SpellcheckHunspellDictionary*, %class.SpellcheckHunspellDictionary** %18, align 8
  %20 = icmp eq %class.SpellcheckHunspellDictionary* %19, null
  br i1 %20, label %31, label %21

21:                                               ; preds = %16
  %22 = call zeroext i1 @_ZNK4base8internal13WeakReference7IsValidEv(%"class.base::internal::WeakReference"* %14) #12
  br i1 %22, label %25, label %23

23:                                               ; preds = %21
  call void @llvm.lifetime.start.p0i8(i64 8, i8* nonnull %9) #12
  call void @_ZN7logging10CheckError5CheckEPKciS2_(%"class.logging::CheckError"* nonnull sret %2, i8* getelementptr inbounds ([29 x i8], [29 x i8]* @.str.1, i64 0, i64 0), i32 255, i8* getelementptr inbounds ([15 x i8], [15 x i8]* @.str.2, i64 0, i64 0)) #12
  %24 = call dereferenceable(160) %"class.std::__1::basic_ostream"* @_ZN7logging10CheckError6streamEv(%"class.logging::CheckError"* nonnull %2) #12
  call void @_ZN7logging10CheckErrorD1Ev(%"class.logging::CheckError"* nonnull %2) #12
  call void @llvm.lifetime.end.p0i8(i64 8, i8* nonnull %9) #12
  br label %25

25:                                               ; preds = %23, %21
  %26 = call zeroext i1 @_ZNK4base8internal13WeakReference7IsValidEv(%"class.base::internal::WeakReference"* %14) #12
  br i1 %26, label %27, label %29

27:                                               ; preds = %25
  %28 = load %class.SpellcheckHunspellDictionary*, %class.SpellcheckHunspellDictionary** %18, align 8
  br label %29

29:                                               ; preds = %25, %27
  %30 = phi %class.SpellcheckHunspellDictionary* [ %28, %27 ], [ null, %25 ]
  call void @_ZN28SpellcheckHunspellDictionary14RemoveObserverEPNS_8ObserverE(%class.SpellcheckHunspellDictionary* %30, %"class.SpellcheckHunspellDictionary::Observer"* %10) #12
  br label %31

31:                                               ; preds = %16, %12, %29
  %32 = getelementptr inbounds %"class.base::WeakPtr", %"class.base::WeakPtr"* %13, i64 1
  %33 = icmp eq %"class.base::WeakPtr"* %32, %6
  br i1 %33, label %11, label %12
}

; Function Attrs: nounwind ssp uwtable
define hidden void @_ZN10extensions31LanguageSettingsPrivateDelegate15OnListenerAddedERKNS_17EventListenerInfoE(%"class.extensions::LanguageSettingsPrivateDelegate"*, %"struct.extensions::EventListenerInfo"* dereferenceable(192)) unnamed_addr #0 align 2 {
  %3 = getelementptr inbounds %"struct.extensions::EventListenerInfo", %"struct.extensions::EventListenerInfo"* %1, i64 0, i32 0
  %4 = tail call i64 @strlen(i8* getelementptr inbounds ([0 x i8], [0 x i8]* @_ZN10extensions3api25language_settings_private31OnSpellcheckDictionariesChanged10kEventNameE, i64 0, i64 0)) #12
  %5 = bitcast %"struct.extensions::EventListenerInfo"* %1 to %"struct.std::__1::basic_string<char, std::__1::char_traits<char>, std::__1::allocator<char> >::__short"*
  %6 = getelementptr inbounds %"struct.std::__1::basic_string<char, std::__1::char_traits<char>, std::__1::allocator<char> >::__short", %"struct.std::__1::basic_string<char, std::__1::char_traits<char>, std::__1::allocator<char> >::__short"* %5, i64 0, i32 1, i32 0
  %7 = load i8, i8* %6, align 1
  %8 = icmp slt i8 %7, 0
  %9 = getelementptr inbounds %"struct.extensions::EventListenerInfo", %"struct.extensions::EventListenerInfo"* %1, i64 0, i32 0, i32 0, i32 0, i32 0, i32 0, i32 0, i32 1
  %10 = load i64, i64* %9, align 8
  %11 = zext i8 %7 to i64
  %12 = select i1 %8, i64 %10, i64 %11
  %13 = icmp eq i64 %4, %12
  br i1 %13, label %14, label %21

14:                                               ; preds = %2
  %15 = tail call i32 @_ZNKSt3__112basic_stringIcNS_11char_traitsIcEENS_9allocatorIcEEE7compareEmmPKcm(%"class.std::__1::basic_string"* %3, i64 0, i64 -1, i8* getelementptr inbounds ([0 x i8], [0 x i8]* @_ZN10extensions3api25language_settings_private31OnSpellcheckDictionariesChanged10kEventNameE, i64 0, i64 0), i64 %4) #12
  %16 = icmp eq i32 %15, 0
  br i1 %16, label %32, label %17

17:                                               ; preds = %14
  %18 = load i8, i8* %6, align 1
  %19 = load i64, i64* %9, align 8
  %20 = zext i8 %18 to i64
  br label %21

21:                                               ; preds = %17, %2
  %22 = phi i64 [ %20, %17 ], [ %11, %2 ]
  %23 = phi i64 [ %19, %17 ], [ %10, %2 ]
  %24 = phi i8 [ %18, %17 ], [ %7, %2 ]
  %25 = tail call i64 @strlen(i8* getelementptr inbounds ([0 x i8], [0 x i8]* @_ZN10extensions3api25language_settings_private25OnCustomDictionaryChanged10kEventNameE, i64 0, i64 0)) #12
  %26 = icmp slt i8 %24, 0
  %27 = select i1 %26, i64 %23, i64 %22
  %28 = icmp eq i64 %25, %27
  br i1 %28, label %29, label %33

29:                                               ; preds = %21
  %30 = tail call i32 @_ZNKSt3__112basic_stringIcNS_11char_traitsIcEENS_9allocatorIcEEE7compareEmmPKcm(%"class.std::__1::basic_string"* %3, i64 0, i64 -1, i8* getelementptr inbounds ([0 x i8], [0 x i8]* @_ZN10extensions3api25language_settings_private25OnCustomDictionaryChanged10kEventNameE, i64 0, i64 0), i64 %25) #12
  %31 = icmp eq i32 %30, 0
  br i1 %31, label %32, label %33

32:                                               ; preds = %29, %14
  tail call void @_ZN10extensions31LanguageSettingsPrivateDelegate40StartOrStopListeningForSpellcheckChangesEv(%"class.extensions::LanguageSettingsPrivateDelegate"* %0)
  br label %33

33:                                               ; preds = %21, %32, %29
  ret void
}

; Function Attrs: nounwind ssp uwtable
define hidden void @_ZThn8_N10extensions31LanguageSettingsPrivateDelegate15OnListenerAddedERKNS_17EventListenerInfoE(%"class.extensions::LanguageSettingsPrivateDelegate"*, %"struct.extensions::EventListenerInfo"* dereferenceable(192)) unnamed_addr #0 align 2 {
  %3 = getelementptr inbounds %"class.extensions::LanguageSettingsPrivateDelegate", %"class.extensions::LanguageSettingsPrivateDelegate"* %0, i64 -1, i32 12, i32 2
  %4 = bitcast %class.PrefService** %3 to %"class.extensions::LanguageSettingsPrivateDelegate"*
  tail call void @_ZN10extensions31LanguageSettingsPrivateDelegate15OnListenerAddedERKNS_17EventListenerInfoE(%"class.extensions::LanguageSettingsPrivateDelegate"* %4, %"struct.extensions::EventListenerInfo"* dereferenceable(192) %1)
  ret void
}

; Function Attrs: nounwind ssp uwtable
define hidden void @_ZN10extensions31LanguageSettingsPrivateDelegate17OnListenerRemovedERKNS_17EventListenerInfoE(%"class.extensions::LanguageSettingsPrivateDelegate"*, %"struct.extensions::EventListenerInfo"* nocapture readnone dereferenceable(192)) unnamed_addr #0 align 2 {
  tail call void @_ZN10extensions31LanguageSettingsPrivateDelegate40StartOrStopListeningForSpellcheckChangesEv(%"class.extensions::LanguageSettingsPrivateDelegate"* %0)
  ret void
}

; Function Attrs: nounwind ssp uwtable
define hidden void @_ZThn8_N10extensions31LanguageSettingsPrivateDelegate17OnListenerRemovedERKNS_17EventListenerInfoE(%"class.extensions::LanguageSettingsPrivateDelegate"*, %"struct.extensions::EventListenerInfo"* nocapture readnone dereferenceable(192)) unnamed_addr #0 align 2 {
  %3 = getelementptr inbounds %"class.extensions::LanguageSettingsPrivateDelegate", %"class.extensions::LanguageSettingsPrivateDelegate"* %0, i64 -1, i32 12, i32 2
  %4 = bitcast %class.PrefService** %3 to %"class.extensions::LanguageSettingsPrivateDelegate"*
  tail call void @_ZN10extensions31LanguageSettingsPrivateDelegate40StartOrStopListeningForSpellcheckChangesEv(%"class.extensions::LanguageSettingsPrivateDelegate"* %4) #12
  ret void
}

; Function Attrs: nounwind ssp uwtable
define hidden void @_ZN10extensions31LanguageSettingsPrivateDelegate7ObserveEiRKN7content18NotificationSourceERKNS1_19NotificationDetailsE(%"class.extensions::LanguageSettingsPrivateDelegate"*, i32, %"class.content::NotificationSource"* nocapture readnone dereferenceable(8), %"class.content::NotificationDetails"* nocapture readnone) unnamed_addr #0 align 2 {
  %5 = getelementptr inbounds %"class.extensions::LanguageSettingsPrivateDelegate", %"class.extensions::LanguageSettingsPrivateDelegate"* %0, i64 0, i32 10
  store i8 1, i8* %5, align 2
  tail call void @_ZN10extensions31LanguageSettingsPrivateDelegate40StartOrStopListeningForSpellcheckChangesEv(%"class.extensions::LanguageSettingsPrivateDelegate"* %0)
  ret void
}

; Function Attrs: nounwind ssp uwtable
define hidden void @_ZThn32_N10extensions31LanguageSettingsPrivateDelegate7ObserveEiRKN7content18NotificationSourceERKNS1_19NotificationDetailsE(%"class.extensions::LanguageSettingsPrivateDelegate"*, i32, %"class.content::NotificationSource"* nocapture readnone dereferenceable(8), %"class.content::NotificationDetails"* nocapture readnone) unnamed_addr #0 align 2 {
  %5 = getelementptr inbounds %"class.extensions::LanguageSettingsPrivateDelegate", %"class.extensions::LanguageSettingsPrivateDelegate"* %0, i64 -1, i32 12, i32 1
  %6 = bitcast %"class.std::__1::map.65"* %5 to %"class.extensions::LanguageSettingsPrivateDelegate"*
  %7 = getelementptr inbounds %"class.extensions::LanguageSettingsPrivateDelegate", %"class.extensions::LanguageSettingsPrivateDelegate"* %6, i64 0, i32 10
  store i8 1, i8* %7, align 2
  tail call void @_ZN10extensions31LanguageSettingsPrivateDelegate40StartOrStopListeningForSpellcheckChangesEv(%"class.extensions::LanguageSettingsPrivateDelegate"* %6) #12
  ret void
}

; Function Attrs: nounwind ssp uwtable
define hidden void @_ZN10extensions31LanguageSettingsPrivateDelegate31OnHunspellDictionaryInitializedERKNSt3__112basic_stringIcNS1_11char_traitsIcEENS1_9allocatorIcEEEE(%"class.extensions::LanguageSettingsPrivateDelegate"*, %"class.std::__1::basic_string"* nocapture readnone dereferenceable(24)) unnamed_addr #0 align 2 {
  tail call void @_ZN10extensions31LanguageSettingsPrivateDelegate33BroadcastDictionariesChangedEventEv(%"class.extensions::LanguageSettingsPrivateDelegate"* %0)
  ret void
}

; Function Attrs: nounwind ssp uwtable
define hidden void @_ZN10extensions31LanguageSettingsPrivateDelegate33BroadcastDictionariesChangedEventEv(%"class.extensions::LanguageSettingsPrivateDelegate"*) local_unnamed_addr #0 align 2 {
  %2 = alloca %"class.std::__1::vector.350", align 8
  %3 = alloca %"class.std::__1::vector.421", align 16
  %4 = alloca %"class.std::__1::basic_string", align 8
  %5 = alloca %"class.std::__1::vector.421", align 16
  %6 = bitcast %"class.std::__1::vector.350"* %2 to i8*
  call void @llvm.lifetime.start.p0i8(i64 24, i8* nonnull %6) #12
  %7 = getelementptr inbounds %"class.std::__1::vector.350", %"class.std::__1::vector.350"* %2, i64 0, i32 0, i32 0
  %8 = getelementptr inbounds %"class.std::__1::vector.350", %"class.std::__1::vector.350"* %2, i64 0, i32 0, i32 1
  %9 = bitcast %"class.extensions::LanguageSettingsPrivateDelegate"* %0 to void (%"class.std::__1::vector.350"*, %"class.extensions::LanguageSettingsPrivateDelegate"*)***
  %10 = bitcast %"class.std::__1::vector.350"* %2 to i8*
  call void @llvm.memset.p0i8.i64(i8* nonnull align 8 %10, i8 -86, i64 24, i1 false)
  %11 = load void (%"class.std::__1::vector.350"*, %"class.extensions::LanguageSettingsPrivateDelegate"*)**, void (%"class.std::__1::vector.350"*, %"class.extensions::LanguageSettingsPrivateDelegate"*)*** %9, align 8
  %12 = getelementptr inbounds void (%"class.std::__1::vector.350"*, %"class.extensions::LanguageSettingsPrivateDelegate"*)*, void (%"class.std::__1::vector.350"*, %"class.extensions::LanguageSettingsPrivateDelegate"*)** %11, i64 3
  %13 = load void (%"class.std::__1::vector.350"*, %"class.extensions::LanguageSettingsPrivateDelegate"*)*, void (%"class.std::__1::vector.350"*, %"class.extensions::LanguageSettingsPrivateDelegate"*)** %12, align 8
  call void %13(%"class.std::__1::vector.350"* nonnull sret %2, %"class.extensions::LanguageSettingsPrivateDelegate"* %0) #12
  %14 = bitcast %"class.std::__1::vector.421"* %3 to i8*
  call void @llvm.lifetime.start.p0i8(i64 24, i8* nonnull %14) #12
  %15 = getelementptr inbounds %"class.std::__1::vector.421", %"class.std::__1::vector.421"* %3, i64 0, i32 0, i32 0
  %16 = getelementptr inbounds %"class.std::__1::vector.421", %"class.std::__1::vector.421"* %3, i64 0, i32 0, i32 1
  %17 = getelementptr inbounds %"class.std::__1::vector.421", %"class.std::__1::vector.421"* %3, i64 0, i32 0, i32 2, i32 0, i32 0
  %18 = bitcast %"class.std::__1::vector.421"* %3 to i8*
  call void @llvm.memset.p0i8.i64(i8* nonnull align 16 %18, i8 -86, i64 24, i1 false)
  call void @_ZN10extensions3api25language_settings_private31OnSpellcheckDictionariesChanged6CreateERKNSt3__16vectorINS1_26SpellcheckDictionaryStatusENS3_9allocatorIS5_EEEE(%"class.std::__1::vector.421"* nonnull sret %3, %"class.std::__1::vector.350"* nonnull dereferenceable(24) %2) #12
  %19 = call i8* @_Znwm(i64 392) #14
  %20 = bitcast i8* %19 to %"struct.extensions::Event"*
  %21 = bitcast %"class.std::__1::basic_string"* %4 to i8*
  call void @llvm.lifetime.start.p0i8(i64 24, i8* nonnull %21) #12
  %22 = call i64 @strlen(i8* getelementptr inbounds ([0 x i8], [0 x i8]* @_ZN10extensions3api25language_settings_private31OnSpellcheckDictionariesChanged10kEventNameE, i64 0, i64 0)) #12
  %23 = icmp ugt i64 %22, -17
  br i1 %23, label %24, label %26

24:                                               ; preds = %1
  %25 = bitcast %"class.std::__1::basic_string"* %4 to %"class.std::__1::__basic_string_common"*
  call void @_ZNKSt3__121__basic_string_commonILb1EE20__throw_length_errorEv(%"class.std::__1::__basic_string_common"* nonnull %25) #13
  unreachable

26:                                               ; preds = %1
  %27 = icmp ult i64 %22, 23
  br i1 %27, label %36, label %28

28:                                               ; preds = %26
  %29 = add nuw i64 %22, 16
  %30 = and i64 %29, -16
  %31 = call i8* @_Znwm(i64 %30) #14
  %32 = getelementptr inbounds %"class.std::__1::basic_string", %"class.std::__1::basic_string"* %4, i64 0, i32 0, i32 0, i32 0, i32 0, i32 0, i32 0
  store i8* %31, i8** %32, align 8
  %33 = or i64 %30, -9223372036854775808
  %34 = getelementptr inbounds %"class.std::__1::basic_string", %"class.std::__1::basic_string"* %4, i64 0, i32 0, i32 0, i32 0, i32 0, i32 0, i32 2
  store i64 %33, i64* %34, align 8
  %35 = getelementptr inbounds %"class.std::__1::basic_string", %"class.std::__1::basic_string"* %4, i64 0, i32 0, i32 0, i32 0, i32 0, i32 0, i32 1
  store i64 %22, i64* %35, align 8
  br label %41

36:                                               ; preds = %26
  %37 = trunc i64 %22 to i8
  %38 = bitcast %"class.std::__1::basic_string"* %4 to %"struct.std::__1::basic_string<char, std::__1::char_traits<char>, std::__1::allocator<char> >::__short"*
  %39 = getelementptr inbounds %"struct.std::__1::basic_string<char, std::__1::char_traits<char>, std::__1::allocator<char> >::__short", %"struct.std::__1::basic_string<char, std::__1::char_traits<char>, std::__1::allocator<char> >::__short"* %38, i64 0, i32 1, i32 0
  store i8 %37, i8* %39, align 1
  %40 = icmp eq i64 %22, 0
  br i1 %40, label %43, label %41

41:                                               ; preds = %36, %28
  %42 = phi i8* [ %31, %28 ], [ %21, %36 ]
  call void @llvm.memcpy.p0i8.p0i8.i64(i8* nonnull align 1 %42, i8* align 1 getelementptr inbounds ([0 x i8], [0 x i8]* @_ZN10extensions3api25language_settings_private31OnSpellcheckDictionariesChanged10kEventNameE, i64 0, i64 0), i64 %22, i1 false) #12
  br label %43

43:                                               ; preds = %36, %41
  %44 = phi i8* [ %21, %36 ], [ %42, %41 ]
  %45 = getelementptr inbounds i8, i8* %44, i64 %22
  store i8 0, i8* %45, align 1
  %46 = bitcast %"class.std::__1::vector.421"* %3 to <2 x i64>*
  %47 = load <2 x i64>, <2 x i64>* %46, align 16
  %48 = getelementptr inbounds %"class.std::__1::vector.421", %"class.std::__1::vector.421"* %5, i64 0, i32 0, i32 1
  %49 = bitcast %"class.std::__1::vector.421"* %5 to <2 x i64>*
  store <2 x i64> %47, <2 x i64>* %49, align 16
  %50 = bitcast %"class.base::Value"** %17 to i64*
  %51 = load i64, i64* %50, align 16
  %52 = getelementptr inbounds %"class.std::__1::vector.421", %"class.std::__1::vector.421"* %5, i64 0, i32 0, i32 2, i32 0, i32 0
  %53 = bitcast %"class.base::Value"** %52 to i64*
  store i64 %51, i64* %53, align 16
  call void @llvm.memset.p0i8.i64(i8* nonnull align 16 %14, i8 0, i64 24, i1 false) #12
  call void @_ZN10extensions5EventC1ENS_6events14HistogramValueERKNSt3__112basic_stringIcNS3_11char_traitsIcEENS3_9allocatorIcEEEENS3_6vectorIN4base5ValueENS7_ISE_EEEE(%"struct.extensions::Event"* nonnull %20, i32 378, %"class.std::__1::basic_string"* nonnull dereferenceable(24) %4, %"class.std::__1::vector.421"* nonnull %5) #12
  %54 = getelementptr inbounds %"class.std::__1::vector.421", %"class.std::__1::vector.421"* %5, i64 0, i32 0, i32 0
  %55 = load %"class.base::Value"*, %"class.base::Value"** %54, align 16
  %56 = icmp eq %"class.base::Value"* %55, null
  br i1 %56, label %70, label %57

57:                                               ; preds = %43
  %58 = bitcast %"class.base::Value"* %55 to i8*
  %59 = load %"class.base::Value"*, %"class.base::Value"** %48, align 8
  %60 = icmp eq %"class.base::Value"* %59, %55
  br i1 %60, label %68, label %61

61:                                               ; preds = %57, %61
  %62 = phi %"class.base::Value"* [ %63, %61 ], [ %59, %57 ]
  %63 = getelementptr inbounds %"class.base::Value", %"class.base::Value"* %62, i64 -1
  call void @_ZN4base5ValueD1Ev(%"class.base::Value"* %63) #12
  %64 = icmp eq %"class.base::Value"* %63, %55
  br i1 %64, label %65, label %61

65:                                               ; preds = %61
  %66 = bitcast %"class.std::__1::vector.421"* %5 to i8**
  %67 = load i8*, i8** %66, align 16
  br label %68

68:                                               ; preds = %65, %57
  %69 = phi i8* [ %67, %65 ], [ %58, %57 ]
  store %"class.base::Value"* %55, %"class.base::Value"** %48, align 8
  call void @_ZdlPv(i8* %69) #14
  br label %70

70:                                               ; preds = %43, %68
  %71 = bitcast %"class.std::__1::basic_string"* %4 to %"struct.std::__1::basic_string<char, std::__1::char_traits<char>, std::__1::allocator<char> >::__short"*
  %72 = getelementptr inbounds %"struct.std::__1::basic_string<char, std::__1::char_traits<char>, std::__1::allocator<char> >::__short", %"struct.std::__1::basic_string<char, std::__1::char_traits<char>, std::__1::allocator<char> >::__short"* %71, i64 0, i32 1, i32 0
  %73 = load i8, i8* %72, align 1
  %74 = icmp slt i8 %73, 0
  br i1 %74, label %75, label %78

75:                                               ; preds = %70
  %76 = getelementptr inbounds %"class.std::__1::basic_string", %"class.std::__1::basic_string"* %4, i64 0, i32 0, i32 0, i32 0, i32 0, i32 0, i32 0
  %77 = load i8*, i8** %76, align 8
  call void @_ZdlPv(i8* %77) #14
  br label %78

78:                                               ; preds = %75, %70
  call void @llvm.lifetime.end.p0i8(i64 24, i8* nonnull %21) #12
  %79 = getelementptr inbounds %"class.extensions::LanguageSettingsPrivateDelegate", %"class.extensions::LanguageSettingsPrivateDelegate"* %0, i64 0, i32 7
  %80 = load %"class.content::BrowserContext"*, %"class.content::BrowserContext"** %79, align 8
  %81 = call %"class.extensions::EventRouter"* @_ZN10extensions11EventRouter3GetEPN7content14BrowserContextE(%"class.content::BrowserContext"* %80) #12
  %82 = bitcast %"class.extensions::EventRouter"* %81 to void (%"class.extensions::EventRouter"*, %"struct.extensions::Event"*)***
  %83 = load void (%"class.extensions::EventRouter"*, %"struct.extensions::Event"*)**, void (%"class.extensions::EventRouter"*, %"struct.extensions::Event"*)*** %82, align 8
  %84 = getelementptr inbounds void (%"class.extensions::EventRouter"*, %"struct.extensions::Event"*)*, void (%"class.extensions::EventRouter"*, %"struct.extensions::Event"*)** %83, i64 12
  %85 = load void (%"class.extensions::EventRouter"*, %"struct.extensions::Event"*)*, void (%"class.extensions::EventRouter"*, %"struct.extensions::Event"*)** %84, align 8
  call void %85(%"class.extensions::EventRouter"* %81, %"struct.extensions::Event"* nonnull %20) #12
  %86 = load %"class.base::Value"*, %"class.base::Value"** %15, align 16
  %87 = icmp eq %"class.base::Value"* %86, null
  br i1 %87, label %101, label %88

88:                                               ; preds = %78
  %89 = bitcast %"class.base::Value"* %86 to i8*
  %90 = load %"class.base::Value"*, %"class.base::Value"** %16, align 8
  %91 = icmp eq %"class.base::Value"* %90, %86
  br i1 %91, label %99, label %92

92:                                               ; preds = %88, %92
  %93 = phi %"class.base::Value"* [ %94, %92 ], [ %90, %88 ]
  %94 = getelementptr inbounds %"class.base::Value", %"class.base::Value"* %93, i64 -1
  call void @_ZN4base5ValueD1Ev(%"class.base::Value"* %94) #12
  %95 = icmp eq %"class.base::Value"* %94, %86
  br i1 %95, label %96, label %92

96:                                               ; preds = %92
  %97 = bitcast %"class.std::__1::vector.421"* %3 to i8**
  %98 = load i8*, i8** %97, align 16
  br label %99

99:                                               ; preds = %96, %88
  %100 = phi i8* [ %98, %96 ], [ %89, %88 ]
  store %"class.base::Value"* %86, %"class.base::Value"** %16, align 8
  call void @_ZdlPv(i8* %100) #14
  br label %101

101:                                              ; preds = %78, %99
  call void @llvm.lifetime.end.p0i8(i64 24, i8* nonnull %14) #12
  %102 = load %"struct.extensions::api::language_settings_private::SpellcheckDictionaryStatus"*, %"struct.extensions::api::language_settings_private::SpellcheckDictionaryStatus"** %7, align 8
  %103 = icmp eq %"struct.extensions::api::language_settings_private::SpellcheckDictionaryStatus"* %102, null
  br i1 %103, label %117, label %104

104:                                              ; preds = %101
  %105 = bitcast %"struct.extensions::api::language_settings_private::SpellcheckDictionaryStatus"* %102 to i8*
  %106 = load %"struct.extensions::api::language_settings_private::SpellcheckDictionaryStatus"*, %"struct.extensions::api::language_settings_private::SpellcheckDictionaryStatus"** %8, align 8
  %107 = icmp eq %"struct.extensions::api::language_settings_private::SpellcheckDictionaryStatus"* %106, %102
  br i1 %107, label %115, label %108

108:                                              ; preds = %104, %108
  %109 = phi %"struct.extensions::api::language_settings_private::SpellcheckDictionaryStatus"* [ %110, %108 ], [ %106, %104 ]
  %110 = getelementptr inbounds %"struct.extensions::api::language_settings_private::SpellcheckDictionaryStatus", %"struct.extensions::api::language_settings_private::SpellcheckDictionaryStatus"* %109, i64 -1
  call void @_ZN10extensions3api25language_settings_private26SpellcheckDictionaryStatusD1Ev(%"struct.extensions::api::language_settings_private::SpellcheckDictionaryStatus"* %110) #12
  %111 = icmp eq %"struct.extensions::api::language_settings_private::SpellcheckDictionaryStatus"* %110, %102
  br i1 %111, label %112, label %108

112:                                              ; preds = %108
  %113 = bitcast %"class.std::__1::vector.350"* %2 to i8**
  %114 = load i8*, i8** %113, align 8
  br label %115

115:                                              ; preds = %112, %104
  %116 = phi i8* [ %114, %112 ], [ %105, %104 ]
  store %"struct.extensions::api::language_settings_private::SpellcheckDictionaryStatus"* %102, %"struct.extensions::api::language_settings_private::SpellcheckDictionaryStatus"** %8, align 8
  call void @_ZdlPv(i8* %116) #14
  br label %117

117:                                              ; preds = %101, %115
  call void @llvm.lifetime.end.p0i8(i64 24, i8* nonnull %6) #12
  ret void
}

; Function Attrs: nounwind ssp uwtable
define hidden void @_ZThn40_N10extensions31LanguageSettingsPrivateDelegate31OnHunspellDictionaryInitializedERKNSt3__112basic_stringIcNS1_11char_traitsIcEENS1_9allocatorIcEEEE(%"class.extensions::LanguageSettingsPrivateDelegate"*, %"class.std::__1::basic_string"* nocapture readnone dereferenceable(24)) unnamed_addr #0 align 2 {
  %3 = getelementptr inbounds %"class.extensions::LanguageSettingsPrivateDelegate", %"class.extensions::LanguageSettingsPrivateDelegate"* %0, i64 -1, i32 12
  %4 = bitcast %class.PrefChangeRegistrar* %3 to %"class.extensions::LanguageSettingsPrivateDelegate"*
  tail call void @_ZN10extensions31LanguageSettingsPrivateDelegate33BroadcastDictionariesChangedEventEv(%"class.extensions::LanguageSettingsPrivateDelegate"* %4) #12
  ret void
}

; Function Attrs: nounwind ssp uwtable
define hidden void @_ZN10extensions31LanguageSettingsPrivateDelegate33OnHunspellDictionaryDownloadBeginERKNSt3__112basic_stringIcNS1_11char_traitsIcEENS1_9allocatorIcEEEE(%"class.extensions::LanguageSettingsPrivateDelegate"*, %"class.std::__1::basic_string"* nocapture readnone dereferenceable(24)) unnamed_addr #0 align 2 {
  tail call void @_ZN10extensions31LanguageSettingsPrivateDelegate33BroadcastDictionariesChangedEventEv(%"class.extensions::LanguageSettingsPrivateDelegate"* %0)
  ret void
}

; Function Attrs: nounwind ssp uwtable
define hidden void @_ZThn40_N10extensions31LanguageSettingsPrivateDelegate33OnHunspellDictionaryDownloadBeginERKNSt3__112basic_stringIcNS1_11char_traitsIcEENS1_9allocatorIcEEEE(%"class.extensions::LanguageSettingsPrivateDelegate"*, %"class.std::__1::basic_string"* nocapture readnone dereferenceable(24)) unnamed_addr #0 align 2 {
  %3 = getelementptr inbounds %"class.extensions::LanguageSettingsPrivateDelegate", %"class.extensions::LanguageSettingsPrivateDelegate"* %0, i64 -1, i32 12
  %4 = bitcast %class.PrefChangeRegistrar* %3 to %"class.extensions::LanguageSettingsPrivateDelegate"*
  tail call void @_ZN10extensions31LanguageSettingsPrivateDelegate33BroadcastDictionariesChangedEventEv(%"class.extensions::LanguageSettingsPrivateDelegate"* %4) #12
  ret void
}

; Function Attrs: nounwind ssp uwtable
define hidden void @_ZN10extensions31LanguageSettingsPrivateDelegate35OnHunspellDictionaryDownloadSuccessERKNSt3__112basic_stringIcNS1_11char_traitsIcEENS1_9allocatorIcEEEE(%"class.extensions::LanguageSettingsPrivateDelegate"*, %"class.std::__1::basic_string"* nocapture readnone dereferenceable(24)) unnamed_addr #0 align 2 {
  tail call void @_ZN10extensions31LanguageSettingsPrivateDelegate33BroadcastDictionariesChangedEventEv(%"class.extensions::LanguageSettingsPrivateDelegate"* %0)
  ret void
}

; Function Attrs: nounwind ssp uwtable
define hidden void @_ZThn40_N10extensions31LanguageSettingsPrivateDelegate35OnHunspellDictionaryDownloadSuccessERKNSt3__112basic_stringIcNS1_11char_traitsIcEENS1_9allocatorIcEEEE(%"class.extensions::LanguageSettingsPrivateDelegate"*, %"class.std::__1::basic_string"* nocapture readnone dereferenceable(24)) unnamed_addr #0 align 2 {
  %3 = getelementptr inbounds %"class.extensions::LanguageSettingsPrivateDelegate", %"class.extensions::LanguageSettingsPrivateDelegate"* %0, i64 -1, i32 12
  %4 = bitcast %class.PrefChangeRegistrar* %3 to %"class.extensions::LanguageSettingsPrivateDelegate"*
  tail call void @_ZN10extensions31LanguageSettingsPrivateDelegate33BroadcastDictionariesChangedEventEv(%"class.extensions::LanguageSettingsPrivateDelegate"* %4) #12
  ret void
}

; Function Attrs: nounwind ssp uwtable
define hidden void @_ZN10extensions31LanguageSettingsPrivateDelegate35OnHunspellDictionaryDownloadFailureERKNSt3__112basic_stringIcNS1_11char_traitsIcEENS1_9allocatorIcEEEE(%"class.extensions::LanguageSettingsPrivateDelegate"*, %"class.std::__1::basic_string"* nocapture readnone dereferenceable(24)) unnamed_addr #0 align 2 {
  tail call void @_ZN10extensions31LanguageSettingsPrivateDelegate33BroadcastDictionariesChangedEventEv(%"class.extensions::LanguageSettingsPrivateDelegate"* %0)
  ret void
}

; Function Attrs: nounwind ssp uwtable
define hidden void @_ZThn40_N10extensions31LanguageSettingsPrivateDelegate35OnHunspellDictionaryDownloadFailureERKNSt3__112basic_stringIcNS1_11char_traitsIcEENS1_9allocatorIcEEEE(%"class.extensions::LanguageSettingsPrivateDelegate"*, %"class.std::__1::basic_string"* nocapture readnone dereferenceable(24)) unnamed_addr #0 align 2 {
  %3 = getelementptr inbounds %"class.extensions::LanguageSettingsPrivateDelegate", %"class.extensions::LanguageSettingsPrivateDelegate"* %0, i64 -1, i32 12
  %4 = bitcast %class.PrefChangeRegistrar* %3 to %"class.extensions::LanguageSettingsPrivateDelegate"*
  tail call void @_ZN10extensions31LanguageSettingsPrivateDelegate33BroadcastDictionariesChangedEventEv(%"class.extensions::LanguageSettingsPrivateDelegate"* %4) #12
  ret void
}

; Function Attrs: norecurse nounwind readnone ssp uwtable
define hidden void @_ZN10extensions31LanguageSettingsPrivateDelegate24OnCustomDictionaryLoadedEv(%"class.extensions::LanguageSettingsPrivateDelegate"* nocapture) unnamed_addr #6 align 2 {
  ret void
}

; Function Attrs: norecurse nounwind readnone ssp uwtable
define hidden void @_ZThn48_N10extensions31LanguageSettingsPrivateDelegate24OnCustomDictionaryLoadedEv(%"class.extensions::LanguageSettingsPrivateDelegate"* nocapture) unnamed_addr #6 align 2 {
  ret void
}

; Function Attrs: nounwind ssp uwtable
define hidden void @_ZN10extensions31LanguageSettingsPrivateDelegate25OnCustomDictionaryChangedERKN26SpellcheckCustomDictionary6ChangeE(%"class.extensions::LanguageSettingsPrivateDelegate"* nocapture readonly, %"class.SpellcheckCustomDictionary::Change"* dereferenceable(56)) unnamed_addr #0 align 2 {
  %3 = alloca %"class.std::__1::vector.414", align 8
  %4 = alloca %"class.std::__1::vector.414", align 8
  %5 = alloca %"class.std::__1::vector.421", align 16
  %6 = alloca %"class.std::__1::basic_string", align 8
  %7 = alloca %"class.std::__1::vector.421", align 16
  %8 = bitcast %"class.std::__1::vector.414"* %3 to i8*
  call void @llvm.lifetime.start.p0i8(i64 24, i8* nonnull %8) #12
  %9 = getelementptr inbounds %"class.std::__1::vector.414", %"class.std::__1::vector.414"* %3, i64 0, i32 0, i32 0
  %10 = getelementptr inbounds %"class.std::__1::vector.414", %"class.std::__1::vector.414"* %3, i64 0, i32 0, i32 1
  %11 = getelementptr inbounds %"class.SpellcheckCustomDictionary::Change", %"class.SpellcheckCustomDictionary::Change"* %1, i64 0, i32 0, i32 0, i32 0
  %12 = bitcast %"class.std::__1::vector.414"* %3 to i8*
  call void @llvm.memset.p0i8.i64(i8* nonnull align 8 %12, i8 -86, i64 24, i1 false)
  %13 = load %"class.std::__1::__tree_end_node"*, %"class.std::__1::__tree_end_node"** %11, align 8
  %14 = getelementptr inbounds %"class.SpellcheckCustomDictionary::Change", %"class.SpellcheckCustomDictionary::Change"* %1, i64 0, i32 0, i32 0, i32 1, i32 0, i32 0
  call void @_ZNSt3__16vectorINS_12basic_stringIcNS_11char_traitsIcEENS_9allocatorIcEEEENS4_IS6_EEEC2INS_21__tree_const_iteratorIS6_PNS_11__tree_nodeIS6_PvEElEEEET_NS_9enable_ifIXaasr27__is_cpp17_forward_iteratorISG_EE5valuesr16is_constructibleIS6_NS_15iterator_traitsISG_E9referenceEEE5valueESG_E4typeE(%"class.std::__1::vector.414"* nonnull %3, %"class.std::__1::__tree_end_node"* %13, %"class.std::__1::__tree_end_node"* %14)
  %15 = bitcast %"class.std::__1::vector.414"* %4 to i8*
  call void @llvm.lifetime.start.p0i8(i64 24, i8* nonnull %15) #12
  %16 = getelementptr inbounds %"class.std::__1::vector.414", %"class.std::__1::vector.414"* %4, i64 0, i32 0, i32 0
  %17 = getelementptr inbounds %"class.std::__1::vector.414", %"class.std::__1::vector.414"* %4, i64 0, i32 0, i32 1
  %18 = getelementptr inbounds %"class.SpellcheckCustomDictionary::Change", %"class.SpellcheckCustomDictionary::Change"* %1, i64 0, i32 1, i32 0, i32 0
  %19 = bitcast %"class.std::__1::vector.414"* %4 to i8*
  call void @llvm.memset.p0i8.i64(i8* nonnull align 8 %19, i8 -86, i64 24, i1 false)
  %20 = load %"class.std::__1::__tree_end_node"*, %"class.std::__1::__tree_end_node"** %18, align 8
  %21 = getelementptr inbounds %"class.SpellcheckCustomDictionary::Change", %"class.SpellcheckCustomDictionary::Change"* %1, i64 0, i32 1, i32 0, i32 1, i32 0, i32 0
  call void @_ZNSt3__16vectorINS_12basic_stringIcNS_11char_traitsIcEENS_9allocatorIcEEEENS4_IS6_EEEC2INS_21__tree_const_iteratorIS6_PNS_11__tree_nodeIS6_PvEElEEEET_NS_9enable_ifIXaasr27__is_cpp17_forward_iteratorISG_EE5valuesr16is_constructibleIS6_NS_15iterator_traitsISG_E9referenceEEE5valueESG_E4typeE(%"class.std::__1::vector.414"* nonnull %4, %"class.std::__1::__tree_end_node"* %20, %"class.std::__1::__tree_end_node"* %21)
  %22 = bitcast %"class.std::__1::vector.421"* %5 to i8*
  call void @llvm.lifetime.start.p0i8(i64 24, i8* nonnull %22) #12
  %23 = getelementptr inbounds %"class.std::__1::vector.421", %"class.std::__1::vector.421"* %5, i64 0, i32 0, i32 0
  %24 = getelementptr inbounds %"class.std::__1::vector.421", %"class.std::__1::vector.421"* %5, i64 0, i32 0, i32 1
  %25 = getelementptr inbounds %"class.std::__1::vector.421", %"class.std::__1::vector.421"* %5, i64 0, i32 0, i32 2, i32 0, i32 0
  %26 = bitcast %"class.std::__1::vector.421"* %5 to i8*
  call void @llvm.memset.p0i8.i64(i8* nonnull align 16 %26, i8 -86, i64 24, i1 false)
  call void @_ZN10extensions3api25language_settings_private25OnCustomDictionaryChanged6CreateERKNSt3__16vectorINS3_12basic_stringIcNS3_11char_traitsIcEENS3_9allocatorIcEEEENS8_ISA_EEEESE_(%"class.std::__1::vector.421"* nonnull sret %5, %"class.std::__1::vector.414"* nonnull dereferenceable(24) %3, %"class.std::__1::vector.414"* nonnull dereferenceable(24) %4) #12
  %27 = call i8* @_Znwm(i64 392) #14
  %28 = bitcast i8* %27 to %"struct.extensions::Event"*
  %29 = bitcast %"class.std::__1::basic_string"* %6 to i8*
  call void @llvm.lifetime.start.p0i8(i64 24, i8* nonnull %29) #12
  %30 = call i64 @strlen(i8* getelementptr inbounds ([0 x i8], [0 x i8]* @_ZN10extensions3api25language_settings_private25OnCustomDictionaryChanged10kEventNameE, i64 0, i64 0)) #12
  %31 = icmp ugt i64 %30, -17
  br i1 %31, label %32, label %34

32:                                               ; preds = %2
  %33 = bitcast %"class.std::__1::basic_string"* %6 to %"class.std::__1::__basic_string_common"*
  call void @_ZNKSt3__121__basic_string_commonILb1EE20__throw_length_errorEv(%"class.std::__1::__basic_string_common"* nonnull %33) #13
  unreachable

34:                                               ; preds = %2
  %35 = icmp ult i64 %30, 23
  br i1 %35, label %44, label %36

36:                                               ; preds = %34
  %37 = add nuw i64 %30, 16
  %38 = and i64 %37, -16
  %39 = call i8* @_Znwm(i64 %38) #14
  %40 = getelementptr inbounds %"class.std::__1::basic_string", %"class.std::__1::basic_string"* %6, i64 0, i32 0, i32 0, i32 0, i32 0, i32 0, i32 0
  store i8* %39, i8** %40, align 8
  %41 = or i64 %38, -9223372036854775808
  %42 = getelementptr inbounds %"class.std::__1::basic_string", %"class.std::__1::basic_string"* %6, i64 0, i32 0, i32 0, i32 0, i32 0, i32 0, i32 2
  store i64 %41, i64* %42, align 8
  %43 = getelementptr inbounds %"class.std::__1::basic_string", %"class.std::__1::basic_string"* %6, i64 0, i32 0, i32 0, i32 0, i32 0, i32 0, i32 1
  store i64 %30, i64* %43, align 8
  br label %49

44:                                               ; preds = %34
  %45 = trunc i64 %30 to i8
  %46 = bitcast %"class.std::__1::basic_string"* %6 to %"struct.std::__1::basic_string<char, std::__1::char_traits<char>, std::__1::allocator<char> >::__short"*
  %47 = getelementptr inbounds %"struct.std::__1::basic_string<char, std::__1::char_traits<char>, std::__1::allocator<char> >::__short", %"struct.std::__1::basic_string<char, std::__1::char_traits<char>, std::__1::allocator<char> >::__short"* %46, i64 0, i32 1, i32 0
  store i8 %45, i8* %47, align 1
  %48 = icmp eq i64 %30, 0
  br i1 %48, label %51, label %49

49:                                               ; preds = %44, %36
  %50 = phi i8* [ %39, %36 ], [ %29, %44 ]
  call void @llvm.memcpy.p0i8.p0i8.i64(i8* nonnull align 1 %50, i8* align 1 getelementptr inbounds ([0 x i8], [0 x i8]* @_ZN10extensions3api25language_settings_private25OnCustomDictionaryChanged10kEventNameE, i64 0, i64 0), i64 %30, i1 false) #12
  br label %51

51:                                               ; preds = %44, %49
  %52 = phi i8* [ %29, %44 ], [ %50, %49 ]
  %53 = getelementptr inbounds i8, i8* %52, i64 %30
  store i8 0, i8* %53, align 1
  %54 = bitcast %"class.std::__1::vector.421"* %5 to <2 x i64>*
  %55 = load <2 x i64>, <2 x i64>* %54, align 16
  %56 = getelementptr inbounds %"class.std::__1::vector.421", %"class.std::__1::vector.421"* %7, i64 0, i32 0, i32 1
  %57 = bitcast %"class.std::__1::vector.421"* %7 to <2 x i64>*
  store <2 x i64> %55, <2 x i64>* %57, align 16
  %58 = bitcast %"class.base::Value"** %25 to i64*
  %59 = load i64, i64* %58, align 16
  %60 = getelementptr inbounds %"class.std::__1::vector.421", %"class.std::__1::vector.421"* %7, i64 0, i32 0, i32 2, i32 0, i32 0
  %61 = bitcast %"class.base::Value"** %60 to i64*
  store i64 %59, i64* %61, align 16
  call void @llvm.memset.p0i8.i64(i8* nonnull align 16 %22, i8 0, i64 24, i1 false) #12
  call void @_ZN10extensions5EventC1ENS_6events14HistogramValueERKNSt3__112basic_stringIcNS3_11char_traitsIcEENS3_9allocatorIcEEEENS3_6vectorIN4base5ValueENS7_ISE_EEEE(%"struct.extensions::Event"* nonnull %28, i32 379, %"class.std::__1::basic_string"* nonnull dereferenceable(24) %6, %"class.std::__1::vector.421"* nonnull %7) #12
  %62 = getelementptr inbounds %"class.std::__1::vector.421", %"class.std::__1::vector.421"* %7, i64 0, i32 0, i32 0
  %63 = load %"class.base::Value"*, %"class.base::Value"** %62, align 16
  %64 = icmp eq %"class.base::Value"* %63, null
  br i1 %64, label %78, label %65

65:                                               ; preds = %51
  %66 = bitcast %"class.base::Value"* %63 to i8*
  %67 = load %"class.base::Value"*, %"class.base::Value"** %56, align 8
  %68 = icmp eq %"class.base::Value"* %67, %63
  br i1 %68, label %76, label %69

69:                                               ; preds = %65, %69
  %70 = phi %"class.base::Value"* [ %71, %69 ], [ %67, %65 ]
  %71 = getelementptr inbounds %"class.base::Value", %"class.base::Value"* %70, i64 -1
  call void @_ZN4base5ValueD1Ev(%"class.base::Value"* %71) #12
  %72 = icmp eq %"class.base::Value"* %71, %63
  br i1 %72, label %73, label %69

73:                                               ; preds = %69
  %74 = bitcast %"class.std::__1::vector.421"* %7 to i8**
  %75 = load i8*, i8** %74, align 16
  br label %76

76:                                               ; preds = %73, %65
  %77 = phi i8* [ %75, %73 ], [ %66, %65 ]
  store %"class.base::Value"* %63, %"class.base::Value"** %56, align 8
  call void @_ZdlPv(i8* %77) #14
  br label %78

78:                                               ; preds = %51, %76
  %79 = bitcast %"class.std::__1::basic_string"* %6 to %"struct.std::__1::basic_string<char, std::__1::char_traits<char>, std::__1::allocator<char> >::__short"*
  %80 = getelementptr inbounds %"struct.std::__1::basic_string<char, std::__1::char_traits<char>, std::__1::allocator<char> >::__short", %"struct.std::__1::basic_string<char, std::__1::char_traits<char>, std::__1::allocator<char> >::__short"* %79, i64 0, i32 1, i32 0
  %81 = load i8, i8* %80, align 1
  %82 = icmp slt i8 %81, 0
  br i1 %82, label %83, label %86

83:                                               ; preds = %78
  %84 = getelementptr inbounds %"class.std::__1::basic_string", %"class.std::__1::basic_string"* %6, i64 0, i32 0, i32 0, i32 0, i32 0, i32 0, i32 0
  %85 = load i8*, i8** %84, align 8
  call void @_ZdlPv(i8* %85) #14
  br label %86

86:                                               ; preds = %83, %78
  call void @llvm.lifetime.end.p0i8(i64 24, i8* nonnull %29) #12
  %87 = getelementptr inbounds %"class.extensions::LanguageSettingsPrivateDelegate", %"class.extensions::LanguageSettingsPrivateDelegate"* %0, i64 0, i32 7
  %88 = load %"class.content::BrowserContext"*, %"class.content::BrowserContext"** %87, align 8
  %89 = call %"class.extensions::EventRouter"* @_ZN10extensions11EventRouter3GetEPN7content14BrowserContextE(%"class.content::BrowserContext"* %88) #12
  %90 = bitcast %"class.extensions::EventRouter"* %89 to void (%"class.extensions::EventRouter"*, %"struct.extensions::Event"*)***
  %91 = load void (%"class.extensions::EventRouter"*, %"struct.extensions::Event"*)**, void (%"class.extensions::EventRouter"*, %"struct.extensions::Event"*)*** %90, align 8
  %92 = getelementptr inbounds void (%"class.extensions::EventRouter"*, %"struct.extensions::Event"*)*, void (%"class.extensions::EventRouter"*, %"struct.extensions::Event"*)** %91, i64 12
  %93 = load void (%"class.extensions::EventRouter"*, %"struct.extensions::Event"*)*, void (%"class.extensions::EventRouter"*, %"struct.extensions::Event"*)** %92, align 8
  call void %93(%"class.extensions::EventRouter"* %89, %"struct.extensions::Event"* nonnull %28) #12
  %94 = load %"class.base::Value"*, %"class.base::Value"** %23, align 16
  %95 = icmp eq %"class.base::Value"* %94, null
  br i1 %95, label %109, label %96

96:                                               ; preds = %86
  %97 = bitcast %"class.base::Value"* %94 to i8*
  %98 = load %"class.base::Value"*, %"class.base::Value"** %24, align 8
  %99 = icmp eq %"class.base::Value"* %98, %94
  br i1 %99, label %107, label %100

100:                                              ; preds = %96, %100
  %101 = phi %"class.base::Value"* [ %102, %100 ], [ %98, %96 ]
  %102 = getelementptr inbounds %"class.base::Value", %"class.base::Value"* %101, i64 -1
  call void @_ZN4base5ValueD1Ev(%"class.base::Value"* %102) #12
  %103 = icmp eq %"class.base::Value"* %102, %94
  br i1 %103, label %104, label %100

104:                                              ; preds = %100
  %105 = bitcast %"class.std::__1::vector.421"* %5 to i8**
  %106 = load i8*, i8** %105, align 16
  br label %107

107:                                              ; preds = %104, %96
  %108 = phi i8* [ %106, %104 ], [ %97, %96 ]
  store %"class.base::Value"* %94, %"class.base::Value"** %24, align 8
  call void @_ZdlPv(i8* %108) #14
  br label %109

109:                                              ; preds = %86, %107
  call void @llvm.lifetime.end.p0i8(i64 24, i8* nonnull %22) #12
  %110 = load %"class.std::__1::basic_string"*, %"class.std::__1::basic_string"** %16, align 8
  %111 = icmp eq %"class.std::__1::basic_string"* %110, null
  br i1 %111, label %133, label %112

112:                                              ; preds = %109
  %113 = bitcast %"class.std::__1::basic_string"* %110 to i8*
  %114 = load %"class.std::__1::basic_string"*, %"class.std::__1::basic_string"** %17, align 8
  %115 = icmp eq %"class.std::__1::basic_string"* %114, %110
  br i1 %115, label %131, label %116

116:                                              ; preds = %112, %126
  %117 = phi %"class.std::__1::basic_string"* [ %118, %126 ], [ %114, %112 ]
  %118 = getelementptr inbounds %"class.std::__1::basic_string", %"class.std::__1::basic_string"* %117, i64 -1
  %119 = bitcast %"class.std::__1::basic_string"* %118 to %"struct.std::__1::basic_string<char, std::__1::char_traits<char>, std::__1::allocator<char> >::__short"*
  %120 = getelementptr inbounds %"struct.std::__1::basic_string<char, std::__1::char_traits<char>, std::__1::allocator<char> >::__short", %"struct.std::__1::basic_string<char, std::__1::char_traits<char>, std::__1::allocator<char> >::__short"* %119, i64 0, i32 1, i32 0
  %121 = load i8, i8* %120, align 1
  %122 = icmp slt i8 %121, 0
  br i1 %122, label %123, label %126

123:                                              ; preds = %116
  %124 = getelementptr inbounds %"class.std::__1::basic_string", %"class.std::__1::basic_string"* %118, i64 0, i32 0, i32 0, i32 0, i32 0, i32 0, i32 0
  %125 = load i8*, i8** %124, align 8
  call void @_ZdlPv(i8* %125) #14
  br label %126

126:                                              ; preds = %123, %116
  %127 = icmp eq %"class.std::__1::basic_string"* %118, %110
  br i1 %127, label %128, label %116

128:                                              ; preds = %126
  %129 = bitcast %"class.std::__1::vector.414"* %4 to i8**
  %130 = load i8*, i8** %129, align 8
  br label %131

131:                                              ; preds = %128, %112
  %132 = phi i8* [ %130, %128 ], [ %113, %112 ]
  store %"class.std::__1::basic_string"* %110, %"class.std::__1::basic_string"** %17, align 8
  call void @_ZdlPv(i8* %132) #14
  br label %133

133:                                              ; preds = %109, %131
  call void @llvm.lifetime.end.p0i8(i64 24, i8* nonnull %15) #12
  %134 = load %"class.std::__1::basic_string"*, %"class.std::__1::basic_string"** %9, align 8
  %135 = icmp eq %"class.std::__1::basic_string"* %134, null
  br i1 %135, label %157, label %136

136:                                              ; preds = %133
  %137 = bitcast %"class.std::__1::basic_string"* %134 to i8*
  %138 = load %"class.std::__1::basic_string"*, %"class.std::__1::basic_string"** %10, align 8
  %139 = icmp eq %"class.std::__1::basic_string"* %138, %134
  br i1 %139, label %155, label %140

140:                                              ; preds = %136, %150
  %141 = phi %"class.std::__1::basic_string"* [ %142, %150 ], [ %138, %136 ]
  %142 = getelementptr inbounds %"class.std::__1::basic_string", %"class.std::__1::basic_string"* %141, i64 -1
  %143 = bitcast %"class.std::__1::basic_string"* %142 to %"struct.std::__1::basic_string<char, std::__1::char_traits<char>, std::__1::allocator<char> >::__short"*
  %144 = getelementptr inbounds %"struct.std::__1::basic_string<char, std::__1::char_traits<char>, std::__1::allocator<char> >::__short", %"struct.std::__1::basic_string<char, std::__1::char_traits<char>, std::__1::allocator<char> >::__short"* %143, i64 0, i32 1, i32 0
  %145 = load i8, i8* %144, align 1
  %146 = icmp slt i8 %145, 0
  br i1 %146, label %147, label %150

147:                                              ; preds = %140
  %148 = getelementptr inbounds %"class.std::__1::basic_string", %"class.std::__1::basic_string"* %142, i64 0, i32 0, i32 0, i32 0, i32 0, i32 0, i32 0
  %149 = load i8*, i8** %148, align 8
  call void @_ZdlPv(i8* %149) #14
  br label %150

150:                                              ; preds = %147, %140
  %151 = icmp eq %"class.std::__1::basic_string"* %142, %134
  br i1 %151, label %152, label %140

152:                                              ; preds = %150
  %153 = bitcast %"class.std::__1::vector.414"* %3 to i8**
  %154 = load i8*, i8** %153, align 8
  br label %155

155:                                              ; preds = %152, %136
  %156 = phi i8* [ %154, %152 ], [ %137, %136 ]
  store %"class.std::__1::basic_string"* %134, %"class.std::__1::basic_string"** %10, align 8
  call void @_ZdlPv(i8* %156) #14
  br label %157

157:                                              ; preds = %133, %155
  call void @llvm.lifetime.end.p0i8(i64 24, i8* nonnull %8) #12
  ret void
}

; Function Attrs: nounwind ssp uwtable
define linkonce_odr hidden void @_ZNSt3__16vectorINS_12basic_stringIcNS_11char_traitsIcEENS_9allocatorIcEEEENS4_IS6_EEEC2INS_21__tree_const_iteratorIS6_PNS_11__tree_nodeIS6_PvEElEEEET_NS_9enable_ifIXaasr27__is_cpp17_forward_iteratorISG_EE5valuesr16is_constructibleIS6_NS_15iterator_traitsISG_E9referenceEEE5valueESG_E4typeE(%"class.std::__1::vector.414"*, %"class.std::__1::__tree_end_node"*, %"class.std::__1::__tree_end_node"*) unnamed_addr #0 comdat align 2 {
  %4 = bitcast %"class.std::__1::vector.414"* %0 to i8*
  tail call void @llvm.memset.p0i8.i64(i8* align 8 %4, i8 0, i64 24, i1 false) #12
  %5 = icmp eq %"class.std::__1::__tree_end_node"* %1, %2
  br i1 %5, label %106, label %6

6:                                                ; preds = %3, %37
  %7 = phi i64 [ %9, %37 ], [ 0, %3 ]
  %8 = phi %"class.std::__1::__tree_end_node"* [ %38, %37 ], [ %1, %3 ]
  %9 = add nuw nsw i64 %7, 1
  %10 = getelementptr inbounds %"class.std::__1::__tree_end_node", %"class.std::__1::__tree_end_node"* %8, i64 1, i32 0
  %11 = load %"class.std::__1::__tree_node_base"*, %"class.std::__1::__tree_node_base"** %10, align 8
  %12 = icmp eq %"class.std::__1::__tree_node_base"* %11, null
  br i1 %12, label %13, label %21

13:                                               ; preds = %6
  %14 = bitcast %"class.std::__1::__tree_end_node"* %8 to %"class.std::__1::__tree_node_base"*
  %15 = getelementptr inbounds %"class.std::__1::__tree_end_node", %"class.std::__1::__tree_end_node"* %8, i64 2
  %16 = bitcast %"class.std::__1::__tree_end_node"* %15 to %"class.std::__1::__tree_end_node"**
  %17 = load %"class.std::__1::__tree_end_node"*, %"class.std::__1::__tree_end_node"** %16, align 8
  %18 = getelementptr inbounds %"class.std::__1::__tree_end_node", %"class.std::__1::__tree_end_node"* %17, i64 0, i32 0
  %19 = load %"class.std::__1::__tree_node_base"*, %"class.std::__1::__tree_node_base"** %18, align 8
  %20 = icmp eq %"class.std::__1::__tree_node_base"* %19, %14
  br i1 %20, label %37, label %28

21:                                               ; preds = %6, %21
  %22 = phi %"class.std::__1::__tree_node_base"* [ %24, %21 ], [ %11, %6 ]
  %23 = getelementptr inbounds %"class.std::__1::__tree_node_base", %"class.std::__1::__tree_node_base"* %22, i64 0, i32 0, i32 0
  %24 = load %"class.std::__1::__tree_node_base"*, %"class.std::__1::__tree_node_base"** %23, align 8
  %25 = icmp eq %"class.std::__1::__tree_node_base"* %24, null
  br i1 %25, label %26, label %21

26:                                               ; preds = %21
  %27 = getelementptr inbounds %"class.std::__1::__tree_node_base", %"class.std::__1::__tree_node_base"* %22, i64 0, i32 0
  br label %37

28:                                               ; preds = %13, %28
  %29 = phi %"class.std::__1::__tree_end_node"** [ %32, %28 ], [ %16, %13 ]
  %30 = bitcast %"class.std::__1::__tree_end_node"** %29 to %"class.std::__1::__tree_node_base"**
  %31 = load %"class.std::__1::__tree_node_base"*, %"class.std::__1::__tree_node_base"** %30, align 8
  %32 = getelementptr inbounds %"class.std::__1::__tree_node_base", %"class.std::__1::__tree_node_base"* %31, i64 0, i32 2
  %33 = load %"class.std::__1::__tree_end_node"*, %"class.std::__1::__tree_end_node"** %32, align 8
  %34 = getelementptr inbounds %"class.std::__1::__tree_end_node", %"class.std::__1::__tree_end_node"* %33, i64 0, i32 0
  %35 = load %"class.std::__1::__tree_node_base"*, %"class.std::__1::__tree_node_base"** %34, align 8
  %36 = icmp eq %"class.std::__1::__tree_node_base"* %35, %31
  br i1 %36, label %37, label %28

37:                                               ; preds = %28, %26, %13
  %38 = phi %"class.std::__1::__tree_end_node"* [ %27, %26 ], [ %17, %13 ], [ %33, %28 ]
  %39 = icmp eq %"class.std::__1::__tree_end_node"* %38, %2
  br i1 %39, label %40, label %6

40:                                               ; preds = %37
  %41 = icmp ugt i64 %7, 768614336404564649
  br i1 %41, label %42, label %44

42:                                               ; preds = %40
  %43 = bitcast %"class.std::__1::vector.414"* %0 to %"class.std::__1::__vector_base_common"*
  tail call void @_ZNKSt3__120__vector_base_commonILb1EE20__throw_length_errorEv(%"class.std::__1::__vector_base_common"* %43) #13
  unreachable

44:                                               ; preds = %40
  %45 = mul i64 %9, 24
  %46 = tail call i8* @_Znwm(i64 %45) #14
  %47 = bitcast i8* %46 to %"class.std::__1::basic_string"*
  %48 = getelementptr inbounds %"class.std::__1::vector.414", %"class.std::__1::vector.414"* %0, i64 0, i32 0, i32 1
  %49 = bitcast %"class.std::__1::basic_string"** %48 to i8**
  store i8* %46, i8** %49, align 8
  %50 = bitcast %"class.std::__1::vector.414"* %0 to i8**
  store i8* %46, i8** %50, align 8
  %51 = getelementptr inbounds %"class.std::__1::basic_string", %"class.std::__1::basic_string"* %47, i64 %9
  %52 = getelementptr inbounds %"class.std::__1::vector.414", %"class.std::__1::vector.414"* %0, i64 0, i32 0, i32 2, i32 0, i32 0
  store %"class.std::__1::basic_string"* %51, %"class.std::__1::basic_string"** %52, align 8
  %53 = bitcast %"class.std::__1::basic_string"** %48 to i64*
  %54 = bitcast i8* %46 to %"class.std::__1::basic_string"*
  br label %55

55:                                               ; preds = %100, %44
  %56 = phi %"class.std::__1::basic_string"* [ %102, %100 ], [ %54, %44 ]
  %57 = phi %"class.std::__1::__tree_end_node"* [ %101, %100 ], [ %1, %44 ]
  %58 = getelementptr inbounds %"class.std::__1::__tree_end_node", %"class.std::__1::__tree_end_node"* %57, i64 4
  %59 = bitcast %"class.std::__1::__tree_end_node"* %58 to %"struct.std::__1::basic_string<char, std::__1::char_traits<char>, std::__1::allocator<char> >::__short"*
  %60 = getelementptr inbounds %"struct.std::__1::basic_string<char, std::__1::char_traits<char>, std::__1::allocator<char> >::__short", %"struct.std::__1::basic_string<char, std::__1::char_traits<char>, std::__1::allocator<char> >::__short"* %59, i64 0, i32 1, i32 0
  %61 = load i8, i8* %60, align 1
  %62 = icmp slt i8 %61, 0
  br i1 %62, label %66, label %63

63:                                               ; preds = %55
  %64 = bitcast %"class.std::__1::basic_string"* %56 to i8*
  %65 = bitcast %"class.std::__1::__tree_end_node"* %58 to i8*
  tail call void @llvm.memcpy.p0i8.p0i8.i64(i8* align 8 %64, i8* align 8 %65, i64 24, i1 false) #12
  br label %72

66:                                               ; preds = %55
  %67 = bitcast %"class.std::__1::__tree_end_node"* %58 to i8**
  %68 = load i8*, i8** %67, align 8
  %69 = getelementptr inbounds %"class.std::__1::__tree_end_node", %"class.std::__1::__tree_end_node"* %57, i64 5
  %70 = bitcast %"class.std::__1::__tree_end_node"* %69 to i64*
  %71 = load i64, i64* %70, align 8
  tail call void @_ZNSt3__112basic_stringIcNS_11char_traitsIcEENS_9allocatorIcEEE25__init_copy_ctor_externalEPKcm(%"class.std::__1::basic_string"* %56, i8* %68, i64 %71) #12
  br label %72

72:                                               ; preds = %66, %63
  %73 = getelementptr inbounds %"class.std::__1::__tree_end_node", %"class.std::__1::__tree_end_node"* %57, i64 1, i32 0
  %74 = load %"class.std::__1::__tree_node_base"*, %"class.std::__1::__tree_node_base"** %73, align 8
  %75 = icmp eq %"class.std::__1::__tree_node_base"* %74, null
  br i1 %75, label %76, label %84

76:                                               ; preds = %72
  %77 = bitcast %"class.std::__1::__tree_end_node"* %57 to %"class.std::__1::__tree_node_base"*
  %78 = getelementptr inbounds %"class.std::__1::__tree_end_node", %"class.std::__1::__tree_end_node"* %57, i64 2
  %79 = bitcast %"class.std::__1::__tree_end_node"* %78 to %"class.std::__1::__tree_end_node"**
  %80 = load %"class.std::__1::__tree_end_node"*, %"class.std::__1::__tree_end_node"** %79, align 8
  %81 = getelementptr inbounds %"class.std::__1::__tree_end_node", %"class.std::__1::__tree_end_node"* %80, i64 0, i32 0
  %82 = load %"class.std::__1::__tree_node_base"*, %"class.std::__1::__tree_node_base"** %81, align 8
  %83 = icmp eq %"class.std::__1::__tree_node_base"* %82, %77
  br i1 %83, label %100, label %91

84:                                               ; preds = %72, %84
  %85 = phi %"class.std::__1::__tree_node_base"* [ %87, %84 ], [ %74, %72 ]
  %86 = getelementptr inbounds %"class.std::__1::__tree_node_base", %"class.std::__1::__tree_node_base"* %85, i64 0, i32 0, i32 0
  %87 = load %"class.std::__1::__tree_node_base"*, %"class.std::__1::__tree_node_base"** %86, align 8
  %88 = icmp eq %"class.std::__1::__tree_node_base"* %87, null
  br i1 %88, label %89, label %84

89:                                               ; preds = %84
  %90 = getelementptr inbounds %"class.std::__1::__tree_node_base", %"class.std::__1::__tree_node_base"* %85, i64 0, i32 0
  br label %100

91:                                               ; preds = %76, %91
  %92 = phi %"class.std::__1::__tree_end_node"** [ %95, %91 ], [ %79, %76 ]
  %93 = bitcast %"class.std::__1::__tree_end_node"** %92 to %"class.std::__1::__tree_node_base"**
  %94 = load %"class.std::__1::__tree_node_base"*, %"class.std::__1::__tree_node_base"** %93, align 8
  %95 = getelementptr inbounds %"class.std::__1::__tree_node_base", %"class.std::__1::__tree_node_base"* %94, i64 0, i32 2
  %96 = load %"class.std::__1::__tree_end_node"*, %"class.std::__1::__tree_end_node"** %95, align 8
  %97 = getelementptr inbounds %"class.std::__1::__tree_end_node", %"class.std::__1::__tree_end_node"* %96, i64 0, i32 0
  %98 = load %"class.std::__1::__tree_node_base"*, %"class.std::__1::__tree_node_base"** %97, align 8
  %99 = icmp eq %"class.std::__1::__tree_node_base"* %98, %94
  br i1 %99, label %100, label %91

100:                                              ; preds = %91, %89, %76
  %101 = phi %"class.std::__1::__tree_end_node"* [ %90, %89 ], [ %80, %76 ], [ %96, %91 ]
  %102 = getelementptr inbounds %"class.std::__1::basic_string", %"class.std::__1::basic_string"* %56, i64 1
  %103 = icmp eq %"class.std::__1::__tree_end_node"* %101, %2
  br i1 %103, label %104, label %55

104:                                              ; preds = %100
  %105 = ptrtoint %"class.std::__1::basic_string"* %102 to i64
  store i64 %105, i64* %53, align 8
  br label %106

106:                                              ; preds = %3, %104
  ret void
}

declare void @_ZN10extensions3api25language_settings_private25OnCustomDictionaryChanged6CreateERKNSt3__16vectorINS3_12basic_stringIcNS3_11char_traitsIcEENS3_9allocatorIcEEEENS8_ISA_EEEESE_(%"class.std::__1::vector.421"* sret, %"class.std::__1::vector.414"* dereferenceable(24), %"class.std::__1::vector.414"* dereferenceable(24)) local_unnamed_addr #1

declare void @_ZN10extensions5EventC1ENS_6events14HistogramValueERKNSt3__112basic_stringIcNS3_11char_traitsIcEENS3_9allocatorIcEEEENS3_6vectorIN4base5ValueENS7_ISE_EEEE(%"struct.extensions::Event"*, i32, %"class.std::__1::basic_string"* dereferenceable(24), %"class.std::__1::vector.421"*) unnamed_addr #1

; Function Attrs: nounwind ssp uwtable
define hidden void @_ZThn48_N10extensions31LanguageSettingsPrivateDelegate25OnCustomDictionaryChangedERKN26SpellcheckCustomDictionary6ChangeE(%"class.extensions::LanguageSettingsPrivateDelegate"* nocapture readonly, %"class.SpellcheckCustomDictionary::Change"* dereferenceable(56)) unnamed_addr #0 align 2 {
  %3 = getelementptr inbounds %"class.extensions::LanguageSettingsPrivateDelegate", %"class.extensions::LanguageSettingsPrivateDelegate"* %0, i64 -1, i32 11, i32 0, i32 0, i32 2
  %4 = bitcast %"class.std::__1::__compressed_pair.60"* %3 to %"class.extensions::LanguageSettingsPrivateDelegate"*
  tail call void @_ZN10extensions31LanguageSettingsPrivateDelegate25OnCustomDictionaryChangedERKN26SpellcheckCustomDictionary6ChangeE(%"class.extensions::LanguageSettingsPrivateDelegate"* %4, %"class.SpellcheckCustomDictionary::Change"* dereferenceable(56) %1)
  ret void
}

; Function Attrs: nounwind ssp uwtable
define hidden void @_ZN10extensions31LanguageSettingsPrivateDelegate19RefreshDictionariesEbb(%"class.extensions::LanguageSettingsPrivateDelegate"*, i1 zeroext, i1 zeroext) local_unnamed_addr #0 align 2 {
  %4 = alloca %"class.base::internal::WeakReference", align 8
  %5 = alloca %"class.base::WeakPtr", align 8
  %6 = getelementptr inbounds %"class.extensions::LanguageSettingsPrivateDelegate", %"class.extensions::LanguageSettingsPrivateDelegate"* %0, i64 0, i32 10
  %7 = load i8, i8* %6, align 2, !range !2
  %8 = icmp eq i8 %7, 0
  br i1 %8, label %72, label %9

9:                                                ; preds = %3
  br i1 %1, label %10, label %11

10:                                               ; preds = %9
  tail call void @_ZN10extensions31LanguageSettingsPrivateDelegate25RemoveDictionaryObserversEv(%"class.extensions::LanguageSettingsPrivateDelegate"* %0)
  br label %11

11:                                               ; preds = %10, %9
  %12 = getelementptr inbounds %"class.extensions::LanguageSettingsPrivateDelegate", %"class.extensions::LanguageSettingsPrivateDelegate"* %0, i64 0, i32 5
  %13 = getelementptr inbounds %"class.std::__1::vector", %"class.std::__1::vector"* %12, i64 0, i32 0, i32 0
  %14 = load %"class.base::WeakPtr"*, %"class.base::WeakPtr"** %13, align 8
  %15 = getelementptr inbounds %"class.extensions::LanguageSettingsPrivateDelegate", %"class.extensions::LanguageSettingsPrivateDelegate"* %0, i64 0, i32 5, i32 0, i32 1
  %16 = load %"class.base::WeakPtr"*, %"class.base::WeakPtr"** %15, align 8
  %17 = icmp eq %"class.base::WeakPtr"* %16, %14
  br i1 %17, label %23, label %18

18:                                               ; preds = %11, %18
  %19 = phi %"class.base::WeakPtr"* [ %20, %18 ], [ %16, %11 ]
  %20 = getelementptr inbounds %"class.base::WeakPtr", %"class.base::WeakPtr"* %19, i64 -1
  %21 = getelementptr inbounds %"class.base::WeakPtr", %"class.base::WeakPtr"* %20, i64 0, i32 0
  tail call void @_ZN4base8internal11WeakPtrBaseD2Ev(%"class.base::internal::WeakPtrBase"* %21) #12
  %22 = icmp eq %"class.base::WeakPtr"* %20, %14
  br i1 %22, label %23, label %18

23:                                               ; preds = %18, %11
  store %"class.base::WeakPtr"* %14, %"class.base::WeakPtr"** %15, align 8
  %24 = getelementptr inbounds %"class.extensions::LanguageSettingsPrivateDelegate", %"class.extensions::LanguageSettingsPrivateDelegate"* %0, i64 0, i32 7
  %25 = load %"class.content::BrowserContext"*, %"class.content::BrowserContext"** %24, align 8
  %26 = tail call %class.SpellcheckService* @_ZN24SpellcheckServiceFactory13GetForContextEPN7content14BrowserContextE(%"class.content::BrowserContext"* %25) #12
  %27 = getelementptr inbounds %"class.extensions::LanguageSettingsPrivateDelegate", %"class.extensions::LanguageSettingsPrivateDelegate"* %0, i64 0, i32 6
  %28 = load %class.SpellcheckCustomDictionary*, %class.SpellcheckCustomDictionary** %27, align 8
  %29 = icmp eq %class.SpellcheckCustomDictionary* %28, null
  br i1 %29, label %30, label %32

30:                                               ; preds = %23
  %31 = tail call %class.SpellcheckCustomDictionary* @_ZN17SpellcheckService19GetCustomDictionaryEv(%class.SpellcheckService* %26) #12
  store %class.SpellcheckCustomDictionary* %31, %class.SpellcheckCustomDictionary** %27, align 8
  br label %32

32:                                               ; preds = %23, %30
  %33 = tail call dereferenceable(24) %"class.std::__1::vector.388"* @_ZN17SpellcheckService23GetHunspellDictionariesEv(%class.SpellcheckService* %26) #12
  %34 = getelementptr inbounds %"class.std::__1::vector.388", %"class.std::__1::vector.388"* %33, i64 0, i32 0, i32 0
  %35 = load %"class.std::__1::unique_ptr.390"*, %"class.std::__1::unique_ptr.390"** %34, align 8
  %36 = getelementptr inbounds %"class.std::__1::vector.388", %"class.std::__1::vector.388"* %33, i64 0, i32 0, i32 1
  %37 = load %"class.std::__1::unique_ptr.390"*, %"class.std::__1::unique_ptr.390"** %36, align 8
  %38 = icmp eq %"class.std::__1::unique_ptr.390"* %35, %37
  br i1 %38, label %72, label %39

39:                                               ; preds = %32
  %40 = bitcast %"class.base::WeakPtr"* %5 to i8*
  %41 = bitcast %"class.base::internal::WeakReference"* %4 to i8*
  %42 = getelementptr inbounds %"class.base::WeakPtr", %"class.base::WeakPtr"* %5, i64 0, i32 0
  %43 = getelementptr inbounds %"class.extensions::LanguageSettingsPrivateDelegate", %"class.extensions::LanguageSettingsPrivateDelegate"* %0, i64 0, i32 5, i32 0, i32 2, i32 0, i32 0
  %44 = getelementptr inbounds %"class.base::WeakPtr", %"class.base::WeakPtr"* %5, i64 0, i32 0, i32 0
  %45 = getelementptr inbounds %"class.base::WeakPtr", %"class.base::WeakPtr"* %5, i64 0, i32 0, i32 1
  %46 = bitcast %"class.base::WeakPtr"** %15 to i64*
  %47 = getelementptr inbounds %"class.extensions::LanguageSettingsPrivateDelegate", %"class.extensions::LanguageSettingsPrivateDelegate"* %0, i64 0, i32 3
  br label %48

48:                                               ; preds = %39, %69
  %49 = phi %"class.std::__1::unique_ptr.390"* [ %35, %39 ], [ %70, %69 ]
  call void @llvm.lifetime.start.p0i8(i64 16, i8* nonnull %40) #12
  %50 = getelementptr inbounds %"class.std::__1::unique_ptr.390", %"class.std::__1::unique_ptr.390"* %49, i64 0, i32 0, i32 0, i32 0
  %51 = load %class.SpellcheckHunspellDictionary*, %class.SpellcheckHunspellDictionary** %50, align 8
  %52 = getelementptr inbounds %class.SpellcheckHunspellDictionary, %class.SpellcheckHunspellDictionary* %51, i64 0, i32 1
  call void @llvm.lifetime.start.p0i8(i64 8, i8* nonnull %41) #12, !noalias !8
  %53 = getelementptr inbounds %"class.base::SupportsWeakPtr.363", %"class.base::SupportsWeakPtr.363"* %52, i64 0, i32 0
  call void @_ZNK4base8internal18WeakReferenceOwner6GetRefEv(%"class.base::internal::WeakReference"* nonnull sret %4, %"class.base::internal::WeakReferenceOwner"* %53) #12, !noalias !8
  %54 = getelementptr inbounds %"class.base::SupportsWeakPtr.363", %"class.base::SupportsWeakPtr.363"* %52, i64 -1
  %55 = ptrtoint %"class.base::SupportsWeakPtr.363"* %54 to i64
  call void @_ZN4base8internal11WeakPtrBaseC2ERKNS0_13WeakReferenceEm(%"class.base::internal::WeakPtrBase"* nonnull %42, %"class.base::internal::WeakReference"* nonnull dereferenceable(8) %4, i64 %55) #12
  call void @_ZN4base8internal13WeakReferenceD1Ev(%"class.base::internal::WeakReference"* nonnull %4) #12
  call void @llvm.lifetime.end.p0i8(i64 8, i8* nonnull %41) #12, !noalias !8
  %56 = load %"class.base::WeakPtr"*, %"class.base::WeakPtr"** %15, align 8
  %57 = load %"class.base::WeakPtr"*, %"class.base::WeakPtr"** %43, align 8
  %58 = icmp ult %"class.base::WeakPtr"* %56, %57
  br i1 %58, label %59, label %65

59:                                               ; preds = %48
  %60 = getelementptr inbounds %"class.base::WeakPtr", %"class.base::WeakPtr"* %56, i64 0, i32 0, i32 0
  call void @_ZN4base8internal13WeakReferenceC1EOS1_(%"class.base::internal::WeakReference"* %60, %"class.base::internal::WeakReference"* nonnull dereferenceable(8) %44) #12
  %61 = getelementptr inbounds %"class.base::WeakPtr", %"class.base::WeakPtr"* %56, i64 0, i32 0, i32 1
  %62 = load i64, i64* %45, align 8
  store i64 %62, i64* %61, align 8
  %63 = getelementptr inbounds %"class.base::WeakPtr", %"class.base::WeakPtr"* %56, i64 1
  %64 = ptrtoint %"class.base::WeakPtr"* %63 to i64
  store i64 %64, i64* %46, align 8
  br label %66

65:                                               ; preds = %48
  call void @_ZNSt3__16vectorIN4base7WeakPtrI28SpellcheckHunspellDictionaryEENS_9allocatorIS4_EEE21__push_back_slow_pathIS4_EEvOT_(%"class.std::__1::vector"* %12, %"class.base::WeakPtr"* nonnull dereferenceable(16) %5) #12
  br label %66

66:                                               ; preds = %59, %65
  call void @_ZN4base8internal11WeakPtrBaseD2Ev(%"class.base::internal::WeakPtrBase"* nonnull %42) #12
  call void @llvm.lifetime.end.p0i8(i64 16, i8* nonnull %40) #12
  br i1 %2, label %67, label %69

67:                                               ; preds = %66
  %68 = load %class.SpellcheckHunspellDictionary*, %class.SpellcheckHunspellDictionary** %50, align 8
  call void @_ZN28SpellcheckHunspellDictionary11AddObserverEPNS_8ObserverE(%class.SpellcheckHunspellDictionary* %68, %"class.SpellcheckHunspellDictionary::Observer"* %47) #12
  br label %69

69:                                               ; preds = %67, %66
  %70 = getelementptr inbounds %"class.std::__1::unique_ptr.390", %"class.std::__1::unique_ptr.390"* %49, i64 1
  %71 = icmp eq %"class.std::__1::unique_ptr.390"* %70, %37
  br i1 %71, label %72, label %48

72:                                               ; preds = %69, %32, %3
  ret void
}

declare %class.SpellcheckService* @_ZN24SpellcheckServiceFactory13GetForContextEPN7content14BrowserContextE(%"class.content::BrowserContext"*) local_unnamed_addr #1

declare %class.SpellcheckCustomDictionary* @_ZN17SpellcheckService19GetCustomDictionaryEv(%class.SpellcheckService*) local_unnamed_addr #1

declare dereferenceable(24) %"class.std::__1::vector.388"* @_ZN17SpellcheckService23GetHunspellDictionariesEv(%class.SpellcheckService*) local_unnamed_addr #1

; Function Attrs: nounwind
declare void @_ZN4base8internal11WeakPtrBaseD2Ev(%"class.base::internal::WeakPtrBase"*) unnamed_addr #3

declare void @_ZN28SpellcheckHunspellDictionary11AddObserverEPNS_8ObserverE(%class.SpellcheckHunspellDictionary*, %"class.SpellcheckHunspellDictionary::Observer"*) local_unnamed_addr #1

declare zeroext i1 @_ZNK10extensions11EventRouter16HasEventListenerERKNSt3__112basic_stringIcNS1_11char_traitsIcEENS1_9allocatorIcEEEE(%"class.extensions::EventRouter"*, %"class.std::__1::basic_string"* dereferenceable(24)) local_unnamed_addr #1

declare void @_ZN19PrefChangeRegistrar3AddERKNSt3__112basic_stringIcNS0_11char_traitsIcEENS0_9allocatorIcEEEERKN4base17RepeatingCallbackIFvvEEE(%class.PrefChangeRegistrar*, %"class.std::__1::basic_string"* dereferenceable(24), %"class.base::RepeatingCallback.311"* dereferenceable(8)) local_unnamed_addr #1

; Function Attrs: nounwind ssp uwtable
define hidden void @_ZN10extensions31LanguageSettingsPrivateDelegate31OnSpellcheckDictionariesChangedEv(%"class.extensions::LanguageSettingsPrivateDelegate"*) #0 align 2 {
  %2 = getelementptr inbounds %"class.extensions::LanguageSettingsPrivateDelegate", %"class.extensions::LanguageSettingsPrivateDelegate"* %0, i64 0, i32 8
  %3 = load i8, i8* %2, align 8, !range !2
  %4 = icmp ne i8 %3, 0
  tail call void @_ZN10extensions31LanguageSettingsPrivateDelegate19RefreshDictionariesEbb(%"class.extensions::LanguageSettingsPrivateDelegate"* %0, i1 zeroext %4, i1 zeroext %4)
  tail call void @_ZN10extensions31LanguageSettingsPrivateDelegate33BroadcastDictionariesChangedEventEv(%"class.extensions::LanguageSettingsPrivateDelegate"* %0)
  ret void
}

; Function Attrs: nounwind
declare void @_ZN4base8internal12CallbackBaseD2Ev(%"class.base::internal::CallbackBase"*) unnamed_addr #3

declare void @_ZN26SpellcheckCustomDictionary11AddObserverEPNS_8ObserverE(%class.SpellcheckCustomDictionary*, %"class.SpellcheckCustomDictionary::Observer"*) local_unnamed_addr #1

declare void @_ZN19PrefChangeRegistrar6RemoveERKNSt3__112basic_stringIcNS0_11char_traitsIcEENS0_9allocatorIcEEEE(%class.PrefChangeRegistrar*, %"class.std::__1::basic_string"* dereferenceable(24)) local_unnamed_addr #1

declare void @_ZN26SpellcheckCustomDictionary14RemoveObserverEPNS_8ObserverE(%class.SpellcheckCustomDictionary*, %"class.SpellcheckCustomDictionary::Observer"*) local_unnamed_addr #1

; Function Attrs: nounwind ssp uwtable
define hidden void @_ZN10extensions31LanguageSettingsPrivateDelegate31RetryDownloadHunspellDictionaryERKNSt3__112basic_stringIcNS1_11char_traitsIcEENS1_9allocatorIcEEEE(%"class.extensions::LanguageSettingsPrivateDelegate"*, %"class.std::__1::basic_string"* nocapture readonly dereferenceable(24)) unnamed_addr #0 align 2 {
  %3 = alloca %"class.logging::CheckError", align 8
  %4 = alloca %"class.logging::CheckError", align 8
  %5 = getelementptr inbounds %"class.extensions::LanguageSettingsPrivateDelegate", %"class.extensions::LanguageSettingsPrivateDelegate"* %0, i64 0, i32 5, i32 0, i32 0
  %6 = load %"class.base::WeakPtr"*, %"class.base::WeakPtr"** %5, align 8
  %7 = getelementptr inbounds %"class.extensions::LanguageSettingsPrivateDelegate", %"class.extensions::LanguageSettingsPrivateDelegate"* %0, i64 0, i32 5, i32 0, i32 1
  %8 = load %"class.base::WeakPtr"*, %"class.base::WeakPtr"** %7, align 8
  %9 = icmp eq %"class.base::WeakPtr"* %6, %8
  br i1 %9, label %18, label %10

10:                                               ; preds = %2
  %11 = getelementptr inbounds %"class.base::WeakPtr", %"class.base::WeakPtr"* %6, i64 0, i32 0, i32 0
  %12 = tail call zeroext i1 @_ZNK4base8internal13WeakReference7IsValidEv(%"class.base::internal::WeakReference"* %11) #12
  br i1 %12, label %13, label %18

13:                                               ; preds = %10
  %14 = getelementptr inbounds %"class.base::WeakPtr", %"class.base::WeakPtr"* %6, i64 0, i32 0, i32 1
  %15 = bitcast i64* %14 to %class.SpellcheckHunspellDictionary**
  %16 = load %class.SpellcheckHunspellDictionary*, %class.SpellcheckHunspellDictionary** %15, align 8
  %17 = icmp eq %class.SpellcheckHunspellDictionary* %16, null
  br i1 %17, label %18, label %22

18:                                               ; preds = %13, %10, %2
  %19 = getelementptr inbounds %"class.extensions::LanguageSettingsPrivateDelegate", %"class.extensions::LanguageSettingsPrivateDelegate"* %0, i64 0, i32 8
  %20 = load i8, i8* %19, align 8, !range !2
  %21 = icmp ne i8 %20, 0
  tail call void @_ZN10extensions31LanguageSettingsPrivateDelegate19RefreshDictionariesEbb(%"class.extensions::LanguageSettingsPrivateDelegate"* %0, i1 zeroext %21, i1 zeroext %21) #12
  br label %22

22:                                               ; preds = %13, %18
  %23 = load %"class.base::WeakPtr"*, %"class.base::WeakPtr"** %5, align 8
  %24 = load %"class.base::WeakPtr"*, %"class.base::WeakPtr"** %7, align 8
  %25 = icmp eq %"class.base::WeakPtr"* %23, %24
  br i1 %25, label %114, label %26

26:                                               ; preds = %22
  %27 = bitcast %"class.logging::CheckError"* %3 to i8*
  %28 = bitcast %"class.std::__1::basic_string"* %1 to %"struct.std::__1::basic_string<char, std::__1::char_traits<char>, std::__1::allocator<char> >::__short"*
  %29 = getelementptr inbounds %"struct.std::__1::basic_string<char, std::__1::char_traits<char>, std::__1::allocator<char> >::__short", %"struct.std::__1::basic_string<char, std::__1::char_traits<char>, std::__1::allocator<char> >::__short"* %28, i64 0, i32 1, i32 0
  %30 = getelementptr inbounds %"class.std::__1::basic_string", %"class.std::__1::basic_string"* %1, i64 0, i32 0, i32 0, i32 0, i32 0, i32 0, i32 1
  %31 = getelementptr inbounds %"class.std::__1::basic_string", %"class.std::__1::basic_string"* %1, i64 0, i32 0, i32 0, i32 0, i32 0, i32 0, i32 0
  %32 = bitcast %"class.std::__1::basic_string"* %1 to i8*
  br label %33

33:                                               ; preds = %26, %111
  %34 = phi %"class.base::WeakPtr"* [ %23, %26 ], [ %112, %111 ]
  %35 = getelementptr inbounds %"class.base::WeakPtr", %"class.base::WeakPtr"* %34, i64 0, i32 0, i32 0
  %36 = call zeroext i1 @_ZNK4base8internal13WeakReference7IsValidEv(%"class.base::internal::WeakReference"* %35) #12
  br i1 %36, label %37, label %111

37:                                               ; preds = %33
  %38 = getelementptr inbounds %"class.base::WeakPtr", %"class.base::WeakPtr"* %34, i64 0, i32 0, i32 1
  %39 = bitcast i64* %38 to %class.SpellcheckHunspellDictionary**
  %40 = load %class.SpellcheckHunspellDictionary*, %class.SpellcheckHunspellDictionary** %39, align 8
  %41 = icmp eq %class.SpellcheckHunspellDictionary* %40, null
  br i1 %41, label %111, label %42

42:                                               ; preds = %37
  %43 = call zeroext i1 @_ZNK4base8internal13WeakReference7IsValidEv(%"class.base::internal::WeakReference"* %35) #12
  br i1 %43, label %46, label %44

44:                                               ; preds = %42
  call void @llvm.lifetime.start.p0i8(i64 8, i8* nonnull %27) #12
  call void @_ZN7logging10CheckError5CheckEPKciS2_(%"class.logging::CheckError"* nonnull sret %3, i8* getelementptr inbounds ([29 x i8], [29 x i8]* @.str.1, i64 0, i64 0), i32 255, i8* getelementptr inbounds ([15 x i8], [15 x i8]* @.str.2, i64 0, i64 0)) #12
  %45 = call dereferenceable(160) %"class.std::__1::basic_ostream"* @_ZN7logging10CheckError6streamEv(%"class.logging::CheckError"* nonnull %3) #12
  call void @_ZN7logging10CheckErrorD1Ev(%"class.logging::CheckError"* nonnull %3) #12
  call void @llvm.lifetime.end.p0i8(i64 8, i8* nonnull %27) #12
  br label %46

46:                                               ; preds = %44, %42
  %47 = call zeroext i1 @_ZNK4base8internal13WeakReference7IsValidEv(%"class.base::internal::WeakReference"* %35) #12
  br i1 %47, label %48, label %50

48:                                               ; preds = %46
  %49 = load %class.SpellcheckHunspellDictionary*, %class.SpellcheckHunspellDictionary** %39, align 8
  br label %50

50:                                               ; preds = %46, %48
  %51 = phi %class.SpellcheckHunspellDictionary* [ %49, %48 ], [ null, %46 ]
  %52 = call dereferenceable(24) %"class.std::__1::basic_string"* @_ZNK28SpellcheckHunspellDictionary11GetLanguageEv(%class.SpellcheckHunspellDictionary* %51) #12
  %53 = bitcast %"class.std::__1::basic_string"* %52 to %"struct.std::__1::basic_string<char, std::__1::char_traits<char>, std::__1::allocator<char> >::__short"*
  %54 = getelementptr inbounds %"struct.std::__1::basic_string<char, std::__1::char_traits<char>, std::__1::allocator<char> >::__short", %"struct.std::__1::basic_string<char, std::__1::char_traits<char>, std::__1::allocator<char> >::__short"* %53, i64 0, i32 1, i32 0
  %55 = load i8, i8* %54, align 1
  %56 = icmp slt i8 %55, 0
  %57 = getelementptr inbounds %"class.std::__1::basic_string", %"class.std::__1::basic_string"* %52, i64 0, i32 0, i32 0, i32 0, i32 0, i32 0, i32 1
  %58 = load i64, i64* %57, align 8
  %59 = zext i8 %55 to i64
  %60 = select i1 %56, i64 %58, i64 %59
  %61 = load i8, i8* %29, align 1
  %62 = icmp slt i8 %61, 0
  %63 = load i64, i64* %30, align 8
  %64 = zext i8 %61 to i64
  %65 = select i1 %62, i64 %63, i64 %64
  %66 = icmp eq i64 %60, %65
  br i1 %66, label %67, label %111

67:                                               ; preds = %50
  %68 = getelementptr inbounds %"class.std::__1::basic_string", %"class.std::__1::basic_string"* %52, i64 0, i32 0, i32 0, i32 0, i32 0, i32 0, i32 0
  %69 = load i8*, i8** %68, align 8
  %70 = bitcast %"class.std::__1::basic_string"* %52 to i8*
  %71 = select i1 %56, i8* %69, i8* %70
  %72 = load i8*, i8** %31, align 8
  %73 = select i1 %62, i8* %72, i8* %32
  %74 = icmp eq i64 %60, 0
  br i1 %56, label %81, label %75

75:                                               ; preds = %67
  br i1 %74, label %97, label %76

76:                                               ; preds = %75
  %77 = ptrtoint i8* %69 to i64
  %78 = trunc i64 %77 to i8
  %79 = load i8, i8* %73, align 1
  %80 = icmp eq i8 %79, %78
  br i1 %80, label %82, label %111

81:                                               ; preds = %67
  br i1 %74, label %97, label %94

82:                                               ; preds = %76, %89
  %83 = phi i64 [ %86, %89 ], [ %59, %76 ]
  %84 = phi i8* [ %87, %89 ], [ %70, %76 ]
  %85 = phi i8* [ %90, %89 ], [ %73, %76 ]
  %86 = add i64 %83, -1
  %87 = getelementptr inbounds i8, i8* %84, i64 1
  %88 = icmp eq i64 %86, 0
  br i1 %88, label %97, label %89

89:                                               ; preds = %82
  %90 = getelementptr inbounds i8, i8* %85, i64 1
  %91 = load i8, i8* %87, align 1
  %92 = load i8, i8* %90, align 1
  %93 = icmp eq i8 %91, %92
  br i1 %93, label %82, label %111

94:                                               ; preds = %81
  %95 = call i32 @bcmp(i8* %71, i8* %73, i64 %60) #12
  %96 = icmp eq i32 %95, 0
  br i1 %96, label %97, label %111

97:                                               ; preds = %75, %81, %94, %82
  %98 = bitcast i64* %38 to %class.SpellcheckHunspellDictionary**
  %99 = call zeroext i1 @_ZNK4base8internal13WeakReference7IsValidEv(%"class.base::internal::WeakReference"* %35) #12
  br i1 %99, label %103, label %100

100:                                              ; preds = %97
  %101 = bitcast %"class.logging::CheckError"* %4 to i8*
  call void @llvm.lifetime.start.p0i8(i64 8, i8* nonnull %101) #12
  call void @_ZN7logging10CheckError5CheckEPKciS2_(%"class.logging::CheckError"* nonnull sret %4, i8* getelementptr inbounds ([29 x i8], [29 x i8]* @.str.1, i64 0, i64 0), i32 255, i8* getelementptr inbounds ([15 x i8], [15 x i8]* @.str.2, i64 0, i64 0)) #12
  %102 = call dereferenceable(160) %"class.std::__1::basic_ostream"* @_ZN7logging10CheckError6streamEv(%"class.logging::CheckError"* nonnull %4) #12
  call void @_ZN7logging10CheckErrorD1Ev(%"class.logging::CheckError"* nonnull %4) #12
  call void @llvm.lifetime.end.p0i8(i64 8, i8* nonnull %101) #12
  br label %103

103:                                              ; preds = %100, %97
  %104 = call zeroext i1 @_ZNK4base8internal13WeakReference7IsValidEv(%"class.base::internal::WeakReference"* %35) #12
  br i1 %104, label %105, label %107

105:                                              ; preds = %103
  %106 = load %class.SpellcheckHunspellDictionary*, %class.SpellcheckHunspellDictionary** %98, align 8
  br label %107

107:                                              ; preds = %103, %105
  %108 = phi %class.SpellcheckHunspellDictionary* [ %106, %105 ], [ null, %103 ]
  %109 = getelementptr inbounds %"class.extensions::LanguageSettingsPrivateDelegate", %"class.extensions::LanguageSettingsPrivateDelegate"* %0, i64 0, i32 7
  %110 = load %"class.content::BrowserContext"*, %"class.content::BrowserContext"** %109, align 8
  call void @_ZN28SpellcheckHunspellDictionary23RetryDownloadDictionaryEPN7content14BrowserContextE(%class.SpellcheckHunspellDictionary* %108, %"class.content::BrowserContext"* %110) #12
  br label %114

111:                                              ; preds = %89, %76, %37, %50, %33, %94
  %112 = getelementptr inbounds %"class.base::WeakPtr", %"class.base::WeakPtr"* %34, i64 1
  %113 = icmp eq %"class.base::WeakPtr"* %112, %24
  br i1 %113, label %114, label %33

114:                                              ; preds = %111, %22, %107
  ret void
}

declare void @_ZN28SpellcheckHunspellDictionary23RetryDownloadDictionaryEPN7content14BrowserContextE(%class.SpellcheckHunspellDictionary*, %"class.content::BrowserContext"*) local_unnamed_addr #1

declare void @_ZN10extensions3api25language_settings_private31OnSpellcheckDictionariesChanged6CreateERKNSt3__16vectorINS1_26SpellcheckDictionaryStatusENS3_9allocatorIS5_EEEE(%"class.std::__1::vector.421"* sret, %"class.std::__1::vector.350"* dereferenceable(24)) local_unnamed_addr #1

declare void @_ZN28SpellcheckHunspellDictionary14RemoveObserverEPNS_8ObserverE(%class.SpellcheckHunspellDictionary*, %"class.SpellcheckHunspellDictionary::Observer"*) local_unnamed_addr #1

declare void @_ZN4base15CheckedObserverC2Ev(%"class.base::CheckedObserver"*) unnamed_addr #1

; Function Attrs: nounwind
declare void @_ZN4base15CheckedObserverD2Ev(%"class.base::CheckedObserver"*) unnamed_addr #3

; Function Attrs: argmemonly nounwind
declare void @llvm.memcpy.p0i8.p0i8.i64(i8* nocapture writeonly, i8* nocapture readonly, i64, i1 immarg) #2

declare dereferenceable(24) %"class.std::__1::basic_string"* @_ZNSt3__112basic_stringIcNS_11char_traitsIcEENS_9allocatorIcEEE17__assign_no_aliasILb1EEERS5_PKcm(%"class.std::__1::basic_string"*, i8*, i64) local_unnamed_addr #1

declare dereferenceable(24) %"class.std::__1::basic_string"* @_ZNSt3__112basic_stringIcNS_11char_traitsIcEENS_9allocatorIcEEE17__assign_no_aliasILb0EEERS5_PKcm(%"class.std::__1::basic_string"*, i8*, i64) local_unnamed_addr #1

; Function Attrs: noreturn
declare void @_ZNKSt3__121__basic_string_commonILb1EE20__throw_length_errorEv(%"class.std::__1::__basic_string_common"*) local_unnamed_addr #7

; Function Attrs: noreturn nounwind
declare void @abort() local_unnamed_addr #8

; Function Attrs: argmemonly nofree nounwind readonly
declare i64 @strlen(i8* nocapture) local_unnamed_addr #9

declare zeroext i1 @_ZNK4base8internal13WeakReference7IsValidEv(%"class.base::internal::WeakReference"*) local_unnamed_addr #1

declare void @_ZN7logging10CheckError5CheckEPKciS2_(%"class.logging::CheckError"* sret, i8*, i32, i8*) local_unnamed_addr #1

declare dereferenceable(160) %"class.std::__1::basic_ostream"* @_ZN7logging10CheckError6streamEv(%"class.logging::CheckError"*) local_unnamed_addr #1

; Function Attrs: nounwind
declare void @_ZN7logging10CheckErrorD1Ev(%"class.logging::CheckError"*) unnamed_addr #3

; Function Attrs: inlinehint nounwind ssp uwtable
define linkonce_odr hidden void @_ZNSt3__16vectorIN10extensions3api25language_settings_private26SpellcheckDictionaryStatusENS_9allocatorIS4_EEE21__push_back_slow_pathIS4_EEvOT_(%"class.std::__1::vector.350"*, %"struct.extensions::api::language_settings_private::SpellcheckDictionaryStatus"* dereferenceable(48)) local_unnamed_addr #10 comdat align 2 {
  %3 = getelementptr inbounds %"class.std::__1::vector.350", %"class.std::__1::vector.350"* %0, i64 0, i32 0, i32 1
  %4 = bitcast %"struct.extensions::api::language_settings_private::SpellcheckDictionaryStatus"** %3 to i64*
  %5 = load i64, i64* %4, align 8
  %6 = bitcast %"class.std::__1::vector.350"* %0 to i64*
  %7 = load i64, i64* %6, align 8
  %8 = sub i64 %5, %7
  %9 = sdiv exact i64 %8, 48
  %10 = add nsw i64 %9, 1
  %11 = icmp ugt i64 %10, 384307168202282325
  br i1 %11, label %12, label %14

12:                                               ; preds = %2
  %13 = bitcast %"class.std::__1::vector.350"* %0 to %"class.std::__1::__vector_base_common"*
  tail call void @_ZNKSt3__120__vector_base_commonILb1EE20__throw_length_errorEv(%"class.std::__1::__vector_base_common"* %13) #13
  unreachable

14:                                               ; preds = %2
  %15 = getelementptr inbounds %"class.std::__1::vector.350", %"class.std::__1::vector.350"* %0, i64 0, i32 0, i32 2, i32 0, i32 0
  %16 = bitcast %"struct.extensions::api::language_settings_private::SpellcheckDictionaryStatus"** %15 to i64*
  %17 = load i64, i64* %16, align 8
  %18 = sub i64 %17, %7
  %19 = sdiv exact i64 %18, 48
  %20 = icmp ult i64 %19, 192153584101141162
  br i1 %20, label %21, label %26

21:                                               ; preds = %14
  %22 = shl nsw i64 %19, 1
  %23 = icmp ult i64 %22, %10
  %24 = select i1 %23, i64 %10, i64 %22
  %25 = icmp eq i64 %24, 0
  br i1 %25, label %31, label %26

26:                                               ; preds = %14, %21
  %27 = phi i64 [ %24, %21 ], [ 384307168202282325, %14 ]
  %28 = mul i64 %27, 48
  %29 = tail call i8* @_Znwm(i64 %28) #14
  %30 = bitcast i8* %29 to %"struct.extensions::api::language_settings_private::SpellcheckDictionaryStatus"*
  br label %31

31:                                               ; preds = %21, %26
  %32 = phi i64 [ %27, %26 ], [ 0, %21 ]
  %33 = phi %"struct.extensions::api::language_settings_private::SpellcheckDictionaryStatus"* [ %30, %26 ], [ null, %21 ]
  %34 = getelementptr inbounds %"struct.extensions::api::language_settings_private::SpellcheckDictionaryStatus", %"struct.extensions::api::language_settings_private::SpellcheckDictionaryStatus"* %33, i64 %9
  %35 = getelementptr inbounds %"struct.extensions::api::language_settings_private::SpellcheckDictionaryStatus", %"struct.extensions::api::language_settings_private::SpellcheckDictionaryStatus"* %33, i64 %32
  %36 = ptrtoint %"struct.extensions::api::language_settings_private::SpellcheckDictionaryStatus"* %35 to i64
  tail call void @_ZN10extensions3api25language_settings_private26SpellcheckDictionaryStatusC1EOS2_(%"struct.extensions::api::language_settings_private::SpellcheckDictionaryStatus"* %34, %"struct.extensions::api::language_settings_private::SpellcheckDictionaryStatus"* dereferenceable(48) %1) #12
  %37 = getelementptr inbounds %"struct.extensions::api::language_settings_private::SpellcheckDictionaryStatus", %"struct.extensions::api::language_settings_private::SpellcheckDictionaryStatus"* %34, i64 1
  %38 = ptrtoint %"struct.extensions::api::language_settings_private::SpellcheckDictionaryStatus"* %37 to i64
  %39 = getelementptr inbounds %"class.std::__1::vector.350", %"class.std::__1::vector.350"* %0, i64 0, i32 0, i32 0
  %40 = load %"struct.extensions::api::language_settings_private::SpellcheckDictionaryStatus"*, %"struct.extensions::api::language_settings_private::SpellcheckDictionaryStatus"** %39, align 8
  %41 = load %"struct.extensions::api::language_settings_private::SpellcheckDictionaryStatus"*, %"struct.extensions::api::language_settings_private::SpellcheckDictionaryStatus"** %3, align 8
  %42 = icmp eq %"struct.extensions::api::language_settings_private::SpellcheckDictionaryStatus"* %41, %40
  br i1 %42, label %43, label %45

43:                                               ; preds = %31
  %44 = ptrtoint %"struct.extensions::api::language_settings_private::SpellcheckDictionaryStatus"* %40 to i64
  br label %54

45:                                               ; preds = %31, %45
  %46 = phi %"struct.extensions::api::language_settings_private::SpellcheckDictionaryStatus"* [ %48, %45 ], [ %34, %31 ]
  %47 = phi %"struct.extensions::api::language_settings_private::SpellcheckDictionaryStatus"* [ %49, %45 ], [ %41, %31 ]
  %48 = getelementptr inbounds %"struct.extensions::api::language_settings_private::SpellcheckDictionaryStatus", %"struct.extensions::api::language_settings_private::SpellcheckDictionaryStatus"* %46, i64 -1
  %49 = getelementptr inbounds %"struct.extensions::api::language_settings_private::SpellcheckDictionaryStatus", %"struct.extensions::api::language_settings_private::SpellcheckDictionaryStatus"* %47, i64 -1
  tail call void @_ZN10extensions3api25language_settings_private26SpellcheckDictionaryStatusC1EOS2_(%"struct.extensions::api::language_settings_private::SpellcheckDictionaryStatus"* %48, %"struct.extensions::api::language_settings_private::SpellcheckDictionaryStatus"* dereferenceable(48) %49) #12
  %50 = icmp eq %"struct.extensions::api::language_settings_private::SpellcheckDictionaryStatus"* %49, %40
  br i1 %50, label %51, label %45

51:                                               ; preds = %45
  %52 = load i64, i64* %6, align 8
  %53 = load %"struct.extensions::api::language_settings_private::SpellcheckDictionaryStatus"*, %"struct.extensions::api::language_settings_private::SpellcheckDictionaryStatus"** %3, align 8
  br label %54

54:                                               ; preds = %43, %51
  %55 = phi %"struct.extensions::api::language_settings_private::SpellcheckDictionaryStatus"* [ %40, %43 ], [ %53, %51 ]
  %56 = phi %"struct.extensions::api::language_settings_private::SpellcheckDictionaryStatus"* [ %34, %43 ], [ %48, %51 ]
  %57 = phi i64 [ %44, %43 ], [ %52, %51 ]
  %58 = ptrtoint %"struct.extensions::api::language_settings_private::SpellcheckDictionaryStatus"* %56 to i64
  store i64 %58, i64* %6, align 8
  store i64 %38, i64* %4, align 8
  store i64 %36, i64* %16, align 8
  %59 = inttoptr i64 %57 to %"struct.extensions::api::language_settings_private::SpellcheckDictionaryStatus"*
  %60 = icmp eq %"struct.extensions::api::language_settings_private::SpellcheckDictionaryStatus"* %55, %59
  br i1 %60, label %65, label %61

61:                                               ; preds = %54, %61
  %62 = phi %"struct.extensions::api::language_settings_private::SpellcheckDictionaryStatus"* [ %63, %61 ], [ %55, %54 ]
  %63 = getelementptr inbounds %"struct.extensions::api::language_settings_private::SpellcheckDictionaryStatus", %"struct.extensions::api::language_settings_private::SpellcheckDictionaryStatus"* %62, i64 -1
  tail call void @_ZN10extensions3api25language_settings_private26SpellcheckDictionaryStatusD1Ev(%"struct.extensions::api::language_settings_private::SpellcheckDictionaryStatus"* %63) #12
  %64 = icmp eq %"struct.extensions::api::language_settings_private::SpellcheckDictionaryStatus"* %63, %59
  br i1 %64, label %65, label %61

65:                                               ; preds = %61, %54
  %66 = icmp eq i64 %57, 0
  br i1 %66, label %69, label %67

67:                                               ; preds = %65
  %68 = inttoptr i64 %57 to i8*
  tail call void @_ZdlPv(i8* %68) #14
  br label %69

69:                                               ; preds = %65, %67
  ret void
}

declare void @_ZN10extensions3api25language_settings_private26SpellcheckDictionaryStatusC1EOS2_(%"struct.extensions::api::language_settings_private::SpellcheckDictionaryStatus"*, %"struct.extensions::api::language_settings_private::SpellcheckDictionaryStatus"* dereferenceable(48)) unnamed_addr #1

; Function Attrs: noreturn
declare void @_ZNKSt3__120__vector_base_commonILb1EE20__throw_length_errorEv(%"class.std::__1::__vector_base_common"*) local_unnamed_addr #7

declare i32 @_ZNKSt3__112basic_stringIcNS_11char_traitsIcEENS_9allocatorIcEEE7compareEmmPKcm(%"class.std::__1::basic_string"*, i64, i64, i8*, i64) local_unnamed_addr #1

declare void @_ZNSt3__112basic_stringIcNS_11char_traitsIcEENS_9allocatorIcEEE25__init_copy_ctor_externalEPKcm(%"class.std::__1::basic_string"*, i8*, i64) local_unnamed_addr #1

; Function Attrs: nounwind
declare void @_ZN4base5ValueD1Ev(%"class.base::Value"*) unnamed_addr #3

declare void @_ZNK4base8internal18WeakReferenceOwner6GetRefEv(%"class.base::internal::WeakReference"* sret, %"class.base::internal::WeakReferenceOwner"*) local_unnamed_addr #1

; Function Attrs: nounwind
declare void @_ZN4base8internal13WeakReferenceD1Ev(%"class.base::internal::WeakReference"*) unnamed_addr #3

declare void @_ZN4base8internal11WeakPtrBaseC2ERKNS0_13WeakReferenceEm(%"class.base::internal::WeakPtrBase"*, %"class.base::internal::WeakReference"* dereferenceable(8), i64) unnamed_addr #1

; Function Attrs: inlinehint nounwind ssp uwtable
define linkonce_odr hidden void @_ZNSt3__16vectorIN4base7WeakPtrI28SpellcheckHunspellDictionaryEENS_9allocatorIS4_EEE21__push_back_slow_pathIS4_EEvOT_(%"class.std::__1::vector"*, %"class.base::WeakPtr"* dereferenceable(16)) local_unnamed_addr #10 comdat align 2 {
  %3 = getelementptr inbounds %"class.std::__1::vector", %"class.std::__1::vector"* %0, i64 0, i32 0, i32 1
  %4 = bitcast %"class.base::WeakPtr"** %3 to i64*
  %5 = load i64, i64* %4, align 8
  %6 = bitcast %"class.std::__1::vector"* %0 to i64*
  %7 = load i64, i64* %6, align 8
  %8 = sub i64 %5, %7
  %9 = ashr exact i64 %8, 4
  %10 = add nsw i64 %9, 1
  %11 = icmp ugt i64 %10, 1152921504606846975
  br i1 %11, label %12, label %14

12:                                               ; preds = %2
  %13 = bitcast %"class.std::__1::vector"* %0 to %"class.std::__1::__vector_base_common"*
  tail call void @_ZNKSt3__120__vector_base_commonILb1EE20__throw_length_errorEv(%"class.std::__1::__vector_base_common"* %13) #13
  unreachable

14:                                               ; preds = %2
  %15 = getelementptr inbounds %"class.std::__1::vector", %"class.std::__1::vector"* %0, i64 0, i32 0, i32 2, i32 0, i32 0
  %16 = bitcast %"class.base::WeakPtr"** %15 to i64*
  %17 = load i64, i64* %16, align 8
  %18 = sub i64 %17, %7
  %19 = ashr exact i64 %18, 4
  %20 = icmp ult i64 %19, 576460752303423487
  br i1 %20, label %21, label %29

21:                                               ; preds = %14
  %22 = ashr exact i64 %18, 3
  %23 = icmp ult i64 %22, %10
  %24 = select i1 %23, i64 %10, i64 %22
  %25 = icmp eq i64 %24, 0
  br i1 %25, label %34, label %26

26:                                               ; preds = %21
  %27 = icmp ugt i64 %24, 1152921504606846975
  br i1 %27, label %28, label %29

28:                                               ; preds = %26
  tail call void @abort() #13
  unreachable

29:                                               ; preds = %14, %26
  %30 = phi i64 [ %24, %26 ], [ 1152921504606846975, %14 ]
  %31 = shl i64 %30, 4
  %32 = tail call i8* @_Znwm(i64 %31) #14
  %33 = bitcast i8* %32 to %"class.base::WeakPtr"*
  br label %34

34:                                               ; preds = %21, %29
  %35 = phi i64 [ %30, %29 ], [ 0, %21 ]
  %36 = phi %"class.base::WeakPtr"* [ %33, %29 ], [ null, %21 ]
  %37 = getelementptr inbounds %"class.base::WeakPtr", %"class.base::WeakPtr"* %36, i64 %9
  %38 = getelementptr inbounds %"class.base::WeakPtr", %"class.base::WeakPtr"* %36, i64 %35
  %39 = ptrtoint %"class.base::WeakPtr"* %38 to i64
  %40 = getelementptr inbounds %"class.base::WeakPtr", %"class.base::WeakPtr"* %37, i64 0, i32 0, i32 0
  %41 = getelementptr inbounds %"class.base::WeakPtr", %"class.base::WeakPtr"* %1, i64 0, i32 0, i32 0
  tail call void @_ZN4base8internal13WeakReferenceC1EOS1_(%"class.base::internal::WeakReference"* %40, %"class.base::internal::WeakReference"* dereferenceable(8) %41) #12
  %42 = getelementptr inbounds %"class.base::WeakPtr", %"class.base::WeakPtr"* %36, i64 %9, i32 0, i32 1
  %43 = getelementptr inbounds %"class.base::WeakPtr", %"class.base::WeakPtr"* %1, i64 0, i32 0, i32 1
  %44 = load i64, i64* %43, align 8
  store i64 %44, i64* %42, align 8
  %45 = getelementptr inbounds %"class.base::WeakPtr", %"class.base::WeakPtr"* %37, i64 1
  %46 = ptrtoint %"class.base::WeakPtr"* %45 to i64
  %47 = getelementptr inbounds %"class.std::__1::vector", %"class.std::__1::vector"* %0, i64 0, i32 0, i32 0
  %48 = load %"class.base::WeakPtr"*, %"class.base::WeakPtr"** %47, align 8
  %49 = load %"class.base::WeakPtr"*, %"class.base::WeakPtr"** %3, align 8
  %50 = icmp eq %"class.base::WeakPtr"* %49, %48
  br i1 %50, label %51, label %53

51:                                               ; preds = %34
  %52 = ptrtoint %"class.base::WeakPtr"* %48 to i64
  br label %67

53:                                               ; preds = %34, %53
  %54 = phi %"class.base::WeakPtr"* [ %62, %53 ], [ %37, %34 ]
  %55 = phi %"class.base::WeakPtr"* [ %56, %53 ], [ %49, %34 ]
  %56 = getelementptr inbounds %"class.base::WeakPtr", %"class.base::WeakPtr"* %55, i64 -1
  %57 = getelementptr inbounds %"class.base::WeakPtr", %"class.base::WeakPtr"* %54, i64 -1, i32 0, i32 0
  %58 = getelementptr inbounds %"class.base::WeakPtr", %"class.base::WeakPtr"* %56, i64 0, i32 0, i32 0
  tail call void @_ZN4base8internal13WeakReferenceC1EOS1_(%"class.base::internal::WeakReference"* %57, %"class.base::internal::WeakReference"* dereferenceable(8) %58) #12
  %59 = getelementptr inbounds %"class.base::WeakPtr", %"class.base::WeakPtr"* %54, i64 -1, i32 0, i32 1
  %60 = getelementptr inbounds %"class.base::WeakPtr", %"class.base::WeakPtr"* %55, i64 -1, i32 0, i32 1
  %61 = load i64, i64* %60, align 8
  store i64 %61, i64* %59, align 8
  %62 = getelementptr inbounds %"class.base::WeakPtr", %"class.base::WeakPtr"* %54, i64 -1
  %63 = icmp eq %"class.base::WeakPtr"* %56, %48
  br i1 %63, label %64, label %53

64:                                               ; preds = %53
  %65 = load i64, i64* %6, align 8
  %66 = load %"class.base::WeakPtr"*, %"class.base::WeakPtr"** %3, align 8
  br label %67

67:                                               ; preds = %51, %64
  %68 = phi %"class.base::WeakPtr"* [ %48, %51 ], [ %66, %64 ]
  %69 = phi %"class.base::WeakPtr"* [ %37, %51 ], [ %62, %64 ]
  %70 = phi i64 [ %52, %51 ], [ %65, %64 ]
  %71 = ptrtoint %"class.base::WeakPtr"* %69 to i64
  store i64 %71, i64* %6, align 8
  store i64 %46, i64* %4, align 8
  store i64 %39, i64* %16, align 8
  %72 = inttoptr i64 %70 to %"class.base::WeakPtr"*
  %73 = icmp eq %"class.base::WeakPtr"* %68, %72
  br i1 %73, label %79, label %74

74:                                               ; preds = %67, %74
  %75 = phi %"class.base::WeakPtr"* [ %76, %74 ], [ %68, %67 ]
  %76 = getelementptr inbounds %"class.base::WeakPtr", %"class.base::WeakPtr"* %75, i64 -1
  %77 = getelementptr inbounds %"class.base::WeakPtr", %"class.base::WeakPtr"* %76, i64 0, i32 0
  tail call void @_ZN4base8internal11WeakPtrBaseD2Ev(%"class.base::internal::WeakPtrBase"* %77) #12
  %78 = icmp eq %"class.base::WeakPtr"* %76, %72
  br i1 %78, label %79, label %74

79:                                               ; preds = %74, %67
  %80 = icmp eq i64 %70, 0
  br i1 %80, label %83, label %81

81:                                               ; preds = %79
  %82 = inttoptr i64 %70 to i8*
  tail call void @_ZdlPv(i8* %82) #14
  br label %83

83:                                               ; preds = %79, %81
  ret void
}

; Function Attrs: nounwind
declare void @_ZN4base8internal13WeakReferenceC1EOS1_(%"class.base::internal::WeakReference"*, %"class.base::internal::WeakReference"* dereferenceable(8)) unnamed_addr #3

; Function Attrs: nounwind ssp uwtable
define linkonce_odr hidden void @_ZN4base8internal7InvokerINS0_9BindStateIMN10extensions31LanguageSettingsPrivateDelegateEFvvEJNS0_17UnretainedWrapperIS4_EEEEEFvvEE3RunEPNS0_13BindStateBaseE(%"class.base::internal::BindStateBase"*) #0 comdat align 2 {
  %2 = getelementptr inbounds %"class.base::internal::BindStateBase", %"class.base::internal::BindStateBase"* %0, i64 1
  %3 = getelementptr inbounds %"class.base::internal::BindStateBase", %"class.base::internal::BindStateBase"* %0, i64 1, i32 2
  %4 = bitcast void (%"class.base::internal::BindStateBase"*)** %3 to i8**
  %5 = load i8*, i8** %4, align 8
  %6 = bitcast %"class.base::internal::BindStateBase"* %2 to i64*
  %7 = load i64, i64* %6, align 8
  %8 = getelementptr inbounds %"class.base::internal::BindStateBase", %"class.base::internal::BindStateBase"* %0, i64 1, i32 1
  %9 = bitcast void ()** %8 to i64*
  %10 = load i64, i64* %9, align 8
  %11 = getelementptr inbounds i8, i8* %5, i64 %10
  %12 = bitcast i8* %11 to %"class.extensions::LanguageSettingsPrivateDelegate"*
  %13 = and i64 %7, 1
  %14 = icmp eq i64 %13, 0
  br i1 %14, label %22, label %15

15:                                               ; preds = %1
  %16 = bitcast i8* %11 to i8**
  %17 = load i8*, i8** %16, align 8
  %18 = add i64 %7, -1
  %19 = getelementptr i8, i8* %17, i64 %18
  %20 = bitcast i8* %19 to void (%"class.extensions::LanguageSettingsPrivateDelegate"*)**
  %21 = load void (%"class.extensions::LanguageSettingsPrivateDelegate"*)*, void (%"class.extensions::LanguageSettingsPrivateDelegate"*)** %20, align 8
  br label %24

22:                                               ; preds = %1
  %23 = inttoptr i64 %7 to void (%"class.extensions::LanguageSettingsPrivateDelegate"*)*
  br label %24

24:                                               ; preds = %15, %22
  %25 = phi void (%"class.extensions::LanguageSettingsPrivateDelegate"*)* [ %21, %15 ], [ %23, %22 ]
  tail call void %25(%"class.extensions::LanguageSettingsPrivateDelegate"* %12) #12
  ret void
}

; Function Attrs: nounwind ssp uwtable
define linkonce_odr hidden void @_ZN4base8internal9BindStateIMN10extensions31LanguageSettingsPrivateDelegateEFvvEJNS0_17UnretainedWrapperIS3_EEEE7DestroyEPKNS0_13BindStateBaseE(%"class.base::internal::BindStateBase"*) #0 comdat align 2 {
  %2 = icmp eq %"class.base::internal::BindStateBase"* %0, null
  br i1 %2, label %5, label %3

3:                                                ; preds = %1
  %4 = bitcast %"class.base::internal::BindStateBase"* %0 to i8*
  tail call void @_ZdlPv(i8* %4) #14
  br label %5

5:                                                ; preds = %3, %1
  ret void
}

declare void @_ZN4base8internal13BindStateBaseC2EPFvvEPFvPKS1_E(%"class.base::internal::BindStateBase"*, void ()*, void (%"class.base::internal::BindStateBase"*)*) unnamed_addr #1

; Function Attrs: nofree nounwind readonly
declare i32 @bcmp(i8* nocapture, i8* nocapture, i64) local_unnamed_addr #11

attributes #0 = { nounwind ssp uwtable "correctly-rounded-divide-sqrt-fp-math"="false" "disable-tail-calls"="false" "less-precise-fpmad"="false" "min-legal-vector-width"="0" "no-frame-pointer-elim"="false" "no-frame-pointer-elim-non-leaf" "no-infs-fp-math"="false" "no-jump-tables"="false" "no-nans-fp-math"="false" "no-signed-zeros-fp-math"="false" "no-trapping-math"="false" "null-pointer-is-valid"="true" "stack-protector-buffer-size"="4" "target-cpu"="x86-64" "target-features"="+cx8,+fxsr,+mmx,+sse,+sse2,+sse3,+x87" "unsafe-fp-math"="false" "use-soft-float"="false" }
attributes #1 = { "correctly-rounded-divide-sqrt-fp-math"="false" "disable-tail-calls"="false" "less-precise-fpmad"="false" "no-frame-pointer-elim"="false" "no-frame-pointer-elim-non-leaf" "no-infs-fp-math"="false" "no-nans-fp-math"="false" "no-signed-zeros-fp-math"="false" "no-trapping-math"="false" "null-pointer-is-valid"="true" "stack-protector-buffer-size"="4" "target-cpu"="x86-64" "target-features"="+cx8,+fxsr,+mmx,+sse,+sse2,+sse3,+x87" "unsafe-fp-math"="false" "use-soft-float"="false" }
attributes #2 = { argmemonly nounwind }
attributes #3 = { nounwind "correctly-rounded-divide-sqrt-fp-math"="false" "disable-tail-calls"="false" "less-precise-fpmad"="false" "no-frame-pointer-elim"="false" "no-frame-pointer-elim-non-leaf" "no-infs-fp-math"="false" "no-nans-fp-math"="false" "no-signed-zeros-fp-math"="false" "no-trapping-math"="false" "null-pointer-is-valid"="true" "stack-protector-buffer-size"="4" "target-cpu"="x86-64" "target-features"="+cx8,+fxsr,+mmx,+sse,+sse2,+sse3,+x87" "unsafe-fp-math"="false" "use-soft-float"="false" }
attributes #4 = { nobuiltin nounwind "correctly-rounded-divide-sqrt-fp-math"="false" "disable-tail-calls"="false" "less-precise-fpmad"="false" "no-frame-pointer-elim"="false" "no-frame-pointer-elim-non-leaf" "no-infs-fp-math"="false" "no-nans-fp-math"="false" "no-signed-zeros-fp-math"="false" "no-trapping-math"="false" "null-pointer-is-valid"="true" "stack-protector-buffer-size"="4" "target-cpu"="x86-64" "target-features"="+cx8,+fxsr,+mmx,+sse,+sse2,+sse3,+x87" "unsafe-fp-math"="false" "use-soft-float"="false" }
attributes #5 = { nobuiltin nofree "correctly-rounded-divide-sqrt-fp-math"="false" "disable-tail-calls"="false" "less-precise-fpmad"="false" "no-frame-pointer-elim"="false" "no-frame-pointer-elim-non-leaf" "no-infs-fp-math"="false" "no-nans-fp-math"="false" "no-signed-zeros-fp-math"="false" "no-trapping-math"="false" "null-pointer-is-valid"="true" "stack-protector-buffer-size"="4" "target-cpu"="x86-64" "target-features"="+cx8,+fxsr,+mmx,+sse,+sse2,+sse3,+x87" "unsafe-fp-math"="false" "use-soft-float"="false" }
attributes #6 = { norecurse nounwind readnone ssp uwtable "correctly-rounded-divide-sqrt-fp-math"="false" "disable-tail-calls"="false" "less-precise-fpmad"="false" "min-legal-vector-width"="0" "no-frame-pointer-elim"="false" "no-frame-pointer-elim-non-leaf" "no-infs-fp-math"="false" "no-jump-tables"="false" "no-nans-fp-math"="false" "no-signed-zeros-fp-math"="false" "no-trapping-math"="false" "null-pointer-is-valid"="true" "stack-protector-buffer-size"="4" "target-cpu"="x86-64" "target-features"="+cx8,+fxsr,+mmx,+sse,+sse2,+sse3,+x87" "unsafe-fp-math"="false" "use-soft-float"="false" }
attributes #7 = { noreturn "correctly-rounded-divide-sqrt-fp-math"="false" "disable-tail-calls"="false" "less-precise-fpmad"="false" "no-frame-pointer-elim"="false" "no-frame-pointer-elim-non-leaf" "no-infs-fp-math"="false" "no-nans-fp-math"="false" "no-signed-zeros-fp-math"="false" "no-trapping-math"="false" "null-pointer-is-valid"="true" "stack-protector-buffer-size"="4" "target-cpu"="x86-64" "target-features"="+cx8,+fxsr,+mmx,+sse,+sse2,+sse3,+x87" "unsafe-fp-math"="false" "use-soft-float"="false" }
attributes #8 = { noreturn nounwind "correctly-rounded-divide-sqrt-fp-math"="false" "disable-tail-calls"="false" "less-precise-fpmad"="false" "no-frame-pointer-elim"="false" "no-frame-pointer-elim-non-leaf" "no-infs-fp-math"="false" "no-nans-fp-math"="false" "no-signed-zeros-fp-math"="false" "no-trapping-math"="false" "null-pointer-is-valid"="true" "stack-protector-buffer-size"="4" "target-cpu"="x86-64" "target-features"="+cx8,+fxsr,+mmx,+sse,+sse2,+sse3,+x87" "unsafe-fp-math"="false" "use-soft-float"="false" }
attributes #9 = { argmemonly nofree nounwind readonly "correctly-rounded-divide-sqrt-fp-math"="false" "disable-tail-calls"="false" "less-precise-fpmad"="false" "no-frame-pointer-elim"="false" "no-frame-pointer-elim-non-leaf" "no-infs-fp-math"="false" "no-nans-fp-math"="false" "no-signed-zeros-fp-math"="false" "no-trapping-math"="false" "null-pointer-is-valid"="true" "stack-protector-buffer-size"="4" "target-cpu"="x86-64" "target-features"="+cx8,+fxsr,+mmx,+sse,+sse2,+sse3,+x87" "unsafe-fp-math"="false" "use-soft-float"="false" }
attributes #10 = { inlinehint nounwind ssp uwtable "correctly-rounded-divide-sqrt-fp-math"="false" "disable-tail-calls"="false" "less-precise-fpmad"="false" "min-legal-vector-width"="0" "no-frame-pointer-elim"="false" "no-frame-pointer-elim-non-leaf" "no-infs-fp-math"="false" "no-jump-tables"="false" "no-nans-fp-math"="false" "no-signed-zeros-fp-math"="false" "no-trapping-math"="false" "null-pointer-is-valid"="true" "stack-protector-buffer-size"="4" "target-cpu"="x86-64" "target-features"="+cx8,+fxsr,+mmx,+sse,+sse2,+sse3,+x87" "unsafe-fp-math"="false" "use-soft-float"="false" }
attributes #11 = { nofree nounwind readonly }
attributes #12 = { nounwind }
attributes #13 = { noreturn nounwind }
attributes #14 = { builtin nounwind }

!llvm.module.flags = !{!0, !1}

!0 = !{i32 1, !"wchar_size", i32 4}
!1 = !{i32 7, !"PIC Level", i32 2}
!2 = !{i8 0, i8 2}
!3 = !{!4, !6}
!4 = distinct !{!4, !5, !"_ZN4base8internal8BindImplINS_17RepeatingCallbackEMN10extensions31LanguageSettingsPrivateDelegateEFvvEJNS0_17UnretainedWrapperIS4_EEEEEDcOT0_DpOT1_: argument 0"}
!5 = distinct !{!5, !"_ZN4base8internal8BindImplINS_17RepeatingCallbackEMN10extensions31LanguageSettingsPrivateDelegateEFvvEJNS0_17UnretainedWrapperIS4_EEEEEDcOT0_DpOT1_"}
!6 = distinct !{!6, !7, !"_ZN4base13BindRepeatingIMN10extensions31LanguageSettingsPrivateDelegateEFvvEJNS_8internal17UnretainedWrapperIS2_EEEEENS_17RepeatingCallbackINS5_14BindTypeHelperIT_JDpT0_EE14UnboundRunTypeEEEOSA_DpOSB_: argument 0"}
!7 = distinct !{!7, !"_ZN4base13BindRepeatingIMN10extensions31LanguageSettingsPrivateDelegateEFvvEJNS_8internal17UnretainedWrapperIS2_EEEEENS_17RepeatingCallbackINS5_14BindTypeHelperIT_JDpT0_EE14UnboundRunTypeEEEOSA_DpOSB_"}
!8 = !{!9}
!9 = distinct !{!9, !10, !"_ZN4base15SupportsWeakPtrI28SpellcheckHunspellDictionaryE9AsWeakPtrEv: argument 0"}
!10 = distinct !{!10, !"_ZN4base15SupportsWeakPtrI28SpellcheckHunspellDictionaryE9AsWeakPtrEv"}
