; ModuleID = '../../base/lazy_instance_helpers.cc'
source_filename = "../../base/lazy_instance_helpers.cc"
target datalayout = "e-m:e-i64:64-f80:128-n8:16:32:64-S128"
target triple = "x86_64-unknown-linux-gnu"

module asm ".symver exp, exp@GLIBC_2.2.5"
module asm ".symver exp2, exp2@GLIBC_2.2.5"
module asm ".symver exp2f, exp2f@GLIBC_2.2.5"
module asm ".symver expf, expf@GLIBC_2.2.5"
module asm ".symver lgamma, lgamma@GLIBC_2.2.5"
module asm ".symver lgammaf, lgammaf@GLIBC_2.2.5"
module asm ".symver lgammal, lgammal@GLIBC_2.2.5"
module asm ".symver log, log@GLIBC_2.2.5"
module asm ".symver log2, log2@GLIBC_2.2.5"
module asm ".symver log2f, log2f@GLIBC_2.2.5"
module asm ".symver logf, logf@GLIBC_2.2.5"
module asm ".symver pow, pow@GLIBC_2.2.5"
module asm ".symver powf, powf@GLIBC_2.2.5"

; Function Attrs: nounwind ssp uwtable
define hidden zeroext i1 @_ZN4base8internal17NeedsLazyInstanceEPl(i64*) local_unnamed_addr #0 {
  %2 = cmpxchg volatile i64* %0, i64 0, i64 1 monotonic monotonic
  %3 = extractvalue { i64, i1 } %2, 1
  br i1 %3, label %18, label %4

4:                                                ; preds = %1
  %5 = load atomic i64, i64* %0 acquire, align 8
  %6 = icmp eq i64 %5, 1
  br i1 %6, label %7, label %18

7:                                                ; preds = %4
  %8 = tail call i64 @_ZN4base9TimeTicks3NowEv() #2
  br label %9

9:                                                ; preds = %15, %7
  %10 = tail call i64 @_ZN4base9TimeTicks3NowEv() #2
  %11 = sub nsw i64 %10, %8
  %12 = icmp slt i64 %11, 1000
  br i1 %12, label %13, label %14

13:                                               ; preds = %9
  tail call void @_ZN4base14PlatformThread18YieldCurrentThreadEv() #2
  br label %15

14:                                               ; preds = %9
  tail call void @_ZN4base14PlatformThread5SleepENS_9TimeDeltaE(i64 1000) #2
  br label %15

15:                                               ; preds = %14, %13
  %16 = load atomic i64, i64* %0 acquire, align 8
  %17 = icmp eq i64 %16, 1
  br i1 %17, label %9, label %18

18:                                               ; preds = %15, %4, %1
  %19 = phi i1 [ true, %1 ], [ false, %4 ], [ false, %15 ]
  ret i1 %19
}

declare i64 @_ZN4base9TimeTicks3NowEv() local_unnamed_addr #1

declare void @_ZN4base14PlatformThread18YieldCurrentThreadEv() local_unnamed_addr #1

declare void @_ZN4base14PlatformThread5SleepENS_9TimeDeltaE(i64) local_unnamed_addr #1

; Function Attrs: nounwind ssp uwtable
define hidden void @_ZN4base8internal20CompleteLazyInstanceEPllPFvPvES2_(i64*, i64, void (i8*)*, i8*) local_unnamed_addr #0 {
  store atomic volatile i64 %1, i64* %0 release, align 8
  %5 = icmp ne i64 %1, 0
  %6 = icmp ne void (i8*)* %2, null
  %7 = and i1 %5, %6
  br i1 %7, label %8, label %9

8:                                                ; preds = %4
  tail call void @_ZN4base13AtExitManager16RegisterCallbackEPFvPvES1_(void (i8*)* nonnull %2, i8* %3) #2
  br label %9

9:                                                ; preds = %8, %4
  ret void
}

declare void @_ZN4base13AtExitManager16RegisterCallbackEPFvPvES1_(void (i8*)*, i8*) local_unnamed_addr #1

attributes #0 = { nounwind ssp uwtable "correctly-rounded-divide-sqrt-fp-math"="false" "disable-tail-calls"="false" "less-precise-fpmad"="false" "min-legal-vector-width"="0" "no-frame-pointer-elim"="false" "no-frame-pointer-elim-non-leaf" "no-infs-fp-math"="false" "no-jump-tables"="false" "no-nans-fp-math"="false" "no-signed-zeros-fp-math"="false" "no-trapping-math"="false" "null-pointer-is-valid"="true" "stack-protector-buffer-size"="4" "target-cpu"="x86-64" "target-features"="+cx8,+fxsr,+mmx,+sse,+sse2,+sse3,+x87" "unsafe-fp-math"="false" "use-soft-float"="false" }
attributes #1 = { "correctly-rounded-divide-sqrt-fp-math"="false" "disable-tail-calls"="false" "less-precise-fpmad"="false" "no-frame-pointer-elim"="false" "no-frame-pointer-elim-non-leaf" "no-infs-fp-math"="false" "no-nans-fp-math"="false" "no-signed-zeros-fp-math"="false" "no-trapping-math"="false" "null-pointer-is-valid"="true" "stack-protector-buffer-size"="4" "target-cpu"="x86-64" "target-features"="+cx8,+fxsr,+mmx,+sse,+sse2,+sse3,+x87" "unsafe-fp-math"="false" "use-soft-float"="false" }
attributes #2 = { nounwind }

!llvm.module.flags = !{!0, !1}

!0 = !{i32 1, !"wchar_size", i32 4}
!1 = !{i32 7, !"PIC Level", i32 2}
