; ModuleID = '../../third_party/blink/renderer/platform/webrtc/legacy_webrtc_video_frame_adapter.cc'
source_filename = "../../third_party/blink/renderer/platform/webrtc/legacy_webrtc_video_frame_adapter.cc"
target datalayout = "e-m:e-i64:64-f80:128-n8:16:32:64-S128"
target triple = "x86_64-unknown-linux-gnu"

module asm ".symver exp, exp@GLIBC_2.2.5"
module asm ".symver exp2, exp2@GLIBC_2.2.5"
module asm ".symver exp2f, exp2f@GLIBC_2.2.5"
module asm ".symver expf, expf@GLIBC_2.2.5"
module asm ".symver lgamma, lgamma@GLIBC_2.2.5"
module asm ".symver lgammaf, lgammaf@GLIBC_2.2.5"
module asm ".symver lgammal, lgammal@GLIBC_2.2.5"
module asm ".symver log, log@GLIBC_2.2.5"
module asm ".symver log2, log2@GLIBC_2.2.5"
module asm ".symver log2f, log2f@GLIBC_2.2.5"
module asm ".symver logf, logf@GLIBC_2.2.5"
module asm ".symver pow, pow@GLIBC_2.2.5"
module asm ".symver powf, powf@GLIBC_2.2.5"

%"class.std::__1::locale::id" = type <{ %"struct.std::__1::once_flag", i32, [4 x i8] }>
%"struct.std::__1::once_flag" = type { i64 }
%"class.blink::LegacyWebRtcVideoFrameAdapter::SharedResources" = type { i32 (...)**, %"class.base::RefCountedThreadSafe.65", %"class.media::VideoFramePool", %"class.media::VideoFramePool", %"class.media::VideoFramePool", %"class.base::Lock", %class.scoped_refptr.67, %"class.media::GpuVideoAcceleratorFactories"*, %"class.base::Lock", %"struct.media::VideoCaptureFeedback" }
%"class.base::RefCountedThreadSafe.65" = type { %"class.base::subtle::RefCountedThreadSafeBase" }
%"class.base::subtle::RefCountedThreadSafeBase" = type { %"class.base::AtomicRefCount" }
%"class.base::AtomicRefCount" = type { %"struct.std::__1::atomic" }
%"struct.std::__1::atomic" = type { %"struct.std::__1::__atomic_base" }
%"struct.std::__1::__atomic_base" = type { %"struct.std::__1::__atomic_base.0" }
%"struct.std::__1::__atomic_base.0" = type { %"struct.std::__1::__cxx_atomic_impl" }
%"struct.std::__1::__cxx_atomic_impl" = type { %"struct.std::__1::__cxx_atomic_base_impl" }
%"struct.std::__1::__cxx_atomic_base_impl" = type { i32 }
%"class.media::VideoFramePool" = type { %class.scoped_refptr.66 }
%class.scoped_refptr.66 = type { %"class.media::VideoFramePool::PoolImpl"* }
%"class.media::VideoFramePool::PoolImpl" = type opaque
%class.scoped_refptr.67 = type { %"class.viz::RasterContextProvider"* }
%"class.viz::RasterContextProvider" = type { i32 (...)** }
%"class.base::Lock" = type { %"class.base::internal::LockImpl" }
%"class.base::internal::LockImpl" = type { %union.pthread_mutex_t }
%union.pthread_mutex_t = type { %struct.__pthread_mutex_s }
%struct.__pthread_mutex_s = type { i32, i32, i32, i32, i32, i16, i16, %struct.__pthread_internal_list }
%struct.__pthread_internal_list = type { %struct.__pthread_internal_list*, %struct.__pthread_internal_list* }
%"struct.media::VideoCaptureFeedback" = type { double, float, i32, i8, %"class.std::__1::vector.68" }
%"class.std::__1::vector.68" = type { %"class.std::__1::__vector_base.69" }
%"class.std::__1::__vector_base.69" = type { %"class.gfx::Size"*, %"class.gfx::Size"*, %"class.std::__1::__compressed_pair.70" }
%"class.gfx::Size" = type { i32, i32 }
%"class.std::__1::__compressed_pair.70" = type { %"struct.std::__1::__compressed_pair_elem.71" }
%"struct.std::__1::__compressed_pair_elem.71" = type { %"class.gfx::Size"* }
%"class.media::GpuVideoAcceleratorFactories" = type { i32 (...)** }
%"class.blink::LegacyWebRtcVideoFrameAdapter" = type <{ %"class.blink::WebRtcVideoFrameAdapterInterface", %"class.base::Lock", %"class.rtc::scoped_refptr", %class.scoped_refptr, %class.scoped_refptr.97, %"class.media::GpuVideoAcceleratorFactories"*, i8, [7 x i8] }>
%"class.blink::WebRtcVideoFrameAdapterInterface" = type { %"class.webrtc::VideoFrameBuffer" }
%"class.webrtc::VideoFrameBuffer" = type { %"class.rtc::RefCountInterface" }
%"class.rtc::RefCountInterface" = type { i32 (...)** }
%"class.rtc::scoped_refptr" = type { %"class.webrtc::VideoFrameBuffer"* }
%class.scoped_refptr = type { %"class.media::VideoFrame"* }
%"class.media::VideoFrame" = type { i32 (...)**, %"class.base::RefCountedThreadSafe", %"class.media::VideoFrameLayout", %class.scoped_refptr, i32, %"class.gfx::Rect", %"class.gfx::Size", [4 x i8*], [4 x %"struct.gpu::MailboxHolder"], %"class.base::OnceCallback", %"class.base::UnsafeSharedMemoryRegion"*, %"class.base::UnsafeSharedMemoryRegion", %"class.base::WritableSharedMemoryMapping", %"class.std::__1::unique_ptr", %class.scoped_refptr.7, %"class.std::__1::vector.8", %"class.base::TimeDelta", %"class.base::Lock", %"struct.gpu::SyncToken", %"struct.media::VideoFrameMetadata", i32, %"class.gfx::ColorSpace", %"class.absl::optional.51", [4 x i8], %"class.absl::optional.56", %"class.std::__1::unique_ptr.61" }
%"class.base::RefCountedThreadSafe" = type { %"class.base::subtle::RefCountedThreadSafeBase" }
%"class.media::VideoFrameLayout" = type { i32, %"class.gfx::Size", %"class.std::__1::vector", i8, i64, i64 }
%"class.std::__1::vector" = type { %"class.std::__1::__vector_base" }
%"class.std::__1::__vector_base" = type { %"struct.media::ColorPlaneLayout"*, %"struct.media::ColorPlaneLayout"*, %"class.std::__1::__compressed_pair" }
%"struct.media::ColorPlaneLayout" = type { i32, i64, i64 }
%"class.std::__1::__compressed_pair" = type { %"struct.std::__1::__compressed_pair_elem" }
%"struct.std::__1::__compressed_pair_elem" = type { %"struct.media::ColorPlaneLayout"* }
%"class.gfx::Rect" = type { %"class.gfx::Point", %"class.gfx::Size" }
%"class.gfx::Point" = type { i32, i32 }
%"struct.gpu::MailboxHolder" = type <{ %"struct.gpu::Mailbox", %"struct.gpu::SyncToken", i32, [4 x i8] }>
%"struct.gpu::Mailbox" = type { [16 x i8] }
%"class.base::OnceCallback" = type { %"class.base::internal::CallbackBase" }
%"class.base::internal::CallbackBase" = type { %class.scoped_refptr.2 }
%class.scoped_refptr.2 = type { %"class.base::internal::BindStateBase"* }
%"class.base::internal::BindStateBase" = type { %"class.base::RefCountedThreadSafe.3", void ()*, void (%"class.base::internal::BindStateBase"*)*, i1 (%"class.base::internal::BindStateBase"*, i32)* }
%"class.base::RefCountedThreadSafe.3" = type { %"class.base::subtle::RefCountedThreadSafeBase" }
%"class.base::UnsafeSharedMemoryRegion" = type { %"class.base::subtle::PlatformSharedMemoryRegion" }
%"class.base::subtle::PlatformSharedMemoryRegion" = type { %"struct.base::subtle::ScopedFDPair", i32, i64, %"class.base::UnguessableToken" }
%"struct.base::subtle::ScopedFDPair" = type { %"class.base::ScopedGeneric", %"class.base::ScopedGeneric" }
%"class.base::ScopedGeneric" = type <{ i32 (...)**, %"struct.base::ScopedGeneric<int, base::internal::ScopedFDCloseTraits>::Data", i8, [3 x i8] }>
%"struct.base::ScopedGeneric<int, base::internal::ScopedFDCloseTraits>::Data" = type { i32 }
%"class.base::UnguessableToken" = type { %"class.base::Token" }
%"class.base::Token" = type { i64, i64 }
%"class.base::WritableSharedMemoryMapping" = type { %"class.base::SharedMemoryMapping" }
%"class.base::SharedMemoryMapping" = type { i32 (...)**, i8*, i64, i64, %"class.base::UnguessableToken" }
%"class.std::__1::unique_ptr" = type { %"class.std::__1::__compressed_pair.4" }
%"class.std::__1::__compressed_pair.4" = type { %"struct.std::__1::__compressed_pair_elem.5" }
%"struct.std::__1::__compressed_pair_elem.5" = type { %"class.gfx::GpuMemoryBuffer"* }
%"class.gfx::GpuMemoryBuffer" = type { i32 (...)** }
%class.scoped_refptr.7 = type { %"class.media::VideoFrame::DmabufHolder"* }
%"class.media::VideoFrame::DmabufHolder" = type opaque
%"class.std::__1::vector.8" = type { %"class.std::__1::__vector_base.9" }
%"class.std::__1::__vector_base.9" = type { %"class.base::OnceCallback.10"*, %"class.base::OnceCallback.10"*, %"class.std::__1::__compressed_pair.11" }
%"class.base::OnceCallback.10" = type { %"class.base::internal::CallbackBase" }
%"class.std::__1::__compressed_pair.11" = type { %"struct.std::__1::__compressed_pair_elem.12" }
%"struct.std::__1::__compressed_pair_elem.12" = type { %"class.base::OnceCallback.10"* }
%"class.base::TimeDelta" = type { i64 }
%"struct.gpu::SyncToken" = type { i8, i8, %"class.util::IdType", i64 }
%"class.util::IdType" = type { %"class.base::StrongAlias" }
%"class.base::StrongAlias" = type { i64 }
%"struct.media::VideoFrameMetadata" = type { i8, %"class.absl::optional", %"class.absl::optional", %"class.absl::optional.16", %"class.absl::optional.21", %"class.absl::optional.26", i8, %"class.absl::optional.31", %"class.absl::optional.36", i8, %"class.absl::optional", i8, [3 x i8], %"class.absl::optional.41", i8, i8, i8, i8, i32, %"class.absl::optional.46", i8, %"class.absl::optional.36", %"class.absl::optional.36", %"class.absl::optional.36", %"class.absl::optional.36", %"class.absl::optional.36", %"class.absl::optional", %"class.absl::optional", %"class.absl::optional.31", %"class.absl::optional.36", %"class.absl::optional", %"class.absl::optional.31", %"class.absl::optional.16" }
%"class.absl::optional.21" = type { %"class.absl::optional_internal::optional_data.22" }
%"class.absl::optional_internal::optional_data.22" = type { %"class.absl::optional_internal::optional_data_base.23" }
%"class.absl::optional_internal::optional_data_base.23" = type { %"class.absl::optional_internal::optional_data_dtor_base.24" }
%"class.absl::optional_internal::optional_data_dtor_base.24" = type { i8, %union.anon.25 }
%union.anon.25 = type { %"class.gfx::Rect" }
%"class.absl::optional.26" = type { %"class.absl::optional_internal::optional_data.27" }
%"class.absl::optional_internal::optional_data.27" = type { %"class.absl::optional_internal::optional_data_base.28" }
%"class.absl::optional_internal::optional_data_base.28" = type { %"class.absl::optional_internal::optional_data_dtor_base.29" }
%"class.absl::optional_internal::optional_data_dtor_base.29" = type { i8, %union.anon.30 }
%union.anon.30 = type { i32 }
%"class.absl::optional.41" = type { %"class.absl::optional_internal::optional_data.42" }
%"class.absl::optional_internal::optional_data.42" = type { %"class.absl::optional_internal::optional_data_base.43" }
%"class.absl::optional_internal::optional_data_base.43" = type { %"class.absl::optional_internal::optional_data_dtor_base.44" }
%"class.absl::optional_internal::optional_data_dtor_base.44" = type { i8, [3 x i8], %union.anon.45 }
%union.anon.45 = type { %"struct.media::VideoTransformation" }
%"struct.media::VideoTransformation" = type <{ i32, i8, [3 x i8] }>
%"class.absl::optional.46" = type { %"class.absl::optional_internal::optional_data.47" }
%"class.absl::optional_internal::optional_data.47" = type { %"class.absl::optional_internal::optional_data_base.48" }
%"class.absl::optional_internal::optional_data_base.48" = type { %"class.absl::optional_internal::optional_data_dtor_base.49" }
%"class.absl::optional_internal::optional_data_dtor_base.49" = type { i8, %union.anon.50 }
%union.anon.50 = type { %"class.base::UnguessableToken" }
%"class.absl::optional.36" = type { %"class.absl::optional_internal::optional_data.37" }
%"class.absl::optional_internal::optional_data.37" = type { %"class.absl::optional_internal::optional_data_base.38" }
%"class.absl::optional_internal::optional_data_base.38" = type { %"class.absl::optional_internal::optional_data_dtor_base.39" }
%"class.absl::optional_internal::optional_data_dtor_base.39" = type { i8, %union.anon.40 }
%union.anon.40 = type { double }
%"class.absl::optional" = type { %"class.absl::optional_internal::optional_data" }
%"class.absl::optional_internal::optional_data" = type { %"class.absl::optional_internal::optional_data_base" }
%"class.absl::optional_internal::optional_data_base" = type { %"class.absl::optional_internal::optional_data_dtor_base" }
%"class.absl::optional_internal::optional_data_dtor_base" = type { i8, %union.anon }
%union.anon = type { %"class.base::TimeTicks" }
%"class.base::TimeTicks" = type { %"class.base::time_internal::TimeBase" }
%"class.base::time_internal::TimeBase" = type { i64 }
%"class.absl::optional.31" = type { %"class.absl::optional_internal::optional_data.32" }
%"class.absl::optional_internal::optional_data.32" = type { %"class.absl::optional_internal::optional_data_base.33" }
%"class.absl::optional_internal::optional_data_base.33" = type { %"class.absl::optional_internal::optional_data_dtor_base.34" }
%"class.absl::optional_internal::optional_data_dtor_base.34" = type { i8, %union.anon.35 }
%union.anon.35 = type { %"class.base::TimeDelta" }
%"class.absl::optional.16" = type { %"class.absl::optional_internal::optional_data.17" }
%"class.absl::optional_internal::optional_data.17" = type { %"class.absl::optional_internal::optional_data_base.18" }
%"class.absl::optional_internal::optional_data_base.18" = type { %"class.absl::optional_internal::optional_data_dtor_base.19" }
%"class.absl::optional_internal::optional_data_dtor_base.19" = type { i8, %union.anon.20 }
%union.anon.20 = type { i32 }
%"class.gfx::ColorSpace" = type { i8, i8, i8, i8, [9 x float], [7 x float] }
%"class.absl::optional.51" = type { %"class.absl::optional_internal::optional_data.52" }
%"class.absl::optional_internal::optional_data.52" = type { %"class.absl::optional_internal::optional_data_base.53" }
%"class.absl::optional_internal::optional_data_base.53" = type { %"class.absl::optional_internal::optional_data_dtor_base.54" }
%"class.absl::optional_internal::optional_data_dtor_base.54" = type { i8, %union.anon.55 }
%union.anon.55 = type { %"struct.gfx::HDRMetadata" }
%"struct.gfx::HDRMetadata" = type { %"struct.gfx::MasteringMetadata", i32, i32 }
%"struct.gfx::MasteringMetadata" = type { %"class.gfx::PointF", %"class.gfx::PointF", %"class.gfx::PointF", %"class.gfx::PointF", float, float }
%"class.gfx::PointF" = type { float, float }
%"class.absl::optional.56" = type { %"class.absl::optional_internal::optional_data.57" }
%"class.absl::optional_internal::optional_data.57" = type { %"class.absl::optional_internal::optional_data_base.58" }
%"class.absl::optional_internal::optional_data_base.58" = type { %"class.absl::optional_internal::optional_data_dtor_base.59" }
%"class.absl::optional_internal::optional_data_dtor_base.59" = type { i8, [7 x i8], %union.anon.60 }
%union.anon.60 = type { %"struct.gpu::VulkanYCbCrInfo" }
%"struct.gpu::VulkanYCbCrInfo" = type <{ i32, [4 x i8], i64, i32, i32, i32, i32, i32, [4 x i8] }>
%"class.std::__1::unique_ptr.61" = type { %"class.std::__1::__compressed_pair.62" }
%"class.std::__1::__compressed_pair.62" = type { %"struct.std::__1::__compressed_pair_elem.63" }
%"struct.std::__1::__compressed_pair_elem.63" = type { i8* }
%class.scoped_refptr.97 = type { %"class.blink::LegacyWebRtcVideoFrameAdapter::SharedResources"* }
%"class.WTF::CrossThreadOnceFunction" = type { %"class.base::OnceCallback.10" }
%"class.viz::RasterContextProvider::ScopedRasterContextLock" = type { %"class.viz::RasterContextProvider"*, %"class.base::internal::BasicAutoLock", %"class.std::__1::unique_ptr.75" }
%"class.base::internal::BasicAutoLock" = type { %"class.base::Lock"* }
%"class.std::__1::unique_ptr.75" = type { %"class.std::__1::__compressed_pair.76" }
%"class.std::__1::__compressed_pair.76" = type { %"struct.std::__1::__compressed_pair_elem.77" }
%"struct.std::__1::__compressed_pair_elem.77" = type { %"class.viz::ContextCacheController::ScopedToken"* }
%"class.viz::ContextCacheController::ScopedToken" = type { i8 }
%"class.base::WaitableEvent" = type <{ %class.scoped_refptr.81, i8, [7 x i8] }>
%class.scoped_refptr.81 = type { %"struct.base::WaitableEvent::WaitableEventKernel"* }
%"struct.base::WaitableEvent::WaitableEventKernel" = type { %"class.base::RefCountedThreadSafe.82", %"class.base::Lock", i8, i8, %"class.std::__1::list" }
%"class.base::RefCountedThreadSafe.82" = type { %"class.base::subtle::RefCountedThreadSafeBase" }
%"class.std::__1::list" = type { %"class.std::__1::__list_imp" }
%"class.std::__1::__list_imp" = type { %"struct.std::__1::__list_node_base", %"class.std::__1::__compressed_pair.83" }
%"struct.std::__1::__list_node_base" = type { %"struct.std::__1::__list_node_base"*, %"struct.std::__1::__list_node_base"* }
%"class.std::__1::__compressed_pair.83" = type { %"struct.std::__1::__compressed_pair_elem.84" }
%"struct.std::__1::__compressed_pair_elem.84" = type { i64 }
%"class.base::Location" = type { i8*, i8*, i32, i8* }
%"class.base::ScopedAllowBaseSyncPrimitivesOutsideBlockingScope" = type { %"class.base::IgnoreHangsInScope" }
%"class.base::IgnoreHangsInScope" = type { i8 }
%"class.gpu::raster::RasterInterface" = type { %"class.gpu::InterfaceBase" }
%"class.gpu::InterfaceBase" = type { i32 (...)** }
%"class.blink::Thread" = type { i32 (...)** }
%"class.base::SingleThreadTaskRunner" = type { %"class.base::SequencedTaskRunner.base", [4 x i8] }
%"class.base::SequencedTaskRunner.base" = type { %"class.base::TaskRunner.base" }
%"class.base::TaskRunner.base" = type <{ i32 (...)**, %"class.base::RefCountedThreadSafe.88" }>
%"class.base::RefCountedThreadSafe.88" = type { %"class.base::subtle::RefCountedThreadSafeBase" }
%"class.base::TaskRunner" = type <{ i32 (...)**, %"class.base::RefCountedThreadSafe.88", [4 x i8] }>
%"class.blink::Platform" = type { i32 (...)** }
%class.GrDirectContext = type opaque
%"class.logging::CheckError" = type { %"class.logging::LogMessage"* }
%"class.logging::LogMessage" = type { i32 (...)**, i32, %"class.std::__1::basic_ostringstream", i64, i8*, i32, %"class.base::ScopedClearLastErrorBase" }
%"class.std::__1::basic_ostringstream" = type { %"class.std::__1::basic_ostream.base", %"class.std::__1::basic_stringbuf", %"class.std::__1::basic_ios.base" }
%"class.std::__1::basic_ostream.base" = type { i32 (...)** }
%"class.std::__1::basic_stringbuf" = type <{ %"class.std::__1::basic_streambuf", %"class.std::__1::basic_string", i8*, i32, [4 x i8] }>
%"class.std::__1::basic_streambuf" = type { i32 (...)**, %"class.std::__1::locale", i8*, i8*, i8*, i8*, i8*, i8* }
%"class.std::__1::locale" = type { %"class.std::__1::locale::__imp"* }
%"class.std::__1::locale::__imp" = type opaque
%"class.std::__1::basic_string" = type { %"class.std::__1::__compressed_pair.91" }
%"class.std::__1::__compressed_pair.91" = type { %"struct.std::__1::__compressed_pair_elem.92" }
%"struct.std::__1::__compressed_pair_elem.92" = type { %"struct.std::__1::basic_string<char, std::__1::char_traits<char>, std::__1::allocator<char> >::__rep" }
%"struct.std::__1::basic_string<char, std::__1::char_traits<char>, std::__1::allocator<char> >::__rep" = type { %union.anon.93 }
%union.anon.93 = type { %"struct.std::__1::basic_string<char, std::__1::char_traits<char>, std::__1::allocator<char> >::__long" }
%"struct.std::__1::basic_string<char, std::__1::char_traits<char>, std::__1::allocator<char> >::__long" = type { i8*, i64, i64 }
%"class.std::__1::basic_ios.base" = type <{ %"class.std::__1::ios_base", %"class.std::__1::basic_ostream"*, i32 }>
%"class.std::__1::ios_base" = type { i32 (...)**, i32, i64, i64, i32, i32, i8*, i8*, void (i32, %"class.std::__1::ios_base"*, i32)**, i32*, i64, i64, i64*, i64, i64, i8**, i64, i64 }
%"class.std::__1::basic_ostream" = type { i32 (...)**, %"class.std::__1::basic_ios.base" }
%"class.base::ScopedClearLastErrorBase" = type { i32 }
%"class.base::CheckedContiguousIterator" = type { i32*, i32*, i32* }
%"class.base::span" = type { %"struct.base::internal::ExtentStorage", i32* }
%"struct.base::internal::ExtentStorage" = type { i64 }
%"class.rtc::scoped_refptr.99" = type { %"class.webrtc::I420BufferInterface"* }
%"class.webrtc::I420BufferInterface" = type { %"class.webrtc::PlanarYuv8Buffer" }
%"class.webrtc::PlanarYuv8Buffer" = type { %"class.webrtc::PlanarYuvBuffer" }
%"class.webrtc::PlanarYuvBuffer" = type { %"class.webrtc::VideoFrameBuffer" }
%"class.webrtc::I420ABufferInterface" = type { %"class.webrtc::I420BufferInterface" }
%"class.std::__1::__vector_base_common" = type { i8 }
%"class.logging::CheckOpResult" = type { i8* }
%"class.std::__1::basic_ostream<char, std::__1::char_traits<char> >::sentry" = type { i8, %"class.std::__1::basic_ostream"* }
%"class.std::__1::locale::facet" = type { %"class.std::__1::__shared_count" }
%"class.std::__1::__shared_count" = type { i32 (...)**, i64 }
%"class.std::__1::ctype" = type <{ %"class.std::__1::locale::facet", i16*, i8, [7 x i8] }>
%"struct.std::__1::basic_string<char, std::__1::char_traits<char>, std::__1::allocator<char> >::__short" = type { [23 x i8], %struct.anon }
%struct.anon = type { i8 }
%"class.rtc::RefCountedObject" = type <{ %"class.(anonymous namespace)::I420FrameAdapter", %"class.webrtc::webrtc_impl::RefCounter", [4 x i8] }>
%"class.(anonymous namespace)::I420FrameAdapter" = type { %"class.webrtc::I420BufferInterface", %class.scoped_refptr }
%"class.webrtc::webrtc_impl::RefCounter" = type { %"struct.std::__1::atomic" }
%"class.rtc::RefCountedObject.106" = type <{ %"class.(anonymous namespace)::I420AFrameAdapter", %"class.webrtc::webrtc_impl::RefCounter", [4 x i8] }>
%"class.(anonymous namespace)::I420AFrameAdapter" = type { %"class.webrtc::I420ABufferInterface", %class.scoped_refptr }
%"class.rtc::RefCountedObject.108" = type <{ %"class.(anonymous namespace)::NV12FrameAdapter", %"class.webrtc::webrtc_impl::RefCounter", [4 x i8] }>
%"class.(anonymous namespace)::NV12FrameAdapter" = type { %"class.webrtc::NV12BufferInterface", %class.scoped_refptr }
%"class.webrtc::NV12BufferInterface" = type { %"class.webrtc::BiplanarYuv8Buffer" }
%"class.webrtc::BiplanarYuv8Buffer" = type { %"class.webrtc::BiplanarYuvBuffer" }
%"class.webrtc::BiplanarYuvBuffer" = type { %"class.webrtc::VideoFrameBuffer" }
%"class.rtc::scoped_refptr.110" = type { %"class.webrtc::I420Buffer"* }
%"class.webrtc::I420Buffer" = type { %"class.webrtc::I420BufferInterface", i32, i32, i32, i32, i32, %"class.std::__1::unique_ptr.111" }
%"class.std::__1::unique_ptr.111" = type { %"class.std::__1::__compressed_pair.112" }
%"class.std::__1::__compressed_pair.112" = type { %"struct.std::__1::__compressed_pair_elem.63" }

$_ZNK5blink29LegacyWebRtcVideoFrameAdapter24SupportsOptimizedScalingEv = comdat any

$_ZNK5blink29LegacyWebRtcVideoFrameAdapter18getMediaVideoFrameEv = comdat any

$_ZN4base8internal7InvokerINS0_9BindStateIPFvP13scoped_refptrIN3viz21RasterContextProviderEEPNS_13WaitableEventEEJN3WTF28CrossThreadUnretainedWrapperIS6_EENSD_IS8_EEEEEFvvEE7RunOnceEPNS0_13BindStateBaseE = comdat any

$_ZN4base8internal9BindStateIPFvP13scoped_refptrIN3viz21RasterContextProviderEEPNS_13WaitableEventEEJN3WTF28CrossThreadUnretainedWrapperIS5_EENSC_IS7_EEEE7DestroyEPKNS0_13BindStateBaseE = comdat any

$_ZNSt3__16vectorIN3gfx4SizeENS_9allocatorIS2_EEE6assignIPS2_EENS_9enable_ifIXaasr27__is_cpp17_forward_iteratorIT_EE5valuesr16is_constructibleIS2_NS_15iterator_traitsIS9_E9referenceEEE5valueEvE4typeES9_S9_ = comdat any

$_ZN4base6ranges4findIRKNS_4spanIKN5media16VideoPixelFormatELm18446744073709551615EEES4_NS_8identityENSt3__126random_access_iterator_tagEEEDaOT_RKT0_T1_ = comdat any

$_ZNK4base25CheckedContiguousIteratorIKN5media16VideoPixelFormatEE15CheckComparableERKS4_ = comdat any

$_ZZN7logging15CheckOpValueStrIPKN5media16VideoPixelFormatEEENSt3__19enable_ifIXaasr4base8internal23SupportsOstreamOperatorIRKT_EE5valuentsr3std11is_functionINS5_14remove_pointerIS7_E4typeEEE5valueEPcE4typeES9_ENUlRNS5_13basic_ostreamIcNS5_11char_traitsIcEEEEPKvE_8__invokeESK_SM_ = comdat any

$_ZNK4base25CheckedContiguousIteratorIKN5media16VideoPixelFormatEEdeEv = comdat any

$_ZN4base25CheckedContiguousIteratorIKN5media16VideoPixelFormatEEppEv = comdat any

$_ZN4base25CheckedContiguousIteratorIKN5media16VideoPixelFormatEEC2EPS3_S5_S5_ = comdat any

$_ZNSt3__124__put_character_sequenceIcNS_11char_traitsIcEEEERNS_13basic_ostreamIT_T0_EES7_PKS4_m = comdat any

$_ZNSt3__116__pad_and_outputIcNS_11char_traitsIcEEEENS_19ostreambuf_iteratorIT_T0_EES6_PKS4_S8_S8_RNS_8ios_baseES4_ = comdat any

@.str = private unnamed_addr constant [25 x i8] c"GetRasterContextProvider\00", align 1
@.str.1 = private unnamed_addr constant [86 x i8] c"../../third_party/blink/renderer/platform/webrtc/legacy_webrtc_video_frame_adapter.cc\00", align 1
@.str.2 = private unnamed_addr constant [13 x i8] c"source_frame\00", align 1
@.str.3 = private unnamed_addr constant [27 x i8] c"ConstructVideoFrameFromGpu\00", align 1
@_ZTVN5blink29LegacyWebRtcVideoFrameAdapter15SharedResourcesE = hidden unnamed_addr constant { [9 x i8*] } { [9 x i8*] [i8* null, i8* null, i8* bitcast (%"class.media::VideoFrame"* (%"class.blink::LegacyWebRtcVideoFrameAdapter::SharedResources"*, i32, %"class.gfx::Size"*, %"class.gfx::Rect"*, %"class.gfx::Size"*, i64)* @_ZN5blink29LegacyWebRtcVideoFrameAdapter15SharedResources11CreateFrameEN5media16VideoPixelFormatERKN3gfx4SizeERKNS4_4RectES7_N4base9TimeDeltaE to i8*), i8* bitcast (%"class.media::VideoFrame"* (%"class.blink::LegacyWebRtcVideoFrameAdapter::SharedResources"*, i32, %"class.gfx::Size"*, %"class.gfx::Rect"*, %"class.gfx::Size"*, i64)* @_ZN5blink29LegacyWebRtcVideoFrameAdapter15SharedResources20CreateTemporaryFrameEN5media16VideoPixelFormatERKN3gfx4SizeERKNS4_4RectES7_N4base9TimeDeltaE to i8*), i8* bitcast (%"class.viz::RasterContextProvider"* (%"class.blink::LegacyWebRtcVideoFrameAdapter::SharedResources"*)* @_ZN5blink29LegacyWebRtcVideoFrameAdapter15SharedResources24GetRasterContextProviderEv to i8*), i8* bitcast (%"class.media::VideoFrame"* (%"class.blink::LegacyWebRtcVideoFrameAdapter::SharedResources"*, %"class.media::VideoFrame"*)* @_ZN5blink29LegacyWebRtcVideoFrameAdapter15SharedResources30ConstructVideoFrameFromTextureE13scoped_refptrIN5media10VideoFrameEE to i8*), i8* bitcast (%"class.media::VideoFrame"* (%"class.blink::LegacyWebRtcVideoFrameAdapter::SharedResources"*, %"class.media::VideoFrame"*)* @_ZN5blink29LegacyWebRtcVideoFrameAdapter15SharedResources26ConstructVideoFrameFromGpuE13scoped_refptrIN5media10VideoFrameEE to i8*), i8* bitcast (void (%"class.blink::LegacyWebRtcVideoFrameAdapter::SharedResources"*)* @_ZN5blink29LegacyWebRtcVideoFrameAdapter15SharedResourcesD2Ev to i8*), i8* bitcast (void (%"class.blink::LegacyWebRtcVideoFrameAdapter::SharedResources"*)* @_ZN5blink29LegacyWebRtcVideoFrameAdapter15SharedResourcesD0Ev to i8*)] }, align 8
@_ZTVN5blink29LegacyWebRtcVideoFrameAdapterE = hidden unnamed_addr constant { [15 x i8*] } { [15 x i8*] [i8* null, i8* null, i8* bitcast (void ()* @__cxa_pure_virtual to i8*), i8* bitcast (void ()* @__cxa_pure_virtual to i8*), i8* bitcast (void (%"class.blink::LegacyWebRtcVideoFrameAdapter"*)* @_ZN5blink29LegacyWebRtcVideoFrameAdapterD2Ev to i8*), i8* bitcast (void (%"class.blink::LegacyWebRtcVideoFrameAdapter"*)* @_ZN5blink29LegacyWebRtcVideoFrameAdapterD0Ev to i8*), i8* bitcast (i32 (%"class.blink::LegacyWebRtcVideoFrameAdapter"*)* @_ZNK5blink29LegacyWebRtcVideoFrameAdapter4typeEv to i8*), i8* bitcast (i32 (%"class.blink::LegacyWebRtcVideoFrameAdapter"*)* @_ZNK5blink29LegacyWebRtcVideoFrameAdapter5widthEv to i8*), i8* bitcast (i32 (%"class.blink::LegacyWebRtcVideoFrameAdapter"*)* @_ZNK5blink29LegacyWebRtcVideoFrameAdapter6heightEv to i8*), i8* bitcast (void (%"class.rtc::scoped_refptr.99"*, %"class.blink::LegacyWebRtcVideoFrameAdapter"*)* @_ZN5blink29LegacyWebRtcVideoFrameAdapter6ToI420Ev to i8*), i8* bitcast (%"class.webrtc::I420BufferInterface"* (%"class.blink::LegacyWebRtcVideoFrameAdapter"*)* @_ZNK5blink29LegacyWebRtcVideoFrameAdapter7GetI420Ev to i8*), i8* bitcast (void (%"class.rtc::scoped_refptr"*, %"class.blink::LegacyWebRtcVideoFrameAdapter"*, i32, i32, i32, i32, i32, i32)* @_ZN5blink29LegacyWebRtcVideoFrameAdapter12CropAndScaleEiiiiii to i8*), i8* bitcast (void (%"class.rtc::scoped_refptr"*, %"class.blink::LegacyWebRtcVideoFrameAdapter"*, i32*, i64)* @_ZN5blink29LegacyWebRtcVideoFrameAdapter20GetMappedFrameBufferEN3rtc9ArrayViewIN6webrtc16VideoFrameBuffer4TypeELln4711EEE to i8*), i8* bitcast (i1 (%"class.blink::LegacyWebRtcVideoFrameAdapter"*)* @_ZNK5blink29LegacyWebRtcVideoFrameAdapter24SupportsOptimizedScalingEv to i8*), i8* bitcast (%"class.media::VideoFrame"* (%"class.blink::LegacyWebRtcVideoFrameAdapter"*)* @_ZNK5blink29LegacyWebRtcVideoFrameAdapter18getMediaVideoFrameEv to i8*)] }, align 8
@_ZZN5blink29LegacyWebRtcVideoFrameAdapter29AdaptableMappablePixelFormatsEvE30kAdaptableMappablePixelFormats = internal constant [3 x i32] [i32 1, i32 4, i32 6], align 4
@.str.5 = private unnamed_addr constant [23 x i8] c"start_ == other.start_\00", align 1
@.str.6 = private unnamed_addr constant [42 x i8] c"../../base/containers/checked_iterators.h\00", align 1
@.str.7 = private unnamed_addr constant [19 x i8] c"end_ == other.end_\00", align 1
@.str.8 = private unnamed_addr constant [17 x i8] c"current_ != end_\00", align 1
@.str.9 = private unnamed_addr constant [17 x i8] c"start <= current\00", align 1
@.str.10 = private unnamed_addr constant [15 x i8] c"current <= end\00", align 1
@.str.13 = private unnamed_addr constant [39 x i8] c"Failed to create I420 frame from pool.\00", align 1
@_ZNSt3__15ctypeIcE2idE = external global %"class.std::__1::locale::id", align 8
@_ZTVN3rtc16RefCountedObjectIN12_GLOBAL__N_116I420FrameAdapterEEE = internal unnamed_addr constant { [22 x i8*] } { [22 x i8*] [i8* null, i8* null, i8* bitcast (void (%"class.rtc::RefCountedObject"*)* @_ZNK3rtc16RefCountedObjectIN12_GLOBAL__N_116I420FrameAdapterEE6AddRefEv to i8*), i8* bitcast (i32 (%"class.rtc::RefCountedObject"*)* @_ZNK3rtc16RefCountedObjectIN12_GLOBAL__N_116I420FrameAdapterEE7ReleaseEv to i8*), i8* bitcast (void (%"class.(anonymous namespace)::I420FrameAdapter"*)* @_ZN12_GLOBAL__N_116I420FrameAdapterD2Ev to i8*), i8* bitcast (void (%"class.rtc::RefCountedObject"*)* @_ZN3rtc16RefCountedObjectIN12_GLOBAL__N_116I420FrameAdapterEED0Ev to i8*), i8* bitcast (i32 (%"class.webrtc::I420BufferInterface"*)* @_ZNK6webrtc19I420BufferInterface4typeEv to i8*), i8* bitcast (i32 (%"class.(anonymous namespace)::I420FrameAdapter"*)* @_ZNK12_GLOBAL__N_116I420FrameAdapter5widthEv to i8*), i8* bitcast (i32 (%"class.(anonymous namespace)::I420FrameAdapter"*)* @_ZNK12_GLOBAL__N_116I420FrameAdapter6heightEv to i8*), i8* bitcast (void (%"class.rtc::scoped_refptr.99"*, %"class.webrtc::I420BufferInterface"*)* @_ZN6webrtc19I420BufferInterface6ToI420Ev to i8*), i8* bitcast (%"class.webrtc::I420BufferInterface"* (%"class.webrtc::I420BufferInterface"*)* @_ZNK6webrtc19I420BufferInterface7GetI420Ev to i8*), i8* bitcast (void (%"class.rtc::scoped_refptr"*, %"class.webrtc::VideoFrameBuffer"*, i32, i32, i32, i32, i32, i32)* @_ZN6webrtc16VideoFrameBuffer12CropAndScaleEiiiiii to i8*), i8* bitcast (void (%"class.rtc::scoped_refptr"*, %"class.webrtc::VideoFrameBuffer"*, i32*, i64)* @_ZN6webrtc16VideoFrameBuffer20GetMappedFrameBufferEN3rtc9ArrayViewINS0_4TypeELln4711EEE to i8*), i8* bitcast (i32 (%"class.webrtc::I420BufferInterface"*)* @_ZNK6webrtc19I420BufferInterface11ChromaWidthEv to i8*), i8* bitcast (i32 (%"class.webrtc::I420BufferInterface"*)* @_ZNK6webrtc19I420BufferInterface12ChromaHeightEv to i8*), i8* bitcast (i32 (%"class.(anonymous namespace)::I420FrameAdapter"*)* @_ZNK12_GLOBAL__N_116I420FrameAdapter7StrideYEv to i8*), i8* bitcast (i32 (%"class.(anonymous namespace)::I420FrameAdapter"*)* @_ZNK12_GLOBAL__N_116I420FrameAdapter7StrideUEv to i8*), i8* bitcast (i32 (%"class.(anonymous namespace)::I420FrameAdapter"*)* @_ZNK12_GLOBAL__N_116I420FrameAdapter7StrideVEv to i8*), i8* bitcast (i8* (%"class.(anonymous namespace)::I420FrameAdapter"*)* @_ZNK12_GLOBAL__N_116I420FrameAdapter5DataYEv to i8*), i8* bitcast (i8* (%"class.(anonymous namespace)::I420FrameAdapter"*)* @_ZNK12_GLOBAL__N_116I420FrameAdapter5DataUEv to i8*), i8* bitcast (i8* (%"class.(anonymous namespace)::I420FrameAdapter"*)* @_ZNK12_GLOBAL__N_116I420FrameAdapter5DataVEv to i8*), i8* bitcast (i1 (%"class.rtc::RefCountedObject"*)* @_ZNK3rtc16RefCountedObjectIN12_GLOBAL__N_116I420FrameAdapterEE9HasOneRefEv to i8*)] }, align 8
@_ZTVN12_GLOBAL__N_116I420FrameAdapterE = internal unnamed_addr constant { [21 x i8*] } { [21 x i8*] [i8* null, i8* null, i8* bitcast (void ()* @__cxa_pure_virtual to i8*), i8* bitcast (void ()* @__cxa_pure_virtual to i8*), i8* bitcast (void (%"class.(anonymous namespace)::I420FrameAdapter"*)* @_ZN12_GLOBAL__N_116I420FrameAdapterD2Ev to i8*), i8* bitcast (void (%"class.(anonymous namespace)::I420FrameAdapter"*)* @_ZN12_GLOBAL__N_116I420FrameAdapterD0Ev to i8*), i8* bitcast (i32 (%"class.webrtc::I420BufferInterface"*)* @_ZNK6webrtc19I420BufferInterface4typeEv to i8*), i8* bitcast (i32 (%"class.(anonymous namespace)::I420FrameAdapter"*)* @_ZNK12_GLOBAL__N_116I420FrameAdapter5widthEv to i8*), i8* bitcast (i32 (%"class.(anonymous namespace)::I420FrameAdapter"*)* @_ZNK12_GLOBAL__N_116I420FrameAdapter6heightEv to i8*), i8* bitcast (void (%"class.rtc::scoped_refptr.99"*, %"class.webrtc::I420BufferInterface"*)* @_ZN6webrtc19I420BufferInterface6ToI420Ev to i8*), i8* bitcast (%"class.webrtc::I420BufferInterface"* (%"class.webrtc::I420BufferInterface"*)* @_ZNK6webrtc19I420BufferInterface7GetI420Ev to i8*), i8* bitcast (void (%"class.rtc::scoped_refptr"*, %"class.webrtc::VideoFrameBuffer"*, i32, i32, i32, i32, i32, i32)* @_ZN6webrtc16VideoFrameBuffer12CropAndScaleEiiiiii to i8*), i8* bitcast (void (%"class.rtc::scoped_refptr"*, %"class.webrtc::VideoFrameBuffer"*, i32*, i64)* @_ZN6webrtc16VideoFrameBuffer20GetMappedFrameBufferEN3rtc9ArrayViewINS0_4TypeELln4711EEE to i8*), i8* bitcast (i32 (%"class.webrtc::I420BufferInterface"*)* @_ZNK6webrtc19I420BufferInterface11ChromaWidthEv to i8*), i8* bitcast (i32 (%"class.webrtc::I420BufferInterface"*)* @_ZNK6webrtc19I420BufferInterface12ChromaHeightEv to i8*), i8* bitcast (i32 (%"class.(anonymous namespace)::I420FrameAdapter"*)* @_ZNK12_GLOBAL__N_116I420FrameAdapter7StrideYEv to i8*), i8* bitcast (i32 (%"class.(anonymous namespace)::I420FrameAdapter"*)* @_ZNK12_GLOBAL__N_116I420FrameAdapter7StrideUEv to i8*), i8* bitcast (i32 (%"class.(anonymous namespace)::I420FrameAdapter"*)* @_ZNK12_GLOBAL__N_116I420FrameAdapter7StrideVEv to i8*), i8* bitcast (i8* (%"class.(anonymous namespace)::I420FrameAdapter"*)* @_ZNK12_GLOBAL__N_116I420FrameAdapter5DataYEv to i8*), i8* bitcast (i8* (%"class.(anonymous namespace)::I420FrameAdapter"*)* @_ZNK12_GLOBAL__N_116I420FrameAdapter5DataUEv to i8*), i8* bitcast (i8* (%"class.(anonymous namespace)::I420FrameAdapter"*)* @_ZNK12_GLOBAL__N_116I420FrameAdapter5DataVEv to i8*)] }, align 8
@_ZTVN3rtc16RefCountedObjectIN12_GLOBAL__N_117I420AFrameAdapterEEE = internal unnamed_addr constant { [24 x i8*] } { [24 x i8*] [i8* null, i8* null, i8* bitcast (void (%"class.rtc::RefCountedObject.106"*)* @_ZNK3rtc16RefCountedObjectIN12_GLOBAL__N_117I420AFrameAdapterEE6AddRefEv to i8*), i8* bitcast (i32 (%"class.rtc::RefCountedObject.106"*)* @_ZNK3rtc16RefCountedObjectIN12_GLOBAL__N_117I420AFrameAdapterEE7ReleaseEv to i8*), i8* bitcast (void (%"class.(anonymous namespace)::I420AFrameAdapter"*)* @_ZN12_GLOBAL__N_117I420AFrameAdapterD2Ev to i8*), i8* bitcast (void (%"class.rtc::RefCountedObject.106"*)* @_ZN3rtc16RefCountedObjectIN12_GLOBAL__N_117I420AFrameAdapterEED0Ev to i8*), i8* bitcast (i32 (%"class.webrtc::I420ABufferInterface"*)* @_ZNK6webrtc20I420ABufferInterface4typeEv to i8*), i8* bitcast (i32 (%"class.(anonymous namespace)::I420AFrameAdapter"*)* @_ZNK12_GLOBAL__N_117I420AFrameAdapter5widthEv to i8*), i8* bitcast (i32 (%"class.(anonymous namespace)::I420AFrameAdapter"*)* @_ZNK12_GLOBAL__N_117I420AFrameAdapter6heightEv to i8*), i8* bitcast (void (%"class.rtc::scoped_refptr.99"*, %"class.webrtc::I420BufferInterface"*)* @_ZN6webrtc19I420BufferInterface6ToI420Ev to i8*), i8* bitcast (%"class.webrtc::I420BufferInterface"* (%"class.webrtc::I420BufferInterface"*)* @_ZNK6webrtc19I420BufferInterface7GetI420Ev to i8*), i8* bitcast (void (%"class.rtc::scoped_refptr"*, %"class.webrtc::VideoFrameBuffer"*, i32, i32, i32, i32, i32, i32)* @_ZN6webrtc16VideoFrameBuffer12CropAndScaleEiiiiii to i8*), i8* bitcast (void (%"class.rtc::scoped_refptr"*, %"class.webrtc::VideoFrameBuffer"*, i32*, i64)* @_ZN6webrtc16VideoFrameBuffer20GetMappedFrameBufferEN3rtc9ArrayViewINS0_4TypeELln4711EEE to i8*), i8* bitcast (i32 (%"class.webrtc::I420BufferInterface"*)* @_ZNK6webrtc19I420BufferInterface11ChromaWidthEv to i8*), i8* bitcast (i32 (%"class.webrtc::I420BufferInterface"*)* @_ZNK6webrtc19I420BufferInterface12ChromaHeightEv to i8*), i8* bitcast (i32 (%"class.(anonymous namespace)::I420AFrameAdapter"*)* @_ZNK12_GLOBAL__N_117I420AFrameAdapter7StrideYEv to i8*), i8* bitcast (i32 (%"class.(anonymous namespace)::I420AFrameAdapter"*)* @_ZNK12_GLOBAL__N_117I420AFrameAdapter7StrideUEv to i8*), i8* bitcast (i32 (%"class.(anonymous namespace)::I420AFrameAdapter"*)* @_ZNK12_GLOBAL__N_117I420AFrameAdapter7StrideVEv to i8*), i8* bitcast (i8* (%"class.(anonymous namespace)::I420AFrameAdapter"*)* @_ZNK12_GLOBAL__N_117I420AFrameAdapter5DataYEv to i8*), i8* bitcast (i8* (%"class.(anonymous namespace)::I420AFrameAdapter"*)* @_ZNK12_GLOBAL__N_117I420AFrameAdapter5DataUEv to i8*), i8* bitcast (i8* (%"class.(anonymous namespace)::I420AFrameAdapter"*)* @_ZNK12_GLOBAL__N_117I420AFrameAdapter5DataVEv to i8*), i8* bitcast (i8* (%"class.(anonymous namespace)::I420AFrameAdapter"*)* @_ZNK12_GLOBAL__N_117I420AFrameAdapter5DataAEv to i8*), i8* bitcast (i32 (%"class.(anonymous namespace)::I420AFrameAdapter"*)* @_ZNK12_GLOBAL__N_117I420AFrameAdapter7StrideAEv to i8*), i8* bitcast (i1 (%"class.rtc::RefCountedObject.106"*)* @_ZNK3rtc16RefCountedObjectIN12_GLOBAL__N_117I420AFrameAdapterEE9HasOneRefEv to i8*)] }, align 8
@_ZTVN12_GLOBAL__N_117I420AFrameAdapterE = internal unnamed_addr constant { [23 x i8*] } { [23 x i8*] [i8* null, i8* null, i8* bitcast (void ()* @__cxa_pure_virtual to i8*), i8* bitcast (void ()* @__cxa_pure_virtual to i8*), i8* bitcast (void (%"class.(anonymous namespace)::I420AFrameAdapter"*)* @_ZN12_GLOBAL__N_117I420AFrameAdapterD2Ev to i8*), i8* bitcast (void (%"class.(anonymous namespace)::I420AFrameAdapter"*)* @_ZN12_GLOBAL__N_117I420AFrameAdapterD0Ev to i8*), i8* bitcast (i32 (%"class.webrtc::I420ABufferInterface"*)* @_ZNK6webrtc20I420ABufferInterface4typeEv to i8*), i8* bitcast (i32 (%"class.(anonymous namespace)::I420AFrameAdapter"*)* @_ZNK12_GLOBAL__N_117I420AFrameAdapter5widthEv to i8*), i8* bitcast (i32 (%"class.(anonymous namespace)::I420AFrameAdapter"*)* @_ZNK12_GLOBAL__N_117I420AFrameAdapter6heightEv to i8*), i8* bitcast (void (%"class.rtc::scoped_refptr.99"*, %"class.webrtc::I420BufferInterface"*)* @_ZN6webrtc19I420BufferInterface6ToI420Ev to i8*), i8* bitcast (%"class.webrtc::I420BufferInterface"* (%"class.webrtc::I420BufferInterface"*)* @_ZNK6webrtc19I420BufferInterface7GetI420Ev to i8*), i8* bitcast (void (%"class.rtc::scoped_refptr"*, %"class.webrtc::VideoFrameBuffer"*, i32, i32, i32, i32, i32, i32)* @_ZN6webrtc16VideoFrameBuffer12CropAndScaleEiiiiii to i8*), i8* bitcast (void (%"class.rtc::scoped_refptr"*, %"class.webrtc::VideoFrameBuffer"*, i32*, i64)* @_ZN6webrtc16VideoFrameBuffer20GetMappedFrameBufferEN3rtc9ArrayViewINS0_4TypeELln4711EEE to i8*), i8* bitcast (i32 (%"class.webrtc::I420BufferInterface"*)* @_ZNK6webrtc19I420BufferInterface11ChromaWidthEv to i8*), i8* bitcast (i32 (%"class.webrtc::I420BufferInterface"*)* @_ZNK6webrtc19I420BufferInterface12ChromaHeightEv to i8*), i8* bitcast (i32 (%"class.(anonymous namespace)::I420AFrameAdapter"*)* @_ZNK12_GLOBAL__N_117I420AFrameAdapter7StrideYEv to i8*), i8* bitcast (i32 (%"class.(anonymous namespace)::I420AFrameAdapter"*)* @_ZNK12_GLOBAL__N_117I420AFrameAdapter7StrideUEv to i8*), i8* bitcast (i32 (%"class.(anonymous namespace)::I420AFrameAdapter"*)* @_ZNK12_GLOBAL__N_117I420AFrameAdapter7StrideVEv to i8*), i8* bitcast (i8* (%"class.(anonymous namespace)::I420AFrameAdapter"*)* @_ZNK12_GLOBAL__N_117I420AFrameAdapter5DataYEv to i8*), i8* bitcast (i8* (%"class.(anonymous namespace)::I420AFrameAdapter"*)* @_ZNK12_GLOBAL__N_117I420AFrameAdapter5DataUEv to i8*), i8* bitcast (i8* (%"class.(anonymous namespace)::I420AFrameAdapter"*)* @_ZNK12_GLOBAL__N_117I420AFrameAdapter5DataVEv to i8*), i8* bitcast (i8* (%"class.(anonymous namespace)::I420AFrameAdapter"*)* @_ZNK12_GLOBAL__N_117I420AFrameAdapter5DataAEv to i8*), i8* bitcast (i32 (%"class.(anonymous namespace)::I420AFrameAdapter"*)* @_ZNK12_GLOBAL__N_117I420AFrameAdapter7StrideAEv to i8*)] }, align 8
@_ZTVN3rtc16RefCountedObjectIN12_GLOBAL__N_116NV12FrameAdapterEEE = internal unnamed_addr constant { [20 x i8*] } { [20 x i8*] [i8* null, i8* null, i8* bitcast (void (%"class.rtc::RefCountedObject.108"*)* @_ZNK3rtc16RefCountedObjectIN12_GLOBAL__N_116NV12FrameAdapterEE6AddRefEv to i8*), i8* bitcast (i32 (%"class.rtc::RefCountedObject.108"*)* @_ZNK3rtc16RefCountedObjectIN12_GLOBAL__N_116NV12FrameAdapterEE7ReleaseEv to i8*), i8* bitcast (void (%"class.(anonymous namespace)::NV12FrameAdapter"*)* @_ZN12_GLOBAL__N_116NV12FrameAdapterD2Ev to i8*), i8* bitcast (void (%"class.rtc::RefCountedObject.108"*)* @_ZN3rtc16RefCountedObjectIN12_GLOBAL__N_116NV12FrameAdapterEED0Ev to i8*), i8* bitcast (i32 (%"class.webrtc::NV12BufferInterface"*)* @_ZNK6webrtc19NV12BufferInterface4typeEv to i8*), i8* bitcast (i32 (%"class.(anonymous namespace)::NV12FrameAdapter"*)* @_ZNK12_GLOBAL__N_116NV12FrameAdapter5widthEv to i8*), i8* bitcast (i32 (%"class.(anonymous namespace)::NV12FrameAdapter"*)* @_ZNK12_GLOBAL__N_116NV12FrameAdapter6heightEv to i8*), i8* bitcast (void (%"class.rtc::scoped_refptr.99"*, %"class.(anonymous namespace)::NV12FrameAdapter"*)* @_ZN12_GLOBAL__N_116NV12FrameAdapter6ToI420Ev to i8*), i8* bitcast (%"class.webrtc::I420BufferInterface"* (%"class.webrtc::VideoFrameBuffer"*)* @_ZNK6webrtc16VideoFrameBuffer7GetI420Ev to i8*), i8* bitcast (void (%"class.rtc::scoped_refptr"*, %"class.webrtc::NV12BufferInterface"*, i32, i32, i32, i32, i32, i32)* @_ZN6webrtc19NV12BufferInterface12CropAndScaleEiiiiii to i8*), i8* bitcast (void (%"class.rtc::scoped_refptr"*, %"class.webrtc::VideoFrameBuffer"*, i32*, i64)* @_ZN6webrtc16VideoFrameBuffer20GetMappedFrameBufferEN3rtc9ArrayViewINS0_4TypeELln4711EEE to i8*), i8* bitcast (i32 (%"class.webrtc::NV12BufferInterface"*)* @_ZNK6webrtc19NV12BufferInterface11ChromaWidthEv to i8*), i8* bitcast (i32 (%"class.webrtc::NV12BufferInterface"*)* @_ZNK6webrtc19NV12BufferInterface12ChromaHeightEv to i8*), i8* bitcast (i32 (%"class.(anonymous namespace)::NV12FrameAdapter"*)* @_ZNK12_GLOBAL__N_116NV12FrameAdapter7StrideYEv to i8*), i8* bitcast (i32 (%"class.(anonymous namespace)::NV12FrameAdapter"*)* @_ZNK12_GLOBAL__N_116NV12FrameAdapter8StrideUVEv to i8*), i8* bitcast (i8* (%"class.(anonymous namespace)::NV12FrameAdapter"*)* @_ZNK12_GLOBAL__N_116NV12FrameAdapter5DataYEv to i8*), i8* bitcast (i8* (%"class.(anonymous namespace)::NV12FrameAdapter"*)* @_ZNK12_GLOBAL__N_116NV12FrameAdapter6DataUVEv to i8*), i8* bitcast (i1 (%"class.rtc::RefCountedObject.108"*)* @_ZNK3rtc16RefCountedObjectIN12_GLOBAL__N_116NV12FrameAdapterEE9HasOneRefEv to i8*)] }, align 8
@_ZTVN12_GLOBAL__N_116NV12FrameAdapterE = internal unnamed_addr constant { [19 x i8*] } { [19 x i8*] [i8* null, i8* null, i8* bitcast (void ()* @__cxa_pure_virtual to i8*), i8* bitcast (void ()* @__cxa_pure_virtual to i8*), i8* bitcast (void (%"class.(anonymous namespace)::NV12FrameAdapter"*)* @_ZN12_GLOBAL__N_116NV12FrameAdapterD2Ev to i8*), i8* bitcast (void (%"class.(anonymous namespace)::NV12FrameAdapter"*)* @_ZN12_GLOBAL__N_116NV12FrameAdapterD0Ev to i8*), i8* bitcast (i32 (%"class.webrtc::NV12BufferInterface"*)* @_ZNK6webrtc19NV12BufferInterface4typeEv to i8*), i8* bitcast (i32 (%"class.(anonymous namespace)::NV12FrameAdapter"*)* @_ZNK12_GLOBAL__N_116NV12FrameAdapter5widthEv to i8*), i8* bitcast (i32 (%"class.(anonymous namespace)::NV12FrameAdapter"*)* @_ZNK12_GLOBAL__N_116NV12FrameAdapter6heightEv to i8*), i8* bitcast (void (%"class.rtc::scoped_refptr.99"*, %"class.(anonymous namespace)::NV12FrameAdapter"*)* @_ZN12_GLOBAL__N_116NV12FrameAdapter6ToI420Ev to i8*), i8* bitcast (%"class.webrtc::I420BufferInterface"* (%"class.webrtc::VideoFrameBuffer"*)* @_ZNK6webrtc16VideoFrameBuffer7GetI420Ev to i8*), i8* bitcast (void (%"class.rtc::scoped_refptr"*, %"class.webrtc::NV12BufferInterface"*, i32, i32, i32, i32, i32, i32)* @_ZN6webrtc19NV12BufferInterface12CropAndScaleEiiiiii to i8*), i8* bitcast (void (%"class.rtc::scoped_refptr"*, %"class.webrtc::VideoFrameBuffer"*, i32*, i64)* @_ZN6webrtc16VideoFrameBuffer20GetMappedFrameBufferEN3rtc9ArrayViewINS0_4TypeELln4711EEE to i8*), i8* bitcast (i32 (%"class.webrtc::NV12BufferInterface"*)* @_ZNK6webrtc19NV12BufferInterface11ChromaWidthEv to i8*), i8* bitcast (i32 (%"class.webrtc::NV12BufferInterface"*)* @_ZNK6webrtc19NV12BufferInterface12ChromaHeightEv to i8*), i8* bitcast (i32 (%"class.(anonymous namespace)::NV12FrameAdapter"*)* @_ZNK12_GLOBAL__N_116NV12FrameAdapter7StrideYEv to i8*), i8* bitcast (i32 (%"class.(anonymous namespace)::NV12FrameAdapter"*)* @_ZNK12_GLOBAL__N_116NV12FrameAdapter8StrideUVEv to i8*), i8* bitcast (i8* (%"class.(anonymous namespace)::NV12FrameAdapter"*)* @_ZNK12_GLOBAL__N_116NV12FrameAdapter5DataYEv to i8*), i8* bitcast (i8* (%"class.(anonymous namespace)::NV12FrameAdapter"*)* @_ZNK12_GLOBAL__N_116NV12FrameAdapter6DataUVEv to i8*)] }, align 8

@_ZN5blink29LegacyWebRtcVideoFrameAdapter15SharedResourcesC1EPN5media28GpuVideoAcceleratorFactoriesE = hidden unnamed_addr alias void (%"class.blink::LegacyWebRtcVideoFrameAdapter::SharedResources"*, %"class.media::GpuVideoAcceleratorFactories"*), void (%"class.blink::LegacyWebRtcVideoFrameAdapter::SharedResources"*, %"class.media::GpuVideoAcceleratorFactories"*)* @_ZN5blink29LegacyWebRtcVideoFrameAdapter15SharedResourcesC2EPN5media28GpuVideoAcceleratorFactoriesE
@_ZN5blink29LegacyWebRtcVideoFrameAdapter15SharedResourcesD1Ev = hidden unnamed_addr alias void (%"class.blink::LegacyWebRtcVideoFrameAdapter::SharedResources"*), void (%"class.blink::LegacyWebRtcVideoFrameAdapter::SharedResources"*)* @_ZN5blink29LegacyWebRtcVideoFrameAdapter15SharedResourcesD2Ev
@_ZN5blink29LegacyWebRtcVideoFrameAdapterD1Ev = hidden unnamed_addr alias void (%"class.blink::LegacyWebRtcVideoFrameAdapter"*), void (%"class.blink::LegacyWebRtcVideoFrameAdapter"*)* @_ZN5blink29LegacyWebRtcVideoFrameAdapterD2Ev

; Function Attrs: nounwind ssp uwtable
define hidden %"class.media::VideoFrame"* @_ZN5blink29LegacyWebRtcVideoFrameAdapter15SharedResources11CreateFrameEN5media16VideoPixelFormatERKN3gfx4SizeERKNS4_4RectES7_N4base9TimeDeltaE(%"class.blink::LegacyWebRtcVideoFrameAdapter::SharedResources"*, i32, %"class.gfx::Size"* dereferenceable(8), %"class.gfx::Rect"* dereferenceable(16), %"class.gfx::Size"* dereferenceable(8), i64) unnamed_addr #0 align 2 {
  %7 = getelementptr inbounds %"class.blink::LegacyWebRtcVideoFrameAdapter::SharedResources", %"class.blink::LegacyWebRtcVideoFrameAdapter::SharedResources"* %0, i64 0, i32 2
  %8 = tail call %"class.media::VideoFrame"* @_ZN5media14VideoFramePool11CreateFrameENS_16VideoPixelFormatERKN3gfx4SizeERKNS2_4RectES5_N4base9TimeDeltaE(%"class.media::VideoFramePool"* %7, i32 %1, %"class.gfx::Size"* dereferenceable(8) %2, %"class.gfx::Rect"* dereferenceable(16) %3, %"class.gfx::Size"* dereferenceable(8) %4, i64 %5) #15
  ret %"class.media::VideoFrame"* %8
}

declare %"class.media::VideoFrame"* @_ZN5media14VideoFramePool11CreateFrameENS_16VideoPixelFormatERKN3gfx4SizeERKNS2_4RectES5_N4base9TimeDeltaE(%"class.media::VideoFramePool"*, i32, %"class.gfx::Size"* dereferenceable(8), %"class.gfx::Rect"* dereferenceable(16), %"class.gfx::Size"* dereferenceable(8), i64) local_unnamed_addr #1

; Function Attrs: argmemonly nounwind
declare void @llvm.memcpy.p0i8.p0i8.i64(i8* nocapture writeonly, i8* nocapture readonly, i64, i1 immarg) #2

; Function Attrs: nounwind ssp uwtable
define hidden %"class.media::VideoFrame"* @_ZN5blink29LegacyWebRtcVideoFrameAdapter15SharedResources20CreateTemporaryFrameEN5media16VideoPixelFormatERKN3gfx4SizeERKNS4_4RectES7_N4base9TimeDeltaE(%"class.blink::LegacyWebRtcVideoFrameAdapter::SharedResources"*, i32, %"class.gfx::Size"* dereferenceable(8), %"class.gfx::Rect"* dereferenceable(16), %"class.gfx::Size"* dereferenceable(8), i64) unnamed_addr #0 align 2 {
  %7 = getelementptr inbounds %"class.blink::LegacyWebRtcVideoFrameAdapter::SharedResources", %"class.blink::LegacyWebRtcVideoFrameAdapter::SharedResources"* %0, i64 0, i32 4
  %8 = tail call %"class.media::VideoFrame"* @_ZN5media14VideoFramePool11CreateFrameENS_16VideoPixelFormatERKN3gfx4SizeERKNS2_4RectES5_N4base9TimeDeltaE(%"class.media::VideoFramePool"* %7, i32 %1, %"class.gfx::Size"* dereferenceable(8) %2, %"class.gfx::Rect"* dereferenceable(16) %3, %"class.gfx::Size"* dereferenceable(8) %4, i64 %5) #15
  ret %"class.media::VideoFrame"* %8
}

; Function Attrs: nounwind ssp uwtable
define hidden %"class.viz::RasterContextProvider"* @_ZN5blink29LegacyWebRtcVideoFrameAdapter15SharedResources24GetRasterContextProviderEv(%"class.blink::LegacyWebRtcVideoFrameAdapter::SharedResources"*) unnamed_addr #0 align 2 {
  %2 = alloca %"class.base::OnceCallback.10", align 8
  %3 = alloca %"class.WTF::CrossThreadOnceFunction", align 8
  %4 = alloca %"class.base::OnceCallback.10", align 8
  %5 = alloca %"class.base::OnceCallback.10", align 8
  %6 = alloca %"class.viz::RasterContextProvider::ScopedRasterContextLock", align 8
  %7 = alloca %"class.base::WaitableEvent", align 8
  %8 = alloca %"class.base::Location", align 8
  %9 = alloca %"class.WTF::CrossThreadOnceFunction", align 8
  %10 = alloca %"class.base::ScopedAllowBaseSyncPrimitivesOutsideBlockingScope", align 1
  %11 = alloca %"class.base::Location", align 8
  %12 = getelementptr inbounds %"class.blink::LegacyWebRtcVideoFrameAdapter::SharedResources", %"class.blink::LegacyWebRtcVideoFrameAdapter::SharedResources"* %0, i64 0, i32 5
  %13 = getelementptr inbounds %"class.base::Lock", %"class.base::Lock"* %12, i64 0, i32 0, i32 0
  %14 = tail call i32 @pthread_mutex_trylock(%union.pthread_mutex_t* %13) #15
  %15 = icmp eq i32 %14, 0
  br i1 %15, label %18, label %16, !prof !2

16:                                               ; preds = %1
  %17 = getelementptr inbounds %"class.base::Lock", %"class.base::Lock"* %12, i64 0, i32 0
  tail call void @_ZN4base8internal8LockImpl24LockInternalWithTrackingEv(%"class.base::internal::LockImpl"* %17) #15
  br label %18

18:                                               ; preds = %1, %16
  %19 = getelementptr inbounds %"class.blink::LegacyWebRtcVideoFrameAdapter::SharedResources", %"class.blink::LegacyWebRtcVideoFrameAdapter::SharedResources"* %0, i64 0, i32 6
  %20 = getelementptr inbounds %class.scoped_refptr.67, %class.scoped_refptr.67* %19, i64 0, i32 0
  %21 = load %"class.viz::RasterContextProvider"*, %"class.viz::RasterContextProvider"** %20, align 8
  %22 = icmp eq %"class.viz::RasterContextProvider"* %21, null
  br i1 %22, label %48, label %23

23:                                               ; preds = %18
  %24 = bitcast %"class.viz::RasterContextProvider::ScopedRasterContextLock"* %6 to i8*
  call void @llvm.lifetime.start.p0i8(i64 24, i8* nonnull %24) #15
  %25 = getelementptr inbounds %"class.viz::RasterContextProvider::ScopedRasterContextLock", %"class.viz::RasterContextProvider::ScopedRasterContextLock"* %6, i64 0, i32 0
  %26 = bitcast %"class.viz::RasterContextProvider::ScopedRasterContextLock"* %6 to i8*
  call void @llvm.memset.p0i8.i64(i8* nonnull align 8 %26, i8 -86, i64 24, i1 false)
  call void @_ZN3viz21RasterContextProvider23ScopedRasterContextLockC1EPS0_PKc(%"class.viz::RasterContextProvider::ScopedRasterContextLock"* nonnull %6, %"class.viz::RasterContextProvider"* nonnull %21, i8* null) #15
  %27 = load %"class.viz::RasterContextProvider"*, %"class.viz::RasterContextProvider"** %25, align 8
  %28 = bitcast %"class.viz::RasterContextProvider"* %27 to %"class.gpu::raster::RasterInterface"* (%"class.viz::RasterContextProvider"*)***
  %29 = load %"class.gpu::raster::RasterInterface"* (%"class.viz::RasterContextProvider"*)**, %"class.gpu::raster::RasterInterface"* (%"class.viz::RasterContextProvider"*)*** %28, align 8
  %30 = getelementptr inbounds %"class.gpu::raster::RasterInterface"* (%"class.viz::RasterContextProvider"*)*, %"class.gpu::raster::RasterInterface"* (%"class.viz::RasterContextProvider"*)** %29, i64 13
  %31 = load %"class.gpu::raster::RasterInterface"* (%"class.viz::RasterContextProvider"*)*, %"class.gpu::raster::RasterInterface"* (%"class.viz::RasterContextProvider"*)** %30, align 8
  %32 = call %"class.gpu::raster::RasterInterface"* %31(%"class.viz::RasterContextProvider"* %27) #15
  %33 = bitcast %"class.gpu::raster::RasterInterface"* %32 to i32 (%"class.gpu::raster::RasterInterface"*)***
  %34 = load i32 (%"class.gpu::raster::RasterInterface"*)**, i32 (%"class.gpu::raster::RasterInterface"*)*** %33, align 8
  %35 = getelementptr inbounds i32 (%"class.gpu::raster::RasterInterface"*)*, i32 (%"class.gpu::raster::RasterInterface"*)** %34, i64 37
  %36 = load i32 (%"class.gpu::raster::RasterInterface"*)*, i32 (%"class.gpu::raster::RasterInterface"*)** %35, align 8
  %37 = call i32 %36(%"class.gpu::raster::RasterInterface"* %32) #15
  %38 = icmp eq i32 %37, 0
  br i1 %38, label %39, label %47

39:                                               ; preds = %23
  %40 = load %"class.viz::RasterContextProvider"*, %"class.viz::RasterContextProvider"** %20, align 8
  %41 = icmp eq %"class.viz::RasterContextProvider"* %40, null
  br i1 %41, label %46, label %42

42:                                               ; preds = %39
  %43 = bitcast %"class.viz::RasterContextProvider"* %40 to void (%"class.viz::RasterContextProvider"*)***
  %44 = load void (%"class.viz::RasterContextProvider"*)**, void (%"class.viz::RasterContextProvider"*)*** %43, align 8
  %45 = load void (%"class.viz::RasterContextProvider"*)*, void (%"class.viz::RasterContextProvider"*)** %44, align 8
  call void %45(%"class.viz::RasterContextProvider"* nonnull %40) #15
  br label %46

46:                                               ; preds = %39, %42
  call void @_ZN3viz21RasterContextProvider23ScopedRasterContextLockD1Ev(%"class.viz::RasterContextProvider::ScopedRasterContextLock"* nonnull %6) #15
  call void @llvm.lifetime.end.p0i8(i64 24, i8* nonnull %24) #15
  br label %107

47:                                               ; preds = %23
  call void @_ZN3viz21RasterContextProvider23ScopedRasterContextLockD1Ev(%"class.viz::RasterContextProvider::ScopedRasterContextLock"* nonnull %6) #15
  call void @llvm.lifetime.end.p0i8(i64 24, i8* nonnull %24) #15
  br label %48

48:                                               ; preds = %18, %47
  %49 = bitcast %"class.base::WaitableEvent"* %7 to i8*
  call void @llvm.lifetime.start.p0i8(i64 16, i8* nonnull %49) #15
  %50 = bitcast %"class.base::WaitableEvent"* %7 to i8*
  call void @llvm.memset.p0i8.i64(i8* nonnull align 8 %50, i8 -86, i64 16, i1 false)
  call void @_ZN4base13WaitableEventC1ENS0_11ResetPolicyENS0_12InitialStateE(%"class.base::WaitableEvent"* nonnull %7, i32 0, i32 1) #15
  %51 = call %"class.blink::Thread"* @_ZN5blink6Thread10MainThreadEv() #15
  %52 = bitcast %"class.blink::Thread"* %51 to %"class.base::SingleThreadTaskRunner"* (%"class.blink::Thread"*)***
  %53 = load %"class.base::SingleThreadTaskRunner"* (%"class.blink::Thread"*)**, %"class.base::SingleThreadTaskRunner"* (%"class.blink::Thread"*)*** %52, align 8
  %54 = getelementptr inbounds %"class.base::SingleThreadTaskRunner"* (%"class.blink::Thread"*)*, %"class.base::SingleThreadTaskRunner"* (%"class.blink::Thread"*)** %53, i64 3
  %55 = load %"class.base::SingleThreadTaskRunner"* (%"class.blink::Thread"*)*, %"class.base::SingleThreadTaskRunner"* (%"class.blink::Thread"*)** %54, align 8
  %56 = call %"class.base::SingleThreadTaskRunner"* %55(%"class.blink::Thread"* %51) #15
  %57 = bitcast %"class.base::Location"* %8 to i8*
  call void @llvm.lifetime.start.p0i8(i64 32, i8* nonnull %57) #15
  call void @_ZN4base8Location7CurrentEPKcS2_i(%"class.base::Location"* nonnull sret %8, i8* getelementptr inbounds ([25 x i8], [25 x i8]* @.str, i64 0, i64 0), i8* getelementptr inbounds ([86 x i8], [86 x i8]* @.str.1, i64 0, i64 0), i32 387) #15
  %58 = ptrtoint %class.scoped_refptr.67* %19 to i64
  %59 = ptrtoint %"class.base::WaitableEvent"* %7 to i64
  %60 = bitcast %"class.base::OnceCallback.10"* %5 to i8*
  call void @llvm.lifetime.start.p0i8(i64 8, i8* nonnull %60)
  %61 = call i8* @_Znwm(i64 56) #16, !noalias !3
  %62 = bitcast i8* %61 to %"class.base::internal::BindStateBase"*
  call void @_ZN4base8internal13BindStateBaseC2EPFvvEPFvPKS1_E(%"class.base::internal::BindStateBase"* nonnull %62, void ()* bitcast (void (%"class.base::internal::BindStateBase"*)* @_ZN4base8internal7InvokerINS0_9BindStateIPFvP13scoped_refptrIN3viz21RasterContextProviderEEPNS_13WaitableEventEEJN3WTF28CrossThreadUnretainedWrapperIS6_EENSD_IS8_EEEEEFvvEE7RunOnceEPNS0_13BindStateBaseE to void ()*), void (%"class.base::internal::BindStateBase"*)* nonnull @_ZN4base8internal9BindStateIPFvP13scoped_refptrIN3viz21RasterContextProviderEEPNS_13WaitableEventEEJN3WTF28CrossThreadUnretainedWrapperIS5_EENSC_IS7_EEEE7DestroyEPKNS0_13BindStateBaseE) #15, !noalias !3
  %63 = getelementptr inbounds i8, i8* %61, i64 32
  %64 = bitcast i8* %63 to i64*
  store i64 ptrtoint (void (%class.scoped_refptr.67*, %"class.base::WaitableEvent"*)* @_ZN12_GLOBAL__N_133CreateContextProviderOnMainThreadEP13scoped_refptrIN3viz21RasterContextProviderEEPN4base13WaitableEventE to i64), i64* %64, align 8, !noalias !3
  %65 = getelementptr inbounds i8, i8* %61, i64 40
  %66 = bitcast i8* %65 to i64*
  store i64 %58, i64* %66, align 8, !noalias !3
  %67 = getelementptr inbounds i8, i8* %61, i64 48
  %68 = bitcast i8* %67 to i64*
  store i64 %59, i64* %68, align 8, !noalias !3
  %69 = bitcast %"class.base::OnceCallback.10"* %4 to i8*
  call void @llvm.lifetime.start.p0i8(i64 8, i8* nonnull %69) #15, !noalias !10
  %70 = getelementptr inbounds %"class.base::OnceCallback.10", %"class.base::OnceCallback.10"* %5, i64 0, i32 0, i32 0, i32 0
  %71 = ptrtoint i8* %61 to i64
  store %"class.base::internal::BindStateBase"* null, %"class.base::internal::BindStateBase"** %70, align 8, !noalias !11
  %72 = getelementptr inbounds %"class.base::OnceCallback.10", %"class.base::OnceCallback.10"* %4, i64 0, i32 0, i32 0, i32 0
  store %"class.base::internal::BindStateBase"* null, %"class.base::internal::BindStateBase"** %72, align 8, !noalias !11
  %73 = getelementptr inbounds %"class.base::OnceCallback.10", %"class.base::OnceCallback.10"* %4, i64 0, i32 0
  call void @_ZN4base8internal12CallbackBaseD2Ev(%"class.base::internal::CallbackBase"* nonnull %73) #15, !noalias !11
  call void @llvm.lifetime.end.p0i8(i64 8, i8* nonnull %69) #15, !noalias !10
  %74 = getelementptr inbounds %"class.base::OnceCallback.10", %"class.base::OnceCallback.10"* %5, i64 0, i32 0
  call void @_ZN4base8internal12CallbackBaseD2Ev(%"class.base::internal::CallbackBase"* nonnull %74) #15, !noalias !10
  call void @llvm.lifetime.end.p0i8(i64 8, i8* nonnull %60)
  %75 = bitcast %"class.base::OnceCallback.10"* %2 to i8*
  call void @llvm.lifetime.start.p0i8(i64 8, i8* nonnull %75)
  %76 = bitcast %"class.WTF::CrossThreadOnceFunction"* %3 to i8*
  call void @llvm.lifetime.start.p0i8(i64 8, i8* nonnull %76)
  %77 = bitcast %"class.base::SingleThreadTaskRunner"* %56 to %"class.base::TaskRunner"*
  %78 = getelementptr inbounds %"class.WTF::CrossThreadOnceFunction", %"class.WTF::CrossThreadOnceFunction"* %9, i64 0, i32 0, i32 0, i32 0, i32 0
  store %"class.base::internal::BindStateBase"* null, %"class.base::internal::BindStateBase"** %78, align 8
  %79 = getelementptr inbounds %"class.WTF::CrossThreadOnceFunction", %"class.WTF::CrossThreadOnceFunction"* %3, i64 0, i32 0, i32 0, i32 0, i32 0
  %80 = bitcast %"class.base::OnceCallback.10"* %2 to i64*
  store i64 %71, i64* %80, align 8, !alias.scope !14
  store %"class.base::internal::BindStateBase"* null, %"class.base::internal::BindStateBase"** %79, align 8, !noalias !14
  %81 = bitcast %"class.base::SingleThreadTaskRunner"* %56 to i1 (%"class.base::TaskRunner"*, %"class.base::Location"*, %"class.base::OnceCallback.10"*, i64)***
  %82 = load i1 (%"class.base::TaskRunner"*, %"class.base::Location"*, %"class.base::OnceCallback.10"*, i64)**, i1 (%"class.base::TaskRunner"*, %"class.base::Location"*, %"class.base::OnceCallback.10"*, i64)*** %81, align 8
  %83 = load i1 (%"class.base::TaskRunner"*, %"class.base::Location"*, %"class.base::OnceCallback.10"*, i64)*, i1 (%"class.base::TaskRunner"*, %"class.base::Location"*, %"class.base::OnceCallback.10"*, i64)** %82, align 8
  %84 = call zeroext i1 %83(%"class.base::TaskRunner"* %77, %"class.base::Location"* nonnull dereferenceable(32) %8, %"class.base::OnceCallback.10"* nonnull %2, i64 0) #15
  %85 = getelementptr inbounds %"class.base::OnceCallback.10", %"class.base::OnceCallback.10"* %2, i64 0, i32 0
  call void @_ZN4base8internal12CallbackBaseD2Ev(%"class.base::internal::CallbackBase"* nonnull %85) #15
  %86 = getelementptr inbounds %"class.WTF::CrossThreadOnceFunction", %"class.WTF::CrossThreadOnceFunction"* %3, i64 0, i32 0, i32 0
  call void @_ZN4base8internal12CallbackBaseD2Ev(%"class.base::internal::CallbackBase"* nonnull %86) #15
  call void @llvm.lifetime.end.p0i8(i64 8, i8* nonnull %75)
  call void @llvm.lifetime.end.p0i8(i64 8, i8* nonnull %76)
  %87 = getelementptr inbounds %"class.WTF::CrossThreadOnceFunction", %"class.WTF::CrossThreadOnceFunction"* %9, i64 0, i32 0, i32 0
  call void @_ZN4base8internal12CallbackBaseD2Ev(%"class.base::internal::CallbackBase"* nonnull %87) #15
  call void @llvm.lifetime.end.p0i8(i64 32, i8* nonnull %57) #15
  %88 = icmp eq %"class.base::SingleThreadTaskRunner"* %56, null
  br i1 %88, label %97, label %89

89:                                               ; preds = %48
  %90 = getelementptr inbounds %"class.base::SingleThreadTaskRunner", %"class.base::SingleThreadTaskRunner"* %56, i64 0, i32 0, i32 0, i32 1
  %91 = getelementptr inbounds %"class.base::RefCountedThreadSafe.88", %"class.base::RefCountedThreadSafe.88"* %90, i64 0, i32 0, i32 0, i32 0, i32 0, i32 0, i32 0, i32 0, i32 0
  %92 = atomicrmw sub i32* %91, i32 1 acq_rel
  %93 = icmp eq i32 %92, 1
  br i1 %93, label %94, label %97

94:                                               ; preds = %89
  %95 = getelementptr inbounds %"class.base::RefCountedThreadSafe.88", %"class.base::RefCountedThreadSafe.88"* %90, i64 -2
  %96 = bitcast %"class.base::RefCountedThreadSafe.88"* %95 to %"class.base::TaskRunner"*
  call void @_ZN4base16TaskRunnerTraits8DestructEPKNS_10TaskRunnerE(%"class.base::TaskRunner"* %96) #15
  br label %97

97:                                               ; preds = %48, %89, %94
  %98 = getelementptr inbounds %"class.base::ScopedAllowBaseSyncPrimitivesOutsideBlockingScope", %"class.base::ScopedAllowBaseSyncPrimitivesOutsideBlockingScope"* %10, i64 0, i32 0, i32 0
  call void @llvm.lifetime.start.p0i8(i64 1, i8* nonnull %98) #15
  store i8 -86, i8* %98, align 1
  %99 = bitcast %"class.base::Location"* %11 to i8*
  call void @llvm.lifetime.start.p0i8(i64 32, i8* nonnull %99) #15
  call void @_ZN4base8Location7CurrentEPKcS2_i(%"class.base::Location"* nonnull sret %11, i8* getelementptr inbounds ([25 x i8], [25 x i8]* @.str, i64 0, i64 0), i8* getelementptr inbounds ([86 x i8], [86 x i8]* @.str.1, i64 0, i64 0), i32 394) #15
  call void @_ZN4base49ScopedAllowBaseSyncPrimitivesOutsideBlockingScopeC1ERKNS_8LocationE(%"class.base::ScopedAllowBaseSyncPrimitivesOutsideBlockingScope"* nonnull %10, %"class.base::Location"* nonnull dereferenceable(32) %11) #15
  call void @llvm.lifetime.end.p0i8(i64 32, i8* nonnull %99) #15
  notail call void @_ZN4base13WaitableEvent4WaitEv(%"class.base::WaitableEvent"* nonnull %7) #15
  %100 = load %"class.viz::RasterContextProvider"*, %"class.viz::RasterContextProvider"** %20, align 8
  %101 = icmp eq %"class.viz::RasterContextProvider"* %100, null
  br i1 %101, label %106, label %102

102:                                              ; preds = %97
  %103 = bitcast %"class.viz::RasterContextProvider"* %100 to void (%"class.viz::RasterContextProvider"*)***
  %104 = load void (%"class.viz::RasterContextProvider"*)**, void (%"class.viz::RasterContextProvider"*)*** %103, align 8
  %105 = load void (%"class.viz::RasterContextProvider"*)*, void (%"class.viz::RasterContextProvider"*)** %104, align 8
  call void %105(%"class.viz::RasterContextProvider"* nonnull %100) #15
  br label %106

106:                                              ; preds = %97, %102
  call void @_ZN4base49ScopedAllowBaseSyncPrimitivesOutsideBlockingScopeD1Ev(%"class.base::ScopedAllowBaseSyncPrimitivesOutsideBlockingScope"* nonnull %10) #15
  call void @llvm.lifetime.end.p0i8(i64 1, i8* nonnull %98) #15
  call void @_ZN4base13WaitableEventD1Ev(%"class.base::WaitableEvent"* nonnull %7) #15
  call void @llvm.lifetime.end.p0i8(i64 16, i8* nonnull %49) #15
  br label %107

107:                                              ; preds = %46, %106
  %108 = phi %"class.viz::RasterContextProvider"* [ %40, %46 ], [ %100, %106 ]
  %109 = call i32 @pthread_mutex_unlock(%union.pthread_mutex_t* %13) #15
  ret %"class.viz::RasterContextProvider"* %108
}

; Function Attrs: argmemonly nounwind
declare void @llvm.lifetime.start.p0i8(i64 immarg, i8* nocapture) #2

declare void @_ZN3viz21RasterContextProvider23ScopedRasterContextLockC1EPS0_PKc(%"class.viz::RasterContextProvider::ScopedRasterContextLock"*, %"class.viz::RasterContextProvider"*, i8*) unnamed_addr #1

; Function Attrs: nounwind
declare void @_ZN3viz21RasterContextProvider23ScopedRasterContextLockD1Ev(%"class.viz::RasterContextProvider::ScopedRasterContextLock"*) unnamed_addr #3

; Function Attrs: argmemonly nounwind
declare void @llvm.lifetime.end.p0i8(i64 immarg, i8* nocapture) #2

declare void @_ZN4base13WaitableEventC1ENS0_11ResetPolicyENS0_12InitialStateE(%"class.base::WaitableEvent"*, i32, i32) unnamed_addr #1

declare %"class.blink::Thread"* @_ZN5blink6Thread10MainThreadEv() local_unnamed_addr #1

declare void @_ZN4base8Location7CurrentEPKcS2_i(%"class.base::Location"* sret, i8*, i8*, i32) local_unnamed_addr #1

; Function Attrs: nounwind ssp uwtable
define internal void @_ZN12_GLOBAL__N_133CreateContextProviderOnMainThreadEP13scoped_refptrIN3viz21RasterContextProviderEEPN4base13WaitableEventE(%class.scoped_refptr.67* nocapture, %"class.base::WaitableEvent"*) #0 {
  %3 = tail call %"class.blink::Platform"* @_ZN5blink8Platform7CurrentEv() #15
  %4 = bitcast %"class.blink::Platform"* %3 to %"class.viz::RasterContextProvider"* (%"class.blink::Platform"*)***
  %5 = load %"class.viz::RasterContextProvider"* (%"class.blink::Platform"*)**, %"class.viz::RasterContextProvider"* (%"class.blink::Platform"*)*** %4, align 8
  %6 = getelementptr inbounds %"class.viz::RasterContextProvider"* (%"class.blink::Platform"*)*, %"class.viz::RasterContextProvider"* (%"class.blink::Platform"*)** %5, i64 59
  %7 = load %"class.viz::RasterContextProvider"* (%"class.blink::Platform"*)*, %"class.viz::RasterContextProvider"* (%"class.blink::Platform"*)** %6, align 8
  %8 = tail call %"class.viz::RasterContextProvider"* %7(%"class.blink::Platform"* %3) #15
  %9 = ptrtoint %"class.viz::RasterContextProvider"* %8 to i64
  %10 = bitcast %class.scoped_refptr.67* %0 to i64*
  %11 = getelementptr inbounds %class.scoped_refptr.67, %class.scoped_refptr.67* %0, i64 0, i32 0
  %12 = load %"class.viz::RasterContextProvider"*, %"class.viz::RasterContextProvider"** %11, align 8
  store i64 %9, i64* %10, align 8
  %13 = icmp eq %"class.viz::RasterContextProvider"* %12, null
  br i1 %13, label %19, label %14

14:                                               ; preds = %2
  %15 = bitcast %"class.viz::RasterContextProvider"* %12 to void (%"class.viz::RasterContextProvider"*)***
  %16 = load void (%"class.viz::RasterContextProvider"*)**, void (%"class.viz::RasterContextProvider"*)*** %15, align 8
  %17 = getelementptr inbounds void (%"class.viz::RasterContextProvider"*)*, void (%"class.viz::RasterContextProvider"*)** %16, i64 1
  %18 = load void (%"class.viz::RasterContextProvider"*)*, void (%"class.viz::RasterContextProvider"*)** %17, align 8
  tail call void %18(%"class.viz::RasterContextProvider"* nonnull %12) #15
  br label %19

19:                                               ; preds = %2, %14
  tail call void @_ZN4base13WaitableEvent6SignalEv(%"class.base::WaitableEvent"* %1) #15
  ret void
}

declare void @_ZN4base49ScopedAllowBaseSyncPrimitivesOutsideBlockingScopeC1ERKNS_8LocationE(%"class.base::ScopedAllowBaseSyncPrimitivesOutsideBlockingScope"*, %"class.base::Location"* dereferenceable(32)) unnamed_addr #1

declare void @_ZN4base13WaitableEvent4WaitEv(%"class.base::WaitableEvent"*) local_unnamed_addr #1

; Function Attrs: nounwind
declare void @_ZN4base49ScopedAllowBaseSyncPrimitivesOutsideBlockingScopeD1Ev(%"class.base::ScopedAllowBaseSyncPrimitivesOutsideBlockingScope"*) unnamed_addr #3

; Function Attrs: nounwind
declare void @_ZN4base13WaitableEventD1Ev(%"class.base::WaitableEvent"*) unnamed_addr #3

; Function Attrs: nounwind ssp uwtable
define hidden %"class.media::VideoFrame"* @_ZN5blink29LegacyWebRtcVideoFrameAdapter15SharedResources30ConstructVideoFrameFromTextureE13scoped_refptrIN5media10VideoFrameEE(%"class.blink::LegacyWebRtcVideoFrameAdapter::SharedResources"*, %"class.media::VideoFrame"*) unnamed_addr #0 align 2 {
  %3 = alloca %"class.viz::RasterContextProvider::ScopedRasterContextLock", align 8
  %4 = bitcast %"class.blink::LegacyWebRtcVideoFrameAdapter::SharedResources"* %0 to %"class.viz::RasterContextProvider"* (%"class.blink::LegacyWebRtcVideoFrameAdapter::SharedResources"*)***
  %5 = load %"class.viz::RasterContextProvider"* (%"class.blink::LegacyWebRtcVideoFrameAdapter::SharedResources"*)**, %"class.viz::RasterContextProvider"* (%"class.blink::LegacyWebRtcVideoFrameAdapter::SharedResources"*)*** %4, align 8
  %6 = getelementptr inbounds %"class.viz::RasterContextProvider"* (%"class.blink::LegacyWebRtcVideoFrameAdapter::SharedResources"*)*, %"class.viz::RasterContextProvider"* (%"class.blink::LegacyWebRtcVideoFrameAdapter::SharedResources"*)** %5, i64 2
  %7 = load %"class.viz::RasterContextProvider"* (%"class.blink::LegacyWebRtcVideoFrameAdapter::SharedResources"*)*, %"class.viz::RasterContextProvider"* (%"class.blink::LegacyWebRtcVideoFrameAdapter::SharedResources"*)** %6, align 8
  %8 = tail call %"class.viz::RasterContextProvider"* %7(%"class.blink::LegacyWebRtcVideoFrameAdapter::SharedResources"* %0) #15
  %9 = icmp eq %"class.viz::RasterContextProvider"* %8, null
  br i1 %9, label %35, label %10

10:                                               ; preds = %2
  %11 = bitcast %"class.viz::RasterContextProvider::ScopedRasterContextLock"* %3 to i8*
  call void @llvm.lifetime.start.p0i8(i64 24, i8* nonnull %11) #15
  %12 = getelementptr inbounds %"class.viz::RasterContextProvider::ScopedRasterContextLock", %"class.viz::RasterContextProvider::ScopedRasterContextLock"* %3, i64 0, i32 0
  %13 = bitcast %"class.viz::RasterContextProvider::ScopedRasterContextLock"* %3 to i8*
  call void @llvm.memset.p0i8.i64(i8* nonnull align 8 %13, i8 -86, i64 24, i1 false)
  call void @_ZN3viz21RasterContextProvider23ScopedRasterContextLockC1EPS0_PKc(%"class.viz::RasterContextProvider::ScopedRasterContextLock"* nonnull %3, %"class.viz::RasterContextProvider"* nonnull %8, i8* null) #15
  %14 = load %"class.viz::RasterContextProvider"*, %"class.viz::RasterContextProvider"** %12, align 8
  %15 = bitcast %"class.viz::RasterContextProvider"* %14 to %"class.gpu::raster::RasterInterface"* (%"class.viz::RasterContextProvider"*)***
  %16 = load %"class.gpu::raster::RasterInterface"* (%"class.viz::RasterContextProvider"*)**, %"class.gpu::raster::RasterInterface"* (%"class.viz::RasterContextProvider"*)*** %15, align 8
  %17 = getelementptr inbounds %"class.gpu::raster::RasterInterface"* (%"class.viz::RasterContextProvider"*)*, %"class.gpu::raster::RasterInterface"* (%"class.viz::RasterContextProvider"*)** %16, i64 13
  %18 = load %"class.gpu::raster::RasterInterface"* (%"class.viz::RasterContextProvider"*)*, %"class.gpu::raster::RasterInterface"* (%"class.viz::RasterContextProvider"*)** %17, align 8
  %19 = call %"class.gpu::raster::RasterInterface"* %18(%"class.viz::RasterContextProvider"* %14) #15
  %20 = bitcast %"class.viz::RasterContextProvider"* %8 to %class.GrDirectContext* (%"class.viz::RasterContextProvider"*)***
  %21 = load %class.GrDirectContext* (%"class.viz::RasterContextProvider"*)**, %class.GrDirectContext* (%"class.viz::RasterContextProvider"*)*** %20, align 8
  %22 = getelementptr inbounds %class.GrDirectContext* (%"class.viz::RasterContextProvider"*)*, %class.GrDirectContext* (%"class.viz::RasterContextProvider"*)** %21, i64 8
  %23 = load %class.GrDirectContext* (%"class.viz::RasterContextProvider"*)*, %class.GrDirectContext* (%"class.viz::RasterContextProvider"*)** %22, align 8
  %24 = call %class.GrDirectContext* %23(%"class.viz::RasterContextProvider"* nonnull %8) #15
  %25 = icmp eq %"class.gpu::raster::RasterInterface"* %19, null
  br i1 %25, label %29, label %26

26:                                               ; preds = %10
  %27 = getelementptr inbounds %"class.blink::LegacyWebRtcVideoFrameAdapter::SharedResources", %"class.blink::LegacyWebRtcVideoFrameAdapter::SharedResources"* %0, i64 0, i32 3
  %28 = call %"class.media::VideoFrame"* @_ZN5media38ReadbackTextureBackedFrameToMemorySyncERKNS_10VideoFrameEPN3gpu6raster15RasterInterfaceEP15GrDirectContextPNS_14VideoFramePoolE(%"class.media::VideoFrame"* dereferenceable(1144) %1, %"class.gpu::raster::RasterInterface"* nonnull %19, %class.GrDirectContext* %24, %"class.media::VideoFramePool"* %27) #15
  br label %29

29:                                               ; preds = %10, %26
  %30 = phi %"class.media::VideoFrame"* [ %28, %26 ], [ null, %10 ]
  call void @_ZN3viz21RasterContextProvider23ScopedRasterContextLockD1Ev(%"class.viz::RasterContextProvider::ScopedRasterContextLock"* nonnull %3) #15
  call void @llvm.lifetime.end.p0i8(i64 24, i8* nonnull %11) #15
  %31 = bitcast %"class.viz::RasterContextProvider"* %8 to void (%"class.viz::RasterContextProvider"*)***
  %32 = load void (%"class.viz::RasterContextProvider"*)**, void (%"class.viz::RasterContextProvider"*)*** %31, align 8
  %33 = getelementptr inbounds void (%"class.viz::RasterContextProvider"*)*, void (%"class.viz::RasterContextProvider"*)** %32, i64 1
  %34 = load void (%"class.viz::RasterContextProvider"*)*, void (%"class.viz::RasterContextProvider"*)** %33, align 8
  call void %34(%"class.viz::RasterContextProvider"* nonnull %8) #15
  br label %35

35:                                               ; preds = %2, %29
  %36 = phi %"class.media::VideoFrame"* [ %30, %29 ], [ null, %2 ]
  %37 = icmp eq %"class.media::VideoFrame"* %1, null
  br i1 %37, label %50, label %38

38:                                               ; preds = %35
  %39 = getelementptr inbounds %"class.media::VideoFrame", %"class.media::VideoFrame"* %1, i64 0, i32 1
  %40 = getelementptr inbounds %"class.base::RefCountedThreadSafe", %"class.base::RefCountedThreadSafe"* %39, i64 0, i32 0, i32 0, i32 0, i32 0, i32 0, i32 0, i32 0, i32 0
  %41 = atomicrmw sub i32* %40, i32 1 acq_rel
  %42 = icmp eq i32 %41, 1
  br i1 %42, label %43, label %50

43:                                               ; preds = %38
  %44 = getelementptr inbounds %"class.base::RefCountedThreadSafe", %"class.base::RefCountedThreadSafe"* %39, i64 -2
  %45 = bitcast %"class.base::RefCountedThreadSafe"* %44 to %"class.media::VideoFrame"*
  %46 = bitcast %"class.base::RefCountedThreadSafe"* %44 to void (%"class.media::VideoFrame"*)***
  %47 = load void (%"class.media::VideoFrame"*)**, void (%"class.media::VideoFrame"*)*** %46, align 8
  %48 = getelementptr inbounds void (%"class.media::VideoFrame"*)*, void (%"class.media::VideoFrame"*)** %47, i64 1
  %49 = load void (%"class.media::VideoFrame"*)*, void (%"class.media::VideoFrame"*)** %48, align 8
  call void %49(%"class.media::VideoFrame"* nonnull %45) #15
  br label %50

50:                                               ; preds = %35, %38, %43
  ret %"class.media::VideoFrame"* %36
}

declare %"class.media::VideoFrame"* @_ZN5media38ReadbackTextureBackedFrameToMemorySyncERKNS_10VideoFrameEPN3gpu6raster15RasterInterfaceEP15GrDirectContextPNS_14VideoFramePoolE(%"class.media::VideoFrame"* dereferenceable(1144), %"class.gpu::raster::RasterInterface"*, %class.GrDirectContext*, %"class.media::VideoFramePool"*) local_unnamed_addr #1

; Function Attrs: nounwind ssp uwtable
define hidden %"class.media::VideoFrame"* @_ZN5blink29LegacyWebRtcVideoFrameAdapter15SharedResources26ConstructVideoFrameFromGpuE13scoped_refptrIN5media10VideoFrameEE(%"class.blink::LegacyWebRtcVideoFrameAdapter::SharedResources"* nocapture readnone, %"class.media::VideoFrame"*) unnamed_addr #0 align 2 {
  %3 = alloca %"class.logging::CheckError", align 8
  %4 = alloca %"class.base::ScopedAllowBaseSyncPrimitivesOutsideBlockingScope", align 1
  %5 = alloca %"class.base::Location", align 8
  %6 = icmp eq %"class.media::VideoFrame"* %1, null
  br i1 %6, label %7, label %10

7:                                                ; preds = %2
  %8 = bitcast %"class.logging::CheckError"* %3 to i8*
  call void @llvm.lifetime.start.p0i8(i64 8, i8* nonnull %8) #15
  call void @_ZN7logging10CheckError5CheckEPKciS2_(%"class.logging::CheckError"* nonnull sret %3, i8* getelementptr inbounds ([86 x i8], [86 x i8]* @.str.1, i64 0, i64 0), i32 427, i8* getelementptr inbounds ([13 x i8], [13 x i8]* @.str.2, i64 0, i64 0)) #15
  %9 = call dereferenceable(160) %"class.std::__1::basic_ostream"* @_ZN7logging10CheckError6streamEv(%"class.logging::CheckError"* nonnull %3) #15
  call void @_ZN7logging10CheckErrorD1Ev(%"class.logging::CheckError"* nonnull %3) #15
  call void @llvm.lifetime.end.p0i8(i64 8, i8* nonnull %8) #15
  br label %10

10:                                               ; preds = %2, %7
  %11 = getelementptr inbounds %"class.base::ScopedAllowBaseSyncPrimitivesOutsideBlockingScope", %"class.base::ScopedAllowBaseSyncPrimitivesOutsideBlockingScope"* %4, i64 0, i32 0, i32 0
  call void @llvm.lifetime.start.p0i8(i64 1, i8* nonnull %11) #15
  store i8 -86, i8* %11, align 1
  %12 = bitcast %"class.base::Location"* %5 to i8*
  call void @llvm.lifetime.start.p0i8(i64 32, i8* nonnull %12) #15
  call void @_ZN4base8Location7CurrentEPKcS2_i(%"class.base::Location"* nonnull sret %5, i8* getelementptr inbounds ([27 x i8], [27 x i8]* @.str.3, i64 0, i64 0), i8* getelementptr inbounds ([86 x i8], [86 x i8]* @.str.1, i64 0, i64 0), i32 435) #15
  call void @_ZN4base49ScopedAllowBaseSyncPrimitivesOutsideBlockingScopeC1ERKNS_8LocationE(%"class.base::ScopedAllowBaseSyncPrimitivesOutsideBlockingScope"* nonnull %4, %"class.base::Location"* nonnull dereferenceable(32) %5) #15
  call void @llvm.lifetime.end.p0i8(i64 32, i8* nonnull %12) #15
  %13 = call %"class.media::VideoFrame"* @_ZN5media26ConvertToMemoryMappedFrameE13scoped_refptrINS_10VideoFrameEE(%"class.media::VideoFrame"* %1) #15
  call void @_ZN4base49ScopedAllowBaseSyncPrimitivesOutsideBlockingScopeD1Ev(%"class.base::ScopedAllowBaseSyncPrimitivesOutsideBlockingScope"* nonnull %4) #15
  call void @llvm.lifetime.end.p0i8(i64 1, i8* nonnull %11) #15
  ret %"class.media::VideoFrame"* %13
}

declare void @_ZN7logging10CheckError5CheckEPKciS2_(%"class.logging::CheckError"* sret, i8*, i32, i8*) local_unnamed_addr #1

declare dereferenceable(160) %"class.std::__1::basic_ostream"* @_ZN7logging10CheckError6streamEv(%"class.logging::CheckError"*) local_unnamed_addr #1

; Function Attrs: nounwind
declare void @_ZN7logging10CheckErrorD1Ev(%"class.logging::CheckError"*) unnamed_addr #3

declare %"class.media::VideoFrame"* @_ZN5media26ConvertToMemoryMappedFrameE13scoped_refptrINS_10VideoFrameEE(%"class.media::VideoFrame"*) local_unnamed_addr #1

; Function Attrs: nounwind ssp uwtable
define hidden void @_ZN5blink29LegacyWebRtcVideoFrameAdapter15SharedResources11SetFeedbackERKN5media20VideoCaptureFeedbackE(%"class.blink::LegacyWebRtcVideoFrameAdapter::SharedResources"*, %"struct.media::VideoCaptureFeedback"* readonly dereferenceable(48)) local_unnamed_addr #0 align 2 {
  %3 = getelementptr inbounds %"class.blink::LegacyWebRtcVideoFrameAdapter::SharedResources", %"class.blink::LegacyWebRtcVideoFrameAdapter::SharedResources"* %0, i64 0, i32 8
  %4 = getelementptr inbounds %"class.base::Lock", %"class.base::Lock"* %3, i64 0, i32 0, i32 0
  %5 = tail call i32 @pthread_mutex_trylock(%union.pthread_mutex_t* %4) #15
  %6 = icmp eq i32 %5, 0
  br i1 %6, label %9, label %7, !prof !2

7:                                                ; preds = %2
  %8 = getelementptr inbounds %"class.base::Lock", %"class.base::Lock"* %3, i64 0, i32 0
  tail call void @_ZN4base8internal8LockImpl24LockInternalWithTrackingEv(%"class.base::internal::LockImpl"* %8) #15
  br label %9

9:                                                ; preds = %2, %7
  %10 = getelementptr inbounds %"class.blink::LegacyWebRtcVideoFrameAdapter::SharedResources", %"class.blink::LegacyWebRtcVideoFrameAdapter::SharedResources"* %0, i64 0, i32 9
  %11 = bitcast %"struct.media::VideoCaptureFeedback"* %10 to i8*
  %12 = bitcast %"struct.media::VideoCaptureFeedback"* %1 to i8*
  tail call void @llvm.memcpy.p0i8.p0i8.i64(i8* align 8 %11, i8* align 8 %12, i64 17, i1 false) #15
  %13 = icmp eq %"struct.media::VideoCaptureFeedback"* %10, %1
  br i1 %13, label %20, label %14

14:                                               ; preds = %9
  %15 = getelementptr inbounds %"class.blink::LegacyWebRtcVideoFrameAdapter::SharedResources", %"class.blink::LegacyWebRtcVideoFrameAdapter::SharedResources"* %0, i64 0, i32 9, i32 4
  %16 = getelementptr inbounds %"struct.media::VideoCaptureFeedback", %"struct.media::VideoCaptureFeedback"* %1, i64 0, i32 4, i32 0, i32 0
  %17 = load %"class.gfx::Size"*, %"class.gfx::Size"** %16, align 8
  %18 = getelementptr inbounds %"struct.media::VideoCaptureFeedback", %"struct.media::VideoCaptureFeedback"* %1, i64 0, i32 4, i32 0, i32 1
  %19 = load %"class.gfx::Size"*, %"class.gfx::Size"** %18, align 8
  tail call void @_ZNSt3__16vectorIN3gfx4SizeENS_9allocatorIS2_EEE6assignIPS2_EENS_9enable_ifIXaasr27__is_cpp17_forward_iteratorIT_EE5valuesr16is_constructibleIS2_NS_15iterator_traitsIS9_E9referenceEEE5valueEvE4typeES9_S9_(%"class.std::__1::vector.68"* %15, %"class.gfx::Size"* %17, %"class.gfx::Size"* %19) #15
  br label %20

20:                                               ; preds = %9, %14
  %21 = tail call i32 @pthread_mutex_unlock(%union.pthread_mutex_t* %4) #15
  ret void
}

; Function Attrs: nounwind ssp uwtable
define hidden void @_ZN5blink29LegacyWebRtcVideoFrameAdapter15SharedResources11GetFeedbackEv(%"struct.media::VideoCaptureFeedback"* noalias sret, %"class.blink::LegacyWebRtcVideoFrameAdapter::SharedResources"*) local_unnamed_addr #0 align 2 {
  %3 = getelementptr inbounds %"class.blink::LegacyWebRtcVideoFrameAdapter::SharedResources", %"class.blink::LegacyWebRtcVideoFrameAdapter::SharedResources"* %1, i64 0, i32 8
  %4 = getelementptr inbounds %"class.base::Lock", %"class.base::Lock"* %3, i64 0, i32 0, i32 0
  %5 = tail call i32 @pthread_mutex_trylock(%union.pthread_mutex_t* %4) #15
  %6 = icmp eq i32 %5, 0
  br i1 %6, label %9, label %7, !prof !2

7:                                                ; preds = %2
  %8 = getelementptr inbounds %"class.base::Lock", %"class.base::Lock"* %3, i64 0, i32 0
  tail call void @_ZN4base8internal8LockImpl24LockInternalWithTrackingEv(%"class.base::internal::LockImpl"* %8) #15
  br label %9

9:                                                ; preds = %2, %7
  %10 = getelementptr inbounds %"class.blink::LegacyWebRtcVideoFrameAdapter::SharedResources", %"class.blink::LegacyWebRtcVideoFrameAdapter::SharedResources"* %1, i64 0, i32 9
  tail call void @_ZN5media20VideoCaptureFeedbackC1ERKS0_(%"struct.media::VideoCaptureFeedback"* %0, %"struct.media::VideoCaptureFeedback"* dereferenceable(48) %10) #15
  %11 = tail call i32 @pthread_mutex_unlock(%union.pthread_mutex_t* %4) #15
  ret void
}

declare void @_ZN5media20VideoCaptureFeedbackC1ERKS0_(%"struct.media::VideoCaptureFeedback"*, %"struct.media::VideoCaptureFeedback"* dereferenceable(48)) unnamed_addr #1

; Function Attrs: nounwind ssp uwtable
define hidden void @_ZN5blink29LegacyWebRtcVideoFrameAdapter15SharedResourcesC2EPN5media28GpuVideoAcceleratorFactoriesE(%"class.blink::LegacyWebRtcVideoFrameAdapter::SharedResources"*, %"class.media::GpuVideoAcceleratorFactories"*) unnamed_addr #0 align 2 {
  %3 = getelementptr inbounds %"class.blink::LegacyWebRtcVideoFrameAdapter::SharedResources", %"class.blink::LegacyWebRtcVideoFrameAdapter::SharedResources"* %0, i64 0, i32 1, i32 0, i32 0, i32 0, i32 0, i32 0, i32 0, i32 0, i32 0
  store i32 0, i32* %3, align 4
  %4 = getelementptr inbounds %"class.blink::LegacyWebRtcVideoFrameAdapter::SharedResources", %"class.blink::LegacyWebRtcVideoFrameAdapter::SharedResources"* %0, i64 0, i32 0
  store i32 (...)** bitcast (i8** getelementptr inbounds ({ [9 x i8*] }, { [9 x i8*] }* @_ZTVN5blink29LegacyWebRtcVideoFrameAdapter15SharedResourcesE, i64 0, inrange i32 0, i64 2) to i32 (...)**), i32 (...)*** %4, align 8
  %5 = getelementptr inbounds %"class.blink::LegacyWebRtcVideoFrameAdapter::SharedResources", %"class.blink::LegacyWebRtcVideoFrameAdapter::SharedResources"* %0, i64 0, i32 2
  tail call void @_ZN5media14VideoFramePoolC1Ev(%"class.media::VideoFramePool"* %5) #15
  %6 = getelementptr inbounds %"class.blink::LegacyWebRtcVideoFrameAdapter::SharedResources", %"class.blink::LegacyWebRtcVideoFrameAdapter::SharedResources"* %0, i64 0, i32 3
  tail call void @_ZN5media14VideoFramePoolC1Ev(%"class.media::VideoFramePool"* %6) #15
  %7 = getelementptr inbounds %"class.blink::LegacyWebRtcVideoFrameAdapter::SharedResources", %"class.blink::LegacyWebRtcVideoFrameAdapter::SharedResources"* %0, i64 0, i32 4
  tail call void @_ZN5media14VideoFramePoolC1Ev(%"class.media::VideoFramePool"* %7) #15
  %8 = getelementptr inbounds %"class.blink::LegacyWebRtcVideoFrameAdapter::SharedResources", %"class.blink::LegacyWebRtcVideoFrameAdapter::SharedResources"* %0, i64 0, i32 5, i32 0
  tail call void @_ZN4base8internal8LockImplC1Ev(%"class.base::internal::LockImpl"* %8) #15
  %9 = getelementptr inbounds %"class.blink::LegacyWebRtcVideoFrameAdapter::SharedResources", %"class.blink::LegacyWebRtcVideoFrameAdapter::SharedResources"* %0, i64 0, i32 6, i32 0
  store %"class.viz::RasterContextProvider"* null, %"class.viz::RasterContextProvider"** %9, align 8
  %10 = getelementptr inbounds %"class.blink::LegacyWebRtcVideoFrameAdapter::SharedResources", %"class.blink::LegacyWebRtcVideoFrameAdapter::SharedResources"* %0, i64 0, i32 7
  store %"class.media::GpuVideoAcceleratorFactories"* %1, %"class.media::GpuVideoAcceleratorFactories"** %10, align 8
  %11 = getelementptr inbounds %"class.blink::LegacyWebRtcVideoFrameAdapter::SharedResources", %"class.blink::LegacyWebRtcVideoFrameAdapter::SharedResources"* %0, i64 0, i32 8, i32 0
  tail call void @_ZN4base8internal8LockImplC1Ev(%"class.base::internal::LockImpl"* %11) #15
  %12 = getelementptr inbounds %"class.blink::LegacyWebRtcVideoFrameAdapter::SharedResources", %"class.blink::LegacyWebRtcVideoFrameAdapter::SharedResources"* %0, i64 0, i32 9
  tail call void @_ZN5media20VideoCaptureFeedbackC1Ev(%"struct.media::VideoCaptureFeedback"* %12) #15
  ret void
}

declare void @_ZN5media14VideoFramePoolC1Ev(%"class.media::VideoFramePool"*) unnamed_addr #1

declare void @_ZN5media20VideoCaptureFeedbackC1Ev(%"struct.media::VideoCaptureFeedback"*) unnamed_addr #1

; Function Attrs: nounwind ssp uwtable
define hidden void @_ZN5blink29LegacyWebRtcVideoFrameAdapter15SharedResourcesD2Ev(%"class.blink::LegacyWebRtcVideoFrameAdapter::SharedResources"*) unnamed_addr #0 align 2 {
  %2 = getelementptr inbounds %"class.blink::LegacyWebRtcVideoFrameAdapter::SharedResources", %"class.blink::LegacyWebRtcVideoFrameAdapter::SharedResources"* %0, i64 0, i32 0
  store i32 (...)** bitcast (i8** getelementptr inbounds ({ [9 x i8*] }, { [9 x i8*] }* @_ZTVN5blink29LegacyWebRtcVideoFrameAdapter15SharedResourcesE, i64 0, inrange i32 0, i64 2) to i32 (...)**), i32 (...)*** %2, align 8
  %3 = getelementptr inbounds %"class.blink::LegacyWebRtcVideoFrameAdapter::SharedResources", %"class.blink::LegacyWebRtcVideoFrameAdapter::SharedResources"* %0, i64 0, i32 9
  tail call void @_ZN5media20VideoCaptureFeedbackD1Ev(%"struct.media::VideoCaptureFeedback"* %3) #15
  %4 = getelementptr inbounds %"class.blink::LegacyWebRtcVideoFrameAdapter::SharedResources", %"class.blink::LegacyWebRtcVideoFrameAdapter::SharedResources"* %0, i64 0, i32 8, i32 0
  tail call void @_ZN4base8internal8LockImplD1Ev(%"class.base::internal::LockImpl"* %4) #15
  %5 = getelementptr inbounds %"class.blink::LegacyWebRtcVideoFrameAdapter::SharedResources", %"class.blink::LegacyWebRtcVideoFrameAdapter::SharedResources"* %0, i64 0, i32 6, i32 0
  %6 = load %"class.viz::RasterContextProvider"*, %"class.viz::RasterContextProvider"** %5, align 8
  %7 = icmp eq %"class.viz::RasterContextProvider"* %6, null
  br i1 %7, label %13, label %8

8:                                                ; preds = %1
  %9 = bitcast %"class.viz::RasterContextProvider"* %6 to void (%"class.viz::RasterContextProvider"*)***
  %10 = load void (%"class.viz::RasterContextProvider"*)**, void (%"class.viz::RasterContextProvider"*)*** %9, align 8
  %11 = getelementptr inbounds void (%"class.viz::RasterContextProvider"*)*, void (%"class.viz::RasterContextProvider"*)** %10, i64 1
  %12 = load void (%"class.viz::RasterContextProvider"*)*, void (%"class.viz::RasterContextProvider"*)** %11, align 8
  tail call void %12(%"class.viz::RasterContextProvider"* nonnull %6) #15
  br label %13

13:                                               ; preds = %1, %8
  %14 = getelementptr inbounds %"class.blink::LegacyWebRtcVideoFrameAdapter::SharedResources", %"class.blink::LegacyWebRtcVideoFrameAdapter::SharedResources"* %0, i64 0, i32 5, i32 0
  tail call void @_ZN4base8internal8LockImplD1Ev(%"class.base::internal::LockImpl"* %14) #15
  %15 = getelementptr inbounds %"class.blink::LegacyWebRtcVideoFrameAdapter::SharedResources", %"class.blink::LegacyWebRtcVideoFrameAdapter::SharedResources"* %0, i64 0, i32 4
  tail call void @_ZN5media14VideoFramePoolD1Ev(%"class.media::VideoFramePool"* %15) #15
  %16 = getelementptr inbounds %"class.blink::LegacyWebRtcVideoFrameAdapter::SharedResources", %"class.blink::LegacyWebRtcVideoFrameAdapter::SharedResources"* %0, i64 0, i32 3
  tail call void @_ZN5media14VideoFramePoolD1Ev(%"class.media::VideoFramePool"* %16) #15
  %17 = getelementptr inbounds %"class.blink::LegacyWebRtcVideoFrameAdapter::SharedResources", %"class.blink::LegacyWebRtcVideoFrameAdapter::SharedResources"* %0, i64 0, i32 2
  tail call void @_ZN5media14VideoFramePoolD1Ev(%"class.media::VideoFramePool"* %17) #15
  ret void
}

; Function Attrs: nounwind
declare void @_ZN5media20VideoCaptureFeedbackD1Ev(%"struct.media::VideoCaptureFeedback"*) unnamed_addr #3

; Function Attrs: nounwind
declare void @_ZN5media14VideoFramePoolD1Ev(%"class.media::VideoFramePool"*) unnamed_addr #3

; Function Attrs: nounwind ssp uwtable
define hidden void @_ZN5blink29LegacyWebRtcVideoFrameAdapter15SharedResourcesD0Ev(%"class.blink::LegacyWebRtcVideoFrameAdapter::SharedResources"*) unnamed_addr #0 align 2 {
  %2 = getelementptr inbounds %"class.blink::LegacyWebRtcVideoFrameAdapter::SharedResources", %"class.blink::LegacyWebRtcVideoFrameAdapter::SharedResources"* %0, i64 0, i32 0
  store i32 (...)** bitcast (i8** getelementptr inbounds ({ [9 x i8*] }, { [9 x i8*] }* @_ZTVN5blink29LegacyWebRtcVideoFrameAdapter15SharedResourcesE, i64 0, inrange i32 0, i64 2) to i32 (...)**), i32 (...)*** %2, align 8
  %3 = getelementptr inbounds %"class.blink::LegacyWebRtcVideoFrameAdapter::SharedResources", %"class.blink::LegacyWebRtcVideoFrameAdapter::SharedResources"* %0, i64 0, i32 9
  tail call void @_ZN5media20VideoCaptureFeedbackD1Ev(%"struct.media::VideoCaptureFeedback"* %3) #15
  %4 = getelementptr inbounds %"class.blink::LegacyWebRtcVideoFrameAdapter::SharedResources", %"class.blink::LegacyWebRtcVideoFrameAdapter::SharedResources"* %0, i64 0, i32 8, i32 0
  tail call void @_ZN4base8internal8LockImplD1Ev(%"class.base::internal::LockImpl"* %4) #15
  %5 = getelementptr inbounds %"class.blink::LegacyWebRtcVideoFrameAdapter::SharedResources", %"class.blink::LegacyWebRtcVideoFrameAdapter::SharedResources"* %0, i64 0, i32 6, i32 0
  %6 = load %"class.viz::RasterContextProvider"*, %"class.viz::RasterContextProvider"** %5, align 8
  %7 = icmp eq %"class.viz::RasterContextProvider"* %6, null
  br i1 %7, label %13, label %8

8:                                                ; preds = %1
  %9 = bitcast %"class.viz::RasterContextProvider"* %6 to void (%"class.viz::RasterContextProvider"*)***
  %10 = load void (%"class.viz::RasterContextProvider"*)**, void (%"class.viz::RasterContextProvider"*)*** %9, align 8
  %11 = getelementptr inbounds void (%"class.viz::RasterContextProvider"*)*, void (%"class.viz::RasterContextProvider"*)** %10, i64 1
  %12 = load void (%"class.viz::RasterContextProvider"*)*, void (%"class.viz::RasterContextProvider"*)** %11, align 8
  tail call void %12(%"class.viz::RasterContextProvider"* nonnull %6) #15
  br label %13

13:                                               ; preds = %1, %8
  %14 = getelementptr inbounds %"class.blink::LegacyWebRtcVideoFrameAdapter::SharedResources", %"class.blink::LegacyWebRtcVideoFrameAdapter::SharedResources"* %0, i64 0, i32 5, i32 0
  tail call void @_ZN4base8internal8LockImplD1Ev(%"class.base::internal::LockImpl"* %14) #15
  %15 = getelementptr inbounds %"class.blink::LegacyWebRtcVideoFrameAdapter::SharedResources", %"class.blink::LegacyWebRtcVideoFrameAdapter::SharedResources"* %0, i64 0, i32 4
  tail call void @_ZN5media14VideoFramePoolD1Ev(%"class.media::VideoFramePool"* %15) #15
  %16 = getelementptr inbounds %"class.blink::LegacyWebRtcVideoFrameAdapter::SharedResources", %"class.blink::LegacyWebRtcVideoFrameAdapter::SharedResources"* %0, i64 0, i32 3
  tail call void @_ZN5media14VideoFramePoolD1Ev(%"class.media::VideoFramePool"* %16) #15
  %17 = getelementptr inbounds %"class.blink::LegacyWebRtcVideoFrameAdapter::SharedResources", %"class.blink::LegacyWebRtcVideoFrameAdapter::SharedResources"* %0, i64 0, i32 2
  tail call void @_ZN5media14VideoFramePoolD1Ev(%"class.media::VideoFramePool"* %17) #15
  %18 = bitcast %"class.blink::LegacyWebRtcVideoFrameAdapter::SharedResources"* %0 to i8*
  tail call void @_ZdlPv(i8* %18) #16
  ret void
}

; Function Attrs: nobuiltin nounwind
declare void @_ZdlPv(i8*) local_unnamed_addr #4

; Function Attrs: nounwind ssp uwtable
define hidden void @_ZN5blink29LegacyWebRtcVideoFrameAdapterC2E13scoped_refptrIN5media10VideoFrameEE(%"class.blink::LegacyWebRtcVideoFrameAdapter"*, %"class.media::VideoFrame"*) unnamed_addr #0 align 2 {
  %3 = icmp eq %"class.media::VideoFrame"* %1, null
  br i1 %3, label %7, label %4

4:                                                ; preds = %2
  %5 = getelementptr inbounds %"class.media::VideoFrame", %"class.media::VideoFrame"* %1, i64 0, i32 1, i32 0, i32 0, i32 0, i32 0, i32 0, i32 0, i32 0, i32 0
  %6 = atomicrmw add i32* %5, i32 1 monotonic
  br label %7

7:                                                ; preds = %2, %4
  %8 = ptrtoint %"class.media::VideoFrame"* %1 to i64
  %9 = getelementptr inbounds %"class.blink::LegacyWebRtcVideoFrameAdapter", %"class.blink::LegacyWebRtcVideoFrameAdapter"* %0, i64 0, i32 0, i32 0, i32 0, i32 0
  store i32 (...)** bitcast (i8** getelementptr inbounds ({ [15 x i8*] }, { [15 x i8*] }* @_ZTVN5blink29LegacyWebRtcVideoFrameAdapterE, i64 0, inrange i32 0, i64 2) to i32 (...)**), i32 (...)*** %9, align 8
  %10 = getelementptr inbounds %"class.blink::LegacyWebRtcVideoFrameAdapter", %"class.blink::LegacyWebRtcVideoFrameAdapter"* %0, i64 0, i32 1, i32 0
  tail call void @_ZN4base8internal8LockImplC1Ev(%"class.base::internal::LockImpl"* %10) #15
  %11 = getelementptr inbounds %"class.blink::LegacyWebRtcVideoFrameAdapter", %"class.blink::LegacyWebRtcVideoFrameAdapter"* %0, i64 0, i32 2, i32 0
  store %"class.webrtc::VideoFrameBuffer"* null, %"class.webrtc::VideoFrameBuffer"** %11, align 8
  %12 = getelementptr inbounds %"class.blink::LegacyWebRtcVideoFrameAdapter", %"class.blink::LegacyWebRtcVideoFrameAdapter"* %0, i64 0, i32 3
  %13 = bitcast %class.scoped_refptr* %12 to i64*
  store i64 %8, i64* %13, align 8
  %14 = getelementptr inbounds %"class.blink::LegacyWebRtcVideoFrameAdapter", %"class.blink::LegacyWebRtcVideoFrameAdapter"* %0, i64 0, i32 4, i32 0
  store %"class.blink::LegacyWebRtcVideoFrameAdapter::SharedResources"* null, %"class.blink::LegacyWebRtcVideoFrameAdapter::SharedResources"** %14, align 8
  %15 = getelementptr inbounds %"class.blink::LegacyWebRtcVideoFrameAdapter", %"class.blink::LegacyWebRtcVideoFrameAdapter"* %0, i64 0, i32 6
  store i8 0, i8* %15, align 8
  br i1 %3, label %28, label %16

16:                                               ; preds = %7
  %17 = getelementptr inbounds %"class.media::VideoFrame", %"class.media::VideoFrame"* %1, i64 0, i32 1
  %18 = getelementptr inbounds %"class.base::RefCountedThreadSafe", %"class.base::RefCountedThreadSafe"* %17, i64 0, i32 0, i32 0, i32 0, i32 0, i32 0, i32 0, i32 0, i32 0
  %19 = atomicrmw sub i32* %18, i32 1 acq_rel
  %20 = icmp eq i32 %19, 1
  br i1 %20, label %21, label %28

21:                                               ; preds = %16
  %22 = getelementptr inbounds %"class.base::RefCountedThreadSafe", %"class.base::RefCountedThreadSafe"* %17, i64 -2
  %23 = bitcast %"class.base::RefCountedThreadSafe"* %22 to %"class.media::VideoFrame"*
  %24 = bitcast %"class.base::RefCountedThreadSafe"* %22 to void (%"class.media::VideoFrame"*)***
  %25 = load void (%"class.media::VideoFrame"*)**, void (%"class.media::VideoFrame"*)*** %24, align 8
  %26 = getelementptr inbounds void (%"class.media::VideoFrame"*)*, void (%"class.media::VideoFrame"*)** %25, i64 1
  %27 = load void (%"class.media::VideoFrame"*)*, void (%"class.media::VideoFrame"*)** %26, align 8
  tail call void %27(%"class.media::VideoFrame"* nonnull %23) #15
  br label %28

28:                                               ; preds = %7, %16, %21
  ret void
}

; Function Attrs: nounwind ssp uwtable
define hidden void @_ZN5blink29LegacyWebRtcVideoFrameAdapterC2E13scoped_refptrIN5media10VideoFrameEES1_INS0_15SharedResourcesEE(%"class.blink::LegacyWebRtcVideoFrameAdapter"*, %"class.media::VideoFrame"*, %"class.blink::LegacyWebRtcVideoFrameAdapter::SharedResources"*) unnamed_addr #0 align 2 {
  %4 = ptrtoint %"class.media::VideoFrame"* %1 to i64
  %5 = getelementptr inbounds %"class.blink::LegacyWebRtcVideoFrameAdapter", %"class.blink::LegacyWebRtcVideoFrameAdapter"* %0, i64 0, i32 0, i32 0, i32 0, i32 0
  store i32 (...)** bitcast (i8** getelementptr inbounds ({ [15 x i8*] }, { [15 x i8*] }* @_ZTVN5blink29LegacyWebRtcVideoFrameAdapterE, i64 0, inrange i32 0, i64 2) to i32 (...)**), i32 (...)*** %5, align 8
  %6 = getelementptr inbounds %"class.blink::LegacyWebRtcVideoFrameAdapter", %"class.blink::LegacyWebRtcVideoFrameAdapter"* %0, i64 0, i32 1, i32 0
  tail call void @_ZN4base8internal8LockImplC1Ev(%"class.base::internal::LockImpl"* %6) #15
  %7 = getelementptr inbounds %"class.blink::LegacyWebRtcVideoFrameAdapter", %"class.blink::LegacyWebRtcVideoFrameAdapter"* %0, i64 0, i32 2, i32 0
  store %"class.webrtc::VideoFrameBuffer"* null, %"class.webrtc::VideoFrameBuffer"** %7, align 8
  %8 = getelementptr inbounds %"class.blink::LegacyWebRtcVideoFrameAdapter", %"class.blink::LegacyWebRtcVideoFrameAdapter"* %0, i64 0, i32 3
  %9 = bitcast %class.scoped_refptr* %8 to i64*
  store i64 %4, i64* %9, align 8
  %10 = getelementptr inbounds %"class.blink::LegacyWebRtcVideoFrameAdapter", %"class.blink::LegacyWebRtcVideoFrameAdapter"* %0, i64 0, i32 4, i32 0
  store %"class.blink::LegacyWebRtcVideoFrameAdapter::SharedResources"* %2, %"class.blink::LegacyWebRtcVideoFrameAdapter::SharedResources"** %10, align 8
  %11 = icmp eq %"class.blink::LegacyWebRtcVideoFrameAdapter::SharedResources"* %2, null
  br i1 %11, label %12, label %14

12:                                               ; preds = %3
  %13 = getelementptr inbounds %"class.blink::LegacyWebRtcVideoFrameAdapter", %"class.blink::LegacyWebRtcVideoFrameAdapter"* %0, i64 0, i32 6
  store i8 0, i8* %13, align 8
  br label %29

14:                                               ; preds = %3
  %15 = getelementptr inbounds %"class.blink::LegacyWebRtcVideoFrameAdapter::SharedResources", %"class.blink::LegacyWebRtcVideoFrameAdapter::SharedResources"* %2, i64 0, i32 1, i32 0, i32 0, i32 0, i32 0, i32 0, i32 0, i32 0, i32 0
  %16 = atomicrmw add i32* %15, i32 1 monotonic
  %17 = getelementptr inbounds %"class.blink::LegacyWebRtcVideoFrameAdapter", %"class.blink::LegacyWebRtcVideoFrameAdapter"* %0, i64 0, i32 6
  store i8 0, i8* %17, align 8
  %18 = getelementptr inbounds %"class.blink::LegacyWebRtcVideoFrameAdapter::SharedResources", %"class.blink::LegacyWebRtcVideoFrameAdapter::SharedResources"* %2, i64 0, i32 1
  %19 = getelementptr inbounds %"class.base::RefCountedThreadSafe.65", %"class.base::RefCountedThreadSafe.65"* %18, i64 0, i32 0, i32 0, i32 0, i32 0, i32 0, i32 0, i32 0, i32 0
  %20 = atomicrmw sub i32* %19, i32 1 acq_rel
  %21 = icmp eq i32 %20, 1
  br i1 %21, label %22, label %29

22:                                               ; preds = %14
  %23 = getelementptr inbounds %"class.base::RefCountedThreadSafe.65", %"class.base::RefCountedThreadSafe.65"* %18, i64 -2
  %24 = bitcast %"class.base::RefCountedThreadSafe.65"* %23 to %"class.blink::LegacyWebRtcVideoFrameAdapter::SharedResources"*
  %25 = bitcast %"class.base::RefCountedThreadSafe.65"* %23 to void (%"class.blink::LegacyWebRtcVideoFrameAdapter::SharedResources"*)***
  %26 = load void (%"class.blink::LegacyWebRtcVideoFrameAdapter::SharedResources"*)**, void (%"class.blink::LegacyWebRtcVideoFrameAdapter::SharedResources"*)*** %25, align 8
  %27 = getelementptr inbounds void (%"class.blink::LegacyWebRtcVideoFrameAdapter::SharedResources"*)*, void (%"class.blink::LegacyWebRtcVideoFrameAdapter::SharedResources"*)** %26, i64 6
  %28 = load void (%"class.blink::LegacyWebRtcVideoFrameAdapter::SharedResources"*)*, void (%"class.blink::LegacyWebRtcVideoFrameAdapter::SharedResources"*)** %27, align 8
  tail call void %28(%"class.blink::LegacyWebRtcVideoFrameAdapter::SharedResources"* nonnull %24) #15
  br label %29

29:                                               ; preds = %22, %14, %12
  ret void
}

; Function Attrs: nounwind ssp uwtable
define hidden void @_ZN5blink29LegacyWebRtcVideoFrameAdapterD2Ev(%"class.blink::LegacyWebRtcVideoFrameAdapter"*) unnamed_addr #0 align 2 {
  %2 = alloca %"struct.media::VideoCaptureFeedback", align 8
  %3 = getelementptr inbounds %"class.blink::LegacyWebRtcVideoFrameAdapter", %"class.blink::LegacyWebRtcVideoFrameAdapter"* %0, i64 0, i32 0, i32 0, i32 0, i32 0
  store i32 (...)** bitcast (i8** getelementptr inbounds ({ [15 x i8*] }, { [15 x i8*] }* @_ZTVN5blink29LegacyWebRtcVideoFrameAdapterE, i64 0, inrange i32 0, i64 2) to i32 (...)**), i32 (...)*** %3, align 8
  %4 = getelementptr inbounds %"class.blink::LegacyWebRtcVideoFrameAdapter", %"class.blink::LegacyWebRtcVideoFrameAdapter"* %0, i64 0, i32 4, i32 0
  %5 = load %"class.blink::LegacyWebRtcVideoFrameAdapter::SharedResources"*, %"class.blink::LegacyWebRtcVideoFrameAdapter::SharedResources"** %4, align 8
  %6 = icmp eq %"class.blink::LegacyWebRtcVideoFrameAdapter::SharedResources"* %5, null
  br i1 %6, label %46, label %7

7:                                                ; preds = %1
  %8 = bitcast %"struct.media::VideoCaptureFeedback"* %2 to i8*
  call void @llvm.lifetime.start.p0i8(i64 48, i8* nonnull %8) #15
  call void @_ZN5media20VideoCaptureFeedbackC1Ev(%"struct.media::VideoCaptureFeedback"* nonnull %2) #15
  %9 = getelementptr inbounds %"class.blink::LegacyWebRtcVideoFrameAdapter", %"class.blink::LegacyWebRtcVideoFrameAdapter"* %0, i64 0, i32 6
  %10 = load i8, i8* %9, align 8, !range !17
  %11 = icmp ne i8 %10, 0
  %12 = call dereferenceable(48) %"struct.media::VideoCaptureFeedback"* @_ZN5media20VideoCaptureFeedback13RequireMappedEb(%"struct.media::VideoCaptureFeedback"* nonnull %2, i1 zeroext %11) #15
  %13 = getelementptr inbounds %"class.blink::LegacyWebRtcVideoFrameAdapter::SharedResources", %"class.blink::LegacyWebRtcVideoFrameAdapter::SharedResources"* %5, i64 0, i32 8
  %14 = getelementptr inbounds %"class.base::Lock", %"class.base::Lock"* %13, i64 0, i32 0, i32 0
  %15 = call i32 @pthread_mutex_trylock(%union.pthread_mutex_t* %14) #15
  %16 = icmp eq i32 %15, 0
  br i1 %16, label %19, label %17, !prof !2

17:                                               ; preds = %7
  %18 = getelementptr inbounds %"class.base::Lock", %"class.base::Lock"* %13, i64 0, i32 0
  call void @_ZN4base8internal8LockImpl24LockInternalWithTrackingEv(%"class.base::internal::LockImpl"* %18) #15
  br label %19

19:                                               ; preds = %17, %7
  %20 = getelementptr inbounds %"class.blink::LegacyWebRtcVideoFrameAdapter::SharedResources", %"class.blink::LegacyWebRtcVideoFrameAdapter::SharedResources"* %5, i64 0, i32 9
  %21 = bitcast %"struct.media::VideoCaptureFeedback"* %20 to i8*
  %22 = bitcast %"struct.media::VideoCaptureFeedback"* %12 to i8*
  call void @llvm.memcpy.p0i8.p0i8.i64(i8* align 8 %21, i8* align 8 %22, i64 17, i1 false) #15
  %23 = icmp eq %"struct.media::VideoCaptureFeedback"* %20, %12
  br i1 %23, label %30, label %24

24:                                               ; preds = %19
  %25 = getelementptr inbounds %"class.blink::LegacyWebRtcVideoFrameAdapter::SharedResources", %"class.blink::LegacyWebRtcVideoFrameAdapter::SharedResources"* %5, i64 0, i32 9, i32 4
  %26 = getelementptr inbounds %"struct.media::VideoCaptureFeedback", %"struct.media::VideoCaptureFeedback"* %12, i64 0, i32 4, i32 0, i32 0
  %27 = load %"class.gfx::Size"*, %"class.gfx::Size"** %26, align 8
  %28 = getelementptr inbounds %"struct.media::VideoCaptureFeedback", %"struct.media::VideoCaptureFeedback"* %12, i64 0, i32 4, i32 0, i32 1
  %29 = load %"class.gfx::Size"*, %"class.gfx::Size"** %28, align 8
  call void @_ZNSt3__16vectorIN3gfx4SizeENS_9allocatorIS2_EEE6assignIPS2_EENS_9enable_ifIXaasr27__is_cpp17_forward_iteratorIT_EE5valuesr16is_constructibleIS2_NS_15iterator_traitsIS9_E9referenceEEE5valueEvE4typeES9_S9_(%"class.std::__1::vector.68"* %25, %"class.gfx::Size"* %27, %"class.gfx::Size"* %29) #15
  br label %30

30:                                               ; preds = %24, %19
  %31 = call i32 @pthread_mutex_unlock(%union.pthread_mutex_t* %14) #15
  call void @_ZN5media20VideoCaptureFeedbackD1Ev(%"struct.media::VideoCaptureFeedback"* nonnull %2) #15
  call void @llvm.lifetime.end.p0i8(i64 48, i8* nonnull %8) #15
  %32 = load %"class.blink::LegacyWebRtcVideoFrameAdapter::SharedResources"*, %"class.blink::LegacyWebRtcVideoFrameAdapter::SharedResources"** %4, align 8
  %33 = icmp eq %"class.blink::LegacyWebRtcVideoFrameAdapter::SharedResources"* %32, null
  br i1 %33, label %46, label %34

34:                                               ; preds = %30
  %35 = getelementptr inbounds %"class.blink::LegacyWebRtcVideoFrameAdapter::SharedResources", %"class.blink::LegacyWebRtcVideoFrameAdapter::SharedResources"* %32, i64 0, i32 1
  %36 = getelementptr inbounds %"class.base::RefCountedThreadSafe.65", %"class.base::RefCountedThreadSafe.65"* %35, i64 0, i32 0, i32 0, i32 0, i32 0, i32 0, i32 0, i32 0, i32 0
  %37 = atomicrmw sub i32* %36, i32 1 acq_rel
  %38 = icmp eq i32 %37, 1
  br i1 %38, label %39, label %46

39:                                               ; preds = %34
  %40 = getelementptr inbounds %"class.base::RefCountedThreadSafe.65", %"class.base::RefCountedThreadSafe.65"* %35, i64 -2
  %41 = bitcast %"class.base::RefCountedThreadSafe.65"* %40 to %"class.blink::LegacyWebRtcVideoFrameAdapter::SharedResources"*
  %42 = bitcast %"class.base::RefCountedThreadSafe.65"* %40 to void (%"class.blink::LegacyWebRtcVideoFrameAdapter::SharedResources"*)***
  %43 = load void (%"class.blink::LegacyWebRtcVideoFrameAdapter::SharedResources"*)**, void (%"class.blink::LegacyWebRtcVideoFrameAdapter::SharedResources"*)*** %42, align 8
  %44 = getelementptr inbounds void (%"class.blink::LegacyWebRtcVideoFrameAdapter::SharedResources"*)*, void (%"class.blink::LegacyWebRtcVideoFrameAdapter::SharedResources"*)** %43, i64 6
  %45 = load void (%"class.blink::LegacyWebRtcVideoFrameAdapter::SharedResources"*)*, void (%"class.blink::LegacyWebRtcVideoFrameAdapter::SharedResources"*)** %44, align 8
  call void %45(%"class.blink::LegacyWebRtcVideoFrameAdapter::SharedResources"* nonnull %41) #15
  br label %46

46:                                               ; preds = %1, %30, %34, %39
  %47 = getelementptr inbounds %"class.blink::LegacyWebRtcVideoFrameAdapter", %"class.blink::LegacyWebRtcVideoFrameAdapter"* %0, i64 0, i32 3, i32 0
  %48 = load %"class.media::VideoFrame"*, %"class.media::VideoFrame"** %47, align 8
  %49 = icmp eq %"class.media::VideoFrame"* %48, null
  br i1 %49, label %62, label %50

50:                                               ; preds = %46
  %51 = getelementptr inbounds %"class.media::VideoFrame", %"class.media::VideoFrame"* %48, i64 0, i32 1
  %52 = getelementptr inbounds %"class.base::RefCountedThreadSafe", %"class.base::RefCountedThreadSafe"* %51, i64 0, i32 0, i32 0, i32 0, i32 0, i32 0, i32 0, i32 0, i32 0
  %53 = atomicrmw sub i32* %52, i32 1 acq_rel
  %54 = icmp eq i32 %53, 1
  br i1 %54, label %55, label %62

55:                                               ; preds = %50
  %56 = getelementptr inbounds %"class.base::RefCountedThreadSafe", %"class.base::RefCountedThreadSafe"* %51, i64 -2
  %57 = bitcast %"class.base::RefCountedThreadSafe"* %56 to %"class.media::VideoFrame"*
  %58 = bitcast %"class.base::RefCountedThreadSafe"* %56 to void (%"class.media::VideoFrame"*)***
  %59 = load void (%"class.media::VideoFrame"*)**, void (%"class.media::VideoFrame"*)*** %58, align 8
  %60 = getelementptr inbounds void (%"class.media::VideoFrame"*)*, void (%"class.media::VideoFrame"*)** %59, i64 1
  %61 = load void (%"class.media::VideoFrame"*)*, void (%"class.media::VideoFrame"*)** %60, align 8
  call void %61(%"class.media::VideoFrame"* nonnull %57) #15
  br label %62

62:                                               ; preds = %46, %50, %55
  %63 = getelementptr inbounds %"class.blink::LegacyWebRtcVideoFrameAdapter", %"class.blink::LegacyWebRtcVideoFrameAdapter"* %0, i64 0, i32 2, i32 0
  %64 = load %"class.webrtc::VideoFrameBuffer"*, %"class.webrtc::VideoFrameBuffer"** %63, align 8
  %65 = icmp eq %"class.webrtc::VideoFrameBuffer"* %64, null
  br i1 %65, label %73, label %66

66:                                               ; preds = %62
  %67 = getelementptr inbounds %"class.webrtc::VideoFrameBuffer", %"class.webrtc::VideoFrameBuffer"* %64, i64 0, i32 0
  %68 = bitcast %"class.webrtc::VideoFrameBuffer"* %64 to i32 (%"class.rtc::RefCountInterface"*)***
  %69 = load i32 (%"class.rtc::RefCountInterface"*)**, i32 (%"class.rtc::RefCountInterface"*)*** %68, align 8
  %70 = getelementptr inbounds i32 (%"class.rtc::RefCountInterface"*)*, i32 (%"class.rtc::RefCountInterface"*)** %69, i64 1
  %71 = load i32 (%"class.rtc::RefCountInterface"*)*, i32 (%"class.rtc::RefCountInterface"*)** %70, align 8
  %72 = call i32 %71(%"class.rtc::RefCountInterface"* %67) #15
  br label %73

73:                                               ; preds = %62, %66
  %74 = getelementptr inbounds %"class.blink::LegacyWebRtcVideoFrameAdapter", %"class.blink::LegacyWebRtcVideoFrameAdapter"* %0, i64 0, i32 1, i32 0
  call void @_ZN4base8internal8LockImplD1Ev(%"class.base::internal::LockImpl"* %74) #15
  ret void
}

declare dereferenceable(48) %"struct.media::VideoCaptureFeedback"* @_ZN5media20VideoCaptureFeedback13RequireMappedEb(%"struct.media::VideoCaptureFeedback"*, i1 zeroext) local_unnamed_addr #1

; Function Attrs: noreturn nounwind ssp uwtable
define hidden void @_ZN5blink29LegacyWebRtcVideoFrameAdapterD0Ev(%"class.blink::LegacyWebRtcVideoFrameAdapter"* nocapture readnone) unnamed_addr #5 align 2 {
  tail call void @llvm.trap() #17
  unreachable
}

; Function Attrs: cold noreturn nounwind
declare void @llvm.trap() #6

; Function Attrs: norecurse nounwind readnone ssp uwtable
define hidden i32 @_ZNK5blink29LegacyWebRtcVideoFrameAdapter4typeEv(%"class.blink::LegacyWebRtcVideoFrameAdapter"* nocapture readnone) unnamed_addr #7 align 2 {
  ret i32 0
}

; Function Attrs: norecurse nounwind readonly ssp uwtable
define hidden i32 @_ZNK5blink29LegacyWebRtcVideoFrameAdapter5widthEv(%"class.blink::LegacyWebRtcVideoFrameAdapter"* nocapture readonly) unnamed_addr #8 align 2 {
  %2 = getelementptr inbounds %"class.blink::LegacyWebRtcVideoFrameAdapter", %"class.blink::LegacyWebRtcVideoFrameAdapter"* %0, i64 0, i32 3, i32 0
  %3 = load %"class.media::VideoFrame"*, %"class.media::VideoFrame"** %2, align 8
  %4 = getelementptr inbounds %"class.media::VideoFrame", %"class.media::VideoFrame"* %3, i64 0, i32 6, i32 0
  %5 = load i32, i32* %4, align 4
  ret i32 %5
}

; Function Attrs: norecurse nounwind readonly ssp uwtable
define hidden i32 @_ZNK5blink29LegacyWebRtcVideoFrameAdapter6heightEv(%"class.blink::LegacyWebRtcVideoFrameAdapter"* nocapture readonly) unnamed_addr #8 align 2 {
  %2 = getelementptr inbounds %"class.blink::LegacyWebRtcVideoFrameAdapter", %"class.blink::LegacyWebRtcVideoFrameAdapter"* %0, i64 0, i32 3, i32 0
  %3 = load %"class.media::VideoFrame"*, %"class.media::VideoFrame"** %2, align 8
  %4 = getelementptr inbounds %"class.media::VideoFrame", %"class.media::VideoFrame"* %3, i64 0, i32 6, i32 1
  %5 = load i32, i32* %4, align 4
  ret i32 %5
}

; Function Attrs: nounwind ssp uwtable
define hidden zeroext i1 @_ZN5blink29LegacyWebRtcVideoFrameAdapter16IsFrameAdaptableEPKN5media10VideoFrameE(%"class.media::VideoFrame"*) local_unnamed_addr #0 align 2 {
  %2 = alloca %"class.base::CheckedContiguousIterator", align 8
  %3 = alloca %"class.base::CheckedContiguousIterator", align 8
  %4 = alloca %"class.base::span", align 8
  %5 = alloca i32, align 4
  %6 = tail call zeroext i1 @_ZNK5media10VideoFrame10IsMappableEv(%"class.media::VideoFrame"* %0) #15
  %7 = bitcast %"class.base::span"* %4 to i8*
  call void @llvm.lifetime.start.p0i8(i64 16, i8* nonnull %7) #15
  %8 = bitcast i32* %5 to i8*
  call void @llvm.lifetime.start.p0i8(i64 4, i8* nonnull %8) #15
  br i1 %6, label %9, label %24

9:                                                ; preds = %1
  %10 = getelementptr inbounds %"class.base::span", %"class.base::span"* %4, i64 0, i32 0, i32 0
  store i64 3, i64* %10, align 8
  %11 = getelementptr inbounds %"class.base::span", %"class.base::span"* %4, i64 0, i32 1
  store i32* getelementptr inbounds ([3 x i32], [3 x i32]* @_ZZN5blink29LegacyWebRtcVideoFrameAdapter29AdaptableMappablePixelFormatsEvE30kAdaptableMappablePixelFormats, i64 0, i64 0), i32** %11, align 8
  %12 = getelementptr inbounds %"class.media::VideoFrame", %"class.media::VideoFrame"* %0, i64 0, i32 2, i32 0
  %13 = load i32, i32* %12, align 8
  store i32 %13, i32* %5, align 4
  %14 = bitcast %"class.base::CheckedContiguousIterator"* %2 to i8*
  call void @llvm.lifetime.start.p0i8(i64 24, i8* nonnull %14) #15
  call void @_ZN4base6ranges4findIRKNS_4spanIKN5media16VideoPixelFormatELm18446744073709551615EEES4_NS_8identityENSt3__126random_access_iterator_tagEEEDaOT_RKT0_T1_(%"class.base::CheckedContiguousIterator"* nonnull sret %2, %"class.base::span"* nonnull dereferenceable(16) %4, i32* nonnull dereferenceable(4) %5) #15
  %15 = bitcast %"class.base::CheckedContiguousIterator"* %3 to i8*
  call void @llvm.lifetime.start.p0i8(i64 24, i8* nonnull %15) #15
  %16 = load i32*, i32** %11, align 8, !noalias !18
  %17 = load i64, i64* %10, align 8, !noalias !18
  %18 = getelementptr inbounds i32, i32* %16, i64 %17
  call void @_ZN4base25CheckedContiguousIteratorIKN5media16VideoPixelFormatEEC2EPS3_S5_S5_(%"class.base::CheckedContiguousIterator"* nonnull %3, i32* %16, i32* %18, i32* %18) #15
  call void @_ZNK4base25CheckedContiguousIteratorIKN5media16VideoPixelFormatEE15CheckComparableERKS4_(%"class.base::CheckedContiguousIterator"* nonnull %2, %"class.base::CheckedContiguousIterator"* nonnull dereferenceable(24) %3) #15
  %19 = getelementptr inbounds %"class.base::CheckedContiguousIterator", %"class.base::CheckedContiguousIterator"* %2, i64 0, i32 1
  %20 = load i32*, i32** %19, align 8
  %21 = getelementptr inbounds %"class.base::CheckedContiguousIterator", %"class.base::CheckedContiguousIterator"* %3, i64 0, i32 1
  %22 = load i32*, i32** %21, align 8
  %23 = icmp eq i32* %20, %22
  call void @llvm.lifetime.end.p0i8(i64 24, i8* nonnull %15) #15
  call void @llvm.lifetime.end.p0i8(i64 24, i8* nonnull %14) #15
  br i1 %23, label %24, label %30

24:                                               ; preds = %9, %1
  %25 = getelementptr inbounds %"class.media::VideoFrame", %"class.media::VideoFrame"* %0, i64 0, i32 4
  %26 = load i32, i32* %25, align 8
  %27 = icmp eq i32 %26, 7
  br i1 %27, label %30, label %28

28:                                               ; preds = %24
  %29 = call zeroext i1 @_ZNK5media10VideoFrame11HasTexturesEv(%"class.media::VideoFrame"* %0) #15
  br label %30

30:                                               ; preds = %9, %28, %24
  %31 = phi i1 [ true, %24 ], [ true, %9 ], [ %29, %28 ]
  call void @llvm.lifetime.end.p0i8(i64 4, i8* nonnull %8) #15
  call void @llvm.lifetime.end.p0i8(i64 16, i8* nonnull %7) #15
  ret i1 %31
}

declare zeroext i1 @_ZNK5media10VideoFrame10IsMappableEv(%"class.media::VideoFrame"*) local_unnamed_addr #1

; Function Attrs: nounwind readnone ssp uwtable
define hidden { i64, i32* } @_ZN5blink29LegacyWebRtcVideoFrameAdapter29AdaptableMappablePixelFormatsEv() local_unnamed_addr #9 align 2 {
  ret { i64, i32* } { i64 3, i32* getelementptr inbounds ([3 x i32], [3 x i32]* @_ZZN5blink29LegacyWebRtcVideoFrameAdapter29AdaptableMappablePixelFormatsEvE30kAdaptableMappablePixelFormats, i32 0, i32 0) }
}

declare zeroext i1 @_ZNK5media10VideoFrame11HasTexturesEv(%"class.media::VideoFrame"*) local_unnamed_addr #1

; Function Attrs: nounwind ssp uwtable
define hidden void @_ZNK5blink29LegacyWebRtcVideoFrameAdapter18CreateFrameAdapterEv(%"class.rtc::scoped_refptr"* noalias nocapture sret, %"class.blink::LegacyWebRtcVideoFrameAdapter"* nocapture) local_unnamed_addr #0 align 2 {
  %3 = getelementptr inbounds %"class.blink::LegacyWebRtcVideoFrameAdapter", %"class.blink::LegacyWebRtcVideoFrameAdapter"* %1, i64 0, i32 6
  store i8 1, i8* %3, align 8
  %4 = getelementptr inbounds %"class.blink::LegacyWebRtcVideoFrameAdapter", %"class.blink::LegacyWebRtcVideoFrameAdapter"* %1, i64 0, i32 3, i32 0
  %5 = load %"class.media::VideoFrame"*, %"class.media::VideoFrame"** %4, align 8
  %6 = getelementptr inbounds %"class.media::VideoFrame", %"class.media::VideoFrame"* %5, i64 0, i32 4
  %7 = load i32, i32* %6, align 8
  %8 = icmp eq i32 %7, 7
  br i1 %8, label %9, label %105

9:                                                ; preds = %2
  %10 = getelementptr inbounds %"class.blink::LegacyWebRtcVideoFrameAdapter", %"class.blink::LegacyWebRtcVideoFrameAdapter"* %1, i64 0, i32 4, i32 0
  %11 = load %"class.blink::LegacyWebRtcVideoFrameAdapter::SharedResources"*, %"class.blink::LegacyWebRtcVideoFrameAdapter::SharedResources"** %10, align 8
  %12 = icmp eq %"class.blink::LegacyWebRtcVideoFrameAdapter::SharedResources"* %11, null
  br i1 %12, label %99, label %13

13:                                               ; preds = %9
  %14 = icmp eq %"class.media::VideoFrame"* %5, null
  br i1 %14, label %18, label %15

15:                                               ; preds = %13
  %16 = getelementptr inbounds %"class.media::VideoFrame", %"class.media::VideoFrame"* %5, i64 0, i32 1, i32 0, i32 0, i32 0, i32 0, i32 0, i32 0, i32 0, i32 0
  %17 = atomicrmw add i32* %16, i32 1 monotonic
  br label %18

18:                                               ; preds = %15, %13
  %19 = bitcast %"class.blink::LegacyWebRtcVideoFrameAdapter::SharedResources"* %11 to %"class.media::VideoFrame"* (%"class.blink::LegacyWebRtcVideoFrameAdapter::SharedResources"*, %"class.media::VideoFrame"*)***
  %20 = load %"class.media::VideoFrame"* (%"class.blink::LegacyWebRtcVideoFrameAdapter::SharedResources"*, %"class.media::VideoFrame"*)**, %"class.media::VideoFrame"* (%"class.blink::LegacyWebRtcVideoFrameAdapter::SharedResources"*, %"class.media::VideoFrame"*)*** %19, align 8
  %21 = getelementptr inbounds %"class.media::VideoFrame"* (%"class.blink::LegacyWebRtcVideoFrameAdapter::SharedResources"*, %"class.media::VideoFrame"*)*, %"class.media::VideoFrame"* (%"class.blink::LegacyWebRtcVideoFrameAdapter::SharedResources"*, %"class.media::VideoFrame"*)** %20, i64 4
  %22 = load %"class.media::VideoFrame"* (%"class.blink::LegacyWebRtcVideoFrameAdapter::SharedResources"*, %"class.media::VideoFrame"*)*, %"class.media::VideoFrame"* (%"class.blink::LegacyWebRtcVideoFrameAdapter::SharedResources"*, %"class.media::VideoFrame"*)** %21, align 8
  %23 = tail call %"class.media::VideoFrame"* %22(%"class.blink::LegacyWebRtcVideoFrameAdapter::SharedResources"* nonnull %11, %"class.media::VideoFrame"* %5) #15
  %24 = icmp eq %"class.media::VideoFrame"* %23, null
  br i1 %24, label %28, label %25

25:                                               ; preds = %18
  %26 = getelementptr inbounds %"class.media::VideoFrame", %"class.media::VideoFrame"* %23, i64 0, i32 1, i32 0, i32 0, i32 0, i32 0, i32 0, i32 0, i32 0, i32 0
  %27 = atomicrmw add i32* %26, i32 1 monotonic
  br label %28

28:                                               ; preds = %18, %25
  %29 = load %"class.blink::LegacyWebRtcVideoFrameAdapter::SharedResources"*, %"class.blink::LegacyWebRtcVideoFrameAdapter::SharedResources"** %10, align 8
  %30 = icmp eq %"class.blink::LegacyWebRtcVideoFrameAdapter::SharedResources"* %29, null
  br i1 %30, label %35, label %31

31:                                               ; preds = %28
  %32 = getelementptr inbounds %"class.blink::LegacyWebRtcVideoFrameAdapter::SharedResources", %"class.blink::LegacyWebRtcVideoFrameAdapter::SharedResources"* %29, i64 0, i32 1, i32 0, i32 0, i32 0, i32 0, i32 0, i32 0, i32 0, i32 0
  %33 = atomicrmw add i32* %32, i32 1 monotonic
  %34 = tail call fastcc %"class.media::VideoFrame"* @_ZN12_GLOBAL__N_125MaybeConvertAndScaleFrameE13scoped_refptrIN5media10VideoFrameEES0_IN5blink29LegacyWebRtcVideoFrameAdapter15SharedResourcesEE(%"class.media::VideoFrame"* %23, %"class.blink::LegacyWebRtcVideoFrameAdapter::SharedResources"* nonnull %29)
  br i1 %24, label %50, label %37

35:                                               ; preds = %28
  %36 = tail call fastcc %"class.media::VideoFrame"* @_ZN12_GLOBAL__N_125MaybeConvertAndScaleFrameE13scoped_refptrIN5media10VideoFrameEES0_IN5blink29LegacyWebRtcVideoFrameAdapter15SharedResourcesEE(%"class.media::VideoFrame"* %23, %"class.blink::LegacyWebRtcVideoFrameAdapter::SharedResources"* null)
  br i1 %24, label %50, label %37

37:                                               ; preds = %31, %35
  %38 = phi %"class.media::VideoFrame"* [ %34, %31 ], [ %36, %35 ]
  %39 = getelementptr inbounds %"class.media::VideoFrame", %"class.media::VideoFrame"* %23, i64 0, i32 1
  %40 = getelementptr inbounds %"class.base::RefCountedThreadSafe", %"class.base::RefCountedThreadSafe"* %39, i64 0, i32 0, i32 0, i32 0, i32 0, i32 0, i32 0, i32 0, i32 0
  %41 = atomicrmw sub i32* %40, i32 1 acq_rel
  %42 = icmp eq i32 %41, 1
  br i1 %42, label %43, label %50

43:                                               ; preds = %37
  %44 = getelementptr inbounds %"class.base::RefCountedThreadSafe", %"class.base::RefCountedThreadSafe"* %39, i64 -2
  %45 = bitcast %"class.base::RefCountedThreadSafe"* %44 to %"class.media::VideoFrame"*
  %46 = bitcast %"class.base::RefCountedThreadSafe"* %44 to void (%"class.media::VideoFrame"*)***
  %47 = load void (%"class.media::VideoFrame"*)**, void (%"class.media::VideoFrame"*)*** %46, align 8
  %48 = getelementptr inbounds void (%"class.media::VideoFrame"*)*, void (%"class.media::VideoFrame"*)** %47, i64 1
  %49 = load void (%"class.media::VideoFrame"*)*, void (%"class.media::VideoFrame"*)** %48, align 8
  tail call void %49(%"class.media::VideoFrame"* nonnull %45) #15
  br label %50

50:                                               ; preds = %31, %35, %37, %43
  %51 = phi %"class.media::VideoFrame"* [ %36, %35 ], [ %38, %37 ], [ %38, %43 ], [ %34, %31 ]
  %52 = icmp eq %"class.media::VideoFrame"* %51, null
  br i1 %52, label %53, label %55

53:                                               ; preds = %50
  %54 = load %"class.media::VideoFrame"*, %"class.media::VideoFrame"** %4, align 8
  br label %99

55:                                               ; preds = %50
  %56 = ptrtoint %"class.media::VideoFrame"* %51 to i64
  %57 = getelementptr inbounds %"class.media::VideoFrame", %"class.media::VideoFrame"* %51, i64 0, i32 2, i32 0
  %58 = load i32, i32* %57, align 8, !noalias !25
  switch i32 %58, label %86 [
    i32 1, label %59
    i32 4, label %68
    i32 6, label %77
  ]

59:                                               ; preds = %55
  %60 = tail call i8* @_Znwm(i64 24) #16, !noalias !25
  %61 = bitcast i8* %60 to i32 (...)***
  %62 = getelementptr inbounds i8, i8* %60, i64 8
  %63 = bitcast i8* %62 to i64*
  store i64 %56, i64* %63, align 8, !noalias !25
  store i32 (...)** bitcast (i8** getelementptr inbounds ({ [22 x i8*] }, { [22 x i8*] }* @_ZTVN3rtc16RefCountedObjectIN12_GLOBAL__N_116I420FrameAdapterEEE, i64 0, inrange i32 0, i64 2) to i32 (...)**), i32 (...)*** %61, align 8, !noalias !25
  %64 = getelementptr inbounds i8, i8* %60, i64 16
  %65 = bitcast i8* %64 to i32*
  store i32 0, i32* %65, align 4, !noalias !25
  %66 = bitcast %"class.rtc::scoped_refptr"* %0 to i8**
  store i8* %60, i8** %66, align 8, !alias.scope !25
  %67 = atomicrmw add i32* %65, i32 1 monotonic, !noalias !25
  br label %217

68:                                               ; preds = %55
  %69 = tail call i8* @_Znwm(i64 24) #16, !noalias !25
  %70 = bitcast i8* %69 to i32 (...)***
  %71 = getelementptr inbounds i8, i8* %69, i64 8
  %72 = bitcast i8* %71 to i64*
  store i64 %56, i64* %72, align 8, !noalias !25
  store i32 (...)** bitcast (i8** getelementptr inbounds ({ [24 x i8*] }, { [24 x i8*] }* @_ZTVN3rtc16RefCountedObjectIN12_GLOBAL__N_117I420AFrameAdapterEEE, i64 0, inrange i32 0, i64 2) to i32 (...)**), i32 (...)*** %70, align 8, !noalias !25
  %73 = getelementptr inbounds i8, i8* %69, i64 16
  %74 = bitcast i8* %73 to i32*
  store i32 0, i32* %74, align 4, !noalias !25
  %75 = bitcast %"class.rtc::scoped_refptr"* %0 to i8**
  store i8* %69, i8** %75, align 8, !alias.scope !25
  %76 = atomicrmw add i32* %74, i32 1 monotonic, !noalias !25
  br label %217

77:                                               ; preds = %55
  %78 = tail call i8* @_Znwm(i64 24) #16, !noalias !25
  %79 = bitcast i8* %78 to i32 (...)***
  %80 = getelementptr inbounds i8, i8* %78, i64 8
  %81 = bitcast i8* %80 to i64*
  store i64 %56, i64* %81, align 8, !noalias !25
  store i32 (...)** bitcast (i8** getelementptr inbounds ({ [20 x i8*] }, { [20 x i8*] }* @_ZTVN3rtc16RefCountedObjectIN12_GLOBAL__N_116NV12FrameAdapterEEE, i64 0, inrange i32 0, i64 2) to i32 (...)**), i32 (...)*** %79, align 8, !noalias !25
  %82 = getelementptr inbounds i8, i8* %78, i64 16
  %83 = bitcast i8* %82 to i32*
  store i32 0, i32* %83, align 4, !noalias !25
  %84 = bitcast %"class.rtc::scoped_refptr"* %0 to i8**
  store i8* %78, i8** %84, align 8, !alias.scope !25
  %85 = atomicrmw add i32* %83, i32 1 monotonic, !noalias !25
  br label %217

86:                                               ; preds = %55
  %87 = getelementptr inbounds %"class.rtc::scoped_refptr", %"class.rtc::scoped_refptr"* %0, i64 0, i32 0
  store %"class.webrtc::VideoFrameBuffer"* null, %"class.webrtc::VideoFrameBuffer"** %87, align 8, !alias.scope !25
  %88 = getelementptr inbounds %"class.media::VideoFrame", %"class.media::VideoFrame"* %51, i64 0, i32 1
  %89 = getelementptr inbounds %"class.base::RefCountedThreadSafe", %"class.base::RefCountedThreadSafe"* %88, i64 0, i32 0, i32 0, i32 0, i32 0, i32 0, i32 0, i32 0, i32 0
  %90 = atomicrmw sub i32* %89, i32 1 acq_rel, !noalias !25
  %91 = icmp eq i32 %90, 1
  br i1 %91, label %92, label %217

92:                                               ; preds = %86
  %93 = getelementptr inbounds %"class.base::RefCountedThreadSafe", %"class.base::RefCountedThreadSafe"* %88, i64 -2
  %94 = bitcast %"class.base::RefCountedThreadSafe"* %93 to %"class.media::VideoFrame"*
  %95 = bitcast %"class.base::RefCountedThreadSafe"* %93 to void (%"class.media::VideoFrame"*)***
  %96 = load void (%"class.media::VideoFrame"*)**, void (%"class.media::VideoFrame"*)*** %95, align 8, !noalias !25
  %97 = getelementptr inbounds void (%"class.media::VideoFrame"*)*, void (%"class.media::VideoFrame"*)** %96, i64 1
  %98 = load void (%"class.media::VideoFrame"*)*, void (%"class.media::VideoFrame"*)** %97, align 8, !noalias !25
  tail call void %98(%"class.media::VideoFrame"* nonnull %94) #15, !noalias !25
  br label %217

99:                                               ; preds = %53, %9
  %100 = phi %"class.media::VideoFrame"* [ %54, %53 ], [ %5, %9 ]
  %101 = getelementptr inbounds %"class.media::VideoFrame", %"class.media::VideoFrame"* %100, i64 0, i32 6
  %102 = getelementptr inbounds %"class.media::VideoFrame", %"class.media::VideoFrame"* %100, i64 0, i32 16, i32 0
  %103 = load i64, i64* %102, align 8
  %104 = tail call %"class.media::VideoFrame"* @_ZN5media10VideoFrame16CreateColorFrameERKN3gfx4SizeEhhhN4base9TimeDeltaE(%"class.gfx::Size"* dereferenceable(8) %101, i8 zeroext 0, i8 zeroext -128, i8 zeroext -128, i64 %103) #15
  tail call fastcc void @_ZN12_GLOBAL__N_116MakeFrameAdapterE13scoped_refptrIN5media10VideoFrameEE(%"class.rtc::scoped_refptr"* sret %0, %"class.media::VideoFrame"* %104)
  br label %217

105:                                              ; preds = %2
  %106 = tail call zeroext i1 @_ZNK5media10VideoFrame11HasTexturesEv(%"class.media::VideoFrame"* %5) #15
  br i1 %106, label %107, label %202

107:                                              ; preds = %105
  %108 = getelementptr inbounds %"class.blink::LegacyWebRtcVideoFrameAdapter", %"class.blink::LegacyWebRtcVideoFrameAdapter"* %1, i64 0, i32 4, i32 0
  %109 = load %"class.blink::LegacyWebRtcVideoFrameAdapter::SharedResources"*, %"class.blink::LegacyWebRtcVideoFrameAdapter::SharedResources"** %108, align 8
  %110 = icmp eq %"class.blink::LegacyWebRtcVideoFrameAdapter::SharedResources"* %109, null
  br i1 %110, label %196, label %111

111:                                              ; preds = %107
  %112 = load %"class.media::VideoFrame"*, %"class.media::VideoFrame"** %4, align 8
  %113 = icmp eq %"class.media::VideoFrame"* %112, null
  br i1 %113, label %117, label %114

114:                                              ; preds = %111
  %115 = getelementptr inbounds %"class.media::VideoFrame", %"class.media::VideoFrame"* %112, i64 0, i32 1, i32 0, i32 0, i32 0, i32 0, i32 0, i32 0, i32 0, i32 0
  %116 = atomicrmw add i32* %115, i32 1 monotonic
  br label %117

117:                                              ; preds = %114, %111
  %118 = bitcast %"class.blink::LegacyWebRtcVideoFrameAdapter::SharedResources"* %109 to %"class.media::VideoFrame"* (%"class.blink::LegacyWebRtcVideoFrameAdapter::SharedResources"*, %"class.media::VideoFrame"*)***
  %119 = load %"class.media::VideoFrame"* (%"class.blink::LegacyWebRtcVideoFrameAdapter::SharedResources"*, %"class.media::VideoFrame"*)**, %"class.media::VideoFrame"* (%"class.blink::LegacyWebRtcVideoFrameAdapter::SharedResources"*, %"class.media::VideoFrame"*)*** %118, align 8
  %120 = getelementptr inbounds %"class.media::VideoFrame"* (%"class.blink::LegacyWebRtcVideoFrameAdapter::SharedResources"*, %"class.media::VideoFrame"*)*, %"class.media::VideoFrame"* (%"class.blink::LegacyWebRtcVideoFrameAdapter::SharedResources"*, %"class.media::VideoFrame"*)** %119, i64 3
  %121 = load %"class.media::VideoFrame"* (%"class.blink::LegacyWebRtcVideoFrameAdapter::SharedResources"*, %"class.media::VideoFrame"*)*, %"class.media::VideoFrame"* (%"class.blink::LegacyWebRtcVideoFrameAdapter::SharedResources"*, %"class.media::VideoFrame"*)** %120, align 8
  %122 = tail call %"class.media::VideoFrame"* %121(%"class.blink::LegacyWebRtcVideoFrameAdapter::SharedResources"* nonnull %109, %"class.media::VideoFrame"* %112) #15
  %123 = icmp eq %"class.media::VideoFrame"* %122, null
  br i1 %123, label %127, label %124

124:                                              ; preds = %117
  %125 = getelementptr inbounds %"class.media::VideoFrame", %"class.media::VideoFrame"* %122, i64 0, i32 1, i32 0, i32 0, i32 0, i32 0, i32 0, i32 0, i32 0, i32 0
  %126 = atomicrmw add i32* %125, i32 1 monotonic
  br label %127

127:                                              ; preds = %117, %124
  %128 = load %"class.blink::LegacyWebRtcVideoFrameAdapter::SharedResources"*, %"class.blink::LegacyWebRtcVideoFrameAdapter::SharedResources"** %108, align 8
  %129 = icmp eq %"class.blink::LegacyWebRtcVideoFrameAdapter::SharedResources"* %128, null
  br i1 %129, label %134, label %130

130:                                              ; preds = %127
  %131 = getelementptr inbounds %"class.blink::LegacyWebRtcVideoFrameAdapter::SharedResources", %"class.blink::LegacyWebRtcVideoFrameAdapter::SharedResources"* %128, i64 0, i32 1, i32 0, i32 0, i32 0, i32 0, i32 0, i32 0, i32 0, i32 0
  %132 = atomicrmw add i32* %131, i32 1 monotonic
  %133 = tail call fastcc %"class.media::VideoFrame"* @_ZN12_GLOBAL__N_125MaybeConvertAndScaleFrameE13scoped_refptrIN5media10VideoFrameEES0_IN5blink29LegacyWebRtcVideoFrameAdapter15SharedResourcesEE(%"class.media::VideoFrame"* %122, %"class.blink::LegacyWebRtcVideoFrameAdapter::SharedResources"* nonnull %128)
  br i1 %123, label %149, label %136

134:                                              ; preds = %127
  %135 = tail call fastcc %"class.media::VideoFrame"* @_ZN12_GLOBAL__N_125MaybeConvertAndScaleFrameE13scoped_refptrIN5media10VideoFrameEES0_IN5blink29LegacyWebRtcVideoFrameAdapter15SharedResourcesEE(%"class.media::VideoFrame"* %122, %"class.blink::LegacyWebRtcVideoFrameAdapter::SharedResources"* null)
  br i1 %123, label %149, label %136

136:                                              ; preds = %130, %134
  %137 = phi %"class.media::VideoFrame"* [ %133, %130 ], [ %135, %134 ]
  %138 = getelementptr inbounds %"class.media::VideoFrame", %"class.media::VideoFrame"* %122, i64 0, i32 1
  %139 = getelementptr inbounds %"class.base::RefCountedThreadSafe", %"class.base::RefCountedThreadSafe"* %138, i64 0, i32 0, i32 0, i32 0, i32 0, i32 0, i32 0, i32 0, i32 0
  %140 = atomicrmw sub i32* %139, i32 1 acq_rel
  %141 = icmp eq i32 %140, 1
  br i1 %141, label %142, label %149

142:                                              ; preds = %136
  %143 = getelementptr inbounds %"class.base::RefCountedThreadSafe", %"class.base::RefCountedThreadSafe"* %138, i64 -2
  %144 = bitcast %"class.base::RefCountedThreadSafe"* %143 to %"class.media::VideoFrame"*
  %145 = bitcast %"class.base::RefCountedThreadSafe"* %143 to void (%"class.media::VideoFrame"*)***
  %146 = load void (%"class.media::VideoFrame"*)**, void (%"class.media::VideoFrame"*)*** %145, align 8
  %147 = getelementptr inbounds void (%"class.media::VideoFrame"*)*, void (%"class.media::VideoFrame"*)** %146, i64 1
  %148 = load void (%"class.media::VideoFrame"*)*, void (%"class.media::VideoFrame"*)** %147, align 8
  tail call void %148(%"class.media::VideoFrame"* nonnull %144) #15
  br label %149

149:                                              ; preds = %130, %134, %136, %142
  %150 = phi %"class.media::VideoFrame"* [ %135, %134 ], [ %137, %136 ], [ %137, %142 ], [ %133, %130 ]
  %151 = icmp eq %"class.media::VideoFrame"* %150, null
  br i1 %151, label %196, label %152

152:                                              ; preds = %149
  %153 = ptrtoint %"class.media::VideoFrame"* %150 to i64
  %154 = getelementptr inbounds %"class.media::VideoFrame", %"class.media::VideoFrame"* %150, i64 0, i32 2, i32 0
  %155 = load i32, i32* %154, align 8, !noalias !28
  switch i32 %155, label %183 [
    i32 1, label %156
    i32 4, label %165
    i32 6, label %174
  ]

156:                                              ; preds = %152
  %157 = tail call i8* @_Znwm(i64 24) #16, !noalias !28
  %158 = bitcast i8* %157 to i32 (...)***
  %159 = getelementptr inbounds i8, i8* %157, i64 8
  %160 = bitcast i8* %159 to i64*
  store i64 %153, i64* %160, align 8, !noalias !28
  store i32 (...)** bitcast (i8** getelementptr inbounds ({ [22 x i8*] }, { [22 x i8*] }* @_ZTVN3rtc16RefCountedObjectIN12_GLOBAL__N_116I420FrameAdapterEEE, i64 0, inrange i32 0, i64 2) to i32 (...)**), i32 (...)*** %158, align 8, !noalias !28
  %161 = getelementptr inbounds i8, i8* %157, i64 16
  %162 = bitcast i8* %161 to i32*
  store i32 0, i32* %162, align 4, !noalias !28
  %163 = bitcast %"class.rtc::scoped_refptr"* %0 to i8**
  store i8* %157, i8** %163, align 8, !alias.scope !28
  %164 = atomicrmw add i32* %162, i32 1 monotonic, !noalias !28
  br label %217

165:                                              ; preds = %152
  %166 = tail call i8* @_Znwm(i64 24) #16, !noalias !28
  %167 = bitcast i8* %166 to i32 (...)***
  %168 = getelementptr inbounds i8, i8* %166, i64 8
  %169 = bitcast i8* %168 to i64*
  store i64 %153, i64* %169, align 8, !noalias !28
  store i32 (...)** bitcast (i8** getelementptr inbounds ({ [24 x i8*] }, { [24 x i8*] }* @_ZTVN3rtc16RefCountedObjectIN12_GLOBAL__N_117I420AFrameAdapterEEE, i64 0, inrange i32 0, i64 2) to i32 (...)**), i32 (...)*** %167, align 8, !noalias !28
  %170 = getelementptr inbounds i8, i8* %166, i64 16
  %171 = bitcast i8* %170 to i32*
  store i32 0, i32* %171, align 4, !noalias !28
  %172 = bitcast %"class.rtc::scoped_refptr"* %0 to i8**
  store i8* %166, i8** %172, align 8, !alias.scope !28
  %173 = atomicrmw add i32* %171, i32 1 monotonic, !noalias !28
  br label %217

174:                                              ; preds = %152
  %175 = tail call i8* @_Znwm(i64 24) #16, !noalias !28
  %176 = bitcast i8* %175 to i32 (...)***
  %177 = getelementptr inbounds i8, i8* %175, i64 8
  %178 = bitcast i8* %177 to i64*
  store i64 %153, i64* %178, align 8, !noalias !28
  store i32 (...)** bitcast (i8** getelementptr inbounds ({ [20 x i8*] }, { [20 x i8*] }* @_ZTVN3rtc16RefCountedObjectIN12_GLOBAL__N_116NV12FrameAdapterEEE, i64 0, inrange i32 0, i64 2) to i32 (...)**), i32 (...)*** %176, align 8, !noalias !28
  %179 = getelementptr inbounds i8, i8* %175, i64 16
  %180 = bitcast i8* %179 to i32*
  store i32 0, i32* %180, align 4, !noalias !28
  %181 = bitcast %"class.rtc::scoped_refptr"* %0 to i8**
  store i8* %175, i8** %181, align 8, !alias.scope !28
  %182 = atomicrmw add i32* %180, i32 1 monotonic, !noalias !28
  br label %217

183:                                              ; preds = %152
  %184 = getelementptr inbounds %"class.rtc::scoped_refptr", %"class.rtc::scoped_refptr"* %0, i64 0, i32 0
  store %"class.webrtc::VideoFrameBuffer"* null, %"class.webrtc::VideoFrameBuffer"** %184, align 8, !alias.scope !28
  %185 = getelementptr inbounds %"class.media::VideoFrame", %"class.media::VideoFrame"* %150, i64 0, i32 1
  %186 = getelementptr inbounds %"class.base::RefCountedThreadSafe", %"class.base::RefCountedThreadSafe"* %185, i64 0, i32 0, i32 0, i32 0, i32 0, i32 0, i32 0, i32 0, i32 0
  %187 = atomicrmw sub i32* %186, i32 1 acq_rel, !noalias !28
  %188 = icmp eq i32 %187, 1
  br i1 %188, label %189, label %217

189:                                              ; preds = %183
  %190 = getelementptr inbounds %"class.base::RefCountedThreadSafe", %"class.base::RefCountedThreadSafe"* %185, i64 -2
  %191 = bitcast %"class.base::RefCountedThreadSafe"* %190 to %"class.media::VideoFrame"*
  %192 = bitcast %"class.base::RefCountedThreadSafe"* %190 to void (%"class.media::VideoFrame"*)***
  %193 = load void (%"class.media::VideoFrame"*)**, void (%"class.media::VideoFrame"*)*** %192, align 8, !noalias !28
  %194 = getelementptr inbounds void (%"class.media::VideoFrame"*)*, void (%"class.media::VideoFrame"*)** %193, i64 1
  %195 = load void (%"class.media::VideoFrame"*)*, void (%"class.media::VideoFrame"*)** %194, align 8, !noalias !28
  tail call void %195(%"class.media::VideoFrame"* nonnull %191) #15, !noalias !28
  br label %217

196:                                              ; preds = %107, %149
  %197 = load %"class.media::VideoFrame"*, %"class.media::VideoFrame"** %4, align 8
  %198 = getelementptr inbounds %"class.media::VideoFrame", %"class.media::VideoFrame"* %197, i64 0, i32 6
  %199 = getelementptr inbounds %"class.media::VideoFrame", %"class.media::VideoFrame"* %197, i64 0, i32 16, i32 0
  %200 = load i64, i64* %199, align 8
  %201 = tail call %"class.media::VideoFrame"* @_ZN5media10VideoFrame16CreateColorFrameERKN3gfx4SizeEhhhN4base9TimeDeltaE(%"class.gfx::Size"* dereferenceable(8) %198, i8 zeroext 0, i8 zeroext -128, i8 zeroext -128, i64 %200) #15
  tail call fastcc void @_ZN12_GLOBAL__N_116MakeFrameAdapterE13scoped_refptrIN5media10VideoFrameEE(%"class.rtc::scoped_refptr"* sret %0, %"class.media::VideoFrame"* %201)
  br label %217

202:                                              ; preds = %105
  %203 = load %"class.media::VideoFrame"*, %"class.media::VideoFrame"** %4, align 8
  %204 = icmp eq %"class.media::VideoFrame"* %203, null
  br i1 %204, label %208, label %205

205:                                              ; preds = %202
  %206 = getelementptr inbounds %"class.media::VideoFrame", %"class.media::VideoFrame"* %203, i64 0, i32 1, i32 0, i32 0, i32 0, i32 0, i32 0, i32 0, i32 0, i32 0
  %207 = atomicrmw add i32* %206, i32 1 monotonic
  br label %208

208:                                              ; preds = %202, %205
  %209 = getelementptr inbounds %"class.blink::LegacyWebRtcVideoFrameAdapter", %"class.blink::LegacyWebRtcVideoFrameAdapter"* %1, i64 0, i32 4, i32 0
  %210 = load %"class.blink::LegacyWebRtcVideoFrameAdapter::SharedResources"*, %"class.blink::LegacyWebRtcVideoFrameAdapter::SharedResources"** %209, align 8
  %211 = icmp eq %"class.blink::LegacyWebRtcVideoFrameAdapter::SharedResources"* %210, null
  br i1 %211, label %215, label %212

212:                                              ; preds = %208
  %213 = getelementptr inbounds %"class.blink::LegacyWebRtcVideoFrameAdapter::SharedResources", %"class.blink::LegacyWebRtcVideoFrameAdapter::SharedResources"* %210, i64 0, i32 1, i32 0, i32 0, i32 0, i32 0, i32 0, i32 0, i32 0, i32 0
  %214 = atomicrmw add i32* %213, i32 1 monotonic
  br label %215

215:                                              ; preds = %212, %208
  %216 = tail call fastcc %"class.media::VideoFrame"* @_ZN12_GLOBAL__N_125MaybeConvertAndScaleFrameE13scoped_refptrIN5media10VideoFrameEES0_IN5blink29LegacyWebRtcVideoFrameAdapter15SharedResourcesEE(%"class.media::VideoFrame"* %203, %"class.blink::LegacyWebRtcVideoFrameAdapter::SharedResources"* %210)
  tail call fastcc void @_ZN12_GLOBAL__N_116MakeFrameAdapterE13scoped_refptrIN5media10VideoFrameEE(%"class.rtc::scoped_refptr"* sret %0, %"class.media::VideoFrame"* %216)
  br label %217

217:                                              ; preds = %189, %183, %174, %165, %156, %92, %86, %77, %68, %59, %196, %99, %215
  ret void
}

; Function Attrs: nounwind ssp uwtable
define internal fastcc %"class.media::VideoFrame"* @_ZN12_GLOBAL__N_125MaybeConvertAndScaleFrameE13scoped_refptrIN5media10VideoFrameEES0_IN5blink29LegacyWebRtcVideoFrameAdapter15SharedResourcesEE(%"class.media::VideoFrame"*, %"class.blink::LegacyWebRtcVideoFrameAdapter::SharedResources"*) unnamed_addr #0 {
  %3 = alloca %"class.gfx::Rect", align 4
  %4 = alloca %"class.gfx::Rect", align 4
  %5 = alloca %"class.logging::LogMessage", align 8
  %6 = alloca i64, align 8
  %7 = alloca %"class.gfx::Rect", align 4
  %8 = ptrtoint %"class.media::VideoFrame"* %0 to i64
  %9 = icmp eq %"class.media::VideoFrame"* %0, null
  br i1 %9, label %331, label %10

10:                                               ; preds = %2
  %11 = getelementptr inbounds %"class.media::VideoFrame", %"class.media::VideoFrame"* %0, i64 0, i32 2, i32 0
  %12 = load i32, i32* %11, align 8
  %13 = icmp eq i32 %12, 6
  %14 = getelementptr inbounds %"class.media::VideoFrame", %"class.media::VideoFrame"* %0, i64 0, i32 6
  %15 = getelementptr inbounds %"class.gfx::Size", %"class.gfx::Size"* %14, i64 0, i32 0
  %16 = load i32, i32* %15, align 4
  %17 = getelementptr inbounds %"class.media::VideoFrame", %"class.media::VideoFrame"* %0, i64 0, i32 5, i32 1, i32 0
  %18 = load i32, i32* %17, align 4
  %19 = icmp eq i32 %16, %18
  br i1 %19, label %20, label %31

20:                                               ; preds = %10
  %21 = icmp ne i32 %12, 1
  %22 = getelementptr inbounds %"class.media::VideoFrame", %"class.media::VideoFrame"* %0, i64 0, i32 6, i32 1
  %23 = load i32, i32* %22, align 4
  %24 = getelementptr inbounds %"class.media::VideoFrame", %"class.media::VideoFrame"* %0, i64 0, i32 5, i32 1, i32 1
  %25 = load i32, i32* %24, align 4
  %26 = icmp ne i32 %23, %25
  %27 = or i32 %12, 2
  %28 = icmp ne i32 %27, 6
  %29 = and i1 %21, %28
  %30 = or i1 %29, %26
  br i1 %30, label %31, label %331

31:                                               ; preds = %10, %20
  br i1 %13, label %32, label %102

32:                                               ; preds = %31
  %33 = bitcast %"class.gfx::Rect"* %3 to i8*
  call void @llvm.lifetime.start.p0i8(i64 16, i8* nonnull %33) #15
  %34 = getelementptr inbounds %"class.gfx::Rect", %"class.gfx::Rect"* %3, i64 0, i32 0, i32 0
  store i32 0, i32* %34, align 4
  %35 = getelementptr inbounds %"class.gfx::Rect", %"class.gfx::Rect"* %3, i64 0, i32 0, i32 1
  store i32 0, i32* %35, align 4
  %36 = getelementptr inbounds %"class.gfx::Rect", %"class.gfx::Rect"* %3, i64 0, i32 1
  %37 = bitcast %"class.gfx::Size"* %14 to i64*
  %38 = bitcast %"class.gfx::Size"* %36 to i64*
  %39 = load i64, i64* %37, align 4
  store i64 %39, i64* %38, align 4
  %40 = getelementptr inbounds %"class.media::VideoFrame", %"class.media::VideoFrame"* %0, i64 0, i32 16, i32 0
  %41 = load i64, i64* %40, align 8
  %42 = bitcast %"class.blink::LegacyWebRtcVideoFrameAdapter::SharedResources"* %1 to %"class.media::VideoFrame"* (%"class.blink::LegacyWebRtcVideoFrameAdapter::SharedResources"*, i32, %"class.gfx::Size"*, %"class.gfx::Rect"*, %"class.gfx::Size"*, i64)***
  %43 = load %"class.media::VideoFrame"* (%"class.blink::LegacyWebRtcVideoFrameAdapter::SharedResources"*, i32, %"class.gfx::Size"*, %"class.gfx::Rect"*, %"class.gfx::Size"*, i64)**, %"class.media::VideoFrame"* (%"class.blink::LegacyWebRtcVideoFrameAdapter::SharedResources"*, i32, %"class.gfx::Size"*, %"class.gfx::Rect"*, %"class.gfx::Size"*, i64)*** %42, align 8
  %44 = load %"class.media::VideoFrame"* (%"class.blink::LegacyWebRtcVideoFrameAdapter::SharedResources"*, i32, %"class.gfx::Size"*, %"class.gfx::Rect"*, %"class.gfx::Size"*, i64)*, %"class.media::VideoFrame"* (%"class.blink::LegacyWebRtcVideoFrameAdapter::SharedResources"*, i32, %"class.gfx::Size"*, %"class.gfx::Rect"*, %"class.gfx::Size"*, i64)** %43, align 8
  %45 = call %"class.media::VideoFrame"* %44(%"class.blink::LegacyWebRtcVideoFrameAdapter::SharedResources"* %1, i32 6, %"class.gfx::Size"* dereferenceable(8) %14, %"class.gfx::Rect"* nonnull dereferenceable(16) %3, %"class.gfx::Size"* dereferenceable(8) %14, i64 %41) #15
  call void @llvm.lifetime.end.p0i8(i64 16, i8* nonnull %33) #15
  %46 = getelementptr inbounds %"class.media::VideoFrame", %"class.media::VideoFrame"* %45, i64 0, i32 19
  %47 = getelementptr inbounds %"class.media::VideoFrame", %"class.media::VideoFrame"* %0, i64 0, i32 19
  call void @_ZN5media18VideoFrameMetadata17MergeMetadataFromERKS0_(%"struct.media::VideoFrameMetadata"* %46, %"struct.media::VideoFrameMetadata"* dereferenceable(376) %47) #15
  %48 = call i8* @_ZN5media10VideoFrame12visible_dataEm(%"class.media::VideoFrame"* nonnull %0, i64 0) #15
  %49 = getelementptr inbounds %"class.media::VideoFrame", %"class.media::VideoFrame"* %0, i64 0, i32 2, i32 2, i32 0, i32 0
  %50 = load %"struct.media::ColorPlaneLayout"*, %"struct.media::ColorPlaneLayout"** %49, align 8
  %51 = getelementptr inbounds %"struct.media::ColorPlaneLayout", %"struct.media::ColorPlaneLayout"* %50, i64 0, i32 0
  %52 = load i32, i32* %51, align 8
  %53 = call i8* @_ZN5media10VideoFrame12visible_dataEm(%"class.media::VideoFrame"* nonnull %0, i64 1) #15
  %54 = load %"struct.media::ColorPlaneLayout"*, %"struct.media::ColorPlaneLayout"** %49, align 8
  %55 = getelementptr inbounds %"struct.media::ColorPlaneLayout", %"struct.media::ColorPlaneLayout"* %54, i64 1, i32 0
  %56 = load i32, i32* %55, align 8
  %57 = load i32, i32* %17, align 4
  %58 = getelementptr inbounds %"class.media::VideoFrame", %"class.media::VideoFrame"* %0, i64 0, i32 5, i32 1, i32 1
  %59 = load i32, i32* %58, align 4
  %60 = getelementptr inbounds %"class.media::VideoFrame", %"class.media::VideoFrame"* %45, i64 0, i32 7, i64 0
  %61 = load i8*, i8** %60, align 8
  %62 = getelementptr inbounds %"class.media::VideoFrame", %"class.media::VideoFrame"* %45, i64 0, i32 2, i32 2, i32 0, i32 0
  %63 = load %"struct.media::ColorPlaneLayout"*, %"struct.media::ColorPlaneLayout"** %62, align 8
  %64 = getelementptr inbounds %"struct.media::ColorPlaneLayout", %"struct.media::ColorPlaneLayout"* %63, i64 0, i32 0
  %65 = load i32, i32* %64, align 8
  %66 = getelementptr inbounds %"class.media::VideoFrame", %"class.media::VideoFrame"* %45, i64 0, i32 7, i64 1
  %67 = load i8*, i8** %66, align 8
  %68 = getelementptr inbounds %"struct.media::ColorPlaneLayout", %"struct.media::ColorPlaneLayout"* %63, i64 1, i32 0
  %69 = load i32, i32* %68, align 8
  %70 = getelementptr inbounds %"class.media::VideoFrame", %"class.media::VideoFrame"* %45, i64 0, i32 2, i32 1, i32 0
  %71 = load i32, i32* %70, align 4
  %72 = getelementptr inbounds %"class.media::VideoFrame", %"class.media::VideoFrame"* %45, i64 0, i32 2, i32 1, i32 1
  %73 = load i32, i32* %72, align 4
  %74 = call i32 @NV12Scale(i8* %48, i32 %52, i8* %53, i32 %56, i32 %57, i32 %59, i8* %61, i32 %65, i8* %67, i32 %69, i32 %71, i32 %73, i32 3) #15
  %75 = icmp eq %"class.blink::LegacyWebRtcVideoFrameAdapter::SharedResources"* %1, null
  br i1 %75, label %88, label %76

76:                                               ; preds = %32
  %77 = getelementptr inbounds %"class.blink::LegacyWebRtcVideoFrameAdapter::SharedResources", %"class.blink::LegacyWebRtcVideoFrameAdapter::SharedResources"* %1, i64 0, i32 1
  %78 = getelementptr inbounds %"class.base::RefCountedThreadSafe.65", %"class.base::RefCountedThreadSafe.65"* %77, i64 0, i32 0, i32 0, i32 0, i32 0, i32 0, i32 0, i32 0, i32 0
  %79 = atomicrmw sub i32* %78, i32 1 acq_rel
  %80 = icmp eq i32 %79, 1
  br i1 %80, label %81, label %88

81:                                               ; preds = %76
  %82 = getelementptr inbounds %"class.base::RefCountedThreadSafe.65", %"class.base::RefCountedThreadSafe.65"* %77, i64 -2
  %83 = bitcast %"class.base::RefCountedThreadSafe.65"* %82 to %"class.blink::LegacyWebRtcVideoFrameAdapter::SharedResources"*
  %84 = bitcast %"class.base::RefCountedThreadSafe.65"* %82 to void (%"class.blink::LegacyWebRtcVideoFrameAdapter::SharedResources"*)***
  %85 = load void (%"class.blink::LegacyWebRtcVideoFrameAdapter::SharedResources"*)**, void (%"class.blink::LegacyWebRtcVideoFrameAdapter::SharedResources"*)*** %84, align 8
  %86 = getelementptr inbounds void (%"class.blink::LegacyWebRtcVideoFrameAdapter::SharedResources"*)*, void (%"class.blink::LegacyWebRtcVideoFrameAdapter::SharedResources"*)** %85, i64 6
  %87 = load void (%"class.blink::LegacyWebRtcVideoFrameAdapter::SharedResources"*)*, void (%"class.blink::LegacyWebRtcVideoFrameAdapter::SharedResources"*)** %86, align 8
  call void %87(%"class.blink::LegacyWebRtcVideoFrameAdapter::SharedResources"* nonnull %83) #15
  br label %88

88:                                               ; preds = %32, %76, %81
  %89 = getelementptr inbounds %"class.media::VideoFrame", %"class.media::VideoFrame"* %0, i64 0, i32 1
  %90 = getelementptr inbounds %"class.base::RefCountedThreadSafe", %"class.base::RefCountedThreadSafe"* %89, i64 0, i32 0, i32 0, i32 0, i32 0, i32 0, i32 0, i32 0, i32 0
  %91 = atomicrmw sub i32* %90, i32 1 acq_rel
  %92 = icmp eq i32 %91, 1
  br i1 %92, label %93, label %100

93:                                               ; preds = %88
  %94 = getelementptr inbounds %"class.base::RefCountedThreadSafe", %"class.base::RefCountedThreadSafe"* %89, i64 -2
  %95 = bitcast %"class.base::RefCountedThreadSafe"* %94 to %"class.media::VideoFrame"*
  %96 = bitcast %"class.base::RefCountedThreadSafe"* %94 to void (%"class.media::VideoFrame"*)***
  %97 = load void (%"class.media::VideoFrame"*)**, void (%"class.media::VideoFrame"*)*** %96, align 8
  %98 = getelementptr inbounds void (%"class.media::VideoFrame"*)*, void (%"class.media::VideoFrame"*)** %97, i64 1
  %99 = load void (%"class.media::VideoFrame"*)*, void (%"class.media::VideoFrame"*)** %98, align 8
  call void %99(%"class.media::VideoFrame"* nonnull %95) #15
  br label %100

100:                                              ; preds = %88, %93
  %101 = ptrtoint %"class.media::VideoFrame"* %45 to i64
  br label %362

102:                                              ; preds = %31
  %103 = bitcast i64* %6 to %"class.gfx::Size"*
  %104 = icmp eq i32 %12, 4
  %105 = select i1 %104, i32 4, i32 1
  %106 = bitcast %"class.gfx::Rect"* %4 to i8*
  call void @llvm.lifetime.start.p0i8(i64 16, i8* nonnull %106) #15
  %107 = getelementptr inbounds %"class.gfx::Rect", %"class.gfx::Rect"* %4, i64 0, i32 0, i32 0
  store i32 0, i32* %107, align 4
  %108 = getelementptr inbounds %"class.gfx::Rect", %"class.gfx::Rect"* %4, i64 0, i32 0, i32 1
  store i32 0, i32* %108, align 4
  %109 = getelementptr inbounds %"class.gfx::Rect", %"class.gfx::Rect"* %4, i64 0, i32 1
  %110 = bitcast %"class.gfx::Size"* %14 to i64*
  %111 = bitcast %"class.gfx::Size"* %109 to i64*
  %112 = load i64, i64* %110, align 4
  store i64 %112, i64* %111, align 4
  %113 = getelementptr inbounds %"class.media::VideoFrame", %"class.media::VideoFrame"* %0, i64 0, i32 16, i32 0
  %114 = load i64, i64* %113, align 8
  %115 = bitcast %"class.blink::LegacyWebRtcVideoFrameAdapter::SharedResources"* %1 to %"class.media::VideoFrame"* (%"class.blink::LegacyWebRtcVideoFrameAdapter::SharedResources"*, i32, %"class.gfx::Size"*, %"class.gfx::Rect"*, %"class.gfx::Size"*, i64)***
  %116 = load %"class.media::VideoFrame"* (%"class.blink::LegacyWebRtcVideoFrameAdapter::SharedResources"*, i32, %"class.gfx::Size"*, %"class.gfx::Rect"*, %"class.gfx::Size"*, i64)**, %"class.media::VideoFrame"* (%"class.blink::LegacyWebRtcVideoFrameAdapter::SharedResources"*, i32, %"class.gfx::Size"*, %"class.gfx::Rect"*, %"class.gfx::Size"*, i64)*** %115, align 8
  %117 = load %"class.media::VideoFrame"* (%"class.blink::LegacyWebRtcVideoFrameAdapter::SharedResources"*, i32, %"class.gfx::Size"*, %"class.gfx::Rect"*, %"class.gfx::Size"*, i64)*, %"class.media::VideoFrame"* (%"class.blink::LegacyWebRtcVideoFrameAdapter::SharedResources"*, i32, %"class.gfx::Size"*, %"class.gfx::Rect"*, %"class.gfx::Size"*, i64)** %116, align 8
  %118 = call %"class.media::VideoFrame"* %117(%"class.blink::LegacyWebRtcVideoFrameAdapter::SharedResources"* %1, i32 %105, %"class.gfx::Size"* dereferenceable(8) %14, %"class.gfx::Rect"* nonnull dereferenceable(16) %4, %"class.gfx::Size"* dereferenceable(8) %14, i64 %114) #15
  %119 = ptrtoint %"class.media::VideoFrame"* %118 to i64
  call void @llvm.lifetime.end.p0i8(i64 16, i8* nonnull %106) #15
  %120 = icmp eq %"class.media::VideoFrame"* %118, null
  br i1 %120, label %121, label %128

121:                                              ; preds = %102
  %122 = call zeroext i1 @_ZN7logging22ShouldCreateLogMessageEi(i32 2) #15
  br i1 %122, label %123, label %304

123:                                              ; preds = %121
  %124 = bitcast %"class.logging::LogMessage"* %5 to i8*
  call void @llvm.lifetime.start.p0i8(i64 304, i8* nonnull %124) #15
  call void @_ZN7logging10LogMessageC1EPKcii(%"class.logging::LogMessage"* nonnull %5, i8* getelementptr inbounds ([86 x i8], [86 x i8]* @.str.1, i64 0, i64 0), i32 194, i32 2) #15
  %125 = getelementptr inbounds %"class.logging::LogMessage", %"class.logging::LogMessage"* %5, i64 0, i32 2
  %126 = bitcast %"class.std::__1::basic_ostringstream"* %125 to %"class.std::__1::basic_ostream"*
  %127 = call dereferenceable(160) %"class.std::__1::basic_ostream"* @_ZNSt3__124__put_character_sequenceIcNS_11char_traitsIcEEEERNS_13basic_ostreamIT_T0_EES7_PKS4_m(%"class.std::__1::basic_ostream"* dereferenceable(160) %126, i8* getelementptr inbounds ([39 x i8], [39 x i8]* @.str.13, i64 0, i64 0), i64 38) #15
  call void @_ZN7logging10LogMessageD1Ev(%"class.logging::LogMessage"* nonnull %5) #15
  call void @llvm.lifetime.end.p0i8(i64 304, i8* nonnull %124) #15
  br label %304

128:                                              ; preds = %102
  %129 = getelementptr inbounds %"class.media::VideoFrame", %"class.media::VideoFrame"* %118, i64 0, i32 19
  %130 = getelementptr inbounds %"class.media::VideoFrame", %"class.media::VideoFrame"* %0, i64 0, i32 19
  call void @_ZN5media18VideoFrameMetadata17MergeMetadataFromERKS0_(%"struct.media::VideoFrameMetadata"* %129, %"struct.media::VideoFrameMetadata"* dereferenceable(376) %130) #15
  %131 = load i32, i32* %11, align 8
  switch i32 %131, label %304 [
    i32 4, label %132
    i32 1, label %151
    i32 10, label %187
  ]

132:                                              ; preds = %128
  %133 = call i8* @_ZN5media10VideoFrame12visible_dataEm(%"class.media::VideoFrame"* nonnull %0, i64 3) #15
  %134 = getelementptr inbounds %"class.media::VideoFrame", %"class.media::VideoFrame"* %0, i64 0, i32 2, i32 2, i32 0, i32 0
  %135 = load %"struct.media::ColorPlaneLayout"*, %"struct.media::ColorPlaneLayout"** %134, align 8
  %136 = getelementptr inbounds %"struct.media::ColorPlaneLayout", %"struct.media::ColorPlaneLayout"* %135, i64 3, i32 0
  %137 = load i32, i32* %136, align 8
  %138 = load i32, i32* %17, align 4
  %139 = getelementptr inbounds %"class.media::VideoFrame", %"class.media::VideoFrame"* %0, i64 0, i32 5, i32 1, i32 1
  %140 = load i32, i32* %139, align 4
  %141 = getelementptr inbounds %"class.media::VideoFrame", %"class.media::VideoFrame"* %118, i64 0, i32 7, i64 3
  %142 = load i8*, i8** %141, align 8
  %143 = getelementptr inbounds %"class.media::VideoFrame", %"class.media::VideoFrame"* %118, i64 0, i32 2, i32 2, i32 0, i32 0
  %144 = load %"struct.media::ColorPlaneLayout"*, %"struct.media::ColorPlaneLayout"** %143, align 8
  %145 = getelementptr inbounds %"struct.media::ColorPlaneLayout", %"struct.media::ColorPlaneLayout"* %144, i64 3, i32 0
  %146 = load i32, i32* %145, align 8
  %147 = getelementptr inbounds %"class.media::VideoFrame", %"class.media::VideoFrame"* %118, i64 0, i32 2, i32 1, i32 0
  %148 = load i32, i32* %147, align 4
  %149 = getelementptr inbounds %"class.media::VideoFrame", %"class.media::VideoFrame"* %118, i64 0, i32 2, i32 1, i32 1
  %150 = load i32, i32* %149, align 4
  call void @ScalePlane(i8* %133, i32 %137, i32 %138, i32 %140, i8* %142, i32 %146, i32 %148, i32 %150, i32 3) #15
  br label %151

151:                                              ; preds = %132, %128
  %152 = call i8* @_ZN5media10VideoFrame12visible_dataEm(%"class.media::VideoFrame"* nonnull %0, i64 0) #15
  %153 = getelementptr inbounds %"class.media::VideoFrame", %"class.media::VideoFrame"* %0, i64 0, i32 2, i32 2, i32 0, i32 0
  %154 = load %"struct.media::ColorPlaneLayout"*, %"struct.media::ColorPlaneLayout"** %153, align 8
  %155 = getelementptr inbounds %"struct.media::ColorPlaneLayout", %"struct.media::ColorPlaneLayout"* %154, i64 0, i32 0
  %156 = load i32, i32* %155, align 8
  %157 = call i8* @_ZN5media10VideoFrame12visible_dataEm(%"class.media::VideoFrame"* nonnull %0, i64 1) #15
  %158 = load %"struct.media::ColorPlaneLayout"*, %"struct.media::ColorPlaneLayout"** %153, align 8
  %159 = getelementptr inbounds %"struct.media::ColorPlaneLayout", %"struct.media::ColorPlaneLayout"* %158, i64 1, i32 0
  %160 = load i32, i32* %159, align 8
  %161 = call i8* @_ZN5media10VideoFrame12visible_dataEm(%"class.media::VideoFrame"* nonnull %0, i64 2) #15
  %162 = load %"struct.media::ColorPlaneLayout"*, %"struct.media::ColorPlaneLayout"** %153, align 8
  %163 = getelementptr inbounds %"struct.media::ColorPlaneLayout", %"struct.media::ColorPlaneLayout"* %162, i64 2, i32 0
  %164 = load i32, i32* %163, align 8
  %165 = load i32, i32* %17, align 4
  %166 = getelementptr inbounds %"class.media::VideoFrame", %"class.media::VideoFrame"* %0, i64 0, i32 5, i32 1, i32 1
  %167 = load i32, i32* %166, align 4
  %168 = getelementptr inbounds %"class.media::VideoFrame", %"class.media::VideoFrame"* %118, i64 0, i32 7, i64 0
  %169 = load i8*, i8** %168, align 8
  %170 = getelementptr inbounds %"class.media::VideoFrame", %"class.media::VideoFrame"* %118, i64 0, i32 2, i32 2, i32 0, i32 0
  %171 = load %"struct.media::ColorPlaneLayout"*, %"struct.media::ColorPlaneLayout"** %170, align 8
  %172 = getelementptr inbounds %"struct.media::ColorPlaneLayout", %"struct.media::ColorPlaneLayout"* %171, i64 0, i32 0
  %173 = load i32, i32* %172, align 8
  %174 = getelementptr inbounds %"class.media::VideoFrame", %"class.media::VideoFrame"* %118, i64 0, i32 7, i64 1
  %175 = load i8*, i8** %174, align 8
  %176 = getelementptr inbounds %"struct.media::ColorPlaneLayout", %"struct.media::ColorPlaneLayout"* %171, i64 1, i32 0
  %177 = load i32, i32* %176, align 8
  %178 = getelementptr inbounds %"class.media::VideoFrame", %"class.media::VideoFrame"* %118, i64 0, i32 7, i64 2
  %179 = load i8*, i8** %178, align 8
  %180 = getelementptr inbounds %"struct.media::ColorPlaneLayout", %"struct.media::ColorPlaneLayout"* %171, i64 2, i32 0
  %181 = load i32, i32* %180, align 8
  %182 = getelementptr inbounds %"class.media::VideoFrame", %"class.media::VideoFrame"* %118, i64 0, i32 2, i32 1, i32 0
  %183 = load i32, i32* %182, align 4
  %184 = getelementptr inbounds %"class.media::VideoFrame", %"class.media::VideoFrame"* %118, i64 0, i32 2, i32 1, i32 1
  %185 = load i32, i32* %184, align 4
  %186 = call i32 @I420Scale(i8* %152, i32 %156, i8* %157, i32 %160, i8* %161, i32 %164, i32 %165, i32 %167, i8* %169, i32 %173, i8* %175, i32 %177, i8* %179, i32 %181, i32 %183, i32 %185, i32 3) #15
  br label %304

187:                                              ; preds = %128
  %188 = bitcast i64* %6 to i8*
  call void @llvm.lifetime.start.p0i8(i64 8, i8* nonnull %188) #15
  %189 = bitcast i64* %6 to i32*
  %190 = getelementptr inbounds %"class.gfx::Size", %"class.gfx::Size"* %103, i64 0, i32 1
  %191 = getelementptr inbounds %"class.media::VideoFrame", %"class.media::VideoFrame"* %0, i64 0, i32 5, i32 1
  %192 = bitcast %"class.gfx::Size"* %191 to i64*
  %193 = load i64, i64* %192, align 4
  store i64 %193, i64* %6, align 8
  %194 = trunc i64 %193 to i32
  %195 = getelementptr inbounds %"class.media::VideoFrame", %"class.media::VideoFrame"* %118, i64 0, i32 2, i32 1, i32 0
  %196 = load i32, i32* %195, align 4
  %197 = icmp eq i32 %196, %194
  br i1 %197, label %198, label %227

198:                                              ; preds = %187
  %199 = lshr i64 %193, 32
  %200 = trunc i64 %199 to i32
  %201 = getelementptr inbounds %"class.media::VideoFrame", %"class.media::VideoFrame"* %118, i64 0, i32 2, i32 1, i32 1
  %202 = load i32, i32* %201, align 4
  %203 = icmp eq i32 %202, %200
  br i1 %203, label %204, label %227

204:                                              ; preds = %198
  %205 = call i8* @_ZN5media10VideoFrame12visible_dataEm(%"class.media::VideoFrame"* nonnull %0, i64 0) #15
  %206 = getelementptr inbounds %"class.media::VideoFrame", %"class.media::VideoFrame"* %0, i64 0, i32 2, i32 2, i32 0, i32 0
  %207 = load %"struct.media::ColorPlaneLayout"*, %"struct.media::ColorPlaneLayout"** %206, align 8
  %208 = getelementptr inbounds %"struct.media::ColorPlaneLayout", %"struct.media::ColorPlaneLayout"* %207, i64 0, i32 0
  %209 = load i32, i32* %208, align 8
  %210 = getelementptr inbounds %"class.media::VideoFrame", %"class.media::VideoFrame"* %118, i64 0, i32 7, i64 0
  %211 = load i8*, i8** %210, align 8
  %212 = getelementptr inbounds %"class.media::VideoFrame", %"class.media::VideoFrame"* %118, i64 0, i32 2, i32 2, i32 0, i32 0
  %213 = load %"struct.media::ColorPlaneLayout"*, %"struct.media::ColorPlaneLayout"** %212, align 8
  %214 = getelementptr inbounds %"struct.media::ColorPlaneLayout", %"struct.media::ColorPlaneLayout"* %213, i64 0, i32 0
  %215 = load i32, i32* %214, align 8
  %216 = getelementptr inbounds %"class.media::VideoFrame", %"class.media::VideoFrame"* %118, i64 0, i32 7, i64 1
  %217 = load i8*, i8** %216, align 8
  %218 = getelementptr inbounds %"struct.media::ColorPlaneLayout", %"struct.media::ColorPlaneLayout"* %213, i64 1, i32 0
  %219 = load i32, i32* %218, align 8
  %220 = getelementptr inbounds %"class.media::VideoFrame", %"class.media::VideoFrame"* %118, i64 0, i32 7, i64 2
  %221 = load i8*, i8** %220, align 8
  %222 = getelementptr inbounds %"struct.media::ColorPlaneLayout", %"struct.media::ColorPlaneLayout"* %213, i64 2, i32 0
  %223 = load i32, i32* %222, align 8
  %224 = load i32, i32* %189, align 8
  %225 = load i32, i32* %190, align 4
  %226 = call i32 @ARGBToI420(i8* %205, i32 %209, i8* %211, i32 %215, i8* %217, i32 %219, i8* %221, i32 %223, i32 %224, i32 %225) #15
  br label %303

227:                                              ; preds = %198, %187
  %228 = bitcast %"class.gfx::Rect"* %7 to i8*
  call void @llvm.lifetime.start.p0i8(i64 16, i8* nonnull %228) #15
  %229 = getelementptr inbounds %"class.gfx::Rect", %"class.gfx::Rect"* %7, i64 0, i32 0, i32 0
  store i32 0, i32* %229, align 4
  %230 = getelementptr inbounds %"class.gfx::Rect", %"class.gfx::Rect"* %7, i64 0, i32 0, i32 1
  store i32 0, i32* %230, align 4
  %231 = getelementptr inbounds %"class.gfx::Rect", %"class.gfx::Rect"* %7, i64 0, i32 1
  %232 = bitcast %"class.gfx::Size"* %231 to i64*
  store i64 %193, i64* %232, align 4
  %233 = load i64, i64* %113, align 8
  %234 = load %"class.media::VideoFrame"* (%"class.blink::LegacyWebRtcVideoFrameAdapter::SharedResources"*, i32, %"class.gfx::Size"*, %"class.gfx::Rect"*, %"class.gfx::Size"*, i64)**, %"class.media::VideoFrame"* (%"class.blink::LegacyWebRtcVideoFrameAdapter::SharedResources"*, i32, %"class.gfx::Size"*, %"class.gfx::Rect"*, %"class.gfx::Size"*, i64)*** %115, align 8
  %235 = getelementptr inbounds %"class.media::VideoFrame"* (%"class.blink::LegacyWebRtcVideoFrameAdapter::SharedResources"*, i32, %"class.gfx::Size"*, %"class.gfx::Rect"*, %"class.gfx::Size"*, i64)*, %"class.media::VideoFrame"* (%"class.blink::LegacyWebRtcVideoFrameAdapter::SharedResources"*, i32, %"class.gfx::Size"*, %"class.gfx::Rect"*, %"class.gfx::Size"*, i64)** %234, i64 1
  %236 = load %"class.media::VideoFrame"* (%"class.blink::LegacyWebRtcVideoFrameAdapter::SharedResources"*, i32, %"class.gfx::Size"*, %"class.gfx::Rect"*, %"class.gfx::Size"*, i64)*, %"class.media::VideoFrame"* (%"class.blink::LegacyWebRtcVideoFrameAdapter::SharedResources"*, i32, %"class.gfx::Size"*, %"class.gfx::Rect"*, %"class.gfx::Size"*, i64)** %235, align 8
  %237 = call %"class.media::VideoFrame"* %236(%"class.blink::LegacyWebRtcVideoFrameAdapter::SharedResources"* %1, i32 1, %"class.gfx::Size"* nonnull dereferenceable(8) %103, %"class.gfx::Rect"* nonnull dereferenceable(16) %7, %"class.gfx::Size"* nonnull dereferenceable(8) %103, i64 %233) #15
  call void @llvm.lifetime.end.p0i8(i64 16, i8* nonnull %228) #15
  %238 = call i8* @_ZN5media10VideoFrame12visible_dataEm(%"class.media::VideoFrame"* nonnull %0, i64 0) #15
  %239 = getelementptr inbounds %"class.media::VideoFrame", %"class.media::VideoFrame"* %0, i64 0, i32 2, i32 2, i32 0, i32 0
  %240 = load %"struct.media::ColorPlaneLayout"*, %"struct.media::ColorPlaneLayout"** %239, align 8
  %241 = getelementptr inbounds %"struct.media::ColorPlaneLayout", %"struct.media::ColorPlaneLayout"* %240, i64 0, i32 0
  %242 = load i32, i32* %241, align 8
  %243 = getelementptr inbounds %"class.media::VideoFrame", %"class.media::VideoFrame"* %237, i64 0, i32 7, i64 0
  %244 = load i8*, i8** %243, align 8
  %245 = getelementptr inbounds %"class.media::VideoFrame", %"class.media::VideoFrame"* %237, i64 0, i32 2, i32 2, i32 0, i32 0
  %246 = load %"struct.media::ColorPlaneLayout"*, %"struct.media::ColorPlaneLayout"** %245, align 8
  %247 = getelementptr inbounds %"struct.media::ColorPlaneLayout", %"struct.media::ColorPlaneLayout"* %246, i64 0, i32 0
  %248 = load i32, i32* %247, align 8
  %249 = getelementptr inbounds %"class.media::VideoFrame", %"class.media::VideoFrame"* %237, i64 0, i32 7, i64 1
  %250 = load i8*, i8** %249, align 8
  %251 = getelementptr inbounds %"struct.media::ColorPlaneLayout", %"struct.media::ColorPlaneLayout"* %246, i64 1, i32 0
  %252 = load i32, i32* %251, align 8
  %253 = getelementptr inbounds %"class.media::VideoFrame", %"class.media::VideoFrame"* %237, i64 0, i32 7, i64 2
  %254 = load i8*, i8** %253, align 8
  %255 = getelementptr inbounds %"struct.media::ColorPlaneLayout", %"struct.media::ColorPlaneLayout"* %246, i64 2, i32 0
  %256 = load i32, i32* %255, align 8
  %257 = load i32, i32* %189, align 8
  %258 = load i32, i32* %190, align 4
  %259 = call i32 @ARGBToI420(i8* %238, i32 %242, i8* %244, i32 %248, i8* %250, i32 %252, i8* %254, i32 %256, i32 %257, i32 %258) #15
  %260 = load i8*, i8** %243, align 8
  %261 = load %"struct.media::ColorPlaneLayout"*, %"struct.media::ColorPlaneLayout"** %245, align 8
  %262 = getelementptr inbounds %"struct.media::ColorPlaneLayout", %"struct.media::ColorPlaneLayout"* %261, i64 0, i32 0
  %263 = load i32, i32* %262, align 8
  %264 = load i8*, i8** %249, align 8
  %265 = getelementptr inbounds %"struct.media::ColorPlaneLayout", %"struct.media::ColorPlaneLayout"* %261, i64 1, i32 0
  %266 = load i32, i32* %265, align 8
  %267 = load i8*, i8** %253, align 8
  %268 = getelementptr inbounds %"struct.media::ColorPlaneLayout", %"struct.media::ColorPlaneLayout"* %261, i64 2, i32 0
  %269 = load i32, i32* %268, align 8
  %270 = load i32, i32* %189, align 8
  %271 = load i32, i32* %190, align 4
  %272 = getelementptr inbounds %"class.media::VideoFrame", %"class.media::VideoFrame"* %118, i64 0, i32 7, i64 0
  %273 = load i8*, i8** %272, align 8
  %274 = getelementptr inbounds %"class.media::VideoFrame", %"class.media::VideoFrame"* %118, i64 0, i32 2, i32 2, i32 0, i32 0
  %275 = load %"struct.media::ColorPlaneLayout"*, %"struct.media::ColorPlaneLayout"** %274, align 8
  %276 = getelementptr inbounds %"struct.media::ColorPlaneLayout", %"struct.media::ColorPlaneLayout"* %275, i64 0, i32 0
  %277 = load i32, i32* %276, align 8
  %278 = getelementptr inbounds %"class.media::VideoFrame", %"class.media::VideoFrame"* %118, i64 0, i32 7, i64 1
  %279 = load i8*, i8** %278, align 8
  %280 = getelementptr inbounds %"struct.media::ColorPlaneLayout", %"struct.media::ColorPlaneLayout"* %275, i64 1, i32 0
  %281 = load i32, i32* %280, align 8
  %282 = getelementptr inbounds %"class.media::VideoFrame", %"class.media::VideoFrame"* %118, i64 0, i32 7, i64 2
  %283 = load i8*, i8** %282, align 8
  %284 = getelementptr inbounds %"struct.media::ColorPlaneLayout", %"struct.media::ColorPlaneLayout"* %275, i64 2, i32 0
  %285 = load i32, i32* %284, align 8
  %286 = load i32, i32* %195, align 4
  %287 = getelementptr inbounds %"class.media::VideoFrame", %"class.media::VideoFrame"* %118, i64 0, i32 2, i32 1, i32 1
  %288 = load i32, i32* %287, align 4
  %289 = call i32 @I420Scale(i8* %260, i32 %263, i8* %264, i32 %266, i8* %267, i32 %269, i32 %270, i32 %271, i8* %273, i32 %277, i8* %279, i32 %281, i8* %283, i32 %285, i32 %286, i32 %288, i32 3) #15
  %290 = icmp eq %"class.media::VideoFrame"* %237, null
  br i1 %290, label %303, label %291

291:                                              ; preds = %227
  %292 = getelementptr inbounds %"class.media::VideoFrame", %"class.media::VideoFrame"* %237, i64 0, i32 1
  %293 = getelementptr inbounds %"class.base::RefCountedThreadSafe", %"class.base::RefCountedThreadSafe"* %292, i64 0, i32 0, i32 0, i32 0, i32 0, i32 0, i32 0, i32 0, i32 0
  %294 = atomicrmw sub i32* %293, i32 1 acq_rel
  %295 = icmp eq i32 %294, 1
  br i1 %295, label %296, label %303

296:                                              ; preds = %291
  %297 = getelementptr inbounds %"class.base::RefCountedThreadSafe", %"class.base::RefCountedThreadSafe"* %292, i64 -2
  %298 = bitcast %"class.base::RefCountedThreadSafe"* %297 to %"class.media::VideoFrame"*
  %299 = bitcast %"class.base::RefCountedThreadSafe"* %297 to void (%"class.media::VideoFrame"*)***
  %300 = load void (%"class.media::VideoFrame"*)**, void (%"class.media::VideoFrame"*)*** %299, align 8
  %301 = getelementptr inbounds void (%"class.media::VideoFrame"*)*, void (%"class.media::VideoFrame"*)** %300, i64 1
  %302 = load void (%"class.media::VideoFrame"*)*, void (%"class.media::VideoFrame"*)** %301, align 8
  call void %302(%"class.media::VideoFrame"* nonnull %298) #15
  br label %303

303:                                              ; preds = %296, %291, %227, %204
  call void @llvm.lifetime.end.p0i8(i64 8, i8* nonnull %188) #15
  br label %304

304:                                              ; preds = %303, %151, %128, %123, %121
  %305 = phi i64 [ %119, %128 ], [ %119, %303 ], [ %119, %151 ], [ 0, %123 ], [ 0, %121 ]
  %306 = icmp eq %"class.blink::LegacyWebRtcVideoFrameAdapter::SharedResources"* %1, null
  br i1 %306, label %319, label %307

307:                                              ; preds = %304
  %308 = getelementptr inbounds %"class.blink::LegacyWebRtcVideoFrameAdapter::SharedResources", %"class.blink::LegacyWebRtcVideoFrameAdapter::SharedResources"* %1, i64 0, i32 1
  %309 = getelementptr inbounds %"class.base::RefCountedThreadSafe.65", %"class.base::RefCountedThreadSafe.65"* %308, i64 0, i32 0, i32 0, i32 0, i32 0, i32 0, i32 0, i32 0, i32 0
  %310 = atomicrmw sub i32* %309, i32 1 acq_rel
  %311 = icmp eq i32 %310, 1
  br i1 %311, label %312, label %319

312:                                              ; preds = %307
  %313 = getelementptr inbounds %"class.base::RefCountedThreadSafe.65", %"class.base::RefCountedThreadSafe.65"* %308, i64 -2
  %314 = bitcast %"class.base::RefCountedThreadSafe.65"* %313 to %"class.blink::LegacyWebRtcVideoFrameAdapter::SharedResources"*
  %315 = bitcast %"class.base::RefCountedThreadSafe.65"* %313 to void (%"class.blink::LegacyWebRtcVideoFrameAdapter::SharedResources"*)***
  %316 = load void (%"class.blink::LegacyWebRtcVideoFrameAdapter::SharedResources"*)**, void (%"class.blink::LegacyWebRtcVideoFrameAdapter::SharedResources"*)*** %315, align 8
  %317 = getelementptr inbounds void (%"class.blink::LegacyWebRtcVideoFrameAdapter::SharedResources"*)*, void (%"class.blink::LegacyWebRtcVideoFrameAdapter::SharedResources"*)** %316, i64 6
  %318 = load void (%"class.blink::LegacyWebRtcVideoFrameAdapter::SharedResources"*)*, void (%"class.blink::LegacyWebRtcVideoFrameAdapter::SharedResources"*)** %317, align 8
  call void %318(%"class.blink::LegacyWebRtcVideoFrameAdapter::SharedResources"* nonnull %314) #15
  br label %319

319:                                              ; preds = %304, %307, %312
  %320 = getelementptr inbounds %"class.media::VideoFrame", %"class.media::VideoFrame"* %0, i64 0, i32 1
  %321 = getelementptr inbounds %"class.base::RefCountedThreadSafe", %"class.base::RefCountedThreadSafe"* %320, i64 0, i32 0, i32 0, i32 0, i32 0, i32 0, i32 0, i32 0, i32 0
  %322 = atomicrmw sub i32* %321, i32 1 acq_rel
  %323 = icmp eq i32 %322, 1
  br i1 %323, label %324, label %362

324:                                              ; preds = %319
  %325 = getelementptr inbounds %"class.base::RefCountedThreadSafe", %"class.base::RefCountedThreadSafe"* %320, i64 -2
  %326 = bitcast %"class.base::RefCountedThreadSafe"* %325 to %"class.media::VideoFrame"*
  %327 = bitcast %"class.base::RefCountedThreadSafe"* %325 to void (%"class.media::VideoFrame"*)***
  %328 = load void (%"class.media::VideoFrame"*)**, void (%"class.media::VideoFrame"*)*** %327, align 8
  %329 = getelementptr inbounds void (%"class.media::VideoFrame"*)*, void (%"class.media::VideoFrame"*)** %328, i64 1
  %330 = load void (%"class.media::VideoFrame"*)*, void (%"class.media::VideoFrame"*)** %329, align 8
  call void %330(%"class.media::VideoFrame"* nonnull %326) #15
  br label %362

331:                                              ; preds = %2, %20
  %332 = phi i64 [ %8, %2 ], [ 0, %20 ]
  %333 = phi i64 [ 0, %2 ], [ %8, %20 ]
  %334 = icmp eq %"class.blink::LegacyWebRtcVideoFrameAdapter::SharedResources"* %1, null
  br i1 %334, label %347, label %335

335:                                              ; preds = %331
  %336 = getelementptr inbounds %"class.blink::LegacyWebRtcVideoFrameAdapter::SharedResources", %"class.blink::LegacyWebRtcVideoFrameAdapter::SharedResources"* %1, i64 0, i32 1
  %337 = getelementptr inbounds %"class.base::RefCountedThreadSafe.65", %"class.base::RefCountedThreadSafe.65"* %336, i64 0, i32 0, i32 0, i32 0, i32 0, i32 0, i32 0, i32 0, i32 0
  %338 = atomicrmw sub i32* %337, i32 1 acq_rel
  %339 = icmp eq i32 %338, 1
  br i1 %339, label %340, label %347

340:                                              ; preds = %335
  %341 = getelementptr inbounds %"class.base::RefCountedThreadSafe.65", %"class.base::RefCountedThreadSafe.65"* %336, i64 -2
  %342 = bitcast %"class.base::RefCountedThreadSafe.65"* %341 to %"class.blink::LegacyWebRtcVideoFrameAdapter::SharedResources"*
  %343 = bitcast %"class.base::RefCountedThreadSafe.65"* %341 to void (%"class.blink::LegacyWebRtcVideoFrameAdapter::SharedResources"*)***
  %344 = load void (%"class.blink::LegacyWebRtcVideoFrameAdapter::SharedResources"*)**, void (%"class.blink::LegacyWebRtcVideoFrameAdapter::SharedResources"*)*** %343, align 8
  %345 = getelementptr inbounds void (%"class.blink::LegacyWebRtcVideoFrameAdapter::SharedResources"*)*, void (%"class.blink::LegacyWebRtcVideoFrameAdapter::SharedResources"*)** %344, i64 6
  %346 = load void (%"class.blink::LegacyWebRtcVideoFrameAdapter::SharedResources"*)*, void (%"class.blink::LegacyWebRtcVideoFrameAdapter::SharedResources"*)** %345, align 8
  tail call void %346(%"class.blink::LegacyWebRtcVideoFrameAdapter::SharedResources"* nonnull %342) #15
  br label %347

347:                                              ; preds = %331, %335, %340
  %348 = icmp eq i64 %332, 0
  br i1 %348, label %362, label %349

349:                                              ; preds = %347
  %350 = inttoptr i64 %332 to %"class.media::VideoFrame"*
  %351 = getelementptr inbounds %"class.media::VideoFrame", %"class.media::VideoFrame"* %350, i64 0, i32 1
  %352 = getelementptr inbounds %"class.base::RefCountedThreadSafe", %"class.base::RefCountedThreadSafe"* %351, i64 0, i32 0, i32 0, i32 0, i32 0, i32 0, i32 0, i32 0, i32 0
  %353 = atomicrmw sub i32* %352, i32 1 acq_rel
  %354 = icmp eq i32 %353, 1
  br i1 %354, label %355, label %362

355:                                              ; preds = %349
  %356 = getelementptr inbounds %"class.base::RefCountedThreadSafe", %"class.base::RefCountedThreadSafe"* %351, i64 -2
  %357 = bitcast %"class.base::RefCountedThreadSafe"* %356 to %"class.media::VideoFrame"*
  %358 = bitcast %"class.base::RefCountedThreadSafe"* %356 to void (%"class.media::VideoFrame"*)***
  %359 = load void (%"class.media::VideoFrame"*)**, void (%"class.media::VideoFrame"*)*** %358, align 8
  %360 = getelementptr inbounds void (%"class.media::VideoFrame"*)*, void (%"class.media::VideoFrame"*)** %359, i64 1
  %361 = load void (%"class.media::VideoFrame"*)*, void (%"class.media::VideoFrame"*)** %360, align 8
  tail call void %361(%"class.media::VideoFrame"* nonnull %357) #15
  br label %362

362:                                              ; preds = %324, %319, %100, %347, %349, %355
  %363 = phi i64 [ %333, %347 ], [ %333, %349 ], [ %333, %355 ], [ %101, %100 ], [ %305, %319 ], [ %305, %324 ]
  %364 = inttoptr i64 %363 to %"class.media::VideoFrame"*
  ret %"class.media::VideoFrame"* %364
}

; Function Attrs: nounwind ssp uwtable
define internal fastcc void @_ZN12_GLOBAL__N_116MakeFrameAdapterE13scoped_refptrIN5media10VideoFrameEE(%"class.rtc::scoped_refptr"* noalias nocapture sret, %"class.media::VideoFrame"*) unnamed_addr #0 {
  %3 = ptrtoint %"class.media::VideoFrame"* %1 to i64
  %4 = getelementptr inbounds %"class.media::VideoFrame", %"class.media::VideoFrame"* %1, i64 0, i32 2, i32 0
  %5 = load i32, i32* %4, align 8
  switch i32 %5, label %33 [
    i32 1, label %6
    i32 4, label %15
    i32 6, label %24
  ]

6:                                                ; preds = %2
  %7 = tail call i8* @_Znwm(i64 24) #16
  %8 = bitcast i8* %7 to i32 (...)***
  %9 = getelementptr inbounds i8, i8* %7, i64 8
  %10 = bitcast i8* %9 to i64*
  store i64 %3, i64* %10, align 8
  store i32 (...)** bitcast (i8** getelementptr inbounds ({ [22 x i8*] }, { [22 x i8*] }* @_ZTVN3rtc16RefCountedObjectIN12_GLOBAL__N_116I420FrameAdapterEEE, i64 0, inrange i32 0, i64 2) to i32 (...)**), i32 (...)*** %8, align 8
  %11 = getelementptr inbounds i8, i8* %7, i64 16
  %12 = bitcast i8* %11 to i32*
  store i32 0, i32* %12, align 4
  %13 = bitcast %"class.rtc::scoped_refptr"* %0 to i8**
  store i8* %7, i8** %13, align 8
  %14 = atomicrmw add i32* %12, i32 1 monotonic
  br label %48

15:                                               ; preds = %2
  %16 = tail call i8* @_Znwm(i64 24) #16
  %17 = bitcast i8* %16 to i32 (...)***
  %18 = getelementptr inbounds i8, i8* %16, i64 8
  %19 = bitcast i8* %18 to i64*
  store i64 %3, i64* %19, align 8
  store i32 (...)** bitcast (i8** getelementptr inbounds ({ [24 x i8*] }, { [24 x i8*] }* @_ZTVN3rtc16RefCountedObjectIN12_GLOBAL__N_117I420AFrameAdapterEEE, i64 0, inrange i32 0, i64 2) to i32 (...)**), i32 (...)*** %17, align 8
  %20 = getelementptr inbounds i8, i8* %16, i64 16
  %21 = bitcast i8* %20 to i32*
  store i32 0, i32* %21, align 4
  %22 = bitcast %"class.rtc::scoped_refptr"* %0 to i8**
  store i8* %16, i8** %22, align 8
  %23 = atomicrmw add i32* %21, i32 1 monotonic
  br label %48

24:                                               ; preds = %2
  %25 = tail call i8* @_Znwm(i64 24) #16
  %26 = bitcast i8* %25 to i32 (...)***
  %27 = getelementptr inbounds i8, i8* %25, i64 8
  %28 = bitcast i8* %27 to i64*
  store i64 %3, i64* %28, align 8
  store i32 (...)** bitcast (i8** getelementptr inbounds ({ [20 x i8*] }, { [20 x i8*] }* @_ZTVN3rtc16RefCountedObjectIN12_GLOBAL__N_116NV12FrameAdapterEEE, i64 0, inrange i32 0, i64 2) to i32 (...)**), i32 (...)*** %26, align 8
  %29 = getelementptr inbounds i8, i8* %25, i64 16
  %30 = bitcast i8* %29 to i32*
  store i32 0, i32* %30, align 4
  %31 = bitcast %"class.rtc::scoped_refptr"* %0 to i8**
  store i8* %25, i8** %31, align 8
  %32 = atomicrmw add i32* %30, i32 1 monotonic
  br label %48

33:                                               ; preds = %2
  %34 = getelementptr inbounds %"class.rtc::scoped_refptr", %"class.rtc::scoped_refptr"* %0, i64 0, i32 0
  store %"class.webrtc::VideoFrameBuffer"* null, %"class.webrtc::VideoFrameBuffer"** %34, align 8
  %35 = icmp eq %"class.media::VideoFrame"* %1, null
  br i1 %35, label %48, label %36

36:                                               ; preds = %33
  %37 = getelementptr inbounds %"class.media::VideoFrame", %"class.media::VideoFrame"* %1, i64 0, i32 1
  %38 = getelementptr inbounds %"class.base::RefCountedThreadSafe", %"class.base::RefCountedThreadSafe"* %37, i64 0, i32 0, i32 0, i32 0, i32 0, i32 0, i32 0, i32 0, i32 0
  %39 = atomicrmw sub i32* %38, i32 1 acq_rel
  %40 = icmp eq i32 %39, 1
  br i1 %40, label %41, label %48

41:                                               ; preds = %36
  %42 = getelementptr inbounds %"class.base::RefCountedThreadSafe", %"class.base::RefCountedThreadSafe"* %37, i64 -2
  %43 = bitcast %"class.base::RefCountedThreadSafe"* %42 to %"class.media::VideoFrame"*
  %44 = bitcast %"class.base::RefCountedThreadSafe"* %42 to void (%"class.media::VideoFrame"*)***
  %45 = load void (%"class.media::VideoFrame"*)**, void (%"class.media::VideoFrame"*)*** %44, align 8
  %46 = getelementptr inbounds void (%"class.media::VideoFrame"*)*, void (%"class.media::VideoFrame"*)** %45, i64 1
  %47 = load void (%"class.media::VideoFrame"*)*, void (%"class.media::VideoFrame"*)** %46, align 8
  tail call void %47(%"class.media::VideoFrame"* nonnull %43) #15
  br label %48

48:                                               ; preds = %6, %15, %24, %33, %36, %41
  ret void
}

declare %"class.media::VideoFrame"* @_ZN5media10VideoFrame16CreateColorFrameERKN3gfx4SizeEhhhN4base9TimeDeltaE(%"class.gfx::Size"* dereferenceable(8), i8 zeroext, i8 zeroext, i8 zeroext, i64) local_unnamed_addr #1

; Function Attrs: nounwind ssp uwtable
define hidden void @_ZN5blink29LegacyWebRtcVideoFrameAdapter6ToI420Ev(%"class.rtc::scoped_refptr.99"* noalias sret, %"class.blink::LegacyWebRtcVideoFrameAdapter"*) unnamed_addr #0 align 2 {
  %3 = alloca %"class.rtc::scoped_refptr", align 8
  %4 = getelementptr inbounds %"class.blink::LegacyWebRtcVideoFrameAdapter", %"class.blink::LegacyWebRtcVideoFrameAdapter"* %1, i64 0, i32 1
  %5 = getelementptr inbounds %"class.base::Lock", %"class.base::Lock"* %4, i64 0, i32 0, i32 0
  %6 = tail call i32 @pthread_mutex_trylock(%union.pthread_mutex_t* %5) #15
  %7 = icmp eq i32 %6, 0
  br i1 %7, label %10, label %8, !prof !2

8:                                                ; preds = %2
  %9 = getelementptr inbounds %"class.base::Lock", %"class.base::Lock"* %4, i64 0, i32 0
  tail call void @_ZN4base8internal8LockImpl24LockInternalWithTrackingEv(%"class.base::internal::LockImpl"* %9) #15
  br label %10

10:                                               ; preds = %2, %8
  %11 = getelementptr inbounds %"class.blink::LegacyWebRtcVideoFrameAdapter", %"class.blink::LegacyWebRtcVideoFrameAdapter"* %1, i64 0, i32 2
  %12 = getelementptr inbounds %"class.rtc::scoped_refptr", %"class.rtc::scoped_refptr"* %11, i64 0, i32 0
  %13 = load %"class.webrtc::VideoFrameBuffer"*, %"class.webrtc::VideoFrameBuffer"** %12, align 8
  %14 = icmp eq %"class.webrtc::VideoFrameBuffer"* %13, null
  br i1 %14, label %15, label %34

15:                                               ; preds = %10
  %16 = bitcast %"class.rtc::scoped_refptr"* %3 to i8*
  call void @llvm.lifetime.start.p0i8(i64 8, i8* nonnull %16) #15
  call void @_ZNK5blink29LegacyWebRtcVideoFrameAdapter18CreateFrameAdapterEv(%"class.rtc::scoped_refptr"* nonnull sret %3, %"class.blink::LegacyWebRtcVideoFrameAdapter"* %1)
  %17 = getelementptr inbounds %"class.rtc::scoped_refptr", %"class.rtc::scoped_refptr"* %3, i64 0, i32 0
  %18 = bitcast %"class.rtc::scoped_refptr"* %3 to i64*
  %19 = load i64, i64* %18, align 8
  store %"class.webrtc::VideoFrameBuffer"* null, %"class.webrtc::VideoFrameBuffer"** %17, align 8
  %20 = bitcast %"class.rtc::scoped_refptr"* %11 to i64*
  %21 = load %"class.webrtc::VideoFrameBuffer"*, %"class.webrtc::VideoFrameBuffer"** %12, align 8
  store i64 %19, i64* %20, align 8
  %22 = icmp eq %"class.webrtc::VideoFrameBuffer"* %21, null
  %23 = inttoptr i64 %19 to %"class.webrtc::VideoFrameBuffer"*
  br i1 %22, label %32, label %24

24:                                               ; preds = %15
  %25 = getelementptr inbounds %"class.webrtc::VideoFrameBuffer", %"class.webrtc::VideoFrameBuffer"* %21, i64 0, i32 0
  %26 = bitcast %"class.webrtc::VideoFrameBuffer"* %21 to i32 (%"class.rtc::RefCountInterface"*)***
  %27 = load i32 (%"class.rtc::RefCountInterface"*)**, i32 (%"class.rtc::RefCountInterface"*)*** %26, align 8
  %28 = getelementptr inbounds i32 (%"class.rtc::RefCountInterface"*)*, i32 (%"class.rtc::RefCountInterface"*)** %27, i64 1
  %29 = load i32 (%"class.rtc::RefCountInterface"*)*, i32 (%"class.rtc::RefCountInterface"*)** %28, align 8
  %30 = tail call i32 %29(%"class.rtc::RefCountInterface"* %25) #15
  %31 = load %"class.webrtc::VideoFrameBuffer"*, %"class.webrtc::VideoFrameBuffer"** %12, align 8
  br label %32

32:                                               ; preds = %24, %15
  %33 = phi %"class.webrtc::VideoFrameBuffer"* [ %31, %24 ], [ %23, %15 ]
  call void @llvm.lifetime.end.p0i8(i64 8, i8* nonnull %16) #15
  br label %34

34:                                               ; preds = %10, %32
  %35 = phi %"class.webrtc::VideoFrameBuffer"* [ %13, %10 ], [ %33, %32 ]
  %36 = bitcast %"class.webrtc::VideoFrameBuffer"* %35 to void (%"class.rtc::scoped_refptr.99"*, %"class.webrtc::VideoFrameBuffer"*)***
  %37 = load void (%"class.rtc::scoped_refptr.99"*, %"class.webrtc::VideoFrameBuffer"*)**, void (%"class.rtc::scoped_refptr.99"*, %"class.webrtc::VideoFrameBuffer"*)*** %36, align 8
  %38 = getelementptr inbounds void (%"class.rtc::scoped_refptr.99"*, %"class.webrtc::VideoFrameBuffer"*)*, void (%"class.rtc::scoped_refptr.99"*, %"class.webrtc::VideoFrameBuffer"*)** %37, i64 7
  %39 = load void (%"class.rtc::scoped_refptr.99"*, %"class.webrtc::VideoFrameBuffer"*)*, void (%"class.rtc::scoped_refptr.99"*, %"class.webrtc::VideoFrameBuffer"*)** %38, align 8
  tail call void %39(%"class.rtc::scoped_refptr.99"* sret %0, %"class.webrtc::VideoFrameBuffer"* %35) #15
  %40 = tail call i32 @pthread_mutex_unlock(%union.pthread_mutex_t* %5) #15
  ret void
}

; Function Attrs: nounwind ssp uwtable
define hidden void @_ZN5blink29LegacyWebRtcVideoFrameAdapter20GetMappedFrameBufferEN3rtc9ArrayViewIN6webrtc16VideoFrameBuffer4TypeELln4711EEE(%"class.rtc::scoped_refptr"* noalias nocapture sret, %"class.blink::LegacyWebRtcVideoFrameAdapter"*, i32*, i64) unnamed_addr #0 align 2 {
  %5 = alloca %"class.rtc::scoped_refptr", align 8
  %6 = getelementptr inbounds %"class.blink::LegacyWebRtcVideoFrameAdapter", %"class.blink::LegacyWebRtcVideoFrameAdapter"* %1, i64 0, i32 1
  %7 = getelementptr inbounds %"class.base::Lock", %"class.base::Lock"* %6, i64 0, i32 0, i32 0
  %8 = tail call i32 @pthread_mutex_trylock(%union.pthread_mutex_t* %7) #15
  %9 = icmp eq i32 %8, 0
  br i1 %9, label %12, label %10, !prof !2

10:                                               ; preds = %4
  %11 = getelementptr inbounds %"class.base::Lock", %"class.base::Lock"* %6, i64 0, i32 0
  tail call void @_ZN4base8internal8LockImpl24LockInternalWithTrackingEv(%"class.base::internal::LockImpl"* %11) #15
  br label %12

12:                                               ; preds = %4, %10
  %13 = getelementptr inbounds %"class.blink::LegacyWebRtcVideoFrameAdapter", %"class.blink::LegacyWebRtcVideoFrameAdapter"* %1, i64 0, i32 2
  %14 = getelementptr inbounds %"class.rtc::scoped_refptr", %"class.rtc::scoped_refptr"* %13, i64 0, i32 0
  %15 = load %"class.webrtc::VideoFrameBuffer"*, %"class.webrtc::VideoFrameBuffer"** %14, align 8
  %16 = icmp eq %"class.webrtc::VideoFrameBuffer"* %15, null
  br i1 %16, label %17, label %36

17:                                               ; preds = %12
  %18 = bitcast %"class.rtc::scoped_refptr"* %5 to i8*
  call void @llvm.lifetime.start.p0i8(i64 8, i8* nonnull %18) #15
  call void @_ZNK5blink29LegacyWebRtcVideoFrameAdapter18CreateFrameAdapterEv(%"class.rtc::scoped_refptr"* nonnull sret %5, %"class.blink::LegacyWebRtcVideoFrameAdapter"* %1)
  %19 = getelementptr inbounds %"class.rtc::scoped_refptr", %"class.rtc::scoped_refptr"* %5, i64 0, i32 0
  %20 = bitcast %"class.rtc::scoped_refptr"* %5 to i64*
  %21 = load i64, i64* %20, align 8
  store %"class.webrtc::VideoFrameBuffer"* null, %"class.webrtc::VideoFrameBuffer"** %19, align 8
  %22 = bitcast %"class.rtc::scoped_refptr"* %13 to i64*
  %23 = load %"class.webrtc::VideoFrameBuffer"*, %"class.webrtc::VideoFrameBuffer"** %14, align 8
  store i64 %21, i64* %22, align 8
  %24 = icmp eq %"class.webrtc::VideoFrameBuffer"* %23, null
  %25 = inttoptr i64 %21 to %"class.webrtc::VideoFrameBuffer"*
  br i1 %24, label %34, label %26

26:                                               ; preds = %17
  %27 = getelementptr inbounds %"class.webrtc::VideoFrameBuffer", %"class.webrtc::VideoFrameBuffer"* %23, i64 0, i32 0
  %28 = bitcast %"class.webrtc::VideoFrameBuffer"* %23 to i32 (%"class.rtc::RefCountInterface"*)***
  %29 = load i32 (%"class.rtc::RefCountInterface"*)**, i32 (%"class.rtc::RefCountInterface"*)*** %28, align 8
  %30 = getelementptr inbounds i32 (%"class.rtc::RefCountInterface"*)*, i32 (%"class.rtc::RefCountInterface"*)** %29, i64 1
  %31 = load i32 (%"class.rtc::RefCountInterface"*)*, i32 (%"class.rtc::RefCountInterface"*)** %30, align 8
  %32 = tail call i32 %31(%"class.rtc::RefCountInterface"* %27) #15
  %33 = load %"class.webrtc::VideoFrameBuffer"*, %"class.webrtc::VideoFrameBuffer"** %14, align 8
  br label %34

34:                                               ; preds = %26, %17
  %35 = phi %"class.webrtc::VideoFrameBuffer"* [ %33, %26 ], [ %25, %17 ]
  call void @llvm.lifetime.end.p0i8(i64 8, i8* nonnull %18) #15
  br label %36

36:                                               ; preds = %12, %34
  %37 = phi %"class.webrtc::VideoFrameBuffer"* [ %15, %12 ], [ %35, %34 ]
  %38 = bitcast %"class.webrtc::VideoFrameBuffer"* %37 to i32 (%"class.webrtc::VideoFrameBuffer"*)***
  %39 = load i32 (%"class.webrtc::VideoFrameBuffer"*)**, i32 (%"class.webrtc::VideoFrameBuffer"*)*** %38, align 8
  %40 = getelementptr inbounds i32 (%"class.webrtc::VideoFrameBuffer"*)*, i32 (%"class.webrtc::VideoFrameBuffer"*)** %39, i64 4
  %41 = load i32 (%"class.webrtc::VideoFrameBuffer"*)*, i32 (%"class.webrtc::VideoFrameBuffer"*)** %40, align 8
  %42 = tail call i32 %41(%"class.webrtc::VideoFrameBuffer"* %37) #15
  %43 = getelementptr inbounds i32, i32* %2, i64 %3
  %44 = icmp eq i64 %3, 0
  br i1 %44, label %52, label %45

45:                                               ; preds = %36, %49
  %46 = phi i32* [ %50, %49 ], [ %2, %36 ]
  %47 = load i32, i32* %46, align 4
  %48 = icmp eq i32 %47, %42
  br i1 %48, label %52, label %49

49:                                               ; preds = %45
  %50 = getelementptr inbounds i32, i32* %46, i64 1
  %51 = icmp eq i32* %50, %43
  br i1 %51, label %64, label %45

52:                                               ; preds = %45, %36
  %53 = phi i32* [ %2, %36 ], [ %46, %45 ]
  %54 = icmp eq i32* %53, %43
  br i1 %54, label %64, label %55

55:                                               ; preds = %52
  %56 = getelementptr inbounds %"class.rtc::scoped_refptr", %"class.rtc::scoped_refptr"* %0, i64 0, i32 0
  %57 = load %"class.webrtc::VideoFrameBuffer"*, %"class.webrtc::VideoFrameBuffer"** %14, align 8
  store %"class.webrtc::VideoFrameBuffer"* %57, %"class.webrtc::VideoFrameBuffer"** %56, align 8
  %58 = icmp eq %"class.webrtc::VideoFrameBuffer"* %57, null
  br i1 %58, label %66, label %59

59:                                               ; preds = %55
  %60 = getelementptr inbounds %"class.webrtc::VideoFrameBuffer", %"class.webrtc::VideoFrameBuffer"* %57, i64 0, i32 0
  %61 = bitcast %"class.webrtc::VideoFrameBuffer"* %57 to void (%"class.rtc::RefCountInterface"*)***
  %62 = load void (%"class.rtc::RefCountInterface"*)**, void (%"class.rtc::RefCountInterface"*)*** %61, align 8
  %63 = load void (%"class.rtc::RefCountInterface"*)*, void (%"class.rtc::RefCountInterface"*)** %62, align 8
  tail call void %63(%"class.rtc::RefCountInterface"* %60) #15
  br label %66

64:                                               ; preds = %49, %52
  %65 = getelementptr inbounds %"class.rtc::scoped_refptr", %"class.rtc::scoped_refptr"* %0, i64 0, i32 0
  store %"class.webrtc::VideoFrameBuffer"* null, %"class.webrtc::VideoFrameBuffer"** %65, align 8
  br label %66

66:                                               ; preds = %59, %55, %64
  %67 = tail call i32 @pthread_mutex_unlock(%union.pthread_mutex_t* %7) #15
  ret void
}

; Function Attrs: nounwind ssp uwtable
define hidden void @_ZN5blink29LegacyWebRtcVideoFrameAdapter12CropAndScaleEiiiiii(%"class.rtc::scoped_refptr"* noalias sret, %"class.blink::LegacyWebRtcVideoFrameAdapter"*, i32, i32, i32, i32, i32, i32) unnamed_addr #0 align 2 {
  %9 = alloca %"class.rtc::scoped_refptr", align 8
  %10 = getelementptr inbounds %"class.blink::LegacyWebRtcVideoFrameAdapter", %"class.blink::LegacyWebRtcVideoFrameAdapter"* %1, i64 0, i32 1
  %11 = getelementptr inbounds %"class.base::Lock", %"class.base::Lock"* %10, i64 0, i32 0, i32 0
  %12 = tail call i32 @pthread_mutex_trylock(%union.pthread_mutex_t* %11) #15
  %13 = icmp eq i32 %12, 0
  br i1 %13, label %16, label %14, !prof !2

14:                                               ; preds = %8
  %15 = getelementptr inbounds %"class.base::Lock", %"class.base::Lock"* %10, i64 0, i32 0
  tail call void @_ZN4base8internal8LockImpl24LockInternalWithTrackingEv(%"class.base::internal::LockImpl"* %15) #15
  br label %16

16:                                               ; preds = %8, %14
  %17 = getelementptr inbounds %"class.blink::LegacyWebRtcVideoFrameAdapter", %"class.blink::LegacyWebRtcVideoFrameAdapter"* %1, i64 0, i32 2
  %18 = getelementptr inbounds %"class.rtc::scoped_refptr", %"class.rtc::scoped_refptr"* %17, i64 0, i32 0
  %19 = load %"class.webrtc::VideoFrameBuffer"*, %"class.webrtc::VideoFrameBuffer"** %18, align 8
  %20 = icmp eq %"class.webrtc::VideoFrameBuffer"* %19, null
  br i1 %20, label %21, label %40

21:                                               ; preds = %16
  %22 = bitcast %"class.rtc::scoped_refptr"* %9 to i8*
  call void @llvm.lifetime.start.p0i8(i64 8, i8* nonnull %22) #15
  call void @_ZNK5blink29LegacyWebRtcVideoFrameAdapter18CreateFrameAdapterEv(%"class.rtc::scoped_refptr"* nonnull sret %9, %"class.blink::LegacyWebRtcVideoFrameAdapter"* %1)
  %23 = getelementptr inbounds %"class.rtc::scoped_refptr", %"class.rtc::scoped_refptr"* %9, i64 0, i32 0
  %24 = bitcast %"class.rtc::scoped_refptr"* %9 to i64*
  %25 = load i64, i64* %24, align 8
  store %"class.webrtc::VideoFrameBuffer"* null, %"class.webrtc::VideoFrameBuffer"** %23, align 8
  %26 = bitcast %"class.rtc::scoped_refptr"* %17 to i64*
  %27 = load %"class.webrtc::VideoFrameBuffer"*, %"class.webrtc::VideoFrameBuffer"** %18, align 8
  store i64 %25, i64* %26, align 8
  %28 = icmp eq %"class.webrtc::VideoFrameBuffer"* %27, null
  %29 = inttoptr i64 %25 to %"class.webrtc::VideoFrameBuffer"*
  br i1 %28, label %38, label %30

30:                                               ; preds = %21
  %31 = getelementptr inbounds %"class.webrtc::VideoFrameBuffer", %"class.webrtc::VideoFrameBuffer"* %27, i64 0, i32 0
  %32 = bitcast %"class.webrtc::VideoFrameBuffer"* %27 to i32 (%"class.rtc::RefCountInterface"*)***
  %33 = load i32 (%"class.rtc::RefCountInterface"*)**, i32 (%"class.rtc::RefCountInterface"*)*** %32, align 8
  %34 = getelementptr inbounds i32 (%"class.rtc::RefCountInterface"*)*, i32 (%"class.rtc::RefCountInterface"*)** %33, i64 1
  %35 = load i32 (%"class.rtc::RefCountInterface"*)*, i32 (%"class.rtc::RefCountInterface"*)** %34, align 8
  %36 = tail call i32 %35(%"class.rtc::RefCountInterface"* %31) #15
  %37 = load %"class.webrtc::VideoFrameBuffer"*, %"class.webrtc::VideoFrameBuffer"** %18, align 8
  br label %38

38:                                               ; preds = %30, %21
  %39 = phi %"class.webrtc::VideoFrameBuffer"* [ %37, %30 ], [ %29, %21 ]
  call void @llvm.lifetime.end.p0i8(i64 8, i8* nonnull %22) #15
  br label %40

40:                                               ; preds = %16, %38
  %41 = phi %"class.webrtc::VideoFrameBuffer"* [ %19, %16 ], [ %39, %38 ]
  %42 = bitcast %"class.webrtc::VideoFrameBuffer"* %41 to void (%"class.rtc::scoped_refptr"*, %"class.webrtc::VideoFrameBuffer"*, i32, i32, i32, i32, i32, i32)***
  %43 = load void (%"class.rtc::scoped_refptr"*, %"class.webrtc::VideoFrameBuffer"*, i32, i32, i32, i32, i32, i32)**, void (%"class.rtc::scoped_refptr"*, %"class.webrtc::VideoFrameBuffer"*, i32, i32, i32, i32, i32, i32)*** %42, align 8
  %44 = getelementptr inbounds void (%"class.rtc::scoped_refptr"*, %"class.webrtc::VideoFrameBuffer"*, i32, i32, i32, i32, i32, i32)*, void (%"class.rtc::scoped_refptr"*, %"class.webrtc::VideoFrameBuffer"*, i32, i32, i32, i32, i32, i32)** %43, i64 9
  %45 = load void (%"class.rtc::scoped_refptr"*, %"class.webrtc::VideoFrameBuffer"*, i32, i32, i32, i32, i32, i32)*, void (%"class.rtc::scoped_refptr"*, %"class.webrtc::VideoFrameBuffer"*, i32, i32, i32, i32, i32, i32)** %44, align 8
  tail call void %45(%"class.rtc::scoped_refptr"* sret %0, %"class.webrtc::VideoFrameBuffer"* %41, i32 %2, i32 %3, i32 %4, i32 %5, i32 %6, i32 %7) #15
  %46 = tail call i32 @pthread_mutex_unlock(%union.pthread_mutex_t* %11) #15
  ret void
}

; Function Attrs: nounwind ssp uwtable
define hidden %"class.webrtc::I420BufferInterface"* @_ZNK5blink29LegacyWebRtcVideoFrameAdapter7GetI420Ev(%"class.blink::LegacyWebRtcVideoFrameAdapter"*) unnamed_addr #0 align 2 {
  %2 = alloca %"class.rtc::scoped_refptr", align 8
  %3 = getelementptr inbounds %"class.blink::LegacyWebRtcVideoFrameAdapter", %"class.blink::LegacyWebRtcVideoFrameAdapter"* %0, i64 0, i32 1
  %4 = getelementptr inbounds %"class.base::Lock", %"class.base::Lock"* %3, i64 0, i32 0, i32 0
  %5 = tail call i32 @pthread_mutex_trylock(%union.pthread_mutex_t* %4) #15
  %6 = icmp eq i32 %5, 0
  br i1 %6, label %9, label %7, !prof !2

7:                                                ; preds = %1
  %8 = getelementptr inbounds %"class.base::Lock", %"class.base::Lock"* %3, i64 0, i32 0
  tail call void @_ZN4base8internal8LockImpl24LockInternalWithTrackingEv(%"class.base::internal::LockImpl"* %8) #15
  br label %9

9:                                                ; preds = %1, %7
  %10 = getelementptr inbounds %"class.blink::LegacyWebRtcVideoFrameAdapter", %"class.blink::LegacyWebRtcVideoFrameAdapter"* %0, i64 0, i32 2
  %11 = getelementptr inbounds %"class.rtc::scoped_refptr", %"class.rtc::scoped_refptr"* %10, i64 0, i32 0
  %12 = load %"class.webrtc::VideoFrameBuffer"*, %"class.webrtc::VideoFrameBuffer"** %11, align 8
  %13 = icmp eq %"class.webrtc::VideoFrameBuffer"* %12, null
  br i1 %13, label %14, label %33

14:                                               ; preds = %9
  %15 = bitcast %"class.rtc::scoped_refptr"* %2 to i8*
  call void @llvm.lifetime.start.p0i8(i64 8, i8* nonnull %15) #15
  call void @_ZNK5blink29LegacyWebRtcVideoFrameAdapter18CreateFrameAdapterEv(%"class.rtc::scoped_refptr"* nonnull sret %2, %"class.blink::LegacyWebRtcVideoFrameAdapter"* %0)
  %16 = getelementptr inbounds %"class.rtc::scoped_refptr", %"class.rtc::scoped_refptr"* %2, i64 0, i32 0
  %17 = bitcast %"class.rtc::scoped_refptr"* %2 to i64*
  %18 = load i64, i64* %17, align 8
  store %"class.webrtc::VideoFrameBuffer"* null, %"class.webrtc::VideoFrameBuffer"** %16, align 8
  %19 = bitcast %"class.rtc::scoped_refptr"* %10 to i64*
  %20 = load %"class.webrtc::VideoFrameBuffer"*, %"class.webrtc::VideoFrameBuffer"** %11, align 8
  store i64 %18, i64* %19, align 8
  %21 = icmp eq %"class.webrtc::VideoFrameBuffer"* %20, null
  %22 = inttoptr i64 %18 to %"class.webrtc::VideoFrameBuffer"*
  br i1 %21, label %31, label %23

23:                                               ; preds = %14
  %24 = getelementptr inbounds %"class.webrtc::VideoFrameBuffer", %"class.webrtc::VideoFrameBuffer"* %20, i64 0, i32 0
  %25 = bitcast %"class.webrtc::VideoFrameBuffer"* %20 to i32 (%"class.rtc::RefCountInterface"*)***
  %26 = load i32 (%"class.rtc::RefCountInterface"*)**, i32 (%"class.rtc::RefCountInterface"*)*** %25, align 8
  %27 = getelementptr inbounds i32 (%"class.rtc::RefCountInterface"*)*, i32 (%"class.rtc::RefCountInterface"*)** %26, i64 1
  %28 = load i32 (%"class.rtc::RefCountInterface"*)*, i32 (%"class.rtc::RefCountInterface"*)** %27, align 8
  %29 = tail call i32 %28(%"class.rtc::RefCountInterface"* %24) #15
  %30 = load %"class.webrtc::VideoFrameBuffer"*, %"class.webrtc::VideoFrameBuffer"** %11, align 8
  br label %31

31:                                               ; preds = %23, %14
  %32 = phi %"class.webrtc::VideoFrameBuffer"* [ %30, %23 ], [ %22, %14 ]
  call void @llvm.lifetime.end.p0i8(i64 8, i8* nonnull %15) #15
  br label %33

33:                                               ; preds = %9, %31
  %34 = phi %"class.webrtc::VideoFrameBuffer"* [ %12, %9 ], [ %32, %31 ]
  %35 = bitcast %"class.webrtc::VideoFrameBuffer"* %34 to i32 (%"class.webrtc::VideoFrameBuffer"*)***
  %36 = load i32 (%"class.webrtc::VideoFrameBuffer"*)**, i32 (%"class.webrtc::VideoFrameBuffer"*)*** %35, align 8
  %37 = getelementptr inbounds i32 (%"class.webrtc::VideoFrameBuffer"*)*, i32 (%"class.webrtc::VideoFrameBuffer"*)** %36, i64 4
  %38 = load i32 (%"class.webrtc::VideoFrameBuffer"*)*, i32 (%"class.webrtc::VideoFrameBuffer"*)** %37, align 8
  %39 = tail call i32 %38(%"class.webrtc::VideoFrameBuffer"* %34) #15
  %40 = icmp eq i32 %39, 1
  %41 = load %"class.webrtc::VideoFrameBuffer"*, %"class.webrtc::VideoFrameBuffer"** %11, align 8
  br i1 %40, label %42, label %48

42:                                               ; preds = %33
  %43 = bitcast %"class.webrtc::VideoFrameBuffer"* %41 to %"class.webrtc::I420BufferInterface"* (%"class.webrtc::VideoFrameBuffer"*)***
  %44 = load %"class.webrtc::I420BufferInterface"* (%"class.webrtc::VideoFrameBuffer"*)**, %"class.webrtc::I420BufferInterface"* (%"class.webrtc::VideoFrameBuffer"*)*** %43, align 8
  %45 = getelementptr inbounds %"class.webrtc::I420BufferInterface"* (%"class.webrtc::VideoFrameBuffer"*)*, %"class.webrtc::I420BufferInterface"* (%"class.webrtc::VideoFrameBuffer"*)** %44, i64 8
  %46 = load %"class.webrtc::I420BufferInterface"* (%"class.webrtc::VideoFrameBuffer"*)*, %"class.webrtc::I420BufferInterface"* (%"class.webrtc::VideoFrameBuffer"*)** %45, align 8
  %47 = tail call %"class.webrtc::I420BufferInterface"* %46(%"class.webrtc::VideoFrameBuffer"* %41) #15
  br label %59

48:                                               ; preds = %33
  %49 = bitcast %"class.webrtc::VideoFrameBuffer"* %41 to i32 (%"class.webrtc::VideoFrameBuffer"*)***
  %50 = load i32 (%"class.webrtc::VideoFrameBuffer"*)**, i32 (%"class.webrtc::VideoFrameBuffer"*)*** %49, align 8
  %51 = getelementptr inbounds i32 (%"class.webrtc::VideoFrameBuffer"*)*, i32 (%"class.webrtc::VideoFrameBuffer"*)** %50, i64 4
  %52 = load i32 (%"class.webrtc::VideoFrameBuffer"*)*, i32 (%"class.webrtc::VideoFrameBuffer"*)** %51, align 8
  %53 = tail call i32 %52(%"class.webrtc::VideoFrameBuffer"* %41) #15
  %54 = icmp eq i32 %53, 2
  br i1 %54, label %55, label %59

55:                                               ; preds = %48
  %56 = load %"class.webrtc::VideoFrameBuffer"*, %"class.webrtc::VideoFrameBuffer"** %11, align 8
  %57 = tail call %"class.webrtc::I420ABufferInterface"* @_ZNK6webrtc16VideoFrameBuffer8GetI420AEv(%"class.webrtc::VideoFrameBuffer"* %56) #15
  %58 = getelementptr inbounds %"class.webrtc::I420ABufferInterface", %"class.webrtc::I420ABufferInterface"* %57, i64 0, i32 0
  br label %59

59:                                               ; preds = %48, %55, %42
  %60 = phi %"class.webrtc::I420BufferInterface"* [ %47, %42 ], [ %58, %55 ], [ null, %48 ]
  %61 = tail call i32 @pthread_mutex_unlock(%union.pthread_mutex_t* %4) #15
  ret %"class.webrtc::I420BufferInterface"* %60
}

declare %"class.webrtc::I420ABufferInterface"* @_ZNK6webrtc16VideoFrameBuffer8GetI420AEv(%"class.webrtc::VideoFrameBuffer"*) local_unnamed_addr #1

declare void @__cxa_pure_virtual() unnamed_addr

; Function Attrs: nounwind ssp uwtable
define linkonce_odr hidden zeroext i1 @_ZNK5blink29LegacyWebRtcVideoFrameAdapter24SupportsOptimizedScalingEv(%"class.blink::LegacyWebRtcVideoFrameAdapter"*) unnamed_addr #0 comdat align 2 {
  ret i1 false
}

; Function Attrs: nounwind ssp uwtable
define linkonce_odr hidden %"class.media::VideoFrame"* @_ZNK5blink29LegacyWebRtcVideoFrameAdapter18getMediaVideoFrameEv(%"class.blink::LegacyWebRtcVideoFrameAdapter"*) unnamed_addr #0 comdat align 2 {
  %2 = getelementptr inbounds %"class.blink::LegacyWebRtcVideoFrameAdapter", %"class.blink::LegacyWebRtcVideoFrameAdapter"* %0, i64 0, i32 3, i32 0
  %3 = load %"class.media::VideoFrame"*, %"class.media::VideoFrame"** %2, align 8
  %4 = icmp eq %"class.media::VideoFrame"* %3, null
  br i1 %4, label %8, label %5

5:                                                ; preds = %1
  %6 = getelementptr inbounds %"class.media::VideoFrame", %"class.media::VideoFrame"* %3, i64 0, i32 1, i32 0, i32 0, i32 0, i32 0, i32 0, i32 0, i32 0, i32 0
  %7 = atomicrmw add i32* %6, i32 1 monotonic
  br label %8

8:                                                ; preds = %1, %5
  ret %"class.media::VideoFrame"* %3
}

; Function Attrs: argmemonly nounwind
declare void @llvm.memset.p0i8.i64(i8* nocapture writeonly, i8, i64, i1 immarg) #2

; Function Attrs: nounwind
declare void @_ZN4base8internal12CallbackBaseD2Ev(%"class.base::internal::CallbackBase"*) unnamed_addr #3

; Function Attrs: nounwind ssp uwtable
define linkonce_odr hidden void @_ZN4base8internal7InvokerINS0_9BindStateIPFvP13scoped_refptrIN3viz21RasterContextProviderEEPNS_13WaitableEventEEJN3WTF28CrossThreadUnretainedWrapperIS6_EENSD_IS8_EEEEEFvvEE7RunOnceEPNS0_13BindStateBaseE(%"class.base::internal::BindStateBase"*) #0 comdat align 2 {
  %2 = getelementptr inbounds %"class.base::internal::BindStateBase", %"class.base::internal::BindStateBase"* %0, i64 1
  %3 = bitcast %"class.base::internal::BindStateBase"* %2 to void (%class.scoped_refptr.67*, %"class.base::WaitableEvent"*)**
  %4 = getelementptr inbounds %"class.base::internal::BindStateBase", %"class.base::internal::BindStateBase"* %0, i64 1, i32 1
  %5 = bitcast void ()** %4 to %class.scoped_refptr.67**
  %6 = load %class.scoped_refptr.67*, %class.scoped_refptr.67** %5, align 8
  %7 = getelementptr inbounds void ()*, void ()** %4, i64 1
  %8 = bitcast void ()** %7 to %"class.base::WaitableEvent"**
  %9 = load %"class.base::WaitableEvent"*, %"class.base::WaitableEvent"** %8, align 8
  %10 = load void (%class.scoped_refptr.67*, %"class.base::WaitableEvent"*)*, void (%class.scoped_refptr.67*, %"class.base::WaitableEvent"*)** %3, align 8
  tail call void %10(%class.scoped_refptr.67* %6, %"class.base::WaitableEvent"* %9) #15
  ret void
}

; Function Attrs: nobuiltin nofree
declare noalias nonnull i8* @_Znwm(i64) local_unnamed_addr #10

; Function Attrs: nounwind ssp uwtable
define linkonce_odr hidden void @_ZN4base8internal9BindStateIPFvP13scoped_refptrIN3viz21RasterContextProviderEEPNS_13WaitableEventEEJN3WTF28CrossThreadUnretainedWrapperIS5_EENSC_IS7_EEEE7DestroyEPKNS0_13BindStateBaseE(%"class.base::internal::BindStateBase"*) #0 comdat align 2 {
  %2 = icmp eq %"class.base::internal::BindStateBase"* %0, null
  br i1 %2, label %5, label %3

3:                                                ; preds = %1
  %4 = bitcast %"class.base::internal::BindStateBase"* %0 to i8*
  tail call void @_ZdlPv(i8* %4) #16
  br label %5

5:                                                ; preds = %3, %1
  ret void
}

declare void @_ZN4base8internal13BindStateBaseC2EPFvvEPFvPKS1_E(%"class.base::internal::BindStateBase"*, void ()*, void (%"class.base::internal::BindStateBase"*)*) unnamed_addr #1

declare %"class.blink::Platform"* @_ZN5blink8Platform7CurrentEv() local_unnamed_addr #1

declare void @_ZN4base13WaitableEvent6SignalEv(%"class.base::WaitableEvent"*) local_unnamed_addr #1

; Function Attrs: nounwind ssp uwtable
define linkonce_odr hidden void @_ZNSt3__16vectorIN3gfx4SizeENS_9allocatorIS2_EEE6assignIPS2_EENS_9enable_ifIXaasr27__is_cpp17_forward_iteratorIT_EE5valuesr16is_constructibleIS2_NS_15iterator_traitsIS9_E9referenceEEE5valueEvE4typeES9_S9_(%"class.std::__1::vector.68"*, %"class.gfx::Size"*, %"class.gfx::Size"*) local_unnamed_addr #0 comdat align 2 {
  %4 = ptrtoint %"class.gfx::Size"* %2 to i64
  %5 = ptrtoint %"class.gfx::Size"* %1 to i64
  %6 = sub i64 %4, %5
  %7 = ashr exact i64 %6, 3
  %8 = getelementptr inbounds %"class.std::__1::vector.68", %"class.std::__1::vector.68"* %0, i64 0, i32 0, i32 2, i32 0, i32 0
  %9 = bitcast %"class.gfx::Size"** %8 to i64*
  %10 = load i64, i64* %9, align 8
  %11 = bitcast %"class.std::__1::vector.68"* %0 to i64*
  %12 = load i64, i64* %11, align 8
  %13 = sub i64 %10, %12
  %14 = ashr exact i64 %13, 3
  %15 = icmp ugt i64 %7, %14
  %16 = inttoptr i64 %12 to %"class.gfx::Size"*
  br i1 %15, label %49, label %17

17:                                               ; preds = %3
  %18 = getelementptr inbounds %"class.std::__1::vector.68", %"class.std::__1::vector.68"* %0, i64 0, i32 0, i32 1
  %19 = bitcast %"class.gfx::Size"** %18 to i64*
  %20 = load i64, i64* %19, align 8
  %21 = sub i64 %20, %12
  %22 = ashr exact i64 %21, 3
  %23 = icmp ugt i64 %7, %22
  %24 = getelementptr inbounds %"class.gfx::Size", %"class.gfx::Size"* %1, i64 %22
  %25 = select i1 %23, %"class.gfx::Size"* %24, %"class.gfx::Size"* %2
  %26 = ptrtoint %"class.gfx::Size"* %25 to i64
  %27 = sub i64 %26, %5
  %28 = ashr exact i64 %27, 3
  %29 = icmp eq i64 %27, 0
  br i1 %29, label %33, label %30

30:                                               ; preds = %17
  %31 = inttoptr i64 %12 to i8*
  %32 = bitcast %"class.gfx::Size"* %1 to i8*
  tail call void @llvm.memmove.p0i8.p0i8.i64(i8* align 4 %31, i8* align 4 %32, i64 %27, i1 false) #15
  br label %33

33:                                               ; preds = %17, %30
  br i1 %23, label %34, label %47

34:                                               ; preds = %33
  %35 = load i64, i64* %19, align 8
  %36 = sub i64 %4, %26
  %37 = icmp sgt i64 %36, 0
  br i1 %37, label %38, label %45

38:                                               ; preds = %34
  %39 = lshr exact i64 %36, 3
  %40 = inttoptr i64 %35 to i8*
  %41 = bitcast %"class.gfx::Size"* %25 to i8*
  tail call void @llvm.memcpy.p0i8.p0i8.i64(i8* align 4 %40, i8* align 4 %41, i64 %36, i1 false) #15
  %42 = inttoptr i64 %35 to %"class.gfx::Size"*
  %43 = getelementptr inbounds %"class.gfx::Size", %"class.gfx::Size"* %42, i64 %39
  %44 = ptrtoint %"class.gfx::Size"* %43 to i64
  br label %45

45:                                               ; preds = %34, %38
  %46 = phi i64 [ %44, %38 ], [ %35, %34 ]
  store i64 %46, i64* %19, align 8
  br label %90

47:                                               ; preds = %33
  %48 = getelementptr inbounds %"class.gfx::Size", %"class.gfx::Size"* %16, i64 %28
  store %"class.gfx::Size"* %48, %"class.gfx::Size"** %18, align 8
  br label %90

49:                                               ; preds = %3
  %50 = icmp eq i64 %12, 0
  br i1 %50, label %56, label %51

51:                                               ; preds = %49
  %52 = getelementptr inbounds %"class.std::__1::vector.68", %"class.std::__1::vector.68"* %0, i64 0, i32 0, i32 1
  %53 = bitcast %"class.gfx::Size"** %52 to i64*
  store i64 %12, i64* %53, align 8
  %54 = inttoptr i64 %12 to i8*
  tail call void @_ZdlPv(i8* %54) #16
  %55 = bitcast %"class.std::__1::vector.68"* %0 to i8*
  tail call void @llvm.memset.p0i8.i64(i8* align 8 %55, i8 0, i64 24, i1 false) #15
  br label %56

56:                                               ; preds = %49, %51
  %57 = phi i64 [ %10, %49 ], [ 0, %51 ]
  %58 = icmp ugt i64 %7, 2305843009213693951
  br i1 %58, label %59, label %61

59:                                               ; preds = %56
  %60 = bitcast %"class.std::__1::vector.68"* %0 to %"class.std::__1::__vector_base_common"*
  tail call void @_ZNKSt3__120__vector_base_commonILb1EE20__throw_length_errorEv(%"class.std::__1::__vector_base_common"* %60) #17
  unreachable

61:                                               ; preds = %56
  %62 = ashr exact i64 %57, 3
  %63 = icmp ult i64 %62, 1152921504606846975
  br i1 %63, label %64, label %71

64:                                               ; preds = %61
  %65 = ashr exact i64 %57, 2
  %66 = icmp ult i64 %65, %7
  br i1 %66, label %71, label %67

67:                                               ; preds = %64
  %68 = icmp ugt i64 %65, 2305843009213693951
  br i1 %68, label %69, label %71

69:                                               ; preds = %67
  %70 = bitcast %"class.std::__1::vector.68"* %0 to %"class.std::__1::__vector_base_common"*
  tail call void @_ZNKSt3__120__vector_base_commonILb1EE20__throw_length_errorEv(%"class.std::__1::__vector_base_common"* %70) #17
  unreachable

71:                                               ; preds = %64, %61, %67
  %72 = phi i64 [ %65, %67 ], [ 2305843009213693951, %61 ], [ %7, %64 ]
  %73 = shl i64 %72, 3
  %74 = tail call i8* @_Znwm(i64 %73) #16
  %75 = bitcast i8* %74 to %"class.gfx::Size"*
  %76 = getelementptr inbounds %"class.std::__1::vector.68", %"class.std::__1::vector.68"* %0, i64 0, i32 0, i32 1
  %77 = bitcast %"class.gfx::Size"** %76 to i8**
  store i8* %74, i8** %77, align 8
  %78 = bitcast %"class.std::__1::vector.68"* %0 to i8**
  store i8* %74, i8** %78, align 8
  %79 = getelementptr inbounds %"class.gfx::Size", %"class.gfx::Size"* %75, i64 %72
  store %"class.gfx::Size"* %79, %"class.gfx::Size"** %8, align 8
  %80 = bitcast %"class.gfx::Size"** %76 to i64*
  %81 = ptrtoint i8* %74 to i64
  %82 = icmp sgt i64 %6, 0
  br i1 %82, label %83, label %88

83:                                               ; preds = %71
  %84 = lshr exact i64 %6, 3
  %85 = bitcast %"class.gfx::Size"* %1 to i8*
  tail call void @llvm.memcpy.p0i8.p0i8.i64(i8* nonnull align 4 %74, i8* align 4 %85, i64 %6, i1 false) #15
  %86 = getelementptr inbounds %"class.gfx::Size", %"class.gfx::Size"* %75, i64 %84
  %87 = ptrtoint %"class.gfx::Size"* %86 to i64
  br label %88

88:                                               ; preds = %71, %83
  %89 = phi i64 [ %87, %83 ], [ %81, %71 ]
  store i64 %89, i64* %80, align 8
  br label %90

90:                                               ; preds = %45, %47, %88
  ret void
}

; Function Attrs: argmemonly nounwind
declare void @llvm.memmove.p0i8.p0i8.i64(i8* nocapture, i8* nocapture readonly, i64, i1 immarg) #2

; Function Attrs: noreturn
declare void @_ZNKSt3__120__vector_base_commonILb1EE20__throw_length_errorEv(%"class.std::__1::__vector_base_common"*) local_unnamed_addr #11

declare void @_ZN4base8internal8LockImplC1Ev(%"class.base::internal::LockImpl"*) unnamed_addr #1

; Function Attrs: nounwind
declare void @_ZN4base8internal8LockImplD1Ev(%"class.base::internal::LockImpl"*) unnamed_addr #3

declare %"class.webrtc::I420BufferInterface"* @_ZNK6webrtc16VideoFrameBuffer7GetI420Ev(%"class.webrtc::VideoFrameBuffer"*) unnamed_addr #1

declare void @_ZN6webrtc16VideoFrameBuffer12CropAndScaleEiiiiii(%"class.rtc::scoped_refptr"* sret, %"class.webrtc::VideoFrameBuffer"*, i32, i32, i32, i32, i32, i32) unnamed_addr #1

declare void @_ZN6webrtc16VideoFrameBuffer20GetMappedFrameBufferEN3rtc9ArrayViewINS0_4TypeELln4711EEE(%"class.rtc::scoped_refptr"* sret, %"class.webrtc::VideoFrameBuffer"*, i32*, i64) unnamed_addr #1

; Function Attrs: nounwind ssp uwtable
define linkonce_odr hidden void @_ZN4base6ranges4findIRKNS_4spanIKN5media16VideoPixelFormatELm18446744073709551615EEES4_NS_8identityENSt3__126random_access_iterator_tagEEEDaOT_RKT0_T1_(%"class.base::CheckedContiguousIterator"* noalias sret, %"class.base::span"* dereferenceable(16), i32* dereferenceable(4)) local_unnamed_addr #0 comdat {
  %4 = alloca %"class.base::CheckedContiguousIterator", align 8
  %5 = alloca %"class.base::CheckedContiguousIterator", align 8
  %6 = alloca %"class.base::CheckedContiguousIterator", align 8
  %7 = alloca %"class.base::CheckedContiguousIterator", align 8
  %8 = getelementptr inbounds %"class.base::span", %"class.base::span"* %1, i64 0, i32 1
  %9 = load i32*, i32** %8, align 8, !noalias !31
  %10 = getelementptr inbounds %"class.base::span", %"class.base::span"* %1, i64 0, i32 0, i32 0
  %11 = load i64, i64* %10, align 8, !noalias !31
  %12 = getelementptr inbounds i32, i32* %9, i64 %11
  call void @_ZN4base25CheckedContiguousIteratorIKN5media16VideoPixelFormatEEC2EPS3_S5_S5_(%"class.base::CheckedContiguousIterator"* nonnull %6, i32* %9, i32* %9, i32* %12) #15
  %13 = load i32*, i32** %8, align 8, !noalias !38
  %14 = load i64, i64* %10, align 8, !noalias !38
  %15 = getelementptr inbounds i32, i32* %13, i64 %14
  call void @_ZN4base25CheckedContiguousIteratorIKN5media16VideoPixelFormatEEC2EPS3_S5_S5_(%"class.base::CheckedContiguousIterator"* nonnull %7, i32* %13, i32* %15, i32* %15) #15
  %16 = bitcast %"class.base::CheckedContiguousIterator"* %5 to i8*
  call void @llvm.lifetime.start.p0i8(i64 24, i8* nonnull %16)
  %17 = bitcast %"class.base::CheckedContiguousIterator"* %4 to i8*
  call void @llvm.lifetime.start.p0i8(i64 24, i8* nonnull %17)
  %18 = bitcast %"class.base::CheckedContiguousIterator"* %7 to i8*
  call void @llvm.memcpy.p0i8.p0i8.i64(i8* nonnull align 8 %17, i8* nonnull align 8 %18, i64 24, i1 false) #15
  %19 = bitcast %"class.base::CheckedContiguousIterator"* %6 to i8*
  call void @llvm.memcpy.p0i8.p0i8.i64(i8* nonnull align 8 %16, i8* nonnull align 8 %19, i64 24, i1 false) #15
  call void @_ZNK4base25CheckedContiguousIteratorIKN5media16VideoPixelFormatEE15CheckComparableERKS4_(%"class.base::CheckedContiguousIterator"* nonnull %5, %"class.base::CheckedContiguousIterator"* nonnull dereferenceable(24) %4) #15, !noalias !45
  %20 = getelementptr inbounds %"class.base::CheckedContiguousIterator", %"class.base::CheckedContiguousIterator"* %5, i64 0, i32 1
  %21 = load i32*, i32** %20, align 8, !noalias !45
  %22 = getelementptr inbounds %"class.base::CheckedContiguousIterator", %"class.base::CheckedContiguousIterator"* %4, i64 0, i32 1
  %23 = load i32*, i32** %22, align 8, !noalias !45
  %24 = icmp eq i32* %21, %23
  br i1 %24, label %35, label %25

25:                                               ; preds = %3, %30
  %26 = call dereferenceable(4) i32* @_ZNK4base25CheckedContiguousIteratorIKN5media16VideoPixelFormatEEdeEv(%"class.base::CheckedContiguousIterator"* nonnull %5) #15, !noalias !45
  %27 = load i32, i32* %26, align 4, !noalias !45
  %28 = load i32, i32* %2, align 4, !noalias !45
  %29 = icmp eq i32 %27, %28
  br i1 %29, label %35, label %30

30:                                               ; preds = %25
  %31 = call dereferenceable(24) %"class.base::CheckedContiguousIterator"* @_ZN4base25CheckedContiguousIteratorIKN5media16VideoPixelFormatEEppEv(%"class.base::CheckedContiguousIterator"* nonnull %5) #15, !noalias !45
  call void @_ZNK4base25CheckedContiguousIteratorIKN5media16VideoPixelFormatEE15CheckComparableERKS4_(%"class.base::CheckedContiguousIterator"* nonnull %5, %"class.base::CheckedContiguousIterator"* nonnull dereferenceable(24) %4) #15, !noalias !45
  %32 = load i32*, i32** %20, align 8, !noalias !45
  %33 = load i32*, i32** %22, align 8, !noalias !45
  %34 = icmp eq i32* %32, %33
  br i1 %34, label %35, label %25

35:                                               ; preds = %25, %30, %3
  %36 = bitcast %"class.base::CheckedContiguousIterator"* %0 to i8*
  call void @llvm.memcpy.p0i8.p0i8.i64(i8* align 8 %36, i8* nonnull align 8 %16, i64 24, i1 false) #15
  call void @llvm.lifetime.end.p0i8(i64 24, i8* nonnull %16)
  call void @llvm.lifetime.end.p0i8(i64 24, i8* nonnull %17)
  ret void
}

; Function Attrs: nounwind ssp uwtable
define linkonce_odr hidden void @_ZNK4base25CheckedContiguousIteratorIKN5media16VideoPixelFormatEE15CheckComparableERKS4_(%"class.base::CheckedContiguousIterator"*, %"class.base::CheckedContiguousIterator"* dereferenceable(24)) local_unnamed_addr #0 comdat align 2 {
  %3 = alloca %"class.logging::CheckOpResult", align 8
  %4 = alloca %"class.logging::CheckOpResult", align 8
  %5 = alloca %"class.logging::CheckOpResult", align 8
  %6 = alloca %"class.logging::CheckError", align 8
  %7 = alloca %"class.logging::CheckOpResult", align 8
  %8 = alloca %"class.logging::CheckError", align 8
  %9 = bitcast %"class.logging::CheckOpResult"* %5 to i8*
  call void @llvm.lifetime.start.p0i8(i64 8, i8* nonnull %9) #15
  %10 = getelementptr inbounds %"class.logging::CheckOpResult", %"class.logging::CheckOpResult"* %5, i64 0, i32 0
  store i8* inttoptr (i64 -6148914691236517206 to i8*), i8** %10, align 8
  %11 = getelementptr inbounds %"class.base::CheckedContiguousIterator", %"class.base::CheckedContiguousIterator"* %0, i64 0, i32 0
  %12 = getelementptr inbounds %"class.base::CheckedContiguousIterator", %"class.base::CheckedContiguousIterator"* %1, i64 0, i32 0
  %13 = bitcast %"class.logging::CheckOpResult"* %4 to i8*
  call void @llvm.lifetime.start.p0i8(i64 8, i8* nonnull %13)
  %14 = load i32*, i32** %11, align 8
  %15 = load i32*, i32** %12, align 8
  %16 = icmp eq i32* %14, %15
  br i1 %16, label %17, label %18

17:                                               ; preds = %2
  call void @llvm.lifetime.end.p0i8(i64 8, i8* nonnull %13)
  store i8* null, i8** %10, align 8
  br label %29

18:                                               ; preds = %2
  %19 = bitcast %"class.base::CheckedContiguousIterator"* %0 to i8*
  %20 = tail call i8* @_ZN7logging14StreamValToStrEPKvPFvRNSt3__113basic_ostreamIcNS2_11char_traitsIcEEEES1_E(i8* %19, void (%"class.std::__1::basic_ostream"*, i8*)* nonnull @_ZZN7logging15CheckOpValueStrIPKN5media16VideoPixelFormatEEENSt3__19enable_ifIXaasr4base8internal23SupportsOstreamOperatorIRKT_EE5valuentsr3std11is_functionINS5_14remove_pointerIS7_E4typeEEE5valueEPcE4typeES9_ENUlRNS5_13basic_ostreamIcNS5_11char_traitsIcEEEEPKvE_8__invokeESK_SM_) #15
  %21 = bitcast %"class.base::CheckedContiguousIterator"* %1 to i8*
  %22 = tail call i8* @_ZN7logging14StreamValToStrEPKvPFvRNSt3__113basic_ostreamIcNS2_11char_traitsIcEEEES1_E(i8* %21, void (%"class.std::__1::basic_ostream"*, i8*)* nonnull @_ZZN7logging15CheckOpValueStrIPKN5media16VideoPixelFormatEEENSt3__19enable_ifIXaasr4base8internal23SupportsOstreamOperatorIRKT_EE5valuentsr3std11is_functionINS5_14remove_pointerIS7_E4typeEEE5valueEPcE4typeES9_ENUlRNS5_13basic_ostreamIcNS5_11char_traitsIcEEEEPKvE_8__invokeESK_SM_) #15
  call void @_ZN7logging13CheckOpResultC1EPKcPcS3_(%"class.logging::CheckOpResult"* nonnull %4, i8* getelementptr inbounds ([23 x i8], [23 x i8]* @.str.5, i64 0, i64 0), i8* %20, i8* %22) #15
  %23 = getelementptr inbounds %"class.logging::CheckOpResult", %"class.logging::CheckOpResult"* %4, i64 0, i32 0
  %24 = load i8*, i8** %23, align 8
  call void @llvm.lifetime.end.p0i8(i64 8, i8* nonnull %13)
  store i8* %24, i8** %10, align 8
  %25 = icmp eq i8* %24, null
  br i1 %25, label %29, label %26

26:                                               ; preds = %18
  %27 = bitcast %"class.logging::CheckError"* %6 to i8*
  call void @llvm.lifetime.start.p0i8(i64 8, i8* nonnull %27) #15
  call void @_ZN7logging10CheckError7CheckOpEPKciPNS_13CheckOpResultE(%"class.logging::CheckError"* nonnull sret %6, i8* getelementptr inbounds ([42 x i8], [42 x i8]* @.str.6, i64 0, i64 0), i32 206, %"class.logging::CheckOpResult"* nonnull %5) #15
  %28 = call dereferenceable(160) %"class.std::__1::basic_ostream"* @_ZN7logging10CheckError6streamEv(%"class.logging::CheckError"* nonnull %6) #15
  call void @_ZN7logging10CheckErrorD1Ev(%"class.logging::CheckError"* nonnull %6) #15
  call void @llvm.lifetime.end.p0i8(i64 8, i8* nonnull %27) #15
  br label %29

29:                                               ; preds = %17, %18, %26
  call void @llvm.lifetime.end.p0i8(i64 8, i8* nonnull %9) #15
  %30 = bitcast %"class.logging::CheckOpResult"* %7 to i8*
  call void @llvm.lifetime.start.p0i8(i64 8, i8* nonnull %30) #15
  %31 = getelementptr inbounds %"class.logging::CheckOpResult", %"class.logging::CheckOpResult"* %7, i64 0, i32 0
  store i8* inttoptr (i64 -6148914691236517206 to i8*), i8** %31, align 8
  %32 = getelementptr inbounds %"class.base::CheckedContiguousIterator", %"class.base::CheckedContiguousIterator"* %0, i64 0, i32 2
  %33 = getelementptr inbounds %"class.base::CheckedContiguousIterator", %"class.base::CheckedContiguousIterator"* %1, i64 0, i32 2
  %34 = bitcast %"class.logging::CheckOpResult"* %3 to i8*
  call void @llvm.lifetime.start.p0i8(i64 8, i8* nonnull %34)
  %35 = load i32*, i32** %32, align 8
  %36 = load i32*, i32** %33, align 8
  %37 = icmp eq i32* %35, %36
  br i1 %37, label %38, label %39

38:                                               ; preds = %29
  call void @llvm.lifetime.end.p0i8(i64 8, i8* nonnull %34)
  store i8* null, i8** %31, align 8
  br label %50

39:                                               ; preds = %29
  %40 = bitcast i32** %32 to i8*
  %41 = call i8* @_ZN7logging14StreamValToStrEPKvPFvRNSt3__113basic_ostreamIcNS2_11char_traitsIcEEEES1_E(i8* %40, void (%"class.std::__1::basic_ostream"*, i8*)* nonnull @_ZZN7logging15CheckOpValueStrIPKN5media16VideoPixelFormatEEENSt3__19enable_ifIXaasr4base8internal23SupportsOstreamOperatorIRKT_EE5valuentsr3std11is_functionINS5_14remove_pointerIS7_E4typeEEE5valueEPcE4typeES9_ENUlRNS5_13basic_ostreamIcNS5_11char_traitsIcEEEEPKvE_8__invokeESK_SM_) #15
  %42 = bitcast i32** %33 to i8*
  %43 = call i8* @_ZN7logging14StreamValToStrEPKvPFvRNSt3__113basic_ostreamIcNS2_11char_traitsIcEEEES1_E(i8* %42, void (%"class.std::__1::basic_ostream"*, i8*)* nonnull @_ZZN7logging15CheckOpValueStrIPKN5media16VideoPixelFormatEEENSt3__19enable_ifIXaasr4base8internal23SupportsOstreamOperatorIRKT_EE5valuentsr3std11is_functionINS5_14remove_pointerIS7_E4typeEEE5valueEPcE4typeES9_ENUlRNS5_13basic_ostreamIcNS5_11char_traitsIcEEEEPKvE_8__invokeESK_SM_) #15
  call void @_ZN7logging13CheckOpResultC1EPKcPcS3_(%"class.logging::CheckOpResult"* nonnull %3, i8* getelementptr inbounds ([19 x i8], [19 x i8]* @.str.7, i64 0, i64 0), i8* %41, i8* %43) #15
  %44 = getelementptr inbounds %"class.logging::CheckOpResult", %"class.logging::CheckOpResult"* %3, i64 0, i32 0
  %45 = load i8*, i8** %44, align 8
  call void @llvm.lifetime.end.p0i8(i64 8, i8* nonnull %34)
  store i8* %45, i8** %31, align 8
  %46 = icmp eq i8* %45, null
  br i1 %46, label %50, label %47

47:                                               ; preds = %39
  %48 = bitcast %"class.logging::CheckError"* %8 to i8*
  call void @llvm.lifetime.start.p0i8(i64 8, i8* nonnull %48) #15
  call void @_ZN7logging10CheckError7CheckOpEPKciPNS_13CheckOpResultE(%"class.logging::CheckError"* nonnull sret %8, i8* getelementptr inbounds ([42 x i8], [42 x i8]* @.str.6, i64 0, i64 0), i32 207, %"class.logging::CheckOpResult"* nonnull %7) #15
  %49 = call dereferenceable(160) %"class.std::__1::basic_ostream"* @_ZN7logging10CheckError6streamEv(%"class.logging::CheckError"* nonnull %8) #15
  call void @_ZN7logging10CheckErrorD1Ev(%"class.logging::CheckError"* nonnull %8) #15
  call void @llvm.lifetime.end.p0i8(i64 8, i8* nonnull %48) #15
  br label %50

50:                                               ; preds = %38, %39, %47
  call void @llvm.lifetime.end.p0i8(i64 8, i8* nonnull %30) #15
  ret void
}

declare void @_ZN7logging10CheckError7CheckOpEPKciPNS_13CheckOpResultE(%"class.logging::CheckError"* sret, i8*, i32, %"class.logging::CheckOpResult"*) local_unnamed_addr #1

declare void @_ZN7logging13CheckOpResultC1EPKcPcS3_(%"class.logging::CheckOpResult"*, i8*, i8*, i8*) unnamed_addr #1

declare i8* @_ZN7logging14StreamValToStrEPKvPFvRNSt3__113basic_ostreamIcNS2_11char_traitsIcEEEES1_E(i8*, void (%"class.std::__1::basic_ostream"*, i8*)*) local_unnamed_addr #1

; Function Attrs: inlinehint nounwind ssp uwtable
define linkonce_odr hidden void @_ZZN7logging15CheckOpValueStrIPKN5media16VideoPixelFormatEEENSt3__19enable_ifIXaasr4base8internal23SupportsOstreamOperatorIRKT_EE5valuentsr3std11is_functionINS5_14remove_pointerIS7_E4typeEEE5valueEPcE4typeES9_ENUlRNS5_13basic_ostreamIcNS5_11char_traitsIcEEEEPKvE_8__invokeESK_SM_(%"class.std::__1::basic_ostream"* dereferenceable(160), i8*) #12 comdat align 2 {
  %3 = bitcast i8* %1 to i8**
  %4 = load i8*, i8** %3, align 8
  %5 = tail call dereferenceable(160) %"class.std::__1::basic_ostream"* @_ZNSt3__113basic_ostreamIcNS_11char_traitsIcEEElsEPKv(%"class.std::__1::basic_ostream"* %0, i8* %4) #15
  ret void
}

declare dereferenceable(160) %"class.std::__1::basic_ostream"* @_ZNSt3__113basic_ostreamIcNS_11char_traitsIcEEElsEPKv(%"class.std::__1::basic_ostream"*, i8*) local_unnamed_addr #1

; Function Attrs: nounwind ssp uwtable
define linkonce_odr hidden dereferenceable(4) i32* @_ZNK4base25CheckedContiguousIteratorIKN5media16VideoPixelFormatEEdeEv(%"class.base::CheckedContiguousIterator"*) local_unnamed_addr #0 comdat align 2 {
  %2 = alloca %"class.logging::CheckOpResult", align 8
  %3 = alloca %"class.logging::CheckOpResult", align 8
  %4 = alloca %"class.logging::CheckError", align 8
  %5 = bitcast %"class.logging::CheckOpResult"* %3 to i8*
  call void @llvm.lifetime.start.p0i8(i64 8, i8* nonnull %5) #15
  %6 = getelementptr inbounds %"class.logging::CheckOpResult", %"class.logging::CheckOpResult"* %3, i64 0, i32 0
  store i8* inttoptr (i64 -6148914691236517206 to i8*), i8** %6, align 8
  %7 = getelementptr inbounds %"class.base::CheckedContiguousIterator", %"class.base::CheckedContiguousIterator"* %0, i64 0, i32 1
  %8 = getelementptr inbounds %"class.base::CheckedContiguousIterator", %"class.base::CheckedContiguousIterator"* %0, i64 0, i32 2
  %9 = bitcast %"class.logging::CheckOpResult"* %2 to i8*
  call void @llvm.lifetime.start.p0i8(i64 8, i8* nonnull %9)
  %10 = load i32*, i32** %7, align 8
  %11 = load i32*, i32** %8, align 8
  %12 = icmp eq i32* %10, %11
  br i1 %12, label %14, label %13

13:                                               ; preds = %1
  call void @llvm.lifetime.end.p0i8(i64 8, i8* nonnull %9)
  store i8* null, i8** %6, align 8
  br label %25

14:                                               ; preds = %1
  %15 = bitcast i32** %7 to i8*
  %16 = tail call i8* @_ZN7logging14StreamValToStrEPKvPFvRNSt3__113basic_ostreamIcNS2_11char_traitsIcEEEES1_E(i8* %15, void (%"class.std::__1::basic_ostream"*, i8*)* nonnull @_ZZN7logging15CheckOpValueStrIPKN5media16VideoPixelFormatEEENSt3__19enable_ifIXaasr4base8internal23SupportsOstreamOperatorIRKT_EE5valuentsr3std11is_functionINS5_14remove_pointerIS7_E4typeEEE5valueEPcE4typeES9_ENUlRNS5_13basic_ostreamIcNS5_11char_traitsIcEEEEPKvE_8__invokeESK_SM_) #15
  %17 = bitcast i32** %8 to i8*
  %18 = tail call i8* @_ZN7logging14StreamValToStrEPKvPFvRNSt3__113basic_ostreamIcNS2_11char_traitsIcEEEES1_E(i8* %17, void (%"class.std::__1::basic_ostream"*, i8*)* nonnull @_ZZN7logging15CheckOpValueStrIPKN5media16VideoPixelFormatEEENSt3__19enable_ifIXaasr4base8internal23SupportsOstreamOperatorIRKT_EE5valuentsr3std11is_functionINS5_14remove_pointerIS7_E4typeEEE5valueEPcE4typeES9_ENUlRNS5_13basic_ostreamIcNS5_11char_traitsIcEEEEPKvE_8__invokeESK_SM_) #15
  call void @_ZN7logging13CheckOpResultC1EPKcPcS3_(%"class.logging::CheckOpResult"* nonnull %2, i8* getelementptr inbounds ([17 x i8], [17 x i8]* @.str.8, i64 0, i64 0), i8* %16, i8* %18) #15
  %19 = getelementptr inbounds %"class.logging::CheckOpResult", %"class.logging::CheckOpResult"* %2, i64 0, i32 0
  %20 = load i8*, i8** %19, align 8
  call void @llvm.lifetime.end.p0i8(i64 8, i8* nonnull %9)
  store i8* %20, i8** %6, align 8
  %21 = icmp eq i8* %20, null
  br i1 %21, label %25, label %22

22:                                               ; preds = %14
  %23 = bitcast %"class.logging::CheckError"* %4 to i8*
  call void @llvm.lifetime.start.p0i8(i64 8, i8* nonnull %23) #15
  call void @_ZN7logging10CheckError7CheckOpEPKciPNS_13CheckOpResultE(%"class.logging::CheckError"* nonnull sret %4, i8* getelementptr inbounds ([42 x i8], [42 x i8]* @.str.6, i64 0, i64 0), i32 173, %"class.logging::CheckOpResult"* nonnull %3) #15
  %24 = call dereferenceable(160) %"class.std::__1::basic_ostream"* @_ZN7logging10CheckError6streamEv(%"class.logging::CheckError"* nonnull %4) #15
  call void @_ZN7logging10CheckErrorD1Ev(%"class.logging::CheckError"* nonnull %4) #15
  call void @llvm.lifetime.end.p0i8(i64 8, i8* nonnull %23) #15
  br label %25

25:                                               ; preds = %13, %14, %22
  call void @llvm.lifetime.end.p0i8(i64 8, i8* nonnull %5) #15
  %26 = load i32*, i32** %7, align 8
  ret i32* %26
}

; Function Attrs: nounwind ssp uwtable
define linkonce_odr hidden dereferenceable(24) %"class.base::CheckedContiguousIterator"* @_ZN4base25CheckedContiguousIteratorIKN5media16VideoPixelFormatEEppEv(%"class.base::CheckedContiguousIterator"*) local_unnamed_addr #0 comdat align 2 {
  %2 = alloca %"class.logging::CheckOpResult", align 8
  %3 = alloca %"class.logging::CheckOpResult", align 8
  %4 = alloca %"class.logging::CheckError", align 8
  %5 = bitcast %"class.logging::CheckOpResult"* %3 to i8*
  call void @llvm.lifetime.start.p0i8(i64 8, i8* nonnull %5) #15
  %6 = getelementptr inbounds %"class.logging::CheckOpResult", %"class.logging::CheckOpResult"* %3, i64 0, i32 0
  store i8* inttoptr (i64 -6148914691236517206 to i8*), i8** %6, align 8
  %7 = getelementptr inbounds %"class.base::CheckedContiguousIterator", %"class.base::CheckedContiguousIterator"* %0, i64 0, i32 1
  %8 = getelementptr inbounds %"class.base::CheckedContiguousIterator", %"class.base::CheckedContiguousIterator"* %0, i64 0, i32 2
  %9 = bitcast %"class.logging::CheckOpResult"* %2 to i8*
  call void @llvm.lifetime.start.p0i8(i64 8, i8* nonnull %9)
  %10 = load i32*, i32** %7, align 8
  %11 = load i32*, i32** %8, align 8
  %12 = icmp eq i32* %10, %11
  br i1 %12, label %14, label %13

13:                                               ; preds = %1
  call void @llvm.lifetime.end.p0i8(i64 8, i8* nonnull %9)
  store i8* null, i8** %6, align 8
  br label %25

14:                                               ; preds = %1
  %15 = bitcast i32** %7 to i8*
  %16 = tail call i8* @_ZN7logging14StreamValToStrEPKvPFvRNSt3__113basic_ostreamIcNS2_11char_traitsIcEEEES1_E(i8* %15, void (%"class.std::__1::basic_ostream"*, i8*)* nonnull @_ZZN7logging15CheckOpValueStrIPKN5media16VideoPixelFormatEEENSt3__19enable_ifIXaasr4base8internal23SupportsOstreamOperatorIRKT_EE5valuentsr3std11is_functionINS5_14remove_pointerIS7_E4typeEEE5valueEPcE4typeES9_ENUlRNS5_13basic_ostreamIcNS5_11char_traitsIcEEEEPKvE_8__invokeESK_SM_) #15
  %17 = bitcast i32** %8 to i8*
  %18 = tail call i8* @_ZN7logging14StreamValToStrEPKvPFvRNSt3__113basic_ostreamIcNS2_11char_traitsIcEEEES1_E(i8* %17, void (%"class.std::__1::basic_ostream"*, i8*)* nonnull @_ZZN7logging15CheckOpValueStrIPKN5media16VideoPixelFormatEEENSt3__19enable_ifIXaasr4base8internal23SupportsOstreamOperatorIRKT_EE5valuentsr3std11is_functionINS5_14remove_pointerIS7_E4typeEEE5valueEPcE4typeES9_ENUlRNS5_13basic_ostreamIcNS5_11char_traitsIcEEEEPKvE_8__invokeESK_SM_) #15
  call void @_ZN7logging13CheckOpResultC1EPKcPcS3_(%"class.logging::CheckOpResult"* nonnull %2, i8* getelementptr inbounds ([17 x i8], [17 x i8]* @.str.8, i64 0, i64 0), i8* %16, i8* %18) #15
  %19 = getelementptr inbounds %"class.logging::CheckOpResult", %"class.logging::CheckOpResult"* %2, i64 0, i32 0
  %20 = load i8*, i8** %19, align 8
  call void @llvm.lifetime.end.p0i8(i64 8, i8* nonnull %9)
  store i8* %20, i8** %6, align 8
  %21 = icmp eq i8* %20, null
  br i1 %21, label %25, label %22

22:                                               ; preds = %14
  %23 = bitcast %"class.logging::CheckError"* %4 to i8*
  call void @llvm.lifetime.start.p0i8(i64 8, i8* nonnull %23) #15
  call void @_ZN7logging10CheckError7CheckOpEPKciPNS_13CheckOpResultE(%"class.logging::CheckError"* nonnull sret %4, i8* getelementptr inbounds ([42 x i8], [42 x i8]* @.str.6, i64 0, i64 0), i32 110, %"class.logging::CheckOpResult"* nonnull %3) #15
  %24 = call dereferenceable(160) %"class.std::__1::basic_ostream"* @_ZN7logging10CheckError6streamEv(%"class.logging::CheckError"* nonnull %4) #15
  call void @_ZN7logging10CheckErrorD1Ev(%"class.logging::CheckError"* nonnull %4) #15
  call void @llvm.lifetime.end.p0i8(i64 8, i8* nonnull %23) #15
  br label %25

25:                                               ; preds = %13, %14, %22
  call void @llvm.lifetime.end.p0i8(i64 8, i8* nonnull %5) #15
  %26 = load i32*, i32** %7, align 8
  %27 = getelementptr inbounds i32, i32* %26, i64 1
  store i32* %27, i32** %7, align 8
  ret %"class.base::CheckedContiguousIterator"* %0
}

; Function Attrs: nounwind ssp uwtable
define linkonce_odr hidden void @_ZN4base25CheckedContiguousIteratorIKN5media16VideoPixelFormatEEC2EPS3_S5_S5_(%"class.base::CheckedContiguousIterator"*, i32*, i32*, i32*) unnamed_addr #0 comdat align 2 {
  %5 = alloca %"class.logging::CheckOpResult", align 8
  %6 = alloca %"class.logging::CheckOpResult", align 8
  %7 = alloca i32*, align 8
  %8 = alloca i32*, align 8
  %9 = alloca i32*, align 8
  %10 = alloca %"class.logging::CheckOpResult", align 8
  %11 = alloca %"class.logging::CheckError", align 8
  %12 = alloca %"class.logging::CheckOpResult", align 8
  %13 = alloca %"class.logging::CheckError", align 8
  store i32* %1, i32** %7, align 8
  store i32* %2, i32** %8, align 8
  store i32* %3, i32** %9, align 8
  %14 = ptrtoint i32* %1 to i64
  %15 = bitcast %"class.base::CheckedContiguousIterator"* %0 to i64*
  store i64 %14, i64* %15, align 8
  %16 = getelementptr inbounds %"class.base::CheckedContiguousIterator", %"class.base::CheckedContiguousIterator"* %0, i64 0, i32 1
  %17 = ptrtoint i32* %2 to i64
  %18 = bitcast i32** %16 to i64*
  store i64 %17, i64* %18, align 8
  %19 = getelementptr inbounds %"class.base::CheckedContiguousIterator", %"class.base::CheckedContiguousIterator"* %0, i64 0, i32 2
  %20 = ptrtoint i32* %3 to i64
  %21 = bitcast i32** %19 to i64*
  store i64 %20, i64* %21, align 8
  %22 = bitcast %"class.logging::CheckOpResult"* %10 to i8*
  call void @llvm.lifetime.start.p0i8(i64 8, i8* nonnull %22) #15
  %23 = getelementptr inbounds %"class.logging::CheckOpResult", %"class.logging::CheckOpResult"* %10, i64 0, i32 0
  store i8* inttoptr (i64 -6148914691236517206 to i8*), i8** %23, align 8
  %24 = bitcast %"class.logging::CheckOpResult"* %6 to i8*
  call void @llvm.lifetime.start.p0i8(i64 8, i8* nonnull %24)
  %25 = icmp ugt i32* %1, %2
  br i1 %25, label %27, label %26

26:                                               ; preds = %4
  call void @llvm.lifetime.end.p0i8(i64 8, i8* nonnull %24)
  store i8* null, i8** %23, align 8
  br label %38

27:                                               ; preds = %4
  %28 = bitcast i32** %7 to i8*
  %29 = call i8* @_ZN7logging14StreamValToStrEPKvPFvRNSt3__113basic_ostreamIcNS2_11char_traitsIcEEEES1_E(i8* nonnull %28, void (%"class.std::__1::basic_ostream"*, i8*)* nonnull @_ZZN7logging15CheckOpValueStrIPKN5media16VideoPixelFormatEEENSt3__19enable_ifIXaasr4base8internal23SupportsOstreamOperatorIRKT_EE5valuentsr3std11is_functionINS5_14remove_pointerIS7_E4typeEEE5valueEPcE4typeES9_ENUlRNS5_13basic_ostreamIcNS5_11char_traitsIcEEEEPKvE_8__invokeESK_SM_) #15
  %30 = bitcast i32** %8 to i8*
  %31 = call i8* @_ZN7logging14StreamValToStrEPKvPFvRNSt3__113basic_ostreamIcNS2_11char_traitsIcEEEES1_E(i8* nonnull %30, void (%"class.std::__1::basic_ostream"*, i8*)* nonnull @_ZZN7logging15CheckOpValueStrIPKN5media16VideoPixelFormatEEENSt3__19enable_ifIXaasr4base8internal23SupportsOstreamOperatorIRKT_EE5valuentsr3std11is_functionINS5_14remove_pointerIS7_E4typeEEE5valueEPcE4typeES9_ENUlRNS5_13basic_ostreamIcNS5_11char_traitsIcEEEEPKvE_8__invokeESK_SM_) #15
  call void @_ZN7logging13CheckOpResultC1EPKcPcS3_(%"class.logging::CheckOpResult"* nonnull %6, i8* getelementptr inbounds ([17 x i8], [17 x i8]* @.str.9, i64 0, i64 0), i8* %29, i8* %31) #15
  %32 = getelementptr inbounds %"class.logging::CheckOpResult", %"class.logging::CheckOpResult"* %6, i64 0, i32 0
  %33 = load i8*, i8** %32, align 8
  call void @llvm.lifetime.end.p0i8(i64 8, i8* nonnull %24)
  store i8* %33, i8** %23, align 8
  %34 = icmp eq i8* %33, null
  br i1 %34, label %38, label %35

35:                                               ; preds = %27
  %36 = bitcast %"class.logging::CheckError"* %11 to i8*
  call void @llvm.lifetime.start.p0i8(i64 8, i8* nonnull %36) #15
  call void @_ZN7logging10CheckError7CheckOpEPKciPNS_13CheckOpResultE(%"class.logging::CheckError"* nonnull sret %11, i8* getelementptr inbounds ([42 x i8], [42 x i8]* @.str.6, i64 0, i64 0), i32 45, %"class.logging::CheckOpResult"* nonnull %10) #15
  %37 = call dereferenceable(160) %"class.std::__1::basic_ostream"* @_ZN7logging10CheckError6streamEv(%"class.logging::CheckError"* nonnull %11) #15
  call void @_ZN7logging10CheckErrorD1Ev(%"class.logging::CheckError"* nonnull %11) #15
  call void @llvm.lifetime.end.p0i8(i64 8, i8* nonnull %36) #15
  br label %38

38:                                               ; preds = %26, %27, %35
  call void @llvm.lifetime.end.p0i8(i64 8, i8* nonnull %22) #15
  %39 = bitcast %"class.logging::CheckOpResult"* %12 to i8*
  call void @llvm.lifetime.start.p0i8(i64 8, i8* nonnull %39) #15
  %40 = getelementptr inbounds %"class.logging::CheckOpResult", %"class.logging::CheckOpResult"* %12, i64 0, i32 0
  store i8* inttoptr (i64 -6148914691236517206 to i8*), i8** %40, align 8
  %41 = bitcast %"class.logging::CheckOpResult"* %5 to i8*
  call void @llvm.lifetime.start.p0i8(i64 8, i8* nonnull %41)
  %42 = load i32*, i32** %8, align 8
  %43 = load i32*, i32** %9, align 8
  %44 = icmp ugt i32* %42, %43
  br i1 %44, label %46, label %45

45:                                               ; preds = %38
  call void @llvm.lifetime.end.p0i8(i64 8, i8* nonnull %41)
  store i8* null, i8** %40, align 8
  br label %57

46:                                               ; preds = %38
  %47 = bitcast i32** %8 to i8*
  %48 = call i8* @_ZN7logging14StreamValToStrEPKvPFvRNSt3__113basic_ostreamIcNS2_11char_traitsIcEEEES1_E(i8* nonnull %47, void (%"class.std::__1::basic_ostream"*, i8*)* nonnull @_ZZN7logging15CheckOpValueStrIPKN5media16VideoPixelFormatEEENSt3__19enable_ifIXaasr4base8internal23SupportsOstreamOperatorIRKT_EE5valuentsr3std11is_functionINS5_14remove_pointerIS7_E4typeEEE5valueEPcE4typeES9_ENUlRNS5_13basic_ostreamIcNS5_11char_traitsIcEEEEPKvE_8__invokeESK_SM_) #15
  %49 = bitcast i32** %9 to i8*
  %50 = call i8* @_ZN7logging14StreamValToStrEPKvPFvRNSt3__113basic_ostreamIcNS2_11char_traitsIcEEEES1_E(i8* nonnull %49, void (%"class.std::__1::basic_ostream"*, i8*)* nonnull @_ZZN7logging15CheckOpValueStrIPKN5media16VideoPixelFormatEEENSt3__19enable_ifIXaasr4base8internal23SupportsOstreamOperatorIRKT_EE5valuentsr3std11is_functionINS5_14remove_pointerIS7_E4typeEEE5valueEPcE4typeES9_ENUlRNS5_13basic_ostreamIcNS5_11char_traitsIcEEEEPKvE_8__invokeESK_SM_) #15
  call void @_ZN7logging13CheckOpResultC1EPKcPcS3_(%"class.logging::CheckOpResult"* nonnull %5, i8* getelementptr inbounds ([15 x i8], [15 x i8]* @.str.10, i64 0, i64 0), i8* %48, i8* %50) #15
  %51 = getelementptr inbounds %"class.logging::CheckOpResult", %"class.logging::CheckOpResult"* %5, i64 0, i32 0
  %52 = load i8*, i8** %51, align 8
  call void @llvm.lifetime.end.p0i8(i64 8, i8* nonnull %41)
  store i8* %52, i8** %40, align 8
  %53 = icmp eq i8* %52, null
  br i1 %53, label %57, label %54

54:                                               ; preds = %46
  %55 = bitcast %"class.logging::CheckError"* %13 to i8*
  call void @llvm.lifetime.start.p0i8(i64 8, i8* nonnull %55) #15
  call void @_ZN7logging10CheckError7CheckOpEPKciPNS_13CheckOpResultE(%"class.logging::CheckError"* nonnull sret %13, i8* getelementptr inbounds ([42 x i8], [42 x i8]* @.str.6, i64 0, i64 0), i32 46, %"class.logging::CheckOpResult"* nonnull %12) #15
  %56 = call dereferenceable(160) %"class.std::__1::basic_ostream"* @_ZN7logging10CheckError6streamEv(%"class.logging::CheckError"* nonnull %13) #15
  call void @_ZN7logging10CheckErrorD1Ev(%"class.logging::CheckError"* nonnull %13) #15
  call void @llvm.lifetime.end.p0i8(i64 8, i8* nonnull %55) #15
  br label %57

57:                                               ; preds = %45, %46, %54
  call void @llvm.lifetime.end.p0i8(i64 8, i8* nonnull %39) #15
  ret void
}

declare void @_ZN5media18VideoFrameMetadata17MergeMetadataFromERKS0_(%"struct.media::VideoFrameMetadata"*, %"struct.media::VideoFrameMetadata"* dereferenceable(376)) local_unnamed_addr #1

declare i32 @NV12Scale(i8*, i32, i8*, i32, i32, i32, i8*, i32, i8*, i32, i32, i32, i32) local_unnamed_addr #1

declare i8* @_ZN5media10VideoFrame12visible_dataEm(%"class.media::VideoFrame"*, i64) local_unnamed_addr #1

declare zeroext i1 @_ZN7logging22ShouldCreateLogMessageEi(i32) local_unnamed_addr #1

declare void @_ZN7logging10LogMessageC1EPKcii(%"class.logging::LogMessage"*, i8*, i32, i32) unnamed_addr #1

; Function Attrs: nounwind
declare void @_ZN7logging10LogMessageD1Ev(%"class.logging::LogMessage"*) unnamed_addr #3

declare void @ScalePlane(i8*, i32, i32, i32, i8*, i32, i32, i32, i32) local_unnamed_addr #1

declare i32 @I420Scale(i8*, i32, i8*, i32, i8*, i32, i32, i32, i8*, i32, i8*, i32, i8*, i32, i32, i32, i32) local_unnamed_addr #1

declare i32 @ARGBToI420(i8*, i32, i8*, i32, i8*, i32, i8*, i32, i32, i32) local_unnamed_addr #1

; Function Attrs: nounwind ssp uwtable
define linkonce_odr hidden dereferenceable(160) %"class.std::__1::basic_ostream"* @_ZNSt3__124__put_character_sequenceIcNS_11char_traitsIcEEEERNS_13basic_ostreamIT_T0_EES7_PKS4_m(%"class.std::__1::basic_ostream"* dereferenceable(160), i8*, i64) local_unnamed_addr #0 comdat {
  %4 = alloca %"class.std::__1::locale", align 8
  %5 = alloca %"class.std::__1::basic_ostream<char, std::__1::char_traits<char> >::sentry", align 8
  %6 = getelementptr inbounds %"class.std::__1::basic_ostream<char, std::__1::char_traits<char> >::sentry", %"class.std::__1::basic_ostream<char, std::__1::char_traits<char> >::sentry"* %5, i64 0, i32 0
  call void @llvm.lifetime.start.p0i8(i64 16, i8* nonnull %6) #15
  call void @llvm.memset.p0i8.i64(i8* nonnull align 8 %6, i8 -86, i64 16, i1 false)
