; ModuleID = '../../chrome/browser/lite_video/lite_video_switches.cc'
source_filename = "../../chrome/browser/lite_video/lite_video_switches.cc"
target datalayout = "e-m:e-i64:64-f80:128-n8:16:32:64-S128"
target triple = "x86_64-unknown-linux-gnu"

module asm ".symver exp, exp@GLIBC_2.2.5"
module asm ".symver exp2, exp2@GLIBC_2.2.5"
module asm ".symver exp2f, exp2f@GLIBC_2.2.5"
module asm ".symver expf, expf@GLIBC_2.2.5"
module asm ".symver lgamma, lgamma@GLIBC_2.2.5"
module asm ".symver lgammaf, lgammaf@GLIBC_2.2.5"
module asm ".symver lgammal, lgammal@GLIBC_2.2.5"
module asm ".symver log, log@GLIBC_2.2.5"
module asm ".symver log2, log2@GLIBC_2.2.5"
module asm ".symver log2f, log2f@GLIBC_2.2.5"
module asm ".symver logf, logf@GLIBC_2.2.5"
module asm ".symver pow, pow@GLIBC_2.2.5"
module asm ".symver powf, powf@GLIBC_2.2.5"

%"class.base::CommandLine" = type { %"class.std::__1::vector", %"class.std::__1::map", i64 }
%"class.std::__1::vector" = type { %"class.std::__1::__vector_base" }
%"class.std::__1::__vector_base" = type { %"class.std::__1::basic_string"*, %"class.std::__1::basic_string"*, %"class.std::__1::__compressed_pair.1" }
%"class.std::__1::basic_string" = type { %"class.std::__1::__compressed_pair" }
%"class.std::__1::__compressed_pair" = type { %"struct.std::__1::__compressed_pair_elem" }
%"struct.std::__1::__compressed_pair_elem" = type { %"struct.std::__1::basic_string<char, std::__1::char_traits<char>, std::__1::allocator<char> >::__rep" }
%"struct.std::__1::basic_string<char, std::__1::char_traits<char>, std::__1::allocator<char> >::__rep" = type { %union.anon }
%union.anon = type { %"struct.std::__1::basic_string<char, std::__1::char_traits<char>, std::__1::allocator<char> >::__long" }
%"struct.std::__1::basic_string<char, std::__1::char_traits<char>, std::__1::allocator<char> >::__long" = type { i8*, i64, i64 }
%"class.std::__1::__compressed_pair.1" = type { %"struct.std::__1::__compressed_pair_elem.2" }
%"struct.std::__1::__compressed_pair_elem.2" = type { %"class.std::__1::basic_string"* }
%"class.std::__1::map" = type { %"class.std::__1::__tree" }
%"class.std::__1::__tree" = type { %"class.std::__1::__tree_end_node"*, %"class.std::__1::__compressed_pair.6", %"class.std::__1::__compressed_pair.11" }
%"class.std::__1::__tree_end_node" = type { %"class.std::__1::__tree_node_base"* }
%"class.std::__1::__tree_node_base" = type opaque
%"class.std::__1::__compressed_pair.6" = type { %"struct.std::__1::__compressed_pair_elem.7" }
%"struct.std::__1::__compressed_pair_elem.7" = type { %"class.std::__1::__tree_end_node" }
%"class.std::__1::__compressed_pair.11" = type { %"struct.std::__1::__compressed_pair_elem.12" }
%"struct.std::__1::__compressed_pair_elem.12" = type { i64 }
%"struct.std::__1::basic_string<char, std::__1::char_traits<char>, std::__1::allocator<char> >::__short" = type { [23 x i8], %struct.anon }
%struct.anon = type { i8 }

@_ZN10lite_video8switches33kLiteVideoIgnoreNetworkConditionsE = hidden constant [37 x i8] c"lite-video-ignore-network-conditions\00", align 16
@_ZN10lite_video8switches31kLiteVideoForceOverrideDecisionE = hidden constant [35 x i8] c"lite-video-force-override-decision\00", align 16
@_ZN10lite_video8switches31kLiteVideoForceCoinflipHoldbackE = hidden constant [35 x i8] c"lite-video-force-coinflip-holdback\00", align 16
@_ZN10lite_video8switches38kLiteVideoDefaultDownlinkBandwidthKbpsE = hidden constant [43 x i8] c"lite-video-default-downlink-bandwidth-kbps\00", align 16

; Function Attrs: nounwind ssp uwtable
define hidden zeroext i1 @_ZN10lite_video8switches38ShouldIgnoreLiteVideoNetworkConditionsEv() local_unnamed_addr #0 {
  %1 = tail call %"class.base::CommandLine"* @_ZN4base11CommandLine17ForCurrentProcessEv() #4
  %2 = tail call zeroext i1 @_ZNK4base11CommandLine9HasSwitchEPKc(%"class.base::CommandLine"* %1, i8* getelementptr inbounds ([37 x i8], [37 x i8]* @_ZN10lite_video8switches33kLiteVideoIgnoreNetworkConditionsE, i64 0, i64 0)) #4
  ret i1 %2
}

declare %"class.base::CommandLine"* @_ZN4base11CommandLine17ForCurrentProcessEv() local_unnamed_addr #1

declare zeroext i1 @_ZNK4base11CommandLine9HasSwitchEPKc(%"class.base::CommandLine"*, i8*) local_unnamed_addr #1

; Function Attrs: nounwind ssp uwtable
define hidden zeroext i1 @_ZN10lite_video8switches31ShouldOverrideLiteVideoDecisionEv() local_unnamed_addr #0 {
  %1 = tail call %"class.base::CommandLine"* @_ZN4base11CommandLine17ForCurrentProcessEv() #4
  %2 = tail call zeroext i1 @_ZNK4base11CommandLine9HasSwitchEPKc(%"class.base::CommandLine"* %1, i8* getelementptr inbounds ([35 x i8], [35 x i8]* @_ZN10lite_video8switches31kLiteVideoForceOverrideDecisionE, i64 0, i64 0)) #4
  ret i1 %2
}

; Function Attrs: nounwind ssp uwtable
define hidden zeroext i1 @_ZN10lite_video8switches27ShouldForceCoinflipHoldbackEv() local_unnamed_addr #0 {
  %1 = tail call %"class.base::CommandLine"* @_ZN4base11CommandLine17ForCurrentProcessEv() #4
  %2 = tail call zeroext i1 @_ZNK4base11CommandLine9HasSwitchEPKc(%"class.base::CommandLine"* %1, i8* getelementptr inbounds ([35 x i8], [35 x i8]* @_ZN10lite_video8switches31kLiteVideoForceCoinflipHoldbackE, i64 0, i64 0)) #4
  ret i1 %2
}

; Function Attrs: nounwind ssp uwtable
define hidden i32 @_ZN10lite_video8switches31GetDefaultDownlinkBandwidthKbpsEv() local_unnamed_addr #0 {
  %1 = alloca i32, align 4
  %2 = alloca %"class.std::__1::basic_string", align 8
  %3 = tail call %"class.base::CommandLine"* @_ZN4base11CommandLine17ForCurrentProcessEv() #4
  %4 = tail call zeroext i1 @_ZNK4base11CommandLine9HasSwitchEPKc(%"class.base::CommandLine"* %3, i8* getelementptr inbounds ([43 x i8], [43 x i8]* @_ZN10lite_video8switches38kLiteVideoDefaultDownlinkBandwidthKbpsE, i64 0, i64 0)) #4
  br i1 %4, label %5, label %26

5:                                                ; preds = %0
  %6 = bitcast i32* %1 to i8*
  call void @llvm.lifetime.start.p0i8(i64 4, i8* nonnull %6) #4
  store i32 -1431655766, i32* %1, align 4
  %7 = bitcast %"class.std::__1::basic_string"* %2 to i8*
  call void @llvm.lifetime.start.p0i8(i64 24, i8* nonnull %7) #4
  call void @_ZNK4base11CommandLine19GetSwitchValueASCIIENS_16BasicStringPieceIcNSt3__111char_traitsIcEEEE(%"class.std::__1::basic_string"* nonnull sret %2, %"class.base::CommandLine"* %3, i8* getelementptr inbounds ([43 x i8], [43 x i8]* @_ZN10lite_video8switches38kLiteVideoDefaultDownlinkBandwidthKbpsE, i64 0, i64 0), i64 42) #4
  %8 = bitcast %"class.std::__1::basic_string"* %2 to %"struct.std::__1::basic_string<char, std::__1::char_traits<char>, std::__1::allocator<char> >::__short"*
  %9 = getelementptr inbounds %"struct.std::__1::basic_string<char, std::__1::char_traits<char>, std::__1::allocator<char> >::__short", %"struct.std::__1::basic_string<char, std::__1::char_traits<char>, std::__1::allocator<char> >::__short"* %8, i64 0, i32 1, i32 0
  %10 = load i8, i8* %9, align 1
  %11 = icmp slt i8 %10, 0
  %12 = getelementptr inbounds %"class.std::__1::basic_string", %"class.std::__1::basic_string"* %2, i64 0, i32 0, i32 0, i32 0, i32 0, i32 0, i32 0
  %13 = load i8*, i8** %12, align 8
  %14 = select i1 %11, i8* %13, i8* %7
  %15 = getelementptr inbounds %"class.std::__1::basic_string", %"class.std::__1::basic_string"* %2, i64 0, i32 0, i32 0, i32 0, i32 0, i32 0, i32 1
  %16 = load i64, i64* %15, align 8
  %17 = zext i8 %10 to i64
  %18 = select i1 %11, i64 %16, i64 %17
  %19 = call zeroext i1 @_ZN4base11StringToIntENS_16BasicStringPieceIcNSt3__111char_traitsIcEEEEPi(i8* %14, i64 %18, i32* nonnull %1) #4
  %20 = load i8, i8* %9, align 1
  %21 = icmp slt i8 %20, 0
  br i1 %21, label %22, label %24

22:                                               ; preds = %5
  %23 = load i8*, i8** %12, align 8
  call void @_ZdlPv(i8* %23) #5
  br label %24

24:                                               ; preds = %5, %22
  call void @llvm.lifetime.end.p0i8(i64 24, i8* nonnull %7) #4
  %25 = load i32, i32* %1, align 4
  call void @llvm.lifetime.end.p0i8(i64 4, i8* nonnull %6) #4
  br i1 %19, label %27, label %26

26:                                               ; preds = %24, %0
  br label %27

27:                                               ; preds = %24, %26
  %28 = phi i32 [ 400, %26 ], [ %25, %24 ]
  ret i32 %28
}

; Function Attrs: argmemonly nounwind
declare void @llvm.lifetime.start.p0i8(i64 immarg, i8* nocapture) #2

declare zeroext i1 @_ZN4base11StringToIntENS_16BasicStringPieceIcNSt3__111char_traitsIcEEEEPi(i8*, i64, i32*) local_unnamed_addr #1

declare void @_ZNK4base11CommandLine19GetSwitchValueASCIIENS_16BasicStringPieceIcNSt3__111char_traitsIcEEEE(%"class.std::__1::basic_string"* sret, %"class.base::CommandLine"*, i8*, i64) local_unnamed_addr #1

; Function Attrs: argmemonly nounwind
declare void @llvm.lifetime.end.p0i8(i64 immarg, i8* nocapture) #2

; Function Attrs: nobuiltin nounwind
declare void @_ZdlPv(i8*) local_unnamed_addr #3

attributes #0 = { nounwind ssp uwtable "correctly-rounded-divide-sqrt-fp-math"="false" "disable-tail-calls"="false" "less-precise-fpmad"="false" "min-legal-vector-width"="0" "no-frame-pointer-elim"="false" "no-frame-pointer-elim-non-leaf" "no-infs-fp-math"="false" "no-jump-tables"="false" "no-nans-fp-math"="false" "no-signed-zeros-fp-math"="false" "no-trapping-math"="false" "null-pointer-is-valid"="true" "stack-protector-buffer-size"="4" "target-cpu"="x86-64" "target-features"="+cx8,+fxsr,+mmx,+sse,+sse2,+sse3,+x87" "unsafe-fp-math"="false" "use-soft-float"="false" }
attributes #1 = { "correctly-rounded-divide-sqrt-fp-math"="false" "disable-tail-calls"="false" "less-precise-fpmad"="false" "no-frame-pointer-elim"="false" "no-frame-pointer-elim-non-leaf" "no-infs-fp-math"="false" "no-nans-fp-math"="false" "no-signed-zeros-fp-math"="false" "no-trapping-math"="false" "null-pointer-is-valid"="true" "stack-protector-buffer-size"="4" "target-cpu"="x86-64" "target-features"="+cx8,+fxsr,+mmx,+sse,+sse2,+sse3,+x87" "unsafe-fp-math"="false" "use-soft-float"="false" }
attributes #2 = { argmemonly nounwind }
attributes #3 = { nobuiltin nounwind "correctly-rounded-divide-sqrt-fp-math"="false" "disable-tail-calls"="false" "less-precise-fpmad"="false" "no-frame-pointer-elim"="false" "no-frame-pointer-elim-non-leaf" "no-infs-fp-math"="false" "no-nans-fp-math"="false" "no-signed-zeros-fp-math"="false" "no-trapping-math"="false" "null-pointer-is-valid"="true" "stack-protector-buffer-size"="4" "target-cpu"="x86-64" "target-features"="+cx8,+fxsr,+mmx,+sse,+sse2,+sse3,+x87" "unsafe-fp-math"="false" "use-soft-float"="false" }
attributes #4 = { nounwind }
attributes #5 = { builtin nounwind }

!llvm.module.flags = !{!0, !1}

!0 = !{i32 1, !"wchar_size", i32 4}
!1 = !{i32 7, !"PIC Level", i32 2}
