; ModuleID = '../../third_party/tflite/src/tensorflow/lite/kernels/lstm.cc'
source_filename = "../../third_party/tflite/src/tensorflow/lite/kernels/lstm.cc"
target datalayout = "e-m:e-i64:64-f80:128-n8:16:32:64-S128"
target triple = "x86_64-unknown-linux-gnu"

module asm ".symver exp, exp@GLIBC_2.2.5"
module asm ".symver exp2, exp2@GLIBC_2.2.5"
module asm ".symver exp2f, exp2f@GLIBC_2.2.5"
module asm ".symver expf, expf@GLIBC_2.2.5"
module asm ".symver lgamma, lgamma@GLIBC_2.2.5"
module asm ".symver lgammaf, lgammaf@GLIBC_2.2.5"
module asm ".symver lgammal, lgammal@GLIBC_2.2.5"
module asm ".symver log, log@GLIBC_2.2.5"
module asm ".symver log2, log2@GLIBC_2.2.5"
module asm ".symver log2f, log2f@GLIBC_2.2.5"
module asm ".symver logf, logf@GLIBC_2.2.5"
module asm ".symver pow, pow@GLIBC_2.2.5"
module asm ".symver powf, powf@GLIBC_2.2.5"

%struct.TfLiteContext = type { i64, i32 (%struct.TfLiteContext*, %struct.TfLiteIntArray**)*, %struct.TfLiteTensor*, i8*, i32 (%struct.TfLiteContext*, %struct.TfLiteTensor*, %struct.TfLiteIntArray*)*, void (%struct.TfLiteContext*, i8*, ...)*, i32 (%struct.TfLiteContext*, i32, i32*)*, i32 (%struct.TfLiteContext*, i32, %struct.TfLiteNode**, %struct.TfLiteRegistration**)*, i32 (%struct.TfLiteContext*, %struct.TfLiteRegistration*, %struct.TfLiteIntArray*, %struct.TfLiteDelegate*)*, i32, %struct.TfLiteExternalContext* (%struct.TfLiteContext*, i32)*, void (%struct.TfLiteContext*, i32, %struct.TfLiteExternalContext*)*, i8, i8*, i32 (%struct.TfLiteContext*, i64, i8**)*, i32 (%struct.TfLiteContext*, i64, i8**)*, i32 (%struct.TfLiteContext*, i64, i32*)*, i8* (%struct.TfLiteContext*, i32)*, i32 (%struct.TfLiteContext*, %struct.TfLiteTensor*, i32, i32*)*, i32 (%struct.TfLiteContext*, %struct.TfLiteIntArray*, %struct.TfLiteDelegateParams**, i32*)* }
%struct.TfLiteIntArray = type { i32, [0 x i32] }
%struct.TfLiteTensor = type { i32, %union.TfLitePtrUnion, %struct.TfLiteIntArray*, %struct.TfLiteQuantizationParams, i32, i64, i8*, i8*, %struct.TfLiteDelegate*, i32, i8, i8, %struct.TfLiteQuantization, %struct.TfLiteSparsity*, %struct.TfLiteIntArray* }
%union.TfLitePtrUnion = type { i32* }
%struct.TfLiteQuantizationParams = type { float, i32 }
%struct.TfLiteDelegate = type { i8*, i32 (%struct.TfLiteContext*, %struct.TfLiteDelegate*)*, i32 (%struct.TfLiteContext*, %struct.TfLiteDelegate*, i32, %struct.TfLiteTensor*)*, i32 (%struct.TfLiteContext*, %struct.TfLiteDelegate*, i32, %struct.TfLiteTensor*)*, void (%struct.TfLiteContext*, %struct.TfLiteDelegate*, i32*)*, i64 }
%struct.TfLiteQuantization = type { i32, i8* }
%struct.TfLiteSparsity = type { %struct.TfLiteIntArray*, %struct.TfLiteIntArray*, %struct.TfLiteDimensionMetadata*, i32 }
%struct.TfLiteDimensionMetadata = type { i32, i32, %struct.TfLiteIntArray*, %struct.TfLiteIntArray* }
%struct.TfLiteNode = type { %struct.TfLiteIntArray*, %struct.TfLiteIntArray*, %struct.TfLiteIntArray*, %struct.TfLiteIntArray*, i8*, i8*, i8*, i32, %struct.TfLiteDelegate* }
%struct.TfLiteRegistration = type { {}*, void (%struct.TfLiteContext*, i8*)*, i32 (%struct.TfLiteContext*, %struct.TfLiteNode*)*, i32 (%struct.TfLiteContext*, %struct.TfLiteNode*)*, i8* (%struct.TfLiteContext*, %struct.TfLiteNode*)*, i32, i8*, i32 }
%struct.TfLiteExternalContext = type { i32, i32 (%struct.TfLiteContext*)* }
%struct.TfLiteDelegateParams = type { %struct.TfLiteDelegate*, %struct.TfLiteIntArray*, %struct.TfLiteIntArray*, %struct.TfLiteIntArray* }
%"struct.ruy::KernelParamsFloat" = type <{ float*, float*, float*, float*, i32, i32, i32, i32, i32, i32, i32, i32, i32, i32, float, float, i8, [3 x i8], [16 x float], [256 x float], [4 x i8] }>
%"struct.ruy::KernelParamsFloat.134" = type <{ float*, float*, float*, float*, i32, i32, i32, i32, i32, i32, i32, i32, i32, i32, float, float, i8, [3 x i8], [8 x float], [64 x float], [4 x i8] }>
%struct._IO_FILE = type { i32, i8*, i8*, i8*, i8*, i8*, i8*, i8*, i8*, i8*, i8*, i8*, %struct._IO_marker*, %struct._IO_FILE*, i32, i32, i64, i16, i8, [1 x i8], i8*, i64, %struct._IO_codecvt*, %struct._IO_wide_data*, %struct._IO_FILE*, i8*, i64, i32, [20 x i8] }
%struct._IO_marker = type opaque
%struct._IO_codecvt = type opaque
%struct._IO_wide_data = type opaque
%struct.TfLiteLSTMParams = type { i32, float, float, i32, i8 }
%"class.std::__1::unique_ptr" = type { %"class.std::__1::__compressed_pair" }
%"class.std::__1::__compressed_pair" = type { %"struct.std::__1::__compressed_pair_elem" }
%"struct.std::__1::__compressed_pair_elem" = type { i32* }
%"class.tflite::RuntimeShape" = type { i32, %union.anon }
%union.anon = type { i32*, [16 x i8] }
%"struct.tflite::ops::builtin::lstm::OpData" = type <{ i32, i8, [3 x i8], i32, [4 x i8], %"struct.tflite::ops::builtin::lstm_eval::IntegerLstmParameter", i8, [7 x i8] }>
%"struct.tflite::ops::builtin::lstm_eval::IntegerLstmParameter" = type { i32, i32, i32, i32, i32, i32, i32, i32, i32, i32, i32, i32, i32, i32, i32, i32, i32, i32, i32, i32, i32, i32, i32, i32, i32, i32, i32, i32, i32, i32, i32, i32, i32, i32, i16, i8, i32, i32, i32, i32, i32, i32, %"class.std::__1::unique_ptr", %"class.std::__1::unique_ptr", %"class.std::__1::unique_ptr", %"class.std::__1::unique_ptr", %"class.std::__1::unique_ptr", %"class.std::__1::unique_ptr", %"class.std::__1::unique_ptr", %"class.std::__1::unique_ptr", %"class.std::__1::unique_ptr", [8 x i32], [8 x i32], [12 x i32] }
%struct.TfLiteAffineQuantization = type { %struct.TfLiteFloatArray*, %struct.TfLiteIntArray*, i32 }
%struct.TfLiteFloatArray = type { i32, [0 x float] }
%"class.std::__1::vector.25" = type { %"class.std::__1::__vector_base.26" }
%"class.std::__1::__vector_base.26" = type { float*, float*, %"class.std::__1::__compressed_pair.27" }
%"class.std::__1::__compressed_pair.27" = type { %"struct.std::__1::__compressed_pair_elem.28" }
%"struct.std::__1::__compressed_pair_elem.28" = type { float* }
%"class.std::__1::vector.32" = type { %"class.std::__1::__vector_base.33" }
%"class.std::__1::__vector_base.33" = type { i32*, i32*, %"class.std::__1::__compressed_pair.34" }
%"class.std::__1::__compressed_pair.34" = type { %"struct.std::__1::__compressed_pair_elem" }
%"class.std::__1::__vector_base_common" = type { i8 }
%"class.tflite::CpuBackendContext" = type <{ %"class.tflite::TfLiteInternalBackendContext", %"class.std::__1::unique_ptr.2", %"class.std::__1::unique_ptr.8", i32, i8, [3 x i8] }>
%"class.tflite::TfLiteInternalBackendContext" = type { i32 (...)** }
%"class.std::__1::unique_ptr.2" = type { %"class.std::__1::__compressed_pair.3" }
%"class.std::__1::__compressed_pair.3" = type { %"struct.std::__1::__compressed_pair_elem.4" }
%"struct.std::__1::__compressed_pair_elem.4" = type { %"class.ruy::Context"* }
%"class.ruy::Context" = type { %"class.ruy::CtxImpl"* }
%"class.ruy::CtxImpl" = type opaque
%"class.std::__1::unique_ptr.8" = type { %"class.std::__1::__compressed_pair.9" }
%"class.std::__1::__compressed_pair.9" = type { %"struct.std::__1::__compressed_pair_elem.10" }
%"struct.std::__1::__compressed_pair_elem.10" = type { %"class.gemmlowp::GemmContext"* }
%"class.gemmlowp::GemmContext" = type { %"class.gemmlowp::MultiThreadGemmContext" }
%"class.gemmlowp::MultiThreadGemmContext" = type { %"class.gemmlowp::MultiThreadGemmContextBase", %"class.gemmlowp::WorkersPool" }
%"class.gemmlowp::MultiThreadGemmContextBase" = type { %"class.gemmlowp::SingleThreadGemmContext.base", i32 }
%"class.gemmlowp::SingleThreadGemmContext.base" = type <{ %"class.gemmlowp::Allocator", i32, i32, float }>
%"class.gemmlowp::Allocator" = type { i8, i64, i8*, i64, i64, [5 x i64], i64 }
%"class.gemmlowp::WorkersPool" = type { %"class.std::__1::vector", %"class.gemmlowp::BlockingCounter", %"class.gemmlowp::Allocator" }
%"class.std::__1::vector" = type { %"class.std::__1::__vector_base" }
%"class.std::__1::__vector_base" = type { %"class.gemmlowp::Worker"**, %"class.gemmlowp::Worker"**, %"class.std::__1::__compressed_pair.19" }
%"class.gemmlowp::Worker" = type { i64, %"struct.gemmlowp::Task"*, %union.pthread_cond_t, %union.pthread_mutex_t, %"struct.std::__1::atomic", %"class.gemmlowp::Allocator", %"class.gemmlowp::BlockingCounter"* }
%"struct.gemmlowp::Task" = type { i32 (...)**, %"class.gemmlowp::Allocator"* }
%union.pthread_cond_t = type { %struct.__pthread_cond_s }
%struct.__pthread_cond_s = type { %union.anon.11, %union.anon.12, [2 x i32], [2 x i32], i32, i32, [2 x i32] }
%union.anon.11 = type { i64 }
%union.anon.12 = type { i64 }
%union.pthread_mutex_t = type { %struct.__pthread_mutex_s }
%struct.__pthread_mutex_s = type { i32, i32, i32, i32, i32, i16, i16, %struct.__pthread_internal_list }
%struct.__pthread_internal_list = type { %struct.__pthread_internal_list*, %struct.__pthread_internal_list* }
%"struct.std::__1::atomic" = type { %"struct.std::__1::__atomic_base" }
%"struct.std::__1::__atomic_base" = type { %"struct.std::__1::__cxx_atomic_impl" }
%"struct.std::__1::__cxx_atomic_impl" = type { %"struct.std::__1::__cxx_atomic_base_impl" }
%"struct.std::__1::__cxx_atomic_base_impl" = type { i32 }
%"class.std::__1::__compressed_pair.19" = type { %"struct.std::__1::__compressed_pair_elem.20" }
%"struct.std::__1::__compressed_pair_elem.20" = type { %"class.gemmlowp::Worker"** }
%"class.gemmlowp::BlockingCounter" = type { %"struct.std::__1::atomic.14" }
%"struct.std::__1::atomic.14" = type { %"struct.std::__1::__atomic_base.15" }
%"struct.std::__1::__atomic_base.15" = type { %"struct.std::__1::__atomic_base.16" }
%"struct.std::__1::__atomic_base.16" = type { %"struct.std::__1::__cxx_atomic_impl.17" }
%"struct.std::__1::__cxx_atomic_impl.17" = type { %"struct.std::__1::__cxx_atomic_base_impl.18" }
%"struct.std::__1::__cxx_atomic_base_impl.18" = type { i64 }
%"struct.tflite::LstmCellParams" = type { i32, i32, i32, i32 }
%"struct.Eigen::internal::evaluator" = type { %"struct.Eigen::internal::binary_evaluator" }
%"struct.Eigen::internal::binary_evaluator" = type { %"struct.Eigen::internal::binary_evaluator<Eigen::CwiseBinaryOp<Eigen::internal::scalar_sum_op<float, float>, const Eigen::CwiseBinaryOp<Eigen::internal::scalar_product_op<float, float>, const Eigen::CwiseUnaryOp<Eigen::internal::scalar_logistic_op<float>, const Eigen::Block<Eigen::Map<Eigen::Array<float, -1, -1, 0, -1, -1>, 0, Eigen::Stride<0, 0> >, -1, -1, false> >, const Eigen::CwiseUnaryOp<Eigen::internal::scalar_tanh_op<float>, const Eigen::Block<Eigen::Map<Eigen::Array<float, -1, -1, 0, -1, -1>, 0, Eigen::Stride<0, 0> >, -1, -1, false> > >, const Eigen::CwiseBinaryOp<Eigen::internal::scalar_product_op<float, float>, const Eigen::CwiseUnaryOp<Eigen::internal::scalar_logistic_op<float>, const Eigen::Block<Eigen::Map<Eigen::Array<float, -1, -1, 0, -1, -1>, 0, Eigen::Stride<0, 0> >, -1, -1, false> >, const Eigen::Map<const Eigen::Array<float, -1, -1, 0, -1, -1>, 0, Eigen::Stride<0, 0> > > >, Eigen::internal::IndexBased, Eigen::internal::IndexBased, float, float>::Data" }
%"struct.Eigen::internal::binary_evaluator<Eigen::CwiseBinaryOp<Eigen::internal::scalar_sum_op<float, float>, const Eigen::CwiseBinaryOp<Eigen::internal::scalar_product_op<float, float>, const Eigen::CwiseUnaryOp<Eigen::internal::scalar_logistic_op<float>, const Eigen::Block<Eigen::Map<Eigen::Array<float, -1, -1, 0, -1, -1>, 0, Eigen::Stride<0, 0> >, -1, -1, false> >, const Eigen::CwiseUnaryOp<Eigen::internal::scalar_tanh_op<float>, const Eigen::Block<Eigen::Map<Eigen::Array<float, -1, -1, 0, -1, -1>, 0, Eigen::Stride<0, 0> >, -1, -1, false> > >, const Eigen::CwiseBinaryOp<Eigen::internal::scalar_product_op<float, float>, const Eigen::CwiseUnaryOp<Eigen::internal::scalar_logistic_op<float>, const Eigen::Block<Eigen::Map<Eigen::Array<float, -1, -1, 0, -1, -1>, 0, Eigen::Stride<0, 0> >, -1, -1, false> >, const Eigen::Map<const Eigen::Array<float, -1, -1, 0, -1, -1>, 0, Eigen::Stride<0, 0> > > >, Eigen::internal::IndexBased, Eigen::internal::IndexBased, float, float>::Data" = type { [8 x i8], %"struct.Eigen::internal::evaluator.176", %"struct.Eigen::internal::evaluator.196" }
%"struct.Eigen::internal::evaluator.176" = type { %"struct.Eigen::internal::evaluator.177" }
%"struct.Eigen::internal::evaluator.177" = type { %"struct.Eigen::internal::binary_evaluator.178" }
%"struct.Eigen::internal::binary_evaluator.178" = type { %"struct.Eigen::internal::binary_evaluator<Eigen::CwiseBinaryOp<Eigen::internal::scalar_product_op<float, float>, const Eigen::CwiseUnaryOp<Eigen::internal::scalar_logistic_op<float>, const Eigen::Block<Eigen::Map<Eigen::Array<float, -1, -1, 0, -1, -1>, 0, Eigen::Stride<0, 0> >, -1, -1, false> >, const Eigen::CwiseUnaryOp<Eigen::internal::scalar_tanh_op<float>, const Eigen::Block<Eigen::Map<Eigen::Array<float, -1, -1, 0, -1, -1>, 0, Eigen::Stride<0, 0> >, -1, -1, false> > >, Eigen::internal::IndexBased, Eigen::internal::IndexBased, float, float>::Data" }
%"struct.Eigen::internal::binary_evaluator<Eigen::CwiseBinaryOp<Eigen::internal::scalar_product_op<float, float>, const Eigen::CwiseUnaryOp<Eigen::internal::scalar_logistic_op<float>, const Eigen::Block<Eigen::Map<Eigen::Array<float, -1, -1, 0, -1, -1>, 0, Eigen::Stride<0, 0> >, -1, -1, false> >, const Eigen::CwiseUnaryOp<Eigen::internal::scalar_tanh_op<float>, const Eigen::Block<Eigen::Map<Eigen::Array<float, -1, -1, 0, -1, -1>, 0, Eigen::Stride<0, 0> >, -1, -1, false> > >, Eigen::internal::IndexBased, Eigen::internal::IndexBased, float, float>::Data" = type { %"struct.Eigen::internal::evaluator.181", %"struct.Eigen::internal::evaluator.191" }
%"struct.Eigen::internal::evaluator.181" = type { %"struct.Eigen::internal::evaluator.182" }
%"struct.Eigen::internal::evaluator.182" = type { %"struct.Eigen::internal::unary_evaluator" }
%"struct.Eigen::internal::unary_evaluator" = type { %"class.Eigen::internal::unary_evaluator<Eigen::CwiseUnaryOp<Eigen::internal::scalar_logistic_op<float>, const Eigen::Block<Eigen::Map<Eigen::Array<float, -1, -1, 0, -1, -1>, 0, Eigen::Stride<0, 0> >, -1, -1, false> >, Eigen::internal::IndexBased, float>::Data" }
%"class.Eigen::internal::unary_evaluator<Eigen::CwiseUnaryOp<Eigen::internal::scalar_logistic_op<float>, const Eigen::Block<Eigen::Map<Eigen::Array<float, -1, -1, 0, -1, -1>, 0, Eigen::Stride<0, 0> >, -1, -1, false> >, Eigen::internal::IndexBased, float>::Data" = type { %"struct.Eigen::internal::evaluator.185" }
%"struct.Eigen::internal::evaluator.185" = type { %"struct.Eigen::internal::evaluator.186" }
%"struct.Eigen::internal::evaluator.186" = type { %"struct.Eigen::internal::block_evaluator" }
%"struct.Eigen::internal::block_evaluator" = type { %"struct.Eigen::internal::mapbase_evaluator" }
%"struct.Eigen::internal::mapbase_evaluator" = type { float*, %"class.Eigen::internal::variable_if_dynamic.189", %"class.Eigen::internal::variable_if_dynamic" }
%"class.Eigen::internal::variable_if_dynamic.189" = type { i8 }
%"class.Eigen::internal::variable_if_dynamic" = type { i64 }
%"struct.Eigen::internal::evaluator.191" = type { %"struct.Eigen::internal::evaluator.192" }
%"struct.Eigen::internal::evaluator.192" = type { %"struct.Eigen::internal::unary_evaluator.193" }
%"struct.Eigen::internal::unary_evaluator.193" = type { %"class.Eigen::internal::unary_evaluator<Eigen::CwiseUnaryOp<Eigen::internal::scalar_tanh_op<float>, const Eigen::Block<Eigen::Map<Eigen::Array<float, -1, -1, 0, -1, -1>, 0, Eigen::Stride<0, 0> >, -1, -1, false> >, Eigen::internal::IndexBased, float>::Data" }
%"class.Eigen::internal::unary_evaluator<Eigen::CwiseUnaryOp<Eigen::internal::scalar_tanh_op<float>, const Eigen::Block<Eigen::Map<Eigen::Array<float, -1, -1, 0, -1, -1>, 0, Eigen::Stride<0, 0> >, -1, -1, false> >, Eigen::internal::IndexBased, float>::Data" = type { %"struct.Eigen::internal::evaluator.185" }
%"struct.Eigen::internal::evaluator.196" = type { %"struct.Eigen::internal::evaluator.197" }
%"struct.Eigen::internal::evaluator.197" = type { %"struct.Eigen::internal::binary_evaluator.198" }
%"struct.Eigen::internal::binary_evaluator.198" = type { %"struct.Eigen::internal::binary_evaluator<Eigen::CwiseBinaryOp<Eigen::internal::scalar_product_op<float, float>, const Eigen::CwiseUnaryOp<Eigen::internal::scalar_logistic_op<float>, const Eigen::Block<Eigen::Map<Eigen::Array<float, -1, -1, 0, -1, -1>, 0, Eigen::Stride<0, 0> >, -1, -1, false> >, const Eigen::Map<const Eigen::Array<float, -1, -1, 0, -1, -1>, 0, Eigen::Stride<0, 0> > >, Eigen::internal::IndexBased, Eigen::internal::IndexBased, float, float>::Data" }
%"struct.Eigen::internal::binary_evaluator<Eigen::CwiseBinaryOp<Eigen::internal::scalar_product_op<float, float>, const Eigen::CwiseUnaryOp<Eigen::internal::scalar_logistic_op<float>, const Eigen::Block<Eigen::Map<Eigen::Array<float, -1, -1, 0, -1, -1>, 0, Eigen::Stride<0, 0> >, -1, -1, false> >, const Eigen::Map<const Eigen::Array<float, -1, -1, 0, -1, -1>, 0, Eigen::Stride<0, 0> > >, Eigen::internal::IndexBased, Eigen::internal::IndexBased, float, float>::Data" = type { %"struct.Eigen::internal::evaluator.181", %"struct.Eigen::internal::evaluator.201" }
%"struct.Eigen::internal::evaluator.201" = type { %"struct.Eigen::internal::evaluator.202" }
%"struct.Eigen::internal::evaluator.202" = type { %"struct.Eigen::internal::mapbase_evaluator.203" }
%"struct.Eigen::internal::mapbase_evaluator.203" = type { float*, %"class.Eigen::internal::variable_if_dynamic.189", %"class.Eigen::internal::variable_if_dynamic" }
%"struct.Eigen::internal::evaluator.206" = type { %"struct.Eigen::internal::mapbase_evaluator.207" }
%"struct.Eigen::internal::mapbase_evaluator.207" = type { float*, %"class.Eigen::internal::variable_if_dynamic.189", %"class.Eigen::internal::variable_if_dynamic" }
%"class.Eigen::internal::generic_dense_assignment_kernel" = type { %"struct.Eigen::internal::evaluator.206"*, %"struct.Eigen::internal::evaluator"*, %"struct.Eigen::internal::assign_op"*, %"class.Eigen::Map"* }
%"struct.Eigen::internal::assign_op" = type { i8 }
%"class.Eigen::Map" = type <{ %"class.Eigen::MapBase", %"class.Eigen::Stride", [6 x i8] }>
%"class.Eigen::MapBase" = type { %"class.Eigen::MapBase.59" }
%"class.Eigen::MapBase.59" = type { float*, %"class.Eigen::internal::variable_if_dynamic", %"class.Eigen::internal::variable_if_dynamic" }
%"class.Eigen::Stride" = type { %"class.Eigen::internal::variable_if_dynamic.62", %"class.Eigen::internal::variable_if_dynamic.62" }
%"class.Eigen::internal::variable_if_dynamic.62" = type { i8 }
%"struct.Eigen::internal::evaluator.213" = type { %"struct.Eigen::internal::binary_evaluator.214" }
%"struct.Eigen::internal::binary_evaluator.214" = type { %"struct.Eigen::internal::binary_evaluator<Eigen::CwiseBinaryOp<Eigen::internal::scalar_product_op<float, float>, const Eigen::CwiseUnaryOp<Eigen::internal::scalar_logistic_op<float>, const Eigen::Block<Eigen::Map<Eigen::Array<float, -1, -1, 0, -1, -1>, 0, Eigen::Stride<0, 0> >, -1, -1, false> >, const Eigen::CwiseUnaryOp<Eigen::internal::scalar_tanh_op<float>, const Eigen::Map<Eigen::Array<float, -1, -1, 0, -1, -1>, 0, Eigen::Stride<0, 0> > > >, Eigen::internal::IndexBased, Eigen::internal::IndexBased, float, float>::Data" }
%"struct.Eigen::internal::binary_evaluator<Eigen::CwiseBinaryOp<Eigen::internal::scalar_product_op<float, float>, const Eigen::CwiseUnaryOp<Eigen::internal::scalar_logistic_op<float>, const Eigen::Block<Eigen::Map<Eigen::Array<float, -1, -1, 0, -1, -1>, 0, Eigen::Stride<0, 0> >, -1, -1, false> >, const Eigen::CwiseUnaryOp<Eigen::internal::scalar_tanh_op<float>, const Eigen::Map<Eigen::Array<float, -1, -1, 0, -1, -1>, 0, Eigen::Stride<0, 0> > > >, Eigen::internal::IndexBased, Eigen::internal::IndexBased, float, float>::Data" = type { %"struct.Eigen::internal::evaluator.181", %"struct.Eigen::internal::evaluator.217" }
%"struct.Eigen::internal::evaluator.217" = type { %"struct.Eigen::internal::evaluator.218" }
%"struct.Eigen::internal::evaluator.218" = type { %"struct.Eigen::internal::unary_evaluator.219" }
%"struct.Eigen::internal::unary_evaluator.219" = type { %"class.Eigen::internal::unary_evaluator<Eigen::CwiseUnaryOp<Eigen::internal::scalar_tanh_op<float>, const Eigen::Map<Eigen::Array<float, -1, -1, 0, -1, -1>, 0, Eigen::Stride<0, 0> > >, Eigen::internal::IndexBased, float>::Data" }
%"class.Eigen::internal::unary_evaluator<Eigen::CwiseUnaryOp<Eigen::internal::scalar_tanh_op<float>, const Eigen::Map<Eigen::Array<float, -1, -1, 0, -1, -1>, 0, Eigen::Stride<0, 0> > >, Eigen::internal::IndexBased, float>::Data" = type { %"struct.Eigen::internal::evaluator.222" }
%"struct.Eigen::internal::evaluator.222" = type { %"struct.Eigen::internal::evaluator.206" }
%"class.Eigen::internal::generic_dense_assignment_kernel.223" = type { %"struct.Eigen::internal::evaluator.206"*, %"struct.Eigen::internal::evaluator.213"*, %"struct.Eigen::internal::assign_op"*, %"class.Eigen::Map"* }
%"class.std::__1::vector.45" = type { %"class.std::__1::__vector_base.46" }
%"class.std::__1::__vector_base.46" = type { float**, float**, %"class.std::__1::__compressed_pair.47" }
%"class.std::__1::__compressed_pair.47" = type { %"struct.std::__1::__compressed_pair_elem.48" }
%"struct.std::__1::__compressed_pair_elem.48" = type { float** }
%"class.std::__1::vector.52" = type { %"class.std::__1::__vector_base.53" }
%"class.std::__1::__vector_base.53" = type { %"class.tflite::RuntimeShape"**, %"class.tflite::RuntimeShape"**, %"class.std::__1::__compressed_pair.54" }
%"class.std::__1::__compressed_pair.54" = type { %"struct.std::__1::__compressed_pair_elem.55" }
%"struct.std::__1::__compressed_pair_elem.55" = type { %"class.tflite::RuntimeShape"** }
%"struct.tflite::FullyConnectedParams" = type { i32, i32, i32, i32, i32, i32, i32, float, float, i8, i8, i8 }
%"struct.tflite::cpu_backend_gemm::MatrixParams.224" = type <{ i32, i32, i32, i8, i8, [2 x i8] }>
%"struct.tflite::cpu_backend_gemm::MatrixParams.226" = type <{ i32, i32, i32, i16, i8, i8 }>
%"struct.tflite::cpu_backend_gemm::GemmParams.228" = type <{ i32, i32, i32*, i32*, i32*, i16, i16, [4 x i8] }>
%"struct.tflite::cpu_backend_gemm::MatrixParams" = type <{ i32, i32, i32, float, i8, [3 x i8] }>
%"struct.tflite::cpu_backend_gemm::GemmParams" = type { float, i32, float*, i32*, float*, float, float }
%"struct.ruy::Mat" = type <{ %"class.ruy::detail::ConstCheckingPtr", %"struct.ruy::MatLayout", float, i8, [3 x i8] }>
%"class.ruy::detail::ConstCheckingPtr" = type { float* }
%"struct.ruy::MatLayout" = type <{ i32, i32, i32, i8, [3 x i8] }>
%"class.ruy::MulParams" = type { float*, float, i32, float*, i32*, float, float }
%"class.ruy::Ctx" = type { i8 }
%"struct.ruy::TrMulParams" = type { i8, %"class.ruy::SidePair", void (i32, %"class.ruy::SidePair.128"*, i8*, %"class.ruy::SidePair.129"*, %"class.ruy::SidePair.129"*, %"struct.ruy::EMat"*)*, %"class.ruy::SidePair.130", %"struct.ruy::EMat", %"class.ruy::SidePair.128", %"class.ruy::SidePair.131", i8* }
%"class.ruy::SidePair" = type { [2 x void (i32, %"struct.ruy::EMat"*, %"struct.ruy::PEMat"*, i32, i32)*] }
%"struct.ruy::PEMat" = type <{ %"struct.ruy::Type", [5 x i8], i8*, %"struct.ruy::Type", [5 x i8], i8*, %"struct.ruy::PMatLayout", i32, [4 x i8] }>
%"struct.ruy::Type" = type { i8, i8, i8 }
%"struct.ruy::PMatLayout" = type { i32, i32, i32, i8, %"struct.ruy::KernelLayout" }
%"struct.ruy::KernelLayout" = type { i8, i8, i8 }
%"class.ruy::SidePair.129" = type { [2 x i32] }
%"class.ruy::SidePair.130" = type { [2 x %"struct.ruy::EMat"] }
%"struct.ruy::EMat" = type <{ %"struct.ruy::Type", [5 x i8], i8*, %"struct.ruy::MatLayout", i32, i8, [3 x i8] }>
%"class.ruy::SidePair.128" = type { [2 x %"struct.ruy::PEMat"] }
%"class.ruy::SidePair.131" = type { [2 x i8] }
%"class.ruy::PrepackedCache" = type { %"class.std::__1::unordered_map", i32, i32, i64 }
%"class.std::__1::unordered_map" = type { %"class.std::__1::__hash_table" }
%"class.std::__1::__hash_table" = type <{ %"class.std::__1::unique_ptr.137", %"class.std::__1::__compressed_pair.146", %"class.std::__1::__compressed_pair.151", %"class.std::__1::__compressed_pair.153", [4 x i8] }>
%"class.std::__1::unique_ptr.137" = type { %"class.std::__1::__compressed_pair.138" }
%"class.std::__1::__compressed_pair.138" = type { %"struct.std::__1::__compressed_pair_elem.139", %"struct.std::__1::__compressed_pair_elem.140" }
%"struct.std::__1::__compressed_pair_elem.139" = type { %"struct.std::__1::__hash_node_base"** }
%"struct.std::__1::__hash_node_base" = type { %"struct.std::__1::__hash_node_base"* }
%"struct.std::__1::__compressed_pair_elem.140" = type { %"class.std::__1::__bucket_list_deallocator" }
%"class.std::__1::__bucket_list_deallocator" = type { %"class.std::__1::__compressed_pair.141" }
%"class.std::__1::__compressed_pair.141" = type { %"struct.std::__1::__compressed_pair_elem.142" }
%"struct.std::__1::__compressed_pair_elem.142" = type { i64 }
%"class.std::__1::__compressed_pair.146" = type { %"struct.std::__1::__compressed_pair_elem.147" }
%"struct.std::__1::__compressed_pair_elem.147" = type { %"struct.std::__1::__hash_node_base" }
%"class.std::__1::__compressed_pair.151" = type { %"struct.std::__1::__compressed_pair_elem.142" }
%"class.std::__1::__compressed_pair.153" = type { %"struct.std::__1::__compressed_pair_elem.154" }
%"struct.std::__1::__compressed_pair_elem.154" = type { float }
%"struct.ruy::PMat" = type <{ float*, float*, %"struct.ruy::PMatLayout", i32, [4 x i8] }>
%"struct.ruy::Kernel" = type { i8 }
%"class.std::__1::chrono::duration.170" = type { i64 }
%union.pthread_condattr_t = type { i32 }
%union.pthread_mutexattr_t = type { i32 }
%union.pthread_attr_t = type { i64, [48 x i8] }
%"class.Eigen::DenseBase" = type { i8 }
%"struct.ruy::Mat.237" = type <{ %"class.ruy::detail::ConstCheckingPtr.233", %"struct.ruy::MatLayout", i8, i8, [6 x i8] }>
%"class.ruy::detail::ConstCheckingPtr.233" = type { i8* }
%"struct.ruy::Mat.238" = type <{ %"class.ruy::detail::ConstCheckingPtr.235", %"struct.ruy::MatLayout", i16, i8, [5 x i8] }>
%"class.ruy::detail::ConstCheckingPtr.235" = type { i16* }
%"class.ruy::MulParams.236" = type <{ i32*, i32, i32, i32*, i32*, i16, i16, [4 x i8] }>
%"class.gemmlowp::VectorDup" = type { i32, i32 }
%"class.gemmlowp::VectorDup.272" = type { i32, i32 }
%"class.gemmlowp::MatrixMap" = type <{ i8*, i32, i32, i32, [4 x i8] }>
%"class.gemmlowp::MatrixMap.258" = type <{ i8*, i32, i32, i32, [4 x i8] }>
%"class.gemmlowp::MatrixMap.260" = type <{ i16*, i32, i32, i32, [4 x i8] }>
%"class.std::__1::tuple" = type { %"struct.std::__1::__tuple_impl" }
%"struct.std::__1::__tuple_impl" = type { %"class.std::__1::__tuple_leaf", %"class.std::__1::__tuple_leaf.262", %"class.std::__1::__tuple_leaf.263", [4 x i8] }
%"class.std::__1::__tuple_leaf" = type { %"struct.gemmlowp::OutputStageBiasAddition" }
%"struct.gemmlowp::OutputStageBiasAddition" = type { %"class.gemmlowp::VectorMap" }
%"class.gemmlowp::VectorMap" = type <{ i32*, i32, [4 x i8] }>
%"class.std::__1::__tuple_leaf.262" = type { %"struct.gemmlowp::OutputStageScaleInt32ByFixedPointAndExponent" }
%"struct.gemmlowp::OutputStageScaleInt32ByFixedPointAndExponent" = type { i32, i32, i32 }
%"class.std::__1::__tuple_leaf.263" = type { %"struct.gemmlowp::OutputStageClamp" }
%"struct.gemmlowp::OutputStageClamp" = type { i32, i32 }
%"class.std::__1::tuple.265" = type { %"struct.std::__1::__tuple_impl.266" }
%"struct.std::__1::__tuple_impl.266" = type { %"class.std::__1::__tuple_leaf.267", %"class.std::__1::__tuple_leaf.268" }
%"class.std::__1::__tuple_leaf.267" = type { %"struct.gemmlowp::OutputStageScaleInt32ByFixedPointAndExponent" }
%"class.std::__1::__tuple_leaf.268" = type { %"struct.gemmlowp::OutputStageClamp" }
%"struct.ruy::KernelParams8bit" = type <{ i32*, i32*, i32*, i8*, i32*, i32*, i8*, i8*, i32, i32, i32, i32, i32, i32, i32, i32, i32, i32, i32, i32, i32, i32, i32, i32, i8, i8, [2 x i8], [16 x i32], [1024 x i8], [16 x i32], [16 x i32], [4 x i8] }>
%"struct.ruy::PMat.239" = type <{ i8*, i32*, %"struct.ruy::PMatLayout", i32, [4 x i8] }>
%"struct.ruy::Kernel.240" = type { i8 }
%"struct.ruy::KernelParams8bit.245" = type <{ i32*, i32*, i32*, i8*, i32*, i32*, i8*, i8*, i32, i32, i32, i32, i32, i32, i32, i32, i32, i32, i32, i32, i32, i32, i32, i32, i8, i8, [2 x i8], [8 x i32], [256 x i8], [8 x i32], [8 x i32], [4 x i8] }>
%"class.gemmlowp::MatrixMap.273" = type <{ i16*, i32, i32, i32, [4 x i8] }>
%"class.std::__1::tuple.275" = type { %"struct.std::__1::__tuple_impl.276" }
%"struct.std::__1::__tuple_impl.276" = type { %"class.std::__1::__tuple_leaf.277", %"class.std::__1::__tuple_leaf.262", %"class.std::__1::__tuple_leaf.263", [4 x i8] }
%"class.std::__1::__tuple_leaf.277" = type { %"struct.gemmlowp::OutputStageBiasAddition.278" }
%"struct.gemmlowp::OutputStageBiasAddition.278" = type { %"class.gemmlowp::VectorMap.279" }
%"class.gemmlowp::VectorMap.279" = type <{ i32*, i32, [4 x i8] }>
%"struct.gemmlowp::DefaultKernel" = type { %"struct.gemmlowp::DefaultKernelImpl" }
%"struct.gemmlowp::DefaultKernelImpl" = type { %"struct.gemmlowp::DefaultKernelImpl.282" }
%"struct.gemmlowp::DefaultKernelImpl.282" = type { %"struct.gemmlowp::ReferenceKernel" }
%"struct.gemmlowp::ReferenceKernel" = type { %"struct.gemmlowp::KernelBase" }
%"struct.gemmlowp::KernelBase" = type { i32 (...)** }
%"class.gemmlowp::SideMap" = type <{ i8*, i32, i32, i32, [4 x i8] }>
%"class.gemmlowp::PackSideBlockImpl" = type { %"class.gemmlowp::PackedSideBlock"*, %"class.gemmlowp::SideMap"* }
%"class.gemmlowp::PackedSideBlock" = type <{ %"struct.gemmlowp::SideBlockParams", %"class.gemmlowp::Allocator"*, %"class.gemmlowp::Allocator::Handle", %"class.gemmlowp::Allocator::Handle", i32, [4 x i8] }>
%"struct.gemmlowp::SideBlockParams" = type { i32, i32, i32, i32 }
%"class.gemmlowp::Allocator::Handle" = type <{ i8, [7 x i8], i64, i8, [7 x i8] }>
%"struct.gemmlowp::BlockParams" = type { i32, i32, i32, i32, i32, i32 }
%"class.std::__1::vector.283" = type { %"class.std::__1::__vector_base.284" }
%"class.std::__1::__vector_base.284" = type { %"struct.gemmlowp::Task"**, %"struct.gemmlowp::Task"**, %"class.std::__1::__compressed_pair.285" }
%"class.std::__1::__compressed_pair.285" = type { %"struct.std::__1::__compressed_pair_elem.286" }
%"struct.std::__1::__compressed_pair_elem.286" = type { %"struct.gemmlowp::Task"** }
%"class.gemmlowp::SingleThreadGemmContext" = type <{ %"class.gemmlowp::Allocator", i32, i32, float, [4 x i8] }>
%"class.gemmlowp::ComputeImpl" = type { %"struct.gemmlowp::KernelBase"*, %"struct.gemmlowp::BlockParams"*, %"class.gemmlowp::PackedResult"*, %"class.gemmlowp::PackedSideBlock"*, %"class.gemmlowp::PackedSideBlock"* }
%"class.gemmlowp::PackedResult" = type { %"class.gemmlowp::Allocator"*, %"class.gemmlowp::Allocator::Handle", %"struct.gemmlowp::BlockParams"* }
%"struct.gemmlowp::MatrixBlockBounds" = type { i32, i32, i32, i32 }
%"struct.gemmlowp::RegisterBlock" = type { %"struct.gemmlowp::RegisterBuffer" }
%"struct.gemmlowp::RegisterBuffer" = type { [64 x i16] }
%"class.gemmlowp::MatrixMap.292" = type <{ i32*, i32, i32, i32, [4 x i8] }>
%"struct.gemmlowp::OutputPipelineExecutor" = type { %"struct.gemmlowp::OutputPipelineEvalImpl" }
%"struct.gemmlowp::OutputPipelineEvalImpl" = type { %"struct.gemmlowp::OutputStageEvalImpl", %"struct.gemmlowp::OutputPipelineEvalImpl.294" }
%"struct.gemmlowp::OutputStageEvalImpl" = type { %"struct.gemmlowp::OutputStageBiasAddition.278"* }
%"struct.gemmlowp::OutputPipelineEvalImpl.294" = type { %"struct.gemmlowp::OutputStageEvalImpl.295", %"struct.gemmlowp::OutputPipelineEvalImpl.296" }
%"struct.gemmlowp::OutputStageEvalImpl.295" = type { %"struct.gemmlowp::OutputStageEvalBufferImpl" }
%"struct.gemmlowp::OutputStageEvalBufferImpl" = type { %"struct.gemmlowp::OutputStageScaleInt32ByFixedPointAndExponent"*, i32, i32 }
%"struct.gemmlowp::OutputPipelineEvalImpl.296" = type <{ %"struct.gemmlowp::OutputStageEvalImpl.297", %"struct.gemmlowp::OutputPipelineEvalImpl.299", [6 x i8] }>
%"struct.gemmlowp::OutputStageEvalImpl.297" = type { %"struct.gemmlowp::OutputStageEvalBufferImpl.298" }
%"struct.gemmlowp::OutputStageEvalBufferImpl.298" = type { %"struct.gemmlowp::OutputStageClamp"* }
%"struct.gemmlowp::OutputPipelineEvalImpl.299" = type { %"struct.gemmlowp::OutputStageEvalImpl.300", %"struct.gemmlowp::OutputPipelineEvalImpl.302" }
%"struct.gemmlowp::OutputStageEvalImpl.300" = type { %"struct.gemmlowp::OutputStageEvalBufferImpl.301" }
%"struct.gemmlowp::OutputStageEvalBufferImpl.301" = type { i8 }
%"struct.gemmlowp::OutputPipelineEvalImpl.302" = type { i8 }
%"struct.gemmlowp::OutputPipelineExecutor.304" = type { %"struct.gemmlowp::OutputPipelineEvalImpl.305" }
%"struct.gemmlowp::OutputPipelineEvalImpl.305" = type { %"struct.gemmlowp::OutputStageEvalImpl.306", %"struct.gemmlowp::OutputPipelineEvalImpl.307" }
%"struct.gemmlowp::OutputStageEvalImpl.306" = type { %"struct.gemmlowp::OutputStageBiasAddition.278"* }
%"struct.gemmlowp::OutputPipelineEvalImpl.307" = type { %"struct.gemmlowp::OutputStageEvalImpl.308", %"struct.gemmlowp::OutputPipelineEvalImpl.310" }
%"struct.gemmlowp::OutputStageEvalImpl.308" = type { %"struct.gemmlowp::OutputStageEvalBufferImpl.309" }
%"struct.gemmlowp::OutputStageEvalBufferImpl.309" = type { %"struct.gemmlowp::OutputStageScaleInt32ByFixedPointAndExponent"*, i32, i32 }
%"struct.gemmlowp::OutputPipelineEvalImpl.310" = type <{ %"struct.gemmlowp::OutputStageEvalImpl.311", %"struct.gemmlowp::OutputPipelineEvalImpl.313", [6 x i8] }>
%"struct.gemmlowp::OutputStageEvalImpl.311" = type { %"struct.gemmlowp::OutputStageEvalBufferImpl.312" }
%"struct.gemmlowp::OutputStageEvalBufferImpl.312" = type { %"struct.gemmlowp::OutputStageClamp"* }
%"struct.gemmlowp::OutputPipelineEvalImpl.313" = type { %"struct.gemmlowp::OutputStageEvalImpl.314", %"struct.gemmlowp::OutputPipelineEvalImpl.317" }
%"struct.gemmlowp::OutputStageEvalImpl.314" = type { %"struct.gemmlowp::OutputStageEvalBufferImpl.315" }
%"struct.gemmlowp::OutputStageEvalBufferImpl.315" = type { i8 }
%"struct.gemmlowp::OutputPipelineEvalImpl.317" = type { i8 }
%"struct.gemmlowp::OutputPipelineExecutor.320" = type { %"struct.gemmlowp::OutputPipelineEvalImpl.321" }
%"struct.gemmlowp::OutputPipelineEvalImpl.321" = type { %"struct.gemmlowp::OutputStageEvalImpl.322", %"struct.gemmlowp::OutputPipelineEvalImpl.323" }
%"struct.gemmlowp::OutputStageEvalImpl.322" = type { %"struct.gemmlowp::OutputStageBiasAddition.278"* }
%"struct.gemmlowp::OutputPipelineEvalImpl.323" = type { %"struct.gemmlowp::OutputStageEvalImpl.324", %"struct.gemmlowp::OutputPipelineEvalImpl.326" }
%"struct.gemmlowp::OutputStageEvalImpl.324" = type { %"struct.gemmlowp::OutputStageEvalBufferImpl.325" }
%"struct.gemmlowp::OutputStageEvalBufferImpl.325" = type { %"struct.gemmlowp::OutputStageScaleInt32ByFixedPointAndExponent"*, i32, i32 }
%"struct.gemmlowp::OutputPipelineEvalImpl.326" = type <{ %"struct.gemmlowp::OutputStageEvalImpl.327", %"struct.gemmlowp::OutputPipelineEvalImpl.329", [6 x i8] }>
%"struct.gemmlowp::OutputStageEvalImpl.327" = type { %"struct.gemmlowp::OutputStageEvalBufferImpl.328" }
%"struct.gemmlowp::OutputStageEvalBufferImpl.328" = type { %"struct.gemmlowp::OutputStageClamp"* }
%"struct.gemmlowp::OutputPipelineEvalImpl.329" = type { %"struct.gemmlowp::OutputStageEvalImpl.330", %"struct.gemmlowp::OutputPipelineEvalImpl.333" }
%"struct.gemmlowp::OutputStageEvalImpl.330" = type { %"struct.gemmlowp::OutputStageEvalBufferImpl.331" }
%"struct.gemmlowp::OutputStageEvalBufferImpl.331" = type { i8 }
%"struct.gemmlowp::OutputPipelineEvalImpl.333" = type { i8 }
%"struct.gemmlowp::OutputPipelineExecutor.336" = type { %"struct.gemmlowp::OutputPipelineEvalImpl.337" }
%"struct.gemmlowp::OutputPipelineEvalImpl.337" = type { %"struct.gemmlowp::OutputStageEvalImpl.338", %"struct.gemmlowp::OutputPipelineEvalImpl.339" }
%"struct.gemmlowp::OutputStageEvalImpl.338" = type { %"struct.gemmlowp::OutputStageBiasAddition.278"* }
%"struct.gemmlowp::OutputPipelineEvalImpl.339" = type { %"struct.gemmlowp::OutputStageEvalImpl.340", %"struct.gemmlowp::OutputPipelineEvalImpl.341" }
%"struct.gemmlowp::OutputStageEvalImpl.340" = type { %"struct.gemmlowp::OutputStageEvalBufferImpl.309" }
%"struct.gemmlowp::OutputPipelineEvalImpl.341" = type <{ %"struct.gemmlowp::OutputStageEvalImpl.342", %"struct.gemmlowp::OutputPipelineEvalImpl.343", [6 x i8] }>
%"struct.gemmlowp::OutputStageEvalImpl.342" = type { %"struct.gemmlowp::OutputStageEvalBufferImpl.312" }
%"struct.gemmlowp::OutputPipelineEvalImpl.343" = type { %"struct.gemmlowp::OutputStageEvalImpl.344", %"struct.gemmlowp::OutputPipelineEvalImpl.345" }
%"struct.gemmlowp::OutputStageEvalImpl.344" = type { %"struct.gemmlowp::OutputStageEvalBufferImpl.315" }
%"struct.gemmlowp::OutputPipelineEvalImpl.345" = type { i8 }
%"struct.gemmlowp::OutputPipelineExecutor.348" = type { %"struct.gemmlowp::OutputPipelineEvalImpl.349" }
%"struct.gemmlowp::OutputPipelineEvalImpl.349" = type { %"struct.gemmlowp::OutputStageEvalImpl.350", %"struct.gemmlowp::OutputPipelineEvalImpl.351" }
%"struct.gemmlowp::OutputStageEvalImpl.350" = type { %"struct.gemmlowp::OutputStageBiasAddition.278"* }
%"struct.gemmlowp::OutputPipelineEvalImpl.351" = type { %"struct.gemmlowp::OutputStageEvalImpl.352", %"struct.gemmlowp::OutputPipelineEvalImpl.354" }
%"struct.gemmlowp::OutputStageEvalImpl.352" = type { %"struct.gemmlowp::OutputStageEvalBufferImpl.353" }
%"struct.gemmlowp::OutputStageEvalBufferImpl.353" = type { %"struct.gemmlowp::OutputStageScaleInt32ByFixedPointAndExponent"*, i32, i32 }
%"struct.gemmlowp::OutputPipelineEvalImpl.354" = type <{ %"struct.gemmlowp::OutputStageEvalImpl.355", %"struct.gemmlowp::OutputPipelineEvalImpl.357", [6 x i8] }>
%"struct.gemmlowp::OutputStageEvalImpl.355" = type { %"struct.gemmlowp::OutputStageEvalBufferImpl.356" }
%"struct.gemmlowp::OutputStageEvalBufferImpl.356" = type { %"struct.gemmlowp::OutputStageClamp"* }
%"struct.gemmlowp::OutputPipelineEvalImpl.357" = type { %"struct.gemmlowp::OutputStageEvalImpl.358", %"struct.gemmlowp::OutputPipelineEvalImpl.361" }
%"struct.gemmlowp::OutputStageEvalImpl.358" = type { %"struct.gemmlowp::OutputStageEvalBufferImpl.359" }
%"struct.gemmlowp::OutputStageEvalBufferImpl.359" = type { i8 }
%"struct.gemmlowp::OutputPipelineEvalImpl.361" = type { i8 }
%"struct.gemmlowp::OutputPipelineExecutor.364" = type { %"struct.gemmlowp::OutputPipelineEvalImpl.365" }
%"struct.gemmlowp::OutputPipelineEvalImpl.365" = type { %"struct.gemmlowp::OutputStageEvalImpl.366", %"struct.gemmlowp::OutputPipelineEvalImpl.367" }
%"struct.gemmlowp::OutputStageEvalImpl.366" = type { %"struct.gemmlowp::OutputStageBiasAddition.278"* }
%"struct.gemmlowp::OutputPipelineEvalImpl.367" = type { %"struct.gemmlowp::OutputStageEvalImpl.368", %"struct.gemmlowp::OutputPipelineEvalImpl.370" }
%"struct.gemmlowp::OutputStageEvalImpl.368" = type { %"struct.gemmlowp::OutputStageEvalBufferImpl.369" }
%"struct.gemmlowp::OutputStageEvalBufferImpl.369" = type { %"struct.gemmlowp::OutputStageScaleInt32ByFixedPointAndExponent"*, i32, i32 }
%"struct.gemmlowp::OutputPipelineEvalImpl.370" = type <{ %"struct.gemmlowp::OutputStageEvalImpl.371", %"struct.gemmlowp::OutputPipelineEvalImpl.373", [6 x i8] }>
%"struct.gemmlowp::OutputStageEvalImpl.371" = type { %"struct.gemmlowp::OutputStageEvalBufferImpl.372" }
%"struct.gemmlowp::OutputStageEvalBufferImpl.372" = type { %"struct.gemmlowp::OutputStageClamp"* }
%"struct.gemmlowp::OutputPipelineEvalImpl.373" = type { %"struct.gemmlowp::OutputStageEvalImpl.374", %"struct.gemmlowp::OutputPipelineEvalImpl.377" }
%"struct.gemmlowp::OutputStageEvalImpl.374" = type { %"struct.gemmlowp::OutputStageEvalBufferImpl.375" }
%"struct.gemmlowp::OutputStageEvalBufferImpl.375" = type { i8 }
%"struct.gemmlowp::OutputPipelineEvalImpl.377" = type { i8 }
%"class.gemmlowp::PackingRegisterBlock" = type { %"class.gemmlowp::PackingRegisterBlockBase" }
%"class.gemmlowp::PackingRegisterBlockBase" = type { %"class.gemmlowp::SideMap", [64 x i8] }
%"struct.gemmlowp::RegisterBlock.380" = type { %"struct.gemmlowp::RegisterBuffer.381" }
%"struct.gemmlowp::RegisterBuffer.381" = type { [32 x i32] }
%"struct.gemmlowp::RegisterBlock.393" = type { %"struct.gemmlowp::RegisterBuffer.394" }
%"struct.gemmlowp::RegisterBuffer.394" = type { [16 x i16] }
%"struct.gemmlowp::RegisterBlock.390" = type { %"struct.gemmlowp::RegisterBuffer.391" }
%"struct.gemmlowp::RegisterBuffer.391" = type { [16 x i32] }
%"struct.gemmlowp::RegisterBlock.382" = type { %"struct.gemmlowp::RegisterBuffer.383" }
%"struct.gemmlowp::RegisterBuffer.383" = type { [8 x i32] }
%"struct.gemmlowp::RegisterBlock.388" = type { %"struct.gemmlowp::RegisterBuffer.389" }
%"struct.gemmlowp::RegisterBuffer.389" = type { [32 x i16] }
%"struct.gemmlowp::GemmWithPackedRhsTask" = type { %"struct.gemmlowp::Task", %"class.gemmlowp::GemmContext"*, %"struct.gemmlowp::KernelBase"*, %"class.gemmlowp::MatrixMap", %"class.gemmlowp::PackedSideBlock", %"class.gemmlowp::MatrixMap.273", %"struct.gemmlowp::MatrixBlockBounds", %"class.gemmlowp::VectorDup.272"*, %"class.gemmlowp::VectorDup"*, %"struct.gemmlowp::BlockParams"*, %"class.std::__1::tuple.275"* }
%"struct.gemmlowp::OutputPipelineExecutor.407" = type { %"struct.gemmlowp::OutputPipelineEvalImpl.408" }
%"struct.gemmlowp::OutputPipelineEvalImpl.408" = type { %"struct.gemmlowp::OutputStageEvalImpl.409", %"struct.gemmlowp::OutputPipelineEvalImpl.410" }
%"struct.gemmlowp::OutputStageEvalImpl.409" = type { %"struct.gemmlowp::OutputStageBiasAddition"* }
%"struct.gemmlowp::OutputPipelineEvalImpl.410" = type { %"struct.gemmlowp::OutputStageEvalImpl.295", %"struct.gemmlowp::OutputPipelineEvalImpl.411" }
%"struct.gemmlowp::OutputPipelineEvalImpl.411" = type <{ %"struct.gemmlowp::OutputStageEvalImpl.297", %"struct.gemmlowp::OutputPipelineEvalImpl.412", [6 x i8] }>
%"struct.gemmlowp::OutputPipelineEvalImpl.412" = type { %"struct.gemmlowp::OutputStageEvalImpl.300", %"struct.gemmlowp::OutputPipelineEvalImpl.413" }
%"struct.gemmlowp::OutputPipelineEvalImpl.413" = type { i8 }
%"struct.gemmlowp::OutputPipelineExecutor.416" = type { %"struct.gemmlowp::OutputPipelineEvalImpl.417" }
%"struct.gemmlowp::OutputPipelineEvalImpl.417" = type { %"struct.gemmlowp::OutputStageEvalImpl.418", %"struct.gemmlowp::OutputPipelineEvalImpl.419" }
%"struct.gemmlowp::OutputStageEvalImpl.418" = type { %"struct.gemmlowp::OutputStageBiasAddition"* }
%"struct.gemmlowp::OutputPipelineEvalImpl.419" = type { %"struct.gemmlowp::OutputStageEvalImpl.308", %"struct.gemmlowp::OutputPipelineEvalImpl.420" }
%"struct.gemmlowp::OutputPipelineEvalImpl.420" = type <{ %"struct.gemmlowp::OutputStageEvalImpl.311", %"struct.gemmlowp::OutputPipelineEvalImpl.421", [6 x i8] }>
%"struct.gemmlowp::OutputPipelineEvalImpl.421" = type { %"struct.gemmlowp::OutputStageEvalImpl.314", %"struct.gemmlowp::OutputPipelineEvalImpl.422" }
%"struct.gemmlowp::OutputPipelineEvalImpl.422" = type { i8 }
%"struct.gemmlowp::OutputPipelineExecutor.425" = type { %"struct.gemmlowp::OutputPipelineEvalImpl.426" }
%"struct.gemmlowp::OutputPipelineEvalImpl.426" = type { %"struct.gemmlowp::OutputStageEvalImpl.427", %"struct.gemmlowp::OutputPipelineEvalImpl.428" }
%"struct.gemmlowp::OutputStageEvalImpl.427" = type { %"struct.gemmlowp::OutputStageBiasAddition"* }
%"struct.gemmlowp::OutputPipelineEvalImpl.428" = type { %"struct.gemmlowp::OutputStageEvalImpl.324", %"struct.gemmlowp::OutputPipelineEvalImpl.429" }
%"struct.gemmlowp::OutputPipelineEvalImpl.429" = type <{ %"struct.gemmlowp::OutputStageEvalImpl.327", %"struct.gemmlowp::OutputPipelineEvalImpl.430", [6 x i8] }>
%"struct.gemmlowp::OutputPipelineEvalImpl.430" = type { %"struct.gemmlowp::OutputStageEvalImpl.330", %"struct.gemmlowp::OutputPipelineEvalImpl.431" }
%"struct.gemmlowp::OutputPipelineEvalImpl.431" = type { i8 }
%"struct.gemmlowp::OutputPipelineExecutor.434" = type { %"struct.gemmlowp::OutputPipelineEvalImpl.435" }
%"struct.gemmlowp::OutputPipelineEvalImpl.435" = type { %"struct.gemmlowp::OutputStageEvalImpl.436", %"struct.gemmlowp::OutputPipelineEvalImpl.437" }
%"struct.gemmlowp::OutputStageEvalImpl.436" = type { %"struct.gemmlowp::OutputStageBiasAddition"* }
%"struct.gemmlowp::OutputPipelineEvalImpl.437" = type { %"struct.gemmlowp::OutputStageEvalImpl.340", %"struct.gemmlowp::OutputPipelineEvalImpl.438" }
%"struct.gemmlowp::OutputPipelineEvalImpl.438" = type <{ %"struct.gemmlowp::OutputStageEvalImpl.342", %"struct.gemmlowp::OutputPipelineEvalImpl.439", [6 x i8] }>
%"struct.gemmlowp::OutputPipelineEvalImpl.439" = type { %"struct.gemmlowp::OutputStageEvalImpl.344", %"struct.gemmlowp::OutputPipelineEvalImpl.440" }
%"struct.gemmlowp::OutputPipelineEvalImpl.440" = type { i8 }
%"struct.gemmlowp::OutputPipelineExecutor.443" = type { %"struct.gemmlowp::OutputPipelineEvalImpl.444" }
%"struct.gemmlowp::OutputPipelineEvalImpl.444" = type { %"struct.gemmlowp::OutputStageEvalImpl.445", %"struct.gemmlowp::OutputPipelineEvalImpl.446" }
%"struct.gemmlowp::OutputStageEvalImpl.445" = type { %"struct.gemmlowp::OutputStageBiasAddition"* }
%"struct.gemmlowp::OutputPipelineEvalImpl.446" = type { %"struct.gemmlowp::OutputStageEvalImpl.352", %"struct.gemmlowp::OutputPipelineEvalImpl.447" }
%"struct.gemmlowp::OutputPipelineEvalImpl.447" = type <{ %"struct.gemmlowp::OutputStageEvalImpl.355", %"struct.gemmlowp::OutputPipelineEvalImpl.448", [6 x i8] }>
%"struct.gemmlowp::OutputPipelineEvalImpl.448" = type { %"struct.gemmlowp::OutputStageEvalImpl.358", %"struct.gemmlowp::OutputPipelineEvalImpl.449" }
%"struct.gemmlowp::OutputPipelineEvalImpl.449" = type { i8 }
%"struct.gemmlowp::OutputPipelineExecutor.452" = type { %"struct.gemmlowp::OutputPipelineEvalImpl.453" }
%"struct.gemmlowp::OutputPipelineEvalImpl.453" = type { %"struct.gemmlowp::OutputStageEvalImpl.454", %"struct.gemmlowp::OutputPipelineEvalImpl.455" }
%"struct.gemmlowp::OutputStageEvalImpl.454" = type { %"struct.gemmlowp::OutputStageBiasAddition"* }
%"struct.gemmlowp::OutputPipelineEvalImpl.455" = type { %"struct.gemmlowp::OutputStageEvalImpl.368", %"struct.gemmlowp::OutputPipelineEvalImpl.456" }
%"struct.gemmlowp::OutputPipelineEvalImpl.456" = type <{ %"struct.gemmlowp::OutputStageEvalImpl.371", %"struct.gemmlowp::OutputPipelineEvalImpl.457", [6 x i8] }>
%"struct.gemmlowp::OutputPipelineEvalImpl.457" = type { %"struct.gemmlowp::OutputStageEvalImpl.374", %"struct.gemmlowp::OutputPipelineEvalImpl.458" }
%"struct.gemmlowp::OutputPipelineEvalImpl.458" = type { i8 }
%"struct.gemmlowp::GemmWithPackedRhsTask.406" = type { %"struct.gemmlowp::Task", %"class.gemmlowp::GemmContext"*, %"struct.gemmlowp::KernelBase"*, %"class.gemmlowp::MatrixMap", %"class.gemmlowp::PackedSideBlock", %"class.gemmlowp::MatrixMap.260", %"struct.gemmlowp::MatrixBlockBounds", %"class.gemmlowp::VectorDup"*, %"class.gemmlowp::VectorDup.272"*, %"struct.gemmlowp::BlockParams"*, %"class.std::__1::tuple"* }
%"struct.gemmlowp::OutputPipelineExecutor.471" = type { %"struct.gemmlowp::OutputPipelineEvalImpl.472" }
%"struct.gemmlowp::OutputPipelineEvalImpl.472" = type { %"struct.gemmlowp::OutputStageEvalImpl.308", %"struct.gemmlowp::OutputPipelineEvalImpl.473" }
%"struct.gemmlowp::OutputPipelineEvalImpl.473" = type <{ %"struct.gemmlowp::OutputStageEvalImpl.311", %"struct.gemmlowp::OutputPipelineEvalImpl.474", [6 x i8] }>
%"struct.gemmlowp::OutputPipelineEvalImpl.474" = type { %"struct.gemmlowp::OutputStageEvalImpl.314", %"struct.gemmlowp::OutputPipelineEvalImpl.475" }
%"struct.gemmlowp::OutputPipelineEvalImpl.475" = type { i8 }
%"struct.gemmlowp::OutputPipelineExecutor.478" = type { %"struct.gemmlowp::OutputPipelineEvalImpl.479" }
%"struct.gemmlowp::OutputPipelineEvalImpl.479" = type { %"struct.gemmlowp::OutputStageEvalImpl.324", %"struct.gemmlowp::OutputPipelineEvalImpl.480" }
%"struct.gemmlowp::OutputPipelineEvalImpl.480" = type <{ %"struct.gemmlowp::OutputStageEvalImpl.327", %"struct.gemmlowp::OutputPipelineEvalImpl.481", [6 x i8] }>
%"struct.gemmlowp::OutputPipelineEvalImpl.481" = type { %"struct.gemmlowp::OutputStageEvalImpl.330", %"struct.gemmlowp::OutputPipelineEvalImpl.482" }
%"struct.gemmlowp::OutputPipelineEvalImpl.482" = type { i8 }
%"struct.gemmlowp::OutputPipelineExecutor.485" = type { %"struct.gemmlowp::OutputPipelineEvalImpl.486" }
%"struct.gemmlowp::OutputPipelineEvalImpl.486" = type { %"struct.gemmlowp::OutputStageEvalImpl.340", %"struct.gemmlowp::OutputPipelineEvalImpl.487" }
%"struct.gemmlowp::OutputPipelineEvalImpl.487" = type <{ %"struct.gemmlowp::OutputStageEvalImpl.342", %"struct.gemmlowp::OutputPipelineEvalImpl.488", [6 x i8] }>
%"struct.gemmlowp::OutputPipelineEvalImpl.488" = type { %"struct.gemmlowp::OutputStageEvalImpl.344", %"struct.gemmlowp::OutputPipelineEvalImpl.489" }
%"struct.gemmlowp::OutputPipelineEvalImpl.489" = type { i8 }
%"struct.gemmlowp::OutputPipelineExecutor.492" = type { %"struct.gemmlowp::OutputPipelineEvalImpl.493" }
%"struct.gemmlowp::OutputPipelineEvalImpl.493" = type { %"struct.gemmlowp::OutputStageEvalImpl.352", %"struct.gemmlowp::OutputPipelineEvalImpl.494" }
%"struct.gemmlowp::OutputPipelineEvalImpl.494" = type <{ %"struct.gemmlowp::OutputStageEvalImpl.355", %"struct.gemmlowp::OutputPipelineEvalImpl.495", [6 x i8] }>
%"struct.gemmlowp::OutputPipelineEvalImpl.495" = type { %"struct.gemmlowp::OutputStageEvalImpl.358", %"struct.gemmlowp::OutputPipelineEvalImpl.496" }
%"struct.gemmlowp::OutputPipelineEvalImpl.496" = type { i8 }
%"struct.gemmlowp::OutputPipelineExecutor.499" = type { %"struct.gemmlowp::OutputPipelineEvalImpl.500" }
%"struct.gemmlowp::OutputPipelineEvalImpl.500" = type { %"struct.gemmlowp::OutputStageEvalImpl.368", %"struct.gemmlowp::OutputPipelineEvalImpl.501" }
%"struct.gemmlowp::OutputPipelineEvalImpl.501" = type <{ %"struct.gemmlowp::OutputStageEvalImpl.371", %"struct.gemmlowp::OutputPipelineEvalImpl.502", [6 x i8] }>
%"struct.gemmlowp::OutputPipelineEvalImpl.502" = type { %"struct.gemmlowp::OutputStageEvalImpl.374", %"struct.gemmlowp::OutputPipelineEvalImpl.503" }
%"struct.gemmlowp::OutputPipelineEvalImpl.503" = type { i8 }
%"struct.gemmlowp::GemmWithPackedRhsTask.463" = type { %"struct.gemmlowp::Task", %"class.gemmlowp::GemmContext"*, %"struct.gemmlowp::KernelBase"*, %"class.gemmlowp::MatrixMap", %"class.gemmlowp::PackedSideBlock", %"class.gemmlowp::MatrixMap.273", %"struct.gemmlowp::MatrixBlockBounds", %"class.gemmlowp::VectorDup.272"*, %"class.gemmlowp::VectorDup"*, %"struct.gemmlowp::BlockParams"*, %"class.std::__1::tuple.265"* }
%"struct.gemmlowp::GemmWithPackedRhsTask.506" = type { %"struct.gemmlowp::Task", %"class.gemmlowp::GemmContext"*, %"struct.gemmlowp::KernelBase"*, %"class.gemmlowp::MatrixMap", %"class.gemmlowp::PackedSideBlock", %"class.gemmlowp::MatrixMap.260", %"struct.gemmlowp::MatrixBlockBounds", %"class.gemmlowp::VectorDup"*, %"class.gemmlowp::VectorDup.272"*, %"struct.gemmlowp::BlockParams"*, %"class.std::__1::tuple.265"* }

$_ZN6tflite13optimized_ops8LstmCellERKNS_14LstmCellParamsERKNS_12RuntimeShapeEPKfS6_S8_S6_S8_S6_S8_S6_S8_S6_PfS6_S9_S6_S9_S6_S9_PNS_17CpuBackendContextE = comdat any

$_ZN6tflite13optimized_ops8LstmCellILi4EEEvRKNS_14LstmCellParamsERKNS_12RuntimeShapeEPKhS7_S9_S7_S9_S7_PKiS7_PKsS7_PsS7_PhS7_SF_S7_SE_PNS_17CpuBackendContextE = comdat any

$_ZN6tflite11MatchingDimIJNS_12RuntimeShapeEiS1_iS1_iEEEiRKS1_iS3_iDpT_ = comdat any

$_ZN6tflite13optimized_ops14FullyConnectedERKNS_20FullyConnectedParamsERKNS_12RuntimeShapeEPKfS6_S8_S6_S8_S6_PfPNS_17CpuBackendContextE = comdat any

$_ZN6tflite16cpu_backend_gemm6detail16GemmImplUsingRuyIffffLNS0_18QuantizationFlavorE0EE3RunERKNS0_12MatrixParamsIfEEPKfS8_SA_S8_PfRKNS0_10GemmParamsIffLS3_0EEEPNS_17CpuBackendContextE = comdat any

$_ZN3ruy11DispatchMulILNS_4PathE26EfffNS_9MulParamsIffEEEEvRKNS_3MatIT0_EERKNS4_IT1_EERKT3_PNS_3CtxEPNS4_IT2_EE = comdat any

$_ZN3ruy22HandlePrepackedCachingEPNS_11TrMulParamsEPNS_3CtxE = comdat any

$_ZN3ruy7RunPackILNS_4PathE16ENS_17FixedKernelLayoutILNS_5OrderE1ELi1ELi16EEEffEEvNS_6TuningERKNS_4EMatEPNS_5PEMatEii = comdat any

$_ZN3ruy9RunKernelILNS_4PathE16EfffNS_9MulParamsIffEEEEvNS_6TuningERKNS_8SidePairINS_5PEMatEEEPvRKNS5_IiEESD_PNS_4EMatE = comdat any

$_ZN3ruy7RunPackILNS_4PathE2ENS_17FixedKernelLayoutILNS_5OrderE0ELi1ELi1EEEffEEvNS_6TuningERKNS_4EMatEPNS_5PEMatEii = comdat any

$_ZN3ruy9RunKernelILNS_4PathE2EfffNS_9MulParamsIffEEEEvNS_6TuningERKNS_8SidePairINS_5PEMatEEEPvRKNS5_IiEESD_PNS_4EMatE = comdat any

$_ZN3ruy8PackImplILNS_4PathE2ENS_17FixedKernelLayoutILNS_5OrderE0ELi1ELi1EEEfffE3RunENS_6TuningERKNS_3MatIfEEPNS_4PMatIfEEii = comdat any

$_ZNK3ruy6KernelILNS_4PathE2EfffNS_9MulParamsIffEEE3RunERKNS_4PMatIfEES8_RKS3_iiiiPNS_3MatIfEE = comdat any

$_ZN3ruy27PathSearchOnlyCompiledPathsILNS_4PathE26ELb1ELi3EfffNS_9MulParamsIffEEE6SearchES1_PNS_11TrMulParamsE = comdat any

$_ZN3ruy19PopulateTrMulParamsILNS_4PathE8EfffNS_9MulParamsIffEEEEvPNS_11TrMulParamsE = comdat any

$_ZN3ruy7RunPackILNS_4PathE8ENS_17FixedKernelLayoutILNS_5OrderE1ELi1ELi8EEEffEEvNS_6TuningERKNS_4EMatEPNS_5PEMatEii = comdat any

$_ZN3ruy9RunKernelILNS_4PathE8EfffNS_9MulParamsIffEEEEvNS_6TuningERKNS_8SidePairINS_5PEMatEEEPvRKNS5_IiEESD_PNS_4EMatE = comdat any

$_ZN8gemmlowp11WorkersPool13CreateWorkersEm = comdat any

$_ZN8gemmlowp6Worker10ThreadFuncEPv = comdat any

$_ZN8gemmlowp6Worker10ThreadFuncEv = comdat any

$_ZN5Eigen8internal21dense_assignment_loopINS0_31generic_dense_assignment_kernelINS0_9evaluatorINS_3MapINS_5ArrayIfLin1ELin1ELi0ELin1ELin1EEELi0ENS_6StrideILi0ELi0EEEEEEENS3_INS_13CwiseBinaryOpINS0_13scalar_sum_opIffEEKNSB_INS0_17scalar_product_opIffEEKNS_12CwiseUnaryOpINS0_18scalar_logistic_opIfEEKNS_5BlockIS9_Lin1ELin1ELb0EEEEEKNSG_INS0_14scalar_tanh_opIfEESL_EEEEKNSB_ISF_SN_KNS4_IKS6_Li0ES8_EEEEEEEENS0_9assign_opIffEELi0EEELi4ELi0EE3runERS13_ = comdat any

$_ZNK5Eigen8internal16binary_evaluatorINS_13CwiseBinaryOpINS0_13scalar_sum_opIffEEKNS2_INS0_17scalar_product_opIffEEKNS_12CwiseUnaryOpINS0_18scalar_logistic_opIfEEKNS_5BlockINS_3MapINS_5ArrayIfLin1ELin1ELi0ELin1ELin1EEELi0ENS_6StrideILi0ELi0EEEEELin1ELin1ELb0EEEEEKNS7_INS0_14scalar_tanh_opIfEESI_EEEEKNS2_IS6_SK_KNSB_IKSD_Li0ESF_EEEEEENS0_10IndexBasedESX_ffE5coeffEll = comdat any

$_ZN5Eigen8internal21dense_assignment_loopINS0_31generic_dense_assignment_kernelINS0_9evaluatorINS_3MapINS_5ArrayIfLin1ELin1ELi0ELin1ELin1EEELi0ENS_6StrideILi0ELi0EEEEEEENS3_INS_13CwiseBinaryOpINS0_17scalar_product_opIffEEKNS_12CwiseUnaryOpINS0_18scalar_logistic_opIfEEKNS_5BlockIS9_Lin1ELin1ELb0EEEEEKNSE_INS0_14scalar_tanh_opIfEEKS9_EEEEEENS0_9assign_opIffEELi0EEELi4ELi0EE3runERSV_ = comdat any

$_ZN5Eigen8internal31generic_dense_assignment_kernelINS0_9evaluatorINS_3MapINS_5ArrayIfLin1ELin1ELi0ELin1ELin1EEELi0ENS_6StrideILi0ELi0EEEEEEENS2_INS_13CwiseBinaryOpINS0_17scalar_product_opIffEEKNS_12CwiseUnaryOpINS0_18scalar_logistic_opIfEEKNS_5BlockIS8_Lin1ELin1ELb0EEEEEKNSD_INS0_14scalar_tanh_opIfEEKS8_EEEEEENS0_9assign_opIffEELi0EE23assignCoeffByOuterInnerEll = comdat any

$_ZN6tflite3ops7builtin9lstm_eval20IntegerLstmParameterD2Ev = comdat any

$_ZN6tflite16cpu_backend_gemm6detail16GemmImplUsingRuyIhhisLNS0_18QuantizationFlavorE1EE3RunERKNS0_12MatrixParamsIhEEPKhS8_SA_RKNS5_IsEEPsRKNS0_10GemmParamsIisLS3_1EEEPNS_17CpuBackendContextE = comdat any

$_ZN6tflite16cpu_backend_gemm6detail21GemmImplUsingGemmlowpIhhisLNS0_18QuantizationFlavorE1EE3RunERKNS0_12MatrixParamsIhEEPKhS8_SA_RKNS5_IsEEPsRKNS0_10GemmParamsIisLS3_1EEEPNS_17CpuBackendContextE = comdat any

$_ZN3ruy11DispatchMulILNS_4PathE26EhhsNS_9MulParamsIisEEEEvRKNS_3MatIT0_EERKNS4_IT1_EERKT3_PNS_3CtxEPNS4_IT2_EE = comdat any

$_ZN3ruy17CreateTrMulParamsILNS_4PathE26EhhsNS_9MulParamsIisEEEEvRKNS_3MatIT0_EERKNS4_IT1_EERKT3_PNS4_IT2_EES1_PNS_11TrMulParamsE = comdat any

$_ZN3ruy19PopulateTrMulParamsILNS_4PathE16EhhsNS_9MulParamsIisEEEEvPNS_11TrMulParamsE = comdat any

$_ZN3ruy7RunPackILNS_4PathE16ENS_17FixedKernelLayoutILNS_5OrderE0ELi4ELi16EEEhaEEvNS_6TuningERKNS_4EMatEPNS_5PEMatEii = comdat any

$_ZN3ruy9RunKernelILNS_4PathE16EaasNS_9MulParamsIisEEEEvNS_6TuningERKNS_8SidePairINS_5PEMatEEEPvRKNS5_IiEESD_PNS_4EMatE = comdat any

$_ZN3ruy7RunPackILNS_4PathE2ENS_17FixedKernelLayoutILNS_5OrderE0ELi1ELi1EEEhhEEvNS_6TuningERKNS_4EMatEPNS_5PEMatEii = comdat any

$_ZN3ruy9RunKernelILNS_4PathE2EhhsNS_9MulParamsIisEEEEvNS_6TuningERKNS_8SidePairINS_5PEMatEEEPvRKNS5_IiEESD_PNS_4EMatE = comdat any

$_ZN3ruy8PackImplILNS_4PathE2ENS_17FixedKernelLayoutILNS_5OrderE0ELi1ELi1EEEhhiE3RunENS_6TuningERKNS_3MatIhEEPNS_4PMatIhEEii = comdat any

$_ZNK3ruy6KernelILNS_4PathE2EhhsNS_9MulParamsIisEEE3RunERKNS_4PMatIhEES8_RKS3_iiiiPNS_3MatIsEE = comdat any

$_ZN3ruy19PopulateTrMulParamsILNS_4PathE8EhhsNS_9MulParamsIisEEEEvPNS_11TrMulParamsE = comdat any

$_ZN3ruy7RunPackILNS_4PathE8ENS_17FixedKernelLayoutILNS_5OrderE0ELi4ELi8EEEhaEEvNS_6TuningERKNS_4EMatEPNS_5PEMatEii = comdat any

$_ZN3ruy9RunKernelILNS_4PathE8EaasNS_9MulParamsIisEEEEvNS_6TuningERKNS_8SidePairINS_5PEMatEEEPvRKNS5_IiEESD_PNS_4EMatE = comdat any

$_ZN8gemmlowp17DispatchGemmShapeIhsNS_14BitDepthParamsINS_12OperandRangeILi1ELi255EEENS2_ILi0ELi255EEEEELNS_8MapOrderE1ELS6_0ELS6_0ENS_9VectorDupIKiLNS_11VectorShapeE0EEENS7_IS8_LS9_1EEENSt3__15tupleIJNS_23OutputStageBiasAdditionINS_9VectorMapIS8_LS9_0EEEEENS_44OutputStageScaleInt32ByFixedPointAndExponentENS_16OutputStageClampENS_32OutputStageSaturatingCastToInt16EEEENS_11GemmContextEEEvPT8_RKNS_9MatrixMapIKT_XT2_EEERKNSP_ISR_XT3_EEEPNSP_IT0_XT4_EEERKT5_RKT6_RKT7_ = comdat any

$_ZN8gemmlowp17DispatchGemmShapeIhsNS_14BitDepthParamsINS_12OperandRangeILi1ELi255EEENS2_ILi0ELi255EEEEELNS_8MapOrderE1ELS6_0ELS6_1ENS_9VectorDupIKiLNS_11VectorShapeE1EEENS7_IS8_LS9_0EEENSt3__15tupleIJNS_23OutputStageBiasAdditionINS_9VectorMapIS8_LS9_1EEEEENS_44OutputStageScaleInt32ByFixedPointAndExponentENS_16OutputStageClampENS_32OutputStageSaturatingCastToInt16EEEENS_11GemmContextEEEvPT8_RKNS_9MatrixMapIKT_XT2_EEERKNSP_ISR_XT3_EEEPNSP_IT0_XT4_EEERKT5_RKT6_RKT7_ = comdat any

$_ZN8gemmlowp15MultiThreadGemmINS_12KernelFormatINS_16KernelSideFormatINS_10CellFormatILi4ELi16ELNS_9CellOrderE1EEELi1EEES6_EEhsNS_14BitDepthParamsINS_12OperandRangeILi1ELi255EEENS9_ILi0ELi255EEEEELNS_8MapOrderE1ELSD_0ELSD_0ENS_9VectorDupIKiLNS_11VectorShapeE0EEENSE_ISF_LSG_1EEENSt3__15tupleIJNS_23OutputStageBiasAdditionINS_9VectorMapISF_LSG_0EEEEENS_44OutputStageScaleInt32ByFixedPointAndExponentENS_16OutputStageClampENS_32OutputStageSaturatingCastToInt16EEEENS_11GemmContextEEEvPT9_RKNS_10KernelBaseERKNS_9MatrixMapIKT0_XT3_EEERKNSZ_IS11_XT4_EEEPNSZ_IT1_XT5_EEERKT6_RKT7_RKT8_ = comdat any

$_ZN8gemmlowp15MultiThreadGemmINS_12KernelFormatINS_16KernelSideFormatINS_10CellFormatILi4ELi16ELNS_9CellOrderE1EEELi1EEES6_EEhsNS_14BitDepthParamsINS_12OperandRangeILi1ELi255EEENS9_ILi0ELi255EEEEELNS_8MapOrderE1ELSD_0ELSD_1ENS_9VectorDupIKiLNS_11VectorShapeE1EEENSE_ISF_LSG_0EEENSt3__15tupleIJNS_23OutputStageBiasAdditionINS_9VectorMapISF_LSG_1EEEEENS_44OutputStageScaleInt32ByFixedPointAndExponentENS_16OutputStageClampENS_32OutputStageSaturatingCastToInt16EEEENS_11GemmContextEEEvPT9_RKNS_10KernelBaseERKNS_9MatrixMapIKT0_XT3_EEERKNSZ_IS11_XT4_EEEPNSZ_IT1_XT5_EEERKT6_RKT7_RKT8_ = comdat any

$_ZN8gemmlowp16SingleThreadGemmINS_12KernelFormatINS_16KernelSideFormatINS_10CellFormatILi4ELi16ELNS_9CellOrderE1EEELi1EEES6_EEhsNS_14BitDepthParamsINS_12OperandRangeILi1ELi255EEENS9_ILi0ELi255EEEEELNS_8MapOrderE1ELSD_0ELSD_1ENS_9VectorDupIKiLNS_11VectorShapeE1EEENSE_ISF_LSG_0EEENSt3__15tupleIJNS_23OutputStageBiasAdditionINS_9VectorMapISF_LSG_1EEEEENS_44OutputStageScaleInt32ByFixedPointAndExponentENS_16OutputStageClampENS_32OutputStageSaturatingCastToInt16EEEEEEvPNS_23SingleThreadGemmContextERKNS_10KernelBaseERKNS_9MatrixMapIKT0_XT3_EEERKNSY_IS10_XT4_EEEPNSY_IT1_XT5_EEERKT6_RKT7_RKT8_ = comdat any

$_ZN8gemmlowp11BlockParams4InitINS_12KernelFormatINS_16KernelSideFormatINS_10CellFormatILi4ELi16ELNS_9CellOrderE1EEELi1EEES7_EEEEviiiiiif = comdat any

$_ZN8gemmlowp9Allocator6CommitEv = comdat any

$_ZN8gemmlowp12UnpackResultINS_12KernelFormatINS_16KernelSideFormatINS_10CellFormatILi4ELi16ELNS_9CellOrderE1EEELi1EEES6_EENS_9MatrixMapIsLNS_8MapOrderE1EEENS_12PackedResultENS_9VectorDupIKiLNS_11VectorShapeE1EEENSC_ISD_LSE_0EEENSt3__15tupleIJNS_23OutputStageBiasAdditionINS_9VectorMapISD_LSE_1EEEEENS_44OutputStageScaleInt32ByFixedPointAndExponentENS_16OutputStageClampENS_32OutputStageSaturatingCastToInt16EEEEEEvPT0_RKNS_17MatrixBlockBoundsERKT1_iPSD_SZ_RKT2_RKT3_RKT4_ = comdat any

$_ZN8gemmlowp17PackSideBlockImplINS_7SideMapIKhLNS_12SideMapOrderE0EEENS_15PackedSideBlockINS_16KernelSideFormatINS_10CellFormatILi4ELi16ELNS_9CellOrderE1EEELi1EEEEEE6PackL2Ev = comdat any

$_ZN8gemmlowp17PackSideBlockImplINS_7SideMapIKhLNS_12SideMapOrderE0EEENS_15PackedSideBlockINS_16KernelSideFormatINS_10CellFormatILi4ELi16ELNS_9CellOrderE1EEELi1EEEEEE7PackRunEiiii = comdat any

$_ZN8gemmlowp24PackingRegisterBlockBaseINS_7SideMapIKhLNS_12SideMapOrderE0EEENS_15PackedSideBlockINS_16KernelSideFormatINS_10CellFormatILi4ELi16ELNS_9CellOrderE1EEELi1EEEEEE4PackEPSB_i = comdat any

$_ZN8gemmlowp11ComputeImplINS_15PackedSideBlockINS_16KernelSideFormatINS_10CellFormatILi4ELi16ELNS_9CellOrderE1EEELi1EEEEES7_NS_12PackedResultEE10ComputeRunEiiii = comdat any

$_ZN8gemmlowp17UnpackResultBlockINS_12KernelFormatINS_16KernelSideFormatINS_10CellFormatILi4ELi16ELNS_9CellOrderE1EEELi1EEES6_EENS_13RegisterBlockIiLi8ELi4EEENS_9MatrixMapIKiLNS_8MapOrderE0EEENS_9VectorDupISB_LNS_11VectorShapeE1EEENSE_ISB_LSF_0EEENS_22OutputPipelineExecutorINSt3__15tupleIJNS_23OutputStageBiasAdditionINS_9VectorMapISB_LSF_1EEEEENS_44OutputStageScaleInt32ByFixedPointAndExponentENS_16OutputStageClampENS_32OutputStageSaturatingCastToInt16EEEES9_EENSA_IsLSC_0EEEEEvRKT1_RKT4_PT5_RKNSM_ISB_LSF_0EEERKSN_RKT2_RKT3_iiiiiii = comdat any

$_ZN8gemmlowp17UnpackResultBlockINS_12KernelFormatINS_16KernelSideFormatINS_10CellFormatILi4ELi16ELNS_9CellOrderE1EEELi1EEES6_EENS_13RegisterBlockIiLi4ELi4EEENS_9MatrixMapIKiLNS_8MapOrderE0EEENS_9VectorDupISB_LNS_11VectorShapeE1EEENSE_ISB_LSF_0EEENS_22OutputPipelineExecutorINSt3__15tupleIJNS_23OutputStageBiasAdditionINS_9VectorMapISB_LSF_1EEEEENS_44OutputStageScaleInt32ByFixedPointAndExponentENS_16OutputStageClampENS_32OutputStageSaturatingCastToInt16EEEES9_EENSA_IsLSC_1EEEEEvRKT1_RKT4_PT5_RKNSM_ISB_LSF_0EEERKSN_RKT2_RKT3_iiiiiii = comdat any

$_ZN8gemmlowp17UnpackResultBlockINS_12KernelFormatINS_16KernelSideFormatINS_10CellFormatILi4ELi16ELNS_9CellOrderE1EEELi1EEES6_EENS_13RegisterBlockIiLi1ELi4EEENS_9MatrixMapIKiLNS_8MapOrderE0EEENS_9VectorDupISB_LNS_11VectorShapeE1EEENSE_ISB_LSF_0EEENS_22OutputPipelineExecutorINSt3__15tupleIJNS_23OutputStageBiasAdditionINS_9VectorMapISB_LSF_1EEEEENS_44OutputStageScaleInt32ByFixedPointAndExponentENS_16OutputStageClampENS_32OutputStageSaturatingCastToInt16EEEES9_EENSA_IsLSC_1EEEEEvRKT1_RKT4_PT5_RKNSM_ISB_LSF_0EEERKSN_RKT2_RKT3_iiiiiii = comdat any

$_ZN8gemmlowp17UnpackResultBlockINS_12KernelFormatINS_16KernelSideFormatINS_10CellFormatILi4ELi16ELNS_9CellOrderE1EEELi1EEES6_EENS_13RegisterBlockIiLi8ELi4EEENS_9MatrixMapIKiLNS_8MapOrderE0EEENS_9VectorDupISB_LNS_11VectorShapeE1EEENSE_ISB_LSF_0EEENS_22OutputPipelineExecutorINSt3__15tupleIJNS_23OutputStageBiasAdditionINS_9VectorMapISB_LSF_1EEEEENS_44OutputStageScaleInt32ByFixedPointAndExponentENS_16OutputStageClampENS_32OutputStageSaturatingCastToInt16EEEES9_EENSA_IsLSC_1EEEEEvRKT1_RKT4_PT5_RKNSM_ISB_LSF_0EEERKSN_RKT2_RKT3_iiiiiii = comdat any

$_ZN8gemmlowp17UnpackResultBlockINS_12KernelFormatINS_16KernelSideFormatINS_10CellFormatILi4ELi16ELNS_9CellOrderE1EEELi1EEES6_EENS_13RegisterBlockIiLi8ELi1EEENS_9MatrixMapIKiLNS_8MapOrderE0EEENS_9VectorDupISB_LNS_11VectorShapeE1EEENSE_ISB_LSF_0EEENS_22OutputPipelineExecutorINSt3__15tupleIJNS_23OutputStageBiasAdditionINS_9VectorMapISB_LSF_1EEEEENS_44OutputStageScaleInt32ByFixedPointAndExponentENS_16OutputStageClampENS_32OutputStageSaturatingCastToInt16EEEES9_EENSA_IsLSC_1EEEEEvRKT1_RKT4_PT5_RKNSM_ISB_LSF_0EEERKSN_RKT2_RKT3_iiiiiii = comdat any

$_ZN8gemmlowp17UnpackResultBlockINS_12KernelFormatINS_16KernelSideFormatINS_10CellFormatILi4ELi16ELNS_9CellOrderE1EEELi1EEES6_EENS_13RegisterBlockIiLi1ELi1EEENS_9MatrixMapIKiLNS_8MapOrderE0EEENS_9VectorDupISB_LNS_11VectorShapeE1EEENSE_ISB_LSF_0EEENS_22OutputPipelineExecutorINSt3__15tupleIJNS_23OutputStageBiasAdditionINS_9VectorMapISB_LSF_1EEEEENS_44OutputStageScaleInt32ByFixedPointAndExponentENS_16OutputStageClampENS_32OutputStageSaturatingCastToInt16EEEES9_EENSA_IsLSC_1EEEEEvRKT1_RKT4_PT5_RKNSM_ISB_LSF_0EEERKSN_RKT2_RKT3_iiiiiii = comdat any

$_ZNK8gemmlowp22OutputPipelineExecutorINSt3__15tupleIJNS_23OutputStageBiasAdditionINS_9VectorMapIKiLNS_11VectorShapeE1EEEEENS_44OutputStageScaleInt32ByFixedPointAndExponentENS_16OutputStageClampENS_32OutputStageSaturatingCastToInt16EEEENS_13RegisterBlockIiLi8ELi4EEEE7ExecuteINS_9MatrixMapIsLNS_8MapOrderE0EEEEEvSE_PT_iiii = comdat any

$_ZNK8gemmlowp22OutputPipelineEvalImplINSt3__15tupleIJNS_23OutputStageBiasAdditionINS_9VectorMapIKiLNS_11VectorShapeE1EEEEENS_44OutputStageScaleInt32ByFixedPointAndExponentENS_16OutputStageClampENS_32OutputStageSaturatingCastToInt16EEEELi1ENS_13RegisterBlockIiLi8ELi4EEELb0EE4EvalESE_ii = comdat any

$_ZN8gemmlowp20StoreFinalOutputImplINS_13RegisterBlockIsLi8ELi8EEENS_9MatrixMapIsLNS_8MapOrderE1EEEE3RunERKS2_PS5_ii = comdat any

$_ZNK8gemmlowp22OutputPipelineEvalImplINSt3__15tupleIJNS_23OutputStageBiasAdditionINS_9VectorMapIKiLNS_11VectorShapeE1EEEEENS_44OutputStageScaleInt32ByFixedPointAndExponentENS_16OutputStageClampENS_32OutputStageSaturatingCastToInt16EEEELi0ENS_13RegisterBlockIiLi4ELi4EEELb0EE4EvalESE_ii = comdat any

$_ZNK8gemmlowp22OutputPipelineEvalImplINSt3__15tupleIJNS_23OutputStageBiasAdditionINS_9VectorMapIKiLNS_11VectorShapeE1EEEEENS_44OutputStageScaleInt32ByFixedPointAndExponentENS_16OutputStageClampENS_32OutputStageSaturatingCastToInt16EEEELi2ENS_13RegisterBlockIiLi4ELi4EEELb0EE4EvalESE_ii = comdat any

$_ZNK8gemmlowp25OutputStageEvalBufferImplINS_44OutputStageScaleInt32ByFixedPointAndExponentENS_14RegisterBufferIiLi4EEEE4EvalES3_ = comdat any

$_ZNK8gemmlowp22OutputPipelineExecutorINSt3__15tupleIJNS_23OutputStageBiasAdditionINS_9VectorMapIKiLNS_11VectorShapeE1EEEEENS_44OutputStageScaleInt32ByFixedPointAndExponentENS_16OutputStageClampENS_32OutputStageSaturatingCastToInt16EEEENS_13RegisterBlockIiLi8ELi4EEEE7ExecuteINS_9MatrixMapIsLNS_8MapOrderE1EEEEEvSE_PT_iiii = comdat any

$_ZNK8gemmlowp22OutputPipelineEvalImplINSt3__15tupleIJNS_23OutputStageBiasAdditionINS_9VectorMapIKiLNS_11VectorShapeE1EEEEENS_44OutputStageScaleInt32ByFixedPointAndExponentENS_16OutputStageClampENS_32OutputStageSaturatingCastToInt16EEEELi1ENS_13RegisterBlockIiLi8ELi1EEELb0EE4EvalESE_ii = comdat any

$_ZNK8gemmlowp22OutputPipelineEvalImplINSt3__15tupleIJNS_23OutputStageBiasAdditionINS_9VectorMapIKiLNS_11VectorShapeE1EEEEENS_44OutputStageScaleInt32ByFixedPointAndExponentENS_16OutputStageClampENS_32OutputStageSaturatingCastToInt16EEEELi2ENS_13RegisterBlockIiLi8ELi1EEELb0EE4EvalESE_ii = comdat any

$_ZNK8gemmlowp22OutputPipelineExecutorINSt3__15tupleIJNS_23OutputStageBiasAdditionINS_9VectorMapIKiLNS_11VectorShapeE1EEEEENS_44OutputStageScaleInt32ByFixedPointAndExponentENS_16OutputStageClampENS_32OutputStageSaturatingCastToInt16EEEENS_13RegisterBlockIiLi4ELi1EEEE7ExecuteINS_9MatrixMapIsLNS_8MapOrderE1EEEEEvSE_PT_iiii = comdat any

$_ZN8gemmlowp21GemmWithPackedRhsTaskINS_12KernelFormatINS_16KernelSideFormatINS_10CellFormatILi4ELi16ELNS_9CellOrderE1EEELi1EEES6_EEhsNS_14BitDepthParamsINS_12OperandRangeILi1ELi255EEENS9_ILi0ELi255EEEEELNS_8MapOrderE1ELSD_0ELSD_1ENS_9VectorDupIKiLNS_11VectorShapeE1EEENSE_ISF_LSG_0EEENSt3__15tupleIJNS_23OutputStageBiasAdditionINS_9VectorMapISF_LSG_1EEEEENS_44OutputStageScaleInt32ByFixedPointAndExponentENS_16OutputStageClampENS_32OutputStageSaturatingCastToInt16EEEENS_11GemmContextEED2Ev = comdat any

$_ZN8gemmlowp21GemmWithPackedRhsTaskINS_12KernelFormatINS_16KernelSideFormatINS_10CellFormatILi4ELi16ELNS_9CellOrderE1EEELi1EEES6_EEhsNS_14BitDepthParamsINS_12OperandRangeILi1ELi255EEENS9_ILi0ELi255EEEEELNS_8MapOrderE1ELSD_0ELSD_1ENS_9VectorDupIKiLNS_11VectorShapeE1EEENSE_ISF_LSG_0EEENSt3__15tupleIJNS_23OutputStageBiasAdditionINS_9VectorMapISF_LSG_1EEEEENS_44OutputStageScaleInt32ByFixedPointAndExponentENS_16OutputStageClampENS_32OutputStageSaturatingCastToInt16EEEENS_11GemmContextEED0Ev = comdat any

$_ZN8gemmlowp21GemmWithPackedRhsTaskINS_12KernelFormatINS_16KernelSideFormatINS_10CellFormatILi4ELi16ELNS_9CellOrderE1EEELi1EEES6_EEhsNS_14BitDepthParamsINS_12OperandRangeILi1ELi255EEENS9_ILi0ELi255EEEEELNS_8MapOrderE1ELSD_0ELSD_1ENS_9VectorDupIKiLNS_11VectorShapeE1EEENSE_ISF_LSG_0EEENSt3__15tupleIJNS_23OutputStageBiasAdditionINS_9VectorMapISF_LSG_1EEEEENS_44OutputStageScaleInt32ByFixedPointAndExponentENS_16OutputStageClampENS_32OutputStageSaturatingCastToInt16EEEENS_11GemmContextEE3RunEv = comdat any

$_ZN8gemmlowp11WorkersPool28LegacyExecuteAndDestroyTasksERKNSt3__16vectorIPNS_4TaskENS1_9allocatorIS4_EEEE = comdat any

$_ZN8gemmlowp16SingleThreadGemmINS_12KernelFormatINS_16KernelSideFormatINS_10CellFormatILi4ELi16ELNS_9CellOrderE1EEELi1EEES6_EEhsNS_14BitDepthParamsINS_12OperandRangeILi1ELi255EEENS9_ILi0ELi255EEEEELNS_8MapOrderE1ELSD_0ELSD_0ENS_9VectorDupIKiLNS_11VectorShapeE0EEENSE_ISF_LSG_1EEENSt3__15tupleIJNS_23OutputStageBiasAdditionINS_9VectorMapISF_LSG_0EEEEENS_44OutputStageScaleInt32ByFixedPointAndExponentENS_16OutputStageClampENS_32OutputStageSaturatingCastToInt16EEEEEEvPNS_23SingleThreadGemmContextERKNS_10KernelBaseERKNS_9MatrixMapIKT0_XT3_EEERKNSY_IS10_XT4_EEEPNSY_IT1_XT5_EEERKT6_RKT7_RKT8_ = comdat any

$_ZN8gemmlowp12UnpackResultINS_12KernelFormatINS_16KernelSideFormatINS_10CellFormatILi4ELi16ELNS_9CellOrderE1EEELi1EEES6_EENS_9MatrixMapIsLNS_8MapOrderE0EEENS_12PackedResultENS_9VectorDupIKiLNS_11VectorShapeE0EEENSC_ISD_LSE_1EEENSt3__15tupleIJNS_23OutputStageBiasAdditionINS_9VectorMapISD_LSE_0EEEEENS_44OutputStageScaleInt32ByFixedPointAndExponentENS_16OutputStageClampENS_32OutputStageSaturatingCastToInt16EEEEEEvPT0_RKNS_17MatrixBlockBoundsERKT1_iPSD_SZ_RKT2_RKT3_RKT4_ = comdat any

$_ZN8gemmlowp17UnpackResultBlockINS_12KernelFormatINS_16KernelSideFormatINS_10CellFormatILi4ELi16ELNS_9CellOrderE1EEELi1EEES6_EENS_13RegisterBlockIiLi8ELi4EEENS_9MatrixMapIKiLNS_8MapOrderE0EEENS_9VectorDupISB_LNS_11VectorShapeE0EEENSE_ISB_LSF_1EEENS_22OutputPipelineExecutorINSt3__15tupleIJNS_23OutputStageBiasAdditionINS_9VectorMapISB_LSF_0EEEEENS_44OutputStageScaleInt32ByFixedPointAndExponentENS_16OutputStageClampENS_32OutputStageSaturatingCastToInt16EEEES9_EENSA_IsLSC_0EEEEEvRKT1_RKT4_PT5_RKSN_RKNSM_ISB_LSF_1EEERKT2_RKT3_iiiiiii = comdat any

$_ZN8gemmlowp17UnpackResultBlockINS_12KernelFormatINS_16KernelSideFormatINS_10CellFormatILi4ELi16ELNS_9CellOrderE1EEELi1EEES6_EENS_13RegisterBlockIiLi4ELi4EEENS_9MatrixMapIKiLNS_8MapOrderE0EEENS_9VectorDupISB_LNS_11VectorShapeE0EEENSE_ISB_LSF_1EEENS_22OutputPipelineExecutorINSt3__15tupleIJNS_23OutputStageBiasAdditionINS_9VectorMapISB_LSF_0EEEEENS_44OutputStageScaleInt32ByFixedPointAndExponentENS_16OutputStageClampENS_32OutputStageSaturatingCastToInt16EEEES9_EENSA_IsLSC_0EEEEEvRKT1_RKT4_PT5_RKSN_RKNSM_ISB_LSF_1EEERKT2_RKT3_iiiiiii = comdat any

$_ZN8gemmlowp17UnpackResultBlockINS_12KernelFormatINS_16KernelSideFormatINS_10CellFormatILi4ELi16ELNS_9CellOrderE1EEELi1EEES6_EENS_13RegisterBlockIiLi4ELi1EEENS_9MatrixMapIKiLNS_8MapOrderE0EEENS_9VectorDupISB_LNS_11VectorShapeE0EEENSE_ISB_LSF_1EEENS_22OutputPipelineExecutorINSt3__15tupleIJNS_23OutputStageBiasAdditionINS_9VectorMapISB_LSF_0EEEEENS_44OutputStageScaleInt32ByFixedPointAndExponentENS_16OutputStageClampENS_32OutputStageSaturatingCastToInt16EEEES9_EENSA_IsLSC_0EEEEEvRKT1_RKT4_PT5_RKSN_RKNSM_ISB_LSF_1EEERKT2_RKT3_iiiiiii = comdat any

$_ZN8gemmlowp17UnpackResultBlockINS_12KernelFormatINS_16KernelSideFormatINS_10CellFormatILi4ELi16ELNS_9CellOrderE1EEELi1EEES6_EENS_13RegisterBlockIiLi1ELi1EEENS_9MatrixMapIKiLNS_8MapOrderE0EEENS_9VectorDupISB_LNS_11VectorShapeE0EEENSE_ISB_LSF_1EEENS_22OutputPipelineExecutorINSt3__15tupleIJNS_23OutputStageBiasAdditionINS_9VectorMapISB_LSF_0EEEEENS_44OutputStageScaleInt32ByFixedPointAndExponentENS_16OutputStageClampENS_32OutputStageSaturatingCastToInt16EEEES9_EENSA_IsLSC_0EEEEEvRKT1_RKT4_PT5_RKSN_RKNSM_ISB_LSF_1EEERKT2_RKT3_iiiiiii = comdat any

$_ZNK8gemmlowp22OutputPipelineExecutorINSt3__15tupleIJNS_23OutputStageBiasAdditionINS_9VectorMapIKiLNS_11VectorShapeE0EEEEENS_44OutputStageScaleInt32ByFixedPointAndExponentENS_16OutputStageClampENS_32OutputStageSaturatingCastToInt16EEEENS_13RegisterBlockIiLi8ELi4EEEE7ExecuteINS_9MatrixMapIsLNS_8MapOrderE0EEEEEvSE_PT_iiii = comdat any

$_ZNK8gemmlowp22OutputPipelineEvalImplINSt3__15tupleIJNS_23OutputStageBiasAdditionINS_9VectorMapIKiLNS_11VectorShapeE0EEEEENS_44OutputStageScaleInt32ByFixedPointAndExponentENS_16OutputStageClampENS_32OutputStageSaturatingCastToInt16EEEELi1ENS_13RegisterBlockIiLi8ELi4EEELb0EE4EvalESE_ii = comdat any

$_ZNK8gemmlowp22OutputPipelineEvalImplINSt3__15tupleIJNS_23OutputStageBiasAdditionINS_9VectorMapIKiLNS_11VectorShapeE0EEEEENS_44OutputStageScaleInt32ByFixedPointAndExponentENS_16OutputStageClampENS_32OutputStageSaturatingCastToInt16EEEELi0ENS_13RegisterBlockIiLi4ELi4EEELb0EE4EvalESE_ii = comdat any

$_ZNK8gemmlowp22OutputPipelineEvalImplINSt3__15tupleIJNS_23OutputStageBiasAdditionINS_9VectorMapIKiLNS_11VectorShapeE0EEEEENS_44OutputStageScaleInt32ByFixedPointAndExponentENS_16OutputStageClampENS_32OutputStageSaturatingCastToInt16EEEELi2ENS_13RegisterBlockIiLi4ELi4EEELb0EE4EvalESE_ii = comdat any

$_ZNK8gemmlowp22OutputPipelineExecutorINSt3__15tupleIJNS_23OutputStageBiasAdditionINS_9VectorMapIKiLNS_11VectorShapeE0EEEEENS_44OutputStageScaleInt32ByFixedPointAndExponentENS_16OutputStageClampENS_32OutputStageSaturatingCastToInt16EEEENS_13RegisterBlockIiLi1ELi4EEEE7ExecuteINS_9MatrixMapIsLNS_8MapOrderE0EEEEEvSE_PT_iiii = comdat any

$_ZNK8gemmlowp22OutputPipelineExecutorINSt3__15tupleIJNS_23OutputStageBiasAdditionINS_9VectorMapIKiLNS_11VectorShapeE0EEEEENS_44OutputStageScaleInt32ByFixedPointAndExponentENS_16OutputStageClampENS_32OutputStageSaturatingCastToInt16EEEENS_13RegisterBlockIiLi8ELi1EEEE7ExecuteINS_9MatrixMapIsLNS_8MapOrderE0EEEEEvSE_PT_iiii = comdat any

$_ZNK8gemmlowp22OutputPipelineEvalImplINSt3__15tupleIJNS_23OutputStageBiasAdditionINS_9VectorMapIKiLNS_11VectorShapeE0EEEEENS_44OutputStageScaleInt32ByFixedPointAndExponentENS_16OutputStageClampENS_32OutputStageSaturatingCastToInt16EEEELi1ENS_13RegisterBlockIiLi8ELi1EEELb0EE4EvalESE_ii = comdat any

$_ZNK8gemmlowp22OutputPipelineEvalImplINSt3__15tupleIJNS_23OutputStageBiasAdditionINS_9VectorMapIKiLNS_11VectorShapeE0EEEEENS_44OutputStageScaleInt32ByFixedPointAndExponentENS_16OutputStageClampENS_32OutputStageSaturatingCastToInt16EEEELi2ENS_13RegisterBlockIiLi8ELi1EEELb0EE4EvalESE_ii = comdat any

$_ZN8gemmlowp21GemmWithPackedRhsTaskINS_12KernelFormatINS_16KernelSideFormatINS_10CellFormatILi4ELi16ELNS_9CellOrderE1EEELi1EEES6_EEhsNS_14BitDepthParamsINS_12OperandRangeILi1ELi255EEENS9_ILi0ELi255EEEEELNS_8MapOrderE1ELSD_0ELSD_0ENS_9VectorDupIKiLNS_11VectorShapeE0EEENSE_ISF_LSG_1EEENSt3__15tupleIJNS_23OutputStageBiasAdditionINS_9VectorMapISF_LSG_0EEEEENS_44OutputStageScaleInt32ByFixedPointAndExponentENS_16OutputStageClampENS_32OutputStageSaturatingCastToInt16EEEENS_11GemmContextEED2Ev = comdat any

$_ZN8gemmlowp21GemmWithPackedRhsTaskINS_12KernelFormatINS_16KernelSideFormatINS_10CellFormatILi4ELi16ELNS_9CellOrderE1EEELi1EEES6_EEhsNS_14BitDepthParamsINS_12OperandRangeILi1ELi255EEENS9_ILi0ELi255EEEEELNS_8MapOrderE1ELSD_0ELSD_0ENS_9VectorDupIKiLNS_11VectorShapeE0EEENSE_ISF_LSG_1EEENSt3__15tupleIJNS_23OutputStageBiasAdditionINS_9VectorMapISF_LSG_0EEEEENS_44OutputStageScaleInt32ByFixedPointAndExponentENS_16OutputStageClampENS_32OutputStageSaturatingCastToInt16EEEENS_11GemmContextEED0Ev = comdat any

$_ZN8gemmlowp21GemmWithPackedRhsTaskINS_12KernelFormatINS_16KernelSideFormatINS_10CellFormatILi4ELi16ELNS_9CellOrderE1EEELi1EEES6_EEhsNS_14BitDepthParamsINS_12OperandRangeILi1ELi255EEENS9_ILi0ELi255EEEEELNS_8MapOrderE1ELSD_0ELSD_0ENS_9VectorDupIKiLNS_11VectorShapeE0EEENSE_ISF_LSG_1EEENSt3__15tupleIJNS_23OutputStageBiasAdditionINS_9VectorMapISF_LSG_0EEEEENS_44OutputStageScaleInt32ByFixedPointAndExponentENS_16OutputStageClampENS_32OutputStageSaturatingCastToInt16EEEENS_11GemmContextEE3RunEv = comdat any

$_ZNK8gemmlowp15ReferenceKernelINS_12KernelFormatINS_16KernelSideFormatINS_10CellFormatILi4ELi16ELNS_9CellOrderE1EEELi1EEES6_EEE4NameEv = comdat any

$_ZNK8gemmlowp15ReferenceKernelINS_12KernelFormatINS_16KernelSideFormatINS_10CellFormatILi4ELi16ELNS_9CellOrderE1EEELi1EEES6_EEE3RunEPimmPKhSB_mm = comdat any

$_ZN8gemmlowp13DefaultKernelINS_14BitDepthParamsINS_12OperandRangeILi1ELi255EEENS2_ILi0ELi255EEEEEED0Ev = comdat any

$_ZN8gemmlowp10KernelBaseD2Ev = comdat any

$_ZN8gemmlowp17DispatchGemmShapeIhsNS_14BitDepthParamsINS_12OperandRangeILi1ELi255EEENS2_ILi0ELi255EEEEELNS_8MapOrderE1ELS6_0ELS6_0ENS_9VectorDupIKiLNS_11VectorShapeE0EEENS7_IS8_LS9_1EEENSt3__15tupleIJNS_44OutputStageScaleInt32ByFixedPointAndExponentENS_16OutputStageClampENS_32OutputStageSaturatingCastToInt16EEEENS_11GemmContextEEEvPT8_RKNS_9MatrixMapIKT_XT2_EEERKNSL_ISN_XT3_EEEPNSL_IT0_XT4_EEERKT5_RKT6_RKT7_ = comdat any

$_ZN8gemmlowp17DispatchGemmShapeIhsNS_14BitDepthParamsINS_12OperandRangeILi1ELi255EEENS2_ILi0ELi255EEEEELNS_8MapOrderE1ELS6_0ELS6_1ENS_9VectorDupIKiLNS_11VectorShapeE1EEENS7_IS8_LS9_0EEENSt3__15tupleIJNS_44OutputStageScaleInt32ByFixedPointAndExponentENS_16OutputStageClampENS_32OutputStageSaturatingCastToInt16EEEENS_11GemmContextEEEvPT8_RKNS_9MatrixMapIKT_XT2_EEERKNSL_ISN_XT3_EEEPNSL_IT0_XT4_EEERKT5_RKT6_RKT7_ = comdat any

$_ZN8gemmlowp15MultiThreadGemmINS_12KernelFormatINS_16KernelSideFormatINS_10CellFormatILi4ELi16ELNS_9CellOrderE1EEELi1EEES6_EEhsNS_14BitDepthParamsINS_12OperandRangeILi1ELi255EEENS9_ILi0ELi255EEEEELNS_8MapOrderE1ELSD_0ELSD_0ENS_9VectorDupIKiLNS_11VectorShapeE0EEENSE_ISF_LSG_1EEENSt3__15tupleIJNS_44OutputStageScaleInt32ByFixedPointAndExponentENS_16OutputStageClampENS_32OutputStageSaturatingCastToInt16EEEENS_11GemmContextEEEvPT9_RKNS_10KernelBaseERKNS_9MatrixMapIKT0_XT3_EEERKNSV_ISX_XT4_EEEPNSV_IT1_XT5_EEERKT6_RKT7_RKT8_ = comdat any

$_ZN8gemmlowp15MultiThreadGemmINS_12KernelFormatINS_16KernelSideFormatINS_10CellFormatILi4ELi16ELNS_9CellOrderE1EEELi1EEES6_EEhsNS_14BitDepthParamsINS_12OperandRangeILi1ELi255EEENS9_ILi0ELi255EEEEELNS_8MapOrderE1ELSD_0ELSD_1ENS_9VectorDupIKiLNS_11VectorShapeE1EEENSE_ISF_LSG_0EEENSt3__15tupleIJNS_44OutputStageScaleInt32ByFixedPointAndExponentENS_16OutputStageClampENS_32OutputStageSaturatingCastToInt16EEEENS_11GemmContextEEEvPT9_RKNS_10KernelBaseERKNS_9MatrixMapIKT0_XT3_EEERKNSV_ISX_XT4_EEEPNSV_IT1_XT5_EEERKT6_RKT7_RKT8_ = comdat any

$_ZN8gemmlowp16SingleThreadGemmINS_12KernelFormatINS_16KernelSideFormatINS_10CellFormatILi4ELi16ELNS_9CellOrderE1EEELi1EEES6_EEhsNS_14BitDepthParamsINS_12OperandRangeILi1ELi255EEENS9_ILi0ELi255EEEEELNS_8MapOrderE1ELSD_0ELSD_1ENS_9VectorDupIKiLNS_11VectorShapeE1EEENSE_ISF_LSG_0EEENSt3__15tupleIJNS_44OutputStageScaleInt32ByFixedPointAndExponentENS_16OutputStageClampENS_32OutputStageSaturatingCastToInt16EEEEEEvPNS_23SingleThreadGemmContextERKNS_10KernelBaseERKNS_9MatrixMapIKT0_XT3_EEERKNSU_ISW_XT4_EEEPNSU_IT1_XT5_EEERKT6_RKT7_RKT8_ = comdat any

$_ZN8gemmlowp12UnpackResultINS_12KernelFormatINS_16KernelSideFormatINS_10CellFormatILi4ELi16ELNS_9CellOrderE1EEELi1EEES6_EENS_9MatrixMapIsLNS_8MapOrderE1EEENS_12PackedResultENS_9VectorDupIKiLNS_11VectorShapeE1EEENSC_ISD_LSE_0EEENSt3__15tupleIJNS_44OutputStageScaleInt32ByFixedPointAndExponentENS_16OutputStageClampENS_32OutputStageSaturatingCastToInt16EEEEEEvPT0_RKNS_17MatrixBlockBoundsERKT1_iPSD_SV_RKT2_RKT3_RKT4_ = comdat any

$_ZN8gemmlowp17UnpackResultBlockINS_12KernelFormatINS_16KernelSideFormatINS_10CellFormatILi4ELi16ELNS_9CellOrderE1EEELi1EEES6_EENS_13RegisterBlockIiLi8ELi4EEENS_9MatrixMapIKiLNS_8MapOrderE0EEENS_9VectorDupISB_LNS_11VectorShapeE1EEENSE_ISB_LSF_0EEENS_22OutputPipelineExecutorINSt3__15tupleIJNS_44OutputStageScaleInt32ByFixedPointAndExponentENS_16OutputStageClampENS_32OutputStageSaturatingCastToInt16EEEES9_EENSA_IsLSC_0EEEEEvRKT1_RKT4_PT5_RKNS_9VectorMapISB_LSF_0EEERKNSZ_ISB_LSF_1EEERKT2_RKT3_iiiiiii = comdat any

$_ZN8gemmlowp17UnpackResultBlockINS_12KernelFormatINS_16KernelSideFormatINS_10CellFormatILi4ELi16ELNS_9CellOrderE1EEELi1EEES6_EENS_13RegisterBlockIiLi4ELi4EEENS_9MatrixMapIKiLNS_8MapOrderE0EEENS_9VectorDupISB_LNS_11VectorShapeE1EEENSE_ISB_LSF_0EEENS_22OutputPipelineExecutorINSt3__15tupleIJNS_44OutputStageScaleInt32ByFixedPointAndExponentENS_16OutputStageClampENS_32OutputStageSaturatingCastToInt16EEEES9_EENSA_IsLSC_1EEEEEvRKT1_RKT4_PT5_RKNS_9VectorMapISB_LSF_0EEERKNSZ_ISB_LSF_1EEERKT2_RKT3_iiiiiii = comdat any

$_ZN8gemmlowp17UnpackResultBlockINS_12KernelFormatINS_16KernelSideFormatINS_10CellFormatILi4ELi16ELNS_9CellOrderE1EEELi1EEES6_EENS_13RegisterBlockIiLi1ELi4EEENS_9MatrixMapIKiLNS_8MapOrderE0EEENS_9VectorDupISB_LNS_11VectorShapeE1EEENSE_ISB_LSF_0EEENS_22OutputPipelineExecutorINSt3__15tupleIJNS_44OutputStageScaleInt32ByFixedPointAndExponentENS_16OutputStageClampENS_32OutputStageSaturatingCastToInt16EEEES9_EENSA_IsLSC_1EEEEEvRKT1_RKT4_PT5_RKNS_9VectorMapISB_LSF_0EEERKNSZ_ISB_LSF_1EEERKT2_RKT3_iiiiiii = comdat any

$_ZN8gemmlowp17UnpackResultBlockINS_12KernelFormatINS_16KernelSideFormatINS_10CellFormatILi4ELi16ELNS_9CellOrderE1EEELi1EEES6_EENS_13RegisterBlockIiLi8ELi4EEENS_9MatrixMapIKiLNS_8MapOrderE0EEENS_9VectorDupISB_LNS_11VectorShapeE1EEENSE_ISB_LSF_0EEENS_22OutputPipelineExecutorINSt3__15tupleIJNS_44OutputStageScaleInt32ByFixedPointAndExponentENS_16OutputStageClampENS_32OutputStageSaturatingCastToInt16EEEES9_EENSA_IsLSC_1EEEEEvRKT1_RKT4_PT5_RKNS_9VectorMapISB_LSF_0EEERKNSZ_ISB_LSF_1EEERKT2_RKT3_iiiiiii = comdat any

$_ZN8gemmlowp17UnpackResultBlockINS_12KernelFormatINS_16KernelSideFormatINS_10CellFormatILi4ELi16ELNS_9CellOrderE1EEELi1EEES6_EENS_13RegisterBlockIiLi8ELi1EEENS_9MatrixMapIKiLNS_8MapOrderE0EEENS_9VectorDupISB_LNS_11VectorShapeE1EEENSE_ISB_LSF_0EEENS_22OutputPipelineExecutorINSt3__15tupleIJNS_44OutputStageScaleInt32ByFixedPointAndExponentENS_16OutputStageClampENS_32OutputStageSaturatingCastToInt16EEEES9_EENSA_IsLSC_1EEEEEvRKT1_RKT4_PT5_RKNS_9VectorMapISB_LSF_0EEERKNSZ_ISB_LSF_1EEERKT2_RKT3_iiiiiii = comdat any

$_ZN8gemmlowp17UnpackResultBlockINS_12KernelFormatINS_16KernelSideFormatINS_10CellFormatILi4ELi16ELNS_9CellOrderE1EEELi1EEES6_EENS_13RegisterBlockIiLi4ELi1EEENS_9MatrixMapIKiLNS_8MapOrderE0EEENS_9VectorDupISB_LNS_11VectorShapeE1EEENSE_ISB_LSF_0EEENS_22OutputPipelineExecutorINSt3__15tupleIJNS_44OutputStageScaleInt32ByFixedPointAndExponentENS_16OutputStageClampENS_32OutputStageSaturatingCastToInt16EEEES9_EENSA_IsLSC_1EEEEEvRKT1_RKT4_PT5_RKNS_9VectorMapISB_LSF_0EEERKNSZ_ISB_LSF_1EEERKT2_RKT3_iiiiiii = comdat any

$_ZNK8gemmlowp22OutputPipelineEvalImplINSt3__15tupleIJNS_44OutputStageScaleInt32ByFixedPointAndExponentENS_16OutputStageClampENS_32OutputStageSaturatingCastToInt16EEEELi0ENS_13RegisterBlockIiLi8ELi4EEELb0EE4EvalES8_ii = comdat any

$_ZNK8gemmlowp22OutputPipelineExecutorINSt3__15tupleIJNS_44OutputStageScaleInt32ByFixedPointAndExponentENS_16OutputStageClampENS_32OutputStageSaturatingCastToInt16EEEENS_13RegisterBlockIiLi4ELi4EEEE7ExecuteINS_9MatrixMapIsLNS_8MapOrderE1EEEEEvS8_PT_iiii = comdat any

$_ZNK8gemmlowp22OutputPipelineEvalImplINSt3__15tupleIJNS_44OutputStageScaleInt32ByFixedPointAndExponentENS_16OutputStageClampENS_32OutputStageSaturatingCastToInt16EEEELi1ENS_13RegisterBlockIiLi4ELi4EEELb0EE4EvalES8_ii = comdat any

$_ZNK8gemmlowp22OutputPipelineEvalImplINSt3__15tupleIJNS_44OutputStageScaleInt32ByFixedPointAndExponentENS_16OutputStageClampENS_32OutputStageSaturatingCastToInt16EEEELi0ENS_13RegisterBlockIiLi8ELi1EEELb0EE4EvalES8_ii = comdat any

$_ZNK8gemmlowp22OutputPipelineEvalImplINSt3__15tupleIJNS_44OutputStageScaleInt32ByFixedPointAndExponentENS_16OutputStageClampENS_32OutputStageSaturatingCastToInt16EEEELi1ENS_13RegisterBlockIiLi8ELi1EEELb0EE4EvalES8_ii = comdat any

$_ZN8gemmlowp21GemmWithPackedRhsTaskINS_12KernelFormatINS_16KernelSideFormatINS_10CellFormatILi4ELi16ELNS_9CellOrderE1EEELi1EEES6_EEhsNS_14BitDepthParamsINS_12OperandRangeILi1ELi255EEENS9_ILi0ELi255EEEEELNS_8MapOrderE1ELSD_0ELSD_1ENS_9VectorDupIKiLNS_11VectorShapeE1EEENSE_ISF_LSG_0EEENSt3__15tupleIJNS_44OutputStageScaleInt32ByFixedPointAndExponentENS_16OutputStageClampENS_32OutputStageSaturatingCastToInt16EEEENS_11GemmContextEED2Ev = comdat any

$_ZN8gemmlowp21GemmWithPackedRhsTaskINS_12KernelFormatINS_16KernelSideFormatINS_10CellFormatILi4ELi16ELNS_9CellOrderE1EEELi1EEES6_EEhsNS_14BitDepthParamsINS_12OperandRangeILi1ELi255EEENS9_ILi0ELi255EEEEELNS_8MapOrderE1ELSD_0ELSD_1ENS_9VectorDupIKiLNS_11VectorShapeE1EEENSE_ISF_LSG_0EEENSt3__15tupleIJNS_44OutputStageScaleInt32ByFixedPointAndExponentENS_16OutputStageClampENS_32OutputStageSaturatingCastToInt16EEEENS_11GemmContextEED0Ev = comdat any

$_ZN8gemmlowp21GemmWithPackedRhsTaskINS_12KernelFormatINS_16KernelSideFormatINS_10CellFormatILi4ELi16ELNS_9CellOrderE1EEELi1EEES6_EEhsNS_14BitDepthParamsINS_12OperandRangeILi1ELi255EEENS9_ILi0ELi255EEEEELNS_8MapOrderE1ELSD_0ELSD_1ENS_9VectorDupIKiLNS_11VectorShapeE1EEENSE_ISF_LSG_0EEENSt3__15tupleIJNS_44OutputStageScaleInt32ByFixedPointAndExponentENS_16OutputStageClampENS_32OutputStageSaturatingCastToInt16EEEENS_11GemmContextEE3RunEv = comdat any

$_ZN8gemmlowp16SingleThreadGemmINS_12KernelFormatINS_16KernelSideFormatINS_10CellFormatILi4ELi16ELNS_9CellOrderE1EEELi1EEES6_EEhsNS_14BitDepthParamsINS_12OperandRangeILi1ELi255EEENS9_ILi0ELi255EEEEELNS_8MapOrderE1ELSD_0ELSD_0ENS_9VectorDupIKiLNS_11VectorShapeE0EEENSE_ISF_LSG_1EEENSt3__15tupleIJNS_44OutputStageScaleInt32ByFixedPointAndExponentENS_16OutputStageClampENS_32OutputStageSaturatingCastToInt16EEEEEEvPNS_23SingleThreadGemmContextERKNS_10KernelBaseERKNS_9MatrixMapIKT0_XT3_EEERKNSU_ISW_XT4_EEEPNSU_IT1_XT5_EEERKT6_RKT7_RKT8_ = comdat any

$_ZN8gemmlowp12UnpackResultINS_12KernelFormatINS_16KernelSideFormatINS_10CellFormatILi4ELi16ELNS_9CellOrderE1EEELi1EEES6_EENS_9MatrixMapIsLNS_8MapOrderE0EEENS_12PackedResultENS_9VectorDupIKiLNS_11VectorShapeE0EEENSC_ISD_LSE_1EEENSt3__15tupleIJNS_44OutputStageScaleInt32ByFixedPointAndExponentENS_16OutputStageClampENS_32OutputStageSaturatingCastToInt16EEEEEEvPT0_RKNS_17MatrixBlockBoundsERKT1_iPSD_SV_RKT2_RKT3_RKT4_ = comdat any

$_ZN8gemmlowp17UnpackResultBlockINS_12KernelFormatINS_16KernelSideFormatINS_10CellFormatILi4ELi16ELNS_9CellOrderE1EEELi1EEES6_EENS_13RegisterBlockIiLi8ELi4EEENS_9MatrixMapIKiLNS_8MapOrderE0EEENS_9VectorDupISB_LNS_11VectorShapeE0EEENSE_ISB_LSF_1EEENS_22OutputPipelineExecutorINSt3__15tupleIJNS_44OutputStageScaleInt32ByFixedPointAndExponentENS_16OutputStageClampENS_32OutputStageSaturatingCastToInt16EEEES9_EENSA_IsLSC_0EEEEEvRKT1_RKT4_PT5_RKNS_9VectorMapISB_LSF_0EEERKNSZ_ISB_LSF_1EEERKT2_RKT3_iiiiiii = comdat any

$_ZN8gemmlowp17UnpackResultBlockINS_12KernelFormatINS_16KernelSideFormatINS_10CellFormatILi4ELi16ELNS_9CellOrderE1EEELi1EEES6_EENS_13RegisterBlockIiLi4ELi4EEENS_9MatrixMapIKiLNS_8MapOrderE0EEENS_9VectorDupISB_LNS_11VectorShapeE0EEENSE_ISB_LSF_1EEENS_22OutputPipelineExecutorINSt3__15tupleIJNS_44OutputStageScaleInt32ByFixedPointAndExponentENS_16OutputStageClampENS_32OutputStageSaturatingCastToInt16EEEES9_EENSA_IsLSC_0EEEEEvRKT1_RKT4_PT5_RKNS_9VectorMapISB_LSF_0EEERKNSZ_ISB_LSF_1EEERKT2_RKT3_iiiiiii = comdat any

$_ZN8gemmlowp17UnpackResultBlockINS_12KernelFormatINS_16KernelSideFormatINS_10CellFormatILi4ELi16ELNS_9CellOrderE1EEELi1EEES6_EENS_13RegisterBlockIiLi1ELi4EEENS_9MatrixMapIKiLNS_8MapOrderE0EEENS_9VectorDupISB_LNS_11VectorShapeE0EEENSE_ISB_LSF_1EEENS_22OutputPipelineExecutorINSt3__15tupleIJNS_44OutputStageScaleInt32ByFixedPointAndExponentENS_16OutputStageClampENS_32OutputStageSaturatingCastToInt16EEEES9_EENSA_IsLSC_0EEEEEvRKT1_RKT4_PT5_RKNS_9VectorMapISB_LSF_0EEERKNSZ_ISB_LSF_1EEERKT2_RKT3_iiiiiii = comdat any

$_ZN8gemmlowp17UnpackResultBlockINS_12KernelFormatINS_16KernelSideFormatINS_10CellFormatILi4ELi16ELNS_9CellOrderE1EEELi1EEES6_EENS_13RegisterBlockIiLi8ELi1EEENS_9MatrixMapIKiLNS_8MapOrderE0EEENS_9VectorDupISB_LNS_11VectorShapeE0EEENSE_ISB_LSF_1EEENS_22OutputPipelineExecutorINSt3__15tupleIJNS_44OutputStageScaleInt32ByFixedPointAndExponentENS_16OutputStageClampENS_32OutputStageSaturatingCastToInt16EEEES9_EENSA_IsLSC_0EEEEEvRKT1_RKT4_PT5_RKNS_9VectorMapISB_LSF_0EEERKNSZ_ISB_LSF_1EEERKT2_RKT3_iiiiiii = comdat any

$_ZN8gemmlowp17UnpackResultBlockINS_12KernelFormatINS_16KernelSideFormatINS_10CellFormatILi4ELi16ELNS_9CellOrderE1EEELi1EEES6_EENS_13RegisterBlockIiLi4ELi1EEENS_9MatrixMapIKiLNS_8MapOrderE0EEENS_9VectorDupISB_LNS_11VectorShapeE0EEENSE_ISB_LSF_1EEENS_22OutputPipelineExecutorINSt3__15tupleIJNS_44OutputStageScaleInt32ByFixedPointAndExponentENS_16OutputStageClampENS_32OutputStageSaturatingCastToInt16EEEES9_EENSA_IsLSC_0EEEEEvRKT1_RKT4_PT5_RKNS_9VectorMapISB_LSF_0EEERKNSZ_ISB_LSF_1EEERKT2_RKT3_iiiiiii = comdat any

$_ZNK8gemmlowp22OutputPipelineExecutorINSt3__15tupleIJNS_44OutputStageScaleInt32ByFixedPointAndExponentENS_16OutputStageClampENS_32OutputStageSaturatingCastToInt16EEEENS_13RegisterBlockIiLi4ELi4EEEE7ExecuteINS_9MatrixMapIsLNS_8MapOrderE0EEEEEvS8_PT_iiii = comdat any

$_ZN8gemmlowp21GemmWithPackedRhsTaskINS_12KernelFormatINS_16KernelSideFormatINS_10CellFormatILi4ELi16ELNS_9CellOrderE1EEELi1EEES6_EEhsNS_14BitDepthParamsINS_12OperandRangeILi1ELi255EEENS9_ILi0ELi255EEEEELNS_8MapOrderE1ELSD_0ELSD_0ENS_9VectorDupIKiLNS_11VectorShapeE0EEENSE_ISF_LSG_1EEENSt3__15tupleIJNS_44OutputStageScaleInt32ByFixedPointAndExponentENS_16OutputStageClampENS_32OutputStageSaturatingCastToInt16EEEENS_11GemmContextEED2Ev = comdat any

$_ZN8gemmlowp21GemmWithPackedRhsTaskINS_12KernelFormatINS_16KernelSideFormatINS_10CellFormatILi4ELi16ELNS_9CellOrderE1EEELi1EEES6_EEhsNS_14BitDepthParamsINS_12OperandRangeILi1ELi255EEENS9_ILi0ELi255EEEEELNS_8MapOrderE1ELSD_0ELSD_0ENS_9VectorDupIKiLNS_11VectorShapeE0EEENSE_ISF_LSG_1EEENSt3__15tupleIJNS_44OutputStageScaleInt32ByFixedPointAndExponentENS_16OutputStageClampENS_32OutputStageSaturatingCastToInt16EEEENS_11GemmContextEED0Ev = comdat any

$_ZN8gemmlowp21GemmWithPackedRhsTaskINS_12KernelFormatINS_16KernelSideFormatINS_10CellFormatILi4ELi16ELNS_9CellOrderE1EEELi1EEES6_EEhsNS_14BitDepthParamsINS_12OperandRangeILi1ELi255EEENS9_ILi0ELi255EEEEELNS_8MapOrderE1ELSD_0ELSD_0ENS_9VectorDupIKiLNS_11VectorShapeE0EEENSE_ISF_LSG_1EEENSt3__15tupleIJNS_44OutputStageScaleInt32ByFixedPointAndExponentENS_16OutputStageClampENS_32OutputStageSaturatingCastToInt16EEEENS_11GemmContextEE3RunEv = comdat any

$_ZN8gemmlowp32one_over_one_plus_x_for_x_in_0_1IsEENS_10FixedPointIT_Li0EEES3_ = comdat any

$_ZN8gemmlowp22exp_on_negative_valuesIsLi3EEENS_10FixedPointIT_Li0EEENS1_IS2_XT0_EEE = comdat any

$_ZN8gemmlowp40one_minus_x_over_one_plus_x_for_x_in_0_1IsEENS_10FixedPointIT_Li0EEES3_ = comdat any

$_ZN8gemmlowp22exp_on_negative_valuesIsLi4EEENS_10FixedPointIT_Li0EEENS1_IS2_XT0_EEE = comdat any

$_ZZN8gemmlowp22GetHardwareConcurrencyEiE22hardware_threads_count = comdat any

$_ZGVZN8gemmlowp22GetHardwareConcurrencyEiE22hardware_threads_count = comdat any

$_ZTVN8gemmlowp21GemmWithPackedRhsTaskINS_12KernelFormatINS_16KernelSideFormatINS_10CellFormatILi4ELi16ELNS_9CellOrderE1EEELi1EEES6_EEhsNS_14BitDepthParamsINS_12OperandRangeILi1ELi255EEENS9_ILi0ELi255EEEEELNS_8MapOrderE1ELSD_0ELSD_1ENS_9VectorDupIKiLNS_11VectorShapeE1EEENSE_ISF_LSG_0EEENSt3__15tupleIJNS_23OutputStageBiasAdditionINS_9VectorMapISF_LSG_1EEEEENS_44OutputStageScaleInt32ByFixedPointAndExponentENS_16OutputStageClampENS_32OutputStageSaturatingCastToInt16EEEENS_11GemmContextEEE = comdat any

$_ZTVN8gemmlowp21GemmWithPackedRhsTaskINS_12KernelFormatINS_16KernelSideFormatINS_10CellFormatILi4ELi16ELNS_9CellOrderE1EEELi1EEES6_EEhsNS_14BitDepthParamsINS_12OperandRangeILi1ELi255EEENS9_ILi0ELi255EEEEELNS_8MapOrderE1ELSD_0ELSD_0ENS_9VectorDupIKiLNS_11VectorShapeE0EEENSE_ISF_LSG_1EEENSt3__15tupleIJNS_23OutputStageBiasAdditionINS_9VectorMapISF_LSG_0EEEEENS_44OutputStageScaleInt32ByFixedPointAndExponentENS_16OutputStageClampENS_32OutputStageSaturatingCastToInt16EEEENS_11GemmContextEEE = comdat any

$_ZTVN8gemmlowp13DefaultKernelINS_14BitDepthParamsINS_12OperandRangeILi1ELi255EEENS2_ILi0ELi255EEEEEEE = comdat any

$_ZZNK8gemmlowp15ReferenceKernelINS_12KernelFormatINS_16KernelSideFormatINS_10CellFormatILi4ELi16ELNS_9CellOrderE1EEELi1EEES6_EEE4NameEvE3buf = comdat any

$_ZTVN8gemmlowp21GemmWithPackedRhsTaskINS_12KernelFormatINS_16KernelSideFormatINS_10CellFormatILi4ELi16ELNS_9CellOrderE1EEELi1EEES6_EEhsNS_14BitDepthParamsINS_12OperandRangeILi1ELi255EEENS9_ILi0ELi255EEEEELNS_8MapOrderE1ELSD_0ELSD_1ENS_9VectorDupIKiLNS_11VectorShapeE1EEENSE_ISF_LSG_0EEENSt3__15tupleIJNS_44OutputStageScaleInt32ByFixedPointAndExponentENS_16OutputStageClampENS_32OutputStageSaturatingCastToInt16EEEENS_11GemmContextEEE = comdat any

$_ZTVN8gemmlowp21GemmWithPackedRhsTaskINS_12KernelFormatINS_16KernelSideFormatINS_10CellFormatILi4ELi16ELNS_9CellOrderE1EEELi1EEES6_EEhsNS_14BitDepthParamsINS_12OperandRangeILi1ELi255EEENS9_ILi0ELi255EEEEELNS_8MapOrderE1ELSD_0ELSD_0ENS_9VectorDupIKiLNS_11VectorShapeE0EEENSE_ISF_LSG_1EEENSt3__15tupleIJNS_44OutputStageScaleInt32ByFixedPointAndExponentENS_16OutputStageClampENS_32OutputStageSaturatingCastToInt16EEEENS_11GemmContextEEE = comdat any

@.str = private unnamed_addr constant [23 x i8] c"%s:%d %s was not true.\00", align 1
@.str.3 = private unnamed_addr constant [61 x i8] c"../../third_party/tflite/src/tensorflow/lite/kernels/lstm.cc\00", align 1
@.str.4 = private unnamed_addr constant [23 x i8] c"params->cell_clip >= 0\00", align 1
@.str.5 = private unnamed_addr constant [23 x i8] c"params->proj_clip >= 0\00", align 1
@.str.6 = private unnamed_addr constant [26 x i8] c"%s:%d %s != %s (%d != %d)\00", align 1
@.str.7 = private unnamed_addr constant [36 x i8] c"input_to_forget_weights->dims->size\00", align 1
@.str.8 = private unnamed_addr constant [2 x i8] c"2\00", align 1
@.str.9 = private unnamed_addr constant [39 x i8] c"input_to_forget_weights->dims->data[0]\00", align 1
@.str.10 = private unnamed_addr constant [7 x i8] c"n_cell\00", align 1
@.str.11 = private unnamed_addr constant [39 x i8] c"input_to_forget_weights->dims->data[1]\00", align 1
@.str.12 = private unnamed_addr constant [8 x i8] c"n_input\00", align 1
@.str.13 = private unnamed_addr constant [151 x i8] c"(input_to_forget_weights->type == kTfLiteFloat32) || (input_to_forget_weights->type == kTfLiteUInt8) || (input_to_forget_weights->type == kTfLiteInt8)\00", align 1
@.str.14 = private unnamed_addr constant [35 x i8] c"input_to_input_weights->dims->size\00", align 1
@.str.15 = private unnamed_addr constant [38 x i8] c"input_to_input_weights->dims->data[0]\00", align 1
@.str.16 = private unnamed_addr constant [38 x i8] c"input_to_input_weights->dims->data[1]\00", align 1
@.str.17 = private unnamed_addr constant [26 x i8] c"%s:%d %s != %s (%s != %s)\00", align 1
@.str.18 = private unnamed_addr constant [29 x i8] c"input_to_input_weights->type\00", align 1
@.str.19 = private unnamed_addr constant [30 x i8] c"input_to_forget_weights->type\00", align 1
@.str.20 = private unnamed_addr constant [34 x i8] c"input_to_cell_weights->dims->size\00", align 1
@.str.21 = private unnamed_addr constant [37 x i8] c"input_to_cell_weights->dims->data[0]\00", align 1
@.str.22 = private unnamed_addr constant [37 x i8] c"input_to_cell_weights->dims->data[1]\00", align 1
@.str.23 = private unnamed_addr constant [28 x i8] c"input_to_cell_weights->type\00", align 1
@.str.24 = private unnamed_addr constant [39 x i8] c"recurrent_to_input_weights->dims->size\00", align 1
@.str.25 = private unnamed_addr constant [42 x i8] c"recurrent_to_input_weights->dims->data[0]\00", align 1
@.str.26 = private unnamed_addr constant [42 x i8] c"recurrent_to_input_weights->dims->data[1]\00", align 1
@.str.27 = private unnamed_addr constant [9 x i8] c"n_output\00", align 1
@.str.28 = private unnamed_addr constant [33 x i8] c"recurrent_to_input_weights->type\00", align 1
@.str.29 = private unnamed_addr constant [40 x i8] c"recurrent_to_forget_weights->dims->size\00", align 1
@.str.30 = private unnamed_addr constant [43 x i8] c"recurrent_to_forget_weights->dims->data[0]\00", align 1
@.str.31 = private unnamed_addr constant [43 x i8] c"recurrent_to_forget_weights->dims->data[1]\00", align 1
@.str.32 = private unnamed_addr constant [34 x i8] c"recurrent_to_forget_weights->type\00", align 1
@.str.33 = private unnamed_addr constant [38 x i8] c"recurrent_to_cell_weights->dims->size\00", align 1
@.str.34 = private unnamed_addr constant [41 x i8] c"recurrent_to_cell_weights->dims->data[0]\00", align 1
@.str.35 = private unnamed_addr constant [41 x i8] c"recurrent_to_cell_weights->dims->data[1]\00", align 1
@.str.36 = private unnamed_addr constant [32 x i8] c"recurrent_to_cell_weights->type\00", align 1
@.str.37 = private unnamed_addr constant [33 x i8] c"cifg_weights_all_or_none == true\00", align 1
@.str.38 = private unnamed_addr constant [34 x i8] c"cell_to_input_weights->dims->size\00", align 1
@.str.39 = private unnamed_addr constant [2 x i8] c"1\00", align 1
@.str.40 = private unnamed_addr constant [37 x i8] c"cell_to_input_weights->dims->data[0]\00", align 1
@.str.41 = private unnamed_addr constant [28 x i8] c"cell_to_input_weights->type\00", align 1
@.str.42 = private unnamed_addr constant [58 x i8] c"is_integer ? kTfLiteInt16 : input_to_forget_weights->type\00", align 1
@.str.43 = private unnamed_addr constant [35 x i8] c"cell_to_forget_weights->dims->size\00", align 1
@.str.44 = private unnamed_addr constant [38 x i8] c"cell_to_forget_weights->dims->data[0]\00", align 1
@.str.45 = private unnamed_addr constant [29 x i8] c"cell_to_forget_weights->type\00", align 1
@.str.46 = private unnamed_addr constant [35 x i8] c"cell_to_output_weights->dims->size\00", align 1
@.str.47 = private unnamed_addr constant [38 x i8] c"cell_to_output_weights->dims->data[0]\00", align 1
@.str.48 = private unnamed_addr constant [29 x i8] c"cell_to_output_weights->type\00", align 1
@.str.49 = private unnamed_addr constant [37 x i8] c"peephole_weights_all_or_none == true\00", align 1
@.str.50 = private unnamed_addr constant [16 x i8] c"input_gate_bias\00", align 1
@.str.51 = private unnamed_addr constant [8 x i8] c"nullptr\00", align 1
@.str.52 = private unnamed_addr constant [28 x i8] c"input_gate_bias->dims->size\00", align 1
@.str.53 = private unnamed_addr constant [31 x i8] c"input_gate_bias->dims->data[0]\00", align 1
@.str.54 = private unnamed_addr constant [22 x i8] c"input_gate_bias->type\00", align 1
@.str.55 = private unnamed_addr constant [13 x i8] c"kTfLiteInt32\00", align 1
@.str.56 = private unnamed_addr constant [15 x i8] c"kTfLiteFloat32\00", align 1
@.str.57 = private unnamed_addr constant [29 x i8] c"forget_gate_bias->dims->size\00", align 1
@.str.58 = private unnamed_addr constant [32 x i8] c"forget_gate_bias->dims->data[0]\00", align 1
@.str.59 = private unnamed_addr constant [23 x i8] c"forget_gate_bias->type\00", align 1
@.str.60 = private unnamed_addr constant [27 x i8] c"cell_gate_bias->dims->size\00", align 1
@.str.61 = private unnamed_addr constant [30 x i8] c"cell_gate_bias->dims->data[0]\00", align 1
@.str.62 = private unnamed_addr constant [21 x i8] c"cell_gate_bias->type\00", align 1
@.str.63 = private unnamed_addr constant [29 x i8] c"output_gate_bias->dims->size\00", align 1
@.str.64 = private unnamed_addr constant [32 x i8] c"output_gate_bias->dims->data[0]\00", align 1
@.str.65 = private unnamed_addr constant [23 x i8] c"output_gate_bias->type\00", align 1
@.str.66 = private unnamed_addr constant [31 x i8] c"projection_weights->dims->size\00", align 1
@.str.67 = private unnamed_addr constant [34 x i8] c"projection_weights->dims->data[0]\00", align 1
@.str.68 = private unnamed_addr constant [34 x i8] c"projection_weights->dims->data[1]\00", align 1
@.str.69 = private unnamed_addr constant [25 x i8] c"projection_weights->type\00", align 1
@.str.70 = private unnamed_addr constant [28 x i8] c"projection_bias->dims->size\00", align 1
@.str.71 = private unnamed_addr constant [31 x i8] c"projection_bias->dims->data[0]\00", align 1
@.str.72 = private unnamed_addr constant [22 x i8] c"projection_bias->type\00", align 1
@.str.73 = private unnamed_addr constant [38 x i8] c"projection_tensors_consistent == true\00", align 1
@.str.74 = private unnamed_addr constant [30 x i8] c"input_layer_norm_coefficients\00", align 1
@.str.75 = private unnamed_addr constant [41 x i8] c"input_layer_norm_coefficients != nullptr\00", align 1
@.str.76 = private unnamed_addr constant [42 x i8] c"input_layer_norm_coefficients->dims->size\00", align 1
@.str.77 = private unnamed_addr constant [45 x i8] c"input_layer_norm_coefficients->dims->data[0]\00", align 1
@.str.78 = private unnamed_addr constant [36 x i8] c"input_layer_norm_coefficients->type\00", align 1
@.str.79 = private unnamed_addr constant [13 x i8] c"kTfLiteInt16\00", align 1
@.str.80 = private unnamed_addr constant [42 x i8] c"forget_layer_norm_coefficients != nullptr\00", align 1
@.str.81 = private unnamed_addr constant [43 x i8] c"forget_layer_norm_coefficients->dims->size\00", align 1
@.str.82 = private unnamed_addr constant [46 x i8] c"forget_layer_norm_coefficients->dims->data[0]\00", align 1
@.str.83 = private unnamed_addr constant [37 x i8] c"forget_layer_norm_coefficients->type\00", align 1
@.str.84 = private unnamed_addr constant [40 x i8] c"cell_layer_norm_coefficients != nullptr\00", align 1
@.str.85 = private unnamed_addr constant [41 x i8] c"cell_layer_norm_coefficients->dims->size\00", align 1
@.str.86 = private unnamed_addr constant [44 x i8] c"cell_layer_norm_coefficients->dims->data[0]\00", align 1
@.str.87 = private unnamed_addr constant [35 x i8] c"cell_layer_norm_coefficients->type\00", align 1
@.str.88 = private unnamed_addr constant [42 x i8] c"output_layer_norm_coefficients != nullptr\00", align 1
@.str.89 = private unnamed_addr constant [43 x i8] c"output_layer_norm_coefficients->dims->size\00", align 1
@.str.90 = private unnamed_addr constant [46 x i8] c"output_layer_norm_coefficients->dims->data[0]\00", align 1
@.str.91 = private unnamed_addr constant [37 x i8] c"output_layer_norm_coefficients->type\00", align 1
@.str.92 = private unnamed_addr constant [31 x i8] c"weight_shape.DimensionsCount()\00", align 1
@.str.93 = private unnamed_addr constant [24 x i8] c"output_state != nullptr\00", align 1
@.str.94 = private unnamed_addr constant [20 x i8] c"node->outputs->size\00", align 1
@.str.95 = private unnamed_addr constant [60 x i8] c"The LSTM Full kernel expects 20 or 24 inputs. Got %d inputs\00", align 1
@.str.96 = private unnamed_addr constant [22 x i8] c"input->dims->size > 1\00", align 1
@.str.97 = private unnamed_addr constant [36 x i8] c"input_to_output_weights->dims->size\00", align 1
@.str.98 = private unnamed_addr constant [39 x i8] c"input_to_output_weights->dims->data[1]\00", align 1
@.str.99 = private unnamed_addr constant [40 x i8] c"recurrent_to_output_weights->dims->size\00", align 1
@.str.100 = private unnamed_addr constant [43 x i8] c"recurrent_to_output_weights->dims->data[0]\00", align 1
@.str.101 = private unnamed_addr constant [22 x i8] c"cell_state != nullptr\00", align 1
@.str.102 = private unnamed_addr constant [26 x i8] c"NumElements(output_state)\00", align 1
@.str.103 = private unnamed_addr constant [19 x i8] c"n_batch * n_output\00", align 1
@.str.104 = private unnamed_addr constant [24 x i8] c"NumElements(cell_state)\00", align 1
@.str.105 = private unnamed_addr constant [17 x i8] c"n_batch * n_cell\00", align 1
@.str.106 = private unnamed_addr constant [64 x i8] c"num_intermediate_tensors == 5 || num_intermediate_tensors == 12\00", align 1
@.str.107 = private unnamed_addr constant [36 x i8] c"Type %d is not currently supported.\00", align 1
@.str.108 = private unnamed_addr constant [32 x i8] c"node->inputs->size == kInputNum\00", align 1
@.str.109 = private unnamed_addr constant [34 x i8] c"node->outputs->size == kOutputNum\00", align 1
@.str.110 = private unnamed_addr constant [18 x i8] c"input->dims->size\00", align 1
@.str.111 = private unnamed_addr constant [28 x i8] c"prev_activation->dims->size\00", align 1
@.str.112 = private unnamed_addr constant [31 x i8] c"prev_activation->dims->data[0]\00", align 1
@.str.113 = private unnamed_addr constant [12 x i8] c"num_batches\00", align 1
@.str.114 = private unnamed_addr constant [20 x i8] c"weights->dims->size\00", align 1
@.str.115 = private unnamed_addr constant [23 x i8] c"weights->dims->data[0]\00", align 1
@.str.116 = private unnamed_addr constant [21 x i8] c"4 * activation_depth\00", align 1
@.str.117 = private unnamed_addr constant [23 x i8] c"weights->dims->data[1]\00", align 1
@.str.118 = private unnamed_addr constant [12 x i8] c"total_depth\00", align 1
@.str.119 = private unnamed_addr constant [17 x i8] c"bias->dims->size\00", align 1
@.str.120 = private unnamed_addr constant [20 x i8] c"bias->dims->data[0]\00", align 1
@.str.121 = private unnamed_addr constant [23 x i8] c"prev_state->dims->size\00", align 1
@.str.122 = private unnamed_addr constant [26 x i8] c"prev_state->dims->data[0]\00", align 1
@.str.123 = private unnamed_addr constant [26 x i8] c"prev_state->dims->data[1]\00", align 1
@.str.124 = private unnamed_addr constant [17 x i8] c"activation_depth\00", align 1
@.str.125 = private unnamed_addr constant [66 x i8] c"The internal state of a LSTM cell must have a power-of-two scale.\00", align 1
@.str.126 = private unnamed_addr constant [84 x i8] c"The only case of quantized LstmCell currently supported is with StateIntegerBits==4\00", align 1
@.str.127 = private unnamed_addr constant [51 x i8] c"Unsupported combination of data types for LstmCell\00", align 1
@_ZZN6tflite3ops7builtin13Register_LSTMEvE1r = internal global { i8* (%struct.TfLiteContext*, i8*, i64)*, void (%struct.TfLiteContext*, i8*)*, i32 (%struct.TfLiteContext*, %struct.TfLiteNode*)*, i32 (%struct.TfLiteContext*, %struct.TfLiteNode*)*, i8* (%struct.TfLiteContext*, %struct.TfLiteNode*)*, i32, i8*, i32 } { i8* (%struct.TfLiteContext*, i8*, i64)* @_ZN6tflite3ops7builtin4lstm4InitEP13TfLiteContextPKcm, void (%struct.TfLiteContext*, i8*)* @_ZN6tflite3ops7builtin4lstm4FreeEP13TfLiteContextPv, i32 (%struct.TfLiteContext*, %struct.TfLiteNode*)* @_ZN6tflite3ops7builtin4lstm7PrepareEP13TfLiteContextP10TfLiteNode, i32 (%struct.TfLiteContext*, %struct.TfLiteNode*)* @_ZN6tflite3ops7builtin4lstm4EvalEP13TfLiteContextP10TfLiteNode, i8* (%struct.TfLiteContext*, %struct.TfLiteNode*)* null, i32 0, i8* null, i32 0 }, align 8
@.str.129 = private unnamed_addr constant [51 x i8] c"CheckedLog2(cell_state->params.scale, &cell_scale)\00", align 1
@.str.130 = private unnamed_addr constant [17 x i8] c"cell_scale <= -9\00", align 1
@.str.132 = private unnamed_addr constant [34 x i8] c"cell_state_params->scale->data[0]\00", align 1
@.str.133 = private unnamed_addr constant [12 x i8] c"1.0 / 32768\00", align 1
@__const._ZN6tflite13optimized_ops8LstmCellERKNS_14LstmCellParamsERKNS_12RuntimeShapeEPKfS6_S8_S6_S8_S6_S8_S6_S8_S6_PfS6_S9_S6_S9_S6_S9_PNS_17CpuBackendContextE.fc_params = private unnamed_addr constant { i32, i32, i32, i32, i32, i32, i32, float, float, i8, i8, i8, [1 x i8] } { i32 -1431655766, i32 -1431655766, i32 -1431655766, i32 -1431655766, i32 -1431655766, i32 -1431655766, i32 -1431655766, float 0xFFFFFFFFE0000000, float 0xFFFFFFFFE0000000, i8 -86, i8 -86, i8 -86, [1 x i8] c"\AA" }, align 4
@_ZZN3ruy8PackImplILNS_4PathE16ENS_17FixedKernelLayoutILNS_5OrderE1ELi1ELi16EEEfffE3RunENS_6TuningERKNS_3MatIfEEPNS_4PMatIfEEiiE7zerobuf = internal constant [16 x float] zeroinitializer, align 16
@__const._ZNK3ruy6KernelILNS_4PathE16EfffNS_9MulParamsIffEEE3RunERKNS_4PMatIfEES8_RKS3_iiiiPNS_3MatIfEE.params = private unnamed_addr constant %"struct.ruy::KernelParamsFloat" <{ float* inttoptr (i64 -6148914691236517206 to float*), float* inttoptr (i64 -6148914691236517206 to float*), float* inttoptr (i64 -6148914691236517206 to float*), float* inttoptr (i64 -6148914691236517206 to float*), i32 -1431655766, i32 -1431655766, i32 -1431655766, i32 -1431655766, i32 -1431655766, i32 -1431655766, i32 -1431655766, i32 -1431655766, i32 -1431655766, i32 -1431655766, float 0xFFFFFFFFE0000000, float 0xFFFFFFFFE0000000, i8 -86, [3 x i8] c"\AA\AA\AA", [16 x float] [float 0xFFFFFFFFE0000000, float 0xFFFFFFFFE0000000, float 0xFFFFFFFFE0000000, float 0xFFFFFFFFE0000000, float 0xFFFFFFFFE0000000, float 0xFFFFFFFFE0000000, float 0xFFFFFFFFE0000000, float 0xFFFFFFFFE0000000, float 0xFFFFFFFFE0000000, float 0xFFFFFFFFE0000000, float 0xFFFFFFFFE0000000, float 0xFFFFFFFFE0000000, float 0xFFFFFFFFE0000000, float 0xFFFFFFFFE0000000, float 0xFFFFFFFFE0000000, float 0xFFFFFFFFE0000000], [256 x float] [float 0xFFFFFFFFE0000000, float 0xFFFFFFFFE0000000, float 0xFFFFFFFFE0000000, float 0xFFFFFFFFE0000000, float 0xFFFFFFFFE0000000, float 0xFFFFFFFFE0000000, float 0xFFFFFFFFE0000000, float 0xFFFFFFFFE0000000, float 0xFFFFFFFFE0000000, float 0xFFFFFFFFE0000000, float 0xFFFFFFFFE0000000, float 0xFFFFFFFFE0000000, float 0xFFFFFFFFE0000000, float 0xFFFFFFFFE0000000, float 0xFFFFFFFFE0000000, float 0xFFFFFFFFE0000000, float 0xFFFFFFFFE0000000, float 0xFFFFFFFFE0000000, float 0xFFFFFFFFE0000000, float 0xFFFFFFFFE0000000, float 0xFFFFFFFFE0000000, float 0xFFFFFFFFE0000000, float 0xFFFFFFFFE0000000, float 0xFFFFFFFFE0000000, float 0xFFFFFFFFE0000000, float 0xFFFFFFFFE0000000, float 0xFFFFFFFFE0000000, float 0xFFFFFFFFE0000000, float 0xFFFFFFFFE0000000, float 0xFFFFFFFFE0000000, float 0xFFFFFFFFE0000000, float 0xFFFFFFFFE0000000, float 0xFFFFFFFFE0000000, float 0xFFFFFFFFE0000000, float 0xFFFFFFFFE0000000, float 0xFFFFFFFFE0000000, float 0xFFFFFFFFE0000000, float 0xFFFFFFFFE0000000, float 0xFFFFFFFFE0000000, float 0xFFFFFFFFE0000000, float 0xFFFFFFFFE0000000, float 0xFFFFFFFFE0000000, float 0xFFFFFFFFE0000000, float 0xFFFFFFFFE0000000, float 0xFFFFFFFFE0000000, float 0xFFFFFFFFE0000000, float 0xFFFFFFFFE0000000, float 0xFFFFFFFFE0000000, float 0xFFFFFFFFE0000000, float 0xFFFFFFFFE0000000, float 0xFFFFFFFFE0000000, float 0xFFFFFFFFE0000000, float 0xFFFFFFFFE0000000, float 0xFFFFFFFFE0000000, float 0xFFFFFFFFE0000000, float 0xFFFFFFFFE0000000, float 0xFFFFFFFFE0000000, float 0xFFFFFFFFE0000000, float 0xFFFFFFFFE0000000, float 0xFFFFFFFFE0000000, float 0xFFFFFFFFE0000000, float 0xFFFFFFFFE0000000, float 0xFFFFFFFFE0000000, float 0xFFFFFFFFE0000000, float 0xFFFFFFFFE0000000, float 0xFFFFFFFFE0000000, float 0xFFFFFFFFE0000000, float 0xFFFFFFFFE0000000, float 0xFFFFFFFFE0000000, float 0xFFFFFFFFE0000000, float 0xFFFFFFFFE0000000, float 0xFFFFFFFFE0000000, float 0xFFFFFFFFE0000000, float 0xFFFFFFFFE0000000, float 0xFFFFFFFFE0000000, float 0xFFFFFFFFE0000000, float 0xFFFFFFFFE0000000, float 0xFFFFFFFFE0000000, float 0xFFFFFFFFE0000000, float 0xFFFFFFFFE0000000, float 0xFFFFFFFFE0000000, float 0xFFFFFFFFE0000000, float 0xFFFFFFFFE0000000, float 0xFFFFFFFFE0000000, float 0xFFFFFFFFE0000000, float 0xFFFFFFFFE0000000, float 0xFFFFFFFFE0000000, float 0xFFFFFFFFE0000000, float 0xFFFFFFFFE0000000, float 0xFFFFFFFFE0000000, float 0xFFFFFFFFE0000000, float 0xFFFFFFFFE0000000, float 0xFFFFFFFFE0000000, float 0xFFFFFFFFE0000000, float 0xFFFFFFFFE0000000, float 0xFFFFFFFFE0000000, float 0xFFFFFFFFE0000000, float 0xFFFFFFFFE0000000, float 0xFFFFFFFFE0000000, float 0xFFFFFFFFE0000000, float 0xFFFFFFFFE0000000, float 0xFFFFFFFFE0000000, float 0xFFFFFFFFE0000000, float 0xFFFFFFFFE0000000, float 0xFFFFFFFFE0000000, float 0xFFFFFFFFE0000000, float 0xFFFFFFFFE0000000, float 0xFFFFFFFFE0000000, float 0xFFFFFFFFE0000000, float 0xFFFFFFFFE0000000, float 0xFFFFFFFFE0000000, float 0xFFFFFFFFE0000000, float 0xFFFFFFFFE0000000, float 0xFFFFFFFFE0000000, float 0xFFFFFFFFE0000000, float 0xFFFFFFFFE0000000, float 0xFFFFFFFFE0000000, float 0xFFFFFFFFE0000000, float 0xFFFFFFFFE0000000, float 0xFFFFFFFFE0000000, float 0xFFFFFFFFE0000000, float 0xFFFFFFFFE0000000, float 0xFFFFFFFFE0000000, float 0xFFFFFFFFE0000000, float 0xFFFFFFFFE0000000, float 0xFFFFFFFFE0000000, float 0xFFFFFFFFE0000000, float 0xFFFFFFFFE0000000, float 0xFFFFFFFFE0000000, float 0xFFFFFFFFE0000000, float 0xFFFFFFFFE0000000, float 0xFFFFFFFFE0000000, float 0xFFFFFFFFE0000000, float 0xFFFFFFFFE0000000, float 0xFFFFFFFFE0000000, float 0xFFFFFFFFE0000000, float 0xFFFFFFFFE0000000, float 0xFFFFFFFFE0000000, float 0xFFFFFFFFE0000000, float 0xFFFFFFFFE0000000, float 0xFFFFFFFFE0000000, float 0xFFFFFFFFE0000000, float 0xFFFFFFFFE0000000, float 0xFFFFFFFFE0000000, float 0xFFFFFFFFE0000000, float 0xFFFFFFFFE0000000, float 0xFFFFFFFFE0000000, float 0xFFFFFFFFE0000000, float 0xFFFFFFFFE0000000, float 0xFFFFFFFFE0000000, float 0xFFFFFFFFE0000000, float 0xFFFFFFFFE0000000, float 0xFFFFFFFFE0000000, float 0xFFFFFFFFE0000000, float 0xFFFFFFFFE0000000, float 0xFFFFFFFFE0000000, float 0xFFFFFFFFE0000000, float 0xFFFFFFFFE0000000, float 0xFFFFFFFFE0000000, float 0xFFFFFFFFE0000000, float 0xFFFFFFFFE0000000, float 0xFFFFFFFFE0000000, float 0xFFFFFFFFE0000000, float 0xFFFFFFFFE0000000, float 0xFFFFFFFFE0000000, float 0xFFFFFFFFE0000000, float 0xFFFFFFFFE0000000, float 0xFFFFFFFFE0000000, float 0xFFFFFFFFE0000000, float 0xFFFFFFFFE0000000, float 0xFFFFFFFFE0000000, float 0xFFFFFFFFE0000000, float 0xFFFFFFFFE0000000, float 0xFFFFFFFFE0000000, float 0xFFFFFFFFE0000000, float 0xFFFFFFFFE0000000, float 0xFFFFFFFFE0000000, float 0xFFFFFFFFE0000000, float 0xFFFFFFFFE0000000, float 0xFFFFFFFFE0000000, float 0xFFFFFFFFE0000000, float 0xFFFFFFFFE0000000, float 0xFFFFFFFFE0000000, float 0xFFFFFFFFE0000000, float 0xFFFFFFFFE0000000, float 0xFFFFFFFFE0000000, float 0xFFFFFFFFE0000000, float 0xFFFFFFFFE0000000, float 0xFFFFFFFFE0000000, float 0xFFFFFFFFE0000000, float 0xFFFFFFFFE0000000, float 0xFFFFFFFFE0000000, float 0xFFFFFFFFE0000000, float 0xFFFFFFFFE0000000, float 0xFFFFFFFFE0000000, float 0xFFFFFFFFE0000000, float 0xFFFFFFFFE0000000, float 0xFFFFFFFFE0000000, float 0xFFFFFFFFE0000000, float 0xFFFFFFFFE0000000, float 0xFFFFFFFFE0000000, float 0xFFFFFFFFE0000000, float 0xFFFFFFFFE0000000, float 0xFFFFFFFFE0000000, float 0xFFFFFFFFE0000000, float 0xFFFFFFFFE0000000, float 0xFFFFFFFFE0000000, float 0xFFFFFFFFE0000000, float 0xFFFFFFFFE0000000, float 0xFFFFFFFFE0000000, float 0xFFFFFFFFE0000000, float 0xFFFFFFFFE0000000, float 0xFFFFFFFFE0000000, float 0xFFFFFFFFE0000000, float 0xFFFFFFFFE0000000, float 0xFFFFFFFFE0000000, float 0xFFFFFFFFE0000000, float 0xFFFFFFFFE0000000, float 0xFFFFFFFFE0000000, float 0xFFFFFFFFE0000000, float 0xFFFFFFFFE0000000, float 0xFFFFFFFFE0000000, float 0xFFFFFFFFE0000000, float 0xFFFFFFFFE0000000, float 0xFFFFFFFFE0000000, float 0xFFFFFFFFE0000000, float 0xFFFFFFFFE0000000, float 0xFFFFFFFFE0000000, float 0xFFFFFFFFE0000000, float 0xFFFFFFFFE0000000, float 0xFFFFFFFFE0000000, float 0xFFFFFFFFE0000000, float 0xFFFFFFFFE0000000, float 0xFFFFFFFFE0000000, float 0xFFFFFFFFE0000000, float 0xFFFFFFFFE0000000, float 0xFFFFFFFFE0000000, float 0xFFFFFFFFE0000000, float 0xFFFFFFFFE0000000, float 0xFFFFFFFFE0000000, float 0xFFFFFFFFE0000000, float 0xFFFFFFFFE0000000, float 0xFFFFFFFFE0000000, float 0xFFFFFFFFE0000000, float 0xFFFFFFFFE0000000, float 0xFFFFFFFFE0000000, float 0xFFFFFFFFE0000000, float 0xFFFFFFFFE0000000, float 0xFFFFFFFFE0000000, float 0xFFFFFFFFE0000000, float 0xFFFFFFFFE0000000, float 0xFFFFFFFFE0000000, float 0xFFFFFFFFE0000000, float 0xFFFFFFFFE0000000, float 0xFFFFFFFFE0000000, float 0xFFFFFFFFE0000000], [4 x i8] c"\AA\AA\AA\AA" }>, align 8
@_ZZN3ruy8PackImplILNS_4PathE8ENS_17FixedKernelLayoutILNS_5OrderE1ELi1ELi8EEEfffE3RunENS_6TuningERKNS_3MatIfEEPNS_4PMatIfEEiiE7zerobuf = internal constant [8 x float] zeroinitializer, align 16
@__const._ZNK3ruy6KernelILNS_4PathE8EfffNS_9MulParamsIffEEE3RunERKNS_4PMatIfEES8_RKS3_iiiiPNS_3MatIfEE.params = private unnamed_addr constant %"struct.ruy::KernelParamsFloat.134" <{ float* inttoptr (i64 -6148914691236517206 to float*), float* inttoptr (i64 -6148914691236517206 to float*), float* inttoptr (i64 -6148914691236517206 to float*), float* inttoptr (i64 -6148914691236517206 to float*), i32 -1431655766, i32 -1431655766, i32 -1431655766, i32 -1431655766, i32 -1431655766, i32 -1431655766, i32 -1431655766, i32 -1431655766, i32 -1431655766, i32 -1431655766, float 0xFFFFFFFFE0000000, float 0xFFFFFFFFE0000000, i8 -86, [3 x i8] c"\AA\AA\AA", [8 x float] [float 0xFFFFFFFFE0000000, float 0xFFFFFFFFE0000000, float 0xFFFFFFFFE0000000, float 0xFFFFFFFFE0000000, float 0xFFFFFFFFE0000000, float 0xFFFFFFFFE0000000, float 0xFFFFFFFFE0000000, float 0xFFFFFFFFE0000000], [64 x float] [float 0xFFFFFFFFE0000000, float 0xFFFFFFFFE0000000, float 0xFFFFFFFFE0000000, float 0xFFFFFFFFE0000000, float 0xFFFFFFFFE0000000, float 0xFFFFFFFFE0000000, float 0xFFFFFFFFE0000000, float 0xFFFFFFFFE0000000, float 0xFFFFFFFFE0000000, float 0xFFFFFFFFE0000000, float 0xFFFFFFFFE0000000, float 0xFFFFFFFFE0000000, float 0xFFFFFFFFE0000000, float 0xFFFFFFFFE0000000, float 0xFFFFFFFFE0000000, float 0xFFFFFFFFE0000000, float 0xFFFFFFFFE0000000, float 0xFFFFFFFFE0000000, float 0xFFFFFFFFE0000000, float 0xFFFFFFFFE0000000, float 0xFFFFFFFFE0000000, float 0xFFFFFFFFE0000000, float 0xFFFFFFFFE0000000, float 0xFFFFFFFFE0000000, float 0xFFFFFFFFE0000000, float 0xFFFFFFFFE0000000, float 0xFFFFFFFFE0000000, float 0xFFFFFFFFE0000000, float 0xFFFFFFFFE0000000, float 0xFFFFFFFFE0000000, float 0xFFFFFFFFE0000000, float 0xFFFFFFFFE0000000, float 0xFFFFFFFFE0000000, float 0xFFFFFFFFE0000000, float 0xFFFFFFFFE0000000, float 0xFFFFFFFFE0000000, float 0xFFFFFFFFE0000000, float 0xFFFFFFFFE0000000, float 0xFFFFFFFFE0000000, float 0xFFFFFFFFE0000000, float 0xFFFFFFFFE0000000, float 0xFFFFFFFFE0000000, float 0xFFFFFFFFE0000000, float 0xFFFFFFFFE0000000, float 0xFFFFFFFFE0000000, float 0xFFFFFFFFE0000000, float 0xFFFFFFFFE0000000, float 0xFFFFFFFFE0000000, float 0xFFFFFFFFE0000000, float 0xFFFFFFFFE0000000, float 0xFFFFFFFFE0000000, float 0xFFFFFFFFE0000000, float 0xFFFFFFFFE0000000, float 0xFFFFFFFFE0000000, float 0xFFFFFFFFE0000000, float 0xFFFFFFFFE0000000, float 0xFFFFFFFFE0000000, float 0xFFFFFFFFE0000000, float 0xFFFFFFFFE0000000, float 0xFFFFFFFFE0000000, float 0xFFFFFFFFE0000000, float 0xFFFFFFFFE0000000, float 0xFFFFFFFFE0000000, float 0xFFFFFFFFE0000000], [4 x i8] c"\AA\AA\AA\AA" }>, align 8
@_ZZN8gemmlowp22GetHardwareConcurrencyEiE22hardware_threads_count = linkonce_odr hidden global i32 0, comdat, align 4
@_ZGVZN8gemmlowp22GetHardwareConcurrencyEiE22hardware_threads_count = linkonce_odr hidden global i64 0, comdat, align 8
@.str.158 = private unnamed_addr constant [19 x i8] c"allocation failure\00", align 1
@stderr = external local_unnamed_addr global %struct._IO_FILE*, align 8
@.str.159 = private unnamed_addr constant [20 x i8] c"gemmlowp error: %s\0A\00", align 1
@_ZTVN8gemmlowp21GemmWithPackedRhsTaskINS_12KernelFormatINS_16KernelSideFormatINS_10CellFormatILi4ELi16ELNS_9CellOrderE1EEELi1EEES6_EEhsNS_14BitDepthParamsINS_12OperandRangeILi1ELi255EEENS9_ILi0ELi255EEEEELNS_8MapOrderE1ELSD_0ELSD_1ENS_9VectorDupIKiLNS_11VectorShapeE1EEENSE_ISF_LSG_0EEENSt3__15tupleIJNS_23OutputStageBiasAdditionINS_9VectorMapISF_LSG_1EEEEENS_44OutputStageScaleInt32ByFixedPointAndExponentENS_16OutputStageClampENS_32OutputStageSaturatingCastToInt16EEEENS_11GemmContextEEE = linkonce_odr hidden unnamed_addr constant { [5 x i8*] } { [5 x i8*] [i8* null, i8* null, i8* bitcast (void (%"struct.gemmlowp::GemmWithPackedRhsTask"*)* @_ZN8gemmlowp21GemmWithPackedRhsTaskINS_12KernelFormatINS_16KernelSideFormatINS_10CellFormatILi4ELi16ELNS_9CellOrderE1EEELi1EEES6_EEhsNS_14BitDepthParamsINS_12OperandRangeILi1ELi255EEENS9_ILi0ELi255EEEEELNS_8MapOrderE1ELSD_0ELSD_1ENS_9VectorDupIKiLNS_11VectorShapeE1EEENSE_ISF_LSG_0EEENSt3__15tupleIJNS_23OutputStageBiasAdditionINS_9VectorMapISF_LSG_1EEEEENS_44OutputStageScaleInt32ByFixedPointAndExponentENS_16OutputStageClampENS_32OutputStageSaturatingCastToInt16EEEENS_11GemmContextEED2Ev to i8*), i8* bitcast (void (%"struct.gemmlowp::GemmWithPackedRhsTask"*)* @_ZN8gemmlowp21GemmWithPackedRhsTaskINS_12KernelFormatINS_16KernelSideFormatINS_10CellFormatILi4ELi16ELNS_9CellOrderE1EEELi1EEES6_EEhsNS_14BitDepthParamsINS_12OperandRangeILi1ELi255EEENS9_ILi0ELi255EEEEELNS_8MapOrderE1ELSD_0ELSD_1ENS_9VectorDupIKiLNS_11VectorShapeE1EEENSE_ISF_LSG_0EEENSt3__15tupleIJNS_23OutputStageBiasAdditionINS_9VectorMapISF_LSG_1EEEEENS_44OutputStageScaleInt32ByFixedPointAndExponentENS_16OutputStageClampENS_32OutputStageSaturatingCastToInt16EEEENS_11GemmContextEED0Ev to i8*), i8* bitcast (void (%"struct.gemmlowp::GemmWithPackedRhsTask"*)* @_ZN8gemmlowp21GemmWithPackedRhsTaskINS_12KernelFormatINS_16KernelSideFormatINS_10CellFormatILi4ELi16ELNS_9CellOrderE1EEELi1EEES6_EEhsNS_14BitDepthParamsINS_12OperandRangeILi1ELi255EEENS9_ILi0ELi255EEEEELNS_8MapOrderE1ELSD_0ELSD_1ENS_9VectorDupIKiLNS_11VectorShapeE1EEENSE_ISF_LSG_0EEENSt3__15tupleIJNS_23OutputStageBiasAdditionINS_9VectorMapISF_LSG_1EEEEENS_44OutputStageScaleInt32ByFixedPointAndExponentENS_16OutputStageClampENS_32OutputStageSaturatingCastToInt16EEEENS_11GemmContextEE3RunEv to i8*)] }, comdat, align 8
@_ZTVN8gemmlowp21GemmWithPackedRhsTaskINS_12KernelFormatINS_16KernelSideFormatINS_10CellFormatILi4ELi16ELNS_9CellOrderE1EEELi1EEES6_EEhsNS_14BitDepthParamsINS_12OperandRangeILi1ELi255EEENS9_ILi0ELi255EEEEELNS_8MapOrderE1ELSD_0ELSD_0ENS_9VectorDupIKiLNS_11VectorShapeE0EEENSE_ISF_LSG_1EEENSt3__15tupleIJNS_23OutputStageBiasAdditionINS_9VectorMapISF_LSG_0EEEEENS_44OutputStageScaleInt32ByFixedPointAndExponentENS_16OutputStageClampENS_32OutputStageSaturatingCastToInt16EEEENS_11GemmContextEEE = linkonce_odr hidden unnamed_addr constant { [5 x i8*] } { [5 x i8*] [i8* null, i8* null, i8* bitcast (void (%"struct.gemmlowp::GemmWithPackedRhsTask.406"*)* @_ZN8gemmlowp21GemmWithPackedRhsTaskINS_12KernelFormatINS_16KernelSideFormatINS_10CellFormatILi4ELi16ELNS_9CellOrderE1EEELi1EEES6_EEhsNS_14BitDepthParamsINS_12OperandRangeILi1ELi255EEENS9_ILi0ELi255EEEEELNS_8MapOrderE1ELSD_0ELSD_0ENS_9VectorDupIKiLNS_11VectorShapeE0EEENSE_ISF_LSG_1EEENSt3__15tupleIJNS_23OutputStageBiasAdditionINS_9VectorMapISF_LSG_0EEEEENS_44OutputStageScaleInt32ByFixedPointAndExponentENS_16OutputStageClampENS_32OutputStageSaturatingCastToInt16EEEENS_11GemmContextEED2Ev to i8*), i8* bitcast (void (%"struct.gemmlowp::GemmWithPackedRhsTask.406"*)* @_ZN8gemmlowp21GemmWithPackedRhsTaskINS_12KernelFormatINS_16KernelSideFormatINS_10CellFormatILi4ELi16ELNS_9CellOrderE1EEELi1EEES6_EEhsNS_14BitDepthParamsINS_12OperandRangeILi1ELi255EEENS9_ILi0ELi255EEEEELNS_8MapOrderE1ELSD_0ELSD_0ENS_9VectorDupIKiLNS_11VectorShapeE0EEENSE_ISF_LSG_1EEENSt3__15tupleIJNS_23OutputStageBiasAdditionINS_9VectorMapISF_LSG_0EEEEENS_44OutputStageScaleInt32ByFixedPointAndExponentENS_16OutputStageClampENS_32OutputStageSaturatingCastToInt16EEEENS_11GemmContextEED0Ev to i8*), i8* bitcast (void (%"struct.gemmlowp::GemmWithPackedRhsTask.406"*)* @_ZN8gemmlowp21GemmWithPackedRhsTaskINS_12KernelFormatINS_16KernelSideFormatINS_10CellFormatILi4ELi16ELNS_9CellOrderE1EEELi1EEES6_EEhsNS_14BitDepthParamsINS_12OperandRangeILi1ELi255EEENS9_ILi0ELi255EEEEELNS_8MapOrderE1ELSD_0ELSD_0ENS_9VectorDupIKiLNS_11VectorShapeE0EEENSE_ISF_LSG_1EEENSt3__15tupleIJNS_23OutputStageBiasAdditionINS_9VectorMapISF_LSG_0EEEEENS_44OutputStageScaleInt32ByFixedPointAndExponentENS_16OutputStageClampENS_32OutputStageSaturatingCastToInt16EEEENS_11GemmContextEE3RunEv to i8*)] }, comdat, align 8
@_ZTVN8gemmlowp13DefaultKernelINS_14BitDepthParamsINS_12OperandRangeILi1ELi255EEENS2_ILi0ELi255EEEEEEE = linkonce_odr hidden unnamed_addr constant { [6 x i8*] } { [6 x i8*] [i8* null, i8* null, i8* bitcast (i8* (%"struct.gemmlowp::ReferenceKernel"*)* @_ZNK8gemmlowp15ReferenceKernelINS_12KernelFormatINS_16KernelSideFormatINS_10CellFormatILi4ELi16ELNS_9CellOrderE1EEELi1EEES6_EEE4NameEv to i8*), i8* bitcast (void (%"struct.gemmlowp::ReferenceKernel"*, i32*, i64, i64, i8*, i8*, i64, i64)* @_ZNK8gemmlowp15ReferenceKernelINS_12KernelFormatINS_16KernelSideFormatINS_10CellFormatILi4ELi16ELNS_9CellOrderE1EEELi1EEES6_EEE3RunEPimmPKhSB_mm to i8*), i8* bitcast (void (%"struct.gemmlowp::KernelBase"*)* @_ZN8gemmlowp10KernelBaseD2Ev to i8*), i8* bitcast (void (%"struct.gemmlowp::DefaultKernel"*)* @_ZN8gemmlowp13DefaultKernelINS_14BitDepthParamsINS_12OperandRangeILi1ELi255EEENS2_ILi0ELi255EEEEEED0Ev to i8*)] }, comdat, align 8
@_ZZNK8gemmlowp15ReferenceKernelINS_12KernelFormatINS_16KernelSideFormatINS_10CellFormatILi4ELi16ELNS_9CellOrderE1EEELi1EEES6_EEE4NameEvE3buf = linkonce_odr hidden global [256 x i8] zeroinitializer, comdat, align 16
@.str.163 = private unnamed_addr constant [58 x i8] c"reference(Lhs: %d cells %dx%d %s, Rhs: %d cells %dx%d %s)\00", align 1
@.str.165 = private unnamed_addr constant [11 x i8] c"WidthMajor\00", align 1
@_ZTVN8gemmlowp21GemmWithPackedRhsTaskINS_12KernelFormatINS_16KernelSideFormatINS_10CellFormatILi4ELi16ELNS_9CellOrderE1EEELi1EEES6_EEhsNS_14BitDepthParamsINS_12OperandRangeILi1ELi255EEENS9_ILi0ELi255EEEEELNS_8MapOrderE1ELSD_0ELSD_1ENS_9VectorDupIKiLNS_11VectorShapeE1EEENSE_ISF_LSG_0EEENSt3__15tupleIJNS_44OutputStageScaleInt32ByFixedPointAndExponentENS_16OutputStageClampENS_32OutputStageSaturatingCastToInt16EEEENS_11GemmContextEEE = linkonce_odr hidden unnamed_addr constant { [5 x i8*] } { [5 x i8*] [i8* null, i8* null, i8* bitcast (void (%"struct.gemmlowp::GemmWithPackedRhsTask.463"*)* @_ZN8gemmlowp21GemmWithPackedRhsTaskINS_12KernelFormatINS_16KernelSideFormatINS_10CellFormatILi4ELi16ELNS_9CellOrderE1EEELi1EEES6_EEhsNS_14BitDepthParamsINS_12OperandRangeILi1ELi255EEENS9_ILi0ELi255EEEEELNS_8MapOrderE1ELSD_0ELSD_1ENS_9VectorDupIKiLNS_11VectorShapeE1EEENSE_ISF_LSG_0EEENSt3__15tupleIJNS_44OutputStageScaleInt32ByFixedPointAndExponentENS_16OutputStageClampENS_32OutputStageSaturatingCastToInt16EEEENS_11GemmContextEED2Ev to i8*), i8* bitcast (void (%"struct.gemmlowp::GemmWithPackedRhsTask.463"*)* @_ZN8gemmlowp21GemmWithPackedRhsTaskINS_12KernelFormatINS_16KernelSideFormatINS_10CellFormatILi4ELi16ELNS_9CellOrderE1EEELi1EEES6_EEhsNS_14BitDepthParamsINS_12OperandRangeILi1ELi255EEENS9_ILi0ELi255EEEEELNS_8MapOrderE1ELSD_0ELSD_1ENS_9VectorDupIKiLNS_11VectorShapeE1EEENSE_ISF_LSG_0EEENSt3__15tupleIJNS_44OutputStageScaleInt32ByFixedPointAndExponentENS_16OutputStageClampENS_32OutputStageSaturatingCastToInt16EEEENS_11GemmContextEED0Ev to i8*), i8* bitcast (void (%"struct.gemmlowp::GemmWithPackedRhsTask.463"*)* @_ZN8gemmlowp21GemmWithPackedRhsTaskINS_12KernelFormatINS_16KernelSideFormatINS_10CellFormatILi4ELi16ELNS_9CellOrderE1EEELi1EEES6_EEhsNS_14BitDepthParamsINS_12OperandRangeILi1ELi255EEENS9_ILi0ELi255EEEEELNS_8MapOrderE1ELSD_0ELSD_1ENS_9VectorDupIKiLNS_11VectorShapeE1EEENSE_ISF_LSG_0EEENSt3__15tupleIJNS_44OutputStageScaleInt32ByFixedPointAndExponentENS_16OutputStageClampENS_32OutputStageSaturatingCastToInt16EEEENS_11GemmContextEE3RunEv to i8*)] }, comdat, align 8
@_ZTVN8gemmlowp21GemmWithPackedRhsTaskINS_12KernelFormatINS_16KernelSideFormatINS_10CellFormatILi4ELi16ELNS_9CellOrderE1EEELi1EEES6_EEhsNS_14BitDepthParamsINS_12OperandRangeILi1ELi255EEENS9_ILi0ELi255EEEEELNS_8MapOrderE1ELSD_0ELSD_0ENS_9VectorDupIKiLNS_11VectorShapeE0EEENSE_ISF_LSG_1EEENSt3__15tupleIJNS_44OutputStageScaleInt32ByFixedPointAndExponentENS_16OutputStageClampENS_32OutputStageSaturatingCastToInt16EEEENS_11GemmContextEEE = linkonce_odr hidden unnamed_addr constant { [5 x i8*] } { [5 x i8*] [i8* null, i8* null, i8* bitcast (void (%"struct.gemmlowp::GemmWithPackedRhsTask.506"*)* @_ZN8gemmlowp21GemmWithPackedRhsTaskINS_12KernelFormatINS_16KernelSideFormatINS_10CellFormatILi4ELi16ELNS_9CellOrderE1EEELi1EEES6_EEhsNS_14BitDepthParamsINS_12OperandRangeILi1ELi255EEENS9_ILi0ELi255EEEEELNS_8MapOrderE1ELSD_0ELSD_0ENS_9VectorDupIKiLNS_11VectorShapeE0EEENSE_ISF_LSG_1EEENSt3__15tupleIJNS_44OutputStageScaleInt32ByFixedPointAndExponentENS_16OutputStageClampENS_32OutputStageSaturatingCastToInt16EEEENS_11GemmContextEED2Ev to i8*), i8* bitcast (void (%"struct.gemmlowp::GemmWithPackedRhsTask.506"*)* @_ZN8gemmlowp21GemmWithPackedRhsTaskINS_12KernelFormatINS_16KernelSideFormatINS_10CellFormatILi4ELi16ELNS_9CellOrderE1EEELi1EEES6_EEhsNS_14BitDepthParamsINS_12OperandRangeILi1ELi255EEENS9_ILi0ELi255EEEEELNS_8MapOrderE1ELSD_0ELSD_0ENS_9VectorDupIKiLNS_11VectorShapeE0EEENSE_ISF_LSG_1EEENSt3__15tupleIJNS_44OutputStageScaleInt32ByFixedPointAndExponentENS_16OutputStageClampENS_32OutputStageSaturatingCastToInt16EEEENS_11GemmContextEED0Ev to i8*), i8* bitcast (void (%"struct.gemmlowp::GemmWithPackedRhsTask.506"*)* @_ZN8gemmlowp21GemmWithPackedRhsTaskINS_12KernelFormatINS_16KernelSideFormatINS_10CellFormatILi4ELi16ELNS_9CellOrderE1EEELi1EEES6_EEhsNS_14BitDepthParamsINS_12OperandRangeILi1ELi255EEENS9_ILi0ELi255EEEEELNS_8MapOrderE1ELSD_0ELSD_0ENS_9VectorDupIKiLNS_11VectorShapeE0EEENSE_ISF_LSG_1EEENSt3__15tupleIJNS_44OutputStageScaleInt32ByFixedPointAndExponentENS_16OutputStageClampENS_32OutputStageSaturatingCastToInt16EEEENS_11GemmContextEE3RunEv to i8*)] }, comdat, align 8
@llvm.global_ctors = appending global [0 x { i32, void ()*, i8* }] zeroinitializer

; Function Attrs: argmemonly nounwind
declare {}* @llvm.invariant.start.p0i8(i64 immarg, i8* nocapture) #0

; Function Attrs: nounwind ssp uwtable
define hidden nonnull i8* @_ZN6tflite3ops7builtin4lstm4full4InitEP13TfLiteContextPKcm(%struct.TfLiteContext*, i8* nocapture readnone, i64) local_unnamed_addr #1 {
  %4 = tail call i8* @_Znwm(i64 376) #17
  %5 = getelementptr inbounds %struct.TfLiteContext, %struct.TfLiteContext* %0, i64 0, i32 6
  call void @llvm.memset.p0i8.i64(i8* nonnull align 8 %4, i8 0, i64 376, i1 false)
  %6 = load i32 (%struct.TfLiteContext*, i32, i32*)*, i32 (%struct.TfLiteContext*, i32, i32*)** %5, align 8
  %7 = getelementptr inbounds i8, i8* %4, i64 8
  %8 = bitcast i8* %7 to i32*
  %9 = tail call i32 %6(%struct.TfLiteContext* %0, i32 10, i32* %8) #18
  ret i8* %4
}

; Function Attrs: argmemonly nounwind
declare void @llvm.lifetime.start.p0i8(i64 immarg, i8* nocapture) #0

; Function Attrs: nobuiltin nofree
declare noalias nonnull i8* @_Znwm(i64) local_unnamed_addr #2

; Function Attrs: argmemonly nounwind
declare void @llvm.memset.p0i8.i64(i8* nocapture writeonly, i8, i64, i1 immarg) #0

; Function Attrs: argmemonly nounwind
declare void @llvm.lifetime.end.p0i8(i64 immarg, i8* nocapture) #0

; Function Attrs: nounwind ssp uwtable
define hidden i32 @_ZN6tflite3ops7builtin4lstm4full26CheckInputTensorDimensionsEP13TfLiteContextP10TfLiteNodeiiibb(%struct.TfLiteContext*, %struct.TfLiteNode* nocapture readonly, i32, i32, i32, i1 zeroext, i1 zeroext) local_unnamed_addr #1 {
  %8 = getelementptr inbounds %struct.TfLiteNode, %struct.TfLiteNode* %1, i64 0, i32 5
  %9 = bitcast i8** %8 to %struct.TfLiteLSTMParams**
  %10 = load %struct.TfLiteLSTMParams*, %struct.TfLiteLSTMParams** %9, align 8
  %11 = getelementptr inbounds %struct.TfLiteLSTMParams, %struct.TfLiteLSTMParams* %10, i64 0, i32 1
  %12 = load float, float* %11, align 4
  %13 = fcmp ult float %12, 0.000000e+00
  br i1 %13, label %14, label %17

14:                                               ; preds = %7
  %15 = getelementptr inbounds %struct.TfLiteContext, %struct.TfLiteContext* %0, i64 0, i32 5
  %16 = load void (%struct.TfLiteContext*, i8*, ...)*, void (%struct.TfLiteContext*, i8*, ...)** %15, align 8
  tail call void (%struct.TfLiteContext*, i8*, ...) %16(%struct.TfLiteContext* %0, i8* getelementptr inbounds ([23 x i8], [23 x i8]* @.str, i64 0, i64 0), i8* getelementptr inbounds ([61 x i8], [61 x i8]* @.str.3, i64 0, i64 0), i32 743, i8* getelementptr inbounds ([23 x i8], [23 x i8]* @.str.4, i64 0, i64 0)) #18
  br label %884

17:                                               ; preds = %7
  %18 = getelementptr inbounds %struct.TfLiteLSTMParams, %struct.TfLiteLSTMParams* %10, i64 0, i32 2
  %19 = load float, float* %18, align 4
  %20 = fcmp ult float %19, 0.000000e+00
  br i1 %20, label %21, label %24

21:                                               ; preds = %17
  %22 = getelementptr inbounds %struct.TfLiteContext, %struct.TfLiteContext* %0, i64 0, i32 5
  %23 = load void (%struct.TfLiteContext*, i8*, ...)*, void (%struct.TfLiteContext*, i8*, ...)** %22, align 8
  tail call void (%struct.TfLiteContext*, i8*, ...) %23(%struct.TfLiteContext* %0, i8* getelementptr inbounds ([23 x i8], [23 x i8]* @.str, i64 0, i64 0), i8* getelementptr inbounds ([61 x i8], [61 x i8]* @.str.3, i64 0, i64 0), i32 744, i8* getelementptr inbounds ([23 x i8], [23 x i8]* @.str.5, i64 0, i64 0)) #18
  br label %884

24:                                               ; preds = %17
  %25 = getelementptr inbounds %struct.TfLiteNode, %struct.TfLiteNode* %1, i64 0, i32 0
  %26 = load %struct.TfLiteIntArray*, %struct.TfLiteIntArray** %25, align 8
  %27 = getelementptr inbounds %struct.TfLiteIntArray, %struct.TfLiteIntArray* %26, i64 0, i32 1, i64 2
  %28 = load i32, i32* %27, align 4
  %29 = icmp slt i32 %28, 0
  br i1 %29, label %35, label %30

30:                                               ; preds = %24
  %31 = getelementptr inbounds %struct.TfLiteContext, %struct.TfLiteContext* %0, i64 0, i32 2
  %32 = load %struct.TfLiteTensor*, %struct.TfLiteTensor** %31, align 8
  %33 = sext i32 %28 to i64
  %34 = getelementptr inbounds %struct.TfLiteTensor, %struct.TfLiteTensor* %32, i64 %33
  br label %35

35:                                               ; preds = %24, %30
  %36 = phi %struct.TfLiteTensor* [ %34, %30 ], [ null, %24 ]
  %37 = getelementptr inbounds %struct.TfLiteTensor, %struct.TfLiteTensor* %36, i64 0, i32 2
  %38 = load %struct.TfLiteIntArray*, %struct.TfLiteIntArray** %37, align 8
  %39 = getelementptr inbounds %struct.TfLiteIntArray, %struct.TfLiteIntArray* %38, i64 0, i32 0
  %40 = load i32, i32* %39, align 4
  %41 = icmp eq i32 %40, 2
  br i1 %41, label %45, label %42

42:                                               ; preds = %35
  %43 = getelementptr inbounds %struct.TfLiteContext, %struct.TfLiteContext* %0, i64 0, i32 5
  %44 = load void (%struct.TfLiteContext*, i8*, ...)*, void (%struct.TfLiteContext*, i8*, ...)** %43, align 8
  tail call void (%struct.TfLiteContext*, i8*, ...) %44(%struct.TfLiteContext* %0, i8* getelementptr inbounds ([26 x i8], [26 x i8]* @.str.6, i64 0, i64 0), i8* getelementptr inbounds ([61 x i8], [61 x i8]* @.str.3, i64 0, i64 0), i32 748, i8* getelementptr inbounds ([36 x i8], [36 x i8]* @.str.7, i64 0, i64 0), i8* getelementptr inbounds ([2 x i8], [2 x i8]* @.str.8, i64 0, i64 0), i32 %40, i32 2) #18
  br label %884

45:                                               ; preds = %35
  %46 = getelementptr inbounds %struct.TfLiteIntArray, %struct.TfLiteIntArray* %38, i64 0, i32 1, i64 0
  %47 = load i32, i32* %46, align 4
  %48 = icmp eq i32 %47, %4
  br i1 %48, label %52, label %49

49:                                               ; preds = %45
  %50 = getelementptr inbounds %struct.TfLiteContext, %struct.TfLiteContext* %0, i64 0, i32 5
  %51 = load void (%struct.TfLiteContext*, i8*, ...)*, void (%struct.TfLiteContext*, i8*, ...)** %50, align 8
  tail call void (%struct.TfLiteContext*, i8*, ...) %51(%struct.TfLiteContext* %0, i8* getelementptr inbounds ([26 x i8], [26 x i8]* @.str.6, i64 0, i64 0), i8* getelementptr inbounds ([61 x i8], [61 x i8]* @.str.3, i64 0, i64 0), i32 749, i8* getelementptr inbounds ([39 x i8], [39 x i8]* @.str.9, i64 0, i64 0), i8* getelementptr inbounds ([7 x i8], [7 x i8]* @.str.10, i64 0, i64 0), i32 %47, i32 %4) #18
  br label %884

52:                                               ; preds = %45
  %53 = getelementptr inbounds %struct.TfLiteIntArray, %struct.TfLiteIntArray* %38, i64 0, i32 1, i64 1
  %54 = load i32, i32* %53, align 4
  %55 = icmp eq i32 %54, %2
  br i1 %55, label %59, label %56

56:                                               ; preds = %52
  %57 = getelementptr inbounds %struct.TfLiteContext, %struct.TfLiteContext* %0, i64 0, i32 5
  %58 = load void (%struct.TfLiteContext*, i8*, ...)*, void (%struct.TfLiteContext*, i8*, ...)** %57, align 8
  tail call void (%struct.TfLiteContext*, i8*, ...) %58(%struct.TfLiteContext* %0, i8* getelementptr inbounds ([26 x i8], [26 x i8]* @.str.6, i64 0, i64 0), i8* getelementptr inbounds ([61 x i8], [61 x i8]* @.str.3, i64 0, i64 0), i32 750, i8* getelementptr inbounds ([39 x i8], [39 x i8]* @.str.11, i64 0, i64 0), i8* getelementptr inbounds ([8 x i8], [8 x i8]* @.str.12, i64 0, i64 0), i32 %54, i32 %2) #18
  br label %884

59:                                               ; preds = %52
  %60 = getelementptr inbounds %struct.TfLiteTensor, %struct.TfLiteTensor* %36, i64 0, i32 0
  %61 = load i32, i32* %60, align 8
  switch i32 %61, label %62 [
    i32 1, label %65
    i32 3, label %65
    i32 9, label %65
  ]

62:                                               ; preds = %59
  %63 = getelementptr inbounds %struct.TfLiteContext, %struct.TfLiteContext* %0, i64 0, i32 5
  %64 = load void (%struct.TfLiteContext*, i8*, ...)*, void (%struct.TfLiteContext*, i8*, ...)** %63, align 8
  tail call void (%struct.TfLiteContext*, i8*, ...) %64(%struct.TfLiteContext* %0, i8* getelementptr inbounds ([23 x i8], [23 x i8]* @.str, i64 0, i64 0), i8* getelementptr inbounds ([61 x i8], [61 x i8]* @.str.3, i64 0, i64 0), i32 753, i8* getelementptr inbounds ([151 x i8], [151 x i8]* @.str.13, i64 0, i64 0)) #18
  br label %884

65:                                               ; preds = %59, %59, %59
  %66 = getelementptr inbounds %struct.TfLiteIntArray, %struct.TfLiteIntArray* %26, i64 0, i32 1, i64 1
  %67 = load i32, i32* %66, align 4
  %68 = icmp slt i32 %67, 0
  br i1 %68, label %108, label %69

69:                                               ; preds = %65
  %70 = getelementptr inbounds %struct.TfLiteContext, %struct.TfLiteContext* %0, i64 0, i32 2
  %71 = load %struct.TfLiteTensor*, %struct.TfLiteTensor** %70, align 8
  %72 = sext i32 %67 to i64
  %73 = getelementptr inbounds %struct.TfLiteTensor, %struct.TfLiteTensor* %71, i64 %72
  %74 = icmp eq %struct.TfLiteTensor* %73, null
  br i1 %74, label %108, label %75

75:                                               ; preds = %69
  %76 = getelementptr inbounds %struct.TfLiteTensor, %struct.TfLiteTensor* %71, i64 %72, i32 2
  %77 = load %struct.TfLiteIntArray*, %struct.TfLiteIntArray** %76, align 8
  %78 = getelementptr inbounds %struct.TfLiteIntArray, %struct.TfLiteIntArray* %77, i64 0, i32 0
  %79 = load i32, i32* %78, align 4
  %80 = icmp eq i32 %79, 2
  br i1 %80, label %84, label %81

81:                                               ; preds = %75
  %82 = getelementptr inbounds %struct.TfLiteContext, %struct.TfLiteContext* %0, i64 0, i32 5
  %83 = load void (%struct.TfLiteContext*, i8*, ...)*, void (%struct.TfLiteContext*, i8*, ...)** %82, align 8
  tail call void (%struct.TfLiteContext*, i8*, ...) %83(%struct.TfLiteContext* %0, i8* getelementptr inbounds ([26 x i8], [26 x i8]* @.str.6, i64 0, i64 0), i8* getelementptr inbounds ([61 x i8], [61 x i8]* @.str.3, i64 0, i64 0), i32 759, i8* getelementptr inbounds ([35 x i8], [35 x i8]* @.str.14, i64 0, i64 0), i8* getelementptr inbounds ([2 x i8], [2 x i8]* @.str.8, i64 0, i64 0), i32 %79, i32 2) #18
  br label %884

84:                                               ; preds = %75
  %85 = getelementptr inbounds %struct.TfLiteIntArray, %struct.TfLiteIntArray* %77, i64 0, i32 1, i64 0
  %86 = load i32, i32* %85, align 4
  %87 = icmp eq i32 %86, %4
  br i1 %87, label %91, label %88

88:                                               ; preds = %84
  %89 = getelementptr inbounds %struct.TfLiteContext, %struct.TfLiteContext* %0, i64 0, i32 5
  %90 = load void (%struct.TfLiteContext*, i8*, ...)*, void (%struct.TfLiteContext*, i8*, ...)** %89, align 8
  tail call void (%struct.TfLiteContext*, i8*, ...) %90(%struct.TfLiteContext* %0, i8* getelementptr inbounds ([26 x i8], [26 x i8]* @.str.6, i64 0, i64 0), i8* getelementptr inbounds ([61 x i8], [61 x i8]* @.str.3, i64 0, i64 0), i32 760, i8* getelementptr inbounds ([38 x i8], [38 x i8]* @.str.15, i64 0, i64 0), i8* getelementptr inbounds ([7 x i8], [7 x i8]* @.str.10, i64 0, i64 0), i32 %86, i32 %4) #18
  br label %884

91:                                               ; preds = %84
  %92 = getelementptr inbounds %struct.TfLiteIntArray, %struct.TfLiteIntArray* %77, i64 0, i32 1, i64 1
  %93 = load i32, i32* %92, align 4
  %94 = icmp eq i32 %93, %2
  br i1 %94, label %98, label %95

95:                                               ; preds = %91
  %96 = getelementptr inbounds %struct.TfLiteContext, %struct.TfLiteContext* %0, i64 0, i32 5
  %97 = load void (%struct.TfLiteContext*, i8*, ...)*, void (%struct.TfLiteContext*, i8*, ...)** %96, align 8
  tail call void (%struct.TfLiteContext*, i8*, ...) %97(%struct.TfLiteContext* %0, i8* getelementptr inbounds ([26 x i8], [26 x i8]* @.str.6, i64 0, i64 0), i8* getelementptr inbounds ([61 x i8], [61 x i8]* @.str.3, i64 0, i64 0), i32 761, i8* getelementptr inbounds ([38 x i8], [38 x i8]* @.str.16, i64 0, i64 0), i8* getelementptr inbounds ([8 x i8], [8 x i8]* @.str.12, i64 0, i64 0), i32 %93, i32 %2) #18
  br label %884

98:                                               ; preds = %91
  %99 = getelementptr inbounds %struct.TfLiteTensor, %struct.TfLiteTensor* %73, i64 0, i32 0
  %100 = load i32, i32* %99, align 8
  %101 = icmp eq i32 %100, %61
  br i1 %101, label %108, label %102

102:                                              ; preds = %98
  %103 = getelementptr inbounds %struct.TfLiteContext, %struct.TfLiteContext* %0, i64 0, i32 5
  %104 = load void (%struct.TfLiteContext*, i8*, ...)*, void (%struct.TfLiteContext*, i8*, ...)** %103, align 8
  %105 = tail call i8* @TfLiteTypeGetName(i32 %100) #18
  %106 = load i32, i32* %60, align 8
  %107 = tail call i8* @TfLiteTypeGetName(i32 %106) #18
  tail call void (%struct.TfLiteContext*, i8*, ...) %104(%struct.TfLiteContext* %0, i8* getelementptr inbounds ([26 x i8], [26 x i8]* @.str.17, i64 0, i64 0), i8* getelementptr inbounds ([61 x i8], [61 x i8]* @.str.3, i64 0, i64 0), i32 763, i8* getelementptr inbounds ([29 x i8], [29 x i8]* @.str.18, i64 0, i64 0), i8* getelementptr inbounds ([30 x i8], [30 x i8]* @.str.19, i64 0, i64 0), i8* %105, i8* %107) #18
  br label %884

108:                                              ; preds = %65, %98, %69
  %109 = phi i1 [ false, %98 ], [ true, %69 ], [ true, %65 ]
  %110 = phi %struct.TfLiteTensor* [ %73, %98 ], [ null, %69 ], [ null, %65 ]
  %111 = getelementptr inbounds %struct.TfLiteIntArray, %struct.TfLiteIntArray* %26, i64 0, i32 1, i64 3
  %112 = load i32, i32* %111, align 4
  %113 = icmp slt i32 %112, 0
  br i1 %113, label %119, label %114

114:                                              ; preds = %108
  %115 = getelementptr inbounds %struct.TfLiteContext, %struct.TfLiteContext* %0, i64 0, i32 2
  %116 = load %struct.TfLiteTensor*, %struct.TfLiteTensor** %115, align 8
  %117 = sext i32 %112 to i64
  %118 = getelementptr inbounds %struct.TfLiteTensor, %struct.TfLiteTensor* %116, i64 %117
  br label %119

119:                                              ; preds = %108, %114
  %120 = phi %struct.TfLiteTensor* [ %118, %114 ], [ null, %108 ]
  %121 = getelementptr inbounds %struct.TfLiteTensor, %struct.TfLiteTensor* %120, i64 0, i32 2
  %122 = load %struct.TfLiteIntArray*, %struct.TfLiteIntArray** %121, align 8
  %123 = getelementptr inbounds %struct.TfLiteIntArray, %struct.TfLiteIntArray* %122, i64 0, i32 0
  %124 = load i32, i32* %123, align 4
  %125 = icmp eq i32 %124, 2
  br i1 %125, label %129, label %126

126:                                              ; preds = %119
  %127 = getelementptr inbounds %struct.TfLiteContext, %struct.TfLiteContext* %0, i64 0, i32 5
  %128 = load void (%struct.TfLiteContext*, i8*, ...)*, void (%struct.TfLiteContext*, i8*, ...)** %127, align 8
  tail call void (%struct.TfLiteContext*, i8*, ...) %128(%struct.TfLiteContext* %0, i8* getelementptr inbounds ([26 x i8], [26 x i8]* @.str.6, i64 0, i64 0), i8* getelementptr inbounds ([61 x i8], [61 x i8]* @.str.3, i64 0, i64 0), i32 768, i8* getelementptr inbounds ([34 x i8], [34 x i8]* @.str.20, i64 0, i64 0), i8* getelementptr inbounds ([2 x i8], [2 x i8]* @.str.8, i64 0, i64 0), i32 %124, i32 2) #18
  br label %884

129:                                              ; preds = %119
  %130 = getelementptr inbounds %struct.TfLiteIntArray, %struct.TfLiteIntArray* %122, i64 0, i32 1, i64 0
  %131 = load i32, i32* %130, align 4
  %132 = icmp eq i32 %131, %4
  br i1 %132, label %136, label %133

133:                                              ; preds = %129
  %134 = getelementptr inbounds %struct.TfLiteContext, %struct.TfLiteContext* %0, i64 0, i32 5
  %135 = load void (%struct.TfLiteContext*, i8*, ...)*, void (%struct.TfLiteContext*, i8*, ...)** %134, align 8
  tail call void (%struct.TfLiteContext*, i8*, ...) %135(%struct.TfLiteContext* %0, i8* getelementptr inbounds ([26 x i8], [26 x i8]* @.str.6, i64 0, i64 0), i8* getelementptr inbounds ([61 x i8], [61 x i8]* @.str.3, i64 0, i64 0), i32 769, i8* getelementptr inbounds ([37 x i8], [37 x i8]* @.str.21, i64 0, i64 0), i8* getelementptr inbounds ([7 x i8], [7 x i8]* @.str.10, i64 0, i64 0), i32 %131, i32 %4) #18
  br label %884

136:                                              ; preds = %129
  %137 = getelementptr inbounds %struct.TfLiteIntArray, %struct.TfLiteIntArray* %122, i64 0, i32 1, i64 1
  %138 = load i32, i32* %137, align 4
  %139 = icmp eq i32 %138, %2
  br i1 %139, label %143, label %140

140:                                              ; preds = %136
  %141 = getelementptr inbounds %struct.TfLiteContext, %struct.TfLiteContext* %0, i64 0, i32 5
  %142 = load void (%struct.TfLiteContext*, i8*, ...)*, void (%struct.TfLiteContext*, i8*, ...)** %141, align 8
  tail call void (%struct.TfLiteContext*, i8*, ...) %142(%struct.TfLiteContext* %0, i8* getelementptr inbounds ([26 x i8], [26 x i8]* @.str.6, i64 0, i64 0), i8* getelementptr inbounds ([61 x i8], [61 x i8]* @.str.3, i64 0, i64 0), i32 770, i8* getelementptr inbounds ([37 x i8], [37 x i8]* @.str.22, i64 0, i64 0), i8* getelementptr inbounds ([8 x i8], [8 x i8]* @.str.12, i64 0, i64 0), i32 %138, i32 %2) #18
  br label %884

143:                                              ; preds = %136
  %144 = getelementptr inbounds %struct.TfLiteTensor, %struct.TfLiteTensor* %120, i64 0, i32 0
  %145 = load i32, i32* %144, align 8
  %146 = icmp eq i32 %145, %61
  br i1 %146, label %153, label %147

147:                                              ; preds = %143
  %148 = getelementptr inbounds %struct.TfLiteContext, %struct.TfLiteContext* %0, i64 0, i32 5
  %149 = load void (%struct.TfLiteContext*, i8*, ...)*, void (%struct.TfLiteContext*, i8*, ...)** %148, align 8
  %150 = tail call i8* @TfLiteTypeGetName(i32 %145) #18
  %151 = load i32, i32* %60, align 8
  %152 = tail call i8* @TfLiteTypeGetName(i32 %151) #18
  tail call void (%struct.TfLiteContext*, i8*, ...) %149(%struct.TfLiteContext* %0, i8* getelementptr inbounds ([26 x i8], [26 x i8]* @.str.17, i64 0, i64 0), i8* getelementptr inbounds ([61 x i8], [61 x i8]* @.str.3, i64 0, i64 0), i32 772, i8* getelementptr inbounds ([28 x i8], [28 x i8]* @.str.23, i64 0, i64 0), i8* getelementptr inbounds ([30 x i8], [30 x i8]* @.str.19, i64 0, i64 0), i8* %150, i8* %152) #18
  br label %884

153:                                              ; preds = %143
  %154 = getelementptr inbounds %struct.TfLiteIntArray, %struct.TfLiteIntArray* %26, i64 0, i32 1, i64 5
  %155 = load i32, i32* %154, align 4
  %156 = icmp slt i32 %155, 0
  br i1 %156, label %196, label %157

157:                                              ; preds = %153
  %158 = getelementptr inbounds %struct.TfLiteContext, %struct.TfLiteContext* %0, i64 0, i32 2
  %159 = load %struct.TfLiteTensor*, %struct.TfLiteTensor** %158, align 8
  %160 = sext i32 %155 to i64
  %161 = getelementptr inbounds %struct.TfLiteTensor, %struct.TfLiteTensor* %159, i64 %160
  %162 = icmp eq %struct.TfLiteTensor* %161, null
  br i1 %162, label %196, label %163

163:                                              ; preds = %157
  %164 = getelementptr inbounds %struct.TfLiteTensor, %struct.TfLiteTensor* %159, i64 %160, i32 2
  %165 = load %struct.TfLiteIntArray*, %struct.TfLiteIntArray** %164, align 8
  %166 = getelementptr inbounds %struct.TfLiteIntArray, %struct.TfLiteIntArray* %165, i64 0, i32 0
  %167 = load i32, i32* %166, align 4
  %168 = icmp eq i32 %167, 2
  br i1 %168, label %172, label %169

169:                                              ; preds = %163
  %170 = getelementptr inbounds %struct.TfLiteContext, %struct.TfLiteContext* %0, i64 0, i32 5
  %171 = load void (%struct.TfLiteContext*, i8*, ...)*, void (%struct.TfLiteContext*, i8*, ...)** %170, align 8
  tail call void (%struct.TfLiteContext*, i8*, ...) %171(%struct.TfLiteContext* %0, i8* getelementptr inbounds ([26 x i8], [26 x i8]* @.str.6, i64 0, i64 0), i8* getelementptr inbounds ([61 x i8], [61 x i8]* @.str.3, i64 0, i64 0), i32 777, i8* getelementptr inbounds ([39 x i8], [39 x i8]* @.str.24, i64 0, i64 0), i8* getelementptr inbounds ([2 x i8], [2 x i8]* @.str.8, i64 0, i64 0), i32 %167, i32 2) #18
  br label %884

172:                                              ; preds = %163
  %173 = getelementptr inbounds %struct.TfLiteIntArray, %struct.TfLiteIntArray* %165, i64 0, i32 1, i64 0
  %174 = load i32, i32* %173, align 4
  %175 = icmp eq i32 %174, %4
  br i1 %175, label %179, label %176

176:                                              ; preds = %172
  %177 = getelementptr inbounds %struct.TfLiteContext, %struct.TfLiteContext* %0, i64 0, i32 5
  %178 = load void (%struct.TfLiteContext*, i8*, ...)*, void (%struct.TfLiteContext*, i8*, ...)** %177, align 8
  tail call void (%struct.TfLiteContext*, i8*, ...) %178(%struct.TfLiteContext* %0, i8* getelementptr inbounds ([26 x i8], [26 x i8]* @.str.6, i64 0, i64 0), i8* getelementptr inbounds ([61 x i8], [61 x i8]* @.str.3, i64 0, i64 0), i32 779, i8* getelementptr inbounds ([42 x i8], [42 x i8]* @.str.25, i64 0, i64 0), i8* getelementptr inbounds ([7 x i8], [7 x i8]* @.str.10, i64 0, i64 0), i32 %174, i32 %4) #18
  br label %884

179:                                              ; preds = %172
  %180 = getelementptr inbounds %struct.TfLiteIntArray, %struct.TfLiteIntArray* %165, i64 0, i32 1, i64 1
  %181 = load i32, i32* %180, align 4
  %182 = icmp eq i32 %181, %3
  br i1 %182, label %186, label %183

183:                                              ; preds = %179
  %184 = getelementptr inbounds %struct.TfLiteContext, %struct.TfLiteContext* %0, i64 0, i32 5
  %185 = load void (%struct.TfLiteContext*, i8*, ...)*, void (%struct.TfLiteContext*, i8*, ...)** %184, align 8
  tail call void (%struct.TfLiteContext*, i8*, ...) %185(%struct.TfLiteContext* %0, i8* getelementptr inbounds ([26 x i8], [26 x i8]* @.str.6, i64 0, i64 0), i8* getelementptr inbounds ([61 x i8], [61 x i8]* @.str.3, i64 0, i64 0), i32 781, i8* getelementptr inbounds ([42 x i8], [42 x i8]* @.str.26, i64 0, i64 0), i8* getelementptr inbounds ([9 x i8], [9 x i8]* @.str.27, i64 0, i64 0), i32 %181, i32 %3) #18
  br label %884

186:                                              ; preds = %179
  %187 = getelementptr inbounds %struct.TfLiteTensor, %struct.TfLiteTensor* %161, i64 0, i32 0
  %188 = load i32, i32* %187, align 8
  %189 = icmp eq i32 %188, %61
  br i1 %189, label %196, label %190

190:                                              ; preds = %186
  %191 = getelementptr inbounds %struct.TfLiteContext, %struct.TfLiteContext* %0, i64 0, i32 5
  %192 = load void (%struct.TfLiteContext*, i8*, ...)*, void (%struct.TfLiteContext*, i8*, ...)** %191, align 8
  %193 = tail call i8* @TfLiteTypeGetName(i32 %188) #18
  %194 = load i32, i32* %60, align 8
  %195 = tail call i8* @TfLiteTypeGetName(i32 %194) #18
  tail call void (%struct.TfLiteContext*, i8*, ...) %192(%struct.TfLiteContext* %0, i8* getelementptr inbounds ([26 x i8], [26 x i8]* @.str.17, i64 0, i64 0), i8* getelementptr inbounds ([61 x i8], [61 x i8]* @.str.3, i64 0, i64 0), i32 783, i8* getelementptr inbounds ([33 x i8], [33 x i8]* @.str.28, i64 0, i64 0), i8* getelementptr inbounds ([30 x i8], [30 x i8]* @.str.19, i64 0, i64 0), i8* %193, i8* %195) #18
  br label %884

196:                                              ; preds = %157, %153, %186
  %197 = phi i1 [ true, %186 ], [ false, %157 ], [ false, %153 ]
  %198 = phi %struct.TfLiteTensor* [ %161, %186 ], [ null, %157 ], [ null, %153 ]
  %199 = getelementptr inbounds %struct.TfLiteIntArray, %struct.TfLiteIntArray* %26, i64 0, i32 1, i64 6
  %200 = load i32, i32* %199, align 4
  %201 = icmp slt i32 %200, 0
  br i1 %201, label %207, label %202

202:                                              ; preds = %196
  %203 = getelementptr inbounds %struct.TfLiteContext, %struct.TfLiteContext* %0, i64 0, i32 2
  %204 = load %struct.TfLiteTensor*, %struct.TfLiteTensor** %203, align 8
  %205 = sext i32 %200 to i64
  %206 = getelementptr inbounds %struct.TfLiteTensor, %struct.TfLiteTensor* %204, i64 %205
  br label %207

207:                                              ; preds = %196, %202
  %208 = phi %struct.TfLiteTensor* [ %206, %202 ], [ null, %196 ]
  %209 = getelementptr inbounds %struct.TfLiteTensor, %struct.TfLiteTensor* %208, i64 0, i32 2
  %210 = load %struct.TfLiteIntArray*, %struct.TfLiteIntArray** %209, align 8
  %211 = getelementptr inbounds %struct.TfLiteIntArray, %struct.TfLiteIntArray* %210, i64 0, i32 0
  %212 = load i32, i32* %211, align 4
  %213 = icmp eq i32 %212, 2
  br i1 %213, label %217, label %214

214:                                              ; preds = %207
  %215 = getelementptr inbounds %struct.TfLiteContext, %struct.TfLiteContext* %0, i64 0, i32 5
  %216 = load void (%struct.TfLiteContext*, i8*, ...)*, void (%struct.TfLiteContext*, i8*, ...)** %215, align 8
  tail call void (%struct.TfLiteContext*, i8*, ...) %216(%struct.TfLiteContext* %0, i8* getelementptr inbounds ([26 x i8], [26 x i8]* @.str.6, i64 0, i64 0), i8* getelementptr inbounds ([61 x i8], [61 x i8]* @.str.3, i64 0, i64 0), i32 788, i8* getelementptr inbounds ([40 x i8], [40 x i8]* @.str.29, i64 0, i64 0), i8* getelementptr inbounds ([2 x i8], [2 x i8]* @.str.8, i64 0, i64 0), i32 %212, i32 2) #18
  br label %884

217:                                              ; preds = %207
  %218 = getelementptr inbounds %struct.TfLiteIntArray, %struct.TfLiteIntArray* %210, i64 0, i32 1, i64 0
  %219 = load i32, i32* %218, align 4
  %220 = icmp eq i32 %219, %4
  br i1 %220, label %224, label %221

221:                                              ; preds = %217
  %222 = getelementptr inbounds %struct.TfLiteContext, %struct.TfLiteContext* %0, i64 0, i32 5
  %223 = load void (%struct.TfLiteContext*, i8*, ...)*, void (%struct.TfLiteContext*, i8*, ...)** %222, align 8
  tail call void (%struct.TfLiteContext*, i8*, ...) %223(%struct.TfLiteContext* %0, i8* getelementptr inbounds ([26 x i8], [26 x i8]* @.str.6, i64 0, i64 0), i8* getelementptr inbounds ([61 x i8], [61 x i8]* @.str.3, i64 0, i64 0), i32 790, i8* getelementptr inbounds ([43 x i8], [43 x i8]* @.str.30, i64 0, i64 0), i8* getelementptr inbounds ([7 x i8], [7 x i8]* @.str.10, i64 0, i64 0), i32 %219, i32 %4) #18
  br label %884

224:                                              ; preds = %217
  %225 = getelementptr inbounds %struct.TfLiteIntArray, %struct.TfLiteIntArray* %210, i64 0, i32 1, i64 1
  %226 = load i32, i32* %225, align 4
  %227 = icmp eq i32 %226, %3
  br i1 %227, label %231, label %228

228:                                              ; preds = %224
  %229 = getelementptr inbounds %struct.TfLiteContext, %struct.TfLiteContext* %0, i64 0, i32 5
  %230 = load void (%struct.TfLiteContext*, i8*, ...)*, void (%struct.TfLiteContext*, i8*, ...)** %229, align 8
  tail call void (%struct.TfLiteContext*, i8*, ...) %230(%struct.TfLiteContext* %0, i8* getelementptr inbounds ([26 x i8], [26 x i8]* @.str.6, i64 0, i64 0), i8* getelementptr inbounds ([61 x i8], [61 x i8]* @.str.3, i64 0, i64 0), i32 792, i8* getelementptr inbounds ([43 x i8], [43 x i8]* @.str.31, i64 0, i64 0), i8* getelementptr inbounds ([9 x i8], [9 x i8]* @.str.27, i64 0, i64 0), i32 %226, i32 %3) #18
  br label %884

231:                                              ; preds = %224
  %232 = getelementptr inbounds %struct.TfLiteTensor, %struct.TfLiteTensor* %208, i64 0, i32 0
  %233 = load i32, i32* %232, align 8
  %234 = icmp eq i32 %233, %61
  br i1 %234, label %241, label %235

235:                                              ; preds = %231
  %236 = getelementptr inbounds %struct.TfLiteContext, %struct.TfLiteContext* %0, i64 0, i32 5
  %237 = load void (%struct.TfLiteContext*, i8*, ...)*, void (%struct.TfLiteContext*, i8*, ...)** %236, align 8
  %238 = tail call i8* @TfLiteTypeGetName(i32 %233) #18
  %239 = load i32, i32* %60, align 8
  %240 = tail call i8* @TfLiteTypeGetName(i32 %239) #18
  tail call void (%struct.TfLiteContext*, i8*, ...) %237(%struct.TfLiteContext* %0, i8* getelementptr inbounds ([26 x i8], [26 x i8]* @.str.17, i64 0, i64 0), i8* getelementptr inbounds ([61 x i8], [61 x i8]* @.str.3, i64 0, i64 0), i32 794, i8* getelementptr inbounds ([34 x i8], [34 x i8]* @.str.32, i64 0, i64 0), i8* getelementptr inbounds ([30 x i8], [30 x i8]* @.str.19, i64 0, i64 0), i8* %238, i8* %240) #18
  br label %884

241:                                              ; preds = %231
  %242 = getelementptr inbounds %struct.TfLiteIntArray, %struct.TfLiteIntArray* %26, i64 0, i32 1, i64 7
  %243 = load i32, i32* %242, align 4
  %244 = icmp slt i32 %243, 0
  br i1 %244, label %250, label %245

245:                                              ; preds = %241
  %246 = getelementptr inbounds %struct.TfLiteContext, %struct.TfLiteContext* %0, i64 0, i32 2
  %247 = load %struct.TfLiteTensor*, %struct.TfLiteTensor** %246, align 8
  %248 = sext i32 %243 to i64
  %249 = getelementptr inbounds %struct.TfLiteTensor, %struct.TfLiteTensor* %247, i64 %248
  br label %250

250:                                              ; preds = %241, %245
  %251 = phi %struct.TfLiteTensor* [ %249, %245 ], [ null, %241 ]
  %252 = getelementptr inbounds %struct.TfLiteTensor, %struct.TfLiteTensor* %251, i64 0, i32 2
  %253 = load %struct.TfLiteIntArray*, %struct.TfLiteIntArray** %252, align 8
  %254 = getelementptr inbounds %struct.TfLiteIntArray, %struct.TfLiteIntArray* %253, i64 0, i32 0
  %255 = load i32, i32* %254, align 4
  %256 = icmp eq i32 %255, 2
  br i1 %256, label %260, label %257

257:                                              ; preds = %250
  %258 = getelementptr inbounds %struct.TfLiteContext, %struct.TfLiteContext* %0, i64 0, i32 5
  %259 = load void (%struct.TfLiteContext*, i8*, ...)*, void (%struct.TfLiteContext*, i8*, ...)** %258, align 8
  tail call void (%struct.TfLiteContext*, i8*, ...) %259(%struct.TfLiteContext* %0, i8* getelementptr inbounds ([26 x i8], [26 x i8]* @.str.6, i64 0, i64 0), i8* getelementptr inbounds ([61 x i8], [61 x i8]* @.str.3, i64 0, i64 0), i32 798, i8* getelementptr inbounds ([38 x i8], [38 x i8]* @.str.33, i64 0, i64 0), i8* getelementptr inbounds ([2 x i8], [2 x i8]* @.str.8, i64 0, i64 0), i32 %255, i32 2) #18
  br label %884

260:                                              ; preds = %250
  %261 = getelementptr inbounds %struct.TfLiteIntArray, %struct.TfLiteIntArray* %253, i64 0, i32 1, i64 0
  %262 = load i32, i32* %261, align 4
  %263 = icmp eq i32 %262, %4
  br i1 %263, label %267, label %264

264:                                              ; preds = %260
  %265 = getelementptr inbounds %struct.TfLiteContext, %struct.TfLiteContext* %0, i64 0, i32 5
  %266 = load void (%struct.TfLiteContext*, i8*, ...)*, void (%struct.TfLiteContext*, i8*, ...)** %265, align 8
  tail call void (%struct.TfLiteContext*, i8*, ...) %266(%struct.TfLiteContext* %0, i8* getelementptr inbounds ([26 x i8], [26 x i8]* @.str.6, i64 0, i64 0), i8* getelementptr inbounds ([61 x i8], [61 x i8]* @.str.3, i64 0, i64 0), i32 799, i8* getelementptr inbounds ([41 x i8], [41 x i8]* @.str.34, i64 0, i64 0), i8* getelementptr inbounds ([7 x i8], [7 x i8]* @.str.10, i64 0, i64 0), i32 %262, i32 %4) #18
  br label %884

267:                                              ; preds = %260
  %268 = getelementptr inbounds %struct.TfLiteIntArray, %struct.TfLiteIntArray* %253, i64 0, i32 1, i64 1
  %269 = load i32, i32* %268, align 4
  %270 = icmp eq i32 %269, %3
  br i1 %270, label %274, label %271

271:                                              ; preds = %267
  %272 = getelementptr inbounds %struct.TfLiteContext, %struct.TfLiteContext* %0, i64 0, i32 5
  %273 = load void (%struct.TfLiteContext*, i8*, ...)*, void (%struct.TfLiteContext*, i8*, ...)** %272, align 8
  tail call void (%struct.TfLiteContext*, i8*, ...) %273(%struct.TfLiteContext* %0, i8* getelementptr inbounds ([26 x i8], [26 x i8]* @.str.6, i64 0, i64 0), i8* getelementptr inbounds ([61 x i8], [61 x i8]* @.str.3, i64 0, i64 0), i32 801, i8* getelementptr inbounds ([41 x i8], [41 x i8]* @.str.35, i64 0, i64 0), i8* getelementptr inbounds ([9 x i8], [9 x i8]* @.str.27, i64 0, i64 0), i32 %269, i32 %3) #18
  br label %884

274:                                              ; preds = %267
  %275 = getelementptr inbounds %struct.TfLiteTensor, %struct.TfLiteTensor* %251, i64 0, i32 0
  %276 = load i32, i32* %275, align 8
  %277 = icmp eq i32 %276, %61
  br i1 %277, label %284, label %278

278:                                              ; preds = %274
  %279 = getelementptr inbounds %struct.TfLiteContext, %struct.TfLiteContext* %0, i64 0, i32 5
  %280 = load void (%struct.TfLiteContext*, i8*, ...)*, void (%struct.TfLiteContext*, i8*, ...)** %279, align 8
  %281 = tail call i8* @TfLiteTypeGetName(i32 %276) #18
  %282 = load i32, i32* %60, align 8
  %283 = tail call i8* @TfLiteTypeGetName(i32 %282) #18
  tail call void (%struct.TfLiteContext*, i8*, ...) %280(%struct.TfLiteContext* %0, i8* getelementptr inbounds ([26 x i8], [26 x i8]* @.str.17, i64 0, i64 0), i8* getelementptr inbounds ([61 x i8], [61 x i8]* @.str.3, i64 0, i64 0), i32 803, i8* getelementptr inbounds ([32 x i8], [32 x i8]* @.str.36, i64 0, i64 0), i8* getelementptr inbounds ([30 x i8], [30 x i8]* @.str.19, i64 0, i64 0), i8* %281, i8* %283) #18
  br label %884

284:                                              ; preds = %274
  %285 = icmp ne %struct.TfLiteTensor* %110, null
  %286 = and i1 %285, %197
  %287 = icmp eq %struct.TfLiteTensor* %198, null
  %288 = and i1 %109, %287
  %289 = or i1 %286, %288
  br i1 %289, label %293, label %290

290:                                              ; preds = %284
  %291 = getelementptr inbounds %struct.TfLiteContext, %struct.TfLiteContext* %0, i64 0, i32 5
  %292 = load void (%struct.TfLiteContext*, i8*, ...)*, void (%struct.TfLiteContext*, i8*, ...)** %291, align 8
  tail call void (%struct.TfLiteContext*, i8*, ...) %292(%struct.TfLiteContext* %0, i8* getelementptr inbounds ([23 x i8], [23 x i8]* @.str, i64 0, i64 0), i8* getelementptr inbounds ([61 x i8], [61 x i8]* @.str.3, i64 0, i64 0), i32 812, i8* getelementptr inbounds ([33 x i8], [33 x i8]* @.str.37, i64 0, i64 0)) #18
  br label %884

293:                                              ; preds = %284
  %294 = getelementptr inbounds %struct.TfLiteIntArray, %struct.TfLiteIntArray* %26, i64 0, i32 1, i64 9
  %295 = load i32, i32* %294, align 4
  %296 = icmp slt i32 %295, 0
  br i1 %296, label %333, label %297

297:                                              ; preds = %293
  %298 = getelementptr inbounds %struct.TfLiteContext, %struct.TfLiteContext* %0, i64 0, i32 2
  %299 = load %struct.TfLiteTensor*, %struct.TfLiteTensor** %298, align 8
  %300 = sext i32 %295 to i64
  %301 = getelementptr inbounds %struct.TfLiteTensor, %struct.TfLiteTensor* %299, i64 %300
  %302 = icmp eq %struct.TfLiteTensor* %301, null
  br i1 %302, label %333, label %303

303:                                              ; preds = %297
  %304 = getelementptr inbounds %struct.TfLiteTensor, %struct.TfLiteTensor* %299, i64 %300, i32 2
  %305 = load %struct.TfLiteIntArray*, %struct.TfLiteIntArray** %304, align 8
  %306 = getelementptr inbounds %struct.TfLiteIntArray, %struct.TfLiteIntArray* %305, i64 0, i32 0
  %307 = load i32, i32* %306, align 4
  %308 = icmp eq i32 %307, 1
  br i1 %308, label %312, label %309

309:                                              ; preds = %303
  %310 = getelementptr inbounds %struct.TfLiteContext, %struct.TfLiteContext* %0, i64 0, i32 5
  %311 = load void (%struct.TfLiteContext*, i8*, ...)*, void (%struct.TfLiteContext*, i8*, ...)** %310, align 8
  tail call void (%struct.TfLiteContext*, i8*, ...) %311(%struct.TfLiteContext* %0, i8* getelementptr inbounds ([26 x i8], [26 x i8]* @.str.6, i64 0, i64 0), i8* getelementptr inbounds ([61 x i8], [61 x i8]* @.str.3, i64 0, i64 0), i32 817, i8* getelementptr inbounds ([34 x i8], [34 x i8]* @.str.38, i64 0, i64 0), i8* getelementptr inbounds ([2 x i8], [2 x i8]* @.str.39, i64 0, i64 0), i32 %307, i32 1) #18
  br label %884

312:                                              ; preds = %303
  %313 = getelementptr inbounds %struct.TfLiteIntArray, %struct.TfLiteIntArray* %305, i64 0, i32 1, i64 0
  %314 = load i32, i32* %313, align 4
  %315 = icmp eq i32 %314, %4
  br i1 %315, label %319, label %316

316:                                              ; preds = %312
  %317 = getelementptr inbounds %struct.TfLiteContext, %struct.TfLiteContext* %0, i64 0, i32 5
  %318 = load void (%struct.TfLiteContext*, i8*, ...)*, void (%struct.TfLiteContext*, i8*, ...)** %317, align 8
  tail call void (%struct.TfLiteContext*, i8*, ...) %318(%struct.TfLiteContext* %0, i8* getelementptr inbounds ([26 x i8], [26 x i8]* @.str.6, i64 0, i64 0), i8* getelementptr inbounds ([61 x i8], [61 x i8]* @.str.3, i64 0, i64 0), i32 818, i8* getelementptr inbounds ([37 x i8], [37 x i8]* @.str.40, i64 0, i64 0), i8* getelementptr inbounds ([7 x i8], [7 x i8]* @.str.10, i64 0, i64 0), i32 %314, i32 %4) #18
  br label %884

319:                                              ; preds = %312
  %320 = getelementptr inbounds %struct.TfLiteTensor, %struct.TfLiteTensor* %301, i64 0, i32 0
  %321 = load i32, i32* %320, align 8
  %322 = select i1 %6, i32 7, i32 %61
  %323 = icmp eq i32 %321, %322
  br i1 %323, label %333, label %324

324:                                              ; preds = %319
  %325 = getelementptr inbounds %struct.TfLiteContext, %struct.TfLiteContext* %0, i64 0, i32 5
  %326 = load void (%struct.TfLiteContext*, i8*, ...)*, void (%struct.TfLiteContext*, i8*, ...)** %325, align 8
  %327 = tail call i8* @TfLiteTypeGetName(i32 %321) #18
  br i1 %6, label %330, label %328

328:                                              ; preds = %324
  %329 = load i32, i32* %60, align 8
  br label %330

330:                                              ; preds = %324, %328
  %331 = phi i32 [ %329, %328 ], [ 7, %324 ]
  %332 = tail call i8* @TfLiteTypeGetName(i32 %331) #18
  tail call void (%struct.TfLiteContext*, i8*, ...) %326(%struct.TfLiteContext* %0, i8* getelementptr inbounds ([26 x i8], [26 x i8]* @.str.17, i64 0, i64 0), i8* getelementptr inbounds ([61 x i8], [61 x i8]* @.str.3, i64 0, i64 0), i32 821, i8* getelementptr inbounds ([28 x i8], [28 x i8]* @.str.41, i64 0, i64 0), i8* getelementptr inbounds ([58 x i8], [58 x i8]* @.str.42, i64 0, i64 0), i8* %327, i8* %332) #18
  br label %884

333:                                              ; preds = %297, %293, %319
  %334 = phi i1 [ true, %319 ], [ false, %297 ], [ false, %293 ]
  %335 = phi %struct.TfLiteTensor* [ %301, %319 ], [ null, %297 ], [ null, %293 ]
  %336 = getelementptr inbounds %struct.TfLiteIntArray, %struct.TfLiteIntArray* %26, i64 0, i32 1, i64 10
  %337 = load i32, i32* %336, align 4
  %338 = icmp slt i32 %337, 0
  br i1 %338, label %375, label %339

339:                                              ; preds = %333
  %340 = getelementptr inbounds %struct.TfLiteContext, %struct.TfLiteContext* %0, i64 0, i32 2
  %341 = load %struct.TfLiteTensor*, %struct.TfLiteTensor** %340, align 8
  %342 = sext i32 %337 to i64
  %343 = getelementptr inbounds %struct.TfLiteTensor, %struct.TfLiteTensor* %341, i64 %342
  %344 = icmp eq %struct.TfLiteTensor* %343, null
  br i1 %344, label %375, label %345

345:                                              ; preds = %339
  %346 = getelementptr inbounds %struct.TfLiteTensor, %struct.TfLiteTensor* %341, i64 %342, i32 2
  %347 = load %struct.TfLiteIntArray*, %struct.TfLiteIntArray** %346, align 8
  %348 = getelementptr inbounds %struct.TfLiteIntArray, %struct.TfLiteIntArray* %347, i64 0, i32 0
  %349 = load i32, i32* %348, align 4
  %350 = icmp eq i32 %349, 1
  br i1 %350, label %354, label %351

351:                                              ; preds = %345
  %352 = getelementptr inbounds %struct.TfLiteContext, %struct.TfLiteContext* %0, i64 0, i32 5
  %353 = load void (%struct.TfLiteContext*, i8*, ...)*, void (%struct.TfLiteContext*, i8*, ...)** %352, align 8
  tail call void (%struct.TfLiteContext*, i8*, ...) %353(%struct.TfLiteContext* %0, i8* getelementptr inbounds ([26 x i8], [26 x i8]* @.str.6, i64 0, i64 0), i8* getelementptr inbounds ([61 x i8], [61 x i8]* @.str.3, i64 0, i64 0), i32 827, i8* getelementptr inbounds ([35 x i8], [35 x i8]* @.str.43, i64 0, i64 0), i8* getelementptr inbounds ([2 x i8], [2 x i8]* @.str.39, i64 0, i64 0), i32 %349, i32 1) #18
  br label %884

354:                                              ; preds = %345
  %355 = getelementptr inbounds %struct.TfLiteIntArray, %struct.TfLiteIntArray* %347, i64 0, i32 1, i64 0
  %356 = load i32, i32* %355, align 4
  %357 = icmp eq i32 %356, %4
  br i1 %357, label %361, label %358

358:                                              ; preds = %354
  %359 = getelementptr inbounds %struct.TfLiteContext, %struct.TfLiteContext* %0, i64 0, i32 5
  %360 = load void (%struct.TfLiteContext*, i8*, ...)*, void (%struct.TfLiteContext*, i8*, ...)** %359, align 8
  tail call void (%struct.TfLiteContext*, i8*, ...) %360(%struct.TfLiteContext* %0, i8* getelementptr inbounds ([26 x i8], [26 x i8]* @.str.6, i64 0, i64 0), i8* getelementptr inbounds ([61 x i8], [61 x i8]* @.str.3, i64 0, i64 0), i32 828, i8* getelementptr inbounds ([38 x i8], [38 x i8]* @.str.44, i64 0, i64 0), i8* getelementptr inbounds ([7 x i8], [7 x i8]* @.str.10, i64 0, i64 0), i32 %356, i32 %4) #18
  br label %884

361:                                              ; preds = %354
  %362 = getelementptr inbounds %struct.TfLiteTensor, %struct.TfLiteTensor* %343, i64 0, i32 0
  %363 = load i32, i32* %362, align 8
  %364 = select i1 %6, i32 7, i32 %61
  %365 = icmp eq i32 %363, %364
  br i1 %365, label %375, label %366

366:                                              ; preds = %361
  %367 = getelementptr inbounds %struct.TfLiteContext, %struct.TfLiteContext* %0, i64 0, i32 5
  %368 = load void (%struct.TfLiteContext*, i8*, ...)*, void (%struct.TfLiteContext*, i8*, ...)** %367, align 8
  %369 = tail call i8* @TfLiteTypeGetName(i32 %363) #18
  br i1 %6, label %372, label %370

370:                                              ; preds = %366
  %371 = load i32, i32* %60, align 8
  br label %372

372:                                              ; preds = %366, %370
  %373 = phi i32 [ %371, %370 ], [ 7, %366 ]
  %374 = tail call i8* @TfLiteTypeGetName(i32 %373) #18
  tail call void (%struct.TfLiteContext*, i8*, ...) %368(%struct.TfLiteContext* %0, i8* getelementptr inbounds ([26 x i8], [26 x i8]* @.str.17, i64 0, i64 0), i8* getelementptr inbounds ([61 x i8], [61 x i8]* @.str.3, i64 0, i64 0), i32 831, i8* getelementptr inbounds ([29 x i8], [29 x i8]* @.str.45, i64 0, i64 0), i8* getelementptr inbounds ([58 x i8], [58 x i8]* @.str.42, i64 0, i64 0), i8* %369, i8* %374) #18
  br label %884

375:                                              ; preds = %339, %333, %361
  %376 = phi i1 [ true, %361 ], [ false, %339 ], [ false, %333 ]
  %377 = phi %struct.TfLiteTensor* [ %343, %361 ], [ null, %339 ], [ null, %333 ]
  %378 = getelementptr inbounds %struct.TfLiteIntArray, %struct.TfLiteIntArray* %26, i64 0, i32 1, i64 11
  %379 = load i32, i32* %378, align 4
  %380 = icmp slt i32 %379, 0
  br i1 %380, label %420, label %381

381:                                              ; preds = %375
  %382 = getelementptr inbounds %struct.TfLiteContext, %struct.TfLiteContext* %0, i64 0, i32 2
  %383 = load %struct.TfLiteTensor*, %struct.TfLiteTensor** %382, align 8
  %384 = sext i32 %379 to i64
  %385 = getelementptr inbounds %struct.TfLiteTensor, %struct.TfLiteTensor* %383, i64 %384
  %386 = icmp eq %struct.TfLiteTensor* %385, null
  br i1 %386, label %420, label %387

387:                                              ; preds = %381
  %388 = getelementptr inbounds %struct.TfLiteTensor, %struct.TfLiteTensor* %383, i64 %384, i32 2
  %389 = load %struct.TfLiteIntArray*, %struct.TfLiteIntArray** %388, align 8
  %390 = getelementptr inbounds %struct.TfLiteIntArray, %struct.TfLiteIntArray* %389, i64 0, i32 0
  %391 = load i32, i32* %390, align 4
  %392 = icmp eq i32 %391, 1
  br i1 %392, label %396, label %393

393:                                              ; preds = %387
  %394 = getelementptr inbounds %struct.TfLiteContext, %struct.TfLiteContext* %0, i64 0, i32 5
  %395 = load void (%struct.TfLiteContext*, i8*, ...)*, void (%struct.TfLiteContext*, i8*, ...)** %394, align 8
  tail call void (%struct.TfLiteContext*, i8*, ...) %395(%struct.TfLiteContext* %0, i8* getelementptr inbounds ([26 x i8], [26 x i8]* @.str.6, i64 0, i64 0), i8* getelementptr inbounds ([61 x i8], [61 x i8]* @.str.3, i64 0, i64 0), i32 837, i8* getelementptr inbounds ([35 x i8], [35 x i8]* @.str.46, i64 0, i64 0), i8* getelementptr inbounds ([2 x i8], [2 x i8]* @.str.39, i64 0, i64 0), i32 %391, i32 1) #18
  br label %884

396:                                              ; preds = %387
  %397 = getelementptr inbounds %struct.TfLiteIntArray, %struct.TfLiteIntArray* %389, i64 0, i32 1, i64 0
  %398 = load i32, i32* %397, align 4
  %399 = icmp eq i32 %398, %4
  br i1 %399, label %403, label %400

400:                                              ; preds = %396
  %401 = getelementptr inbounds %struct.TfLiteContext, %struct.TfLiteContext* %0, i64 0, i32 5
  %402 = load void (%struct.TfLiteContext*, i8*, ...)*, void (%struct.TfLiteContext*, i8*, ...)** %401, align 8
  tail call void (%struct.TfLiteContext*, i8*, ...) %402(%struct.TfLiteContext* %0, i8* getelementptr inbounds ([26 x i8], [26 x i8]* @.str.6, i64 0, i64 0), i8* getelementptr inbounds ([61 x i8], [61 x i8]* @.str.3, i64 0, i64 0), i32 838, i8* getelementptr inbounds ([38 x i8], [38 x i8]* @.str.47, i64 0, i64 0), i8* getelementptr inbounds ([7 x i8], [7 x i8]* @.str.10, i64 0, i64 0), i32 %398, i32 %4) #18
  br label %884

403:                                              ; preds = %396
  %404 = getelementptr inbounds %struct.TfLiteTensor, %struct.TfLiteTensor* %385, i64 0, i32 0
  %405 = load i32, i32* %404, align 8
  %406 = select i1 %6, i32 7, i32 %61
  %407 = icmp eq i32 %405, %406
  br i1 %407, label %417, label %408

408:                                              ; preds = %403
  %409 = getelementptr inbounds %struct.TfLiteContext, %struct.TfLiteContext* %0, i64 0, i32 5
  %410 = load void (%struct.TfLiteContext*, i8*, ...)*, void (%struct.TfLiteContext*, i8*, ...)** %409, align 8
  %411 = tail call i8* @TfLiteTypeGetName(i32 %405) #18
  br i1 %6, label %414, label %412

412:                                              ; preds = %408
  %413 = load i32, i32* %60, align 8
  br label %414

414:                                              ; preds = %408, %412
  %415 = phi i32 [ %413, %412 ], [ 7, %408 ]
  %416 = tail call i8* @TfLiteTypeGetName(i32 %415) #18
  tail call void (%struct.TfLiteContext*, i8*, ...) %410(%struct.TfLiteContext* %0, i8* getelementptr inbounds ([26 x i8], [26 x i8]* @.str.17, i64 0, i64 0), i8* getelementptr inbounds ([61 x i8], [61 x i8]* @.str.3, i64 0, i64 0), i32 841, i8* getelementptr inbounds ([29 x i8], [29 x i8]* @.str.48, i64 0, i64 0), i8* getelementptr inbounds ([58 x i8], [58 x i8]* @.str.42, i64 0, i64 0), i8* %411, i8* %416) #18
  br label %884

417:                                              ; preds = %403
  %418 = or i1 %109, %334
  %419 = and i1 %418, %376
  br i1 %419, label %427, label %424

420:                                              ; preds = %381, %375
  %421 = icmp eq %struct.TfLiteTensor* %335, null
  %422 = icmp eq %struct.TfLiteTensor* %377, null
  %423 = and i1 %421, %422
  br i1 %423, label %427, label %424

424:                                              ; preds = %417, %420
  %425 = getelementptr inbounds %struct.TfLiteContext, %struct.TfLiteContext* %0, i64 0, i32 5
  %426 = load void (%struct.TfLiteContext*, i8*, ...)*, void (%struct.TfLiteContext*, i8*, ...)** %425, align 8
  tail call void (%struct.TfLiteContext*, i8*, ...) %426(%struct.TfLiteContext* %0, i8* getelementptr inbounds ([23 x i8], [23 x i8]* @.str, i64 0, i64 0), i8* getelementptr inbounds ([61 x i8], [61 x i8]* @.str.3, i64 0, i64 0), i32 852, i8* getelementptr inbounds ([37 x i8], [37 x i8]* @.str.49, i64 0, i64 0)) #18
  br label %884

427:                                              ; preds = %417, %420
  %428 = getelementptr inbounds %struct.TfLiteIntArray, %struct.TfLiteIntArray* %26, i64 0, i32 1, i64 12
  %429 = load i32, i32* %428, align 4
  %430 = icmp slt i32 %429, 0
  br i1 %430, label %436, label %431

431:                                              ; preds = %427
  %432 = getelementptr inbounds %struct.TfLiteContext, %struct.TfLiteContext* %0, i64 0, i32 2
  %433 = load %struct.TfLiteTensor*, %struct.TfLiteTensor** %432, align 8
  %434 = sext i32 %429 to i64
  %435 = getelementptr inbounds %struct.TfLiteTensor, %struct.TfLiteTensor* %433, i64 %434
  br label %436

436:                                              ; preds = %427, %431
  %437 = phi %struct.TfLiteTensor* [ %435, %431 ], [ null, %427 ]
  br i1 %109, label %438, label %443

438:                                              ; preds = %436
  %439 = icmp eq %struct.TfLiteTensor* %437, null
  br i1 %439, label %476, label %440

440:                                              ; preds = %438
  %441 = getelementptr inbounds %struct.TfLiteContext, %struct.TfLiteContext* %0, i64 0, i32 5
  %442 = load void (%struct.TfLiteContext*, i8*, ...)*, void (%struct.TfLiteContext*, i8*, ...)** %441, align 8
  tail call void (%struct.TfLiteContext*, i8*, ...) %442(%struct.TfLiteContext* %0, i8* getelementptr inbounds ([26 x i8], [26 x i8]* @.str.6, i64 0, i64 0), i8* getelementptr inbounds ([61 x i8], [61 x i8]* @.str.3, i64 0, i64 0), i32 858, i8* getelementptr inbounds ([16 x i8], [16 x i8]* @.str.50, i64 0, i64 0), i8* getelementptr inbounds ([8 x i8], [8 x i8]* @.str.51, i64 0, i64 0), %struct.TfLiteTensor* nonnull %437, i8* null) #18
  br label %884

443:                                              ; preds = %436
  %444 = getelementptr inbounds %struct.TfLiteTensor, %struct.TfLiteTensor* %437, i64 0, i32 2
  %445 = load %struct.TfLiteIntArray*, %struct.TfLiteIntArray** %444, align 8
  %446 = getelementptr inbounds %struct.TfLiteIntArray, %struct.TfLiteIntArray* %445, i64 0, i32 0
  %447 = load i32, i32* %446, align 4
  %448 = icmp eq i32 %447, 1
  br i1 %448, label %452, label %449

449:                                              ; preds = %443
  %450 = getelementptr inbounds %struct.TfLiteContext, %struct.TfLiteContext* %0, i64 0, i32 5
  %451 = load void (%struct.TfLiteContext*, i8*, ...)*, void (%struct.TfLiteContext*, i8*, ...)** %450, align 8
  tail call void (%struct.TfLiteContext*, i8*, ...) %451(%struct.TfLiteContext* %0, i8* getelementptr inbounds ([26 x i8], [26 x i8]* @.str.6, i64 0, i64 0), i8* getelementptr inbounds ([61 x i8], [61 x i8]* @.str.3, i64 0, i64 0), i32 860, i8* getelementptr inbounds ([28 x i8], [28 x i8]* @.str.52, i64 0, i64 0), i8* getelementptr inbounds ([2 x i8], [2 x i8]* @.str.39, i64 0, i64 0), i32 %447, i32 1) #18
  br label %884

452:                                              ; preds = %443
  %453 = getelementptr inbounds %struct.TfLiteIntArray, %struct.TfLiteIntArray* %445, i64 0, i32 1, i64 0
  %454 = load i32, i32* %453, align 4
  %455 = icmp eq i32 %454, %4
  br i1 %455, label %459, label %456

456:                                              ; preds = %452
  %457 = getelementptr inbounds %struct.TfLiteContext, %struct.TfLiteContext* %0, i64 0, i32 5
  %458 = load void (%struct.TfLiteContext*, i8*, ...)*, void (%struct.TfLiteContext*, i8*, ...)** %457, align 8
  tail call void (%struct.TfLiteContext*, i8*, ...) %458(%struct.TfLiteContext* %0, i8* getelementptr inbounds ([26 x i8], [26 x i8]* @.str.6, i64 0, i64 0), i8* getelementptr inbounds ([61 x i8], [61 x i8]* @.str.3, i64 0, i64 0), i32 861, i8* getelementptr inbounds ([31 x i8], [31 x i8]* @.str.53, i64 0, i64 0), i8* getelementptr inbounds ([7 x i8], [7 x i8]* @.str.10, i64 0, i64 0), i32 %454, i32 %4) #18
  br label %884

459:                                              ; preds = %452
  %460 = getelementptr inbounds %struct.TfLiteTensor, %struct.TfLiteTensor* %437, i64 0, i32 0
  %461 = load i32, i32* %460, align 8
  br i1 %6, label %462, label %469

462:                                              ; preds = %459
  %463 = icmp eq i32 %461, 2
  br i1 %463, label %476, label %464

464:                                              ; preds = %462
  %465 = getelementptr inbounds %struct.TfLiteContext, %struct.TfLiteContext* %0, i64 0, i32 5
  %466 = load void (%struct.TfLiteContext*, i8*, ...)*, void (%struct.TfLiteContext*, i8*, ...)** %465, align 8
  %467 = tail call i8* @TfLiteTypeGetName(i32 %461) #18
  %468 = tail call i8* @TfLiteTypeGetName(i32 2) #18
  tail call void (%struct.TfLiteContext*, i8*, ...) %466(%struct.TfLiteContext* %0, i8* getelementptr inbounds ([26 x i8], [26 x i8]* @.str.17, i64 0, i64 0), i8* getelementptr inbounds ([61 x i8], [61 x i8]* @.str.3, i64 0, i64 0), i32 863, i8* getelementptr inbounds ([22 x i8], [22 x i8]* @.str.54, i64 0, i64 0), i8* getelementptr inbounds ([13 x i8], [13 x i8]* @.str.55, i64 0, i64 0), i8* %467, i8* %468) #18
  br label %884

469:                                              ; preds = %459
  %470 = icmp eq i32 %461, 1
  br i1 %470, label %476, label %471

471:                                              ; preds = %469
  %472 = getelementptr inbounds %struct.TfLiteContext, %struct.TfLiteContext* %0, i64 0, i32 5
  %473 = load void (%struct.TfLiteContext*, i8*, ...)*, void (%struct.TfLiteContext*, i8*, ...)** %472, align 8
  %474 = tail call i8* @TfLiteTypeGetName(i32 %461) #18
  %475 = tail call i8* @TfLiteTypeGetName(i32 1) #18
  tail call void (%struct.TfLiteContext*, i8*, ...) %473(%struct.TfLiteContext* %0, i8* getelementptr inbounds ([26 x i8], [26 x i8]* @.str.17, i64 0, i64 0), i8* getelementptr inbounds ([61 x i8], [61 x i8]* @.str.3, i64 0, i64 0), i32 865, i8* getelementptr inbounds ([22 x i8], [22 x i8]* @.str.54, i64 0, i64 0), i8* getelementptr inbounds ([15 x i8], [15 x i8]* @.str.56, i64 0, i64 0), i8* %474, i8* %475) #18
  br label %884

476:                                              ; preds = %438, %462, %469
  %477 = getelementptr inbounds %struct.TfLiteIntArray, %struct.TfLiteIntArray* %26, i64 0, i32 1, i64 13
  %478 = load i32, i32* %477, align 4
  %479 = icmp slt i32 %478, 0
  br i1 %479, label %485, label %480

480:                                              ; preds = %476
  %481 = getelementptr inbounds %struct.TfLiteContext, %struct.TfLiteContext* %0, i64 0, i32 2
  %482 = load %struct.TfLiteTensor*, %struct.TfLiteTensor** %481, align 8
  %483 = sext i32 %478 to i64
  %484 = getelementptr inbounds %struct.TfLiteTensor, %struct.TfLiteTensor* %482, i64 %483
  br label %485

485:                                              ; preds = %476, %480
  %486 = phi %struct.TfLiteTensor* [ %484, %480 ], [ null, %476 ]
  %487 = getelementptr inbounds %struct.TfLiteTensor, %struct.TfLiteTensor* %486, i64 0, i32 2
  %488 = load %struct.TfLiteIntArray*, %struct.TfLiteIntArray** %487, align 8
  %489 = getelementptr inbounds %struct.TfLiteIntArray, %struct.TfLiteIntArray* %488, i64 0, i32 0
  %490 = load i32, i32* %489, align 4
  %491 = icmp eq i32 %490, 1
  br i1 %491, label %495, label %492

492:                                              ; preds = %485
  %493 = getelementptr inbounds %struct.TfLiteContext, %struct.TfLiteContext* %0, i64 0, i32 5
  %494 = load void (%struct.TfLiteContext*, i8*, ...)*, void (%struct.TfLiteContext*, i8*, ...)** %493, align 8
  tail call void (%struct.TfLiteContext*, i8*, ...) %494(%struct.TfLiteContext* %0, i8* getelementptr inbounds ([26 x i8], [26 x i8]* @.str.6, i64 0, i64 0), i8* getelementptr inbounds ([61 x i8], [61 x i8]* @.str.3, i64 0, i64 0), i32 871, i8* getelementptr inbounds ([29 x i8], [29 x i8]* @.str.57, i64 0, i64 0), i8* getelementptr inbounds ([2 x i8], [2 x i8]* @.str.39, i64 0, i64 0), i32 %490, i32 1) #18
  br label %884

495:                                              ; preds = %485
  %496 = getelementptr inbounds %struct.TfLiteIntArray, %struct.TfLiteIntArray* %488, i64 0, i32 1, i64 0
  %497 = load i32, i32* %496, align 4
  %498 = icmp eq i32 %497, %4
  br i1 %498, label %502, label %499

499:                                              ; preds = %495
  %500 = getelementptr inbounds %struct.TfLiteContext, %struct.TfLiteContext* %0, i64 0, i32 5
  %501 = load void (%struct.TfLiteContext*, i8*, ...)*, void (%struct.TfLiteContext*, i8*, ...)** %500, align 8
  tail call void (%struct.TfLiteContext*, i8*, ...) %501(%struct.TfLiteContext* %0, i8* getelementptr inbounds ([26 x i8], [26 x i8]* @.str.6, i64 0, i64 0), i8* getelementptr inbounds ([61 x i8], [61 x i8]* @.str.3, i64 0, i64 0), i32 872, i8* getelementptr inbounds ([32 x i8], [32 x i8]* @.str.58, i64 0, i64 0), i8* getelementptr inbounds ([7 x i8], [7 x i8]* @.str.10, i64 0, i64 0), i32 %497, i32 %4) #18
  br label %884

502:                                              ; preds = %495
  %503 = getelementptr inbounds %struct.TfLiteTensor, %struct.TfLiteTensor* %486, i64 0, i32 0
  %504 = load i32, i32* %503, align 8
  br i1 %6, label %505, label %512

505:                                              ; preds = %502
  %506 = icmp eq i32 %504, 2
  br i1 %506, label %519, label %507

507:                                              ; preds = %505
  %508 = getelementptr inbounds %struct.TfLiteContext, %struct.TfLiteContext* %0, i64 0, i32 5
  %509 = load void (%struct.TfLiteContext*, i8*, ...)*, void (%struct.TfLiteContext*, i8*, ...)** %508, align 8
  %510 = tail call i8* @TfLiteTypeGetName(i32 %504) #18
  %511 = tail call i8* @TfLiteTypeGetName(i32 2) #18
  tail call void (%struct.TfLiteContext*, i8*, ...) %509(%struct.TfLiteContext* %0, i8* getelementptr inbounds ([26 x i8], [26 x i8]* @.str.17, i64 0, i64 0), i8* getelementptr inbounds ([61 x i8], [61 x i8]* @.str.3, i64 0, i64 0), i32 874, i8* getelementptr inbounds ([23 x i8], [23 x i8]* @.str.59, i64 0, i64 0), i8* getelementptr inbounds ([13 x i8], [13 x i8]* @.str.55, i64 0, i64 0), i8* %510, i8* %511) #18
  br label %884

512:                                              ; preds = %502
  %513 = icmp eq i32 %504, 1
  br i1 %513, label %519, label %514

514:                                              ; preds = %512
  %515 = getelementptr inbounds %struct.TfLiteContext, %struct.TfLiteContext* %0, i64 0, i32 5
  %516 = load void (%struct.TfLiteContext*, i8*, ...)*, void (%struct.TfLiteContext*, i8*, ...)** %515, align 8
  %517 = tail call i8* @TfLiteTypeGetName(i32 %504) #18
  %518 = tail call i8* @TfLiteTypeGetName(i32 1) #18
  tail call void (%struct.TfLiteContext*, i8*, ...) %516(%struct.TfLiteContext* %0, i8* getelementptr inbounds ([26 x i8], [26 x i8]* @.str.17, i64 0, i64 0), i8* getelementptr inbounds ([61 x i8], [61 x i8]* @.str.3, i64 0, i64 0), i32 876, i8* getelementptr inbounds ([23 x i8], [23 x i8]* @.str.59, i64 0, i64 0), i8* getelementptr inbounds ([15 x i8], [15 x i8]* @.str.56, i64 0, i64 0), i8* %517, i8* %518) #18
  br label %884

519:                                              ; preds = %505, %512
  %520 = getelementptr inbounds %struct.TfLiteIntArray, %struct.TfLiteIntArray* %26, i64 0, i32 1, i64 14
  %521 = load i32, i32* %520, align 4
  %522 = icmp slt i32 %521, 0
  br i1 %522, label %528, label %523

523:                                              ; preds = %519
  %524 = getelementptr inbounds %struct.TfLiteContext, %struct.TfLiteContext* %0, i64 0, i32 2
  %525 = load %struct.TfLiteTensor*, %struct.TfLiteTensor** %524, align 8
  %526 = sext i32 %521 to i64
  %527 = getelementptr inbounds %struct.TfLiteTensor, %struct.TfLiteTensor* %525, i64 %526
  br label %528

528:                                              ; preds = %519, %523
  %529 = phi %struct.TfLiteTensor* [ %527, %523 ], [ null, %519 ]
  %530 = getelementptr inbounds %struct.TfLiteTensor, %struct.TfLiteTensor* %529, i64 0, i32 2
  %531 = load %struct.TfLiteIntArray*, %struct.TfLiteIntArray** %530, align 8
  %532 = getelementptr inbounds %struct.TfLiteIntArray, %struct.TfLiteIntArray* %531, i64 0, i32 0
  %533 = load i32, i32* %532, align 4
  %534 = icmp eq i32 %533, 1
  br i1 %534, label %538, label %535

535:                                              ; preds = %528
  %536 = getelementptr inbounds %struct.TfLiteContext, %struct.TfLiteContext* %0, i64 0, i32 5
  %537 = load void (%struct.TfLiteContext*, i8*, ...)*, void (%struct.TfLiteContext*, i8*, ...)** %536, align 8
  tail call void (%struct.TfLiteContext*, i8*, ...) %537(%struct.TfLiteContext* %0, i8* getelementptr inbounds ([26 x i8], [26 x i8]* @.str.6, i64 0, i64 0), i8* getelementptr inbounds ([61 x i8], [61 x i8]* @.str.3, i64 0, i64 0), i32 881, i8* getelementptr inbounds ([27 x i8], [27 x i8]* @.str.60, i64 0, i64 0), i8* getelementptr inbounds ([2 x i8], [2 x i8]* @.str.39, i64 0, i64 0), i32 %533, i32 1) #18
  br label %884

538:                                              ; preds = %528
  %539 = getelementptr inbounds %struct.TfLiteIntArray, %struct.TfLiteIntArray* %531, i64 0, i32 1, i64 0
  %540 = load i32, i32* %539, align 4
  %541 = icmp eq i32 %540, %4
  br i1 %541, label %545, label %542

542:                                              ; preds = %538
  %543 = getelementptr inbounds %struct.TfLiteContext, %struct.TfLiteContext* %0, i64 0, i32 5
  %544 = load void (%struct.TfLiteContext*, i8*, ...)*, void (%struct.TfLiteContext*, i8*, ...)** %543, align 8
  tail call void (%struct.TfLiteContext*, i8*, ...) %544(%struct.TfLiteContext* %0, i8* getelementptr inbounds ([26 x i8], [26 x i8]* @.str.6, i64 0, i64 0), i8* getelementptr inbounds ([61 x i8], [61 x i8]* @.str.3, i64 0, i64 0), i32 882, i8* getelementptr inbounds ([30 x i8], [30 x i8]* @.str.61, i64 0, i64 0), i8* getelementptr inbounds ([7 x i8], [7 x i8]* @.str.10, i64 0, i64 0), i32 %540, i32 %4) #18
  br label %884

545:                                              ; preds = %538
  %546 = getelementptr inbounds %struct.TfLiteTensor, %struct.TfLiteTensor* %529, i64 0, i32 0
  %547 = load i32, i32* %546, align 8
  br i1 %6, label %548, label %555

548:                                              ; preds = %545
  %549 = icmp eq i32 %547, 2
  br i1 %549, label %562, label %550

550:                                              ; preds = %548
  %551 = getelementptr inbounds %struct.TfLiteContext, %struct.TfLiteContext* %0, i64 0, i32 5
  %552 = load void (%struct.TfLiteContext*, i8*, ...)*, void (%struct.TfLiteContext*, i8*, ...)** %551, align 8
  %553 = tail call i8* @TfLiteTypeGetName(i32 %547) #18
  %554 = tail call i8* @TfLiteTypeGetName(i32 2) #18
  tail call void (%struct.TfLiteContext*, i8*, ...) %552(%struct.TfLiteContext* %0, i8* getelementptr inbounds ([26 x i8], [26 x i8]* @.str.17, i64 0, i64 0), i8* getelementptr inbounds ([61 x i8], [61 x i8]* @.str.3, i64 0, i64 0), i32 884, i8* getelementptr inbounds ([21 x i8], [21 x i8]* @.str.62, i64 0, i64 0), i8* getelementptr inbounds ([13 x i8], [13 x i8]* @.str.55, i64 0, i64 0), i8* %553, i8* %554) #18
  br label %884

555:                                              ; preds = %545
  %556 = icmp eq i32 %547, 1
  br i1 %556, label %562, label %557

557:                                              ; preds = %555
  %558 = getelementptr inbounds %struct.TfLiteContext, %struct.TfLiteContext* %0, i64 0, i32 5
  %559 = load void (%struct.TfLiteContext*, i8*, ...)*, void (%struct.TfLiteContext*, i8*, ...)** %558, align 8
  %560 = tail call i8* @TfLiteTypeGetName(i32 %547) #18
  %561 = tail call i8* @TfLiteTypeGetName(i32 1) #18
  tail call void (%struct.TfLiteContext*, i8*, ...) %559(%struct.TfLiteContext* %0, i8* getelementptr inbounds ([26 x i8], [26 x i8]* @.str.17, i64 0, i64 0), i8* getelementptr inbounds ([61 x i8], [61 x i8]* @.str.3, i64 0, i64 0), i32 886, i8* getelementptr inbounds ([21 x i8], [21 x i8]* @.str.62, i64 0, i64 0), i8* getelementptr inbounds ([15 x i8], [15 x i8]* @.str.56, i64 0, i64 0), i8* %560, i8* %561) #18
  br label %884

562:                                              ; preds = %548, %555
  %563 = getelementptr inbounds %struct.TfLiteIntArray, %struct.TfLiteIntArray* %26, i64 0, i32 1, i64 15
  %564 = load i32, i32* %563, align 4
  %565 = icmp slt i32 %564, 0
  br i1 %565, label %571, label %566

566:                                              ; preds = %562
  %567 = getelementptr inbounds %struct.TfLiteContext, %struct.TfLiteContext* %0, i64 0, i32 2
  %568 = load %struct.TfLiteTensor*, %struct.TfLiteTensor** %567, align 8
  %569 = sext i32 %564 to i64
  %570 = getelementptr inbounds %struct.TfLiteTensor, %struct.TfLiteTensor* %568, i64 %569
  br label %571

571:                                              ; preds = %562, %566
  %572 = phi %struct.TfLiteTensor* [ %570, %566 ], [ null, %562 ]
  %573 = getelementptr inbounds %struct.TfLiteTensor, %struct.TfLiteTensor* %572, i64 0, i32 2
  %574 = load %struct.TfLiteIntArray*, %struct.TfLiteIntArray** %573, align 8
  %575 = getelementptr inbounds %struct.TfLiteIntArray, %struct.TfLiteIntArray* %574, i64 0, i32 0
  %576 = load i32, i32* %575, align 4
  %577 = icmp eq i32 %576, 1
  br i1 %577, label %581, label %578

578:                                              ; preds = %571
  %579 = getelementptr inbounds %struct.TfLiteContext, %struct.TfLiteContext* %0, i64 0, i32 5
  %580 = load void (%struct.TfLiteContext*, i8*, ...)*, void (%struct.TfLiteContext*, i8*, ...)** %579, align 8
  tail call void (%struct.TfLiteContext*, i8*, ...) %580(%struct.TfLiteContext* %0, i8* getelementptr inbounds ([26 x i8], [26 x i8]* @.str.6, i64 0, i64 0), i8* getelementptr inbounds ([61 x i8], [61 x i8]* @.str.3, i64 0, i64 0), i32 891, i8* getelementptr inbounds ([29 x i8], [29 x i8]* @.str.63, i64 0, i64 0), i8* getelementptr inbounds ([2 x i8], [2 x i8]* @.str.39, i64 0, i64 0), i32 %576, i32 1) #18
  br label %884

581:                                              ; preds = %571
  %582 = getelementptr inbounds %struct.TfLiteIntArray, %struct.TfLiteIntArray* %574, i64 0, i32 1, i64 0
  %583 = load i32, i32* %582, align 4
  %584 = icmp eq i32 %583, %4
  br i1 %584, label %588, label %585

585:                                              ; preds = %581
  %586 = getelementptr inbounds %struct.TfLiteContext, %struct.TfLiteContext* %0, i64 0, i32 5
  %587 = load void (%struct.TfLiteContext*, i8*, ...)*, void (%struct.TfLiteContext*, i8*, ...)** %586, align 8
  tail call void (%struct.TfLiteContext*, i8*, ...) %587(%struct.TfLiteContext* %0, i8* getelementptr inbounds ([26 x i8], [26 x i8]* @.str.6, i64 0, i64 0), i8* getelementptr inbounds ([61 x i8], [61 x i8]* @.str.3, i64 0, i64 0), i32 892, i8* getelementptr inbounds ([32 x i8], [32 x i8]* @.str.64, i64 0, i64 0), i8* getelementptr inbounds ([7 x i8], [7 x i8]* @.str.10, i64 0, i64 0), i32 %583, i32 %4) #18
  br label %884

588:                                              ; preds = %581
  %589 = getelementptr inbounds %struct.TfLiteTensor, %struct.TfLiteTensor* %572, i64 0, i32 0
  %590 = load i32, i32* %589, align 8
  br i1 %6, label %591, label %598

591:                                              ; preds = %588
  %592 = icmp eq i32 %590, 2
  br i1 %592, label %605, label %593

593:                                              ; preds = %591
  %594 = getelementptr inbounds %struct.TfLiteContext, %struct.TfLiteContext* %0, i64 0, i32 5
  %595 = load void (%struct.TfLiteContext*, i8*, ...)*, void (%struct.TfLiteContext*, i8*, ...)** %594, align 8
  %596 = tail call i8* @TfLiteTypeGetName(i32 %590) #18
  %597 = tail call i8* @TfLiteTypeGetName(i32 2) #18
  tail call void (%struct.TfLiteContext*, i8*, ...) %595(%struct.TfLiteContext* %0, i8* getelementptr inbounds ([26 x i8], [26 x i8]* @.str.17, i64 0, i64 0), i8* getelementptr inbounds ([61 x i8], [61 x i8]* @.str.3, i64 0, i64 0), i32 894, i8* getelementptr inbounds ([23 x i8], [23 x i8]* @.str.65, i64 0, i64 0), i8* getelementptr inbounds ([13 x i8], [13 x i8]* @.str.55, i64 0, i64 0), i8* %596, i8* %597) #18
  br label %884

598:                                              ; preds = %588
  %599 = icmp eq i32 %590, 1
  br i1 %599, label %605, label %600

600:                                              ; preds = %598
  %601 = getelementptr inbounds %struct.TfLiteContext, %struct.TfLiteContext* %0, i64 0, i32 5
  %602 = load void (%struct.TfLiteContext*, i8*, ...)*, void (%struct.TfLiteContext*, i8*, ...)** %601, align 8
  %603 = tail call i8* @TfLiteTypeGetName(i32 %590) #18
  %604 = tail call i8* @TfLiteTypeGetName(i32 1) #18
  tail call void (%struct.TfLiteContext*, i8*, ...) %602(%struct.TfLiteContext* %0, i8* getelementptr inbounds ([26 x i8], [26 x i8]* @.str.17, i64 0, i64 0), i8* getelementptr inbounds ([61 x i8], [61 x i8]* @.str.3, i64 0, i64 0), i32 896, i8* getelementptr inbounds ([23 x i8], [23 x i8]* @.str.65, i64 0, i64 0), i8* getelementptr inbounds ([15 x i8], [15 x i8]* @.str.56, i64 0, i64 0), i8* %603, i8* %604) #18
  br label %884

605:                                              ; preds = %591, %598
  %606 = getelementptr inbounds %struct.TfLiteIntArray, %struct.TfLiteIntArray* %26, i64 0, i32 1, i64 16
  %607 = load i32, i32* %606, align 4
  %608 = icmp slt i32 %607, 0
  br i1 %608, label %648, label %609

609:                                              ; preds = %605
  %610 = getelementptr inbounds %struct.TfLiteContext, %struct.TfLiteContext* %0, i64 0, i32 2
  %611 = load %struct.TfLiteTensor*, %struct.TfLiteTensor** %610, align 8
  %612 = sext i32 %607 to i64
  %613 = getelementptr inbounds %struct.TfLiteTensor, %struct.TfLiteTensor* %611, i64 %612
  %614 = icmp eq %struct.TfLiteTensor* %613, null
  br i1 %614, label %648, label %615

615:                                              ; preds = %609
  %616 = getelementptr inbounds %struct.TfLiteTensor, %struct.TfLiteTensor* %611, i64 %612, i32 2
  %617 = load %struct.TfLiteIntArray*, %struct.TfLiteIntArray** %616, align 8
  %618 = getelementptr inbounds %struct.TfLiteIntArray, %struct.TfLiteIntArray* %617, i64 0, i32 0
  %619 = load i32, i32* %618, align 4
  %620 = icmp eq i32 %619, 2
  br i1 %620, label %624, label %621

621:                                              ; preds = %615
  %622 = getelementptr inbounds %struct.TfLiteContext, %struct.TfLiteContext* %0, i64 0, i32 5
  %623 = load void (%struct.TfLiteContext*, i8*, ...)*, void (%struct.TfLiteContext*, i8*, ...)** %622, align 8
  tail call void (%struct.TfLiteContext*, i8*, ...) %623(%struct.TfLiteContext* %0, i8* getelementptr inbounds ([26 x i8], [26 x i8]* @.str.6, i64 0, i64 0), i8* getelementptr inbounds ([61 x i8], [61 x i8]* @.str.3, i64 0, i64 0), i32 902, i8* getelementptr inbounds ([31 x i8], [31 x i8]* @.str.66, i64 0, i64 0), i8* getelementptr inbounds ([2 x i8], [2 x i8]* @.str.8, i64 0, i64 0), i32 %619, i32 2) #18
  br label %884

624:                                              ; preds = %615
  %625 = getelementptr inbounds %struct.TfLiteIntArray, %struct.TfLiteIntArray* %617, i64 0, i32 1, i64 0
  %626 = load i32, i32* %625, align 4
  %627 = icmp eq i32 %626, %3
  br i1 %627, label %631, label %628

628:                                              ; preds = %624
  %629 = getelementptr inbounds %struct.TfLiteContext, %struct.TfLiteContext* %0, i64 0, i32 5
  %630 = load void (%struct.TfLiteContext*, i8*, ...)*, void (%struct.TfLiteContext*, i8*, ...)** %629, align 8
  tail call void (%struct.TfLiteContext*, i8*, ...) %630(%struct.TfLiteContext* %0, i8* getelementptr inbounds ([26 x i8], [26 x i8]* @.str.6, i64 0, i64 0), i8* getelementptr inbounds ([61 x i8], [61 x i8]* @.str.3, i64 0, i64 0), i32 903, i8* getelementptr inbounds ([34 x i8], [34 x i8]* @.str.67, i64 0, i64 0), i8* getelementptr inbounds ([9 x i8], [9 x i8]* @.str.27, i64 0, i64 0), i32 %626, i32 %3) #18
  br label %884

631:                                              ; preds = %624
  %632 = getelementptr inbounds %struct.TfLiteIntArray, %struct.TfLiteIntArray* %617, i64 0, i32 1, i64 1
  %633 = load i32, i32* %632, align 4
  %634 = icmp eq i32 %633, %4
  br i1 %634, label %638, label %635

635:                                              ; preds = %631
  %636 = getelementptr inbounds %struct.TfLiteContext, %struct.TfLiteContext* %0, i64 0, i32 5
  %637 = load void (%struct.TfLiteContext*, i8*, ...)*, void (%struct.TfLiteContext*, i8*, ...)** %636, align 8
  tail call void (%struct.TfLiteContext*, i8*, ...) %637(%struct.TfLiteContext* %0, i8* getelementptr inbounds ([26 x i8], [26 x i8]* @.str.6, i64 0, i64 0), i8* getelementptr inbounds ([61 x i8], [61 x i8]* @.str.3, i64 0, i64 0), i32 904, i8* getelementptr inbounds ([34 x i8], [34 x i8]* @.str.68, i64 0, i64 0), i8* getelementptr inbounds ([7 x i8], [7 x i8]* @.str.10, i64 0, i64 0), i32 %633, i32 %4) #18
  br label %884

638:                                              ; preds = %631
  %639 = getelementptr inbounds %struct.TfLiteTensor, %struct.TfLiteTensor* %613, i64 0, i32 0
  %640 = load i32, i32* %639, align 8
  %641 = icmp eq i32 %640, %61
  br i1 %641, label %648, label %642

642:                                              ; preds = %638
  %643 = getelementptr inbounds %struct.TfLiteContext, %struct.TfLiteContext* %0, i64 0, i32 5
  %644 = load void (%struct.TfLiteContext*, i8*, ...)*, void (%struct.TfLiteContext*, i8*, ...)** %643, align 8
  %645 = tail call i8* @TfLiteTypeGetName(i32 %640) #18
  %646 = load i32, i32* %60, align 8
  %647 = tail call i8* @TfLiteTypeGetName(i32 %646) #18
  tail call void (%struct.TfLiteContext*, i8*, ...) %644(%struct.TfLiteContext* %0, i8* getelementptr inbounds ([26 x i8], [26 x i8]* @.str.17, i64 0, i64 0), i8* getelementptr inbounds ([61 x i8], [61 x i8]* @.str.3, i64 0, i64 0), i32 906, i8* getelementptr inbounds ([25 x i8], [25 x i8]* @.str.69, i64 0, i64 0), i8* getelementptr inbounds ([30 x i8], [30 x i8]* @.str.19, i64 0, i64 0), i8* %645, i8* %647) #18
  br label %884

648:                                              ; preds = %609, %605, %638
  %649 = phi i1 [ true, %638 ], [ false, %609 ], [ false, %605 ]
  %650 = getelementptr inbounds %struct.TfLiteIntArray, %struct.TfLiteIntArray* %26, i64 0, i32 1, i64 17
  %651 = load i32, i32* %650, align 4
  %652 = icmp slt i32 %651, 0
  br i1 %652, label %696, label %653

653:                                              ; preds = %648
  %654 = getelementptr inbounds %struct.TfLiteContext, %struct.TfLiteContext* %0, i64 0, i32 2
  %655 = load %struct.TfLiteTensor*, %struct.TfLiteTensor** %654, align 8
  %656 = sext i32 %651 to i64
  %657 = getelementptr inbounds %struct.TfLiteTensor, %struct.TfLiteTensor* %655, i64 %656
  %658 = icmp eq %struct.TfLiteTensor* %657, null
  br i1 %658, label %696, label %659

659:                                              ; preds = %653
  %660 = getelementptr inbounds %struct.TfLiteTensor, %struct.TfLiteTensor* %655, i64 %656, i32 2
  %661 = load %struct.TfLiteIntArray*, %struct.TfLiteIntArray** %660, align 8
  %662 = getelementptr inbounds %struct.TfLiteIntArray, %struct.TfLiteIntArray* %661, i64 0, i32 0
  %663 = load i32, i32* %662, align 4
  %664 = icmp eq i32 %663, 1
  br i1 %664, label %668, label %665

665:                                              ; preds = %659
  %666 = getelementptr inbounds %struct.TfLiteContext, %struct.TfLiteContext* %0, i64 0, i32 5
  %667 = load void (%struct.TfLiteContext*, i8*, ...)*, void (%struct.TfLiteContext*, i8*, ...)** %666, align 8
  tail call void (%struct.TfLiteContext*, i8*, ...) %667(%struct.TfLiteContext* %0, i8* getelementptr inbounds ([26 x i8], [26 x i8]* @.str.6, i64 0, i64 0), i8* getelementptr inbounds ([61 x i8], [61 x i8]* @.str.3, i64 0, i64 0), i32 912, i8* getelementptr inbounds ([28 x i8], [28 x i8]* @.str.70, i64 0, i64 0), i8* getelementptr inbounds ([2 x i8], [2 x i8]* @.str.39, i64 0, i64 0), i32 %663, i32 1) #18
  br label %884

668:                                              ; preds = %659
  %669 = getelementptr inbounds %struct.TfLiteIntArray, %struct.TfLiteIntArray* %661, i64 0, i32 1, i64 0
  %670 = load i32, i32* %669, align 4
  %671 = icmp eq i32 %670, %3
  br i1 %671, label %675, label %672

672:                                              ; preds = %668
  %673 = getelementptr inbounds %struct.TfLiteContext, %struct.TfLiteContext* %0, i64 0, i32 5
  %674 = load void (%struct.TfLiteContext*, i8*, ...)*, void (%struct.TfLiteContext*, i8*, ...)** %673, align 8
  tail call void (%struct.TfLiteContext*, i8*, ...) %674(%struct.TfLiteContext* %0, i8* getelementptr inbounds ([26 x i8], [26 x i8]* @.str.6, i64 0, i64 0), i8* getelementptr inbounds ([61 x i8], [61 x i8]* @.str.3, i64 0, i64 0), i32 913, i8* getelementptr inbounds ([31 x i8], [31 x i8]* @.str.71, i64 0, i64 0), i8* getelementptr inbounds ([9 x i8], [9 x i8]* @.str.27, i64 0, i64 0), i32 %670, i32 %3) #18
  br label %884

675:                                              ; preds = %668
  %676 = getelementptr inbounds %struct.TfLiteTensor, %struct.TfLiteTensor* %657, i64 0, i32 0
  %677 = load i32, i32* %676, align 8
  br i1 %6, label %678, label %685

678:                                              ; preds = %675
  %679 = icmp eq i32 %677, 2
  br i1 %679, label %692, label %680

680:                                              ; preds = %678
  %681 = getelementptr inbounds %struct.TfLiteContext, %struct.TfLiteContext* %0, i64 0, i32 5
  %682 = load void (%struct.TfLiteContext*, i8*, ...)*, void (%struct.TfLiteContext*, i8*, ...)** %681, align 8
  %683 = tail call i8* @TfLiteTypeGetName(i32 %677) #18
  %684 = tail call i8* @TfLiteTypeGetName(i32 2) #18
  tail call void (%struct.TfLiteContext*, i8*, ...) %682(%struct.TfLiteContext* %0, i8* getelementptr inbounds ([26 x i8], [26 x i8]* @.str.17, i64 0, i64 0), i8* getelementptr inbounds ([61 x i8], [61 x i8]* @.str.3, i64 0, i64 0), i32 915, i8* getelementptr inbounds ([22 x i8], [22 x i8]* @.str.72, i64 0, i64 0), i8* getelementptr inbounds ([13 x i8], [13 x i8]* @.str.55, i64 0, i64 0), i8* %683, i8* %684) #18
  br label %884

685:                                              ; preds = %675
  %686 = icmp eq i32 %677, 1
  br i1 %686, label %692, label %687

687:                                              ; preds = %685
  %688 = getelementptr inbounds %struct.TfLiteContext, %struct.TfLiteContext* %0, i64 0, i32 5
  %689 = load void (%struct.TfLiteContext*, i8*, ...)*, void (%struct.TfLiteContext*, i8*, ...)** %688, align 8
  %690 = tail call i8* @TfLiteTypeGetName(i32 %677) #18
  %691 = tail call i8* @TfLiteTypeGetName(i32 1) #18
  tail call void (%struct.TfLiteContext*, i8*, ...) %689(%struct.TfLiteContext* %0, i8* getelementptr inbounds ([26 x i8], [26 x i8]* @.str.17, i64 0, i64 0), i8* getelementptr inbounds ([61 x i8], [61 x i8]* @.str.3, i64 0, i64 0), i32 917, i8* getelementptr inbounds ([22 x i8], [22 x i8]* @.str.72, i64 0, i64 0), i8* getelementptr inbounds ([15 x i8], [15 x i8]* @.str.56, i64 0, i64 0), i8* %690, i8* %691) #18
  br label %884

692:                                              ; preds = %678, %685
  br i1 %649, label %696, label %693

693:                                              ; preds = %692
  %694 = getelementptr inbounds %struct.TfLiteContext, %struct.TfLiteContext* %0, i64 0, i32 5
  %695 = load void (%struct.TfLiteContext*, i8*, ...)*, void (%struct.TfLiteContext*, i8*, ...)** %694, align 8
  tail call void (%struct.TfLiteContext*, i8*, ...) %695(%struct.TfLiteContext* %0, i8* getelementptr inbounds ([23 x i8], [23 x i8]* @.str, i64 0, i64 0), i8* getelementptr inbounds ([61 x i8], [61 x i8]* @.str.3, i64 0, i64 0), i32 928, i8* getelementptr inbounds ([38 x i8], [38 x i8]* @.str.73, i64 0, i64 0)) #18
  br label %884

696:                                              ; preds = %648, %653, %692
  br i1 %5, label %697, label %884

697:                                              ; preds = %696
  %698 = getelementptr inbounds %struct.TfLiteIntArray, %struct.TfLiteIntArray* %26, i64 0, i32 1, i64 20
  %699 = load i32, i32* %698, align 4
  %700 = icmp slt i32 %699, 0
  br i1 %700, label %706, label %701

701:                                              ; preds = %697
  %702 = getelementptr inbounds %struct.TfLiteContext, %struct.TfLiteContext* %0, i64 0, i32 2
  %703 = load %struct.TfLiteTensor*, %struct.TfLiteTensor** %702, align 8
  %704 = sext i32 %699 to i64
  %705 = getelementptr inbounds %struct.TfLiteTensor, %struct.TfLiteTensor* %703, i64 %704
  br label %706

706:                                              ; preds = %697, %701
  %707 = phi %struct.TfLiteTensor* [ %705, %701 ], [ null, %697 ]
  %708 = icmp ne %struct.TfLiteTensor* %707, null
  br i1 %109, label %709, label %713

709:                                              ; preds = %706
  br i1 %708, label %710, label %750

710:                                              ; preds = %709
  %711 = getelementptr inbounds %struct.TfLiteContext, %struct.TfLiteContext* %0, i64 0, i32 5
  %712 = load void (%struct.TfLiteContext*, i8*, ...)*, void (%struct.TfLiteContext*, i8*, ...)** %711, align 8
  tail call void (%struct.TfLiteContext*, i8*, ...) %712(%struct.TfLiteContext* %0, i8* getelementptr inbounds ([26 x i8], [26 x i8]* @.str.6, i64 0, i64 0), i8* getelementptr inbounds ([61 x i8], [61 x i8]* @.str.3, i64 0, i64 0), i32 934, i8* getelementptr inbounds ([30 x i8], [30 x i8]* @.str.74, i64 0, i64 0), i8* getelementptr inbounds ([8 x i8], [8 x i8]* @.str.51, i64 0, i64 0), %struct.TfLiteTensor* nonnull %707, i8* null) #18
  br label %884

713:                                              ; preds = %706
  br i1 %708, label %717, label %714

714:                                              ; preds = %713
  %715 = getelementptr inbounds %struct.TfLiteContext, %struct.TfLiteContext* %0, i64 0, i32 5
  %716 = load void (%struct.TfLiteContext*, i8*, ...)*, void (%struct.TfLiteContext*, i8*, ...)** %715, align 8
  tail call void (%struct.TfLiteContext*, i8*, ...) %716(%struct.TfLiteContext* %0, i8* getelementptr inbounds ([23 x i8], [23 x i8]* @.str, i64 0, i64 0), i8* getelementptr inbounds ([61 x i8], [61 x i8]* @.str.3, i64 0, i64 0), i32 936, i8* getelementptr inbounds ([41 x i8], [41 x i8]* @.str.75, i64 0, i64 0)) #18
  br label %884

717:                                              ; preds = %713
  %718 = getelementptr inbounds %struct.TfLiteTensor, %struct.TfLiteTensor* %707, i64 0, i32 2
  %719 = load %struct.TfLiteIntArray*, %struct.TfLiteIntArray** %718, align 8
  %720 = getelementptr inbounds %struct.TfLiteIntArray, %struct.TfLiteIntArray* %719, i64 0, i32 0
  %721 = load i32, i32* %720, align 4
  %722 = icmp eq i32 %721, 1
  br i1 %722, label %726, label %723

723:                                              ; preds = %717
  %724 = getelementptr inbounds %struct.TfLiteContext, %struct.TfLiteContext* %0, i64 0, i32 5
  %725 = load void (%struct.TfLiteContext*, i8*, ...)*, void (%struct.TfLiteContext*, i8*, ...)** %724, align 8
  tail call void (%struct.TfLiteContext*, i8*, ...) %725(%struct.TfLiteContext* %0, i8* getelementptr inbounds ([26 x i8], [26 x i8]* @.str.6, i64 0, i64 0), i8* getelementptr inbounds ([61 x i8], [61 x i8]* @.str.3, i64 0, i64 0), i32 937, i8* getelementptr inbounds ([42 x i8], [42 x i8]* @.str.76, i64 0, i64 0), i8* getelementptr inbounds ([2 x i8], [2 x i8]* @.str.39, i64 0, i64 0), i32 %721, i32 1) #18
  br label %884

726:                                              ; preds = %717
  %727 = getelementptr inbounds %struct.TfLiteIntArray, %struct.TfLiteIntArray* %719, i64 0, i32 1, i64 0
  %728 = load i32, i32* %727, align 4
  %729 = icmp eq i32 %728, %4
  br i1 %729, label %733, label %730

730:                                              ; preds = %726
  %731 = getelementptr inbounds %struct.TfLiteContext, %struct.TfLiteContext* %0, i64 0, i32 5
  %732 = load void (%struct.TfLiteContext*, i8*, ...)*, void (%struct.TfLiteContext*, i8*, ...)** %731, align 8
  tail call void (%struct.TfLiteContext*, i8*, ...) %732(%struct.TfLiteContext* %0, i8* getelementptr inbounds ([26 x i8], [26 x i8]* @.str.6, i64 0, i64 0), i8* getelementptr inbounds ([61 x i8], [61 x i8]* @.str.3, i64 0, i64 0), i32 939, i8* getelementptr inbounds ([45 x i8], [45 x i8]* @.str.77, i64 0, i64 0), i8* getelementptr inbounds ([7 x i8], [7 x i8]* @.str.10, i64 0, i64 0), i32 %728, i32 %4) #18
  br label %884

733:                                              ; preds = %726
  %734 = getelementptr inbounds %struct.TfLiteTensor, %struct.TfLiteTensor* %707, i64 0, i32 0
  %735 = load i32, i32* %734, align 8
  br i1 %6, label %736, label %743

736:                                              ; preds = %733
  %737 = icmp eq i32 %735, 7
  br i1 %737, label %750, label %738

738:                                              ; preds = %736
  %739 = getelementptr inbounds %struct.TfLiteContext, %struct.TfLiteContext* %0, i64 0, i32 5
  %740 = load void (%struct.TfLiteContext*, i8*, ...)*, void (%struct.TfLiteContext*, i8*, ...)** %739, align 8
  %741 = tail call i8* @TfLiteTypeGetName(i32 %735) #18
  %742 = tail call i8* @TfLiteTypeGetName(i32 7) #18
  tail call void (%struct.TfLiteContext*, i8*, ...) %740(%struct.TfLiteContext* %0, i8* getelementptr inbounds ([26 x i8], [26 x i8]* @.str.17, i64 0, i64 0), i8* getelementptr inbounds ([61 x i8], [61 x i8]* @.str.3, i64 0, i64 0), i32 942, i8* getelementptr inbounds ([36 x i8], [36 x i8]* @.str.78, i64 0, i64 0), i8* getelementptr inbounds ([13 x i8], [13 x i8]* @.str.79, i64 0, i64 0), i8* %741, i8* %742) #18
  br label %884

743:                                              ; preds = %733
  %744 = icmp eq i32 %735, 1
  br i1 %744, label %750, label %745

745:                                              ; preds = %743
  %746 = getelementptr inbounds %struct.TfLiteContext, %struct.TfLiteContext* %0, i64 0, i32 5
  %747 = load void (%struct.TfLiteContext*, i8*, ...)*, void (%struct.TfLiteContext*, i8*, ...)** %746, align 8
  %748 = tail call i8* @TfLiteTypeGetName(i32 %735) #18
  %749 = tail call i8* @TfLiteTypeGetName(i32 1) #18
  tail call void (%struct.TfLiteContext*, i8*, ...) %747(%struct.TfLiteContext* %0, i8* getelementptr inbounds ([26 x i8], [26 x i8]* @.str.17, i64 0, i64 0), i8* getelementptr inbounds ([61 x i8], [61 x i8]* @.str.3, i64 0, i64 0), i32 945, i8* getelementptr inbounds ([36 x i8], [36 x i8]* @.str.78, i64 0, i64 0), i8* getelementptr inbounds ([15 x i8], [15 x i8]* @.str.56, i64 0, i64 0), i8* %748, i8* %749) #18
  br label %884

750:                                              ; preds = %736, %743, %709
  %751 = getelementptr inbounds %struct.TfLiteIntArray, %struct.TfLiteIntArray* %26, i64 0, i32 1, i64 21
  %752 = load i32, i32* %751, align 4
  %753 = icmp slt i32 %752, 0
  br i1 %753, label %760, label %754

754:                                              ; preds = %750
  %755 = getelementptr inbounds %struct.TfLiteContext, %struct.TfLiteContext* %0, i64 0, i32 2
  %756 = load %struct.TfLiteTensor*, %struct.TfLiteTensor** %755, align 8
  %757 = sext i32 %752 to i64
  %758 = getelementptr inbounds %struct.TfLiteTensor, %struct.TfLiteTensor* %756, i64 %757
  %759 = icmp eq %struct.TfLiteTensor* %758, null
  br i1 %759, label %760, label %763

760:                                              ; preds = %750, %754
  %761 = getelementptr inbounds %struct.TfLiteContext, %struct.TfLiteContext* %0, i64 0, i32 5
  %762 = load void (%struct.TfLiteContext*, i8*, ...)*, void (%struct.TfLiteContext*, i8*, ...)** %761, align 8
  tail call void (%struct.TfLiteContext*, i8*, ...) %762(%struct.TfLiteContext* %0, i8* getelementptr inbounds ([23 x i8], [23 x i8]* @.str, i64 0, i64 0), i8* getelementptr inbounds ([61 x i8], [61 x i8]* @.str.3, i64 0, i64 0), i32 951, i8* getelementptr inbounds ([42 x i8], [42 x i8]* @.str.80, i64 0, i64 0)) #18
  br label %884

763:                                              ; preds = %754
  %764 = getelementptr inbounds %struct.TfLiteTensor, %struct.TfLiteTensor* %756, i64 %757, i32 2
  %765 = load %struct.TfLiteIntArray*, %struct.TfLiteIntArray** %764, align 8
  %766 = getelementptr inbounds %struct.TfLiteIntArray, %struct.TfLiteIntArray* %765, i64 0, i32 0
  %767 = load i32, i32* %766, align 4
  %768 = icmp eq i32 %767, 1
  br i1 %768, label %772, label %769

769:                                              ; preds = %763
  %770 = getelementptr inbounds %struct.TfLiteContext, %struct.TfLiteContext* %0, i64 0, i32 5
  %771 = load void (%struct.TfLiteContext*, i8*, ...)*, void (%struct.TfLiteContext*, i8*, ...)** %770, align 8
  tail call void (%struct.TfLiteContext*, i8*, ...) %771(%struct.TfLiteContext* %0, i8* getelementptr inbounds ([26 x i8], [26 x i8]* @.str.6, i64 0, i64 0), i8* getelementptr inbounds ([61 x i8], [61 x i8]* @.str.3, i64 0, i64 0), i32 952, i8* getelementptr inbounds ([43 x i8], [43 x i8]* @.str.81, i64 0, i64 0), i8* getelementptr inbounds ([2 x i8], [2 x i8]* @.str.39, i64 0, i64 0), i32 %767, i32 1) #18
  br label %884

772:                                              ; preds = %763
  %773 = getelementptr inbounds %struct.TfLiteIntArray, %struct.TfLiteIntArray* %765, i64 0, i32 1, i64 0
  %774 = load i32, i32* %773, align 4
  %775 = icmp eq i32 %774, %4
  br i1 %775, label %779, label %776

776:                                              ; preds = %772
  %777 = getelementptr inbounds %struct.TfLiteContext, %struct.TfLiteContext* %0, i64 0, i32 5
  %778 = load void (%struct.TfLiteContext*, i8*, ...)*, void (%struct.TfLiteContext*, i8*, ...)** %777, align 8
  tail call void (%struct.TfLiteContext*, i8*, ...) %778(%struct.TfLiteContext* %0, i8* getelementptr inbounds ([26 x i8], [26 x i8]* @.str.6, i64 0, i64 0), i8* getelementptr inbounds ([61 x i8], [61 x i8]* @.str.3, i64 0, i64 0), i32 954, i8* getelementptr inbounds ([46 x i8], [46 x i8]* @.str.82, i64 0, i64 0), i8* getelementptr inbounds ([7 x i8], [7 x i8]* @.str.10, i64 0, i64 0), i32 %774, i32 %4) #18
  br label %884

779:                                              ; preds = %772
  %780 = getelementptr inbounds %struct.TfLiteTensor, %struct.TfLiteTensor* %758, i64 0, i32 0
  %781 = load i32, i32* %780, align 8
  br i1 %6, label %782, label %789

782:                                              ; preds = %779
  %783 = icmp eq i32 %781, 7
  br i1 %783, label %796, label %784

784:                                              ; preds = %782
  %785 = getelementptr inbounds %struct.TfLiteContext, %struct.TfLiteContext* %0, i64 0, i32 5
  %786 = load void (%struct.TfLiteContext*, i8*, ...)*, void (%struct.TfLiteContext*, i8*, ...)** %785, align 8
  %787 = tail call i8* @TfLiteTypeGetName(i32 %781) #18
  %788 = tail call i8* @TfLiteTypeGetName(i32 7) #18
  tail call void (%struct.TfLiteContext*, i8*, ...) %786(%struct.TfLiteContext* %0, i8* getelementptr inbounds ([26 x i8], [26 x i8]* @.str.17, i64 0, i64 0), i8* getelementptr inbounds ([61 x i8], [61 x i8]* @.str.3, i64 0, i64 0), i32 957, i8* getelementptr inbounds ([37 x i8], [37 x i8]* @.str.83, i64 0, i64 0), i8* getelementptr inbounds ([13 x i8], [13 x i8]* @.str.79, i64 0, i64 0), i8* %787, i8* %788) #18
  br label %884

789:                                              ; preds = %779
  %790 = icmp eq i32 %781, 1
  br i1 %790, label %796, label %791

791:                                              ; preds = %789
  %792 = getelementptr inbounds %struct.TfLiteContext, %struct.TfLiteContext* %0, i64 0, i32 5
  %793 = load void (%struct.TfLiteContext*, i8*, ...)*, void (%struct.TfLiteContext*, i8*, ...)** %792, align 8
  %794 = tail call i8* @TfLiteTypeGetName(i32 %781) #18
  %795 = tail call i8* @TfLiteTypeGetName(i32 1) #18
  tail call void (%struct.TfLiteContext*, i8*, ...) %793(%struct.TfLiteContext* %0, i8* getelementptr inbounds ([26 x i8], [26 x i8]* @.str.17, i64 0, i64 0), i8* getelementptr inbounds ([61 x i8], [61 x i8]* @.str.3, i64 0, i64 0), i32 960, i8* getelementptr inbounds ([37 x i8], [37 x i8]* @.str.83, i64 0, i64 0), i8* getelementptr inbounds ([15 x i8], [15 x i8]* @.str.56, i64 0, i64 0), i8* %794, i8* %795) #18
  br label %884

796:                                              ; preds = %782, %789
  %797 = getelementptr inbounds %struct.TfLiteIntArray, %struct.TfLiteIntArray* %26, i64 0, i32 1, i64 22
  %798 = load i32, i32* %797, align 4
  %799 = icmp slt i32 %798, 0
  br i1 %799, label %804, label %800

800:                                              ; preds = %796
  %801 = sext i32 %798 to i64
  %802 = getelementptr inbounds %struct.TfLiteTensor, %struct.TfLiteTensor* %756, i64 %801
  %803 = icmp eq %struct.TfLiteTensor* %802, null
  br i1 %803, label %804, label %807

804:                                              ; preds = %796, %800
  %805 = getelementptr inbounds %struct.TfLiteContext, %struct.TfLiteContext* %0, i64 0, i32 5
  %806 = load void (%struct.TfLiteContext*, i8*, ...)*, void (%struct.TfLiteContext*, i8*, ...)** %805, align 8
  tail call void (%struct.TfLiteContext*, i8*, ...) %806(%struct.TfLiteContext* %0, i8* getelementptr inbounds ([23 x i8], [23 x i8]* @.str, i64 0, i64 0), i8* getelementptr inbounds ([61 x i8], [61 x i8]* @.str.3, i64 0, i64 0), i32 965, i8* getelementptr inbounds ([40 x i8], [40 x i8]* @.str.84, i64 0, i64 0)) #18
  br label %884

807:                                              ; preds = %800
  %808 = getelementptr inbounds %struct.TfLiteTensor, %struct.TfLiteTensor* %756, i64 %801, i32 2
  %809 = load %struct.TfLiteIntArray*, %struct.TfLiteIntArray** %808, align 8
  %810 = getelementptr inbounds %struct.TfLiteIntArray, %struct.TfLiteIntArray* %809, i64 0, i32 0
  %811 = load i32, i32* %810, align 4
  %812 = icmp eq i32 %811, 1
  br i1 %812, label %816, label %813

813:                                              ; preds = %807
  %814 = getelementptr inbounds %struct.TfLiteContext, %struct.TfLiteContext* %0, i64 0, i32 5
  %815 = load void (%struct.TfLiteContext*, i8*, ...)*, void (%struct.TfLiteContext*, i8*, ...)** %814, align 8
  tail call void (%struct.TfLiteContext*, i8*, ...) %815(%struct.TfLiteContext* %0, i8* getelementptr inbounds ([26 x i8], [26 x i8]* @.str.6, i64 0, i64 0), i8* getelementptr inbounds ([61 x i8], [61 x i8]* @.str.3, i64 0, i64 0), i32 966, i8* getelementptr inbounds ([41 x i8], [41 x i8]* @.str.85, i64 0, i64 0), i8* getelementptr inbounds ([2 x i8], [2 x i8]* @.str.39, i64 0, i64 0), i32 %811, i32 1) #18
  br label %884

816:                                              ; preds = %807
  %817 = getelementptr inbounds %struct.TfLiteIntArray, %struct.TfLiteIntArray* %809, i64 0, i32 1, i64 0
  %818 = load i32, i32* %817, align 4
  %819 = icmp eq i32 %818, %4
  br i1 %819, label %823, label %820

820:                                              ; preds = %816
  %821 = getelementptr inbounds %struct.TfLiteContext, %struct.TfLiteContext* %0, i64 0, i32 5
  %822 = load void (%struct.TfLiteContext*, i8*, ...)*, void (%struct.TfLiteContext*, i8*, ...)** %821, align 8
  tail call void (%struct.TfLiteContext*, i8*, ...) %822(%struct.TfLiteContext* %0, i8* getelementptr inbounds ([26 x i8], [26 x i8]* @.str.6, i64 0, i64 0), i8* getelementptr inbounds ([61 x i8], [61 x i8]* @.str.3, i64 0, i64 0), i32 968, i8* getelementptr inbounds ([44 x i8], [44 x i8]* @.str.86, i64 0, i64 0), i8* getelementptr inbounds ([7 x i8], [7 x i8]* @.str.10, i64 0, i64 0), i32 %818, i32 %4) #18
  br label %884

823:                                              ; preds = %816
  %824 = getelementptr inbounds %struct.TfLiteTensor, %struct.TfLiteTensor* %802, i64 0, i32 0
  %825 = load i32, i32* %824, align 8
  br i1 %6, label %826, label %833

826:                                              ; preds = %823
  %827 = icmp eq i32 %825, 7
  br i1 %827, label %840, label %828

828:                                              ; preds = %826
  %829 = getelementptr inbounds %struct.TfLiteContext, %struct.TfLiteContext* %0, i64 0, i32 5
  %830 = load void (%struct.TfLiteContext*, i8*, ...)*, void (%struct.TfLiteContext*, i8*, ...)** %829, align 8
  %831 = tail call i8* @TfLiteTypeGetName(i32 %825) #18
  %832 = tail call i8* @TfLiteTypeGetName(i32 7) #18
  tail call void (%struct.TfLiteContext*, i8*, ...) %830(%struct.TfLiteContext* %0, i8* getelementptr inbounds ([26 x i8], [26 x i8]* @.str.17, i64 0, i64 0), i8* getelementptr inbounds ([61 x i8], [61 x i8]* @.str.3, i64 0, i64 0), i32 971, i8* getelementptr inbounds ([35 x i8], [35 x i8]* @.str.87, i64 0, i64 0), i8* getelementptr inbounds ([13 x i8], [13 x i8]* @.str.79, i64 0, i64 0), i8* %831, i8* %832) #18
  br label %884

833:                                              ; preds = %823
  %834 = icmp eq i32 %825, 1
  br i1 %834, label %840, label %835

835:                                              ; preds = %833
  %836 = getelementptr inbounds %struct.TfLiteContext, %struct.TfLiteContext* %0, i64 0, i32 5
  %837 = load void (%struct.TfLiteContext*, i8*, ...)*, void (%struct.TfLiteContext*, i8*, ...)** %836, align 8
  %838 = tail call i8* @TfLiteTypeGetName(i32 %825) #18
  %839 = tail call i8* @TfLiteTypeGetName(i32 1) #18
  tail call void (%struct.TfLiteContext*, i8*, ...) %837(%struct.TfLiteContext* %0, i8* getelementptr inbounds ([26 x i8], [26 x i8]* @.str.17, i64 0, i64 0), i8* getelementptr inbounds ([61 x i8], [61 x i8]* @.str.3, i64 0, i64 0), i32 974, i8* getelementptr inbounds ([35 x i8], [35 x i8]* @.str.87, i64 0, i64 0), i8* getelementptr inbounds ([15 x i8], [15 x i8]* @.str.56, i64 0, i64 0), i8* %838, i8* %839) #18
  br label %884

840:                                              ; preds = %826, %833
  %841 = getelementptr inbounds %struct.TfLiteIntArray, %struct.TfLiteIntArray* %26, i64 0, i32 1, i64 23
  %842 = load i32, i32* %841, align 4
  %843 = icmp slt i32 %842, 0
  br i1 %843, label %848, label %844

844:                                              ; preds = %840
  %845 = sext i32 %842 to i64
  %846 = getelementptr inbounds %struct.TfLiteTensor, %struct.TfLiteTensor* %756, i64 %845
  %847 = icmp eq %struct.TfLiteTensor* %846, null
  br i1 %847, label %848, label %851

848:                                              ; preds = %840, %844
  %849 = getelementptr inbounds %struct.TfLiteContext, %struct.TfLiteContext* %0, i64 0, i32 5
  %850 = load void (%struct.TfLiteContext*, i8*, ...)*, void (%struct.TfLiteContext*, i8*, ...)** %849, align 8
  tail call void (%struct.TfLiteContext*, i8*, ...) %850(%struct.TfLiteContext* %0, i8* getelementptr inbounds ([23 x i8], [23 x i8]* @.str, i64 0, i64 0), i8* getelementptr inbounds ([61 x i8], [61 x i8]* @.str.3, i64 0, i64 0), i32 979, i8* getelementptr inbounds ([42 x i8], [42 x i8]* @.str.88, i64 0, i64 0)) #18
  br label %884

851:                                              ; preds = %844
  %852 = getelementptr inbounds %struct.TfLiteTensor, %struct.TfLiteTensor* %756, i64 %845, i32 2
  %853 = load %struct.TfLiteIntArray*, %struct.TfLiteIntArray** %852, align 8
  %854 = getelementptr inbounds %struct.TfLiteIntArray, %struct.TfLiteIntArray* %853, i64 0, i32 0
  %855 = load i32, i32* %854, align 4
  %856 = icmp eq i32 %855, 1
  br i1 %856, label %860, label %857

857:                                              ; preds = %851
  %858 = getelementptr inbounds %struct.TfLiteContext, %struct.TfLiteContext* %0, i64 0, i32 5
  %859 = load void (%struct.TfLiteContext*, i8*, ...)*, void (%struct.TfLiteContext*, i8*, ...)** %858, align 8
  tail call void (%struct.TfLiteContext*, i8*, ...) %859(%struct.TfLiteContext* %0, i8* getelementptr inbounds ([26 x i8], [26 x i8]* @.str.6, i64 0, i64 0), i8* getelementptr inbounds ([61 x i8], [61 x i8]* @.str.3, i64 0, i64 0), i32 980, i8* getelementptr inbounds ([43 x i8], [43 x i8]* @.str.89, i64 0, i64 0), i8* getelementptr inbounds ([2 x i8], [2 x i8]* @.str.39, i64 0, i64 0), i32 %855, i32 1) #18
  br label %884

860:                                              ; preds = %851
  %861 = getelementptr inbounds %struct.TfLiteIntArray, %struct.TfLiteIntArray* %853, i64 0, i32 1, i64 0
  %862 = load i32, i32* %861, align 4
  %863 = icmp eq i32 %862, %4
  br i1 %863, label %867, label %864

864:                                              ; preds = %860
  %865 = getelementptr inbounds %struct.TfLiteContext, %struct.TfLiteContext* %0, i64 0, i32 5
  %866 = load void (%struct.TfLiteContext*, i8*, ...)*, void (%struct.TfLiteContext*, i8*, ...)** %865, align 8
  tail call void (%struct.TfLiteContext*, i8*, ...) %866(%struct.TfLiteContext* %0, i8* getelementptr inbounds ([26 x i8], [26 x i8]* @.str.6, i64 0, i64 0), i8* getelementptr inbounds ([61 x i8], [61 x i8]* @.str.3, i64 0, i64 0), i32 982, i8* getelementptr inbounds ([46 x i8], [46 x i8]* @.str.90, i64 0, i64 0), i8* getelementptr inbounds ([7 x i8], [7 x i8]* @.str.10, i64 0, i64 0), i32 %862, i32 %4) #18
  br label %884

867:                                              ; preds = %860
  %868 = getelementptr inbounds %struct.TfLiteTensor, %struct.TfLiteTensor* %846, i64 0, i32 0
  %869 = load i32, i32* %868, align 8
  br i1 %6, label %870, label %877

870:                                              ; preds = %867
  %871 = icmp eq i32 %869, 7
  br i1 %871, label %884, label %872

872:                                              ; preds = %870
  %873 = getelementptr inbounds %struct.TfLiteContext, %struct.TfLiteContext* %0, i64 0, i32 5
  %874 = load void (%struct.TfLiteContext*, i8*, ...)*, void (%struct.TfLiteContext*, i8*, ...)** %873, align 8
  %875 = tail call i8* @TfLiteTypeGetName(i32 %869) #18
  %876 = tail call i8* @TfLiteTypeGetName(i32 7) #18
  tail call void (%struct.TfLiteContext*, i8*, ...) %874(%struct.TfLiteContext* %0, i8* getelementptr inbounds ([26 x i8], [26 x i8]* @.str.17, i64 0, i64 0), i8* getelementptr inbounds ([61 x i8], [61 x i8]* @.str.3, i64 0, i64 0), i32 985, i8* getelementptr inbounds ([37 x i8], [37 x i8]* @.str.91, i64 0, i64 0), i8* getelementptr inbounds ([13 x i8], [13 x i8]* @.str.79, i64 0, i64 0), i8* %875, i8* %876) #18
  br label %884

877:                                              ; preds = %867
  %878 = icmp eq i32 %869, 1
  br i1 %878, label %884, label %879

879:                                              ; preds = %877
  %880 = getelementptr inbounds %struct.TfLiteContext, %struct.TfLiteContext* %0, i64 0, i32 5
  %881 = load void (%struct.TfLiteContext*, i8*, ...)*, void (%struct.TfLiteContext*, i8*, ...)** %880, align 8
  %882 = tail call i8* @TfLiteTypeGetName(i32 %869) #18
  %883 = tail call i8* @TfLiteTypeGetName(i32 1) #18
  tail call void (%struct.TfLiteContext*, i8*, ...) %881(%struct.TfLiteContext* %0, i8* getelementptr inbounds ([26 x i8], [26 x i8]* @.str.17, i64 0, i64 0), i8* getelementptr inbounds ([61 x i8], [61 x i8]* @.str.3, i64 0, i64 0), i32 988, i8* getelementptr inbounds ([37 x i8], [37 x i8]* @.str.91, i64 0, i64 0), i8* getelementptr inbounds ([15 x i8], [15 x i8]* @.str.56, i64 0, i64 0), i8* %882, i8* %883) #18
  br label %884

884:                                              ; preds = %848, %879, %872, %864, %857, %804, %835, %828, %820, %813, %760, %791, %784, %776, %769, %714, %745, %738, %730, %723, %710, %696, %870, %877, %42, %49, %56, %62, %126, %133, %140, %147, %214, %221, %228, %235, %290, %351, %358, %372, %424, %492, %499, %507, %514, %578, %585, %593, %600, %665, %672, %680, %687, %693, %642, %635, %628, %621, %557, %550, %542, %535, %471, %464, %456, %449, %440, %414, %400, %393, %330, %316, %309, %278, %271, %264, %257, %190, %183, %176, %169, %102, %95, %88, %81, %21, %14
  %885 = phi i32 [ 1, %21 ], [ 1, %14 ], [ 1, %42 ], [ 1, %49 ], [ 1, %56 ], [ 1, %62 ], [ 1, %81 ], [ 1, %88 ], [ 1, %95 ], [ 1, %102 ], [ 1, %126 ], [ 1, %133 ], [ 1, %140 ], [ 1, %147 ], [ 1, %169 ], [ 1, %176 ], [ 1, %183 ], [ 1, %190 ], [ 1, %214 ], [ 1, %221 ], [ 1, %228 ], [ 1, %235 ], [ 1, %257 ], [ 1, %264 ], [ 1, %271 ], [ 1, %278 ], [ 1, %290 ], [ 1, %309 ], [ 1, %316 ], [ 1, %330 ], [ 1, %351 ], [ 1, %358 ], [ 1, %372 ], [ 1, %393 ], [ 1, %400 ], [ 1, %414 ], [ 1, %424 ], [ 1, %440 ], [ 1, %449 ], [ 1, %456 ], [ 1, %464 ], [ 1, %471 ], [ 1, %492 ], [ 1, %499 ], [ 1, %507 ], [ 1, %514 ], [ 1, %535 ], [ 1, %542 ], [ 1, %550 ], [ 1, %557 ], [ 1, %578 ], [ 1, %585 ], [ 1, %593 ], [ 1, %600 ], [ 1, %621 ], [ 1, %628 ], [ 1, %635 ], [ 1, %642 ], [ 1, %665 ], [ 1, %672 ], [ 1, %680 ], [ 1, %687 ], [ 1, %693 ], [ 0, %877 ], [ 0, %870 ], [ 0, %696 ], [ 1, %710 ], [ 1, %723 ], [ 1, %730 ], [ 1, %738 ], [ 1, %745 ], [ 1, %714 ], [ 1, %769 ], [ 1, %776 ], [ 1, %784 ], [ 1, %791 ], [ 1, %760 ], [ 1, %813 ], [ 1, %820 ], [ 1, %828 ], [ 1, %835 ], [ 1, %804 ], [ 1, %857 ], [ 1, %864 ], [ 1, %872 ], [ 1, %879 ], [ 1, %848 ]
  ret i32 %885
}

declare i8* @TfLiteTypeGetName(i32) local_unnamed_addr #3

; Function Attrs: nounwind ssp uwtable
define hidden i32 @_ZN6tflite3ops7builtin4lstm4full38PrecomputeZeroPointTimesWeightWithBiasEP13TfLiteContextiPK12TfLiteTensorS8_PNSt3__110unique_ptrIA_iNS9_14default_deleteISB_EEEE(%struct.TfLiteContext*, i32, %struct.TfLiteTensor* readonly, %struct.TfLiteTensor* readonly, %"class.std::__1::unique_ptr"* nocapture) local_unnamed_addr #1 {
  %6 = alloca %"class.tflite::RuntimeShape", align 8
  %7 = icmp eq %struct.TfLiteTensor* %2, null
  br i1 %7, label %80, label %8

8:                                                ; preds = %5
  %9 = bitcast %"class.tflite::RuntimeShape"* %6 to i8*
  call void @llvm.lifetime.start.p0i8(i64 32, i8* nonnull %9) #18
  %10 = getelementptr inbounds %struct.TfLiteTensor, %struct.TfLiteTensor* %2, i64 0, i32 2
  %11 = load %struct.TfLiteIntArray*, %struct.TfLiteIntArray** %10, align 8, !noalias !2
  %12 = getelementptr inbounds %struct.TfLiteIntArray, %struct.TfLiteIntArray* %11, i64 0, i32 0
  %13 = load i32, i32* %12, align 4, !noalias !2
  %14 = getelementptr inbounds %struct.TfLiteIntArray, %struct.TfLiteIntArray* %11, i64 0, i32 1, i64 0
  %15 = getelementptr inbounds %"class.tflite::RuntimeShape", %"class.tflite::RuntimeShape"* %6, i64 0, i32 0
  store i32 %13, i32* %15, align 8, !alias.scope !2
  %16 = icmp sgt i32 %13, 5
  br i1 %16, label %64, label %17

17:                                               ; preds = %8
  %18 = getelementptr inbounds %"class.tflite::RuntimeShape", %"class.tflite::RuntimeShape"* %6, i64 0, i32 1
  %19 = sext i32 %13 to i64
  %20 = shl nsw i64 %19, 2
  %21 = bitcast %union.anon* %18 to i8*
  %22 = bitcast i32* %14 to i8*
  call void @llvm.memcpy.p0i8.p0i8.i64(i8* align 8 %21, i8* align 4 %22, i64 %20, i1 false) #18
  %23 = icmp eq i32 %13, 2
  br i1 %23, label %24, label %61

24:                                               ; preds = %17
  %25 = getelementptr inbounds %"class.tflite::RuntimeShape", %"class.tflite::RuntimeShape"* %6, i64 0, i32 1
  %26 = bitcast %union.anon* %25 to i32*
  %27 = load i32, i32* %26, align 8
  %28 = bitcast %union.anon* %25 to [5 x i32]*
  %29 = getelementptr inbounds [5 x i32], [5 x i32]* %28, i64 0, i64 1
  %30 = load i32, i32* %29, align 4
  %31 = sext i32 %27 to i64
  %32 = tail call { i64, i1 } @llvm.umul.with.overflow.i64(i64 %31, i64 4)
  %33 = extractvalue { i64, i1 } %32, 1
  %34 = extractvalue { i64, i1 } %32, 0
  %35 = select i1 %33, i64 -1, i64 %34
  %36 = tail call i8* @_Znam(i64 %35) #17
  %37 = getelementptr inbounds %"class.std::__1::unique_ptr", %"class.std::__1::unique_ptr"* %4, i64 0, i32 0, i32 0, i32 0
  %38 = load i32*, i32** %37, align 8
  %39 = bitcast %"class.std::__1::unique_ptr"* %4 to i8**
  store i8* %36, i8** %39, align 8
  %40 = icmp eq i32* %38, null
  br i1 %40, label %43, label %41

41:                                               ; preds = %24
  %42 = bitcast i32* %38 to i8*
  tail call void @_ZdaPv(i8* %42) #17
  br label %43

43:                                               ; preds = %24, %41
  %44 = icmp eq %struct.TfLiteTensor* %3, null
  br i1 %44, label %45, label %48

45:                                               ; preds = %43
  %46 = load i8*, i8** %39, align 8
  %47 = shl nsw i64 %31, 2
  tail call void @llvm.memset.p0i8.i64(i8* align 4 %46, i8 0, i64 %47, i1 false)
  br label %54

48:                                               ; preds = %43
  %49 = getelementptr inbounds %struct.TfLiteTensor, %struct.TfLiteTensor* %3, i64 0, i32 1, i32 0
  %50 = bitcast i32** %49 to i8**
  %51 = load i8*, i8** %50, align 8
  %52 = load i8*, i8** %39, align 8
  %53 = shl nsw i64 %31, 2
  tail call void @llvm.memcpy.p0i8.p0i8.i64(i8* align 4 %52, i8* align 4 %51, i64 %53, i1 false)
  br label %54

54:                                               ; preds = %48, %45
  %55 = icmp eq i32 %1, 0
  br i1 %55, label %78, label %56

56:                                               ; preds = %54
  %57 = getelementptr inbounds %struct.TfLiteTensor, %struct.TfLiteTensor* %2, i64 0, i32 1
  %58 = bitcast %union.TfLitePtrUnion* %57 to i8**
  %59 = load i8*, i8** %58, align 8
  %60 = load i32*, i32** %37, align 8
  tail call void @_ZN6tflite12tensor_utils30MatrixScalarMultiplyAccumulateEPKaiiiPi(i8* %59, i32 %1, i32 %27, i32 %30, i32* %60) #18
  br label %78

61:                                               ; preds = %17
  %62 = getelementptr inbounds %struct.TfLiteContext, %struct.TfLiteContext* %0, i64 0, i32 5
  %63 = load void (%struct.TfLiteContext*, i8*, ...)*, void (%struct.TfLiteContext*, i8*, ...)** %62, align 8
  tail call void (%struct.TfLiteContext*, i8*, ...) %63(%struct.TfLiteContext* %0, i8* getelementptr inbounds ([26 x i8], [26 x i8]* @.str.6, i64 0, i64 0), i8* getelementptr inbounds ([61 x i8], [61 x i8]* @.str.3, i64 0, i64 0), i32 1005, i8* getelementptr inbounds ([31 x i8], [31 x i8]* @.str.92, i64 0, i64 0), i8* getelementptr inbounds ([2 x i8], [2 x i8]* @.str.8, i64 0, i64 0), i32 %13, i32 2) #18
  br label %78

64:                                               ; preds = %8
  %65 = sext i32 %13 to i64
  %66 = shl nsw i64 %65, 2
  %67 = tail call i8* @_Znam(i64 %66) #17, !noalias !2
  %68 = getelementptr inbounds %"class.tflite::RuntimeShape", %"class.tflite::RuntimeShape"* %6, i64 0, i32 1, i32 0
  %69 = bitcast i32** %68 to i8**
  store i8* %67, i8** %69, align 8, !alias.scope !2
  %70 = bitcast i32* %14 to i8*
  call void @llvm.memcpy.p0i8.p0i8.i64(i8* nonnull align 4 %67, i8* align 4 %70, i64 %66, i1 false) #18
  %71 = getelementptr inbounds %struct.TfLiteContext, %struct.TfLiteContext* %0, i64 0, i32 5
  %72 = load void (%struct.TfLiteContext*, i8*, ...)*, void (%struct.TfLiteContext*, i8*, ...)** %71, align 8
  tail call void (%struct.TfLiteContext*, i8*, ...) %72(%struct.TfLiteContext* %0, i8* getelementptr inbounds ([26 x i8], [26 x i8]* @.str.6, i64 0, i64 0), i8* getelementptr inbounds ([61 x i8], [61 x i8]* @.str.3, i64 0, i64 0), i32 1005, i8* getelementptr inbounds ([31 x i8], [31 x i8]* @.str.92, i64 0, i64 0), i8* getelementptr inbounds ([2 x i8], [2 x i8]* @.str.8, i64 0, i64 0), i32 %13, i32 2) #18
  %73 = getelementptr inbounds %"class.tflite::RuntimeShape", %"class.tflite::RuntimeShape"* %6, i64 0, i32 1, i32 0
  %74 = load i32*, i32** %73, align 8
  %75 = icmp eq i32* %74, null
  br i1 %75, label %78, label %76

76:                                               ; preds = %64
  %77 = bitcast i32* %74 to i8*
  tail call void @_ZdaPv(i8* %77) #17
  br label %78

78:                                               ; preds = %61, %54, %56, %64, %76
  %79 = phi i32 [ 1, %61 ], [ 1, %64 ], [ 1, %76 ], [ 0, %56 ], [ 0, %54 ]
  call void @llvm.lifetime.end.p0i8(i64 32, i8* nonnull %9) #18
  br label %80

80:                                               ; preds = %5, %78
  %81 = phi i32 [ %79, %78 ], [ 0, %5 ]
  ret i32 %81
}

; Function Attrs: nounwind readnone speculatable
declare { i64, i1 } @llvm.umul.with.overflow.i64(i64, i64) #4

; Function Attrs: nobuiltin nofree
declare noalias nonnull i8* @_Znam(i64) local_unnamed_addr #2

; Function Attrs: argmemonly nounwind
declare void @llvm.memcpy.p0i8.p0i8.i64(i8* nocapture writeonly, i8* nocapture readonly, i64, i1 immarg) #0

declare void @_ZN6tflite12tensor_utils30MatrixScalarMultiplyAccumulateEPKaiiiPi(i8*, i32, i32, i32, i32*) local_unnamed_addr #3

; Function Attrs: nounwind ssp uwtable
define hidden i32 @_ZN6tflite3ops7builtin4lstm4full41PopulatePrecomputedZPTimesWeightsWithBiasEP13TfLiteContextPNS2_6OpDataEP10TfLiteNode(%struct.TfLiteContext*, %"struct.tflite::ops::builtin::lstm::OpData"* nocapture, %struct.TfLiteNode* nocapture readonly) local_unnamed_addr #1 {
  %4 = getelementptr inbounds %struct.TfLiteNode, %struct.TfLiteNode* %2, i64 0, i32 0
  %5 = load %struct.TfLiteIntArray*, %struct.TfLiteIntArray** %4, align 8
  %6 = getelementptr inbounds %struct.TfLiteIntArray, %struct.TfLiteIntArray* %5, i64 0, i32 1, i64 0
  %7 = load i32, i32* %6, align 4
  %8 = icmp slt i32 %7, 0
  br i1 %8, label %14, label %9

9:                                                ; preds = %3
  %10 = getelementptr inbounds %struct.TfLiteContext, %struct.TfLiteContext* %0, i64 0, i32 2
  %11 = load %struct.TfLiteTensor*, %struct.TfLiteTensor** %10, align 8
  %12 = sext i32 %7 to i64
  %13 = getelementptr inbounds %struct.TfLiteTensor, %struct.TfLiteTensor* %11, i64 %12
  br label %14

14:                                               ; preds = %3, %9
  %15 = phi %struct.TfLiteTensor* [ %13, %9 ], [ null, %3 ]
  %16 = getelementptr inbounds %struct.TfLiteIntArray, %struct.TfLiteIntArray* %5, i64 0, i32 1, i64 18
  %17 = load i32, i32* %16, align 4
  %18 = icmp slt i32 %17, 0
  br i1 %18, label %29, label %19

19:                                               ; preds = %14
  %20 = getelementptr inbounds %struct.TfLiteContext, %struct.TfLiteContext* %0, i64 0, i32 2
  %21 = load %struct.TfLiteTensor*, %struct.TfLiteTensor** %20, align 8
  %22 = sext i32 %17 to i64
  %23 = getelementptr inbounds %struct.TfLiteTensor, %struct.TfLiteTensor* %21, i64 %22
  %24 = getelementptr inbounds %struct.TfLiteTensor, %struct.TfLiteTensor* %21, i64 %22, i32 11
  %25 = load i8, i8* %24, align 1, !range !5
  %26 = icmp eq i8 %25, 0
  %27 = icmp eq %struct.TfLiteTensor* %23, null
  %28 = or i1 %26, %27
  br i1 %28, label %29, label %32

29:                                               ; preds = %19, %14
  %30 = getelementptr inbounds %struct.TfLiteContext, %struct.TfLiteContext* %0, i64 0, i32 5
  %31 = load void (%struct.TfLiteContext*, i8*, ...)*, void (%struct.TfLiteContext*, i8*, ...)** %30, align 8
  tail call void (%struct.TfLiteContext*, i8*, ...) %31(%struct.TfLiteContext* %0, i8* getelementptr inbounds ([23 x i8], [23 x i8]* @.str, i64 0, i64 0), i8* getelementptr inbounds ([61 x i8], [61 x i8]* @.str.3, i64 0, i64 0), i32 1029, i8* getelementptr inbounds ([24 x i8], [24 x i8]* @.str.93, i64 0, i64 0)) #18
  br label %190

32:                                               ; preds = %19
  %33 = getelementptr inbounds %struct.TfLiteTensor, %struct.TfLiteTensor* %15, i64 0, i32 3, i32 1
  %34 = load i32, i32* %33, align 4
  %35 = sub nsw i32 0, %34
  %36 = getelementptr inbounds %struct.TfLiteTensor, %struct.TfLiteTensor* %21, i64 %22, i32 3, i32 1
  %37 = load i32, i32* %36, align 4
  %38 = sub nsw i32 0, %37
  %39 = getelementptr inbounds %struct.TfLiteIntArray, %struct.TfLiteIntArray* %5, i64 0, i32 1, i64 1
  %40 = load i32, i32* %39, align 4
  %41 = icmp slt i32 %40, 0
  %42 = sext i32 %40 to i64
  %43 = getelementptr inbounds %struct.TfLiteTensor, %struct.TfLiteTensor* %21, i64 %42
  %44 = select i1 %41, %struct.TfLiteTensor* null, %struct.TfLiteTensor* %43
  %45 = getelementptr inbounds %struct.TfLiteIntArray, %struct.TfLiteIntArray* %5, i64 0, i32 1, i64 2
  %46 = load i32, i32* %45, align 4
  %47 = icmp slt i32 %46, 0
  %48 = sext i32 %46 to i64
  %49 = getelementptr inbounds %struct.TfLiteTensor, %struct.TfLiteTensor* %21, i64 %48
  %50 = select i1 %47, %struct.TfLiteTensor* null, %struct.TfLiteTensor* %49
  %51 = getelementptr inbounds %struct.TfLiteIntArray, %struct.TfLiteIntArray* %5, i64 0, i32 1, i64 3
  %52 = load i32, i32* %51, align 4
  %53 = icmp slt i32 %52, 0
  %54 = sext i32 %52 to i64
  %55 = getelementptr inbounds %struct.TfLiteTensor, %struct.TfLiteTensor* %21, i64 %54
  %56 = select i1 %53, %struct.TfLiteTensor* null, %struct.TfLiteTensor* %55
  %57 = getelementptr inbounds %struct.TfLiteIntArray, %struct.TfLiteIntArray* %5, i64 0, i32 1, i64 4
  %58 = load i32, i32* %57, align 4
  %59 = icmp slt i32 %58, 0
  %60 = sext i32 %58 to i64
  %61 = getelementptr inbounds %struct.TfLiteTensor, %struct.TfLiteTensor* %21, i64 %60
  %62 = select i1 %59, %struct.TfLiteTensor* null, %struct.TfLiteTensor* %61
  %63 = getelementptr inbounds %struct.TfLiteIntArray, %struct.TfLiteIntArray* %5, i64 0, i32 1, i64 5
  %64 = load i32, i32* %63, align 4
  %65 = icmp slt i32 %64, 0
  %66 = sext i32 %64 to i64
  %67 = getelementptr inbounds %struct.TfLiteTensor, %struct.TfLiteTensor* %21, i64 %66
  %68 = select i1 %65, %struct.TfLiteTensor* null, %struct.TfLiteTensor* %67
  %69 = getelementptr inbounds %struct.TfLiteIntArray, %struct.TfLiteIntArray* %5, i64 0, i32 1, i64 6
  %70 = load i32, i32* %69, align 4
  %71 = icmp slt i32 %70, 0
  %72 = sext i32 %70 to i64
  %73 = getelementptr inbounds %struct.TfLiteTensor, %struct.TfLiteTensor* %21, i64 %72
  %74 = select i1 %71, %struct.TfLiteTensor* null, %struct.TfLiteTensor* %73
  %75 = getelementptr inbounds %struct.TfLiteIntArray, %struct.TfLiteIntArray* %5, i64 0, i32 1, i64 7
  %76 = load i32, i32* %75, align 4
  %77 = icmp slt i32 %76, 0
  %78 = sext i32 %76 to i64
  %79 = getelementptr inbounds %struct.TfLiteTensor, %struct.TfLiteTensor* %21, i64 %78
  %80 = select i1 %77, %struct.TfLiteTensor* null, %struct.TfLiteTensor* %79
  %81 = getelementptr inbounds %struct.TfLiteIntArray, %struct.TfLiteIntArray* %5, i64 0, i32 1, i64 8
  %82 = load i32, i32* %81, align 4
  %83 = icmp slt i32 %82, 0
  %84 = sext i32 %82 to i64
  %85 = getelementptr inbounds %struct.TfLiteTensor, %struct.TfLiteTensor* %21, i64 %84
  %86 = select i1 %83, %struct.TfLiteTensor* null, %struct.TfLiteTensor* %85
  %87 = getelementptr inbounds %struct.TfLiteIntArray, %struct.TfLiteIntArray* %5, i64 0, i32 1, i64 16
  %88 = load i32, i32* %87, align 4
  %89 = icmp slt i32 %88, 0
  %90 = sext i32 %88 to i64
  %91 = getelementptr inbounds %struct.TfLiteTensor, %struct.TfLiteTensor* %21, i64 %90
  %92 = select i1 %89, %struct.TfLiteTensor* null, %struct.TfLiteTensor* %91
  %93 = getelementptr inbounds %struct.TfLiteIntArray, %struct.TfLiteIntArray* %5, i64 0, i32 1, i64 17
  %94 = load i32, i32* %93, align 4
  %95 = icmp slt i32 %94, 0
  %96 = sext i32 %94 to i64
  %97 = getelementptr inbounds %struct.TfLiteTensor, %struct.TfLiteTensor* %21, i64 %96
  %98 = select i1 %95, %struct.TfLiteTensor* null, %struct.TfLiteTensor* %97
  %99 = getelementptr inbounds %struct.TfLiteNode, %struct.TfLiteNode* %2, i64 0, i32 2
  %100 = load %struct.TfLiteIntArray*, %struct.TfLiteIntArray** %99, align 8
  %101 = getelementptr inbounds %struct.TfLiteIntArray, %struct.TfLiteIntArray* %100, i64 0, i32 1, i64 4
  %102 = load i32, i32* %101, align 4
  %103 = sext i32 %102 to i64
  %104 = getelementptr inbounds %struct.TfLiteTensor, %struct.TfLiteTensor* %21, i64 %103, i32 12, i32 1
  %105 = bitcast i8** %104 to %struct.TfLiteAffineQuantization**
  %106 = load %struct.TfLiteAffineQuantization*, %struct.TfLiteAffineQuantization** %105, align 8
  %107 = getelementptr inbounds %struct.TfLiteAffineQuantization, %struct.TfLiteAffineQuantization* %106, i64 0, i32 1
  %108 = load %struct.TfLiteIntArray*, %struct.TfLiteIntArray** %107, align 8
  %109 = getelementptr inbounds %struct.TfLiteIntArray, %struct.TfLiteIntArray* %108, i64 0, i32 1, i64 0
  %110 = load i32, i32* %109, align 4
  %111 = getelementptr inbounds %"struct.tflite::ops::builtin::lstm::OpData", %"struct.tflite::ops::builtin::lstm::OpData"* %1, i64 0, i32 1
  %112 = load i8, i8* %111, align 4, !range !5
  %113 = icmp ne i8 %112, 0
  br i1 %113, label %121, label %114

114:                                              ; preds = %32
  %115 = getelementptr inbounds %struct.TfLiteIntArray, %struct.TfLiteIntArray* %5, i64 0, i32 1, i64 13
  %116 = load i32, i32* %115, align 4
  %117 = icmp slt i32 %116, 0
  br i1 %117, label %121, label %118

118:                                              ; preds = %114
  %119 = sext i32 %116 to i64
  %120 = getelementptr inbounds %struct.TfLiteTensor, %struct.TfLiteTensor* %21, i64 %119
  br label %121

121:                                              ; preds = %118, %114, %32
  %122 = phi %struct.TfLiteTensor* [ null, %32 ], [ %120, %118 ], [ null, %114 ]
  %123 = getelementptr inbounds %"struct.tflite::ops::builtin::lstm::OpData", %"struct.tflite::ops::builtin::lstm::OpData"* %1, i64 0, i32 5, i32 42
  %124 = tail call i32 @_ZN6tflite3ops7builtin4lstm4full38PrecomputeZeroPointTimesWeightWithBiasEP13TfLiteContextiPK12TfLiteTensorS8_PNSt3__110unique_ptrIA_iNS9_14default_deleteISB_EEEE(%struct.TfLiteContext* %0, i32 %35, %struct.TfLiteTensor* %50, %struct.TfLiteTensor* %122, %"class.std::__1::unique_ptr"* %123)
  %125 = icmp eq i32 %124, 0
  br i1 %125, label %126, label %190

126:                                              ; preds = %121
  %127 = getelementptr inbounds %"struct.tflite::ops::builtin::lstm::OpData", %"struct.tflite::ops::builtin::lstm::OpData"* %1, i64 0, i32 5, i32 43
  %128 = tail call i32 @_ZN6tflite3ops7builtin4lstm4full38PrecomputeZeroPointTimesWeightWithBiasEP13TfLiteContextiPK12TfLiteTensorS8_PNSt3__110unique_ptrIA_iNS9_14default_deleteISB_EEEE(%struct.TfLiteContext* %0, i32 %38, %struct.TfLiteTensor* %74, %struct.TfLiteTensor* null, %"class.std::__1::unique_ptr"* %127)
  %129 = icmp eq i32 %128, 0
  br i1 %129, label %130, label %190

130:                                              ; preds = %126
  br i1 %113, label %140, label %131

131:                                              ; preds = %130
  %132 = load %struct.TfLiteIntArray*, %struct.TfLiteIntArray** %4, align 8
  %133 = getelementptr inbounds %struct.TfLiteIntArray, %struct.TfLiteIntArray* %132, i64 0, i32 1, i64 14
  %134 = load i32, i32* %133, align 4
  %135 = icmp slt i32 %134, 0
  br i1 %135, label %140, label %136

136:                                              ; preds = %131
  %137 = load %struct.TfLiteTensor*, %struct.TfLiteTensor** %20, align 8
  %138 = sext i32 %134 to i64
  %139 = getelementptr inbounds %struct.TfLiteTensor, %struct.TfLiteTensor* %137, i64 %138
  br label %140

140:                                              ; preds = %136, %131, %130
  %141 = phi %struct.TfLiteTensor* [ null, %130 ], [ %139, %136 ], [ null, %131 ]
  %142 = getelementptr inbounds %"struct.tflite::ops::builtin::lstm::OpData", %"struct.tflite::ops::builtin::lstm::OpData"* %1, i64 0, i32 5, i32 44
  %143 = tail call i32 @_ZN6tflite3ops7builtin4lstm4full38PrecomputeZeroPointTimesWeightWithBiasEP13TfLiteContextiPK12TfLiteTensorS8_PNSt3__110unique_ptrIA_iNS9_14default_deleteISB_EEEE(%struct.TfLiteContext* %0, i32 %35, %struct.TfLiteTensor* %56, %struct.TfLiteTensor* %141, %"class.std::__1::unique_ptr"* %142)
  %144 = icmp eq i32 %143, 0
  br i1 %144, label %145, label %190

145:                                              ; preds = %140
  %146 = getelementptr inbounds %"struct.tflite::ops::builtin::lstm::OpData", %"struct.tflite::ops::builtin::lstm::OpData"* %1, i64 0, i32 5, i32 45
  %147 = tail call i32 @_ZN6tflite3ops7builtin4lstm4full38PrecomputeZeroPointTimesWeightWithBiasEP13TfLiteContextiPK12TfLiteTensorS8_PNSt3__110unique_ptrIA_iNS9_14default_deleteISB_EEEE(%struct.TfLiteContext* %0, i32 %38, %struct.TfLiteTensor* %80, %struct.TfLiteTensor* null, %"class.std::__1::unique_ptr"* %146)
  %148 = icmp eq i32 %147, 0
  br i1 %148, label %149, label %190

149:                                              ; preds = %145
  br i1 %113, label %159, label %150

150:                                              ; preds = %149
  %151 = load %struct.TfLiteIntArray*, %struct.TfLiteIntArray** %4, align 8
  %152 = getelementptr inbounds %struct.TfLiteIntArray, %struct.TfLiteIntArray* %151, i64 0, i32 1, i64 15
  %153 = load i32, i32* %152, align 4
  %154 = icmp slt i32 %153, 0
  br i1 %154, label %159, label %155

155:                                              ; preds = %150
  %156 = load %struct.TfLiteTensor*, %struct.TfLiteTensor** %20, align 8
  %157 = sext i32 %153 to i64
  %158 = getelementptr inbounds %struct.TfLiteTensor, %struct.TfLiteTensor* %156, i64 %157
  br label %159

159:                                              ; preds = %155, %150, %149
  %160 = phi %struct.TfLiteTensor* [ null, %149 ], [ %158, %155 ], [ null, %150 ]
  %161 = getelementptr inbounds %"struct.tflite::ops::builtin::lstm::OpData", %"struct.tflite::ops::builtin::lstm::OpData"* %1, i64 0, i32 5, i32 46
  %162 = tail call i32 @_ZN6tflite3ops7builtin4lstm4full38PrecomputeZeroPointTimesWeightWithBiasEP13TfLiteContextiPK12TfLiteTensorS8_PNSt3__110unique_ptrIA_iNS9_14default_deleteISB_EEEE(%struct.TfLiteContext* %0, i32 %35, %struct.TfLiteTensor* %62, %struct.TfLiteTensor* %160, %"class.std::__1::unique_ptr"* %161)
  %163 = icmp eq i32 %162, 0
  br i1 %163, label %164, label %190

164:                                              ; preds = %159
  %165 = getelementptr inbounds %"struct.tflite::ops::builtin::lstm::OpData", %"struct.tflite::ops::builtin::lstm::OpData"* %1, i64 0, i32 5, i32 47
  %166 = tail call i32 @_ZN6tflite3ops7builtin4lstm4full38PrecomputeZeroPointTimesWeightWithBiasEP13TfLiteContextiPK12TfLiteTensorS8_PNSt3__110unique_ptrIA_iNS9_14default_deleteISB_EEEE(%struct.TfLiteContext* %0, i32 %38, %struct.TfLiteTensor* %86, %struct.TfLiteTensor* null, %"class.std::__1::unique_ptr"* %165)
  %167 = icmp eq i32 %166, 0
  br i1 %167, label %168, label %190

168:                                              ; preds = %164
  br i1 %113, label %178, label %169

169:                                              ; preds = %168
  %170 = load %struct.TfLiteIntArray*, %struct.TfLiteIntArray** %4, align 8
  %171 = getelementptr inbounds %struct.TfLiteIntArray, %struct.TfLiteIntArray* %170, i64 0, i32 1, i64 12
  %172 = load i32, i32* %171, align 4
  %173 = icmp slt i32 %172, 0
  br i1 %173, label %178, label %174

174:                                              ; preds = %169
  %175 = load %struct.TfLiteTensor*, %struct.TfLiteTensor** %20, align 8
  %176 = sext i32 %172 to i64
  %177 = getelementptr inbounds %struct.TfLiteTensor, %struct.TfLiteTensor* %175, i64 %176
  br label %178

178:                                              ; preds = %174, %169, %168
  %179 = phi %struct.TfLiteTensor* [ null, %168 ], [ %177, %174 ], [ null, %169 ]
  %180 = getelementptr inbounds %"struct.tflite::ops::builtin::lstm::OpData", %"struct.tflite::ops::builtin::lstm::OpData"* %1, i64 0, i32 5, i32 48
  %181 = tail call i32 @_ZN6tflite3ops7builtin4lstm4full38PrecomputeZeroPointTimesWeightWithBiasEP13TfLiteContextiPK12TfLiteTensorS8_PNSt3__110unique_ptrIA_iNS9_14default_deleteISB_EEEE(%struct.TfLiteContext* %0, i32 %35, %struct.TfLiteTensor* %44, %struct.TfLiteTensor* %179, %"class.std::__1::unique_ptr"* %180)
  %182 = icmp eq i32 %181, 0
  br i1 %182, label %183, label %190

183:                                              ; preds = %178
  %184 = getelementptr inbounds %"struct.tflite::ops::builtin::lstm::OpData", %"struct.tflite::ops::builtin::lstm::OpData"* %1, i64 0, i32 5, i32 49
  %185 = tail call i32 @_ZN6tflite3ops7builtin4lstm4full38PrecomputeZeroPointTimesWeightWithBiasEP13TfLiteContextiPK12TfLiteTensorS8_PNSt3__110unique_ptrIA_iNS9_14default_deleteISB_EEEE(%struct.TfLiteContext* %0, i32 %38, %struct.TfLiteTensor* %68, %struct.TfLiteTensor* null, %"class.std::__1::unique_ptr"* %184)
  %186 = icmp eq i32 %185, 0
  br i1 %186, label %187, label %190

187:                                              ; preds = %183
  %188 = getelementptr inbounds %"struct.tflite::ops::builtin::lstm::OpData", %"struct.tflite::ops::builtin::lstm::OpData"* %1, i64 0, i32 5, i32 50
  %189 = tail call i32 @_ZN6tflite3ops7builtin4lstm4full38PrecomputeZeroPointTimesWeightWithBiasEP13TfLiteContextiPK12TfLiteTensorS8_PNSt3__110unique_ptrIA_iNS9_14default_deleteISB_EEEE(%struct.TfLiteContext* %0, i32 %110, %struct.TfLiteTensor* %92, %struct.TfLiteTensor* %98, %"class.std::__1::unique_ptr"* %188)
  ret i32 %189

190:                                              ; preds = %121, %126, %159, %164, %183, %178, %145, %140, %29
  %191 = phi i32 [ 1, %29 ], [ %128, %126 ], [ %124, %121 ], [ %147, %145 ], [ %143, %140 ], [ %166, %164 ], [ %162, %159 ], [ %185, %183 ], [ %181, %178 ]
  ret i32 %191
}

; Function Attrs: nounwind ssp uwtable
define hidden i32 @_ZN6tflite3ops7builtin4lstm4full7PrepareEP13TfLiteContextP10TfLiteNode(%struct.TfLiteContext*, %struct.TfLiteNode*) local_unnamed_addr #1 {
  %3 = alloca %"class.std::__1::vector.25", align 8
  %4 = alloca %"class.std::__1::vector.32", align 8
  %5 = alloca i32, align 4
  %6 = alloca %"class.std::__1::vector.25", align 8
  %7 = alloca [1 x i32], align 4
  %8 = alloca [1 x i32], align 4
  %9 = alloca [2 x i32], align 4
  %10 = alloca [1 x i32], align 4
  %11 = alloca [2 x i32], align 4
  %12 = alloca [2 x i32], align 4
  %13 = alloca [2 x i32], align 4
  %14 = getelementptr inbounds %struct.TfLiteNode, %struct.TfLiteNode* %1, i64 0, i32 4
  %15 = bitcast i8** %14 to %"struct.tflite::ops::builtin::lstm::OpData"**
  %16 = load %"struct.tflite::ops::builtin::lstm::OpData"*, %"struct.tflite::ops::builtin::lstm::OpData"** %15, align 8
  %17 = getelementptr inbounds %struct.TfLiteNode, %struct.TfLiteNode* %1, i64 0, i32 1
  %18 = load %struct.TfLiteIntArray*, %struct.TfLiteIntArray** %17, align 8
  %19 = getelementptr inbounds %struct.TfLiteIntArray, %struct.TfLiteIntArray* %18, i64 0, i32 0
  %20 = load i32, i32* %19, align 4
  %21 = icmp eq i32 %20, 1
  br i1 %21, label %25, label %22

22:                                               ; preds = %2
  %23 = getelementptr inbounds %struct.TfLiteContext, %struct.TfLiteContext* %0, i64 0, i32 5
  %24 = load void (%struct.TfLiteContext*, i8*, ...)*, void (%struct.TfLiteContext*, i8*, ...)** %23, align 8
  tail call void (%struct.TfLiteContext*, i8*, ...) %24(%struct.TfLiteContext* %0, i8* getelementptr inbounds ([26 x i8], [26 x i8]* @.str.6, i64 0, i64 0), i8* getelementptr inbounds ([61 x i8], [61 x i8]* @.str.3, i64 0, i64 0), i32 1145, i8* getelementptr inbounds ([20 x i8], [20 x i8]* @.str.94, i64 0, i64 0), i8* getelementptr inbounds ([2 x i8], [2 x i8]* @.str.39, i64 0, i64 0), i32 %20, i32 1) #18
  br label %2453

25:                                               ; preds = %2
  %26 = getelementptr inbounds %struct.TfLiteNode, %struct.TfLiteNode* %1, i64 0, i32 0
  %27 = load %struct.TfLiteIntArray*, %struct.TfLiteIntArray** %26, align 8
  %28 = getelementptr inbounds %struct.TfLiteIntArray, %struct.TfLiteIntArray* %27, i64 0, i32 0
  %29 = load i32, i32* %28, align 4
  switch i32 %29, label %46 [
    i32 24, label %30
    i32 20, label %44
  ]

30:                                               ; preds = %25
  %31 = getelementptr inbounds %struct.TfLiteIntArray, %struct.TfLiteIntArray* %27, i64 0, i32 1, i64 21
  %32 = load i32, i32* %31, align 4
  %33 = icmp slt i32 %32, 0
  br i1 %33, label %39, label %34

34:                                               ; preds = %30
  %35 = getelementptr inbounds %struct.TfLiteContext, %struct.TfLiteContext* %0, i64 0, i32 2
  %36 = load %struct.TfLiteTensor*, %struct.TfLiteTensor** %35, align 8
  %37 = sext i32 %32 to i64
  %38 = getelementptr inbounds %struct.TfLiteTensor, %struct.TfLiteTensor* %36, i64 %37
  br label %39

39:                                               ; preds = %30, %34
  %40 = phi %struct.TfLiteTensor* [ %38, %34 ], [ null, %30 ]
  %41 = icmp ne %struct.TfLiteTensor* %40, null
  %42 = getelementptr inbounds %"struct.tflite::ops::builtin::lstm::OpData", %"struct.tflite::ops::builtin::lstm::OpData"* %16, i64 0, i32 1
  %43 = zext i1 %41 to i8
  store i8 %43, i8* %42, align 4
  br label %49

44:                                               ; preds = %25
  %45 = getelementptr inbounds %"struct.tflite::ops::builtin::lstm::OpData", %"struct.tflite::ops::builtin::lstm::OpData"* %16, i64 0, i32 1
  store i8 0, i8* %45, align 4
  br label %49

46:                                               ; preds = %25
  %47 = getelementptr inbounds %struct.TfLiteContext, %struct.TfLiteContext* %0, i64 0, i32 5
  %48 = load void (%struct.TfLiteContext*, i8*, ...)*, void (%struct.TfLiteContext*, i8*, ...)** %47, align 8
  tail call void (%struct.TfLiteContext*, i8*, ...) %48(%struct.TfLiteContext* %0, i8* getelementptr inbounds ([60 x i8], [60 x i8]* @.str.95, i64 0, i64 0), i32 %29) #18
  br label %2453

49:                                               ; preds = %44, %39
  %50 = phi i8 [ 0, %44 ], [ %43, %39 ]
  %51 = icmp ne i8 %50, 0
  %52 = load %struct.TfLiteIntArray*, %struct.TfLiteIntArray** %26, align 8
  %53 = getelementptr inbounds %struct.TfLiteIntArray, %struct.TfLiteIntArray* %52, i64 0, i32 1, i64 0
  %54 = load i32, i32* %53, align 4
  %55 = icmp slt i32 %54, 0
  br i1 %55, label %61, label %56

56:                                               ; preds = %49
  %57 = getelementptr inbounds %struct.TfLiteContext, %struct.TfLiteContext* %0, i64 0, i32 2
  %58 = load %struct.TfLiteTensor*, %struct.TfLiteTensor** %57, align 8
  %59 = sext i32 %54 to i64
  %60 = getelementptr inbounds %struct.TfLiteTensor, %struct.TfLiteTensor* %58, i64 %59
  br label %61

61:                                               ; preds = %49, %56
  %62 = phi %struct.TfLiteTensor* [ %60, %56 ], [ null, %49 ]
  %63 = getelementptr inbounds %struct.TfLiteTensor, %struct.TfLiteTensor* %62, i64 0, i32 0
  %64 = load i32, i32* %63, align 8
  %65 = icmp eq i32 %64, 9
  %66 = getelementptr inbounds %struct.TfLiteTensor, %struct.TfLiteTensor* %62, i64 0, i32 2
  %67 = load %struct.TfLiteIntArray*, %struct.TfLiteIntArray** %66, align 8
  %68 = getelementptr inbounds %struct.TfLiteIntArray, %struct.TfLiteIntArray* %67, i64 0, i32 0
  %69 = load i32, i32* %68, align 4
  %70 = icmp sgt i32 %69, 1
  br i1 %70, label %74, label %71

71:                                               ; preds = %61
  %72 = getelementptr inbounds %struct.TfLiteContext, %struct.TfLiteContext* %0, i64 0, i32 5
  %73 = load void (%struct.TfLiteContext*, i8*, ...)*, void (%struct.TfLiteContext*, i8*, ...)** %72, align 8
  tail call void (%struct.TfLiteContext*, i8*, ...) %73(%struct.TfLiteContext* %0, i8* getelementptr inbounds ([23 x i8], [23 x i8]* @.str, i64 0, i64 0), i8* getelementptr inbounds ([61 x i8], [61 x i8]* @.str.3, i64 0, i64 0), i32 1177, i8* getelementptr inbounds ([22 x i8], [22 x i8]* @.str.96, i64 0, i64 0)) #18
  br label %2453

74:                                               ; preds = %61
  %75 = getelementptr inbounds %struct.TfLiteIntArray, %struct.TfLiteIntArray* %67, i64 0, i32 1, i64 0
  %76 = load i32, i32* %75, align 4
  %77 = getelementptr inbounds %struct.TfLiteIntArray, %struct.TfLiteIntArray* %67, i64 0, i32 1, i64 1
  %78 = load i32, i32* %77, align 4
  %79 = getelementptr inbounds %struct.TfLiteIntArray, %struct.TfLiteIntArray* %52, i64 0, i32 1, i64 4
  %80 = load i32, i32* %79, align 4
  %81 = icmp slt i32 %80, 0
  br i1 %81, label %87, label %82

82:                                               ; preds = %74
  %83 = getelementptr inbounds %struct.TfLiteContext, %struct.TfLiteContext* %0, i64 0, i32 2
  %84 = load %struct.TfLiteTensor*, %struct.TfLiteTensor** %83, align 8
  %85 = sext i32 %80 to i64
  %86 = getelementptr inbounds %struct.TfLiteTensor, %struct.TfLiteTensor* %84, i64 %85
  br label %87

87:                                               ; preds = %74, %82
  %88 = phi %struct.TfLiteTensor* [ %86, %82 ], [ null, %74 ]
  %89 = getelementptr inbounds %struct.TfLiteTensor, %struct.TfLiteTensor* %88, i64 0, i32 2
  %90 = load %struct.TfLiteIntArray*, %struct.TfLiteIntArray** %89, align 8
  %91 = getelementptr inbounds %struct.TfLiteIntArray, %struct.TfLiteIntArray* %90, i64 0, i32 1, i64 0
  %92 = load i32, i32* %91, align 4
  %93 = getelementptr inbounds %struct.TfLiteIntArray, %struct.TfLiteIntArray* %90, i64 0, i32 0
  %94 = load i32, i32* %93, align 4
  %95 = icmp eq i32 %94, 2
  br i1 %95, label %99, label %96

96:                                               ; preds = %87
  %97 = getelementptr inbounds %struct.TfLiteContext, %struct.TfLiteContext* %0, i64 0, i32 5
  %98 = load void (%struct.TfLiteContext*, i8*, ...)*, void (%struct.TfLiteContext*, i8*, ...)** %97, align 8
  tail call void (%struct.TfLiteContext*, i8*, ...) %98(%struct.TfLiteContext* %0, i8* getelementptr inbounds ([26 x i8], [26 x i8]* @.str.6, i64 0, i64 0), i8* getelementptr inbounds ([61 x i8], [61 x i8]* @.str.3, i64 0, i64 0), i32 1184, i8* getelementptr inbounds ([36 x i8], [36 x i8]* @.str.97, i64 0, i64 0), i8* getelementptr inbounds ([2 x i8], [2 x i8]* @.str.8, i64 0, i64 0), i32 %94, i32 2) #18
  br label %2453

99:                                               ; preds = %87
  %100 = getelementptr inbounds %struct.TfLiteIntArray, %struct.TfLiteIntArray* %90, i64 0, i32 1, i64 1
  %101 = load i32, i32* %100, align 4
  %102 = icmp eq i32 %101, %78
  br i1 %102, label %106, label %103

103:                                              ; preds = %99
  %104 = getelementptr inbounds %struct.TfLiteContext, %struct.TfLiteContext* %0, i64 0, i32 5
  %105 = load void (%struct.TfLiteContext*, i8*, ...)*, void (%struct.TfLiteContext*, i8*, ...)** %104, align 8
  tail call void (%struct.TfLiteContext*, i8*, ...) %105(%struct.TfLiteContext* %0, i8* getelementptr inbounds ([26 x i8], [26 x i8]* @.str.6, i64 0, i64 0), i8* getelementptr inbounds ([61 x i8], [61 x i8]* @.str.3, i64 0, i64 0), i32 1185, i8* getelementptr inbounds ([39 x i8], [39 x i8]* @.str.98, i64 0, i64 0), i8* getelementptr inbounds ([8 x i8], [8 x i8]* @.str.12, i64 0, i64 0), i32 %101, i32 %78) #18
  br label %2453

106:                                              ; preds = %99
  %107 = getelementptr inbounds %struct.TfLiteIntArray, %struct.TfLiteIntArray* %52, i64 0, i32 1, i64 8
  %108 = load i32, i32* %107, align 4
  %109 = icmp slt i32 %108, 0
  br i1 %109, label %115, label %110

110:                                              ; preds = %106
  %111 = getelementptr inbounds %struct.TfLiteContext, %struct.TfLiteContext* %0, i64 0, i32 2
  %112 = load %struct.TfLiteTensor*, %struct.TfLiteTensor** %111, align 8
  %113 = sext i32 %108 to i64
  %114 = getelementptr inbounds %struct.TfLiteTensor, %struct.TfLiteTensor* %112, i64 %113
  br label %115

115:                                              ; preds = %106, %110
  %116 = phi %struct.TfLiteTensor* [ %114, %110 ], [ null, %106 ]
  %117 = getelementptr inbounds %struct.TfLiteTensor, %struct.TfLiteTensor* %116, i64 0, i32 2
  %118 = load %struct.TfLiteIntArray*, %struct.TfLiteIntArray** %117, align 8
  %119 = getelementptr inbounds %struct.TfLiteIntArray, %struct.TfLiteIntArray* %118, i64 0, i32 0
  %120 = load i32, i32* %119, align 4
  %121 = icmp eq i32 %120, 2
  br i1 %121, label %125, label %122

122:                                              ; preds = %115
  %123 = getelementptr inbounds %struct.TfLiteContext, %struct.TfLiteContext* %0, i64 0, i32 5
  %124 = load void (%struct.TfLiteContext*, i8*, ...)*, void (%struct.TfLiteContext*, i8*, ...)** %123, align 8
  tail call void (%struct.TfLiteContext*, i8*, ...) %124(%struct.TfLiteContext* %0, i8* getelementptr inbounds ([26 x i8], [26 x i8]* @.str.6, i64 0, i64 0), i8* getelementptr inbounds ([61 x i8], [61 x i8]* @.str.3, i64 0, i64 0), i32 1189, i8* getelementptr inbounds ([40 x i8], [40 x i8]* @.str.99, i64 0, i64 0), i8* getelementptr inbounds ([2 x i8], [2 x i8]* @.str.8, i64 0, i64 0), i32 %120, i32 2) #18
  br label %2453

125:                                              ; preds = %115
  %126 = getelementptr inbounds %struct.TfLiteIntArray, %struct.TfLiteIntArray* %118, i64 0, i32 1, i64 0
  %127 = load i32, i32* %126, align 4
  %128 = icmp eq i32 %127, %92
  br i1 %128, label %132, label %129

129:                                              ; preds = %125
  %130 = getelementptr inbounds %struct.TfLiteContext, %struct.TfLiteContext* %0, i64 0, i32 5
  %131 = load void (%struct.TfLiteContext*, i8*, ...)*, void (%struct.TfLiteContext*, i8*, ...)** %130, align 8
  tail call void (%struct.TfLiteContext*, i8*, ...) %131(%struct.TfLiteContext* %0, i8* getelementptr inbounds ([26 x i8], [26 x i8]* @.str.6, i64 0, i64 0), i8* getelementptr inbounds ([61 x i8], [61 x i8]* @.str.3, i64 0, i64 0), i32 1191, i8* getelementptr inbounds ([43 x i8], [43 x i8]* @.str.100, i64 0, i64 0), i8* getelementptr inbounds ([7 x i8], [7 x i8]* @.str.10, i64 0, i64 0), i32 %127, i32 %92) #18
  br label %2453

132:                                              ; preds = %125
  %133 = getelementptr inbounds %struct.TfLiteIntArray, %struct.TfLiteIntArray* %118, i64 0, i32 1, i64 1
  %134 = load i32, i32* %133, align 4
  %135 = tail call i32 @_ZN6tflite3ops7builtin4lstm4full26CheckInputTensorDimensionsEP13TfLiteContextP10TfLiteNodeiiibb(%struct.TfLiteContext* %0, %struct.TfLiteNode* %1, i32 %78, i32 %134, i32 %92, i1 zeroext %51, i1 zeroext %65)
  %136 = icmp eq i32 %135, 0
  br i1 %136, label %137, label %2453

137:                                              ; preds = %132
  %138 = load %struct.TfLiteIntArray*, %struct.TfLiteIntArray** %17, align 8
  %139 = getelementptr inbounds %struct.TfLiteIntArray, %struct.TfLiteIntArray* %138, i64 0, i32 1, i64 0
  %140 = load i32, i32* %139, align 4
  %141 = icmp slt i32 %140, 0
  br i1 %141, label %147, label %142

142:                                              ; preds = %137
  %143 = getelementptr inbounds %struct.TfLiteContext, %struct.TfLiteContext* %0, i64 0, i32 2
  %144 = load %struct.TfLiteTensor*, %struct.TfLiteTensor** %143, align 8
  %145 = sext i32 %140 to i64
  %146 = getelementptr inbounds %struct.TfLiteTensor, %struct.TfLiteTensor* %144, i64 %145
  br label %147

147:                                              ; preds = %137, %142
  %148 = phi %struct.TfLiteTensor* [ %146, %142 ], [ null, %137 ]
  %149 = load %struct.TfLiteIntArray*, %struct.TfLiteIntArray** %26, align 8
  %150 = getelementptr inbounds %struct.TfLiteIntArray, %struct.TfLiteIntArray* %149, i64 0, i32 1, i64 18
  %151 = load i32, i32* %150, align 4
  %152 = icmp slt i32 %151, 0
  br i1 %152, label %163, label %153

153:                                              ; preds = %147
  %154 = getelementptr inbounds %struct.TfLiteContext, %struct.TfLiteContext* %0, i64 0, i32 2
  %155 = load %struct.TfLiteTensor*, %struct.TfLiteTensor** %154, align 8
  %156 = sext i32 %151 to i64
  %157 = getelementptr inbounds %struct.TfLiteTensor, %struct.TfLiteTensor* %155, i64 %156
  %158 = getelementptr inbounds %struct.TfLiteTensor, %struct.TfLiteTensor* %155, i64 %156, i32 11
  %159 = load i8, i8* %158, align 1, !range !5
  %160 = icmp eq i8 %159, 0
  %161 = icmp eq %struct.TfLiteTensor* %157, null
  %162 = or i1 %160, %161
  br i1 %162, label %163, label %166

163:                                              ; preds = %153, %147
  %164 = getelementptr inbounds %struct.TfLiteContext, %struct.TfLiteContext* %0, i64 0, i32 5
  %165 = load void (%struct.TfLiteContext*, i8*, ...)*, void (%struct.TfLiteContext*, i8*, ...)** %164, align 8
  tail call void (%struct.TfLiteContext*, i8*, ...) %165(%struct.TfLiteContext* %0, i8* getelementptr inbounds ([23 x i8], [23 x i8]* @.str, i64 0, i64 0), i8* getelementptr inbounds ([61 x i8], [61 x i8]* @.str.3, i64 0, i64 0), i32 1204, i8* getelementptr inbounds ([24 x i8], [24 x i8]* @.str.93, i64 0, i64 0)) #18
  br label %2453

166:                                              ; preds = %153
  %167 = getelementptr inbounds %struct.TfLiteIntArray, %struct.TfLiteIntArray* %149, i64 0, i32 1, i64 19
  %168 = load i32, i32* %167, align 4
  %169 = icmp slt i32 %168, 0
  br i1 %169, label %178, label %170

170:                                              ; preds = %166
  %171 = sext i32 %168 to i64
  %172 = getelementptr inbounds %struct.TfLiteTensor, %struct.TfLiteTensor* %155, i64 %171
  %173 = getelementptr inbounds %struct.TfLiteTensor, %struct.TfLiteTensor* %155, i64 %171, i32 11
  %174 = load i8, i8* %173, align 1, !range !5
  %175 = icmp eq i8 %174, 0
  %176 = icmp eq %struct.TfLiteTensor* %172, null
  %177 = or i1 %175, %176
  br i1 %177, label %178, label %181

178:                                              ; preds = %170, %166
  %179 = getelementptr inbounds %struct.TfLiteContext, %struct.TfLiteContext* %0, i64 0, i32 5
  %180 = load void (%struct.TfLiteContext*, i8*, ...)*, void (%struct.TfLiteContext*, i8*, ...)** %179, align 8
  tail call void (%struct.TfLiteContext*, i8*, ...) %180(%struct.TfLiteContext* %0, i8* getelementptr inbounds ([23 x i8], [23 x i8]* @.str, i64 0, i64 0), i8* getelementptr inbounds ([61 x i8], [61 x i8]* @.str.3, i64 0, i64 0), i32 1206, i8* getelementptr inbounds ([22 x i8], [22 x i8]* @.str.101, i64 0, i64 0)) #18
  br label %2453

181:                                              ; preds = %170
  %182 = getelementptr inbounds %struct.TfLiteTensor, %struct.TfLiteTensor* %155, i64 %156, i32 2
  %183 = load %struct.TfLiteIntArray*, %struct.TfLiteIntArray** %182, align 8
  %184 = getelementptr inbounds %struct.TfLiteIntArray, %struct.TfLiteIntArray* %183, i64 0, i32 0
  %185 = load i32, i32* %184, align 4
  %186 = icmp sgt i32 %185, 0
  br i1 %186, label %187, label %256

187:                                              ; preds = %181
  %188 = sext i32 %185 to i64
  %189 = add nsw i64 %188, -1
  %190 = and i64 %188, 7
  %191 = icmp ult i64 %189, 7
  br i1 %191, label %240, label %192

192:                                              ; preds = %187
  %193 = sub nsw i64 %188, %190
  br label %194

194:                                              ; preds = %194, %192
  %195 = phi i64 [ 0, %192 ], [ %237, %194 ]
  %196 = phi i64 [ 1, %192 ], [ %236, %194 ]
  %197 = phi i64 [ %193, %192 ], [ %238, %194 ]
  %198 = getelementptr inbounds %struct.TfLiteIntArray, %struct.TfLiteIntArray* %183, i64 0, i32 1, i64 %195
  %199 = load i32, i32* %198, align 4
  %200 = sext i32 %199 to i64
  %201 = mul nsw i64 %196, %200
  %202 = or i64 %195, 1
  %203 = getelementptr inbounds %struct.TfLiteIntArray, %struct.TfLiteIntArray* %183, i64 0, i32 1, i64 %202
  %204 = load i32, i32* %203, align 4
  %205 = sext i32 %204 to i64
  %206 = mul nsw i64 %201, %205
  %207 = or i64 %195, 2
  %208 = getelementptr inbounds %struct.TfLiteIntArray, %struct.TfLiteIntArray* %183, i64 0, i32 1, i64 %207
  %209 = load i32, i32* %208, align 4
  %210 = sext i32 %209 to i64
  %211 = mul nsw i64 %206, %210
  %212 = or i64 %195, 3
  %213 = getelementptr inbounds %struct.TfLiteIntArray, %struct.TfLiteIntArray* %183, i64 0, i32 1, i64 %212
  %214 = load i32, i32* %213, align 4
  %215 = sext i32 %214 to i64
  %216 = mul nsw i64 %211, %215
  %217 = or i64 %195, 4
  %218 = getelementptr inbounds %struct.TfLiteIntArray, %struct.TfLiteIntArray* %183, i64 0, i32 1, i64 %217
  %219 = load i32, i32* %218, align 4
  %220 = sext i32 %219 to i64
  %221 = mul nsw i64 %216, %220
  %222 = or i64 %195, 5
  %223 = getelementptr inbounds %struct.TfLiteIntArray, %struct.TfLiteIntArray* %183, i64 0, i32 1, i64 %222
  %224 = load i32, i32* %223, align 4
  %225 = sext i32 %224 to i64
  %226 = mul nsw i64 %221, %225
  %227 = or i64 %195, 6
  %228 = getelementptr inbounds %struct.TfLiteIntArray, %struct.TfLiteIntArray* %183, i64 0, i32 1, i64 %227
  %229 = load i32, i32* %228, align 4
  %230 = sext i32 %229 to i64
  %231 = mul nsw i64 %226, %230
  %232 = or i64 %195, 7
  %233 = getelementptr inbounds %struct.TfLiteIntArray, %struct.TfLiteIntArray* %183, i64 0, i32 1, i64 %232
  %234 = load i32, i32* %233, align 4
  %235 = sext i32 %234 to i64
  %236 = mul nsw i64 %231, %235
  %237 = add nuw nsw i64 %195, 8
  %238 = add i64 %197, -8
  %239 = icmp eq i64 %238, 0
  br i1 %239, label %240, label %194

240:                                              ; preds = %194, %187
  %241 = phi i64 [ undef, %187 ], [ %236, %194 ]
  %242 = phi i64 [ 0, %187 ], [ %237, %194 ]
  %243 = phi i64 [ 1, %187 ], [ %236, %194 ]
  %244 = icmp eq i64 %190, 0
  br i1 %244, label %256, label %245

245:                                              ; preds = %240, %245
  %246 = phi i64 [ %253, %245 ], [ %242, %240 ]
  %247 = phi i64 [ %252, %245 ], [ %243, %240 ]
  %248 = phi i64 [ %254, %245 ], [ %190, %240 ]
  %249 = getelementptr inbounds %struct.TfLiteIntArray, %struct.TfLiteIntArray* %183, i64 0, i32 1, i64 %246
  %250 = load i32, i32* %249, align 4
  %251 = sext i32 %250 to i64
  %252 = mul nsw i64 %247, %251
  %253 = add nuw nsw i64 %246, 1
  %254 = add i64 %248, -1
  %255 = icmp eq i64 %254, 0
  br i1 %255, label %256, label %245, !llvm.loop !6

256:                                              ; preds = %240, %245, %181
  %257 = phi i64 [ 1, %181 ], [ %241, %240 ], [ %252, %245 ]
  %258 = mul nsw i32 %134, %76
  %259 = sext i32 %258 to i64
  %260 = icmp eq i64 %257, %259
  br i1 %260, label %335, label %261

261:                                              ; preds = %256
  %262 = getelementptr inbounds %struct.TfLiteContext, %struct.TfLiteContext* %0, i64 0, i32 5
  %263 = load void (%struct.TfLiteContext*, i8*, ...)*, void (%struct.TfLiteContext*, i8*, ...)** %262, align 8
  br i1 %186, label %264, label %333

264:                                              ; preds = %261
  %265 = sext i32 %185 to i64
  %266 = add nsw i64 %265, -1
  %267 = and i64 %265, 7
  %268 = icmp ult i64 %266, 7
  br i1 %268, label %317, label %269

269:                                              ; preds = %264
  %270 = sub nsw i64 %265, %267
  br label %271

271:                                              ; preds = %271, %269
  %272 = phi i64 [ 0, %269 ], [ %314, %271 ]
  %273 = phi i64 [ 1, %269 ], [ %313, %271 ]
  %274 = phi i64 [ %270, %269 ], [ %315, %271 ]
  %275 = getelementptr inbounds %struct.TfLiteIntArray, %struct.TfLiteIntArray* %183, i64 0, i32 1, i64 %272
  %276 = load i32, i32* %275, align 4
  %277 = sext i32 %276 to i64
  %278 = mul nsw i64 %273, %277
  %279 = or i64 %272, 1
  %280 = getelementptr inbounds %struct.TfLiteIntArray, %struct.TfLiteIntArray* %183, i64 0, i32 1, i64 %279
  %281 = load i32, i32* %280, align 4
  %282 = sext i32 %281 to i64
  %283 = mul nsw i64 %278, %282
  %284 = or i64 %272, 2
  %285 = getelementptr inbounds %struct.TfLiteIntArray, %struct.TfLiteIntArray* %183, i64 0, i32 1, i64 %284
  %286 = load i32, i32* %285, align 4
  %287 = sext i32 %286 to i64
  %288 = mul nsw i64 %283, %287
  %289 = or i64 %272, 3
  %290 = getelementptr inbounds %struct.TfLiteIntArray, %struct.TfLiteIntArray* %183, i64 0, i32 1, i64 %289
  %291 = load i32, i32* %290, align 4
  %292 = sext i32 %291 to i64
  %293 = mul nsw i64 %288, %292
  %294 = or i64 %272, 4
  %295 = getelementptr inbounds %struct.TfLiteIntArray, %struct.TfLiteIntArray* %183, i64 0, i32 1, i64 %294
  %296 = load i32, i32* %295, align 4
  %297 = sext i32 %296 to i64
  %298 = mul nsw i64 %293, %297
  %299 = or i64 %272, 5
  %300 = getelementptr inbounds %struct.TfLiteIntArray, %struct.TfLiteIntArray* %183, i64 0, i32 1, i64 %299
  %301 = load i32, i32* %300, align 4
  %302 = sext i32 %301 to i64
  %303 = mul nsw i64 %298, %302
  %304 = or i64 %272, 6
  %305 = getelementptr inbounds %struct.TfLiteIntArray, %struct.TfLiteIntArray* %183, i64 0, i32 1, i64 %304
  %306 = load i32, i32* %305, align 4
  %307 = sext i32 %306 to i64
  %308 = mul nsw i64 %303, %307
  %309 = or i64 %272, 7
  %310 = getelementptr inbounds %struct.TfLiteIntArray, %struct.TfLiteIntArray* %183, i64 0, i32 1, i64 %309
  %311 = load i32, i32* %310, align 4
  %312 = sext i32 %311 to i64
  %313 = mul nsw i64 %308, %312
  %314 = add nuw nsw i64 %272, 8
  %315 = add i64 %274, -8
  %316 = icmp eq i64 %315, 0
  br i1 %316, label %317, label %271

317:                                              ; preds = %271, %264
  %318 = phi i64 [ undef, %264 ], [ %313, %271 ]
  %319 = phi i64 [ 0, %264 ], [ %314, %271 ]
  %320 = phi i64 [ 1, %264 ], [ %313, %271 ]
  %321 = icmp eq i64 %267, 0
  br i1 %321, label %333, label %322

322:                                              ; preds = %317, %322
  %323 = phi i64 [ %330, %322 ], [ %319, %317 ]
  %324 = phi i64 [ %329, %322 ], [ %320, %317 ]
  %325 = phi i64 [ %331, %322 ], [ %267, %317 ]
  %326 = getelementptr inbounds %struct.TfLiteIntArray, %struct.TfLiteIntArray* %183, i64 0, i32 1, i64 %323
  %327 = load i32, i32* %326, align 4
  %328 = sext i32 %327 to i64
  %329 = mul nsw i64 %324, %328
  %330 = add nuw nsw i64 %323, 1
  %331 = add i64 %325, -1
  %332 = icmp eq i64 %331, 0
  br i1 %332, label %333, label %322, !llvm.loop !8

333:                                              ; preds = %317, %322, %261
  %334 = phi i64 [ 1, %261 ], [ %318, %317 ], [ %329, %322 ]
  tail call void (%struct.TfLiteContext*, i8*, ...) %263(%struct.TfLiteContext* %0, i8* getelementptr inbounds ([26 x i8], [26 x i8]* @.str.6, i64 0, i64 0), i8* getelementptr inbounds ([61 x i8], [61 x i8]* @.str.3, i64 0, i64 0), i32 1211, i8* getelementptr inbounds ([26 x i8], [26 x i8]* @.str.102, i64 0, i64 0), i8* getelementptr inbounds ([19 x i8], [19 x i8]* @.str.103, i64 0, i64 0), i64 %334, i32 %258) #18
  br label %2453

335:                                              ; preds = %256
  %336 = getelementptr inbounds %struct.TfLiteTensor, %struct.TfLiteTensor* %155, i64 %171, i32 2
  %337 = load %struct.TfLiteIntArray*, %struct.TfLiteIntArray** %336, align 8
  %338 = getelementptr inbounds %struct.TfLiteIntArray, %struct.TfLiteIntArray* %337, i64 0, i32 0
  %339 = load i32, i32* %338, align 4
  %340 = icmp sgt i32 %339, 0
  br i1 %340, label %341, label %410

341:                                              ; preds = %335
  %342 = sext i32 %339 to i64
  %343 = add nsw i64 %342, -1
  %344 = and i64 %342, 7
  %345 = icmp ult i64 %343, 7
  br i1 %345, label %394, label %346

346:                                              ; preds = %341
  %347 = sub nsw i64 %342, %344
  br label %348

348:                                              ; preds = %348, %346
  %349 = phi i64 [ 0, %346 ], [ %391, %348 ]
  %350 = phi i64 [ 1, %346 ], [ %390, %348 ]
  %351 = phi i64 [ %347, %346 ], [ %392, %348 ]
  %352 = getelementptr inbounds %struct.TfLiteIntArray, %struct.TfLiteIntArray* %337, i64 0, i32 1, i64 %349
  %353 = load i32, i32* %352, align 4
  %354 = sext i32 %353 to i64
  %355 = mul nsw i64 %350, %354
  %356 = or i64 %349, 1
  %357 = getelementptr inbounds %struct.TfLiteIntArray, %struct.TfLiteIntArray* %337, i64 0, i32 1, i64 %356
  %358 = load i32, i32* %357, align 4
  %359 = sext i32 %358 to i64
  %360 = mul nsw i64 %355, %359
  %361 = or i64 %349, 2
  %362 = getelementptr inbounds %struct.TfLiteIntArray, %struct.TfLiteIntArray* %337, i64 0, i32 1, i64 %361
  %363 = load i32, i32* %362, align 4
  %364 = sext i32 %363 to i64
  %365 = mul nsw i64 %360, %364
  %366 = or i64 %349, 3
  %367 = getelementptr inbounds %struct.TfLiteIntArray, %struct.TfLiteIntArray* %337, i64 0, i32 1, i64 %366
  %368 = load i32, i32* %367, align 4
  %369 = sext i32 %368 to i64
  %370 = mul nsw i64 %365, %369
  %371 = or i64 %349, 4
  %372 = getelementptr inbounds %struct.TfLiteIntArray, %struct.TfLiteIntArray* %337, i64 0, i32 1, i64 %371
  %373 = load i32, i32* %372, align 4
  %374 = sext i32 %373 to i64
  %375 = mul nsw i64 %370, %374
  %376 = or i64 %349, 5
  %377 = getelementptr inbounds %struct.TfLiteIntArray, %struct.TfLiteIntArray* %337, i64 0, i32 1, i64 %376
  %378 = load i32, i32* %377, align 4
  %379 = sext i32 %378 to i64
  %380 = mul nsw i64 %375, %379
  %381 = or i64 %349, 6
  %382 = getelementptr inbounds %struct.TfLiteIntArray, %struct.TfLiteIntArray* %337, i64 0, i32 1, i64 %381
  %383 = load i32, i32* %382, align 4
  %384 = sext i32 %383 to i64
  %385 = mul nsw i64 %380, %384
  %386 = or i64 %349, 7
  %387 = getelementptr inbounds %struct.TfLiteIntArray, %struct.TfLiteIntArray* %337, i64 0, i32 1, i64 %386
  %388 = load i32, i32* %387, align 4
  %389 = sext i32 %388 to i64
  %390 = mul nsw i64 %385, %389
  %391 = add nuw nsw i64 %349, 8
  %392 = add i64 %351, -8
  %393 = icmp eq i64 %392, 0
  br i1 %393, label %394, label %348

394:                                              ; preds = %348, %341
  %395 = phi i64 [ undef, %341 ], [ %390, %348 ]
  %396 = phi i64 [ 0, %341 ], [ %391, %348 ]
  %397 = phi i64 [ 1, %341 ], [ %390, %348 ]
  %398 = icmp eq i64 %344, 0
  br i1 %398, label %410, label %399

399:                                              ; preds = %394, %399
  %400 = phi i64 [ %407, %399 ], [ %396, %394 ]
  %401 = phi i64 [ %406, %399 ], [ %397, %394 ]
  %402 = phi i64 [ %408, %399 ], [ %344, %394 ]
  %403 = getelementptr inbounds %struct.TfLiteIntArray, %struct.TfLiteIntArray* %337, i64 0, i32 1, i64 %400
  %404 = load i32, i32* %403, align 4
  %405 = sext i32 %404 to i64
  %406 = mul nsw i64 %401, %405
  %407 = add nuw nsw i64 %400, 1
  %408 = add i64 %402, -1
  %409 = icmp eq i64 %408, 0
  br i1 %409, label %410, label %399, !llvm.loop !9

410:                                              ; preds = %394, %399, %335
  %411 = phi i64 [ 1, %335 ], [ %395, %394 ], [ %406, %399 ]
  %412 = mul nsw i32 %92, %76
  %413 = sext i32 %412 to i64
  %414 = icmp eq i64 %411, %413
  br i1 %414, label %489, label %415

415:                                              ; preds = %410
  %416 = getelementptr inbounds %struct.TfLiteContext, %struct.TfLiteContext* %0, i64 0, i32 5
  %417 = load void (%struct.TfLiteContext*, i8*, ...)*, void (%struct.TfLiteContext*, i8*, ...)** %416, align 8
  br i1 %340, label %418, label %487

418:                                              ; preds = %415
  %419 = sext i32 %339 to i64
  %420 = add nsw i64 %419, -1
  %421 = and i64 %419, 7
  %422 = icmp ult i64 %420, 7
  br i1 %422, label %471, label %423

423:                                              ; preds = %418
  %424 = sub nsw i64 %419, %421
  br label %425

425:                                              ; preds = %425, %423
  %426 = phi i64 [ 0, %423 ], [ %468, %425 ]
  %427 = phi i64 [ 1, %423 ], [ %467, %425 ]
  %428 = phi i64 [ %424, %423 ], [ %469, %425 ]
  %429 = getelementptr inbounds %struct.TfLiteIntArray, %struct.TfLiteIntArray* %337, i64 0, i32 1, i64 %426
  %430 = load i32, i32* %429, align 4
  %431 = sext i32 %430 to i64
  %432 = mul nsw i64 %427, %431
  %433 = or i64 %426, 1
  %434 = getelementptr inbounds %struct.TfLiteIntArray, %struct.TfLiteIntArray* %337, i64 0, i32 1, i64 %433
  %435 = load i32, i32* %434, align 4
  %436 = sext i32 %435 to i64
  %437 = mul nsw i64 %432, %436
  %438 = or i64 %426, 2
  %439 = getelementptr inbounds %struct.TfLiteIntArray, %struct.TfLiteIntArray* %337, i64 0, i32 1, i64 %438
  %440 = load i32, i32* %439, align 4
  %441 = sext i32 %440 to i64
  %442 = mul nsw i64 %437, %441
  %443 = or i64 %426, 3
  %444 = getelementptr inbounds %struct.TfLiteIntArray, %struct.TfLiteIntArray* %337, i64 0, i32 1, i64 %443
  %445 = load i32, i32* %444, align 4
  %446 = sext i32 %445 to i64
  %447 = mul nsw i64 %442, %446
  %448 = or i64 %426, 4
  %449 = getelementptr inbounds %struct.TfLiteIntArray, %struct.TfLiteIntArray* %337, i64 0, i32 1, i64 %448
  %450 = load i32, i32* %449, align 4
  %451 = sext i32 %450 to i64
  %452 = mul nsw i64 %447, %451
  %453 = or i64 %426, 5
  %454 = getelementptr inbounds %struct.TfLiteIntArray, %struct.TfLiteIntArray* %337, i64 0, i32 1, i64 %453
  %455 = load i32, i32* %454, align 4
  %456 = sext i32 %455 to i64
  %457 = mul nsw i64 %452, %456
  %458 = or i64 %426, 6
  %459 = getelementptr inbounds %struct.TfLiteIntArray, %struct.TfLiteIntArray* %337, i64 0, i32 1, i64 %458
  %460 = load i32, i32* %459, align 4
  %461 = sext i32 %460 to i64
  %462 = mul nsw i64 %457, %461
  %463 = or i64 %426, 7
  %464 = getelementptr inbounds %struct.TfLiteIntArray, %struct.TfLiteIntArray* %337, i64 0, i32 1, i64 %463
  %465 = load i32, i32* %464, align 4
  %466 = sext i32 %465 to i64
  %467 = mul nsw i64 %462, %466
  %468 = add nuw nsw i64 %426, 8
  %469 = add i64 %428, -8
  %470 = icmp eq i64 %469, 0
  br i1 %470, label %471, label %425

471:                                              ; preds = %425, %418
  %472 = phi i64 [ undef, %418 ], [ %467, %425 ]
  %473 = phi i64 [ 0, %418 ], [ %468, %425 ]
  %474 = phi i64 [ 1, %418 ], [ %467, %425 ]
  %475 = icmp eq i64 %421, 0
  br i1 %475, label %487, label %476

476:                                              ; preds = %471, %476
  %477 = phi i64 [ %484, %476 ], [ %473, %471 ]
  %478 = phi i64 [ %483, %476 ], [ %474, %471 ]
  %479 = phi i64 [ %485, %476 ], [ %421, %471 ]
  %480 = getelementptr inbounds %struct.TfLiteIntArray, %struct.TfLiteIntArray* %337, i64 0, i32 1, i64 %477
  %481 = load i32, i32* %480, align 4
  %482 = sext i32 %481 to i64
  %483 = mul nsw i64 %478, %482
  %484 = add nuw nsw i64 %477, 1
  %485 = add i64 %479, -1
  %486 = icmp eq i64 %485, 0
  br i1 %486, label %487, label %476, !llvm.loop !10

487:                                              ; preds = %471, %476, %415
  %488 = phi i64 [ 1, %415 ], [ %472, %471 ], [ %483, %476 ]
  tail call void (%struct.TfLiteContext*, i8*, ...) %417(%struct.TfLiteContext* %0, i8* getelementptr inbounds ([26 x i8], [26 x i8]* @.str.6, i64 0, i64 0), i8* getelementptr inbounds ([61 x i8], [61 x i8]* @.str.3, i64 0, i64 0), i32 1212, i8* getelementptr inbounds ([24 x i8], [24 x i8]* @.str.104, i64 0, i64 0), i8* getelementptr inbounds ([17 x i8], [17 x i8]* @.str.105, i64 0, i64 0), i64 %488, i32 %412) #18
  br label %2453

489:                                              ; preds = %410
  %490 = tail call %struct.TfLiteIntArray* @TfLiteIntArrayCreate(i32 2) #18
  %491 = getelementptr inbounds %struct.TfLiteIntArray, %struct.TfLiteIntArray* %490, i64 0, i32 1, i64 0
  store i32 %76, i32* %491, align 4
  %492 = getelementptr inbounds %struct.TfLiteIntArray, %struct.TfLiteIntArray* %490, i64 0, i32 1, i64 1
  store i32 %134, i32* %492, align 4
  %493 = getelementptr inbounds %struct.TfLiteContext, %struct.TfLiteContext* %0, i64 0, i32 4
  %494 = load i32 (%struct.TfLiteContext*, %struct.TfLiteTensor*, %struct.TfLiteIntArray*)*, i32 (%struct.TfLiteContext*, %struct.TfLiteTensor*, %struct.TfLiteIntArray*)** %493, align 8
  %495 = tail call i32 %494(%struct.TfLiteContext* %0, %struct.TfLiteTensor* %148, %struct.TfLiteIntArray* %490) #18
  %496 = icmp eq i32 %495, 0
  br i1 %496, label %497, label %2453

497:                                              ; preds = %489
  %498 = getelementptr inbounds %struct.TfLiteTensor, %struct.TfLiteTensor* %88, i64 0, i32 0
  %499 = load i32, i32* %498, align 8
  switch i32 %499, label %503 [
    i32 3, label %500
    i32 9, label %500
  ]

500:                                              ; preds = %497, %497
  %501 = load i32, i32* %63, align 8
  %502 = icmp eq i32 %501, 1
  br label %503

503:                                              ; preds = %497, %500
  %504 = phi i1 [ %502, %500 ], [ false, %497 ]
  %505 = getelementptr inbounds %struct.TfLiteNode, %struct.TfLiteNode* %1, i64 0, i32 2
  %506 = load %struct.TfLiteIntArray*, %struct.TfLiteIntArray** %505, align 8
  %507 = getelementptr inbounds %struct.TfLiteIntArray, %struct.TfLiteIntArray* %506, i64 0, i32 0
  %508 = load i32, i32* %507, align 4
  br i1 %65, label %509, label %513

509:                                              ; preds = %503
  switch i32 %508, label %510 [
    i32 12, label %513
    i32 5, label %513
  ]

510:                                              ; preds = %509
  %511 = getelementptr inbounds %struct.TfLiteContext, %struct.TfLiteContext* %0, i64 0, i32 5
  %512 = load void (%struct.TfLiteContext*, i8*, ...)*, void (%struct.TfLiteContext*, i8*, ...)** %511, align 8
  tail call void (%struct.TfLiteContext*, i8*, ...) %512(%struct.TfLiteContext* %0, i8* getelementptr inbounds ([23 x i8], [23 x i8]* @.str, i64 0, i64 0), i8* getelementptr inbounds ([61 x i8], [61 x i8]* @.str.3, i64 0, i64 0), i32 1228, i8* getelementptr inbounds ([64 x i8], [64 x i8]* @.str.106, i64 0, i64 0)) #18
  br label %2453

513:                                              ; preds = %509, %509, %503
  %514 = icmp eq i32 %508, 5
  %515 = getelementptr inbounds %struct.TfLiteNode, %struct.TfLiteNode* %1, i64 0, i32 3
  %516 = load %struct.TfLiteIntArray*, %struct.TfLiteIntArray** %515, align 8
  tail call void @TfLiteIntArrayFree(%struct.TfLiteIntArray* %516) #18
  br i1 %504, label %525, label %517

517:                                              ; preds = %513
  br i1 %65, label %518, label %523

518:                                              ; preds = %517
  br i1 %514, label %519, label %521

519:                                              ; preds = %518
  %520 = tail call %struct.TfLiteIntArray* @TfLiteIntArrayCreate(i32 6) #18
  store %struct.TfLiteIntArray* %520, %struct.TfLiteIntArray** %515, align 8
  br label %903

521:                                              ; preds = %518
  %522 = tail call %struct.TfLiteIntArray* @TfLiteIntArrayCreate(i32 8) #18
  store %struct.TfLiteIntArray* %522, %struct.TfLiteIntArray** %515, align 8
  br label %1836

523:                                              ; preds = %517
  %524 = tail call %struct.TfLiteIntArray* @TfLiteIntArrayCreate(i32 1) #18
  store %struct.TfLiteIntArray* %524, %struct.TfLiteIntArray** %515, align 8
  br label %527

525:                                              ; preds = %513
  %526 = tail call %struct.TfLiteIntArray* @TfLiteIntArrayCreate(i32 10) #18
  store %struct.TfLiteIntArray* %526, %struct.TfLiteIntArray** %515, align 8
  br i1 %65, label %566, label %527

527:                                              ; preds = %523, %525
  %528 = phi %struct.TfLiteIntArray* [ %524, %523 ], [ %526, %525 ]
  %529 = getelementptr inbounds %"struct.tflite::ops::builtin::lstm::OpData", %"struct.tflite::ops::builtin::lstm::OpData"* %16, i64 0, i32 3
  %530 = load i32, i32* %529, align 8
  %531 = getelementptr inbounds %struct.TfLiteIntArray, %struct.TfLiteIntArray* %528, i64 0, i32 1, i64 0
  store i32 %530, i32* %531, align 4
  %532 = load %struct.TfLiteIntArray*, %struct.TfLiteIntArray** %515, align 8
  %533 = getelementptr inbounds %struct.TfLiteIntArray, %struct.TfLiteIntArray* %532, i64 0, i32 1, i64 0
  %534 = load i32, i32* %533, align 4
  %535 = icmp slt i32 %534, 0
  br i1 %535, label %540, label %536

536:                                              ; preds = %527
  %537 = load %struct.TfLiteTensor*, %struct.TfLiteTensor** %154, align 8
  %538 = sext i32 %534 to i64
  %539 = getelementptr inbounds %struct.TfLiteTensor, %struct.TfLiteTensor* %537, i64 %538
  br label %540

540:                                              ; preds = %527, %536
  %541 = phi %struct.TfLiteTensor* [ %539, %536 ], [ null, %527 ]
  %542 = load i32, i32* %63, align 8
  %543 = getelementptr inbounds %struct.TfLiteTensor, %struct.TfLiteTensor* %541, i64 0, i32 0
  store i32 %542, i32* %543, align 8
  %544 = getelementptr inbounds %struct.TfLiteTensor, %struct.TfLiteTensor* %541, i64 0, i32 4
  store i32 2, i32* %544, align 8
  %545 = load %struct.TfLiteIntArray*, %struct.TfLiteIntArray** %26, align 8
  %546 = getelementptr inbounds %struct.TfLiteIntArray, %struct.TfLiteIntArray* %545, i64 0, i32 1, i64 1
  %547 = load i32, i32* %546, align 4
  %548 = icmp slt i32 %547, 0
  br i1 %548, label %553, label %549

549:                                              ; preds = %540
  %550 = load %struct.TfLiteTensor*, %struct.TfLiteTensor** %154, align 8
  %551 = sext i32 %547 to i64
  %552 = getelementptr inbounds %struct.TfLiteTensor, %struct.TfLiteTensor* %550, i64 %551
  br label %553

553:                                              ; preds = %540, %549
  %554 = phi %struct.TfLiteTensor* [ %552, %549 ], [ null, %540 ]
  %555 = icmp eq %struct.TfLiteTensor* %554, null
  %556 = tail call %struct.TfLiteIntArray* @TfLiteIntArrayCreate(i32 2) #18
  %557 = getelementptr inbounds %struct.TfLiteIntArray, %struct.TfLiteIntArray* %556, i64 0, i32 1, i64 0
  store i32 %76, i32* %557, align 4
  %558 = mul nsw i32 %92, 3
  %559 = shl nsw i32 %92, 2
  %560 = select i1 %555, i32 %558, i32 %559
  %561 = getelementptr inbounds %struct.TfLiteIntArray, %struct.TfLiteIntArray* %556, i64 0, i32 1, i64 1
  store i32 %560, i32* %561, align 4
  %562 = load i32 (%struct.TfLiteContext*, %struct.TfLiteTensor*, %struct.TfLiteIntArray*)*, i32 (%struct.TfLiteContext*, %struct.TfLiteTensor*, %struct.TfLiteIntArray*)** %493, align 8
  %563 = tail call i32 %562(%struct.TfLiteContext* %0, %struct.TfLiteTensor* %541, %struct.TfLiteIntArray* %556) #18
  %564 = icmp eq i32 %563, 0
  br i1 %564, label %565, label %2453

565:                                              ; preds = %553
  br i1 %504, label %566, label %2452

566:                                              ; preds = %525, %565
  %567 = getelementptr inbounds %"struct.tflite::ops::builtin::lstm::OpData", %"struct.tflite::ops::builtin::lstm::OpData"* %16, i64 0, i32 6
  store i8 1, i8* %567, align 8
  %568 = getelementptr inbounds %"struct.tflite::ops::builtin::lstm::OpData", %"struct.tflite::ops::builtin::lstm::OpData"* %16, i64 0, i32 3
  %569 = load i32, i32* %568, align 8
  %570 = add nsw i32 %569, 1
  %571 = load %struct.TfLiteIntArray*, %struct.TfLiteIntArray** %515, align 8
  %572 = getelementptr inbounds %struct.TfLiteIntArray, %struct.TfLiteIntArray* %571, i64 0, i32 1, i64 1
  store i32 %570, i32* %572, align 4
  %573 = load %struct.TfLiteIntArray*, %struct.TfLiteIntArray** %515, align 8
  %574 = getelementptr inbounds %struct.TfLiteIntArray, %struct.TfLiteIntArray* %573, i64 0, i32 1, i64 1
  %575 = load i32, i32* %574, align 4
  %576 = icmp slt i32 %575, 0
  br i1 %576, label %581, label %577

577:                                              ; preds = %566
  %578 = load %struct.TfLiteTensor*, %struct.TfLiteTensor** %154, align 8
  %579 = sext i32 %575 to i64
  %580 = getelementptr inbounds %struct.TfLiteTensor, %struct.TfLiteTensor* %578, i64 %579
  br label %581

581:                                              ; preds = %566, %577
  %582 = phi %struct.TfLiteTensor* [ %580, %577 ], [ null, %566 ]
  %583 = load i32, i32* %498, align 8
  %584 = getelementptr inbounds %struct.TfLiteTensor, %struct.TfLiteTensor* %582, i64 0, i32 0
  store i32 %583, i32* %584, align 8
  %585 = getelementptr inbounds %struct.TfLiteTensor, %struct.TfLiteTensor* %582, i64 0, i32 4
  store i32 2, i32* %585, align 8
  %586 = getelementptr inbounds %struct.TfLiteTensor, %struct.TfLiteTensor* %582, i64 0, i32 2
  %587 = load %struct.TfLiteIntArray*, %struct.TfLiteIntArray** %586, align 8
  %588 = load %struct.TfLiteIntArray*, %struct.TfLiteIntArray** %66, align 8
  %589 = tail call i32 @TfLiteIntArrayEqual(%struct.TfLiteIntArray* %587, %struct.TfLiteIntArray* %588) #18
  %590 = icmp eq i32 %589, 0
  br i1 %590, label %591, label %599

591:                                              ; preds = %581
  %592 = load %struct.TfLiteIntArray*, %struct.TfLiteIntArray** %66, align 8
  %593 = tail call %struct.TfLiteIntArray* @TfLiteIntArrayCopy(%struct.TfLiteIntArray* %592) #18
  %594 = load i32 (%struct.TfLiteContext*, %struct.TfLiteTensor*, %struct.TfLiteIntArray*)*, i32 (%struct.TfLiteContext*, %struct.TfLiteTensor*, %struct.TfLiteIntArray*)** %493, align 8
  %595 = tail call i32 %594(%struct.TfLiteContext* %0, %struct.TfLiteTensor* %582, %struct.TfLiteIntArray* %593) #18
  %596 = icmp eq i32 %595, 0
  %597 = xor i1 %596, true
  %598 = zext i1 %597 to i32
  br i1 %596, label %599, label %897

599:                                              ; preds = %581, %591
  %600 = load i32, i32* %568, align 8
  %601 = add nsw i32 %600, 2
  %602 = load %struct.TfLiteIntArray*, %struct.TfLiteIntArray** %515, align 8
  %603 = getelementptr inbounds %struct.TfLiteIntArray, %struct.TfLiteIntArray* %602, i64 0, i32 1, i64 2
  store i32 %601, i32* %603, align 4
  %604 = load %struct.TfLiteIntArray*, %struct.TfLiteIntArray** %515, align 8
  %605 = getelementptr inbounds %struct.TfLiteIntArray, %struct.TfLiteIntArray* %604, i64 0, i32 1, i64 2
  %606 = load i32, i32* %605, align 4
  %607 = icmp slt i32 %606, 0
  br i1 %607, label %612, label %608

608:                                              ; preds = %599
  %609 = load %struct.TfLiteTensor*, %struct.TfLiteTensor** %154, align 8
  %610 = sext i32 %606 to i64
  %611 = getelementptr inbounds %struct.TfLiteTensor, %struct.TfLiteTensor* %609, i64 %610
  br label %612

612:                                              ; preds = %599, %608
  %613 = phi %struct.TfLiteTensor* [ %611, %608 ], [ null, %599 ]
  %614 = load i32, i32* %498, align 8
  %615 = getelementptr inbounds %struct.TfLiteTensor, %struct.TfLiteTensor* %613, i64 0, i32 0
  store i32 %614, i32* %615, align 8
  %616 = getelementptr inbounds %struct.TfLiteTensor, %struct.TfLiteTensor* %613, i64 0, i32 4
  store i32 2, i32* %616, align 8
  %617 = getelementptr inbounds %struct.TfLiteTensor, %struct.TfLiteTensor* %613, i64 0, i32 2
  %618 = load %struct.TfLiteIntArray*, %struct.TfLiteIntArray** %617, align 8
  %619 = load %struct.TfLiteIntArray*, %struct.TfLiteIntArray** %182, align 8
  %620 = tail call i32 @TfLiteIntArrayEqual(%struct.TfLiteIntArray* %618, %struct.TfLiteIntArray* %619) #18
  %621 = icmp eq i32 %620, 0
  br i1 %621, label %622, label %630

622:                                              ; preds = %612
  %623 = load %struct.TfLiteIntArray*, %struct.TfLiteIntArray** %182, align 8
  %624 = tail call %struct.TfLiteIntArray* @TfLiteIntArrayCopy(%struct.TfLiteIntArray* %623) #18
  %625 = load i32 (%struct.TfLiteContext*, %struct.TfLiteTensor*, %struct.TfLiteIntArray*)*, i32 (%struct.TfLiteContext*, %struct.TfLiteTensor*, %struct.TfLiteIntArray*)** %493, align 8
  %626 = tail call i32 %625(%struct.TfLiteContext* %0, %struct.TfLiteTensor* %613, %struct.TfLiteIntArray* %624) #18
  %627 = icmp eq i32 %626, 0
  %628 = xor i1 %627, true
  %629 = zext i1 %628 to i32
  br i1 %627, label %630, label %897

630:                                              ; preds = %612, %622
  %631 = load i32, i32* %568, align 8
  %632 = add nsw i32 %631, 3
  %633 = load %struct.TfLiteIntArray*, %struct.TfLiteIntArray** %515, align 8
  %634 = getelementptr inbounds %struct.TfLiteIntArray, %struct.TfLiteIntArray* %633, i64 0, i32 1, i64 3
  store i32 %632, i32* %634, align 4
  %635 = load %struct.TfLiteIntArray*, %struct.TfLiteIntArray** %515, align 8
  %636 = getelementptr inbounds %struct.TfLiteIntArray, %struct.TfLiteIntArray* %635, i64 0, i32 1, i64 3
  %637 = load i32, i32* %636, align 4
  %638 = icmp slt i32 %637, 0
  br i1 %638, label %643, label %639

639:                                              ; preds = %630
  %640 = load %struct.TfLiteTensor*, %struct.TfLiteTensor** %154, align 8
  %641 = sext i32 %637 to i64
  %642 = getelementptr inbounds %struct.TfLiteTensor, %struct.TfLiteTensor* %640, i64 %641
  br label %643

643:                                              ; preds = %630, %639
  %644 = phi %struct.TfLiteTensor* [ %642, %639 ], [ null, %630 ]
  %645 = load i32, i32* %498, align 8
  %646 = getelementptr inbounds %struct.TfLiteTensor, %struct.TfLiteTensor* %644, i64 0, i32 0
  store i32 %645, i32* %646, align 8
  %647 = getelementptr inbounds %struct.TfLiteTensor, %struct.TfLiteTensor* %644, i64 0, i32 4
  store i32 2, i32* %647, align 8
  %648 = getelementptr inbounds %struct.TfLiteTensor, %struct.TfLiteTensor* %644, i64 0, i32 2
  %649 = load %struct.TfLiteIntArray*, %struct.TfLiteIntArray** %648, align 8
  %650 = load %struct.TfLiteIntArray*, %struct.TfLiteIntArray** %336, align 8
  %651 = tail call i32 @TfLiteIntArrayEqual(%struct.TfLiteIntArray* %649, %struct.TfLiteIntArray* %650) #18
  %652 = icmp eq i32 %651, 0
  br i1 %652, label %653, label %661

653:                                              ; preds = %643
  %654 = load %struct.TfLiteIntArray*, %struct.TfLiteIntArray** %336, align 8
  %655 = tail call %struct.TfLiteIntArray* @TfLiteIntArrayCopy(%struct.TfLiteIntArray* %654) #18
  %656 = load i32 (%struct.TfLiteContext*, %struct.TfLiteTensor*, %struct.TfLiteIntArray*)*, i32 (%struct.TfLiteContext*, %struct.TfLiteTensor*, %struct.TfLiteIntArray*)** %493, align 8
  %657 = tail call i32 %656(%struct.TfLiteContext* %0, %struct.TfLiteTensor* %644, %struct.TfLiteIntArray* %655) #18
  %658 = icmp eq i32 %657, 0
  %659 = xor i1 %658, true
  %660 = zext i1 %659 to i32
  br i1 %658, label %661, label %897

661:                                              ; preds = %643, %653
  %662 = load i32, i32* %568, align 8
  %663 = add nsw i32 %662, 4
  %664 = load %struct.TfLiteIntArray*, %struct.TfLiteIntArray** %515, align 8
  %665 = getelementptr inbounds %struct.TfLiteIntArray, %struct.TfLiteIntArray* %664, i64 0, i32 1, i64 4
  store i32 %663, i32* %665, align 4
  %666 = load %struct.TfLiteIntArray*, %struct.TfLiteIntArray** %515, align 8
  %667 = getelementptr inbounds %struct.TfLiteIntArray, %struct.TfLiteIntArray* %666, i64 0, i32 1, i64 4
  %668 = load i32, i32* %667, align 4
  %669 = icmp slt i32 %668, 0
  br i1 %669, label %674, label %670

670:                                              ; preds = %661
  %671 = load %struct.TfLiteTensor*, %struct.TfLiteTensor** %154, align 8
  %672 = sext i32 %668 to i64
  %673 = getelementptr inbounds %struct.TfLiteTensor, %struct.TfLiteTensor* %671, i64 %672
  br label %674

674:                                              ; preds = %661, %670
  %675 = phi %struct.TfLiteTensor* [ %673, %670 ], [ null, %661 ]
  %676 = getelementptr inbounds %struct.TfLiteTensor, %struct.TfLiteTensor* %675, i64 0, i32 0
  store i32 1, i32* %676, align 8
  %677 = getelementptr inbounds %struct.TfLiteTensor, %struct.TfLiteTensor* %675, i64 0, i32 4
  store i32 2, i32* %677, align 8
  %678 = bitcast [1 x i32]* %7 to i8*
  call void @llvm.lifetime.start.p0i8(i64 4, i8* nonnull %678) #18
  %679 = getelementptr inbounds [1 x i32], [1 x i32]* %7, i64 0, i64 0
  store i32 %76, i32* %679, align 4
  %680 = getelementptr inbounds %struct.TfLiteTensor, %struct.TfLiteTensor* %675, i64 0, i32 2
  %681 = load %struct.TfLiteIntArray*, %struct.TfLiteIntArray** %680, align 8
  %682 = call i32 @TfLiteIntArrayEqualsArray(%struct.TfLiteIntArray* %681, i32 1, i32* nonnull %679) #18
  %683 = icmp eq i32 %682, 0
  br i1 %683, label %684, label %692

684:                                              ; preds = %674
  %685 = call %struct.TfLiteIntArray* @TfLiteIntArrayCreate(i32 1) #18
  %686 = getelementptr inbounds %struct.TfLiteIntArray, %struct.TfLiteIntArray* %685, i64 0, i32 1, i64 0
  store i32 %76, i32* %686, align 4
  %687 = load i32 (%struct.TfLiteContext*, %struct.TfLiteTensor*, %struct.TfLiteIntArray*)*, i32 (%struct.TfLiteContext*, %struct.TfLiteTensor*, %struct.TfLiteIntArray*)** %493, align 8
  %688 = call i32 %687(%struct.TfLiteContext* %0, %struct.TfLiteTensor* %675, %struct.TfLiteIntArray* %685) #18
  %689 = icmp eq i32 %688, 0
  %690 = xor i1 %689, true
  %691 = zext i1 %690 to i32
  br i1 %689, label %692, label %894

692:                                              ; preds = %674, %684
  %693 = load i32, i32* %568, align 8
  %694 = add nsw i32 %693, 5
  %695 = load %struct.TfLiteIntArray*, %struct.TfLiteIntArray** %515, align 8
  %696 = getelementptr inbounds %struct.TfLiteIntArray, %struct.TfLiteIntArray* %695, i64 0, i32 1, i64 5
  store i32 %694, i32* %696, align 4
  %697 = load %struct.TfLiteIntArray*, %struct.TfLiteIntArray** %515, align 8
  %698 = getelementptr inbounds %struct.TfLiteIntArray, %struct.TfLiteIntArray* %697, i64 0, i32 1, i64 5
  %699 = load i32, i32* %698, align 4
  %700 = icmp slt i32 %699, 0
  br i1 %700, label %705, label %701

701:                                              ; preds = %692
  %702 = load %struct.TfLiteTensor*, %struct.TfLiteTensor** %154, align 8
  %703 = sext i32 %699 to i64
  %704 = getelementptr inbounds %struct.TfLiteTensor, %struct.TfLiteTensor* %702, i64 %703
  br label %705

705:                                              ; preds = %692, %701
  %706 = phi %struct.TfLiteTensor* [ %704, %701 ], [ null, %692 ]
  %707 = getelementptr inbounds %struct.TfLiteTensor, %struct.TfLiteTensor* %706, i64 0, i32 0
  store i32 1, i32* %707, align 8
  %708 = getelementptr inbounds %struct.TfLiteTensor, %struct.TfLiteTensor* %706, i64 0, i32 4
  store i32 2, i32* %708, align 8
  %709 = getelementptr inbounds %struct.TfLiteTensor, %struct.TfLiteTensor* %706, i64 0, i32 2
  %710 = load %struct.TfLiteIntArray*, %struct.TfLiteIntArray** %709, align 8
  %711 = call i32 @TfLiteIntArrayEqualsArray(%struct.TfLiteIntArray* %710, i32 1, i32* nonnull %679) #18
  %712 = icmp eq i32 %711, 0
  br i1 %712, label %713, label %721

713:                                              ; preds = %705
  %714 = call %struct.TfLiteIntArray* @TfLiteIntArrayCreate(i32 1) #18
  %715 = getelementptr inbounds %struct.TfLiteIntArray, %struct.TfLiteIntArray* %714, i64 0, i32 1, i64 0
  store i32 %76, i32* %715, align 4
  %716 = load i32 (%struct.TfLiteContext*, %struct.TfLiteTensor*, %struct.TfLiteIntArray*)*, i32 (%struct.TfLiteContext*, %struct.TfLiteTensor*, %struct.TfLiteIntArray*)** %493, align 8
  %717 = call i32 %716(%struct.TfLiteContext* %0, %struct.TfLiteTensor* %706, %struct.TfLiteIntArray* %714) #18
  %718 = icmp eq i32 %717, 0
  %719 = xor i1 %718, true
  %720 = zext i1 %719 to i32
  br i1 %718, label %721, label %894

721:                                              ; preds = %705, %713
  %722 = load i32, i32* %568, align 8
  %723 = add nsw i32 %722, 6
  %724 = load %struct.TfLiteIntArray*, %struct.TfLiteIntArray** %515, align 8
  %725 = getelementptr inbounds %struct.TfLiteIntArray, %struct.TfLiteIntArray* %724, i64 0, i32 1, i64 6
  store i32 %723, i32* %725, align 4
  %726 = load %struct.TfLiteIntArray*, %struct.TfLiteIntArray** %515, align 8
  %727 = getelementptr inbounds %struct.TfLiteIntArray, %struct.TfLiteIntArray* %726, i64 0, i32 1, i64 6
  %728 = load i32, i32* %727, align 4
  %729 = icmp slt i32 %728, 0
  br i1 %729, label %734, label %730

730:                                              ; preds = %721
  %731 = load %struct.TfLiteTensor*, %struct.TfLiteTensor** %154, align 8
  %732 = sext i32 %728 to i64
  %733 = getelementptr inbounds %struct.TfLiteTensor, %struct.TfLiteTensor* %731, i64 %732
  br label %734

734:                                              ; preds = %721, %730
  %735 = phi %struct.TfLiteTensor* [ %733, %730 ], [ null, %721 ]
  %736 = getelementptr inbounds %struct.TfLiteTensor, %struct.TfLiteTensor* %735, i64 0, i32 0
  store i32 1, i32* %736, align 8
  %737 = getelementptr inbounds %struct.TfLiteTensor, %struct.TfLiteTensor* %735, i64 0, i32 4
  store i32 2, i32* %737, align 8
  %738 = bitcast [1 x i32]* %8 to i8*
  call void @llvm.lifetime.start.p0i8(i64 4, i8* nonnull %738) #18
  %739 = getelementptr inbounds [1 x i32], [1 x i32]* %8, i64 0, i64 0
  store i32 %92, i32* %739, align 4
  %740 = getelementptr inbounds %struct.TfLiteTensor, %struct.TfLiteTensor* %735, i64 0, i32 2
  %741 = load %struct.TfLiteIntArray*, %struct.TfLiteIntArray** %740, align 8
  %742 = call i32 @TfLiteIntArrayEqualsArray(%struct.TfLiteIntArray* %741, i32 1, i32* nonnull %739) #18
  %743 = icmp eq i32 %742, 0
  br i1 %743, label %744, label %752

744:                                              ; preds = %734
  %745 = call %struct.TfLiteIntArray* @TfLiteIntArrayCreate(i32 1) #18
  %746 = getelementptr inbounds %struct.TfLiteIntArray, %struct.TfLiteIntArray* %745, i64 0, i32 1, i64 0
  store i32 %92, i32* %746, align 4
  %747 = load i32 (%struct.TfLiteContext*, %struct.TfLiteTensor*, %struct.TfLiteIntArray*)*, i32 (%struct.TfLiteContext*, %struct.TfLiteTensor*, %struct.TfLiteIntArray*)** %493, align 8
  %748 = call i32 %747(%struct.TfLiteContext* %0, %struct.TfLiteTensor* %735, %struct.TfLiteIntArray* %745) #18
  %749 = icmp eq i32 %748, 0
  %750 = xor i1 %749, true
  %751 = zext i1 %750 to i32
  br i1 %749, label %752, label %891

752:                                              ; preds = %734, %744
  %753 = load i32, i32* %568, align 8
  %754 = add nsw i32 %753, 7
  %755 = load %struct.TfLiteIntArray*, %struct.TfLiteIntArray** %515, align 8
  %756 = getelementptr inbounds %struct.TfLiteIntArray, %struct.TfLiteIntArray* %755, i64 0, i32 1, i64 7
  store i32 %754, i32* %756, align 4
  %757 = load %struct.TfLiteIntArray*, %struct.TfLiteIntArray** %515, align 8
  %758 = getelementptr inbounds %struct.TfLiteIntArray, %struct.TfLiteIntArray* %757, i64 0, i32 1, i64 7
  %759 = load i32, i32* %758, align 4
  %760 = icmp slt i32 %759, 0
  br i1 %760, label %765, label %761

761:                                              ; preds = %752
  %762 = load %struct.TfLiteTensor*, %struct.TfLiteTensor** %154, align 8
  %763 = sext i32 %759 to i64
  %764 = getelementptr inbounds %struct.TfLiteTensor, %struct.TfLiteTensor* %762, i64 %763
  br label %765

765:                                              ; preds = %752, %761
  %766 = phi %struct.TfLiteTensor* [ %764, %761 ], [ null, %752 ]
  %767 = getelementptr inbounds %struct.TfLiteTensor, %struct.TfLiteTensor* %766, i64 0, i32 0
  store i32 2, i32* %767, align 8
  %768 = getelementptr inbounds %struct.TfLiteTensor, %struct.TfLiteTensor* %766, i64 0, i32 4
  store i32 2, i32* %768, align 8
  %769 = bitcast [2 x i32]* %9 to i8*
  call void @llvm.lifetime.start.p0i8(i64 8, i8* nonnull %769) #18
  %770 = getelementptr inbounds [2 x i32], [2 x i32]* %9, i64 0, i64 0
  %771 = getelementptr inbounds [2 x i32], [2 x i32]* %9, i64 0, i64 1
  store i32 %92, i32* %770, align 4
  store i32 %76, i32* %771, align 4
  %772 = getelementptr inbounds %struct.TfLiteTensor, %struct.TfLiteTensor* %766, i64 0, i32 2
  %773 = load %struct.TfLiteIntArray*, %struct.TfLiteIntArray** %772, align 8
  %774 = call i32 @TfLiteIntArrayEqualsArray(%struct.TfLiteIntArray* %773, i32 2, i32* nonnull %770) #18
  %775 = icmp eq i32 %774, 0
  br i1 %775, label %776, label %785

776:                                              ; preds = %765
  %777 = call %struct.TfLiteIntArray* @TfLiteIntArrayCreate(i32 2) #18
  %778 = getelementptr inbounds %struct.TfLiteIntArray, %struct.TfLiteIntArray* %777, i64 0, i32 1, i64 0
  store i32 %92, i32* %778, align 4
  %779 = getelementptr inbounds %struct.TfLiteIntArray, %struct.TfLiteIntArray* %777, i64 0, i32 1, i64 1
  store i32 %76, i32* %779, align 4
  %780 = load i32 (%struct.TfLiteContext*, %struct.TfLiteTensor*, %struct.TfLiteIntArray*)*, i32 (%struct.TfLiteContext*, %struct.TfLiteTensor*, %struct.TfLiteIntArray*)** %493, align 8
  %781 = call i32 %780(%struct.TfLiteContext* %0, %struct.TfLiteTensor* %766, %struct.TfLiteIntArray* %777) #18
  %782 = icmp eq i32 %781, 0
  %783 = xor i1 %782, true
  %784 = zext i1 %783 to i32
  br i1 %782, label %785, label %888

785:                                              ; preds = %765, %776
  %786 = load i32, i32* %568, align 8
  %787 = add nsw i32 %786, 8
  %788 = load %struct.TfLiteIntArray*, %struct.TfLiteIntArray** %515, align 8
  %789 = getelementptr inbounds %struct.TfLiteIntArray, %struct.TfLiteIntArray* %788, i64 0, i32 1, i64 8
  store i32 %787, i32* %789, align 4
  %790 = load %struct.TfLiteIntArray*, %struct.TfLiteIntArray** %515, align 8
  %791 = getelementptr inbounds %struct.TfLiteIntArray, %struct.TfLiteIntArray* %790, i64 0, i32 1, i64 8
  %792 = load i32, i32* %791, align 4
  %793 = icmp slt i32 %792, 0
  br i1 %793, label %798, label %794

794:                                              ; preds = %785
  %795 = load %struct.TfLiteTensor*, %struct.TfLiteTensor** %154, align 8
  %796 = sext i32 %792 to i64
  %797 = getelementptr inbounds %struct.TfLiteTensor, %struct.TfLiteTensor* %795, i64 %796
  br label %798

798:                                              ; preds = %785, %794
  %799 = phi %struct.TfLiteTensor* [ %797, %794 ], [ null, %785 ]
  %800 = getelementptr inbounds %struct.TfLiteTensor, %struct.TfLiteTensor* %799, i64 0, i32 0
  store i32 1, i32* %800, align 8
  %801 = getelementptr inbounds %struct.TfLiteTensor, %struct.TfLiteTensor* %799, i64 0, i32 4
  store i32 2, i32* %801, align 8
  %802 = bitcast [1 x i32]* %10 to i8*
  call void @llvm.lifetime.start.p0i8(i64 4, i8* nonnull %802) #18
  %803 = getelementptr inbounds [1 x i32], [1 x i32]* %10, i64 0, i64 0
  store i32 %76, i32* %803, align 4
  %804 = getelementptr inbounds %struct.TfLiteTensor, %struct.TfLiteTensor* %799, i64 0, i32 2
  %805 = load %struct.TfLiteIntArray*, %struct.TfLiteIntArray** %804, align 8
  %806 = call i32 @TfLiteIntArrayEqualsArray(%struct.TfLiteIntArray* %805, i32 1, i32* nonnull %803) #18
  %807 = icmp eq i32 %806, 0
  br i1 %807, label %808, label %816

808:                                              ; preds = %798
  %809 = call %struct.TfLiteIntArray* @TfLiteIntArrayCreate(i32 1) #18
  %810 = getelementptr inbounds %struct.TfLiteIntArray, %struct.TfLiteIntArray* %809, i64 0, i32 1, i64 0
  store i32 %76, i32* %810, align 4
  %811 = load i32 (%struct.TfLiteContext*, %struct.TfLiteTensor*, %struct.TfLiteIntArray*)*, i32 (%struct.TfLiteContext*, %struct.TfLiteTensor*, %struct.TfLiteIntArray*)** %493, align 8
  %812 = call i32 %811(%struct.TfLiteContext* %0, %struct.TfLiteTensor* %799, %struct.TfLiteIntArray* %809) #18
  %813 = icmp eq i32 %812, 0
  %814 = xor i1 %813, true
  %815 = zext i1 %814 to i32
  br i1 %813, label %816, label %885

816:                                              ; preds = %798, %808
  %817 = load i32, i32* %568, align 8
  %818 = add nsw i32 %817, 9
  %819 = load %struct.TfLiteIntArray*, %struct.TfLiteIntArray** %515, align 8
  %820 = getelementptr inbounds %struct.TfLiteIntArray, %struct.TfLiteIntArray* %819, i64 0, i32 1, i64 9
  store i32 %818, i32* %820, align 4
  %821 = load %struct.TfLiteIntArray*, %struct.TfLiteIntArray** %26, align 8
  %822 = getelementptr inbounds %struct.TfLiteIntArray, %struct.TfLiteIntArray* %821, i64 0, i32 1, i64 1
  %823 = load i32, i32* %822, align 4
  %824 = icmp slt i32 %823, 0
  br i1 %824, label %829, label %825

825:                                              ; preds = %816
  %826 = load %struct.TfLiteTensor*, %struct.TfLiteTensor** %154, align 8
  %827 = sext i32 %823 to i64
  %828 = getelementptr inbounds %struct.TfLiteTensor, %struct.TfLiteTensor* %826, i64 %827
  br label %829

829:                                              ; preds = %816, %825
  %830 = phi %struct.TfLiteTensor* [ %828, %825 ], [ null, %816 ]
  %831 = icmp eq %struct.TfLiteTensor* %830, null
  %832 = select i1 %831, i32 6, i32 8
  %833 = getelementptr inbounds %struct.TfLiteIntArray, %struct.TfLiteIntArray* %821, i64 0, i32 1, i64 16
  %834 = load i32, i32* %833, align 4
  %835 = icmp slt i32 %834, 0
  br i1 %835, label %849, label %836

836:                                              ; preds = %829
  %837 = load %struct.TfLiteTensor*, %struct.TfLiteTensor** %154, align 8
  %838 = sext i32 %834 to i64
  %839 = getelementptr inbounds %struct.TfLiteTensor, %struct.TfLiteTensor* %837, i64 %838
  %840 = icmp eq %struct.TfLiteTensor* %839, null
  br i1 %840, label %849, label %841

841:                                              ; preds = %836
  %842 = sitofp i32 %134 to float
  %843 = sitofp i32 %92 to float
  %844 = fdiv float %842, %843
  %845 = call float @llvm.ceil.f32(float %844) #18
  %846 = sitofp i32 %832 to float
  %847 = fadd float %845, %846
  %848 = fptosi float %847 to i32
  br label %849

849:                                              ; preds = %829, %836, %841
  %850 = phi i32 [ %848, %841 ], [ %832, %836 ], [ %832, %829 ]
  %851 = load %struct.TfLiteIntArray*, %struct.TfLiteIntArray** %515, align 8
  %852 = getelementptr inbounds %struct.TfLiteIntArray, %struct.TfLiteIntArray* %851, i64 0, i32 1, i64 9
  %853 = load i32, i32* %852, align 4
  %854 = icmp slt i32 %853, 0
  br i1 %854, label %859, label %855

855:                                              ; preds = %849
  %856 = load %struct.TfLiteTensor*, %struct.TfLiteTensor** %154, align 8
  %857 = sext i32 %853 to i64
  %858 = getelementptr inbounds %struct.TfLiteTensor, %struct.TfLiteTensor* %856, i64 %857
  br label %859

859:                                              ; preds = %849, %855
  %860 = phi %struct.TfLiteTensor* [ %858, %855 ], [ null, %849 ]
  %861 = getelementptr inbounds %struct.TfLiteTensor, %struct.TfLiteTensor* %860, i64 0, i32 0
  store i32 2, i32* %861, align 8
  %862 = getelementptr inbounds %struct.TfLiteTensor, %struct.TfLiteTensor* %860, i64 0, i32 4
  store i32 3, i32* %862, align 8
  %863 = bitcast [2 x i32]* %11 to i8*
  call void @llvm.lifetime.start.p0i8(i64 8, i8* nonnull %863) #18
  %864 = getelementptr inbounds [2 x i32], [2 x i32]* %11, i64 0, i64 0
  %865 = getelementptr inbounds [2 x i32], [2 x i32]* %11, i64 0, i64 1
  store i32 %850, i32* %864, align 4
  store i32 %92, i32* %865, align 4
  %866 = getelementptr inbounds %struct.TfLiteTensor, %struct.TfLiteTensor* %860, i64 0, i32 2
  %867 = load %struct.TfLiteIntArray*, %struct.TfLiteIntArray** %866, align 8
  %868 = call i32 @TfLiteIntArrayEqualsArray(%struct.TfLiteIntArray* %867, i32 2, i32* nonnull %864) #18
  %869 = icmp eq i32 %868, 0
  br i1 %869, label %870, label %881

870:                                              ; preds = %859
  %871 = call %struct.TfLiteIntArray* @TfLiteIntArrayCreate(i32 2) #18
  %872 = load i32, i32* %864, align 4
  %873 = getelementptr inbounds %struct.TfLiteIntArray, %struct.TfLiteIntArray* %871, i64 0, i32 1, i64 0
  store i32 %872, i32* %873, align 4
  %874 = load i32, i32* %865, align 4
  %875 = getelementptr inbounds %struct.TfLiteIntArray, %struct.TfLiteIntArray* %871, i64 0, i32 1, i64 1
  store i32 %874, i32* %875, align 4
  %876 = load i32 (%struct.TfLiteContext*, %struct.TfLiteTensor*, %struct.TfLiteIntArray*)*, i32 (%struct.TfLiteContext*, %struct.TfLiteTensor*, %struct.TfLiteIntArray*)** %493, align 8
  %877 = call i32 %876(%struct.TfLiteContext* %0, %struct.TfLiteTensor* %860, %struct.TfLiteIntArray* %871) #18
  %878 = icmp eq i32 %877, 0
  %879 = xor i1 %878, true
  %880 = zext i1 %879 to i32
  br i1 %878, label %881, label %882

881:                                              ; preds = %859, %870
  br label %882

882:                                              ; preds = %870, %881
  %883 = phi i32 [ 0, %881 ], [ %880, %870 ]
  %884 = phi i32 [ 0, %881 ], [ %877, %870 ]
  call void @llvm.lifetime.end.p0i8(i64 8, i8* nonnull %863) #18
  br label %885

885:                                              ; preds = %808, %882
  %886 = phi i32 [ %883, %882 ], [ %815, %808 ]
  %887 = phi i32 [ %884, %882 ], [ %812, %808 ]
  call void @llvm.lifetime.end.p0i8(i64 4, i8* nonnull %802) #18
  br label %888

888:                                              ; preds = %776, %885
  %889 = phi i32 [ %886, %885 ], [ %784, %776 ]
  %890 = phi i32 [ %887, %885 ], [ %781, %776 ]
  call void @llvm.lifetime.end.p0i8(i64 8, i8* nonnull %769) #18
  br label %891

891:                                              ; preds = %744, %888
  %892 = phi i32 [ %889, %888 ], [ %751, %744 ]
  %893 = phi i32 [ %890, %888 ], [ %748, %744 ]
  call void @llvm.lifetime.end.p0i8(i64 4, i8* nonnull %738) #18
  br label %894

894:                                              ; preds = %891, %713, %684
  %895 = phi i32 [ %691, %684 ], [ %892, %891 ], [ %720, %713 ]
  %896 = phi i32 [ %688, %684 ], [ %893, %891 ], [ %717, %713 ]
  call void @llvm.lifetime.end.p0i8(i64 4, i8* nonnull %678) #18
  br label %897

897:                                              ; preds = %622, %653, %894, %591
  %898 = phi i32 [ %598, %591 ], [ %629, %622 ], [ %895, %894 ], [ %660, %653 ]
  %899 = phi i32 [ %595, %591 ], [ %626, %622 ], [ %896, %894 ], [ %657, %653 ]
  %900 = icmp eq i32 %898, 0
  br i1 %900, label %901, label %2453

901:                                              ; preds = %897
  br i1 %65, label %902, label %2452

902:                                              ; preds = %901
  br i1 %514, label %903, label %1836

903:                                              ; preds = %519, %902
  %904 = getelementptr inbounds %struct.TfLiteNode, %struct.TfLiteNode* %1, i64 0, i32 5
  %905 = bitcast i8** %904 to %struct.TfLiteLSTMParams**
  %906 = load %struct.TfLiteLSTMParams*, %struct.TfLiteLSTMParams** %905, align 8
  %907 = getelementptr inbounds %struct.TfLiteLSTMParams, %struct.TfLiteLSTMParams* %906, i64 0, i32 1
  %908 = load float, float* %907, align 4
  %909 = getelementptr inbounds %struct.TfLiteLSTMParams, %struct.TfLiteLSTMParams* %906, i64 0, i32 2
  %910 = load float, float* %909, align 4
  %911 = load %struct.TfLiteIntArray*, %struct.TfLiteIntArray** %26, align 8
  %912 = getelementptr inbounds %struct.TfLiteIntArray, %struct.TfLiteIntArray* %911, i64 0, i32 1, i64 19
  %913 = load i32, i32* %912, align 4
  %914 = icmp slt i32 %913, 0
  br i1 %914, label %924, label %915

915:                                              ; preds = %903
  %916 = load %struct.TfLiteTensor*, %struct.TfLiteTensor** %154, align 8
  %917 = sext i32 %913 to i64
  %918 = getelementptr inbounds %struct.TfLiteTensor, %struct.TfLiteTensor* %916, i64 %917
  %919 = getelementptr inbounds %struct.TfLiteTensor, %struct.TfLiteTensor* %916, i64 %917, i32 11
  %920 = load i8, i8* %919, align 1, !range !5
  %921 = icmp eq i8 %920, 0
  %922 = icmp eq %struct.TfLiteTensor* %918, null
  %923 = or i1 %921, %922
  br i1 %923, label %924, label %927

924:                                              ; preds = %915, %903
  %925 = getelementptr inbounds %struct.TfLiteContext, %struct.TfLiteContext* %0, i64 0, i32 5
  %926 = load void (%struct.TfLiteContext*, i8*, ...)*, void (%struct.TfLiteContext*, i8*, ...)** %925, align 8
  call void (%struct.TfLiteContext*, i8*, ...) %926(%struct.TfLiteContext* %0, i8* getelementptr inbounds ([23 x i8], [23 x i8]* @.str, i64 0, i64 0), i8* getelementptr inbounds ([61 x i8], [61 x i8]* @.str.3, i64 0, i64 0), i32 73, i8* getelementptr inbounds ([22 x i8], [22 x i8]* @.str.101, i64 0, i64 0)) #18
  br label %1790

927:                                              ; preds = %915
  %928 = load %struct.TfLiteIntArray*, %struct.TfLiteIntArray** %17, align 8
  %929 = getelementptr inbounds %struct.TfLiteIntArray, %struct.TfLiteIntArray* %928, i64 0, i32 1, i64 0
  %930 = load i32, i32* %929, align 4
  %931 = icmp slt i32 %930, 0
  %932 = sext i32 %930 to i64
  %933 = getelementptr inbounds %struct.TfLiteTensor, %struct.TfLiteTensor* %916, i64 %932
  %934 = select i1 %931, %struct.TfLiteTensor* null, %struct.TfLiteTensor* %933
  %935 = getelementptr inbounds %struct.TfLiteTensor, %struct.TfLiteTensor* %934, i64 0, i32 12, i32 1
  %936 = bitcast i8** %935 to %struct.TfLiteAffineQuantization**
  %937 = load %struct.TfLiteAffineQuantization*, %struct.TfLiteAffineQuantization** %936, align 8
  %938 = fcmp ogt float %908, 0.000000e+00
  br i1 %938, label %939, label %953

939:                                              ; preds = %927
  %940 = getelementptr inbounds %struct.TfLiteTensor, %struct.TfLiteTensor* %916, i64 %917, i32 12, i32 1
  %941 = bitcast i8** %940 to %struct.TfLiteAffineQuantization**
  %942 = load %struct.TfLiteAffineQuantization*, %struct.TfLiteAffineQuantization** %941, align 8
  %943 = getelementptr inbounds %struct.TfLiteAffineQuantization, %struct.TfLiteAffineQuantization* %942, i64 0, i32 0
  %944 = load %struct.TfLiteFloatArray*, %struct.TfLiteFloatArray** %943, align 8
  %945 = getelementptr inbounds %struct.TfLiteFloatArray, %struct.TfLiteFloatArray* %944, i64 0, i32 1, i64 0
  %946 = load float, float* %945, align 4
  %947 = fdiv float %908, %946
  %948 = fcmp olt float %947, -3.276800e+04
  %949 = select i1 %948, float -3.276800e+04, float %947
  %950 = fcmp ogt float %949, 3.276700e+04
  %951 = select i1 %950, float 3.276700e+04, float %949
  %952 = fptosi float %951 to i16
  br label %953

953:                                              ; preds = %939, %927
  %954 = phi i16 [ %952, %939 ], [ 0, %927 ]
  %955 = getelementptr inbounds %"struct.tflite::ops::builtin::lstm::OpData", %"struct.tflite::ops::builtin::lstm::OpData"* %16, i64 0, i32 5, i32 34
  store i16 %954, i16* %955, align 8
  %956 = fcmp ogt float %910, 0.000000e+00
  br i1 %956, label %957, label %968

957:                                              ; preds = %953
  %958 = getelementptr inbounds %struct.TfLiteAffineQuantization, %struct.TfLiteAffineQuantization* %937, i64 0, i32 0
  %959 = load %struct.TfLiteFloatArray*, %struct.TfLiteFloatArray** %958, align 8
  %960 = getelementptr inbounds %struct.TfLiteFloatArray, %struct.TfLiteFloatArray* %959, i64 0, i32 1, i64 0
  %961 = load float, float* %960, align 4
  %962 = fdiv float %910, %961
  %963 = fcmp olt float %962, -1.280000e+02
  %964 = select i1 %963, float -1.280000e+02, float %962
  %965 = fcmp ogt float %964, 1.270000e+02
  %966 = select i1 %965, float 1.270000e+02, float %964
  %967 = fptosi float %966 to i8
  br label %968

968:                                              ; preds = %957, %953
  %969 = phi i8 [ %967, %957 ], [ 0, %953 ]
  %970 = getelementptr inbounds %"struct.tflite::ops::builtin::lstm::OpData", %"struct.tflite::ops::builtin::lstm::OpData"* %16, i64 0, i32 5, i32 35
  store i8 %969, i8* %970, align 2
  %971 = load %"struct.tflite::ops::builtin::lstm::OpData"*, %"struct.tflite::ops::builtin::lstm::OpData"** %15, align 8
  %972 = getelementptr inbounds %"struct.tflite::ops::builtin::lstm::OpData", %"struct.tflite::ops::builtin::lstm::OpData"* %971, i64 0, i32 1
  %973 = load i8, i8* %972, align 4, !range !5
  %974 = icmp ne i8 %973, 0
  %975 = load %struct.TfLiteIntArray*, %struct.TfLiteIntArray** %26, align 8
  %976 = getelementptr inbounds %struct.TfLiteIntArray, %struct.TfLiteIntArray* %975, i64 0, i32 1, i64 0
  %977 = load i32, i32* %976, align 4
  %978 = icmp slt i32 %977, 0
  br i1 %978, label %983, label %979

979:                                              ; preds = %968
  %980 = load %struct.TfLiteTensor*, %struct.TfLiteTensor** %154, align 8
  %981 = sext i32 %977 to i64
  %982 = getelementptr inbounds %struct.TfLiteTensor, %struct.TfLiteTensor* %980, i64 %981
  br label %983

983:                                              ; preds = %979, %968
  %984 = phi %struct.TfLiteTensor* [ %982, %979 ], [ null, %968 ]
  %985 = getelementptr inbounds %struct.TfLiteIntArray, %struct.TfLiteIntArray* %975, i64 0, i32 1, i64 1
  %986 = load i32, i32* %985, align 4
  %987 = icmp slt i32 %986, 0
  br i1 %987, label %992, label %988

988:                                              ; preds = %983
  %989 = load %struct.TfLiteTensor*, %struct.TfLiteTensor** %154, align 8
  %990 = sext i32 %986 to i64
  %991 = getelementptr inbounds %struct.TfLiteTensor, %struct.TfLiteTensor* %989, i64 %990
  br label %992

992:                                              ; preds = %988, %983
  %993 = phi %struct.TfLiteTensor* [ %991, %988 ], [ null, %983 ]
  %994 = getelementptr inbounds %struct.TfLiteIntArray, %struct.TfLiteIntArray* %975, i64 0, i32 1, i64 2
  %995 = load i32, i32* %994, align 4
  %996 = icmp slt i32 %995, 0
  br i1 %996, label %1001, label %997

997:                                              ; preds = %992
  %998 = load %struct.TfLiteTensor*, %struct.TfLiteTensor** %154, align 8
  %999 = sext i32 %995 to i64
  %1000 = getelementptr inbounds %struct.TfLiteTensor, %struct.TfLiteTensor* %998, i64 %999
  br label %1001

1001:                                             ; preds = %997, %992
  %1002 = phi %struct.TfLiteTensor* [ %1000, %997 ], [ null, %992 ]
  %1003 = getelementptr inbounds %struct.TfLiteIntArray, %struct.TfLiteIntArray* %975, i64 0, i32 1, i64 3
  %1004 = load i32, i32* %1003, align 4
  %1005 = icmp slt i32 %1004, 0
  br i1 %1005, label %1010, label %1006

1006:                                             ; preds = %1001
  %1007 = load %struct.TfLiteTensor*, %struct.TfLiteTensor** %154, align 8
  %1008 = sext i32 %1004 to i64
  %1009 = getelementptr inbounds %struct.TfLiteTensor, %struct.TfLiteTensor* %1007, i64 %1008
  br label %1010

1010:                                             ; preds = %1006, %1001
  %1011 = phi %struct.TfLiteTensor* [ %1009, %1006 ], [ null, %1001 ]
  %1012 = getelementptr inbounds %struct.TfLiteIntArray, %struct.TfLiteIntArray* %975, i64 0, i32 1, i64 4
  %1013 = load i32, i32* %1012, align 4
  %1014 = icmp slt i32 %1013, 0
  br i1 %1014, label %1019, label %1015

1015:                                             ; preds = %1010
  %1016 = load %struct.TfLiteTensor*, %struct.TfLiteTensor** %154, align 8
  %1017 = sext i32 %1013 to i64
  %1018 = getelementptr inbounds %struct.TfLiteTensor, %struct.TfLiteTensor* %1016, i64 %1017
  br label %1019

1019:                                             ; preds = %1015, %1010
  %1020 = phi %struct.TfLiteTensor* [ %1018, %1015 ], [ null, %1010 ]
  %1021 = getelementptr inbounds %struct.TfLiteIntArray, %struct.TfLiteIntArray* %975, i64 0, i32 1, i64 5
  %1022 = load i32, i32* %1021, align 4
  %1023 = icmp slt i32 %1022, 0
  br i1 %1023, label %1028, label %1024

1024:                                             ; preds = %1019
  %1025 = load %struct.TfLiteTensor*, %struct.TfLiteTensor** %154, align 8
  %1026 = sext i32 %1022 to i64
  %1027 = getelementptr inbounds %struct.TfLiteTensor, %struct.TfLiteTensor* %1025, i64 %1026
  br label %1028

1028:                                             ; preds = %1024, %1019
  %1029 = phi %struct.TfLiteTensor* [ %1027, %1024 ], [ null, %1019 ]
  %1030 = getelementptr inbounds %struct.TfLiteIntArray, %struct.TfLiteIntArray* %975, i64 0, i32 1, i64 6
  %1031 = load i32, i32* %1030, align 4
  %1032 = icmp slt i32 %1031, 0
  br i1 %1032, label %1037, label %1033

1033:                                             ; preds = %1028
  %1034 = load %struct.TfLiteTensor*, %struct.TfLiteTensor** %154, align 8
  %1035 = sext i32 %1031 to i64
  %1036 = getelementptr inbounds %struct.TfLiteTensor, %struct.TfLiteTensor* %1034, i64 %1035
  br label %1037

1037:                                             ; preds = %1033, %1028
  %1038 = phi %struct.TfLiteTensor* [ %1036, %1033 ], [ null, %1028 ]
  %1039 = getelementptr inbounds %struct.TfLiteIntArray, %struct.TfLiteIntArray* %975, i64 0, i32 1, i64 7
  %1040 = load i32, i32* %1039, align 4
  %1041 = icmp slt i32 %1040, 0
  br i1 %1041, label %1046, label %1042

1042:                                             ; preds = %1037
  %1043 = load %struct.TfLiteTensor*, %struct.TfLiteTensor** %154, align 8
  %1044 = sext i32 %1040 to i64
  %1045 = getelementptr inbounds %struct.TfLiteTensor, %struct.TfLiteTensor* %1043, i64 %1044
  br label %1046

1046:                                             ; preds = %1042, %1037
  %1047 = phi %struct.TfLiteTensor* [ %1045, %1042 ], [ null, %1037 ]
  %1048 = getelementptr inbounds %struct.TfLiteIntArray, %struct.TfLiteIntArray* %975, i64 0, i32 1, i64 8
  %1049 = load i32, i32* %1048, align 4
  %1050 = icmp slt i32 %1049, 0
  br i1 %1050, label %1055, label %1051

1051:                                             ; preds = %1046
  %1052 = load %struct.TfLiteTensor*, %struct.TfLiteTensor** %154, align 8
  %1053 = sext i32 %1049 to i64
  %1054 = getelementptr inbounds %struct.TfLiteTensor, %struct.TfLiteTensor* %1052, i64 %1053
  br label %1055

1055:                                             ; preds = %1051, %1046
  %1056 = phi %struct.TfLiteTensor* [ %1054, %1051 ], [ null, %1046 ]
  %1057 = getelementptr inbounds %struct.TfLiteIntArray, %struct.TfLiteIntArray* %975, i64 0, i32 1, i64 9
  %1058 = load i32, i32* %1057, align 4
  %1059 = icmp slt i32 %1058, 0
  br i1 %1059, label %1064, label %1060

1060:                                             ; preds = %1055
  %1061 = load %struct.TfLiteTensor*, %struct.TfLiteTensor** %154, align 8
  %1062 = sext i32 %1058 to i64
  %1063 = getelementptr inbounds %struct.TfLiteTensor, %struct.TfLiteTensor* %1061, i64 %1062
  br label %1064

1064:                                             ; preds = %1060, %1055
  %1065 = phi %struct.TfLiteTensor* [ %1063, %1060 ], [ null, %1055 ]
  %1066 = getelementptr inbounds %struct.TfLiteIntArray, %struct.TfLiteIntArray* %975, i64 0, i32 1, i64 10
  %1067 = load i32, i32* %1066, align 4
  %1068 = icmp slt i32 %1067, 0
  br i1 %1068, label %1073, label %1069

1069:                                             ; preds = %1064
  %1070 = load %struct.TfLiteTensor*, %struct.TfLiteTensor** %154, align 8
  %1071 = sext i32 %1067 to i64
  %1072 = getelementptr inbounds %struct.TfLiteTensor, %struct.TfLiteTensor* %1070, i64 %1071
  br label %1073

1073:                                             ; preds = %1069, %1064
  %1074 = phi %struct.TfLiteTensor* [ %1072, %1069 ], [ null, %1064 ]
  %1075 = getelementptr inbounds %struct.TfLiteIntArray, %struct.TfLiteIntArray* %975, i64 0, i32 1, i64 11
  %1076 = load i32, i32* %1075, align 4
  %1077 = icmp slt i32 %1076, 0
  br i1 %1077, label %1082, label %1078

1078:                                             ; preds = %1073
  %1079 = load %struct.TfLiteTensor*, %struct.TfLiteTensor** %154, align 8
  %1080 = sext i32 %1076 to i64
  %1081 = getelementptr inbounds %struct.TfLiteTensor, %struct.TfLiteTensor* %1079, i64 %1080
  br label %1082

1082:                                             ; preds = %1078, %1073
  %1083 = phi %struct.TfLiteTensor* [ %1081, %1078 ], [ null, %1073 ]
  %1084 = getelementptr inbounds %struct.TfLiteIntArray, %struct.TfLiteIntArray* %975, i64 0, i32 1, i64 20
  %1085 = load i32, i32* %1084, align 4
  %1086 = icmp slt i32 %1085, 0
  br i1 %1086, label %1091, label %1087

1087:                                             ; preds = %1082
  %1088 = load %struct.TfLiteTensor*, %struct.TfLiteTensor** %154, align 8
  %1089 = sext i32 %1085 to i64
  %1090 = getelementptr inbounds %struct.TfLiteTensor, %struct.TfLiteTensor* %1088, i64 %1089
  br label %1091

1091:                                             ; preds = %1087, %1082
  %1092 = phi %struct.TfLiteTensor* [ %1090, %1087 ], [ null, %1082 ]
  %1093 = getelementptr inbounds %struct.TfLiteIntArray, %struct.TfLiteIntArray* %975, i64 0, i32 1, i64 21
  %1094 = load i32, i32* %1093, align 4
  %1095 = icmp slt i32 %1094, 0
  br i1 %1095, label %1100, label %1096

1096:                                             ; preds = %1091
  %1097 = load %struct.TfLiteTensor*, %struct.TfLiteTensor** %154, align 8
  %1098 = sext i32 %1094 to i64
  %1099 = getelementptr inbounds %struct.TfLiteTensor, %struct.TfLiteTensor* %1097, i64 %1098
  br label %1100

1100:                                             ; preds = %1096, %1091
  %1101 = phi %struct.TfLiteTensor* [ %1099, %1096 ], [ null, %1091 ]
  %1102 = getelementptr inbounds %struct.TfLiteIntArray, %struct.TfLiteIntArray* %975, i64 0, i32 1, i64 22
  %1103 = load i32, i32* %1102, align 4
  %1104 = icmp slt i32 %1103, 0
  br i1 %1104, label %1109, label %1105

1105:                                             ; preds = %1100
  %1106 = load %struct.TfLiteTensor*, %struct.TfLiteTensor** %154, align 8
  %1107 = sext i32 %1103 to i64
  %1108 = getelementptr inbounds %struct.TfLiteTensor, %struct.TfLiteTensor* %1106, i64 %1107
  br label %1109

1109:                                             ; preds = %1105, %1100
  %1110 = phi %struct.TfLiteTensor* [ %1108, %1105 ], [ null, %1100 ]
  %1111 = getelementptr inbounds %struct.TfLiteIntArray, %struct.TfLiteIntArray* %975, i64 0, i32 1, i64 23
  %1112 = load i32, i32* %1111, align 4
  %1113 = icmp slt i32 %1112, 0
  br i1 %1113, label %1118, label %1114

1114:                                             ; preds = %1109
  %1115 = load %struct.TfLiteTensor*, %struct.TfLiteTensor** %154, align 8
  %1116 = sext i32 %1112 to i64
  %1117 = getelementptr inbounds %struct.TfLiteTensor, %struct.TfLiteTensor* %1115, i64 %1116
  br label %1118

1118:                                             ; preds = %1114, %1109
  %1119 = phi %struct.TfLiteTensor* [ %1117, %1114 ], [ null, %1109 ]
  %1120 = getelementptr inbounds %struct.TfLiteIntArray, %struct.TfLiteIntArray* %975, i64 0, i32 1, i64 16
  %1121 = load i32, i32* %1120, align 4
  %1122 = icmp slt i32 %1121, 0
  br i1 %1122, label %1127, label %1123

1123:                                             ; preds = %1118
  %1124 = load %struct.TfLiteTensor*, %struct.TfLiteTensor** %154, align 8
  %1125 = sext i32 %1121 to i64
  %1126 = getelementptr inbounds %struct.TfLiteTensor, %struct.TfLiteTensor* %1124, i64 %1125
  br label %1127

1127:                                             ; preds = %1123, %1118
  %1128 = phi %struct.TfLiteTensor* [ %1126, %1123 ], [ null, %1118 ]
  %1129 = getelementptr inbounds %struct.TfLiteIntArray, %struct.TfLiteIntArray* %975, i64 0, i32 1, i64 18
  %1130 = load i32, i32* %1129, align 4
  %1131 = icmp slt i32 %1130, 0
  br i1 %1131, label %1141, label %1132

1132:                                             ; preds = %1127
  %1133 = load %struct.TfLiteTensor*, %struct.TfLiteTensor** %154, align 8
  %1134 = sext i32 %1130 to i64
  %1135 = getelementptr inbounds %struct.TfLiteTensor, %struct.TfLiteTensor* %1133, i64 %1134
  %1136 = getelementptr inbounds %struct.TfLiteTensor, %struct.TfLiteTensor* %1133, i64 %1134, i32 11
  %1137 = load i8, i8* %1136, align 1, !range !5
  %1138 = icmp eq i8 %1137, 0
  %1139 = icmp eq %struct.TfLiteTensor* %1135, null
  %1140 = or i1 %1138, %1139
  br i1 %1140, label %1141, label %1144

1141:                                             ; preds = %1132, %1127
  %1142 = getelementptr inbounds %struct.TfLiteContext, %struct.TfLiteContext* %0, i64 0, i32 5
  %1143 = load void (%struct.TfLiteContext*, i8*, ...)*, void (%struct.TfLiteContext*, i8*, ...)** %1142, align 8
  call void (%struct.TfLiteContext*, i8*, ...) %1143(%struct.TfLiteContext* %0, i8* getelementptr inbounds ([23 x i8], [23 x i8]* @.str, i64 0, i64 0), i8* getelementptr inbounds ([61 x i8], [61 x i8]* @.str.3, i64 0, i64 0), i32 139, i8* getelementptr inbounds ([24 x i8], [24 x i8]* @.str.93, i64 0, i64 0)) #18
  br label %1790

1144:                                             ; preds = %1132
  %1145 = icmp eq %struct.TfLiteTensor* %993, null
  %1146 = icmp ne %struct.TfLiteTensor* %1083, null
  %1147 = icmp eq %struct.TfLiteTensor* %1128, null
  %1148 = bitcast %"class.std::__1::vector.25"* %3 to i8*
  call void @llvm.lifetime.start.p0i8(i64 24, i8* nonnull %1148) #18
  %1149 = getelementptr inbounds %"class.std::__1::vector.25", %"class.std::__1::vector.25"* %3, i64 0, i32 0, i32 0
  %1150 = getelementptr inbounds %"class.std::__1::vector.25", %"class.std::__1::vector.25"* %3, i64 0, i32 0, i32 1
  %1151 = getelementptr inbounds %"class.std::__1::vector.25", %"class.std::__1::vector.25"* %3, i64 0, i32 0, i32 2, i32 0, i32 0
  call void @llvm.memset.p0i8.i64(i8* nonnull align 8 %1148, i8 0, i64 24, i1 false) #18
  %1152 = bitcast %"class.std::__1::vector.32"* %4 to i8*
  call void @llvm.lifetime.start.p0i8(i64 24, i8* nonnull %1152) #18
  %1153 = getelementptr inbounds %"class.std::__1::vector.32", %"class.std::__1::vector.32"* %4, i64 0, i32 0, i32 0
  %1154 = getelementptr inbounds %"class.std::__1::vector.32", %"class.std::__1::vector.32"* %4, i64 0, i32 0, i32 1
  %1155 = getelementptr inbounds %"class.std::__1::vector.32", %"class.std::__1::vector.32"* %4, i64 0, i32 0, i32 2, i32 0, i32 0
  call void @llvm.memset.p0i8.i64(i8* nonnull align 8 %1152, i8 0, i64 24, i1 false) #18
  %1156 = bitcast float** %1150 to i64*
  %1157 = bitcast %"class.std::__1::vector.25"* %3 to i64*
  %1158 = bitcast float** %1151 to i64*
  %1159 = bitcast i32** %1154 to i64*
  %1160 = bitcast %"class.std::__1::vector.32"* %4 to i64*
  %1161 = bitcast i32** %1155 to i64*
  br label %1297

1162:                                             ; preds = %1545
  %1163 = load %struct.TfLiteIntArray*, %struct.TfLiteIntArray** %505, align 8
  %1164 = getelementptr inbounds %struct.TfLiteIntArray, %struct.TfLiteIntArray* %1163, i64 0, i32 1, i64 4
  %1165 = load i32, i32* %1164, align 4
  %1166 = icmp slt i32 %1165, 0
  br i1 %1166, label %1171, label %1167

1167:                                             ; preds = %1162
  %1168 = load %struct.TfLiteTensor*, %struct.TfLiteTensor** %154, align 8
  %1169 = sext i32 %1165 to i64
  %1170 = getelementptr inbounds %struct.TfLiteTensor, %struct.TfLiteTensor* %1168, i64 %1169
  br label %1171

1171:                                             ; preds = %1167, %1162
  %1172 = phi %struct.TfLiteTensor* [ %1170, %1167 ], [ null, %1162 ]
  %1173 = getelementptr inbounds %struct.TfLiteTensor, %struct.TfLiteTensor* %1172, i64 0, i32 12, i32 1
  %1174 = bitcast i8** %1173 to %struct.TfLiteAffineQuantization**
  %1175 = load %struct.TfLiteAffineQuantization*, %struct.TfLiteAffineQuantization** %1174, align 8
  %1176 = getelementptr inbounds %struct.TfLiteAffineQuantization, %struct.TfLiteAffineQuantization* %1175, i64 0, i32 0
  %1177 = load %struct.TfLiteFloatArray*, %struct.TfLiteFloatArray** %1176, align 8
  %1178 = getelementptr inbounds %struct.TfLiteFloatArray, %struct.TfLiteFloatArray* %1177, i64 0, i32 1, i64 0
  %1179 = load float*, float** %1150, align 8
  %1180 = load float*, float** %1151, align 8
  %1181 = icmp eq float* %1179, %1180
  %1182 = ptrtoint float* %1180 to i64
  br i1 %1181, label %1191, label %1183

1183:                                             ; preds = %1171
  %1184 = bitcast float* %1178 to i32*
  %1185 = load i32, i32* %1184, align 4
  %1186 = bitcast float* %1179 to i32*
  store i32 %1185, i32* %1186, align 4
  %1187 = getelementptr inbounds float, float* %1179, i64 1
  %1188 = ptrtoint float* %1187 to i64
  store i64 %1188, i64* %1156, align 8
  %1189 = load i32*, i32** %1154, align 8
  %1190 = ptrtoint i32* %1189 to i64
  br label %1237

1191:                                             ; preds = %1171
  %1192 = ptrtoint float* %1179 to i64
  %1193 = load i64, i64* %1157, align 8
  %1194 = sub i64 %1192, %1193
  %1195 = ashr exact i64 %1194, 2
  %1196 = add nsw i64 %1195, 1
  %1197 = icmp ugt i64 %1196, 4611686018427387903
  br i1 %1197, label %1198, label %1200

1198:                                             ; preds = %1191
  %1199 = bitcast %"class.std::__1::vector.25"* %3 to %"class.std::__1::__vector_base_common"*
  call void @_ZNKSt3__120__vector_base_commonILb1EE20__throw_length_errorEv(%"class.std::__1::__vector_base_common"* nonnull %1199) #19
  unreachable

1200:                                             ; preds = %1191
  %1201 = sub i64 %1182, %1193
  %1202 = ashr exact i64 %1201, 2
  %1203 = icmp ult i64 %1202, 2305843009213693951
  br i1 %1203, label %1204, label %1212

1204:                                             ; preds = %1200
  %1205 = ashr exact i64 %1201, 1
  %1206 = icmp ult i64 %1205, %1196
  %1207 = select i1 %1206, i64 %1196, i64 %1205
  %1208 = icmp eq i64 %1207, 0
  br i1 %1208, label %1217, label %1209

1209:                                             ; preds = %1204
  %1210 = icmp ugt i64 %1207, 4611686018427387903
  br i1 %1210, label %1211, label %1212

1211:                                             ; preds = %1209
  call void @abort() #19
  unreachable

1212:                                             ; preds = %1209, %1200
  %1213 = phi i64 [ %1207, %1209 ], [ 4611686018427387903, %1200 ]
  %1214 = shl i64 %1213, 2
  %1215 = call i8* @_Znwm(i64 %1214) #17
  %1216 = bitcast i8* %1215 to float*
  br label %1217

1217:                                             ; preds = %1212, %1204
  %1218 = phi i64 [ %1213, %1212 ], [ 0, %1204 ]
  %1219 = phi i8* [ %1215, %1212 ], [ null, %1204 ]
  %1220 = phi float* [ %1216, %1212 ], [ null, %1204 ]
  %1221 = getelementptr inbounds float, float* %1220, i64 %1195
  %1222 = getelementptr inbounds float, float* %1220, i64 %1218
  %1223 = ptrtoint float* %1222 to i64
  %1224 = bitcast float* %1178 to i32*
  %1225 = load i32, i32* %1224, align 4
  %1226 = bitcast float* %1221 to i32*
  store i32 %1225, i32* %1226, align 4
  %1227 = getelementptr inbounds float, float* %1221, i64 1
  %1228 = ptrtoint float* %1227 to i64
  %1229 = ptrtoint float* %1220 to i64
  %1230 = icmp sgt i64 %1194, 0
  br i1 %1230, label %1231, label %1233

1231:                                             ; preds = %1217
  %1232 = inttoptr i64 %1193 to i8*
  call void @llvm.memcpy.p0i8.p0i8.i64(i8* align 4 %1219, i8* align 4 %1232, i64 %1194, i1 false) #18
  br label %1233

1233:                                             ; preds = %1231, %1217
  store i64 %1229, i64* %1157, align 8
  store i64 %1228, i64* %1156, align 8
  store i64 %1223, i64* %1158, align 8
  %1234 = icmp eq i64 %1193, 0
  br i1 %1234, label %1237, label %1235

1235:                                             ; preds = %1233
  %1236 = inttoptr i64 %1193 to i8*
  call void @_ZdlPv(i8* %1236) #17
  br label %1237

1237:                                             ; preds = %1235, %1233, %1183
  %1238 = phi i64 [ %1190, %1183 ], [ %1547, %1233 ], [ %1547, %1235 ]
  %1239 = phi i32* [ %1189, %1183 ], [ %1546, %1233 ], [ %1546, %1235 ]
  %1240 = getelementptr inbounds %struct.TfLiteAffineQuantization, %struct.TfLiteAffineQuantization* %1175, i64 0, i32 1
  %1241 = load %struct.TfLiteIntArray*, %struct.TfLiteIntArray** %1240, align 8
  %1242 = getelementptr inbounds %struct.TfLiteIntArray, %struct.TfLiteIntArray* %1241, i64 0, i32 1, i64 0
  %1243 = load i32*, i32** %1155, align 8
  %1244 = icmp eq i32* %1239, %1243
  br i1 %1244, label %1249, label %1245

1245:                                             ; preds = %1237
  %1246 = load i32, i32* %1242, align 4
  store i32 %1246, i32* %1239, align 4
  %1247 = getelementptr inbounds i32, i32* %1239, i64 1
  %1248 = ptrtoint i32* %1247 to i64
  store i64 %1248, i64* %1159, align 8
  br label %1295

1249:                                             ; preds = %1237
  %1250 = ptrtoint i32* %1239 to i64
  %1251 = load i64, i64* %1160, align 8
  %1252 = sub i64 %1250, %1251
  %1253 = ashr exact i64 %1252, 2
  %1254 = add nsw i64 %1253, 1
  %1255 = icmp ugt i64 %1254, 4611686018427387903
  br i1 %1255, label %1256, label %1258

1256:                                             ; preds = %1249
  %1257 = bitcast %"class.std::__1::vector.32"* %4 to %"class.std::__1::__vector_base_common"*
  call void @_ZNKSt3__120__vector_base_commonILb1EE20__throw_length_errorEv(%"class.std::__1::__vector_base_common"* nonnull %1257) #19
  unreachable

1258:                                             ; preds = %1249
  %1259 = icmp ult i64 %1253, 2305843009213693951
  br i1 %1259, label %1260, label %1268

1260:                                             ; preds = %1258
  %1261 = ashr exact i64 %1252, 1
  %1262 = icmp ult i64 %1261, %1254
  %1263 = select i1 %1262, i64 %1254, i64 %1261
  %1264 = icmp eq i64 %1263, 0
  br i1 %1264, label %1273, label %1265

1265:                                             ; preds = %1260
  %1266 = icmp ugt i64 %1263, 4611686018427387903
  br i1 %1266, label %1267, label %1268

1267:                                             ; preds = %1265
  call void @abort() #19
  unreachable

1268:                                             ; preds = %1265, %1258
  %1269 = phi i64 [ %1263, %1265 ], [ 4611686018427387903, %1258 ]
  %1270 = shl i64 %1269, 2
  %1271 = call i8* @_Znwm(i64 %1270) #17
  %1272 = bitcast i8* %1271 to i32*
  br label %1273

1273:                                             ; preds = %1268, %1260
  %1274 = phi i64 [ %1269, %1268 ], [ 0, %1260 ]
  %1275 = phi i32* [ %1272, %1268 ], [ null, %1260 ]
  %1276 = getelementptr inbounds i32, i32* %1275, i64 %1253
  %1277 = getelementptr inbounds i32, i32* %1275, i64 %1274
  %1278 = ptrtoint i32* %1277 to i64
  %1279 = load i32, i32* %1242, align 4
  store i32 %1279, i32* %1276, align 4
  %1280 = getelementptr inbounds i32, i32* %1276, i64 1
  %1281 = ptrtoint i32* %1280 to i64
  %1282 = sub i64 %1238, %1251
  %1283 = ashr exact i64 %1282, 2
  %1284 = sub nsw i64 0, %1283
  %1285 = getelementptr inbounds i32, i32* %1276, i64 %1284
  %1286 = ptrtoint i32* %1285 to i64
  %1287 = icmp sgt i64 %1282, 0
  br i1 %1287, label %1288, label %1291

1288:                                             ; preds = %1273
  %1289 = bitcast i32* %1285 to i8*
  %1290 = inttoptr i64 %1251 to i8*
  call void @llvm.memcpy.p0i8.p0i8.i64(i8* align 4 %1289, i8* align 4 %1290, i64 %1282, i1 false) #18
  br label %1291

1291:                                             ; preds = %1288, %1273
  store i64 %1286, i64* %1160, align 8
  store i64 %1281, i64* %1159, align 8
  store i64 %1278, i64* %1161, align 8
  %1292 = icmp eq i64 %1251, 0
  br i1 %1292, label %1295, label %1293

1293:                                             ; preds = %1291
  %1294 = inttoptr i64 %1251 to i8*
  call void @_ZdlPv(i8* %1294) #17
  br label %1295

1295:                                             ; preds = %1293, %1291, %1245
  %1296 = bitcast i32* %5 to i8*
  call void @llvm.lifetime.start.p0i8(i64 4, i8* nonnull %1296) #18
  store i32 1, i32* %5, align 4
  br i1 %1145, label %1557, label %1550

1297:                                             ; preds = %1545, %1144
  %1298 = phi i32* [ null, %1144 ], [ %1546, %1545 ]
  %1299 = phi i64 [ 0, %1144 ], [ %1547, %1545 ]
  %1300 = phi i64 [ 0, %1144 ], [ %1548, %1545 ]
  br i1 %974, label %1301, label %1434

1301:                                             ; preds = %1297
  %1302 = load %struct.TfLiteIntArray*, %struct.TfLiteIntArray** %505, align 8
  %1303 = getelementptr inbounds %struct.TfLiteIntArray, %struct.TfLiteIntArray* %1302, i64 0, i32 1, i64 %1300
  %1304 = load i32, i32* %1303, align 4
  %1305 = icmp slt i32 %1304, 0
  br i1 %1305, label %1310, label %1306

1306:                                             ; preds = %1301
  %1307 = load %struct.TfLiteTensor*, %struct.TfLiteTensor** %154, align 8
  %1308 = sext i32 %1304 to i64
  %1309 = getelementptr inbounds %struct.TfLiteTensor, %struct.TfLiteTensor* %1307, i64 %1308
  br label %1310

1310:                                             ; preds = %1306, %1301
  %1311 = phi %struct.TfLiteTensor* [ %1309, %1306 ], [ null, %1301 ]
  %1312 = getelementptr inbounds %struct.TfLiteTensor, %struct.TfLiteTensor* %1311, i64 0, i32 12, i32 1
  %1313 = bitcast i8** %1312 to %struct.TfLiteAffineQuantization**
  %1314 = load %struct.TfLiteAffineQuantization*, %struct.TfLiteAffineQuantization** %1313, align 8
  %1315 = getelementptr inbounds %struct.TfLiteAffineQuantization, %struct.TfLiteAffineQuantization* %1314, i64 0, i32 0
  %1316 = load %struct.TfLiteFloatArray*, %struct.TfLiteFloatArray** %1315, align 8
  %1317 = getelementptr inbounds %struct.TfLiteFloatArray, %struct.TfLiteFloatArray* %1316, i64 0, i32 1, i64 0
  %1318 = load float*, float** %1150, align 8
  %1319 = load float*, float** %1151, align 8
  %1320 = icmp eq float* %1318, %1319
  %1321 = ptrtoint float* %1319 to i64
  br i1 %1320, label %1330, label %1322

1322:                                             ; preds = %1310
  %1323 = bitcast float* %1317 to i32*
  %1324 = load i32, i32* %1323, align 4
  %1325 = bitcast float* %1318 to i32*
  store i32 %1324, i32* %1325, align 4
  %1326 = getelementptr inbounds float, float* %1318, i64 1
  %1327 = ptrtoint float* %1326 to i64
  store i64 %1327, i64* %1156, align 8
  %1328 = load i32*, i32** %1154, align 8
  %1329 = ptrtoint i32* %1328 to i64
  br label %1376

1330:                                             ; preds = %1310
  %1331 = ptrtoint float* %1318 to i64
  %1332 = load i64, i64* %1157, align 8
  %1333 = sub i64 %1331, %1332
  %1334 = ashr exact i64 %1333, 2
  %1335 = add nsw i64 %1334, 1
  %1336 = icmp ugt i64 %1335, 4611686018427387903
  br i1 %1336, label %1337, label %1339

1337:                                             ; preds = %1330
  %1338 = bitcast %"class.std::__1::vector.25"* %3 to %"class.std::__1::__vector_base_common"*
  call void @_ZNKSt3__120__vector_base_commonILb1EE20__throw_length_errorEv(%"class.std::__1::__vector_base_common"* nonnull %1338) #19
  unreachable

1339:                                             ; preds = %1330
  %1340 = sub i64 %1321, %1332
  %1341 = ashr exact i64 %1340, 2
  %1342 = icmp ult i64 %1341, 2305843009213693951
  br i1 %1342, label %1343, label %1351

1343:                                             ; preds = %1339
  %1344 = ashr exact i64 %1340, 1
  %1345 = icmp ult i64 %1344, %1335
  %1346 = select i1 %1345, i64 %1335, i64 %1344
  %1347 = icmp eq i64 %1346, 0
  br i1 %1347, label %1356, label %1348

1348:                                             ; preds = %1343
  %1349 = icmp ugt i64 %1346, 4611686018427387903
  br i1 %1349, label %1350, label %1351

1350:                                             ; preds = %1348
  call void @abort() #19
  unreachable

1351:                                             ; preds = %1348, %1339
  %1352 = phi i64 [ %1346, %1348 ], [ 4611686018427387903, %1339 ]
  %1353 = shl i64 %1352, 2
  %1354 = call i8* @_Znwm(i64 %1353) #17
  %1355 = bitcast i8* %1354 to float*
  br label %1356

1356:                                             ; preds = %1351, %1343
  %1357 = phi i64 [ %1352, %1351 ], [ 0, %1343 ]
  %1358 = phi i8* [ %1354, %1351 ], [ null, %1343 ]
  %1359 = phi float* [ %1355, %1351 ], [ null, %1343 ]
  %1360 = getelementptr inbounds float, float* %1359, i64 %1334
  %1361 = getelementptr inbounds float, float* %1359, i64 %1357
  %1362 = ptrtoint float* %1361 to i64
  %1363 = bitcast float* %1317 to i32*
  %1364 = load i32, i32* %1363, align 4
  %1365 = bitcast float* %1360 to i32*
  store i32 %1364, i32* %1365, align 4
  %1366 = getelementptr inbounds float, float* %1360, i64 1
  %1367 = ptrtoint float* %1366 to i64
  %1368 = ptrtoint float* %1359 to i64
  %1369 = icmp sgt i64 %1333, 0
  br i1 %1369, label %1370, label %1372

1370:                                             ; preds = %1356
  %1371 = inttoptr i64 %1332 to i8*
  call void @llvm.memcpy.p0i8.p0i8.i64(i8* align 4 %1358, i8* align 4 %1371, i64 %1333, i1 false) #18
  br label %1372

1372:                                             ; preds = %1370, %1356
  store i64 %1368, i64* %1157, align 8
  store i64 %1367, i64* %1156, align 8
  store i64 %1362, i64* %1158, align 8
  %1373 = icmp eq i64 %1332, 0
  br i1 %1373, label %1376, label %1374

1374:                                             ; preds = %1372
  %1375 = inttoptr i64 %1332 to i8*
  call void @_ZdlPv(i8* %1375) #17
  br label %1376

1376:                                             ; preds = %1374, %1372, %1322
  %1377 = phi i64 [ %1329, %1322 ], [ %1299, %1372 ], [ %1299, %1374 ]
  %1378 = phi i32* [ %1328, %1322 ], [ %1298, %1372 ], [ %1298, %1374 ]
  %1379 = getelementptr inbounds %struct.TfLiteAffineQuantization, %struct.TfLiteAffineQuantization* %1314, i64 0, i32 1
  %1380 = load %struct.TfLiteIntArray*, %struct.TfLiteIntArray** %1379, align 8
  %1381 = getelementptr inbounds %struct.TfLiteIntArray, %struct.TfLiteIntArray* %1380, i64 0, i32 1, i64 0
  %1382 = load i32*, i32** %1155, align 8
  %1383 = icmp eq i32* %1378, %1382
  br i1 %1383, label %1388, label %1384

1384:                                             ; preds = %1376
  %1385 = load i32, i32* %1381, align 4
  store i32 %1385, i32* %1378, align 4
  %1386 = getelementptr inbounds i32, i32* %1378, i64 1
  %1387 = ptrtoint i32* %1386 to i64
  store i64 %1387, i64* %1159, align 8
  br label %1545

1388:                                             ; preds = %1376
  %1389 = ptrtoint i32* %1378 to i64
  %1390 = load i64, i64* %1160, align 8
  %1391 = sub i64 %1389, %1390
  %1392 = ashr exact i64 %1391, 2
  %1393 = add nsw i64 %1392, 1
  %1394 = icmp ugt i64 %1393, 4611686018427387903
  br i1 %1394, label %1395, label %1397

1395:                                             ; preds = %1388
  %1396 = bitcast %"class.std::__1::vector.32"* %4 to %"class.std::__1::__vector_base_common"*
  call void @_ZNKSt3__120__vector_base_commonILb1EE20__throw_length_errorEv(%"class.std::__1::__vector_base_common"* nonnull %1396) #19
  unreachable

1397:                                             ; preds = %1388
  %1398 = icmp ult i64 %1392, 2305843009213693951
  br i1 %1398, label %1399, label %1407

1399:                                             ; preds = %1397
  %1400 = ashr exact i64 %1391, 1
  %1401 = icmp ult i64 %1400, %1393
  %1402 = select i1 %1401, i64 %1393, i64 %1400
  %1403 = icmp eq i64 %1402, 0
  br i1 %1403, label %1412, label %1404

1404:                                             ; preds = %1399
  %1405 = icmp ugt i64 %1402, 4611686018427387903
  br i1 %1405, label %1406, label %1407

1406:                                             ; preds = %1404
  call void @abort() #19
  unreachable

1407:                                             ; preds = %1404, %1397
  %1408 = phi i64 [ %1402, %1404 ], [ 4611686018427387903, %1397 ]
  %1409 = shl i64 %1408, 2
  %1410 = call i8* @_Znwm(i64 %1409) #17
  %1411 = bitcast i8* %1410 to i32*
  br label %1412

1412:                                             ; preds = %1407, %1399
  %1413 = phi i64 [ %1408, %1407 ], [ 0, %1399 ]
  %1414 = phi i32* [ %1411, %1407 ], [ null, %1399 ]
  %1415 = getelementptr inbounds i32, i32* %1414, i64 %1392
  %1416 = getelementptr inbounds i32, i32* %1414, i64 %1413
  %1417 = ptrtoint i32* %1416 to i64
  %1418 = load i32, i32* %1381, align 4
  store i32 %1418, i32* %1415, align 4
  %1419 = getelementptr inbounds i32, i32* %1415, i64 1
  %1420 = ptrtoint i32* %1419 to i64
  %1421 = sub i64 %1377, %1390
  %1422 = ashr exact i64 %1421, 2
  %1423 = sub nsw i64 0, %1422
  %1424 = getelementptr inbounds i32, i32* %1415, i64 %1423
  %1425 = ptrtoint i32* %1424 to i64
  %1426 = icmp sgt i64 %1421, 0
  br i1 %1426, label %1427, label %1430

1427:                                             ; preds = %1412
  %1428 = bitcast i32* %1424 to i8*
  %1429 = inttoptr i64 %1390 to i8*
  call void @llvm.memcpy.p0i8.p0i8.i64(i8* align 4 %1428, i8* align 4 %1429, i64 %1421, i1 false) #18
  br label %1430

1430:                                             ; preds = %1427, %1412
  store i64 %1425, i64* %1160, align 8
  store i64 %1420, i64* %1159, align 8
  store i64 %1417, i64* %1161, align 8
  %1431 = icmp eq i64 %1390, 0
  br i1 %1431, label %1545, label %1432

1432:                                             ; preds = %1430
  %1433 = inttoptr i64 %1390 to i8*
  call void @_ZdlPv(i8* %1433) #17
  br label %1545

1434:                                             ; preds = %1297
  %1435 = load float*, float** %1150, align 8
  %1436 = load float*, float** %1151, align 8
  %1437 = icmp ult float* %1435, %1436
  %1438 = ptrtoint float* %1436 to i64
  br i1 %1437, label %1439, label %1445

1439:                                             ; preds = %1434
  %1440 = bitcast float* %1435 to i32*
  store i32 964689920, i32* %1440, align 4
  %1441 = getelementptr inbounds float, float* %1435, i64 1
  %1442 = ptrtoint float* %1441 to i64
  store i64 %1442, i64* %1156, align 8
  %1443 = load i32*, i32** %1154, align 8
  %1444 = ptrtoint i32* %1443 to i64
  br label %1489

1445:                                             ; preds = %1434
  %1446 = ptrtoint float* %1435 to i64
  %1447 = load i64, i64* %1157, align 8
  %1448 = sub i64 %1446, %1447
  %1449 = ashr exact i64 %1448, 2
  %1450 = add nsw i64 %1449, 1
  %1451 = icmp ugt i64 %1450, 4611686018427387903
  br i1 %1451, label %1452, label %1454

1452:                                             ; preds = %1445
  %1453 = bitcast %"class.std::__1::vector.25"* %3 to %"class.std::__1::__vector_base_common"*
  call void @_ZNKSt3__120__vector_base_commonILb1EE20__throw_length_errorEv(%"class.std::__1::__vector_base_common"* nonnull %1453) #19
  unreachable

1454:                                             ; preds = %1445
  %1455 = sub i64 %1438, %1447
  %1456 = ashr exact i64 %1455, 2
  %1457 = icmp ult i64 %1456, 2305843009213693951
  br i1 %1457, label %1458, label %1466

1458:                                             ; preds = %1454
  %1459 = ashr exact i64 %1455, 1
  %1460 = icmp ult i64 %1459, %1450
  %1461 = select i1 %1460, i64 %1450, i64 %1459
  %1462 = icmp eq i64 %1461, 0
  br i1 %1462, label %1471, label %1463

1463:                                             ; preds = %1458
  %1464 = icmp ugt i64 %1461, 4611686018427387903
  br i1 %1464, label %1465, label %1466

1465:                                             ; preds = %1463
  call void @abort() #19
  unreachable

1466:                                             ; preds = %1463, %1454
  %1467 = phi i64 [ %1461, %1463 ], [ 4611686018427387903, %1454 ]
  %1468 = shl i64 %1467, 2
  %1469 = call i8* @_Znwm(i64 %1468) #17
  %1470 = bitcast i8* %1469 to float*
  br label %1471

1471:                                             ; preds = %1466, %1458
  %1472 = phi i64 [ %1467, %1466 ], [ 0, %1458 ]
  %1473 = phi i8* [ %1469, %1466 ], [ null, %1458 ]
  %1474 = phi float* [ %1470, %1466 ], [ null, %1458 ]
  %1475 = getelementptr inbounds float, float* %1474, i64 %1449
  %1476 = getelementptr inbounds float, float* %1474, i64 %1472
  %1477 = ptrtoint float* %1476 to i64
  %1478 = bitcast float* %1475 to i32*
  store i32 964689920, i32* %1478, align 4
  %1479 = getelementptr inbounds float, float* %1475, i64 1
  %1480 = ptrtoint float* %1479 to i64
  %1481 = ptrtoint float* %1474 to i64
  %1482 = icmp sgt i64 %1448, 0
  br i1 %1482, label %1483, label %1485

1483:                                             ; preds = %1471
  %1484 = inttoptr i64 %1447 to i8*
  call void @llvm.memcpy.p0i8.p0i8.i64(i8* align 4 %1473, i8* align 4 %1484, i64 %1448, i1 false) #18
  br label %1485

1485:                                             ; preds = %1483, %1471
  store i64 %1481, i64* %1157, align 8
  store i64 %1480, i64* %1156, align 8
  store i64 %1477, i64* %1158, align 8
  %1486 = icmp eq i64 %1447, 0
  br i1 %1486, label %1489, label %1487

1487:                                             ; preds = %1485
  %1488 = inttoptr i64 %1447 to i8*
  call void @_ZdlPv(i8* %1488) #17
  br label %1489

1489:                                             ; preds = %1487, %1485, %1439
  %1490 = phi i64 [ %1444, %1439 ], [ %1299, %1485 ], [ %1299, %1487 ]
  %1491 = phi i32* [ %1443, %1439 ], [ %1298, %1485 ], [ %1298, %1487 ]
  %1492 = load i32*, i32** %1155, align 8
  %1493 = icmp ult i32* %1491, %1492
  %1494 = ptrtoint i32* %1492 to i64
  br i1 %1493, label %1495, label %1498

1495:                                             ; preds = %1489
  store i32 0, i32* %1491, align 4
  %1496 = getelementptr inbounds i32, i32* %1491, i64 1
  %1497 = ptrtoint i32* %1496 to i64
  store i64 %1497, i64* %1159, align 8
  br label %1545

1498:                                             ; preds = %1489
  %1499 = ptrtoint i32* %1491 to i64
  %1500 = load i64, i64* %1160, align 8
  %1501 = sub i64 %1499, %1500
  %1502 = ashr exact i64 %1501, 2
  %1503 = add nsw i64 %1502, 1
  %1504 = icmp ugt i64 %1503, 4611686018427387903
  br i1 %1504, label %1505, label %1507

1505:                                             ; preds = %1498
  %1506 = bitcast %"class.std::__1::vector.32"* %4 to %"class.std::__1::__vector_base_common"*
  call void @_ZNKSt3__120__vector_base_commonILb1EE20__throw_length_errorEv(%"class.std::__1::__vector_base_common"* nonnull %1506) #19
  unreachable

1507:                                             ; preds = %1498
  %1508 = sub i64 %1494, %1500
  %1509 = ashr exact i64 %1508, 2
  %1510 = icmp ult i64 %1509, 2305843009213693951
  br i1 %1510, label %1511, label %1519

1511:                                             ; preds = %1507
  %1512 = ashr exact i64 %1508, 1
  %1513 = icmp ult i64 %1512, %1503
  %1514 = select i1 %1513, i64 %1503, i64 %1512
  %1515 = icmp eq i64 %1514, 0
  br i1 %1515, label %1524, label %1516

1516:                                             ; preds = %1511
  %1517 = icmp ugt i64 %1514, 4611686018427387903
  br i1 %1517, label %1518, label %1519

1518:                                             ; preds = %1516
  call void @abort() #19
  unreachable

1519:                                             ; preds = %1516, %1507
  %1520 = phi i64 [ %1514, %1516 ], [ 4611686018427387903, %1507 ]
  %1521 = shl i64 %1520, 2
  %1522 = call i8* @_Znwm(i64 %1521) #17
  %1523 = bitcast i8* %1522 to i32*
  br label %1524

1524:                                             ; preds = %1519, %1511
  %1525 = phi i64 [ %1520, %1519 ], [ 0, %1511 ]
  %1526 = phi i32* [ %1523, %1519 ], [ null, %1511 ]
  %1527 = getelementptr inbounds i32, i32* %1526, i64 %1502
  %1528 = getelementptr inbounds i32, i32* %1526, i64 %1525
  %1529 = ptrtoint i32* %1528 to i64
  store i32 0, i32* %1527, align 4
  %1530 = getelementptr inbounds i32, i32* %1527, i64 1
  %1531 = ptrtoint i32* %1530 to i64
  %1532 = sub i64 %1490, %1500
  %1533 = ashr exact i64 %1532, 2
  %1534 = sub nsw i64 0, %1533
  %1535 = getelementptr inbounds i32, i32* %1527, i64 %1534
  %1536 = ptrtoint i32* %1535 to i64
  %1537 = icmp sgt i64 %1532, 0
  br i1 %1537, label %1538, label %1541

1538:                                             ; preds = %1524
  %1539 = bitcast i32* %1535 to i8*
  %1540 = inttoptr i64 %1500 to i8*
  call void @llvm.memcpy.p0i8.p0i8.i64(i8* align 4 %1539, i8* align 4 %1540, i64 %1532, i1 false) #18
  br label %1541

1541:                                             ; preds = %1538, %1524
  store i64 %1536, i64* %1160, align 8
  store i64 %1531, i64* %1159, align 8
  store i64 %1529, i64* %1161, align 8
  %1542 = icmp eq i64 %1500, 0
  br i1 %1542, label %1545, label %1543

1543:                                             ; preds = %1541
  %1544 = inttoptr i64 %1500 to i8*
  call void @_ZdlPv(i8* %1544) #17
  br label %1545

1545:                                             ; preds = %1543, %1541, %1495, %1432, %1430, %1384
  %1546 = phi i32* [ %1530, %1543 ], [ %1530, %1541 ], [ %1496, %1495 ], [ %1419, %1432 ], [ %1419, %1430 ], [ %1386, %1384 ]
  %1547 = phi i64 [ %1531, %1543 ], [ %1531, %1541 ], [ %1497, %1495 ], [ %1420, %1432 ], [ %1420, %1430 ], [ %1387, %1384 ]
  %1548 = add nuw nsw i64 %1300, 1
  %1549 = icmp eq i64 %1548, 4
  br i1 %1549, label %1162, label %1297

1550:                                             ; preds = %1295
  %1551 = getelementptr inbounds %struct.TfLiteTensor, %struct.TfLiteTensor* %993, i64 0, i32 3, i32 0
  %1552 = load float, float* %1551, align 8
  %1553 = getelementptr inbounds %struct.TfLiteTensor, %struct.TfLiteTensor* %1029, i64 0, i32 3, i32 0
  %1554 = load float, float* %1553, align 8
  %1555 = insertelement <2 x float> undef, float %1552, i32 0
  %1556 = insertelement <2 x float> %1555, float %1554, i32 1
  br label %1557

1557:                                             ; preds = %1550, %1295
  %1558 = phi <2 x float> [ <float 1.000000e+00, float 1.000000e+00>, %1295 ], [ %1556, %1550 ]
  br i1 %1146, label %1559, label %1572

1559:                                             ; preds = %1557
  br i1 %1145, label %1563, label %1560

1560:                                             ; preds = %1559
  %1561 = getelementptr inbounds %struct.TfLiteTensor, %struct.TfLiteTensor* %1065, i64 0, i32 3, i32 0
  %1562 = load float, float* %1561, align 8
  br label %1563

1563:                                             ; preds = %1560, %1559
  %1564 = phi float [ 1.000000e+00, %1559 ], [ %1562, %1560 ]
  %1565 = getelementptr inbounds %struct.TfLiteTensor, %struct.TfLiteTensor* %1074, i64 0, i32 3, i32 0
  %1566 = load float, float* %1565, align 8
  %1567 = getelementptr inbounds %struct.TfLiteTensor, %struct.TfLiteTensor* %1083, i64 0, i32 3, i32 0
  %1568 = load float, float* %1567, align 8
  %1569 = insertelement <2 x float> undef, float %1566, i32 0
  %1570 = insertelement <2 x float> %1569, float %1568, i32 1
  %1571 = fpext <2 x float> %1570 to <2 x double>
  br label %1572

1572:                                             ; preds = %1563, %1557
  %1573 = phi float [ %1564, %1563 ], [ 1.000000e+00, %1557 ]
  %1574 = phi <2 x double> [ %1571, %1563 ], [ <double 1.000000e+00, double 1.000000e+00>, %1557 ]
  br i1 %974, label %1575, label %1587

1575:                                             ; preds = %1572
  br i1 %1145, label %1579, label %1576

1576:                                             ; preds = %1575
  %1577 = getelementptr inbounds %struct.TfLiteTensor, %struct.TfLiteTensor* %1092, i64 0, i32 3, i32 0
  %1578 = load float, float* %1577, align 8
  br label %1579

1579:                                             ; preds = %1576, %1575
  %1580 = phi float [ 1.000000e+00, %1575 ], [ %1578, %1576 ]
  %1581 = getelementptr inbounds %struct.TfLiteTensor, %struct.TfLiteTensor* %1101, i64 0, i32 3, i32 0
  %1582 = load float, float* %1581, align 8
  %1583 = getelementptr inbounds %struct.TfLiteTensor, %struct.TfLiteTensor* %1110, i64 0, i32 3, i32 0
  %1584 = load float, float* %1583, align 8
  %1585 = getelementptr inbounds %struct.TfLiteTensor, %struct.TfLiteTensor* %1119, i64 0, i32 3, i32 0
  %1586 = load float, float* %1585, align 8
  br label %1587

1587:                                             ; preds = %1579, %1572
  %1588 = phi float [ %1580, %1579 ], [ 1.000000e+00, %1572 ]
  %1589 = phi float [ %1582, %1579 ], [ 1.000000e+00, %1572 ]
  %1590 = phi float [ %1584, %1579 ], [ 1.000000e+00, %1572 ]
  %1591 = phi float [ %1586, %1579 ], [ 1.000000e+00, %1572 ]
  br i1 %1147, label %1595, label %1592

1592:                                             ; preds = %1587
  %1593 = getelementptr inbounds %struct.TfLiteTensor, %struct.TfLiteTensor* %1128, i64 0, i32 3, i32 0
  %1594 = load float, float* %1593, align 8
  br label %1595

1595:                                             ; preds = %1592, %1587
  %1596 = phi float [ %1594, %1592 ], [ 1.000000e+00, %1587 ]
  %1597 = getelementptr inbounds %struct.TfLiteTensor, %struct.TfLiteTensor* %1133, i64 %1134, i32 3, i32 0
  %1598 = load float, float* %1597, align 8
  %1599 = getelementptr inbounds %struct.TfLiteTensor, %struct.TfLiteTensor* %1002, i64 0, i32 3, i32 0
  %1600 = load float, float* %1599, align 8
  %1601 = getelementptr inbounds %struct.TfLiteTensor, %struct.TfLiteTensor* %1011, i64 0, i32 3, i32 0
  %1602 = load float, float* %1601, align 8
  %1603 = getelementptr inbounds %struct.TfLiteTensor, %struct.TfLiteTensor* %1020, i64 0, i32 3, i32 0
  %1604 = load float, float* %1603, align 8
  %1605 = getelementptr inbounds %struct.TfLiteTensor, %struct.TfLiteTensor* %1038, i64 0, i32 3, i32 0
  %1606 = load float, float* %1605, align 8
  %1607 = getelementptr inbounds %struct.TfLiteTensor, %struct.TfLiteTensor* %1047, i64 0, i32 3, i32 0
  %1608 = load float, float* %1607, align 8
  %1609 = getelementptr inbounds %struct.TfLiteTensor, %struct.TfLiteTensor* %1056, i64 0, i32 3, i32 0
  %1610 = load float, float* %1609, align 8
  %1611 = getelementptr inbounds %struct.TfLiteTensor, %struct.TfLiteTensor* %916, i64 %917, i32 3, i32 0
  %1612 = load float, float* %1611, align 8
  %1613 = call zeroext i1 @_ZN6tflite11CheckedLog2EfPi(float %1612, i32* nonnull %5) #18
  br i1 %1613, label %1617, label %1614

1614:                                             ; preds = %1595
  %1615 = getelementptr inbounds %struct.TfLiteContext, %struct.TfLiteContext* %0, i64 0, i32 5
  %1616 = load void (%struct.TfLiteContext*, i8*, ...)*, void (%struct.TfLiteContext*, i8*, ...)** %1615, align 8
  call void (%struct.TfLiteContext*, i8*, ...) %1616(%struct.TfLiteContext* %0, i8* getelementptr inbounds ([23 x i8], [23 x i8]* @.str, i64 0, i64 0), i8* getelementptr inbounds ([61 x i8], [61 x i8]* @.str.3, i64 0, i64 0), i32 244, i8* getelementptr inbounds ([51 x i8], [51 x i8]* @.str.129, i64 0, i64 0)) #18
  br label %1777

1617:                                             ; preds = %1595
  %1618 = load i32, i32* %5, align 4
  %1619 = icmp slt i32 %1618, -8
  br i1 %1619, label %1623, label %1620

1620:                                             ; preds = %1617
  %1621 = getelementptr inbounds %struct.TfLiteContext, %struct.TfLiteContext* %0, i64 0, i32 5
  %1622 = load void (%struct.TfLiteContext*, i8*, ...)*, void (%struct.TfLiteContext*, i8*, ...)** %1621, align 8
  call void (%struct.TfLiteContext*, i8*, ...) %1622(%struct.TfLiteContext* %0, i8* getelementptr inbounds ([23 x i8], [23 x i8]* @.str, i64 0, i64 0), i8* getelementptr inbounds ([61 x i8], [61 x i8]* @.str.3, i64 0, i64 0), i32 245, i8* getelementptr inbounds ([17 x i8], [17 x i8]* @.str.130, i64 0, i64 0)) #18
  br label %1777

1623:                                             ; preds = %1617
  %1624 = getelementptr inbounds %"struct.tflite::ops::builtin::lstm::OpData", %"struct.tflite::ops::builtin::lstm::OpData"* %16, i64 0, i32 5, i32 37
  store i32 %1618, i32* %1624, align 8
  %1625 = getelementptr inbounds %struct.TfLiteTensor, %struct.TfLiteTensor* %984, i64 0, i32 3, i32 0
  %1626 = load float, float* %1625, align 8
  %1627 = load float*, float** %1149, align 8
  br i1 %1145, label %1637, label %1628

1628:                                             ; preds = %1623
  %1629 = load float, float* %1627, align 4
  %1630 = insertelement <2 x float> undef, float %1626, i32 0
  %1631 = insertelement <2 x float> %1630, float %1598, i32 1
  %1632 = fmul <2 x float> %1558, %1631
  %1633 = insertelement <2 x float> undef, float %1629, i32 0
  %1634 = shufflevector <2 x float> %1633, <2 x float> undef, <2 x i32> zeroinitializer
  %1635 = fdiv <2 x float> %1632, %1634
  %1636 = fpext <2 x float> %1635 to <2 x double>
  br label %1637

1637:                                             ; preds = %1623, %1628
  %1638 = phi <2 x double> [ %1636, %1628 ], [ <double 1.000000e+00, double 1.000000e+00>, %1623 ]
  %1639 = fmul float %1600, %1626
  %1640 = getelementptr inbounds float, float* %1627, i64 1
  %1641 = load float, float* %1640, align 4
  %1642 = fdiv float %1639, %1641
  %1643 = fmul float %1598, %1606
  %1644 = fdiv float %1643, %1641
  %1645 = fmul float %1602, %1626
  %1646 = getelementptr inbounds float, float* %1627, i64 2
  %1647 = load float, float* %1646, align 4
  %1648 = fdiv float %1645, %1647
  %1649 = fmul float %1598, %1608
  %1650 = fdiv float %1649, %1647
  %1651 = fmul float %1604, %1626
  %1652 = getelementptr inbounds float, float* %1627, i64 3
  %1653 = load float, float* %1652, align 4
  %1654 = fdiv float %1651, %1653
  %1655 = fmul float %1598, %1610
  %1656 = fdiv float %1655, %1653
  %1657 = getelementptr inbounds float, float* %1627, i64 4
  %1658 = load float, float* %1657, align 4
  %1659 = fpext float %1658 to double
  %1660 = fdiv double 0x3F00000000000000, %1659
  %1661 = fmul double %1660, 0x3F00000000000000
  %1662 = fptrunc double %1661 to float
  %1663 = fmul float %1596, %1658
  %1664 = fdiv float %1663, %1598
  br i1 %1146, label %1665, label %1697

1665:                                             ; preds = %1637
  br i1 %1145, label %1676, label %1666

1666:                                             ; preds = %1665
  %1667 = call double @ldexp(double 1.000000e+00, i32 %1618) #18
  %1668 = fpext float %1573 to double
  %1669 = fmul double %1667, %1668
  %1670 = load float*, float** %1149, align 8
  %1671 = load float, float* %1670, align 4
  %1672 = fpext float %1671 to double
  %1673 = fdiv double %1669, %1672
  %1674 = fptrunc double %1673 to float
  %1675 = load i32, i32* %5, align 4
  br label %1676

1676:                                             ; preds = %1666, %1665
  %1677 = phi i32 [ %1618, %1665 ], [ %1675, %1666 ]
  %1678 = phi float [ 1.000000e+00, %1665 ], [ %1674, %1666 ]
  %1679 = call double @ldexp(double 1.000000e+00, i32 %1677) #18
  %1680 = load float*, float** %1149, align 8
  %1681 = getelementptr inbounds float, float* %1680, i64 1
  %1682 = load float, float* %1681, align 4
  %1683 = load i32, i32* %5, align 4
  %1684 = call double @ldexp(double 1.000000e+00, i32 %1683) #18
  %1685 = insertelement <2 x double> undef, double %1679, i32 0
  %1686 = insertelement <2 x double> %1685, double %1684, i32 1
  %1687 = fmul <2 x double> %1574, %1686
  %1688 = load float*, float** %1149, align 8
  %1689 = getelementptr inbounds float, float* %1688, i64 3
  %1690 = load float, float* %1689, align 4
  %1691 = insertelement <2 x float> undef, float %1682, i32 0
  %1692 = insertelement <2 x float> %1691, float %1690, i32 1
  %1693 = fpext <2 x float> %1692 to <2 x double>
  %1694 = fdiv <2 x double> %1687, %1693
  %1695 = fptrunc <2 x double> %1694 to <2 x float>
  %1696 = fpext <2 x float> %1695 to <2 x double>
  br label %1697

1697:                                             ; preds = %1676, %1637
  %1698 = phi float [ %1678, %1676 ], [ 1.000000e+00, %1637 ]
  %1699 = phi <2 x double> [ %1696, %1676 ], [ <double 1.000000e+00, double 1.000000e+00>, %1637 ]
  %1700 = getelementptr inbounds %"struct.tflite::ops::builtin::lstm::OpData", %"struct.tflite::ops::builtin::lstm::OpData"* %16, i64 0, i32 5, i32 0
  %1701 = getelementptr inbounds %"struct.tflite::ops::builtin::lstm::OpData", %"struct.tflite::ops::builtin::lstm::OpData"* %16, i64 0, i32 5, i32 1
  %1702 = extractelement <2 x double> %1638, i32 0
  call void @_ZN6tflite18QuantizeMultiplierEdPiS0_(double %1702, i32* %1700, i32* %1701) #18
  %1703 = getelementptr inbounds %"struct.tflite::ops::builtin::lstm::OpData", %"struct.tflite::ops::builtin::lstm::OpData"* %16, i64 0, i32 5, i32 2
  %1704 = getelementptr inbounds %"struct.tflite::ops::builtin::lstm::OpData", %"struct.tflite::ops::builtin::lstm::OpData"* %16, i64 0, i32 5, i32 3
  %1705 = extractelement <2 x double> %1638, i32 1
  call void @_ZN6tflite18QuantizeMultiplierEdPiS0_(double %1705, i32* %1703, i32* %1704) #18
  %1706 = fpext float %1698 to double
  %1707 = getelementptr inbounds %"struct.tflite::ops::builtin::lstm::OpData", %"struct.tflite::ops::builtin::lstm::OpData"* %16, i64 0, i32 5, i32 4
  %1708 = getelementptr inbounds %"struct.tflite::ops::builtin::lstm::OpData", %"struct.tflite::ops::builtin::lstm::OpData"* %16, i64 0, i32 5, i32 5
  call void @_ZN6tflite18QuantizeMultiplierEdPiS0_(double %1706, i32* %1707, i32* %1708) #18
  %1709 = fpext float %1642 to double
  %1710 = getelementptr inbounds %"struct.tflite::ops::builtin::lstm::OpData", %"struct.tflite::ops::builtin::lstm::OpData"* %16, i64 0, i32 5, i32 6
  %1711 = getelementptr inbounds %"struct.tflite::ops::builtin::lstm::OpData", %"struct.tflite::ops::builtin::lstm::OpData"* %16, i64 0, i32 5, i32 7
  call void @_ZN6tflite18QuantizeMultiplierEdPiS0_(double %1709, i32* %1710, i32* %1711) #18
  %1712 = fpext float %1644 to double
  %1713 = getelementptr inbounds %"struct.tflite::ops::builtin::lstm::OpData", %"struct.tflite::ops::builtin::lstm::OpData"* %16, i64 0, i32 5, i32 8
  %1714 = getelementptr inbounds %"struct.tflite::ops::builtin::lstm::OpData", %"struct.tflite::ops::builtin::lstm::OpData"* %16, i64 0, i32 5, i32 9
  call void @_ZN6tflite18QuantizeMultiplierEdPiS0_(double %1712, i32* %1713, i32* %1714) #18
  %1715 = getelementptr inbounds %"struct.tflite::ops::builtin::lstm::OpData", %"struct.tflite::ops::builtin::lstm::OpData"* %16, i64 0, i32 5, i32 10
  %1716 = getelementptr inbounds %"struct.tflite::ops::builtin::lstm::OpData", %"struct.tflite::ops::builtin::lstm::OpData"* %16, i64 0, i32 5, i32 11
  %1717 = extractelement <2 x double> %1699, i32 0
  call void @_ZN6tflite18QuantizeMultiplierEdPiS0_(double %1717, i32* %1715, i32* %1716) #18
  %1718 = fpext float %1648 to double
  %1719 = getelementptr inbounds %"struct.tflite::ops::builtin::lstm::OpData", %"struct.tflite::ops::builtin::lstm::OpData"* %16, i64 0, i32 5, i32 12
  %1720 = getelementptr inbounds %"struct.tflite::ops::builtin::lstm::OpData", %"struct.tflite::ops::builtin::lstm::OpData"* %16, i64 0, i32 5, i32 13
  call void @_ZN6tflite18QuantizeMultiplierEdPiS0_(double %1718, i32* %1719, i32* %1720) #18
  %1721 = fpext float %1650 to double
  %1722 = getelementptr inbounds %"struct.tflite::ops::builtin::lstm::OpData", %"struct.tflite::ops::builtin::lstm::OpData"* %16, i64 0, i32 5, i32 14
  %1723 = getelementptr inbounds %"struct.tflite::ops::builtin::lstm::OpData", %"struct.tflite::ops::builtin::lstm::OpData"* %16, i64 0, i32 5, i32 15
  call void @_ZN6tflite18QuantizeMultiplierEdPiS0_(double %1721, i32* %1722, i32* %1723) #18
  %1724 = fpext float %1654 to double
  %1725 = getelementptr inbounds %"struct.tflite::ops::builtin::lstm::OpData", %"struct.tflite::ops::builtin::lstm::OpData"* %16, i64 0, i32 5, i32 16
  %1726 = getelementptr inbounds %"struct.tflite::ops::builtin::lstm::OpData", %"struct.tflite::ops::builtin::lstm::OpData"* %16, i64 0, i32 5, i32 17
  call void @_ZN6tflite18QuantizeMultiplierEdPiS0_(double %1724, i32* %1725, i32* %1726) #18
  %1727 = fpext float %1656 to double
  %1728 = getelementptr inbounds %"struct.tflite::ops::builtin::lstm::OpData", %"struct.tflite::ops::builtin::lstm::OpData"* %16, i64 0, i32 5, i32 18
  %1729 = getelementptr inbounds %"struct.tflite::ops::builtin::lstm::OpData", %"struct.tflite::ops::builtin::lstm::OpData"* %16, i64 0, i32 5, i32 19
  call void @_ZN6tflite18QuantizeMultiplierEdPiS0_(double %1727, i32* %1728, i32* %1729) #18
  %1730 = getelementptr inbounds %"struct.tflite::ops::builtin::lstm::OpData", %"struct.tflite::ops::builtin::lstm::OpData"* %16, i64 0, i32 5, i32 20
  %1731 = getelementptr inbounds %"struct.tflite::ops::builtin::lstm::OpData", %"struct.tflite::ops::builtin::lstm::OpData"* %16, i64 0, i32 5, i32 21
  %1732 = extractelement <2 x double> %1699, i32 1
  call void @_ZN6tflite18QuantizeMultiplierEdPiS0_(double %1732, i32* %1730, i32* %1731) #18
  %1733 = fpext float %1664 to double
  %1734 = getelementptr inbounds %"struct.tflite::ops::builtin::lstm::OpData", %"struct.tflite::ops::builtin::lstm::OpData"* %16, i64 0, i32 5, i32 22
  %1735 = getelementptr inbounds %"struct.tflite::ops::builtin::lstm::OpData", %"struct.tflite::ops::builtin::lstm::OpData"* %16, i64 0, i32 5, i32 23
  call void @_ZN6tflite18QuantizeMultiplierEdPiS0_(double %1733, i32* %1734, i32* %1735) #18
  %1736 = fpext float %1662 to double
  %1737 = getelementptr inbounds %"struct.tflite::ops::builtin::lstm::OpData", %"struct.tflite::ops::builtin::lstm::OpData"* %16, i64 0, i32 5, i32 24
  %1738 = getelementptr inbounds %"struct.tflite::ops::builtin::lstm::OpData", %"struct.tflite::ops::builtin::lstm::OpData"* %16, i64 0, i32 5, i32 25
  call void @_ZN6tflite18QuantizeMultiplierEdPiS0_(double %1736, i32* %1737, i32* %1738) #18
  %1739 = fpext float %1588 to double
  %1740 = getelementptr inbounds %"struct.tflite::ops::builtin::lstm::OpData", %"struct.tflite::ops::builtin::lstm::OpData"* %16, i64 0, i32 5, i32 26
  %1741 = getelementptr inbounds %"struct.tflite::ops::builtin::lstm::OpData", %"struct.tflite::ops::builtin::lstm::OpData"* %16, i64 0, i32 5, i32 27
  call void @_ZN6tflite18QuantizeMultiplierEdPiS0_(double %1739, i32* %1740, i32* %1741) #18
  %1742 = fpext float %1589 to double
  %1743 = getelementptr inbounds %"struct.tflite::ops::builtin::lstm::OpData", %"struct.tflite::ops::builtin::lstm::OpData"* %16, i64 0, i32 5, i32 28
  %1744 = getelementptr inbounds %"struct.tflite::ops::builtin::lstm::OpData", %"struct.tflite::ops::builtin::lstm::OpData"* %16, i64 0, i32 5, i32 29
  call void @_ZN6tflite18QuantizeMultiplierEdPiS0_(double %1742, i32* %1743, i32* %1744) #18
  %1745 = fpext float %1590 to double
  %1746 = getelementptr inbounds %"struct.tflite::ops::builtin::lstm::OpData", %"struct.tflite::ops::builtin::lstm::OpData"* %16, i64 0, i32 5, i32 30
  %1747 = getelementptr inbounds %"struct.tflite::ops::builtin::lstm::OpData", %"struct.tflite::ops::builtin::lstm::OpData"* %16, i64 0, i32 5, i32 31
  call void @_ZN6tflite18QuantizeMultiplierEdPiS0_(double %1745, i32* %1746, i32* %1747) #18
  %1748 = fpext float %1591 to double
  %1749 = getelementptr inbounds %"struct.tflite::ops::builtin::lstm::OpData", %"struct.tflite::ops::builtin::lstm::OpData"* %16, i64 0, i32 5, i32 32
  %1750 = getelementptr inbounds %"struct.tflite::ops::builtin::lstm::OpData", %"struct.tflite::ops::builtin::lstm::OpData"* %16, i64 0, i32 5, i32 33
  call void @_ZN6tflite18QuantizeMultiplierEdPiS0_(double %1748, i32* %1749, i32* %1750) #18
  %1751 = load i32*, i32** %1153, align 8
  %1752 = getelementptr inbounds i32, i32* %1751, i64 4
  %1753 = load i32, i32* %1752, align 4
  %1754 = getelementptr inbounds %"struct.tflite::ops::builtin::lstm::OpData", %"struct.tflite::ops::builtin::lstm::OpData"* %16, i64 0, i32 5, i32 36
  store i32 %1753, i32* %1754, align 4
  br i1 %1145, label %1761, label %1755

1755:                                             ; preds = %1697
  %1756 = fmul float %1588, 1.000000e+04
  %1757 = fptosi float %1756 to i32
  %1758 = icmp sgt i32 %1757, 1
  %1759 = select i1 %1758, i32 %1757, i32 1
  %1760 = getelementptr inbounds %"struct.tflite::ops::builtin::lstm::OpData", %"struct.tflite::ops::builtin::lstm::OpData"* %16, i64 0, i32 5, i32 38
  store i32 %1759, i32* %1760, align 4
  br label %1761

1761:                                             ; preds = %1755, %1697
  %1762 = fmul float %1589, 1.000000e+04
  %1763 = fptosi float %1762 to i32
  %1764 = icmp sgt i32 %1763, 1
  %1765 = select i1 %1764, i32 %1763, i32 1
  %1766 = getelementptr inbounds %"struct.tflite::ops::builtin::lstm::OpData", %"struct.tflite::ops::builtin::lstm::OpData"* %16, i64 0, i32 5, i32 39
  store i32 %1765, i32* %1766, align 8
  %1767 = fmul float %1590, 1.000000e+04
  %1768 = fptosi float %1767 to i32
  %1769 = icmp sgt i32 %1768, 1
  %1770 = select i1 %1769, i32 %1768, i32 1
  %1771 = getelementptr inbounds %"struct.tflite::ops::builtin::lstm::OpData", %"struct.tflite::ops::builtin::lstm::OpData"* %16, i64 0, i32 5, i32 40
  store i32 %1770, i32* %1771, align 4
  %1772 = fmul float %1591, 1.000000e+04
  %1773 = fptosi float %1772 to i32
  %1774 = icmp sgt i32 %1773, 1
  %1775 = select i1 %1774, i32 %1773, i32 1
  %1776 = getelementptr inbounds %"struct.tflite::ops::builtin::lstm::OpData", %"struct.tflite::ops::builtin::lstm::OpData"* %16, i64 0, i32 5, i32 41
  store i32 %1775, i32* %1776, align 8
  br label %1777

1777:                                             ; preds = %1761, %1620, %1614
  call void @llvm.lifetime.end.p0i8(i64 4, i8* nonnull %1296) #18
  %1778 = load i32*, i32** %1153, align 8
  %1779 = icmp eq i32* %1778, null
  br i1 %1779, label %1783, label %1780

1780:                                             ; preds = %1777
  %1781 = ptrtoint i32* %1778 to i64
  store i64 %1781, i64* %1159, align 8
  %1782 = bitcast i32* %1778 to i8*
  call void @_ZdlPv(i8* %1782) #17
  br label %1783

1783:                                             ; preds = %1780, %1777
  call void @llvm.lifetime.end.p0i8(i64 24, i8* nonnull %1152) #18
  %1784 = load float*, float** %1149, align 8
  %1785 = icmp eq float* %1784, null
  br i1 %1785, label %1789, label %1786

1786:                                             ; preds = %1783
  %1787 = ptrtoint float* %1784 to i64
  store i64 %1787, i64* %1156, align 8
  %1788 = bitcast float* %1784 to i8*
  call void @_ZdlPv(i8* %1788) #17
  br label %1789

1789:                                             ; preds = %1786, %1783
  call void @llvm.lifetime.end.p0i8(i64 24, i8* nonnull %1148) #18
  br label %1790

1790:                                             ; preds = %924, %1141, %1789
  %1791 = getelementptr inbounds %"struct.tflite::ops::builtin::lstm::OpData", %"struct.tflite::ops::builtin::lstm::OpData"* %16, i64 0, i32 3
  %1792 = bitcast [2 x i32]* %12 to i8*
  %1793 = getelementptr inbounds [2 x i32], [2 x i32]* %12, i64 0, i64 0
  %1794 = getelementptr inbounds [2 x i32], [2 x i32]* %12, i64 0, i64 1
  br label %1795

1795:                                             ; preds = %1829, %1790
  %1796 = phi i64 [ 0, %1790 ], [ %1830, %1829 ]
  %1797 = load i32, i32* %1791, align 8
  %1798 = trunc i64 %1796 to i32
  %1799 = add nsw i32 %1797, %1798
  %1800 = load %struct.TfLiteIntArray*, %struct.TfLiteIntArray** %515, align 8
  %1801 = getelementptr inbounds %struct.TfLiteIntArray, %struct.TfLiteIntArray* %1800, i64 0, i32 1, i64 %1796
  store i32 %1799, i32* %1801, align 4
  %1802 = load %struct.TfLiteIntArray*, %struct.TfLiteIntArray** %515, align 8
  %1803 = getelementptr inbounds %struct.TfLiteIntArray, %struct.TfLiteIntArray* %1802, i64 0, i32 1, i64 %1796
  %1804 = load i32, i32* %1803, align 4
  %1805 = icmp slt i32 %1804, 0
  br i1 %1805, label %1810, label %1806

1806:                                             ; preds = %1795
  %1807 = load %struct.TfLiteTensor*, %struct.TfLiteTensor** %154, align 8
  %1808 = sext i32 %1804 to i64
  %1809 = getelementptr inbounds %struct.TfLiteTensor, %struct.TfLiteTensor* %1807, i64 %1808
  br label %1810

1810:                                             ; preds = %1795, %1806
  %1811 = phi %struct.TfLiteTensor* [ %1809, %1806 ], [ null, %1795 ]
  %1812 = getelementptr inbounds %struct.TfLiteTensor, %struct.TfLiteTensor* %1811, i64 0, i32 0
  store i32 7, i32* %1812, align 8
  switch i32 %1798, label %1816 [
    i32 4, label %1814
    i32 5, label %1813
  ]

1813:                                             ; preds = %1810
  br label %1814

1814:                                             ; preds = %1810, %1813
  %1815 = phi i32 [ 2, %1813 ], [ 9, %1810 ]
  store i32 %1815, i32* %1812, align 8
  br label %1816

1816:                                             ; preds = %1814, %1810
  %1817 = getelementptr inbounds %struct.TfLiteTensor, %struct.TfLiteTensor* %1811, i64 0, i32 4
  store i32 2, i32* %1817, align 8
  call void @llvm.lifetime.start.p0i8(i64 8, i8* nonnull %1792) #18
  store i32 %76, i32* %1793, align 4
  store i32 %92, i32* %1794, align 4
  %1818 = getelementptr inbounds %struct.TfLiteTensor, %struct.TfLiteTensor* %1811, i64 0, i32 2
  %1819 = load %struct.TfLiteIntArray*, %struct.TfLiteIntArray** %1818, align 8
  %1820 = call i32 @TfLiteIntArrayEqualsArray(%struct.TfLiteIntArray* %1819, i32 2, i32* nonnull %1793) #18
  %1821 = icmp eq i32 %1820, 0
  br i1 %1821, label %1822, label %1829

1822:                                             ; preds = %1816
  %1823 = call %struct.TfLiteIntArray* @TfLiteIntArrayCreate(i32 2) #18
  %1824 = getelementptr inbounds %struct.TfLiteIntArray, %struct.TfLiteIntArray* %1823, i64 0, i32 1, i64 0
  store i32 %76, i32* %1824, align 4
  %1825 = getelementptr inbounds %struct.TfLiteIntArray, %struct.TfLiteIntArray* %1823, i64 0, i32 1, i64 1
  store i32 %92, i32* %1825, align 4
  %1826 = load i32 (%struct.TfLiteContext*, %struct.TfLiteTensor*, %struct.TfLiteIntArray*)*, i32 (%struct.TfLiteContext*, %struct.TfLiteTensor*, %struct.TfLiteIntArray*)** %493, align 8
  %1827 = call i32 %1826(%struct.TfLiteContext* %0, %struct.TfLiteTensor* %1811, %struct.TfLiteIntArray* %1823) #18
  %1828 = icmp eq i32 %1827, 0
  br i1 %1828, label %1829, label %1832

1829:                                             ; preds = %1822, %1816
  call void @llvm.lifetime.end.p0i8(i64 8, i8* nonnull %1792) #18
  %1830 = add nuw nsw i64 %1796, 1
  %1831 = icmp eq i64 %1830, 6
  br i1 %1831, label %1833, label %1795

1832:                                             ; preds = %1822
  call void @llvm.lifetime.end.p0i8(i64 8, i8* nonnull %1792) #18
  br label %2453

1833:                                             ; preds = %1829
  %1834 = call i32 @_ZN6tflite3ops7builtin4lstm4full41PopulatePrecomputedZPTimesWeightsWithBiasEP13TfLiteContextPNS2_6OpDataEP10TfLiteNode(%struct.TfLiteContext* %0, %"struct.tflite::ops::builtin::lstm::OpData"* %16, %struct.TfLiteNode* %1)
  %1835 = icmp eq i32 %1834, 0
  br i1 %1835, label %2452, label %2453

1836:                                             ; preds = %521, %902
  %1837 = load %struct.TfLiteIntArray*, %struct.TfLiteIntArray** %26, align 8
  %1838 = getelementptr inbounds %struct.TfLiteIntArray, %struct.TfLiteIntArray* %1837, i64 0, i32 1, i64 0
  %1839 = load i32, i32* %1838, align 4
  %1840 = icmp slt i32 %1839, 0
  br i1 %1840, label %1845, label %1841

1841:                                             ; preds = %1836
  %1842 = load %struct.TfLiteTensor*, %struct.TfLiteTensor** %154, align 8
  %1843 = sext i32 %1839 to i64
  %1844 = getelementptr inbounds %struct.TfLiteTensor, %struct.TfLiteTensor* %1842, i64 %1843
  br label %1845

1845:                                             ; preds = %1841, %1836
  %1846 = phi %struct.TfLiteTensor* [ %1844, %1841 ], [ null, %1836 ]
  %1847 = getelementptr inbounds %struct.TfLiteIntArray, %struct.TfLiteIntArray* %1837, i64 0, i32 1, i64 1
  %1848 = load i32, i32* %1847, align 4
  %1849 = icmp slt i32 %1848, 0
  br i1 %1849, label %1854, label %1850

1850:                                             ; preds = %1845
  %1851 = load %struct.TfLiteTensor*, %struct.TfLiteTensor** %154, align 8
  %1852 = sext i32 %1848 to i64
  %1853 = getelementptr inbounds %struct.TfLiteTensor, %struct.TfLiteTensor* %1851, i64 %1852
  br label %1854

1854:                                             ; preds = %1850, %1845
  %1855 = phi %struct.TfLiteTensor* [ %1853, %1850 ], [ null, %1845 ]
  %1856 = getelementptr inbounds %struct.TfLiteIntArray, %struct.TfLiteIntArray* %1837, i64 0, i32 1, i64 2
  %1857 = load i32, i32* %1856, align 4
  %1858 = icmp slt i32 %1857, 0
  br i1 %1858, label %1863, label %1859

1859:                                             ; preds = %1854
  %1860 = load %struct.TfLiteTensor*, %struct.TfLiteTensor** %154, align 8
  %1861 = sext i32 %1857 to i64
  %1862 = getelementptr inbounds %struct.TfLiteTensor, %struct.TfLiteTensor* %1860, i64 %1861
  br label %1863

1863:                                             ; preds = %1859, %1854
  %1864 = phi %struct.TfLiteTensor* [ %1862, %1859 ], [ null, %1854 ]
  %1865 = getelementptr inbounds %struct.TfLiteIntArray, %struct.TfLiteIntArray* %1837, i64 0, i32 1, i64 3
  %1866 = load i32, i32* %1865, align 4
  %1867 = icmp slt i32 %1866, 0
  br i1 %1867, label %1872, label %1868

1868:                                             ; preds = %1863
  %1869 = load %struct.TfLiteTensor*, %struct.TfLiteTensor** %154, align 8
  %1870 = sext i32 %1866 to i64
  %1871 = getelementptr inbounds %struct.TfLiteTensor, %struct.TfLiteTensor* %1869, i64 %1870
  br label %1872

1872:                                             ; preds = %1868, %1863
  %1873 = phi %struct.TfLiteTensor* [ %1871, %1868 ], [ null, %1863 ]
  %1874 = getelementptr inbounds %struct.TfLiteIntArray, %struct.TfLiteIntArray* %1837, i64 0, i32 1, i64 4
  %1875 = load i32, i32* %1874, align 4
  %1876 = icmp slt i32 %1875, 0
  br i1 %1876, label %1881, label %1877

1877:                                             ; preds = %1872
  %1878 = load %struct.TfLiteTensor*, %struct.TfLiteTensor** %154, align 8
  %1879 = sext i32 %1875 to i64
  %1880 = getelementptr inbounds %struct.TfLiteTensor, %struct.TfLiteTensor* %1878, i64 %1879
  br label %1881

1881:                                             ; preds = %1877, %1872
  %1882 = phi %struct.TfLiteTensor* [ %1880, %1877 ], [ null, %1872 ]
  %1883 = getelementptr inbounds %struct.TfLiteIntArray, %struct.TfLiteIntArray* %1837, i64 0, i32 1, i64 5
  %1884 = load i32, i32* %1883, align 4
  %1885 = icmp slt i32 %1884, 0
  br i1 %1885, label %1890, label %1886

1886:                                             ; preds = %1881
  %1887 = load %struct.TfLiteTensor*, %struct.TfLiteTensor** %154, align 8
  %1888 = sext i32 %1884 to i64
  %1889 = getelementptr inbounds %struct.TfLiteTensor, %struct.TfLiteTensor* %1887, i64 %1888
  br label %1890

1890:                                             ; preds = %1886, %1881
  %1891 = phi %struct.TfLiteTensor* [ %1889, %1886 ], [ null, %1881 ]
  %1892 = getelementptr inbounds %struct.TfLiteIntArray, %struct.TfLiteIntArray* %1837, i64 0, i32 1, i64 6
  %1893 = load i32, i32* %1892, align 4
  %1894 = icmp slt i32 %1893, 0
  br i1 %1894, label %1899, label %1895

1895:                                             ; preds = %1890
  %1896 = load %struct.TfLiteTensor*, %struct.TfLiteTensor** %154, align 8
  %1897 = sext i32 %1893 to i64
  %1898 = getelementptr inbounds %struct.TfLiteTensor, %struct.TfLiteTensor* %1896, i64 %1897
  br label %1899

1899:                                             ; preds = %1895, %1890
  %1900 = phi %struct.TfLiteTensor* [ %1898, %1895 ], [ null, %1890 ]
  %1901 = getelementptr inbounds %struct.TfLiteIntArray, %struct.TfLiteIntArray* %1837, i64 0, i32 1, i64 7
  %1902 = load i32, i32* %1901, align 4
  %1903 = icmp slt i32 %1902, 0
  br i1 %1903, label %1908, label %1904

1904:                                             ; preds = %1899
  %1905 = load %struct.TfLiteTensor*, %struct.TfLiteTensor** %154, align 8
  %1906 = sext i32 %1902 to i64
  %1907 = getelementptr inbounds %struct.TfLiteTensor, %struct.TfLiteTensor* %1905, i64 %1906
  br label %1908

1908:                                             ; preds = %1904, %1899
  %1909 = phi %struct.TfLiteTensor* [ %1907, %1904 ], [ null, %1899 ]
  %1910 = getelementptr inbounds %struct.TfLiteIntArray, %struct.TfLiteIntArray* %1837, i64 0, i32 1, i64 8
  %1911 = load i32, i32* %1910, align 4
  %1912 = icmp slt i32 %1911, 0
  br i1 %1912, label %1917, label %1913

1913:                                             ; preds = %1908
  %1914 = load %struct.TfLiteTensor*, %struct.TfLiteTensor** %154, align 8
  %1915 = sext i32 %1911 to i64
  %1916 = getelementptr inbounds %struct.TfLiteTensor, %struct.TfLiteTensor* %1914, i64 %1915
  br label %1917

1917:                                             ; preds = %1913, %1908
  %1918 = phi %struct.TfLiteTensor* [ %1916, %1913 ], [ null, %1908 ]
  %1919 = getelementptr inbounds %struct.TfLiteIntArray, %struct.TfLiteIntArray* %1837, i64 0, i32 1, i64 9
  %1920 = load i32, i32* %1919, align 4
  %1921 = icmp slt i32 %1920, 0
  br i1 %1921, label %1926, label %1922

1922:                                             ; preds = %1917
  %1923 = load %struct.TfLiteTensor*, %struct.TfLiteTensor** %154, align 8
  %1924 = sext i32 %1920 to i64
  %1925 = getelementptr inbounds %struct.TfLiteTensor, %struct.TfLiteTensor* %1923, i64 %1924
  br label %1926

1926:                                             ; preds = %1922, %1917
  %1927 = phi %struct.TfLiteTensor* [ %1925, %1922 ], [ null, %1917 ]
  %1928 = getelementptr inbounds %struct.TfLiteIntArray, %struct.TfLiteIntArray* %1837, i64 0, i32 1, i64 10
  %1929 = load i32, i32* %1928, align 4
  %1930 = icmp slt i32 %1929, 0
  br i1 %1930, label %1935, label %1931

1931:                                             ; preds = %1926
  %1932 = load %struct.TfLiteTensor*, %struct.TfLiteTensor** %154, align 8
  %1933 = sext i32 %1929 to i64
  %1934 = getelementptr inbounds %struct.TfLiteTensor, %struct.TfLiteTensor* %1932, i64 %1933
  br label %1935

1935:                                             ; preds = %1931, %1926
  %1936 = phi %struct.TfLiteTensor* [ %1934, %1931 ], [ null, %1926 ]
  %1937 = getelementptr inbounds %struct.TfLiteIntArray, %struct.TfLiteIntArray* %1837, i64 0, i32 1, i64 11
  %1938 = load i32, i32* %1937, align 4
  %1939 = icmp slt i32 %1938, 0
  br i1 %1939, label %1944, label %1940

1940:                                             ; preds = %1935
  %1941 = load %struct.TfLiteTensor*, %struct.TfLiteTensor** %154, align 8
  %1942 = sext i32 %1938 to i64
  %1943 = getelementptr inbounds %struct.TfLiteTensor, %struct.TfLiteTensor* %1941, i64 %1942
  br label %1944

1944:                                             ; preds = %1940, %1935
  %1945 = phi %struct.TfLiteTensor* [ %1943, %1940 ], [ null, %1935 ]
  %1946 = getelementptr inbounds %struct.TfLiteIntArray, %struct.TfLiteIntArray* %1837, i64 0, i32 1, i64 20
  %1947 = load i32, i32* %1946, align 4
  %1948 = icmp slt i32 %1947, 0
  br i1 %1948, label %1953, label %1949

1949:                                             ; preds = %1944
  %1950 = load %struct.TfLiteTensor*, %struct.TfLiteTensor** %154, align 8
  %1951 = sext i32 %1947 to i64
  %1952 = getelementptr inbounds %struct.TfLiteTensor, %struct.TfLiteTensor* %1950, i64 %1951
  br label %1953

1953:                                             ; preds = %1949, %1944
  %1954 = phi %struct.TfLiteTensor* [ %1952, %1949 ], [ null, %1944 ]
  %1955 = getelementptr inbounds %struct.TfLiteIntArray, %struct.TfLiteIntArray* %1837, i64 0, i32 1, i64 21
  %1956 = load i32, i32* %1955, align 4
  %1957 = icmp slt i32 %1956, 0
  br i1 %1957, label %1962, label %1958

1958:                                             ; preds = %1953
  %1959 = load %struct.TfLiteTensor*, %struct.TfLiteTensor** %154, align 8
  %1960 = sext i32 %1956 to i64
  %1961 = getelementptr inbounds %struct.TfLiteTensor, %struct.TfLiteTensor* %1959, i64 %1960
  br label %1962

1962:                                             ; preds = %1958, %1953
  %1963 = phi %struct.TfLiteTensor* [ %1961, %1958 ], [ null, %1953 ]
  %1964 = getelementptr inbounds %struct.TfLiteIntArray, %struct.TfLiteIntArray* %1837, i64 0, i32 1, i64 22
  %1965 = load i32, i32* %1964, align 4
  %1966 = icmp slt i32 %1965, 0
  br i1 %1966, label %1971, label %1967

1967:                                             ; preds = %1962
  %1968 = load %struct.TfLiteTensor*, %struct.TfLiteTensor** %154, align 8
  %1969 = sext i32 %1965 to i64
  %1970 = getelementptr inbounds %struct.TfLiteTensor, %struct.TfLiteTensor* %1968, i64 %1969
  br label %1971

1971:                                             ; preds = %1967, %1962
  %1972 = phi %struct.TfLiteTensor* [ %1970, %1967 ], [ null, %1962 ]
  %1973 = getelementptr inbounds %struct.TfLiteIntArray, %struct.TfLiteIntArray* %1837, i64 0, i32 1, i64 23
  %1974 = load i32, i32* %1973, align 4
  %1975 = icmp slt i32 %1974, 0
  br i1 %1975, label %1980, label %1976

1976:                                             ; preds = %1971
  %1977 = load %struct.TfLiteTensor*, %struct.TfLiteTensor** %154, align 8
  %1978 = sext i32 %1974 to i64
  %1979 = getelementptr inbounds %struct.TfLiteTensor, %struct.TfLiteTensor* %1977, i64 %1978
  br label %1980

1980:                                             ; preds = %1976, %1971
  %1981 = phi %struct.TfLiteTensor* [ %1979, %1976 ], [ null, %1971 ]
  %1982 = getelementptr inbounds %struct.TfLiteIntArray, %struct.TfLiteIntArray* %1837, i64 0, i32 1, i64 16
  %1983 = load i32, i32* %1982, align 4
  %1984 = icmp slt i32 %1983, 0
  br i1 %1984, label %1989, label %1985

1985:                                             ; preds = %1980
  %1986 = load %struct.TfLiteTensor*, %struct.TfLiteTensor** %154, align 8
  %1987 = sext i32 %1983 to i64
  %1988 = getelementptr inbounds %struct.TfLiteTensor, %struct.TfLiteTensor* %1986, i64 %1987
  br label %1989

1989:                                             ; preds = %1985, %1980
  %1990 = phi %struct.TfLiteTensor* [ %1988, %1985 ], [ null, %1980 ]
  %1991 = getelementptr inbounds %struct.TfLiteIntArray, %struct.TfLiteIntArray* %1837, i64 0, i32 1, i64 18
  %1992 = load i32, i32* %1991, align 4
  %1993 = icmp slt i32 %1992, 0
  br i1 %1993, label %2003, label %1994

1994:                                             ; preds = %1989
  %1995 = load %struct.TfLiteTensor*, %struct.TfLiteTensor** %154, align 8
  %1996 = sext i32 %1992 to i64
  %1997 = getelementptr inbounds %struct.TfLiteTensor, %struct.TfLiteTensor* %1995, i64 %1996
  %1998 = getelementptr inbounds %struct.TfLiteTensor, %struct.TfLiteTensor* %1995, i64 %1996, i32 11
  %1999 = load i8, i8* %1998, align 1, !range !5
  %2000 = icmp eq i8 %1999, 0
  %2001 = icmp eq %struct.TfLiteTensor* %1997, null
  %2002 = or i1 %2000, %2001
  br i1 %2002, label %2003, label %2006

2003:                                             ; preds = %1994, %1989
  %2004 = getelementptr inbounds %struct.TfLiteContext, %struct.TfLiteContext* %0, i64 0, i32 5
  %2005 = load void (%struct.TfLiteContext*, i8*, ...)*, void (%struct.TfLiteContext*, i8*, ...)** %2004, align 8
  call void (%struct.TfLiteContext*, i8*, ...) %2005(%struct.TfLiteContext* %0, i8* getelementptr inbounds ([23 x i8], [23 x i8]* @.str, i64 0, i64 0), i8* getelementptr inbounds ([61 x i8], [61 x i8]* @.str.3, i64 0, i64 0), i32 422, i8* getelementptr inbounds ([24 x i8], [24 x i8]* @.str.93, i64 0, i64 0)) #18
  br label %2411

2006:                                             ; preds = %1994
  %2007 = getelementptr inbounds %struct.TfLiteIntArray, %struct.TfLiteIntArray* %1837, i64 0, i32 1, i64 19
  %2008 = load i32, i32* %2007, align 4
  %2009 = icmp slt i32 %2008, 0
  br i1 %2009, label %2018, label %2010

2010:                                             ; preds = %2006
  %2011 = sext i32 %2008 to i64
  %2012 = getelementptr inbounds %struct.TfLiteTensor, %struct.TfLiteTensor* %1995, i64 %2011
  %2013 = getelementptr inbounds %struct.TfLiteTensor, %struct.TfLiteTensor* %1995, i64 %2011, i32 11
  %2014 = load i8, i8* %2013, align 1, !range !5
  %2015 = icmp eq i8 %2014, 0
  %2016 = icmp eq %struct.TfLiteTensor* %2012, null
  %2017 = or i1 %2016, %2015
  br i1 %2017, label %2018, label %2021

2018:                                             ; preds = %2010, %2006
  %2019 = getelementptr inbounds %struct.TfLiteContext, %struct.TfLiteContext* %0, i64 0, i32 5
  %2020 = load void (%struct.TfLiteContext*, i8*, ...)*, void (%struct.TfLiteContext*, i8*, ...)** %2019, align 8
  call void (%struct.TfLiteContext*, i8*, ...) %2020(%struct.TfLiteContext* %0, i8* getelementptr inbounds ([23 x i8], [23 x i8]* @.str, i64 0, i64 0), i8* getelementptr inbounds ([61 x i8], [61 x i8]* @.str.3, i64 0, i64 0), i32 424, i8* getelementptr inbounds ([22 x i8], [22 x i8]* @.str.101, i64 0, i64 0)) #18
  br label %2411

2021:                                             ; preds = %2010
  %2022 = icmp eq %struct.TfLiteTensor* %1855, null
  %2023 = icmp ne %struct.TfLiteTensor* %1945, null
  %2024 = icmp eq %struct.TfLiteTensor* %1963, null
  %2025 = icmp eq %struct.TfLiteTensor* %1990, null
  br i1 %2022, label %2033, label %2026

2026:                                             ; preds = %2021
  %2027 = getelementptr inbounds %struct.TfLiteTensor, %struct.TfLiteTensor* %1855, i64 0, i32 3, i32 0
  %2028 = load float, float* %2027, align 8
  %2029 = getelementptr inbounds %struct.TfLiteTensor, %struct.TfLiteTensor* %1891, i64 0, i32 3, i32 0
  %2030 = load float, float* %2029, align 8
  %2031 = insertelement <2 x float> undef, float %2028, i32 0
  %2032 = insertelement <2 x float> %2031, float %2030, i32 1
  br label %2033

2033:                                             ; preds = %2026, %2021
  %2034 = phi <2 x float> [ <float 1.000000e+00, float 1.000000e+00>, %2021 ], [ %2032, %2026 ]
  br i1 %2023, label %2035, label %2049

2035:                                             ; preds = %2033
  br i1 %2022, label %2039, label %2036

2036:                                             ; preds = %2035
  %2037 = getelementptr inbounds %struct.TfLiteTensor, %struct.TfLiteTensor* %1927, i64 0, i32 3, i32 0
  %2038 = load float, float* %2037, align 8
  br label %2039

2039:                                             ; preds = %2036, %2035
  %2040 = phi float [ 1.000000e+00, %2035 ], [ %2038, %2036 ]
  %2041 = getelementptr inbounds %struct.TfLiteTensor, %struct.TfLiteTensor* %1936, i64 0, i32 3, i32 0
  %2042 = load float, float* %2041, align 8
  %2043 = getelementptr inbounds %struct.TfLiteTensor, %struct.TfLiteTensor* %1945, i64 0, i32 3, i32 0
  %2044 = load float, float* %2043, align 8
  %2045 = insertelement <2 x float> undef, float %2042, i32 0
  %2046 = insertelement <2 x float> %2045, float %2044, i32 1
  %2047 = fpext <2 x float> %2046 to <2 x double>
  %2048 = fmul <2 x double> %2047, <double 0x3F00000000000000, double 0x3F00000000000000>
  br label %2049

2049:                                             ; preds = %2039, %2033
  %2050 = phi float [ %2040, %2039 ], [ 1.000000e+00, %2033 ]
  %2051 = phi <2 x double> [ %2048, %2039 ], [ <double 0x3F00000000000000, double 0x3F00000000000000>, %2033 ]
  br i1 %2024, label %2067, label %2052

2052:                                             ; preds = %2049
  br i1 %2022, label %2056, label %2053

2053:                                             ; preds = %2052
  %2054 = getelementptr inbounds %struct.TfLiteTensor, %struct.TfLiteTensor* %1954, i64 0, i32 3, i32 0
  %2055 = load float, float* %2054, align 8
  br label %2056

2056:                                             ; preds = %2053, %2052
  %2057 = phi float [ 1.000000e+00, %2052 ], [ %2055, %2053 ]
  %2058 = getelementptr inbounds %struct.TfLiteTensor, %struct.TfLiteTensor* %1963, i64 0, i32 3, i32 0
  %2059 = load float, float* %2058, align 8
  %2060 = getelementptr inbounds %struct.TfLiteTensor, %struct.TfLiteTensor* %1972, i64 0, i32 3, i32 0
  %2061 = load float, float* %2060, align 8
  %2062 = getelementptr inbounds %struct.TfLiteTensor, %struct.TfLiteTensor* %1981, i64 0, i32 3, i32 0
  %2063 = load float, float* %2062, align 8
  %2064 = fpext float %2059 to double
  %2065 = fpext float %2061 to double
  %2066 = fpext float %2063 to double
  br label %2067

2067:                                             ; preds = %2056, %2049
  %2068 = phi float [ %2057, %2056 ], [ 1.000000e+00, %2049 ]
  %2069 = phi double [ %2064, %2056 ], [ 1.000000e+00, %2049 ]
  %2070 = phi double [ %2065, %2056 ], [ 1.000000e+00, %2049 ]
  %2071 = phi double [ %2066, %2056 ], [ 1.000000e+00, %2049 ]
  br i1 %2025, label %2077, label %2072

2072:                                             ; preds = %2067
  %2073 = getelementptr inbounds %struct.TfLiteTensor, %struct.TfLiteTensor* %1990, i64 0, i32 3, i32 0
  %2074 = load float, float* %2073, align 8
  %2075 = fpext float %2074 to double
  %2076 = fmul double %2075, 0x3F00000000000000
  br label %2077

2077:                                             ; preds = %2072, %2067
  %2078 = phi double [ 0x3F00000000000000, %2067 ], [ %2076, %2072 ]
  %2079 = getelementptr inbounds %struct.TfLiteTensor, %struct.TfLiteTensor* %1995, i64 %1996, i32 3, i32 0
  %2080 = load float, float* %2079, align 8
  %2081 = getelementptr inbounds %struct.TfLiteTensor, %struct.TfLiteTensor* %1864, i64 0, i32 3, i32 0
  %2082 = load float, float* %2081, align 8
  %2083 = getelementptr inbounds %struct.TfLiteTensor, %struct.TfLiteTensor* %1873, i64 0, i32 3, i32 0
  %2084 = load float, float* %2083, align 8
  %2085 = getelementptr inbounds %struct.TfLiteTensor, %struct.TfLiteTensor* %1882, i64 0, i32 3, i32 0
  %2086 = load float, float* %2085, align 8
  %2087 = getelementptr inbounds %struct.TfLiteTensor, %struct.TfLiteTensor* %1900, i64 0, i32 3, i32 0
  %2088 = load float, float* %2087, align 8
  %2089 = getelementptr inbounds %struct.TfLiteTensor, %struct.TfLiteTensor* %1909, i64 0, i32 3, i32 0
  %2090 = load float, float* %2089, align 8
  %2091 = getelementptr inbounds %struct.TfLiteTensor, %struct.TfLiteTensor* %1918, i64 0, i32 3, i32 0
  %2092 = load float, float* %2091, align 8
  %2093 = getelementptr inbounds %struct.TfLiteTensor, %struct.TfLiteTensor* %1846, i64 0, i32 3, i32 0
  %2094 = load float, float* %2093, align 8
  %2095 = bitcast %"class.std::__1::vector.25"* %6 to i8*
  call void @llvm.lifetime.start.p0i8(i64 24, i8* nonnull %2095) #18
  %2096 = getelementptr inbounds %"class.std::__1::vector.25", %"class.std::__1::vector.25"* %6, i64 0, i32 0, i32 0
  %2097 = getelementptr inbounds %"class.std::__1::vector.25", %"class.std::__1::vector.25"* %6, i64 0, i32 0, i32 1
  %2098 = getelementptr inbounds %"class.std::__1::vector.25", %"class.std::__1::vector.25"* %6, i64 0, i32 0, i32 2, i32 0, i32 0
  call void @llvm.memset.p0i8.i64(i8* nonnull align 8 %2095, i8 0, i64 24, i1 false) #18
  %2099 = bitcast float** %2097 to i64*
  %2100 = bitcast %"class.std::__1::vector.25"* %6 to i64*
  %2101 = bitcast float** %2098 to i64*
  br label %2104

2102:                                             ; preds = %2175
  %2103 = load float*, float** %2096, align 8
  br i1 %2022, label %2197, label %2188

2104:                                             ; preds = %2185, %2077
  %2105 = phi i64 [ 0, %2077 ], [ %2176, %2185 ]
  %2106 = phi float* [ null, %2077 ], [ %2187, %2185 ]
  %2107 = phi float* [ null, %2077 ], [ %2177, %2185 ]
  %2108 = phi %struct.TfLiteTensor* [ %1995, %2077 ], [ %2186, %2185 ]
  %2109 = phi i64 [ 0, %2077 ], [ %2183, %2185 ]
  %2110 = load %struct.TfLiteIntArray*, %struct.TfLiteIntArray** %505, align 8
  %2111 = getelementptr inbounds %struct.TfLiteIntArray, %struct.TfLiteIntArray* %2110, i64 0, i32 1, i64 %2109
  %2112 = load i32, i32* %2111, align 4
  %2113 = sext i32 %2112 to i64
  %2114 = getelementptr inbounds %struct.TfLiteTensor, %struct.TfLiteTensor* %2108, i64 %2113, i32 12, i32 1
  %2115 = bitcast i8** %2114 to %struct.TfLiteAffineQuantization**
  %2116 = load %struct.TfLiteAffineQuantization*, %struct.TfLiteAffineQuantization** %2115, align 8
  %2117 = getelementptr inbounds %struct.TfLiteAffineQuantization, %struct.TfLiteAffineQuantization* %2116, i64 0, i32 0
  %2118 = load %struct.TfLiteFloatArray*, %struct.TfLiteFloatArray** %2117, align 8
  %2119 = getelementptr inbounds %struct.TfLiteFloatArray, %struct.TfLiteFloatArray* %2118, i64 0, i32 1, i64 0
  %2120 = icmp eq float* %2107, %2106
  br i1 %2120, label %2127, label %2121

2121:                                             ; preds = %2104
  %2122 = bitcast float* %2119 to i32*
  %2123 = load i32, i32* %2122, align 4
  %2124 = bitcast float* %2107 to i32*
  store i32 %2123, i32* %2124, align 4
  %2125 = getelementptr inbounds float, float* %2107, i64 1
  %2126 = ptrtoint float* %2125 to i64
  store i64 %2126, i64* %2099, align 8
  br label %2175

2127:                                             ; preds = %2104
  %2128 = ptrtoint float* %2106 to i64
  %2129 = load i64, i64* %2100, align 8
  %2130 = sub i64 %2128, %2129
  %2131 = ashr exact i64 %2130, 2
  %2132 = add nsw i64 %2131, 1
  %2133 = icmp ugt i64 %2132, 4611686018427387903
  br i1 %2133, label %2134, label %2136

2134:                                             ; preds = %2127
  %2135 = bitcast %"class.std::__1::vector.25"* %6 to %"class.std::__1::__vector_base_common"*
  call void @_ZNKSt3__120__vector_base_commonILb1EE20__throw_length_errorEv(%"class.std::__1::__vector_base_common"* nonnull %2135) #19
  unreachable

2136:                                             ; preds = %2127
  %2137 = icmp ult i64 %2131, 2305843009213693951
  br i1 %2137, label %2138, label %2146

2138:                                             ; preds = %2136
  %2139 = ashr exact i64 %2130, 1
  %2140 = icmp ult i64 %2139, %2132
  %2141 = select i1 %2140, i64 %2132, i64 %2139
  %2142 = icmp eq i64 %2141, 0
  br i1 %2142, label %2151, label %2143

2143:                                             ; preds = %2138
  %2144 = icmp ugt i64 %2141, 4611686018427387903
  br i1 %2144, label %2145, label %2146

2145:                                             ; preds = %2143
  call void @abort() #19
  unreachable

2146:                                             ; preds = %2143, %2136
  %2147 = phi i64 [ %2141, %2143 ], [ 4611686018427387903, %2136 ]
  %2148 = shl i64 %2147, 2
  %2149 = call i8* @_Znwm(i64 %2148) #17
  %2150 = bitcast i8* %2149 to float*
  br label %2151

2151:                                             ; preds = %2146, %2138
  %2152 = phi i64 [ %2147, %2146 ], [ 0, %2138 ]
  %2153 = phi float* [ %2150, %2146 ], [ null, %2138 ]
  %2154 = getelementptr inbounds float, float* %2153, i64 %2131
  %2155 = getelementptr inbounds float, float* %2153, i64 %2152
  %2156 = ptrtoint float* %2155 to i64
  %2157 = bitcast float* %2119 to i32*
  %2158 = load i32, i32* %2157, align 4
  %2159 = bitcast float* %2154 to i32*
  store i32 %2158, i32* %2159, align 4
  %2160 = getelementptr inbounds float, float* %2154, i64 1
  %2161 = ptrtoint float* %2160 to i64
  %2162 = sub i64 %2105, %2129
  %2163 = ashr exact i64 %2162, 2
  %2164 = sub nsw i64 0, %2163
  %2165 = getelementptr inbounds float, float* %2154, i64 %2164
  %2166 = ptrtoint float* %2165 to i64
  %2167 = icmp sgt i64 %2162, 0
  br i1 %2167, label %2168, label %2171

2168:                                             ; preds = %2151
  %2169 = bitcast float* %2165 to i8*
  %2170 = inttoptr i64 %2129 to i8*
  call void @llvm.memcpy.p0i8.p0i8.i64(i8* align 4 %2169, i8* align 4 %2170, i64 %2162, i1 false) #18
  br label %2171

2171:                                             ; preds = %2168, %2151
  store i64 %2166, i64* %2100, align 8
  store i64 %2161, i64* %2099, align 8
  store i64 %2156, i64* %2101, align 8
  %2172 = icmp eq i64 %2129, 0
  br i1 %2172, label %2175, label %2173

2173:                                             ; preds = %2171
  %2174 = inttoptr i64 %2129 to i8*
  call void @_ZdlPv(i8* %2174) #17
  br label %2175

2175:                                             ; preds = %2173, %2171, %2121
  %2176 = phi i64 [ %2126, %2121 ], [ %2161, %2171 ], [ %2161, %2173 ]
  %2177 = phi float* [ %2125, %2121 ], [ %2160, %2171 ], [ %2160, %2173 ]
  %2178 = getelementptr inbounds %struct.TfLiteAffineQuantization, %struct.TfLiteAffineQuantization* %2116, i64 0, i32 1
  %2179 = load %struct.TfLiteIntArray*, %struct.TfLiteIntArray** %2178, align 8
  %2180 = getelementptr inbounds %struct.TfLiteIntArray, %struct.TfLiteIntArray* %2179, i64 0, i32 1, i64 0
  %2181 = load i32, i32* %2180, align 4
  %2182 = getelementptr inbounds %"struct.tflite::ops::builtin::lstm::OpData", %"struct.tflite::ops::builtin::lstm::OpData"* %16, i64 0, i32 5, i32 53, i64 %2109
  store i32 %2181, i32* %2182, align 4
  %2183 = add nuw nsw i64 %2109, 1
  %2184 = icmp eq i64 %2183, 12
  br i1 %2184, label %2102, label %2185

2185:                                             ; preds = %2175
  %2186 = load %struct.TfLiteTensor*, %struct.TfLiteTensor** %154, align 8
  %2187 = load float*, float** %2098, align 8
  br label %2104

2188:                                             ; preds = %2102
  %2189 = getelementptr inbounds float, float* %2103, i64 1
  %2190 = insertelement <2 x float> undef, float %2094, i32 0
  %2191 = insertelement <2 x float> %2190, float %2080, i32 1
  %2192 = fmul <2 x float> %2034, %2191
  %2193 = bitcast float* %2189 to <2 x float>*
  %2194 = load <2 x float>, <2 x float>* %2193, align 4
  %2195 = fdiv <2 x float> %2192, %2194
  %2196 = fpext <2 x float> %2195 to <2 x double>
  br label %2197

2197:                                             ; preds = %2102, %2188
  %2198 = phi <2 x double> [ %2196, %2188 ], [ <double 1.000000e+00, double 1.000000e+00>, %2102 ]
  %2199 = fmul float %2082, %2094
  %2200 = getelementptr inbounds float, float* %2103, i64 4
  %2201 = load float, float* %2200, align 4
  %2202 = fdiv float %2199, %2201
  %2203 = fmul float %2080, %2088
  %2204 = getelementptr inbounds float, float* %2103, i64 5
  %2205 = load float, float* %2204, align 4
  %2206 = fdiv float %2203, %2205
  %2207 = fmul float %2084, %2094
  %2208 = getelementptr inbounds float, float* %2103, i64 7
  %2209 = load float, float* %2208, align 4
  %2210 = fdiv float %2207, %2209
  %2211 = fmul float %2080, %2090
  %2212 = getelementptr inbounds float, float* %2103, i64 8
  %2213 = load float, float* %2212, align 4
  %2214 = fdiv float %2211, %2213
  %2215 = fmul float %2086, %2094
  %2216 = getelementptr inbounds float, float* %2103, i64 10
  %2217 = load float, float* %2216, align 4
  %2218 = fdiv float %2215, %2217
  %2219 = fmul float %2080, %2092
  %2220 = getelementptr inbounds float, float* %2103, i64 11
  %2221 = load float, float* %2220, align 4
  %2222 = fdiv float %2219, %2221
  %2223 = fpext float %2080 to double
  %2224 = fdiv double %2078, %2223
  %2225 = fptrunc double %2224 to float
  br i1 %2023, label %2226, label %2246

2226:                                             ; preds = %2197
  br i1 %2022, label %2234, label %2227

2227:                                             ; preds = %2226
  %2228 = fpext float %2050 to double
  %2229 = fmul double %2228, 0x3F00000000000000
  %2230 = load float, float* %2103, align 4
  %2231 = fpext float %2230 to double
  %2232 = fdiv double %2229, %2231
  %2233 = fptrunc double %2232 to float
  br label %2234

2234:                                             ; preds = %2227, %2226
  %2235 = phi float [ 1.000000e+00, %2226 ], [ %2233, %2227 ]
  %2236 = getelementptr inbounds float, float* %2103, i64 3
  %2237 = load float, float* %2236, align 4
  %2238 = getelementptr inbounds float, float* %2103, i64 9
  %2239 = load float, float* %2238, align 4
  %2240 = insertelement <2 x float> undef, float %2237, i32 0
  %2241 = insertelement <2 x float> %2240, float %2239, i32 1
  %2242 = fpext <2 x float> %2241 to <2 x double>
  %2243 = fdiv <2 x double> %2051, %2242
  %2244 = fptrunc <2 x double> %2243 to <2 x float>
  %2245 = fpext <2 x float> %2244 to <2 x double>
  br label %2246

2246:                                             ; preds = %2234, %2197
  %2247 = phi float [ %2235, %2234 ], [ 1.000000e+00, %2197 ]
  %2248 = phi <2 x double> [ %2245, %2234 ], [ <double 1.000000e+00, double 1.000000e+00>, %2197 ]
  %2249 = getelementptr inbounds %"struct.tflite::ops::builtin::lstm::OpData", %"struct.tflite::ops::builtin::lstm::OpData"* %16, i64 0, i32 5, i32 0
  %2250 = getelementptr inbounds %"struct.tflite::ops::builtin::lstm::OpData", %"struct.tflite::ops::builtin::lstm::OpData"* %16, i64 0, i32 5, i32 1
  %2251 = extractelement <2 x double> %2198, i32 0
  call void @_ZN6tflite18QuantizeMultiplierEdPiS0_(double %2251, i32* %2249, i32* %2250) #18
  %2252 = getelementptr inbounds %"struct.tflite::ops::builtin::lstm::OpData", %"struct.tflite::ops::builtin::lstm::OpData"* %16, i64 0, i32 5, i32 2
  %2253 = getelementptr inbounds %"struct.tflite::ops::builtin::lstm::OpData", %"struct.tflite::ops::builtin::lstm::OpData"* %16, i64 0, i32 5, i32 3
  %2254 = extractelement <2 x double> %2198, i32 1
  call void @_ZN6tflite18QuantizeMultiplierEdPiS0_(double %2254, i32* %2252, i32* %2253) #18
  %2255 = fpext float %2247 to double
  %2256 = getelementptr inbounds %"struct.tflite::ops::builtin::lstm::OpData", %"struct.tflite::ops::builtin::lstm::OpData"* %16, i64 0, i32 5, i32 4
  %2257 = getelementptr inbounds %"struct.tflite::ops::builtin::lstm::OpData", %"struct.tflite::ops::builtin::lstm::OpData"* %16, i64 0, i32 5, i32 5
  call void @_ZN6tflite18QuantizeMultiplierEdPiS0_(double %2255, i32* %2256, i32* %2257) #18
  %2258 = fpext float %2202 to double
  %2259 = getelementptr inbounds %"struct.tflite::ops::builtin::lstm::OpData", %"struct.tflite::ops::builtin::lstm::OpData"* %16, i64 0, i32 5, i32 6
  %2260 = getelementptr inbounds %"struct.tflite::ops::builtin::lstm::OpData", %"struct.tflite::ops::builtin::lstm::OpData"* %16, i64 0, i32 5, i32 7
  call void @_ZN6tflite18QuantizeMultiplierEdPiS0_(double %2258, i32* %2259, i32* %2260) #18
  %2261 = fpext float %2206 to double
  %2262 = getelementptr inbounds %"struct.tflite::ops::builtin::lstm::OpData", %"struct.tflite::ops::builtin::lstm::OpData"* %16, i64 0, i32 5, i32 8
  %2263 = getelementptr inbounds %"struct.tflite::ops::builtin::lstm::OpData", %"struct.tflite::ops::builtin::lstm::OpData"* %16, i64 0, i32 5, i32 9
  call void @_ZN6tflite18QuantizeMultiplierEdPiS0_(double %2261, i32* %2262, i32* %2263) #18
  %2264 = getelementptr inbounds %"struct.tflite::ops::builtin::lstm::OpData", %"struct.tflite::ops::builtin::lstm::OpData"* %16, i64 0, i32 5, i32 10
  %2265 = getelementptr inbounds %"struct.tflite::ops::builtin::lstm::OpData", %"struct.tflite::ops::builtin::lstm::OpData"* %16, i64 0, i32 5, i32 11
  %2266 = extractelement <2 x double> %2248, i32 0
  call void @_ZN6tflite18QuantizeMultiplierEdPiS0_(double %2266, i32* %2264, i32* %2265) #18
  %2267 = fpext float %2210 to double
  %2268 = getelementptr inbounds %"struct.tflite::ops::builtin::lstm::OpData", %"struct.tflite::ops::builtin::lstm::OpData"* %16, i64 0, i32 5, i32 12
  %2269 = getelementptr inbounds %"struct.tflite::ops::builtin::lstm::OpData", %"struct.tflite::ops::builtin::lstm::OpData"* %16, i64 0, i32 5, i32 13
  call void @_ZN6tflite18QuantizeMultiplierEdPiS0_(double %2267, i32* %2268, i32* %2269) #18
  %2270 = fpext float %2214 to double
  %2271 = getelementptr inbounds %"struct.tflite::ops::builtin::lstm::OpData", %"struct.tflite::ops::builtin::lstm::OpData"* %16, i64 0, i32 5, i32 14
  %2272 = getelementptr inbounds %"struct.tflite::ops::builtin::lstm::OpData", %"struct.tflite::ops::builtin::lstm::OpData"* %16, i64 0, i32 5, i32 15
  call void @_ZN6tflite18QuantizeMultiplierEdPiS0_(double %2270, i32* %2271, i32* %2272) #18
  %2273 = fpext float %2218 to double
  %2274 = getelementptr inbounds %"struct.tflite::ops::builtin::lstm::OpData", %"struct.tflite::ops::builtin::lstm::OpData"* %16, i64 0, i32 5, i32 16
  %2275 = getelementptr inbounds %"struct.tflite::ops::builtin::lstm::OpData", %"struct.tflite::ops::builtin::lstm::OpData"* %16, i64 0, i32 5, i32 17
  call void @_ZN6tflite18QuantizeMultiplierEdPiS0_(double %2273, i32* %2274, i32* %2275) #18
  %2276 = fpext float %2222 to double
  %2277 = getelementptr inbounds %"struct.tflite::ops::builtin::lstm::OpData", %"struct.tflite::ops::builtin::lstm::OpData"* %16, i64 0, i32 5, i32 18
  %2278 = getelementptr inbounds %"struct.tflite::ops::builtin::lstm::OpData", %"struct.tflite::ops::builtin::lstm::OpData"* %16, i64 0, i32 5, i32 19
  call void @_ZN6tflite18QuantizeMultiplierEdPiS0_(double %2276, i32* %2277, i32* %2278) #18
  %2279 = getelementptr inbounds %"struct.tflite::ops::builtin::lstm::OpData", %"struct.tflite::ops::builtin::lstm::OpData"* %16, i64 0, i32 5, i32 20
  %2280 = getelementptr inbounds %"struct.tflite::ops::builtin::lstm::OpData", %"struct.tflite::ops::builtin::lstm::OpData"* %16, i64 0, i32 5, i32 21
  %2281 = extractelement <2 x double> %2248, i32 1
  call void @_ZN6tflite18QuantizeMultiplierEdPiS0_(double %2281, i32* %2279, i32* %2280) #18
  %2282 = fpext float %2225 to double
  %2283 = getelementptr inbounds %"struct.tflite::ops::builtin::lstm::OpData", %"struct.tflite::ops::builtin::lstm::OpData"* %16, i64 0, i32 5, i32 22
  %2284 = getelementptr inbounds %"struct.tflite::ops::builtin::lstm::OpData", %"struct.tflite::ops::builtin::lstm::OpData"* %16, i64 0, i32 5, i32 23
  call void @_ZN6tflite18QuantizeMultiplierEdPiS0_(double %2282, i32* %2283, i32* %2284) #18
  %2285 = fpext float %2068 to double
  %2286 = getelementptr inbounds %"struct.tflite::ops::builtin::lstm::OpData", %"struct.tflite::ops::builtin::lstm::OpData"* %16, i64 0, i32 5, i32 26
  %2287 = getelementptr inbounds %"struct.tflite::ops::builtin::lstm::OpData", %"struct.tflite::ops::builtin::lstm::OpData"* %16, i64 0, i32 5, i32 27
  call void @_ZN6tflite18QuantizeMultiplierEdPiS0_(double %2285, i32* %2286, i32* %2287) #18
  %2288 = getelementptr inbounds %"struct.tflite::ops::builtin::lstm::OpData", %"struct.tflite::ops::builtin::lstm::OpData"* %16, i64 0, i32 5, i32 28
  %2289 = getelementptr inbounds %"struct.tflite::ops::builtin::lstm::OpData", %"struct.tflite::ops::builtin::lstm::OpData"* %16, i64 0, i32 5, i32 29
  call void @_ZN6tflite18QuantizeMultiplierEdPiS0_(double %2069, i32* %2288, i32* %2289) #18
  %2290 = getelementptr inbounds %"struct.tflite::ops::builtin::lstm::OpData", %"struct.tflite::ops::builtin::lstm::OpData"* %16, i64 0, i32 5, i32 30
  %2291 = getelementptr inbounds %"struct.tflite::ops::builtin::lstm::OpData", %"struct.tflite::ops::builtin::lstm::OpData"* %16, i64 0, i32 5, i32 31
  call void @_ZN6tflite18QuantizeMultiplierEdPiS0_(double %2070, i32* %2290, i32* %2291) #18
  %2292 = getelementptr inbounds %"struct.tflite::ops::builtin::lstm::OpData", %"struct.tflite::ops::builtin::lstm::OpData"* %16, i64 0, i32 5, i32 32
  %2293 = getelementptr inbounds %"struct.tflite::ops::builtin::lstm::OpData", %"struct.tflite::ops::builtin::lstm::OpData"* %16, i64 0, i32 5, i32 33
  call void @_ZN6tflite18QuantizeMultiplierEdPiS0_(double %2071, i32* %2292, i32* %2293) #18
  %2294 = getelementptr inbounds float, float* %2103, i64 1
  %2295 = load float, float* %2294, align 4
  %2296 = load float, float* %2103, align 4
  %2297 = fdiv float %2295, %2296
  %2298 = getelementptr inbounds float, float* %2103, i64 2
  %2299 = load float, float* %2298, align 4
  %2300 = fdiv float %2299, %2296
  %2301 = load float, float* %2200, align 4
  %2302 = getelementptr inbounds float, float* %2103, i64 3
  %2303 = load float, float* %2302, align 4
  %2304 = fdiv float %2301, %2303
  %2305 = load float, float* %2204, align 4
  %2306 = fdiv float %2305, %2303
  %2307 = load float, float* %2208, align 4
  %2308 = getelementptr inbounds float, float* %2103, i64 6
  %2309 = load float, float* %2308, align 4
  %2310 = fdiv float %2307, %2309
  %2311 = load float, float* %2212, align 4
  %2312 = fdiv float %2311, %2309
  %2313 = load float, float* %2216, align 4
  %2314 = getelementptr inbounds float, float* %2103, i64 9
  %2315 = load float, float* %2314, align 4
  %2316 = fdiv float %2313, %2315
  %2317 = load float, float* %2220, align 4
  %2318 = fdiv float %2317, %2315
  %2319 = fpext float %2297 to double
  %2320 = getelementptr inbounds %"struct.tflite::ops::builtin::lstm::OpData", %"struct.tflite::ops::builtin::lstm::OpData"* %16, i64 0, i32 5, i32 51, i64 0
  %2321 = getelementptr inbounds %"struct.tflite::ops::builtin::lstm::OpData", %"struct.tflite::ops::builtin::lstm::OpData"* %16, i64 0, i32 5, i32 52, i64 0
  call void @_ZN6tflite18QuantizeMultiplierEdPiS0_(double %2319, i32* %2320, i32* %2321) #18
  %2322 = fpext float %2300 to double
  %2323 = getelementptr inbounds %"struct.tflite::ops::builtin::lstm::OpData", %"struct.tflite::ops::builtin::lstm::OpData"* %16, i64 0, i32 5, i32 51, i64 1
  %2324 = getelementptr inbounds %"struct.tflite::ops::builtin::lstm::OpData", %"struct.tflite::ops::builtin::lstm::OpData"* %16, i64 0, i32 5, i32 52, i64 1
  call void @_ZN6tflite18QuantizeMultiplierEdPiS0_(double %2322, i32* %2323, i32* %2324) #18
  %2325 = fpext float %2304 to double
  %2326 = getelementptr inbounds %"struct.tflite::ops::builtin::lstm::OpData", %"struct.tflite::ops::builtin::lstm::OpData"* %16, i64 0, i32 5, i32 51, i64 2
  %2327 = getelementptr inbounds %"struct.tflite::ops::builtin::lstm::OpData", %"struct.tflite::ops::builtin::lstm::OpData"* %16, i64 0, i32 5, i32 52, i64 2
  call void @_ZN6tflite18QuantizeMultiplierEdPiS0_(double %2325, i32* %2326, i32* %2327) #18
  %2328 = fpext float %2306 to double
  %2329 = getelementptr inbounds %"struct.tflite::ops::builtin::lstm::OpData", %"struct.tflite::ops::builtin::lstm::OpData"* %16, i64 0, i32 5, i32 51, i64 3
  %2330 = getelementptr inbounds %"struct.tflite::ops::builtin::lstm::OpData", %"struct.tflite::ops::builtin::lstm::OpData"* %16, i64 0, i32 5, i32 52, i64 3
  call void @_ZN6tflite18QuantizeMultiplierEdPiS0_(double %2328, i32* %2329, i32* %2330) #18
  %2331 = fpext float %2310 to double
  %2332 = getelementptr inbounds %"struct.tflite::ops::builtin::lstm::OpData", %"struct.tflite::ops::builtin::lstm::OpData"* %16, i64 0, i32 5, i32 51, i64 4
  %2333 = getelementptr inbounds %"struct.tflite::ops::builtin::lstm::OpData", %"struct.tflite::ops::builtin::lstm::OpData"* %16, i64 0, i32 5, i32 52, i64 4
  call void @_ZN6tflite18QuantizeMultiplierEdPiS0_(double %2331, i32* %2332, i32* %2333) #18
  %2334 = fpext float %2312 to double
  %2335 = getelementptr inbounds %"struct.tflite::ops::builtin::lstm::OpData", %"struct.tflite::ops::builtin::lstm::OpData"* %16, i64 0, i32 5, i32 51, i64 5
  %2336 = getelementptr inbounds %"struct.tflite::ops::builtin::lstm::OpData", %"struct.tflite::ops::builtin::lstm::OpData"* %16, i64 0, i32 5, i32 52, i64 5
  call void @_ZN6tflite18QuantizeMultiplierEdPiS0_(double %2334, i32* %2335, i32* %2336) #18
  %2337 = fpext float %2316 to double
  %2338 = getelementptr inbounds %"struct.tflite::ops::builtin::lstm::OpData", %"struct.tflite::ops::builtin::lstm::OpData"* %16, i64 0, i32 5, i32 51, i64 6
  %2339 = getelementptr inbounds %"struct.tflite::ops::builtin::lstm::OpData", %"struct.tflite::ops::builtin::lstm::OpData"* %16, i64 0, i32 5, i32 52, i64 6
  call void @_ZN6tflite18QuantizeMultiplierEdPiS0_(double %2337, i32* %2338, i32* %2339) #18
  %2340 = fpext float %2318 to double
  %2341 = getelementptr inbounds %"struct.tflite::ops::builtin::lstm::OpData", %"struct.tflite::ops::builtin::lstm::OpData"* %16, i64 0, i32 5, i32 51, i64 7
  %2342 = getelementptr inbounds %"struct.tflite::ops::builtin::lstm::OpData", %"struct.tflite::ops::builtin::lstm::OpData"* %16, i64 0, i32 5, i32 52, i64 7
  call void @_ZN6tflite18QuantizeMultiplierEdPiS0_(double %2340, i32* %2341, i32* %2342) #18
  %2343 = getelementptr inbounds %struct.TfLiteNode, %struct.TfLiteNode* %1, i64 0, i32 5
  %2344 = bitcast i8** %2343 to %struct.TfLiteLSTMParams**
  %2345 = load %struct.TfLiteLSTMParams*, %struct.TfLiteLSTMParams** %2344, align 8
  %2346 = getelementptr inbounds %struct.TfLiteLSTMParams, %struct.TfLiteLSTMParams* %2345, i64 0, i32 1
  %2347 = load float, float* %2346, align 4
  %2348 = getelementptr inbounds %struct.TfLiteLSTMParams, %struct.TfLiteLSTMParams* %2345, i64 0, i32 2
  %2349 = load float, float* %2348, align 4
  %2350 = load %struct.TfLiteIntArray*, %struct.TfLiteIntArray** %17, align 8
  %2351 = getelementptr inbounds %struct.TfLiteIntArray, %struct.TfLiteIntArray* %2350, i64 0, i32 1, i64 0
  %2352 = load i32, i32* %2351, align 4
  %2353 = icmp slt i32 %2352, 0
  br i1 %2353, label %2358, label %2354

2354:                                             ; preds = %2246
  %2355 = load %struct.TfLiteTensor*, %struct.TfLiteTensor** %154, align 8
  %2356 = sext i32 %2352 to i64
  %2357 = getelementptr inbounds %struct.TfLiteTensor, %struct.TfLiteTensor* %2355, i64 %2356
  br label %2358

2358:                                             ; preds = %2354, %2246
  %2359 = phi %struct.TfLiteTensor* [ %2357, %2354 ], [ null, %2246 ]
  %2360 = getelementptr inbounds %struct.TfLiteTensor, %struct.TfLiteTensor* %1995, i64 %2011, i32 12, i32 1
  %2361 = bitcast i8** %2360 to %struct.TfLiteAffineQuantization**
  %2362 = load %struct.TfLiteAffineQuantization*, %struct.TfLiteAffineQuantization** %2361, align 8
  %2363 = getelementptr inbounds %struct.TfLiteTensor, %struct.TfLiteTensor* %2359, i64 0, i32 12, i32 1
  %2364 = bitcast i8** %2363 to %struct.TfLiteAffineQuantization**
  %2365 = load %struct.TfLiteAffineQuantization*, %struct.TfLiteAffineQuantization** %2364, align 8
  %2366 = getelementptr inbounds %struct.TfLiteAffineQuantization, %struct.TfLiteAffineQuantization* %2362, i64 0, i32 0
  %2367 = load %struct.TfLiteFloatArray*, %struct.TfLiteFloatArray** %2366, align 8
  %2368 = getelementptr inbounds %struct.TfLiteFloatArray, %struct.TfLiteFloatArray* %2367, i64 0, i32 1, i64 0
  %2369 = load float, float* %2368, align 4
  %2370 = fcmp une float %2369, 0x3F00000000000000
  br i1 %2370, label %2371, label %2375

2371:                                             ; preds = %2358
  %2372 = fpext float %2369 to double
  %2373 = getelementptr inbounds %struct.TfLiteContext, %struct.TfLiteContext* %0, i64 0, i32 5
  %2374 = load void (%struct.TfLiteContext*, i8*, ...)*, void (%struct.TfLiteContext*, i8*, ...)** %2373, align 8
  call void (%struct.TfLiteContext*, i8*, ...) %2374(%struct.TfLiteContext* %0, i8* getelementptr inbounds ([26 x i8], [26 x i8]* @.str.6, i64 0, i64 0), i8* getelementptr inbounds ([61 x i8], [61 x i8]* @.str.3, i64 0, i64 0), i32 705, i8* getelementptr inbounds ([34 x i8], [34 x i8]* @.str.132, i64 0, i64 0), i8* getelementptr inbounds ([12 x i8], [12 x i8]* @.str.133, i64 0, i64 0), double %2372, double 0x3F00000000000000) #18
  br label %2404

2375:                                             ; preds = %2358
  %2376 = fcmp ogt float %2347, 0.000000e+00
  %2377 = fcmp olt float %2347, 1.000000e+00
  %2378 = and i1 %2376, %2377
  br i1 %2378, label %2379, label %2386

2379:                                             ; preds = %2375
  %2380 = fmul float %2347, 3.276800e+04
  %2381 = fcmp olt float %2380, -3.276800e+04
  %2382 = select i1 %2381, float -3.276800e+04, float %2380
  %2383 = fcmp ogt float %2382, 3.276700e+04
  %2384 = select i1 %2383, float 3.276700e+04, float %2382
  %2385 = fptosi float %2384 to i16
  br label %2386

2386:                                             ; preds = %2379, %2375
  %2387 = phi i16 [ %2385, %2379 ], [ 0, %2375 ]
  %2388 = getelementptr inbounds %"struct.tflite::ops::builtin::lstm::OpData", %"struct.tflite::ops::builtin::lstm::OpData"* %16, i64 0, i32 5, i32 34
  store i16 %2387, i16* %2388, align 8
  %2389 = fcmp ogt float %2349, 0.000000e+00
  br i1 %2389, label %2390, label %2402

2390:                                             ; preds = %2386
  %2391 = getelementptr inbounds %struct.TfLiteAffineQuantization, %struct.TfLiteAffineQuantization* %2365, i64 0, i32 0
  %2392 = load %struct.TfLiteFloatArray*, %struct.TfLiteFloatArray** %2391, align 8
  %2393 = getelementptr inbounds %struct.TfLiteFloatArray, %struct.TfLiteFloatArray* %2392, i64 0, i32 1, i64 0
  %2394 = load float, float* %2393, align 4
  %2395 = fdiv float %2349, %2394
  %2396 = fcmp olt float %2395, -1.280000e+02
  %2397 = select i1 %2396, float -1.280000e+02, float %2395
  %2398 = fcmp ogt float %2397, 1.270000e+02
  %2399 = select i1 %2398, float 1.270000e+02, float %2397
  %2400 = fptosi float %2399 to i8
  %2401 = getelementptr inbounds %"struct.tflite::ops::builtin::lstm::OpData", %"struct.tflite::ops::builtin::lstm::OpData"* %16, i64 0, i32 5, i32 35
  store i8 %2400, i8* %2401, align 2
  br label %2404

2402:                                             ; preds = %2386
  %2403 = getelementptr inbounds %"struct.tflite::ops::builtin::lstm::OpData", %"struct.tflite::ops::builtin::lstm::OpData"* %16, i64 0, i32 5, i32 35
  store i8 0, i8* %2403, align 2
  br label %2404

2404:                                             ; preds = %2402, %2390, %2371
  %2405 = load float*, float** %2096, align 8
  %2406 = icmp eq float* %2405, null
  br i1 %2406, label %2410, label %2407

2407:                                             ; preds = %2404
  %2408 = ptrtoint float* %2405 to i64
  store i64 %2408, i64* %2099, align 8
  %2409 = bitcast float* %2405 to i8*
  call void @_ZdlPv(i8* %2409) #17
  br label %2410

2410:                                             ; preds = %2407, %2404
  call void @llvm.lifetime.end.p0i8(i64 24, i8* nonnull %2095) #18
  br label %2411

2411:                                             ; preds = %2003, %2018, %2410
  %2412 = getelementptr inbounds %"struct.tflite::ops::builtin::lstm::OpData", %"struct.tflite::ops::builtin::lstm::OpData"* %16, i64 0, i32 3
  %2413 = bitcast [2 x i32]* %13 to i8*
  %2414 = getelementptr inbounds [2 x i32], [2 x i32]* %13, i64 0, i64 0
  %2415 = getelementptr inbounds [2 x i32], [2 x i32]* %13, i64 0, i64 1
  br label %2416

2416:                                             ; preds = %2448, %2411
  %2417 = phi i64 [ 0, %2411 ], [ %2449, %2448 ]
  %2418 = load i32, i32* %2412, align 8
  %2419 = trunc i64 %2417 to i32
  %2420 = add nsw i32 %2418, %2419
  %2421 = load %struct.TfLiteIntArray*, %struct.TfLiteIntArray** %515, align 8
  %2422 = getelementptr inbounds %struct.TfLiteIntArray, %struct.TfLiteIntArray* %2421, i64 0, i32 1, i64 %2417
  store i32 %2420, i32* %2422, align 4
  %2423 = load %struct.TfLiteIntArray*, %struct.TfLiteIntArray** %515, align 8
  %2424 = getelementptr inbounds %struct.TfLiteIntArray, %struct.TfLiteIntArray* %2423, i64 0, i32 1, i64 %2417
  %2425 = load i32, i32* %2424, align 4
  %2426 = icmp slt i32 %2425, 0
  br i1 %2426, label %2431, label %2427

2427:                                             ; preds = %2416
  %2428 = load %struct.TfLiteTensor*, %struct.TfLiteTensor** %154, align 8
  %2429 = sext i32 %2425 to i64
  %2430 = getelementptr inbounds %struct.TfLiteTensor, %struct.TfLiteTensor* %2428, i64 %2429
  br label %2431

2431:                                             ; preds = %2416, %2427
  %2432 = phi %struct.TfLiteTensor* [ %2430, %2427 ], [ null, %2416 ]
  %2433 = icmp ult i64 %2417, 2
  %2434 = getelementptr inbounds %struct.TfLiteTensor, %struct.TfLiteTensor* %2432, i64 0, i32 0
  %2435 = select i1 %2433, i32 9, i32 7
  store i32 %2435, i32* %2434, align 8
  %2436 = getelementptr inbounds %struct.TfLiteTensor, %struct.TfLiteTensor* %2432, i64 0, i32 4
  store i32 2, i32* %2436, align 8
  call void @llvm.lifetime.start.p0i8(i64 8, i8* nonnull %2413) #18
  store i32 %76, i32* %2414, align 4
  store i32 %92, i32* %2415, align 4
  %2437 = getelementptr inbounds %struct.TfLiteTensor, %struct.TfLiteTensor* %2432, i64 0, i32 2
  %2438 = load %struct.TfLiteIntArray*, %struct.TfLiteIntArray** %2437, align 8
  %2439 = call i32 @TfLiteIntArrayEqualsArray(%struct.TfLiteIntArray* %2438, i32 2, i32* nonnull %2414) #18
  %2440 = icmp eq i32 %2439, 0
  br i1 %2440, label %2441, label %2448

2441:                                             ; preds = %2431
  %2442 = call %struct.TfLiteIntArray* @TfLiteIntArrayCreate(i32 2) #18
  %2443 = getelementptr inbounds %struct.TfLiteIntArray, %struct.TfLiteIntArray* %2442, i64 0, i32 1, i64 0
  store i32 %76, i32* %2443, align 4
  %2444 = getelementptr inbounds %struct.TfLiteIntArray, %struct.TfLiteIntArray* %2442, i64 0, i32 1, i64 1
  store i32 %92, i32* %2444, align 4
  %2445 = load i32 (%struct.TfLiteContext*, %struct.TfLiteTensor*, %struct.TfLiteIntArray*)*, i32 (%struct.TfLiteContext*, %struct.TfLiteTensor*, %struct.TfLiteIntArray*)** %493, align 8
  %2446 = call i32 %2445(%struct.TfLiteContext* %0, %struct.TfLiteTensor* %2432, %struct.TfLiteIntArray* %2442) #18
  %2447 = icmp eq i32 %2446, 0
  br i1 %2447, label %2448, label %2451

2448:                                             ; preds = %2441, %2431
  call void @llvm.lifetime.end.p0i8(i64 8, i8* nonnull %2413) #18
  %2449 = add nuw nsw i64 %2417, 1
  %2450 = icmp eq i64 %2449, 8
  br i1 %2450, label %2452, label %2416

2451:                                             ; preds = %2441
  call void @llvm.lifetime.end.p0i8(i64 8, i8* nonnull %2413) #18
  br label %2453

2452:                                             ; preds = %2448, %565, %1833, %901
  br label %2453

2453:                                             ; preds = %1832, %2451, %71, %122, %129, %163, %489, %2452, %553, %1833, %897, %510, %487, %333, %178, %132, %103, %96, %46, %22
  %2454 = phi i32 [ 1, %22 ], [ 1, %46 ], [ 1, %71 ], [ 1, %96 ], [ 1, %103 ], [ 1, %122 ], [ 1, %129 ], [ %135, %132 ], [ 1, %163 ], [ 1, %333 ], [ 1, %487 ], [ 1, %178 ], [ %495, %489 ], [ 1, %510 ], [ 0, %2452 ], [ %1834, %1833 ], [ %899, %897 ], [ %563, %553 ], [ %1827, %1832 ], [ %2446, %2451 ]
  ret i32 %2454
}

declare %struct.TfLiteIntArray* @TfLiteIntArrayCreate(i32) local_unnamed_addr #3

declare void @TfLiteIntArrayFree(%struct.TfLiteIntArray*) local_unnamed_addr #3

declare i32 @TfLiteIntArrayEqual(%struct.TfLiteIntArray*, %struct.TfLiteIntArray*) local_unnamed_addr #3

declare %struct.TfLiteIntArray* @TfLiteIntArrayCopy(%struct.TfLiteIntArray*) local_unnamed_addr #3

declare i32 @TfLiteIntArrayEqualsArray(%struct.TfLiteIntArray*, i32, i32*) local_unnamed_addr #3

; Function Attrs: nounwind ssp uwtable
define hidden i32 @_ZN6tflite3ops7builtin4lstm4full4EvalEP13TfLiteContextP10TfLiteNode(%struct.TfLiteContext*, %struct.TfLiteNode* readonly) local_unnamed_addr #1 {
  %3 = getelementptr inbounds %struct.TfLiteNode, %struct.TfLiteNode* %1, i64 0, i32 5
  %4 = bitcast i8** %3 to %struct.TfLiteLSTMParams**
  %5 = load %struct.TfLiteLSTMParams*, %struct.TfLiteLSTMParams** %4, align 8
  %6 = getelementptr inbounds %struct.TfLiteNode, %struct.TfLiteNode* %1, i64 0, i32 4
  %7 = bitcast i8** %6 to %"struct.tflite::ops::builtin::lstm::OpData"**
  %8 = load %"struct.tflite::ops::builtin::lstm::OpData"*, %"struct.tflite::ops::builtin::lstm::OpData"** %7, align 8
  %9 = getelementptr inbounds %struct.TfLiteNode, %struct.TfLiteNode* %1, i64 0, i32 0
  %10 = load %struct.TfLiteIntArray*, %struct.TfLiteIntArray** %9, align 8
  %11 = getelementptr inbounds %struct.TfLiteIntArray, %struct.TfLiteIntArray* %10, i64 0, i32 1, i64 0
  %12 = load i32, i32* %11, align 4
  %13 = icmp slt i32 %12, 0
  br i1 %13, label %19, label %14

14:                                               ; preds = %2
  %15 = getelementptr inbounds %struct.TfLiteContext, %struct.TfLiteContext* %0, i64 0, i32 2
  %16 = load %struct.TfLiteTensor*, %struct.TfLiteTensor** %15, align 8
  %17 = sext i32 %12 to i64
  %18 = getelementptr inbounds %struct.TfLiteTensor, %struct.TfLiteTensor* %16, i64 %17
  br label %19

19:                                               ; preds = %2, %14
  %20 = phi %struct.TfLiteTensor* [ %18, %14 ], [ null, %2 ]
  %21 = getelementptr inbounds %struct.TfLiteIntArray, %struct.TfLiteIntArray* %10, i64 0, i32 1, i64 1
  %22 = load i32, i32* %21, align 4
  %23 = icmp slt i32 %22, 0
  br i1 %23, label %29, label %24

24:                                               ; preds = %19
  %25 = getelementptr inbounds %struct.TfLiteContext, %struct.TfLiteContext* %0, i64 0, i32 2
  %26 = load %struct.TfLiteTensor*, %struct.TfLiteTensor** %25, align 8
  %27 = sext i32 %22 to i64
  %28 = getelementptr inbounds %struct.TfLiteTensor, %struct.TfLiteTensor* %26, i64 %27
  br label %29

29:                                               ; preds = %19, %24
  %30 = phi %struct.TfLiteTensor* [ %28, %24 ], [ null, %19 ]
  %31 = getelementptr inbounds %struct.TfLiteIntArray, %struct.TfLiteIntArray* %10, i64 0, i32 1, i64 2
  %32 = load i32, i32* %31, align 4
  %33 = icmp slt i32 %32, 0
  br i1 %33, label %39, label %34

34:                                               ; preds = %29
  %35 = getelementptr inbounds %struct.TfLiteContext, %struct.TfLiteContext* %0, i64 0, i32 2
  %36 = load %struct.TfLiteTensor*, %struct.TfLiteTensor** %35, align 8
  %37 = sext i32 %32 to i64
  %38 = getelementptr inbounds %struct.TfLiteTensor, %struct.TfLiteTensor* %36, i64 %37
  br label %39

39:                                               ; preds = %29, %34
  %40 = phi %struct.TfLiteTensor* [ %38, %34 ], [ null, %29 ]
  %41 = getelementptr inbounds %struct.TfLiteIntArray, %struct.TfLiteIntArray* %10, i64 0, i32 1, i64 3
  %42 = load i32, i32* %41, align 4
  %43 = icmp slt i32 %42, 0
  br i1 %43, label %49, label %44

44:                                               ; preds = %39
  %45 = getelementptr inbounds %struct.TfLiteContext, %struct.TfLiteContext* %0, i64 0, i32 2
  %46 = load %struct.TfLiteTensor*, %struct.TfLiteTensor** %45, align 8
  %47 = sext i32 %42 to i64
  %48 = getelementptr inbounds %struct.TfLiteTensor, %struct.TfLiteTensor* %46, i64 %47
  br label %49

49:                                               ; preds = %39, %44
  %50 = phi %struct.TfLiteTensor* [ %48, %44 ], [ null, %39 ]
  %51 = getelementptr inbounds %struct.TfLiteIntArray, %struct.TfLiteIntArray* %10, i64 0, i32 1, i64 4
  %52 = load i32, i32* %51, align 4
  %53 = icmp slt i32 %52, 0
  br i1 %53, label %59, label %54

54:                                               ; preds = %49
  %55 = getelementptr inbounds %struct.TfLiteContext, %struct.TfLiteContext* %0, i64 0, i32 2
  %56 = load %struct.TfLiteTensor*, %struct.TfLiteTensor** %55, align 8
  %57 = sext i32 %52 to i64
  %58 = getelementptr inbounds %struct.TfLiteTensor, %struct.TfLiteTensor* %56, i64 %57
  br label %59

59:                                               ; preds = %49, %54
  %60 = phi %struct.TfLiteTensor* [ %58, %54 ], [ null, %49 ]
  %61 = getelementptr inbounds %struct.TfLiteIntArray, %struct.TfLiteIntArray* %10, i64 0, i32 1, i64 5
  %62 = load i32, i32* %61, align 4
  %63 = icmp slt i32 %62, 0
  br i1 %63, label %69, label %64

64:                                               ; preds = %59
  %65 = getelementptr inbounds %struct.TfLiteContext, %struct.TfLiteContext* %0, i64 0, i32 2
  %66 = load %struct.TfLiteTensor*, %struct.TfLiteTensor** %65, align 8
  %67 = sext i32 %62 to i64
  %68 = getelementptr inbounds %struct.TfLiteTensor, %struct.TfLiteTensor* %66, i64 %67
  br label %69

69:                                               ; preds = %59, %64
  %70 = phi %struct.TfLiteTensor* [ %68, %64 ], [ null, %59 ]
  %71 = getelementptr inbounds %struct.TfLiteIntArray, %struct.TfLiteIntArray* %10, i64 0, i32 1, i64 6
  %72 = load i32, i32* %71, align 4
  %73 = icmp slt i32 %72, 0
  br i1 %73, label %79, label %74

74:                                               ; preds = %69
  %75 = getelementptr inbounds %struct.TfLiteContext, %struct.TfLiteContext* %0, i64 0, i32 2
  %76 = load %struct.TfLiteTensor*, %struct.TfLiteTensor** %75, align 8
  %77 = sext i32 %72 to i64
  %78 = getelementptr inbounds %struct.TfLiteTensor, %struct.TfLiteTensor* %76, i64 %77
  br label %79

79:                                               ; preds = %69, %74
  %80 = phi %struct.TfLiteTensor* [ %78, %74 ], [ null, %69 ]
  %81 = getelementptr inbounds %struct.TfLiteIntArray, %struct.TfLiteIntArray* %10, i64 0, i32 1, i64 7
  %82 = load i32, i32* %81, align 4
  %83 = icmp slt i32 %82, 0
  br i1 %83, label %89, label %84

84:                                               ; preds = %79
  %85 = getelementptr inbounds %struct.TfLiteContext, %struct.TfLiteContext* %0, i64 0, i32 2
  %86 = load %struct.TfLiteTensor*, %struct.TfLiteTensor** %85, align 8
  %87 = sext i32 %82 to i64
  %88 = getelementptr inbounds %struct.TfLiteTensor, %struct.TfLiteTensor* %86, i64 %87
  br label %89

89:                                               ; preds = %79, %84
  %90 = phi %struct.TfLiteTensor* [ %88, %84 ], [ null, %79 ]
  %91 = getelementptr inbounds %struct.TfLiteIntArray, %struct.TfLiteIntArray* %10, i64 0, i32 1, i64 8
  %92 = load i32, i32* %91, align 4
  %93 = icmp slt i32 %92, 0
  br i1 %93, label %99, label %94

94:                                               ; preds = %89
  %95 = getelementptr inbounds %struct.TfLiteContext, %struct.TfLiteContext* %0, i64 0, i32 2
  %96 = load %struct.TfLiteTensor*, %struct.TfLiteTensor** %95, align 8
  %97 = sext i32 %92 to i64
  %98 = getelementptr inbounds %struct.TfLiteTensor, %struct.TfLiteTensor* %96, i64 %97
  br label %99

99:                                               ; preds = %89, %94
  %100 = phi %struct.TfLiteTensor* [ %98, %94 ], [ null, %89 ]
  %101 = getelementptr inbounds %struct.TfLiteIntArray, %struct.TfLiteIntArray* %10, i64 0, i32 1, i64 9
  %102 = load i32, i32* %101, align 4
  %103 = icmp slt i32 %102, 0
  br i1 %103, label %109, label %104

104:                                              ; preds = %99
  %105 = getelementptr inbounds %struct.TfLiteContext, %struct.TfLiteContext* %0, i64 0, i32 2
  %106 = load %struct.TfLiteTensor*, %struct.TfLiteTensor** %105, align 8
  %107 = sext i32 %102 to i64
  %108 = getelementptr inbounds %struct.TfLiteTensor, %struct.TfLiteTensor* %106, i64 %107
  br label %109

109:                                              ; preds = %99, %104
  %110 = phi %struct.TfLiteTensor* [ %108, %104 ], [ null, %99 ]
  %111 = getelementptr inbounds %struct.TfLiteIntArray, %struct.TfLiteIntArray* %10, i64 0, i32 1, i64 10
  %112 = load i32, i32* %111, align 4
  %113 = icmp slt i32 %112, 0
  br i1 %113, label %119, label %114

114:                                              ; preds = %109
  %115 = getelementptr inbounds %struct.TfLiteContext, %struct.TfLiteContext* %0, i64 0, i32 2
  %116 = load %struct.TfLiteTensor*, %struct.TfLiteTensor** %115, align 8
  %117 = sext i32 %112 to i64
  %118 = getelementptr inbounds %struct.TfLiteTensor, %struct.TfLiteTensor* %116, i64 %117
  br label %119

119:                                              ; preds = %109, %114
  %120 = phi %struct.TfLiteTensor* [ %118, %114 ], [ null, %109 ]
  %121 = getelementptr inbounds %struct.TfLiteIntArray, %struct.TfLiteIntArray* %10, i64 0, i32 1, i64 11
  %122 = load i32, i32* %121, align 4
  %123 = icmp slt i32 %122, 0
  br i1 %123, label %129, label %124

124:                                              ; preds = %119
  %125 = getelementptr inbounds %struct.TfLiteContext, %struct.TfLiteContext* %0, i64 0, i32 2
  %126 = load %struct.TfLiteTensor*, %struct.TfLiteTensor** %125, align 8
  %127 = sext i32 %122 to i64
  %128 = getelementptr inbounds %struct.TfLiteTensor, %struct.TfLiteTensor* %126, i64 %127
  br label %129

129:                                              ; preds = %119, %124
  %130 = phi %struct.TfLiteTensor* [ %128, %124 ], [ null, %119 ]
  %131 = getelementptr inbounds %struct.TfLiteIntArray, %struct.TfLiteIntArray* %10, i64 0, i32 1, i64 20
  %132 = load i32, i32* %131, align 4
  %133 = icmp slt i32 %132, 0
  br i1 %133, label %139, label %134

134:                                              ; preds = %129
  %135 = getelementptr inbounds %struct.TfLiteContext, %struct.TfLiteContext* %0, i64 0, i32 2
  %136 = load %struct.TfLiteTensor*, %struct.TfLiteTensor** %135, align 8
  %137 = sext i32 %132 to i64
  %138 = getelementptr inbounds %struct.TfLiteTensor, %struct.TfLiteTensor* %136, i64 %137
  br label %139

139:                                              ; preds = %129, %134
  %140 = phi %struct.TfLiteTensor* [ %138, %134 ], [ null, %129 ]
  %141 = getelementptr inbounds %struct.TfLiteIntArray, %struct.TfLiteIntArray* %10, i64 0, i32 1, i64 21
  %142 = load i32, i32* %141, align 4
  %143 = icmp slt i32 %142, 0
  br i1 %143, label %149, label %144

144:                                              ; preds = %139
  %145 = getelementptr inbounds %struct.TfLiteContext, %struct.TfLiteContext* %0, i64 0, i32 2
  %146 = load %struct.TfLiteTensor*, %struct.TfLiteTensor** %145, align 8
  %147 = sext i32 %142 to i64
  %148 = getelementptr inbounds %struct.TfLiteTensor, %struct.TfLiteTensor* %146, i64 %147
  br label %149

149:                                              ; preds = %139, %144
  %150 = phi %struct.TfLiteTensor* [ %148, %144 ], [ null, %139 ]
  %151 = getelementptr inbounds %struct.TfLiteIntArray, %struct.TfLiteIntArray* %10, i64 0, i32 1, i64 22
  %152 = load i32, i32* %151, align 4
  %153 = icmp slt i32 %152, 0
  br i1 %153, label %159, label %154

154:                                              ; preds = %149
  %155 = getelementptr inbounds %struct.TfLiteContext, %struct.TfLiteContext* %0, i64 0, i32 2
  %156 = load %struct.TfLiteTensor*, %struct.TfLiteTensor** %155, align 8
  %157 = sext i32 %152 to i64
  %158 = getelementptr inbounds %struct.TfLiteTensor, %struct.TfLiteTensor* %156, i64 %157
  br label %159

159:                                              ; preds = %149, %154
  %160 = phi %struct.TfLiteTensor* [ %158, %154 ], [ null, %149 ]
  %161 = getelementptr inbounds %struct.TfLiteIntArray, %struct.TfLiteIntArray* %10, i64 0, i32 1, i64 23
  %162 = load i32, i32* %161, align 4
  %163 = icmp slt i32 %162, 0
  br i1 %163, label %169, label %164

164:                                              ; preds = %159
  %165 = getelementptr inbounds %struct.TfLiteContext, %struct.TfLiteContext* %0, i64 0, i32 2
  %166 = load %struct.TfLiteTensor*, %struct.TfLiteTensor** %165, align 8
  %167 = sext i32 %162 to i64
  %168 = getelementptr inbounds %struct.TfLiteTensor, %struct.TfLiteTensor* %166, i64 %167
  br label %169

169:                                              ; preds = %159, %164
  %170 = phi %struct.TfLiteTensor* [ %168, %164 ], [ null, %159 ]
  %171 = getelementptr inbounds %struct.TfLiteIntArray, %struct.TfLiteIntArray* %10, i64 0, i32 1, i64 12
  %172 = load i32, i32* %171, align 4
  %173 = icmp slt i32 %172, 0
  br i1 %173, label %179, label %174

174:                                              ; preds = %169
  %175 = getelementptr inbounds %struct.TfLiteContext, %struct.TfLiteContext* %0, i64 0, i32 2
  %176 = load %struct.TfLiteTensor*, %struct.TfLiteTensor** %175, align 8
  %177 = sext i32 %172 to i64
  %178 = getelementptr inbounds %struct.TfLiteTensor, %struct.TfLiteTensor* %176, i64 %177
  br label %179

179:                                              ; preds = %169, %174
  %180 = phi %struct.TfLiteTensor* [ %178, %174 ], [ null, %169 ]
  %181 = getelementptr inbounds %struct.TfLiteIntArray, %struct.TfLiteIntArray* %10, i64 0, i32 1, i64 13
  %182 = load i32, i32* %181, align 4
  %183 = icmp slt i32 %182, 0
  br i1 %183, label %189, label %184

184:                                              ; preds = %179
  %185 = getelementptr inbounds %struct.TfLiteContext, %struct.TfLiteContext* %0, i64 0, i32 2
  %186 = load %struct.TfLiteTensor*, %struct.TfLiteTensor** %185, align 8
  %187 = sext i32 %182 to i64
  %188 = getelementptr inbounds %struct.TfLiteTensor, %struct.TfLiteTensor* %186, i64 %187
  br label %189

189:                                              ; preds = %179, %184
  %190 = phi %struct.TfLiteTensor* [ %188, %184 ], [ null, %179 ]
  %191 = getelementptr inbounds %struct.TfLiteIntArray, %struct.TfLiteIntArray* %10, i64 0, i32 1, i64 14
  %192 = load i32, i32* %191, align 4
  %193 = icmp slt i32 %192, 0
  br i1 %193, label %199, label %194

194:                                              ; preds = %189
  %195 = getelementptr inbounds %struct.TfLiteContext, %struct.TfLiteContext* %0, i64 0, i32 2
  %196 = load %struct.TfLiteTensor*, %struct.TfLiteTensor** %195, align 8
  %197 = sext i32 %192 to i64
  %198 = getelementptr inbounds %struct.TfLiteTensor, %struct.TfLiteTensor* %196, i64 %197
  br label %199

199:                                              ; preds = %189, %194
  %200 = phi %struct.TfLiteTensor* [ %198, %194 ], [ null, %189 ]
  %201 = getelementptr inbounds %struct.TfLiteIntArray, %struct.TfLiteIntArray* %10, i64 0, i32 1, i64 15
  %202 = load i32, i32* %201, align 4
  %203 = icmp slt i32 %202, 0
  br i1 %203, label %209, label %204

204:                                              ; preds = %199
  %205 = getelementptr inbounds %struct.TfLiteContext, %struct.TfLiteContext* %0, i64 0, i32 2
  %206 = load %struct.TfLiteTensor*, %struct.TfLiteTensor** %205, align 8
  %207 = sext i32 %202 to i64
  %208 = getelementptr inbounds %struct.TfLiteTensor, %struct.TfLiteTensor* %206, i64 %207
  br label %209

209:                                              ; preds = %199, %204
  %210 = phi %struct.TfLiteTensor* [ %208, %204 ], [ null, %199 ]
  %211 = getelementptr inbounds %struct.TfLiteIntArray, %struct.TfLiteIntArray* %10, i64 0, i32 1, i64 16
  %212 = load i32, i32* %211, align 4
  %213 = icmp slt i32 %212, 0
  br i1 %213, label %219, label %214

214:                                              ; preds = %209
  %215 = getelementptr inbounds %struct.TfLiteContext, %struct.TfLiteContext* %0, i64 0, i32 2
  %216 = load %struct.TfLiteTensor*, %struct.TfLiteTensor** %215, align 8
  %217 = sext i32 %212 to i64
  %218 = getelementptr inbounds %struct.TfLiteTensor, %struct.TfLiteTensor* %216, i64 %217
  br label %219

219:                                              ; preds = %209, %214
  %220 = phi %struct.TfLiteTensor* [ %218, %214 ], [ null, %209 ]
  %221 = getelementptr inbounds %struct.TfLiteIntArray, %struct.TfLiteIntArray* %10, i64 0, i32 1, i64 17
  %222 = load i32, i32* %221, align 4
  %223 = icmp slt i32 %222, 0
  br i1 %223, label %229, label %224

224:                                              ; preds = %219
  %225 = getelementptr inbounds %struct.TfLiteContext, %struct.TfLiteContext* %0, i64 0, i32 2
  %226 = load %struct.TfLiteTensor*, %struct.TfLiteTensor** %225, align 8
  %227 = sext i32 %222 to i64
  %228 = getelementptr inbounds %struct.TfLiteTensor, %struct.TfLiteTensor* %226, i64 %227
  br label %229

229:                                              ; preds = %219, %224
  %230 = phi %struct.TfLiteTensor* [ %228, %224 ], [ null, %219 ]
  %231 = getelementptr inbounds %struct.TfLiteIntArray, %struct.TfLiteIntArray* %10, i64 0, i32 1, i64 18
  %232 = load i32, i32* %231, align 4
  %233 = icmp slt i32 %232, 0
  br i1 %233, label %244, label %234

234:                                              ; preds = %229
  %235 = getelementptr inbounds %struct.TfLiteContext, %struct.TfLiteContext* %0, i64 0, i32 2
  %236 = load %struct.TfLiteTensor*, %struct.TfLiteTensor** %235, align 8
  %237 = sext i32 %232 to i64
  %238 = getelementptr inbounds %struct.TfLiteTensor, %struct.TfLiteTensor* %236, i64 %237
  %239 = getelementptr inbounds %struct.TfLiteTensor, %struct.TfLiteTensor* %236, i64 %237, i32 11
  %240 = load i8, i8* %239, align 1, !range !5
  %241 = icmp eq i8 %240, 0
  %242 = icmp eq %struct.TfLiteTensor* %238, null
  %243 = or i1 %241, %242
  br i1 %243, label %244, label %247

244:                                              ; preds = %234, %229
  %245 = getelementptr inbounds %struct.TfLiteContext, %struct.TfLiteContext* %0, i64 0, i32 5
  %246 = load void (%struct.TfLiteContext*, i8*, ...)*, void (%struct.TfLiteContext*, i8*, ...)** %245, align 8
  tail call void (%struct.TfLiteContext*, i8*, ...) %246(%struct.TfLiteContext* %0, i8* getelementptr inbounds ([23 x i8], [23 x i8]* @.str, i64 0, i64 0), i8* getelementptr inbounds ([61 x i8], [61 x i8]* @.str.3, i64 0, i64 0), i32 1543, i8* getelementptr inbounds ([24 x i8], [24 x i8]* @.str.93, i64 0, i64 0)) #18
  br label %423

247:                                              ; preds = %234
  %248 = getelementptr inbounds %struct.TfLiteIntArray, %struct.TfLiteIntArray* %10, i64 0, i32 1, i64 19
  %249 = load i32, i32* %248, align 4
  %250 = icmp slt i32 %249, 0
  br i1 %250, label %259, label %251

251:                                              ; preds = %247
  %252 = sext i32 %249 to i64
  %253 = getelementptr inbounds %struct.TfLiteTensor, %struct.TfLiteTensor* %236, i64 %252
  %254 = getelementptr inbounds %struct.TfLiteTensor, %struct.TfLiteTensor* %236, i64 %252, i32 11
  %255 = load i8, i8* %254, align 1, !range !5
  %256 = icmp eq i8 %255, 0
  %257 = icmp eq %struct.TfLiteTensor* %253, null
  %258 = or i1 %256, %257
  br i1 %258, label %259, label %262

259:                                              ; preds = %251, %247
  %260 = getelementptr inbounds %struct.TfLiteContext, %struct.TfLiteContext* %0, i64 0, i32 5
  %261 = load void (%struct.TfLiteContext*, i8*, ...)*, void (%struct.TfLiteContext*, i8*, ...)** %260, align 8
  tail call void (%struct.TfLiteContext*, i8*, ...) %261(%struct.TfLiteContext* %0, i8* getelementptr inbounds ([23 x i8], [23 x i8]* @.str, i64 0, i64 0), i8* getelementptr inbounds ([61 x i8], [61 x i8]* @.str.3, i64 0, i64 0), i32 1545, i8* getelementptr inbounds ([22 x i8], [22 x i8]* @.str.101, i64 0, i64 0)) #18
  br label %423

262:                                              ; preds = %251
  %263 = getelementptr inbounds %struct.TfLiteNode, %struct.TfLiteNode* %1, i64 0, i32 1
  %264 = load %struct.TfLiteIntArray*, %struct.TfLiteIntArray** %263, align 8
  %265 = getelementptr inbounds %struct.TfLiteIntArray, %struct.TfLiteIntArray* %264, i64 0, i32 1, i64 0
  %266 = load i32, i32* %265, align 4
  %267 = icmp slt i32 %266, 0
  %268 = sext i32 %266 to i64
  %269 = getelementptr inbounds %struct.TfLiteTensor, %struct.TfLiteTensor* %236, i64 %268
  %270 = select i1 %267, %struct.TfLiteTensor* null, %struct.TfLiteTensor* %269
  %271 = getelementptr inbounds %struct.TfLiteTensor, %struct.TfLiteTensor* %60, i64 0, i32 0
  %272 = load i32, i32* %271, align 8
  switch i32 %272, label %420 [
    i32 1, label %273
    i32 3, label %283
    i32 9, label %283
  ]

273:                                              ; preds = %262
  %274 = getelementptr inbounds %struct.TfLiteNode, %struct.TfLiteNode* %1, i64 0, i32 3
  %275 = load %struct.TfLiteIntArray*, %struct.TfLiteIntArray** %274, align 8
  %276 = getelementptr inbounds %struct.TfLiteIntArray, %struct.TfLiteIntArray* %275, i64 0, i32 1, i64 0
  %277 = load i32, i32* %276, align 4
  %278 = icmp slt i32 %277, 0
  %279 = sext i32 %277 to i64
  %280 = getelementptr inbounds %struct.TfLiteTensor, %struct.TfLiteTensor* %236, i64 %279
  %281 = select i1 %278, %struct.TfLiteTensor* null, %struct.TfLiteTensor* %280
  %282 = tail call i32 @_ZN6tflite3ops7builtin9lstm_eval9EvalFloatEPK12TfLiteTensorS5_S5_S5_S5_S5_S5_S5_S5_S5_S5_S5_S5_S5_S5_S5_S5_S5_S5_S5_S5_S5_S5_S5_S5_S5_S5_PK16TfLiteLSTMParamsbbiPS3_S9_S9_S9_(%struct.TfLiteTensor* %20, %struct.TfLiteTensor* %30, %struct.TfLiteTensor* %40, %struct.TfLiteTensor* %50, %struct.TfLiteTensor* %60, %struct.TfLiteTensor* %70, %struct.TfLiteTensor* %80, %struct.TfLiteTensor* %90, %struct.TfLiteTensor* %100, %struct.TfLiteTensor* %110, %struct.TfLiteTensor* %120, %struct.TfLiteTensor* %130, %struct.TfLiteTensor* %140, %struct.TfLiteTensor* %150, %struct.TfLiteTensor* %160, %struct.TfLiteTensor* %170, %struct.TfLiteTensor* null, %struct.TfLiteTensor* null, %struct.TfLiteTensor* null, %struct.TfLiteTensor* null, %struct.TfLiteTensor* null, %struct.TfLiteTensor* %180, %struct.TfLiteTensor* %190, %struct.TfLiteTensor* %200, %struct.TfLiteTensor* %210, %struct.TfLiteTensor* %220, %struct.TfLiteTensor* %230, %struct.TfLiteLSTMParams* %5, i1 zeroext true, i1 zeroext true, i32 0, %struct.TfLiteTensor* %281, %struct.TfLiteTensor* nonnull %238, %struct.TfLiteTensor* nonnull %253, %struct.TfLiteTensor* %270) #18
  br label %423

283:                                              ; preds = %262, %262
  %284 = getelementptr inbounds %struct.TfLiteTensor, %struct.TfLiteTensor* %20, i64 0, i32 0
  %285 = load i32, i32* %284, align 8
  %286 = icmp eq i32 %285, 1
  br i1 %286, label %287, label %357

287:                                              ; preds = %283
  %288 = getelementptr inbounds %struct.TfLiteNode, %struct.TfLiteNode* %1, i64 0, i32 3
  %289 = load %struct.TfLiteIntArray*, %struct.TfLiteIntArray** %288, align 8
  %290 = getelementptr inbounds %struct.TfLiteIntArray, %struct.TfLiteIntArray* %289, i64 0, i32 1, i64 0
  %291 = load i32, i32* %290, align 4
  %292 = icmp slt i32 %291, 0
  %293 = sext i32 %291 to i64
  %294 = getelementptr inbounds %struct.TfLiteTensor, %struct.TfLiteTensor* %236, i64 %293
  %295 = select i1 %292, %struct.TfLiteTensor* null, %struct.TfLiteTensor* %294
  %296 = getelementptr inbounds %struct.TfLiteIntArray, %struct.TfLiteIntArray* %289, i64 0, i32 1, i64 1
  %297 = load i32, i32* %296, align 4
  %298 = icmp slt i32 %297, 0
  %299 = sext i32 %297 to i64
  %300 = getelementptr inbounds %struct.TfLiteTensor, %struct.TfLiteTensor* %236, i64 %299
  %301 = select i1 %298, %struct.TfLiteTensor* null, %struct.TfLiteTensor* %300
  %302 = getelementptr inbounds %struct.TfLiteIntArray, %struct.TfLiteIntArray* %289, i64 0, i32 1, i64 2
  %303 = load i32, i32* %302, align 4
  %304 = icmp slt i32 %303, 0
  %305 = sext i32 %303 to i64
  %306 = getelementptr inbounds %struct.TfLiteTensor, %struct.TfLiteTensor* %236, i64 %305
  %307 = select i1 %304, %struct.TfLiteTensor* null, %struct.TfLiteTensor* %306
  %308 = getelementptr inbounds %struct.TfLiteIntArray, %struct.TfLiteIntArray* %289, i64 0, i32 1, i64 3
  %309 = load i32, i32* %308, align 4
  %310 = icmp slt i32 %309, 0
  %311 = sext i32 %309 to i64
  %312 = getelementptr inbounds %struct.TfLiteTensor, %struct.TfLiteTensor* %236, i64 %311
  %313 = select i1 %310, %struct.TfLiteTensor* null, %struct.TfLiteTensor* %312
  %314 = getelementptr inbounds %struct.TfLiteIntArray, %struct.TfLiteIntArray* %289, i64 0, i32 1, i64 4
  %315 = load i32, i32* %314, align 4
  %316 = icmp slt i32 %315, 0
  %317 = sext i32 %315 to i64
  %318 = getelementptr inbounds %struct.TfLiteTensor, %struct.TfLiteTensor* %236, i64 %317
  %319 = select i1 %316, %struct.TfLiteTensor* null, %struct.TfLiteTensor* %318
  %320 = getelementptr inbounds %struct.TfLiteIntArray, %struct.TfLiteIntArray* %289, i64 0, i32 1, i64 5
  %321 = load i32, i32* %320, align 4
  %322 = icmp slt i32 %321, 0
  %323 = sext i32 %321 to i64
  %324 = getelementptr inbounds %struct.TfLiteTensor, %struct.TfLiteTensor* %236, i64 %323
  %325 = select i1 %322, %struct.TfLiteTensor* null, %struct.TfLiteTensor* %324
  %326 = getelementptr inbounds %struct.TfLiteIntArray, %struct.TfLiteIntArray* %289, i64 0, i32 1, i64 6
  %327 = load i32, i32* %326, align 4
  %328 = icmp slt i32 %327, 0
  %329 = sext i32 %327 to i64
  %330 = getelementptr inbounds %struct.TfLiteTensor, %struct.TfLiteTensor* %236, i64 %329
  %331 = select i1 %328, %struct.TfLiteTensor* null, %struct.TfLiteTensor* %330
  %332 = getelementptr inbounds %struct.TfLiteIntArray, %struct.TfLiteIntArray* %289, i64 0, i32 1, i64 7
  %333 = load i32, i32* %332, align 4
  %334 = icmp slt i32 %333, 0
  %335 = sext i32 %333 to i64
  %336 = getelementptr inbounds %struct.TfLiteTensor, %struct.TfLiteTensor* %236, i64 %335
  %337 = select i1 %334, %struct.TfLiteTensor* null, %struct.TfLiteTensor* %336
  %338 = getelementptr inbounds %struct.TfLiteIntArray, %struct.TfLiteIntArray* %289, i64 0, i32 1, i64 8
  %339 = load i32, i32* %338, align 4
  %340 = icmp slt i32 %339, 0
  %341 = sext i32 %339 to i64
  %342 = getelementptr inbounds %struct.TfLiteTensor, %struct.TfLiteTensor* %236, i64 %341
  %343 = select i1 %340, %struct.TfLiteTensor* null, %struct.TfLiteTensor* %342
  %344 = getelementptr inbounds %struct.TfLiteIntArray, %struct.TfLiteIntArray* %289, i64 0, i32 1, i64 9
  %345 = load i32, i32* %344, align 4
  %346 = icmp slt i32 %345, 0
  %347 = sext i32 %345 to i64
  %348 = getelementptr inbounds %struct.TfLiteTensor, %struct.TfLiteTensor* %236, i64 %347
  %349 = select i1 %346, %struct.TfLiteTensor* null, %struct.TfLiteTensor* %348
  %350 = getelementptr inbounds %struct.TfLiteTensor, %struct.TfLiteTensor* %349, i64 0, i32 2
  %351 = load %struct.TfLiteIntArray*, %struct.TfLiteIntArray** %350, align 8
  %352 = getelementptr inbounds %struct.TfLiteIntArray, %struct.TfLiteIntArray* %351, i64 0, i32 1, i64 0
  %353 = load i32, i32* %352, align 4
  %354 = getelementptr inbounds %"struct.tflite::ops::builtin::lstm::OpData", %"struct.tflite::ops::builtin::lstm::OpData"* %8, i64 0, i32 6
  %355 = tail call %"class.tflite::CpuBackendContext"* @_ZN6tflite17CpuBackendContext14GetFromContextEP13TfLiteContext(%struct.TfLiteContext* %0) #18
  %356 = tail call i32 @_ZN6tflite3ops7builtin9lstm_eval10EvalHybridEPK12TfLiteTensorS5_S5_S5_S5_S5_S5_S5_S5_S5_S5_S5_S5_S5_S5_S5_S5_S5_S5_S5_S5_S5_S5_S5_S5_S5_S5_PK16TfLiteLSTMParamsbbiPS3_S9_S9_S9_S9_S9_S9_S9_S9_S9_S9_S9_S9_S9_iPbPNS_17CpuBackendContextE(%struct.TfLiteTensor* %20, %struct.TfLiteTensor* %30, %struct.TfLiteTensor* %40, %struct.TfLiteTensor* %50, %struct.TfLiteTensor* %60, %struct.TfLiteTensor* %70, %struct.TfLiteTensor* %80, %struct.TfLiteTensor* %90, %struct.TfLiteTensor* %100, %struct.TfLiteTensor* %110, %struct.TfLiteTensor* %120, %struct.TfLiteTensor* %130, %struct.TfLiteTensor* %140, %struct.TfLiteTensor* %150, %struct.TfLiteTensor* %160, %struct.TfLiteTensor* %170, %struct.TfLiteTensor* null, %struct.TfLiteTensor* null, %struct.TfLiteTensor* null, %struct.TfLiteTensor* null, %struct.TfLiteTensor* null, %struct.TfLiteTensor* %180, %struct.TfLiteTensor* %190, %struct.TfLiteTensor* %200, %struct.TfLiteTensor* %210, %struct.TfLiteTensor* %220, %struct.TfLiteTensor* %230, %struct.TfLiteLSTMParams* %5, i1 zeroext true, i1 zeroext true, i32 0, %struct.TfLiteTensor* %295, %struct.TfLiteTensor* %319, %struct.TfLiteTensor* %325, %struct.TfLiteTensor* %331, %struct.TfLiteTensor* %301, %struct.TfLiteTensor* null, %struct.TfLiteTensor* %307, %struct.TfLiteTensor* %313, %struct.TfLiteTensor* nonnull %238, %struct.TfLiteTensor* nonnull %253, %struct.TfLiteTensor* %337, %struct.TfLiteTensor* %270, %struct.TfLiteTensor* %343, %struct.TfLiteTensor* %349, i32 %353, i8* %354, %"class.tflite::CpuBackendContext"* %355) #18
  br label %423

357:                                              ; preds = %283
  %358 = getelementptr inbounds %struct.TfLiteNode, %struct.TfLiteNode* %1, i64 0, i32 2
  %359 = load %struct.TfLiteIntArray*, %struct.TfLiteIntArray** %358, align 8
  %360 = getelementptr inbounds %struct.TfLiteIntArray, %struct.TfLiteIntArray* %359, i64 0, i32 0
  %361 = load i32, i32* %360, align 4
  %362 = icmp eq i32 %361, 5
  %363 = getelementptr inbounds %struct.TfLiteNode, %struct.TfLiteNode* %1, i64 0, i32 3
  %364 = load %struct.TfLiteIntArray*, %struct.TfLiteIntArray** %363, align 8
  %365 = getelementptr inbounds %struct.TfLiteIntArray, %struct.TfLiteIntArray* %364, i64 0, i32 1, i64 0
  %366 = load i32, i32* %365, align 4
  %367 = icmp slt i32 %366, 0
  %368 = sext i32 %366 to i64
  %369 = getelementptr inbounds %struct.TfLiteTensor, %struct.TfLiteTensor* %236, i64 %368
  %370 = select i1 %367, %struct.TfLiteTensor* null, %struct.TfLiteTensor* %369
  %371 = getelementptr inbounds %struct.TfLiteIntArray, %struct.TfLiteIntArray* %364, i64 0, i32 1, i64 1
  %372 = load i32, i32* %371, align 4
  %373 = icmp slt i32 %372, 0
  %374 = sext i32 %372 to i64
  %375 = getelementptr inbounds %struct.TfLiteTensor, %struct.TfLiteTensor* %236, i64 %374
  %376 = select i1 %373, %struct.TfLiteTensor* null, %struct.TfLiteTensor* %375
  %377 = getelementptr inbounds %struct.TfLiteIntArray, %struct.TfLiteIntArray* %364, i64 0, i32 1, i64 2
  %378 = load i32, i32* %377, align 4
  %379 = icmp slt i32 %378, 0
  %380 = sext i32 %378 to i64
  %381 = getelementptr inbounds %struct.TfLiteTensor, %struct.TfLiteTensor* %236, i64 %380
  %382 = select i1 %379, %struct.TfLiteTensor* null, %struct.TfLiteTensor* %381
  %383 = getelementptr inbounds %struct.TfLiteIntArray, %struct.TfLiteIntArray* %364, i64 0, i32 1, i64 3
  %384 = load i32, i32* %383, align 4
  %385 = icmp slt i32 %384, 0
  %386 = sext i32 %384 to i64
  %387 = getelementptr inbounds %struct.TfLiteTensor, %struct.TfLiteTensor* %236, i64 %386
  %388 = select i1 %385, %struct.TfLiteTensor* null, %struct.TfLiteTensor* %387
  %389 = getelementptr inbounds %struct.TfLiteIntArray, %struct.TfLiteIntArray* %364, i64 0, i32 1, i64 4
  %390 = load i32, i32* %389, align 4
  %391 = icmp slt i32 %390, 0
  %392 = sext i32 %390 to i64
  %393 = getelementptr inbounds %struct.TfLiteTensor, %struct.TfLiteTensor* %236, i64 %392
  %394 = select i1 %391, %struct.TfLiteTensor* null, %struct.TfLiteTensor* %393
  %395 = getelementptr inbounds %struct.TfLiteIntArray, %struct.TfLiteIntArray* %364, i64 0, i32 1, i64 5
  %396 = load i32, i32* %395, align 4
  %397 = icmp slt i32 %396, 0
  %398 = sext i32 %396 to i64
  %399 = getelementptr inbounds %struct.TfLiteTensor, %struct.TfLiteTensor* %236, i64 %398
  %400 = select i1 %397, %struct.TfLiteTensor* null, %struct.TfLiteTensor* %399
  br i1 %362, label %401, label %405

401:                                              ; preds = %357
  %402 = getelementptr inbounds %"struct.tflite::ops::builtin::lstm::OpData", %"struct.tflite::ops::builtin::lstm::OpData"* %8, i64 0, i32 5
  %403 = tail call %"class.tflite::CpuBackendContext"* @_ZN6tflite17CpuBackendContext14GetFromContextEP13TfLiteContext(%struct.TfLiteContext* %0) #18
  %404 = tail call i32 @_ZN6tflite3ops7builtin9lstm_eval17EvalInteger8x8_16EPK12TfLiteTensorS5_S5_S5_S5_S5_S5_S5_S5_S5_S5_S5_S5_S5_S5_S5_S5_S5_S5_S5_S5_S5_PK16TfLiteLSTMParamsPKNS2_20IntegerLstmParameterEPS3_SC_SC_SC_SC_SC_SC_SC_SC_PNS_17CpuBackendContextE(%struct.TfLiteTensor* %20, %struct.TfLiteTensor* %30, %struct.TfLiteTensor* %40, %struct.TfLiteTensor* %50, %struct.TfLiteTensor* %60, %struct.TfLiteTensor* %70, %struct.TfLiteTensor* %80, %struct.TfLiteTensor* %90, %struct.TfLiteTensor* %100, %struct.TfLiteTensor* %110, %struct.TfLiteTensor* %120, %struct.TfLiteTensor* %130, %struct.TfLiteTensor* %140, %struct.TfLiteTensor* %150, %struct.TfLiteTensor* %160, %struct.TfLiteTensor* %170, %struct.TfLiteTensor* %180, %struct.TfLiteTensor* %190, %struct.TfLiteTensor* %200, %struct.TfLiteTensor* %210, %struct.TfLiteTensor* %220, %struct.TfLiteTensor* %230, %struct.TfLiteLSTMParams* %5, %"struct.tflite::ops::builtin::lstm_eval::IntegerLstmParameter"* %402, %struct.TfLiteTensor* nonnull %238, %struct.TfLiteTensor* nonnull %253, %struct.TfLiteTensor* %270, %struct.TfLiteTensor* %370, %struct.TfLiteTensor* %376, %struct.TfLiteTensor* %382, %struct.TfLiteTensor* %388, %struct.TfLiteTensor* %394, %struct.TfLiteTensor* %400, %"class.tflite::CpuBackendContext"* %403) #18
  br label %423

405:                                              ; preds = %357
  %406 = getelementptr inbounds %struct.TfLiteIntArray, %struct.TfLiteIntArray* %364, i64 0, i32 1, i64 6
  %407 = load i32, i32* %406, align 4
  %408 = icmp slt i32 %407, 0
  %409 = sext i32 %407 to i64
  %410 = getelementptr inbounds %struct.TfLiteTensor, %struct.TfLiteTensor* %236, i64 %409
  %411 = select i1 %408, %struct.TfLiteTensor* null, %struct.TfLiteTensor* %410
  %412 = getelementptr inbounds %struct.TfLiteIntArray, %struct.TfLiteIntArray* %364, i64 0, i32 1, i64 7
  %413 = load i32, i32* %412, align 4
  %414 = icmp slt i32 %413, 0
  %415 = sext i32 %413 to i64
  %416 = getelementptr inbounds %struct.TfLiteTensor, %struct.TfLiteTensor* %236, i64 %415
  %417 = select i1 %414, %struct.TfLiteTensor* null, %struct.TfLiteTensor* %416
  %418 = getelementptr inbounds %"struct.tflite::ops::builtin::lstm::OpData", %"struct.tflite::ops::builtin::lstm::OpData"* %8, i64 0, i32 5
  %419 = tail call i32 @_ZN6tflite3ops7builtin9lstm_eval16EvalInteger8x8_8EPK12TfLiteTensorS5_S5_S5_S5_S5_S5_S5_S5_S5_S5_S5_S5_S5_S5_S5_S5_S5_S5_S5_S5_S5_PK16TfLiteLSTMParamsPS3_S9_S9_PKNS2_20IntegerLstmParameterES9_S9_S9_S9_S9_S9_S9_S9_(%struct.TfLiteTensor* %20, %struct.TfLiteTensor* %30, %struct.TfLiteTensor* %40, %struct.TfLiteTensor* %50, %struct.TfLiteTensor* %60, %struct.TfLiteTensor* %70, %struct.TfLiteTensor* %80, %struct.TfLiteTensor* %90, %struct.TfLiteTensor* %100, %struct.TfLiteTensor* %110, %struct.TfLiteTensor* %120, %struct.TfLiteTensor* %130, %struct.TfLiteTensor* %140, %struct.TfLiteTensor* %150, %struct.TfLiteTensor* %160, %struct.TfLiteTensor* %170, %struct.TfLiteTensor* %180, %struct.TfLiteTensor* %190, %struct.TfLiteTensor* %200, %struct.TfLiteTensor* %210, %struct.TfLiteTensor* %220, %struct.TfLiteTensor* %230, %struct.TfLiteLSTMParams* %5, %struct.TfLiteTensor* nonnull %238, %struct.TfLiteTensor* nonnull %253, %struct.TfLiteTensor* %270, %"struct.tflite::ops::builtin::lstm_eval::IntegerLstmParameter"* %418, %struct.TfLiteTensor* %370, %struct.TfLiteTensor* %376, %struct.TfLiteTensor* %382, %struct.TfLiteTensor* %388, %struct.TfLiteTensor* %394, %struct.TfLiteTensor* %400, %struct.TfLiteTensor* %411, %struct.TfLiteTensor* %417) #18
  br label %423

420:                                              ; preds = %262
  %421 = getelementptr inbounds %struct.TfLiteContext, %struct.TfLiteContext* %0, i64 0, i32 5
  %422 = load void (%struct.TfLiteContext*, i8*, ...)*, void (%struct.TfLiteContext*, i8*, ...)** %421, align 8
  tail call void (%struct.TfLiteContext*, i8*, ...) %422(%struct.TfLiteContext* %0, i8* getelementptr inbounds ([36 x i8], [36 x i8]* @.str.107, i64 0, i64 0), i32 %272) #18
  br label %423

423:                                              ; preds = %259, %287, %405, %401, %420, %273, %244
  %424 = phi i32 [ 1, %244 ], [ 1, %259 ], [ 1, %420 ], [ %282, %273 ], [ %356, %287 ], [ %404, %401 ], [ %419, %405 ]
  ret i32 %424
}

declare i32 @_ZN6tflite3ops7builtin9lstm_eval9EvalFloatEPK12TfLiteTensorS5_S5_S5_S5_S5_S5_S5_S5_S5_S5_S5_S5_S5_S5_S5_S5_S5_S5_S5_S5_S5_S5_S5_S5_S5_S5_PK16TfLiteLSTMParamsbbiPS3_S9_S9_S9_(%struct.TfLiteTensor*, %struct.TfLiteTensor*, %struct.TfLiteTensor*, %struct.TfLiteTensor*, %struct.TfLiteTensor*, %struct.TfLiteTensor*, %struct.TfLiteTensor*, %struct.TfLiteTensor*, %struct.TfLiteTensor*, %struct.TfLiteTensor*, %struct.TfLiteTensor*, %struct.TfLiteTensor*, %struct.TfLiteTensor*, %struct.TfLiteTensor*, %struct.TfLiteTensor*, %struct.TfLiteTensor*, %struct.TfLiteTensor*, %struct.TfLiteTensor*, %struct.TfLiteTensor*, %struct.TfLiteTensor*, %struct.TfLiteTensor*, %struct.TfLiteTensor*, %struct.TfLiteTensor*, %struct.TfLiteTensor*, %struct.TfLiteTensor*, %struct.TfLiteTensor*, %struct.TfLiteTensor*, %struct.TfLiteLSTMParams*, i1 zeroext, i1 zeroext, i32, %struct.TfLiteTensor*, %struct.TfLiteTensor*, %struct.TfLiteTensor*, %struct.TfLiteTensor*) local_unnamed_addr #3

declare i32 @_ZN6tflite3ops7builtin9lstm_eval10EvalHybridEPK12TfLiteTensorS5_S5_S5_S5_S5_S5_S5_S5_S5_S5_S5_S5_S5_S5_S5_S5_S5_S5_S5_S5_S5_S5_S5_S5_S5_S5_PK16TfLiteLSTMParamsbbiPS3_S9_S9_S9_S9_S9_S9_S9_S9_S9_S9_S9_S9_S9_iPbPNS_17CpuBackendContextE(%struct.TfLiteTensor*, %struct.TfLiteTensor*, %struct.TfLiteTensor*, %struct.TfLiteTensor*, %struct.TfLiteTensor*, %struct.TfLiteTensor*, %struct.TfLiteTensor*, %struct.TfLiteTensor*, %struct.TfLiteTensor*, %struct.TfLiteTensor*, %struct.TfLiteTensor*, %struct.TfLiteTensor*, %struct.TfLiteTensor*, %struct.TfLiteTensor*, %struct.TfLiteTensor*, %struct.TfLiteTensor*, %struct.TfLiteTensor*, %struct.TfLiteTensor*, %struct.TfLiteTensor*, %struct.TfLiteTensor*, %struct.TfLiteTensor*, %struct.TfLiteTensor*, %struct.TfLiteTensor*, %struct.TfLiteTensor*, %struct.TfLiteTensor*, %struct.TfLiteTensor*, %struct.TfLiteTensor*, %struct.TfLiteLSTMParams*, i1 zeroext, i1 zeroext, i32, %struct.TfLiteTensor*, %struct.TfLiteTensor*, %struct.TfLiteTensor*, %struct.TfLiteTensor*, %struct.TfLiteTensor*, %struct.TfLiteTensor*, %struct.TfLiteTensor*, %struct.TfLiteTensor*, %struct.TfLiteTensor*, %struct.TfLiteTensor*, %struct.TfLiteTensor*, %struct.TfLiteTensor*, %struct.TfLiteTensor*, %struct.TfLiteTensor*, i32, i8*, %"class.tflite::CpuBackendContext"*) local_unnamed_addr #3

declare %"class.tflite::CpuBackendContext"* @_ZN6tflite17CpuBackendContext14GetFromContextEP13TfLiteContext(%struct.TfLiteContext*) local_unnamed_addr #3

declare i32 @_ZN6tflite3ops7builtin9lstm_eval17EvalInteger8x8_16EPK12TfLiteTensorS5_S5_S5_S5_S5_S5_S5_S5_S5_S5_S5_S5_S5_S5_S5_S5_S5_S5_S5_S5_S5_PK16TfLiteLSTMParamsPKNS2_20IntegerLstmParameterEPS3_SC_SC_SC_SC_SC_SC_SC_SC_PNS_17CpuBackendContextE(%struct.TfLiteTensor*, %struct.TfLiteTensor*, %struct.TfLiteTensor*, %struct.TfLiteTensor*, %struct.TfLiteTensor*, %struct.TfLiteTensor*, %struct.TfLiteTensor*, %struct.TfLiteTensor*, %struct.TfLiteTensor*, %struct.TfLiteTensor*, %struct.TfLiteTensor*, %struct.TfLiteTensor*, %struct.TfLiteTensor*, %struct.TfLiteTensor*, %struct.TfLiteTensor*, %struct.TfLiteTensor*, %struct.TfLiteTensor*, %struct.TfLiteTensor*, %struct.TfLiteTensor*, %struct.TfLiteTensor*, %struct.TfLiteTensor*, %struct.TfLiteTensor*, %struct.TfLiteLSTMParams*, %"struct.tflite::ops::builtin::lstm_eval::IntegerLstmParameter"*, %struct.TfLiteTensor*, %struct.TfLiteTensor*, %struct.TfLiteTensor*, %struct.TfLiteTensor*, %struct.TfLiteTensor*, %struct.TfLiteTensor*, %struct.TfLiteTensor*, %struct.TfLiteTensor*, %struct.TfLiteTensor*, %"class.tflite::CpuBackendContext"*) local_unnamed_addr #3

declare i32 @_ZN6tflite3ops7builtin9lstm_eval16EvalInteger8x8_8EPK12TfLiteTensorS5_S5_S5_S5_S5_S5_S5_S5_S5_S5_S5_S5_S5_S5_S5_S5_S5_S5_S5_S5_S5_PK16TfLiteLSTMParamsPS3_S9_S9_PKNS2_20IntegerLstmParameterES9_S9_S9_S9_S9_S9_S9_S9_(%struct.TfLiteTensor*, %struct.TfLiteTensor*, %struct.TfLiteTensor*, %struct.TfLiteTensor*, %struct.TfLiteTensor*, %struct.TfLiteTensor*, %struct.TfLiteTensor*, %struct.TfLiteTensor*, %struct.TfLiteTensor*, %struct.TfLiteTensor*, %struct.TfLiteTensor*, %struct.TfLiteTensor*, %struct.TfLiteTensor*, %struct.TfLiteTensor*, %struct.TfLiteTensor*, %struct.TfLiteTensor*, %struct.TfLiteTensor*, %struct.TfLiteTensor*, %struct.TfLiteTensor*, %struct.TfLiteTensor*, %struct.TfLiteTensor*, %struct.TfLiteTensor*, %struct.TfLiteLSTMParams*, %struct.TfLiteTensor*, %struct.TfLiteTensor*, %struct.TfLiteTensor*, %"struct.tflite::ops::builtin::lstm_eval::IntegerLstmParameter"*, %struct.TfLiteTensor*, %struct.TfLiteTensor*, %struct.TfLiteTensor*, %struct.TfLiteTensor*, %struct.TfLiteTensor*, %struct.TfLiteTensor*, %struct.TfLiteTensor*, %struct.TfLiteTensor*) local_unnamed_addr #3

; Function Attrs: nounwind ssp uwtable
define hidden noalias nonnull i8* @_ZN6tflite3ops7builtin4lstm5basic4InitEP13TfLiteContextPKcm(%struct.TfLiteContext* nocapture readnone, i8* nocapture readnone, i64) local_unnamed_addr #1 {
  %4 = tail call i8* @_Znwm(i64 376) #17
  %5 = bitcast i8* %4 to i32*
  call void @llvm.memset.p0i8.i64(i8* nonnull align 16 %4, i8 0, i64 376, i1 false)
  store i32 1, i32* %5, align 8
  %6 = getelementptr inbounds i8, i8* %4, i64 8
  %7 = bitcast i8* %6 to i32*
  store i32 -1, i32* %7, align 8
  ret i8* %4
}

; Function Attrs: nounwind ssp uwtable
define hidden i32 @_ZN6tflite3ops7builtin4lstm5basic7PrepareEP13TfLiteContextP10TfLiteNode(%struct.TfLiteContext*, %struct.TfLiteNode* nocapture readonly) local_unnamed_addr #1 {
  %3 = getelementptr inbounds %struct.TfLiteNode, %struct.TfLiteNode* %1, i64 0, i32 0
  %4 = load %struct.TfLiteIntArray*, %struct.TfLiteIntArray** %3, align 8
  %5 = getelementptr inbounds %struct.TfLiteIntArray, %struct.TfLiteIntArray* %4, i64 0, i32 0
  %6 = load i32, i32* %5, align 4
  %7 = icmp eq i32 %6, 5
  br i1 %7, label %11, label %8

8:                                                ; preds = %2
  %9 = getelementptr inbounds %struct.TfLiteContext, %struct.TfLiteContext* %0, i64 0, i32 5
  %10 = load void (%struct.TfLiteContext*, i8*, ...)*, void (%struct.TfLiteContext*, i8*, ...)** %9, align 8
  tail call void (%struct.TfLiteContext*, i8*, ...) %10(%struct.TfLiteContext* %0, i8* getelementptr inbounds ([23 x i8], [23 x i8]* @.str, i64 0, i64 0), i8* getelementptr inbounds ([61 x i8], [61 x i8]* @.str.3, i64 0, i64 0), i32 1710, i8* getelementptr inbounds ([32 x i8], [32 x i8]* @.str.108, i64 0, i64 0)) #18
  br label %245

11:                                               ; preds = %2
  %12 = getelementptr inbounds %struct.TfLiteNode, %struct.TfLiteNode* %1, i64 0, i32 1
  %13 = load %struct.TfLiteIntArray*, %struct.TfLiteIntArray** %12, align 8
  %14 = getelementptr inbounds %struct.TfLiteIntArray, %struct.TfLiteIntArray* %13, i64 0, i32 0
  %15 = load i32, i32* %14, align 4
  %16 = icmp eq i32 %15, 4
  br i1 %16, label %20, label %17

17:                                               ; preds = %11
  %18 = getelementptr inbounds %struct.TfLiteContext, %struct.TfLiteContext* %0, i64 0, i32 5
  %19 = load void (%struct.TfLiteContext*, i8*, ...)*, void (%struct.TfLiteContext*, i8*, ...)** %18, align 8
  tail call void (%struct.TfLiteContext*, i8*, ...) %19(%struct.TfLiteContext* %0, i8* getelementptr inbounds ([23 x i8], [23 x i8]* @.str, i64 0, i64 0), i8* getelementptr inbounds ([61 x i8], [61 x i8]* @.str.3, i64 0, i64 0), i32 1711, i8* getelementptr inbounds ([34 x i8], [34 x i8]* @.str.109, i64 0, i64 0)) #18
  br label %245

20:                                               ; preds = %11
  %21 = getelementptr inbounds %struct.TfLiteIntArray, %struct.TfLiteIntArray* %4, i64 0, i32 1, i64 0
  %22 = load i32, i32* %21, align 4
  %23 = icmp slt i32 %22, 0
  br i1 %23, label %29, label %24

24:                                               ; preds = %20
  %25 = getelementptr inbounds %struct.TfLiteContext, %struct.TfLiteContext* %0, i64 0, i32 2
  %26 = load %struct.TfLiteTensor*, %struct.TfLiteTensor** %25, align 8
  %27 = sext i32 %22 to i64
  %28 = getelementptr inbounds %struct.TfLiteTensor, %struct.TfLiteTensor* %26, i64 %27
  br label %29

29:                                               ; preds = %20, %24
  %30 = phi %struct.TfLiteTensor* [ %28, %24 ], [ null, %20 ]
  %31 = getelementptr inbounds %struct.TfLiteIntArray, %struct.TfLiteIntArray* %4, i64 0, i32 1, i64 1
  %32 = load i32, i32* %31, align 4
  %33 = icmp slt i32 %32, 0
  br i1 %33, label %39, label %34

34:                                               ; preds = %29
  %35 = getelementptr inbounds %struct.TfLiteContext, %struct.TfLiteContext* %0, i64 0, i32 2
  %36 = load %struct.TfLiteTensor*, %struct.TfLiteTensor** %35, align 8
  %37 = sext i32 %32 to i64
  %38 = getelementptr inbounds %struct.TfLiteTensor, %struct.TfLiteTensor* %36, i64 %37
  br label %39

39:                                               ; preds = %29, %34
  %40 = phi %struct.TfLiteTensor* [ %38, %34 ], [ null, %29 ]
  %41 = getelementptr inbounds %struct.TfLiteIntArray, %struct.TfLiteIntArray* %4, i64 0, i32 1, i64 2
  %42 = load i32, i32* %41, align 4
  %43 = icmp slt i32 %42, 0
  br i1 %43, label %49, label %44

44:                                               ; preds = %39
  %45 = getelementptr inbounds %struct.TfLiteContext, %struct.TfLiteContext* %0, i64 0, i32 2
  %46 = load %struct.TfLiteTensor*, %struct.TfLiteTensor** %45, align 8
  %47 = sext i32 %42 to i64
  %48 = getelementptr inbounds %struct.TfLiteTensor, %struct.TfLiteTensor* %46, i64 %47
  br label %49

49:                                               ; preds = %39, %44
  %50 = phi %struct.TfLiteTensor* [ %48, %44 ], [ null, %39 ]
  %51 = getelementptr inbounds %struct.TfLiteIntArray, %struct.TfLiteIntArray* %4, i64 0, i32 1, i64 3
  %52 = load i32, i32* %51, align 4
  %53 = icmp slt i32 %52, 0
  br i1 %53, label %59, label %54

54:                                               ; preds = %49
  %55 = getelementptr inbounds %struct.TfLiteContext, %struct.TfLiteContext* %0, i64 0, i32 2
  %56 = load %struct.TfLiteTensor*, %struct.TfLiteTensor** %55, align 8
  %57 = sext i32 %52 to i64
  %58 = getelementptr inbounds %struct.TfLiteTensor, %struct.TfLiteTensor* %56, i64 %57
  br label %59

59:                                               ; preds = %49, %54
  %60 = phi %struct.TfLiteTensor* [ %58, %54 ], [ null, %49 ]
  %61 = getelementptr inbounds %struct.TfLiteIntArray, %struct.TfLiteIntArray* %4, i64 0, i32 1, i64 4
  %62 = load i32, i32* %61, align 4
  %63 = icmp slt i32 %62, 0
  br i1 %63, label %69, label %64

64:                                               ; preds = %59
  %65 = getelementptr inbounds %struct.TfLiteContext, %struct.TfLiteContext* %0, i64 0, i32 2
  %66 = load %struct.TfLiteTensor*, %struct.TfLiteTensor** %65, align 8
  %67 = sext i32 %62 to i64
  %68 = getelementptr inbounds %struct.TfLiteTensor, %struct.TfLiteTensor* %66, i64 %67
  br label %69

69:                                               ; preds = %59, %64
  %70 = phi %struct.TfLiteTensor* [ %68, %64 ], [ null, %59 ]
  %71 = getelementptr inbounds %struct.TfLiteTensor, %struct.TfLiteTensor* %30, i64 0, i32 2
  %72 = load %struct.TfLiteIntArray*, %struct.TfLiteIntArray** %71, align 8
  %73 = getelementptr inbounds %struct.TfLiteIntArray, %struct.TfLiteIntArray* %72, i64 0, i32 0
  %74 = load i32, i32* %73, align 4
  %75 = icmp eq i32 %74, 2
  br i1 %75, label %79, label %76

76:                                               ; preds = %69
  %77 = getelementptr inbounds %struct.TfLiteContext, %struct.TfLiteContext* %0, i64 0, i32 5
  %78 = load void (%struct.TfLiteContext*, i8*, ...)*, void (%struct.TfLiteContext*, i8*, ...)** %77, align 8
  tail call void (%struct.TfLiteContext*, i8*, ...) %78(%struct.TfLiteContext* %0, i8* getelementptr inbounds ([26 x i8], [26 x i8]* @.str.6, i64 0, i64 0), i8* getelementptr inbounds ([61 x i8], [61 x i8]* @.str.3, i64 0, i64 0), i32 1720, i8* getelementptr inbounds ([18 x i8], [18 x i8]* @.str.110, i64 0, i64 0), i8* getelementptr inbounds ([2 x i8], [2 x i8]* @.str.8, i64 0, i64 0), i32 %74, i32 2) #18
  br label %245

79:                                               ; preds = %69
  %80 = getelementptr inbounds %struct.TfLiteIntArray, %struct.TfLiteIntArray* %72, i64 0, i32 1, i64 0
  %81 = load i32, i32* %80, align 4
  %82 = getelementptr inbounds %struct.TfLiteIntArray, %struct.TfLiteIntArray* %72, i64 0, i32 1, i64 1
  %83 = load i32, i32* %82, align 4
  %84 = getelementptr inbounds %struct.TfLiteTensor, %struct.TfLiteTensor* %40, i64 0, i32 2
  %85 = load %struct.TfLiteIntArray*, %struct.TfLiteIntArray** %84, align 8
  %86 = getelementptr inbounds %struct.TfLiteIntArray, %struct.TfLiteIntArray* %85, i64 0, i32 0
  %87 = load i32, i32* %86, align 4
  %88 = icmp eq i32 %87, 2
  br i1 %88, label %92, label %89

89:                                               ; preds = %79
  %90 = getelementptr inbounds %struct.TfLiteContext, %struct.TfLiteContext* %0, i64 0, i32 5
  %91 = load void (%struct.TfLiteContext*, i8*, ...)*, void (%struct.TfLiteContext*, i8*, ...)** %90, align 8
  tail call void (%struct.TfLiteContext*, i8*, ...) %91(%struct.TfLiteContext* %0, i8* getelementptr inbounds ([26 x i8], [26 x i8]* @.str.6, i64 0, i64 0), i8* getelementptr inbounds ([61 x i8], [61 x i8]* @.str.3, i64 0, i64 0), i32 1724, i8* getelementptr inbounds ([28 x i8], [28 x i8]* @.str.111, i64 0, i64 0), i8* getelementptr inbounds ([2 x i8], [2 x i8]* @.str.8, i64 0, i64 0), i32 %87, i32 2) #18
  br label %245

92:                                               ; preds = %79
  %93 = getelementptr inbounds %struct.TfLiteIntArray, %struct.TfLiteIntArray* %85, i64 0, i32 1, i64 0
  %94 = load i32, i32* %93, align 4
  %95 = icmp eq i32 %94, %81
  br i1 %95, label %99, label %96

96:                                               ; preds = %92
  %97 = getelementptr inbounds %struct.TfLiteContext, %struct.TfLiteContext* %0, i64 0, i32 5
  %98 = load void (%struct.TfLiteContext*, i8*, ...)*, void (%struct.TfLiteContext*, i8*, ...)** %97, align 8
  tail call void (%struct.TfLiteContext*, i8*, ...) %98(%struct.TfLiteContext* %0, i8* getelementptr inbounds ([26 x i8], [26 x i8]* @.str.6, i64 0, i64 0), i8* getelementptr inbounds ([61 x i8], [61 x i8]* @.str.3, i64 0, i64 0), i32 1725, i8* getelementptr inbounds ([31 x i8], [31 x i8]* @.str.112, i64 0, i64 0), i8* getelementptr inbounds ([12 x i8], [12 x i8]* @.str.113, i64 0, i64 0), i32 %94, i32 %81) #18
  br label %245

99:                                               ; preds = %92
  %100 = getelementptr inbounds %struct.TfLiteIntArray, %struct.TfLiteIntArray* %85, i64 0, i32 1, i64 1
  %101 = load i32, i32* %100, align 4
  %102 = add nsw i32 %101, %83
  %103 = getelementptr inbounds %struct.TfLiteTensor, %struct.TfLiteTensor* %50, i64 0, i32 2
  %104 = load %struct.TfLiteIntArray*, %struct.TfLiteIntArray** %103, align 8
  %105 = getelementptr inbounds %struct.TfLiteIntArray, %struct.TfLiteIntArray* %104, i64 0, i32 0
  %106 = load i32, i32* %105, align 4
  %107 = icmp eq i32 %106, 2
  br i1 %107, label %111, label %108

108:                                              ; preds = %99
  %109 = getelementptr inbounds %struct.TfLiteContext, %struct.TfLiteContext* %0, i64 0, i32 5
  %110 = load void (%struct.TfLiteContext*, i8*, ...)*, void (%struct.TfLiteContext*, i8*, ...)** %109, align 8
  tail call void (%struct.TfLiteContext*, i8*, ...) %110(%struct.TfLiteContext* %0, i8* getelementptr inbounds ([26 x i8], [26 x i8]* @.str.6, i64 0, i64 0), i8* getelementptr inbounds ([61 x i8], [61 x i8]* @.str.3, i64 0, i64 0), i32 1729, i8* getelementptr inbounds ([20 x i8], [20 x i8]* @.str.114, i64 0, i64 0), i8* getelementptr inbounds ([2 x i8], [2 x i8]* @.str.8, i64 0, i64 0), i32 %106, i32 2) #18
  br label %245

111:                                              ; preds = %99
  %112 = getelementptr inbounds %struct.TfLiteIntArray, %struct.TfLiteIntArray* %104, i64 0, i32 1, i64 0
  %113 = load i32, i32* %112, align 4
  %114 = shl nsw i32 %101, 2
  %115 = icmp eq i32 %113, %114
  br i1 %115, label %119, label %116

116:                                              ; preds = %111
  %117 = getelementptr inbounds %struct.TfLiteContext, %struct.TfLiteContext* %0, i64 0, i32 5
  %118 = load void (%struct.TfLiteContext*, i8*, ...)*, void (%struct.TfLiteContext*, i8*, ...)** %117, align 8
  tail call void (%struct.TfLiteContext*, i8*, ...) %118(%struct.TfLiteContext* %0, i8* getelementptr inbounds ([26 x i8], [26 x i8]* @.str.6, i64 0, i64 0), i8* getelementptr inbounds ([61 x i8], [61 x i8]* @.str.3, i64 0, i64 0), i32 1730, i8* getelementptr inbounds ([23 x i8], [23 x i8]* @.str.115, i64 0, i64 0), i8* getelementptr inbounds ([21 x i8], [21 x i8]* @.str.116, i64 0, i64 0), i32 %113, i32 %114) #18
  br label %245

119:                                              ; preds = %111
  %120 = getelementptr inbounds %struct.TfLiteIntArray, %struct.TfLiteIntArray* %104, i64 0, i32 1, i64 1
  %121 = load i32, i32* %120, align 4
