; ModuleID = '../../chrome/browser/device_api/managed_configuration_service.cc'
source_filename = "../../chrome/browser/device_api/managed_configuration_service.cc"
target datalayout = "e-m:e-i64:64-f80:128-n8:16:32:64-S128"
target triple = "x86_64-unknown-linux-gnu"

module asm ".symver exp, exp@GLIBC_2.2.5"
module asm ".symver exp2, exp2@GLIBC_2.2.5"
module asm ".symver exp2f, exp2f@GLIBC_2.2.5"
module asm ".symver expf, expf@GLIBC_2.2.5"
module asm ".symver lgamma, lgamma@GLIBC_2.2.5"
module asm ".symver lgammaf, lgammaf@GLIBC_2.2.5"
module asm ".symver lgammal, lgammal@GLIBC_2.2.5"
module asm ".symver log, log@GLIBC_2.2.5"
module asm ".symver log2, log2@GLIBC_2.2.5"
module asm ".symver log2f, log2f@GLIBC_2.2.5"
module asm ".symver logf, logf@GLIBC_2.2.5"
module asm ".symver pow, pow@GLIBC_2.2.5"
module asm ".symver powf, powf@GLIBC_2.2.5"

%"struct.base::Feature" = type { i8*, i32 }
%"struct.std::nothrow_t" = type { i8 }
%class.ManagedConfigurationServiceImpl = type { %"class.content::FrameServiceBase", %"class.ManagedConfigurationAPI::Observer", %"class.content::RenderFrameHost"*, %"class.mojo::Remote" }
%"class.content::FrameServiceBase" = type { %"class.blink::mojom::ManagedConfigurationService", %"class.content::WebContentsObserver", %"class.content::RenderFrameHost"*, %"class.url::Origin", %"class.mojo::Receiver" }
%"class.blink::mojom::ManagedConfigurationService" = type { i32 (...)** }
%"class.content::WebContentsObserver" = type { %"class.IPC::Listener", %"class.content::WebContents"* }
%"class.IPC::Listener" = type { i32 (...)** }
%"class.content::WebContents" = type <{ %"class.content::PageNavigator", %"class.base::SupportsUserData.base", [7 x i8] }>
%"class.content::PageNavigator" = type { i32 (...)** }
%"class.base::SupportsUserData.base" = type <{ i32 (...)**, %"class.std::__1::map", %"class.base::SequenceCheckerDoNothing" }>
%"class.std::__1::map" = type { %"class.std::__1::__tree" }
%"class.std::__1::__tree" = type { %"class.std::__1::__tree_end_node"*, %"class.std::__1::__compressed_pair.11", %"class.std::__1::__compressed_pair.16" }
%"class.std::__1::__tree_end_node" = type { %"class.std::__1::__tree_node_base"* }
%"class.std::__1::__tree_node_base" = type <{ %"class.std::__1::__tree_end_node", %"class.std::__1::__tree_node_base"*, %"class.std::__1::__tree_end_node"*, i8, [7 x i8] }>
%"class.std::__1::__compressed_pair.11" = type { %"struct.std::__1::__compressed_pair_elem.12" }
%"struct.std::__1::__compressed_pair_elem.12" = type { %"class.std::__1::__tree_end_node" }
%"class.std::__1::__compressed_pair.16" = type { %"struct.std::__1::__compressed_pair_elem.17" }
%"struct.std::__1::__compressed_pair_elem.17" = type { i64 }
%"class.base::SequenceCheckerDoNothing" = type { i8 }
%"class.url::Origin" = type { %"class.url::SchemeHostPort", %"class.absl::optional" }
%"class.url::SchemeHostPort" = type <{ %"class.std::__1::basic_string", %"class.std::__1::basic_string", i16, [6 x i8] }>
%"class.std::__1::basic_string" = type { %"class.std::__1::__compressed_pair" }
%"class.std::__1::__compressed_pair" = type { %"struct.std::__1::__compressed_pair_elem" }
%"struct.std::__1::__compressed_pair_elem" = type { %"struct.std::__1::basic_string<char, std::__1::char_traits<char>, std::__1::allocator<char> >::__rep" }
%"struct.std::__1::basic_string<char, std::__1::char_traits<char>, std::__1::allocator<char> >::__rep" = type { %union.anon }
%union.anon = type { %"struct.std::__1::basic_string<char, std::__1::char_traits<char>, std::__1::allocator<char> >::__long" }
%"struct.std::__1::basic_string<char, std::__1::char_traits<char>, std::__1::allocator<char> >::__long" = type { i8*, i64, i64 }
%"class.absl::optional" = type { %"class.absl::optional_internal::optional_data" }
%"class.absl::optional_internal::optional_data" = type { %"class.absl::optional_internal::optional_data_base" }
%"class.absl::optional_internal::optional_data_base" = type { %"class.absl::optional_internal::optional_data_dtor_base" }
%"class.absl::optional_internal::optional_data_dtor_base" = type { i8, %union.anon.19 }
%union.anon.19 = type { %"class.url::Origin::Nonce" }
%"class.url::Origin::Nonce" = type { %"class.base::UnguessableToken" }
%"class.base::UnguessableToken" = type { %"class.base::Token" }
%"class.base::Token" = type { i64, i64 }
%"class.mojo::Receiver" = type { %"class.mojo::internal::BindingState" }
%"class.mojo::internal::BindingState" = type { %"class.mojo::internal::BindingStateBase", %"class.blink::mojom::ManagedConfigurationServiceStub" }
%"class.mojo::internal::BindingStateBase" = type { %class.scoped_refptr.20, %"class.std::__1::unique_ptr.142", %"class.base::WeakPtrFactory.191" }
%class.scoped_refptr.20 = type { %"class.mojo::internal::MultiplexRouter"* }
%"class.mojo::internal::MultiplexRouter" = type <{ %"class.mojo::MessageReceiver", %"class.mojo::AssociatedGroupController.base", [4 x i8], %"class.mojo::PipeControlMessageHandlerDelegate", i32, i8, [3 x i8], %class.scoped_refptr.3, %"class.mojo::MessageHeaderValidator"*, %"class.mojo::MessageDispatcher", %"class.mojo::Connector", %"class.mojo::ScopedHandleBase", [4 x i8], %"class.absl::optional.109", %"class.absl::optional.114", %"class.absl::optional.62", %"class.mojo::PipeControlMessageHandler", %"class.mojo::PipeControlMessageProxy", %"class.base::small_map", i32, [4 x i8], %"class.base::circular_deque", %"class.std::__1::map.133", i8, [7 x i8], %class.scoped_refptr.3, i8, i8, i8, i8, i8, [3 x i8] }>
%"class.mojo::MessageReceiver" = type { i32 (...)** }
%"class.mojo::AssociatedGroupController.base" = type <{ i32 (...)**, %"class.base::RefCountedThreadSafe.21" }>
%"class.base::RefCountedThreadSafe.21" = type { %"class.base::subtle::RefCountedThreadSafeBase" }
%"class.base::subtle::RefCountedThreadSafeBase" = type { %"class.base::AtomicRefCount" }
%"class.base::AtomicRefCount" = type { %"struct.std::__1::atomic" }
%"struct.std::__1::atomic" = type { %"struct.std::__1::__atomic_base" }
%"struct.std::__1::__atomic_base" = type { %"struct.std::__1::__atomic_base.0" }
%"struct.std::__1::__atomic_base.0" = type { %"struct.std::__1::__cxx_atomic_impl" }
%"struct.std::__1::__cxx_atomic_impl" = type { %"struct.std::__1::__cxx_atomic_base_impl" }
%"struct.std::__1::__cxx_atomic_base_impl" = type { i32 }
%"class.mojo::PipeControlMessageHandlerDelegate" = type { i32 (...)** }
%"class.mojo::MessageHeaderValidator" = type { %"class.mojo::MessageReceiver", %"class.std::__1::basic_string" }
%"class.mojo::MessageDispatcher" = type { %"class.mojo::MessageReceiver", %"class.std::__1::unique_ptr", %"class.std::__1::unique_ptr.25", %"class.mojo::MessageReceiver"*, %"class.base::WeakPtrFactory" }
%"class.std::__1::unique_ptr" = type { %"class.std::__1::__compressed_pair.22" }
%"class.std::__1::__compressed_pair.22" = type { %"struct.std::__1::__compressed_pair_elem.23" }
%"struct.std::__1::__compressed_pair_elem.23" = type { %"class.mojo::MessageReceiver"* }
%"class.std::__1::unique_ptr.25" = type { %"class.std::__1::__compressed_pair.26" }
%"class.std::__1::__compressed_pair.26" = type { %"struct.std::__1::__compressed_pair_elem.27" }
%"struct.std::__1::__compressed_pair_elem.27" = type { %"class.mojo::MessageFilter"* }
%"class.mojo::MessageFilter" = type { i32 (...)** }
%"class.base::WeakPtrFactory" = type { %"class.base::internal::WeakPtrFactoryBase" }
%"class.base::internal::WeakPtrFactoryBase" = type { %"class.base::internal::WeakReferenceOwner", i64 }
%"class.base::internal::WeakReferenceOwner" = type { %class.scoped_refptr.31 }
%class.scoped_refptr.31 = type { %"class.base::internal::WeakReference::Flag"* }
%"class.base::internal::WeakReference::Flag" = type <{ %"class.base::RefCountedThreadSafe.32", %"class.base::AtomicFlag", [3 x i8] }>
%"class.base::RefCountedThreadSafe.32" = type { %"class.base::subtle::RefCountedThreadSafeBase" }
%"class.base::AtomicFlag" = type { %"struct.std::__1::atomic.33" }
%"struct.std::__1::atomic.33" = type { %"struct.std::__1::__atomic_base.34" }
%"struct.std::__1::__atomic_base.34" = type { %"struct.std::__1::__atomic_base.35" }
%"struct.std::__1::__atomic_base.35" = type { %"struct.std::__1::__cxx_atomic_impl.36" }
%"struct.std::__1::__cxx_atomic_impl.36" = type { %"struct.std::__1::__cxx_atomic_base_impl.37" }
%"struct.std::__1::__cxx_atomic_base_impl.37" = type { i8 }
%"class.mojo::Connector" = type { %"class.mojo::MessageReceiver", %"class.base::OnceCallback", %"class.mojo::ScopedHandleBase", %"class.mojo::MessageReceiver"*, %class.scoped_refptr.3, %"class.std::__1::unique_ptr.38", %"class.absl::optional.48", %"struct.std::__1::atomic.58", i8, i8, i8, i8, i32, i32, %"class.absl::optional.62", %"class.std::__1::unique_ptr.67", i8, i64, %class.scoped_refptr.99, %"class.base::Lock", i8, i8*, %"class.mojo::Connector::RunLoopNestingObserver"*, i8, i64, %"class.mojo::ConnectionGroup::Ref", %"class.base::WeakPtr", %"class.base::WeakPtrFactory.108" }
%"class.base::OnceCallback" = type { %"class.base::internal::CallbackBase" }
%"class.base::internal::CallbackBase" = type { %class.scoped_refptr.1 }
%class.scoped_refptr.1 = type { %"class.base::internal::BindStateBase"* }
%"class.base::internal::BindStateBase" = type { %"class.base::RefCountedThreadSafe.2", void ()*, void (%"class.base::internal::BindStateBase"*)*, i1 (%"class.base::internal::BindStateBase"*, i32)* }
%"class.base::RefCountedThreadSafe.2" = type { %"class.base::subtle::RefCountedThreadSafeBase" }
%"class.std::__1::unique_ptr.38" = type { %"class.std::__1::__compressed_pair.39" }
%"class.std::__1::__compressed_pair.39" = type { %"struct.std::__1::__compressed_pair_elem.40" }
%"struct.std::__1::__compressed_pair_elem.40" = type { %"class.mojo::SimpleWatcher"* }
%"class.mojo::SimpleWatcher" = type { i32, %class.scoped_refptr.3, i8, %"class.mojo::ScopedHandleBase.41", %class.scoped_refptr.42, %"class.mojo::Handle", i32, %"class.base::RepeatingCallback.43", i8*, %"class.base::WeakPtrFactory.44" }
%"class.mojo::ScopedHandleBase.41" = type { %"class.mojo::TrapHandle" }
%"class.mojo::TrapHandle" = type { %"class.mojo::Handle" }
%class.scoped_refptr.42 = type { %"class.mojo::SimpleWatcher::Context"* }
%"class.mojo::SimpleWatcher::Context" = type opaque
%"class.mojo::Handle" = type { i32 }
%"class.base::RepeatingCallback.43" = type { %"class.base::internal::CallbackBaseCopyable" }
%"class.base::internal::CallbackBaseCopyable" = type { %"class.base::internal::CallbackBase" }
%"class.base::WeakPtrFactory.44" = type { %"class.base::internal::WeakPtrFactoryBase" }
%"class.absl::optional.48" = type { %"class.absl::optional_internal::optional_data.49" }
%"class.absl::optional_internal::optional_data.49" = type { %"class.absl::optional_internal::optional_data_base.50" }
%"class.absl::optional_internal::optional_data_base.50" = type { %"class.absl::optional_internal::optional_data_dtor_base.51" }
%"class.absl::optional_internal::optional_data_dtor_base.51" = type { i8, %union.anon.52 }
%union.anon.52 = type { %"class.mojo::HandleSignalTracker" }
%"class.mojo::HandleSignalTracker" = type { %"class.base::RepeatingCallback.53", %"struct.mojo::HandleSignalsState", %"class.mojo::SimpleWatcher", %"class.mojo::SimpleWatcher" }
%"class.base::RepeatingCallback.53" = type { %"class.base::internal::CallbackBaseCopyable" }
%"struct.mojo::HandleSignalsState" = type { %struct.MojoHandleSignalsState }
%struct.MojoHandleSignalsState = type { i32, i32 }
%"struct.std::__1::atomic.58" = type { %"struct.std::__1::__atomic_base.59" }
%"struct.std::__1::__atomic_base.59" = type { %"struct.std::__1::__cxx_atomic_impl.60" }
%"struct.std::__1::__cxx_atomic_impl.60" = type { %"struct.std::__1::__cxx_atomic_base_impl.61" }
%"struct.std::__1::__cxx_atomic_base_impl.61" = type { i8 }
%"class.std::__1::unique_ptr.67" = type { %"class.std::__1::__compressed_pair.68" }
%"class.std::__1::__compressed_pair.68" = type { %"struct.std::__1::__compressed_pair_elem.69" }
%"struct.std::__1::__compressed_pair_elem.69" = type { %"class.mojo::SyncHandleWatcher"* }
%"class.mojo::SyncHandleWatcher" = type { %"class.mojo::Handle", i32, %"class.base::RepeatingCallback.70", i8, i64, %class.scoped_refptr.71, %class.scoped_refptr.95 }
%"class.base::RepeatingCallback.70" = type { %"class.base::internal::CallbackBaseCopyable" }
%class.scoped_refptr.71 = type { %"class.mojo::SyncHandleRegistry"* }
%"class.mojo::SyncHandleRegistry" = type <{ %"class.base::RefCounted", [4 x i8], %"class.mojo::WaitSet", %"class.std::__1::map.73", %"class.std::__1::map.84", i8, [7 x i8] }>
%"class.base::RefCounted" = type { %"class.base::subtle::RefCountedBase" }
%"class.base::subtle::RefCountedBase" = type { i32 }
%"class.mojo::WaitSet" = type { %class.scoped_refptr.72 }
%class.scoped_refptr.72 = type { %"class.mojo::WaitSet::State"* }
%"class.mojo::WaitSet::State" = type opaque
%"class.std::__1::map.73" = type { %"class.std::__1::__tree.74" }
%"class.std::__1::__tree.74" = type { %"class.std::__1::__tree_end_node"*, %"class.std::__1::__compressed_pair.75", %"class.std::__1::__compressed_pair.79" }
%"class.std::__1::__compressed_pair.75" = type { %"struct.std::__1::__compressed_pair_elem.12" }
%"class.std::__1::__compressed_pair.79" = type { %"struct.std::__1::__compressed_pair_elem.17" }
%"class.std::__1::map.84" = type { %"class.std::__1::__tree.85" }
%"class.std::__1::__tree.85" = type { %"class.std::__1::__tree_end_node"*, %"class.std::__1::__compressed_pair.86", %"class.std::__1::__compressed_pair.90" }
%"class.std::__1::__compressed_pair.86" = type { %"struct.std::__1::__compressed_pair_elem.12" }
%"class.std::__1::__compressed_pair.90" = type { %"struct.std::__1::__compressed_pair_elem.17" }
%class.scoped_refptr.95 = type { %"class.base::RefCountedData"* }
%"class.base::RefCountedData" = type opaque
%class.scoped_refptr.99 = type { %"class.mojo::internal::MessageQuotaChecker"* }
%"class.mojo::internal::MessageQuotaChecker" = type <{ %"class.base::RefCountedThreadSafe.100", [4 x i8], %"struct.mojo::internal::MessageQuotaChecker::Configuration"*, %"class.base::TimeTicks", %"struct.std::__1::atomic.102", %"struct.std::__1::atomic.102", %"struct.std::__1::atomic.102", %"class.base::Lock", %"class.mojo::internal::MessageQuotaChecker::DecayingRateAverage", i64, i64, %"class.mojo::MessagePipeHandle", [4 x i8] }>
%"class.base::RefCountedThreadSafe.100" = type { %"class.base::subtle::RefCountedThreadSafeBase" }
%"struct.mojo::internal::MessageQuotaChecker::Configuration" = type { i8, i64, i64, i64, {}* }
%"class.base::TimeTicks" = type { %"class.base::time_internal::TimeBase" }
%"class.base::time_internal::TimeBase" = type { i64 }
%"struct.std::__1::atomic.102" = type { %"struct.std::__1::__atomic_base.103" }
%"struct.std::__1::__atomic_base.103" = type { %"struct.std::__1::__atomic_base.104" }
%"struct.std::__1::__atomic_base.104" = type { %"struct.std::__1::__cxx_atomic_impl.105" }
%"struct.std::__1::__cxx_atomic_impl.105" = type { %"struct.std::__1::__cxx_atomic_base_impl.106" }
%"struct.std::__1::__cxx_atomic_base_impl.106" = type { i64 }
%"class.mojo::internal::MessageQuotaChecker::DecayingRateAverage" = type { i64, i64, double }
%"class.mojo::MessagePipeHandle" = type { %"class.mojo::Handle" }
%"class.base::Lock" = type { %"class.base::internal::LockImpl" }
%"class.base::internal::LockImpl" = type { %union.pthread_mutex_t }
%union.pthread_mutex_t = type { %struct.__pthread_mutex_s }
%struct.__pthread_mutex_s = type { i32, i32, i32, i32, i32, i16, i16, %struct.__pthread_internal_list }
%struct.__pthread_internal_list = type { %struct.__pthread_internal_list*, %struct.__pthread_internal_list* }
%"class.mojo::Connector::RunLoopNestingObserver" = type opaque
%"class.mojo::ConnectionGroup::Ref" = type { i32, %class.scoped_refptr }
%class.scoped_refptr = type { %"class.mojo::ConnectionGroup"* }
%"class.mojo::ConnectionGroup" = type <{ i32 (...)**, %"class.base::RefCountedThreadSafe", [4 x i8], %"class.base::RepeatingCallback", %class.scoped_refptr.3, %"class.mojo::ConnectionGroup::Ref", %"struct.std::__1::atomic.5", [4 x i8] }>
%"class.base::RefCountedThreadSafe" = type { %"class.base::subtle::RefCountedThreadSafeBase" }
%"class.base::RepeatingCallback" = type { %"class.base::internal::CallbackBaseCopyable" }
%"struct.std::__1::atomic.5" = type { %"struct.std::__1::__atomic_base.6" }
%"struct.std::__1::__atomic_base.6" = type { %"struct.std::__1::__atomic_base.7" }
%"struct.std::__1::__atomic_base.7" = type { %"struct.std::__1::__cxx_atomic_impl.8" }
%"struct.std::__1::__cxx_atomic_impl.8" = type { %"struct.std::__1::__cxx_atomic_base_impl.9" }
%"struct.std::__1::__cxx_atomic_base_impl.9" = type { i32 }
%"class.base::WeakPtr" = type { %"class.base::internal::WeakPtrBase" }
%"class.base::internal::WeakPtrBase" = type { %"class.base::internal::WeakReference", i64 }
%"class.base::internal::WeakReference" = type { %class.scoped_refptr.107 }
%class.scoped_refptr.107 = type { %"class.base::internal::WeakReference::Flag"* }
%"class.base::WeakPtrFactory.108" = type { %"class.base::internal::WeakPtrFactoryBase" }
%"class.mojo::ScopedHandleBase" = type { %"class.mojo::MessagePipeHandle" }
%"class.absl::optional.109" = type { %"class.absl::optional_internal::optional_data.110" }
%"class.absl::optional_internal::optional_data.110" = type { %"class.absl::optional_internal::optional_data_base.111" }
%"class.absl::optional_internal::optional_data_base.111" = type { %"class.absl::optional_internal::optional_data_dtor_base.112" }
%"class.absl::optional_internal::optional_data_dtor_base.112" = type { i8, %union.anon.113 }
%union.anon.113 = type { %"class.mojo::SimpleWatcher" }
%"class.absl::optional.114" = type { %"class.absl::optional_internal::optional_data.115" }
%"class.absl::optional_internal::optional_data.115" = type { %"class.absl::optional_internal::optional_data_base.116" }
%"class.absl::optional_internal::optional_data_base.116" = type { %"class.absl::optional_internal::optional_data_dtor_base.117" }
%"class.absl::optional_internal::optional_data_dtor_base.117" = type { i8, [7 x i8], %union.anon.118 }
%union.anon.118 = type { %"struct.mojo::internal::MultiplexRouter::ExclusiveSyncWaitInfo" }
%"struct.mojo::internal::MultiplexRouter::ExclusiveSyncWaitInfo" = type <{ i32, [4 x i8], i64, i8, [7 x i8] }>
%"class.absl::optional.62" = type { %"class.absl::optional_internal::optional_data.63" }
%"class.absl::optional_internal::optional_data.63" = type { %"class.absl::optional_internal::optional_data_base.64" }
%"class.absl::optional_internal::optional_data_base.64" = type { %"class.absl::optional_internal::optional_data_dtor_base.65" }
%"class.absl::optional_internal::optional_data_dtor_base.65" = type { i8, %union.anon.66 }
%union.anon.66 = type { %"class.base::Lock" }
%"class.mojo::PipeControlMessageHandler" = type { %"class.mojo::MessageReceiver", %"class.std::__1::basic_string", %"class.mojo::PipeControlMessageHandlerDelegate"* }
%"class.mojo::PipeControlMessageProxy" = type { %"class.mojo::MessageReceiver"* }
%"class.base::small_map" = type { i64, %"class.base::internal::small_map_default_init", %union.anon.119 }
%"class.base::internal::small_map_default_init" = type { i8 }
%union.anon.119 = type { %"class.std::__1::map.121" }
%"class.std::__1::map.121" = type { %"class.std::__1::__tree.122" }
%"class.std::__1::__tree.122" = type { %"class.std::__1::__tree_end_node"*, %"class.std::__1::__compressed_pair.123", %"class.std::__1::__compressed_pair.127" }
%"class.std::__1::__compressed_pair.123" = type { %"struct.std::__1::__compressed_pair_elem.12" }
%"class.std::__1::__compressed_pair.127" = type { %"struct.std::__1::__compressed_pair_elem.17" }
%"class.base::circular_deque" = type { %"class.base::internal::VectorBuffer", i64, i64 }
%"class.base::internal::VectorBuffer" = type { %"class.std::__1::unique_ptr.132"*, i64 }
%"class.std::__1::unique_ptr.132" = type opaque
%"class.std::__1::map.133" = type { %"class.std::__1::__tree.134" }
%"class.std::__1::__tree.134" = type { %"class.std::__1::__tree_end_node"*, %"class.std::__1::__compressed_pair.135", %"class.std::__1::__compressed_pair.139" }
%"class.std::__1::__compressed_pair.135" = type { %"struct.std::__1::__compressed_pair_elem.12" }
%"class.std::__1::__compressed_pair.139" = type { %"struct.std::__1::__compressed_pair_elem.17" }
%class.scoped_refptr.3 = type { %"class.base::SequencedTaskRunner"* }
%"class.base::SequencedTaskRunner" = type { %"class.base::TaskRunner.base", [4 x i8] }
%"class.base::TaskRunner.base" = type <{ i32 (...)**, %"class.base::RefCountedThreadSafe.4" }>
%"class.base::RefCountedThreadSafe.4" = type { %"class.base::subtle::RefCountedThreadSafeBase" }
%"class.std::__1::unique_ptr.142" = type { %"class.std::__1::__compressed_pair.143" }
%"class.std::__1::__compressed_pair.143" = type { %"struct.std::__1::__compressed_pair_elem.144" }
%"struct.std::__1::__compressed_pair_elem.144" = type { %"class.mojo::InterfaceEndpointClient"* }
%"class.mojo::InterfaceEndpointClient" = type { %"class.mojo::MessageReceiverWithResponder", i8, %"class.base::RepeatingCallback", %"class.base::OnceCallback.145", %"class.absl::optional.146", %"class.absl::optional.151", %"class.mojo::ConnectionGroup::Ref", i32, %"class.mojo::ScopedInterfaceEndpointHandle", %"class.std::__1::unique_ptr.158", %"class.mojo::InterfaceEndpointController"*, %"class.mojo::MessageReceiverWithResponderStatus"*, %"class.mojo::InterfaceEndpointClient::HandleIncomingMessageThunk", %"class.mojo::MessageDispatcher", %"class.std::__1::map.166", %"class.std::__1::map.177", i64, %"class.base::OnceCallback", %"class.base::OnceCallback.186", i8, %class.scoped_refptr.3, %"class.mojo::internal::ControlMessageProxy", %"class.mojo::internal::ControlMessageHandler", i8*, %"class.base::WeakPtrFactory.187" }
%"class.mojo::MessageReceiverWithResponder" = type { %"class.mojo::MessageReceiver" }
%"class.base::OnceCallback.145" = type { %"class.base::internal::CallbackBase" }
%"class.absl::optional.146" = type { %"class.absl::optional_internal::optional_data.147" }
%"class.absl::optional_internal::optional_data.147" = type { %"class.absl::optional_internal::optional_data_base.148" }
%"class.absl::optional_internal::optional_data_base.148" = type { %"class.absl::optional_internal::optional_data_dtor_base.149" }
%"class.absl::optional_internal::optional_data_dtor_base.149" = type { i8, %union.anon.150 }
%union.anon.150 = type { %"class.base::TimeDelta" }
%"class.base::TimeDelta" = type { i64 }
%"class.absl::optional.151" = type { %"class.absl::optional_internal::optional_data.152" }
%"class.absl::optional_internal::optional_data.152" = type { %"class.absl::optional_internal::optional_data_base.153" }
%"class.absl::optional_internal::optional_data_base.153" = type { %"class.absl::optional_internal::optional_data_dtor_base.154" }
%"class.absl::optional_internal::optional_data_dtor_base.154" = type { i8, %union.anon.155 }
%union.anon.155 = type { %"class.base::OneShotTimer" }
%"class.base::OneShotTimer" = type { %"class.base::internal::TimerBase", %"class.base::OnceCallback" }
%"class.base::internal::TimerBase" = type { i32 (...)**, %class.scoped_refptr.3, %"class.base::SequenceCheckerDoNothing", %"class.base::internal::TaskDestructionDetector"*, %"class.base::Location", %"class.base::TimeDelta", %"class.base::TimeTicks", %"class.base::TimeTicks", %"class.base::TickClock"*, i8, %"class.base::WeakPtrFactory.156" }
%"class.base::internal::TaskDestructionDetector" = type opaque
%"class.base::Location" = type { i8*, i8*, i32, i8* }
%"class.base::TickClock" = type { i32 (...)** }
%"class.base::WeakPtrFactory.156" = type { %"class.base::internal::WeakPtrFactoryBase" }
%"class.mojo::ScopedInterfaceEndpointHandle" = type { %class.scoped_refptr.157 }
%class.scoped_refptr.157 = type { %"class.mojo::ScopedInterfaceEndpointHandle::State"* }
%"class.mojo::ScopedInterfaceEndpointHandle::State" = type opaque
%"class.std::__1::unique_ptr.158" = type { %"class.std::__1::__compressed_pair.159" }
%"class.std::__1::__compressed_pair.159" = type { %"struct.std::__1::__compressed_pair_elem.160" }
%"struct.std::__1::__compressed_pair_elem.160" = type { %"class.mojo::AssociatedGroup"* }
%"class.mojo::AssociatedGroup" = type { %"class.base::RepeatingCallback.161", %class.scoped_refptr.162 }
%"class.base::RepeatingCallback.161" = type { %"class.base::internal::CallbackBaseCopyable" }
%class.scoped_refptr.162 = type { %"class.mojo::AssociatedGroupController"* }
%"class.mojo::AssociatedGroupController" = type <{ i32 (...)**, %"class.base::RefCountedThreadSafe.21", [4 x i8] }>
%"class.mojo::InterfaceEndpointController" = type opaque
%"class.mojo::MessageReceiverWithResponderStatus" = type { %"class.mojo::MessageReceiver" }
%"class.mojo::InterfaceEndpointClient::HandleIncomingMessageThunk" = type { %"class.mojo::MessageReceiver", %"class.mojo::InterfaceEndpointClient"* }
%"class.std::__1::map.166" = type { %"class.std::__1::__tree.167" }
%"class.std::__1::__tree.167" = type { %"class.std::__1::__tree_end_node"*, %"class.std::__1::__compressed_pair.168", %"class.std::__1::__compressed_pair.172" }
%"class.std::__1::__compressed_pair.168" = type { %"struct.std::__1::__compressed_pair_elem.12" }
%"class.std::__1::__compressed_pair.172" = type { %"struct.std::__1::__compressed_pair_elem.17" }
%"class.std::__1::map.177" = type { %"class.std::__1::__tree.178" }
%"class.std::__1::__tree.178" = type { %"class.std::__1::__tree_end_node"*, %"class.std::__1::__compressed_pair.179", %"class.std::__1::__compressed_pair.183" }
%"class.std::__1::__compressed_pair.179" = type { %"struct.std::__1::__compressed_pair_elem.12" }
%"class.std::__1::__compressed_pair.183" = type { %"struct.std::__1::__compressed_pair_elem.17" }
%"class.base::OnceCallback.186" = type { %"class.base::internal::CallbackBase" }
%"class.mojo::internal::ControlMessageProxy" = type { %"class.mojo::InterfaceEndpointClient"*, i8, %"class.base::OnceCallback" }
%"class.mojo::internal::ControlMessageHandler" = type <{ %"class.mojo::MessageReceiverWithResponderStatus", %"class.mojo::InterfaceEndpointClient"*, i32, [4 x i8] }>
%"class.base::WeakPtrFactory.187" = type { %"class.base::internal::WeakPtrFactoryBase" }
%"class.base::WeakPtrFactory.191" = type { %"class.base::internal::WeakPtrFactoryBase" }
%"class.blink::mojom::ManagedConfigurationServiceStub" = type { %"class.mojo::MessageReceiverWithResponderStatus", %"class.blink::mojom::ManagedConfigurationService"* }
%"class.ManagedConfigurationAPI::Observer" = type { %"class.base::CheckedObserver" }
%"class.base::CheckedObserver" = type { i32 (...)**, %"class.base::WeakPtrFactory.192" }
%"class.base::WeakPtrFactory.192" = type { %"class.base::internal::WeakPtrFactoryBase" }
%"class.mojo::Remote" = type { %"class.mojo::internal::InterfacePtrState" }
%"class.mojo::internal::InterfacePtrState" = type { %"class.mojo::internal::InterfacePtrStateBase.base", %"class.std::__1::unique_ptr.193" }
%"class.mojo::internal::InterfacePtrStateBase.base" = type <{ %class.scoped_refptr.20, %"class.std::__1::unique_ptr.142", %"class.mojo::ScopedHandleBase", [4 x i8], %class.scoped_refptr.3, i32 }>
%"class.std::__1::unique_ptr.193" = type { %"class.std::__1::__compressed_pair.194" }
%"class.std::__1::__compressed_pair.194" = type { %"struct.std::__1::__compressed_pair_elem.195" }
%"struct.std::__1::__compressed_pair_elem.195" = type { %"class.blink::mojom::ManagedConfigurationObserverProxy"* }
%"class.blink::mojom::ManagedConfigurationObserverProxy" = type { %"class.blink::mojom::ManagedConfigurationObserver", %"class.mojo::MessageReceiverWithResponder"* }
%"class.blink::mojom::ManagedConfigurationObserver" = type { i32 (...)** }
%"class.content::RenderFrameHost" = type { %"class.IPC::Listener", %"class.IPC::Sender" }
%"class.IPC::Sender" = type { i32 (...)** }
%"class.mojo::PendingReceiver" = type { %"struct.mojo::internal::PendingReceiverState" }
%"struct.mojo::internal::PendingReceiverState" = type { %"class.mojo::ScopedHandleBase", %"class.mojo::ConnectionGroup::Ref" }
%"struct.std::__1::basic_string<char, std::__1::char_traits<char>, std::__1::allocator<char> >::__short" = type { [23 x i8], %struct.anon }
%struct.anon = type { i8 }
%"class.mojo::internal::InterfacePtrStateBase" = type <{ %class.scoped_refptr.20, %"class.std::__1::unique_ptr.142", %"class.mojo::ScopedHandleBase", [4 x i8], %class.scoped_refptr.3, i32, [4 x i8] }>
%"class.content::BrowserContext" = type { %"class.base::SupportsUserData.base", %"class.std::__1::unique_ptr.199" }
%"class.std::__1::unique_ptr.199" = type { %"class.std::__1::__compressed_pair.200" }
%"class.std::__1::__compressed_pair.200" = type { %"struct.std::__1::__compressed_pair_elem.201" }
%"struct.std::__1::__compressed_pair_elem.201" = type { %"class.content::BrowserContext::Impl"* }
%"class.content::BrowserContext::Impl" = type opaque
%class.Profile = type { %"class.content::BrowserContext", %"class.std::__1::unique_ptr.205", i8, i8, i32, %"class.base::ObserverList", %"class.std::__1::unique_ptr.217" }
%"class.std::__1::unique_ptr.205" = type { %"class.std::__1::__compressed_pair.206" }
%"class.std::__1::__compressed_pair.206" = type { %"struct.std::__1::__compressed_pair_elem.207" }
%"struct.std::__1::__compressed_pair_elem.207" = type { %"class.content::ResourceContext"* }
%"class.content::ResourceContext" = type opaque
%"class.base::ObserverList" = type <{ %"class.std::__1::vector", %"class.base::LinkedList", i64, i32, [4 x i8] }>
%"class.std::__1::vector" = type { %"class.std::__1::__vector_base" }
%"class.std::__1::__vector_base" = type { %"class.base::internal::CheckedObserverAdapter"*, %"class.base::internal::CheckedObserverAdapter"*, %"class.std::__1::__compressed_pair.212" }
%"class.base::internal::CheckedObserverAdapter" = type { %"class.base::WeakPtr.211" }
%"class.base::WeakPtr.211" = type { %"class.base::internal::WeakPtrBase" }
%"class.std::__1::__compressed_pair.212" = type { %"struct.std::__1::__compressed_pair_elem.213" }
%"struct.std::__1::__compressed_pair_elem.213" = type { %"class.base::internal::CheckedObserverAdapter"* }
%"class.base::LinkedList" = type { %"class.base::LinkNode" }
%"class.base::LinkNode" = type { %"class.base::internal::LinkNodeBase" }
%"class.base::internal::LinkNodeBase" = type { %"class.base::internal::LinkNodeBase"*, %"class.base::internal::LinkNodeBase"* }
%"class.std::__1::unique_ptr.217" = type { %"class.std::__1::__compressed_pair.218" }
%"class.std::__1::__compressed_pair.218" = type { %"struct.std::__1::__compressed_pair_elem.219" }
%"struct.std::__1::__compressed_pair_elem.219" = type { %"class.variations::VariationsClient"* }
%"class.variations::VariationsClient" = type opaque
%class.ManagedConfigurationAPI = type { %class.KeyedService, %class.Profile*, %"class.base::FilePath", %"class.std::__1::map.223", %"class.std::__1::map.234", %"class.std::__1::set", %"class.std::__1::set.250", %class.scoped_refptr.3, %"class.std::__1::unique_ptr.260", %"class.base::WeakPtrFactory.277" }
%class.KeyedService = type { i32 (...)** }
%"class.base::FilePath" = type { %"class.std::__1::basic_string" }
%"class.std::__1::map.223" = type { %"class.std::__1::__tree.224" }
%"class.std::__1::__tree.224" = type { %"class.std::__1::__tree_end_node"*, %"class.std::__1::__compressed_pair.225", %"class.std::__1::__compressed_pair.229" }
%"class.std::__1::__compressed_pair.225" = type { %"struct.std::__1::__compressed_pair_elem.12" }
%"class.std::__1::__compressed_pair.229" = type { %"struct.std::__1::__compressed_pair_elem.17" }
%"class.std::__1::map.234" = type { %"class.std::__1::__tree.235" }
%"class.std::__1::__tree.235" = type { %"class.std::__1::__tree_end_node"*, %"class.std::__1::__compressed_pair.236", %"class.std::__1::__compressed_pair.240" }
%"class.std::__1::__compressed_pair.236" = type { %"struct.std::__1::__compressed_pair_elem.12" }
%"class.std::__1::__compressed_pair.240" = type { %"struct.std::__1::__compressed_pair_elem.17" }
%"class.std::__1::set" = type { %"class.std::__1::__tree.243" }
%"class.std::__1::__tree.243" = type { %"class.std::__1::__tree_end_node"*, %"class.std::__1::__compressed_pair.244", %"class.std::__1::__compressed_pair.248" }
%"class.std::__1::__compressed_pair.244" = type { %"struct.std::__1::__compressed_pair_elem.12" }
%"class.std::__1::__compressed_pair.248" = type { %"struct.std::__1::__compressed_pair_elem.17" }
%"class.std::__1::set.250" = type { %"class.std::__1::__tree.251" }
%"class.std::__1::__tree.251" = type { %"class.std::__1::__tree_end_node"*, %"class.std::__1::__compressed_pair.252", %"class.std::__1::__compressed_pair.256" }
%"class.std::__1::__compressed_pair.252" = type { %"struct.std::__1::__compressed_pair_elem.12" }
%"class.std::__1::__compressed_pair.256" = type { %"struct.std::__1::__compressed_pair_elem.17" }
%"class.std::__1::unique_ptr.260" = type { %"class.std::__1::__compressed_pair.261" }
%"class.std::__1::__compressed_pair.261" = type { %"struct.std::__1::__compressed_pair_elem.262" }
%"struct.std::__1::__compressed_pair_elem.262" = type { %class.PrefChangeRegistrar* }
%class.PrefChangeRegistrar = type { %class.PrefObserver, %"class.std::__1::map.263", %class.PrefService* }
%class.PrefObserver = type { i32 (...)** }
%"class.std::__1::map.263" = type { %"class.std::__1::__tree.264" }
%"class.std::__1::__tree.264" = type { %"class.std::__1::__tree_end_node"*, %"class.std::__1::__compressed_pair.265", %"class.std::__1::__compressed_pair.269" }
%"class.std::__1::__compressed_pair.265" = type { %"struct.std::__1::__compressed_pair_elem.12" }
%"class.std::__1::__compressed_pair.269" = type { %"struct.std::__1::__compressed_pair_elem.17" }
%class.PrefService = type opaque
%"class.base::WeakPtrFactory.277" = type { %"class.base::internal::WeakPtrFactoryBase" }
%"class.std::__1::vector.278" = type { %"class.std::__1::__vector_base.279" }
%"class.std::__1::__vector_base.279" = type { %"class.std::__1::basic_string"*, %"class.std::__1::basic_string"*, %"class.std::__1::__compressed_pair.280" }
%"class.std::__1::__compressed_pair.280" = type { %"struct.std::__1::__compressed_pair_elem.281" }
%"struct.std::__1::__compressed_pair_elem.281" = type { %"class.std::__1::basic_string"* }
%"class.base::OnceCallback.285" = type { %"class.base::internal::CallbackBase" }
%"class.base::OnceCallback.286" = type { %"class.base::internal::CallbackBase" }
%"class.mojo::PendingRemote" = type { %"struct.mojo::internal::PendingRemoteState" }
%"struct.mojo::internal::PendingRemoteState" = type { %"class.mojo::ScopedHandleBase", i32 }
%"class.content::NavigationHandle" = type { %"class.base::SupportsUserData.base", [7 x i8] }
%"class.IPC::Message" = type { %"class.base::Pickle", i8, %class.scoped_refptr.287 }
%"class.base::Pickle" = type { i32 (...)**, %"struct.base::Pickle::Header"*, i64, i64, i64 }
%"struct.base::Pickle::Header" = type { i32 }
%class.scoped_refptr.287 = type { %"class.IPC::MessageAttachmentSet"* }
%"class.IPC::MessageAttachmentSet" = type opaque
%"class.blink::mojom::CaptureHandleConfig" = type opaque
%"class.content::RenderViewHost" = type opaque
%"class.content::RenderProcessHost" = type opaque
%class.GURL = type { %"class.std::__1::basic_string", i8, %"struct.url::Parsed", %"class.std::__1::unique_ptr.288" }
%"struct.url::Parsed" = type { %"struct.url::Component", %"struct.url::Component", %"struct.url::Component", %"struct.url::Component", %"struct.url::Component", %"struct.url::Component", %"struct.url::Component", %"struct.url::Component", i8, %"struct.url::Parsed"* }
%"struct.url::Component" = type { i32, i32 }
%"class.std::__1::unique_ptr.288" = type { %"class.std::__1::__compressed_pair.289" }
%"class.std::__1::__compressed_pair.289" = type { %"struct.std::__1::__compressed_pair_elem.290" }
%"struct.std::__1::__compressed_pair_elem.290" = type { %class.GURL* }
%"struct.content::GlobalRequestID" = type { i32, i32 }
%"class.blink::mojom::ResourceLoadInfo" = type opaque
%"struct.content::CookieAccessDetails" = type <{ i32, [4 x i8], %class.GURL, %class.GURL, %"class.std::__1::vector.294", i8, [7 x i8] }>
%"class.std::__1::vector.294" = type { %"class.std::__1::__vector_base.295" }
%"class.std::__1::__vector_base.295" = type { %"class.net::CanonicalCookie"*, %"class.net::CanonicalCookie"*, %"class.std::__1::__compressed_pair.297" }
%"class.net::CanonicalCookie" = type { %"class.std::__1::basic_string", %"class.std::__1::basic_string", %"class.std::__1::basic_string", %"class.std::__1::basic_string", %"class.base::Time", %"class.base::Time", %"class.base::Time", i8, i8, i32, i32, i8, i32, i32 }
%"class.base::Time" = type { %"class.base::time_internal::TimeBase.296" }
%"class.base::time_internal::TimeBase.296" = type { i64 }
%"class.std::__1::__compressed_pair.297" = type { %"struct.std::__1::__compressed_pair_elem.298" }
%"struct.std::__1::__compressed_pair_elem.298" = type { %"class.net::CanonicalCookie"* }
%"struct.content::LoadCommittedDetails" = type opaque
%"struct.content::PrunedDetails" = type opaque
%"struct.content::EntryChangedDetails" = type opaque
%"struct.content::Referrer" = type <{ %class.GURL, i32, [4 x i8] }>
%"class.blink::WebInputEvent" = type { i32 (...)**, float, %"class.gfx::Vector2dF", %"class.base::TimeTicks", i32, i32 }
%"class.gfx::Vector2dF" = type { float, float }
%"class.gfx::Size" = type { i32, i32 }
%"class.content::NavigationEntry" = type opaque
%"struct.blink::UserAgentOverride" = type { %"class.std::__1::basic_string", %"class.absl::optional.302" }
%"class.absl::optional.302" = type { %"class.absl::optional_internal::optional_data.303" }
%"class.absl::optional_internal::optional_data.303" = type { %"class.absl::optional_internal::optional_data_base.304" }
%"class.absl::optional_internal::optional_data_base.304" = type { %"class.absl::optional_internal::optional_data_dtor_base.305" }
%"class.absl::optional_internal::optional_data_dtor_base.305" = type { i8, [7 x i8], %union.anon.306 }
%union.anon.306 = type { %"struct.blink::UserAgentMetadata" }
%"struct.blink::UserAgentMetadata" = type <{ %"class.std::__1::vector.307", %"class.std::__1::basic_string", %"class.std::__1::basic_string", %"class.std::__1::basic_string", %"class.std::__1::basic_string", %"class.std::__1::basic_string", i8, [7 x i8] }>
%"class.std::__1::vector.307" = type { %"class.std::__1::__vector_base.308" }
%"class.std::__1::__vector_base.308" = type { %"struct.blink::UserAgentBrandVersion"*, %"struct.blink::UserAgentBrandVersion"*, %"class.std::__1::__compressed_pair.309" }
%"struct.blink::UserAgentBrandVersion" = type { %"class.std::__1::basic_string", %"class.std::__1::basic_string" }
%"class.std::__1::__compressed_pair.309" = type { %"struct.std::__1::__compressed_pair_elem.310" }
%"struct.std::__1::__compressed_pair_elem.310" = type { %"struct.blink::UserAgentBrandVersion"* }
%"class.std::__1::vector.314" = type opaque
%"struct.content::AXEventNotificationDetails" = type opaque
%"class.std::__1::vector.315" = type opaque
%"class.std::__1::basic_string.316" = type { %"class.std::__1::__compressed_pair.317" }
%"class.std::__1::__compressed_pair.317" = type { %"struct.std::__1::__compressed_pair_elem.318" }
%"struct.std::__1::__compressed_pair_elem.318" = type { %"struct.std::__1::basic_string<char16_t, std::__1::char_traits<char16_t>, std::__1::allocator<char16_t> >::__rep" }
%"struct.std::__1::basic_string<char16_t, std::__1::char_traits<char16_t>, std::__1::allocator<char16_t> >::__rep" = type { %union.anon.319 }
%union.anon.319 = type { %"struct.std::__1::basic_string<char16_t, std::__1::char_traits<char16_t>, std::__1::allocator<char16_t> >::__long" }
%"struct.std::__1::basic_string<char16_t, std::__1::char_traits<char16_t>, std::__1::allocator<char16_t> >::__long" = type { i16*, i64, i64 }
%"class.absl::optional.325" = type opaque
%"struct.content::WebContentsObserver::MediaPlayerInfo" = type { i8, i8 }
%"struct.content::MediaPlayerId" = type opaque
%"class.content::RenderWidgetHost" = type opaque
%"struct.content::FocusedNodeDetails" = type opaque
%"class.absl::optional.326" = type { %"class.absl::optional_internal::optional_data.327" }
%"class.absl::optional_internal::optional_data.327" = type { %"class.absl::optional_internal::optional_data_base.328" }
%"class.absl::optional_internal::optional_data_base.328" = type { %"class.absl::optional_internal::optional_data_dtor_base.329" }
%"class.absl::optional_internal::optional_data_dtor_base.329" = type { i8, %union.anon.330 }
%union.anon.330 = type { %class.GURL }
%"struct.std::__1::pair.331" = type opaque
%"class.mojo::Message" = type { %"class.mojo::ScopedHandleBase.332", %"class.mojo::internal::Buffer", %"class.std::__1::vector.333", %"class.std::__1::vector.341", %"class.mojo::ConnectionGroup::Ref"*, i8, i8, i8* }
%"class.mojo::ScopedHandleBase.332" = type { %"class.mojo::MessageHandle" }
%"class.mojo::MessageHandle" = type { i64 }
%"class.mojo::internal::Buffer" = type { %"class.mojo::MessageHandle", i64, i8*, i64, i64 }
%"class.std::__1::vector.333" = type { %"class.std::__1::__vector_base.334" }
%"class.std::__1::__vector_base.334" = type { %"class.mojo::ScopedHandleBase.335"*, %"class.mojo::ScopedHandleBase.335"*, %"class.std::__1::__compressed_pair.336" }
%"class.mojo::ScopedHandleBase.335" = type { %"class.mojo::Handle" }
%"class.std::__1::__compressed_pair.336" = type { %"struct.std::__1::__compressed_pair_elem.337" }
%"struct.std::__1::__compressed_pair_elem.337" = type { %"class.mojo::ScopedHandleBase.335"* }
%"class.std::__1::vector.341" = type { %"class.std::__1::__vector_base.342" }
%"class.std::__1::__vector_base.342" = type { %"class.mojo::ScopedInterfaceEndpointHandle"*, %"class.mojo::ScopedInterfaceEndpointHandle"*, %"class.std::__1::__compressed_pair.343" }
%"class.std::__1::__compressed_pair.343" = type { %"struct.std::__1::__compressed_pair_elem.344" }
%"struct.std::__1::__compressed_pair_elem.344" = type { %"class.mojo::ScopedInterfaceEndpointHandle"* }
%"class.mojo::MessageReceiverWithStatus" = type { %"class.mojo::MessageReceiver" }
%"class.base::TaskRunner" = type <{ i32 (...)**, %"class.base::RefCountedThreadSafe.4", [4 x i8] }>
%"class.std::__1::unique_ptr.363" = type { %"class.std::__1::__compressed_pair.364" }
%"class.std::__1::__compressed_pair.364" = type { %"struct.std::__1::__compressed_pair_elem.365" }
%"struct.std::__1::__compressed_pair_elem.365" = type { %"class.base::DictionaryValue"* }
%"class.base::DictionaryValue" = type { %"class.base::Value" }
%"class.base::Value" = type { %"class.absl::variant" }
%"class.absl::variant" = type { %"class.absl::variant_internal::VariantCopyAssignBaseNontrivial" }
%"class.absl::variant_internal::VariantCopyAssignBaseNontrivial" = type { %"class.absl::variant_internal::VariantMoveAssignBaseNontrivial" }
%"class.absl::variant_internal::VariantMoveAssignBaseNontrivial" = type { %"class.absl::variant_internal::VariantCopyBaseNontrivial" }
%"class.absl::variant_internal::VariantCopyBaseNontrivial" = type { %"class.absl::variant_internal::VariantMoveBaseNontrivial" }
%"class.absl::variant_internal::VariantMoveBaseNontrivial" = type { %"class.absl::variant_internal::VariantStateBaseDestructorNontrivial" }
%"class.absl::variant_internal::VariantStateBaseDestructorNontrivial" = type { %"class.absl::variant_internal::VariantStateBase" }
%"class.absl::variant_internal::VariantStateBase" = type { %"union.absl::variant_internal::DestructibleUnionImpl", i64 }
%"union.absl::variant_internal::DestructibleUnionImpl" = type { %"union.absl::variant_internal::DestructibleUnionImpl.366" }
%"union.absl::variant_internal::DestructibleUnionImpl.366" = type { %"union.absl::variant_internal::DestructibleUnionImpl.367" }
%"union.absl::variant_internal::DestructibleUnionImpl.367" = type { %"union.absl::variant_internal::DestructibleUnionImpl.368" }
%"union.absl::variant_internal::DestructibleUnionImpl.368" = type { %"union.absl::variant_internal::DestructibleUnionImpl.369" }
%"union.absl::variant_internal::DestructibleUnionImpl.369" = type { %"class.std::__1::basic_string" }
%"class.absl::optional.403" = type { %"class.absl::optional_internal::optional_data.404" }
%"class.absl::optional_internal::optional_data.404" = type { %"class.absl::optional_internal::optional_data_base.405" }
%"class.absl::optional_internal::optional_data_base.405" = type { %"class.absl::optional_internal::optional_data_dtor_base.406" }
%"class.absl::optional_internal::optional_data_dtor_base.406" = type { i8, %union.anon.407 }
%union.anon.407 = type { %"class.base::flat_map.408" }
%"class.base::flat_map.408" = type { %"class.base::internal::flat_tree.409" }
%"class.base::internal::flat_tree.409" = type { %"class.std::__1::vector.410" }
%"class.std::__1::vector.410" = type { %"class.std::__1::__vector_base.411" }
%"class.std::__1::__vector_base.411" = type { %"struct.std::__1::pair.412"*, %"struct.std::__1::pair.412"*, %"class.std::__1::__compressed_pair.413" }
%"struct.std::__1::pair.412" = type { %"class.std::__1::basic_string", %"class.std::__1::basic_string" }
%"class.std::__1::__compressed_pair.413" = type { %"struct.std::__1::__compressed_pair_elem.414" }
%"struct.std::__1::__compressed_pair_elem.414" = type { %"struct.std::__1::pair.412"* }
%"class.base::detail::dict_iterator_proxy" = type { %"class.base::flat_map"* }
%"class.base::flat_map" = type { %"class.base::internal::flat_tree" }
%"class.base::internal::flat_tree" = type { %"class.std::__1::vector.379" }
%"class.std::__1::vector.379" = type { %"class.std::__1::__vector_base.380" }
%"class.std::__1::__vector_base.380" = type { %"struct.std::__1::pair.381"*, %"struct.std::__1::pair.381"*, %"class.std::__1::__compressed_pair.382" }
%"struct.std::__1::pair.381" = type opaque
%"class.std::__1::__compressed_pair.382" = type { %"struct.std::__1::__compressed_pair_elem.383" }
%"struct.std::__1::__compressed_pair_elem.383" = type { %"struct.std::__1::pair.381"* }
%"class.base::detail::dict_iterator" = type { %"class.std::__1::__wrap_iter" }
%"class.std::__1::__wrap_iter" = type { %"struct.std::__1::pair.381"* }
%"class.std::__1::__vector_base_common" = type { i8 }
%"struct.base::internal::flat_tree<std::__1::basic_string<char, std::__1::char_traits<char>, std::__1::allocator<char> >, base::internal::GetFirst, std::__1::less<void>, std::__1::vector<std::__1::pair<std::__1::basic_string<char, std::__1::char_traits<char>, std::__1::allocator<char> >, std::__1::basic_string<char, std::__1::char_traits<char>, std::__1::allocator<char> > >, std::__1::allocator<std::__1::pair<std::__1::basic_string<char, std::__1::char_traits<char>, std::__1::allocator<char> >, std::__1::basic_string<char, std::__1::char_traits<char>, std::__1::allocator<char> > > > > >::value_compare" = type { i8 }
%"class.std::__1::reverse_iterator.431" = type { %"class.std::__1::__wrap_iter.422", %"class.std::__1::__wrap_iter.422" }
%"class.std::__1::__wrap_iter.422" = type { %"struct.std::__1::pair.412"* }
%"class.mojo::PassThroughFilter" = type { %"class.mojo::MessageReceiver" }

$_ZN7content16FrameServiceBaseIN5blink5mojom27ManagedConfigurationServiceEEC2EPNS_15RenderFrameHostEN4mojo15PendingReceiverIS3_EE = comdat any

$_ZN7content16FrameServiceBaseIN5blink5mojom27ManagedConfigurationServiceEE18RenderFrameDeletedEPNS_15RenderFrameHostE = comdat any

$_ZN7content16FrameServiceBaseIN5blink5mojom27ManagedConfigurationServiceEE19DidFinishNavigationEPNS_16NavigationHandleE = comdat any

$_ZN3IPC8Listener18OnChannelConnectedEi = comdat any

$_ZN3IPC8Listener14OnChannelErrorEv = comdat any

$_ZN3IPC8Listener20OnBadMessageReceivedERKNS_7MessageE = comdat any

$_ZN3IPC8Listener28OnAssociatedInterfaceRequestERKNSt3__112basic_stringIcNS1_11char_traitsIcEENS1_9allocatorIcEEEEN4mojo29ScopedInterfaceEndpointHandleE = comdat any

$_ZN3IPC8Listener15OnChannelDeniedEv = comdat any

$_ZN3IPC8Listener20OnChannelListenErrorEv = comdat any

$_ZN7content19WebContentsObserver18RenderFrameCreatedEPNS_15RenderFrameHostE = comdat any

$_ZThn8_N7content16FrameServiceBaseIN5blink5mojom27ManagedConfigurationServiceEE18RenderFrameDeletedEPNS_15RenderFrameHostE = comdat any

$_ZN7content19WebContentsObserver22RenderFrameHostChangedEPNS_15RenderFrameHostES2_ = comdat any

$_ZN7content19WebContentsObserver12FrameDeletedEi = comdat any

$_ZN7content19WebContentsObserver27RenderFrameHostStateChangedEPNS_15RenderFrameHostENS1_14LifecycleStateES3_ = comdat any

$_ZN7content19WebContentsObserver20CaptureTargetChangedEv = comdat any

$_ZN7content19WebContentsObserver27OnCaptureHandleConfigUpdateERKN5blink5mojom19CaptureHandleConfigE = comdat any

$_ZN7content19WebContentsObserver15RenderViewReadyEv = comdat any

$_ZN7content19WebContentsObserver17RenderViewDeletedEPNS_14RenderViewHostE = comdat any

$_ZN7content19WebContentsObserver17RenderProcessGoneEN4base17TerminationStatusE = comdat any

$_ZN7content19WebContentsObserver21RenderViewHostChangedEPNS_14RenderViewHostES2_ = comdat any

$_ZN7content19WebContentsObserver22OnRendererUnresponsiveEPNS_17RenderProcessHostE = comdat any

$_ZN7content19WebContentsObserver20OnRendererResponsiveEPNS_17RenderProcessHostE = comdat any

$_ZN7content19WebContentsObserver18DidStartNavigationEPNS_16NavigationHandleE = comdat any

$_ZN7content19WebContentsObserver21DidRedirectNavigationEPNS_16NavigationHandleE = comdat any

$_ZN7content19WebContentsObserver23ReadyToCommitNavigationEPNS_16NavigationHandleE = comdat any

$_ZThn8_N7content16FrameServiceBaseIN5blink5mojom27ManagedConfigurationServiceEE19DidFinishNavigationEPNS_16NavigationHandleE = comdat any

$_ZN7content19WebContentsObserver17DidActivatePortalEPNS_11WebContentsEN4base9TimeTicksE = comdat any

$_ZN7content19WebContentsObserver15DidStartLoadingEv = comdat any

$_ZN7content19WebContentsObserver18DidReceiveResponseEv = comdat any

$_ZN7content19WebContentsObserver14DidStopLoadingEv = comdat any

$_ZN7content19WebContentsObserver19LoadProgressChangedEd = comdat any

$_ZN7content19WebContentsObserver28DocumentAvailableInMainFrameEPNS_15RenderFrameHostE = comdat any

$_ZN7content19WebContentsObserver34DocumentOnLoadCompletedInMainFrameEPNS_15RenderFrameHostE = comdat any

$_ZN7content19WebContentsObserver16DOMContentLoadedEPNS_15RenderFrameHostE = comdat any

$_ZN7content19WebContentsObserver13DidFinishLoadEPNS_15RenderFrameHostERK4GURL = comdat any

$_ZN7content19WebContentsObserver11DidFailLoadEPNS_15RenderFrameHostERK4GURLi = comdat any

$_ZN7content19WebContentsObserver29DidChangeVisibleSecurityStateEv = comdat any

$_ZN7content19WebContentsObserver30DidLoadResourceFromMemoryCacheEPNS_15RenderFrameHostERK4GURLRKNSt3__112basic_stringIcNS6_11char_traitsIcEENS6_9allocatorIcEEEEN7network5mojom18RequestDestinationE = comdat any

$_ZN7content19WebContentsObserver20ResourceLoadCompleteEPNS_15RenderFrameHostERKNS_15GlobalRequestIDERKN5blink5mojom16ResourceLoadInfoE = comdat any

$_ZN7content19WebContentsObserver17OnCookiesAccessedEPNS_15RenderFrameHostERKNS_19CookieAccessDetailsE = comdat any

$_ZN7content19WebContentsObserver17OnCookiesAccessedEPNS_16NavigationHandleERKNS_19CookieAccessDetailsE = comdat any

$_ZN7content19WebContentsObserver24NavigationEntryCommittedERKNS_20LoadCommittedDetailsE = comdat any

$_ZN7content19WebContentsObserver20NavigationListPrunedERKNS_13PrunedDetailsE = comdat any

$_ZN7content19WebContentsObserver24NavigationEntriesDeletedEv = comdat any

$_ZN7content19WebContentsObserver22NavigationEntryChangedERKNS_19EntryChangedDetailsE = comdat any

$_ZN7content19WebContentsObserver19DidOpenRequestedURLEPNS_11WebContentsEPNS_15RenderFrameHostERK4GURLRKNS_8ReferrerE21WindowOpenDispositionN2ui14PageTransitionEbb = comdat any

$_ZN7content19WebContentsObserver29DidFirstVisuallyNonEmptyPaintEv = comdat any

$_ZN7content19WebContentsObserver17NavigationStoppedEv = comdat any

$_ZN7content19WebContentsObserver21DidGetUserInteractionERKN5blink13WebInputEventE = comdat any

$_ZN7content19WebContentsObserver20DidGetIgnoredUIEventEv = comdat any

$_ZN7content19WebContentsObserver19OnVisibilityChangedENS_10VisibilityE = comdat any

$_ZN7content19WebContentsObserver19MainFrameWasResizedEb = comdat any

$_ZN7content19WebContentsObserver16FrameNameChangedEPNS_15RenderFrameHostERKNSt3__112basic_stringIcNS3_11char_traitsIcEENS3_9allocatorIcEEEE = comdat any

$_ZN7content19WebContentsObserver27FrameReceivedUserActivationEPNS_15RenderFrameHostE = comdat any

$_ZN7content19WebContentsObserver24FrameDisplayStateChangedEPNS_15RenderFrameHostEb = comdat any

$_ZN7content19WebContentsObserver16FrameSizeChangedEPNS_15RenderFrameHostERKN3gfx4SizeE = comdat any

$_ZN7content19WebContentsObserver11TitleWasSetEPNS_15NavigationEntryE = comdat any

$_ZN7content19WebContentsObserver16AppCacheAccessedERK4GURLb = comdat any

$_ZN7content19WebContentsObserver21PepperInstanceCreatedEv = comdat any

$_ZN7content19WebContentsObserver21PepperInstanceDeletedEv = comdat any

$_ZN7content19WebContentsObserver18ViewportFitChangedEN5blink5mojom11ViewportFitE = comdat any

$_ZN7content19WebContentsObserver13PluginCrashedERKN4base8FilePathEi = comdat any

$_ZN7content19WebContentsObserver23PluginHungStatusChangedEiRKN4base8FilePathEb = comdat any

$_ZN7content19WebContentsObserver23InnerWebContentsCreatedEPNS_11WebContentsE = comdat any

$_ZN7content19WebContentsObserver24InnerWebContentsAttachedEPNS_11WebContentsEPNS_15RenderFrameHostEb = comdat any

$_ZN7content19WebContentsObserver24InnerWebContentsDetachedEPNS_11WebContentsE = comdat any

$_ZN7content19WebContentsObserver24DidCloneToNewWebContentsEPNS_11WebContentsES2_ = comdat any

$_ZN7content19WebContentsObserver20WebContentsDestroyedEv = comdat any

$_ZN7content19WebContentsObserver20UserAgentOverrideSetERKN5blink17UserAgentOverrideE = comdat any

$_ZN7content19WebContentsObserver19DidUpdateFaviconURLEPNS_15RenderFrameHostERKNSt3__16vectorIN4mojo9StructPtrIN5blink5mojom10FaviconURLEEENS3_9allocatorISA_EEEE = comdat any

$_ZN7content19WebContentsObserver19OnAudioStateChangedEb = comdat any

$_ZN7content19WebContentsObserver24OnFrameAudioStateChangedEPNS_15RenderFrameHostEb = comdat any

$_ZN7content19WebContentsObserver37OnIsConnectedToBluetoothDeviceChangedEb = comdat any

$_ZN7content19WebContentsObserver25DidUpdateAudioMutingStateEb = comdat any

$_ZN7content19WebContentsObserver29DidToggleFullscreenModeForTabEbb = comdat any

$_ZN7content19WebContentsObserver20DidAcquireFullscreenEPNS_15RenderFrameHostE = comdat any

$_ZN7content19WebContentsObserver32DidChangeVerticalScrollDirectionEN3viz23VerticalScrollDirectionE = comdat any

$_ZN7content19WebContentsObserver27BeforeFormRepostWarningShowEv = comdat any

$_ZN7content19WebContentsObserver17BeforeUnloadFiredEbRKN4base9TimeTicksE = comdat any

$_ZN7content19WebContentsObserver27BeforeUnloadDialogCancelledEv = comdat any

$_ZN7content19WebContentsObserver30AXTreeIDForMainFrameHasChangedEv = comdat any

$_ZN7content19WebContentsObserver26AccessibilityEventReceivedERKNS_26AXEventNotificationDetailsE = comdat any

$_ZN7content19WebContentsObserver36AccessibilityLocationChangesReceivedERKNSt3__16vectorINS_35AXLocationChangeNotificationDetailsENS1_9allocatorIS3_EEEE = comdat any

$_ZN7content19WebContentsObserver19DidChangeThemeColorEv = comdat any

$_ZN7content19WebContentsObserver24OnBackgroundColorChangedEv = comdat any

$_ZN7content19WebContentsObserver24OnDidAddMessageToConsoleEPNS_15RenderFrameHostEN5blink5mojom19ConsoleMessageLevelERKNSt3__112basic_stringIDsNS6_11char_traitsIDsEENS6_9allocatorIDsEEEEiSE_RKN4absl8optionalISC_EE = comdat any

$_ZN7content19WebContentsObserver19MediaStartedPlayingERKNS0_15MediaPlayerInfoERKNS_13MediaPlayerIdE = comdat any

$_ZN7content19WebContentsObserver19MediaStoppedPlayingERKNS0_15MediaPlayerInfoERKNS_13MediaPlayerIdENS0_18MediaStoppedReasonE = comdat any

$_ZN7content19WebContentsObserver12MediaResizedERKN3gfx4SizeERKNS_13MediaPlayerIdE = comdat any

$_ZN7content19WebContentsObserver33MediaEffectivelyFullscreenChangedEb = comdat any

$_ZN7content19WebContentsObserver28MediaPictureInPictureChangedEb = comdat any

$_ZN7content19WebContentsObserver23MediaMutedStatusChangedERKNS_13MediaPlayerIdEb = comdat any

$_ZN7content19WebContentsObserver20MediaBufferUnderflowERKNS_13MediaPlayerIdE = comdat any

$_ZN7content19WebContentsObserver15MediaPlayerSeekERKNS_13MediaPlayerIdE = comdat any

$_ZN7content19WebContentsObserver14MediaDestroyedERKNS_13MediaPlayerIdE = comdat any

$_ZN7content19WebContentsObserver24OnPageScaleFactorChangedEf = comdat any

$_ZN7content19WebContentsObserver7OnPasteEv = comdat any

$_ZN7content19WebContentsObserver20OnWebContentsFocusedEPNS_16RenderWidgetHostE = comdat any

$_ZN7content19WebContentsObserver22OnWebContentsLostFocusEPNS_16RenderWidgetHostE = comdat any

$_ZN7content19WebContentsObserver20OnFocusChangedInPageEPNS_18FocusedNodeDetailsE = comdat any

$_ZN7content19WebContentsObserver23DidUpdateWebManifestURLEPNS_15RenderFrameHostERKN4absl8optionalI4GURLEE = comdat any

$_ZN7content19WebContentsObserver27OnInterfaceRequestFromFrameEPNS_15RenderFrameHostERKNSt3__112basic_stringIcNS3_11char_traitsIcEENS3_9allocatorIcEEEEPN4mojo16ScopedHandleBaseINSC_17MessagePipeHandleEEE = comdat any

$_ZN7content19WebContentsObserver27AudioContextPlaybackStartedERKNSt3__14pairIPNS_15RenderFrameHostEiEE = comdat any

$_ZN7content19WebContentsObserver27AudioContextPlaybackStoppedERKNSt3__14pairIPNS_15RenderFrameHostEiEE = comdat any

$_ZN7content19WebContentsObserver23OnServiceWorkerAccessedEPNS_15RenderFrameHostERK4GURLNS_24AllowServiceWorkerResultE = comdat any

$_ZN7content19WebContentsObserver23OnServiceWorkerAccessedEPNS_16NavigationHandleERK4GURLNS_24AllowServiceWorkerResultE = comdat any

$_ZN7content16FrameServiceBaseIN5blink5mojom27ManagedConfigurationServiceEED2Ev = comdat any

$_ZN7content16FrameServiceBaseIN5blink5mojom27ManagedConfigurationServiceEED0Ev = comdat any

$_ZThn8_N7content16FrameServiceBaseIN5blink5mojom27ManagedConfigurationServiceEED1Ev = comdat any

$_ZThn8_N7content16FrameServiceBaseIN5blink5mojom27ManagedConfigurationServiceEED0Ev = comdat any

$_ZN7content16FrameServiceBaseIN5blink5mojom27ManagedConfigurationServiceEE5CloseEv = comdat any

$_ZN5blink5mojom27ManagedConfigurationServiceD2Ev = comdat any

$_ZN5blink5mojom27ManagedConfigurationServiceD0Ev = comdat any

$_ZN5blink5mojom31ManagedConfigurationServiceStubIN4mojo19RawPtrImplRefTraitsINS0_27ManagedConfigurationServiceEEEED0Ev = comdat any

$_ZN5blink5mojom31ManagedConfigurationServiceStubIN4mojo19RawPtrImplRefTraitsINS0_27ManagedConfigurationServiceEEEE6AcceptEPNS2_7MessageE = comdat any

$_ZN5blink5mojom31ManagedConfigurationServiceStubIN4mojo19RawPtrImplRefTraitsINS0_27ManagedConfigurationServiceEEEE19AcceptWithResponderEPNS2_7MessageENSt3__110unique_ptrINS2_25MessageReceiverWithStatusENS9_14default_deleteISB_EEEE = comdat any

$_ZN4mojo15MessageReceiverD2Ev = comdat any

$_ZN4base8internal7InvokerINS0_9BindStateIMN7content16FrameServiceBaseIN5blink5mojom27ManagedConfigurationServiceEEEFvvEJNS0_17UnretainedWrapperIS8_EEEEEFvvEE7RunOnceEPNS0_13BindStateBaseE = comdat any

$_ZN4base8internal9BindStateIMN7content16FrameServiceBaseIN5blink5mojom27ManagedConfigurationServiceEEEFvvEJNS0_17UnretainedWrapperIS7_EEEE7DestroyEPKNS0_13BindStateBaseE = comdat any

$_ZNSt3__16vectorINS_4pairINS_12basic_stringIcNS_11char_traitsIcEENS_9allocatorIcEEEES7_EENS5_IS8_EEE24__emplace_back_slow_pathIJRKS7_RS7_EEEvDpOT_ = comdat any

$_ZN4base8internal9flat_treeINSt3__112basic_stringIcNS2_11char_traitsIcEENS2_9allocatorIcEEEENS0_8GetFirstENS2_4lessIvEENS2_6vectorINS2_4pairIS8_S8_EENS6_ISE_EEEEE15sort_and_uniqueENS2_11__wrap_iterIPSE_EESK_ = comdat any

$_ZNSt3__16uniqueINS_11__wrap_iterIPNS_4pairINS_12basic_stringIcNS_11char_traitsIcEENS_9allocatorIcEEEES8_EEEEN4base8internal9NotFnImplINSD_9flat_treeIS8_NSD_8GetFirstENS_4lessIvEENS_6vectorIS9_NS6_IS9_EEEEE13value_compareEEEEET_SP_SP_T0_ = comdat any

$_ZNSt3__113__stable_sortIRN4base8internal9flat_treeINS_12basic_stringIcNS_11char_traitsIcEENS_9allocatorIcEEEENS2_8GetFirstENS_4lessIvEENS_6vectorINS_4pairIS9_S9_EENS7_ISF_EEEEE13value_compareENS_11__wrap_iterIPSF_EEEEvT0_SO_T_NS_15iterator_traitsISO_E15difference_typeEPNSR_10value_typeEl = comdat any

$_ZNSt3__116__insertion_sortIRN4base8internal9flat_treeINS_12basic_stringIcNS_11char_traitsIcEENS_9allocatorIcEEEENS2_8GetFirstENS_4lessIvEENS_6vectorINS_4pairIS9_S9_EENS7_ISF_EEEEE13value_compareENS_11__wrap_iterIPSF_EEEEvT0_SO_T_ = comdat any

$_ZNSt3__118__stable_sort_moveIRN4base8internal9flat_treeINS_12basic_stringIcNS_11char_traitsIcEENS_9allocatorIcEEEENS2_8GetFirstENS_4lessIvEENS_6vectorINS_4pairIS9_S9_EENS7_ISF_EEEEE13value_compareENS_11__wrap_iterIPSF_EEEEvT0_SO_T_NS_15iterator_traitsISO_E15difference_typeEPNSR_10value_typeE = comdat any

$_ZNSt3__119__merge_move_assignIRN4base8internal9flat_treeINS_12basic_stringIcNS_11char_traitsIcEENS_9allocatorIcEEEENS2_8GetFirstENS_4lessIvEENS_6vectorINS_4pairIS9_S9_EENS7_ISF_EEEEE13value_compareEPSF_SL_NS_11__wrap_iterISL_EEEEvT0_SO_T1_SP_T2_T_ = comdat any

$_ZNSt3__115__inplace_mergeIRN4base8internal9flat_treeINS_12basic_stringIcNS_11char_traitsIcEENS_9allocatorIcEEEENS2_8GetFirstENS_4lessIvEENS_6vectorINS_4pairIS9_S9_EENS7_ISF_EEEEE13value_compareENS_11__wrap_iterIPSF_EEEEvT0_SO_SO_T_NS_15iterator_traitsISO_E15difference_typeESS_PNSR_10value_typeEl = comdat any

$_ZNSt3__121__insertion_sort_moveIRN4base8internal9flat_treeINS_12basic_stringIcNS_11char_traitsIcEENS_9allocatorIcEEEENS2_8GetFirstENS_4lessIvEENS_6vectorINS_4pairIS9_S9_EENS7_ISF_EEEEE13value_compareENS_11__wrap_iterIPSF_EEEEvT0_SO_PNS_15iterator_traitsISO_E10value_typeET_ = comdat any

$_ZNSt3__122__merge_move_constructIRN4base8internal9flat_treeINS_12basic_stringIcNS_11char_traitsIcEENS_9allocatorIcEEEENS2_8GetFirstENS_4lessIvEENS_6vectorINS_4pairIS9_S9_EENS7_ISF_EEEEE13value_compareENS_11__wrap_iterIPSF_EESN_EEvT0_SO_T1_SP_PNS_15iterator_traitsISO_E10value_typeET_ = comdat any

$_ZNSt3__124__buffered_inplace_mergeIRN4base8internal9flat_treeINS_12basic_stringIcNS_11char_traitsIcEENS_9allocatorIcEEEENS2_8GetFirstENS_4lessIvEENS_6vectorINS_4pairIS9_S9_EENS7_ISF_EEEEE13value_compareENS_11__wrap_iterIPSF_EEEEvT0_SO_SO_T_NS_15iterator_traitsISO_E15difference_typeESS_PNSR_10value_typeE = comdat any

$_ZNSt3__120__half_inplace_mergeIRN4base8internal9flat_treeINS_12basic_stringIcNS_11char_traitsIcEENS_9allocatorIcEEEENS2_8GetFirstENS_4lessIvEENS_6vectorINS_4pairIS9_S9_EENS7_ISF_EEEEE13value_compareEPSF_NS_11__wrap_iterISL_EESN_EEvT0_SO_T1_SP_T2_T_ = comdat any

$_ZNSt3__120__half_inplace_mergeINS_8__invertIRN4base8internal9flat_treeINS_12basic_stringIcNS_11char_traitsIcEENS_9allocatorIcEEEENS3_8GetFirstENS_4lessIvEENS_6vectorINS_4pairISA_SA_EENS8_ISG_EEEEE13value_compareEEENS_16reverse_iteratorIPSG_EENSN_INS_11__wrap_iterISO_EEEESS_EEvT0_ST_T1_SU_T2_T_ = comdat any

$_ZNSt3__16vectorINS_4pairINS_12basic_stringIcNS_11char_traitsIcEENS_9allocatorIcEEEES7_EENS5_IS8_EEE5eraseENS_11__wrap_iterIPKS8_EESE_ = comdat any

$_ZN4mojo6RemoteIN5blink5mojom28ManagedConfigurationObserverEE4BindENS_13PendingRemoteIS3_EE13scoped_refptrIN4base19SequencedTaskRunnerEE = comdat any

$_ZN4mojo8internal17InterfacePtrStateIN5blink5mojom28ManagedConfigurationObserverEE25ConfigureProxyIfNecessaryEv = comdat any

$_ZTVN7content16FrameServiceBaseIN5blink5mojom27ManagedConfigurationServiceEEE = comdat any

$_ZTVN5blink5mojom27ManagedConfigurationServiceE = comdat any

$_ZTVN5blink5mojom31ManagedConfigurationServiceStubIN4mojo19RawPtrImplRefTraitsINS0_27ManagedConfigurationServiceEEEEE = comdat any

@_ZN5blink8features21kManagedConfigurationE = external global %"struct.base::Feature", align 8
@.str = private unnamed_addr constant [63 x i8] c"Managed configuration access while the feature is not enabled.\00", align 1
@_ZTV31ManagedConfigurationServiceImpl = hidden unnamed_addr constant { [10 x i8*], [109 x i8*], [6 x i8*] } { [10 x i8*] [i8* null, i8* null, i8* bitcast (void (%class.ManagedConfigurationServiceImpl*)* @_ZN31ManagedConfigurationServiceImplD2Ev to i8*), i8* bitcast (void (%class.ManagedConfigurationServiceImpl*)* @_ZN31ManagedConfigurationServiceImplD0Ev to i8*), i8* bitcast (void (%class.ManagedConfigurationServiceImpl*, %"class.std::__1::vector.278"*, %"class.base::OnceCallback.285"*)* @_ZN31ManagedConfigurationServiceImpl23GetManagedConfigurationERKNSt3__16vectorINS0_12basic_stringIcNS0_11char_traitsIcEENS0_9allocatorIcEEEENS5_IS7_EEEEN4base12OnceCallbackIFvRKN4absl8optionalINSC_8flat_mapIS7_S7_NS0_4lessIvEENS1_INS0_4pairIS7_S7_EENS5_ISK_EEEEEEEEEEE to i8*), i8* bitcast (void (%class.ManagedConfigurationServiceImpl*, %"class.mojo::PendingRemote"*)* @_ZN31ManagedConfigurationServiceImpl31SubscribeToManagedConfigurationEN4mojo13PendingRemoteIN5blink5mojom28ManagedConfigurationObserverEEE to i8*), i8* bitcast (void (%"class.content::FrameServiceBase"*, %"class.content::RenderFrameHost"*)* @_ZN7content16FrameServiceBaseIN5blink5mojom27ManagedConfigurationServiceEE18RenderFrameDeletedEPNS_15RenderFrameHostE to i8*), i8* bitcast (void (%"class.content::FrameServiceBase"*, %"class.content::NavigationHandle"*)* @_ZN7content16FrameServiceBaseIN5blink5mojom27ManagedConfigurationServiceEE19DidFinishNavigationEPNS_16NavigationHandleE to i8*), i8* bitcast (void (%class.ManagedConfigurationServiceImpl*)* @_ZN31ManagedConfigurationServiceImpl29OnManagedConfigurationChangedEv to i8*), i8* bitcast (%"class.url::Origin"* (%class.ManagedConfigurationServiceImpl*)* @_ZN31ManagedConfigurationServiceImpl9GetOriginEv to i8*)], [109 x i8*] [i8* inttoptr (i64 -8 to i8*), i8* null, i8* bitcast (i1 (%"class.content::WebContentsObserver"*, %"class.IPC::Message"*)* @_ZN7content19WebContentsObserver17OnMessageReceivedERKN3IPC7MessageE to i8*), i8* bitcast (void (%"class.IPC::Listener"*, i32)* @_ZN3IPC8Listener18OnChannelConnectedEi to i8*), i8* bitcast (void (%"class.IPC::Listener"*)* @_ZN3IPC8Listener14OnChannelErrorEv to i8*), i8* bitcast (void (%"class.IPC::Listener"*, %"class.IPC::Message"*)* @_ZN3IPC8Listener20OnBadMessageReceivedERKNS_7MessageE to i8*), i8* bitcast (void (%"class.IPC::Listener"*, %"class.std::__1::basic_string"*, %"class.mojo::ScopedInterfaceEndpointHandle"*)* @_ZN3IPC8Listener28OnAssociatedInterfaceRequestERKNSt3__112basic_stringIcNS1_11char_traitsIcEENS1_9allocatorIcEEEEN4mojo29ScopedInterfaceEndpointHandleE to i8*), i8* bitcast (void (%"class.IPC::Listener"*)* @_ZN3IPC8Listener15OnChannelDeniedEv to i8*), i8* bitcast (void (%"class.IPC::Listener"*)* @_ZN3IPC8Listener20OnChannelListenErrorEv to i8*), i8* bitcast (void (%class.ManagedConfigurationServiceImpl*)* @_ZThn8_N31ManagedConfigurationServiceImplD1Ev to i8*), i8* bitcast (void (%class.ManagedConfigurationServiceImpl*)* @_ZThn8_N31ManagedConfigurationServiceImplD0Ev to i8*), i8* bitcast (void (%"class.content::WebContentsObserver"*, %"class.content::RenderFrameHost"*)* @_ZN7content19WebContentsObserver18RenderFrameCreatedEPNS_15RenderFrameHostE to i8*), i8* bitcast (void (%"class.content::FrameServiceBase"*, %"class.content::RenderFrameHost"*)* @_ZThn8_N7content16FrameServiceBaseIN5blink5mojom27ManagedConfigurationServiceEE18RenderFrameDeletedEPNS_15RenderFrameHostE to i8*), i8* bitcast (void (%"class.content::WebContentsObserver"*, %"class.content::RenderFrameHost"*, %"class.content::RenderFrameHost"*)* @_ZN7content19WebContentsObserver22RenderFrameHostChangedEPNS_15RenderFrameHostES2_ to i8*), i8* bitcast (void (%"class.content::WebContentsObserver"*, i32)* @_ZN7content19WebContentsObserver12FrameDeletedEi to i8*), i8* bitcast (void (%"class.content::WebContentsObserver"*, %"class.content::RenderFrameHost"*, i32, i32)* @_ZN7content19WebContentsObserver27RenderFrameHostStateChangedEPNS_15RenderFrameHostENS1_14LifecycleStateES3_ to i8*), i8* bitcast (void (%"class.content::WebContentsObserver"*)* @_ZN7content19WebContentsObserver20CaptureTargetChangedEv to i8*), i8* bitcast (void (%"class.content::WebContentsObserver"*, %"class.blink::mojom::CaptureHandleConfig"*)* @_ZN7content19WebContentsObserver27OnCaptureHandleConfigUpdateERKN5blink5mojom19CaptureHandleConfigE to i8*), i8* bitcast (void (%"class.content::WebContentsObserver"*)* @_ZN7content19WebContentsObserver15RenderViewReadyEv to i8*), i8* bitcast (void (%"class.content::WebContentsObserver"*, %"class.content::RenderViewHost"*)* @_ZN7content19WebContentsObserver17RenderViewDeletedEPNS_14RenderViewHostE to i8*), i8* bitcast (void (%"class.content::WebContentsObserver"*, i32)* @_ZN7content19WebContentsObserver17RenderProcessGoneEN4base17TerminationStatusE to i8*), i8* bitcast (void (%"class.content::WebContentsObserver"*, %"class.content::RenderViewHost"*, %"class.content::RenderViewHost"*)* @_ZN7content19WebContentsObserver21RenderViewHostChangedEPNS_14RenderViewHostES2_ to i8*), i8* bitcast (void (%"class.content::WebContentsObserver"*, %"class.content::RenderProcessHost"*)* @_ZN7content19WebContentsObserver22OnRendererUnresponsiveEPNS_17RenderProcessHostE to i8*), i8* bitcast (void (%"class.content::WebContentsObserver"*, %"class.content::RenderProcessHost"*)* @_ZN7content19WebContentsObserver20OnRendererResponsiveEPNS_17RenderProcessHostE to i8*), i8* bitcast (void (%"class.content::WebContentsObserver"*, %"class.content::NavigationHandle"*)* @_ZN7content19WebContentsObserver18DidStartNavigationEPNS_16NavigationHandleE to i8*), i8* bitcast (void (%"class.content::WebContentsObserver"*, %"class.content::NavigationHandle"*)* @_ZN7content19WebContentsObserver21DidRedirectNavigationEPNS_16NavigationHandleE to i8*), i8* bitcast (void (%"class.content::WebContentsObserver"*, %"class.content::NavigationHandle"*)* @_ZN7content19WebContentsObserver23ReadyToCommitNavigationEPNS_16NavigationHandleE to i8*), i8* bitcast (void (%"class.content::FrameServiceBase"*, %"class.content::NavigationHandle"*)* @_ZThn8_N7content16FrameServiceBaseIN5blink5mojom27ManagedConfigurationServiceEE19DidFinishNavigationEPNS_16NavigationHandleE to i8*), i8* bitcast (void (%"class.content::WebContentsObserver"*, %"class.content::WebContents"*, i64)* @_ZN7content19WebContentsObserver17DidActivatePortalEPNS_11WebContentsEN4base9TimeTicksE to i8*), i8* bitcast (void (%"class.content::WebContentsObserver"*)* @_ZN7content19WebContentsObserver15DidStartLoadingEv to i8*), i8* bitcast (void (%"class.content::WebContentsObserver"*)* @_ZN7content19WebContentsObserver18DidReceiveResponseEv to i8*), i8* bitcast (void (%"class.content::WebContentsObserver"*)* @_ZN7content19WebContentsObserver14DidStopLoadingEv to i8*), i8* bitcast (void (%"class.content::WebContentsObserver"*, double)* @_ZN7content19WebContentsObserver19LoadProgressChangedEd to i8*), i8* bitcast (void (%"class.content::WebContentsObserver"*, %"class.content::RenderFrameHost"*)* @_ZN7content19WebContentsObserver28DocumentAvailableInMainFrameEPNS_15RenderFrameHostE to i8*), i8* bitcast (void (%"class.content::WebContentsObserver"*, %"class.content::RenderFrameHost"*)* @_ZN7content19WebContentsObserver34DocumentOnLoadCompletedInMainFrameEPNS_15RenderFrameHostE to i8*), i8* bitcast (void (%"class.content::WebContentsObserver"*, %"class.content::RenderFrameHost"*)* @_ZN7content19WebContentsObserver16DOMContentLoadedEPNS_15RenderFrameHostE to i8*), i8* bitcast (void (%"class.content::WebContentsObserver"*, %"class.content::RenderFrameHost"*, %class.GURL*)* @_ZN7content19WebContentsObserver13DidFinishLoadEPNS_15RenderFrameHostERK4GURL to i8*), i8* bitcast (void (%"class.content::WebContentsObserver"*, %"class.content::RenderFrameHost"*, %class.GURL*, i32)* @_ZN7content19WebContentsObserver11DidFailLoadEPNS_15RenderFrameHostERK4GURLi to i8*), i8* bitcast (void (%"class.content::WebContentsObserver"*)* @_ZN7content19WebContentsObserver29DidChangeVisibleSecurityStateEv to i8*), i8* bitcast (void (%"class.content::WebContentsObserver"*, %"class.content::RenderFrameHost"*, %class.GURL*, %"class.std::__1::basic_string"*, i32)* @_ZN7content19WebContentsObserver30DidLoadResourceFromMemoryCacheEPNS_15RenderFrameHostERK4GURLRKNSt3__112basic_stringIcNS6_11char_traitsIcEENS6_9allocatorIcEEEEN7network5mojom18RequestDestinationE to i8*), i8* bitcast (void (%"class.content::WebContentsObserver"*, %"class.content::RenderFrameHost"*, %"struct.content::GlobalRequestID"*, %"class.blink::mojom::ResourceLoadInfo"*)* @_ZN7content19WebContentsObserver20ResourceLoadCompleteEPNS_15RenderFrameHostERKNS_15GlobalRequestIDERKN5blink5mojom16ResourceLoadInfoE to i8*), i8* bitcast (void (%"class.content::WebContentsObserver"*, %"class.content::RenderFrameHost"*, %"struct.content::CookieAccessDetails"*)* @_ZN7content19WebContentsObserver17OnCookiesAccessedEPNS_15RenderFrameHostERKNS_19CookieAccessDetailsE to i8*), i8* bitcast (void (%"class.content::WebContentsObserver"*, %"class.content::NavigationHandle"*, %"struct.content::CookieAccessDetails"*)* @_ZN7content19WebContentsObserver17OnCookiesAccessedEPNS_16NavigationHandleERKNS_19CookieAccessDetailsE to i8*), i8* bitcast (void (%"class.content::WebContentsObserver"*, %"struct.content::LoadCommittedDetails"*)* @_ZN7content19WebContentsObserver24NavigationEntryCommittedERKNS_20LoadCommittedDetailsE to i8*), i8* bitcast (void (%"class.content::WebContentsObserver"*, %"struct.content::PrunedDetails"*)* @_ZN7content19WebContentsObserver20NavigationListPrunedERKNS_13PrunedDetailsE to i8*), i8* bitcast (void (%"class.content::WebContentsObserver"*)* @_ZN7content19WebContentsObserver24NavigationEntriesDeletedEv to i8*), i8* bitcast (void (%"class.content::WebContentsObserver"*, %"struct.content::EntryChangedDetails"*)* @_ZN7content19WebContentsObserver22NavigationEntryChangedERKNS_19EntryChangedDetailsE to i8*), i8* bitcast (void (%"class.content::WebContentsObserver"*, %"class.content::WebContents"*, %"class.content::RenderFrameHost"*, %class.GURL*, %"struct.content::Referrer"*, i32, i32, i1, i1)* @_ZN7content19WebContentsObserver19DidOpenRequestedURLEPNS_11WebContentsEPNS_15RenderFrameHostERK4GURLRKNS_8ReferrerE21WindowOpenDispositionN2ui14PageTransitionEbb to i8*), i8* bitcast (void (%"class.content::WebContentsObserver"*)* @_ZN7content19WebContentsObserver29DidFirstVisuallyNonEmptyPaintEv to i8*), i8* bitcast (void (%"class.content::WebContentsObserver"*)* @_ZN7content19WebContentsObserver17NavigationStoppedEv to i8*), i8* bitcast (void (%"class.content::WebContentsObserver"*, %"class.blink::WebInputEvent"*)* @_ZN7content19WebContentsObserver21DidGetUserInteractionERKN5blink13WebInputEventE to i8*), i8* bitcast (void (%"class.content::WebContentsObserver"*)* @_ZN7content19WebContentsObserver20DidGetIgnoredUIEventEv to i8*), i8* bitcast (void (%"class.content::WebContentsObserver"*, i32)* @_ZN7content19WebContentsObserver19OnVisibilityChangedENS_10VisibilityE to i8*), i8* bitcast (void (%"class.content::WebContentsObserver"*, i1)* @_ZN7content19WebContentsObserver19MainFrameWasResizedEb to i8*), i8* bitcast (void (%"class.content::WebContentsObserver"*, %"class.content::RenderFrameHost"*, %"class.std::__1::basic_string"*)* @_ZN7content19WebContentsObserver16FrameNameChangedEPNS_15RenderFrameHostERKNSt3__112basic_stringIcNS3_11char_traitsIcEENS3_9allocatorIcEEEE to i8*), i8* bitcast (void (%"class.content::WebContentsObserver"*, %"class.content::RenderFrameHost"*)* @_ZN7content19WebContentsObserver27FrameReceivedUserActivationEPNS_15RenderFrameHostE to i8*), i8* bitcast (void (%"class.content::WebContentsObserver"*, %"class.content::RenderFrameHost"*, i1)* @_ZN7content19WebContentsObserver24FrameDisplayStateChangedEPNS_15RenderFrameHostEb to i8*), i8* bitcast (void (%"class.content::WebContentsObserver"*, %"class.content::RenderFrameHost"*, %"class.gfx::Size"*)* @_ZN7content19WebContentsObserver16FrameSizeChangedEPNS_15RenderFrameHostERKN3gfx4SizeE to i8*), i8* bitcast (void (%"class.content::WebContentsObserver"*, %"class.content::NavigationEntry"*)* @_ZN7content19WebContentsObserver11TitleWasSetEPNS_15NavigationEntryE to i8*), i8* bitcast (void (%"class.content::WebContentsObserver"*, %class.GURL*, i1)* @_ZN7content19WebContentsObserver16AppCacheAccessedERK4GURLb to i8*), i8* bitcast (void (%"class.content::WebContentsObserver"*)* @_ZN7content19WebContentsObserver21PepperInstanceCreatedEv to i8*), i8* bitcast (void (%"class.content::WebContentsObserver"*)* @_ZN7content19WebContentsObserver21PepperInstanceDeletedEv to i8*), i8* bitcast (void (%"class.content::WebContentsObserver"*, i32)* @_ZN7content19WebContentsObserver18ViewportFitChangedEN5blink5mojom11ViewportFitE to i8*), i8* bitcast (void (%"class.content::WebContentsObserver"*, %"class.base::FilePath"*, i32)* @_ZN7content19WebContentsObserver13PluginCrashedERKN4base8FilePathEi to i8*), i8* bitcast (void (%"class.content::WebContentsObserver"*, i32, %"class.base::FilePath"*, i1)* @_ZN7content19WebContentsObserver23PluginHungStatusChangedEiRKN4base8FilePathEb to i8*), i8* bitcast (void (%"class.content::WebContentsObserver"*, %"class.content::WebContents"*)* @_ZN7content19WebContentsObserver23InnerWebContentsCreatedEPNS_11WebContentsE to i8*), i8* bitcast (void (%"class.content::WebContentsObserver"*, %"class.content::WebContents"*, %"class.content::RenderFrameHost"*, i1)* @_ZN7content19WebContentsObserver24InnerWebContentsAttachedEPNS_11WebContentsEPNS_15RenderFrameHostEb to i8*), i8* bitcast (void (%"class.content::WebContentsObserver"*, %"class.content::WebContents"*)* @_ZN7content19WebContentsObserver24InnerWebContentsDetachedEPNS_11WebContentsE to i8*), i8* bitcast (void (%"class.content::WebContentsObserver"*, %"class.content::WebContents"*, %"class.content::WebContents"*)* @_ZN7content19WebContentsObserver24DidCloneToNewWebContentsEPNS_11WebContentsES2_ to i8*), i8* bitcast (void (%"class.content::WebContentsObserver"*)* @_ZN7content19WebContentsObserver20WebContentsDestroyedEv to i8*), i8* bitcast (void (%"class.content::WebContentsObserver"*, %"struct.blink::UserAgentOverride"*)* @_ZN7content19WebContentsObserver20UserAgentOverrideSetERKN5blink17UserAgentOverrideE to i8*), i8* bitcast (void (%"class.content::WebContentsObserver"*, %"class.content::RenderFrameHost"*, %"class.std::__1::vector.314"*)* @_ZN7content19WebContentsObserver19DidUpdateFaviconURLEPNS_15RenderFrameHostERKNSt3__16vectorIN4mojo9StructPtrIN5blink5mojom10FaviconURLEEENS3_9allocatorISA_EEEE to i8*), i8* bitcast (void (%"class.content::WebContentsObserver"*, i1)* @_ZN7content19WebContentsObserver19OnAudioStateChangedEb to i8*), i8* bitcast (void (%"class.content::WebContentsObserver"*, %"class.content::RenderFrameHost"*, i1)* @_ZN7content19WebContentsObserver24OnFrameAudioStateChangedEPNS_15RenderFrameHostEb to i8*), i8* bitcast (void (%"class.content::WebContentsObserver"*, i1)* @_ZN7content19WebContentsObserver37OnIsConnectedToBluetoothDeviceChangedEb to i8*), i8* bitcast (void (%"class.content::WebContentsObserver"*, i1)* @_ZN7content19WebContentsObserver25DidUpdateAudioMutingStateEb to i8*), i8* bitcast (void (%"class.content::WebContentsObserver"*, i1, i1)* @_ZN7content19WebContentsObserver29DidToggleFullscreenModeForTabEbb to i8*), i8* bitcast (void (%"class.content::WebContentsObserver"*, %"class.content::RenderFrameHost"*)* @_ZN7content19WebContentsObserver20DidAcquireFullscreenEPNS_15RenderFrameHostE to i8*), i8* bitcast (void (%"class.content::WebContentsObserver"*, i32)* @_ZN7content19WebContentsObserver32DidChangeVerticalScrollDirectionEN3viz23VerticalScrollDirectionE to i8*), i8* bitcast (void (%"class.content::WebContentsObserver"*)* @_ZN7content19WebContentsObserver27BeforeFormRepostWarningShowEv to i8*), i8* bitcast (void (%"class.content::WebContentsObserver"*, i1, %"class.base::TimeTicks"*)* @_ZN7content19WebContentsObserver17BeforeUnloadFiredEbRKN4base9TimeTicksE to i8*), i8* bitcast (void (%"class.content::WebContentsObserver"*)* @_ZN7content19WebContentsObserver27BeforeUnloadDialogCancelledEv to i8*), i8* bitcast (void (%"class.content::WebContentsObserver"*)* @_ZN7content19WebContentsObserver30AXTreeIDForMainFrameHasChangedEv to i8*), i8* bitcast (void (%"class.content::WebContentsObserver"*, %"struct.content::AXEventNotificationDetails"*)* @_ZN7content19WebContentsObserver26AccessibilityEventReceivedERKNS_26AXEventNotificationDetailsE to i8*), i8* bitcast (void (%"class.content::WebContentsObserver"*, %"class.std::__1::vector.315"*)* @_ZN7content19WebContentsObserver36AccessibilityLocationChangesReceivedERKNSt3__16vectorINS_35AXLocationChangeNotificationDetailsENS1_9allocatorIS3_EEEE to i8*), i8* bitcast (void (%"class.content::WebContentsObserver"*)* @_ZN7content19WebContentsObserver19DidChangeThemeColorEv to i8*), i8* bitcast (void (%"class.content::WebContentsObserver"*)* @_ZN7content19WebContentsObserver24OnBackgroundColorChangedEv to i8*), i8* bitcast (void (%"class.content::WebContentsObserver"*, %"class.content::RenderFrameHost"*, i32, %"class.std::__1::basic_string.316"*, i32, %"class.std::__1::basic_string.316"*, %"class.absl::optional.325"*)* @_ZN7content19WebContentsObserver24OnDidAddMessageToConsoleEPNS_15RenderFrameHostEN5blink5mojom19ConsoleMessageLevelERKNSt3__112basic_stringIDsNS6_11char_traitsIDsEENS6_9allocatorIDsEEEEiSE_RKN4absl8optionalISC_EE to i8*), i8* bitcast (void (%"class.content::WebContentsObserver"*, %"struct.content::WebContentsObserver::MediaPlayerInfo"*, %"struct.content::MediaPlayerId"*)* @_ZN7content19WebContentsObserver19MediaStartedPlayingERKNS0_15MediaPlayerInfoERKNS_13MediaPlayerIdE to i8*), i8* bitcast (void (%"class.content::WebContentsObserver"*, %"struct.content::WebContentsObserver::MediaPlayerInfo"*, %"struct.content::MediaPlayerId"*, i32)* @_ZN7content19WebContentsObserver19MediaStoppedPlayingERKNS0_15MediaPlayerInfoERKNS_13MediaPlayerIdENS0_18MediaStoppedReasonE to i8*), i8* bitcast (void (%"class.content::WebContentsObserver"*, %"class.gfx::Size"*, %"struct.content::MediaPlayerId"*)* @_ZN7content19WebContentsObserver12MediaResizedERKN3gfx4SizeERKNS_13MediaPlayerIdE to i8*), i8* bitcast (void (%"class.content::WebContentsObserver"*, i1)* @_ZN7content19WebContentsObserver33MediaEffectivelyFullscreenChangedEb to i8*), i8* bitcast (void (%"class.content::WebContentsObserver"*, i1)* @_ZN7content19WebContentsObserver28MediaPictureInPictureChangedEb to i8*), i8* bitcast (void (%"class.content::WebContentsObserver"*, %"struct.content::MediaPlayerId"*, i1)* @_ZN7content19WebContentsObserver23MediaMutedStatusChangedERKNS_13MediaPlayerIdEb to i8*), i8* bitcast (void (%"class.content::WebContentsObserver"*, %"struct.content::MediaPlayerId"*)* @_ZN7content19WebContentsObserver20MediaBufferUnderflowERKNS_13MediaPlayerIdE to i8*), i8* bitcast (void (%"class.content::WebContentsObserver"*, %"struct.content::MediaPlayerId"*)* @_ZN7content19WebContentsObserver15MediaPlayerSeekERKNS_13MediaPlayerIdE to i8*), i8* bitcast (void (%"class.content::WebContentsObserver"*, %"struct.content::MediaPlayerId"*)* @_ZN7content19WebContentsObserver14MediaDestroyedERKNS_13MediaPlayerIdE to i8*), i8* bitcast (void (%"class.content::WebContentsObserver"*, float)* @_ZN7content19WebContentsObserver24OnPageScaleFactorChangedEf to i8*), i8* bitcast (void (%"class.content::WebContentsObserver"*)* @_ZN7content19WebContentsObserver7OnPasteEv to i8*), i8* bitcast (i1 (%"class.content::WebContentsObserver"*, %"class.IPC::Message"*, %"class.content::RenderFrameHost"*)* @_ZN7content19WebContentsObserver17OnMessageReceivedERKN3IPC7MessageEPNS_15RenderFrameHostE to i8*), i8* bitcast (void (%"class.content::WebContentsObserver"*, %"class.content::RenderWidgetHost"*)* @_ZN7content19WebContentsObserver20OnWebContentsFocusedEPNS_16RenderWidgetHostE to i8*), i8* bitcast (void (%"class.content::WebContentsObserver"*, %"class.content::RenderWidgetHost"*)* @_ZN7content19WebContentsObserver22OnWebContentsLostFocusEPNS_16RenderWidgetHostE to i8*), i8* bitcast (void (%"class.content::WebContentsObserver"*, %"struct.content::FocusedNodeDetails"*)* @_ZN7content19WebContentsObserver20OnFocusChangedInPageEPNS_18FocusedNodeDetailsE to i8*), i8* bitcast (void (%"class.content::WebContentsObserver"*, %"class.content::RenderFrameHost"*, %"class.absl::optional.326"*)* @_ZN7content19WebContentsObserver23DidUpdateWebManifestURLEPNS_15RenderFrameHostERKN4absl8optionalI4GURLEE to i8*), i8* bitcast (void (%"class.content::WebContentsObserver"*, %"class.content::RenderFrameHost"*, %"class.std::__1::basic_string"*, %"class.mojo::ScopedHandleBase"*)* @_ZN7content19WebContentsObserver27OnInterfaceRequestFromFrameEPNS_15RenderFrameHostERKNSt3__112basic_stringIcNS3_11char_traitsIcEENS3_9allocatorIcEEEEPN4mojo16ScopedHandleBaseINSC_17MessagePipeHandleEEE to i8*), i8* bitcast (void (%"class.content::WebContentsObserver"*, %"struct.std::__1::pair.331"*)* @_ZN7content19WebContentsObserver27AudioContextPlaybackStartedERKNSt3__14pairIPNS_15RenderFrameHostEiEE to i8*), i8* bitcast (void (%"class.content::WebContentsObserver"*, %"struct.std::__1::pair.331"*)* @_ZN7content19WebContentsObserver27AudioContextPlaybackStoppedERKNSt3__14pairIPNS_15RenderFrameHostEiEE to i8*), i8* bitcast (void (%"class.content::WebContentsObserver"*, %"class.content::RenderFrameHost"*, %class.GURL*, i24)* @_ZN7content19WebContentsObserver23OnServiceWorkerAccessedEPNS_15RenderFrameHostERK4GURLNS_24AllowServiceWorkerResultE to i8*), i8* bitcast (void (%"class.content::WebContentsObserver"*, %"class.content::NavigationHandle"*, %class.GURL*, i24)* @_ZN7content19WebContentsObserver23OnServiceWorkerAccessedEPNS_16NavigationHandleERK4GURLNS_24AllowServiceWorkerResultE to i8*)], [6 x i8*] [i8* inttoptr (i64 -160 to i8*), i8* null, i8* bitcast (void (%class.ManagedConfigurationServiceImpl*)* @_ZThn160_N31ManagedConfigurationServiceImplD1Ev to i8*), i8* bitcast (void (%class.ManagedConfigurationServiceImpl*)* @_ZThn160_N31ManagedConfigurationServiceImplD0Ev to i8*), i8* bitcast (void (%class.ManagedConfigurationServiceImpl*)* @_ZThn160_N31ManagedConfigurationServiceImpl29OnManagedConfigurationChangedEv to i8*), i8* bitcast (%"class.url::Origin"* (%class.ManagedConfigurationServiceImpl*)* @_ZThn160_N31ManagedConfigurationServiceImpl9GetOriginEv to i8*)] }, align 8
@_ZTVN7content16FrameServiceBaseIN5blink5mojom27ManagedConfigurationServiceEEE = linkonce_odr hidden unnamed_addr constant { [8 x i8*], [109 x i8*] } { [8 x i8*] [i8* null, i8* null, i8* bitcast (void (%"class.content::FrameServiceBase"*)* @_ZN7content16FrameServiceBaseIN5blink5mojom27ManagedConfigurationServiceEED2Ev to i8*), i8* bitcast (void (%"class.content::FrameServiceBase"*)* @_ZN7content16FrameServiceBaseIN5blink5mojom27ManagedConfigurationServiceEED0Ev to i8*), i8* bitcast (void ()* @__cxa_pure_virtual to i8*), i8* bitcast (void ()* @__cxa_pure_virtual to i8*), i8* bitcast (void (%"class.content::FrameServiceBase"*, %"class.content::RenderFrameHost"*)* @_ZN7content16FrameServiceBaseIN5blink5mojom27ManagedConfigurationServiceEE18RenderFrameDeletedEPNS_15RenderFrameHostE to i8*), i8* bitcast (void (%"class.content::FrameServiceBase"*, %"class.content::NavigationHandle"*)* @_ZN7content16FrameServiceBaseIN5blink5mojom27ManagedConfigurationServiceEE19DidFinishNavigationEPNS_16NavigationHandleE to i8*)], [109 x i8*] [i8* inttoptr (i64 -8 to i8*), i8* null, i8* bitcast (i1 (%"class.content::WebContentsObserver"*, %"class.IPC::Message"*)* @_ZN7content19WebContentsObserver17OnMessageReceivedERKN3IPC7MessageE to i8*), i8* bitcast (void (%"class.IPC::Listener"*, i32)* @_ZN3IPC8Listener18OnChannelConnectedEi to i8*), i8* bitcast (void (%"class.IPC::Listener"*)* @_ZN3IPC8Listener14OnChannelErrorEv to i8*), i8* bitcast (void (%"class.IPC::Listener"*, %"class.IPC::Message"*)* @_ZN3IPC8Listener20OnBadMessageReceivedERKNS_7MessageE to i8*), i8* bitcast (void (%"class.IPC::Listener"*, %"class.std::__1::basic_string"*, %"class.mojo::ScopedInterfaceEndpointHandle"*)* @_ZN3IPC8Listener28OnAssociatedInterfaceRequestERKNSt3__112basic_stringIcNS1_11char_traitsIcEENS1_9allocatorIcEEEEN4mojo29ScopedInterfaceEndpointHandleE to i8*), i8* bitcast (void (%"class.IPC::Listener"*)* @_ZN3IPC8Listener15OnChannelDeniedEv to i8*), i8* bitcast (void (%"class.IPC::Listener"*)* @_ZN3IPC8Listener20OnChannelListenErrorEv to i8*), i8* bitcast (void (%"class.content::FrameServiceBase"*)* @_ZThn8_N7content16FrameServiceBaseIN5blink5mojom27ManagedConfigurationServiceEED1Ev to i8*), i8* bitcast (void (%"class.content::FrameServiceBase"*)* @_ZThn8_N7content16FrameServiceBaseIN5blink5mojom27ManagedConfigurationServiceEED0Ev to i8*), i8* bitcast (void (%"class.content::WebContentsObserver"*, %"class.content::RenderFrameHost"*)* @_ZN7content19WebContentsObserver18RenderFrameCreatedEPNS_15RenderFrameHostE to i8*), i8* bitcast (void (%"class.content::FrameServiceBase"*, %"class.content::RenderFrameHost"*)* @_ZThn8_N7content16FrameServiceBaseIN5blink5mojom27ManagedConfigurationServiceEE18RenderFrameDeletedEPNS_15RenderFrameHostE to i8*), i8* bitcast (void (%"class.content::WebContentsObserver"*, %"class.content::RenderFrameHost"*, %"class.content::RenderFrameHost"*)* @_ZN7content19WebContentsObserver22RenderFrameHostChangedEPNS_15RenderFrameHostES2_ to i8*), i8* bitcast (void (%"class.content::WebContentsObserver"*, i32)* @_ZN7content19WebContentsObserver12FrameDeletedEi to i8*), i8* bitcast (void (%"class.content::WebContentsObserver"*, %"class.content::RenderFrameHost"*, i32, i32)* @_ZN7content19WebContentsObserver27RenderFrameHostStateChangedEPNS_15RenderFrameHostENS1_14LifecycleStateES3_ to i8*), i8* bitcast (void (%"class.content::WebContentsObserver"*)* @_ZN7content19WebContentsObserver20CaptureTargetChangedEv to i8*), i8* bitcast (void (%"class.content::WebContentsObserver"*, %"class.blink::mojom::CaptureHandleConfig"*)* @_ZN7content19WebContentsObserver27OnCaptureHandleConfigUpdateERKN5blink5mojom19CaptureHandleConfigE to i8*), i8* bitcast (void (%"class.content::WebContentsObserver"*)* @_ZN7content19WebContentsObserver15RenderViewReadyEv to i8*), i8* bitcast (void (%"class.content::WebContentsObserver"*, %"class.content::RenderViewHost"*)* @_ZN7content19WebContentsObserver17RenderViewDeletedEPNS_14RenderViewHostE to i8*), i8* bitcast (void (%"class.content::WebContentsObserver"*, i32)* @_ZN7content19WebContentsObserver17RenderProcessGoneEN4base17TerminationStatusE to i8*), i8* bitcast (void (%"class.content::WebContentsObserver"*, %"class.content::RenderViewHost"*, %"class.content::RenderViewHost"*)* @_ZN7content19WebContentsObserver21RenderViewHostChangedEPNS_14RenderViewHostES2_ to i8*), i8* bitcast (void (%"class.content::WebContentsObserver"*, %"class.content::RenderProcessHost"*)* @_ZN7content19WebContentsObserver22OnRendererUnresponsiveEPNS_17RenderProcessHostE to i8*), i8* bitcast (void (%"class.content::WebContentsObserver"*, %"class.content::RenderProcessHost"*)* @_ZN7content19WebContentsObserver20OnRendererResponsiveEPNS_17RenderProcessHostE to i8*), i8* bitcast (void (%"class.content::WebContentsObserver"*, %"class.content::NavigationHandle"*)* @_ZN7content19WebContentsObserver18DidStartNavigationEPNS_16NavigationHandleE to i8*), i8* bitcast (void (%"class.content::WebContentsObserver"*, %"class.content::NavigationHandle"*)* @_ZN7content19WebContentsObserver21DidRedirectNavigationEPNS_16NavigationHandleE to i8*), i8* bitcast (void (%"class.content::WebContentsObserver"*, %"class.content::NavigationHandle"*)* @_ZN7content19WebContentsObserver23ReadyToCommitNavigationEPNS_16NavigationHandleE to i8*), i8* bitcast (void (%"class.content::FrameServiceBase"*, %"class.content::NavigationHandle"*)* @_ZThn8_N7content16FrameServiceBaseIN5blink5mojom27ManagedConfigurationServiceEE19DidFinishNavigationEPNS_16NavigationHandleE to i8*), i8* bitcast (void (%"class.content::WebContentsObserver"*, %"class.content::WebContents"*, i64)* @_ZN7content19WebContentsObserver17DidActivatePortalEPNS_11WebContentsEN4base9TimeTicksE to i8*), i8* bitcast (void (%"class.content::WebContentsObserver"*)* @_ZN7content19WebContentsObserver15DidStartLoadingEv to i8*), i8* bitcast (void (%"class.content::WebContentsObserver"*)* @_ZN7content19WebContentsObserver18DidReceiveResponseEv to i8*), i8* bitcast (void (%"class.content::WebContentsObserver"*)* @_ZN7content19WebContentsObserver14DidStopLoadingEv to i8*), i8* bitcast (void (%"class.content::WebContentsObserver"*, double)* @_ZN7content19WebContentsObserver19LoadProgressChangedEd to i8*), i8* bitcast (void (%"class.content::WebContentsObserver"*, %"class.content::RenderFrameHost"*)* @_ZN7content19WebContentsObserver28DocumentAvailableInMainFrameEPNS_15RenderFrameHostE to i8*), i8* bitcast (void (%"class.content::WebContentsObserver"*, %"class.content::RenderFrameHost"*)* @_ZN7content19WebContentsObserver34DocumentOnLoadCompletedInMainFrameEPNS_15RenderFrameHostE to i8*), i8* bitcast (void (%"class.content::WebContentsObserver"*, %"class.content::RenderFrameHost"*)* @_ZN7content19WebContentsObserver16DOMContentLoadedEPNS_15RenderFrameHostE to i8*), i8* bitcast (void (%"class.content::WebContentsObserver"*, %"class.content::RenderFrameHost"*, %class.GURL*)* @_ZN7content19WebContentsObserver13DidFinishLoadEPNS_15RenderFrameHostERK4GURL to i8*), i8* bitcast (void (%"class.content::WebContentsObserver"*, %"class.content::RenderFrameHost"*, %class.GURL*, i32)* @_ZN7content19WebContentsObserver11DidFailLoadEPNS_15RenderFrameHostERK4GURLi to i8*), i8* bitcast (void (%"class.content::WebContentsObserver"*)* @_ZN7content19WebContentsObserver29DidChangeVisibleSecurityStateEv to i8*), i8* bitcast (void (%"class.content::WebContentsObserver"*, %"class.content::RenderFrameHost"*, %class.GURL*, %"class.std::__1::basic_string"*, i32)* @_ZN7content19WebContentsObserver30DidLoadResourceFromMemoryCacheEPNS_15RenderFrameHostERK4GURLRKNSt3__112basic_stringIcNS6_11char_traitsIcEENS6_9allocatorIcEEEEN7network5mojom18RequestDestinationE to i8*), i8* bitcast (void (%"class.content::WebContentsObserver"*, %"class.content::RenderFrameHost"*, %"struct.content::GlobalRequestID"*, %"class.blink::mojom::ResourceLoadInfo"*)* @_ZN7content19WebContentsObserver20ResourceLoadCompleteEPNS_15RenderFrameHostERKNS_15GlobalRequestIDERKN5blink5mojom16ResourceLoadInfoE to i8*), i8* bitcast (void (%"class.content::WebContentsObserver"*, %"class.content::RenderFrameHost"*, %"struct.content::CookieAccessDetails"*)* @_ZN7content19WebContentsObserver17OnCookiesAccessedEPNS_15RenderFrameHostERKNS_19CookieAccessDetailsE to i8*), i8* bitcast (void (%"class.content::WebContentsObserver"*, %"class.content::NavigationHandle"*, %"struct.content::CookieAccessDetails"*)* @_ZN7content19WebContentsObserver17OnCookiesAccessedEPNS_16NavigationHandleERKNS_19CookieAccessDetailsE to i8*), i8* bitcast (void (%"class.content::WebContentsObserver"*, %"struct.content::LoadCommittedDetails"*)* @_ZN7content19WebContentsObserver24NavigationEntryCommittedERKNS_20LoadCommittedDetailsE to i8*), i8* bitcast (void (%"class.content::WebContentsObserver"*, %"struct.content::PrunedDetails"*)* @_ZN7content19WebContentsObserver20NavigationListPrunedERKNS_13PrunedDetailsE to i8*), i8* bitcast (void (%"class.content::WebContentsObserver"*)* @_ZN7content19WebContentsObserver24NavigationEntriesDeletedEv to i8*), i8* bitcast (void (%"class.content::WebContentsObserver"*, %"struct.content::EntryChangedDetails"*)* @_ZN7content19WebContentsObserver22NavigationEntryChangedERKNS_19EntryChangedDetailsE to i8*), i8* bitcast (void (%"class.content::WebContentsObserver"*, %"class.content::WebContents"*, %"class.content::RenderFrameHost"*, %class.GURL*, %"struct.content::Referrer"*, i32, i32, i1, i1)* @_ZN7content19WebContentsObserver19DidOpenRequestedURLEPNS_11WebContentsEPNS_15RenderFrameHostERK4GURLRKNS_8ReferrerE21WindowOpenDispositionN2ui14PageTransitionEbb to i8*), i8* bitcast (void (%"class.content::WebContentsObserver"*)* @_ZN7content19WebContentsObserver29DidFirstVisuallyNonEmptyPaintEv to i8*), i8* bitcast (void (%"class.content::WebContentsObserver"*)* @_ZN7content19WebContentsObserver17NavigationStoppedEv to i8*), i8* bitcast (void (%"class.content::WebContentsObserver"*, %"class.blink::WebInputEvent"*)* @_ZN7content19WebContentsObserver21DidGetUserInteractionERKN5blink13WebInputEventE to i8*), i8* bitcast (void (%"class.content::WebContentsObserver"*)* @_ZN7content19WebContentsObserver20DidGetIgnoredUIEventEv to i8*), i8* bitcast (void (%"class.content::WebContentsObserver"*, i32)* @_ZN7content19WebContentsObserver19OnVisibilityChangedENS_10VisibilityE to i8*), i8* bitcast (void (%"class.content::WebContentsObserver"*, i1)* @_ZN7content19WebContentsObserver19MainFrameWasResizedEb to i8*), i8* bitcast (void (%"class.content::WebContentsObserver"*, %"class.content::RenderFrameHost"*, %"class.std::__1::basic_string"*)* @_ZN7content19WebContentsObserver16FrameNameChangedEPNS_15RenderFrameHostERKNSt3__112basic_stringIcNS3_11char_traitsIcEENS3_9allocatorIcEEEE to i8*), i8* bitcast (void (%"class.content::WebContentsObserver"*, %"class.content::RenderFrameHost"*)* @_ZN7content19WebContentsObserver27FrameReceivedUserActivationEPNS_15RenderFrameHostE to i8*), i8* bitcast (void (%"class.content::WebContentsObserver"*, %"class.content::RenderFrameHost"*, i1)* @_ZN7content19WebContentsObserver24FrameDisplayStateChangedEPNS_15RenderFrameHostEb to i8*), i8* bitcast (void (%"class.content::WebContentsObserver"*, %"class.content::RenderFrameHost"*, %"class.gfx::Size"*)* @_ZN7content19WebContentsObserver16FrameSizeChangedEPNS_15RenderFrameHostERKN3gfx4SizeE to i8*), i8* bitcast (void (%"class.content::WebContentsObserver"*, %"class.content::NavigationEntry"*)* @_ZN7content19WebContentsObserver11TitleWasSetEPNS_15NavigationEntryE to i8*), i8* bitcast (void (%"class.content::WebContentsObserver"*, %class.GURL*, i1)* @_ZN7content19WebContentsObserver16AppCacheAccessedERK4GURLb to i8*), i8* bitcast (void (%"class.content::WebContentsObserver"*)* @_ZN7content19WebContentsObserver21PepperInstanceCreatedEv to i8*), i8* bitcast (void (%"class.content::WebContentsObserver"*)* @_ZN7content19WebContentsObserver21PepperInstanceDeletedEv to i8*), i8* bitcast (void (%"class.content::WebContentsObserver"*, i32)* @_ZN7content19WebContentsObserver18ViewportFitChangedEN5blink5mojom11ViewportFitE to i8*), i8* bitcast (void (%"class.content::WebContentsObserver"*, %"class.base::FilePath"*, i32)* @_ZN7content19WebContentsObserver13PluginCrashedERKN4base8FilePathEi to i8*), i8* bitcast (void (%"class.content::WebContentsObserver"*, i32, %"class.base::FilePath"*, i1)* @_ZN7content19WebContentsObserver23PluginHungStatusChangedEiRKN4base8FilePathEb to i8*), i8* bitcast (void (%"class.content::WebContentsObserver"*, %"class.content::WebContents"*)* @_ZN7content19WebContentsObserver23InnerWebContentsCreatedEPNS_11WebContentsE to i8*), i8* bitcast (void (%"class.content::WebContentsObserver"*, %"class.content::WebContents"*, %"class.content::RenderFrameHost"*, i1)* @_ZN7content19WebContentsObserver24InnerWebContentsAttachedEPNS_11WebContentsEPNS_15RenderFrameHostEb to i8*), i8* bitcast (void (%"class.content::WebContentsObserver"*, %"class.content::WebContents"*)* @_ZN7content19WebContentsObserver24InnerWebContentsDetachedEPNS_11WebContentsE to i8*), i8* bitcast (void (%"class.content::WebContentsObserver"*, %"class.content::WebContents"*, %"class.content::WebContents"*)* @_ZN7content19WebContentsObserver24DidCloneToNewWebContentsEPNS_11WebContentsES2_ to i8*), i8* bitcast (void (%"class.content::WebContentsObserver"*)* @_ZN7content19WebContentsObserver20WebContentsDestroyedEv to i8*), i8* bitcast (void (%"class.content::WebContentsObserver"*, %"struct.blink::UserAgentOverride"*)* @_ZN7content19WebContentsObserver20UserAgentOverrideSetERKN5blink17UserAgentOverrideE to i8*), i8* bitcast (void (%"class.content::WebContentsObserver"*, %"class.content::RenderFrameHost"*, %"class.std::__1::vector.314"*)* @_ZN7content19WebContentsObserver19DidUpdateFaviconURLEPNS_15RenderFrameHostERKNSt3__16vectorIN4mojo9StructPtrIN5blink5mojom10FaviconURLEEENS3_9allocatorISA_EEEE to i8*), i8* bitcast (void (%"class.content::WebContentsObserver"*, i1)* @_ZN7content19WebContentsObserver19OnAudioStateChangedEb to i8*), i8* bitcast (void (%"class.content::WebContentsObserver"*, %"class.content::RenderFrameHost"*, i1)* @_ZN7content19WebContentsObserver24OnFrameAudioStateChangedEPNS_15RenderFrameHostEb to i8*), i8* bitcast (void (%"class.content::WebContentsObserver"*, i1)* @_ZN7content19WebContentsObserver37OnIsConnectedToBluetoothDeviceChangedEb to i8*), i8* bitcast (void (%"class.content::WebContentsObserver"*, i1)* @_ZN7content19WebContentsObserver25DidUpdateAudioMutingStateEb to i8*), i8* bitcast (void (%"class.content::WebContentsObserver"*, i1, i1)* @_ZN7content19WebContentsObserver29DidToggleFullscreenModeForTabEbb to i8*), i8* bitcast (void (%"class.content::WebContentsObserver"*, %"class.content::RenderFrameHost"*)* @_ZN7content19WebContentsObserver20DidAcquireFullscreenEPNS_15RenderFrameHostE to i8*), i8* bitcast (void (%"class.content::WebContentsObserver"*, i32)* @_ZN7content19WebContentsObserver32DidChangeVerticalScrollDirectionEN3viz23VerticalScrollDirectionE to i8*), i8* bitcast (void (%"class.content::WebContentsObserver"*)* @_ZN7content19WebContentsObserver27BeforeFormRepostWarningShowEv to i8*), i8* bitcast (void (%"class.content::WebContentsObserver"*, i1, %"class.base::TimeTicks"*)* @_ZN7content19WebContentsObserver17BeforeUnloadFiredEbRKN4base9TimeTicksE to i8*), i8* bitcast (void (%"class.content::WebContentsObserver"*)* @_ZN7content19WebContentsObserver27BeforeUnloadDialogCancelledEv to i8*), i8* bitcast (void (%"class.content::WebContentsObserver"*)* @_ZN7content19WebContentsObserver30AXTreeIDForMainFrameHasChangedEv to i8*), i8* bitcast (void (%"class.content::WebContentsObserver"*, %"struct.content::AXEventNotificationDetails"*)* @_ZN7content19WebContentsObserver26AccessibilityEventReceivedERKNS_26AXEventNotificationDetailsE to i8*), i8* bitcast (void (%"class.content::WebContentsObserver"*, %"class.std::__1::vector.315"*)* @_ZN7content19WebContentsObserver36AccessibilityLocationChangesReceivedERKNSt3__16vectorINS_35AXLocationChangeNotificationDetailsENS1_9allocatorIS3_EEEE to i8*), i8* bitcast (void (%"class.content::WebContentsObserver"*)* @_ZN7content19WebContentsObserver19DidChangeThemeColorEv to i8*), i8* bitcast (void (%"class.content::WebContentsObserver"*)* @_ZN7content19WebContentsObserver24OnBackgroundColorChangedEv to i8*), i8* bitcast (void (%"class.content::WebContentsObserver"*, %"class.content::RenderFrameHost"*, i32, %"class.std::__1::basic_string.316"*, i32, %"class.std::__1::basic_string.316"*, %"class.absl::optional.325"*)* @_ZN7content19WebContentsObserver24OnDidAddMessageToConsoleEPNS_15RenderFrameHostEN5blink5mojom19ConsoleMessageLevelERKNSt3__112basic_stringIDsNS6_11char_traitsIDsEENS6_9allocatorIDsEEEEiSE_RKN4absl8optionalISC_EE to i8*), i8* bitcast (void (%"class.content::WebContentsObserver"*, %"struct.content::WebContentsObserver::MediaPlayerInfo"*, %"struct.content::MediaPlayerId"*)* @_ZN7content19WebContentsObserver19MediaStartedPlayingERKNS0_15MediaPlayerInfoERKNS_13MediaPlayerIdE to i8*), i8* bitcast (void (%"class.content::WebContentsObserver"*, %"struct.content::WebContentsObserver::MediaPlayerInfo"*, %"struct.content::MediaPlayerId"*, i32)* @_ZN7content19WebContentsObserver19MediaStoppedPlayingERKNS0_15MediaPlayerInfoERKNS_13MediaPlayerIdENS0_18MediaStoppedReasonE to i8*), i8* bitcast (void (%"class.content::WebContentsObserver"*, %"class.gfx::Size"*, %"struct.content::MediaPlayerId"*)* @_ZN7content19WebContentsObserver12MediaResizedERKN3gfx4SizeERKNS_13MediaPlayerIdE to i8*), i8* bitcast (void (%"class.content::WebContentsObserver"*, i1)* @_ZN7content19WebContentsObserver33MediaEffectivelyFullscreenChangedEb to i8*), i8* bitcast (void (%"class.content::WebContentsObserver"*, i1)* @_ZN7content19WebContentsObserver28MediaPictureInPictureChangedEb to i8*), i8* bitcast (void (%"class.content::WebContentsObserver"*, %"struct.content::MediaPlayerId"*, i1)* @_ZN7content19WebContentsObserver23MediaMutedStatusChangedERKNS_13MediaPlayerIdEb to i8*), i8* bitcast (void (%"class.content::WebContentsObserver"*, %"struct.content::MediaPlayerId"*)* @_ZN7content19WebContentsObserver20MediaBufferUnderflowERKNS_13MediaPlayerIdE to i8*), i8* bitcast (void (%"class.content::WebContentsObserver"*, %"struct.content::MediaPlayerId"*)* @_ZN7content19WebContentsObserver15MediaPlayerSeekERKNS_13MediaPlayerIdE to i8*), i8* bitcast (void (%"class.content::WebContentsObserver"*, %"struct.content::MediaPlayerId"*)* @_ZN7content19WebContentsObserver14MediaDestroyedERKNS_13MediaPlayerIdE to i8*), i8* bitcast (void (%"class.content::WebContentsObserver"*, float)* @_ZN7content19WebContentsObserver24OnPageScaleFactorChangedEf to i8*), i8* bitcast (void (%"class.content::WebContentsObserver"*)* @_ZN7content19WebContentsObserver7OnPasteEv to i8*), i8* bitcast (i1 (%"class.content::WebContentsObserver"*, %"class.IPC::Message"*, %"class.content::RenderFrameHost"*)* @_ZN7content19WebContentsObserver17OnMessageReceivedERKN3IPC7MessageEPNS_15RenderFrameHostE to i8*), i8* bitcast (void (%"class.content::WebContentsObserver"*, %"class.content::RenderWidgetHost"*)* @_ZN7content19WebContentsObserver20OnWebContentsFocusedEPNS_16RenderWidgetHostE to i8*), i8* bitcast (void (%"class.content::WebContentsObserver"*, %"class.content::RenderWidgetHost"*)* @_ZN7content19WebContentsObserver22OnWebContentsLostFocusEPNS_16RenderWidgetHostE to i8*), i8* bitcast (void (%"class.content::WebContentsObserver"*, %"struct.content::FocusedNodeDetails"*)* @_ZN7content19WebContentsObserver20OnFocusChangedInPageEPNS_18FocusedNodeDetailsE to i8*), i8* bitcast (void (%"class.content::WebContentsObserver"*, %"class.content::RenderFrameHost"*, %"class.absl::optional.326"*)* @_ZN7content19WebContentsObserver23DidUpdateWebManifestURLEPNS_15RenderFrameHostERKN4absl8optionalI4GURLEE to i8*), i8* bitcast (void (%"class.content::WebContentsObserver"*, %"class.content::RenderFrameHost"*, %"class.std::__1::basic_string"*, %"class.mojo::ScopedHandleBase"*)* @_ZN7content19WebContentsObserver27OnInterfaceRequestFromFrameEPNS_15RenderFrameHostERKNSt3__112basic_stringIcNS3_11char_traitsIcEENS3_9allocatorIcEEEEPN4mojo16ScopedHandleBaseINSC_17MessagePipeHandleEEE to i8*), i8* bitcast (void (%"class.content::WebContentsObserver"*, %"struct.std::__1::pair.331"*)* @_ZN7content19WebContentsObserver27AudioContextPlaybackStartedERKNSt3__14pairIPNS_15RenderFrameHostEiEE to i8*), i8* bitcast (void (%"class.content::WebContentsObserver"*, %"struct.std::__1::pair.331"*)* @_ZN7content19WebContentsObserver27AudioContextPlaybackStoppedERKNSt3__14pairIPNS_15RenderFrameHostEiEE to i8*), i8* bitcast (void (%"class.content::WebContentsObserver"*, %"class.content::RenderFrameHost"*, %class.GURL*, i24)* @_ZN7content19WebContentsObserver23OnServiceWorkerAccessedEPNS_15RenderFrameHostERK4GURLNS_24AllowServiceWorkerResultE to i8*), i8* bitcast (void (%"class.content::WebContentsObserver"*, %"class.content::NavigationHandle"*, %class.GURL*, i24)* @_ZN7content19WebContentsObserver23OnServiceWorkerAccessedEPNS_16NavigationHandleERK4GURLNS_24AllowServiceWorkerResultE to i8*)] }, comdat, align 8
@_ZTVN5blink5mojom27ManagedConfigurationServiceE = linkonce_odr hidden unnamed_addr constant { [6 x i8*] } { [6 x i8*] [i8* null, i8* null, i8* bitcast (void (%"class.blink::mojom::ManagedConfigurationService"*)* @_ZN5blink5mojom27ManagedConfigurationServiceD2Ev to i8*), i8* bitcast (void (%"class.blink::mojom::ManagedConfigurationService"*)* @_ZN5blink5mojom27ManagedConfigurationServiceD0Ev to i8*), i8* bitcast (void ()* @__cxa_pure_virtual to i8*), i8* bitcast (void ()* @__cxa_pure_virtual to i8*)] }, comdat, align 8
@_ZTVN5blink5mojom31ManagedConfigurationServiceStubIN4mojo19RawPtrImplRefTraitsINS0_27ManagedConfigurationServiceEEEEE = linkonce_odr hidden unnamed_addr constant { [7 x i8*] } { [7 x i8*] [i8* null, i8* null, i8* bitcast (void (%"class.mojo::MessageReceiver"*)* @_ZN4mojo15MessageReceiverD2Ev to i8*), i8* bitcast (void (%"class.blink::mojom::ManagedConfigurationServiceStub"*)* @_ZN5blink5mojom31ManagedConfigurationServiceStubIN4mojo19RawPtrImplRefTraitsINS0_27ManagedConfigurationServiceEEEED0Ev to i8*), i8* bitcast (i1 (%"class.mojo::MessageReceiver"*)* @_ZN4mojo15MessageReceiver25PrefersSerializedMessagesEv to i8*), i8* bitcast (i1 (%"class.blink::mojom::ManagedConfigurationServiceStub"*, %"class.mojo::Message"*)* @_ZN5blink5mojom31ManagedConfigurationServiceStubIN4mojo19RawPtrImplRefTraitsINS0_27ManagedConfigurationServiceEEEE6AcceptEPNS2_7MessageE to i8*), i8* bitcast (i1 (%"class.blink::mojom::ManagedConfigurationServiceStub"*, %"class.mojo::Message"*, %"class.mojo::MessageReceiverWithStatus"*)* @_ZN5blink5mojom31ManagedConfigurationServiceStubIN4mojo19RawPtrImplRefTraitsINS0_27ManagedConfigurationServiceEEEE19AcceptWithResponderEPNS2_7MessageENSt3__110unique_ptrINS2_25MessageReceiverWithStatusENS9_14default_deleteISB_EEEE to i8*)] }, comdat, align 8
@_ZN5blink5mojom27ManagedConfigurationService5Name_E = external constant [0 x i8], align 1
@_ZTVN5blink5mojom43ManagedConfigurationServiceRequestValidatorE = external unnamed_addr constant { [6 x i8*] }, align 8
@_ZSt7nothrow = external global %"struct.std::nothrow_t", align 1
@_ZN5blink5mojom28ManagedConfigurationObserver5Name_E = external constant [0 x i8], align 1

@_ZN31ManagedConfigurationServiceImplC1EPN7content15RenderFrameHostEN4mojo15PendingReceiverIN5blink5mojom27ManagedConfigurationServiceEEE = hidden unnamed_addr alias void (%class.ManagedConfigurationServiceImpl*, %"class.content::RenderFrameHost"*, %"class.mojo::PendingReceiver"*), void (%class.ManagedConfigurationServiceImpl*, %"class.content::RenderFrameHost"*, %"class.mojo::PendingReceiver"*)* @_ZN31ManagedConfigurationServiceImplC2EPN7content15RenderFrameHostEN4mojo15PendingReceiverIN5blink5mojom27ManagedConfigurationServiceEEE
@_ZN31ManagedConfigurationServiceImplD1Ev = hidden unnamed_addr alias void (%class.ManagedConfigurationServiceImpl*), void (%class.ManagedConfigurationServiceImpl*)* @_ZN31ManagedConfigurationServiceImplD2Ev

; Function Attrs: nounwind ssp uwtable
define hidden void @_ZN31ManagedConfigurationServiceImpl6CreateEPN7content15RenderFrameHostEN4mojo15PendingReceiverIN5blink5mojom27ManagedConfigurationServiceEEE(%"class.content::RenderFrameHost"*, %"class.mojo::PendingReceiver"*) local_unnamed_addr #0 align 2 {
  %3 = alloca %"class.mojo::PendingReceiver", align 8
  %4 = alloca %"class.std::__1::basic_string", align 8
  %5 = alloca %"class.mojo::PendingReceiver", align 8
  %6 = tail call zeroext i1 @_ZN4base11FeatureList9IsEnabledERKNS_7FeatureE(%"struct.base::Feature"* nonnull dereferenceable(16) @_ZN5blink8features21kManagedConfigurationE) #12
  br i1 %6, label %21, label %7

7:                                                ; preds = %2
  %8 = bitcast %"class.std::__1::basic_string"* %4 to i8*
  call void @llvm.lifetime.start.p0i8(i64 24, i8* nonnull %8) #12
  %9 = tail call i8* @_Znwm(i64 64) #13
  %10 = getelementptr inbounds %"class.std::__1::basic_string", %"class.std::__1::basic_string"* %4, i64 0, i32 0, i32 0, i32 0, i32 0, i32 0, i32 0
  store i8* %9, i8** %10, align 8
  %11 = getelementptr inbounds %"class.std::__1::basic_string", %"class.std::__1::basic_string"* %4, i64 0, i32 0, i32 0, i32 0, i32 0, i32 0, i32 1
  %12 = bitcast i64* %11 to <2 x i64>*
  store <2 x i64> <i64 62, i64 -9223372036854775744>, <2 x i64>* %12, align 8
  call void @llvm.memcpy.p0i8.p0i8.i64(i8* nonnull align 1 %9, i8* align 1 getelementptr inbounds ([63 x i8], [63 x i8]* @.str, i64 0, i64 0), i64 62, i1 false) #12
  %13 = getelementptr inbounds i8, i8* %9, i64 62
  store i8 0, i8* %13, align 1
  call void @_ZN4mojo16ReportBadMessageERKNSt3__112basic_stringIcNS0_11char_traitsIcEENS0_9allocatorIcEEEE(%"class.std::__1::basic_string"* nonnull dereferenceable(24) %4) #12
  %14 = bitcast %"class.std::__1::basic_string"* %4 to %"struct.std::__1::basic_string<char, std::__1::char_traits<char>, std::__1::allocator<char> >::__short"*
  %15 = getelementptr inbounds %"struct.std::__1::basic_string<char, std::__1::char_traits<char>, std::__1::allocator<char> >::__short", %"struct.std::__1::basic_string<char, std::__1::char_traits<char>, std::__1::allocator<char> >::__short"* %14, i64 0, i32 1, i32 0
  %16 = load i8, i8* %15, align 1
  %17 = icmp slt i8 %16, 0
  br i1 %17, label %18, label %20

18:                                               ; preds = %7
  %19 = load i8*, i8** %10, align 8
  call void @_ZdlPv(i8* %19) #13
  br label %20

20:                                               ; preds = %7, %18
  call void @llvm.lifetime.end.p0i8(i64 24, i8* nonnull %8) #12
  br label %47

21:                                               ; preds = %2
  %22 = tail call i8* @_Znwm(i64 240) #13
  %23 = getelementptr inbounds %"class.mojo::PendingReceiver", %"class.mojo::PendingReceiver"* %5, i64 0, i32 0
  %24 = getelementptr inbounds %"class.mojo::PendingReceiver", %"class.mojo::PendingReceiver"* %1, i64 0, i32 0
  call void @_ZN4mojo8internal20PendingReceiverStateC1EOS1_(%"struct.mojo::internal::PendingReceiverState"* nonnull %23, %"struct.mojo::internal::PendingReceiverState"* dereferenceable(24) %24) #12
  %25 = bitcast %"class.mojo::PendingReceiver"* %3 to i8*
  call void @llvm.lifetime.start.p0i8(i64 24, i8* nonnull %25)
  %26 = bitcast i8* %22 to %"class.content::FrameServiceBase"*
  %27 = getelementptr inbounds %"class.mojo::PendingReceiver", %"class.mojo::PendingReceiver"* %3, i64 0, i32 0
  call void @_ZN4mojo8internal20PendingReceiverStateC1EOS1_(%"struct.mojo::internal::PendingReceiverState"* nonnull %27, %"struct.mojo::internal::PendingReceiverState"* nonnull dereferenceable(24) %23) #12
  call void @_ZN7content16FrameServiceBaseIN5blink5mojom27ManagedConfigurationServiceEEC2EPNS_15RenderFrameHostEN4mojo15PendingReceiverIS3_EE(%"class.content::FrameServiceBase"* nonnull %26, %"class.content::RenderFrameHost"* %0, %"class.mojo::PendingReceiver"* nonnull %3) #12
  call void @_ZN4mojo8internal20PendingReceiverStateD1Ev(%"struct.mojo::internal::PendingReceiverState"* nonnull %27) #12
  %28 = getelementptr inbounds i8, i8* %22, i64 160
  %29 = bitcast i8* %28 to %"class.ManagedConfigurationAPI::Observer"*
  %30 = bitcast i8* %28 to %"class.base::CheckedObserver"*
  call void @_ZN4base15CheckedObserverC2Ev(%"class.base::CheckedObserver"* %30) #12
  %31 = bitcast i8* %28 to i32 (...)***
  %32 = bitcast i8* %22 to <2 x i32 (...)**>*
  store <2 x i32 (...)**> <i32 (...)** bitcast (i8** getelementptr inbounds ({ [10 x i8*], [109 x i8*], [6 x i8*] }, { [10 x i8*], [109 x i8*], [6 x i8*] }* @_ZTV31ManagedConfigurationServiceImpl, i64 0, inrange i32 0, i64 2) to i32 (...)**), i32 (...)** bitcast (i8** getelementptr inbounds ({ [10 x i8*], [109 x i8*], [6 x i8*] }, { [10 x i8*], [109 x i8*], [6 x i8*] }* @_ZTV31ManagedConfigurationServiceImpl, i64 0, inrange i32 1, i64 2) to i32 (...)**)>, <2 x i32 (...)**>* %32, align 8
  store i32 (...)** bitcast (i8** getelementptr inbounds ({ [10 x i8*], [109 x i8*], [6 x i8*] }, { [10 x i8*], [109 x i8*], [6 x i8*] }* @_ZTV31ManagedConfigurationServiceImpl, i64 0, inrange i32 2, i64 2) to i32 (...)**), i32 (...)*** %31, align 8
  %33 = getelementptr inbounds i8, i8* %22, i64 184
  %34 = bitcast i8* %33 to %"class.content::RenderFrameHost"**
  store %"class.content::RenderFrameHost"* %0, %"class.content::RenderFrameHost"** %34, align 8
  %35 = getelementptr inbounds i8, i8* %22, i64 192
  %36 = bitcast i8* %35 to %"class.mojo::internal::InterfacePtrStateBase"*
  call void @_ZN4mojo8internal21InterfacePtrStateBaseC2Ev(%"class.mojo::internal::InterfacePtrStateBase"* %36) #12
  %37 = getelementptr inbounds i8, i8* %22, i64 232
  %38 = bitcast i8* %37 to i64*
  store i64 0, i64* %38, align 8
  %39 = load %"class.content::RenderFrameHost"*, %"class.content::RenderFrameHost"** %34, align 8
  %40 = bitcast %"class.content::RenderFrameHost"* %39 to %"class.content::BrowserContext"* (%"class.content::RenderFrameHost"*)***
  %41 = load %"class.content::BrowserContext"* (%"class.content::RenderFrameHost"*)**, %"class.content::BrowserContext"* (%"class.content::RenderFrameHost"*)*** %40, align 8
  %42 = getelementptr inbounds %"class.content::BrowserContext"* (%"class.content::RenderFrameHost"*)*, %"class.content::BrowserContext"* (%"class.content::RenderFrameHost"*)** %41, i64 17
  %43 = load %"class.content::BrowserContext"* (%"class.content::RenderFrameHost"*)*, %"class.content::BrowserContext"* (%"class.content::RenderFrameHost"*)** %42, align 8
  %44 = call %"class.content::BrowserContext"* %43(%"class.content::RenderFrameHost"* %39) #12
  %45 = call %class.Profile* @_ZN7Profile18FromBrowserContextEPN7content14BrowserContextE(%"class.content::BrowserContext"* %44) #12
  %46 = call %class.ManagedConfigurationAPI* @_ZN30ManagedConfigurationAPIFactory13GetForProfileEP7Profile(%class.Profile* %45) #12
  call void @_ZN23ManagedConfigurationAPI11AddObserverEPNS_8ObserverE(%class.ManagedConfigurationAPI* %46, %"class.ManagedConfigurationAPI::Observer"* %29) #12
  call void @llvm.lifetime.end.p0i8(i64 24, i8* nonnull %25)
  call void @_ZN4mojo8internal20PendingReceiverStateD1Ev(%"struct.mojo::internal::PendingReceiverState"* nonnull %23) #12
  br label %47

47:                                               ; preds = %21, %20
  ret void
}

declare zeroext i1 @_ZN4base11FeatureList9IsEnabledERKNS_7FeatureE(%"struct.base::Feature"* dereferenceable(16)) local_unnamed_addr #1

declare void @_ZN4mojo16ReportBadMessageERKNSt3__112basic_stringIcNS0_11char_traitsIcEENS0_9allocatorIcEEEE(%"class.std::__1::basic_string"* dereferenceable(24)) local_unnamed_addr #1

; Function Attrs: argmemonly nounwind
declare void @llvm.lifetime.start.p0i8(i64 immarg, i8* nocapture) #2

; Function Attrs: argmemonly nounwind
declare void @llvm.lifetime.end.p0i8(i64 immarg, i8* nocapture) #2

; Function Attrs: nobuiltin nofree
declare noalias nonnull i8* @_Znwm(i64) local_unnamed_addr #3

; Function Attrs: nounwind ssp uwtable
define hidden void @_ZN31ManagedConfigurationServiceImplC2EPN7content15RenderFrameHostEN4mojo15PendingReceiverIN5blink5mojom27ManagedConfigurationServiceEEE(%class.ManagedConfigurationServiceImpl*, %"class.content::RenderFrameHost"*, %"class.mojo::PendingReceiver"*) unnamed_addr #0 align 2 {
  %4 = alloca %"class.mojo::PendingReceiver", align 8
  %5 = getelementptr inbounds %class.ManagedConfigurationServiceImpl, %class.ManagedConfigurationServiceImpl* %0, i64 0, i32 0
  %6 = getelementptr inbounds %"class.mojo::PendingReceiver", %"class.mojo::PendingReceiver"* %4, i64 0, i32 0
  %7 = getelementptr inbounds %"class.mojo::PendingReceiver", %"class.mojo::PendingReceiver"* %2, i64 0, i32 0
  call void @_ZN4mojo8internal20PendingReceiverStateC1EOS1_(%"struct.mojo::internal::PendingReceiverState"* nonnull %6, %"struct.mojo::internal::PendingReceiverState"* dereferenceable(24) %7) #12
  call void @_ZN7content16FrameServiceBaseIN5blink5mojom27ManagedConfigurationServiceEEC2EPNS_15RenderFrameHostEN4mojo15PendingReceiverIS3_EE(%"class.content::FrameServiceBase"* %5, %"class.content::RenderFrameHost"* %1, %"class.mojo::PendingReceiver"* nonnull %4)
  call void @_ZN4mojo8internal20PendingReceiverStateD1Ev(%"struct.mojo::internal::PendingReceiverState"* nonnull %6) #12
  %8 = getelementptr inbounds %class.ManagedConfigurationServiceImpl, %class.ManagedConfigurationServiceImpl* %0, i64 0, i32 1
  %9 = getelementptr inbounds %"class.ManagedConfigurationAPI::Observer", %"class.ManagedConfigurationAPI::Observer"* %8, i64 0, i32 0
  call void @_ZN4base15CheckedObserverC2Ev(%"class.base::CheckedObserver"* %9) #12
  %10 = getelementptr inbounds %"class.ManagedConfigurationAPI::Observer", %"class.ManagedConfigurationAPI::Observer"* %8, i64 0, i32 0, i32 0
  %11 = bitcast %class.ManagedConfigurationServiceImpl* %0 to <2 x i32 (...)**>*
  store <2 x i32 (...)**> <i32 (...)** bitcast (i8** getelementptr inbounds ({ [10 x i8*], [109 x i8*], [6 x i8*] }, { [10 x i8*], [109 x i8*], [6 x i8*] }* @_ZTV31ManagedConfigurationServiceImpl, i64 0, inrange i32 0, i64 2) to i32 (...)**), i32 (...)** bitcast (i8** getelementptr inbounds ({ [10 x i8*], [109 x i8*], [6 x i8*] }, { [10 x i8*], [109 x i8*], [6 x i8*] }* @_ZTV31ManagedConfigurationServiceImpl, i64 0, inrange i32 1, i64 2) to i32 (...)**)>, <2 x i32 (...)**>* %11, align 8
  store i32 (...)** bitcast (i8** getelementptr inbounds ({ [10 x i8*], [109 x i8*], [6 x i8*] }, { [10 x i8*], [109 x i8*], [6 x i8*] }* @_ZTV31ManagedConfigurationServiceImpl, i64 0, inrange i32 2, i64 2) to i32 (...)**), i32 (...)*** %10, align 8
  %12 = getelementptr inbounds %class.ManagedConfigurationServiceImpl, %class.ManagedConfigurationServiceImpl* %0, i64 0, i32 2
  store %"class.content::RenderFrameHost"* %1, %"class.content::RenderFrameHost"** %12, align 8
  %13 = getelementptr inbounds %class.ManagedConfigurationServiceImpl, %class.ManagedConfigurationServiceImpl* %0, i64 0, i32 3
  %14 = bitcast %"class.mojo::Remote"* %13 to %"class.mojo::internal::InterfacePtrStateBase"*
  call void @_ZN4mojo8internal21InterfacePtrStateBaseC2Ev(%"class.mojo::internal::InterfacePtrStateBase"* %14) #12
  %15 = getelementptr inbounds %class.ManagedConfigurationServiceImpl, %class.ManagedConfigurationServiceImpl* %0, i64 0, i32 3, i32 0, i32 1
  %16 = bitcast %"class.std::__1::unique_ptr.193"* %15 to i64*
  store i64 0, i64* %16, align 8
  %17 = load %"class.content::RenderFrameHost"*, %"class.content::RenderFrameHost"** %12, align 8
  %18 = bitcast %"class.content::RenderFrameHost"* %17 to %"class.content::BrowserContext"* (%"class.content::RenderFrameHost"*)***
  %19 = load %"class.content::BrowserContext"* (%"class.content::RenderFrameHost"*)**, %"class.content::BrowserContext"* (%"class.content::RenderFrameHost"*)*** %18, align 8
  %20 = getelementptr inbounds %"class.content::BrowserContext"* (%"class.content::RenderFrameHost"*)*, %"class.content::BrowserContext"* (%"class.content::RenderFrameHost"*)** %19, i64 17
  %21 = load %"class.content::BrowserContext"* (%"class.content::RenderFrameHost"*)*, %"class.content::BrowserContext"* (%"class.content::RenderFrameHost"*)** %20, align 8
  %22 = call %"class.content::BrowserContext"* %21(%"class.content::RenderFrameHost"* %17) #12
  %23 = call %class.Profile* @_ZN7Profile18FromBrowserContextEPN7content14BrowserContextE(%"class.content::BrowserContext"* %22) #12
  %24 = call %class.ManagedConfigurationAPI* @_ZN30ManagedConfigurationAPIFactory13GetForProfileEP7Profile(%class.Profile* %23) #12
  call void @_ZN23ManagedConfigurationAPI11AddObserverEPNS_8ObserverE(%class.ManagedConfigurationAPI* %24, %"class.ManagedConfigurationAPI::Observer"* %8) #12
  ret void
}

; Function Attrs: nounwind ssp uwtable
define linkonce_odr hidden void @_ZN7content16FrameServiceBaseIN5blink5mojom27ManagedConfigurationServiceEEC2EPNS_15RenderFrameHostEN4mojo15PendingReceiverIS3_EE(%"class.content::FrameServiceBase"*, %"class.content::RenderFrameHost"*, %"class.mojo::PendingReceiver"*) unnamed_addr #0 comdat align 2 {
  %4 = alloca %"class.mojo::PendingReceiver", align 8
  %5 = alloca %"class.mojo::PendingReceiver", align 8
  %6 = alloca %"class.base::OnceCallback", align 8
  %7 = alloca %"class.base::OnceCallback", align 8
  %8 = alloca %"class.mojo::PendingReceiver", align 8
  %9 = alloca %"class.base::OnceCallback", align 8
  %10 = getelementptr inbounds %"class.content::FrameServiceBase", %"class.content::FrameServiceBase"* %0, i64 0, i32 0, i32 0
  store i32 (...)** bitcast (i8** getelementptr inbounds ({ [6 x i8*] }, { [6 x i8*] }* @_ZTVN5blink5mojom27ManagedConfigurationServiceE, i64 0, inrange i32 0, i64 2) to i32 (...)**), i32 (...)*** %10, align 8
  %11 = getelementptr inbounds %"class.content::FrameServiceBase", %"class.content::FrameServiceBase"* %0, i64 0, i32 1
  %12 = tail call %"class.content::WebContents"* @_ZN7content11WebContents19FromRenderFrameHostEPNS_15RenderFrameHostE(%"class.content::RenderFrameHost"* %1) #12
  tail call void @_ZN7content19WebContentsObserverC2EPNS_11WebContentsE(%"class.content::WebContentsObserver"* %11, %"class.content::WebContents"* %12) #12
  %13 = bitcast %"class.content::FrameServiceBase"* %0 to <2 x i32 (...)**>*
  store <2 x i32 (...)**> <i32 (...)** bitcast (i8** getelementptr inbounds ({ [8 x i8*], [109 x i8*] }, { [8 x i8*], [109 x i8*] }* @_ZTVN7content16FrameServiceBaseIN5blink5mojom27ManagedConfigurationServiceEEE, i64 0, inrange i32 0, i64 2) to i32 (...)**), i32 (...)** bitcast (i8** getelementptr inbounds ({ [8 x i8*], [109 x i8*] }, { [8 x i8*], [109 x i8*] }* @_ZTVN7content16FrameServiceBaseIN5blink5mojom27ManagedConfigurationServiceEEE, i64 0, inrange i32 1, i64 2) to i32 (...)**)>, <2 x i32 (...)**>* %13, align 8
  %14 = getelementptr inbounds %"class.content::FrameServiceBase", %"class.content::FrameServiceBase"* %0, i64 0, i32 2
  store %"class.content::RenderFrameHost"* %1, %"class.content::RenderFrameHost"** %14, align 8
  %15 = getelementptr inbounds %"class.content::FrameServiceBase", %"class.content::FrameServiceBase"* %0, i64 0, i32 3
  %16 = bitcast %"class.content::RenderFrameHost"* %1 to %"class.url::Origin"* (%"class.content::RenderFrameHost"*)***
  %17 = load %"class.url::Origin"* (%"class.content::RenderFrameHost"*)**, %"class.url::Origin"* (%"class.content::RenderFrameHost"*)*** %16, align 8
  %18 = getelementptr inbounds %"class.url::Origin"* (%"class.content::RenderFrameHost"*)*, %"class.url::Origin"* (%"class.content::RenderFrameHost"*)** %17, i64 36
  %19 = load %"class.url::Origin"* (%"class.content::RenderFrameHost"*)*, %"class.url::Origin"* (%"class.content::RenderFrameHost"*)** %18, align 8
  %20 = tail call dereferenceable(80) %"class.url::Origin"* %19(%"class.content::RenderFrameHost"* %1) #12
  tail call void @_ZN3url6OriginC1ERKS0_(%"class.url::Origin"* %15, %"class.url::Origin"* dereferenceable(80) %20) #12
  %21 = getelementptr inbounds %"class.mojo::PendingReceiver", %"class.mojo::PendingReceiver"* %8, i64 0, i32 0
  %22 = getelementptr inbounds %"class.mojo::PendingReceiver", %"class.mojo::PendingReceiver"* %2, i64 0, i32 0
  call void @_ZN4mojo8internal20PendingReceiverStateC1EOS1_(%"struct.mojo::internal::PendingReceiverState"* nonnull %21, %"struct.mojo::internal::PendingReceiverState"* dereferenceable(24) %22) #12
  %23 = bitcast %"class.mojo::PendingReceiver"* %5 to i8*
  call void @llvm.lifetime.start.p0i8(i64 24, i8* nonnull %23)
  %24 = getelementptr inbounds %"class.mojo::PendingReceiver", %"class.mojo::PendingReceiver"* %5, i64 0, i32 0
  call void @_ZN4mojo8internal20PendingReceiverStateC1EOS1_(%"struct.mojo::internal::PendingReceiverState"* nonnull %24, %"struct.mojo::internal::PendingReceiverState"* nonnull dereferenceable(24) %21) #12
  %25 = bitcast %"class.mojo::PendingReceiver"* %4 to i8*
  call void @llvm.lifetime.start.p0i8(i64 24, i8* nonnull %25)
  %26 = getelementptr inbounds %"class.content::FrameServiceBase", %"class.content::FrameServiceBase"* %0, i64 0, i32 4, i32 0, i32 0
  call void @_ZN4mojo8internal16BindingStateBaseC2Ev(%"class.mojo::internal::BindingStateBase"* %26) #12
  %27 = getelementptr inbounds %"class.content::FrameServiceBase", %"class.content::FrameServiceBase"* %0, i64 0, i32 4, i32 0, i32 1, i32 0, i32 0, i32 0
  store i32 (...)** bitcast (i8** getelementptr inbounds ({ [7 x i8*] }, { [7 x i8*] }* @_ZTVN5blink5mojom31ManagedConfigurationServiceStubIN4mojo19RawPtrImplRefTraitsINS0_27ManagedConfigurationServiceEEEEE, i64 0, inrange i32 0, i64 2) to i32 (...)**), i32 (...)*** %27, align 8
  %28 = ptrtoint %"class.content::FrameServiceBase"* %0 to i64
  %29 = getelementptr inbounds %"class.content::FrameServiceBase", %"class.content::FrameServiceBase"* %0, i64 0, i32 4, i32 0, i32 1, i32 1
  %30 = bitcast %"class.blink::mojom::ManagedConfigurationService"** %29 to i64*
  store i64 %28, i64* %30, align 8
  %31 = getelementptr inbounds %"class.mojo::PendingReceiver", %"class.mojo::PendingReceiver"* %4, i64 0, i32 0
  call void @_ZN4mojo8internal20PendingReceiverStateC1EOS1_(%"struct.mojo::internal::PendingReceiverState"* nonnull %31, %"struct.mojo::internal::PendingReceiverState"* nonnull dereferenceable(24) %24) #12
  %32 = getelementptr inbounds %"class.mojo::PendingReceiver", %"class.mojo::PendingReceiver"* %4, i64 0, i32 0, i32 0, i32 0, i32 0, i32 0
  %33 = load i32, i32* %32, align 8
  %34 = icmp eq i32 %33, 0
  br i1 %34, label %40, label %35

35:                                               ; preds = %3
  %36 = call i8* @_Znwm(i64 8) #13
  %37 = bitcast i8* %36 to i32 (...)***
  store i32 (...)** bitcast (i8** getelementptr inbounds ({ [6 x i8*] }, { [6 x i8*] }* @_ZTVN5blink5mojom43ManagedConfigurationServiceRequestValidatorE, i64 0, inrange i32 0, i64 2) to i32 (...)**), i32 (...)*** %37, align 8
  %38 = getelementptr inbounds %"class.content::FrameServiceBase", %"class.content::FrameServiceBase"* %0, i64 0, i32 4, i32 0, i32 1, i32 0
  %39 = bitcast i8* %36 to %"class.mojo::MessageReceiver"*
  call void @_ZN4mojo8internal16BindingStateBase12BindInternalEPNS0_20PendingReceiverStateE13scoped_refptrIN4base19SequencedTaskRunnerEEPKcNSt3__110unique_ptrINS_15MessageReceiverENSA_14default_deleteISC_EEEEbbPNS_34MessageReceiverWithResponderStatusEj(%"class.mojo::internal::BindingStateBase"* %26, %"struct.mojo::internal::PendingReceiverState"* nonnull %31, %"class.base::SequencedTaskRunner"* null, i8* getelementptr inbounds ([0 x i8], [0 x i8]* @_ZN5blink5mojom27ManagedConfigurationService5Name_E, i64 0, i64 0), %"class.mojo::MessageReceiver"* nonnull %39, i1 zeroext false, i1 zeroext false, %"class.mojo::MessageReceiverWithResponderStatus"* %38, i32 0) #12
  br label %41

40:                                               ; preds = %3
  call void @_ZN4mojo8internal16BindingStateBase5CloseEv(%"class.mojo::internal::BindingStateBase"* %26) #12
  br label %41

41:                                               ; preds = %35, %40
  call void @_ZN4mojo8internal20PendingReceiverStateD1Ev(%"struct.mojo::internal::PendingReceiverState"* nonnull %31) #12
  call void @llvm.lifetime.end.p0i8(i64 24, i8* nonnull %25)
  call void @_ZN4mojo8internal20PendingReceiverStateD1Ev(%"struct.mojo::internal::PendingReceiverState"* nonnull %24) #12
  call void @llvm.lifetime.end.p0i8(i64 24, i8* nonnull %23)
  call void @_ZN4mojo8internal20PendingReceiverStateD1Ev(%"struct.mojo::internal::PendingReceiverState"* nonnull %21) #12
  %42 = call i8* @_Znwm(i64 56) #13, !noalias !2
  %43 = bitcast i8* %42 to %"class.base::internal::BindStateBase"*
  call void @_ZN4base8internal13BindStateBaseC2EPFvvEPFvPKS1_E(%"class.base::internal::BindStateBase"* nonnull %43, void ()* bitcast (void (%"class.base::internal::BindStateBase"*)* @_ZN4base8internal7InvokerINS0_9BindStateIMN7content16FrameServiceBaseIN5blink5mojom27ManagedConfigurationServiceEEEFvvEJNS0_17UnretainedWrapperIS8_EEEEEFvvEE7RunOnceEPNS0_13BindStateBaseE to void ()*), void (%"class.base::internal::BindStateBase"*)* nonnull @_ZN4base8internal9BindStateIMN7content16FrameServiceBaseIN5blink5mojom27ManagedConfigurationServiceEEEFvvEJNS0_17UnretainedWrapperIS7_EEEE7DestroyEPKNS0_13BindStateBaseE) #12, !noalias !2
  %44 = getelementptr inbounds i8, i8* %42, i64 32
  %45 = bitcast i8* %44 to <2 x i64>*
  store <2 x i64> <i64 ptrtoint (void (%"class.content::FrameServiceBase"*)* @_ZN7content16FrameServiceBaseIN5blink5mojom27ManagedConfigurationServiceEE5CloseEv to i64), i64 0>, <2 x i64>* %45, align 8, !noalias !2
  %46 = getelementptr inbounds i8, i8* %42, i64 48
  %47 = bitcast i8* %46 to i64*
  store i64 %28, i64* %47, align 8, !noalias !2
  %48 = bitcast %"class.base::OnceCallback"* %7 to i8*
  call void @llvm.lifetime.start.p0i8(i64 8, i8* nonnull %48)
  %49 = getelementptr inbounds %"class.base::OnceCallback", %"class.base::OnceCallback"* %9, i64 0, i32 0, i32 0, i32 0
  %50 = ptrtoint i8* %42 to i64
  store %"class.base::internal::BindStateBase"* null, %"class.base::internal::BindStateBase"** %49, align 8
  %51 = bitcast %"class.base::OnceCallback"* %6 to i8*
  call void @llvm.lifetime.start.p0i8(i64 8, i8* nonnull %51) #12
  %52 = getelementptr inbounds %"class.content::FrameServiceBase", %"class.content::FrameServiceBase"* %0, i64 0, i32 4, i32 0, i32 0, i32 1, i32 0, i32 0, i32 0
  %53 = load %"class.mojo::InterfaceEndpointClient"*, %"class.mojo::InterfaceEndpointClient"** %52, align 8
  %54 = getelementptr inbounds %"class.base::OnceCallback", %"class.base::OnceCallback"* %7, i64 0, i32 0, i32 0, i32 0
  %55 = bitcast %"class.base::OnceCallback"* %6 to i64*
  store i64 %50, i64* %55, align 8
  store %"class.base::internal::BindStateBase"* null, %"class.base::internal::BindStateBase"** %54, align 8
  %56 = getelementptr inbounds %"class.mojo::InterfaceEndpointClient", %"class.mojo::InterfaceEndpointClient"* %53, i64 0, i32 17, i32 0
  %57 = getelementptr inbounds %"class.base::OnceCallback", %"class.base::OnceCallback"* %6, i64 0, i32 0
  %58 = call dereferenceable(8) %"class.base::internal::CallbackBase"* @_ZN4base8internal12CallbackBaseaSEOS1_(%"class.base::internal::CallbackBase"* %56, %"class.base::internal::CallbackBase"* nonnull dereferenceable(8) %57) #12
  %59 = getelementptr inbounds %"class.mojo::InterfaceEndpointClient", %"class.mojo::InterfaceEndpointClient"* %53, i64 0, i32 18, i32 0
  call void @_ZN4base8internal12CallbackBase5ResetEv(%"class.base::internal::CallbackBase"* %59) #12
  call void @_ZN4base8internal12CallbackBaseD2Ev(%"class.base::internal::CallbackBase"* nonnull %57) #12
  call void @llvm.lifetime.end.p0i8(i64 8, i8* nonnull %51) #12
  %60 = getelementptr inbounds %"class.base::OnceCallback", %"class.base::OnceCallback"* %7, i64 0, i32 0
  call void @_ZN4base8internal12CallbackBaseD2Ev(%"class.base::internal::CallbackBase"* nonnull %60) #12
  call void @llvm.lifetime.end.p0i8(i64 8, i8* nonnull %48)
  %61 = getelementptr inbounds %"class.base::OnceCallback", %"class.base::OnceCallback"* %9, i64 0, i32 0
  call void @_ZN4base8internal12CallbackBaseD2Ev(%"class.base::internal::CallbackBase"* nonnull %61) #12
  ret void
}

; Function Attrs: nounwind ssp uwtable
define hidden %class.ManagedConfigurationAPI* @_ZN31ManagedConfigurationServiceImpl25managed_configuration_apiEv(%class.ManagedConfigurationServiceImpl* nocapture readonly) local_unnamed_addr #0 align 2 {
  %2 = getelementptr inbounds %class.ManagedConfigurationServiceImpl, %class.ManagedConfigurationServiceImpl* %0, i64 0, i32 2
  %3 = load %"class.content::RenderFrameHost"*, %"class.content::RenderFrameHost"** %2, align 8
  %4 = bitcast %"class.content::RenderFrameHost"* %3 to %"class.content::BrowserContext"* (%"class.content::RenderFrameHost"*)***
  %5 = load %"class.content::BrowserContext"* (%"class.content::RenderFrameHost"*)**, %"class.content::BrowserContext"* (%"class.content::RenderFrameHost"*)*** %4, align 8
  %6 = getelementptr inbounds %"class.content::BrowserContext"* (%"class.content::RenderFrameHost"*)*, %"class.content::BrowserContext"* (%"class.content::RenderFrameHost"*)** %5, i64 17
  %7 = load %"class.content::BrowserContext"* (%"class.content::RenderFrameHost"*)*, %"class.content::BrowserContext"* (%"class.content::RenderFrameHost"*)** %6, align 8
  %8 = tail call %"class.content::BrowserContext"* %7(%"class.content::RenderFrameHost"* %3) #12
  %9 = tail call %class.Profile* @_ZN7Profile18FromBrowserContextEPN7content14BrowserContextE(%"class.content::BrowserContext"* %8) #12
  %10 = tail call %class.ManagedConfigurationAPI* @_ZN30ManagedConfigurationAPIFactory13GetForProfileEP7Profile(%class.Profile* %9) #12
  ret %class.ManagedConfigurationAPI* %10
}

declare void @_ZN23ManagedConfigurationAPI11AddObserverEPNS_8ObserverE(%class.ManagedConfigurationAPI*, %"class.ManagedConfigurationAPI::Observer"*) local_unnamed_addr #1

; Function Attrs: nounwind ssp uwtable
define hidden void @_ZN31ManagedConfigurationServiceImplD2Ev(%class.ManagedConfigurationServiceImpl*) unnamed_addr #0 align 2 {
  %2 = bitcast %class.ManagedConfigurationServiceImpl* %0 to <2 x i32 (...)**>*
  store <2 x i32 (...)**> <i32 (...)** bitcast (i8** getelementptr inbounds ({ [10 x i8*], [109 x i8*], [6 x i8*] }, { [10 x i8*], [109 x i8*], [6 x i8*] }* @_ZTV31ManagedConfigurationServiceImpl, i64 0, inrange i32 0, i64 2) to i32 (...)**), i32 (...)** bitcast (i8** getelementptr inbounds ({ [10 x i8*], [109 x i8*], [6 x i8*] }, { [10 x i8*], [109 x i8*], [6 x i8*] }* @_ZTV31ManagedConfigurationServiceImpl, i64 0, inrange i32 1, i64 2) to i32 (...)**)>, <2 x i32 (...)**>* %2, align 8
  %3 = getelementptr inbounds %class.ManagedConfigurationServiceImpl, %class.ManagedConfigurationServiceImpl* %0, i64 0, i32 1
  %4 = getelementptr inbounds %"class.ManagedConfigurationAPI::Observer", %"class.ManagedConfigurationAPI::Observer"* %3, i64 0, i32 0, i32 0
  store i32 (...)** bitcast (i8** getelementptr inbounds ({ [10 x i8*], [109 x i8*], [6 x i8*] }, { [10 x i8*], [109 x i8*], [6 x i8*] }* @_ZTV31ManagedConfigurationServiceImpl, i64 0, inrange i32 2, i64 2) to i32 (...)**), i32 (...)*** %4, align 8
  %5 = getelementptr inbounds %class.ManagedConfigurationServiceImpl, %class.ManagedConfigurationServiceImpl* %0, i64 0, i32 2
  %6 = load %"class.content::RenderFrameHost"*, %"class.content::RenderFrameHost"** %5, align 8
  %7 = bitcast %"class.content::RenderFrameHost"* %6 to %"class.content::BrowserContext"* (%"class.content::RenderFrameHost"*)***
  %8 = load %"class.content::BrowserContext"* (%"class.content::RenderFrameHost"*)**, %"class.content::BrowserContext"* (%"class.content::RenderFrameHost"*)*** %7, align 8
  %9 = getelementptr inbounds %"class.content::BrowserContext"* (%"class.content::RenderFrameHost"*)*, %"class.content::BrowserContext"* (%"class.content::RenderFrameHost"*)** %8, i64 17
  %10 = load %"class.content::BrowserContext"* (%"class.content::RenderFrameHost"*)*, %"class.content::BrowserContext"* (%"class.content::RenderFrameHost"*)** %9, align 8
  %11 = tail call %"class.content::BrowserContext"* %10(%"class.content::RenderFrameHost"* %6) #12
  %12 = tail call %class.Profile* @_ZN7Profile18FromBrowserContextEPN7content14BrowserContextE(%"class.content::BrowserContext"* %11) #12
  %13 = tail call %class.ManagedConfigurationAPI* @_ZN30ManagedConfigurationAPIFactory13GetForProfileEP7Profile(%class.Profile* %12) #12
  tail call void @_ZN23ManagedConfigurationAPI14RemoveObserverEPNS_8ObserverE(%class.ManagedConfigurationAPI* %13, %"class.ManagedConfigurationAPI::Observer"* %3) #12
  %14 = getelementptr inbounds %class.ManagedConfigurationServiceImpl, %class.ManagedConfigurationServiceImpl* %0, i64 0, i32 3
  %15 = getelementptr inbounds %class.ManagedConfigurationServiceImpl, %class.ManagedConfigurationServiceImpl* %0, i64 0, i32 3, i32 0, i32 1, i32 0, i32 0, i32 0
  %16 = load %"class.blink::mojom::ManagedConfigurationObserverProxy"*, %"class.blink::mojom::ManagedConfigurationObserverProxy"** %15, align 8
  store %"class.blink::mojom::ManagedConfigurationObserverProxy"* null, %"class.blink::mojom::ManagedConfigurationObserverProxy"** %15, align 8
  %17 = icmp eq %"class.blink::mojom::ManagedConfigurationObserverProxy"* %16, null
  br i1 %17, label %23, label %18

18:                                               ; preds = %1
  %19 = bitcast %"class.blink::mojom::ManagedConfigurationObserverProxy"* %16 to void (%"class.blink::mojom::ManagedConfigurationObserverProxy"*)***
  %20 = load void (%"class.blink::mojom::ManagedConfigurationObserverProxy"*)**, void (%"class.blink::mojom::ManagedConfigurationObserverProxy"*)*** %19, align 8
  %21 = getelementptr inbounds void (%"class.blink::mojom::ManagedConfigurationObserverProxy"*)*, void (%"class.blink::mojom::ManagedConfigurationObserverProxy"*)** %20, i64 1
  %22 = load void (%"class.blink::mojom::ManagedConfigurationObserverProxy"*)*, void (%"class.blink::mojom::ManagedConfigurationObserverProxy"*)** %21, align 8
  tail call void %22(%"class.blink::mojom::ManagedConfigurationObserverProxy"* nonnull %16) #12
  br label %23

23:                                               ; preds = %1, %18
  %24 = bitcast %"class.mojo::Remote"* %14 to %"class.mojo::internal::InterfacePtrStateBase"*
  tail call void @_ZN4mojo8internal21InterfacePtrStateBaseD2Ev(%"class.mojo::internal::InterfacePtrStateBase"* %24) #12
  %25 = getelementptr inbounds %"class.ManagedConfigurationAPI::Observer", %"class.ManagedConfigurationAPI::Observer"* %3, i64 0, i32 0
  tail call void @_ZN4base15CheckedObserverD2Ev(%"class.base::CheckedObserver"* %25) #12
  %26 = getelementptr inbounds %class.ManagedConfigurationServiceImpl, %class.ManagedConfigurationServiceImpl* %0, i64 0, i32 0, i32 1
  %27 = bitcast %class.ManagedConfigurationServiceImpl* %0 to <2 x i32 (...)**>*
  store <2 x i32 (...)**> <i32 (...)** bitcast (i8** getelementptr inbounds ({ [8 x i8*], [109 x i8*] }, { [8 x i8*], [109 x i8*] }* @_ZTVN7content16FrameServiceBaseIN5blink5mojom27ManagedConfigurationServiceEEE, i64 0, inrange i32 0, i64 2) to i32 (...)**), i32 (...)** bitcast (i8** getelementptr inbounds ({ [8 x i8*], [109 x i8*] }, { [8 x i8*], [109 x i8*] }* @_ZTVN7content16FrameServiceBaseIN5blink5mojom27ManagedConfigurationServiceEEE, i64 0, inrange i32 1, i64 2) to i32 (...)**)>, <2 x i32 (...)**>* %27, align 8
  %28 = getelementptr inbounds %class.ManagedConfigurationServiceImpl, %class.ManagedConfigurationServiceImpl* %0, i64 0, i32 0, i32 4, i32 0, i32 0
  tail call void @_ZN4mojo8internal16BindingStateBase5CloseEv(%"class.mojo::internal::BindingStateBase"* %28) #12
  tail call void @_ZN4mojo8internal16BindingStateBaseD2Ev(%"class.mojo::internal::BindingStateBase"* %28) #12
  %29 = getelementptr inbounds %class.ManagedConfigurationServiceImpl, %class.ManagedConfigurationServiceImpl* %0, i64 0, i32 0, i32 3
  tail call void @_ZN3url6OriginD1Ev(%"class.url::Origin"* %29) #12
  tail call void @_ZN7content19WebContentsObserverD2Ev(%"class.content::WebContentsObserver"* %26) #12
  ret void
}

declare void @_ZN23ManagedConfigurationAPI14RemoveObserverEPNS_8ObserverE(%class.ManagedConfigurationAPI*, %"class.ManagedConfigurationAPI::Observer"*) local_unnamed_addr #1

; Function Attrs: nounwind ssp uwtable
define hidden void @_ZThn8_N31ManagedConfigurationServiceImplD1Ev(%class.ManagedConfigurationServiceImpl*) unnamed_addr #0 align 2 {
  %2 = getelementptr inbounds %class.ManagedConfigurationServiceImpl, %class.ManagedConfigurationServiceImpl* %0, i64 -1, i32 3, i32 0, i32 1
  %3 = bitcast %"class.std::__1::unique_ptr.193"* %2 to %class.ManagedConfigurationServiceImpl*
  tail call void @_ZN31ManagedConfigurationServiceImplD2Ev(%class.ManagedConfigurationServiceImpl* %3) #12
  ret void
}

; Function Attrs: nounwind ssp uwtable
define hidden void @_ZThn160_N31ManagedConfigurationServiceImplD1Ev(%class.ManagedConfigurationServiceImpl*) unnamed_addr #0 align 2 {
  %2 = getelementptr inbounds %class.ManagedConfigurationServiceImpl, %class.ManagedConfigurationServiceImpl* %0, i64 -1, i32 0, i32 3, i32 0, i32 2
  %3 = bitcast i16* %2 to %class.ManagedConfigurationServiceImpl*
  tail call void @_ZN31ManagedConfigurationServiceImplD2Ev(%class.ManagedConfigurationServiceImpl* %3) #12
  ret void
}

; Function Attrs: nounwind ssp uwtable
define hidden void @_ZN31ManagedConfigurationServiceImplD0Ev(%class.ManagedConfigurationServiceImpl*) unnamed_addr #0 align 2 {
  tail call void @_ZN31ManagedConfigurationServiceImplD2Ev(%class.ManagedConfigurationServiceImpl* %0) #12
  %2 = bitcast %class.ManagedConfigurationServiceImpl* %0 to i8*
  tail call void @_ZdlPv(i8* %2) #13
  ret void
}

; Function Attrs: nobuiltin nounwind
declare void @_ZdlPv(i8*) local_unnamed_addr #4

; Function Attrs: nounwind ssp uwtable
define hidden void @_ZThn8_N31ManagedConfigurationServiceImplD0Ev(%class.ManagedConfigurationServiceImpl*) unnamed_addr #0 align 2 {
  %2 = getelementptr inbounds %class.ManagedConfigurationServiceImpl, %class.ManagedConfigurationServiceImpl* %0, i64 -1, i32 3, i32 0, i32 1
  %3 = bitcast %"class.std::__1::unique_ptr.193"* %2 to %class.ManagedConfigurationServiceImpl*
  tail call void @_ZN31ManagedConfigurationServiceImplD2Ev(%class.ManagedConfigurationServiceImpl* %3) #12
  %4 = bitcast %"class.std::__1::unique_ptr.193"* %2 to i8*
  tail call void @_ZdlPv(i8* %4) #13
  ret void
}

; Function Attrs: nounwind ssp uwtable
define hidden void @_ZThn160_N31ManagedConfigurationServiceImplD0Ev(%class.ManagedConfigurationServiceImpl*) unnamed_addr #0 align 2 {
  %2 = getelementptr inbounds %class.ManagedConfigurationServiceImpl, %class.ManagedConfigurationServiceImpl* %0, i64 -1, i32 0, i32 3, i32 0, i32 2
  %3 = bitcast i16* %2 to %class.ManagedConfigurationServiceImpl*
  tail call void @_ZN31ManagedConfigurationServiceImplD2Ev(%class.ManagedConfigurationServiceImpl* %3) #12
  %4 = bitcast i16* %2 to i8*
  tail call void @_ZdlPv(i8* %4) #13
  ret void
}

; Function Attrs: nounwind ssp uwtable
define hidden void @_ZN31ManagedConfigurationServiceImpl23GetManagedConfigurationERKNSt3__16vectorINS0_12basic_stringIcNS0_11char_traitsIcEENS0_9allocatorIcEEEENS5_IS7_EEEEN4base12OnceCallbackIFvRKN4absl8optionalINSC_8flat_mapIS7_S7_NS0_4lessIvEENS1_INS0_4pairIS7_S7_EENS5_ISK_EEEEEEEEEEE(%class.ManagedConfigurationServiceImpl*, %"class.std::__1::vector.278"* dereferenceable(24), %"class.base::OnceCallback.285"* nocapture) unnamed_addr #0 align 2 {
  %4 = alloca %"class.base::OnceCallback.286", align 8
  %5 = getelementptr inbounds %class.ManagedConfigurationServiceImpl, %class.ManagedConfigurationServiceImpl* %0, i64 0, i32 2
  %6 = load %"class.content::RenderFrameHost"*, %"class.content::RenderFrameHost"** %5, align 8
  %7 = bitcast %"class.content::RenderFrameHost"* %6 to %"class.content::BrowserContext"* (%"class.content::RenderFrameHost"*)***
  %8 = load %"class.content::BrowserContext"* (%"class.content::RenderFrameHost"*)**, %"class.content::BrowserContext"* (%"class.content::RenderFrameHost"*)*** %7, align 8
  %9 = getelementptr inbounds %"class.content::BrowserContext"* (%"class.content::RenderFrameHost"*)*, %"class.content::BrowserContext"* (%"class.content::RenderFrameHost"*)** %8, i64 17
  %10 = load %"class.content::BrowserContext"* (%"class.content::RenderFrameHost"*)*, %"class.content::BrowserContext"* (%"class.content::RenderFrameHost"*)** %9, align 8
  %11 = tail call %"class.content::BrowserContext"* %10(%"class.content::RenderFrameHost"* %6) #12
  %12 = tail call %class.Profile* @_ZN7Profile18FromBrowserContextEPN7content14BrowserContextE(%"class.content::BrowserContext"* %11) #12
  %13 = tail call %class.ManagedConfigurationAPI* @_ZN30ManagedConfigurationAPIFactory13GetForProfileEP7Profile(%class.Profile* %12) #12
  %14 = getelementptr inbounds %class.ManagedConfigurationServiceImpl, %class.ManagedConfigurationServiceImpl* %0, i64 0, i32 0, i32 3
  %15 = tail call i8* @_Znwm(i64 48) #13, !noalias !7
  %16 = bitcast i8* %15 to %"class.base::internal::BindStateBase"*
  tail call void @_ZN4base8internal13BindStateBaseC2EPFvvEPFvPKS1_E(%"class.base::internal::BindStateBase"* nonnull %16, void ()* bitcast (void (%"class.base::internal::BindStateBase"*, %"class.std::__1::unique_ptr.363"*)* @"_ZN4base8internal7InvokerINS0_9BindStateIZN31ManagedConfigurationServiceImpl23GetManagedConfigurationERKNSt3__16vectorINS4_12basic_stringIcNS4_11char_traitsIcEENS4_9allocatorIcEEEENS9_ISB_EEEENS_12OnceCallbackIFvRKN4absl8optionalINS_8flat_mapISB_SB_NS4_4lessIvEENS5_INS4_4pairISB_SB_EENS9_ISN_EEEEEEEEEEEE3$_0JSV_EEEFvNS4_10unique_ptrINS_15DictionaryValueENS4_14default_deleteISZ_EEEEEE7RunOnceEPNS0_13BindStateBaseEOS12_" to void ()*), void (%"class.base::internal::BindStateBase"*)* nonnull @"_ZN4base8internal9BindStateIZN31ManagedConfigurationServiceImpl23GetManagedConfigurationERKNSt3__16vectorINS3_12basic_stringIcNS3_11char_traitsIcEENS3_9allocatorIcEEEENS8_ISA_EEEENS_12OnceCallbackIFvRKN4absl8optionalINS_8flat_mapISA_SA_NS3_4lessIvEENS4_INS3_4pairISA_SA_EENS8_ISM_EEEEEEEEEEEE3$_0JSU_EE7DestroyEPKNS0_13BindStateBaseE") #12, !noalias !7
  %17 = getelementptr inbounds i8, i8* %15, i64 40
  %18 = getelementptr inbounds %"class.base::OnceCallback.285", %"class.base::OnceCallback.285"* %2, i64 0, i32 0, i32 0, i32 0
  %19 = bitcast %"class.base::OnceCallback.285"* %2 to i64*
  %20 = load i64, i64* %19, align 8, !noalias !7
  %21 = bitcast i8* %17 to i64*
  store i64 %20, i64* %21, align 8, !noalias !7
  store %"class.base::internal::BindStateBase"* null, %"class.base::internal::BindStateBase"** %18, align 8, !noalias !7
  %22 = bitcast %"class.base::OnceCallback.286"* %4 to i8**
  store i8* %15, i8** %22, align 8, !alias.scope !7
  call void @_ZN23ManagedConfigurationAPI28GetOriginPolicyConfigurationERKN3url6OriginERKNSt3__16vectorINS4_12basic_stringIcNS4_11char_traitsIcEENS4_9allocatorIcEEEENS9_ISB_EEEEN4base12OnceCallbackIFvNS4_10unique_ptrINSG_15DictionaryValueENS4_14default_deleteISJ_EEEEEEE(%class.ManagedConfigurationAPI* %13, %"class.url::Origin"* dereferenceable(80) %14, %"class.std::__1::vector.278"* dereferenceable(24) %1, %"class.base::OnceCallback.286"* nonnull %4) #12
  %23 = getelementptr inbounds %"class.base::OnceCallback.286", %"class.base::OnceCallback.286"* %4, i64 0, i32 0
  call void @_ZN4base8internal12CallbackBaseD2Ev(%"class.base::internal::CallbackBase"* nonnull %23) #12
  ret void
}

declare void @_ZN23ManagedConfigurationAPI28GetOriginPolicyConfigurationERKN3url6OriginERKNSt3__16vectorINS4_12basic_stringIcNS4_11char_traitsIcEENS4_9allocatorIcEEEENS9_ISB_EEEEN4base12OnceCallbackIFvNS4_10unique_ptrINSG_15DictionaryValueENS4_14default_deleteISJ_EEEEEEE(%class.ManagedConfigurationAPI*, %"class.url::Origin"* dereferenceable(80), %"class.std::__1::vector.278"* dereferenceable(24), %"class.base::OnceCallback.286"*) local_unnamed_addr #1

; Function Attrs: nounwind
declare void @_ZN4base8internal12CallbackBaseD2Ev(%"class.base::internal::CallbackBase"*) unnamed_addr #5

; Function Attrs: nounwind ssp uwtable
define hidden void @_ZN31ManagedConfigurationServiceImpl31SubscribeToManagedConfigurationEN4mojo13PendingRemoteIN5blink5mojom28ManagedConfigurationObserverEEE(%class.ManagedConfigurationServiceImpl*, %"class.mojo::PendingRemote"*) unnamed_addr #0 align 2 {
  %3 = alloca %"class.mojo::PendingRemote", align 4
  %4 = alloca %"class.mojo::PendingRemote", align 4
  %5 = getelementptr inbounds %class.ManagedConfigurationServiceImpl, %class.ManagedConfigurationServiceImpl* %0, i64 0, i32 3
  %6 = getelementptr inbounds %"class.mojo::PendingRemote", %"class.mojo::PendingRemote"* %4, i64 0, i32 0
  %7 = getelementptr inbounds %"class.mojo::PendingRemote", %"class.mojo::PendingRemote"* %1, i64 0, i32 0
  call void @_ZN4mojo8internal18PendingRemoteStateC1EOS1_(%"struct.mojo::internal::PendingRemoteState"* nonnull %6, %"struct.mojo::internal::PendingRemoteState"* dereferenceable(8) %7) #12
  %8 = bitcast %"class.mojo::PendingRemote"* %3 to i8*
  call void @llvm.lifetime.start.p0i8(i64 8, i8* nonnull %8)
  %9 = getelementptr inbounds %"class.mojo::PendingRemote", %"class.mojo::PendingRemote"* %3, i64 0, i32 0
  call void @_ZN4mojo8internal18PendingRemoteStateC1EOS1_(%"struct.mojo::internal::PendingRemoteState"* nonnull %9, %"struct.mojo::internal::PendingRemoteState"* nonnull dereferenceable(8) %6) #12
  call void @_ZN4mojo6RemoteIN5blink5mojom28ManagedConfigurationObserverEE4BindENS_13PendingRemoteIS3_EE13scoped_refptrIN4base19SequencedTaskRunnerEE(%"class.mojo::Remote"* %5, %"class.mojo::PendingRemote"* nonnull %3, %"class.base::SequencedTaskRunner"* null) #12
  call void @_ZN4mojo8internal18PendingRemoteStateD1Ev(%"struct.mojo::internal::PendingRemoteState"* nonnull %9) #12
  call void @llvm.lifetime.end.p0i8(i64 8, i8* nonnull %8)
  call void @_ZN4mojo8internal18PendingRemoteStateD1Ev(%"struct.mojo::internal::PendingRemoteState"* nonnull %6) #12
  ret void
}

; Function Attrs: nounwind ssp uwtable
define hidden void @_ZN31ManagedConfigurationServiceImpl29OnManagedConfigurationChangedEv(%class.ManagedConfigurationServiceImpl*) unnamed_addr #0 align 2 {
  %2 = getelementptr inbounds %class.ManagedConfigurationServiceImpl, %class.ManagedConfigurationServiceImpl* %0, i64 0, i32 3, i32 0
  tail call void @_ZN4mojo8internal17InterfacePtrStateIN5blink5mojom28ManagedConfigurationObserverEE25ConfigureProxyIfNecessaryEv(%"class.mojo::internal::InterfacePtrState"* %2) #12
  %3 = getelementptr inbounds %class.ManagedConfigurationServiceImpl, %class.ManagedConfigurationServiceImpl* %0, i64 0, i32 3, i32 0, i32 1, i32 0, i32 0, i32 0
  %4 = load %"class.blink::mojom::ManagedConfigurationObserverProxy"*, %"class.blink::mojom::ManagedConfigurationObserverProxy"** %3, align 8
  tail call void @_ZN5blink5mojom33ManagedConfigurationObserverProxy22OnConfigurationChangedEv(%"class.blink::mojom::ManagedConfigurationObserverProxy"* %4) #12
  ret void
}

declare void @_ZN5blink5mojom33ManagedConfigurationObserverProxy22OnConfigurationChangedEv(%"class.blink::mojom::ManagedConfigurationObserverProxy"*) unnamed_addr #1

; Function Attrs: nounwind ssp uwtable
define hidden void @_ZThn160_N31ManagedConfigurationServiceImpl29OnManagedConfigurationChangedEv(%class.ManagedConfigurationServiceImpl*) unnamed_addr #0 align 2 {
  %2 = getelementptr inbounds %class.ManagedConfigurationServiceImpl, %class.ManagedConfigurationServiceImpl* %0, i64 -1, i32 0, i32 3, i32 0, i32 2
  %3 = getelementptr inbounds i16, i16* %2, i64 96
  %4 = bitcast i16* %3 to %"class.mojo::internal::InterfacePtrState"*
  tail call void @_ZN4mojo8internal17InterfacePtrStateIN5blink5mojom28ManagedConfigurationObserverEE25ConfigureProxyIfNecessaryEv(%"class.mojo::internal::InterfacePtrState"* %4) #12
  %5 = getelementptr inbounds i16, i16* %2, i64 116
  %6 = bitcast i16* %5 to %"class.blink::mojom::ManagedConfigurationObserverProxy"**
  %7 = load %"class.blink::mojom::ManagedConfigurationObserverProxy"*, %"class.blink::mojom::ManagedConfigurationObserverProxy"** %6, align 8
  tail call void @_ZN5blink5mojom33ManagedConfigurationObserverProxy22OnConfigurationChangedEv(%"class.blink::mojom::ManagedConfigurationObserverProxy"* %7) #12
  ret void
}

declare %class.ManagedConfigurationAPI* @_ZN30ManagedConfigurationAPIFactory13GetForProfileEP7Profile(%class.Profile*) local_unnamed_addr #1

declare %class.Profile* @_ZN7Profile18FromBrowserContextEPN7content14BrowserContextE(%"class.content::BrowserContext"*) local_unnamed_addr #1

; Function Attrs: norecurse nounwind readnone ssp uwtable
define hidden dereferenceable(80) %"class.url::Origin"* @_ZN31ManagedConfigurationServiceImpl9GetOriginEv(%class.ManagedConfigurationServiceImpl* readnone) unnamed_addr #6 align 2 {
  %2 = getelementptr inbounds %class.ManagedConfigurationServiceImpl, %class.ManagedConfigurationServiceImpl* %0, i64 0, i32 0, i32 3
  ret %"class.url::Origin"* %2
}

; Function Attrs: norecurse nounwind readnone ssp uwtable
define hidden dereferenceable(80) %"class.url::Origin"* @_ZThn160_N31ManagedConfigurationServiceImpl9GetOriginEv(%class.ManagedConfigurationServiceImpl* readnone) unnamed_addr #6 align 2 {
  %2 = getelementptr inbounds %class.ManagedConfigurationServiceImpl, %class.ManagedConfigurationServiceImpl* %0, i64 -1, i32 0, i32 3, i32 0, i32 2
  %3 = getelementptr inbounds i16, i16* %2, i64 16
  %4 = bitcast i16* %3 to %"class.url::Origin"*
  ret %"class.url::Origin"* %4
}

; Function Attrs: nounwind ssp uwtable
define linkonce_odr hidden void @_ZN7content16FrameServiceBaseIN5blink5mojom27ManagedConfigurationServiceEE18RenderFrameDeletedEPNS_15RenderFrameHostE(%"class.content::FrameServiceBase"*, %"class.content::RenderFrameHost"*) unnamed_addr #0 comdat align 2 {
  %3 = getelementptr inbounds %"class.content::FrameServiceBase", %"class.content::FrameServiceBase"* %0, i64 0, i32 2
  %4 = load %"class.content::RenderFrameHost"*, %"class.content::RenderFrameHost"** %3, align 8
  %5 = icmp ne %"class.content::RenderFrameHost"* %4, %1
  %6 = icmp eq %"class.content::FrameServiceBase"* %0, null
  %7 = or i1 %6, %5
  br i1 %7, label %13, label %8

8:                                                ; preds = %2
  %9 = bitcast %"class.content::FrameServiceBase"* %0 to void (%"class.content::FrameServiceBase"*)***
  %10 = load void (%"class.content::FrameServiceBase"*)**, void (%"class.content::FrameServiceBase"*)*** %9, align 8
  %11 = getelementptr inbounds void (%"class.content::FrameServiceBase"*)*, void (%"class.content::FrameServiceBase"*)** %10, i64 1
  %12 = load void (%"class.content::FrameServiceBase"*)*, void (%"class.content::FrameServiceBase"*)** %11, align 8
  tail call void %12(%"class.content::FrameServiceBase"* nonnull %0) #12
  br label %13

13:                                               ; preds = %2, %8
  ret void
}

; Function Attrs: nounwind ssp uwtable
define linkonce_odr hidden void @_ZN7content16FrameServiceBaseIN5blink5mojom27ManagedConfigurationServiceEE19DidFinishNavigationEPNS_16NavigationHandleE(%"class.content::FrameServiceBase"*, %"class.content::NavigationHandle"*) unnamed_addr #0 comdat align 2 {
  %3 = bitcast %"class.content::NavigationHandle"* %1 to i1 (%"class.content::NavigationHandle"*)***
  %4 = load i1 (%"class.content::NavigationHandle"*)**, i1 (%"class.content::NavigationHandle"*)*** %3, align 8
  %5 = getelementptr inbounds i1 (%"class.content::NavigationHandle"*)*, i1 (%"class.content::NavigationHandle"*)** %4, i64 38
  %6 = load i1 (%"class.content::NavigationHandle"*)*, i1 (%"class.content::NavigationHandle"*)** %5, align 8
  %7 = tail call zeroext i1 %6(%"class.content::NavigationHandle"* %1) #12
  br i1 %7, label %8, label %34

8:                                                ; preds = %2
  %9 = load i1 (%"class.content::NavigationHandle"*)**, i1 (%"class.content::NavigationHandle"*)*** %3, align 8
  %10 = getelementptr inbounds i1 (%"class.content::NavigationHandle"*)*, i1 (%"class.content::NavigationHandle"*)** %9, i64 35
  %11 = load i1 (%"class.content::NavigationHandle"*)*, i1 (%"class.content::NavigationHandle"*)** %10, align 8
  %12 = tail call zeroext i1 %11(%"class.content::NavigationHandle"* %1) #12
  br i1 %12, label %34, label %13

13:                                               ; preds = %8
  %14 = load i1 (%"class.content::NavigationHandle"*)**, i1 (%"class.content::NavigationHandle"*)*** %3, align 8
  %15 = getelementptr inbounds i1 (%"class.content::NavigationHandle"*)*, i1 (%"class.content::NavigationHandle"*)** %14, i64 31
  %16 = load i1 (%"class.content::NavigationHandle"*)*, i1 (%"class.content::NavigationHandle"*)** %15, align 8
  %17 = tail call zeroext i1 %16(%"class.content::NavigationHandle"* %1) #12
  br i1 %17, label %34, label %18

18:                                               ; preds = %13
  %19 = bitcast %"class.content::NavigationHandle"* %1 to %"class.content::RenderFrameHost"* (%"class.content::NavigationHandle"*)***
  %20 = load %"class.content::RenderFrameHost"* (%"class.content::NavigationHandle"*)**, %"class.content::RenderFrameHost"* (%"class.content::NavigationHandle"*)*** %19, align 8
  %21 = getelementptr inbounds %"class.content::RenderFrameHost"* (%"class.content::NavigationHandle"*)*, %"class.content::RenderFrameHost"* (%"class.content::NavigationHandle"*)** %20, i64 33
  %22 = load %"class.content::RenderFrameHost"* (%"class.content::NavigationHandle"*)*, %"class.content::RenderFrameHost"* (%"class.content::NavigationHandle"*)** %21, align 8
  %23 = tail call %"class.content::RenderFrameHost"* %22(%"class.content::NavigationHandle"* %1) #12
  %24 = getelementptr inbounds %"class.content::FrameServiceBase", %"class.content::FrameServiceBase"* %0, i64 0, i32 2
  %25 = load %"class.content::RenderFrameHost"*, %"class.content::RenderFrameHost"** %24, align 8
  %26 = icmp ne %"class.content::RenderFrameHost"* %23, %25
  %27 = icmp eq %"class.content::FrameServiceBase"* %0, null
  %28 = or i1 %27, %26
  br i1 %28, label %34, label %29

29:                                               ; preds = %18
  %30 = bitcast %"class.content::FrameServiceBase"* %0 to void (%"class.content::FrameServiceBase"*)***
  %31 = load void (%"class.content::FrameServiceBase"*)**, void (%"class.content::FrameServiceBase"*)*** %30, align 8
  %32 = getelementptr inbounds void (%"class.content::FrameServiceBase"*)*, void (%"class.content::FrameServiceBase"*)** %31, i64 1
  %33 = load void (%"class.content::FrameServiceBase"*)*, void (%"class.content::FrameServiceBase"*)** %32, align 8
  tail call void %33(%"class.content::FrameServiceBase"* nonnull %0) #12
  br label %34

34:                                               ; preds = %18, %29, %2, %8, %13
  ret void
}

declare zeroext i1 @_ZN7content19WebContentsObserver17OnMessageReceivedERKN3IPC7MessageE(%"class.content::WebContentsObserver"*, %"class.IPC::Message"* dereferenceable(56)) unnamed_addr #1

; Function Attrs: nounwind ssp uwtable
define linkonce_odr hidden void @_ZN3IPC8Listener18OnChannelConnectedEi(%"class.IPC::Listener"*, i32) unnamed_addr #0 comdat align 2 {
  ret void
}

; Function Attrs: nounwind ssp uwtable
define linkonce_odr hidden void @_ZN3IPC8Listener14OnChannelErrorEv(%"class.IPC::Listener"*) unnamed_addr #0 comdat align 2 {
  ret void
}

; Function Attrs: nounwind ssp uwtable
define linkonce_odr hidden void @_ZN3IPC8Listener20OnBadMessageReceivedERKNS_7MessageE(%"class.IPC::Listener"*, %"class.IPC::Message"* dereferenceable(56)) unnamed_addr #0 comdat align 2 {
  ret void
}

; Function Attrs: nounwind ssp uwtable
define linkonce_odr hidden void @_ZN3IPC8Listener28OnAssociatedInterfaceRequestERKNSt3__112basic_stringIcNS1_11char_traitsIcEENS1_9allocatorIcEEEEN4mojo29ScopedInterfaceEndpointHandleE(%"class.IPC::Listener"*, %"class.std::__1::basic_string"* dereferenceable(24), %"class.mojo::ScopedInterfaceEndpointHandle"*) unnamed_addr #0 comdat align 2 {
  ret void
}

; Function Attrs: nounwind ssp uwtable
define linkonce_odr hidden void @_ZN3IPC8Listener15OnChannelDeniedEv(%"class.IPC::Listener"*) unnamed_addr #0 comdat align 2 {
  ret void
}

; Function Attrs: nounwind ssp uwtable
define linkonce_odr hidden void @_ZN3IPC8Listener20OnChannelListenErrorEv(%"class.IPC::Listener"*) unnamed_addr #0 comdat align 2 {
  ret void
}

; Function Attrs: nounwind ssp uwtable
define linkonce_odr hidden void @_ZN7content19WebContentsObserver18RenderFrameCreatedEPNS_15RenderFrameHostE(%"class.content::WebContentsObserver"*, %"class.content::RenderFrameHost"*) unnamed_addr #0 comdat align 2 {
  ret void
}

; Function Attrs: nounwind ssp uwtable
define linkonce_odr hidden void @_ZThn8_N7content16FrameServiceBaseIN5blink5mojom27ManagedConfigurationServiceEE18RenderFrameDeletedEPNS_15RenderFrameHostE(%"class.content::FrameServiceBase"*, %"class.content::RenderFrameHost"*) unnamed_addr #0 comdat align 2 {
  %3 = getelementptr inbounds %"class.content::FrameServiceBase", %"class.content::FrameServiceBase"* %0, i64 -1, i32 4, i32 0, i32 1, i32 1
  %4 = getelementptr inbounds %"class.blink::mojom::ManagedConfigurationService"*, %"class.blink::mojom::ManagedConfigurationService"** %3, i64 3
  %5 = bitcast %"class.blink::mojom::ManagedConfigurationService"** %4 to %"class.content::RenderFrameHost"**
  %6 = load %"class.content::RenderFrameHost"*, %"class.content::RenderFrameHost"** %5, align 8
  %7 = icmp ne %"class.content::RenderFrameHost"* %6, %1
  %8 = icmp eq %"class.blink::mojom::ManagedConfigurationService"** %3, null
  %9 = or i1 %8, %7
  br i1 %9, label %16, label %10

10:                                               ; preds = %2
  %11 = bitcast %"class.blink::mojom::ManagedConfigurationService"** %3 to %"class.content::FrameServiceBase"*
  %12 = bitcast %"class.blink::mojom::ManagedConfigurationService"** %3 to void (%"class.content::FrameServiceBase"*)***
  %13 = load void (%"class.content::FrameServiceBase"*)**, void (%"class.content::FrameServiceBase"*)*** %12, align 8
  %14 = getelementptr inbounds void (%"class.content::FrameServiceBase"*)*, void (%"class.content::FrameServiceBase"*)** %13, i64 1
  %15 = load void (%"class.content::FrameServiceBase"*)*, void (%"class.content::FrameServiceBase"*)** %14, align 8
  tail call void %15(%"class.content::FrameServiceBase"* nonnull %11) #12
  br label %16

16:                                               ; preds = %2, %10
  ret void
}

; Function Attrs: nounwind ssp uwtable
define linkonce_odr hidden void @_ZN7content19WebContentsObserver22RenderFrameHostChangedEPNS_15RenderFrameHostES2_(%"class.content::WebContentsObserver"*, %"class.content::RenderFrameHost"*, %"class.content::RenderFrameHost"*) unnamed_addr #0 comdat align 2 {
  ret void
}

; Function Attrs: nounwind ssp uwtable
define linkonce_odr hidden void @_ZN7content19WebContentsObserver12FrameDeletedEi(%"class.content::WebContentsObserver"*, i32) unnamed_addr #0 comdat align 2 {
  ret void
}

; Function Attrs: nounwind ssp uwtable
define linkonce_odr hidden void @_ZN7content19WebContentsObserver27RenderFrameHostStateChangedEPNS_15RenderFrameHostENS1_14LifecycleStateES3_(%"class.content::WebContentsObserver"*, %"class.content::RenderFrameHost"*, i32, i32) unnamed_addr #0 comdat align 2 {
  ret void
}

; Function Attrs: nounwind ssp uwtable
define linkonce_odr hidden void @_ZN7content19WebContentsObserver20CaptureTargetChangedEv(%"class.content::WebContentsObserver"*) unnamed_addr #0 comdat align 2 {
  ret void
}

; Function Attrs: nounwind ssp uwtable
define linkonce_odr hidden void @_ZN7content19WebContentsObserver27OnCaptureHandleConfigUpdateERKN5blink5mojom19CaptureHandleConfigE(%"class.content::WebContentsObserver"*, %"class.blink::mojom::CaptureHandleConfig"*) unnamed_addr #0 comdat align 2 {
  ret void
}

; Function Attrs: nounwind ssp uwtable
define linkonce_odr hidden void @_ZN7content19WebContentsObserver15RenderViewReadyEv(%"class.content::WebContentsObserver"*) unnamed_addr #0 comdat align 2 {
  ret void
}

; Function Attrs: nounwind ssp uwtable
define linkonce_odr hidden void @_ZN7content19WebContentsObserver17RenderViewDeletedEPNS_14RenderViewHostE(%"class.content::WebContentsObserver"*, %"class.content::RenderViewHost"*) unnamed_addr #0 comdat align 2 {
  ret void
}

; Function Attrs: nounwind ssp uwtable
define linkonce_odr hidden void @_ZN7content19WebContentsObserver17RenderProcessGoneEN4base17TerminationStatusE(%"class.content::WebContentsObserver"*, i32) unnamed_addr #0 comdat align 2 {
  ret void
}

; Function Attrs: nounwind ssp uwtable
define linkonce_odr hidden void @_ZN7content19WebContentsObserver21RenderViewHostChangedEPNS_14RenderViewHostES2_(%"class.content::WebContentsObserver"*, %"class.content::RenderViewHost"*, %"class.content::RenderViewHost"*) unnamed_addr #0 comdat align 2 {
  ret void
}

; Function Attrs: nounwind ssp uwtable
define linkonce_odr hidden void @_ZN7content19WebContentsObserver22OnRendererUnresponsiveEPNS_17RenderProcessHostE(%"class.content::WebContentsObserver"*, %"class.content::RenderProcessHost"*) unnamed_addr #0 comdat align 2 {
  ret void
}

; Function Attrs: nounwind ssp uwtable
define linkonce_odr hidden void @_ZN7content19WebContentsObserver20OnRendererResponsiveEPNS_17RenderProcessHostE(%"class.content::WebContentsObserver"*, %"class.content::RenderProcessHost"*) unnamed_addr #0 comdat align 2 {
  ret void
}

; Function Attrs: nounwind ssp uwtable
define linkonce_odr hidden void @_ZN7content19WebContentsObserver18DidStartNavigationEPNS_16NavigationHandleE(%"class.content::WebContentsObserver"*, %"class.content::NavigationHandle"*) unnamed_addr #0 comdat align 2 {
  ret void
}

; Function Attrs: nounwind ssp uwtable
define linkonce_odr hidden void @_ZN7content19WebContentsObserver21DidRedirectNavigationEPNS_16NavigationHandleE(%"class.content::WebContentsObserver"*, %"class.content::NavigationHandle"*) unnamed_addr #0 comdat align 2 {
  ret void
}

; Function Attrs: nounwind ssp uwtable
define linkonce_odr hidden void @_ZN7content19WebContentsObserver23ReadyToCommitNavigationEPNS_16NavigationHandleE(%"class.content::WebContentsObserver"*, %"class.content::NavigationHandle"*) unnamed_addr #0 comdat align 2 {
  ret void
}

; Function Attrs: nounwind ssp uwtable
define linkonce_odr hidden void @_ZThn8_N7content16FrameServiceBaseIN5blink5mojom27ManagedConfigurationServiceEE19DidFinishNavigationEPNS_16NavigationHandleE(%"class.content::FrameServiceBase"*, %"class.content::NavigationHandle"*) unnamed_addr #0 comdat align 2 {
  %3 = getelementptr inbounds %"class.content::FrameServiceBase", %"class.content::FrameServiceBase"* %0, i64 -1, i32 4, i32 0, i32 1, i32 1
  %4 = bitcast %"class.blink::mojom::ManagedConfigurationService"** %3 to %"class.content::FrameServiceBase"*
  %5 = bitcast %"class.content::NavigationHandle"* %1 to i1 (%"class.content::NavigationHandle"*)***
  %6 = load i1 (%"class.content::NavigationHandle"*)**, i1 (%"class.content::NavigationHandle"*)*** %5, align 8
  %7 = getelementptr inbounds i1 (%"class.content::NavigationHandle"*)*, i1 (%"class.content::NavigationHandle"*)** %6, i64 38
  %8 = load i1 (%"class.content::NavigationHandle"*)*, i1 (%"class.content::NavigationHandle"*)** %7, align 8
  %9 = tail call zeroext i1 %8(%"class.content::NavigationHandle"* %1) #12
  br i1 %9, label %10, label %37

10:                                               ; preds = %2
  %11 = load i1 (%"class.content::NavigationHandle"*)**, i1 (%"class.content::NavigationHandle"*)*** %5, align 8
  %12 = getelementptr inbounds i1 (%"class.content::NavigationHandle"*)*, i1 (%"class.content::NavigationHandle"*)** %11, i64 35
  %13 = load i1 (%"class.content::NavigationHandle"*)*, i1 (%"class.content::NavigationHandle"*)** %12, align 8
  %14 = tail call zeroext i1 %13(%"class.content::NavigationHandle"* %1) #12
  br i1 %14, label %37, label %15

15:                                               ; preds = %10
  %16 = load i1 (%"class.content::NavigationHandle"*)**, i1 (%"class.content::NavigationHandle"*)*** %5, align 8
  %17 = getelementptr inbounds i1 (%"class.content::NavigationHandle"*)*, i1 (%"class.content::NavigationHandle"*)** %16, i64 31
  %18 = load i1 (%"class.content::NavigationHandle"*)*, i1 (%"class.content::NavigationHandle"*)** %17, align 8
  %19 = tail call zeroext i1 %18(%"class.content::NavigationHandle"* %1) #12
  br i1 %19, label %37, label %20

20:                                               ; preds = %15
  %21 = bitcast %"class.content::NavigationHandle"* %1 to %"class.content::RenderFrameHost"* (%"class.content::NavigationHandle"*)***
  %22 = load %"class.content::RenderFrameHost"* (%"class.content::NavigationHandle"*)**, %"class.content::RenderFrameHost"* (%"class.content::NavigationHandle"*)*** %21, align 8
  %23 = getelementptr inbounds %"class.content::RenderFrameHost"* (%"class.content::NavigationHandle"*)*, %"class.content::RenderFrameHost"* (%"class.content::NavigationHandle"*)** %22, i64 33
  %24 = load %"class.content::RenderFrameHost"* (%"class.content::NavigationHandle"*)*, %"class.content::RenderFrameHost"* (%"class.content::NavigationHandle"*)** %23, align 8
  %25 = tail call %"class.content::RenderFrameHost"* %24(%"class.content::NavigationHandle"* %1) #12
  %26 = getelementptr inbounds %"class.blink::mojom::ManagedConfigurationService"*, %"class.blink::mojom::ManagedConfigurationService"** %3, i64 3
  %27 = bitcast %"class.blink::mojom::ManagedConfigurationService"** %26 to %"class.content::RenderFrameHost"**
  %28 = load %"class.content::RenderFrameHost"*, %"class.content::RenderFrameHost"** %27, align 8
  %29 = icmp ne %"class.content::RenderFrameHost"* %25, %28
  %30 = icmp eq %"class.blink::mojom::ManagedConfigurationService"** %3, null
  %31 = or i1 %30, %29
  br i1 %31, label %37, label %32

32:                                               ; preds = %20
  %33 = bitcast %"class.blink::mojom::ManagedConfigurationService"** %3 to void (%"class.content::FrameServiceBase"*)***
  %34 = load void (%"class.content::FrameServiceBase"*)**, void (%"class.content::FrameServiceBase"*)*** %33, align 8
  %35 = getelementptr inbounds void (%"class.content::FrameServiceBase"*)*, void (%"class.content::FrameServiceBase"*)** %34, i64 1
  %36 = load void (%"class.content::FrameServiceBase"*)*, void (%"class.content::FrameServiceBase"*)** %35, align 8
  tail call void %36(%"class.content::FrameServiceBase"* nonnull %4) #12
  br label %37

37:                                               ; preds = %2, %10, %15, %20, %32
  ret void
}

; Function Attrs: nounwind ssp uwtable
define linkonce_odr hidden void @_ZN7content19WebContentsObserver17DidActivatePortalEPNS_11WebContentsEN4base9TimeTicksE(%"class.content::WebContentsObserver"*, %"class.content::WebContents"*, i64) unnamed_addr #0 comdat align 2 {
  ret void
}

; Function Attrs: nounwind ssp uwtable
define linkonce_odr hidden void @_ZN7content19WebContentsObserver15DidStartLoadingEv(%"class.content::WebContentsObserver"*) unnamed_addr #0 comdat align 2 {
  ret void
}

; Function Attrs: nounwind ssp uwtable
define linkonce_odr hidden void @_ZN7content19WebContentsObserver18DidReceiveResponseEv(%"class.content::WebContentsObserver"*) unnamed_addr #0 comdat align 2 {
  ret void
}

; Function Attrs: nounwind ssp uwtable
define linkonce_odr hidden void @_ZN7content19WebContentsObserver14DidStopLoadingEv(%"class.content::WebContentsObserver"*) unnamed_addr #0 comdat align 2 {
  ret void
}

; Function Attrs: nounwind ssp uwtable
define linkonce_odr hidden void @_ZN7content19WebContentsObserver19LoadProgressChangedEd(%"class.content::WebContentsObserver"*, double) unnamed_addr #0 comdat align 2 {
  ret void
}

; Function Attrs: nounwind ssp uwtable
define linkonce_odr hidden void @_ZN7content19WebContentsObserver28DocumentAvailableInMainFrameEPNS_15RenderFrameHostE(%"class.content::WebContentsObserver"*, %"class.content::RenderFrameHost"*) unnamed_addr #0 comdat align 2 {
  ret void
}

; Function Attrs: nounwind ssp uwtable
define linkonce_odr hidden void @_ZN7content19WebContentsObserver34DocumentOnLoadCompletedInMainFrameEPNS_15RenderFrameHostE(%"class.content::WebContentsObserver"*, %"class.content::RenderFrameHost"*) unnamed_addr #0 comdat align 2 {
  ret void
}

; Function Attrs: nounwind ssp uwtable
define linkonce_odr hidden void @_ZN7content19WebContentsObserver16DOMContentLoadedEPNS_15RenderFrameHostE(%"class.content::WebContentsObserver"*, %"class.content::RenderFrameHost"*) unnamed_addr #0 comdat align 2 {
  ret void
}

; Function Attrs: nounwind ssp uwtable
define linkonce_odr hidden void @_ZN7content19WebContentsObserver13DidFinishLoadEPNS_15RenderFrameHostERK4GURL(%"class.content::WebContentsObserver"*, %"class.content::RenderFrameHost"*, %class.GURL* dereferenceable(120)) unnamed_addr #0 comdat align 2 {
  ret void
}

; Function Attrs: nounwind ssp uwtable
define linkonce_odr hidden void @_ZN7content19WebContentsObserver11DidFailLoadEPNS_15RenderFrameHostERK4GURLi(%"class.content::WebContentsObserver"*, %"class.content::RenderFrameHost"*, %class.GURL* dereferenceable(120), i32) unnamed_addr #0 comdat align 2 {
  ret void
}

; Function Attrs: nounwind ssp uwtable
define linkonce_odr hidden void @_ZN7content19WebContentsObserver29DidChangeVisibleSecurityStateEv(%"class.content::WebContentsObserver"*) unnamed_addr #0 comdat align 2 {
  ret void
}

; Function Attrs: nounwind ssp uwtable
define linkonce_odr hidden void @_ZN7content19WebContentsObserver30DidLoadResourceFromMemoryCacheEPNS_15RenderFrameHostERK4GURLRKNSt3__112basic_stringIcNS6_11char_traitsIcEENS6_9allocatorIcEEEEN7network5mojom18RequestDestinationE(%"class.content::WebContentsObserver"*, %"class.content::RenderFrameHost"*, %class.GURL* dereferenceable(120), %"class.std::__1::basic_string"* dereferenceable(24), i32) unnamed_addr #0 comdat align 2 {
  ret void
}

; Function Attrs: nounwind ssp uwtable
define linkonce_odr hidden void @_ZN7content19WebContentsObserver20ResourceLoadCompleteEPNS_15RenderFrameHostERKNS_15GlobalRequestIDERKN5blink5mojom16ResourceLoadInfoE(%"class.content::WebContentsObserver"*, %"class.content::RenderFrameHost"*, %"struct.content::GlobalRequestID"* dereferenceable(8), %"class.blink::mojom::ResourceLoadInfo"*) unnamed_addr #0 comdat align 2 {
  ret void
}

; Function Attrs: nounwind ssp uwtable
define linkonce_odr hidden void @_ZN7content19WebContentsObserver17OnCookiesAccessedEPNS_15RenderFrameHostERKNS_19CookieAccessDetailsE(%"class.content::WebContentsObserver"*, %"class.content::RenderFrameHost"*, %"struct.content::CookieAccessDetails"* dereferenceable(280)) unnamed_addr #0 comdat align 2 {
  ret void
}

; Function Attrs: nounwind ssp uwtable
define linkonce_odr hidden void @_ZN7content19WebContentsObserver17OnCookiesAccessedEPNS_16NavigationHandleERKNS_19CookieAccessDetailsE(%"class.content::WebContentsObserver"*, %"class.content::NavigationHandle"*, %"struct.content::CookieAccessDetails"* dereferenceable(280)) unnamed_addr #0 comdat align 2 {
  ret void
}

; Function Attrs: nounwind ssp uwtable
define linkonce_odr hidden void @_ZN7content19WebContentsObserver24NavigationEntryCommittedERKNS_20LoadCommittedDetailsE(%"class.content::WebContentsObserver"*, %"struct.content::LoadCommittedDetails"*) unnamed_addr #0 comdat align 2 {
  ret void
}

; Function Attrs: nounwind ssp uwtable
define linkonce_odr hidden void @_ZN7content19WebContentsObserver20NavigationListPrunedERKNS_13PrunedDetailsE(%"class.content::WebContentsObserver"*, %"struct.content::PrunedDetails"*) unnamed_addr #0 comdat align 2 {
  ret void
}

; Function Attrs: nounwind ssp uwtable
define linkonce_odr hidden void @_ZN7content19WebContentsObserver24NavigationEntriesDeletedEv(%"class.content::WebContentsObserver"*) unnamed_addr #0 comdat align 2 {
  ret void
}

; Function Attrs: nounwind ssp uwtable
define linkonce_odr hidden void @_ZN7content19WebContentsObserver22NavigationEntryChangedERKNS_19EntryChangedDetailsE(%"class.content::WebContentsObserver"*, %"struct.content::EntryChangedDetails"*) unnamed_addr #0 comdat align 2 {
  ret void
}

; Function Attrs: nounwind ssp uwtable
define linkonce_odr hidden void @_ZN7content19WebContentsObserver19DidOpenRequestedURLEPNS_11WebContentsEPNS_15RenderFrameHostERK4GURLRKNS_8ReferrerE21WindowOpenDispositionN2ui14PageTransitionEbb(%"class.content::WebContentsObserver"*, %"class.content::WebContents"*, %"class.content::RenderFrameHost"*, %class.GURL* dereferenceable(120), %"struct.content::Referrer"* dereferenceable(128), i32, i32, i1 zeroext, i1 zeroext) unnamed_addr #0 comdat align 2 {
  ret void
}

; Function Attrs: nounwind ssp uwtable
define linkonce_odr hidden void @_ZN7content19WebContentsObserver29DidFirstVisuallyNonEmptyPaintEv(%"class.content::WebContentsObserver"*) unnamed_addr #0 comdat align 2 {
  ret void
}

; Function Attrs: nounwind ssp uwtable
define linkonce_odr hidden void @_ZN7content19WebContentsObserver17NavigationStoppedEv(%"class.content::WebContentsObserver"*) unnamed_addr #0 comdat align 2 {
  ret void
}

; Function Attrs: nounwind ssp uwtable
define linkonce_odr hidden void @_ZN7content19WebContentsObserver21DidGetUserInteractionERKN5blink13WebInputEventE(%"class.content::WebContentsObserver"*, %"class.blink::WebInputEvent"* dereferenceable(40)) unnamed_addr #0 comdat align 2 {
  ret void
}

; Function Attrs: nounwind ssp uwtable
define linkonce_odr hidden void @_ZN7content19WebContentsObserver20DidGetIgnoredUIEventEv(%"class.content::WebContentsObserver"*) unnamed_addr #0 comdat align 2 {
  ret void
}

; Function Attrs: nounwind ssp uwtable
define linkonce_odr hidden void @_ZN7content19WebContentsObserver19OnVisibilityChangedENS_10VisibilityE(%"class.content::WebContentsObserver"*, i32) unnamed_addr #0 comdat align 2 {
  ret void
}

; Function Attrs: nounwind ssp uwtable
define linkonce_odr hidden void @_ZN7content19WebContentsObserver19MainFrameWasResizedEb(%"class.content::WebContentsObserver"*, i1 zeroext) unnamed_addr #0 comdat align 2 {
  ret void
}

; Function Attrs: nounwind ssp uwtable
define linkonce_odr hidden void @_ZN7content19WebContentsObserver16FrameNameChangedEPNS_15RenderFrameHostERKNSt3__112basic_stringIcNS3_11char_traitsIcEENS3_9allocatorIcEEEE(%"class.content::WebContentsObserver"*, %"class.content::RenderFrameHost"*, %"class.std::__1::basic_string"* dereferenceable(24)) unnamed_addr #0 comdat align 2 {
  ret void
}

; Function Attrs: nounwind ssp uwtable
define linkonce_odr hidden void @_ZN7content19WebContentsObserver27FrameReceivedUserActivationEPNS_15RenderFrameHostE(%"class.content::WebContentsObserver"*, %"class.content::RenderFrameHost"*) unnamed_addr #0 comdat align 2 {
  ret void
}

; Function Attrs: nounwind ssp uwtable
define linkonce_odr hidden void @_ZN7content19WebContentsObserver24FrameDisplayStateChangedEPNS_15RenderFrameHostEb(%"class.content::WebContentsObserver"*, %"class.content::RenderFrameHost"*, i1 zeroext) unnamed_addr #0 comdat align 2 {
  ret void
}

; Function Attrs: nounwind ssp uwtable
define linkonce_odr hidden void @_ZN7content19WebContentsObserver16FrameSizeChangedEPNS_15RenderFrameHostERKN3gfx4SizeE(%"class.content::WebContentsObserver"*, %"class.content::RenderFrameHost"*, %"class.gfx::Size"* dereferenceable(8)) unnamed_addr #0 comdat align 2 {
  ret void
}

; Function Attrs: nounwind ssp uwtable
define linkonce_odr hidden void @_ZN7content19WebContentsObserver11TitleWasSetEPNS_15NavigationEntryE(%"class.content::WebContentsObserver"*, %"class.content::NavigationEntry"*) unnamed_addr #0 comdat align 2 {
  ret void
}

; Function Attrs: nounwind ssp uwtable
define linkonce_odr hidden void @_ZN7content19WebContentsObserver16AppCacheAccessedERK4GURLb(%"class.content::WebContentsObserver"*, %class.GURL* dereferenceable(120), i1 zeroext) unnamed_addr #0 comdat align 2 {
  ret void
}

; Function Attrs: nounwind ssp uwtable
define linkonce_odr hidden void @_ZN7content19WebContentsObserver21PepperInstanceCreatedEv(%"class.content::WebContentsObserver"*) unnamed_addr #0 comdat align 2 {
  ret void
}

; Function Attrs: nounwind ssp uwtable
define linkonce_odr hidden void @_ZN7content19WebContentsObserver21PepperInstanceDeletedEv(%"class.content::WebContentsObserver"*) unnamed_addr #0 comdat align 2 {
  ret void
}

; Function Attrs: nounwind ssp uwtable
define linkonce_odr hidden void @_ZN7content19WebContentsObserver18ViewportFitChangedEN5blink5mojom11ViewportFitE(%"class.content::WebContentsObserver"*, i32) unnamed_addr #0 comdat align 2 {
  ret void
}

; Function Attrs: nounwind ssp uwtable
define linkonce_odr hidden void @_ZN7content19WebContentsObserver13PluginCrashedERKN4base8FilePathEi(%"class.content::WebContentsObserver"*, %"class.base::FilePath"* dereferenceable(24), i32) unnamed_addr #0 comdat align 2 {
  ret void
}

; Function Attrs: nounwind ssp uwtable
define linkonce_odr hidden void @_ZN7content19WebContentsObserver23PluginHungStatusChangedEiRKN4base8FilePathEb(%"class.content::WebContentsObserver"*, i32, %"class.base::FilePath"* dereferenceable(24), i1 zeroext) unnamed_addr #0 comdat align 2 {
  ret void
}

; Function Attrs: nounwind ssp uwtable
define linkonce_odr hidden void @_ZN7content19WebContentsObserver23InnerWebContentsCreatedEPNS_11WebContentsE(%"class.content::WebContentsObserver"*, %"class.content::WebContents"*) unnamed_addr #0 comdat align 2 {
  ret void
}

; Function Attrs: nounwind ssp uwtable
define linkonce_odr hidden void @_ZN7content19WebContentsObserver24InnerWebContentsAttachedEPNS_11WebContentsEPNS_15RenderFrameHostEb(%"class.content::WebContentsObserver"*, %"class.content::WebContents"*, %"class.content::RenderFrameHost"*, i1 zeroext) unnamed_addr #0 comdat align 2 {
  ret void
}

; Function Attrs: nounwind ssp uwtable
define linkonce_odr hidden void @_ZN7content19WebContentsObserver24InnerWebContentsDetachedEPNS_11WebContentsE(%"class.content::WebContentsObserver"*, %"class.content::WebContents"*) unnamed_addr #0 comdat align 2 {
  ret void
}

; Function Attrs: nounwind ssp uwtable
define linkonce_odr hidden void @_ZN7content19WebContentsObserver24DidCloneToNewWebContentsEPNS_11WebContentsES2_(%"class.content::WebContentsObserver"*, %"class.content::WebContents"*, %"class.content::WebContents"*) unnamed_addr #0 comdat align 2 {
  ret void
}

; Function Attrs: nounwind ssp uwtable
define linkonce_odr hidden void @_ZN7content19WebContentsObserver20WebContentsDestroyedEv(%"class.content::WebContentsObserver"*) unnamed_addr #0 comdat align 2 {
  ret void
}

; Function Attrs: nounwind ssp uwtable
define linkonce_odr hidden void @_ZN7content19WebContentsObserver20UserAgentOverrideSetERKN5blink17UserAgentOverrideE(%"class.content::WebContentsObserver"*, %"struct.blink::UserAgentOverride"* dereferenceable(184)) unnamed_addr #0 comdat align 2 {
  ret void
}

; Function Attrs: nounwind ssp uwtable
define linkonce_odr hidden void @_ZN7content19WebContentsObserver19DidUpdateFaviconURLEPNS_15RenderFrameHostERKNSt3__16vectorIN4mojo9StructPtrIN5blink5mojom10FaviconURLEEENS3_9allocatorISA_EEEE(%"class.content::WebContentsObserver"*, %"class.content::RenderFrameHost"*, %"class.std::__1::vector.314"*) unnamed_addr #0 comdat align 2 {
  ret void
}

; Function Attrs: nounwind ssp uwtable
define linkonce_odr hidden void @_ZN7content19WebContentsObserver19OnAudioStateChangedEb(%"class.content::WebContentsObserver"*, i1 zeroext) unnamed_addr #0 comdat align 2 {
  ret void
}

; Function Attrs: nounwind ssp uwtable
define linkonce_odr hidden void @_ZN7content19WebContentsObserver24OnFrameAudioStateChangedEPNS_15RenderFrameHostEb(%"class.content::WebContentsObserver"*, %"class.content::RenderFrameHost"*, i1 zeroext) unnamed_addr #0 comdat align 2 {
  ret void
}

; Function Attrs: nounwind ssp uwtable
define linkonce_odr hidden void @_ZN7content19WebContentsObserver37OnIsConnectedToBluetoothDeviceChangedEb(%"class.content::WebContentsObserver"*, i1 zeroext) unnamed_addr #0 comdat align 2 {
  ret void
}

; Function Attrs: nounwind ssp uwtable
define linkonce_odr hidden void @_ZN7content19WebContentsObserver25DidUpdateAudioMutingStateEb(%"class.content::WebContentsObserver"*, i1 zeroext) unnamed_addr #0 comdat align 2 {
  ret void
}

; Function Attrs: nounwind ssp uwtable
define linkonce_odr hidden void @_ZN7content19WebContentsObserver29DidToggleFullscreenModeForTabEbb(%"class.content::WebContentsObserver"*, i1 zeroext, i1 zeroext) unnamed_addr #0 comdat align 2 {
  ret void
}

; Function Attrs: nounwind ssp uwtable
define linkonce_odr hidden void @_ZN7content19WebContentsObserver20DidAcquireFullscreenEPNS_15RenderFrameHostE(%"class.content::WebContentsObserver"*, %"class.content::RenderFrameHost"*) unnamed_addr #0 comdat align 2 {
  ret void
}

; Function Attrs: nounwind ssp uwtable
define linkonce_odr hidden void @_ZN7content19WebContentsObserver32DidChangeVerticalScrollDirectionEN3viz23VerticalScrollDirectionE(%"class.content::WebContentsObserver"*, i32) unnamed_addr #0 comdat align 2 {
  ret void
}

; Function Attrs: nounwind ssp uwtable
define linkonce_odr hidden void @_ZN7content19WebContentsObserver27BeforeFormRepostWarningShowEv(%"class.content::WebContentsObserver"*) unnamed_addr #0 comdat align 2 {
  ret void
}

; Function Attrs: nounwind ssp uwtable
define linkonce_odr hidden void @_ZN7content19WebContentsObserver17BeforeUnloadFiredEbRKN4base9TimeTicksE(%"class.content::WebContentsObserver"*, i1 zeroext, %"class.base::TimeTicks"* dereferenceable(8)) unnamed_addr #0 comdat align 2 {
  ret void
}

; Function Attrs: nounwind ssp uwtable
define linkonce_odr hidden void @_ZN7content19WebContentsObserver27BeforeUnloadDialogCancelledEv(%"class.content::WebContentsObserver"*) unnamed_addr #0 comdat align 2 {
  ret void
}

; Function Attrs: nounwind ssp uwtable
define linkonce_odr hidden void @_ZN7content19WebContentsObserver30AXTreeIDForMainFrameHasChangedEv(%"class.content::WebContentsObserver"*) unnamed_addr #0 comdat align 2 {
  ret void
}

; Function Attrs: nounwind ssp uwtable
define linkonce_odr hidden void @_ZN7content19WebContentsObserver26AccessibilityEventReceivedERKNS_26AXEventNotificationDetailsE(%"class.content::WebContentsObserver"*, %"struct.content::AXEventNotificationDetails"*) unnamed_addr #0 comdat align 2 {
  ret void
}

; Function Attrs: nounwind ssp uwtable
define linkonce_odr hidden void @_ZN7content19WebContentsObserver36AccessibilityLocationChangesReceivedERKNSt3__16vectorINS_35AXLocationChangeNotificationDetailsENS1_9allocatorIS3_EEEE(%"class.content::WebContentsObserver"*, %"class.std::__1::vector.315"*) unnamed_addr #0 comdat align 2 {
  ret void
}

; Function Attrs: nounwind ssp uwtable
define linkonce_odr hidden void @_ZN7content19WebContentsObserver19DidChangeThemeColorEv(%"class.content::WebContentsObserver"*) unnamed_addr #0 comdat align 2 {
  ret void
}

; Function Attrs: nounwind ssp uwtable
define linkonce_odr hidden void @_ZN7content19WebContentsObserver24OnBackgroundColorChangedEv(%"class.content::WebContentsObserver"*) unnamed_addr #0 comdat align 2 {
  ret void
}

; Function Attrs: nounwind ssp uwtable
define linkonce_odr hidden void @_ZN7content19WebContentsObserver24OnDidAddMessageToConsoleEPNS_15RenderFrameHostEN5blink5mojom19ConsoleMessageLevelERKNSt3__112basic_stringIDsNS6_11char_traitsIDsEENS6_9allocatorIDsEEEEiSE_RKN4absl8optionalISC_EE(%"class.content::WebContentsObserver"*, %"class.content::RenderFrameHost"*, i32, %"class.std::__1::basic_string.316"* dereferenceable(24), i32, %"class.std::__1::basic_string.316"* dereferenceable(24), %"class.absl::optional.325"*) unnamed_addr #0 comdat align 2 {
  ret void
}

; Function Attrs: nounwind ssp uwtable
define linkonce_odr hidden void @_ZN7content19WebContentsObserver19MediaStartedPlayingERKNS0_15MediaPlayerInfoERKNS_13MediaPlayerIdE(%"class.content::WebContentsObserver"*, %"struct.content::WebContentsObserver::MediaPlayerInfo"* dereferenceable(2), %"struct.content::MediaPlayerId"*) unnamed_addr #0 comdat align 2 {
  ret void
}

; Function Attrs: nounwind ssp uwtable
define linkonce_odr hidden void @_ZN7content19WebContentsObserver19MediaStoppedPlayingERKNS0_15MediaPlayerInfoERKNS_13MediaPlayerIdENS0_18MediaStoppedReasonE(%"class.content::WebContentsObserver"*, %"struct.content::WebContentsObserver::MediaPlayerInfo"* dereferenceable(2), %"struct.content::MediaPlayerId"*, i32) unnamed_addr #0 comdat align 2 {
  ret void
}

; Function Attrs: nounwind ssp uwtable
define linkonce_odr hidden void @_ZN7content19WebContentsObserver12MediaResizedERKN3gfx4SizeERKNS_13MediaPlayerIdE(%"class.content::WebContentsObserver"*, %"class.gfx::Size"* dereferenceable(8), %"struct.content::MediaPlayerId"*) unnamed_addr #0 comdat align 2 {
  ret void
}

; Function Attrs: nounwind ssp uwtable
define linkonce_odr hidden void @_ZN7content19WebContentsObserver33MediaEffectivelyFullscreenChangedEb(%"class.content::WebContentsObserver"*, i1 zeroext) unnamed_addr #0 comdat align 2 {
  ret void
}

; Function Attrs: nounwind ssp uwtable
define linkonce_odr hidden void @_ZN7content19WebContentsObserver28MediaPictureInPictureChangedEb(%"class.content::WebContentsObserver"*, i1 zeroext) unnamed_addr #0 comdat align 2 {
  ret void
}

; Function Attrs: nounwind ssp uwtable
define linkonce_odr hidden void @_ZN7content19WebContentsObserver23MediaMutedStatusChangedERKNS_13MediaPlayerIdEb(%"class.content::WebContentsObserver"*, %"struct.content::MediaPlayerId"*, i1 zeroext) unnamed_addr #0 comdat align 2 {
  ret void
}

; Function Attrs: nounwind ssp uwtable
define linkonce_odr hidden void @_ZN7content19WebContentsObserver20MediaBufferUnderflowERKNS_13MediaPlayerIdE(%"class.content::WebContentsObserver"*, %"struct.content::MediaPlayerId"*) unnamed_addr #0 comdat align 2 {
  ret void
}

; Function Attrs: nounwind ssp uwtable
define linkonce_odr hidden void @_ZN7content19WebContentsObserver15MediaPlayerSeekERKNS_13MediaPlayerIdE(%"class.content::WebContentsObserver"*, %"struct.content::MediaPlayerId"*) unnamed_addr #0 comdat align 2 {
  ret void
}

; Function Attrs: nounwind ssp uwtable
define linkonce_odr hidden void @_ZN7content19WebContentsObserver14MediaDestroyedERKNS_13MediaPlayerIdE(%"class.content::WebContentsObserver"*, %"struct.content::MediaPlayerId"*) unnamed_addr #0 comdat align 2 {
  ret void
}

; Function Attrs: nounwind ssp uwtable
define linkonce_odr hidden void @_ZN7content19WebContentsObserver24OnPageScaleFactorChangedEf(%"class.content::WebContentsObserver"*, float) unnamed_addr #0 comdat align 2 {
  ret void
}

; Function Attrs: nounwind ssp uwtable
define linkonce_odr hidden void @_ZN7content19WebContentsObserver7OnPasteEv(%"class.content::WebContentsObserver"*) unnamed_addr #0 comdat align 2 {
  ret void
}

declare zeroext i1 @_ZN7content19WebContentsObserver17OnMessageReceivedERKN3IPC7MessageEPNS_15RenderFrameHostE(%"class.content::WebContentsObserver"*, %"class.IPC::Message"* dereferenceable(56), %"class.content::RenderFrameHost"*) unnamed_addr #1

; Function Attrs: nounwind ssp uwtable
define linkonce_odr hidden void @_ZN7content19WebContentsObserver20OnWebContentsFocusedEPNS_16RenderWidgetHostE(%"class.content::WebContentsObserver"*, %"class.content::RenderWidgetHost"*) unnamed_addr #0 comdat align 2 {
  ret void
}

; Function Attrs: nounwind ssp uwtable
define linkonce_odr hidden void @_ZN7content19WebContentsObserver22OnWebContentsLostFocusEPNS_16RenderWidgetHostE(%"class.content::WebContentsObserver"*, %"class.content::RenderWidgetHost"*) unnamed_addr #0 comdat align 2 {
  ret void
}

; Function Attrs: nounwind ssp uwtable
define linkonce_odr hidden void @_ZN7content19WebContentsObserver20OnFocusChangedInPageEPNS_18FocusedNodeDetailsE(%"class.content::WebContentsObserver"*, %"struct.content::FocusedNodeDetails"*) unnamed_addr #0 comdat align 2 {
  ret void
}

; Function Attrs: nounwind ssp uwtable
define linkonce_odr hidden void @_ZN7content19WebContentsObserver23DidUpdateWebManifestURLEPNS_15RenderFrameHostERKN4absl8optionalI4GURLEE(%"class.content::WebContentsObserver"*, %"class.content::RenderFrameHost"*, %"class.absl::optional.326"* dereferenceable(128)) unnamed_addr #0 comdat align 2 {
  ret void
}

; Function Attrs: nounwind ssp uwtable
define linkonce_odr hidden void @_ZN7content19WebContentsObserver27OnInterfaceRequestFromFrameEPNS_15RenderFrameHostERKNSt3__112basic_stringIcNS3_11char_traitsIcEENS3_9allocatorIcEEEEPN4mojo16ScopedHandleBaseINSC_17MessagePipeHandleEEE(%"class.content::WebContentsObserver"*, %"class.content::RenderFrameHost"*, %"class.std::__1::basic_string"* dereferenceable(24), %"class.mojo::ScopedHandleBase"*) unnamed_addr #0 comdat align 2 {
  ret void
}

; Function Attrs: nounwind ssp uwtable
define linkonce_odr hidden void @_ZN7content19WebContentsObserver27AudioContextPlaybackStartedERKNSt3__14pairIPNS_15RenderFrameHostEiEE(%"class.content::WebContentsObserver"*, %"struct.std::__1::pair.331"*) unnamed_addr #0 comdat align 2 {
  ret void
}

; Function Attrs: nounwind ssp uwtable
define linkonce_odr hidden void @_ZN7content19WebContentsObserver27AudioContextPlaybackStoppedERKNSt3__14pairIPNS_15RenderFrameHostEiEE(%"class.content::WebContentsObserver"*, %"struct.std::__1::pair.331"*) unnamed_addr #0 comdat align 2 {
  ret void
}

; Function Attrs: nounwind ssp uwtable
define linkonce_odr hidden void @_ZN7content19WebContentsObserver23OnServiceWorkerAccessedEPNS_15RenderFrameHostERK4GURLNS_24AllowServiceWorkerResultE(%"class.content::WebContentsObserver"*, %"class.content::RenderFrameHost"*, %class.GURL* dereferenceable(120), i24) unnamed_addr #0 comdat align 2 {
  ret void
}

; Function Attrs: nounwind ssp uwtable
define linkonce_odr hidden void @_ZN7content19WebContentsObserver23OnServiceWorkerAccessedEPNS_16NavigationHandleERK4GURLNS_24AllowServiceWorkerResultE(%"class.content::WebContentsObserver"*, %"class.content::NavigationHandle"*, %class.GURL* dereferenceable(120), i24) unnamed_addr #0 comdat align 2 {
  ret void
}

; Function Attrs: nounwind
declare void @_ZN4mojo8internal20PendingReceiverStateC1EOS1_(%"struct.mojo::internal::PendingReceiverState"*, %"struct.mojo::internal::PendingReceiverState"* dereferenceable(24)) unnamed_addr #5

; Function Attrs: nounwind
declare void @_ZN4mojo8internal20PendingReceiverStateD1Ev(%"struct.mojo::internal::PendingReceiverState"*) unnamed_addr #5

declare void @_ZN4base15CheckedObserverC2Ev(%"class.base::CheckedObserver"*) unnamed_addr #1

; Function Attrs: nounwind
declare void @_ZN4base15CheckedObserverD2Ev(%"class.base::CheckedObserver"*) unnamed_addr #5

declare void @__cxa_pure_virtual() unnamed_addr

; Function Attrs: cold noreturn nounwind
declare void @llvm.trap() #7

declare void @_ZN4mojo8internal21InterfacePtrStateBaseC2Ev(%"class.mojo::internal::InterfacePtrStateBase"*) unnamed_addr #1

; Function Attrs: nounwind
declare void @_ZN4mojo8internal21InterfacePtrStateBaseD2Ev(%"class.mojo::internal::InterfacePtrStateBase"*) unnamed_addr #5

; Function Attrs: nounwind
declare void @_ZN3url6OriginD1Ev(%"class.url::Origin"*) unnamed_addr #5

; Function Attrs: nounwind
declare void @_ZN7content19WebContentsObserverD2Ev(%"class.content::WebContentsObserver"*) unnamed_addr #5

; Function Attrs: nounwind ssp uwtable
define linkonce_odr hidden void @_ZN7content16FrameServiceBaseIN5blink5mojom27ManagedConfigurationServiceEED2Ev(%"class.content::FrameServiceBase"*) unnamed_addr #0 comdat align 2 {
  %2 = getelementptr inbounds %"class.content::FrameServiceBase", %"class.content::FrameServiceBase"* %0, i64 0, i32 1
  %3 = bitcast %"class.content::FrameServiceBase"* %0 to <2 x i32 (...)**>*
  store <2 x i32 (...)**> <i32 (...)** bitcast (i8** getelementptr inbounds ({ [8 x i8*], [109 x i8*] }, { [8 x i8*], [109 x i8*] }* @_ZTVN7content16FrameServiceBaseIN5blink5mojom27ManagedConfigurationServiceEEE, i64 0, inrange i32 0, i64 2) to i32 (...)**), i32 (...)** bitcast (i8** getelementptr inbounds ({ [8 x i8*], [109 x i8*] }, { [8 x i8*], [109 x i8*] }* @_ZTVN7content16FrameServiceBaseIN5blink5mojom27ManagedConfigurationServiceEEE, i64 0, inrange i32 1, i64 2) to i32 (...)**)>, <2 x i32 (...)**>* %3, align 8
  %4 = getelementptr inbounds %"class.content::FrameServiceBase", %"class.content::FrameServiceBase"* %0, i64 0, i32 4, i32 0, i32 0
  tail call void @_ZN4mojo8internal16BindingStateBase5CloseEv(%"class.mojo::internal::BindingStateBase"* %4) #12
  tail call void @_ZN4mojo8internal16BindingStateBaseD2Ev(%"class.mojo::internal::BindingStateBase"* %4) #12
  %5 = getelementptr inbounds %"class.content::FrameServiceBase", %"class.content::FrameServiceBase"* %0, i64 0, i32 3
  tail call void @_ZN3url6OriginD1Ev(%"class.url::Origin"* %5) #12
  tail call void @_ZN7content19WebContentsObserverD2Ev(%"class.content::WebContentsObserver"* %2) #12
  ret void
}

; Function Attrs: nounwind ssp uwtable
define linkonce_odr hidden void @_ZN7content16FrameServiceBaseIN5blink5mojom27ManagedConfigurationServiceEED0Ev(%"class.content::FrameServiceBase"*) unnamed_addr #0 comdat align 2 {
  tail call void @llvm.trap() #14
  unreachable
}

; Function Attrs: nounwind ssp uwtable
define linkonce_odr hidden void @_ZThn8_N7content16FrameServiceBaseIN5blink5mojom27ManagedConfigurationServiceEED1Ev(%"class.content::FrameServiceBase"*) unnamed_addr #0 comdat align 2 {
  %2 = getelementptr inbounds %"class.content::FrameServiceBase", %"class.content::FrameServiceBase"* %0, i64 -1, i32 4, i32 0, i32 1, i32 1
  %3 = getelementptr inbounds %"class.blink::mojom::ManagedConfigurationService"*, %"class.blink::mojom::ManagedConfigurationService"** %2, i64 1
  %4 = bitcast %"class.blink::mojom::ManagedConfigurationService"** %3 to %"class.content::WebContentsObserver"*
  %5 = bitcast %"class.blink::mojom::ManagedConfigurationService"** %2 to <2 x i32 (...)**>*
  store <2 x i32 (...)**> <i32 (...)** bitcast (i8** getelementptr inbounds ({ [8 x i8*], [109 x i8*] }, { [8 x i8*], [109 x i8*] }* @_ZTVN7content16FrameServiceBaseIN5blink5mojom27ManagedConfigurationServiceEEE, i64 0, inrange i32 0, i64 2) to i32 (...)**), i32 (...)** bitcast (i8** getelementptr inbounds ({ [8 x i8*], [109 x i8*] }, { [8 x i8*], [109 x i8*] }* @_ZTVN7content16FrameServiceBaseIN5blink5mojom27ManagedConfigurationServiceEEE, i64 0, inrange i32 1, i64 2) to i32 (...)**)>, <2 x i32 (...)**>* %5, align 8
  %6 = getelementptr inbounds %"class.blink::mojom::ManagedConfigurationService"*, %"class.blink::mojom::ManagedConfigurationService"** %2, i64 14
  %7 = bitcast %"class.blink::mojom::ManagedConfigurationService"** %6 to %"class.mojo::internal::BindingStateBase"*
  tail call void @_ZN4mojo8internal16BindingStateBase5CloseEv(%"class.mojo::internal::BindingStateBase"* %7) #12
  tail call void @_ZN4mojo8internal16BindingStateBaseD2Ev(%"class.mojo::internal::BindingStateBase"* %7) #12
  %8 = getelementptr inbounds %"class.blink::mojom::ManagedConfigurationService"*, %"class.blink::mojom::ManagedConfigurationService"** %2, i64 4
  %9 = bitcast %"class.blink::mojom::ManagedConfigurationService"** %8 to %"class.url::Origin"*
  tail call void @_ZN3url6OriginD1Ev(%"class.url::Origin"* %9) #12
  tail call void @_ZN7content19WebContentsObserverD2Ev(%"class.content::WebContentsObserver"* %4) #12
  ret void
}

; Function Attrs: nounwind ssp uwtable
define linkonce_odr hidden void @_ZThn8_N7content16FrameServiceBaseIN5blink5mojom27ManagedConfigurationServiceEED0Ev(%"class.content::FrameServiceBase"*) unnamed_addr #0 comdat align 2 {
  tail call void @llvm.trap() #14
  unreachable
}

declare void @_ZN4mojo8internal16BindingStateBase5CloseEv(%"class.mojo::internal::BindingStateBase"*) local_unnamed_addr #1

; Function Attrs: nounwind
declare void @_ZN4mojo8internal16BindingStateBaseD2Ev(%"class.mojo::internal::BindingStateBase"*) unnamed_addr #5

; Function Attrs: nounwind
declare void @_ZN4mojo8internal18PendingRemoteStateC1EOS1_(%"struct.mojo::internal::PendingRemoteState"*, %"struct.mojo::internal::PendingRemoteState"* dereferenceable(8)) unnamed_addr #5

; Function Attrs: nounwind
declare void @_ZN4mojo8internal18PendingRemoteStateD1Ev(%"struct.mojo::internal::PendingRemoteState"*) unnamed_addr #5

; Function Attrs: argmemonly nounwind
declare void @llvm.memcpy.p0i8.p0i8.i64(i8* nocapture writeonly, i8* nocapture readonly, i64, i1 immarg) #2

declare %"class.content::WebContents"* @_ZN7content11WebContents19FromRenderFrameHostEPNS_15RenderFrameHostE(%"class.content::RenderFrameHost"*) local_unnamed_addr #1

declare void @_ZN7content19WebContentsObserverC2EPNS_11WebContentsE(%"class.content::WebContentsObserver"*, %"class.content::WebContents"*) unnamed_addr #1

declare void @_ZN3url6OriginC1ERKS0_(%"class.url::Origin"*, %"class.url::Origin"* dereferenceable(80)) unnamed_addr #1

; Function Attrs: nounwind ssp uwtable
define linkonce_odr hidden void @_ZN7content16FrameServiceBaseIN5blink5mojom27ManagedConfigurationServiceEE5CloseEv(%"class.content::FrameServiceBase"*) #0 comdat align 2 {
  %2 = icmp eq %"class.content::FrameServiceBase"* %0, null
  br i1 %2, label %8, label %3

3:                                                ; preds = %1
  %4 = bitcast %"class.content::FrameServiceBase"* %0 to void (%"class.content::FrameServiceBase"*)***
  %5 = load void (%"class.content::FrameServiceBase"*)**, void (%"class.content::FrameServiceBase"*)*** %4, align 8
  %6 = getelementptr inbounds void (%"class.content::FrameServiceBase"*)*, void (%"class.content::FrameServiceBase"*)** %5, i64 1
  %7 = load void (%"class.content::FrameServiceBase"*)*, void (%"class.content::FrameServiceBase"*)** %6, align 8
  tail call void %7(%"class.content::FrameServiceBase"* nonnull %0) #12
  br label %8

8:                                                ; preds = %3, %1
  ret void
}

; Function Attrs: nounwind ssp uwtable
define linkonce_odr hidden void @_ZN5blink5mojom27ManagedConfigurationServiceD2Ev(%"class.blink::mojom::ManagedConfigurationService"*) unnamed_addr #0 comdat align 2 {
  ret void
}

; Function Attrs: nounwind ssp uwtable
define linkonce_odr hidden void @_ZN5blink5mojom27ManagedConfigurationServiceD0Ev(%"class.blink::mojom::ManagedConfigurationService"*) unnamed_addr #0 comdat align 2 {
  tail call void @llvm.trap() #14
  unreachable
}

declare void @_ZN4mojo8internal16BindingStateBaseC2Ev(%"class.mojo::internal::BindingStateBase"*) unnamed_addr #1

; Function Attrs: nounwind ssp uwtable
define linkonce_odr hidden void @_ZN5blink5mojom31ManagedConfigurationServiceStubIN4mojo19RawPtrImplRefTraitsINS0_27ManagedConfigurationServiceEEEED0Ev(%"class.blink::mojom::ManagedConfigurationServiceStub"*) unnamed_addr #0 comdat align 2 {
  %2 = bitcast %"class.blink::mojom::ManagedConfigurationServiceStub"* %0 to i8*
  tail call void @_ZdlPv(i8* %2) #13
  ret void
}

declare zeroext i1 @_ZN4mojo15MessageReceiver25PrefersSerializedMessagesEv(%"class.mojo::MessageReceiver"*) unnamed_addr #1

; Function Attrs: nounwind ssp uwtable
define linkonce_odr hidden zeroext i1 @_ZN5blink5mojom31ManagedConfigurationServiceStubIN4mojo19RawPtrImplRefTraitsINS0_27ManagedConfigurationServiceEEEE6AcceptEPNS2_7MessageE(%"class.blink::mojom::ManagedConfigurationServiceStub"*, %"class.mojo::Message"*) unnamed_addr #0 comdat align 2 {
  %3 = getelementptr inbounds %"class.blink::mojom::ManagedConfigurationServiceStub", %"class.blink::mojom::ManagedConfigurationServiceStub"* %0, i64 0, i32 1
  %4 = load %"class.blink::mojom::ManagedConfigurationService"*, %"class.blink::mojom::ManagedConfigurationService"** %3, align 8
  %5 = icmp eq %"class.blink::mojom::ManagedConfigurationService"* %4, null
  br i1 %5, label %8, label %6

6:                                                ; preds = %2
  %7 = tail call zeroext i1 @_ZN5blink5mojom39ManagedConfigurationServiceStubDispatch6AcceptEPNS0_27ManagedConfigurationServiceEPN4mojo7MessageE(%"class.blink::mojom::ManagedConfigurationService"* nonnull %4, %"class.mojo::Message"* %1) #12
  br label %8

8:                                                ; preds = %2, %6
  %9 = phi i1 [ %7, %6 ], [ false, %2 ]
  ret i1 %9
}

; Function Attrs: nounwind ssp uwtable
define linkonce_odr hidden zeroext i1 @_ZN5blink5mojom31ManagedConfigurationServiceStubIN4mojo19RawPtrImplRefTraitsINS0_27ManagedConfigurationServiceEEEE19AcceptWithResponderEPNS2_7MessageENSt3__110unique_ptrINS2_25MessageReceiverWithStatusENS9_14default_deleteISB_EEEE(%"class.blink::mojom::ManagedConfigurationServiceStub"*, %"class.mojo::Message"*, %"class.mojo::MessageReceiverWithStatus"*) unnamed_addr #0 comdat align 2 {
  %4 = getelementptr inbounds %"class.blink::mojom::ManagedConfigurationServiceStub", %"class.blink::mojom::ManagedConfigurationServiceStub"* %0, i64 0, i32 1
  %5 = load %"class.blink::mojom::ManagedConfigurationService"*, %"class.blink::mojom::ManagedConfigurationService"** %4, align 8
  %6 = icmp eq %"class.blink::mojom::ManagedConfigurationService"* %5, null
  br i1 %6, label %9, label %7

7:                                                ; preds = %3
  %8 = tail call zeroext i1 @_ZN5blink5mojom39ManagedConfigurationServiceStubDispatch19AcceptWithResponderEPNS0_27ManagedConfigurationServiceEPN4mojo7MessageENSt3__110unique_ptrINS4_25MessageReceiverWithStatusENS7_14default_deleteIS9_EEEE(%"class.blink::mojom::ManagedConfigurationService"* nonnull %5, %"class.mojo::Message"* %1, %"class.mojo::MessageReceiverWithStatus"* %2) #12
  br label %16

9:                                                ; preds = %3
  %10 = icmp eq %"class.mojo::MessageReceiverWithStatus"* %2, null
  br i1 %10, label %16, label %11

11:                                               ; preds = %9
  %12 = bitcast %"class.mojo::MessageReceiverWithStatus"* %2 to void (%"class.mojo::MessageReceiverWithStatus"*)***
  %13 = load void (%"class.mojo::MessageReceiverWithStatus"*)**, void (%"class.mojo::MessageReceiverWithStatus"*)*** %12, align 8
  %14 = getelementptr inbounds void (%"class.mojo::MessageReceiverWithStatus"*)*, void (%"class.mojo::MessageReceiverWithStatus"*)** %13, i64 1
  %15 = load void (%"class.mojo::MessageReceiverWithStatus"*)*, void (%"class.mojo::MessageReceiverWithStatus"*)** %14, align 8
  tail call void %15(%"class.mojo::MessageReceiverWithStatus"* nonnull %2) #12
  br label %16

16:                                               ; preds = %7, %9, %11
  %17 = phi i1 [ %8, %7 ], [ false, %9 ], [ false, %11 ]
  ret i1 %17
}

; Function Attrs: nounwind ssp uwtable
define linkonce_odr hidden void @_ZN4mojo15MessageReceiverD2Ev(%"class.mojo::MessageReceiver"*) unnamed_addr #0 comdat align 2 {
  ret void
}

declare zeroext i1 @_ZN5blink5mojom39ManagedConfigurationServiceStubDispatch6AcceptEPNS0_27ManagedConfigurationServiceEPN4mojo7MessageE(%"class.blink::mojom::ManagedConfigurationService"*, %"class.mojo::Message"*) local_unnamed_addr #1

declare zeroext i1 @_ZN5blink5mojom39ManagedConfigurationServiceStubDispatch19AcceptWithResponderEPNS0_27ManagedConfigurationServiceEPN4mojo7MessageENSt3__110unique_ptrINS4_25MessageReceiverWithStatusENS7_14default_deleteIS9_EEEE(%"class.blink::mojom::ManagedConfigurationService"*, %"class.mojo::Message"*, %"class.mojo::MessageReceiverWithStatus"*) local_unnamed_addr #1

declare void @_ZN4mojo8internal16BindingStateBase12BindInternalEPNS0_20PendingReceiverStateE13scoped_refptrIN4base19SequencedTaskRunnerEEPKcNSt3__110unique_ptrINS_15MessageReceiverENSA_14default_deleteISC_EEEEbbPNS_34MessageReceiverWithResponderStatusEj(%"class.mojo::internal::BindingStateBase"*, %"struct.mojo::internal::PendingReceiverState"*, %"class.base::SequencedTaskRunner"*, i8*, %"class.mojo::MessageReceiver"*, i1 zeroext, i1 zeroext, %"class.mojo::MessageReceiverWithResponderStatus"*, i32) local_unnamed_addr #1

; Function Attrs: argmemonly nounwind
declare void @llvm.memset.p0i8.i64(i8* nocapture writeonly, i8, i64, i1 immarg) #2

declare void @_ZN4base16TaskRunnerTraits8DestructEPKNS_10TaskRunnerE(%"class.base::TaskRunner"*) local_unnamed_addr #1

declare void @_ZN4base8internal12CallbackBase5ResetEv(%"class.base::internal::CallbackBase"*) local_unnamed_addr #1

; Function Attrs: nounwind
declare dereferenceable(8) %"class.base::internal::CallbackBase"* @_ZN4base8internal12CallbackBaseaSEOS1_(%"class.base::internal::CallbackBase"*, %"class.base::internal::CallbackBase"* dereferenceable(8)) local_unnamed_addr #5

; Function Attrs: nounwind ssp uwtable
define linkonce_odr hidden void @_ZN4base8internal7InvokerINS0_9BindStateIMN7content16FrameServiceBaseIN5blink5mojom27ManagedConfigurationServiceEEEFvvEJNS0_17UnretainedWrapperIS8_EEEEEFvvEE7RunOnceEPNS0_13BindStateBaseE(%"class.base::internal::BindStateBase"*) #0 comdat align 2 {
  %2 = getelementptr inbounds %"class.base::internal::BindStateBase", %"class.base::internal::BindStateBase"* %0, i64 1
  %3 = getelementptr inbounds %"class.base::internal::BindStateBase", %"class.base::internal::BindStateBase"* %0, i64 1, i32 2
  %4 = bitcast void (%"class.base::internal::BindStateBase"*)** %3 to i8**
  %5 = load i8*, i8** %4, align 8
  %6 = bitcast %"class.base::internal::BindStateBase"* %2 to i64*
  %7 = load i64, i64* %6, align 8
  %8 = getelementptr inbounds %"class.base::internal::BindStateBase", %"class.base::internal::BindStateBase"* %0, i64 1, i32 1
  %9 = bitcast void ()** %8 to i64*
  %10 = load i64, i64* %9, align 8
  %11 = getelementptr inbounds i8, i8* %5, i64 %10
  %12 = bitcast i8* %11 to %"class.content::FrameServiceBase"*
  %13 = and i64 %7, 1
  %14 = icmp eq i64 %13, 0
  br i1 %14, label %22, label %15

15:                                               ; preds = %1
  %16 = bitcast i8* %11 to i8**
  %17 = load i8*, i8** %16, align 8
  %18 = add i64 %7, -1
  %19 = getelementptr i8, i8* %17, i64 %18
  %20 = bitcast i8* %19 to void (%"class.content::FrameServiceBase"*)**
  %21 = load void (%"class.content::FrameServiceBase"*)*, void (%"class.content::FrameServiceBase"*)** %20, align 8
  br label %24

22:                                               ; preds = %1
  %23 = inttoptr i64 %7 to void (%"class.content::FrameServiceBase"*)*
  br label %24

24:                                               ; preds = %15, %22
  %25 = phi void (%"class.content::FrameServiceBase"*)* [ %21, %15 ], [ %23, %22 ]
  tail call void %25(%"class.content::FrameServiceBase"* %12) #12
  ret void
}

; Function Attrs: nounwind ssp uwtable
define linkonce_odr hidden void @_ZN4base8internal9BindStateIMN7content16FrameServiceBaseIN5blink5mojom27ManagedConfigurationServiceEEEFvvEJNS0_17UnretainedWrapperIS7_EEEE7DestroyEPKNS0_13BindStateBaseE(%"class.base::internal::BindStateBase"*) #0 comdat align 2 {
  %2 = icmp eq %"class.base::internal::BindStateBase"* %0, null
  br i1 %2, label %5, label %3

3:                                                ; preds = %1
  %4 = bitcast %"class.base::internal::BindStateBase"* %0 to i8*
  tail call void @_ZdlPv(i8* %4) #13
  br label %5

5:                                                ; preds = %3, %1
  ret void
}

declare void @_ZN4base8internal13BindStateBaseC2EPFvvEPFvPKS1_E(%"class.base::internal::BindStateBase"*, void ()*, void (%"class.base::internal::BindStateBase"*)*) unnamed_addr #1

; Function Attrs: nounwind ssp uwtable
define internal void @"_ZN4base8internal7InvokerINS0_9BindStateIZN31ManagedConfigurationServiceImpl23GetManagedConfigurationERKNSt3__16vectorINS4_12basic_stringIcNS4_11char_traitsIcEENS4_9allocatorIcEEEENS9_ISB_EEEENS_12OnceCallbackIFvRKN4absl8optionalINS_8flat_mapISB_SB_NS4_4lessIvEENS5_INS4_4pairISB_SB_EENS9_ISN_EEEEEEEEEEEE3$_0JSV_EEEFvNS4_10unique_ptrINS_15DictionaryValueENS4_14default_deleteISZ_EEEEEE7RunOnceEPNS0_13BindStateBaseEOS12_"(%"class.base::internal::BindStateBase"* nocapture, %"class.std::__1::unique_ptr.363"* nocapture dereferenceable(8)) #0 align 2 {
  %3 = alloca %"class.base::OnceCallback.285", align 8
  %4 = alloca %"class.base::OnceCallback.285", align 8
  %5 = alloca %"class.absl::optional.403", align 8
  %6 = alloca %"class.std::__1::vector.410", align 8
  %7 = alloca %"class.base::detail::dict_iterator_proxy", align 8
  %8 = alloca %"class.base::detail::dict_iterator", align 8
  %9 = alloca %"class.base::detail::dict_iterator", align 8
  %10 = alloca %"class.absl::optional.403", align 8
  %11 = alloca %"class.base::flat_map.408", align 16
  %12 = alloca %"class.base::OnceCallback.285", align 8
  %13 = getelementptr inbounds %"class.base::internal::BindStateBase", %"class.base::internal::BindStateBase"* %0, i64 1, i32 1
  %14 = bitcast %"class.base::OnceCallback.285"* %12 to i8*
  call void @llvm.lifetime.start.p0i8(i64 8, i8* nonnull %14) #12
  %15 = bitcast void ()** %13 to %"class.base::internal::BindStateBase"**
  %16 = bitcast void ()** %13 to i64*
  %17 = load i64, i64* %16, align 8
  %18 = bitcast %"class.base::OnceCallback.285"* %12 to i64*
  store i64 %17, i64* %18, align 8
  store %"class.base::internal::BindStateBase"* null, %"class.base::internal::BindStateBase"** %15, align 8
  %19 = getelementptr inbounds %"class.std::__1::unique_ptr.363", %"class.std::__1::unique_ptr.363"* %1, i64 0, i32 0, i32 0, i32 0
  %20 = load %"class.base::DictionaryValue"*, %"class.base::DictionaryValue"** %19, align 8
  store %"class.base::DictionaryValue"* null, %"class.base::DictionaryValue"** %19, align 8
  %21 = icmp eq %"class.base::DictionaryValue"* %20, null
  br i1 %21, label %22, label %74

22:                                               ; preds = %2
  %23 = getelementptr inbounds %"class.absl::optional.403", %"class.absl::optional.403"* %5, i64 0, i32 0, i32 0, i32 0, i32 0
  call void @llvm.lifetime.start.p0i8(i64 32, i8* nonnull %23) #12
  store i8 0, i8* %23, align 8
  %24 = getelementptr inbounds %"class.absl::optional.403", %"class.absl::optional.403"* %5, i64 0, i32 0, i32 0, i32 0, i32 1
  %25 = bitcast %union.anon.407* %24 to i8*
  call void @llvm.memset.p0i8.i64(i8* align 8 %25, i8 0, i64 24, i1 false) #12
  %26 = bitcast %"class.base::OnceCallback.285"* %4 to i8*
  call void @llvm.lifetime.start.p0i8(i64 8, i8* nonnull %26) #12
  %27 = getelementptr inbounds %"class.base::OnceCallback.285", %"class.base::OnceCallback.285"* %12, i64 0, i32 0, i32 0, i32 0
  %28 = bitcast %"class.base::OnceCallback.285"* %4 to i64*
  store i64 %17, i64* %28, align 8
  store %"class.base::internal::BindStateBase"* null, %"class.base::internal::BindStateBase"** %27, align 8
  %29 = getelementptr inbounds %"class.base::OnceCallback.285", %"class.base::OnceCallback.285"* %4, i64 0, i32 0
  %30 = inttoptr i64 %17 to %"class.base::internal::BindStateBase"*
  %31 = getelementptr inbounds %"class.base::internal::BindStateBase", %"class.base::internal::BindStateBase"* %30, i64 0, i32 1
  %32 = bitcast void ()** %31 to void (%"class.base::internal::BindStateBase"*, %"class.absl::optional.403"*)**
  %33 = load void (%"class.base::internal::BindStateBase"*, %"class.absl::optional.403"*)*, void (%"class.base::internal::BindStateBase"*, %"class.absl::optional.403"*)** %32, align 8
  call void %33(%"class.base::internal::BindStateBase"* %30, %"class.absl::optional.403"* nonnull dereferenceable(32) %5) #12
  call void @_ZN4base8internal12CallbackBaseD2Ev(%"class.base::internal::CallbackBase"* nonnull %29) #12
  call void @llvm.lifetime.end.p0i8(i64 8, i8* nonnull %26) #12
  %34 = load i8, i8* %23, align 8, !range !12
  %35 = icmp eq i8 %34, 0
  br i1 %35, label %73, label %36

36:                                               ; preds = %22
  %37 = getelementptr inbounds %"class.absl::optional.403", %"class.absl::optional.403"* %5, i64 0, i32 0, i32 0, i32 0, i32 1, i32 0, i32 0
  %38 = getelementptr inbounds %"class.base::internal::flat_tree.409", %"class.base::internal::flat_tree.409"* %37, i64 0, i32 0, i32 0, i32 0
  %39 = load %"struct.std::__1::pair.412"*, %"struct.std::__1::pair.412"** %38, align 8
  %40 = icmp eq %"struct.std::__1::pair.412"* %39, null
  br i1 %40, label %72, label %41

41:                                               ; preds = %36
  %42 = bitcast %"struct.std::__1::pair.412"* %39 to i8*
  %43 = getelementptr inbounds %"class.absl::optional.403", %"class.absl::optional.403"* %5, i64 0, i32 0, i32 0, i32 0, i32 1, i32 0, i32 0, i32 0, i32 0, i32 1
  %44 = load %"struct.std::__1::pair.412"*, %"struct.std::__1::pair.412"** %43, align 8
  %45 = icmp eq %"struct.std::__1::pair.412"* %44, %39
  br i1 %45, label %70, label %46

46:                                               ; preds = %41, %65
  %47 = phi %"struct.std::__1::pair.412"* [ %48, %65 ], [ %44, %41 ]
  %48 = getelementptr inbounds %"struct.std::__1::pair.412", %"struct.std::__1::pair.412"* %47, i64 -1
  %49 = getelementptr inbounds %"struct.std::__1::pair.412", %"struct.std::__1::pair.412"* %47, i64 -1, i32 1
  %50 = bitcast %"class.std::__1::basic_string"* %49 to %"struct.std::__1::basic_string<char, std::__1::char_traits<char>, std::__1::allocator<char> >::__short"*
  %51 = getelementptr inbounds %"struct.std::__1::basic_string<char, std::__1::char_traits<char>, std::__1::allocator<char> >::__short", %"struct.std::__1::basic_string<char, std::__1::char_traits<char>, std::__1::allocator<char> >::__short"* %50, i64 0, i32 1, i32 0
  %52 = load i8, i8* %51, align 1
  %53 = icmp slt i8 %52, 0
  br i1 %53, label %54, label %57

54:                                               ; preds = %46
  %55 = getelementptr inbounds %"class.std::__1::basic_string", %"class.std::__1::basic_string"* %49, i64 0, i32 0, i32 0, i32 0, i32 0, i32 0, i32 0
  %56 = load i8*, i8** %55, align 8
  call void @_ZdlPv(i8* %56) #13
  br label %57

57:                                               ; preds = %54, %46
  %58 = bitcast %"struct.std::__1::pair.412"* %48 to %"struct.std::__1::basic_string<char, std::__1::char_traits<char>, std::__1::allocator<char> >::__short"*
  %59 = getelementptr inbounds %"struct.std::__1::basic_string<char, std::__1::char_traits<char>, std::__1::allocator<char> >::__short", %"struct.std::__1::basic_string<char, std::__1::char_traits<char>, std::__1::allocator<char> >::__short"* %58, i64 0, i32 1, i32 0
  %60 = load i8, i8* %59, align 1
  %61 = icmp slt i8 %60, 0
  br i1 %61, label %62, label %65

62:                                               ; preds = %57
  %63 = getelementptr inbounds %"struct.std::__1::pair.412", %"struct.std::__1::pair.412"* %48, i64 0, i32 0, i32 0, i32 0, i32 0, i32 0, i32 0, i32 0
  %64 = load i8*, i8** %63, align 8
  call void @_ZdlPv(i8* %64) #13
  br label %65

65:                                               ; preds = %62, %57
  %66 = icmp eq %"struct.std::__1::pair.412"* %48, %39
  br i1 %66, label %67, label %46

67:                                               ; preds = %65
  %68 = bitcast %"class.base::internal::flat_tree.409"* %37 to i8**
  %69 = load i8*, i8** %68, align 8
  br label %70

70:                                               ; preds = %67, %41
  %71 = phi i8* [ %69, %67 ], [ %42, %41 ]
  store %"struct.std::__1::pair.412"* %39, %"struct.std::__1::pair.412"** %43, align 8
  call void @_ZdlPv(i8* %71) #13
  br label %72

72:                                               ; preds = %70, %36
  store i8 0, i8* %23, align 8
  br label %73

73:                                               ; preds = %72, %22
  call void @llvm.lifetime.end.p0i8(i64 32, i8* nonnull %23) #12
  br label %271

74:                                               ; preds = %2
  %75 = bitcast %"class.std::__1::vector.410"* %6 to i8*
  call void @llvm.lifetime.start.p0i8(i64 24, i8* nonnull %75) #12
  %76 = getelementptr inbounds %"class.std::__1::vector.410", %"class.std::__1::vector.410"* %6, i64 0, i32 0, i32 0
  %77 = getelementptr inbounds %"class.std::__1::vector.410", %"class.std::__1::vector.410"* %6, i64 0, i32 0, i32 1
  %78 = getelementptr inbounds %"class.std::__1::vector.410", %"class.std::__1::vector.410"* %6, i64 0, i32 0, i32 2, i32 0, i32 0
  call void @llvm.memset.p0i8.i64(i8* nonnull align 8 %75, i8 0, i64 24, i1 false) #12
  %79 = bitcast %"class.base::detail::dict_iterator_proxy"* %7 to i8*
  call void @llvm.lifetime.start.p0i8(i64 8, i8* nonnull %79) #12
  %80 = getelementptr inbounds %"class.base::DictionaryValue", %"class.base::DictionaryValue"* %20, i64 0, i32 0
  %81 = tail call %"class.base::flat_map"* @_ZN4base5Value9DictItemsEv(%"class.base::Value"* %80) #12
  %82 = getelementptr inbounds %"class.base::detail::dict_iterator_proxy", %"class.base::detail::dict_iterator_proxy"* %7, i64 0, i32 0
  store %"class.base::flat_map"* %81, %"class.base::flat_map"** %82, align 8
  %83 = bitcast %"class.base::detail::dict_iterator"* %8 to i8*
  call void @llvm.lifetime.start.p0i8(i64 8, i8* nonnull %83) #12
  %84 = getelementptr inbounds %"class.base::detail::dict_iterator", %"class.base::detail::dict_iterator"* %8, i64 0, i32 0, i32 0
  store %"struct.std::__1::pair.381"* inttoptr (i64 -6148914691236517206 to %"struct.std::__1::pair.381"*), %"struct.std::__1::pair.381"** %84, align 8
  call void @_ZN4base6detail19dict_iterator_proxy5beginEv(%"class.base::detail::dict_iterator"* nonnull sret %8, %"class.base::detail::dict_iterator_proxy"* nonnull %7) #12
  %85 = bitcast %"class.base::detail::dict_iterator"* %9 to i8*
  call void @llvm.lifetime.start.p0i8(i64 8, i8* nonnull %85) #12
  %86 = getelementptr inbounds %"class.base::detail::dict_iterator", %"class.base::detail::dict_iterator"* %9, i64 0, i32 0, i32 0
  store %"struct.std::__1::pair.381"* inttoptr (i64 -6148914691236517206 to %"struct.std::__1::pair.381"*), %"struct.std::__1::pair.381"** %86, align 8
  call void @_ZN4base6detail19dict_iterator_proxy3endEv(%"class.base::detail::dict_iterator"* nonnull sret %9, %"class.base::detail::dict_iterator_proxy"* nonnull %7) #12
  %87 = call zeroext i1 @_ZN4base6detailneERKNS0_13dict_iteratorES3_(%"class.base::detail::dict_iterator"* nonnull dereferenceable(8) %8, %"class.base::detail::dict_iterator"* nonnull dereferenceable(8) %9) #12
  %88 = bitcast %"struct.std::__1::pair.412"** %77 to i64*
  br i1 %87, label %228, label %89

89:                                               ; preds = %268, %74
  call void @_ZN4base6detail13dict_iteratorD1Ev(%"class.base::detail::dict_iterator"* nonnull %9) #12
  call void @llvm.lifetime.end.p0i8(i64 8, i8* nonnull %85) #12
  call void @_ZN4base6detail13dict_iteratorD1Ev(%"class.base::detail::dict_iterator"* nonnull %8) #12
  call void @llvm.lifetime.end.p0i8(i64 8, i8* nonnull %83) #12
  call void @llvm.lifetime.end.p0i8(i64 8, i8* nonnull %79) #12
  %90 = getelementptr inbounds %"class.absl::optional.403", %"class.absl::optional.403"* %10, i64 0, i32 0, i32 0, i32 0, i32 0
  call void @llvm.lifetime.start.p0i8(i64 32, i8* nonnull %90) #12
  %91 = bitcast %"class.base::flat_map.408"* %11 to i8*
  call void @llvm.lifetime.start.p0i8(i64 24, i8* nonnull %91) #12
  %92 = getelementptr inbounds %"class.base::flat_map.408", %"class.base::flat_map.408"* %11, i64 0, i32 0
  %93 = bitcast %"class.std::__1::vector.410"* %6 to i64*
  %94 = load i64, i64* %93, align 8
  %95 = bitcast %"class.base::flat_map.408"* %11 to i64*
  store i64 %94, i64* %95, align 16
  %96 = getelementptr inbounds %"class.base::flat_map.408", %"class.base::flat_map.408"* %11, i64 0, i32 0, i32 0, i32 0, i32 1
  %97 = bitcast %"struct.std::__1::pair.412"** %77 to <2 x i64>*
  %98 = load <2 x i64>, <2 x i64>* %97, align 8
  %99 = getelementptr inbounds %"class.base::flat_map.408", %"class.base::flat_map.408"* %11, i64 0, i32 0, i32 0, i32 0, i32 2, i32 0, i32 0
  %100 = bitcast %"struct.std::__1::pair.412"** %99 to i64*
  %101 = bitcast %"struct.std::__1::pair.412"** %96 to <2 x i64>*
  store <2 x i64> %98, <2 x i64>* %101, align 8
  call void @llvm.memset.p0i8.i64(i8* nonnull align 8 %75, i8 0, i64 24, i1 false) #12
  %102 = getelementptr inbounds %"class.base::flat_map.408", %"class.base::flat_map.408"* %11, i64 0, i32 0, i32 0, i32 0, i32 0
  %103 = inttoptr i64 %94 to %"struct.std::__1::pair.412"*
  %104 = extractelement <2 x i64> %98, i32 0
  %105 = inttoptr i64 %104 to %"struct.std::__1::pair.412"*
  call void @_ZN4base8internal9flat_treeINSt3__112basic_stringIcNS2_11char_traitsIcEENS2_9allocatorIcEEEENS0_8GetFirstENS2_4lessIvEENS2_6vectorINS2_4pairIS8_S8_EENS6_ISE_EEEEE15sort_and_uniqueENS2_11__wrap_iterIPSE_EESK_(%"class.base::internal::flat_tree.409"* nonnull %92, %"struct.std::__1::pair.412"* %103, %"struct.std::__1::pair.412"* %105) #12
  store i8 1, i8* %90, align 8
  %106 = getelementptr inbounds %"class.absl::optional.403", %"class.absl::optional.403"* %10, i64 0, i32 0, i32 0, i32 0, i32 1, i32 0
  %107 = bitcast %"class.base::flat_map.408"* %11 to <2 x i64>*
  %108 = load <2 x i64>, <2 x i64>* %107, align 16
  %109 = getelementptr inbounds %"class.absl::optional.403", %"class.absl::optional.403"* %10, i64 0, i32 0, i32 0, i32 0, i32 1, i32 0, i32 0, i32 0, i32 0, i32 1
  %110 = bitcast %"class.base::flat_map.408"* %106 to <2 x i64>*
  store <2 x i64> %108, <2 x i64>* %110, align 8
  %111 = load i64, i64* %100, align 16
  %112 = getelementptr inbounds %"class.absl::optional.403", %"class.absl::optional.403"* %10, i64 0, i32 0, i32 0, i32 0, i32 1, i32 0, i32 0, i32 0, i32 0, i32 2, i32 0, i32 0
  %113 = bitcast %"struct.std::__1::pair.412"** %112 to i64*
  store i64 %111, i64* %113, align 8
  call void @llvm.memset.p0i8.i64(i8* nonnull align 16 %91, i8 0, i64 24, i1 false) #12
  %114 = bitcast %"class.base::OnceCallback.285"* %3 to i8*
  call void @llvm.lifetime.start.p0i8(i64 8, i8* nonnull %114) #12
  %115 = getelementptr inbounds %"class.base::OnceCallback.285", %"class.base::OnceCallback.285"* %12, i64 0, i32 0, i32 0, i32 0
  %116 = load i64, i64* %18, align 8
  %117 = bitcast %"class.base::OnceCallback.285"* %3 to i64*
  store i64 %116, i64* %117, align 8
  store %"class.base::internal::BindStateBase"* null, %"class.base::internal::BindStateBase"** %115, align 8
  %118 = getelementptr inbounds %"class.base::OnceCallback.285", %"class.base::OnceCallback.285"* %3, i64 0, i32 0
  %119 = inttoptr i64 %116 to %"class.base::internal::BindStateBase"*
  %120 = getelementptr inbounds %"class.base::internal::BindStateBase", %"class.base::internal::BindStateBase"* %119, i64 0, i32 1
  %121 = bitcast void ()** %120 to void (%"class.base::internal::BindStateBase"*, %"class.absl::optional.403"*)**
  %122 = load void (%"class.base::internal::BindStateBase"*, %"class.absl::optional.403"*)*, void (%"class.base::internal::BindStateBase"*, %"class.absl::optional.403"*)** %121, align 8
  call void %122(%"class.base::internal::BindStateBase"* %119, %"class.absl::optional.403"* nonnull dereferenceable(32) %10) #12
  call void @_ZN4base8internal12CallbackBaseD2Ev(%"class.base::internal::CallbackBase"* nonnull %118) #12
  call void @llvm.lifetime.end.p0i8(i64 8, i8* nonnull %114) #12
  %123 = load i8, i8* %90, align 8, !range !12
  %124 = icmp eq i8 %123, 0
  br i1 %124, label %161, label %125

125:                                              ; preds = %89
  %126 = getelementptr inbounds %"class.absl::optional.403", %"class.absl::optional.403"* %10, i64 0, i32 0, i32 0, i32 0, i32 1, i32 0, i32 0
  %127 = getelementptr inbounds %"class.base::internal::flat_tree.409", %"class.base::internal::flat_tree.409"* %126, i64 0, i32 0, i32 0, i32 0
  %128 = load %"struct.std::__1::pair.412"*, %"struct.std::__1::pair.412"** %127, align 8
  %129 = icmp eq %"struct.std::__1::pair.412"* %128, null
  br i1 %129, label %160, label %130

130:                                              ; preds = %125
  %131 = bitcast %"struct.std::__1::pair.412"* %128 to i8*
  %132 = load %"struct.std::__1::pair.412"*, %"struct.std::__1::pair.412"** %109, align 8
  %133 = icmp eq %"struct.std::__1::pair.412"* %132, %128
  br i1 %133, label %158, label %134

134:                                              ; preds = %130, %153
  %135 = phi %"struct.std::__1::pair.412"* [ %136, %153 ], [ %132, %130 ]
  %136 = getelementptr inbounds %"struct.std::__1::pair.412", %"struct.std::__1::pair.412"* %135, i64 -1
  %137 = getelementptr inbounds %"struct.std::__1::pair.412", %"struct.std::__1::pair.412"* %135, i64 -1, i32 1
  %138 = bitcast %"class.std::__1::basic_string"* %137 to %"struct.std::__1::basic_string<char, std::__1::char_traits<char>, std::__1::allocator<char> >::__short"*
  %139 = getelementptr inbounds %"struct.std::__1::basic_string<char, std::__1::char_traits<char>, std::__1::allocator<char> >::__short", %"struct.std::__1::basic_string<char, std::__1::char_traits<char>, std::__1::allocator<char> >::__short"* %138, i64 0, i32 1, i32 0
  %140 = load i8, i8* %139, align 1
  %141 = icmp slt i8 %140, 0
  br i1 %141, label %142, label %145

142:                                              ; preds = %134
  %143 = getelementptr inbounds %"class.std::__1::basic_string", %"class.std::__1::basic_string"* %137, i64 0, i32 0, i32 0, i32 0, i32 0, i32 0, i32 0
  %144 = load i8*, i8** %143, align 8
  call void @_ZdlPv(i8* %144) #13
  br label %145

145:                                              ; preds = %142, %134
  %146 = bitcast %"struct.std::__1::pair.412"* %136 to %"struct.std::__1::basic_string<char, std::__1::char_traits<char>, std::__1::allocator<char> >::__short"*
  %147 = getelementptr inbounds %"struct.std::__1::basic_string<char, std::__1::char_traits<char>, std::__1::allocator<char> >::__short", %"struct.std::__1::basic_string<char, std::__1::char_traits<char>, std::__1::allocator<char> >::__short"* %146, i64 0, i32 1, i32 0
  %148 = load i8, i8* %147, align 1
  %149 = icmp slt i8 %148, 0
  br i1 %149, label %150, label %153

150:                                              ; preds = %145
  %151 = getelementptr inbounds %"struct.std::__1::pair.412", %"struct.std::__1::pair.412"* %136, i64 0, i32 0, i32 0, i32 0, i32 0, i32 0, i32 0, i32 0
  %152 = load i8*, i8** %151, align 8
  call void @_ZdlPv(i8* %152) #13
  br label %153

153:                                              ; preds = %150, %145
  %154 = icmp eq %"struct.std::__1::pair.412"* %136, %128
  br i1 %154, label %155, label %134

155:                                              ; preds = %153
  %156 = bitcast %"class.base::internal::flat_tree.409"* %126 to i8**
  %157 = load i8*, i8** %156, align 8
  br label %158

158:                                              ; preds = %155, %130
  %159 = phi i8* [ %157, %155 ], [ %131, %130 ]
  store %"struct.std::__1::pair.412"* %128, %"struct.std::__1::pair.412"** %109, align 8
  call void @_ZdlPv(i8* %159) #13
  br label %160

160:                                              ; preds = %158, %125
  store i8 0, i8* %90, align 8
  br label %161

161:                                              ; preds = %160, %89
  %162 = load %"struct.std::__1::pair.412"*, %"struct.std::__1::pair.412"** %102, align 16
  %163 = icmp eq %"struct.std::__1::pair.412"* %162, null
  br i1 %163, label %194, label %164

164:                                              ; preds = %161
  %165 = bitcast %"struct.std::__1::pair.412"* %162 to i8*
  %166 = load %"struct.std::__1::pair.412"*, %"struct.std::__1::pair.412"** %96, align 8
  %167 = icmp eq %"struct.std::__1::pair.412"* %166, %162
  br i1 %167, label %192, label %168

168:                                              ; preds = %164, %187
  %169 = phi %"struct.std::__1::pair.412"* [ %170, %187 ], [ %166, %164 ]
  %170 = getelementptr inbounds %"struct.std::__1::pair.412", %"struct.std::__1::pair.412"* %169, i64 -1
  %171 = getelementptr inbounds %"struct.std::__1::pair.412", %"struct.std::__1::pair.412"* %169, i64 -1, i32 1
  %172 = bitcast %"class.std::__1::basic_string"* %171 to %"struct.std::__1::basic_string<char, std::__1::char_traits<char>, std::__1::allocator<char> >::__short"*
  %173 = getelementptr inbounds %"struct.std::__1::basic_string<char, std::__1::char_traits<char>, std::__1::allocator<char> >::__short", %"struct.std::__1::basic_string<char, std::__1::char_traits<char>, std::__1::allocator<char> >::__short"* %172, i64 0, i32 1, i32 0
  %174 = load i8, i8* %173, align 1
  %175 = icmp slt i8 %174, 0
  br i1 %175, label %176, label %179

176:                                              ; preds = %168
  %177 = getelementptr inbounds %"class.std::__1::basic_string", %"class.std::__1::basic_string"* %171, i64 0, i32 0, i32 0, i32 0, i32 0, i32 0, i32 0
  %178 = load i8*, i8** %177, align 8
  call void @_ZdlPv(i8* %178) #13
  br label %179

179:                                              ; preds = %176, %168
  %180 = bitcast %"struct.std::__1::pair.412"* %170 to %"struct.std::__1::basic_string<char, std::__1::char_traits<char>, std::__1::allocator<char> >::__short"*
  %181 = getelementptr inbounds %"struct.std::__1::basic_string<char, std::__1::char_traits<char>, std::__1::allocator<char> >::__short", %"struct.std::__1::basic_string<char, std::__1::char_traits<char>, std::__1::allocator<char> >::__short"* %180, i64 0, i32 1, i32 0
  %182 = load i8, i8* %181, align 1
  %183 = icmp slt i8 %182, 0
  br i1 %183, label %184, label %187

184:                                              ; preds = %179
  %185 = getelementptr inbounds %"struct.std::__1::pair.412", %"struct.std::__1::pair.412"* %170, i64 0, i32 0, i32 0, i32 0, i32 0, i32 0, i32 0, i32 0
  %186 = load i8*, i8** %185, align 8
  call void @_ZdlPv(i8* %186) #13
  br label %187

187:                                              ; preds = %184, %179
  %188 = icmp eq %"struct.std::__1::pair.412"* %170, %162
  br i1 %188, label %189, label %168

189:                                              ; preds = %187
  %190 = bitcast %"class.base::flat_map.408"* %11 to i8**
  %191 = load i8*, i8** %190, align 16
  br label %192

192:                                              ; preds = %189, %164
  %193 = phi i8* [ %191, %189 ], [ %165, %164 ]
  store %"struct.std::__1::pair.412"* %162, %"struct.std::__1::pair.412"** %96, align 8
  call void @_ZdlPv(i8* %193) #13
  br label %194

194:                                              ; preds = %192, %161
  call void @llvm.lifetime.end.p0i8(i64 24, i8* nonnull %91) #12
  call void @llvm.lifetime.end.p0i8(i64 32, i8* nonnull %90) #12
  %195 = load %"struct.std::__1::pair.412"*, %"struct.std::__1::pair.412"** %76, align 8
  %196 = icmp eq %"struct.std::__1::pair.412"* %195, null
  br i1 %196, label %227, label %197

197:                                              ; preds = %194
  %198 = bitcast %"struct.std::__1::pair.412"* %195 to i8*
  %199 = load %"struct.std::__1::pair.412"*, %"struct.std::__1::pair.412"** %77, align 8
  %200 = icmp eq %"struct.std::__1::pair.412"* %199, %195
  br i1 %200, label %225, label %201

201:                                              ; preds = %197, %220
  %202 = phi %"struct.std::__1::pair.412"* [ %203, %220 ], [ %199, %197 ]
  %203 = getelementptr inbounds %"struct.std::__1::pair.412", %"struct.std::__1::pair.412"* %202, i64 -1
  %204 = getelementptr inbounds %"struct.std::__1::pair.412", %"struct.std::__1::pair.412"* %202, i64 -1, i32 1
  %205 = bitcast %"class.std::__1::basic_string"* %204 to %"struct.std::__1::basic_string<char, std::__1::char_traits<char>, std::__1::allocator<char> >::__short"*
  %206 = getelementptr inbounds %"struct.std::__1::basic_string<char, std::__1::char_traits<char>, std::__1::allocator<char> >::__short", %"struct.std::__1::basic_string<char, std::__1::char_traits<char>, std::__1::allocator<char> >::__short"* %205, i64 0, i32 1, i32 0
  %207 = load i8, i8* %206, align 1
  %208 = icmp slt i8 %207, 0
  br i1 %208, label %209, label %212

209:                                              ; preds = %201
  %210 = getelementptr inbounds %"class.std::__1::basic_string", %"class.std::__1::basic_string"* %204, i64 0, i32 0, i32 0, i32 0, i32 0, i32 0, i32 0
  %211 = load i8*, i8** %210, align 8
  call void @_ZdlPv(i8* %211) #13
  br label %212

212:                                              ; preds = %209, %201
  %213 = bitcast %"struct.std::__1::pair.412"* %203 to %"struct.std::__1::basic_string<char, std::__1::char_traits<char>, std::__1::allocator<char> >::__short"*
  %214 = getelementptr inbounds %"struct.std::__1::basic_string<char, std::__1::char_traits<char>, std::__1::allocator<char> >::__short", %"struct.std::__1::basic_string<char, std::__1::char_traits<char>, std::__1::allocator<char> >::__short"* %213, i64 0, i32 1, i32 0
  %215 = load i8, i8* %214, align 1
  %216 = icmp slt i8 %215, 0
  br i1 %216, label %217, label %220

217:                                              ; preds = %212
  %218 = getelementptr inbounds %"struct.std::__1::pair.412", %"struct.std::__1::pair.412"* %203, i64 0, i32 0, i32 0, i32 0, i32 0, i32 0, i32 0, i32 0
  %219 = load i8*, i8** %218, align 8
  call void @_ZdlPv(i8* %219) #13
  br label %220

220:                                              ; preds = %217, %212
  %221 = icmp eq %"struct.std::__1::pair.412"* %203, %195
  br i1 %221, label %222, label %201

222:                                              ; preds = %220
  %223 = bitcast %"class.std::__1::vector.410"* %6 to i8**
  %224 = load i8*, i8** %223, align 8
  br label %225

225:                                              ; preds = %222, %197
  %226 = phi i8* [ %224, %222 ], [ %198, %197 ]
  store %"struct.std::__1::pair.412"* %195, %"struct.std::__1::pair.412"** %77, align 8
  call void @_ZdlPv(i8* %226) #13
  br label %227

227:                                              ; preds = %225, %194
  call void @llvm.lifetime.end.p0i8(i64 24, i8* nonnull %75) #12
  br label %271

228:                                              ; preds = %74, %268
  %229 = call { %"class.std::__1::basic_string"*, %"class.base::Value"* } @_ZN4base6detail13dict_iteratordeEv(%"class.base::detail::dict_iterator"* nonnull %8) #12
  %230 = extractvalue { %"class.std::__1::basic_string"*, %"class.base::Value"* } %229, 0
  %231 = extractvalue { %"class.std::__1::basic_string"*, %"class.base::Value"* } %229, 1
  %232 = call dereferenceable(24) %"class.std::__1::basic_string"* @_ZN4base5Value9GetStringEv(%"class.base::Value"* %231) #12
  %233 = load %"struct.std::__1::pair.412"*, %"struct.std::__1::pair.412"** %77, align 8
  %234 = load %"struct.std::__1::pair.412"*, %"struct.std::__1::pair.412"** %78, align 8
  %235 = icmp ult %"struct.std::__1::pair.412"* %233, %234
  br i1 %235, label %236, label %267

236:                                              ; preds = %228
  %237 = bitcast %"class.std::__1::basic_string"* %230 to %"struct.std::__1::basic_string<char, std::__1::char_traits<char>, std::__1::allocator<char> >::__short"*
  %238 = getelementptr inbounds %"struct.std::__1::basic_string<char, std::__1::char_traits<char>, std::__1::allocator<char> >::__short", %"struct.std::__1::basic_string<char, std::__1::char_traits<char>, std::__1::allocator<char> >::__short"* %237, i64 0, i32 1, i32 0
  %239 = load i8, i8* %238, align 1
  %240 = icmp slt i8 %239, 0
  br i1 %240, label %244, label %241

241:                                              ; preds = %236
  %242 = bitcast %"struct.std::__1::pair.412"* %233 to i8*
  %243 = bitcast %"class.std::__1::basic_string"* %230 to i8*
  call void @llvm.memcpy.p0i8.p0i8.i64(i8* align 8 %242, i8* align 8 %243, i64 24, i1 false) #12
  br label %250

244:                                              ; preds = %236
  %245 = getelementptr inbounds %"struct.std::__1::pair.412", %"struct.std::__1::pair.412"* %233, i64 0, i32 0
  %246 = getelementptr inbounds %"class.std::__1::basic_string", %"class.std::__1::basic_string"* %230, i64 0, i32 0, i32 0, i32 0, i32 0, i32 0, i32 0
  %247 = load i8*, i8** %246, align 8
  %248 = getelementptr inbounds %"class.std::__1::basic_string", %"class.std::__1::basic_string"* %230, i64 0, i32 0, i32 0, i32 0, i32 0, i32 0, i32 1
  %249 = load i64, i64* %248, align 8
  call void @_ZNSt3__112basic_stringIcNS_11char_traitsIcEENS_9allocatorIcEEE25__init_copy_ctor_externalEPKcm(%"class.std::__1::basic_string"* %245, i8* %247, i64 %249) #12
  br label %250

250:                                              ; preds = %244, %241
  %251 = getelementptr inbounds %"struct.std::__1::pair.412", %"struct.std::__1::pair.412"* %233, i64 0, i32 1
  %252 = bitcast %"class.std::__1::basic_string"* %232 to %"struct.std::__1::basic_string<char, std::__1::char_traits<char>, std::__1::allocator<char> >::__short"*
  %253 = getelementptr inbounds %"struct.std::__1::basic_string<char, std::__1::char_traits<char>, std::__1::allocator<char> >::__short", %"struct.std::__1::basic_string<char, std::__1::char_traits<char>, std::__1::allocator<char> >::__short"* %252, i64 0, i32 1, i32 0
  %254 = load i8, i8* %253, align 1
  %255 = icmp slt i8 %254, 0
  br i1 %255, label %259, label %256

256:                                              ; preds = %250
  %257 = bitcast %"class.std::__1::basic_string"* %251 to i8*
  %258 = bitcast %"class.std::__1::basic_string"* %232 to i8*
  call void @llvm.memcpy.p0i8.p0i8.i64(i8* align 8 %257, i8* align 8 %258, i64 24, i1 false) #12
  br label %264

259:                                              ; preds = %250
  %260 = getelementptr inbounds %"class.std::__1::basic_string", %"class.std::__1::basic_string"* %232, i64 0, i32 0, i32 0, i32 0, i32 0, i32 0, i32 0
  %261 = load i8*, i8** %260, align 8
  %262 = getelementptr inbounds %"class.std::__1::basic_string", %"class.std::__1::basic_string"* %232, i64 0, i32 0, i32 0, i32 0, i32 0, i32 0, i32 1
  %263 = load i64, i64* %262, align 8
  call void @_ZNSt3__112basic_stringIcNS_11char_traitsIcEENS_9allocatorIcEEE25__init_copy_ctor_externalEPKcm(%"class.std::__1::basic_string"* %251, i8* %261, i64 %263) #12
  br label %264

264:                                              ; preds = %259, %256
  %265 = getelementptr inbounds %"struct.std::__1::pair.412", %"struct.std::__1::pair.412"* %233, i64 1
  %266 = ptrtoint %"struct.std::__1::pair.412"* %265 to i64
  store i64 %266, i64* %88, align 8
  br label %268

267:                                              ; preds = %228
  call void @_ZNSt3__16vectorINS_4pairINS_12basic_stringIcNS_11char_traitsIcEENS_9allocatorIcEEEES7_EENS5_IS8_EEE24__emplace_back_slow_pathIJRKS7_RS7_EEEvDpOT_(%"class.std::__1::vector.410"* nonnull %6, %"class.std::__1::basic_string"* dereferenceable(24) %230, %"class.std::__1::basic_string"* dereferenceable(24) %232) #12
  br label %268

268:                                              ; preds = %267, %264
  %269 = call dereferenceable(8) %"class.base::detail::dict_iterator"* @_ZN4base6detail13dict_iteratorppEv(%"class.base::detail::dict_iterator"* nonnull %8) #12
  %270 = call zeroext i1 @_ZN4base6detailneERKNS0_13dict_iteratorES3_(%"class.base::detail::dict_iterator"* nonnull dereferenceable(8) %8, %"class.base::detail::dict_iterator"* nonnull dereferenceable(8) %9) #12
  br i1 %270, label %228, label %89

271:                                              ; preds = %227, %73
  br i1 %21, label %275, label %272

272:                                              ; preds = %271
  %273 = getelementptr inbounds %"class.base::DictionaryValue", %"class.base::DictionaryValue"* %20, i64 0, i32 0
  call void @_ZN4base5ValueD2Ev(%"class.base::Value"* nonnull %273) #12
  %274 = bitcast %"class.base::DictionaryValue"* %20 to i8*
  call void @_ZdlPv(i8* %274) #13
  br label %275

275:                                              ; preds = %271, %272
  %276 = getelementptr inbounds %"class.base::OnceCallback.285", %"class.base::OnceCallback.285"* %12, i64 0, i32 0
  call void @_ZN4base8internal12CallbackBaseD2Ev(%"class.base::internal::CallbackBase"* nonnull %276) #12
  call void @llvm.lifetime.end.p0i8(i64 8, i8* nonnull %14) #12
  ret void
}

declare %"class.base::flat_map"* @_ZN4base5Value9DictItemsEv(%"class.base::Value"*) local_unnamed_addr #1

declare void @_ZN4base6detail19dict_iterator_proxy5beginEv(%"class.base::detail::dict_iterator"* sret, %"class.base::detail::dict_iterator_proxy"*) local_unnamed_addr #1

declare void @_ZN4base6detail19dict_iterator_proxy3endEv(%"class.base::detail::dict_iterator"* sret, %"class.base::detail::dict_iterator_proxy"*) local_unnamed_addr #1

declare zeroext i1 @_ZN4base6detailneERKNS0_13dict_iteratorES3_(%"class.base::detail::dict_iterator"* dereferenceable(8), %"class.base::detail::dict_iterator"* dereferenceable(8)) local_unnamed_addr #1

declare { %"class.std::__1::basic_string"*, %"class.base::Value"* } @_ZN4base6detail13dict_iteratordeEv(%"class.base::detail::dict_iterator"*) local_unnamed_addr #1

declare dereferenceable(24) %"class.std::__1::basic_string"* @_ZN4base5Value9GetStringEv(%"class.base::Value"*) local_unnamed_addr #1

declare dereferenceable(8) %"class.base::detail::dict_iterator"* @_ZN4base6detail13dict_iteratorppEv(%"class.base::detail::dict_iterator"*) local_unnamed_addr #1

; Function Attrs: nounwind
declare void @_ZN4base6detail13dict_iteratorD1Ev(%"class.base::detail::dict_iterator"*) unnamed_addr #5

; Function Attrs: inlinehint nounwind ssp uwtable
define linkonce_odr hidden void @_ZNSt3__16vectorINS_4pairINS_12basic_stringIcNS_11char_traitsIcEENS_9allocatorIcEEEES7_EENS5_IS8_EEE24__emplace_back_slow_pathIJRKS7_RS7_EEEvDpOT_(%"class.std::__1::vector.410"*, %"class.std::__1::basic_string"* dereferenceable(24), %"class.std::__1::basic_string"* dereferenceable(24)) local_unnamed_addr #8 comdat align 2 {
  %4 = getelementptr inbounds %"class.std::__1::vector.410", %"class.std::__1::vector.410"* %0, i64 0, i32 0, i32 1
  %5 = bitcast %"struct.std::__1::pair.412"** %4 to i64*
  %6 = load i64, i64* %5, align 8
  %7 = bitcast %"class.std::__1::vector.410"* %0 to i64*
  %8 = load i64, i64* %7, align 8
  %9 = sub i64 %6, %8
  %10 = sdiv exact i64 %9, 48
  %11 = add nsw i64 %10, 1
  %12 = icmp ugt i64 %11, 384307168202282325
  br i1 %12, label %13, label %15

13:                                               ; preds = %3
  %14 = bitcast %"class.std::__1::vector.410"* %0 to %"class.std::__1::__vector_base_common"*
  tail call void @_ZNKSt3__120__vector_base_commonILb1EE20__throw_length_errorEv(%"class.std::__1::__vector_base_common"* %14) #14
  unreachable

15:                                               ; preds = %3
  %16 = getelementptr inbounds %"class.std::__1::vector.410", %"class.std::__1::vector.410"* %0, i64 0, i32 0, i32 2, i32 0, i32 0
  %17 = bitcast %"struct.std::__1::pair.412"** %16 to i64*
  %18 = load i64, i64* %17, align 8
  %19 = sub i64 %18, %8
  %20 = sdiv exact i64 %19, 48
  %21 = icmp ult i64 %20, 192153584101141162
  br i1 %21, label %22, label %27

22:                                               ; preds = %15
  %23 = shl nsw i64 %20, 1
  %24 = icmp ult i64 %23, %11
  %25 = select i1 %24, i64 %11, i64 %23
  %26 = icmp eq i64 %25, 0
  br i1 %26, label %32, label %27

27:                                               ; preds = %15, %22
  %28 = phi i64 [ %25, %22 ], [ 384307168202282325, %15 ]
  %29 = mul i64 %28, 48
  %30 = tail call i8* @_Znwm(i64 %29) #13
  %31 = bitcast i8* %30 to %"struct.std::__1::pair.412"*
  br label %32

32:                                               ; preds = %22, %27
  %33 = phi i64 [ %28, %27 ], [ 0, %22 ]
  %34 = phi %"struct.std::__1::pair.412"* [ %31, %27 ], [ null, %22 ]
  %35 = getelementptr inbounds %"struct.std::__1::pair.412", %"struct.std::__1::pair.412"* %34, i64 %10
  %36 = getelementptr inbounds %"struct.std::__1::pair.412", %"struct.std::__1::pair.412"* %34, i64 %33
  %37 = ptrtoint %"struct.std::__1::pair.412"* %36 to i64
  %38 = bitcast %"class.std::__1::basic_string"* %1 to %"struct.std::__1::basic_string<char, std::__1::char_traits<char>, std::__1::allocator<char> >::__short"*
  %39 = getelementptr inbounds %"struct.std::__1::basic_string<char, std::__1::char_traits<char>, std::__1::allocator<char> >::__short", %"struct.std::__1::basic_string<char, std::__1::char_traits<char>, std::__1::allocator<char> >::__short"* %38, i64 0, i32 1, i32 0
  %40 = load i8, i8* %39, align 1
  %41 = icmp slt i8 %40, 0
  br i1 %41, label %45, label %42

42:                                               ; preds = %32
  %43 = bitcast %"struct.std::__1::pair.412"* %35 to i8*
  %44 = bitcast %"class.std::__1::basic_string"* %1 to i8*
  tail call void @llvm.memcpy.p0i8.p0i8.i64(i8* align 8 %43, i8* align 8 %44, i64 24, i1 false) #12
  br label %51

45:                                               ; preds = %32
  %46 = getelementptr inbounds %"struct.std::__1::pair.412", %"struct.std::__1::pair.412"* %35, i64 0, i32 0
  %47 = getelementptr inbounds %"class.std::__1::basic_string", %"class.std::__1::basic_string"* %1, i64 0, i32 0, i32 0, i32 0, i32 0, i32 0, i32 0
  %48 = load i8*, i8** %47, align 8
  %49 = getelementptr inbounds %"class.std::__1::basic_string", %"class.std::__1::basic_string"* %1, i64 0, i32 0, i32 0, i32 0, i32 0, i32 0, i32 1
  %50 = load i64, i64* %49, align 8
  tail call void @_ZNSt3__112basic_stringIcNS_11char_traitsIcEENS_9allocatorIcEEE25__init_copy_ctor_externalEPKcm(%"class.std::__1::basic_string"* %46, i8* %48, i64 %50) #12
  br label %51

51:                                               ; preds = %45, %42
  %52 = getelementptr inbounds %"struct.std::__1::pair.412", %"struct.std::__1::pair.412"* %34, i64 %10, i32 1
  %53 = bitcast %"class.std::__1::basic_string"* %2 to %"struct.std::__1::basic_string<char, std::__1::char_traits<char>, std::__1::allocator<char> >::__short"*
  %54 = getelementptr inbounds %"struct.std::__1::basic_string<char, std::__1::char_traits<char>, std::__1::allocator<char> >::__short", %"struct.std::__1::basic_string<char, std::__1::char_traits<char>, std::__1::allocator<char> >::__short"* %53, i64 0, i32 1, i32 0
  %55 = load i8, i8* %54, align 1
  %56 = icmp slt i8 %55, 0
  br i1 %56, label %60, label %57

57:                                               ; preds = %51
  %58 = bitcast %"class.std::__1::basic_string"* %52 to i8*
  %59 = bitcast %"class.std::__1::basic_string"* %2 to i8*
  tail call void @llvm.memcpy.p0i8.p0i8.i64(i8* align 8 %58, i8* align 8 %59, i64 24, i1 false) #12
  br label %65

60:                                               ; preds = %51
  %61 = getelementptr inbounds %"class.std::__1::basic_string", %"class.std::__1::basic_string"* %2, i64 0, i32 0, i32 0, i32 0, i32 0, i32 0, i32 0
  %62 = load i8*, i8** %61, align 8
  %63 = getelementptr inbounds %"class.std::__1::basic_string", %"class.std::__1::basic_string"* %2, i64 0, i32 0, i32 0, i32 0, i32 0, i32 0, i32 1
  %64 = load i64, i64* %63, align 8
  tail call void @_ZNSt3__112basic_stringIcNS_11char_traitsIcEENS_9allocatorIcEEE25__init_copy_ctor_externalEPKcm(%"class.std::__1::basic_string"* %52, i8* %62, i64 %64) #12
  br label %65

65:                                               ; preds = %57, %60
  %66 = getelementptr inbounds %"struct.std::__1::pair.412", %"struct.std::__1::pair.412"* %35, i64 1
  %67 = ptrtoint %"struct.std::__1::pair.412"* %66 to i64
  %68 = getelementptr inbounds %"class.std::__1::vector.410", %"class.std::__1::vector.410"* %0, i64 0, i32 0, i32 0
  %69 = load %"struct.std::__1::pair.412"*, %"struct.std::__1::pair.412"** %68, align 8
  %70 = load %"struct.std::__1::pair.412"*, %"struct.std::__1::pair.412"** %4, align 8
  %71 = icmp eq %"struct.std::__1::pair.412"* %70, %69
  br i1 %71, label %72, label %74

72:                                               ; preds = %65
  %73 = ptrtoint %"struct.std::__1::pair.412"* %69 to i64
  br label %89

74:                                               ; preds = %65, %74
  %75 = phi %"struct.std::__1::pair.412"* [ %77, %74 ], [ %35, %65 ]
  %76 = phi %"struct.std::__1::pair.412"* [ %78, %74 ], [ %70, %65 ]
  %77 = getelementptr inbounds %"struct.std::__1::pair.412", %"struct.std::__1::pair.412"* %75, i64 -1
  %78 = getelementptr inbounds %"struct.std::__1::pair.412", %"struct.std::__1::pair.412"* %76, i64 -1
  %79 = bitcast %"struct.std::__1::pair.412"* %77 to i8*
  %80 = bitcast %"struct.std::__1::pair.412"* %78 to i8*
  tail call void @llvm.memcpy.p0i8.p0i8.i64(i8* align 8 %79, i8* align 8 %80, i64 24, i1 false) #12
  tail call void @llvm.memset.p0i8.i64(i8* align 8 %80, i8 0, i64 24, i1 false) #12
  %81 = getelementptr inbounds %"struct.std::__1::pair.412", %"struct.std::__1::pair.412"* %75, i64 -1, i32 1
  %82 = getelementptr inbounds %"struct.std::__1::pair.412", %"struct.std::__1::pair.412"* %76, i64 -1, i32 1
  %83 = bitcast %"class.std::__1::basic_string"* %81 to i8*
  %84 = bitcast %"class.std::__1::basic_string"* %82 to i8*
  tail call void @llvm.memcpy.p0i8.p0i8.i64(i8* align 8 %83, i8* align 8 %84, i64 24, i1 false) #12
  tail call void @llvm.memset.p0i8.i64(i8* align 8 %84, i8 0, i64 24, i1 false) #12
  %85 = icmp eq %"struct.std::__1::pair.412"* %78, %69
  br i1 %85, label %86, label %74

86:                                               ; preds = %74
  %87 = load i64, i64* %7, align 8
  %88 = load %"struct.std::__1::pair.412"*, %"struct.std::__1::pair.412"** %4, align 8
  br label %89

89:                                               ; preds = %72, %86
  %90 = phi %"struct.std::__1::pair.412"* [ %69, %72 ], [ %88, %86 ]
  %91 = phi %"struct.std::__1::pair.412"* [ %35, %72 ], [ %77, %86 ]
  %92 = phi i64 [ %73, %72 ], [ %87, %86 ]
  %93 = ptrtoint %"struct.std::__1::pair.412"* %91 to i64
  store i64 %93, i64* %7, align 8
  store i64 %67, i64* %5, align 8
  store i64 %37, i64* %17, align 8
  %94 = inttoptr i64 %92 to %"struct.std::__1::pair.412"*
  %95 = icmp eq %"struct.std::__1::pair.412"* %90, %94
  br i1 %95, label %117, label %96

96:                                               ; preds = %89, %115
  %97 = phi %"struct.std::__1::pair.412"* [ %98, %115 ], [ %90, %89 ]
  %98 = getelementptr inbounds %"struct.std::__1::pair.412", %"struct.std::__1::pair.412"* %97, i64 -1
  %99 = getelementptr inbounds %"struct.std::__1::pair.412", %"struct.std::__1::pair.412"* %97, i64 -1, i32 1
  %100 = bitcast %"class.std::__1::basic_string"* %99 to %"struct.std::__1::basic_string<char, std::__1::char_traits<char>, std::__1::allocator<char> >::__short"*
  %101 = getelementptr inbounds %"struct.std::__1::basic_string<char, std::__1::char_traits<char>, std::__1::allocator<char> >::__short", %"struct.std::__1::basic_string<char, std::__1::char_traits<char>, std::__1::allocator<char> >::__short"* %100, i64 0, i32 1, i32 0
  %102 = load i8, i8* %101, align 1
  %103 = icmp slt i8 %102, 0
  br i1 %103, label %104, label %107

104:                                              ; preds = %96
  %105 = getelementptr inbounds %"class.std::__1::basic_string", %"class.std::__1::basic_string"* %99, i64 0, i32 0, i32 0, i32 0, i32 0, i32 0, i32 0
  %106 = load i8*, i8** %105, align 8
  tail call void @_ZdlPv(i8* %106) #13
  br label %107

107:                                              ; preds = %104, %96
  %108 = bitcast %"struct.std::__1::pair.412"* %98 to %"struct.std::__1::basic_string<char, std::__1::char_traits<char>, std::__1::allocator<char> >::__short"*
  %109 = getelementptr inbounds %"struct.std::__1::basic_string<char, std::__1::char_traits<char>, std::__1::allocator<char> >::__short", %"struct.std::__1::basic_string<char, std::__1::char_traits<char>, std::__1::allocator<char> >::__short"* %108, i64 0, i32 1, i32 0
  %110 = load i8, i8* %109, align 1
  %111 = icmp slt i8 %110, 0
  br i1 %111, label %112, label %115

112:                                              ; preds = %107
  %113 = getelementptr inbounds %"struct.std::__1::pair.412", %"struct.std::__1::pair.412"* %98, i64 0, i32 0, i32 0, i32 0, i32 0, i32 0, i32 0, i32 0
  %114 = load i8*, i8** %113, align 8
  tail call void @_ZdlPv(i8* %114) #13
  br label %115

115:                                              ; preds = %112, %107
  %116 = icmp eq %"struct.std::__1::pair.412"* %98, %94
  br i1 %116, label %117, label %96

117:                                              ; preds = %115, %89
  %118 = icmp eq i64 %92, 0
  br i1 %118, label %121, label %119

119:                                              ; preds = %117
  %120 = inttoptr i64 %92 to i8*
  tail call void @_ZdlPv(i8* %120) #13
  br label %121

121:                                              ; preds = %117, %119
  ret void
}

declare void @_ZNSt3__112basic_stringIcNS_11char_traitsIcEENS_9allocatorIcEEE25__init_copy_ctor_externalEPKcm(%"class.std::__1::basic_string"*, i8*, i64) local_unnamed_addr #1

; Function Attrs: noreturn
declare void @_ZNKSt3__120__vector_base_commonILb1EE20__throw_length_errorEv(%"class.std::__1::__vector_base_common"*) local_unnamed_addr #9

; Function Attrs: nounwind ssp uwtable
define linkonce_odr hidden void @_ZN4base8internal9flat_treeINSt3__112basic_stringIcNS2_11char_traitsIcEENS2_9allocatorIcEEEENS0_8GetFirstENS2_4lessIvEENS2_6vectorINS2_4pairIS8_S8_EENS6_ISE_EEEEE15sort_and_uniqueENS2_11__wrap_iterIPSE_EESK_(%"class.base::internal::flat_tree.409"*, %"struct.std::__1::pair.412"*, %"struct.std::__1::pair.412"*) local_unnamed_addr #0 comdat align 2 {
  %4 = alloca %"struct.base::internal::flat_tree<std::__1::basic_string<char, std::__1::char_traits<char>, std::__1::allocator<char> >, base::internal::GetFirst, std::__1::less<void>, std::__1::vector<std::__1::pair<std::__1::basic_string<char, std::__1::char_traits<char>, std::__1::allocator<char> >, std::__1::basic_string<char, std::__1::char_traits<char>, std::__1::allocator<char> > >, std::__1::allocator<std::__1::pair<std::__1::basic_string<char, std::__1::char_traits<char>, std::__1::allocator<char> >, std::__1::basic_string<char, std::__1::char_traits<char>, std::__1::allocator<char> > > > > >::value_compare", align 1
  %5 = ptrtoint %"struct.std::__1::pair.412"* %2 to i64
  %6 = getelementptr inbounds %"struct.base::internal::flat_tree<std::__1::basic_string<char, std::__1::char_traits<char>, std::__1::allocator<char> >, base::internal::GetFirst, std::__1::less<void>, std::__1::vector<std::__1::pair<std::__1::basic_string<char, std::__1::char_traits<char>, std::__1::allocator<char> >, std::__1::basic_string<char, std::__1::char_traits<char>, std::__1::allocator<char> > >, std::__1::allocator<std::__1::pair<std::__1::basic_string<char, std::__1::char_traits<char>, std::__1::allocator<char> >, std::__1::basic_string<char, std::__1::char_traits<char>, std::__1::allocator<char> > > > > >::value_compare", %"struct.base::internal::flat_tree<std::__1::basic_string<char, std::__1::char_traits<char>, std::__1::allocator<char> >, base::internal::GetFirst, std::__1::less<void>, std::__1::vector<std::__1::pair<std::__1::basic_string<char, std::__1::char_traits<char>, std::__1::allocator<char> >, std::__1::basic_string<char, std::__1::char_traits<char>, std::__1::allocator<char> > >, std::__1::allocator<std::__1::pair<std::__1::basic_string<char, std::__1::char_traits<char>, std::__1::allocator<char> >, std::__1::basic_string<char, std::__1::char_traits<char>, std::__1::allocator<char> > > > > >::value_compare"* %4, i64 0, i32 0
  call void @llvm.lifetime.start.p0i8(i64 1, i8* nonnull %6)
  %7 = ptrtoint %"struct.std::__1::pair.412"* %1 to i64
  %8 = sub i64 %5, %7
  %9 = sdiv exact i64 %8, 48
  %10 = icmp sgt i64 %8, 0
  br i1 %10, label %11, label %22

11:                                               ; preds = %3
  %12 = icmp slt i64 %9, 192153584101141162
  %13 = select i1 %12, i64 %9, i64 192153584101141162
  br label %14

14:                                               ; preds = %19, %11
  %15 = phi i64 [ %20, %19 ], [ %13, %11 ]
  %16 = mul i64 %15, 48
  %17 = tail call noalias i8* @_ZnwmRKSt9nothrow_t(i64 %16, %"struct.std::nothrow_t"* nonnull dereferenceable(1) @_ZSt7nothrow) #12
  %18 = icmp eq i8* %17, null
  br i1 %18, label %19, label %23

19:                                               ; preds = %14
  %20 = lshr i64 %15, 1
  %21 = icmp eq i64 %20, 0
  br i1 %21, label %22, label %14

22:                                               ; preds = %19, %3
  call void @_ZNSt3__113__stable_sortIRN4base8internal9flat_treeINS_12basic_stringIcNS_11char_traitsIcEENS_9allocatorIcEEEENS2_8GetFirstENS_4lessIvEENS_6vectorINS_4pairIS9_S9_EENS7_ISF_EEEEE13value_compareENS_11__wrap_iterIPSF_EEEEvT0_SO_T_NS_15iterator_traitsISO_E15difference_typeEPNSR_10value_typeEl(%"struct.std::__1::pair.412"* %1, %"struct.std::__1::pair.412"* %2, %"struct.base::internal::flat_tree<std::__1::basic_string<char, std::__1::char_traits<char>, std::__1::allocator<char> >, base::internal::GetFirst, std::__1::less<void>, std::__1::vector<std::__1::pair<std::__1::basic_string<char, std::__1::char_traits<char>, std::__1::allocator<char> >, std::__1::basic_string<char, std::__1::char_traits<char>, std::__1::allocator<char> > >, std::__1::allocator<std::__1::pair<std::__1::basic_string<char, std::__1::char_traits<char>, std::__1::allocator<char> >, std::__1::basic_string<char, std::__1::char_traits<char>, std::__1::allocator<char> > > > > >::value_compare"* nonnull dereferenceable(1) %4, i64 %9, %"struct.std::__1::pair.412"* null, i64 0) #12
  br label %25

23:                                               ; preds = %14
  %24 = bitcast i8* %17 to %"struct.std::__1::pair.412"*
  call void @_ZNSt3__113__stable_sortIRN4base8internal9flat_treeINS_12basic_stringIcNS_11char_traitsIcEENS_9allocatorIcEEEENS2_8GetFirstENS_4lessIvEENS_6vectorINS_4pairIS9_S9_EENS7_ISF_EEEEE13value_compareENS_11__wrap_iterIPSF_EEEEvT0_SO_T_NS_15iterator_traitsISO_E15difference_typeEPNSR_10value_typeEl(%"struct.std::__1::pair.412"* %1, %"struct.std::__1::pair.412"* %2, %"struct.base::internal::flat_tree<std::__1::basic_string<char, std::__1::char_traits<char>, std::__1::allocator<char> >, base::internal::GetFirst, std::__1::less<void>, std::__1::vector<std::__1::pair<std::__1::basic_string<char, std::__1::char_traits<char>, std::__1::allocator<char> >, std::__1::basic_string<char, std::__1::char_traits<char>, std::__1::allocator<char> > >, std::__1::allocator<std::__1::pair<std::__1::basic_string<char, std::__1::char_traits<char>, std::__1::allocator<char> >, std::__1::basic_string<char, std::__1::char_traits<char>, std::__1::allocator<char> > > > > >::value_compare"* nonnull dereferenceable(1) %4, i64 %9, %"struct.std::__1::pair.412"* nonnull %24, i64 %15) #12
  call void @_ZdlPv(i8* nonnull %17) #13
  br label %25

25:                                               ; preds = %22, %23
  call void @llvm.lifetime.end.p0i8(i64 1, i8* nonnull %6)
  %26 = call %"struct.std::__1::pair.412"* @_ZNSt3__16uniqueINS_11__wrap_iterIPNS_4pairINS_12basic_stringIcNS_11char_traitsIcEENS_9allocatorIcEEEES8_EEEEN4base8internal9NotFnImplINSD_9flat_treeIS8_NSD_8GetFirstENS_4lessIvEENS_6vectorIS9_NS6_IS9_EEEEE13value_compareEEEEET_SP_SP_T0_(%"struct.std::__1::pair.412"* %1, %"struct.std::__1::pair.412"* %2)
  %27 = getelementptr inbounds %"class.base::internal::flat_tree.409", %"class.base::internal::flat_tree.409"* %0, i64 0, i32 0
  %28 = call %"struct.std::__1::pair.412"* @_ZNSt3__16vectorINS_4pairINS_12basic_stringIcNS_11char_traitsIcEENS_9allocatorIcEEEES7_EENS5_IS8_EEE5eraseENS_11__wrap_iterIPKS8_EESE_(%"class.std::__1::vector.410"* %27, %"struct.std::__1::pair.412"* %26, %"struct.std::__1::pair.412"* %2) #12
  ret void
}

; Function Attrs: nounwind ssp uwtable
define linkonce_odr hidden %"struct.std::__1::pair.412"* @_ZNSt3__16uniqueINS_11__wrap_iterIPNS_4pairINS_12basic_stringIcNS_11char_traitsIcEENS_9allocatorIcEEEES8_EEEEN4base8internal9NotFnImplINSD_9flat_treeIS8_NSD_8GetFirstENS_4lessIvEENS_6vectorIS9_NS6_IS9_EEEEE13value_compareEEEEET_SP_SP_T0_(%"struct.std::__1::pair.412"*, %"struct.std::__1::pair.412"*) local_unnamed_addr #0 comdat {
  %3 = icmp eq %"struct.std::__1::pair.412"* %0, %1
  br i1 %3, label %51, label %4

4:                                                ; preds = %2
  %5 = getelementptr inbounds %"struct.std::__1::pair.412", %"struct.std::__1::pair.412"* %0, i64 1
  %6 = icmp eq %"struct.std::__1::pair.412"* %5, %1
  br i1 %6, label %49, label %7

7:                                                ; preds = %4
  %8 = bitcast %"struct.std::__1::pair.412"* %0 to %"struct.std::__1::basic_string<char, std::__1::char_traits<char>, std::__1::allocator<char> >::__short"*
  %9 = getelementptr inbounds %"struct.std::__1::basic_string<char, std::__1::char_traits<char>, std::__1::allocator<char> >::__short", %"struct.std::__1::basic_string<char, std::__1::char_traits<char>, std::__1::allocator<char> >::__short"* %8, i64 0, i32 1, i32 0
  %10 = load i8, i8* %9, align 1
  br label %11

11:                                               ; preds = %46, %7
  %12 = phi i8 [ %17, %46 ], [ %10, %7 ]
  %13 = phi %"struct.std::__1::pair.412"* [ %47, %46 ], [ %5, %7 ]
  %14 = phi %"struct.std::__1::pair.412"* [ %13, %46 ], [ %0, %7 ]
  %15 = bitcast %"struct.std::__1::pair.412"* %13 to %"struct.std::__1::basic_string<char, std::__1::char_traits<char>, std::__1::allocator<char> >::__short"*
  %16 = getelementptr inbounds %"struct.std::__1::basic_string<char, std::__1::char_traits<char>, std::__1::allocator<char> >::__short", %"struct.std::__1::basic_string<char, std::__1::char_traits<char>, std::__1::allocator<char> >::__short"* %15, i64 0, i32 1, i32 0
  %17 = load i8, i8* %16, align 1
  %18 = icmp slt i8 %17, 0
  %19 = getelementptr inbounds %"struct.std::__1::pair.412", %"struct.std::__1::pair.412"* %14, i64 1, i32 0, i32 0, i32 0, i32 0, i32 0, i32 0, i32 1
  %20 = load i64, i64* %19, align 8
  %21 = zext i8 %17 to i64
  %22 = select i1 %18, i64 %20, i64 %21
  %23 = icmp slt i8 %12, 0
  %24 = getelementptr inbounds %"struct.std::__1::pair.412", %"struct.std::__1::pair.412"* %14, i64 0, i32 0, i32 0, i32 0, i32 0, i32 0, i32 0, i32 1
  %25 = load i64, i64* %24, align 8
  %26 = zext i8 %12 to i64
  %27 = select i1 %23, i64 %25, i64 %26
  %28 = icmp ult i64 %22, %27
  %29 = select i1 %28, i64 %22, i64 %27
  %30 = icmp eq i64 %29, 0
  br i1 %30, label %42, label %31

31:                                               ; preds = %11
  %32 = getelementptr inbounds %"struct.std::__1::pair.412", %"struct.std::__1::pair.412"* %14, i64 0, i32 0, i32 0, i32 0, i32 0, i32 0, i32 0, i32 0
  %33 = load i8*, i8** %32, align 8
  %34 = bitcast %"struct.std::__1::pair.412"* %14 to i8*
  %35 = select i1 %23, i8* %33, i8* %34
  %36 = getelementptr inbounds %"struct.std::__1::pair.412", %"struct.std::__1::pair.412"* %13, i64 0, i32 0, i32 0, i32 0, i32 0, i32 0, i32 0, i32 0
  %37 = load i8*, i8** %36, align 8
  %38 = bitcast %"struct.std::__1::pair.412"* %13 to i8*
  %39 = select i1 %18, i8* %37, i8* %38
  %40 = tail call i32 @memcmp(i8* %35, i8* %39, i64 %29) #12
  %41 = icmp eq i32 %40, 0
  br i1 %41, label %42, label %44

42:                                               ; preds = %31, %11
  %43 = icmp ult i64 %27, %22
  br i1 %43, label %46, label %51

44:                                               ; preds = %31
  %45 = icmp sgt i32 %40, -1
  br i1 %45, label %51, label %46

46:                                               ; preds = %44, %42
  %47 = getelementptr inbounds %"struct.std::__1::pair.412", %"struct.std::__1::pair.412"* %13, i64 1
  %48 = icmp eq %"struct.std::__1::pair.412"* %47, %1
  br i1 %48, label %49, label %11

49:                                               ; preds = %46, %4
  %50 = ptrtoint %"struct.std::__1::pair.412"* %1 to i64
  br label %137

51:                                               ; preds = %42, %44, %2
  %52 = phi %"struct.std::__1::pair.412"* [ %0, %2 ], [ %14, %44 ], [ %14, %42 ]
  %53 = ptrtoint %"struct.std::__1::pair.412"* %52 to i64
  %54 = icmp eq %"struct.std::__1::pair.412"* %52, %1
  br i1 %54, label %137, label %55

55:                                               ; preds = %51
  %56 = getelementptr inbounds %"struct.std::__1::pair.412", %"struct.std::__1::pair.412"* %52, i64 2
  %57 = icmp eq %"struct.std::__1::pair.412"* %56, %1
  br i1 %57, label %133, label %58

58:                                               ; preds = %55
  %59 = getelementptr inbounds %"struct.std::__1::pair.412", %"struct.std::__1::pair.412"* %52, i64 1
  br label %60

60:                                               ; preds = %58, %126
  %61 = phi %"struct.std::__1::pair.412"* [ %130, %126 ], [ %52, %58 ]
  %62 = phi %"struct.std::__1::pair.412"* [ %128, %126 ], [ %56, %58 ]
  %63 = phi %"struct.std::__1::pair.412"* [ %62, %126 ], [ %59, %58 ]
  %64 = phi i64 [ %127, %126 ], [ %53, %58 ]
  %65 = bitcast %"struct.std::__1::pair.412"* %62 to %"struct.std::__1::basic_string<char, std::__1::char_traits<char>, std::__1::allocator<char> >::__short"*
  %66 = getelementptr inbounds %"struct.std::__1::basic_string<char, std::__1::char_traits<char>, std::__1::allocator<char> >::__short", %"struct.std::__1::basic_string<char, std::__1::char_traits<char>, std::__1::allocator<char> >::__short"* %65, i64 0, i32 1, i32 0
  %67 = load i8, i8* %66, align 1
  %68 = icmp slt i8 %67, 0
  %69 = getelementptr inbounds %"struct.std::__1::pair.412", %"struct.std::__1::pair.412"* %63, i64 1, i32 0, i32 0, i32 0, i32 0, i32 0, i32 0, i32 1
  %70 = load i64, i64* %69, align 8
  %71 = zext i8 %67 to i64
  %72 = select i1 %68, i64 %70, i64 %71
  %73 = inttoptr i64 %64 to %"struct.std::__1::basic_string<char, std::__1::char_traits<char>, std::__1::allocator<char> >::__short"*
  %74 = getelementptr inbounds %"struct.std::__1::basic_string<char, std::__1::char_traits<char>, std::__1::allocator<char> >::__short", %"struct.std::__1::basic_string<char, std::__1::char_traits<char>, std::__1::allocator<char> >::__short"* %73, i64 0, i32 1, i32 0
  %75 = load i8, i8* %74, align 1
  %76 = icmp slt i8 %75, 0
  %77 = getelementptr inbounds %"struct.std::__1::pair.412", %"struct.std::__1::pair.412"* %61, i64 0, i32 0, i32 0, i32 0, i32 0, i32 0, i32 0, i32 1
  %78 = load i64, i64* %77, align 8
  %79 = zext i8 %75 to i64
  %80 = select i1 %76, i64 %78, i64 %79
  %81 = icmp ult i64 %72, %80
  %82 = select i1 %81, i64 %72, i64 %80
  %83 = icmp eq i64 %82, 0
  br i1 %83, label %95, label %84

84:                                               ; preds = %60
  %85 = getelementptr inbounds %"struct.std::__1::pair.412", %"struct.std::__1::pair.412"* %61, i64 0, i32 0, i32 0, i32 0, i32 0, i32 0, i32 0, i32 0
  %86 = load i8*, i8** %85, align 8
  %87 = inttoptr i64 %64 to i8*
  %88 = select i1 %76, i8* %86, i8* %87
  %89 = getelementptr inbounds %"struct.std::__1::pair.412", %"struct.std::__1::pair.412"* %62, i64 0, i32 0, i32 0, i32 0, i32 0, i32 0, i32 0, i32 0
  %90 = load i8*, i8** %89, align 8
  %91 = bitcast %"struct.std::__1::pair.412"* %62 to i8*
  %92 = select i1 %68, i8* %90, i8* %91
  %93 = tail call i32 @memcmp(i8* %88, i8* %92, i64 %82) #12
  %94 = icmp eq i32 %93, 0
  br i1 %94, label %95, label %97

95:                                               ; preds = %84, %60
  %96 = icmp ult i64 %80, %72
  br i1 %96, label %99, label %126

97:                                               ; preds = %84
  %98 = icmp sgt i32 %93, -1
  br i1 %98, label %126, label %99

99:                                               ; preds = %95, %97
  %100 = getelementptr inbounds %"struct.std::__1::pair.412", %"struct.std::__1::pair.412"* %61, i64 1
  %101 = ptrtoint %"struct.std::__1::pair.412"* %100 to i64
  %102 = bitcast %"struct.std::__1::pair.412"* %100 to %"struct.std::__1::basic_string<char, std::__1::char_traits<char>, std::__1::allocator<char> >::__short"*
  %103 = getelementptr inbounds %"struct.std::__1::basic_string<char, std::__1::char_traits<char>, std::__1::allocator<char> >::__short", %"struct.std::__1::basic_string<char, std::__1::char_traits<char>, std::__1::allocator<char> >::__short"* %102, i64 0, i32 1, i32 0
  %104 = load i8, i8* %103, align 1
  %105 = icmp slt i8 %104, 0
  br i1 %105, label %106, label %109

106:                                              ; preds = %99
  %107 = getelementptr inbounds %"struct.std::__1::pair.412", %"struct.std::__1::pair.412"* %100, i64 0, i32 0, i32 0, i32 0, i32 0, i32 0, i32 0, i32 0
  %108 = load i8*, i8** %107, align 8
  tail call void @_ZdlPv(i8* %108) #13
  br label %109

109:                                              ; preds = %106, %99
  %110 = bitcast %"struct.std::__1::pair.412"* %100 to i8*
  %111 = bitcast %"struct.std::__1::pair.412"* %62 to i8*
  tail call void @llvm.memcpy.p0i8.p0i8.i64(i8* align 8 %110, i8* align 8 %111, i64 24, i1 false) #12
  store i8 0, i8* %66, align 1
  store i8 0, i8* %111, align 1
  %112 = getelementptr inbounds %"struct.std::__1::pair.412", %"struct.std::__1::pair.412"* %63, i64 1, i32 1
  %113 = getelementptr inbounds %"struct.std::__1::pair.412", %"struct.std::__1::pair.412"* %61, i64 1, i32 1
  %114 = bitcast %"class.std::__1::basic_string"* %113 to %"struct.std::__1::basic_string<char, std::__1::char_traits<char>, std::__1::allocator<char> >::__short"*
  %115 = getelementptr inbounds %"struct.std::__1::basic_string<char, std::__1::char_traits<char>, std::__1::allocator<char> >::__short", %"struct.std::__1::basic_string<char, std::__1::char_traits<char>, std::__1::allocator<char> >::__short"* %114, i64 0, i32 1, i32 0
  %116 = load i8, i8* %115, align 1
  %117 = icmp slt i8 %116, 0
  br i1 %117, label %118, label %121

118:                                              ; preds = %109
  %119 = getelementptr inbounds %"class.std::__1::basic_string", %"class.std::__1::basic_string"* %113, i64 0, i32 0, i32 0, i32 0, i32 0, i32 0, i32 0
  %120 = load i8*, i8** %119, align 8
  tail call void @_ZdlPv(i8* %120) #13
  br label %121

121:                                              ; preds = %109, %118
  %122 = bitcast %"class.std::__1::basic_string"* %113 to i8*
  %123 = bitcast %"class.std::__1::basic_string"* %112 to i8*
  tail call void @llvm.memcpy.p0i8.p0i8.i64(i8* align 8 %122, i8* align 8 %123, i64 24, i1 false) #12
  %124 = bitcast %"class.std::__1::basic_string"* %112 to %"struct.std::__1::basic_string<char, std::__1::char_traits<char>, std::__1::allocator<char> >::__short"*
  %125 = getelementptr inbounds %"struct.std::__1::basic_string<char, std::__1::char_traits<char>, std::__1::allocator<char> >::__short", %"struct.std::__1::basic_string<char, std::__1::char_traits<char>, std::__1::allocator<char> >::__short"* %124, i64 0, i32 1, i32 0
  store i8 0, i8* %125, align 1
  store i8 0, i8* %123, align 1
  br label %126

126:                                              ; preds = %95, %121, %97
  %127 = phi i64 [ %64, %97 ], [ %101, %121 ], [ %64, %95 ]
  %128 = getelementptr inbounds %"struct.std::__1::pair.412", %"struct.std::__1::pair.412"* %62, i64 1
  %129 = icmp eq %"struct.std::__1::pair.412"* %128, %1
  %130 = inttoptr i64 %127 to %"struct.std::__1::pair.412"*
  br i1 %129, label %131, label %60

131:                                              ; preds = %126
  %132 = inttoptr i64 %127 to %"struct.std::__1::pair.412"*
  br label %133

133:                                              ; preds = %131, %55
  %134 = phi %"struct.std::__1::pair.412"* [ %52, %55 ], [ %132, %131 ]
  %135 = getelementptr inbounds %"struct.std::__1::pair.412", %"struct.std::__1::pair.412"* %134, i64 1
  %136 = ptrtoint %"struct.std::__1::pair.412"* %135 to i64
  br label %137

137:                                              ; preds = %51, %49, %133
  %138 = phi i64 [ %136, %133 ], [ %53, %51 ], [ %50, %49 ]
  %139 = inttoptr i64 %138 to %"struct.std::__1::pair.412"*
  ret %"struct.std::__1::pair.412"* %139
}

; Function Attrs: nounwind ssp uwtable
define linkonce_odr hidden void @_ZNSt3__113__stable_sortIRN4base8internal9flat_treeINS_12basic_stringIcNS_11char_traitsIcEENS_9allocatorIcEEEENS2_8GetFirstENS_4lessIvEENS_6vectorINS_4pairIS9_S9_EENS7_ISF_EEEEE13value_compareENS_11__wrap_iterIPSF_EEEEvT0_SO_T_NS_15iterator_traitsISO_E15difference_typeEPNSR_10value_typeEl(%"struct.std::__1::pair.412"*, %"struct.std::__1::pair.412"*, %"struct.base::internal::flat_tree<std::__1::basic_string<char, std::__1::char_traits<char>, std::__1::allocator<char> >, base::internal::GetFirst, std::__1::less<void>, std::__1::vector<std::__1::pair<std::__1::basic_string<char, std::__1::char_traits<char>, std::__1::allocator<char> >, std::__1::basic_string<char, std::__1::char_traits<char>, std::__1::allocator<char> > >, std::__1::allocator<std::__1::pair<std::__1::basic_string<char, std::__1::char_traits<char>, std::__1::allocator<char> >, std::__1::basic_string<char, std::__1::char_traits<char>, std::__1::allocator<char> > > > > >::value_compare"* dereferenceable(1), i64, %"struct.std::__1::pair.412"*, i64) local_unnamed_addr #0 comdat {
  switch i64 %3, label %67 [
    i64 0, label %104
    i64 1, label %104
    i64 2, label %7
  ]

7:                                                ; preds = %6
  %8 = getelementptr inbounds %"struct.std::__1::pair.412", %"struct.std::__1::pair.412"* %1, i64 -1
  %9 = bitcast %"struct.std::__1::pair.412"* %0 to %"struct.std::__1::basic_string<char, std::__1::char_traits<char>, std::__1::allocator<char> >::__short"*
  %10 = getelementptr inbounds %"struct.std::__1::basic_string<char, std::__1::char_traits<char>, std::__1::allocator<char> >::__short", %"struct.std::__1::basic_string<char, std::__1::char_traits<char>, std::__1::allocator<char> >::__short"* %9, i64 0, i32 1, i32 0
  %11 = load i8, i8* %10, align 1
  %12 = icmp slt i8 %11, 0
  %13 = getelementptr inbounds %"struct.std::__1::pair.412", %"struct.std::__1::pair.412"* %0, i64 0, i32 0, i32 0, i32 0, i32 0, i32 0, i32 0, i32 1
  %14 = load i64, i64* %13, align 8
  %15 = zext i8 %11 to i64
  %16 = select i1 %12, i64 %14, i64 %15
  %17 = bitcast %"struct.std::__1::pair.412"* %8 to %"struct.std::__1::basic_string<char, std::__1::char_traits<char>, std::__1::allocator<char> >::__short"*
  %18 = getelementptr inbounds %"struct.std::__1::basic_string<char, std::__1::char_traits<char>, std::__1::allocator<char> >::__short", %"struct.std::__1::basic_string<char, std::__1::char_traits<char>, std::__1::allocator<char> >::__short"* %17, i64 0, i32 1, i32 0
  %19 = load i8, i8* %18, align 1
  %20 = icmp slt i8 %19, 0
  %21 = getelementptr inbounds %"struct.std::__1::pair.412", %"struct.std::__1::pair.412"* %1, i64 -1, i32 0, i32 0, i32 0, i32 0, i32 0, i32 0, i32 1
  %22 = load i64, i64* %21, align 8
  %23 = zext i8 %19 to i64
  %24 = select i1 %20, i64 %22, i64 %23
  %25 = icmp ult i64 %16, %24
  %26 = select i1 %25, i64 %16, i64 %24
  %27 = icmp eq i64 %26, 0
  br i1 %27, label %39, label %28

28:                                               ; preds = %7
  %29 = getelementptr inbounds %"struct.std::__1::pair.412", %"struct.std::__1::pair.412"* %8, i64 0, i32 0, i32 0, i32 0, i32 0, i32 0, i32 0, i32 0
  %30 = load i8*, i8** %29, align 8
  %31 = bitcast %"struct.std::__1::pair.412"* %8 to i8*
  %32 = select i1 %20, i8* %30, i8* %31
  %33 = getelementptr inbounds %"struct.std::__1::pair.412", %"struct.std::__1::pair.412"* %0, i64 0, i32 0, i32 0, i32 0, i32 0, i32 0, i32 0, i32 0
  %34 = load i8*, i8** %33, align 8
  %35 = bitcast %"struct.std::__1::pair.412"* %0 to i8*
  %36 = select i1 %12, i8* %34, i8* %35
  %37 = tail call i32 @memcmp(i8* %32, i8* %36, i64 %26) #12
  %38 = icmp eq i32 %37, 0
  br i1 %38, label %39, label %46

39:                                               ; preds = %28, %7
  %40 = icmp ult i64 %24, %16
  br i1 %40, label %41, label %104

41:                                               ; preds = %39
  %42 = bitcast %"struct.std::__1::pair.412"* %0 to i64*
  %43 = load i64, i64* %42, align 8
  %44 = bitcast %"struct.std::__1::pair.412"* %0 to i8*
  %45 = bitcast %"struct.std::__1::pair.412"* %8 to i8*
  br label %49

46:                                               ; preds = %28
  %47 = ptrtoint i8* %34 to i64
  %48 = icmp slt i32 %37, 0
  br i1 %48, label %49, label %104

49:                                               ; preds = %46, %41
  %50 = phi i8* [ %45, %41 ], [ %31, %46 ]
  %51 = phi i8* [ %44, %41 ], [ %35, %46 ]
  %52 = phi i64 [ %43, %41 ], [ %47, %46 ]
  %53 = getelementptr inbounds %"struct.std::__1::pair.412", %"struct.std::__1::pair.412"* %0, i64 0, i32 0, i32 0, i32 0, i32 0, i32 0, i32 0, i32 2
  %54 = load i64, i64* %53, align 8
  tail call void @llvm.memcpy.p0i8.p0i8.i64(i8* align 8 %51, i8* align 8 %50, i64 24, i1 false) #12
  %55 = bitcast %"struct.std::__1::pair.412"* %8 to i64*
  store i64 %52, i64* %55, align 8
  store i64 %14, i64* %21, align 8
  %56 = getelementptr inbounds %"struct.std::__1::pair.412", %"struct.std::__1::pair.412"* %1, i64 -1, i32 0, i32 0, i32 0, i32 0, i32 0, i32 0, i32 2
  store i64 %54, i64* %56, align 8
  %57 = getelementptr inbounds %"struct.std::__1::pair.412", %"struct.std::__1::pair.412"* %0, i64 0, i32 1
  %58 = getelementptr inbounds %"struct.std::__1::pair.412", %"struct.std::__1::pair.412"* %1, i64 -1, i32 1
  %59 = bitcast %"class.std::__1::basic_string"* %57 to <2 x i64>*
  %60 = load <2 x i64>, <2 x i64>* %59, align 8
  %61 = getelementptr inbounds %"struct.std::__1::pair.412", %"struct.std::__1::pair.412"* %0, i64 0, i32 1, i32 0, i32 0, i32 0, i32 0, i32 0, i32 2
  %62 = load i64, i64* %61, align 8
  %63 = bitcast %"class.std::__1::basic_string"* %57 to i8*
  %64 = bitcast %"class.std::__1::basic_string"* %58 to i8*
  tail call void @llvm.memcpy.p0i8.p0i8.i64(i8* align 8 %63, i8* align 8 %64, i64 24, i1 false) #12
  %65 = bitcast %"class.std::__1::basic_string"* %58 to <2 x i64>*
  store <2 x i64> %60, <2 x i64>* %65, align 8
  %66 = getelementptr inbounds %"struct.std::__1::pair.412", %"struct.std::__1::pair.412"* %1, i64 -1, i32 1, i32 0, i32 0, i32 0, i32 0, i32 0, i32 2
  store i64 %62, i64* %66, align 8
  br label %104

67:                                               ; preds = %6
  %68 = icmp slt i64 %3, 1
  br i1 %68, label %69, label %70

69:                                               ; preds = %67
  tail call void @_ZNSt3__116__insertion_sortIRN4base8internal9flat_treeINS_12basic_stringIcNS_11char_traitsIcEENS_9allocatorIcEEEENS2_8GetFirstENS_4lessIvEENS_6vectorINS_4pairIS9_S9_EENS7_ISF_EEEEE13value_compareENS_11__wrap_iterIPSF_EEEEvT0_SO_T_(%"struct.std::__1::pair.412"* %0, %"struct.std::__1::pair.412"* %1, %"struct.base::internal::flat_tree<std::__1::basic_string<char, std::__1::char_traits<char>, std::__1::allocator<char> >, base::internal::GetFirst, std::__1::less<void>, std::__1::vector<std::__1::pair<std::__1::basic_string<char, std::__1::char_traits<char>, std::__1::allocator<char> >, std::__1::basic_string<char, std::__1::char_traits<char>, std::__1::allocator<char> > >, std::__1::allocator<std::__1::pair<std::__1::basic_string<char, std::__1::char_traits<char>, std::__1::allocator<char> >, std::__1::basic_string<char, std::__1::char_traits<char>, std::__1::allocator<char> > > > > >::value_compare"* dereferenceable(1) %2)
  br label %104

70:                                               ; preds = %67
  %71 = lshr i64 %3, 1
  %72 = getelementptr inbounds %"struct.std::__1::pair.412", %"struct.std::__1::pair.412"* %0, i64 %71
  %73 = icmp sgt i64 %3, %5
  br i1 %73, label %102, label %74

74:                                               ; preds = %70
  tail call void @_ZNSt3__118__stable_sort_moveIRN4base8internal9flat_treeINS_12basic_stringIcNS_11char_traitsIcEENS_9allocatorIcEEEENS2_8GetFirstENS_4lessIvEENS_6vectorINS_4pairIS9_S9_EENS7_ISF_EEEEE13value_compareENS_11__wrap_iterIPSF_EEEEvT0_SO_T_NS_15iterator_traitsISO_E15difference_typeEPNSR_10value_typeE(%"struct.std::__1::pair.412"* %0, %"struct.std::__1::pair.412"* %72, %"struct.base::internal::flat_tree<std::__1::basic_string<char, std::__1::char_traits<char>, std::__1::allocator<char> >, base::internal::GetFirst, std::__1::less<void>, std::__1::vector<std::__1::pair<std::__1::basic_string<char, std::__1::char_traits<char>, std::__1::allocator<char> >, std::__1::basic_string<char, std::__1::char_traits<char>, std::__1::allocator<char> > >, std::__1::allocator<std::__1::pair<std::__1::basic_string<char, std::__1::char_traits<char>, std::__1::allocator<char> >, std::__1::basic_string<char, std::__1::char_traits<char>, std::__1::allocator<char> > > > > >::value_compare"* dereferenceable(1) %2, i64 %71, %"struct.std::__1::pair.412"* %4)
  %75 = sub nsw i64 %3, %71
  %76 = getelementptr inbounds %"struct.std::__1::pair.412", %"struct.std::__1::pair.412"* %4, i64 %71
  tail call void @_ZNSt3__118__stable_sort_moveIRN4base8internal9flat_treeINS_12basic_stringIcNS_11char_traitsIcEENS_9allocatorIcEEEENS2_8GetFirstENS_4lessIvEENS_6vectorINS_4pairIS9_S9_EENS7_ISF_EEEEE13value_compareENS_11__wrap_iterIPSF_EEEEvT0_SO_T_NS_15iterator_traitsISO_E15difference_typeEPNSR_10value_typeE(%"struct.std::__1::pair.412"* %72, %"struct.std::__1::pair.412"* %1, %"struct.base::internal::flat_tree<std::__1::basic_string<char, std::__1::char_traits<char>, std::__1::allocator<char> >, base::internal::GetFirst, std::__1::less<void>, std::__1::vector<std::__1::pair<std::__1::basic_string<char, std::__1::char_traits<char>, std::__1::allocator<char> >, std::__1::basic_string<char, std::__1::char_traits<char>, std::__1::allocator<char> > >, std::__1::allocator<std::__1::pair<std::__1::basic_string<char, std::__1::char_traits<char>, std::__1::allocator<char> >, std::__1::basic_string<char, std::__1::char_traits<char>, std::__1::allocator<char> > > > > >::value_compare"* dereferenceable(1) %2, i64 %75, %"struct.std::__1::pair.412"* %76)
  %77 = getelementptr inbounds %"struct.std::__1::pair.412", %"struct.std::__1::pair.412"* %4, i64 %3
  tail call void @_ZNSt3__119__merge_move_assignIRN4base8internal9flat_treeINS_12basic_stringIcNS_11char_traitsIcEENS_9allocatorIcEEEENS2_8GetFirstENS_4lessIvEENS_6vectorINS_4pairIS9_S9_EENS7_ISF_EEEEE13value_compareEPSF_SL_NS_11__wrap_iterISL_EEEEvT0_SO_T1_SP_T2_T_(%"struct.std::__1::pair.412"* %4, %"struct.std::__1::pair.412"* %76, %"struct.std::__1::pair.412"* %76, %"struct.std::__1::pair.412"* %77, %"struct.std::__1::pair.412"* %0, %"struct.base::internal::flat_tree<std::__1::basic_string<char, std::__1::char_traits<char>, std::__1::allocator<char> >, base::internal::GetFirst, std::__1::less<void>, std::__1::vector<std::__1::pair<std::__1::basic_string<char, std::__1::char_traits<char>, std::__1::allocator<char> >, std::__1::basic_string<char, std::__1::char_traits<char>, std::__1::allocator<char> > >, std::__1::allocator<std::__1::pair<std::__1::basic_string<char, std::__1::char_traits<char>, std::__1::allocator<char> >, std::__1::basic_string<char, std::__1::char_traits<char>, std::__1::allocator<char> > > > > >::value_compare"* dereferenceable(1) %2)
  %78 = icmp eq %"struct.std::__1::pair.412"* %4, null
  br i1 %78, label %104, label %79

79:                                               ; preds = %74, %98
  %80 = phi i64 [ %99, %98 ], [ 0, %74 ]
  %81 = phi %"struct.std::__1::pair.412"* [ %100, %98 ], [ %4, %74 ]
  %82 = getelementptr inbounds %"struct.std::__1::pair.412", %"struct.std::__1::pair.412"* %81, i64 0, i32 1
  %83 = bitcast %"class.std::__1::basic_string"* %82 to %"struct.std::__1::basic_string<char, std::__1::char_traits<char>, std::__1::allocator<char> >::__short"*
  %84 = getelementptr inbounds %"struct.std::__1::basic_string<char, std::__1::char_traits<char>, std::__1::allocator<char> >::__short", %"struct.std::__1::basic_string<char, std::__1::char_traits<char>, std::__1::allocator<char> >::__short"* %83, i64 0, i32 1, i32 0
  %85 = load i8, i8* %84, align 1
  %86 = icmp slt i8 %85, 0
  br i1 %86, label %87, label %90

87:                                               ; preds = %79
  %88 = getelementptr inbounds %"class.std::__1::basic_string", %"class.std::__1::basic_string"* %82, i64 0, i32 0, i32 0, i32 0, i32 0, i32 0, i32 0
  %89 = load i8*, i8** %88, align 8
  tail call void @_ZdlPv(i8* %89) #13
  br label %90

90:                                               ; preds = %87, %79
  %91 = bitcast %"struct.std::__1::pair.412"* %81 to %"struct.std::__1::basic_string<char, std::__1::char_traits<char>, std::__1::allocator<char> >::__short"*
  %92 = getelementptr inbounds %"struct.std::__1::basic_string<char, std::__1::char_traits<char>, std::__1::allocator<char> >::__short", %"struct.std::__1::basic_string<char, std::__1::char_traits<char>, std::__1::allocator<char> >::__short"* %91, i64 0, i32 1, i32 0
  %93 = load i8, i8* %92, align 1
  %94 = icmp slt i8 %93, 0
  br i1 %94, label %95, label %98

95:                                               ; preds = %90
  %96 = getelementptr inbounds %"struct.std::__1::pair.412", %"struct.std::__1::pair.412"* %81, i64 0, i32 0, i32 0, i32 0, i32 0, i32 0, i32 0, i32 0
  %97 = load i8*, i8** %96, align 8
  tail call void @_ZdlPv(i8* %97) #13
  br label %98

98:                                               ; preds = %95, %90
  %99 = add nuw i64 %80, 1
  %100 = getelementptr inbounds %"struct.std::__1::pair.412", %"struct.std::__1::pair.412"* %81, i64 1
  %101 = icmp eq i64 %99, %3
  br i1 %101, label %104, label %79

102:                                              ; preds = %70
  tail call void @_ZNSt3__113__stable_sortIRN4base8internal9flat_treeINS_12basic_stringIcNS_11char_traitsIcEENS_9allocatorIcEEEENS2_8GetFirstENS_4lessIvEENS_6vectorINS_4pairIS9_S9_EENS7_ISF_EEEEE13value_compareENS_11__wrap_iterIPSF_EEEEvT0_SO_T_NS_15iterator_traitsISO_E15difference_typeEPNSR_10value_typeEl(%"struct.std::__1::pair.412"* %0, %"struct.std::__1::pair.412"* %72, %"struct.base::internal::flat_tree<std::__1::basic_string<char, std::__1::char_traits<char>, std::__1::allocator<char> >, base::internal::GetFirst, std::__1::less<void>, std::__1::vector<std::__1::pair<std::__1::basic_string<char, std::__1::char_traits<char>, std::__1::allocator<char> >, std::__1::basic_string<char, std::__1::char_traits<char>, std::__1::allocator<char> > >, std::__1::allocator<std::__1::pair<std::__1::basic_string<char, std::__1::char_traits<char>, std::__1::allocator<char> >, std::__1::basic_string<char, std::__1::char_traits<char>, std::__1::allocator<char> > > > > >::value_compare"* dereferenceable(1) %2, i64 %71, %"struct.std::__1::pair.412"* %4, i64 %5)
  %103 = sub nsw i64 %3, %71
  tail call void @_ZNSt3__113__stable_sortIRN4base8internal9flat_treeINS_12basic_stringIcNS_11char_traitsIcEENS_9allocatorIcEEEENS2_8GetFirstENS_4lessIvEENS_6vectorINS_4pairIS9_S9_EENS7_ISF_EEEEE13value_compareENS_11__wrap_iterIPSF_EEEEvT0_SO_T_NS_15iterator_traitsISO_E15difference_typeEPNSR_10value_typeEl(%"struct.std::__1::pair.412"* %72, %"struct.std::__1::pair.412"* %1, %"struct.base::internal::flat_tree<std::__1::basic_string<char, std::__1::char_traits<char>, std::__1::allocator<char> >, base::internal::GetFirst, std::__1::less<void>, std::__1::vector<std::__1::pair<std::__1::basic_string<char, std::__1::char_traits<char>, std::__1::allocator<char> >, std::__1::basic_string<char, std::__1::char_traits<char>, std::__1::allocator<char> > >, std::__1::allocator<std::__1::pair<std::__1::basic_string<char, std::__1::char_traits<char>, std::__1::allocator<char> >, std::__1::basic_string<char, std::__1::char_traits<char>, std::__1::allocator<char> > > > > >::value_compare"* dereferenceable(1) %2, i64 %103, %"struct.std::__1::pair.412"* %4, i64 %5)
  tail call void @_ZNSt3__115__inplace_mergeIRN4base8internal9flat_treeINS_12basic_stringIcNS_11char_traitsIcEENS_9allocatorIcEEEENS2_8GetFirstENS_4lessIvEENS_6vectorINS_4pairIS9_S9_EENS7_ISF_EEEEE13value_compareENS_11__wrap_iterIPSF_EEEEvT0_SO_SO_T_NS_15iterator_traitsISO_E15difference_typeESS_PNSR_10value_typeEl(%"struct.std::__1::pair.412"* %0, %"struct.std::__1::pair.412"* %72, %"struct.std::__1::pair.412"* %1, %"struct.base::internal::flat_tree<std::__1::basic_string<char, std::__1::char_traits<char>, std::__1::allocator<char> >, base::internal::GetFirst, std::__1::less<void>, std::__1::vector<std::__1::pair<std::__1::basic_string<char, std::__1::char_traits<char>, std::__1::allocator<char> >, std::__1::basic_string<char, std::__1::char_traits<char>, std::__1::allocator<char> > >, std::__1::allocator<std::__1::pair<std::__1::basic_string<char, std::__1::char_traits<char>, std::__1::allocator<char> >, std::__1::basic_string<char, std::__1::char_traits<char>, std::__1::allocator<char> > > > > >::value_compare"* dereferenceable(1) %2, i64 %71, i64 %103, %"struct.std::__1::pair.412"* %4, i64 %5)
  ret void

104:                                              ; preds = %98, %39, %74, %46, %49, %6, %6, %69
  ret void
}

; Function Attrs: nobuiltin nofree nounwind
declare noalias i8* @_ZnwmRKSt9nothrow_t(i64, %"struct.std::nothrow_t"* dereferenceable(1)) local_unnamed_addr #10

; Function Attrs: nounwind ssp uwtable
define linkonce_odr hidden void @_ZNSt3__116__insertion_sortIRN4base8internal9flat_treeINS_12basic_stringIcNS_11char_traitsIcEENS_9allocatorIcEEEENS2_8GetFirstENS_4lessIvEENS_6vectorINS_4pairIS9_S9_EENS7_ISF_EEEEE13value_compareENS_11__wrap_iterIPSF_EEEEvT0_SO_T_(%"struct.std::__1::pair.412"*, %"struct.std::__1::pair.412"*, %"struct.base::internal::flat_tree<std::__1::basic_string<char, std::__1::char_traits<char>, std::__1::allocator<char> >, base::internal::GetFirst, std::__1::less<void>, std::__1::vector<std::__1::pair<std::__1::basic_string<char, std::__1::char_traits<char>, std::__1::allocator<char> >, std::__1::basic_string<char, std::__1::char_traits<char>, std::__1::allocator<char> > >, std::__1::allocator<std::__1::pair<std::__1::basic_string<char, std::__1::char_traits<char>, std::__1::allocator<char> >, std::__1::basic_string<char, std::__1::char_traits<char>, std::__1::allocator<char> > > > > >::value_compare"* dereferenceable(1)) local_unnamed_addr #0 comdat {
  %4 = alloca %"struct.std::__1::pair.412", align 8
  %5 = icmp eq %"struct.std::__1::pair.412"* %0, %1
  br i1 %5, label %105, label %6

6:                                                ; preds = %3
  %7 = getelementptr inbounds %"struct.std::__1::pair.412", %"struct.std::__1::pair.412"* %0, i64 1
  %8 = icmp eq %"struct.std::__1::pair.412"* %7, %1
  br i1 %8, label %105, label %9

9:                                                ; preds = %6
  %10 = bitcast %"struct.std::__1::pair.412"* %4 to i8*
  %11 = getelementptr inbounds %"struct.std::__1::pair.412", %"struct.std::__1::pair.412"* %4, i64 0, i32 0, i32 0, i32 0, i32 0, i32 0, i32 0, i32 0
  %12 = getelementptr inbounds %"struct.std::__1::pair.412", %"struct.std::__1::pair.412"* %4, i64 0, i32 0, i32 0, i32 0, i32 0, i32 0, i32 0, i32 1
  %13 = getelementptr inbounds %"struct.std::__1::pair.412", %"struct.std::__1::pair.412"* %4, i64 0, i32 1
  %14 = bitcast %"class.std::__1::basic_string"* %13 to i8*
  %15 = bitcast %"struct.std::__1::pair.412"* %4 to %"struct.std::__1::basic_string<char, std::__1::char_traits<char>, std::__1::allocator<char> >::__short"*
  %16 = getelementptr inbounds %"struct.std::__1::basic_string<char, std::__1::char_traits<char>, std::__1::allocator<char> >::__short", %"struct.std::__1::basic_string<char, std::__1::char_traits<char>, std::__1::allocator<char> >::__short"* %15, i64 0, i32 1, i32 0
  br label %17

17:                                               ; preds = %9, %75
  %18 = phi %"struct.std::__1::pair.412"* [ %7, %9 ], [ %77, %75 ]
  %19 = phi %"struct.std::__1::pair.412"* [ %0, %9 ], [ %18, %75 ]
  call void @llvm.lifetime.start.p0i8(i64 48, i8* nonnull %10) #12
  %20 = bitcast %"struct.std::__1::pair.412"* %18 to i8*
  call void @llvm.memcpy.p0i8.p0i8.i64(i8* nonnull align 8 %10, i8* align 8 %20, i64 24, i1 false) #12
  tail call void @llvm.memset.p0i8.i64(i8* align 8 %20, i8 0, i64 24, i1 false) #12
  %21 = getelementptr inbounds %"struct.std::__1::pair.412", %"struct.std::__1::pair.412"* %19, i64 1, i32 1
  %22 = bitcast %"class.std::__1::basic_string"* %21 to i8*
  call void @llvm.memcpy.p0i8.p0i8.i64(i8* align 8 %14, i8* align 8 %22, i64 24, i1 false) #12
  tail call void @llvm.memset.p0i8.i64(i8* align 8 %22, i8 0, i64 24, i1 false) #12
  %23 = icmp eq %"struct.std::__1::pair.412"* %18, %0
  br i1 %23, label %56, label %24

24:                                               ; preds = %17, %99
  %25 = phi %"struct.std::__1::pair.412"* [ %26, %99 ], [ %18, %17 ]
  %26 = getelementptr inbounds %"struct.std::__1::pair.412", %"struct.std::__1::pair.412"* %25, i64 -1
  %27 = bitcast %"struct.std::__1::pair.412"* %26 to %"struct.std::__1::basic_string<char, std::__1::char_traits<char>, std::__1::allocator<char> >::__short"*
  %28 = getelementptr inbounds %"struct.std::__1::basic_string<char, std::__1::char_traits<char>, std::__1::allocator<char> >::__short", %"struct.std::__1::basic_string<char, std::__1::char_traits<char>, std::__1::allocator<char> >::__short"* %27, i64 0, i32 1, i32 0
  %29 = load i8, i8* %28, align 1
  %30 = icmp slt i8 %29, 0
  %31 = getelementptr inbounds %"struct.std::__1::pair.412", %"struct.std::__1::pair.412"* %25, i64 -1, i32 0, i32 0, i32 0, i32 0, i32 0, i32 0, i32 1
  %32 = load i64, i64* %31, align 8
  %33 = zext i8 %29 to i64
  %34 = select i1 %30, i64 %32, i64 %33
  %35 = load i8, i8* %16, align 1
  %36 = icmp slt i8 %35, 0
  %37 = load i64, i64* %12, align 8
  %38 = zext i8 %35 to i64
  %39 = select i1 %36, i64 %37, i64 %38
  %40 = icmp ult i64 %34, %39
  %41 = select i1 %40, i64 %34, i64 %39
  %42 = icmp eq i64 %41, 0
  br i1 %42, label %52, label %43

43:                                               ; preds = %24
  %44 = load i8*, i8** %11, align 8
  %45 = select i1 %36, i8* %44, i8* %10
  %46 = getelementptr inbounds %"struct.std::__1::pair.412", %"struct.std::__1::pair.412"* %26, i64 0, i32 0, i32 0, i32 0, i32 0, i32 0, i32 0, i32 0
  %47 = load i8*, i8** %46, align 8
  %48 = bitcast %"struct.std::__1::pair.412"* %26 to i8*
  %49 = select i1 %30, i8* %47, i8* %48
  %50 = call i32 @memcmp(i8* %45, i8* %49, i64 %41) #12
  %51 = icmp eq i32 %50, 0
  br i1 %51, label %52, label %54

52:                                               ; preds = %43, %24
  %53 = icmp ult i64 %39, %34
  br i1 %53, label %79, label %56

54:                                               ; preds = %43
  %55 = icmp slt i32 %50, 0
  br i1 %55, label %79, label %56

56:                                               ; preds = %54, %52, %99, %17
  %57 = phi %"struct.std::__1::pair.412"* [ %0, %17 ], [ %0, %99 ], [ %25, %52 ], [ %25, %54 ]
  %58 = bitcast %"struct.std::__1::pair.412"* %57 to %"struct.std::__1::basic_string<char, std::__1::char_traits<char>, std::__1::allocator<char> >::__short"*
  %59 = getelementptr inbounds %"struct.std::__1::basic_string<char, std::__1::char_traits<char>, std::__1::allocator<char> >::__short", %"struct.std::__1::basic_string<char, std::__1::char_traits<char>, std::__1::allocator<char> >::__short"* %58, i64 0, i32 1, i32 0
  %60 = load i8, i8* %59, align 1
  %61 = icmp slt i8 %60, 0
  br i1 %61, label %62, label %65

62:                                               ; preds = %56
  %63 = getelementptr inbounds %"struct.std::__1::pair.412", %"struct.std::__1::pair.412"* %57, i64 0, i32 0, i32 0, i32 0, i32 0, i32 0, i32 0, i32 0
  %64 = load i8*, i8** %63, align 8
  tail call void @_ZdlPv(i8* %64) #13
  br label %65

65:                                               ; preds = %62, %56
  %66 = bitcast %"struct.std::__1::pair.412"* %57 to i8*
  call void @llvm.memcpy.p0i8.p0i8.i64(i8* align 8 %66, i8* nonnull align 8 %10, i64 24, i1 false) #12
  store i8 0, i8* %16, align 1
  store i8 0, i8* %10, align 8
  %67 = getelementptr inbounds %"struct.std::__1::pair.412", %"struct.std::__1::pair.412"* %57, i64 0, i32 1
  %68 = bitcast %"class.std::__1::basic_string"* %67 to %"struct.std::__1::basic_string<char, std::__1::char_traits<char>, std::__1::allocator<char> >::__short"*
  %69 = getelementptr inbounds %"struct.std::__1::basic_string<char, std::__1::char_traits<char>, std::__1::allocator<char> >::__short", %"struct.std::__1::basic_string<char, std::__1::char_traits<char>, std::__1::allocator<char> >::__short"* %68, i64 0, i32 1, i32 0
  %70 = load i8, i8* %69, align 1
  %71 = icmp slt i8 %70, 0
  br i1 %71, label %72, label %75

72:                                               ; preds = %65
  %73 = getelementptr inbounds %"class.std::__1::basic_string", %"class.std::__1::basic_string"* %67, i64 0, i32 0, i32 0, i32 0, i32 0, i32 0, i32 0
  %74 = load i8*, i8** %73, align 8
  tail call void @_ZdlPv(i8* %74) #13
  br label %75

75:                                               ; preds = %65, %72
  %76 = bitcast %"class.std::__1::basic_string"* %67 to i8*
  call void @llvm.memcpy.p0i8.p0i8.i64(i8* align 8 %76, i8* align 8 %14, i64 24, i1 false) #12
  call void @llvm.lifetime.end.p0i8(i64 48, i8* nonnull %10) #12
  %77 = getelementptr inbounds %"struct.std::__1::pair.412", %"struct.std::__1::pair.412"* %18, i64 1
  %78 = icmp eq %"struct.std::__1::pair.412"* %77, %1
  br i1 %78, label %105, label %17

79:                                               ; preds = %52, %54
  %80 = bitcast %"struct.std::__1::pair.412"* %25 to %"struct.std::__1::basic_string<char, std::__1::char_traits<char>, std::__1::allocator<char> >::__short"*
  %81 = getelementptr inbounds %"struct.std::__1::basic_string<char, std::__1::char_traits<char>, std::__1::allocator<char> >::__short", %"struct.std::__1::basic_string<char, std::__1::char_traits<char>, std::__1::allocator<char> >::__short"* %80, i64 0, i32 1, i32 0
  %82 = load i8, i8* %81, align 1
  %83 = icmp slt i8 %82, 0
  br i1 %83, label %84, label %87

84:                                               ; preds = %79
  %85 = getelementptr inbounds %"struct.std::__1::pair.412", %"struct.std::__1::pair.412"* %25, i64 0, i32 0, i32 0, i32 0, i32 0, i32 0, i32 0, i32 0
  %86 = load i8*, i8** %85, align 8
  tail call void @_ZdlPv(i8* %86) #13
  br label %87

87:                                               ; preds = %84, %79
  %88 = bitcast %"struct.std::__1::pair.412"* %25 to i8*
  %89 = bitcast %"struct.std::__1::pair.412"* %26 to i8*
  tail call void @llvm.memcpy.p0i8.p0i8.i64(i8* align 8 %88, i8* align 8 %89, i64 24, i1 false) #12
  store i8 0, i8* %28, align 1
  store i8 0, i8* %89, align 1
  %90 = getelementptr inbounds %"struct.std::__1::pair.412", %"struct.std::__1::pair.412"* %25, i64 -1, i32 1
  %91 = getelementptr inbounds %"struct.std::__1::pair.412", %"struct.std::__1::pair.412"* %25, i64 0, i32 1
  %92 = bitcast %"class.std::__1::basic_string"* %91 to %"struct.std::__1::basic_string<char, std::__1::char_traits<char>, std::__1::allocator<char> >::__short"*
  %93 = getelementptr inbounds %"struct.std::__1::basic_string<char, std::__1::char_traits<char>, std::__1::allocator<char> >::__short", %"struct.std::__1::basic_string<char, std::__1::char_traits<char>, std::__1::allocator<char> >::__short"* %92, i64 0, i32 1, i32 0
  %94 = load i8, i8* %93, align 1
  %95 = icmp slt i8 %94, 0
  br i1 %95, label %96, label %99

96:                                               ; preds = %87
  %97 = getelementptr inbounds %"class.std::__1::basic_string", %"class.std::__1::basic_string"* %91, i64 0, i32 0, i32 0, i32 0, i32 0, i32 0, i32 0
  %98 = load i8*, i8** %97, align 8
  tail call void @_ZdlPv(i8* %98) #13
  br label %99

99:                                               ; preds = %87, %96
  %100 = bitcast %"class.std::__1::basic_string"* %91 to i8*
  %101 = bitcast %"class.std::__1::basic_string"* %90 to i8*
  tail call void @llvm.memcpy.p0i8.p0i8.i64(i8* align 8 %100, i8* align 8 %101, i64 24, i1 false) #12
  %102 = bitcast %"class.std::__1::basic_string"* %90 to %"struct.std::__1::basic_string<char, std::__1::char_traits<char>, std::__1::allocator<char> >::__short"*
  %103 = getelementptr inbounds %"struct.std::__1::basic_string<char, std::__1::char_traits<char>, std::__1::allocator<char> >::__short", %"struct.std::__1::basic_string<char, std::__1::char_traits<char>, std::__1::allocator<char> >::__short"* %102, i64 0, i32 1, i32 0
  store i8 0, i8* %103, align 1
  store i8 0, i8* %101, align 1
  %104 = icmp eq %"struct.std::__1::pair.412"* %26, %0
  br i1 %104, label %56, label %24

105:                                              ; preds = %75, %6, %3
  ret void
}

; Function Attrs: nounwind ssp uwtable
define linkonce_odr hidden void @_ZNSt3__118__stable_sort_moveIRN4base8internal9flat_treeINS_12basic_stringIcNS_11char_traitsIcEENS_9allocatorIcEEEENS2_8GetFirstENS_4lessIvEENS_6vectorINS_4pairIS9_S9_EENS7_ISF_EEEEE13value_compareENS_11__wrap_iterIPSF_EEEEvT0_SO_T_NS_15iterator_traitsISO_E15difference_typeEPNSR_10value_typeE(%"struct.std::__1::pair.412"*, %"struct.std::__1::pair.412"*, %"struct.base::internal::flat_tree<std::__1::basic_string<char, std::__1::char_traits<char>, std::__1::allocator<char> >, base::internal::GetFirst, std::__1::less<void>, std::__1::vector<std::__1::pair<std::__1::basic_string<char, std::__1::char_traits<char>, std::__1::allocator<char> >, std::__1::basic_string<char, std::__1::char_traits<char>, std::__1::allocator<char> > >, std::__1::allocator<std::__1::pair<std::__1::basic_string<char, std::__1::char_traits<char>, std::__1::allocator<char> >, std::__1::basic_string<char, std::__1::char_traits<char>, std::__1::allocator<char> > > > > >::value_compare"* dereferenceable(1), i64, %"struct.std::__1::pair.412"*) local_unnamed_addr #0 comdat {
  switch i64 %3, label %83 [
    i64 0, label %91
    i64 1, label %6
    i64 2, label %13
  ]

6:                                                ; preds = %5
  %7 = bitcast %"struct.std::__1::pair.412"* %4 to i8*
  %8 = bitcast %"struct.std::__1::pair.412"* %0 to i8*
  tail call void @llvm.memcpy.p0i8.p0i8.i64(i8* align 8 %7, i8* align 8 %8, i64 24, i1 false) #12
  tail call void @llvm.memset.p0i8.i64(i8* align 8 %8, i8 0, i64 24, i1 false) #12
  %9 = getelementptr inbounds %"struct.std::__1::pair.412", %"struct.std::__1::pair.412"* %4, i64 0, i32 1
  %10 = getelementptr inbounds %"struct.std::__1::pair.412", %"struct.std::__1::pair.412"* %0, i64 0, i32 1
  %11 = bitcast %"class.std::__1::basic_string"* %9 to i8*
  %12 = bitcast %"class.std::__1::basic_string"* %10 to i8*
  tail call void @llvm.memcpy.p0i8.p0i8.i64(i8* align 8 %11, i8* align 8 %12, i64 24, i1 false) #12
  tail call void @llvm.memset.p0i8.i64(i8* align 8 %12, i8 0, i64 24, i1 false) #12
  br label %91

13:                                               ; preds = %5
  %14 = getelementptr inbounds %"struct.std::__1::pair.412", %"struct.std::__1::pair.412"* %1, i64 -1
  %15 = bitcast %"struct.std::__1::pair.412"* %0 to %"struct.std::__1::basic_string<char, std::__1::char_traits<char>, std::__1::allocator<char> >::__short"*
  %16 = getelementptr inbounds %"struct.std::__1::basic_string<char, std::__1::char_traits<char>, std::__1::allocator<char> >::__short", %"struct.std::__1::basic_string<char, std::__1::char_traits<char>, std::__1::allocator<char> >::__short"* %15, i64 0, i32 1, i32 0
  %17 = load i8, i8* %16, align 1
  %18 = icmp slt i8 %17, 0
  %19 = getelementptr inbounds %"struct.std::__1::pair.412", %"struct.std::__1::pair.412"* %0, i64 0, i32 0, i32 0, i32 0, i32 0, i32 0, i32 0, i32 1
  %20 = load i64, i64* %19, align 8
  %21 = zext i8 %17 to i64
  %22 = select i1 %18, i64 %20, i64 %21
  %23 = bitcast %"struct.std::__1::pair.412"* %14 to %"struct.std::__1::basic_string<char, std::__1::char_traits<char>, std::__1::allocator<char> >::__short"*
  %24 = getelementptr inbounds %"struct.std::__1::basic_string<char, std::__1::char_traits<char>, std::__1::allocator<char> >::__short", %"struct.std::__1::basic_string<char, std::__1::char_traits<char>, std::__1::allocator<char> >::__short"* %23, i64 0, i32 1, i32 0
  %25 = load i8, i8* %24, align 1
  %26 = icmp slt i8 %25, 0
  %27 = getelementptr inbounds %"struct.std::__1::pair.412", %"struct.std::__1::pair.412"* %1, i64 -1, i32 0, i32 0, i32 0, i32 0, i32 0, i32 0, i32 1
  %28 = load i64, i64* %27, align 8
  %29 = zext i8 %25 to i64
  %30 = select i1 %26, i64 %28, i64 %29
  %31 = icmp ult i64 %22, %30
  %32 = select i1 %31, i64 %22, i64 %30
  %33 = icmp eq i64 %32, 0
  br i1 %33, label %45, label %34

34:                                               ; preds = %13
  %35 = getelementptr inbounds %"struct.std::__1::pair.412", %"struct.std::__1::pair.412"* %14, i64 0, i32 0, i32 0, i32 0, i32 0, i32 0, i32 0, i32 0
  %36 = load i8*, i8** %35, align 8
  %37 = bitcast %"struct.std::__1::pair.412"* %14 to i8*
  %38 = select i1 %26, i8* %36, i8* %37
  %39 = getelementptr inbounds %"struct.std::__1::pair.412", %"struct.std::__1::pair.412"* %0, i64 0, i32 0, i32 0, i32 0, i32 0, i32 0, i32 0, i32 0
  %40 = load i8*, i8** %39, align 8
  %41 = bitcast %"struct.std::__1::pair.412"* %0 to i8*
  %42 = select i1 %18, i8* %40, i8* %41
  %43 = tail call i32 @memcmp(i8* %38, i8* %42, i64 %32) #12
  %44 = icmp eq i32 %43, 0
  br i1 %44, label %45, label %53

45:                                               ; preds = %34, %13
  %46 = icmp ult i64 %30, %22
  br i1 %46, label %47, label %50

47:                                               ; preds = %45
  %48 = bitcast %"struct.std::__1::pair.412"* %14 to i8*
  %49 = bitcast %"struct.std::__1::pair.412"* %0 to i8*
  br label %55

50:                                               ; preds = %45
  %51 = bitcast %"struct.std::__1::pair.412"* %0 to i8*
  %52 = bitcast %"struct.std::__1::pair.412"* %14 to i8*
  br label %69

53:                                               ; preds = %34
  %54 = icmp slt i32 %43, 0
  br i1 %54, label %55, label %69

55:                                               ; preds = %47, %53
  %56 = phi i8* [ %49, %47 ], [ %41, %53 ]
  %57 = phi i8* [ %48, %47 ], [ %37, %53 ]
  %58 = bitcast %"struct.std::__1::pair.412"* %4 to i8*
  tail call void @llvm.memcpy.p0i8.p0i8.i64(i8* align 8 %58, i8* align 8 %57, i64 24, i1 false) #12
  tail call void @llvm.memset.p0i8.i64(i8* align 8 %57, i8 0, i64 24, i1 false) #12
  %59 = getelementptr inbounds %"struct.std::__1::pair.412", %"struct.std::__1::pair.412"* %4, i64 0, i32 1
  %60 = getelementptr inbounds %"struct.std::__1::pair.412", %"struct.std::__1::pair.412"* %1, i64 -1, i32 1
  %61 = bitcast %"class.std::__1::basic_string"* %59 to i8*
  %62 = bitcast %"class.std::__1::basic_string"* %60 to i8*
  tail call void @llvm.memcpy.p0i8.p0i8.i64(i8* align 8 %61, i8* align 8 %62, i64 24, i1 false) #12
  tail call void @llvm.memset.p0i8.i64(i8* align 8 %62, i8 0, i64 24, i1 false) #12
  %63 = getelementptr inbounds %"struct.std::__1::pair.412", %"struct.std::__1::pair.412"* %4, i64 1
  %64 = bitcast %"struct.std::__1::pair.412"* %63 to i8*
  tail call void @llvm.memcpy.p0i8.p0i8.i64(i8* align 8 %64, i8* align 8 %56, i64 24, i1 false) #12
  tail call void @llvm.memset.p0i8.i64(i8* align 8 %56, i8 0, i64 24, i1 false) #12
  %65 = getelementptr inbounds %"struct.std::__1::pair.412", %"struct.std::__1::pair.412"* %4, i64 1, i32 1
  %66 = getelementptr inbounds %"struct.std::__1::pair.412", %"struct.std::__1::pair.412"* %0, i64 0, i32 1
  %67 = bitcast %"class.std::__1::basic_string"* %65 to i8*
  %68 = bitcast %"class.std::__1::basic_string"* %66 to i8*
  tail call void @llvm.memcpy.p0i8.p0i8.i64(i8* align 8 %67, i8* align 8 %68, i64 24, i1 false) #12
  tail call void @llvm.memset.p0i8.i64(i8* align 8 %68, i8 0, i64 24, i1 false) #12
  br label %91

69:                                               ; preds = %50, %53
  %70 = phi i8* [ %52, %50 ], [ %37, %53 ]
  %71 = phi i8* [ %51, %50 ], [ %41, %53 ]
  %72 = bitcast %"struct.std::__1::pair.412"* %4 to i8*
  tail call void @llvm.memcpy.p0i8.p0i8.i64(i8* align 8 %72, i8* align 8 %71, i64 24, i1 false) #12
  tail call void @llvm.memset.p0i8.i64(i8* align 8 %71, i8 0, i64 24, i1 false) #12
  %73 = getelementptr inbounds %"struct.std::__1::pair.412", %"struct.std::__1::pair.412"* %4, i64 0, i32 1
  %74 = getelementptr inbounds %"struct.std::__1::pair.412", %"struct.std::__1::pair.412"* %0, i64 0, i32 1
  %75 = bitcast %"class.std::__1::basic_string"* %73 to i8*
  %76 = bitcast %"class.std::__1::basic_string"* %74 to i8*
  tail call void @llvm.memcpy.p0i8.p0i8.i64(i8* align 8 %75, i8* align 8 %76, i64 24, i1 false) #12
  tail call void @llvm.memset.p0i8.i64(i8* align 8 %76, i8 0, i64 24, i1 false) #12
  %77 = getelementptr inbounds %"struct.std::__1::pair.412", %"struct.std::__1::pair.412"* %4, i64 1
  %78 = bitcast %"struct.std::__1::pair.412"* %77 to i8*
  tail call void @llvm.memcpy.p0i8.p0i8.i64(i8* align 8 %78, i8* align 8 %70, i64 24, i1 false) #12
  tail call void @llvm.memset.p0i8.i64(i8* align 8 %70, i8 0, i64 24, i1 false) #12
  %79 = getelementptr inbounds %"struct.std::__1::pair.412", %"struct.std::__1::pair.412"* %4, i64 1, i32 1
  %80 = getelementptr inbounds %"struct.std::__1::pair.412", %"struct.std::__1::pair.412"* %1, i64 -1, i32 1
  %81 = bitcast %"class.std::__1::basic_string"* %79 to i8*
  %82 = bitcast %"class.std::__1::basic_string"* %80 to i8*
  tail call void @llvm.memcpy.p0i8.p0i8.i64(i8* align 8 %81, i8* align 8 %82, i64 24, i1 false) #12
  tail call void @llvm.memset.p0i8.i64(i8* align 8 %82, i8 0, i64 24, i1 false) #12
  br label %91

83:                                               ; preds = %5
  %84 = icmp slt i64 %3, 9
  br i1 %84, label %85, label %86

85:                                               ; preds = %83
  tail call void @_ZNSt3__121__insertion_sort_moveIRN4base8internal9flat_treeINS_12basic_stringIcNS_11char_traitsIcEENS_9allocatorIcEEEENS2_8GetFirstENS_4lessIvEENS_6vectorINS_4pairIS9_S9_EENS7_ISF_EEEEE13value_compareENS_11__wrap_iterIPSF_EEEEvT0_SO_PNS_15iterator_traitsISO_E10value_typeET_(%"struct.std::__1::pair.412"* %0, %"struct.std::__1::pair.412"* %1, %"struct.std::__1::pair.412"* %4, %"struct.base::internal::flat_tree<std::__1::basic_string<char, std::__1::char_traits<char>, std::__1::allocator<char> >, base::internal::GetFirst, std::__1::less<void>, std::__1::vector<std::__1::pair<std::__1::basic_string<char, std::__1::char_traits<char>, std::__1::allocator<char> >, std::__1::basic_string<char, std::__1::char_traits<char>, std::__1::allocator<char> > >, std::__1::allocator<std::__1::pair<std::__1::basic_string<char, std::__1::char_traits<char>, std::__1::allocator<char> >, std::__1::basic_string<char, std::__1::char_traits<char>, std::__1::allocator<char> > > > > >::value_compare"* dereferenceable(1) %2)
  br label %91

86:                                               ; preds = %83
  %87 = lshr i64 %3, 1
  %88 = getelementptr inbounds %"struct.std::__1::pair.412", %"struct.std::__1::pair.412"* %0, i64 %87
  tail call void @_ZNSt3__113__stable_sortIRN4base8internal9flat_treeINS_12basic_stringIcNS_11char_traitsIcEENS_9allocatorIcEEEENS2_8GetFirstENS_4lessIvEENS_6vectorINS_4pairIS9_S9_EENS7_ISF_EEEEE13value_compareENS_11__wrap_iterIPSF_EEEEvT0_SO_T_NS_15iterator_traitsISO_E15difference_typeEPNSR_10value_typeEl(%"struct.std::__1::pair.412"* %0, %"struct.std::__1::pair.412"* %88, %"struct.base::internal::flat_tree<std::__1::basic_string<char, std::__1::char_traits<char>, std::__1::allocator<char> >, base::internal::GetFirst, std::__1::less<void>, std::__1::vector<std::__1::pair<std::__1::basic_string<char, std::__1::char_traits<char>, std::__1::allocator<char> >, std::__1::basic_string<char, std::__1::char_traits<char>, std::__1::allocator<char> > >, std::__1::allocator<std::__1::pair<std::__1::basic_string<char, std::__1::char_traits<char>, std::__1::allocator<char> >, std::__1::basic_string<char, std::__1::char_traits<char>, std::__1::allocator<char> > > > > >::value_compare"* dereferenceable(1) %2, i64 %87, %"struct.std::__1::pair.412"* %4, i64 %87)
  %89 = sub nsw i64 %3, %87
  %90 = getelementptr inbounds %"struct.std::__1::pair.412", %"struct.std::__1::pair.412"* %4, i64 %87
  tail call void @_ZNSt3__113__stable_sortIRN4base8internal9flat_treeINS_12basic_stringIcNS_11char_traitsIcEENS_9allocatorIcEEEENS2_8GetFirstENS_4lessIvEENS_6vectorINS_4pairIS9_S9_EENS7_ISF_EEEEE13value_compareENS_11__wrap_iterIPSF_EEEEvT0_SO_T_NS_15iterator_traitsISO_E15difference_typeEPNSR_10value_typeEl(%"struct.std::__1::pair.412"* %88, %"struct.std::__1::pair.412"* %1, %"struct.base::internal::flat_tree<std::__1::basic_string<char, std::__1::char_traits<char>, std::__1::allocator<char> >, base::internal::GetFirst, std::__1::less<void>, std::__1::vector<std::__1::pair<std::__1::basic_string<char, std::__1::char_traits<char>, std::__1::allocator<char> >, std::__1::basic_string<char, std::__1::char_traits<char>, std::__1::allocator<char> > >, std::__1::allocator<std::__1::pair<std::__1::basic_string<char, std::__1::char_traits<char>, std::__1::allocator<char> >, std::__1::basic_string<char, std::__1::char_traits<char>, std::__1::allocator<char> > > > > >::value_compare"* dereferenceable(1) %2, i64 %89, %"struct.std::__1::pair.412"* %90, i64 %89)
  tail call void @_ZNSt3__122__merge_move_constructIRN4base8internal9flat_treeINS_12basic_stringIcNS_11char_traitsIcEENS_9allocatorIcEEEENS2_8GetFirstENS_4lessIvEENS_6vectorINS_4pairIS9_S9_EENS7_ISF_EEEEE13value_compareENS_11__wrap_iterIPSF_EESN_EEvT0_SO_T1_SP_PNS_15iterator_traitsISO_E10value_typeET_(%"struct.std::__1::pair.412"* %0, %"struct.std::__1::pair.412"* %88, %"struct.std::__1::pair.412"* %88, %"struct.std::__1::pair.412"* %1, %"struct.std::__1::pair.412"* %4, %"struct.base::internal::flat_tree<std::__1::basic_string<char, std::__1::char_traits<char>, std::__1::allocator<char> >, base::internal::GetFirst, std::__1::less<void>, std::__1::vector<std::__1::pair<std::__1::basic_string<char, std::__1::char_traits<char>, std::__1::allocator<char> >, std::__1::basic_string<char, std::__1::char_traits<char>, std::__1::allocator<char> > >, std::__1::allocator<std::__1::pair<std::__1::basic_string<char, std::__1::char_traits<char>, std::__1::allocator<char> >, std::__1::basic_string<char, std::__1::char_traits<char>, std::__1::allocator<char> > > > > >::value_compare"* dereferenceable(1) %2)
  br label %91

91:                                               ; preds = %69, %55, %5, %86, %85, %6
  ret void
}

; Function Attrs: nounwind ssp uwtable
define linkonce_odr hidden void @_ZNSt3__119__merge_move_assignIRN4base8internal9flat_treeINS_12basic_stringIcNS_11char_traitsIcEENS_9allocatorIcEEEENS2_8GetFirstENS_4lessIvEENS_6vectorINS_4pairIS9_S9_EENS7_ISF_EEEEE13value_compareEPSF_SL_NS_11__wrap_iterISL_EEEEvT0_SO_T1_SP_T2_T_(%"struct.std::__1::pair.412"*, %"struct.std::__1::pair.412"*, %"struct.std::__1::pair.412"*, %"struct.std::__1::pair.412"*, %"struct.std::__1::pair.412"*, %"struct.base::internal::flat_tree<std::__1::basic_string<char, std::__1::char_traits<char>, std::__1::allocator<char> >, base::internal::GetFirst, std::__1::less<void>, std::__1::vector<std::__1::pair<std::__1::basic_string<char, std::__1::char_traits<char>, std::__1::allocator<char> >, std::__1::basic_string<char, std::__1::char_traits<char>, std::__1::allocator<char> > >, std::__1::allocator<std::__1::pair<std::__1::basic_string<char, std::__1::char_traits<char>, std::__1::allocator<char> >, std::__1::basic_string<char, std::__1::char_traits<char>, std::__1::allocator<char> > > > > >::value_compare"* dereferenceable(1)) local_unnamed_addr #0 comdat {
  %7 = icmp eq %"struct.std::__1::pair.412"* %0, %1
  br i1 %7, label %8, label %12

8:                                                ; preds = %138, %6
  %9 = phi %"struct.std::__1::pair.412"* [ %4, %6 ], [ %141, %138 ]
  %10 = phi %"struct.std::__1::pair.412"* [ %2, %6 ], [ %139, %138 ]
  %11 = icmp eq %"struct.std::__1::pair.412"* %10, %3
  br i1 %11, label %175, label %143

12:                                               ; preds = %6, %138
  %13 = phi %"struct.std::__1::pair.412"* [ %140, %138 ], [ %0, %6 ]
  %14 = phi %"struct.std::__1::pair.412"* [ %139, %138 ], [ %2, %6 ]
  %15 = phi %"struct.std::__1::pair.412"* [ %141, %138 ], [ %4, %6 ]
  %16 = icmp eq %"struct.std::__1::pair.412"* %14, %3
  br i1 %16, label %17, label %51

17:                                               ; preds = %12
  %18 = icmp eq %"struct.std::__1::pair.412"* %13, %1
  br i1 %18, label %175, label %19

19:                                               ; preds = %17, %43
  %20 = phi %"struct.std::__1::pair.412"* [ %48, %43 ], [ %13, %17 ]
  %21 = phi %"struct.std::__1::pair.412"* [ %49, %43 ], [ %15, %17 ]
  %22 = bitcast %"struct.std::__1::pair.412"* %21 to %"struct.std::__1::basic_string<char, std::__1::char_traits<char>, std::__1::allocator<char> >::__short"*
  %23 = getelementptr inbounds %"struct.std::__1::basic_string<char, std::__1::char_traits<char>, std::__1::allocator<char> >::__short", %"struct.std::__1::basic_string<char, std::__1::char_traits<char>, std::__1::allocator<char> >::__short"* %22, i64 0, i32 1, i32 0
  %24 = load i8, i8* %23, align 1
  %25 = icmp slt i8 %24, 0
  br i1 %25, label %26, label %29

26:                                               ; preds = %19
  %27 = getelementptr inbounds %"struct.std::__1::pair.412", %"struct.std::__1::pair.412"* %21, i64 0, i32 0, i32 0, i32 0, i32 0, i32 0, i32 0, i32 0
  %28 = load i8*, i8** %27, align 8
  tail call void @_ZdlPv(i8* %28) #13
  br label %29

29:                                               ; preds = %26, %19
  %30 = bitcast %"struct.std::__1::pair.412"* %21 to i8*
  %31 = bitcast %"struct.std::__1::pair.412"* %20 to i8*
  tail call void @llvm.memcpy.p0i8.p0i8.i64(i8* align 8 %30, i8* align 8 %31, i64 24, i1 false) #12
  %32 = bitcast %"struct.std::__1::pair.412"* %20 to %"struct.std::__1::basic_string<char, std::__1::char_traits<char>, std::__1::allocator<char> >::__short"*
  %33 = getelementptr inbounds %"struct.std::__1::basic_string<char, std::__1::char_traits<char>, std::__1::allocator<char> >::__short", %"struct.std::__1::basic_string<char, std::__1::char_traits<char>, std::__1::allocator<char> >::__short"* %32, i64 0, i32 1, i32 0
  store i8 0, i8* %33, align 1
  store i8 0, i8* %31, align 1
  %34 = getelementptr inbounds %"struct.std::__1::pair.412", %"struct.std::__1::pair.412"* %20, i64 0, i32 1
  %35 = getelementptr inbounds %"struct.std::__1::pair.412", %"struct.std::__1::pair.412"* %21, i64 0, i32 1
  %36 = bitcast %"class.std::__1::basic_string"* %35 to %"struct.std::__1::basic_string<char, std::__1::char_traits<char>, std::__1::allocator<char> >::__short"*
  %37 = getelementptr inbounds %"struct.std::__1::basic_string<char, std::__1::char_traits<char>, std::__1::allocator<char> >::__short", %"struct.std::__1::basic_string<char, std::__1::char_traits<char>, std::__1::allocator<char> >::__short"* %36, i64 0, i32 1, i32 0
  %38 = load i8, i8* %37, align 1
  %39 = icmp slt i8 %38, 0
  br i1 %39, label %40, label %43

40:                                               ; preds = %29
  %41 = getelementptr inbounds %"class.std::__1::basic_string", %"class.std::__1::basic_string"* %35, i64 0, i32 0, i32 0, i32 0, i32 0, i32 0, i32 0
  %42 = load i8*, i8** %41, align 8
  tail call void @_ZdlPv(i8* %42) #13
  br label %43

43:                                               ; preds = %29, %40
  %44 = bitcast %"class.std::__1::basic_string"* %35 to i8*
  %45 = bitcast %"class.std::__1::basic_string"* %34 to i8*
  tail call void @llvm.memcpy.p0i8.p0i8.i64(i8* align 8 %44, i8* align 8 %45, i64 24, i1 false) #12
  %46 = bitcast %"class.std::__1::basic_string"* %34 to %"struct.std::__1::basic_string<char, std::__1::char_traits<char>, std::__1::allocator<char> >::__short"*
  %47 = getelementptr inbounds %"struct.std::__1::basic_string<char, std::__1::char_traits<char>, std::__1::allocator<char> >::__short", %"struct.std::__1::basic_string<char, std::__1::char_traits<char>, std::__1::allocator<char> >::__short"* %46, i64 0, i32 1, i32 0
  store i8 0, i8* %47, align 1
  store i8 0, i8* %45, align 1
  %48 = getelementptr inbounds %"struct.std::__1::pair.412", %"struct.std::__1::pair.412"* %20, i64 1
  %49 = getelementptr inbounds %"struct.std::__1::pair.412", %"struct.std::__1::pair.412"* %21, i64 1
  %50 = icmp eq %"struct.std::__1::pair.412"* %48, %1
  br i1 %50, label %175, label %19

51:                                               ; preds = %12
  %52 = bitcast %"struct.std::__1::pair.412"* %13 to %"struct.std::__1::basic_string<char, std::__1::char_traits<char>, std::__1::allocator<char> >::__short"*
  %53 = getelementptr inbounds %"struct.std::__1::basic_string<char, std::__1::char_traits<char>, std::__1::allocator<char> >::__short", %"struct.std::__1::basic_string<char, std::__1::char_traits<char>, std::__1::allocator<char> >::__short"* %52, i64 0, i32 1, i32 0
  %54 = load i8, i8* %53, align 1
  %55 = icmp slt i8 %54, 0
  %56 = getelementptr inbounds %"struct.std::__1::pair.412", %"struct.std::__1::pair.412"* %13, i64 0, i32 0, i32 0, i32 0, i32 0, i32 0, i32 0, i32 1
  %57 = load i64, i64* %56, align 8
  %58 = zext i8 %54 to i64
  %59 = select i1 %55, i64 %57, i64 %58
  %60 = bitcast %"struct.std::__1::pair.412"* %14 to %"struct.std::__1::basic_string<char, std::__1::char_traits<char>, std::__1::allocator<char> >::__short"*
  %61 = getelementptr inbounds %"struct.std::__1::basic_string<char, std::__1::char_traits<char>, std::__1::allocator<char> >::__short", %"struct.std::__1::basic_string<char, std::__1::char_traits<char>, std::__1::allocator<char> >::__short"* %60, i64 0, i32 1, i32 0
  %62 = load i8, i8* %61, align 1
  %63 = icmp slt i8 %62, 0
  %64 = getelementptr inbounds %"struct.std::__1::pair.412", %"struct.std::__1::pair.412"* %14, i64 0, i32 0, i32 0, i32 0, i32 0, i32 0, i32 0, i32 1
  %65 = load i64, i64* %64, align 8
  %66 = zext i8 %62 to i64
  %67 = select i1 %63, i64 %65, i64 %66
  %68 = icmp ult i64 %59, %67
  %69 = select i1 %68, i64 %59, i64 %67
  %70 = icmp eq i64 %69, 0
  br i1 %70, label %82, label %71

71:                                               ; preds = %51
  %72 = getelementptr inbounds %"struct.std::__1::pair.412", %"struct.std::__1::pair.412"* %14, i64 0, i32 0, i32 0, i32 0, i32 0, i32 0, i32 0, i32 0
  %73 = load i8*, i8** %72, align 8
  %74 = bitcast %"struct.std::__1::pair.412"* %14 to i8*
  %75 = select i1 %63, i8* %73, i8* %74
  %76 = getelementptr inbounds %"struct.std::__1::pair.412", %"struct.std::__1::pair.412"* %13, i64 0, i32 0, i32 0, i32 0, i32 0, i32 0, i32 0, i32 0
  %77 = load i8*, i8** %76, align 8
  %78 = bitcast %"struct.std::__1::pair.412"* %13 to i8*
  %79 = select i1 %55, i8* %77, i8* %78
  %80 = tail call i32 @memcmp(i8* %75, i8* %79, i64 %69) #12
  %81 = icmp eq i32 %80, 0
  br i1 %81, label %82, label %84

82:                                               ; preds = %71, %51
  %83 = icmp ult i64 %67, %59
  br i1 %83, label %86, label %112

84:                                               ; preds = %71
  %85 = icmp slt i32 %80, 0
  br i1 %85, label %86, label %112

86:                                               ; preds = %82, %84
  %87 = bitcast %"struct.std::__1::pair.412"* %15 to %"struct.std::__1::basic_string<char, std::__1::char_traits<char>, std::__1::allocator<char> >::__short"*
  %88 = getelementptr inbounds %"struct.std::__1::basic_string<char, std::__1::char_traits<char>, std::__1::allocator<char> >::__short", %"struct.std::__1::basic_string<char, std::__1::char_traits<char>, std::__1::allocator<char> >::__short"* %87, i64 0, i32 1, i32 0
  %89 = load i8, i8* %88, align 1
  %90 = icmp slt i8 %89, 0
  br i1 %90, label %91, label %94

91:                                               ; preds = %86
  %92 = getelementptr inbounds %"struct.std::__1::pair.412", %"struct.std::__1::pair.412"* %15, i64 0, i32 0, i32 0, i32 0, i32 0, i32 0, i32 0, i32 0
  %93 = load i8*, i8** %92, align 8
  tail call void @_ZdlPv(i8* %93) #13
  br label %94

94:                                               ; preds = %91, %86
  %95 = bitcast %"struct.std::__1::pair.412"* %15 to i8*
  %96 = bitcast %"struct.std::__1::pair.412"* %14 to i8*
  tail call void @llvm.memcpy.p0i8.p0i8.i64(i8* align 8 %95, i8* align 8 %96, i64 24, i1 false) #12
  store i8 0, i8* %61, align 1
  store i8 0, i8* %96, align 1
  %97 = getelementptr inbounds %"struct.std::__1::pair.412", %"struct.std::__1::pair.412"* %14, i64 0, i32 1
  %98 = getelementptr inbounds %"struct.std::__1::pair.412", %"struct.std::__1::pair.412"* %15, i64 0, i32 1
  %99 = bitcast %"class.std::__1::basic_string"* %98 to %"struct.std::__1::basic_string<char, std::__1::char_traits<char>, std::__1::allocator<char> >::__short"*
  %100 = getelementptr inbounds %"struct.std::__1::basic_string<char, std::__1::char_traits<char>, std::__1::allocator<char> >::__short", %"struct.std::__1::basic_string<char, std::__1::char_traits<char>, std::__1::allocator<char> >::__short"* %99, i64 0, i32 1, i32 0
  %101 = load i8, i8* %100, align 1
  %102 = icmp slt i8 %101, 0
  br i1 %102, label %103, label %106

103:                                              ; preds = %94
  %104 = getelementptr inbounds %"class.std::__1::basic_string", %"class.std::__1::basic_string"* %98, i64 0, i32 0, i32 0, i32 0, i32 0, i32 0, i32 0
  %105 = load i8*, i8** %104, align 8
  tail call void @_ZdlPv(i8* %105) #13
  br label %106

106:                                              ; preds = %94, %103
  %107 = bitcast %"class.std::__1::basic_string"* %98 to i8*
  %108 = bitcast %"class.std::__1::basic_string"* %97 to i8*
  tail call void @llvm.memcpy.p0i8.p0i8.i64(i8* align 8 %107, i8* align 8 %108, i64 24, i1 false) #12
  %109 = bitcast %"class.std::__1::basic_string"* %97 to %"struct.std::__1::basic_string<char, std::__1::char_traits<char>, std::__1::allocator<char> >::__short"*
  %110 = getelementptr inbounds %"struct.std::__1::basic_string<char, std::__1::char_traits<char>, std::__1::allocator<char> >::__short", %"struct.std::__1::basic_string<char, std::__1::char_traits<char>, std::__1::allocator<char> >::__short"* %109, i64 0, i32 1, i32 0
  store i8 0, i8* %110, align 1
  store i8 0, i8* %108, align 1
  %111 = getelementptr inbounds %"struct.std::__1::pair.412", %"struct.std::__1::pair.412"* %14, i64 1
  br label %138

112:                                              ; preds = %82, %84
  %113 = bitcast %"struct.std::__1::pair.412"* %15 to %"struct.std::__1::basic_string<char, std::__1::char_traits<char>, std::__1::allocator<char> >::__short"*
  %114 = getelementptr inbounds %"struct.std::__1::basic_string<char, std::__1::char_traits<char>, std::__1::allocator<char> >::__short", %"struct.std::__1::basic_string<char, std::__1::char_traits<char>, std::__1::allocator<char> >::__short"* %113, i64 0, i32 1, i32 0
  %115 = load i8, i8* %114, align 1
  %116 = icmp slt i8 %115, 0
  br i1 %116, label %117, label %120

117:                                              ; preds = %112
  %118 = getelementptr inbounds %"struct.std::__1::pair.412", %"struct.std::__1::pair.412"* %15, i64 0, i32 0, i32 0, i32 0, i32 0, i32 0, i32 0, i32 0
  %119 = load i8*, i8** %118, align 8
  tail call void @_ZdlPv(i8* %119) #13
  br label %120

120:                                              ; preds = %117, %112
  %121 = bitcast %"struct.std::__1::pair.412"* %15 to i8*
  %122 = bitcast %"struct.std::__1::pair.412"* %13 to i8*
  tail call void @llvm.memcpy.p0i8.p0i8.i64(i8* align 8 %121, i8* align 8 %122, i64 24, i1 false) #12
  store i8 0, i8* %53, align 1
  store i8 0, i8* %122, align 1
  %123 = getelementptr inbounds %"struct.std::__1::pair.412", %"struct.std::__1::pair.412"* %13, i64 0, i32 1
  %124 = getelementptr inbounds %"struct.std::__1::pair.412", %"struct.std::__1::pair.412"* %15, i64 0, i32 1
  %125 = bitcast %"class.std::__1::basic_string"* %124 to %"struct.std::__1::basic_string<char, std::__1::char_traits<char>, std::__1::allocator<char> >::__short"*
  %126 = getelementptr inbounds %"struct.std::__1::basic_string<char, std::__1::char_traits<char>, std::__1::allocator<char> >::__short", %"struct.std::__1::basic_string<char, std::__1::char_traits<char>, std::__1::allocator<char> >::__short"* %125, i64 0, i32 1, i32 0
  %127 = load i8, i8* %126, align 1
  %128 = icmp slt i8 %127, 0
  br i1 %128, label %129, label %132

129:                                              ; preds = %120
  %130 = getelementptr inbounds %"class.std::__1::basic_string", %"class.std::__1::basic_string"* %124, i64 0, i32 0, i32 0, i32 0, i32 0, i32 0, i32 0
  %131 = load i8*, i8** %130, align 8
  tail call void @_ZdlPv(i8* %131) #13
  br label %132

132:                                              ; preds = %120, %129
  %133 = bitcast %"class.std::__1::basic_string"* %124 to i8*
  %134 = bitcast %"class.std::__1::basic_string"* %123 to i8*
  tail call void @llvm.memcpy.p0i8.p0i8.i64(i8* align 8 %133, i8* align 8 %134, i64 24, i1 false) #12
  %135 = bitcast %"class.std::__1::basic_string"* %123 to %"struct.std::__1::basic_string<char, std::__1::char_traits<char>, std::__1::allocator<char> >::__short"*
  %136 = getelementptr inbounds %"struct.std::__1::basic_string<char, std::__1::char_traits<char>, std::__1::allocator<char> >::__short", %"struct.std::__1::basic_string<char, std::__1::char_traits<char>, std::__1::allocator<char> >::__short"* %135, i64 0, i32 1, i32 0
  store i8 0, i8* %136, align 1
  store i8 0, i8* %134, align 1
  %137 = getelementptr inbounds %"struct.std::__1::pair.412", %"struct.std::__1::pair.412"* %13, i64 1
  br label %138

138:                                              ; preds = %106, %132
  %139 = phi %"struct.std::__1::pair.412"* [ %111, %106 ], [ %14, %132 ]
  %140 = phi %"struct.std::__1::pair.412"* [ %13, %106 ], [ %137, %132 ]
  %141 = getelementptr inbounds %"struct.std::__1::pair.412", %"struct.std::__1::pair.412"* %15, i64 1
  %142 = icmp eq %"struct.std::__1::pair.412"* %140, %1
  br i1 %142, label %8, label %12

143:                                              ; preds = %8, %167
  %144 = phi %"struct.std::__1::pair.412"* [ %172, %167 ], [ %10, %8 ]
  %145 = phi %"struct.std::__1::pair.412"* [ %173, %167 ], [ %9, %8 ]
  %146 = bitcast %"struct.std::__1::pair.412"* %145 to %"struct.std::__1::basic_string<char, std::__1::char_traits<char>, std::__1::allocator<char> >::__short"*
  %147 = getelementptr inbounds %"struct.std::__1::basic_string<char, std::__1::char_traits<char>, std::__1::allocator<char> >::__short", %"struct.std::__1::basic_string<char, std::__1::char_traits<char>, std::__1::allocator<char> >::__short"* %146, i64 0, i32 1, i32 0
  %148 = load i8, i8* %147, align 1
  %149 = icmp slt i8 %148, 0
  br i1 %149, label %150, label %153

150:                                              ; preds = %143
  %151 = getelementptr inbounds %"struct.std::__1::pair.412", %"struct.std::__1::pair.412"* %145, i64 0, i32 0, i32 0, i32 0, i32 0, i32 0, i32 0, i32 0
  %152 = load i8*, i8** %151, align 8
  tail call void @_ZdlPv(i8* %152) #13
  br label %153

153:                                              ; preds = %150, %143
  %154 = bitcast %"struct.std::__1::pair.412"* %145 to i8*
  %155 = bitcast %"struct.std::__1::pair.412"* %144 to i8*
  tail call void @llvm.memcpy.p0i8.p0i8.i64(i8* align 8 %154, i8* align 8 %155, i64 24, i1 false) #12
  %156 = bitcast %"struct.std::__1::pair.412"* %144 to %"struct.std::__1::basic_string<char, std::__1::char_traits<char>, std::__1::allocator<char> >::__short"*
  %157 = getelementptr inbounds %"struct.std::__1::basic_string<char, std::__1::char_traits<char>, std::__1::allocator<char> >::__short", %"struct.std::__1::basic_string<char, std::__1::char_traits<char>, std::__1::allocator<char> >::__short"* %156, i64 0, i32 1, i32 0
  store i8 0, i8* %157, align 1
  store i8 0, i8* %155, align 1
  %158 = getelementptr inbounds %"struct.std::__1::pair.412", %"struct.std::__1::pair.412"* %144, i64 0, i32 1
  %159 = getelementptr inbounds %"struct.std::__1::pair.412", %"struct.std::__1::pair.412"* %145, i64 0, i32 1
  %160 = bitcast %"class.std::__1::basic_string"* %159 to %"struct.std::__1::basic_string<char, std::__1::char_traits<char>, std::__1::allocator<char> >::__short"*
  %161 = getelementptr inbounds %"struct.std::__1::basic_string<char, std::__1::char_traits<char>, std::__1::allocator<char> >::__short", %"struct.std::__1::basic_string<char, std::__1::char_traits<char>, std::__1::allocator<char> >::__short"* %160, i64 0, i32 1, i32 0
  %162 = load i8, i8* %161, align 1
  %163 = icmp slt i8 %162, 0
  br i1 %163, label %164, label %167

164:                                              ; preds = %153
  %165 = getelementptr inbounds %"class.std::__1::basic_string", %"class.std::__1::basic_string"* %159, i64 0, i32 0, i32 0, i32 0, i32 0, i32 0, i32 0
  %166 = load i8*, i8** %165, align 8
  tail call void @_ZdlPv(i8* %166) #13
  br label %167

167:                                              ; preds = %153, %164
  %168 = bitcast %"class.std::__1::basic_string"* %159 to i8*
  %169 = bitcast %"class.std::__1::basic_string"* %158 to i8*
  tail call void @llvm.memcpy.p0i8.p0i8.i64(i8* align 8 %168, i8* align 8 %169, i64 24, i1 false) #12
  %170 = bitcast %"class.std::__1::basic_string"* %158 to %"struct.std::__1::basic_string<char, std::__1::char_traits<char>, std::__1::allocator<char> >::__short"*
  %171 = getelementptr inbounds %"struct.std::__1::basic_string<char, std::__1::char_traits<char>, std::__1::allocator<char> >::__short", %"struct.std::__1::basic_string<char, std::__1::char_traits<char>, std::__1::allocator<char> >::__short"* %170, i64 0, i32 1, i32 0
  store i8 0, i8* %171, align 1
  store i8 0, i8* %169, align 1
  %172 = getelementptr inbounds %"struct.std::__1::pair.412", %"struct.std::__1::pair.412"* %144, i64 1
  %173 = getelementptr inbounds %"struct.std::__1::pair.412", %"struct.std::__1::pair.412"* %145, i64 1
  %174 = icmp eq %"struct.std::__1::pair.412"* %172, %3
  br i1 %174, label %175, label %143

175:                                              ; preds = %43, %167, %17, %8
  ret void
}

; Function Attrs: nounwind ssp uwtable
define linkonce_odr hidden void @_ZNSt3__115__inplace_mergeIRN4base8internal9flat_treeINS_12basic_stringIcNS_11char_traitsIcEENS_9allocatorIcEEEENS2_8GetFirstENS_4lessIvEENS_6vectorINS_4pairIS9_S9_EENS7_ISF_EEEEE13value_compareENS_11__wrap_iterIPSF_EEEEvT0_SO_SO_T_NS_15iterator_traitsISO_E15difference_typeESS_PNSR_10value_typeEl(%"struct.std::__1::pair.412"*, %"struct.std::__1::pair.412"*, %"struct.std::__1::pair.412"*, %"struct.base::internal::flat_tree<std::__1::basic_string<char, std::__1::char_traits<char>, std::__1::allocator<char> >, base::internal::GetFirst, std::__1::less<void>, std::__1::vector<std::__1::pair<std::__1::basic_string<char, std::__1::char_traits<char>, std::__1::allocator<char> >, std::__1::basic_string<char, std::__1::char_traits<char>, std::__1::allocator<char> > >, std::__1::allocator<std::__1::pair<std::__1::basic_string<char, std::__1::char_traits<char>, std::__1::allocator<char> >, std::__1::basic_string<char, std::__1::char_traits<char>, std::__1::allocator<char> > > > > >::value_compare"* dereferenceable(1), i64, i64, %"struct.std::__1::pair.412"*, i64) local_unnamed_addr #0 comdat {
  %9 = icmp eq i64 %5, 0
  br i1 %9, label %317, label %10

10:                                               ; preds = %8
  %11 = ptrtoint %"struct.std::__1::pair.412"* %1 to i64
  %12 = ptrtoint %"struct.std::__1::pair.412"* %0 to i64
  br label %13

13:                                               ; preds = %10, %310
  %14 = phi %"struct.std::__1::pair.412"* [ %315, %310 ], [ %2, %10 ]
  %15 = phi i64 [ %314, %310 ], [ %4, %10 ]
  %16 = phi i64 [ %313, %310 ], [ %5, %10 ]
  %17 = phi i64 [ %312, %310 ], [ %11, %10 ]
  %18 = phi i64 [ %311, %310 ], [ %12, %10 ]
  %19 = icmp sgt i64 %15, %7
  %20 = icmp sgt i64 %16, %7
  %21 = and i1 %20, %19
  br i1 %21, label %22, label %36

22:                                               ; preds = %13
  %23 = icmp eq i64 %15, 0
  br i1 %23, label %317, label %24

24:                                               ; preds = %22
  %25 = inttoptr i64 %17 to %"struct.std::__1::pair.412"*
  %26 = inttoptr i64 %17 to %"struct.std::__1::basic_string<char, std::__1::char_traits<char>, std::__1::allocator<char> >::__short"*
  %27 = getelementptr inbounds %"struct.std::__1::basic_string<char, std::__1::char_traits<char>, std::__1::allocator<char> >::__short", %"struct.std::__1::basic_string<char, std::__1::char_traits<char>, std::__1::allocator<char> >::__short"* %26, i64 0, i32 1, i32 0
  %28 = load i8, i8* %27, align 1
  %29 = icmp slt i8 %28, 0
  %30 = getelementptr inbounds %"struct.std::__1::pair.412", %"struct.std::__1::pair.412"* %25, i64 0, i32 0, i32 0, i32 0, i32 0, i32 0, i32 0, i32 1
  %31 = load i64, i64* %30, align 8
  %32 = zext i8 %28 to i64
  %33 = select i1 %29, i64 %31, i64 %32
  %34 = getelementptr inbounds %"struct.std::__1::pair.412", %"struct.std::__1::pair.412"* %25, i64 0, i32 0, i32 0, i32 0, i32 0, i32 0, i32 0, i32 0
  %35 = inttoptr i64 %17 to i8*
  br label %39

36:                                               ; preds = %13
  %37 = inttoptr i64 %18 to %"struct.std::__1::pair.412"*
  %38 = inttoptr i64 %17 to %"struct.std::__1::pair.412"*
  tail call void @_ZNSt3__124__buffered_inplace_mergeIRN4base8internal9flat_treeINS_12basic_stringIcNS_11char_traitsIcEENS_9allocatorIcEEEENS2_8GetFirstENS_4lessIvEENS_6vectorINS_4pairIS9_S9_EENS7_ISF_EEEEE13value_compareENS_11__wrap_iterIPSF_EEEEvT0_SO_SO_T_NS_15iterator_traitsISO_E15difference_typeESS_PNSR_10value_typeE(%"struct.std::__1::pair.412"* %37, %"struct.std::__1::pair.412"* %38, %"struct.std::__1::pair.412"* %14, %"struct.base::internal::flat_tree<std::__1::basic_string<char, std::__1::char_traits<char>, std::__1::allocator<char> >, base::internal::GetFirst, std::__1::less<void>, std::__1::vector<std::__1::pair<std::__1::basic_string<char, std::__1::char_traits<char>, std::__1::allocator<char> >, std::__1::basic_string<char, std::__1::char_traits<char>, std::__1::allocator<char> > >, std::__1::allocator<std::__1::pair<std::__1::basic_string<char, std::__1::char_traits<char>, std::__1::allocator<char> >, std::__1::basic_string<char, std::__1::char_traits<char>, std::__1::allocator<char> > > > > >::value_compare"* dereferenceable(1) %3, i64 %15, i64 %16, %"struct.std::__1::pair.412"* %6)
  br label %317

39:                                               ; preds = %24, %67
  %40 = phi i64 [ %15, %24 ], [ %70, %67 ]
  %41 = phi i64 [ %18, %24 ], [ %69, %67 ]
  %42 = inttoptr i64 %41 to %"struct.std::__1::pair.412"*
  %43 = inttoptr i64 %41 to %"struct.std::__1::basic_string<char, std::__1::char_traits<char>, std::__1::allocator<char> >::__short"*
  %44 = getelementptr inbounds %"struct.std::__1::basic_string<char, std::__1::char_traits<char>, std::__1::allocator<char> >::__short", %"struct.std::__1::basic_string<char, std::__1::char_traits<char>, std::__1::allocator<char> >::__short"* %43, i64 0, i32 1, i32 0
  %45 = load i8, i8* %44, align 1
  %46 = icmp slt i8 %45, 0
  %47 = getelementptr inbounds %"struct.std::__1::pair.412", %"struct.std::__1::pair.412"* %42, i64 0, i32 0, i32 0, i32 0, i32 0, i32 0, i32 0, i32 1
  %48 = load i64, i64* %47, align 8
  %49 = zext i8 %45 to i64
  %50 = select i1 %46, i64 %48, i64 %49
  %51 = icmp ult i64 %50, %33
  %52 = select i1 %51, i64 %50, i64 %33
  %53 = icmp eq i64 %52, 0
  br i1 %53, label %63, label %54

54:                                               ; preds = %39
  %55 = load i8*, i8** %34, align 8
  %56 = select i1 %29, i8* %55, i8* %35
  %57 = getelementptr inbounds %"struct.std::__1::pair.412", %"struct.std::__1::pair.412"* %42, i64 0, i32 0, i32 0, i32 0, i32 0, i32 0, i32 0, i32 0
  %58 = load i8*, i8** %57, align 8
  %59 = inttoptr i64 %41 to i8*
  %60 = select i1 %46, i8* %58, i8* %59
  %61 = tail call i32 @memcmp(i8* %56, i8* %60, i64 %52) #12
  %62 = icmp eq i32 %61, 0
  br i1 %62, label %63, label %65

63:                                               ; preds = %54, %39
  %64 = icmp ult i64 %33, %50
  br i1 %64, label %72, label %67

65:                                               ; preds = %54
  %66 = icmp slt i32 %61, 0
  br i1 %66, label %72, label %67

67:                                               ; preds = %63, %65
  %68 = getelementptr inbounds %"struct.std::__1::pair.412", %"struct.std::__1::pair.412"* %42, i64 1
  %69 = ptrtoint %"struct.std::__1::pair.412"* %68 to i64
  %70 = add nsw i64 %40, -1
  %71 = icmp eq i64 %70, 0
  br i1 %71, label %317, label %39

72:                                               ; preds = %63, %65
  %73 = inttoptr i64 %41 to %"struct.std::__1::pair.412"*
  %74 = icmp slt i64 %40, %16
  br i1 %74, label %75, label %135

75:                                               ; preds = %72
  %76 = sdiv i64 %16, 2
  %77 = getelementptr inbounds %"struct.std::__1::pair.412", %"struct.std::__1::pair.412"* %25, i64 %76
  %78 = ptrtoint %"struct.std::__1::pair.412"* %77 to i64
  %79 = sub i64 %17, %41
  %80 = icmp eq i64 %79, 0
  br i1 %80, label %130, label %81

81:                                               ; preds = %75
  %82 = sdiv exact i64 %79, 48
  %83 = bitcast %"struct.std::__1::pair.412"* %77 to %"struct.std::__1::basic_string<char, std::__1::char_traits<char>, std::__1::allocator<char> >::__short"*
  %84 = getelementptr inbounds %"struct.std::__1::basic_string<char, std::__1::char_traits<char>, std::__1::allocator<char> >::__short", %"struct.std::__1::basic_string<char, std::__1::char_traits<char>, std::__1::allocator<char> >::__short"* %83, i64 0, i32 1, i32 0
  %85 = load i8, i8* %84, align 1
  %86 = icmp slt i8 %85, 0
  %87 = getelementptr inbounds %"struct.std::__1::pair.412", %"struct.std::__1::pair.412"* %25, i64 %76, i32 0, i32 0, i32 0, i32 0, i32 0, i32 0, i32 1
  %88 = load i64, i64* %87, align 8
  %89 = zext i8 %85 to i64
  %90 = select i1 %86, i64 %88, i64 %89
  %91 = getelementptr inbounds %"struct.std::__1::pair.412", %"struct.std::__1::pair.412"* %77, i64 0, i32 0, i32 0, i32 0, i32 0, i32 0, i32 0, i32 0
  %92 = load i8*, i8** %91, align 8
  %93 = bitcast %"struct.std::__1::pair.412"* %77 to i8*
  %94 = select i1 %86, i8* %92, i8* %93
  br label %95

95:                                               ; preds = %126, %81
  %96 = phi %"struct.std::__1::pair.412"* [ %73, %81 ], [ %128, %126 ]
  %97 = phi i64 [ %82, %81 ], [ %127, %126 ]
  %98 = lshr i64 %97, 1
  %99 = getelementptr inbounds %"struct.std::__1::pair.412", %"struct.std::__1::pair.412"* %96, i64 %98
  %100 = bitcast %"struct.std::__1::pair.412"* %99 to %"struct.std::__1::basic_string<char, std::__1::char_traits<char>, std::__1::allocator<char> >::__short"*
  %101 = getelementptr inbounds %"struct.std::__1::basic_string<char, std::__1::char_traits<char>, std::__1::allocator<char> >::__short", %"struct.std::__1::basic_string<char, std::__1::char_traits<char>, std::__1::allocator<char> >::__short"* %100, i64 0, i32 1, i32 0
  %102 = load i8, i8* %101, align 1
  %103 = icmp slt i8 %102, 0
  %104 = getelementptr inbounds %"struct.std::__1::pair.412", %"struct.std::__1::pair.412"* %96, i64 %98, i32 0, i32 0, i32 0, i32 0, i32 0, i32 0, i32 1
  %105 = load i64, i64* %104, align 8
  %106 = zext i8 %102 to i64
  %107 = select i1 %103, i64 %105, i64 %106
  %108 = icmp ult i64 %107, %90
  %109 = select i1 %108, i64 %107, i64 %90
  %110 = icmp eq i64 %109, 0
  br i1 %110, label %118, label %111

111:                                              ; preds = %95
  %112 = getelementptr inbounds %"struct.std::__1::pair.412", %"struct.std::__1::pair.412"* %99, i64 0, i32 0, i32 0, i32 0, i32 0, i32 0, i32 0, i32 0
  %113 = load i8*, i8** %112, align 8
  %114 = bitcast %"struct.std::__1::pair.412"* %99 to i8*
  %115 = select i1 %103, i8* %113, i8* %114
  %116 = tail call i32 @memcmp(i8* %94, i8* %115, i64 %109) #12
  %117 = icmp eq i32 %116, 0
  br i1 %117, label %118, label %120

118:                                              ; preds = %111, %95
  %119 = icmp ult i64 %90, %107
  br i1 %119, label %126, label %122

120:                                              ; preds = %111
  %121 = icmp slt i32 %116, 0
  br i1 %121, label %126, label %122

122:                                              ; preds = %120, %118
  %123 = getelementptr inbounds %"struct.std::__1::pair.412", %"struct.std::__1::pair.412"* %99, i64 1
  %124 = xor i64 %98, -1
  %125 = add i64 %97, %124
  br label %126

126:                                              ; preds = %122, %120, %118
  %127 = phi i64 [ %125, %122 ], [ %98, %120 ], [ %98, %118 ]
  %128 = phi %"struct.std::__1::pair.412"* [ %123, %122 ], [ %96, %120 ], [ %96, %118 ]
  %129 = icmp eq i64 %127, 0
  br i1 %129, label %130, label %95

130:                                              ; preds = %126, %75
  %131 = phi %"struct.std::__1::pair.412"* [ %73, %75 ], [ %128, %126 ]
  %132 = ptrtoint %"struct.std::__1::pair.412"* %131 to i64
  %133 = sub i64 %132, %41
  %134 = sdiv exact i64 %133, 48
  br label %220

135:                                              ; preds = %72
  %136 = icmp eq i64 %40, 1
  br i1 %136, label %137, label %159

137:                                              ; preds = %135
  %138 = inttoptr i64 %17 to %"struct.std::__1::pair.412"*
  %139 = getelementptr inbounds %"struct.std::__1::pair.412", %"struct.std::__1::pair.412"* %138, i64 0, i32 0, i32 0, i32 0, i32 0, i32 0, i32 0, i32 1
  %140 = inttoptr i64 %17 to i8*
  %141 = inttoptr i64 %41 to %"struct.std::__1::pair.412"*
  %142 = inttoptr i64 %41 to i64*
  %143 = load i64, i64* %142, align 8
  %144 = getelementptr inbounds %"struct.std::__1::pair.412", %"struct.std::__1::pair.412"* %141, i64 0, i32 0, i32 0, i32 0, i32 0, i32 0, i32 0, i32 2
  %145 = load i64, i64* %144, align 8
  %146 = inttoptr i64 %41 to i8*
  tail call void @llvm.memcpy.p0i8.p0i8.i64(i8* align 8 %146, i8* align 8 %140, i64 24, i1 false) #12
  %147 = inttoptr i64 %17 to i64*
  store i64 %143, i64* %147, align 8
  store i64 %48, i64* %139, align 8
  %148 = getelementptr inbounds %"struct.std::__1::pair.412", %"struct.std::__1::pair.412"* %138, i64 0, i32 0, i32 0, i32 0, i32 0, i32 0, i32 0, i32 2
  store i64 %145, i64* %148, align 8
  %149 = getelementptr inbounds %"struct.std::__1::pair.412", %"struct.std::__1::pair.412"* %141, i64 0, i32 1
  %150 = getelementptr inbounds %"struct.std::__1::pair.412", %"struct.std::__1::pair.412"* %138, i64 0, i32 1
  %151 = bitcast %"class.std::__1::basic_string"* %149 to <2 x i64>*
  %152 = load <2 x i64>, <2 x i64>* %151, align 8
  %153 = getelementptr inbounds %"struct.std::__1::pair.412", %"struct.std::__1::pair.412"* %141, i64 0, i32 1, i32 0, i32 0, i32 0, i32 0, i32 0, i32 2
  %154 = load i64, i64* %153, align 8
  %155 = bitcast %"class.std::__1::basic_string"* %149 to i8*
  %156 = bitcast %"class.std::__1::basic_string"* %150 to i8*
  tail call void @llvm.memcpy.p0i8.p0i8.i64(i8* align 8 %155, i8* align 8 %156, i64 24, i1 false) #12
  %157 = bitcast %"class.std::__1::basic_string"* %150 to <2 x i64>*
  store <2 x i64> %152, <2 x i64>* %157, align 8
  %158 = getelementptr inbounds %"struct.std::__1::pair.412", %"struct.std::__1::pair.412"* %138, i64 0, i32 1, i32 0, i32 0, i32 0, i32 0, i32 0, i32 2
  store i64 %154, i64* %158, align 8
  br label %317

159:                                              ; preds = %135
  %160 = sdiv i64 %40, 2
  %161 = getelementptr inbounds %"struct.std::__1::pair.412", %"struct.std::__1::pair.412"* %73, i64 %160
  %162 = ptrtoint %"struct.std::__1::pair.412"* %161 to i64
  %163 = ptrtoint %"struct.std::__1::pair.412"* %14 to i64
  %164 = sub i64 %163, %17
  %165 = icmp eq i64 %164, 0
  br i1 %165, label %215, label %166

166:                                              ; preds = %159
  %167 = sdiv exact i64 %164, 48
  %168 = bitcast %"struct.std::__1::pair.412"* %161 to %"struct.std::__1::basic_string<char, std::__1::char_traits<char>, std::__1::allocator<char> >::__short"*
  %169 = getelementptr inbounds %"struct.std::__1::basic_string<char, std::__1::char_traits<char>, std::__1::allocator<char> >::__short", %"struct.std::__1::basic_string<char, std::__1::char_traits<char>, std::__1::allocator<char> >::__short"* %168, i64 0, i32 1, i32 0
  %170 = load i8, i8* %169, align 1
  %171 = icmp slt i8 %170, 0
  %172 = getelementptr inbounds %"struct.std::__1::pair.412", %"struct.std::__1::pair.412"* %73, i64 %160, i32 0, i32 0, i32 0, i32 0, i32 0, i32 0, i32 1
  %173 = load i64, i64* %172, align 8
  %174 = zext i8 %170 to i64
  %175 = select i1 %171, i64 %173, i64 %174
  %176 = getelementptr inbounds %"struct.std::__1::pair.412", %"struct.std::__1::pair.412"* %161, i64 0, i32 0, i32 0, i32 0, i32 0, i32 0, i32 0, i32 0
  %177 = load i8*, i8** %176, align 8
  %178 = bitcast %"struct.std::__1::pair.412"* %161 to i8*
  %179 = select i1 %171, i8* %177, i8* %178
  br label %180

180:                                              ; preds = %211, %166
  %181 = phi %"struct.std::__1::pair.412"* [ %25, %166 ], [ %213, %211 ]
  %182 = phi i64 [ %167, %166 ], [ %212, %211 ]
  %183 = lshr i64 %182, 1
  %184 = getelementptr inbounds %"struct.std::__1::pair.412", %"struct.std::__1::pair.412"* %181, i64 %183
  %185 = bitcast %"struct.std::__1::pair.412"* %184 to %"struct.std::__1::basic_string<char, std::__1::char_traits<char>, std::__1::allocator<char> >::__short"*
  %186 = getelementptr inbounds %"struct.std::__1::basic_string<char, std::__1::char_traits<char>, std::__1::allocator<char> >::__short", %"struct.std::__1::basic_string<char, std::__1::char_traits<char>, std::__1::allocator<char> >::__short"* %185, i64 0, i32 1, i32 0
  %187 = load i8, i8* %186, align 1
  %188 = icmp slt i8 %187, 0
  %189 = getelementptr inbounds %"struct.std::__1::pair.412", %"struct.std::__1::pair.412"* %181, i64 %183, i32 0, i32 0, i32 0, i32 0, i32 0, i32 0, i32 1
  %190 = load i64, i64* %189, align 8
  %191 = zext i8 %187 to i64
  %192 = select i1 %188, i64 %190, i64 %191
  %193 = icmp ult i64 %175, %192
  %194 = select i1 %193, i64 %175, i64 %192
  %195 = icmp eq i64 %194, 0
  br i1 %195, label %203, label %196

196:                                              ; preds = %180
  %197 = getelementptr inbounds %"struct.std::__1::pair.412", %"struct.std::__1::pair.412"* %184, i64 0, i32 0, i32 0, i32 0, i32 0, i32 0, i32 0, i32 0
  %198 = load i8*, i8** %197, align 8
  %199 = bitcast %"struct.std::__1::pair.412"* %184 to i8*
  %200 = select i1 %188, i8* %198, i8* %199
  %201 = tail call i32 @memcmp(i8* %200, i8* %179, i64 %194) #12
  %202 = icmp eq i32 %201, 0
  br i1 %202, label %203, label %205

203:                                              ; preds = %196, %180
  %204 = icmp ult i64 %192, %175
  br i1 %204, label %207, label %211

205:                                              ; preds = %196
  %206 = icmp slt i32 %201, 0
  br i1 %206, label %207, label %211

207:                                              ; preds = %205, %203
  %208 = getelementptr inbounds %"struct.std::__1::pair.412", %"struct.std::__1::pair.412"* %184, i64 1
  %209 = xor i64 %183, -1
  %210 = add i64 %182, %209
  br label %211

211:                                              ; preds = %207, %205, %203
  %212 = phi i64 [ %210, %207 ], [ %183, %205 ], [ %183, %203 ]
  %213 = phi %"struct.std::__1::pair.412"* [ %208, %207 ], [ %181, %205 ], [ %181, %203 ]
  %214 = icmp eq i64 %212, 0
  br i1 %214, label %215, label %180

215:                                              ; preds = %211, %159
  %216 = phi %"struct.std::__1::pair.412"* [ %25, %159 ], [ %213, %211 ]
  %217 = ptrtoint %"struct.std::__1::pair.412"* %216 to i64
  %218 = sub i64 %217, %17
  %219 = sdiv exact i64 %218, 48
  br label %220

220:                                              ; preds = %215, %130
  %221 = phi i64 [ %132, %130 ], [ %162, %215 ]
  %222 = phi i64 [ %78, %130 ], [ %217, %215 ]
  %223 = phi i64 [ %76, %130 ], [ %219, %215 ]
  %224 = phi i64 [ %134, %130 ], [ %160, %215 ]
  %225 = sub nsw i64 %40, %224
  %226 = sub nsw i64 %16, %223
  %227 = inttoptr i64 %221 to %"struct.std::__1::pair.412"*
  %228 = inttoptr i64 %222 to %"struct.std::__1::pair.412"*
  %229 = icmp eq %"struct.std::__1::pair.412"* %227, %25
  br i1 %229, label %302, label %230

230:                                              ; preds = %220
  %231 = icmp eq %"struct.std::__1::pair.412"* %25, %228
  br i1 %231, label %302, label %232

232:                                              ; preds = %230, %258
  %233 = phi i64 [ %261, %258 ], [ %17, %230 ]
  %234 = phi %"struct.std::__1::pair.412"* [ %254, %258 ], [ %227, %230 ]
  %235 = phi %"struct.std::__1::pair.412"* [ %255, %258 ], [ %25, %230 ]
  %236 = bitcast %"struct.std::__1::pair.412"* %234 to <2 x i64>*
  %237 = load <2 x i64>, <2 x i64>* %236, align 8
  %238 = getelementptr inbounds %"struct.std::__1::pair.412", %"struct.std::__1::pair.412"* %234, i64 0, i32 0, i32 0, i32 0, i32 0, i32 0, i32 0, i32 2
  %239 = load i64, i64* %238, align 8
  %240 = bitcast %"struct.std::__1::pair.412"* %234 to i8*
  %241 = bitcast %"struct.std::__1::pair.412"* %235 to i8*
  tail call void @llvm.memcpy.p0i8.p0i8.i64(i8* align 8 %240, i8* align 8 %241, i64 24, i1 false) #12
  %242 = bitcast %"struct.std::__1::pair.412"* %235 to <2 x i64>*
  store <2 x i64> %237, <2 x i64>* %242, align 8
  %243 = getelementptr inbounds %"struct.std::__1::pair.412", %"struct.std::__1::pair.412"* %235, i64 0, i32 0, i32 0, i32 0, i32 0, i32 0, i32 0, i32 2
  store i64 %239, i64* %243, align 8
  %244 = getelementptr inbounds %"struct.std::__1::pair.412", %"struct.std::__1::pair.412"* %234, i64 0, i32 1
  %245 = getelementptr inbounds %"struct.std::__1::pair.412", %"struct.std::__1::pair.412"* %235, i64 0, i32 1
  %246 = bitcast %"class.std::__1::basic_string"* %244 to <2 x i64>*
  %247 = load <2 x i64>, <2 x i64>* %246, align 8
  %248 = getelementptr inbounds %"struct.std::__1::pair.412", %"struct.std::__1::pair.412"* %234, i64 0, i32 1, i32 0, i32 0, i32 0, i32 0, i32 0, i32 2
  %249 = load i64, i64* %248, align 8
  %250 = bitcast %"class.std::__1::basic_string"* %244 to i8*
  %251 = bitcast %"class.std::__1::basic_string"* %245 to i8*
  tail call void @llvm.memcpy.p0i8.p0i8.i64(i8* align 8 %250, i8* align 8 %251, i64 24, i1 false) #12
  %252 = bitcast %"class.std::__1::basic_string"* %245 to <2 x i64>*
  store <2 x i64> %247, <2 x i64>* %252, align 8
  %253 = getelementptr inbounds %"struct.std::__1::pair.412", %"struct.std::__1::pair.412"* %235, i64 0, i32 1, i32 0, i32 0, i32 0, i32 0, i32 0, i32 2
  store i64 %249, i64* %253, align 8
  %254 = getelementptr inbounds %"struct.std::__1::pair.412", %"struct.std::__1::pair.412"* %234, i64 1
  %255 = getelementptr inbounds %"struct.std::__1::pair.412", %"struct.std::__1::pair.412"* %235, i64 1
  %256 = icmp eq %"struct.std::__1::pair.412"* %255, %228
  %257 = inttoptr i64 %233 to %"struct.std::__1::pair.412"*
  br i1 %256, label %262, label %258

258:                                              ; preds = %232
  %259 = ptrtoint %"struct.std::__1::pair.412"* %255 to i64
  %260 = icmp eq %"struct.std::__1::pair.412"* %254, %257
  %261 = select i1 %260, i64 %259, i64 %233
  br label %232

262:                                              ; preds = %232
  %263 = inttoptr i64 %233 to %"struct.std::__1::pair.412"*
  %264 = icmp eq %"struct.std::__1::pair.412"* %254, %263
  br i1 %264, label %302, label %265

265:                                              ; preds = %262, %299
  %266 = phi i64 [ %301, %299 ], [ %233, %262 ]
  %267 = phi %"struct.std::__1::pair.412"* [ %294, %299 ], [ %254, %262 ]
  %268 = phi i64 [ %300, %299 ], [ %233, %262 ]
  %269 = inttoptr i64 %266 to %"struct.std::__1::pair.412"*
  br label %270

270:                                              ; preds = %265, %298
  %271 = phi %"struct.std::__1::pair.412"* [ %294, %298 ], [ %267, %265 ]
  %272 = phi i64 [ %266, %298 ], [ %268, %265 ]
  %273 = inttoptr i64 %272 to %"struct.std::__1::pair.412"*
  %274 = bitcast %"struct.std::__1::pair.412"* %271 to i64*
  %275 = load i64, i64* %274, align 8
  %276 = getelementptr inbounds %"struct.std::__1::pair.412", %"struct.std::__1::pair.412"* %271, i64 0, i32 0, i32 0, i32 0, i32 0, i32 0, i32 0, i32 1
  %277 = bitcast i64* %276 to <2 x i64>*
  %278 = load <2 x i64>, <2 x i64>* %277, align 8
  %279 = bitcast %"struct.std::__1::pair.412"* %271 to i8*
  %280 = inttoptr i64 %272 to i8*
  tail call void @llvm.memcpy.p0i8.p0i8.i64(i8* align 8 %279, i8* align 8 %280, i64 24, i1 false) #12
  %281 = inttoptr i64 %272 to i64*
  store i64 %275, i64* %281, align 8
  %282 = getelementptr inbounds %"struct.std::__1::pair.412", %"struct.std::__1::pair.412"* %273, i64 0, i32 0, i32 0, i32 0, i32 0, i32 0, i32 0, i32 1
  %283 = bitcast i64* %282 to <2 x i64>*
  store <2 x i64> %278, <2 x i64>* %283, align 8
  %284 = getelementptr inbounds %"struct.std::__1::pair.412", %"struct.std::__1::pair.412"* %271, i64 0, i32 1
  %285 = getelementptr inbounds %"struct.std::__1::pair.412", %"struct.std::__1::pair.412"* %273, i64 0, i32 1
  %286 = bitcast %"class.std::__1::basic_string"* %284 to <2 x i64>*
  %287 = load <2 x i64>, <2 x i64>* %286, align 8
  %288 = getelementptr inbounds %"struct.std::__1::pair.412", %"struct.std::__1::pair.412"* %271, i64 0, i32 1, i32 0, i32 0, i32 0, i32 0, i32 0, i32 2
  %289 = load i64, i64* %288, align 8
  %290 = bitcast %"class.std::__1::basic_string"* %284 to i8*
  %291 = bitcast %"class.std::__1::basic_string"* %285 to i8*
  tail call void @llvm.memcpy.p0i8.p0i8.i64(i8* align 8 %290, i8* align 8 %291, i64 24, i1 false) #12
  %292 = bitcast %"class.std::__1::basic_string"* %285 to <2 x i64>*
  store <2 x i64> %287, <2 x i64>* %292, align 8
  %293 = getelementptr inbounds %"struct.std::__1::pair.412", %"struct.std::__1::pair.412"* %273, i64 0, i32 1, i32 0, i32 0, i32 0, i32 0, i32 0, i32 2
  store i64 %289, i64* %293, align 8
  %294 = getelementptr inbounds %"struct.std::__1::pair.412", %"struct.std::__1::pair.412"* %271, i64 1
  %295 = getelementptr inbounds %"struct.std::__1::pair.412", %"struct.std::__1::pair.412"* %273, i64 1
  %296 = icmp eq %"struct.std::__1::pair.412"* %295, %228
  %297 = icmp eq %"struct.std::__1::pair.412"* %294, %269
  br i1 %296, label %298, label %299

298:                                              ; preds = %270
  br i1 %297, label %302, label %270

299:                                              ; preds = %270
  %300 = ptrtoint %"struct.std::__1::pair.412"* %295 to i64
  %301 = select i1 %297, i64 %300, i64 %266
  br label %265

302:                                              ; preds = %298, %220, %230, %262
  %303 = phi %"struct.std::__1::pair.412"* [ %227, %230 ], [ %228, %220 ], [ %254, %262 ], [ %254, %298 ]
  %304 = add nsw i64 %224, %223
  %305 = add nsw i64 %225, %226
  %306 = icmp slt i64 %304, %305
  br i1 %306, label %307, label %309

307:                                              ; preds = %302
  %308 = ptrtoint %"struct.std::__1::pair.412"* %303 to i64
  tail call void @_ZNSt3__115__inplace_mergeIRN4base8internal9flat_treeINS_12basic_stringIcNS_11char_traitsIcEENS_9allocatorIcEEEENS2_8GetFirstENS_4lessIvEENS_6vectorINS_4pairIS9_S9_EENS7_ISF_EEEEE13value_compareENS_11__wrap_iterIPSF_EEEEvT0_SO_SO_T_NS_15iterator_traitsISO_E15difference_typeESS_PNSR_10value_typeEl(%"struct.std::__1::pair.412"* %73, %"struct.std::__1::pair.412"* %227, %"struct.std::__1::pair.412"* %303, %"struct.base::internal::flat_tree<std::__1::basic_string<char, std::__1::char_traits<char>, std::__1::allocator<char> >, base::internal::GetFirst, std::__1::less<void>, std::__1::vector<std::__1::pair<std::__1::basic_string<char, std::__1::char_traits<char>, std::__1::allocator<char> >, std::__1::basic_string<char, std::__1::char_traits<char>, std::__1::allocator<char> > >, std::__1::allocator<std::__1::pair<std::__1::basic_string<char, std::__1::char_traits<char>, std::__1::allocator<char> >, std::__1::basic_string<char, std::__1::char_traits<char>, std::__1::allocator<char> > > > > >::value_compare"* dereferenceable(1) %3, i64 %224, i64 %223, %"struct.std::__1::pair.412"* %6, i64 %7)
  br label %310

309:                                              ; preds = %302
  tail call void @_ZNSt3__115__inplace_mergeIRN4base8internal9flat_treeINS_12basic_stringIcNS_11char_traitsIcEENS_9allocatorIcEEEENS2_8GetFirstENS_4lessIvEENS_6vectorINS_4pairIS9_S9_EENS7_ISF_EEEEE13value_compareENS_11__wrap_iterIPSF_EEEEvT0_SO_SO_T_NS_15iterator_traitsISO_E15difference_typeESS_PNSR_10value_typeEl(%"struct.std::__1::pair.412"* %303, %"struct.std::__1::pair.412"* %228, %"struct.std::__1::pair.412"* %14, %"struct.base::internal::flat_tree<std::__1::basic_string<char, std::__1::char_traits<char>, std::__1::allocator<char> >, base::internal::GetFirst, std::__1::less<void>, std::__1::vector<std::__1::pair<std::__1::basic_string<char, std::__1::char_traits<char>, std::__1::allocator<char> >, std::__1::basic_string<char, std::__1::char_traits<char>, std::__1::allocator<char> > >, std::__1::allocator<std::__1::pair<std::__1::basic_string<char, std::__1::char_traits<char>, std::__1::allocator<char> >, std::__1::basic_string<char, std::__1::char_traits<char>, std::__1::allocator<char> > > > > >::value_compare"* dereferenceable(1) %3, i64 %225, i64 %226, %"struct.std::__1::pair.412"* %6, i64 %7)
  br label %310

310:                                              ; preds = %307, %309
  %311 = phi i64 [ %308, %307 ], [ %41, %309 ]
  %312 = phi i64 [ %222, %307 ], [ %221, %309 ]
  %313 = phi i64 [ %226, %307 ], [ %223, %309 ]
  %314 = phi i64 [ %225, %307 ], [ %224, %309 ]
  %315 = phi %"struct.std::__1::pair.412"* [ %14, %307 ], [ %303, %309 ]
  %316 = icmp eq i64 %313, 0
  br i1 %316, label %317, label %13

317:                                              ; preds = %310, %22, %67, %8, %137, %36
  ret void
}

; Function Attrs: nofree nounwind readonly
declare i32 @memcmp(i8* nocapture, i8* nocapture, i64) local_unnamed_addr #11

; Function Attrs: nounwind ssp uwtable
define linkonce_odr hidden void @_ZNSt3__121__insertion_sort_moveIRN4base8internal9flat_treeINS_12basic_stringIcNS_11char_traitsIcEENS_9allocatorIcEEEENS2_8GetFirstENS_4lessIvEENS_6vectorINS_4pairIS9_S9_EENS7_ISF_EEEEE13value_compareENS_11__wrap_iterIPSF_EEEEvT0_SO_PNS_15iterator_traitsISO_E10value_typeET_(%"struct.std::__1::pair.412"*, %"struct.std::__1::pair.412"*, %"struct.std::__1::pair.412"*, %"struct.base::internal::flat_tree<std::__1::basic_string<char, std::__1::char_traits<char>, std::__1::allocator<char> >, base::internal::GetFirst, std::__1::less<void>, std::__1::vector<std::__1::pair<std::__1::basic_string<char, std::__1::char_traits<char>, std::__1::allocator<char> >, std::__1::basic_string<char, std::__1::char_traits<char>, std::__1::allocator<char> > >, std::__1::allocator<std::__1::pair<std::__1::basic_string<char, std::__1::char_traits<char>, std::__1::allocator<char> >, std::__1::basic_string<char, std::__1::char_traits<char>, std::__1::allocator<char> > > > > >::value_compare"* dereferenceable(1)) local_unnamed_addr #0 comdat {
  %5 = icmp eq %"struct.std::__1::pair.412"* %0, %1
  br i1 %5, label %163, label %6

6:                                                ; preds = %4
  %7 = bitcast %"struct.std::__1::pair.412"* %2 to i8*
  %8 = bitcast %"struct.std::__1::pair.412"* %0 to i8*
  tail call void @llvm.memcpy.p0i8.p0i8.i64(i8* align 8 %7, i8* align 8 %8, i64 24, i1 false) #12
  tail call void @llvm.memset.p0i8.i64(i8* align 8 %8, i8 0, i64 24, i1 false) #12
  %9 = getelementptr inbounds %"struct.std::__1::pair.412", %"struct.std::__1::pair.412"* %2, i64 0, i32 1
  %10 = getelementptr inbounds %"struct.std::__1::pair.412", %"struct.std::__1::pair.412"* %0, i64 0, i32 1
  %11 = bitcast %"class.std::__1::basic_string"* %9 to i8*
  %12 = bitcast %"class.std::__1::basic_string"* %10 to i8*
  tail call void @llvm.memcpy.p0i8.p0i8.i64(i8* align 8 %11, i8* align 8 %12, i64 24, i1 false) #12
  tail call void @llvm.memset.p0i8.i64(i8* align 8 %12, i8 0, i64 24, i1 false) #12
  %13 = getelementptr inbounds %"struct.std::__1::pair.412", %"struct.std::__1::pair.412"* %0, i64 1
  %14 = icmp eq %"struct.std::__1::pair.412"* %13, %1
  br i1 %14, label %163, label %15

15:                                               ; preds = %6, %160
  %16 = phi %"struct.std::__1::pair.412"* [ %161, %160 ], [ %13, %6 ]
  %17 = phi %"struct.std::__1::pair.412"* [ %19, %160 ], [ %2, %6 ]
  %18 = phi %"struct.std::__1::pair.412"* [ %16, %160 ], [ %0, %6 ]
  %19 = getelementptr inbounds %"struct.std::__1::pair.412", %"struct.std::__1::pair.412"* %17, i64 1
  %20 = bitcast %"struct.std::__1::pair.412"* %17 to %"struct.std::__1::basic_string<char, std::__1::char_traits<char>, std::__1::allocator<char> >::__short"*
  %21 = getelementptr inbounds %"struct.std::__1::basic_string<char, std::__1::char_traits<char>, std::__1::allocator<char> >::__short", %"struct.std::__1::basic_string<char, std::__1::char_traits<char>, std::__1::allocator<char> >::__short"* %20, i64 0, i32 1, i32 0
  %22 = load i8, i8* %21, align 1
  %23 = icmp slt i8 %22, 0
  %24 = getelementptr inbounds %"struct.std::__1::pair.412", %"struct.std::__1::pair.412"* %17, i64 0, i32 0, i32 0, i32 0, i32 0, i32 0, i32 0, i32 1
  %25 = load i64, i64* %24, align 8
  %26 = zext i8 %22 to i64
  %27 = select i1 %23, i64 %25, i64 %26
  %28 = bitcast %"struct.std::__1::pair.412"* %16 to %"struct.std::__1::basic_string<char, std::__1::char_traits<char>, std::__1::allocator<char> >::__short"*
  %29 = getelementptr inbounds %"struct.std::__1::basic_string<char, std::__1::char_traits<char>, std::__1::allocator<char> >::__short", %"struct.std::__1::basic_string<char, std::__1::char_traits<char>, std::__1::allocator<char> >::__short"* %28, i64 0, i32 1, i32 0
  %30 = load i8, i8* %29, align 1
  %31 = icmp slt i8 %30, 0
  %32 = getelementptr inbounds %"struct.std::__1::pair.412", %"struct.std::__1::pair.412"* %18, i64 1, i32 0, i32 0, i32 0, i32 0, i32 0, i32 0, i32 1
  %33 = load i64, i64* %32, align 8
  %34 = zext i8 %30 to i64
  %35 = select i1 %31, i64 %33, i64 %34
  %36 = icmp ult i64 %27, %35
  %37 = select i1 %36, i64 %27, i64 %35
  %38 = icmp eq i64 %37, 0
  br i1 %38, label %50, label %39

39:                                               ; preds = %15
  %40 = getelementptr inbounds %"struct.std::__1::pair.412", %"struct.std::__1::pair.412"* %16, i64 0, i32 0, i32 0, i32 0, i32 0, i32 0, i32 0, i32 0
  %41 = load i8*, i8** %40, align 8
  %42 = bitcast %"struct.std::__1::pair.412"* %16 to i8*
  %43 = select i1 %31, i8* %41, i8* %42
  %44 = getelementptr inbounds %"struct.std::__1::pair.412", %"struct.std::__1::pair.412"* %17, i64 0, i32 0, i32 0, i32 0, i32 0, i32 0, i32 0, i32 0
  %45 = load i8*, i8** %44, align 8
  %46 = bitcast %"struct.std::__1::pair.412"* %17 to i8*
  %47 = select i1 %23, i8* %45, i8* %46
  %48 = tail call i32 @memcmp(i8* %43, i8* %47, i64 %37) #12
  %49 = icmp eq i32 %48, 0
  br i1 %49, label %50, label %56

50:                                               ; preds = %39, %15
  %51 = icmp ult i64 %35, %27
  br i1 %51, label %52, label %54

52:                                               ; preds = %50
  %53 = bitcast %"struct.std::__1::pair.412"* %17 to i8*
  br label %58

54:                                               ; preds = %50
  %55 = bitcast %"struct.std::__1::pair.412"* %16 to i8*
  br label %153

56:                                               ; preds = %39
  %57 = icmp slt i32 %48, 0
  br i1 %57, label %58, label %153

58:                                               ; preds = %52, %56
  %59 = phi i8* [ %53, %52 ], [ %46, %56 ]
  %60 = bitcast %"struct.std::__1::pair.412"* %19 to i8*
  tail call void @llvm.memcpy.p0i8.p0i8.i64(i8* align 8 %60, i8* align 8 %59, i64 24, i1 false) #12
  tail call void @llvm.memset.p0i8.i64(i8* align 8 %59, i8 0, i64 24, i1 false) #12
  %61 = getelementptr inbounds %"struct.std::__1::pair.412", %"struct.std::__1::pair.412"* %17, i64 1, i32 1
  %62 = getelementptr inbounds %"struct.std::__1::pair.412", %"struct.std::__1::pair.412"* %17, i64 0, i32 1
  %63 = bitcast %"class.std::__1::basic_string"* %61 to i8*
  %64 = bitcast %"class.std::__1::basic_string"* %62 to i8*
  tail call void @llvm.memcpy.p0i8.p0i8.i64(i8* align 8 %63, i8* align 8 %64, i64 24, i1 false) #12
  tail call void @llvm.memset.p0i8.i64(i8* align 8 %64, i8 0, i64 24, i1 false) #12
  %65 = icmp eq %"struct.std::__1::pair.412"* %17, %2
  br i1 %65, label %127, label %66

66:                                               ; preds = %58
  %67 = getelementptr inbounds %"struct.std::__1::pair.412", %"struct.std::__1::pair.412"* %16, i64 0, i32 0, i32 0, i32 0, i32 0, i32 0, i32 0, i32 0
  %68 = bitcast %"struct.std::__1::pair.412"* %16 to i8*
  br label %69

69:                                               ; preds = %66, %121
  %70 = phi %"struct.std::__1::pair.412"* [ %17, %66 ], [ %71, %121 ]
  %71 = getelementptr inbounds %"struct.std::__1::pair.412", %"struct.std::__1::pair.412"* %70, i64 -1
  %72 = bitcast %"struct.std::__1::pair.412"* %71 to %"struct.std::__1::basic_string<char, std::__1::char_traits<char>, std::__1::allocator<char> >::__short"*
  %73 = getelementptr inbounds %"struct.std::__1::basic_string<char, std::__1::char_traits<char>, std::__1::allocator<char> >::__short", %"struct.std::__1::basic_string<char, std::__1::char_traits<char>, std::__1::allocator<char> >::__short"* %72, i64 0, i32 1, i32 0
  %74 = load i8, i8* %73, align 1
  %75 = icmp slt i8 %74, 0
  %76 = getelementptr inbounds %"struct.std::__1::pair.412", %"struct.std::__1::pair.412"* %70, i64 -1, i32 0, i32 0, i32 0, i32 0, i32 0, i32 0, i32 1
  %77 = load i64, i64* %76, align 8
  %78 = zext i8 %74 to i64
  %79 = select i1 %75, i64 %77, i64 %78
  %80 = load i8, i8* %29, align 1
  %81 = icmp slt i8 %80, 0
  %82 = load i64, i64* %32, align 8
  %83 = zext i8 %80 to i64
  %84 = select i1 %81, i64 %82, i64 %83
  %85 = icmp ult i64 %79, %84
  %86 = select i1 %85, i64 %79, i64 %84
  %87 = icmp eq i64 %86, 0
  br i1 %87, label %97, label %88

88:                                               ; preds = %69
  %89 = load i8*, i8** %67, align 8
  %90 = select i1 %81, i8* %89, i8* %68
  %91 = getelementptr inbounds %"struct.std::__1::pair.412", %"struct.std::__1::pair.412"* %71, i64 0, i32 0, i32 0, i32 0, i32 0, i32 0, i32 0, i32 0
  %92 = load i8*, i8** %91, align 8
  %93 = bitcast %"struct.std::__1::pair.412"* %71 to i8*
  %94 = select i1 %75, i8* %92, i8* %93
  %95 = tail call i32 @memcmp(i8* %90, i8* %94, i64 %86) #12
  %96 = icmp eq i32 %95, 0
  br i1 %96, label %97, label %99

97:                                               ; preds = %88, %69
  %98 = icmp ult i64 %84, %79
  br i1 %98, label %101, label %127

99:                                               ; preds = %88
  %100 = icmp slt i32 %95, 0
  br i1 %100, label %101, label %127

101:                                              ; preds = %97, %99
  %102 = bitcast %"struct.std::__1::pair.412"* %70 to %"struct.std::__1::basic_string<char, std::__1::char_traits<char>, std::__1::allocator<char> >::__short"*
  %103 = getelementptr inbounds %"struct.std::__1::basic_string<char, std::__1::char_traits<char>, std::__1::allocator<char> >::__short", %"struct.std::__1::basic_string<char, std::__1::char_traits<char>, std::__1::allocator<char> >::__short"* %102, i64 0, i32 1, i32 0
  %104 = load i8, i8* %103, align 1
  %105 = icmp slt i8 %104, 0
  br i1 %105, label %106, label %109

106:                                              ; preds = %101
  %107 = getelementptr inbounds %"struct.std::__1::pair.412", %"struct.std::__1::pair.412"* %70, i64 0, i32 0, i32 0, i32 0, i32 0, i32 0, i32 0, i32 0
  %108 = load i8*, i8** %107, align 8
  tail call void @_ZdlPv(i8* %108) #13
  br label %109

109:                                              ; preds = %106, %101
  %110 = bitcast %"struct.std::__1::pair.412"* %70 to i8*
  %111 = bitcast %"struct.std::__1::pair.412"* %71 to i8*
  tail call void @llvm.memcpy.p0i8.p0i8.i64(i8* align 8 %110, i8* align 8 %111, i64 24, i1 false) #12
  store i8 0, i8* %73, align 1
  store i8 0, i8* %111, align 1
  %112 = getelementptr inbounds %"struct.std::__1::pair.412", %"struct.std::__1::pair.412"* %70, i64 -1, i32 1
  %113 = getelementptr inbounds %"struct.std::__1::pair.412", %"struct.std::__1::pair.412"* %70, i64 0, i32 1
  %114 = bitcast %"class.std::__1::basic_string"* %113 to %"struct.std::__1::basic_string<char, std::__1::char_traits<char>, std::__1::allocator<char> >::__short"*
  %115 = getelementptr inbounds %"struct.std::__1::basic_string<char, std::__1::char_traits<char>, std::__1::allocator<char> >::__short", %"struct.std::__1::basic_string<char, std::__1::char_traits<char>, std::__1::allocator<char> >::__short"* %114, i64 0, i32 1, i32 0
  %116 = load i8, i8* %115, align 1
  %117 = icmp slt i8 %116, 0
  br i1 %117, label %118, label %121

118:                                              ; preds = %109
  %119 = getelementptr inbounds %"class.std::__1::basic_string", %"class.std::__1::basic_string"* %113, i64 0, i32 0, i32 0, i32 0, i32 0, i32 0, i32 0
  %120 = load i8*, i8** %119, align 8
  tail call void @_ZdlPv(i8* %120) #13
  br label %121

121:                                              ; preds = %109, %118
  %122 = bitcast %"class.std::__1::basic_string"* %113 to i8*
  %123 = bitcast %"class.std::__1::basic_string"* %112 to i8*
  tail call void @llvm.memcpy.p0i8.p0i8.i64(i8* align 8 %122, i8* align 8 %123, i64 24, i1 false) #12
  %124 = bitcast %"class.std::__1::basic_string"* %112 to %"struct.std::__1::basic_string<char, std::__1::char_traits<char>, std::__1::allocator<char> >::__short"*
  %125 = getelementptr inbounds %"struct.std::__1::basic_string<char, std::__1::char_traits<char>, std::__1::allocator<char> >::__short", %"struct.std::__1::basic_string<char, std::__1::char_traits<char>, std::__1::allocator<char> >::__short"* %124, i64 0, i32 1, i32 0
  store i8 0, i8* %125, align 1
  store i8 0, i8* %123, align 1
  %126 = icmp eq %"struct.std::__1::pair.412"* %71, %2
  br i1 %126, label %127, label %69

127:                                              ; preds = %99, %121, %97, %58
  %128 = phi %"struct.std::__1::pair.412"* [ %2, %58 ], [ %70, %97 ], [ %2, %121 ], [ %70, %99 ]
  %129 = bitcast %"struct.std::__1::pair.412"* %128 to %"struct.std::__1::basic_string<char, std::__1::char_traits<char>, std::__1::allocator<char> >::__short"*
  %130 = getelementptr inbounds %"struct.std::__1::basic_string<char, std::__1::char_traits<char>, std::__1::allocator<char> >::__short", %"struct.std::__1::basic_string<char, std::__1::char_traits<char>, std::__1::allocator<char> >::__short"* %129, i64 0, i32 1, i32 0
  %131 = load i8, i8* %130, align 1
  %132 = icmp slt i8 %131, 0
  br i1 %132, label %133, label %136

133:                                              ; preds = %127
  %134 = getelementptr inbounds %"struct.std::__1::pair.412", %"struct.std::__1::pair.412"* %128, i64 0, i32 0, i32 0, i32 0, i32 0, i32 0, i32 0, i32 0
  %135 = load i8*, i8** %134, align 8
  tail call void @_ZdlPv(i8* %135) #13
  br label %136

136:                                              ; preds = %133, %127
  %137 = bitcast %"struct.std::__1::pair.412"* %128 to i8*
  %138 = bitcast %"struct.std::__1::pair.412"* %16 to i8*
  tail call void @llvm.memcpy.p0i8.p0i8.i64(i8* align 8 %137, i8* align 8 %138, i64 24, i1 false) #12
  store i8 0, i8* %29, align 1
  store i8 0, i8* %138, align 1
  %139 = getelementptr inbounds %"struct.std::__1::pair.412", %"struct.std::__1::pair.412"* %18, i64 1, i32 1
  %140 = getelementptr inbounds %"struct.std::__1::pair.412", %"struct.std::__1::pair.412"* %128, i64 0, i32 1
  %141 = bitcast %"class.std::__1::basic_string"* %140 to %"struct.std::__1::basic_string<char, std::__1::char_traits<char>, std::__1::allocator<char> >::__short"*
  %142 = getelementptr inbounds %"struct.std::__1::basic_string<char, std::__1::char_traits<char>, std::__1::allocator<char> >::__short", %"struct.std::__1::basic_string<char, std::__1::char_traits<char>, std::__1::allocator<char> >::__short"* %141, i64 0, i32 1, i32 0
  %143 = load i8, i8* %142, align 1
  %144 = icmp slt i8 %143, 0
  br i1 %144, label %145, label %148

145:                                              ; preds = %136
  %146 = getelementptr inbounds %"class.std::__1::basic_string", %"class.std::__1::basic_string"* %140, i64 0, i32 0, i32 0, i32 0, i32 0, i32 0, i32 0
  %147 = load i8*, i8** %146, align 8
  tail call void @_ZdlPv(i8* %147) #13
  br label %148

148:                                              ; preds = %136, %145
  %149 = bitcast %"class.std::__1::basic_string"* %140 to i8*
  %150 = bitcast %"class.std::__1::basic_string"* %139 to i8*
  tail call void @llvm.memcpy.p0i8.p0i8.i64(i8* align 8 %149, i8* align 8 %150, i64 24, i1 false) #12
  %151 = bitcast %"class.std::__1::basic_string"* %139 to %"struct.std::__1::basic_string<char, std::__1::char_traits<char>, std::__1::allocator<char> >::__short"*
  %152 = getelementptr inbounds %"struct.std::__1::basic_string<char, std::__1::char_traits<char>, std::__1::allocator<char> >::__short", %"struct.std::__1::basic_string<char, std::__1::char_traits<char>, std::__1::allocator<char> >::__short"* %151, i64 0, i32 1, i32 0
  store i8 0, i8* %152, align 1
  store i8 0, i8* %150, align 1
  br label %160

153:                                              ; preds = %54, %56
  %154 = phi i8* [ %55, %54 ], [ %42, %56 ]
  %155 = bitcast %"struct.std::__1::pair.412"* %19 to i8*
  tail call void @llvm.memcpy.p0i8.p0i8.i64(i8* align 8 %155, i8* align 8 %154, i64 24, i1 false) #12
  tail call void @llvm.memset.p0i8.i64(i8* align 8 %154, i8 0, i64 24, i1 false) #12
  %156 = getelementptr inbounds %"struct.std::__1::pair.412", %"struct.std::__1::pair.412"* %17, i64 1, i32 1
  %157 = getelementptr inbounds %"struct.std::__1::pair.412", %"struct.std::__1::pair.412"* %18, i64 1, i32 1
  %158 = bitcast %"class.std::__1::basic_string"* %156 to i8*
  %159 = bitcast %"class.std::__1::basic_string"* %157 to i8*
  tail call void @llvm.memcpy.p0i8.p0i8.i64(i8* align 8 %158, i8* align 8 %159, i64 24, i1 false) #12
  tail call void @llvm.memset.p0i8.i64(i8* align 8 %159, i8 0, i64 24, i1 false) #12
  br label %160

160:                                              ; preds = %153, %148
  %161 = getelementptr inbounds %"struct.std::__1::pair.412", %"struct.std::__1::pair.412"* %16, i64 1
  %162 = icmp eq %"struct.std::__1::pair.412"* %161, %1
  br i1 %162, label %163, label %15

163:                                              ; preds = %160, %6, %4
  ret void
}

; Function Attrs: nounwind ssp uwtable
define linkonce_odr hidden void @_ZNSt3__122__merge_move_constructIRN4base8internal9flat_treeINS_12basic_stringIcNS_11char_traitsIcEENS_9allocatorIcEEEENS2_8GetFirstENS_4lessIvEENS_6vectorINS_4pairIS9_S9_EENS7_ISF_EEEEE13value_compareENS_11__wrap_iterIPSF_EESN_EEvT0_SO_T1_SP_PNS_15iterator_traitsISO_E10value_typeET_(%"struct.std::__1::pair.412"*, %"struct.std::__1::pair.412"*, %"struct.std::__1::pair.412"*, %"struct.std::__1::pair.412"*, %"struct.std::__1::pair.412"*, %"struct.base::internal::flat_tree<std::__1::basic_string<char, std::__1::char_traits<char>, std::__1::allocator<char> >, base::internal::GetFirst, std::__1::less<void>, std::__1::vector<std::__1::pair<std::__1::basic_string<char, std::__1::char_traits<char>, std::__1::allocator<char> >, std::__1::basic_string<char, std::__1::char_traits<char>, std::__1::allocator<char> > >, std::__1::allocator<std::__1::pair<std::__1::basic_string<char, std::__1::char_traits<char>, std::__1::allocator<char> >, std::__1::basic_string<char, std::__1::char_traits<char>, std::__1::allocator<char> > > > > >::value_compare"* dereferenceable(1)) local_unnamed_addr #0 comdat {
  %7 = icmp eq %"struct.std::__1::pair.412"* %0, %1
  br i1 %7, label %8, label %24

8:                                                ; preds = %98, %6
  %9 = phi %"struct.std::__1::pair.412"* [ %2, %6 ], [ %99, %98 ]
  %10 = phi %"struct.std::__1::pair.412"* [ %4, %6 ], [ %101, %98 ]
  %11 = icmp eq %"struct.std::__1::pair.412"* %9, %3
  br i1 %11, label %103, label %12

12:                                               ; preds = %8, %12
  %13 = phi %"struct.std::__1::pair.412"* [ %22, %12 ], [ %10, %8 ]
  %14 = phi %"struct.std::__1::pair.412"* [ %21, %12 ], [ %9, %8 ]
  %15 = bitcast %"struct.std::__1::pair.412"* %13 to i8*
  %16 = bitcast %"struct.std::__1::pair.412"* %14 to i8*
  tail call void @llvm.memcpy.p0i8.p0i8.i64(i8* align 8 %15, i8* align 8 %16, i64 24, i1 false) #12
  tail call void @llvm.memset.p0i8.i64(i8* align 8 %16, i8 0, i64 24, i1 false) #12
  %17 = getelementptr inbounds %"struct.std::__1::pair.412", %"struct.std::__1::pair.412"* %13, i64 0, i32 1
  %18 = getelementptr inbounds %"struct.std::__1::pair.412", %"struct.std::__1::pair.412"* %14, i64 0, i32 1
  %19 = bitcast %"class.std::__1::basic_string"* %17 to i8*
  %20 = bitcast %"class.std::__1::basic_string"* %18 to i8*
  tail call void @llvm.memcpy.p0i8.p0i8.i64(i8* align 8 %19, i8* align 8 %20, i64 24, i1 false) #12
  tail call void @llvm.memset.p0i8.i64(i8* align 8 %20, i8 0, i64 24, i1 false) #12
  %21 = getelementptr inbounds %"struct.std::__1::pair.412", %"struct.std::__1::pair.412"* %14, i64 1
  %22 = getelementptr inbounds %"struct.std::__1::pair.412", %"struct.std::__1::pair.412"* %13, i64 1
  %23 = icmp eq %"struct.std::__1::pair.412"* %21, %3
  br i1 %23, label %103, label %12

24:                                               ; preds = %6, %98
  %25 = phi %"struct.std::__1::pair.412"* [ %101, %98 ], [ %4, %6 ]
  %26 = phi %"struct.std::__1::pair.412"* [ %100, %98 ], [ %0, %6 ]
  %27 = phi %"struct.std::__1::pair.412"* [ %99, %98 ], [ %2, %6 ]
  %28 = icmp eq %"struct.std::__1::pair.412"* %27, %3
  br i1 %28, label %29, label %43

29:                                               ; preds = %24
  %30 = icmp eq %"struct.std::__1::pair.412"* %26, %1
  br i1 %30, label %103, label %31

31:                                               ; preds = %29, %31
  %32 = phi %"struct.std::__1::pair.412"* [ %41, %31 ], [ %25, %29 ]
  %33 = phi %"struct.std::__1::pair.412"* [ %40, %31 ], [ %26, %29 ]
  %34 = bitcast %"struct.std::__1::pair.412"* %32 to i8*
  %35 = bitcast %"struct.std::__1::pair.412"* %33 to i8*
  tail call void @llvm.memcpy.p0i8.p0i8.i64(i8* align 8 %34, i8* align 8 %35, i64 24, i1 false) #12
  tail call void @llvm.memset.p0i8.i64(i8* align 8 %35, i8 0, i64 24, i1 false) #12
  %36 = getelementptr inbounds %"struct.std::__1::pair.412", %"struct.std::__1::pair.412"* %32, i64 0, i32 1
  %37 = getelementptr inbounds %"struct.std::__1::pair.412", %"struct.std::__1::pair.412"* %33, i64 0, i32 1
  %38 = bitcast %"class.std::__1::basic_string"* %36 to i8*
  %39 = bitcast %"class.std::__1::basic_string"* %37 to i8*
  tail call void @llvm.memcpy.p0i8.p0i8.i64(i8* align 8 %38, i8* align 8 %39, i64 24, i1 false) #12
  tail call void @llvm.memset.p0i8.i64(i8* align 8 %39, i8 0, i64 24, i1 false) #12
  %40 = getelementptr inbounds %"struct.std::__1::pair.412", %"struct.std::__1::pair.412"* %33, i64 1
  %41 = getelementptr inbounds %"struct.std::__1::pair.412", %"struct.std::__1::pair.412"* %32, i64 1
  %42 = icmp eq %"struct.std::__1::pair.412"* %40, %1
  br i1 %42, label %103, label %31

43:                                               ; preds = %24
  %44 = bitcast %"struct.std::__1::pair.412"* %26 to %"struct.std::__1::basic_string<char, std::__1::char_traits<char>, std::__1::allocator<char> >::__short"*
  %45 = getelementptr inbounds %"struct.std::__1::basic_string<char, std::__1::char_traits<char>, std::__1::allocator<char> >::__short", %"struct.std::__1::basic_string<char, std::__1::char_traits<char>, std::__1::allocator<char> >::__short"* %44, i64 0, i32 1, i32 0
  %46 = load i8, i8* %45, align 1
  %47 = icmp slt i8 %46, 0
  %48 = getelementptr inbounds %"struct.std::__1::pair.412", %"struct.std::__1::pair.412"* %26, i64 0, i32 0, i32 0, i32 0, i32 0, i32 0, i32 0, i32 1
  %49 = load i64, i64* %48, align 8
  %50 = zext i8 %46 to i64
  %51 = select i1 %47, i64 %49, i64 %50
  %52 = bitcast %"struct.std::__1::pair.412"* %27 to %"struct.std::__1::basic_string<char, std::__1::char_traits<char>, std::__1::allocator<char> >::__short"*
  %53 = getelementptr inbounds %"struct.std::__1::basic_string<char, std::__1::char_traits<char>, std::__1::allocator<char> >::__short", %"struct.std::__1::basic_string<char, std::__1::char_traits<char>, std::__1::allocator<char> >::__short"* %52, i64 0, i32 1, i32 0
  %54 = load i8, i8* %53, align 1
  %55 = icmp slt i8 %54, 0
  %56 = getelementptr inbounds %"struct.std::__1::pair.412", %"struct.std::__1::pair.412"* %27, i64 0, i32 0, i32 0, i32 0, i32 0, i32 0, i32 0, i32 1
  %57 = load i64, i64* %56, align 8
  %58 = zext i8 %54 to i64
  %59 = select i1 %55, i64 %57, i64 %58
  %60 = icmp ult i64 %51, %59
  %61 = select i1 %60, i64 %51, i64 %59
  %62 = icmp eq i64 %61, 0
  br i1 %62, label %74, label %63

63:                                               ; preds = %43
  %64 = getelementptr inbounds %"struct.std::__1::pair.412", %"struct.std::__1::pair.412"* %27, i64 0, i32 0, i32 0, i32 0, i32 0, i32 0, i32 0, i32 0
  %65 = load i8*, i8** %64, align 8
  %66 = bitcast %"struct.std::__1::pair.412"* %27 to i8*
  %67 = select i1 %55, i8* %65, i8* %66
  %68 = getelementptr inbounds %"struct.std::__1::pair.412", %"struct.std::__1::pair.412"* %26, i64 0, i32 0, i32 0, i32 0, i32 0, i32 0, i32 0, i32 0
  %69 = load i8*, i8** %68, align 8
  %70 = bitcast %"struct.std::__1::pair.412"* %26 to i8*
  %71 = select i1 %47, i8* %69, i8* %70
  %72 = tail call i32 @memcmp(i8* %67, i8* %71, i64 %61) #12
  %73 = icmp eq i32 %72, 0
  br i1 %73, label %74, label %80

74:                                               ; preds = %63, %43
  %75 = icmp ult i64 %59, %51
  br i1 %75, label %76, label %78

76:                                               ; preds = %74
  %77 = bitcast %"struct.std::__1::pair.412"* %27 to i8*
  br label %82

78:                                               ; preds = %74
  %79 = bitcast %"struct.std::__1::pair.412"* %26 to i8*
  br label %90

80:                                               ; preds = %63
  %81 = icmp slt i32 %72, 0
  br i1 %81, label %82, label %90

82:                                               ; preds = %76, %80
  %83 = phi i8* [ %77, %76 ], [ %66, %80 ]
  %84 = bitcast %"struct.std::__1::pair.412"* %25 to i8*
  tail call void @llvm.memcpy.p0i8.p0i8.i64(i8* align 8 %84, i8* align 8 %83, i64 24, i1 false) #12
  tail call void @llvm.memset.p0i8.i64(i8* align 8 %83, i8 0, i64 24, i1 false) #12
  %85 = getelementptr inbounds %"struct.std::__1::pair.412", %"struct.std::__1::pair.412"* %25, i64 0, i32 1
  %86 = getelementptr inbounds %"struct.std::__1::pair.412", %"struct.std::__1::pair.412"* %27, i64 0, i32 1
  %87 = bitcast %"class.std::__1::basic_string"* %85 to i8*
  %88 = bitcast %"class.std::__1::basic_string"* %86 to i8*
  tail call void @llvm.memcpy.p0i8.p0i8.i64(i8* align 8 %87, i8* align 8 %88, i64 24, i1 false) #12
  tail call void @llvm.memset.p0i8.i64(i8* align 8 %88, i8 0, i64 24, i1 false) #12
  %89 = getelementptr inbounds %"struct.std::__1::pair.412", %"struct.std::__1::pair.412"* %27, i64 1
  br label %98

90:                                               ; preds = %78, %80
  %91 = phi i8* [ %79, %78 ], [ %70, %80 ]
  %92 = bitcast %"struct.std::__1::pair.412"* %25 to i8*
  tail call void @llvm.memcpy.p0i8.p0i8.i64(i8* align 8 %92, i8* align 8 %91, i64 24, i1 false) #12
  tail call void @llvm.memset.p0i8.i64(i8* align 8 %91, i8 0, i64 24, i1 false) #12
  %93 = getelementptr inbounds %"struct.std::__1::pair.412", %"struct.std::__1::pair.412"* %25, i64 0, i32 1
  %94 = getelementptr inbounds %"struct.std::__1::pair.412", %"struct.std::__1::pair.412"* %26, i64 0, i32 1
  %95 = bitcast %"class.std::__1::basic_string"* %93 to i8*
  %96 = bitcast %"class.std::__1::basic_string"* %94 to i8*
  tail call void @llvm.memcpy.p0i8.p0i8.i64(i8* align 8 %95, i8* align 8 %96, i64 24, i1 false) #12
  tail call void @llvm.memset.p0i8.i64(i8* align 8 %96, i8 0, i64 24, i1 false) #12
  %97 = getelementptr inbounds %"struct.std::__1::pair.412", %"struct.std::__1::pair.412"* %26, i64 1
  br label %98

98:                                               ; preds = %82, %90
  %99 = phi %"struct.std::__1::pair.412"* [ %89, %82 ], [ %27, %90 ]
  %100 = phi %"struct.std::__1::pair.412"* [ %26, %82 ], [ %97, %90 ]
  %101 = getelementptr inbounds %"struct.std::__1::pair.412", %"struct.std::__1::pair.412"* %25, i64 1
  %102 = icmp eq %"struct.std::__1::pair.412"* %100, %1
  br i1 %102, label %8, label %24

103:                                              ; preds = %31, %12, %29, %8
  ret void
}

; Function Attrs: nounwind ssp uwtable
define linkonce_odr hidden void @_ZNSt3__124__buffered_inplace_mergeIRN4base8internal9flat_treeINS_12basic_stringIcNS_11char_traitsIcEENS_9allocatorIcEEEENS2_8GetFirstENS_4lessIvEENS_6vectorINS_4pairIS9_S9_EENS7_ISF_EEEEE13value_compareENS_11__wrap_iterIPSF_EEEEvT0_SO_SO_T_NS_15iterator_traitsISO_E15difference_typeESS_PNSR_10value_typeE(%"struct.std::__1::pair.412"*, %"struct.std::__1::pair.412"*, %"struct.std::__1::pair.412"*, %"struct.base::internal::flat_tree<std::__1::basic_string<char, std::__1::char_traits<char>, std::__1::allocator<char> >, base::internal::GetFirst, std::__1::less<void>, std::__1::vector<std::__1::pair<std::__1::basic_string<char, std::__1::char_traits<char>, std::__1::allocator<char> >, std::__1::basic_string<char, std::__1::char_traits<char>, std::__1::allocator<char> > >, std::__1::allocator<std::__1::pair<std::__1::basic_string<char, std::__1::char_traits<char>, std::__1::allocator<char> >, std::__1::basic_string<char, std::__1::char_traits<char>, std::__1::allocator<char> > > > > >::value_compare"* dereferenceable(1), i64, i64, %"struct.std::__1::pair.412"*) local_unnamed_addr #0 comdat {
  %8 = alloca %"class.std::__1::reverse_iterator.431", align 8
  %9 = alloca %"class.std::__1::reverse_iterator.431", align 8
  %10 = icmp sgt i64 %4, %5
  br i1 %10, label %13, label %11

11:                                               ; preds = %7
  %12 = icmp eq %"struct.std::__1::pair.412"* %0, %1
  br i1 %12, label %15, label %18

13:                                               ; preds = %7
  %14 = icmp eq %"struct.std::__1::pair.412"* %1, %2
  br i1 %14, label %32, label %40

15:                                               ; preds = %18, %11
  %16 = phi i64 [ 0, %11 ], [ %28, %18 ]
  %17 = phi %"struct.std::__1::pair.412"* [ %6, %11 ], [ %30, %18 ]
  tail call void @_ZNSt3__120__half_inplace_mergeIRN4base8internal9flat_treeINS_12basic_stringIcNS_11char_traitsIcEENS_9allocatorIcEEEENS2_8GetFirstENS_4lessIvEENS_6vectorINS_4pairIS9_S9_EENS7_ISF_EEEEE13value_compareEPSF_NS_11__wrap_iterISL_EESN_EEvT0_SO_T1_SP_T2_T_(%"struct.std::__1::pair.412"* %6, %"struct.std::__1::pair.412"* %17, %"struct.std::__1::pair.412"* %1, %"struct.std::__1::pair.412"* %2, %"struct.std::__1::pair.412"* %0, %"struct.base::internal::flat_tree<std::__1::basic_string<char, std::__1::char_traits<char>, std::__1::allocator<char> >, base::internal::GetFirst, std::__1::less<void>, std::__1::vector<std::__1::pair<std::__1::basic_string<char, std::__1::char_traits<char>, std::__1::allocator<char> >, std::__1::basic_string<char, std::__1::char_traits<char>, std::__1::allocator<char> > >, std::__1::allocator<std::__1::pair<std::__1::basic_string<char, std::__1::char_traits<char>, std::__1::allocator<char> >, std::__1::basic_string<char, std::__1::char_traits<char>, std::__1::allocator<char> > > > > >::value_compare"* dereferenceable(1) %3)
  br label %54

18:                                               ; preds = %11, %18
  %19 = phi %"struct.std::__1::pair.412"* [ %30, %18 ], [ %6, %11 ]
  %20 = phi %"struct.std::__1::pair.412"* [ %29, %18 ], [ %0, %11 ]
  %21 = phi i64 [ %28, %18 ], [ 0, %11 ]
  %22 = bitcast %"struct.std::__1::pair.412"* %19 to i8*
  %23 = bitcast %"struct.std::__1::pair.412"* %20 to i8*
  tail call void @llvm.memcpy.p0i8.p0i8.i64(i8* align 8 %22, i8* align 8 %23, i64 24, i1 false) #12
  tail call void @llvm.memset.p0i8.i64(i8* align 8 %23, i8 0, i64 24, i1 false) #12
  %24 = getelementptr inbounds %"struct.std::__1::pair.412", %"struct.std::__1::pair.412"* %19, i64 0, i32 1
  %25 = getelementptr inbounds %"struct.std::__1::pair.412", %"struct.std::__1::pair.412"* %20, i64 0, i32 1
  %26 = bitcast %"class.std::__1::basic_string"* %24 to i8*
  %27 = bitcast %"class.std::__1::basic_string"* %25 to i8*
  tail call void @llvm.memcpy.p0i8.p0i8.i64(i8* align 8 %26, i8* align 8 %27, i64 24, i1 false) #12
  tail call void @llvm.memset.p0i8.i64(i8* align 8 %27, i8 0, i64 24, i1 false) #12
  %28 = add nuw nsw i64 %21, 1
  %29 = getelementptr inbounds %"struct.std::__1::pair.412", %"struct.std::__1::pair.412"* %20, i64 1
  %30 = getelementptr inbounds %"struct.std::__1::pair.412", %"struct.std::__1::pair.412"* %19, i64 1
  %31 = icmp eq %"struct.std::__1::pair.412"* %29, %1
  br i1 %31, label %15, label %18

32:                                               ; preds = %40, %13
  %33 = phi i64 [ 0, %13 ], [ %50, %40 ]
  %34 = phi %"struct.std::__1::pair.412"* [ %6, %13 ], [ %52, %40 ]
  %35 = getelementptr inbounds %"class.std::__1::reverse_iterator.431", %"class.std::__1::reverse_iterator.431"* %8, i64 0, i32 0, i32 0
  store %"struct.std::__1::pair.412"* %0, %"struct.std::__1::pair.412"** %35, align 8
  %36 = getelementptr inbounds %"class.std::__1::reverse_iterator.431", %"class.std::__1::reverse_iterator.431"* %8, i64 0, i32 1, i32 0
  store %"struct.std::__1::pair.412"* %0, %"struct.std::__1::pair.412"** %36, align 8
  %37 = getelementptr inbounds %"class.std::__1::reverse_iterator.431", %"class.std::__1::reverse_iterator.431"* %9, i64 0, i32 0, i32 0
  store %"struct.std::__1::pair.412"* %2, %"struct.std::__1::pair.412"** %37, align 8
  %38 = getelementptr inbounds %"class.std::__1::reverse_iterator.431", %"class.std::__1::reverse_iterator.431"* %9, i64 0, i32 1, i32 0
  store %"struct.std::__1::pair.412"* %2, %"struct.std::__1::pair.412"** %38, align 8
  %39 = ptrtoint %"struct.base::internal::flat_tree<std::__1::basic_string<char, std::__1::char_traits<char>, std::__1::allocator<char> >, base::internal::GetFirst, std::__1::less<void>, std::__1::vector<std::__1::pair<std::__1::basic_string<char, std::__1::char_traits<char>, std::__1::allocator<char> >, std::__1::basic_string<char, std::__1::char_traits<char>, std::__1::allocator<char> > >, std::__1::allocator<std::__1::pair<std::__1::basic_string<char, std::__1::char_traits<char>, std::__1::allocator<char> >, std::__1::basic_string<char, std::__1::char_traits<char>, std::__1::allocator<char> > > > > >::value_compare"* %3 to i64
  tail call void @_ZNSt3__120__half_inplace_mergeINS_8__invertIRN4base8internal9flat_treeINS_12basic_stringIcNS_11char_traitsIcEENS_9allocatorIcEEEENS3_8GetFirstENS_4lessIvEENS_6vectorINS_4pairISA_SA_EENS8_ISG_EEEEE13value_compareEEENS_16reverse_iteratorIPSG_EENSN_INS_11__wrap_iterISO_EEEESS_EEvT0_ST_T1_SU_T2_T_(%"struct.std::__1::pair.412"* %34, %"struct.std::__1::pair.412"* %34, %"struct.std::__1::pair.412"* %6, %"struct.std::__1::pair.412"* %6, %"struct.std::__1::pair.412"* %1, %"struct.std::__1::pair.412"* %1, %"class.std::__1::reverse_iterator.431"* nonnull byval(%"class.std::__1::reverse_iterator.431") align 8 %8, %"class.std::__1::reverse_iterator.431"* nonnull byval(%"class.std::__1::reverse_iterator.431") align 8 %9, i64 %39)
  br label %54

40:                                               ; preds = %13, %40
  %41 = phi %"struct.std::__1::pair.412"* [ %52, %40 ], [ %6, %13 ]
  %42 = phi %"struct.std::__1::pair.412"* [ %51, %40 ], [ %1, %13 ]
  %43 = phi i64 [ %50, %40 ], [ 0, %13 ]
  %44 = bitcast %"struct.std::__1::pair.412"* %41 to i8*
  %45 = bitcast %"struct.std::__1::pair.412"* %42 to i8*
  tail call void @llvm.memcpy.p0i8.p0i8.i64(i8* align 8 %44, i8* align 8 %45, i64 24, i1 false) #12
  tail call void @llvm.memset.p0i8.i64(i8* align 8 %45, i8 0, i64 24, i1 false) #12
  %46 = getelementptr inbounds %"struct.std::__1::pair.412", %"struct.std::__1::pair.412"* %41, i64 0, i32 1
  %47 = getelementptr inbounds %"struct.std::__1::pair.412", %"struct.std::__1::pair.412"* %42, i64 0, i32 1
  %48 = bitcast %"class.std::__1::basic_string"* %46 to i8*
  %49 = bitcast %"class.std::__1::basic_string"* %47 to i8*
  tail call void @llvm.memcpy.p0i8.p0i8.i64(i8* align 8 %48, i8* align 8 %49, i64 24, i1 false) #12
  tail call void @llvm.memset.p0i8.i64(i8* align 8 %49, i8 0, i64 24, i1 false) #12
  %50 = add nuw nsw i64 %43, 1
  %51 = getelementptr inbounds %"struct.std::__1::pair.412", %"struct.std::__1::pair.412"* %42, i64 1
  %52 = getelementptr inbounds %"struct.std::__1::pair.412", %"struct.std::__1::pair.412"* %41, i64 1
  %53 = icmp eq %"struct.std::__1::pair.412"* %51, %2
  br i1 %53, label %32, label %40

54:                                               ; preds = %32, %15
  %55 = phi i64 [ %33, %32 ], [ %16, %15 ]
  %56 = icmp eq %"struct.std::__1::pair.412"* %6, null
  %57 = icmp eq i64 %55, 0
  %58 = or i1 %56, %57
  br i1 %58, label %82, label %59

59:                                               ; preds = %54, %78
  %60 = phi i64 [ %79, %78 ], [ 0, %54 ]
  %61 = phi %"struct.std::__1::pair.412"* [ %80, %78 ], [ %6, %54 ]
  %62 = getelementptr inbounds %"struct.std::__1::pair.412", %"struct.std::__1::pair.412"* %61, i64 0, i32 1
  %63 = bitcast %"class.std::__1::basic_string"* %62 to %"struct.std::__1::basic_string<char, std::__1::char_traits<char>, std::__1::allocator<char> >::__short"*
  %64 = getelementptr inbounds %"struct.std::__1::basic_string<char, std::__1::char_traits<char>, std::__1::allocator<char> >::__short", %"struct.std::__1::basic_string<char, std::__1::char_traits<char>, std::__1::allocator<char> >::__short"* %63, i64 0, i32 1, i32 0
  %65 = load i8, i8* %64, align 1
  %66 = icmp slt i8 %65, 0
  br i1 %66, label %67, label %70

67:                                               ; preds = %59
  %68 = getelementptr inbounds %"class.std::__1::basic_string", %"class.std::__1::basic_string"* %62, i64 0, i32 0, i32 0, i32 0, i32 0, i32 0, i32 0
  %69 = load i8*, i8** %68, align 8
  tail call void @_ZdlPv(i8* %69) #13
  br label %70

70:                                               ; preds = %67, %59
  %71 = bitcast %"struct.std::__1::pair.412"* %61 to %"struct.std::__1::basic_string<char, std::__1::char_traits<char>, std::__1::allocator<char> >::__short"*
  %72 = getelementptr inbounds %"struct.std::__1::basic_string<char, std::__1::char_traits<char>, std::__1::allocator<char> >::__short", %"struct.std::__1::basic_string<char, std::__1::char_traits<char>, std::__1::allocator<char> >::__short"* %71, i64 0, i32 1, i32 0
  %73 = load i8, i8* %72, align 1
  %74 = icmp slt i8 %73, 0
  br i1 %74, label %75, label %78

75:                                               ; preds = %70
  %76 = getelementptr inbounds %"struct.std::__1::pair.412", %"struct.std::__1::pair.412"* %61, i64 0, i32 0, i32 0, i32 0, i32 0, i32 0, i32 0, i32 0
  %77 = load i8*, i8** %76, align 8
  tail call void @_ZdlPv(i8* %77) #13
  br label %78

78:                                               ; preds = %75, %70
  %79 = add nuw nsw i64 %60, 1
  %80 = getelementptr inbounds %"struct.std::__1::pair.412", %"struct.std::__1::pair.412"* %61, i64 1
  %81 = icmp eq i64 %79, %55
  br i1 %81, label %82, label %59

82:                                               ; preds = %78, %54
  ret void
}

; Function Attrs: nounwind ssp uwtable
define linkonce_odr hidden void @_ZNSt3__120__half_inplace_mergeIRN4base8internal9flat_treeINS_12basic_stringIcNS_11char_traitsIcEENS_9allocatorIcEEEENS2_8GetFirstENS_4lessIvEENS_6vectorINS_4pairIS9_S9_EENS7_ISF_EEEEE13value_compareEPSF_NS_11__wrap_iterISL_EESN_EEvT0_SO_T1_SP_T2_T_(%"struct.std::__1::pair.412"*, %"struct.std::__1::pair.412"*, %"struct.std::__1::pair.412"*, %"struct.std::__1::pair.412"*, %"struct.std::__1::pair.412"*, %"struct.base::internal::flat_tree<std::__1::basic_string<char, std::__1::char_traits<char>, std::__1::allocator<char> >, base::internal::GetFirst, std::__1::less<void>, std::__1::vector<std::__1::pair<std::__1::basic_string<char, std::__1::char_traits<char>, std::__1::allocator<char> >, std::__1::basic_string<char, std::__1::char_traits<char>, std::__1::allocator<char> > >, std::__1::allocator<std::__1::pair<std::__1::basic_string<char, std::__1::char_traits<char>, std::__1::allocator<char> >, std::__1::basic_string<char, std::__1::char_traits<char>, std::__1::allocator<char> > > > > >::value_compare"* dereferenceable(1)) local_unnamed_addr #0 comdat {
  %7 = icmp eq %"struct.std::__1::pair.412"* %0, %1
  br i1 %7, label %137, label %8

8:                                                ; preds = %6, %132
  %9 = phi %"struct.std::__1::pair.412"* [ %134, %132 ], [ %0, %6 ]
  %10 = phi %"struct.std::__1::pair.412"* [ %135, %132 ], [ %4, %6 ]
  %11 = phi %"struct.std::__1::pair.412"* [ %133, %132 ], [ %2, %6 ]
  %12 = icmp eq %"struct.std::__1::pair.412"* %11, %3
  br i1 %12, label %13, label %45

13:                                               ; preds = %8, %37
  %14 = phi %"struct.std::__1::pair.412"* [ %43, %37 ], [ %10, %8 ]
  %15 = phi %"struct.std::__1::pair.412"* [ %42, %37 ], [ %9, %8 ]
  %16 = bitcast %"struct.std::__1::pair.412"* %14 to %"struct.std::__1::basic_string<char, std::__1::char_traits<char>, std::__1::allocator<char> >::__short"*
  %17 = getelementptr inbounds %"struct.std::__1::basic_string<char, std::__1::char_traits<char>, std::__1::allocator<char> >::__short", %"struct.std::__1::basic_string<char, std::__1::char_traits<char>, std::__1::allocator<char> >::__short"* %16, i64 0, i32 1, i32 0
  %18 = load i8, i8* %17, align 1
  %19 = icmp slt i8 %18, 0
  br i1 %19, label %20, label %23

20:                                               ; preds = %13
  %21 = getelementptr inbounds %"struct.std::__1::pair.412", %"struct.std::__1::pair.412"* %14, i64 0, i32 0, i32 0, i32 0, i32 0, i32 0, i32 0, i32 0
  %22 = load i8*, i8** %21, align 8
  tail call void @_ZdlPv(i8* %22) #13
  br label %23

23:                                               ; preds = %20, %13
  %24 = bitcast %"struct.std::__1::pair.412"* %14 to i8*
  %25 = bitcast %"struct.std::__1::pair.412"* %15 to i8*
  tail call void @llvm.memcpy.p0i8.p0i8.i64(i8* align 8 %24, i8* align 8 %25, i64 24, i1 false) #12
  %26 = bitcast %"struct.std::__1::pair.412"* %15 to %"struct.std::__1::basic_string<char, std::__1::char_traits<char>, std::__1::allocator<char> >::__short"*
  %27 = getelementptr inbounds %"struct.std::__1::basic_string<char, std::__1::char_traits<char>, std::__1::allocator<char> >::__short", %"struct.std::__1::basic_string<char, std::__1::char_traits<char>, std::__1::allocator<char> >::__short"* %26, i64 0, i32 1, i32 0
  store i8 0, i8* %27, align 1
  store i8 0, i8* %25, align 1
  %28 = getelementptr inbounds %"struct.std::__1::pair.412", %"struct.std::__1::pair.412"* %15, i64 0, i32 1
  %29 = getelementptr inbounds %"struct.std::__1::pair.412", %"struct.std::__1::pair.412"* %14, i64 0, i32 1
  %30 = bitcast %"class.std::__1::basic_string"* %29 to %"struct.std::__1::basic_string<char, std::__1::char_traits<char>, std::__1::allocator<char> >::__short"*
  %31 = getelementptr inbounds %"struct.std::__1::basic_string<char, std::__1::char_traits<char>, std::__1::allocator<char> >::__short", %"struct.std::__1::basic_string<char, std::__1::char_traits<char>, std::__1::allocator<char> >::__short"* %30, i64 0, i32 1, i32 0
  %32 = load i8, i8* %31, align 1
  %33 = icmp slt i8 %32, 0
  br i1 %33, label %34, label %37

34:                                               ; preds = %23
  %35 = getelementptr inbounds %"class.std::__1::basic_string", %"class.std::__1::basic_string"* %29, i64 0, i32 0, i32 0, i32 0, i32 0, i32 0, i32 0
  %36 = load i8*, i8** %35, align 8
  tail call void @_ZdlPv(i8* %36) #13
  br label %37

37:                                               ; preds = %34, %23
  %38 = bitcast %"class.std::__1::basic_string"* %29 to i8*
  %39 = bitcast %"class.std::__1::basic_string"* %28 to i8*
  tail call void @llvm.memcpy.p0i8.p0i8.i64(i8* align 8 %38, i8* align 8 %39, i64 24, i1 false) #12
  %40 = bitcast %"class.std::__1::basic_string"* %28 to %"struct.std::__1::basic_string<char, std::__1::char_traits<char>, std::__1::allocator<char> >::__short"*
  %41 = getelementptr inbounds %"struct.std::__1::basic_string<char, std::__1::char_traits<char>, std::__1::allocator<char> >::__short", %"struct.std::__1::basic_string<char, std::__1::char_traits<char>, std::__1::allocator<char> >::__short"* %40, i64 0, i32 1, i32 0
  store i8 0, i8* %41, align 1
  store i8 0, i8* %39, align 1
  %42 = getelementptr inbounds %"struct.std::__1::pair.412", %"struct.std::__1::pair.412"* %15, i64 1
  %43 = getelementptr inbounds %"struct.std::__1::pair.412", %"struct.std::__1::pair.412"* %14, i64 1
  %44 = icmp eq %"struct.std::__1::pair.412"* %42, %1
  br i1 %44, label %137, label %13

45:                                               ; preds = %8
  %46 = bitcast %"struct.std::__1::pair.412"* %9 to %"struct.std::__1::basic_string<char, std::__1::char_traits<char>, std::__1::allocator<char> >::__short"*
  %47 = getelementptr inbounds %"struct.std::__1::basic_string<char, std::__1::char_traits<char>, std::__1::allocator<char> >::__short", %"struct.std::__1::basic_string<char, std::__1::char_traits<char>, std::__1::allocator<char> >::__short"* %46, i64 0, i32 1, i32 0
  %48 = load i8, i8* %47, align 1
  %49 = icmp slt i8 %48, 0
  %50 = getelementptr inbounds %"struct.std::__1::pair.412", %"struct.std::__1::pair.412"* %9, i64 0, i32 0, i32 0, i32 0, i32 0, i32 0, i32 0, i32 1
  %51 = load i64, i64* %50, align 8
  %52 = zext i8 %48 to i64
  %53 = select i1 %49, i64 %51, i64 %52
  %54 = bitcast %"struct.std::__1::pair.412"* %11 to %"struct.std::__1::basic_string<char, std::__1::char_traits<char>, std::__1::allocator<char> >::__short"*
  %55 = getelementptr inbounds %"struct.std::__1::basic_string<char, std::__1::char_traits<char>, std::__1::allocator<char> >::__short", %"struct.std::__1::basic_string<char, std::__1::char_traits<char>, std::__1::allocator<char> >::__short"* %54, i64 0, i32 1, i32 0
  %56 = load i8, i8* %55, align 1
  %57 = icmp slt i8 %56, 0
  %58 = getelementptr inbounds %"struct.std::__1::pair.412", %"struct.std::__1::pair.412"* %11, i64 0, i32 0, i32 0, i32 0, i32 0, i32 0, i32 0, i32 1
  %59 = load i64, i64* %58, align 8
  %60 = zext i8 %56 to i64
  %61 = select i1 %57, i64 %59, i64 %60
  %62 = icmp ult i64 %53, %61
  %63 = select i1 %62, i64 %53, i64 %61
  %64 = icmp eq i64 %63, 0
  br i1 %64, label %76, label %65

65:                                               ; preds = %45
  %66 = getelementptr inbounds %"struct.std::__1::pair.412", %"struct.std::__1::pair.412"* %11, i64 0, i32 0, i32 0, i32 0, i32 0, i32 0, i32 0, i32 0
  %67 = load i8*, i8** %66, align 8
  %68 = bitcast %"struct.std::__1::pair.412"* %11 to i8*
  %69 = select i1 %57, i8* %67, i8* %68
  %70 = getelementptr inbounds %"struct.std::__1::pair.412", %"struct.std::__1::pair.412"* %9, i64 0, i32 0, i32 0, i32 0, i32 0, i32 0, i32 0, i32 0
  %71 = load i8*, i8** %70, align 8
  %72 = bitcast %"struct.std::__1::pair.412"* %9 to i8*
  %73 = select i1 %49, i8* %71, i8* %72
  %74 = tail call i32 @memcmp(i8* %69, i8* %73, i64 %63) #12
  %75 = icmp eq i32 %74, 0
  br i1 %75, label %76, label %78

76:                                               ; preds = %65, %45
  %77 = icmp ult i64 %61, %53
  br i1 %77, label %80, label %106

78:                                               ; preds = %65
  %79 = icmp slt i32 %74, 0
  br i1 %79, label %80, label %106

80:                                               ; preds = %76, %78
  %81 = bitcast %"struct.std::__1::pair.412"* %10 to %"struct.std::__1::basic_string<char, std::__1::char_traits<char>, std::__1::allocator<char> >::__short"*
  %82 = getelementptr inbounds %"struct.std::__1::basic_string<char, std::__1::char_traits<char>, std::__1::allocator<char> >::__short", %"struct.std::__1::basic_string<char, std::__1::char_traits<char>, std::__1::allocator<char> >::__short"* %81, i64 0, i32 1, i32 0
  %83 = load i8, i8* %82, align 1
  %84 = icmp slt i8 %83, 0
  br i1 %84, label %85, label %88

85:                                               ; preds = %80
  %86 = getelementptr inbounds %"struct.std::__1::pair.412", %"struct.std::__1::pair.412"* %10, i64 0, i32 0, i32 0, i32 0, i32 0, i32 0, i32 0, i32 0
  %87 = load i8*, i8** %86, align 8
  tail call void @_ZdlPv(i8* %87) #13
  br label %88

88:                                               ; preds = %85, %80
  %89 = bitcast %"struct.std::__1::pair.412"* %10 to i8*
  %90 = bitcast %"struct.std::__1::pair.412"* %11 to i8*
  tail call void @llvm.memcpy.p0i8.p0i8.i64(i8* align 8 %89, i8* align 8 %90, i64 24, i1 false) #12
  store i8 0, i8* %55, align 1
  store i8 0, i8* %90, align 1
  %91 = getelementptr inbounds %"struct.std::__1::pair.412", %"struct.std::__1::pair.412"* %11, i64 0, i32 1
  %92 = getelementptr inbounds %"struct.std::__1::pair.412", %"struct.std::__1::pair.412"* %10, i64 0, i32 1
  %93 = bitcast %"class.std::__1::basic_string"* %92 to %"struct.std::__1::basic_string<char, std::__1::char_traits<char>, std::__1::allocator<char> >::__short"*
  %94 = getelementptr inbounds %"struct.std::__1::basic_string<char, std::__1::char_traits<char>, std::__1::allocator<char> >::__short", %"struct.std::__1::basic_string<char, std::__1::char_traits<char>, std::__1::allocator<char> >::__short"* %93, i64 0, i32 1, i32 0
  %95 = load i8, i8* %94, align 1
  %96 = icmp slt i8 %95, 0
  br i1 %96, label %97, label %100

97:                                               ; preds = %88
  %98 = getelementptr inbounds %"class.std::__1::basic_string", %"class.std::__1::basic_string"* %92, i64 0, i32 0, i32 0, i32 0, i32 0, i32 0, i32 0
  %99 = load i8*, i8** %98, align 8
  tail call void @_ZdlPv(i8* %99) #13
  br label %100

100:                                              ; preds = %88, %97
  %101 = bitcast %"class.std::__1::basic_string"* %92 to i8*
  %102 = bitcast %"class.std::__1::basic_string"* %91 to i8*
  tail call void @llvm.memcpy.p0i8.p0i8.i64(i8* align 8 %101, i8* align 8 %102, i64 24, i1 false) #12
  %103 = bitcast %"class.std::__1::basic_string"* %91 to %"struct.std::__1::basic_string<char, std::__1::char_traits<char>, std::__1::allocator<char> >::__short"*
  %104 = getelementptr inbounds %"struct.std::__1::basic_string<char, std::__1::char_traits<char>, std::__1::allocator<char> >::__short", %"struct.std::__1::basic_string<char, std::__1::char_traits<char>, std::__1::allocator<char> >::__short"* %103, i64 0, i32 1, i32 0
  store i8 0, i8* %104, align 1
  store i8 0, i8* %102, align 1
  %105 = getelementptr inbounds %"struct.std::__1::pair.412", %"struct.std::__1::pair.412"* %11, i64 1
  br label %132

106:                                              ; preds = %76, %78
  %107 = bitcast %"struct.std::__1::pair.412"* %10 to %"struct.std::__1::basic_string<char, std::__1::char_traits<char>, std::__1::allocator<char> >::__short"*
  %108 = getelementptr inbounds %"struct.std::__1::basic_string<char, std::__1::char_traits<char>, std::__1::allocator<char> >::__short", %"struct.std::__1::basic_string<char, std::__1::char_traits<char>, std::__1::allocator<char> >::__short"* %107, i64 0, i32 1, i32 0
  %109 = load i8, i8* %108, align 1
  %110 = icmp slt i8 %109, 0
  br i1 %110, label %111, label %114

111:                                              ; preds = %106
  %112 = getelementptr inbounds %"struct.std::__1::pair.412", %"struct.std::__1::pair.412"* %10, i64 0, i32 0, i32 0, i32 0, i32 0, i32 0, i32 0, i32 0
  %113 = load i8*, i8** %112, align 8
  tail call void @_ZdlPv(i8* %113) #13
  br label %114

114:                                              ; preds = %111, %106
  %115 = bitcast %"struct.std::__1::pair.412"* %10 to i8*
  %116 = bitcast %"struct.std::__1::pair.412"* %9 to i8*
  tail call void @llvm.memcpy.p0i8.p0i8.i64(i8* align 8 %115, i8* align 8 %116, i64 24, i1 false) #12
  store i8 0, i8* %47, align 1
  store i8 0, i8* %116, align 1
  %117 = getelementptr inbounds %"struct.std::__1::pair.412", %"struct.std::__1::pair.412"* %9, i64 0, i32 1
  %118 = getelementptr inbounds %"struct.std::__1::pair.412", %"struct.std::__1::pair.412"* %10, i64 0, i32 1
  %119 = bitcast %"class.std::__1::basic_string"* %118 to %"struct.std::__1::basic_string<char, std::__1::char_traits<char>, std::__1::allocator<char> >::__short"*
  %120 = getelementptr inbounds %"struct.std::__1::basic_string<char, std::__1::char_traits<char>, std::__1::allocator<char> >::__short", %"struct.std::__1::basic_string<char, std::__1::char_traits<char>, std::__1::allocator<char> >::__short"* %119, i64 0, i32 1, i32 0
  %121 = load i8, i8* %120, align 1
  %122 = icmp slt i8 %121, 0
  br i1 %122, label %123, label %126

123:                                              ; preds = %114
  %124 = getelementptr inbounds %"class.std::__1::basic_string", %"class.std::__1::basic_string"* %118, i64 0, i32 0, i32 0, i32 0, i32 0, i32 0, i32 0
  %125 = load i8*, i8** %124, align 8
  tail call void @_ZdlPv(i8* %125) #13
  br label %126

126:                                              ; preds = %114, %123
  %127 = bitcast %"class.std::__1::basic_string"* %118 to i8*
  %128 = bitcast %"class.std::__1::basic_string"* %117 to i8*
  tail call void @llvm.memcpy.p0i8.p0i8.i64(i8* align 8 %127, i8* align 8 %128, i64 24, i1 false) #12
  %129 = bitcast %"class.std::__1::basic_string"* %117 to %"struct.std::__1::basic_string<char, std::__1::char_traits<char>, std::__1::allocator<char> >::__short"*
  %130 = getelementptr inbounds %"struct.std::__1::basic_string<char, std::__1::char_traits<char>, std::__1::allocator<char> >::__short", %"struct.std::__1::basic_string<char, std::__1::char_traits<char>, std::__1::allocator<char> >::__short"* %129, i64 0, i32 1, i32 0
  store i8 0, i8* %130, align 1
  store i8 0, i8* %128, align 1
  %131 = getelementptr inbounds %"struct.std::__1::pair.412", %"struct.std::__1::pair.412"* %9, i64 1
  br label %132

132:                                              ; preds = %100, %126
  %133 = phi %"struct.std::__1::pair.412"* [ %105, %100 ], [ %11, %126 ]
  %134 = phi %"struct.std::__1::pair.412"* [ %9, %100 ], [ %131, %126 ]
  %135 = getelementptr inbounds %"struct.std::__1::pair.412", %"struct.std::__1::pair.412"* %10, i64 1
  %136 = icmp eq %"struct.std::__1::pair.412"* %134, %1
  br i1 %136, label %137, label %8

137:                                              ; preds = %132, %37, %6
  ret void
}

; Function Attrs: nounwind ssp uwtable
define linkonce_odr hidden void @_ZNSt3__120__half_inplace_mergeINS_8__invertIRN4base8internal9flat_treeINS_12basic_stringIcNS_11char_traitsIcEENS_9allocatorIcEEEENS3_8GetFirstENS_4lessIvEENS_6vectorINS_4pairISA_SA_EENS8_ISG_EEEEE13value_compareEEENS_16reverse_iteratorIPSG_EENSN_INS_11__wrap_iterISO_EEEESS_EEvT0_ST_T1_SU_T2_T_(%"struct.std::__1::pair.412"*, %"struct.std::__1::pair.412"*, %"struct.std::__1::pair.412"*, %"struct.std::__1::pair.412"*, %"struct.std::__1::pair.412"*, %"struct.std::__1::pair.412"*, %"class.std::__1::reverse_iterator.431"* byval(%"class.std::__1::reverse_iterator.431") align 8, %"class.std::__1::reverse_iterator.431"* byval(%"class.std::__1::reverse_iterator.431") align 8, i64) local_unnamed_addr #0 comdat {
  %10 = icmp eq %"struct.std::__1::pair.412"* %1, %3
  br i1 %10, label %150, label %11

11:                                               ; preds = %9
  %12 = getelementptr inbounds %"class.std::__1::reverse_iterator.431", %"class.std::__1::reverse_iterator.431"* %6, i64 0, i32 1, i32 0
  %13 = getelementptr inbounds %"class.std::__1::reverse_iterator.431", %"class.std::__1::reverse_iterator.431"* %7, i64 0, i32 1, i32 0
  br label %14

14:                                               ; preds = %11, %140
  %15 = phi %"struct.std::__1::pair.412"* [ %1, %11 ], [ %144, %140 ]
  %16 = phi %"struct.std::__1::pair.412"* [ %5, %11 ], [ %143, %140 ]
  %17 = load %"struct.std::__1::pair.412"*, %"struct.std::__1::pair.412"** %12, align 8
  %18 = icmp eq %"struct.std::__1::pair.412"* %16, %17
  br i1 %18, label %19, label %53

19:                                               ; preds = %14
  %20 = load %"struct.std::__1::pair.412"*, %"struct.std::__1::pair.412"** %13, align 8
  br label %21

21:                                               ; preds = %19, %47
  %22 = phi %"struct.std::__1::pair.412"* [ %24, %47 ], [ %15, %19 ]
  %23 = phi %"struct.std::__1::pair.412"* [ %25, %47 ], [ %20, %19 ]
  %24 = getelementptr inbounds %"struct.std::__1::pair.412", %"struct.std::__1::pair.412"* %22, i64 -1
  %25 = getelementptr inbounds %"struct.std::__1::pair.412", %"struct.std::__1::pair.412"* %23, i64 -1
  %26 = bitcast %"struct.std::__1::pair.412"* %25 to %"struct.std::__1::basic_string<char, std::__1::char_traits<char>, std::__1::allocator<char> >::__short"*
  %27 = getelementptr inbounds %"struct.std::__1::basic_string<char, std::__1::char_traits<char>, std::__1::allocator<char> >::__short", %"struct.std::__1::basic_string<char, std::__1::char_traits<char>, std::__1::allocator<char> >::__short"* %26, i64 0, i32 1, i32 0
  %28 = load i8, i8* %27, align 1
  %29 = icmp slt i8 %28, 0
  br i1 %29, label %30, label %33

30:                                               ; preds = %21
  %31 = getelementptr inbounds %"struct.std::__1::pair.412", %"struct.std::__1::pair.412"* %25, i64 0, i32 0, i32 0, i32 0, i32 0, i32 0, i32 0, i32 0
  %32 = load i8*, i8** %31, align 8
  tail call void @_ZdlPv(i8* %32) #13
  br label %33

33:                                               ; preds = %30, %21
  %34 = bitcast %"struct.std::__1::pair.412"* %25 to i8*
  %35 = bitcast %"struct.std::__1::pair.412"* %24 to i8*
  tail call void @llvm.memcpy.p0i8.p0i8.i64(i8* align 8 %34, i8* align 8 %35, i64 24, i1 false) #12
  %36 = bitcast %"struct.std::__1::pair.412"* %24 to %"struct.std::__1::basic_string<char, std::__1::char_traits<char>, std::__1::allocator<char> >::__short"*
  %37 = getelementptr inbounds %"struct.std::__1::basic_string<char, std::__1::char_traits<char>, std::__1::allocator<char> >::__short", %"struct.std::__1::basic_string<char, std::__1::char_traits<char>, std::__1::allocator<char> >::__short"* %36, i64 0, i32 1, i32 0
  store i8 0, i8* %37, align 1
  store i8 0, i8* %35, align 1
  %38 = getelementptr inbounds %"struct.std::__1::pair.412", %"struct.std::__1::pair.412"* %22, i64 -1, i32 1
  %39 = getelementptr inbounds %"struct.std::__1::pair.412", %"struct.std::__1::pair.412"* %23, i64 -1, i32 1
  %40 = bitcast %"class.std::__1::basic_string"* %39 to %"struct.std::__1::basic_string<char, std::__1::char_traits<char>, std::__1::allocator<char> >::__short"*
  %41 = getelementptr inbounds %"struct.std::__1::basic_string<char, std::__1::char_traits<char>, std::__1::allocator<char> >::__short", %"struct.std::__1::basic_string<char, std::__1::char_traits<char>, std::__1::allocator<char> >::__short"* %40, i64 0, i32 1, i32 0
  %42 = load i8, i8* %41, align 1
  %43 = icmp slt i8 %42, 0
  br i1 %43, label %44, label %47

44:                                               ; preds = %33
  %45 = getelementptr inbounds %"class.std::__1::basic_string", %"class.std::__1::basic_string"* %39, i64 0, i32 0, i32 0, i32 0, i32 0, i32 0, i32 0
  %46 = load i8*, i8** %45, align 8
  tail call void @_ZdlPv(i8* %46) #13
  br label %47

47:                                               ; preds = %44, %33
  %48 = bitcast %"class.std::__1::basic_string"* %39 to i8*
  %49 = bitcast %"class.std::__1::basic_string"* %38 to i8*
  tail call void @llvm.memcpy.p0i8.p0i8.i64(i8* align 8 %48, i8* align 8 %49, i64 24, i1 false) #12
  %50 = bitcast %"class.std::__1::basic_string"* %38 to %"struct.std::__1::basic_string<char, std::__1::char_traits<char>, std::__1::allocator<char> >::__short"*
  %51 = getelementptr inbounds %"struct.std::__1::basic_string<char, std::__1::char_traits<char>, std::__1::allocator<char> >::__short", %"struct.std::__1::basic_string<char, std::__1::char_traits<char>, std::__1::allocator<char> >::__short"* %50, i64 0, i32 1, i32 0
  store i8 0, i8* %51, align 1
  store i8 0, i8* %49, align 1
  %52 = icmp eq %"struct.std::__1::pair.412"* %24, %3
  br i1 %52, label %150, label %21

53:                                               ; preds = %14
  %54 = getelementptr inbounds %"struct.std::__1::pair.412", %"struct.std::__1::pair.412"* %16, i64 -1
  %55 = getelementptr inbounds %"struct.std::__1::pair.412", %"struct.std::__1::pair.412"* %15, i64 -1
  %56 = bitcast %"struct.std::__1::pair.412"* %54 to %"struct.std::__1::basic_string<char, std::__1::char_traits<char>, std::__1::allocator<char> >::__short"*
  %57 = getelementptr inbounds %"struct.std::__1::basic_string<char, std::__1::char_traits<char>, std::__1::allocator<char> >::__short", %"struct.std::__1::basic_string<char, std::__1::char_traits<char>, std::__1::allocator<char> >::__short"* %56, i64 0, i32 1, i32 0
  %58 = load i8, i8* %57, align 1
  %59 = icmp slt i8 %58, 0
  %60 = getelementptr inbounds %"struct.std::__1::pair.412", %"struct.std::__1::pair.412"* %16, i64 -1, i32 0, i32 0, i32 0, i32 0, i32 0, i32 0, i32 1
  %61 = load i64, i64* %60, align 8
  %62 = zext i8 %58 to i64
  %63 = select i1 %59, i64 %61, i64 %62
  %64 = bitcast %"struct.std::__1::pair.412"* %55 to %"struct.std::__1::basic_string<char, std::__1::char_traits<char>, std::__1::allocator<char> >::__short"*
  %65 = getelementptr inbounds %"struct.std::__1::basic_string<char, std::__1::char_traits<char>, std::__1::allocator<char> >::__short", %"struct.std::__1::basic_string<char, std::__1::char_traits<char>, std::__1::allocator<char> >::__short"* %64, i64 0, i32 1, i32 0
  %66 = load i8, i8* %65, align 1
  %67 = icmp slt i8 %66, 0
  %68 = getelementptr inbounds %"struct.std::__1::pair.412", %"struct.std::__1::pair.412"* %15, i64 -1, i32 0, i32 0, i32 0, i32 0, i32 0, i32 0, i32 1
  %69 = load i64, i64* %68, align 8
  %70 = zext i8 %66 to i64
  %71 = select i1 %67, i64 %69, i64 %70
  %72 = icmp ult i64 %63, %71
  %73 = select i1 %72, i64 %63, i64 %71
  %74 = icmp eq i64 %73, 0
  br i1 %74, label %86, label %75

75:                                               ; preds = %53
  %76 = getelementptr inbounds %"struct.std::__1::pair.412", %"struct.std::__1::pair.412"* %55, i64 0, i32 0, i32 0, i32 0, i32 0, i32 0, i32 0, i32 0
  %77 = load i8*, i8** %76, align 8
  %78 = bitcast %"struct.std::__1::pair.412"* %55 to i8*
  %79 = select i1 %67, i8* %77, i8* %78
  %80 = getelementptr inbounds %"struct.std::__1::pair.412", %"struct.std::__1::pair.412"* %54, i64 0, i32 0, i32 0, i32 0, i32 0, i32 0, i32 0, i32 0
  %81 = load i8*, i8** %80, align 8
  %82 = bitcast %"struct.std::__1::pair.412"* %54 to i8*
  %83 = select i1 %59, i8* %81, i8* %82
  %84 = tail call i32 @memcmp(i8* %79, i8* %83, i64 %73) #12
  %85 = icmp eq i32 %84, 0
  br i1 %85, label %86, label %88

86:                                               ; preds = %75, %53
  %87 = icmp ult i64 %71, %63
  br i1 %87, label %90, label %115

88:                                               ; preds = %75
  %89 = icmp slt i32 %84, 0
  br i1 %89, label %90, label %115

90:                                               ; preds = %86, %88
  %91 = load %"struct.std::__1::pair.412"*, %"struct.std::__1::pair.412"** %13, align 8
  %92 = getelementptr inbounds %"struct.std::__1::pair.412", %"struct.std::__1::pair.412"* %91, i64 -1
  %93 = bitcast %"struct.std::__1::pair.412"* %92 to %"struct.std::__1::basic_string<char, std::__1::char_traits<char>, std::__1::allocator<char> >::__short"*
  %94 = getelementptr inbounds %"struct.std::__1::basic_string<char, std::__1::char_traits<char>, std::__1::allocator<char> >::__short", %"struct.std::__1::basic_string<char, std::__1::char_traits<char>, std::__1::allocator<char> >::__short"* %93, i64 0, i32 1, i32 0
  %95 = load i8, i8* %94, align 1
  %96 = icmp slt i8 %95, 0
  br i1 %96, label %97, label %100

97:                                               ; preds = %90
  %98 = getelementptr inbounds %"struct.std::__1::pair.412", %"struct.std::__1::pair.412"* %92, i64 0, i32 0, i32 0, i32 0, i32 0, i32 0, i32 0, i32 0
  %99 = load i8*, i8** %98, align 8
  tail call void @_ZdlPv(i8* %99) #13
  br label %100

100:                                              ; preds = %97, %90
  %101 = bitcast %"struct.std::__1::pair.412"* %92 to i8*
  %102 = bitcast %"struct.std::__1::pair.412"* %54 to i8*
  tail call void @llvm.memcpy.p0i8.p0i8.i64(i8* align 8 %101, i8* align 8 %102, i64 24, i1 false) #12
  store i8 0, i8* %57, align 1
  store i8 0, i8* %102, align 1
  %103 = getelementptr inbounds %"struct.std::__1::pair.412", %"struct.std::__1::pair.412"* %16, i64 -1, i32 1
  %104 = getelementptr inbounds %"struct.std::__1::pair.412", %"struct.std::__1::pair.412"* %91, i64 -1, i32 1
  %105 = bitcast %"class.std::__1::basic_string"* %104 to %"struct.std::__1::basic_string<char, std::__1::char_traits<char>, std::__1::allocator<char> >::__short"*
  %106 = getelementptr inbounds %"struct.std::__1::basic_string<char, std::__1::char_traits<char>, std::__1::allocator<char> >::__short", %"struct.std::__1::basic_string<char, std::__1::char_traits<char>, std::__1::allocator<char> >::__short"* %105, i64 0, i32 1, i32 0
  %107 = load i8, i8* %106, align 1
  %108 = icmp slt i8 %107, 0
  br i1 %108, label %109, label %112

109:                                              ; preds = %100
  %110 = getelementptr inbounds %"class.std::__1::basic_string", %"class.std::__1::basic_string"* %104, i64 0, i32 0, i32 0, i32 0, i32 0, i32 0, i32 0
  %111 = load i8*, i8** %110, align 8
  tail call void @_ZdlPv(i8* %111) #13
  br label %112

112:                                              ; preds = %100, %109
  %113 = bitcast %"class.std::__1::basic_string"* %104 to i8*
  %114 = bitcast %"class.std::__1::basic_string"* %103 to i8*
  tail call void @llvm.memcpy.p0i8.p0i8.i64(i8* align 8 %113, i8* align 8 %114, i64 24, i1 false) #12
  br label %140

115:                                              ; preds = %86, %88
  %116 = load %"struct.std::__1::pair.412"*, %"struct.std::__1::pair.412"** %13, align 8
  %117 = getelementptr inbounds %"struct.std::__1::pair.412", %"struct.std::__1::pair.412"* %116, i64 -1
  %118 = bitcast %"struct.std::__1::pair.412"* %117 to %"struct.std::__1::basic_string<char, std::__1::char_traits<char>, std::__1::allocator<char> >::__short"*
  %119 = getelementptr inbounds %"struct.std::__1::basic_string<char, std::__1::char_traits<char>, std::__1::allocator<char> >::__short", %"struct.std::__1::basic_string<char, std::__1::char_traits<char>, std::__1::allocator<char> >::__short"* %118, i64 0, i32 1, i32 0
  %120 = load i8, i8* %119, align 1
  %121 = icmp slt i8 %120, 0
  br i1 %121, label %122, label %125

122:                                              ; preds = %115
  %123 = getelementptr inbounds %"struct.std::__1::pair.412", %"struct.std::__1::pair.412"* %117, i64 0, i32 0, i32 0, i32 0, i32 0, i32 0, i32 0, i32 0
  %124 = load i8*, i8** %123, align 8
  tail call void @_ZdlPv(i8* %124) #13
  br label %125

125:                                              ; preds = %122, %115
  %126 = bitcast %"struct.std::__1::pair.412"* %117 to i8*
  %127 = bitcast %"struct.std::__1::pair.412"* %55 to i8*
  tail call void @llvm.memcpy.p0i8.p0i8.i64(i8* align 8 %126, i8* align 8 %127, i64 24, i1 false) #12
  store i8 0, i8* %65, align 1
  store i8 0, i8* %127, align 1
  %128 = getelementptr inbounds %"struct.std::__1::pair.412", %"struct.std::__1::pair.412"* %15, i64 -1, i32 1
  %129 = getelementptr inbounds %"struct.std::__1::pair.412", %"struct.std::__1::pair.412"* %116, i64 -1, i32 1
  %130 = bitcast %"class.std::__1::basic_string"* %129 to %"struct.std::__1::basic_string<char, std::__1::char_traits<char>, std::__1::allocator<char> >::__short"*
  %131 = getelementptr inbounds %"struct.std::__1::basic_string<char, std::__1::char_traits<char>, std::__1::allocator<char> >::__short", %"struct.std::__1::basic_string<char, std::__1::char_traits<char>, std::__1::allocator<char> >::__short"* %130, i64 0, i32 1, i32 0
  %132 = load i8, i8* %131, align 1
  %133 = icmp slt i8 %132, 0
  br i1 %133, label %134, label %137

134:                                              ; preds = %125
  %135 = getelementptr inbounds %"class.std::__1::basic_string", %"class.std::__1::basic_string"* %129, i64 0, i32 0, i32 0, i32 0, i32 0, i32 0, i32 0
  %136 = load i8*, i8** %135, align 8
  tail call void @_ZdlPv(i8* %136) #13
  br label %137

137:                                              ; preds = %125, %134
  %138 = bitcast %"class.std::__1::basic_string"* %129 to i8*
  %139 = bitcast %"class.std::__1::basic_string"* %128 to i8*
  tail call void @llvm.memcpy.p0i8.p0i8.i64(i8* align 8 %138, i8* align 8 %139, i64 24, i1 false) #12
  br label %140

140:                                              ; preds = %112, %137
  %141 = phi %"class.std::__1::basic_string"* [ %103, %112 ], [ %128, %137 ]
  %142 = phi i8* [ %114, %112 ], [ %139, %137 ]
  %143 = phi %"struct.std::__1::pair.412"* [ %54, %112 ], [ %16, %137 ]
  %144 = phi %"struct.std::__1::pair.412"* [ %15, %112 ], [ %55, %137 ]
  %145 = bitcast %"class.std::__1::basic_string"* %141 to %"struct.std::__1::basic_string<char, std::__1::char_traits<char>, std::__1::allocator<char> >::__short"*
  %146 = getelementptr inbounds %"struct.std::__1::basic_string<char, std::__1::char_traits<char>, std::__1::allocator<char> >::__short", %"struct.std::__1::basic_string<char, std::__1::char_traits<char>, std::__1::allocator<char> >::__short"* %145, i64 0, i32 1, i32 0
  store i8 0, i8* %146, align 1
  store i8 0, i8* %142, align 1
  %147 = load %"struct.std::__1::pair.412"*, %"struct.std::__1::pair.412"** %13, align 8
  %148 = getelementptr inbounds %"struct.std::__1::pair.412", %"struct.std::__1::pair.412"* %147, i64 -1
  store %"struct.std::__1::pair.412"* %148, %"struct.std::__1::pair.412"** %13, align 8
  %149 = icmp eq %"struct.std::__1::pair.412"* %144, %3
  br i1 %149, label %150, label %14

150:                                              ; preds = %140, %47, %9
  ret void
}

; Function Attrs: nounwind ssp uwtable
define linkonce_odr hidden %"struct.std::__1::pair.412"* @_ZNSt3__16vectorINS_4pairINS_12basic_stringIcNS_11char_traitsIcEENS_9allocatorIcEEEES7_EENS5_IS8_EEE5eraseENS_11__wrap_iterIPKS8_EESE_(%"class.std::__1::vector.410"*, %"struct.std::__1::pair.412"*, %"struct.std::__1::pair.412"*) local_unnamed_addr #0 comdat align 2 {
  %4 = icmp eq %"struct.std::__1::pair.412"* %1, %2
  br i1 %4, label %69, label %5

5:                                                ; preds = %3
  %6 = getelementptr inbounds %"class.std::__1::vector.410", %"class.std::__1::vector.410"* %0, i64 0, i32 0, i32 1
  %7 = load %"struct.std::__1::pair.412"*, %"struct.std::__1::pair.412"** %6, align 8
  %8 = icmp eq %"struct.std::__1::pair.412"* %7, %2
  br i1 %8, label %43, label %9

9:                                                ; preds = %5, %33
  %10 = phi %"struct.std::__1::pair.412"* [ %39, %33 ], [ %1, %5 ]
  %11 = phi %"struct.std::__1::pair.412"* [ %38, %33 ], [ %2, %5 ]
  %12 = bitcast %"struct.std::__1::pair.412"* %10 to %"struct.std::__1::basic_string<char, std::__1::char_traits<char>, std::__1::allocator<char> >::__short"*
  %13 = getelementptr inbounds %"struct.std::__1::basic_string<char, std::__1::char_traits<char>, std::__1::allocator<char> >::__short", %"struct.std::__1::basic_string<char, std::__1::char_traits<char>, std::__1::allocator<char> >::__short"* %12, i64 0, i32 1, i32 0
  %14 = load i8, i8* %13, align 1
  %15 = icmp slt i8 %14, 0
  br i1 %15, label %16, label %19

16:                                               ; preds = %9
  %17 = getelementptr inbounds %"struct.std::__1::pair.412", %"struct.std::__1::pair.412"* %10, i64 0, i32 0, i32 0, i32 0, i32 0, i32 0, i32 0, i32 0
  %18 = load i8*, i8** %17, align 8
  tail call void @_ZdlPv(i8* %18) #13
  br label %19

19:                                               ; preds = %16, %9
  %20 = bitcast %"struct.std::__1::pair.412"* %10 to i8*
  %21 = bitcast %"struct.std::__1::pair.412"* %11 to i8*
  tail call void @llvm.memcpy.p0i8.p0i8.i64(i8* align 8 %20, i8* align 8 %21, i64 24, i1 false) #12
  %22 = bitcast %"struct.std::__1::pair.412"* %11 to %"struct.std::__1::basic_string<char, std::__1::char_traits<char>, std::__1::allocator<char> >::__short"*
  %23 = getelementptr inbounds %"struct.std::__1::basic_string<char, std::__1::char_traits<char>, std::__1::allocator<char> >::__short", %"struct.std::__1::basic_string<char, std::__1::char_traits<char>, std::__1::allocator<char> >::__short"* %22, i64 0, i32 1, i32 0
  store i8 0, i8* %23, align 1
  store i8 0, i8* %21, align 1
  %24 = getelementptr inbounds %"struct.std::__1::pair.412", %"struct.std::__1::pair.412"* %11, i64 0, i32 1
  %25 = getelementptr inbounds %"struct.std::__1::pair.412", %"struct.std::__1::pair.412"* %10, i64 0, i32 1
  %26 = bitcast %"class.std::__1::basic_string"* %25 to %"struct.std::__1::basic_string<char, std::__1::char_traits<char>, std::__1::allocator<char> >::__short"*
  %27 = getelementptr inbounds %"struct.std::__1::basic_string<char, std::__1::char_traits<char>, std::__1::allocator<char> >::__short", %"struct.std::__1::basic_string<char, std::__1::char_traits<char>, std::__1::allocator<char> >::__short"* %26, i64 0, i32 1, i32 0
  %28 = load i8, i8* %27, align 1
  %29 = icmp slt i8 %28, 0
  br i1 %29, label %30, label %33

30:                                               ; preds = %19
  %31 = getelementptr inbounds %"class.std::__1::basic_string", %"class.std::__1::basic_string"* %25, i64 0, i32 0, i32 0, i32 0, i32 0, i32 0, i32 0
  %32 = load i8*, i8** %31, align 8
  tail call void @_ZdlPv(i8* %32) #13
  br label %33

33:                                               ; preds = %30, %19
  %34 = bitcast %"class.std::__1::basic_string"* %25 to i8*
  %35 = bitcast %"class.std::__1::basic_string"* %24 to i8*
  tail call void @llvm.memcpy.p0i8.p0i8.i64(i8* align 8 %34, i8* align 8 %35, i64 24, i1 false) #12
  %36 = bitcast %"class.std::__1::basic_string"* %24 to %"struct.std::__1::basic_string<char, std::__1::char_traits<char>, std::__1::allocator<char> >::__short"*
  %37 = getelementptr inbounds %"struct.std::__1::basic_string<char, std::__1::char_traits<char>, std::__1::allocator<char> >::__short", %"struct.std::__1::basic_string<char, std::__1::char_traits<char>, std::__1::allocator<char> >::__short"* %36, i64 0, i32 1, i32 0
  store i8 0, i8* %37, align 1
  store i8 0, i8* %35, align 1
  %38 = getelementptr inbounds %"struct.std::__1::pair.412", %"struct.std::__1::pair.412"* %11, i64 1
  %39 = getelementptr inbounds %"struct.std::__1::pair.412", %"struct.std::__1::pair.412"* %10, i64 1
  %40 = icmp eq %"struct.std::__1::pair.412"* %38, %7
  br i1 %40, label %41, label %9

41:                                               ; preds = %33
  %42 = load %"struct.std::__1::pair.412"*, %"struct.std::__1::pair.412"** %6, align 8
  br label %43

43:                                               ; preds = %41, %5
  %44 = phi %"struct.std::__1::pair.412"* [ %2, %5 ], [ %42, %41 ]
  %45 = phi %"struct.std::__1::pair.412"* [ %1, %5 ], [ %39, %41 ]
  %46 = icmp eq %"struct.std::__1::pair.412"* %44, %45
  br i1 %46, label %68, label %47

47:                                               ; preds = %43, %66
  %48 = phi %"struct.std::__1::pair.412"* [ %49, %66 ], [ %44, %43 ]
  %49 = getelementptr inbounds %"struct.std::__1::pair.412", %"struct.std::__1::pair.412"* %48, i64 -1
  %50 = getelementptr inbounds %"struct.std::__1::pair.412", %"struct.std::__1::pair.412"* %48, i64 -1, i32 1
  %51 = bitcast %"class.std::__1::basic_string"* %50 to %"struct.std::__1::basic_string<char, std::__1::char_traits<char>, std::__1::allocator<char> >::__short"*
  %52 = getelementptr inbounds %"struct.std::__1::basic_string<char, std::__1::char_traits<char>, std::__1::allocator<char> >::__short", %"struct.std::__1::basic_string<char, std::__1::char_traits<char>, std::__1::allocator<char> >::__short"* %51, i64 0, i32 1, i32 0
  %53 = load i8, i8* %52, align 1
  %54 = icmp slt i8 %53, 0
  br i1 %54, label %55, label %58

55:                                               ; preds = %47
  %56 = getelementptr inbounds %"class.std::__1::basic_string", %"class.std::__1::basic_string"* %50, i64 0, i32 0, i32 0, i32 0, i32 0, i32 0, i32 0
  %57 = load i8*, i8** %56, align 8
  tail call void @_ZdlPv(i8* %57) #13
  br label %58

58:                                               ; preds = %55, %47
  %59 = bitcast %"struct.std::__1::pair.412"* %49 to %"struct.std::__1::basic_string<char, std::__1::char_traits<char>, std::__1::allocator<char> >::__short"*
  %60 = getelementptr inbounds %"struct.std::__1::basic_string<char, std::__1::char_traits<char>, std::__1::allocator<char> >::__short", %"struct.std::__1::basic_string<char, std::__1::char_traits<char>, std::__1::allocator<char> >::__short"* %59, i64 0, i32 1, i32 0
  %61 = load i8, i8* %60, align 1
  %62 = icmp slt i8 %61, 0
  br i1 %62, label %63, label %66

63:                                               ; preds = %58
  %64 = getelementptr inbounds %"struct.std::__1::pair.412", %"struct.std::__1::pair.412"* %49, i64 0, i32 0, i32 0, i32 0, i32 0, i32 0, i32 0, i32 0
  %65 = load i8*, i8** %64, align 8
  tail call void @_ZdlPv(i8* %65) #13
  br label %66

66:                                               ; preds = %63, %58
  %67 = icmp eq %"struct.std::__1::pair.412"* %49, %45
  br i1 %67, label %68, label %47

68:                                               ; preds = %66, %43
  store %"struct.std::__1::pair.412"* %45, %"struct.std::__1::pair.412"** %6, align 8
  br label %69

69:                                               ; preds = %3, %68
  ret %"struct.std::__1::pair.412"* %1
}

; Function Attrs: nounwind
declare void @_ZN4base5ValueD2Ev(%"class.base::Value"*) unnamed_addr #5

; Function Attrs: nounwind ssp uwtable
define internal void @"_ZN4base8internal9BindStateIZN31ManagedConfigurationServiceImpl23GetManagedConfigurationERKNSt3__16vectorINS3_12basic_stringIcNS3_11char_traitsIcEENS3_9allocatorIcEEEENS8_ISA_EEEENS_12OnceCallbackIFvRKN4absl8optionalINS_8flat_mapISA_SA_NS3_4lessIvEENS4_INS3_4pairISA_SA_EENS8_ISM_EEEEEEEEEEEE3$_0JSU_EE7DestroyEPKNS0_13BindStateBaseE"(%"class.base::internal::BindStateBase"*) #0 align 2 {
  %2 = icmp eq %"class.base::internal::BindStateBase"* %0, null
  br i1 %2, label %7, label %3

3:                                                ; preds = %1
  %4 = getelementptr inbounds %"class.base::internal::BindStateBase", %"class.base::internal::BindStateBase"* %0, i64 1, i32 1
  %5 = bitcast void ()** %4 to %"class.base::internal::CallbackBase"*
  tail call void @_ZN4base8internal12CallbackBaseD2Ev(%"class.base::internal::CallbackBase"* %5) #12
  %6 = bitcast %"class.base::internal::BindStateBase"* %0 to i8*
  tail call void @_ZdlPv(i8* %6) #13
  br label %7

7:                                                ; preds = %3, %1
  ret void
}

; Function Attrs: nounwind ssp uwtable
define linkonce_odr hidden void @_ZN4mojo6RemoteIN5blink5mojom28ManagedConfigurationObserverEE4BindENS_13PendingRemoteIS3_EE13scoped_refptrIN4base19SequencedTaskRunnerEE(%"class.mojo::Remote"*, %"class.mojo::PendingRemote"*, %"class.base::SequencedTaskRunner"*) local_unnamed_addr #0 comdat align 2 {
  %4 = alloca %"class.mojo::internal::InterfacePtrState", align 8
  %5 = getelementptr inbounds %"class.mojo::PendingRemote", %"class.mojo::PendingRemote"* %1, i64 0, i32 0, i32 0, i32 0, i32 0, i32 0
  %6 = load i32, i32* %5, align 4
  %7 = icmp eq i32 %6, 0
  br i1 %7, label %8, label %25

8:                                                ; preds = %3
  %9 = bitcast %"class.mojo::internal::InterfacePtrState"* %4 to i8*
  call void @llvm.lifetime.start.p0i8(i64 48, i8* nonnull %9) #12
  call void @llvm.memset.p0i8.i64(i8* nonnull align 8 %9, i8 -86, i64 48, i1 false) #12
  %10 = bitcast %"class.mojo::internal::InterfacePtrState"* %4 to %"class.mojo::internal::InterfacePtrStateBase"*
  call void @_ZN4mojo8internal21InterfacePtrStateBaseC2Ev(%"class.mojo::internal::InterfacePtrStateBase"* nonnull %10) #12
  %11 = getelementptr inbounds %"class.mojo::internal::InterfacePtrState", %"class.mojo::internal::InterfacePtrState"* %4, i64 0, i32 1
  %12 = bitcast %"class.std::__1::unique_ptr.193"* %11 to i64*
  %13 = getelementptr inbounds %"class.mojo::Remote", %"class.mojo::Remote"* %0, i64 0, i32 0, i32 1
  %14 = bitcast %"class.std::__1::unique_ptr.193"* %13 to i64*
  %15 = load i64, i64* %14, align 8
  store i64 %15, i64* %12, align 8
  store i64 0, i64* %14, align 8
  %16 = bitcast %"class.mojo::Remote"* %0 to %"class.mojo::internal::InterfacePtrStateBase"*
  call void @_ZN4mojo8internal21InterfacePtrStateBase4SwapEPS1_(%"class.mojo::internal::InterfacePtrStateBase"* %16, %"class.mojo::internal::InterfacePtrStateBase"* nonnull %10) #12
  %17 = getelementptr inbounds %"class.mojo::internal::InterfacePtrState", %"class.mojo::internal::InterfacePtrState"* %4, i64 0, i32 1, i32 0, i32 0, i32 0
  %18 = load %"class.blink::mojom::ManagedConfigurationObserverProxy"*, %"class.blink::mojom::ManagedConfigurationObserverProxy"** %17, align 8
  store %"class.blink::mojom::ManagedConfigurationObserverProxy"* null, %"class.blink::mojom::ManagedConfigurationObserverProxy"** %17, align 8
  %19 = icmp eq %"class.blink::mojom::ManagedConfigurationObserverProxy"* %18, null
  br i1 %19, label %29, label %20

20:                                               ; preds = %8
  %21 = bitcast %"class.blink::mojom::ManagedConfigurationObserverProxy"* %18 to void (%"class.blink::mojom::ManagedConfigurationObserverProxy"*)***
  %22 = load void (%"class.blink::mojom::ManagedConfigurationObserverProxy"*)**, void (%"class.blink::mojom::ManagedConfigurationObserverProxy"*)*** %21, align 8
  %23 = getelementptr inbounds void (%"class.blink::mojom::ManagedConfigurationObserverProxy"*)*, void (%"class.blink::mojom::ManagedConfigurationObserverProxy"*)** %22, i64 1
  %24 = load void (%"class.blink::mojom::ManagedConfigurationObserverProxy"*)*, void (%"class.blink::mojom::ManagedConfigurationObserverProxy"*)** %23, align 8
  call void %24(%"class.blink::mojom::ManagedConfigurationObserverProxy"* nonnull %18) #12
  br label %29

25:                                               ; preds = %3
  %26 = getelementptr inbounds %"class.mojo::Remote", %"class.mojo::Remote"* %0, i64 0, i32 0
  %27 = getelementptr inbounds %"class.mojo::PendingRemote", %"class.mojo::PendingRemote"* %1, i64 0, i32 0
  %28 = bitcast %"class.mojo::Remote"* %0 to %"class.mojo::internal::InterfacePtrStateBase"*
  tail call void @_ZN4mojo8internal21InterfacePtrStateBase4BindEPNS0_18PendingRemoteStateE13scoped_refptrIN4base19SequencedTaskRunnerEE(%"class.mojo::internal::InterfacePtrStateBase"* %28, %"struct.mojo::internal::PendingRemoteState"* %27, %"class.base::SequencedTaskRunner"* %2) #12
  tail call void @_ZN4mojo8internal17InterfacePtrStateIN5blink5mojom28ManagedConfigurationObserverEE25ConfigureProxyIfNecessaryEv(%"class.mojo::internal::InterfacePtrState"* %26) #12
  br label %39

29:                                               ; preds = %20, %8
  call void @_ZN4mojo8internal21InterfacePtrStateBaseD2Ev(%"class.mojo::internal::InterfacePtrStateBase"* nonnull %10) #12
  call void @llvm.lifetime.end.p0i8(i64 48, i8* nonnull %9) #12
  %30 = icmp eq %"class.base::SequencedTaskRunner"* %2, null
  br i1 %30, label %39, label %31

31:                                               ; preds = %29
  %32 = getelementptr inbounds %"class.base::SequencedTaskRunner", %"class.base::SequencedTaskRunner"* %2, i64 0, i32 0, i32 1
  %33 = getelementptr inbounds %"class.base::RefCountedThreadSafe.4", %"class.base::RefCountedThreadSafe.4"* %32, i64 0, i32 0, i32 0, i32 0, i32 0, i32 0, i32 0, i32 0, i32 0
  %34 = atomicrmw sub i32* %33, i32 1 acq_rel
  %35 = icmp eq i32 %34, 1
  br i1 %35, label %36, label %39

36:                                               ; preds = %31
  %37 = getelementptr inbounds %"class.base::RefCountedThreadSafe.4", %"class.base::RefCountedThreadSafe.4"* %32, i64 -2
  %38 = bitcast %"class.base::RefCountedThreadSafe.4"* %37 to %"class.base::TaskRunner"*
  call void @_ZN4base16TaskRunnerTraits8DestructEPKNS_10TaskRunnerE(%"class.base::TaskRunner"* %38) #12
  br label %39

39:                                               ; preds = %25, %29, %31, %36
  ret void
}

declare void @_ZN4mojo8internal21InterfacePtrStateBase4SwapEPS1_(%"class.mojo::internal::InterfacePtrStateBase"*, %"class.mojo::internal::InterfacePtrStateBase"*) local_unnamed_addr #1

declare void @_ZN4mojo8internal21InterfacePtrStateBase4BindEPNS0_18PendingRemoteStateE13scoped_refptrIN4base19SequencedTaskRunnerEE(%"class.mojo::internal::InterfacePtrStateBase"*, %"struct.mojo::internal::PendingRemoteState"*, %"class.base::SequencedTaskRunner"*) local_unnamed_addr #1

; Function Attrs: nounwind ssp uwtable
define linkonce_odr hidden void @_ZN4mojo8internal17InterfacePtrStateIN5blink5mojom28ManagedConfigurationObserverEE25ConfigureProxyIfNecessaryEv(%"class.mojo::internal::InterfacePtrState"*) local_unnamed_addr #0 comdat align 2 {
  %2 = getelementptr inbounds %"class.mojo::internal::InterfacePtrState", %"class.mojo::internal::InterfacePtrState"* %0, i64 0, i32 1
  %3 = getelementptr inbounds %"class.std::__1::unique_ptr.193", %"class.std::__1::unique_ptr.193"* %2, i64 0, i32 0, i32 0, i32 0
  %4 = load %"class.blink::mojom::ManagedConfigurationObserverProxy"*, %"class.blink::mojom::ManagedConfigurationObserverProxy"** %3, align 8
  %5 = icmp eq %"class.blink::mojom::ManagedConfigurationObserverProxy"* %4, null
  br i1 %5, label %6, label %27

6:                                                ; preds = %1
  %7 = bitcast %"class.mojo::internal::InterfacePtrState"* %0 to %"class.mojo::internal::InterfacePtrStateBase"*
  %8 = tail call i8* @_Znwm(i64 8) #13
  %9 = bitcast i8* %8 to %"class.mojo::PassThroughFilter"*
  tail call void @_ZN4mojo17PassThroughFilterC1Ev(%"class.mojo::PassThroughFilter"* nonnull %9) #12
  %10 = bitcast i8* %8 to %"class.mojo::MessageReceiver"*
  %11 = tail call zeroext i1 @_ZN4mojo8internal21InterfacePtrStateBase24InitializeEndpointClientEbbbNSt3__110unique_ptrINS_15MessageReceiverENS2_14default_deleteIS4_EEEEPKc(%"class.mojo::internal::InterfacePtrStateBase"* %7, i1 zeroext false, i1 zeroext false, i1 zeroext false, %"class.mojo::MessageReceiver"* nonnull %10, i8* getelementptr inbounds ([0 x i8], [0 x i8]* @_ZN5blink5mojom28ManagedConfigurationObserver5Name_E, i64 0, i64 0)) #12
  br i1 %11, label %12, label %27

12:                                               ; preds = %6
  %13 = getelementptr inbounds %"class.mojo::internal::InterfacePtrState", %"class.mojo::internal::InterfacePtrState"* %0, i64 0, i32 0, i32 1, i32 0, i32 0, i32 0
  %14 = bitcast %"class.mojo::InterfaceEndpointClient"** %13 to %"class.mojo::MessageReceiverWithResponder"**
  %15 = load %"class.mojo::MessageReceiverWithResponder"*, %"class.mojo::MessageReceiverWithResponder"** %14, align 8
  %16 = tail call i8* @_Znwm(i64 16) #13
  %17 = bitcast i8* %16 to %"class.blink::mojom::ManagedConfigurationObserverProxy"*
  tail call void @_ZN5blink5mojom33ManagedConfigurationObserverProxyC1EPN4mojo28MessageReceiverWithResponderE(%"class.blink::mojom::ManagedConfigurationObserverProxy"* nonnull %17, %"class.mojo::MessageReceiverWithResponder"* %15) #12
  %18 = ptrtoint i8* %16 to i64
  %19 = load %"class.blink::mojom::ManagedConfigurationObserverProxy"*, %"class.blink::mojom::ManagedConfigurationObserverProxy"** %3, align 8
  %20 = bitcast %"class.std::__1::unique_ptr.193"* %2 to i64*
  store i64 %18, i64* %20, align 8
  %21 = icmp eq %"class.blink::mojom::ManagedConfigurationObserverProxy"* %19, null
  br i1 %21, label %27, label %22

22:                                               ; preds = %12
  %23 = bitcast %"class.blink::mojom::ManagedConfigurationObserverProxy"* %19 to void (%"class.blink::mojom::ManagedConfigurationObserverProxy"*)***
  %24 = load void (%"class.blink::mojom::ManagedConfigurationObserverProxy"*)**, void (%"class.blink::mojom::ManagedConfigurationObserverProxy"*)*** %23, align 8
  %25 = getelementptr inbounds void (%"class.blink::mojom::ManagedConfigurationObserverProxy"*)*, void (%"class.blink::mojom::ManagedConfigurationObserverProxy"*)** %24, i64 1
  %26 = load void (%"class.blink::mojom::ManagedConfigurationObserverProxy"*)*, void (%"class.blink::mojom::ManagedConfigurationObserverProxy"*)** %25, align 8
  tail call void %26(%"class.blink::mojom::ManagedConfigurationObserverProxy"* nonnull %19) #12
  br label %27

27:                                               ; preds = %1, %12, %22, %6
  ret void
}

declare zeroext i1 @_ZN4mojo8internal21InterfacePtrStateBase24InitializeEndpointClientEbbbNSt3__110unique_ptrINS_15MessageReceiverENS2_14default_deleteIS4_EEEEPKc(%"class.mojo::internal::InterfacePtrStateBase"*, i1 zeroext, i1 zeroext, i1 zeroext, %"class.mojo::MessageReceiver"*, i8*) local_unnamed_addr #1

declare void @_ZN4mojo17PassThroughFilterC1Ev(%"class.mojo::PassThroughFilter"*) unnamed_addr #1

declare void @_ZN5blink5mojom33ManagedConfigurationObserverProxyC1EPN4mojo28MessageReceiverWithResponderE(%"class.blink::mojom::ManagedConfigurationObserverProxy"*, %"class.mojo::MessageReceiverWithResponder"*) unnamed_addr #1

attributes #0 = { nounwind ssp uwtable "correctly-rounded-divide-sqrt-fp-math"="false" "disable-tail-calls"="false" "less-precise-fpmad"="false" "min-legal-vector-width"="0" "no-frame-pointer-elim"="false" "no-frame-pointer-elim-non-leaf" "no-infs-fp-math"="false" "no-jump-tables"="false" "no-nans-fp-math"="false" "no-signed-zeros-fp-math"="false" "no-trapping-math"="false" "null-pointer-is-valid"="true" "stack-protector-buffer-size"="4" "target-cpu"="x86-64" "target-features"="+cx8,+fxsr,+mmx,+sse,+sse2,+sse3,+x87" "unsafe-fp-math"="false" "use-soft-float"="false" }
attributes #1 = { "correctly-rounded-divide-sqrt-fp-math"="false" "disable-tail-calls"="false" "less-precise-fpmad"="false" "no-frame-pointer-elim"="false" "no-frame-pointer-elim-non-leaf" "no-infs-fp-math"="false" "no-nans-fp-math"="false" "no-signed-zeros-fp-math"="false" "no-trapping-math"="false" "null-pointer-is-valid"="true" "stack-protector-buffer-size"="4" "target-cpu"="x86-64" "target-features"="+cx8,+fxsr,+mmx,+sse,+sse2,+sse3,+x87" "unsafe-fp-math"="false" "use-soft-float"="false" }
attributes #2 = { argmemonly nounwind }
attributes #3 = { nobuiltin nofree "correctly-rounded-divide-sqrt-fp-math"="false" "disable-tail-calls"="false" "less-precise-fpmad"="false" "no-frame-pointer-elim"="false" "no-frame-pointer-elim-non-leaf" "no-infs-fp-math"="false" "no-nans-fp-math"="false" "no-signed-zeros-fp-math"="false" "no-trapping-math"="false" "null-pointer-is-valid"="true" "stack-protector-buffer-size"="4" "target-cpu"="x86-64" "target-features"="+cx8,+fxsr,+mmx,+sse,+sse2,+sse3,+x87" "unsafe-fp-math"="false" "use-soft-float"="false" }
attributes #4 = { nobuiltin nounwind "correctly-rounded-divide-sqrt-fp-math"="false" "disable-tail-calls"="false" "less-precise-fpmad"="false" "no-frame-pointer-elim"="false" "no-frame-pointer-elim-non-leaf" "no-infs-fp-math"="false" "no-nans-fp-math"="false" "no-signed-zeros-fp-math"="false" "no-trapping-math"="false" "null-pointer-is-valid"="true" "stack-protector-buffer-size"="4" "target-cpu"="x86-64" "target-features"="+cx8,+fxsr,+mmx,+sse,+sse2,+sse3,+x87" "unsafe-fp-math"="false" "use-soft-float"="false" }
attributes #5 = { nounwind "correctly-rounded-divide-sqrt-fp-math"="false" "disable-tail-calls"="false" "less-precise-fpmad"="false" "no-frame-pointer-elim"="false" "no-frame-pointer-elim-non-leaf" "no-infs-fp-math"="false" "no-nans-fp-math"="false" "no-signed-zeros-fp-math"="false" "no-trapping-math"="false" "null-pointer-is-valid"="true" "stack-protector-buffer-size"="4" "target-cpu"="x86-64" "target-features"="+cx8,+fxsr,+mmx,+sse,+sse2,+sse3,+x87" "unsafe-fp-math"="false" "use-soft-float"="false" }
attributes #6 = { norecurse nounwind readnone ssp uwtable "correctly-rounded-divide-sqrt-fp-math"="false" "disable-tail-calls"="false" "less-precise-fpmad"="false" "min-legal-vector-width"="0" "no-frame-pointer-elim"="false" "no-frame-pointer-elim-non-leaf" "no-infs-fp-math"="false" "no-jump-tables"="false" "no-nans-fp-math"="false" "no-signed-zeros-fp-math"="false" "no-trapping-math"="false" "null-pointer-is-valid"="true" "stack-protector-buffer-size"="4" "target-cpu"="x86-64" "target-features"="+cx8,+fxsr,+mmx,+sse,+sse2,+sse3,+x87" "unsafe-fp-math"="false" "use-soft-float"="false" }
attributes #7 = { cold noreturn nounwind }
attributes #8 = { inlinehint nounwind ssp uwtable "correctly-rounded-divide-sqrt-fp-math"="false" "disable-tail-calls"="false" "less-precise-fpmad"="false" "min-legal-vector-width"="0" "no-frame-pointer-elim"="false" "no-frame-pointer-elim-non-leaf" "no-infs-fp-math"="false" "no-jump-tables"="false" "no-nans-fp-math"="false" "no-signed-zeros-fp-math"="false" "no-trapping-math"="false" "null-pointer-is-valid"="true" "stack-protector-buffer-size"="4" "target-cpu"="x86-64" "target-features"="+cx8,+fxsr,+mmx,+sse,+sse2,+sse3,+x87" "unsafe-fp-math"="false" "use-soft-float"="false" }
attributes #9 = { noreturn "correctly-rounded-divide-sqrt-fp-math"="false" "disable-tail-calls"="false" "less-precise-fpmad"="false" "no-frame-pointer-elim"="false" "no-frame-pointer-elim-non-leaf" "no-infs-fp-math"="false" "no-nans-fp-math"="false" "no-signed-zeros-fp-math"="false" "no-trapping-math"="false" "null-pointer-is-valid"="true" "stack-protector-buffer-size"="4" "target-cpu"="x86-64" "target-features"="+cx8,+fxsr,+mmx,+sse,+sse2,+sse3,+x87" "unsafe-fp-math"="false" "use-soft-float"="false" }
attributes #10 = { nobuiltin nofree nounwind "correctly-rounded-divide-sqrt-fp-math"="false" "disable-tail-calls"="false" "less-precise-fpmad"="false" "no-frame-pointer-elim"="false" "no-frame-pointer-elim-non-leaf" "no-infs-fp-math"="false" "no-nans-fp-math"="false" "no-signed-zeros-fp-math"="false" "no-trapping-math"="false" "null-pointer-is-valid"="true" "stack-protector-buffer-size"="4" "target-cpu"="x86-64" "target-features"="+cx8,+fxsr,+mmx,+sse,+sse2,+sse3,+x87" "unsafe-fp-math"="false" "use-soft-float"="false" }
attributes #11 = { nofree nounwind readonly "correctly-rounded-divide-sqrt-fp-math"="false" "disable-tail-calls"="false" "less-precise-fpmad"="false" "no-frame-pointer-elim"="false" "no-frame-pointer-elim-non-leaf" "no-infs-fp-math"="false" "no-nans-fp-math"="false" "no-signed-zeros-fp-math"="false" "no-trapping-math"="false" "null-pointer-is-valid"="true" "stack-protector-buffer-size"="4" "target-cpu"="x86-64" "target-features"="+cx8,+fxsr,+mmx,+sse,+sse2,+sse3,+x87" "unsafe-fp-math"="false" "use-soft-float"="false" }
attributes #12 = { nounwind }
attributes #13 = { builtin nounwind }
attributes #14 = { noreturn nounwind }

!llvm.module.flags = !{!0, !1}

!0 = !{i32 1, !"wchar_size", i32 4}
!1 = !{i32 7, !"PIC Level", i32 2}
!2 = !{!3, !5}
!3 = distinct !{!3, !4, !"_ZN4base8internal8BindImplINS_12OnceCallbackEMN7content16FrameServiceBaseIN5blink5mojom27ManagedConfigurationServiceEEEFvvEJNS0_17UnretainedWrapperIS8_EEEEEDcOT0_DpOT1_: argument 0"}
!4 = distinct !{!4, !"_ZN4base8internal8BindImplINS_12OnceCallbackEMN7content16FrameServiceBaseIN5blink5mojom27ManagedConfigurationServiceEEEFvvEJNS0_17UnretainedWrapperIS8_EEEEEDcOT0_DpOT1_"}
!5 = distinct !{!5, !6, !"_ZN4base8BindOnceIMN7content16FrameServiceBaseIN5blink5mojom27ManagedConfigurationServiceEEEFvvEJNS_8internal17UnretainedWrapperIS6_EEEEENS_12OnceCallbackINS9_14BindTypeHelperIT_JDpT0_EE14UnboundRunTypeEEEOSE_DpOSF_: argument 0"}
!6 = distinct !{!6, !"_ZN4base8BindOnceIMN7content16FrameServiceBaseIN5blink5mojom27ManagedConfigurationServiceEEEFvvEJNS_8internal17UnretainedWrapperIS6_EEEEENS_12OnceCallbackINS9_14BindTypeHelperIT_JDpT0_EE14UnboundRunTypeEEEOSE_DpOSF_"}
!7 = !{!8, !10}
!8 = distinct !{!8, !9, !"_ZN4base8internal8BindImplINS_12OnceCallbackEZN31ManagedConfigurationServiceImpl23GetManagedConfigurationERKNSt3__16vectorINS4_12basic_stringIcNS4_11char_traitsIcEENS4_9allocatorIcEEEENS9_ISB_EEEENS2_IFvRKN4absl8optionalINS_8flat_mapISB_SB_NS4_4lessIvEENS5_INS4_4pairISB_SB_EENS9_ISM_EEEEEEEEEEEE3$_0JSU_EEEDcOT0_DpOT1_: argument 0"}
!9 = distinct !{!9, !"_ZN4base8internal8BindImplINS_12OnceCallbackEZN31ManagedConfigurationServiceImpl23GetManagedConfigurationERKNSt3__16vectorINS4_12basic_stringIcNS4_11char_traitsIcEENS4_9allocatorIcEEEENS9_ISB_EEEENS2_IFvRKN4absl8optionalINS_8flat_mapISB_SB_NS4_4lessIvEENS5_INS4_4pairISB_SB_EENS9_ISM_EEEEEEEEEEEE3$_0JSU_EEEDcOT0_DpOT1_"}
!10 = distinct !{!10, !11, !"_ZN4base8BindOnceIZN31ManagedConfigurationServiceImpl23GetManagedConfigurationERKNSt3__16vectorINS2_12basic_stringIcNS2_11char_traitsIcEENS2_9allocatorIcEEEENS7_IS9_EEEENS_12OnceCallbackIFvRKN4absl8optionalINS_8flat_mapIS9_S9_NS2_4lessIvEENS3_INS2_4pairIS9_S9_EENS7_ISL_EEEEEEEEEEEE3$_0JST_EEENSE_INS_8internal14BindTypeHelperIT_JDpT0_EE14UnboundRunTypeEEEOSX_DpOSY_: argument 0"}
!11 = distinct !{!11, !"_ZN4base8BindOnceIZN31ManagedConfigurationServiceImpl23GetManagedConfigurationERKNSt3__16vectorINS2_12basic_stringIcNS2_11char_traitsIcEENS2_9allocatorIcEEEENS7_IS9_EEEENS_12OnceCallbackIFvRKN4absl8optionalINS_8flat_mapIS9_S9_NS2_4lessIvEENS3_INS2_4pairIS9_S9_EENS7_ISL_EEEEEEEEEEEE3$_0JST_EEENSE_INS_8internal14BindTypeHelperIT_JDpT0_EE14UnboundRunTypeEEEOSX_DpOSY_"}
!12 = !{i8 0, i8 2}
