; ModuleID = '../../extensions/browser/api/management/management_api_constants.cc'
source_filename = "../../extensions/browser/api/management/management_api_constants.cc"
target datalayout = "e-m:e-i64:64-f80:128-n8:16:32:64-S128"
target triple = "x86_64-unknown-linux-gnu"

@_ZN34extension_management_api_constants18kDisabledReasonKeyE = hidden local_unnamed_addr constant [15 x i8] c"disabledReason\00", align 1
@_ZN34extension_management_api_constants34kDisabledReasonPermissionsIncreaseE = hidden local_unnamed_addr constant [21 x i8] c"permissions_increase\00", align 16
@_ZN34extension_management_api_constants21kExtensionCreateErrorE = hidden local_unnamed_addr constant [42 x i8] c"Failed to create extension from manifest.\00", align 16
@_ZN34extension_management_api_constants32kGestureNeededForEscalationErrorE = hidden local_unnamed_addr constant [87 x i8] c"Re-enabling an extension disabled due to permissions increase requires a user gesture.\00", align 16
@_ZN34extension_management_api_constants31kGestureNeededForUninstallErrorE = hidden local_unnamed_addr constant [53 x i8] c"chrome.management.uninstall requires a user gesture.\00", align 16
@_ZN34extension_management_api_constants19kManifestParseErrorE = hidden local_unnamed_addr constant [26 x i8] c"Failed to parse manifest.\00", align 16
@_ZN34extension_management_api_constants17kNoExtensionErrorE = hidden local_unnamed_addr constant [36 x i8] c"Failed to find extension with id *.\00", align 16
@_ZN34extension_management_api_constants14kNotAnAppErrorE = hidden local_unnamed_addr constant [27 x i8] c"Extension * is not an App.\00", align 16
@_ZN34extension_management_api_constants20kUserCantModifyErrorE = hidden local_unnamed_addr constant [40 x i8] c"Extension * cannot be modified by user.\00", align 16
@_ZN34extension_management_api_constants23kUninstallCanceledErrorE = hidden local_unnamed_addr constant [40 x i8] c"Extension * uninstall canceled by user.\00", align 16
@_ZN34extension_management_api_constants24kUserDidNotReEnableErrorE = hidden local_unnamed_addr constant [46 x i8] c"The user did not accept the re-enable dialog.\00", align 16
@_ZN34extension_management_api_constants25kMissingRequirementsErrorE = hidden local_unnamed_addr constant [36 x i8] c"There were missing requirements: *.\00", align 16
@_ZN34extension_management_api_constants39kGestureNeededForCreateAppShortcutErrorE = hidden local_unnamed_addr constant [61 x i8] c"chrome.management.createAppShortcut requires a user gesture.\00", align 16
@_ZN34extension_management_api_constants26kNoBrowserToCreateShortcutE = hidden local_unnamed_addr constant [47 x i8] c"There is no browser window to create shortcut.\00", align 16
@_ZN34extension_management_api_constants33kCreateOnlyPackagedAppShortcutMacE = hidden local_unnamed_addr constant [66 x i8] c"Shortcuts can only be created for new-style packaged apps on Mac.\00", align 16
@_ZN34extension_management_api_constants28kCreateShortcutCanceledErrorE = hidden local_unnamed_addr constant [41 x i8] c"App shortcuts creation canceled by user.\00", align 16
@_ZN34extension_management_api_constants35kGestureNeededForSetLaunchTypeErrorE = hidden local_unnamed_addr constant [57 x i8] c"chrome.management.setLaunchType requires a user gesture.\00", align 16
@_ZN34extension_management_api_constants28kLaunchTypeNotAvailableErrorE = hidden local_unnamed_addr constant [47 x i8] c"The launch type is not available for this app.\00", align 16
@_ZN34extension_management_api_constants40kGestureNeededForGenerateAppForLinkErrorE = hidden local_unnamed_addr constant [62 x i8] c"chrome.management.generateAppForLink requires a user gesture.\00", align 16
@_ZN34extension_management_api_constants16kInvalidURLErrorE = hidden local_unnamed_addr constant [24 x i8] c"The URL \22*\22 is invalid.\00", align 16
@_ZN34extension_management_api_constants16kEmptyTitleErrorE = hidden local_unnamed_addr constant [28 x i8] c"The title can not be empty.\00", align 16
@_ZN34extension_management_api_constants31kGenerateAppForLinkInstallErrorE = hidden local_unnamed_addr constant [37 x i8] c"Failed to install the generated app.\00", align 16
@_ZN34extension_management_api_constants23kNotAllowedInKioskErrorE = hidden local_unnamed_addr constant [22 x i8] c"Not allowed in kiosk.\00", align 16
@_ZN34extension_management_api_constants33kCannotChangePrimaryKioskAppErrorE = hidden local_unnamed_addr constant [43 x i8] c"Cannot change the primary kiosk app state.\00", align 16
@_ZN34extension_management_api_constants43kInstallReplacementWebAppInvalidWebAppErrorE = hidden local_unnamed_addr constant [44 x i8] c"Web app is not a valid installable web app.\00", align 16
@_ZN34extension_management_api_constants44kInstallReplacementWebAppInvalidContextErrorE = hidden local_unnamed_addr constant [57 x i8] c"Web apps can't be installed in the current user profile.\00", align 16
@_ZN34extension_management_api_constants45kInstallReplacementWebAppNotFromWebstoreErrorE = hidden local_unnamed_addr constant [69 x i8] c"Only extensions from the web store can install replacement web apps.\00", align 16
@_ZN34extension_management_api_constants46kGestureNeededForInstallReplacementWebAppErrorE = hidden local_unnamed_addr constant [68 x i8] c"chrome.management.installReplacementWebApp requires a user gesture.\00", align 16
@_ZN34extension_management_api_constants50kGestureNeededForInstallReplacementAndroidAppErrorE = hidden local_unnamed_addr constant [72 x i8] c"chrome.management.installReplacementAndroidApp requires a user gesture.\00", align 16
@_ZN34extension_management_api_constants48kInstallReplacementAndroidAppInvalidContextErrorE = hidden local_unnamed_addr constant [61 x i8] c"Android apps can't be installed in the current user profile.\00", align 16
@_ZN34extension_management_api_constants49kInstallReplacementAndroidAppNotFromWebstoreErrorE = hidden local_unnamed_addr constant [73 x i8] c"Only extensions from the web store can install replacement Android apps.\00", align 16
@_ZN34extension_management_api_constants45kInstallReplacementAndroidAppCannotInstallAppE = hidden local_unnamed_addr constant [31 x i8] c"Could not install Android App.\00", align 16
@_ZN34extension_management_api_constants28kParentPermissionFailedErrorE = hidden local_unnamed_addr constant [34 x i8] c"Parent Permission Request Failed.\00", align 16

!llvm.module.flags = !{!0, !1}

!0 = !{i32 1, !"wchar_size", i32 4}
!1 = !{i32 7, !"PIC Level", i32 2}
