; ModuleID = 'gen/third_party/blink/public/mojom/manifest/manifest_observer.mojom.cc'
source_filename = "gen/third_party/blink/public/mojom/manifest/manifest_observer.mojom.cc"
target datalayout = "e-m:e-i64:64-f80:128-n8:16:32:64-S128"
target triple = "x86_64-unknown-linux-gnu"

module asm ".symver exp, exp@GLIBC_2.2.5"
module asm ".symver exp2, exp2@GLIBC_2.2.5"
module asm ".symver exp2f, exp2f@GLIBC_2.2.5"
module asm ".symver expf, expf@GLIBC_2.2.5"
module asm ".symver lgamma, lgamma@GLIBC_2.2.5"
module asm ".symver lgammaf, lgammaf@GLIBC_2.2.5"
module asm ".symver lgammal, lgammal@GLIBC_2.2.5"
module asm ".symver log, log@GLIBC_2.2.5"
module asm ".symver log2, log2@GLIBC_2.2.5"
module asm ".symver log2f, log2f@GLIBC_2.2.5"
module asm ".symver logf, logf@GLIBC_2.2.5"
module asm ".symver pow, pow@GLIBC_2.2.5"
module asm ".symver powf, powf@GLIBC_2.2.5"

%"struct.mojo::internal::GenericValidationInfo" = type { i1 (i8*, %"class.mojo::internal::ValidationContext"*)*, i1 (i8*, %"class.mojo::internal::ValidationContext"*)* }
%"class.mojo::internal::ValidationContext" = type <{ %"class.mojo::Message"*, i8*, i32, [4 x i8], i64, i64, i32, i32, i32, i32, i32, [4 x i8] }>
%"class.mojo::Message" = type { %"class.mojo::ScopedHandleBase", %"class.mojo::internal::Buffer", %"class.std::__1::vector", %"class.std::__1::vector.11", %"class.mojo::ConnectionGroup::Ref"*, i8, i8, i8* }
%"class.mojo::ScopedHandleBase" = type { %"class.mojo::MessageHandle" }
%"class.mojo::MessageHandle" = type { i64 }
%"class.mojo::internal::Buffer" = type { %"class.mojo::MessageHandle", i64, i8*, i64, i64 }
%"class.std::__1::vector" = type { %"class.std::__1::__vector_base" }
%"class.std::__1::__vector_base" = type { %"class.mojo::ScopedHandleBase.5"*, %"class.mojo::ScopedHandleBase.5"*, %"class.std::__1::__compressed_pair.6" }
%"class.mojo::ScopedHandleBase.5" = type { %"class.mojo::Handle" }
%"class.mojo::Handle" = type { i32 }
%"class.std::__1::__compressed_pair.6" = type { %"struct.std::__1::__compressed_pair_elem.7" }
%"struct.std::__1::__compressed_pair_elem.7" = type { %"class.mojo::ScopedHandleBase.5"* }
%"class.std::__1::vector.11" = type { %"class.std::__1::__vector_base.12" }
%"class.std::__1::__vector_base.12" = type { %"class.mojo::ScopedInterfaceEndpointHandle"*, %"class.mojo::ScopedInterfaceEndpointHandle"*, %"class.std::__1::__compressed_pair.13" }
%"class.mojo::ScopedInterfaceEndpointHandle" = type { %class.scoped_refptr }
%class.scoped_refptr = type { %"class.mojo::ScopedInterfaceEndpointHandle::State"* }
%"class.mojo::ScopedInterfaceEndpointHandle::State" = type opaque
%"class.std::__1::__compressed_pair.13" = type { %"struct.std::__1::__compressed_pair_elem.14" }
%"struct.std::__1::__compressed_pair_elem.14" = type { %"class.mojo::ScopedInterfaceEndpointHandle"* }
%"class.mojo::ConnectionGroup::Ref" = type { i32, %class.scoped_refptr.18 }
%class.scoped_refptr.18 = type { %"class.mojo::ConnectionGroup"* }
%"class.mojo::ConnectionGroup" = type <{ i32 (...)**, %"class.base::RefCountedThreadSafe", [4 x i8], %"class.base::RepeatingCallback", %class.scoped_refptr.22, %"class.mojo::ConnectionGroup::Ref", %"struct.std::__1::atomic.24", [4 x i8] }>
%"class.base::RefCountedThreadSafe" = type { %"class.base::subtle::RefCountedThreadSafeBase" }
%"class.base::subtle::RefCountedThreadSafeBase" = type { %"class.base::AtomicRefCount" }
%"class.base::AtomicRefCount" = type { %"struct.std::__1::atomic" }
%"struct.std::__1::atomic" = type { %"struct.std::__1::__atomic_base" }
%"struct.std::__1::__atomic_base" = type { %"struct.std::__1::__atomic_base.19" }
%"struct.std::__1::__atomic_base.19" = type { %"struct.std::__1::__cxx_atomic_impl" }
%"struct.std::__1::__cxx_atomic_impl" = type { %"struct.std::__1::__cxx_atomic_base_impl" }
%"struct.std::__1::__cxx_atomic_base_impl" = type { i32 }
%"class.base::RepeatingCallback" = type { %"class.base::internal::CallbackBaseCopyable" }
%"class.base::internal::CallbackBaseCopyable" = type { %"class.base::internal::CallbackBase" }
%"class.base::internal::CallbackBase" = type { %class.scoped_refptr.20 }
%class.scoped_refptr.20 = type { %"class.base::internal::BindStateBase"* }
%"class.base::internal::BindStateBase" = type { %"class.base::RefCountedThreadSafe.21", void ()*, void (%"class.base::internal::BindStateBase"*)*, i1 (%"class.base::internal::BindStateBase"*, i32)* }
%"class.base::RefCountedThreadSafe.21" = type { %"class.base::subtle::RefCountedThreadSafeBase" }
%class.scoped_refptr.22 = type { %"class.base::SequencedTaskRunner"* }
%"class.base::SequencedTaskRunner" = type { %"class.base::TaskRunner.base", [4 x i8] }
%"class.base::TaskRunner.base" = type <{ i32 (...)**, %"class.base::RefCountedThreadSafe.23" }>
%"class.base::RefCountedThreadSafe.23" = type { %"class.base::subtle::RefCountedThreadSafeBase" }
%"struct.std::__1::atomic.24" = type { %"struct.std::__1::__atomic_base.25" }
%"struct.std::__1::__atomic_base.25" = type { %"struct.std::__1::__atomic_base.26" }
%"struct.std::__1::__atomic_base.26" = type { %"struct.std::__1::__cxx_atomic_impl.27" }
%"struct.std::__1::__cxx_atomic_impl.27" = type { %"struct.std::__1::__cxx_atomic_base_impl.28" }
%"struct.std::__1::__cxx_atomic_base_impl.28" = type { i32 }
%"class.blink::mojom::ManifestUrlChangeObserverProxy" = type { %"class.blink::mojom::ManifestUrlChangeObserver", %"class.mojo::MessageReceiverWithResponder"* }
%"class.blink::mojom::ManifestUrlChangeObserver" = type { i32 (...)** }
%"class.mojo::MessageReceiverWithResponder" = type { %"class.mojo::MessageReceiver" }
%"class.mojo::MessageReceiver" = type { i32 (...)** }
%"class.absl::optional" = type { %"class.absl::optional_internal::optional_data" }
%"class.absl::optional_internal::optional_data" = type { %"class.absl::optional_internal::optional_data_base" }
%"class.absl::optional_internal::optional_data_base" = type { %"class.absl::optional_internal::optional_data_dtor_base" }
%"class.absl::optional_internal::optional_data_dtor_base" = type { i8, %union.anon }
%union.anon = type { %class.GURL }
%class.GURL = type { %"class.std::__1::basic_string", i8, %"struct.url::Parsed", %"class.std::__1::unique_ptr" }
%"class.std::__1::basic_string" = type { %"class.std::__1::__compressed_pair" }
%"class.std::__1::__compressed_pair" = type { %"struct.std::__1::__compressed_pair_elem" }
%"struct.std::__1::__compressed_pair_elem" = type { %"struct.std::__1::basic_string<char, std::__1::char_traits<char>, std::__1::allocator<char> >::__rep" }
%"struct.std::__1::basic_string<char, std::__1::char_traits<char>, std::__1::allocator<char> >::__rep" = type { %union.anon.0 }
%union.anon.0 = type { %"struct.std::__1::basic_string<char, std::__1::char_traits<char>, std::__1::allocator<char> >::__long" }
%"struct.std::__1::basic_string<char, std::__1::char_traits<char>, std::__1::allocator<char> >::__long" = type { i8*, i64, i64 }
%"struct.url::Parsed" = type { %"struct.url::Component", %"struct.url::Component", %"struct.url::Component", %"struct.url::Component", %"struct.url::Component", %"struct.url::Component", %"struct.url::Component", %"struct.url::Component", i8, %"struct.url::Parsed"* }
%"struct.url::Component" = type { i32, i32 }
%"class.std::__1::unique_ptr" = type { %"class.std::__1::__compressed_pair.2" }
%"class.std::__1::__compressed_pair.2" = type { %"struct.std::__1::__compressed_pair_elem.3" }
%"struct.std::__1::__compressed_pair_elem.3" = type { %class.GURL* }
%"class.blink::mojom::internal::ManifestUrlChangeObserver_ManifestUrlChanged_Params_Data" = type { %"struct.mojo::internal::StructHeader", %"struct.mojo::internal::Pointer" }
%"struct.mojo::internal::StructHeader" = type { i32, i32 }
%"struct.mojo::internal::Pointer" = type { i64 }
%"class.url::mojom::internal::Url_Data" = type { %"struct.mojo::internal::StructHeader", %"struct.mojo::internal::Pointer.30" }
%"struct.mojo::internal::Pointer.30" = type { i64 }
%"class.mojo::internal::Array_Data" = type { %"struct.mojo::internal::ArrayHeader" }
%"struct.mojo::internal::ArrayHeader" = type { i32, i32 }
%"class.base::TaskAnnotator::ScopedSetIpcHash" = type { %"class.base::TaskAnnotator::ScopedSetIpcHash"*, i32, i8* }
%"struct.mojo::internal::MessageHeader" = type { %"struct.mojo::internal::StructHeader", i32, i32, i32, i32 }
%"class.mojo::MessageReceiverWithStatus" = type { %"class.mojo::MessageReceiver" }
%"class.blink::mojom::ManifestUrlChangeObserverRequestValidator" = type { %"class.mojo::MessageReceiver" }

$_ZN5blink5mojom30ManifestUrlChangeObserverProxyD0Ev = comdat any

$_ZN4mojo15MessageReceiverD2Ev = comdat any

$_ZN5blink5mojom41ManifestUrlChangeObserverRequestValidatorD0Ev = comdat any

$_ZN5blink5mojom25ManifestUrlChangeObserverD2Ev = comdat any

@_ZN5blink5mojom25ManifestUrlChangeObserver5Name_E = hidden constant [38 x i8] c"blink.mojom.ManifestUrlChangeObserver\00", align 16
@_ZTVN5blink5mojom30ManifestUrlChangeObserverProxyE = hidden unnamed_addr constant { [5 x i8*] } { [5 x i8*] [i8* null, i8* null, i8* bitcast (void (%"class.blink::mojom::ManifestUrlChangeObserver"*)* @_ZN5blink5mojom25ManifestUrlChangeObserverD2Ev to i8*), i8* bitcast (void (%"class.blink::mojom::ManifestUrlChangeObserverProxy"*)* @_ZN5blink5mojom30ManifestUrlChangeObserverProxyD0Ev to i8*), i8* bitcast (void (%"class.blink::mojom::ManifestUrlChangeObserverProxy"*, %"class.absl::optional"*)* @_ZN5blink5mojom30ManifestUrlChangeObserverProxy18ManifestUrlChangedERKN4absl8optionalI4GURLEE to i8*)] }, align 8
@_ZN5blink5mojomL40kManifestUrlChangeObserverValidationInfoE = internal constant [1 x %"struct.mojo::internal::GenericValidationInfo"] [%"struct.mojo::internal::GenericValidationInfo" { i1 (i8*, %"class.mojo::internal::ValidationContext"*)* @_ZN5blink5mojom8internal56ManifestUrlChangeObserver_ManifestUrlChanged_Params_Data8ValidateEPKvPN4mojo8internal17ValidationContextE, i1 (i8*, %"class.mojo::internal::ValidationContext"*)* null }], align 16
@_ZTVN5blink5mojom41ManifestUrlChangeObserverRequestValidatorE = hidden unnamed_addr constant { [6 x i8*] } { [6 x i8*] [i8* null, i8* null, i8* bitcast (void (%"class.mojo::MessageReceiver"*)* @_ZN4mojo15MessageReceiverD2Ev to i8*), i8* bitcast (void (%"class.blink::mojom::ManifestUrlChangeObserverRequestValidator"*)* @_ZN5blink5mojom41ManifestUrlChangeObserverRequestValidatorD0Ev to i8*), i8* bitcast (i1 (%"class.mojo::MessageReceiver"*)* @_ZN4mojo15MessageReceiver25PrefersSerializedMessagesEv to i8*), i8* bitcast (i1 (%"class.blink::mojom::ManifestUrlChangeObserverRequestValidator"*, %"class.mojo::Message"*)* @_ZN5blink5mojom41ManifestUrlChangeObserverRequestValidator6AcceptEPN4mojo7MessageE to i8*)] }, align 8

@_ZN5blink5mojom30ManifestUrlChangeObserverProxyC1EPN4mojo28MessageReceiverWithResponderE = hidden unnamed_addr alias void (%"class.blink::mojom::ManifestUrlChangeObserverProxy"*, %"class.mojo::MessageReceiverWithResponder"*), void (%"class.blink::mojom::ManifestUrlChangeObserverProxy"*, %"class.mojo::MessageReceiverWithResponder"*)* @_ZN5blink5mojom30ManifestUrlChangeObserverProxyC2EPN4mojo28MessageReceiverWithResponderE

; Function Attrs: nofree norecurse nounwind ssp uwtable writeonly
define hidden void @_ZN5blink5mojom30ManifestUrlChangeObserverProxyC2EPN4mojo28MessageReceiverWithResponderE(%"class.blink::mojom::ManifestUrlChangeObserverProxy"* nocapture, %"class.mojo::MessageReceiverWithResponder"*) unnamed_addr #0 align 2 {
  %3 = getelementptr inbounds %"class.blink::mojom::ManifestUrlChangeObserverProxy", %"class.blink::mojom::ManifestUrlChangeObserverProxy"* %0, i64 0, i32 0, i32 0
  store i32 (...)** bitcast (i8** getelementptr inbounds ({ [5 x i8*] }, { [5 x i8*] }* @_ZTVN5blink5mojom30ManifestUrlChangeObserverProxyE, i64 0, inrange i32 0, i64 2) to i32 (...)**), i32 (...)*** %3, align 8
  %4 = getelementptr inbounds %"class.blink::mojom::ManifestUrlChangeObserverProxy", %"class.blink::mojom::ManifestUrlChangeObserverProxy"* %0, i64 0, i32 1
  store %"class.mojo::MessageReceiverWithResponder"* %1, %"class.mojo::MessageReceiverWithResponder"** %4, align 8
  ret void
}

; Function Attrs: nounwind ssp uwtable
define hidden void @_ZN5blink5mojom30ManifestUrlChangeObserverProxy18ManifestUrlChangedERKN4absl8optionalI4GURLEE(%"class.blink::mojom::ManifestUrlChangeObserverProxy"* nocapture readonly, %"class.absl::optional"* dereferenceable(128)) unnamed_addr #1 align 2 {
  %3 = alloca %"class.mojo::Message", align 8
  %4 = bitcast %"class.mojo::Message"* %3 to i8*
  call void @llvm.lifetime.start.p0i8(i64 120, i8* nonnull %4) #7
  call void @llvm.memset.p0i8.i64(i8* nonnull align 8 %4, i8 -86, i64 120, i1 false)
  call void @_ZN4mojo7MessageC1EjjmmPNSt3__16vectorINS_16ScopedHandleBaseINS_6HandleEEENS1_9allocatorIS5_EEEE(%"class.mojo::Message"* nonnull %3, i32 0, i32 0, i64 0, i64 0, %"class.std::__1::vector"* null) #7
  %5 = getelementptr inbounds %"class.mojo::Message", %"class.mojo::Message"* %3, i64 0, i32 1
  %6 = call i64 @_ZN4mojo8internal6Buffer8AllocateEm(%"class.mojo::internal::Buffer"* %5, i64 16) #7
  %7 = getelementptr inbounds %"class.mojo::Message", %"class.mojo::Message"* %3, i64 0, i32 1, i32 2
  %8 = load i8*, i8** %7, align 8
  %9 = getelementptr inbounds i8, i8* %8, i64 %6
  %10 = bitcast i8* %9 to %"class.blink::mojom::internal::ManifestUrlChangeObserver_ManifestUrlChanged_Params_Data"*
  call void @_ZN5blink5mojom8internal56ManifestUrlChangeObserver_ManifestUrlChanged_Params_DataC1Ev(%"class.blink::mojom::internal::ManifestUrlChangeObserver_ManifestUrlChanged_Params_Data"* %10) #7
  %11 = getelementptr inbounds %"class.absl::optional", %"class.absl::optional"* %1, i64 0, i32 0, i32 0, i32 0, i32 0
  %12 = load i8, i8* %11, align 8, !range !2
  %13 = icmp eq i8 %12, 0
  br i1 %13, label %14, label %19

14:                                               ; preds = %2
  %15 = load i8*, i8** %7, align 8
  %16 = getelementptr inbounds i8, i8* %15, i64 %6
  %17 = getelementptr inbounds i8, i8* %16, i64 8
  %18 = bitcast i8* %17 to %"struct.mojo::internal::Pointer"*
  br label %65

19:                                               ; preds = %2
  %20 = getelementptr inbounds %"class.absl::optional", %"class.absl::optional"* %1, i64 0, i32 0, i32 0, i32 0, i32 1, i32 0
  %21 = call i64 @_ZN4mojo8internal6Buffer8AllocateEm(%"class.mojo::internal::Buffer"* %5, i64 16) #7
  %22 = load i8*, i8** %7, align 8
  %23 = getelementptr inbounds i8, i8* %22, i64 %21
  %24 = bitcast i8* %23 to %"class.url::mojom::internal::Url_Data"*
  call void @_ZN3url5mojom8internal8Url_DataC1Ev(%"class.url::mojom::internal::Url_Data"* %24) #7
  %25 = call { i8*, i64 } @_ZN4mojo12StructTraitsIN3url5mojom11UrlDataViewE4GURLE3urlERKS4_(%class.GURL* dereferenceable(120) %20) #7
  %26 = extractvalue { i8*, i64 } %25, 0
  %27 = extractvalue { i8*, i64 } %25, 1
  %28 = icmp ugt i64 %27, 4294967287
  br i1 %28, label %39, label %29

29:                                               ; preds = %19
  %30 = trunc i64 %27 to i32
  %31 = add nuw i32 %30, 8
  %32 = zext i32 %31 to i64
  %33 = call i64 @_ZN4mojo8internal6Buffer8AllocateEm(%"class.mojo::internal::Buffer"* %5, i64 %32) #7
  %34 = load i8*, i8** %7, align 8
  %35 = getelementptr inbounds i8, i8* %34, i64 %33
  %36 = bitcast i8* %35 to i32*
  store i32 %31, i32* %36, align 1
  %37 = getelementptr inbounds i8, i8* %35, i64 4
  %38 = bitcast i8* %37 to i32*
  store i32 %30, i32* %38, align 1
  br label %39

39:                                               ; preds = %29, %19
  %40 = phi i64 [ -1, %19 ], [ %33, %29 ]
  %41 = load i8*, i8** %7, align 8
  %42 = getelementptr inbounds i8, i8* %41, i64 %40
  %43 = getelementptr inbounds i8, i8* %42, i64 8
  call void @llvm.memcpy.p0i8.p0i8.i64(i8* align 1 %43, i8* align 1 %26, i64 %27, i1 false) #7
  %44 = load i8*, i8** %7, align 8
  %45 = getelementptr inbounds i8, i8* %44, i64 %21
  %46 = getelementptr inbounds i8, i8* %45, i64 8
  %47 = icmp eq i64 %40, -1
  %48 = getelementptr inbounds i8, i8* %44, i64 %40
  %49 = bitcast i8* %48 to %"class.mojo::internal::Array_Data"*
  %50 = select i1 %47, %"class.mojo::internal::Array_Data"* null, %"class.mojo::internal::Array_Data"* %49
  %51 = bitcast i8* %46 to i64*
  %52 = icmp eq %"class.mojo::internal::Array_Data"* %50, null
  %53 = ptrtoint %"class.mojo::internal::Array_Data"* %50 to i64
  %54 = ptrtoint i8* %46 to i64
  %55 = sub i64 %53, %54
  %56 = select i1 %52, i64 0, i64 %55
  store i64 %56, i64* %51, align 8
  %57 = load i8*, i8** %7, align 8
  %58 = getelementptr inbounds i8, i8* %57, i64 %6
  %59 = getelementptr inbounds i8, i8* %58, i64 8
  %60 = bitcast i8* %59 to %"struct.mojo::internal::Pointer"*
  %61 = icmp eq i64 %21, -1
  br i1 %61, label %65, label %62

62:                                               ; preds = %39
  %63 = getelementptr inbounds i8, i8* %57, i64 %21
  %64 = bitcast i8* %63 to %"class.url::mojom::internal::Url_Data"*
  br label %65

65:                                               ; preds = %14, %39, %62
  %66 = phi %"struct.mojo::internal::Pointer"* [ %60, %62 ], [ %60, %39 ], [ %18, %14 ]
  %67 = phi %"class.url::mojom::internal::Url_Data"* [ %64, %62 ], [ null, %39 ], [ null, %14 ]
  %68 = getelementptr inbounds %"struct.mojo::internal::Pointer", %"struct.mojo::internal::Pointer"* %66, i64 0, i32 0
  %69 = icmp eq %"class.url::mojom::internal::Url_Data"* %67, null
  %70 = ptrtoint %"class.url::mojom::internal::Url_Data"* %67 to i64
  %71 = ptrtoint %"struct.mojo::internal::Pointer"* %66 to i64
  %72 = sub i64 %70, %71
  %73 = select i1 %69, i64 0, i64 %72
  store i64 %73, i64* %68, align 8
  %74 = getelementptr inbounds %"class.blink::mojom::ManifestUrlChangeObserverProxy", %"class.blink::mojom::ManifestUrlChangeObserverProxy"* %0, i64 0, i32 1
  %75 = bitcast %"class.mojo::MessageReceiverWithResponder"** %74 to %"class.mojo::MessageReceiver"**
  %76 = load %"class.mojo::MessageReceiver"*, %"class.mojo::MessageReceiver"** %75, align 8
  %77 = bitcast %"class.mojo::MessageReceiver"* %76 to i1 (%"class.mojo::MessageReceiver"*, %"class.mojo::Message"*)***
  %78 = load i1 (%"class.mojo::MessageReceiver"*, %"class.mojo::Message"*)**, i1 (%"class.mojo::MessageReceiver"*, %"class.mojo::Message"*)*** %77, align 8
  %79 = getelementptr inbounds i1 (%"class.mojo::MessageReceiver"*, %"class.mojo::Message"*)*, i1 (%"class.mojo::MessageReceiver"*, %"class.mojo::Message"*)** %78, i64 3
  %80 = load i1 (%"class.mojo::MessageReceiver"*, %"class.mojo::Message"*)*, i1 (%"class.mojo::MessageReceiver"*, %"class.mojo::Message"*)** %79, align 8
  %81 = call zeroext i1 %80(%"class.mojo::MessageReceiver"* %76, %"class.mojo::Message"* nonnull %3) #7
  call void @_ZN4mojo7MessageD1Ev(%"class.mojo::Message"* nonnull %3) #7
  call void @llvm.lifetime.end.p0i8(i64 120, i8* nonnull %4) #7
  ret void
}

; Function Attrs: argmemonly nounwind
declare void @llvm.lifetime.start.p0i8(i64 immarg, i8* nocapture) #2

; Function Attrs: argmemonly nounwind
declare void @llvm.memset.p0i8.i64(i8* nocapture writeonly, i8, i64, i1 immarg) #2

declare void @_ZN4mojo7MessageC1EjjmmPNSt3__16vectorINS_16ScopedHandleBaseINS_6HandleEEENS1_9allocatorIS5_EEEE(%"class.mojo::Message"*, i32, i32, i64, i64, %"class.std::__1::vector"*) unnamed_addr #3

; Function Attrs: argmemonly nounwind
declare void @llvm.lifetime.end.p0i8(i64 immarg, i8* nocapture) #2

; Function Attrs: nounwind
declare void @_ZN4mojo7MessageD1Ev(%"class.mojo::Message"*) unnamed_addr #4

; Function Attrs: nounwind ssp uwtable
define hidden zeroext i1 @_ZN5blink5mojom37ManifestUrlChangeObserverStubDispatch6AcceptEPNS0_25ManifestUrlChangeObserverEPN4mojo7MessageE(%"class.blink::mojom::ManifestUrlChangeObserver"*, %"class.mojo::Message"*) local_unnamed_addr #1 align 2 {
  %3 = alloca %"class.base::TaskAnnotator::ScopedSetIpcHash", align 8
  %4 = alloca %"class.absl::optional", align 8
  %5 = getelementptr inbounds %"class.mojo::Message", %"class.mojo::Message"* %1, i64 0, i32 1, i32 2
  %6 = bitcast i8** %5 to %"struct.mojo::internal::MessageHeader"**
  %7 = load %"struct.mojo::internal::MessageHeader"*, %"struct.mojo::internal::MessageHeader"** %6, align 8
  %8 = getelementptr inbounds %"struct.mojo::internal::MessageHeader", %"struct.mojo::internal::MessageHeader"* %7, i64 0, i32 2
  %9 = load i32, i32* %8, align 1
  %10 = icmp eq i32 %9, 0
  br i1 %10, label %11, label %40

11:                                               ; preds = %2
  %12 = bitcast %"class.base::TaskAnnotator::ScopedSetIpcHash"* %3 to i8*
  call void @llvm.lifetime.start.p0i8(i64 24, i8* nonnull %12) #7
  call void @llvm.memset.p0i8.i64(i8* nonnull align 8 %12, i8 -86, i64 24, i1 false)
  call void @_ZN4base13TaskAnnotator16ScopedSetIpcHashC1Ej(%"class.base::TaskAnnotator::ScopedSetIpcHash"* nonnull %3, i32 -1151562989) #7
  %13 = call i8* @_ZNK4mojo7Message7payloadEv(%"class.mojo::Message"* %1) #7
  %14 = getelementptr inbounds %"class.absl::optional", %"class.absl::optional"* %4, i64 0, i32 0, i32 0, i32 0, i32 0
  call void @llvm.lifetime.start.p0i8(i64 128, i8* nonnull %14) #7
  %15 = bitcast %"class.absl::optional"* %4 to i64*
  store i64 -6148914691236517206, i64* %15, align 8
  store i8 0, i8* %14, align 8
  %16 = getelementptr inbounds %"class.absl::optional", %"class.absl::optional"* %4, i64 0, i32 0, i32 0, i32 0, i32 1
  %17 = bitcast %union.anon* %16 to i8*
  call void @llvm.memset.p0i8.i64(i8* align 8 %17, i8 0, i64 120, i1 false) #7
  %18 = getelementptr inbounds i8, i8* %13, i64 8
  %19 = bitcast i8* %18 to i64*
  %20 = load i64, i64* %19, align 8
  %21 = icmp eq i64 %20, 0
  br i1 %21, label %28, label %22

22:                                               ; preds = %11
  %23 = getelementptr inbounds i8, i8* %18, i64 %20
  %24 = bitcast i8* %23 to %"class.url::mojom::internal::Url_Data"*
  %25 = getelementptr inbounds %"class.absl::optional", %"class.absl::optional"* %4, i64 0, i32 0, i32 0, i32 0, i32 1, i32 0
  call void @_ZN4GURLC1Ev(%class.GURL* %25) #7
  store i8 1, i8* %14, align 8
  %26 = call zeroext i1 @_ZN4mojo12StructTraitsIN3url5mojom11UrlDataViewE4GURLE4ReadES3_PS4_(%"class.url::mojom::internal::Url_Data"* nonnull %24, %"class.mojo::Message"* %1, %class.GURL* %25) #7
  br i1 %26, label %28, label %27

27:                                               ; preds = %22
  call void @_ZN4mojo8internal31ReportValidationErrorForMessageEPNS_7MessageENS0_15ValidationErrorEPKcjb(%"class.mojo::Message"* %1, i32 17, i8* getelementptr inbounds ([38 x i8], [38 x i8]* @_ZN5blink5mojom25ManifestUrlChangeObserver5Name_E, i64 0, i64 0), i32 0, i1 zeroext false) #7
  br label %33

28:                                               ; preds = %11, %22
  %29 = bitcast %"class.blink::mojom::ManifestUrlChangeObserver"* %0 to void (%"class.blink::mojom::ManifestUrlChangeObserver"*, %"class.absl::optional"*)***
  %30 = load void (%"class.blink::mojom::ManifestUrlChangeObserver"*, %"class.absl::optional"*)**, void (%"class.blink::mojom::ManifestUrlChangeObserver"*, %"class.absl::optional"*)*** %29, align 8
  %31 = getelementptr inbounds void (%"class.blink::mojom::ManifestUrlChangeObserver"*, %"class.absl::optional"*)*, void (%"class.blink::mojom::ManifestUrlChangeObserver"*, %"class.absl::optional"*)** %30, i64 2
  %32 = load void (%"class.blink::mojom::ManifestUrlChangeObserver"*, %"class.absl::optional"*)*, void (%"class.blink::mojom::ManifestUrlChangeObserver"*, %"class.absl::optional"*)** %31, align 8
  call void %32(%"class.blink::mojom::ManifestUrlChangeObserver"* %0, %"class.absl::optional"* nonnull dereferenceable(128) %4) #7
  br label %33

33:                                               ; preds = %28, %27
  %34 = phi i1 [ true, %28 ], [ false, %27 ]
  %35 = load i8, i8* %14, align 8, !range !2
  %36 = icmp eq i8 %35, 0
  br i1 %36, label %39, label %37

37:                                               ; preds = %33
  %38 = getelementptr inbounds %"class.absl::optional", %"class.absl::optional"* %4, i64 0, i32 0, i32 0, i32 0, i32 1, i32 0
  call void @_ZN4GURLD1Ev(%class.GURL* %38) #7
  store i8 0, i8* %14, align 8
  br label %39

39:                                               ; preds = %33, %37
  call void @llvm.lifetime.end.p0i8(i64 128, i8* nonnull %14) #7
  call void @_ZN4base13TaskAnnotator16ScopedSetIpcHashD1Ev(%"class.base::TaskAnnotator::ScopedSetIpcHash"* nonnull %3) #7
  call void @llvm.lifetime.end.p0i8(i64 24, i8* nonnull %12) #7
  br label %40

40:                                               ; preds = %2, %39
  %41 = phi i1 [ %34, %39 ], [ false, %2 ]
  ret i1 %41
}

; Function Attrs: argmemonly nounwind
declare void @llvm.memcpy.p0i8.p0i8.i64(i8* nocapture writeonly, i8* nocapture readonly, i64, i1 immarg) #2

declare void @_ZN4base13TaskAnnotator16ScopedSetIpcHashC1Ej(%"class.base::TaskAnnotator::ScopedSetIpcHash"*, i32) unnamed_addr #3

declare void @_ZN4mojo8internal31ReportValidationErrorForMessageEPNS_7MessageENS0_15ValidationErrorEPKcjb(%"class.mojo::Message"*, i32, i8*, i32, i1 zeroext) local_unnamed_addr #3

; Function Attrs: nounwind
declare void @_ZN4base13TaskAnnotator16ScopedSetIpcHashD1Ev(%"class.base::TaskAnnotator::ScopedSetIpcHash"*) unnamed_addr #4

; Function Attrs: nounwind ssp uwtable
define hidden zeroext i1 @_ZN5blink5mojom37ManifestUrlChangeObserverStubDispatch19AcceptWithResponderEPNS0_25ManifestUrlChangeObserverEPN4mojo7MessageENSt3__110unique_ptrINS4_25MessageReceiverWithStatusENS7_14default_deleteIS9_EEEE(%"class.blink::mojom::ManifestUrlChangeObserver"* nocapture readnone, %"class.mojo::Message"* nocapture readonly, %"class.mojo::MessageReceiverWithStatus"*) local_unnamed_addr #1 align 2 {
  %4 = icmp eq %"class.mojo::MessageReceiverWithStatus"* %2, null
  br i1 %4, label %10, label %5

5:                                                ; preds = %3
  %6 = bitcast %"class.mojo::MessageReceiverWithStatus"* %2 to void (%"class.mojo::MessageReceiverWithStatus"*)***
  %7 = load void (%"class.mojo::MessageReceiverWithStatus"*)**, void (%"class.mojo::MessageReceiverWithStatus"*)*** %6, align 8
  %8 = getelementptr inbounds void (%"class.mojo::MessageReceiverWithStatus"*)*, void (%"class.mojo::MessageReceiverWithStatus"*)** %7, i64 1
  %9 = load void (%"class.mojo::MessageReceiverWithStatus"*)*, void (%"class.mojo::MessageReceiverWithStatus"*)** %8, align 8
  tail call void %9(%"class.mojo::MessageReceiverWithStatus"* nonnull %2) #7
  br label %10

10:                                               ; preds = %3, %5
  ret i1 false
}

; Function Attrs: nounwind ssp uwtable
define hidden zeroext i1 @_ZN5blink5mojom41ManifestUrlChangeObserverRequestValidator6AcceptEPN4mojo7MessageE(%"class.blink::mojom::ManifestUrlChangeObserverRequestValidator"* nocapture readnone, %"class.mojo::Message"*) unnamed_addr #1 align 2 {
  %3 = tail call zeroext i1 @_ZN4mojo8internal28ValidateRequestGenericPackedEPNS_7MessageEPKcN4base4spanIKNS0_21GenericValidationInfoELm18446744073709551615EEE(%"class.mojo::Message"* %1, i8* getelementptr inbounds ([38 x i8], [38 x i8]* @_ZN5blink5mojom25ManifestUrlChangeObserver5Name_E, i64 0, i64 0), i64 1, %"struct.mojo::internal::GenericValidationInfo"* getelementptr inbounds ([1 x %"struct.mojo::internal::GenericValidationInfo"], [1 x %"struct.mojo::internal::GenericValidationInfo"]* @_ZN5blink5mojomL40kManifestUrlChangeObserverValidationInfoE, i64 0, i64 0)) #7
  ret i1 %3
}

declare zeroext i1 @_ZN4mojo8internal28ValidateRequestGenericPackedEPNS_7MessageEPKcN4base4spanIKNS0_21GenericValidationInfoELm18446744073709551615EEE(%"class.mojo::Message"*, i8*, i64, %"struct.mojo::internal::GenericValidationInfo"*) local_unnamed_addr #3

; Function Attrs: inlinehint nounwind ssp uwtable
define linkonce_odr hidden void @_ZN5blink5mojom30ManifestUrlChangeObserverProxyD0Ev(%"class.blink::mojom::ManifestUrlChangeObserverProxy"*) unnamed_addr #5 comdat align 2 {
  %2 = bitcast %"class.blink::mojom::ManifestUrlChangeObserverProxy"* %0 to i8*
  tail call void @_ZdlPv(i8* %2) #8
  ret void
}

; Function Attrs: nounwind ssp uwtable
define linkonce_odr hidden void @_ZN4mojo15MessageReceiverD2Ev(%"class.mojo::MessageReceiver"*) unnamed_addr #1 comdat align 2 {
  ret void
}

; Function Attrs: inlinehint nounwind ssp uwtable
define linkonce_odr hidden void @_ZN5blink5mojom41ManifestUrlChangeObserverRequestValidatorD0Ev(%"class.blink::mojom::ManifestUrlChangeObserverRequestValidator"*) unnamed_addr #5 comdat align 2 {
  %2 = bitcast %"class.blink::mojom::ManifestUrlChangeObserverRequestValidator"* %0 to i8*
  tail call void @_ZdlPv(i8* %2) #8
  ret void
}

declare zeroext i1 @_ZN4mojo15MessageReceiver25PrefersSerializedMessagesEv(%"class.mojo::MessageReceiver"*) unnamed_addr #3

; Function Attrs: nounwind ssp uwtable
define linkonce_odr hidden void @_ZN5blink5mojom25ManifestUrlChangeObserverD2Ev(%"class.blink::mojom::ManifestUrlChangeObserver"*) unnamed_addr #1 comdat align 2 {
  ret void
}

declare i8* @_ZNK4mojo7Message7payloadEv(%"class.mojo::Message"*) local_unnamed_addr #3

; Function Attrs: nounwind
declare void @_ZN4GURLD1Ev(%class.GURL*) unnamed_addr #4

declare zeroext i1 @_ZN5blink5mojom8internal56ManifestUrlChangeObserver_ManifestUrlChanged_Params_Data8ValidateEPKvPN4mojo8internal17ValidationContextE(i8*, %"class.mojo::internal::ValidationContext"*) #3

; Function Attrs: nobuiltin nounwind
declare void @_ZdlPv(i8*) local_unnamed_addr #6

declare i64 @_ZN4mojo8internal6Buffer8AllocateEm(%"class.mojo::internal::Buffer"*, i64) local_unnamed_addr #3

declare void @_ZN5blink5mojom8internal56ManifestUrlChangeObserver_ManifestUrlChanged_Params_DataC1Ev(%"class.blink::mojom::internal::ManifestUrlChangeObserver_ManifestUrlChanged_Params_Data"*) unnamed_addr #3

declare { i8*, i64 } @_ZN4mojo12StructTraitsIN3url5mojom11UrlDataViewE4GURLE3urlERKS4_(%class.GURL* dereferenceable(120)) local_unnamed_addr #3

declare void @_ZN3url5mojom8internal8Url_DataC1Ev(%"class.url::mojom::internal::Url_Data"*) unnamed_addr #3

declare void @_ZN4GURLC1Ev(%class.GURL*) unnamed_addr #3

declare zeroext i1 @_ZN4mojo12StructTraitsIN3url5mojom11UrlDataViewE4GURLE4ReadES3_PS4_(%"class.url::mojom::internal::Url_Data"*, %"class.mojo::Message"*, %class.GURL*) local_unnamed_addr #3

attributes #0 = { nofree norecurse nounwind ssp uwtable writeonly "correctly-rounded-divide-sqrt-fp-math"="false" "disable-tail-calls"="false" "less-precise-fpmad"="false" "min-legal-vector-width"="0" "no-frame-pointer-elim"="false" "no-frame-pointer-elim-non-leaf" "no-infs-fp-math"="false" "no-jump-tables"="false" "no-nans-fp-math"="false" "no-signed-zeros-fp-math"="false" "no-trapping-math"="false" "null-pointer-is-valid"="true" "stack-protector-buffer-size"="4" "target-cpu"="x86-64" "target-features"="+cx8,+fxsr,+mmx,+sse,+sse2,+sse3,+x87" "unsafe-fp-math"="false" "use-soft-float"="false" }
attributes #1 = { nounwind ssp uwtable "correctly-rounded-divide-sqrt-fp-math"="false" "disable-tail-calls"="false" "less-precise-fpmad"="false" "min-legal-vector-width"="0" "no-frame-pointer-elim"="false" "no-frame-pointer-elim-non-leaf" "no-infs-fp-math"="false" "no-jump-tables"="false" "no-nans-fp-math"="false" "no-signed-zeros-fp-math"="false" "no-trapping-math"="false" "null-pointer-is-valid"="true" "stack-protector-buffer-size"="4" "target-cpu"="x86-64" "target-features"="+cx8,+fxsr,+mmx,+sse,+sse2,+sse3,+x87" "unsafe-fp-math"="false" "use-soft-float"="false" }
attributes #2 = { argmemonly nounwind }
attributes #3 = { "correctly-rounded-divide-sqrt-fp-math"="false" "disable-tail-calls"="false" "less-precise-fpmad"="false" "no-frame-pointer-elim"="false" "no-frame-pointer-elim-non-leaf" "no-infs-fp-math"="false" "no-nans-fp-math"="false" "no-signed-zeros-fp-math"="false" "no-trapping-math"="false" "null-pointer-is-valid"="true" "stack-protector-buffer-size"="4" "target-cpu"="x86-64" "target-features"="+cx8,+fxsr,+mmx,+sse,+sse2,+sse3,+x87" "unsafe-fp-math"="false" "use-soft-float"="false" }
attributes #4 = { nounwind "correctly-rounded-divide-sqrt-fp-math"="false" "disable-tail-calls"="false" "less-precise-fpmad"="false" "no-frame-pointer-elim"="false" "no-frame-pointer-elim-non-leaf" "no-infs-fp-math"="false" "no-nans-fp-math"="false" "no-signed-zeros-fp-math"="false" "no-trapping-math"="false" "null-pointer-is-valid"="true" "stack-protector-buffer-size"="4" "target-cpu"="x86-64" "target-features"="+cx8,+fxsr,+mmx,+sse,+sse2,+sse3,+x87" "unsafe-fp-math"="false" "use-soft-float"="false" }
attributes #5 = { inlinehint nounwind ssp uwtable "correctly-rounded-divide-sqrt-fp-math"="false" "disable-tail-calls"="false" "less-precise-fpmad"="false" "min-legal-vector-width"="0" "no-frame-pointer-elim"="false" "no-frame-pointer-elim-non-leaf" "no-infs-fp-math"="false" "no-jump-tables"="false" "no-nans-fp-math"="false" "no-signed-zeros-fp-math"="false" "no-trapping-math"="false" "null-pointer-is-valid"="true" "stack-protector-buffer-size"="4" "target-cpu"="x86-64" "target-features"="+cx8,+fxsr,+mmx,+sse,+sse2,+sse3,+x87" "unsafe-fp-math"="false" "use-soft-float"="false" }
attributes #6 = { nobuiltin nounwind "correctly-rounded-divide-sqrt-fp-math"="false" "disable-tail-calls"="false" "less-precise-fpmad"="false" "no-frame-pointer-elim"="false" "no-frame-pointer-elim-non-leaf" "no-infs-fp-math"="false" "no-nans-fp-math"="false" "no-signed-zeros-fp-math"="false" "no-trapping-math"="false" "null-pointer-is-valid"="true" "stack-protector-buffer-size"="4" "target-cpu"="x86-64" "target-features"="+cx8,+fxsr,+mmx,+sse,+sse2,+sse3,+x87" "unsafe-fp-math"="false" "use-soft-float"="false" }
attributes #7 = { nounwind }
attributes #8 = { builtin nounwind }

!llvm.module.flags = !{!0, !1}

!0 = !{i32 1, !"wchar_size", i32 4}
!1 = !{i32 7, !"PIC Level", i32 2}
!2 = !{i8 0, i8 2}
