; ModuleID = '../../extensions/common/manifest_constants.cc'
source_filename = "../../extensions/common/manifest_constants.cc"
target datalayout = "e-m:e-i64:64-f80:128-n8:16:32:64-S128"
target triple = "x86_64-unknown-linux-gnu"

@_ZN10extensions13manifest_keys10kAboutPageE = hidden local_unnamed_addr constant [11 x i8] c"about_page\00", align 1
@_ZN10extensions13manifest_keys7kActionE = hidden local_unnamed_addr constant [7 x i8] c"action\00", align 1
@_ZN10extensions13manifest_keys18kActionDefaultIconE = hidden local_unnamed_addr constant [13 x i8] c"default_icon\00", align 1
@_ZN10extensions13manifest_keys19kActionDefaultPopupE = hidden local_unnamed_addr constant [14 x i8] c"default_popup\00", align 1
@_ZN10extensions13manifest_keys19kActionDefaultStateE = hidden local_unnamed_addr constant [14 x i8] c"default_state\00", align 1
@_ZN10extensions13manifest_keys19kActionDefaultTitleE = hidden local_unnamed_addr constant [14 x i8] c"default_title\00", align 1
@_ZN10extensions13manifest_keys4kAppE = hidden local_unnamed_addr constant [4 x i8] c"app\00", align 1
@_ZN10extensions13manifest_keys15kAppDisplayModeE = hidden local_unnamed_addr constant [17 x i8] c"app.display_mode\00", align 16
@_ZN10extensions13manifest_keys13kAppIconColorE = hidden local_unnamed_addr constant [15 x i8] c"app.icon_color\00", align 1
@_ZN10extensions13manifest_keys14kAppThemeColorE = hidden local_unnamed_addr constant [16 x i8] c"app.theme_color\00", align 16
@_ZN10extensions13manifest_keys11kAutomationE = hidden local_unnamed_addr constant [11 x i8] c"automation\00", align 1
@_ZN10extensions13manifest_keys11kBackgroundE = hidden local_unnamed_addr constant [11 x i8] c"background\00", align 1
@_ZN10extensions13manifest_keys24kBackgroundAllowJsAccessE = hidden local_unnamed_addr constant [27 x i8] c"background.allow_js_access\00", align 16
@_ZN10extensions13manifest_keys15kBackgroundPageE = hidden local_unnamed_addr constant [16 x i8] c"background.page\00", align 16
@_ZN10extensions13manifest_keys21kBackgroundPersistentE = hidden local_unnamed_addr constant [22 x i8] c"background.persistent\00", align 16
@_ZN10extensions13manifest_keys18kBackgroundScriptsE = hidden local_unnamed_addr constant [19 x i8] c"background.scripts\00", align 16
@_ZN10extensions13manifest_keys30kBackgroundServiceWorkerScriptE = hidden local_unnamed_addr constant [26 x i8] c"background.service_worker\00", align 16
@_ZN10extensions13manifest_keys28kBackgroundServiceWorkerTypeE = hidden local_unnamed_addr constant [16 x i8] c"background.type\00", align 16
@_ZN10extensions13manifest_keys10kBluetoothE = hidden local_unnamed_addr constant [10 x i8] c"bluetooth\00", align 1
@_ZN10extensions13manifest_keys11kBookmarkUIE = hidden local_unnamed_addr constant [13 x i8] c"bookmarks_ui\00", align 1
@_ZN10extensions13manifest_keys14kBrowserActionE = hidden local_unnamed_addr constant [15 x i8] c"browser_action\00", align 1
@_ZN10extensions13manifest_keys19kChromeURLOverridesE = hidden local_unnamed_addr constant [21 x i8] c"chrome_url_overrides\00", align 16
@_ZN10extensions13manifest_keys9kCommandsE = hidden local_unnamed_addr constant [9 x i8] c"commands\00", align 1
@_ZN10extensions13manifest_keys20kContentCapabilitiesE = hidden local_unnamed_addr constant [21 x i8] c"content_capabilities\00", align 16
@_ZN10extensions13manifest_keys22kContentSecurityPolicyE = hidden local_unnamed_addr constant [24 x i8] c"content_security_policy\00", align 16
@_ZN10extensions13manifest_keys41kContentSecurityPolicy_ExtensionPagesPathE = hidden local_unnamed_addr constant [40 x i8] c"content_security_policy.extension_pages\00", align 16
@_ZN10extensions13manifest_keys41kContentSecurityPolicy_SandboxedPagesPathE = hidden local_unnamed_addr constant [32 x i8] c"content_security_policy.sandbox\00", align 16
@_ZN10extensions13manifest_keys24kConvertedFromUserScriptE = hidden local_unnamed_addr constant [27 x i8] c"converted_from_user_script\00", align 16
@_ZN10extensions13manifest_keys14kCurrentLocaleE = hidden local_unnamed_addr constant [15 x i8] c"current_locale\00", align 1
@_ZN10extensions13manifest_keys14kDefaultLocaleE = hidden local_unnamed_addr constant [15 x i8] c"default_locale\00", align 1
@_ZN10extensions13manifest_keys12kDescriptionE = hidden local_unnamed_addr constant [12 x i8] c"description\00", align 1
@_ZN10extensions13manifest_keys13kDevToolsPageE = hidden local_unnamed_addr constant [14 x i8] c"devtools_page\00", align 1
@_ZN10extensions13manifest_keys24kDifferentialFingerprintE = hidden local_unnamed_addr constant [25 x i8] c"differential_fingerprint\00", align 16
@_ZN10extensions13manifest_keys18kDisplayInLauncherE = hidden local_unnamed_addr constant [20 x i8] c"display_in_launcher\00", align 16
@_ZN10extensions13manifest_keys20kDisplayInNewTabPageE = hidden local_unnamed_addr constant [24 x i8] c"display_in_new_tab_page\00", align 16
@_ZN10extensions13manifest_keys10kEventNameE = hidden local_unnamed_addr constant [11 x i8] c"event_name\00", align 1
@_ZN10extensions13manifest_keys22kExternallyConnectableE = hidden local_unnamed_addr constant [23 x i8] c"externally_connectable\00", align 16
@_ZN10extensions13manifest_keys11kEventRulesE = hidden local_unnamed_addr constant [12 x i8] c"event_rules\00", align 1
@_ZN10extensions13manifest_keys15kFileAccessListE = hidden local_unnamed_addr constant [12 x i8] c"file_access\00", align 1
@_ZN10extensions13manifest_keys12kFileFiltersE = hidden local_unnamed_addr constant [13 x i8] c"file_filters\00", align 1
@_ZN10extensions13manifest_keys21kFileBrowserHandlerIdE = hidden local_unnamed_addr constant [3 x i8] c"id\00", align 1
@_ZN10extensions13manifest_keys20kFileBrowserHandlersE = hidden local_unnamed_addr constant [22 x i8] c"file_browser_handlers\00", align 16
@_ZN10extensions13manifest_keys13kFileHandlersE = hidden local_unnamed_addr constant [14 x i8] c"file_handlers\00", align 1
@_ZN10extensions13manifest_keys22kFileHandlerExtensionsE = hidden local_unnamed_addr constant [11 x i8] c"extensions\00", align 1
@_ZN10extensions13manifest_keys30kFileHandlerIncludeDirectoriesE = hidden local_unnamed_addr constant [20 x i8] c"include_directories\00", align 16
@_ZN10extensions13manifest_keys17kFileHandlerTypesE = hidden local_unnamed_addr constant [6 x i8] c"types\00", align 1
@_ZN10extensions13manifest_keys16kFileHandlerVerbE = hidden local_unnamed_addr constant [5 x i8] c"verb\00", align 1
@_ZN10extensions13manifest_keys7kGlobalE = hidden local_unnamed_addr constant [7 x i8] c"global\00", align 1
@_ZN10extensions13manifest_keys19kHideBookmarkButtonE = hidden local_unnamed_addr constant [21 x i8] c"hide_bookmark_button\00", align 16
@_ZN10extensions13manifest_keys12kHomepageURLE = hidden local_unnamed_addr constant [13 x i8] c"homepage_url\00", align 1
@_ZN10extensions13manifest_keys16kHostPermissionsE = hidden local_unnamed_addr constant [17 x i8] c"host_permissions\00", align 16
@_ZN10extensions13manifest_keys6kIconsE = hidden local_unnamed_addr constant [6 x i8] c"icons\00", align 1
@_ZN10extensions13manifest_keys3kIdE = hidden local_unnamed_addr constant [3 x i8] c"id\00", align 1
@_ZN10extensions13manifest_keys15kImeOptionsPageE = hidden local_unnamed_addr constant [13 x i8] c"options_page\00", align 1
@_ZN10extensions13manifest_keys10kIndicatorE = hidden local_unnamed_addr constant [10 x i8] c"indicator\00", align 1
@_ZN10extensions13manifest_keys16kInputComponentsE = hidden local_unnamed_addr constant [17 x i8] c"input_components\00", align 16
@_ZN10extensions13manifest_keys10kInputViewE = hidden local_unnamed_addr constant [11 x i8] c"input_view\00", align 1
@_ZN10extensions13manifest_keys10kIsolationE = hidden local_unnamed_addr constant [14 x i8] c"app.isolation\00", align 1
@_ZN10extensions13manifest_keys4kKeyE = hidden local_unnamed_addr constant [4 x i8] c"key\00", align 1
@_ZN10extensions13manifest_keys6kKioskE = hidden local_unnamed_addr constant [6 x i8] c"kiosk\00", align 1
@_ZN10extensions13manifest_keys18kKioskAlwaysUpdateE = hidden local_unnamed_addr constant [20 x i8] c"kiosk.always_update\00", align 16
@_ZN10extensions13manifest_keys13kKioskEnabledE = hidden local_unnamed_addr constant [14 x i8] c"kiosk_enabled\00", align 1
@_ZN10extensions13manifest_keys10kKioskOnlyE = hidden local_unnamed_addr constant [11 x i8] c"kiosk_only\00", align 1
@_ZN10extensions13manifest_keys10kKioskModeE = hidden local_unnamed_addr constant [11 x i8] c"kiosk_mode\00", align 1
@_ZN10extensions13manifest_keys29kKioskRequiredPlatformVersionE = hidden local_unnamed_addr constant [32 x i8] c"kiosk.required_platform_version\00", align 16
@_ZN10extensions13manifest_keys19kKioskSecondaryAppsE = hidden local_unnamed_addr constant [21 x i8] c"kiosk_secondary_apps\00", align 16
@_ZN10extensions13manifest_keys9kLanguageE = hidden local_unnamed_addr constant [9 x i8] c"language\00", align 1
@_ZN10extensions13manifest_keys7kLaunchE = hidden local_unnamed_addr constant [11 x i8] c"app.launch\00", align 1
@_ZN10extensions13manifest_keys16kLaunchContainerE = hidden local_unnamed_addr constant [21 x i8] c"app.launch.container\00", align 16
@_ZN10extensions13manifest_keys13kLaunchHeightE = hidden local_unnamed_addr constant [18 x i8] c"app.launch.height\00", align 16
@_ZN10extensions13manifest_keys16kLaunchLocalPathE = hidden local_unnamed_addr constant [22 x i8] c"app.launch.local_path\00", align 16
@_ZN10extensions13manifest_keys13kLaunchWebURLE = hidden local_unnamed_addr constant [19 x i8] c"app.launch.web_url\00", align 16
@_ZN10extensions13manifest_keys12kLaunchWidthE = hidden local_unnamed_addr constant [17 x i8] c"app.launch.width\00", align 16
@_ZN10extensions13manifest_keys8kLayoutsE = hidden local_unnamed_addr constant [8 x i8] c"layouts\00", align 1
@_ZN10extensions13manifest_keys15kLinkedAppIconsE = hidden local_unnamed_addr constant [17 x i8] c"app.linked_icons\00", align 16
@_ZN10extensions13manifest_keys17kLinkedAppIconURLE = hidden local_unnamed_addr constant [4 x i8] c"url\00", align 1
@_ZN10extensions13manifest_keys18kLinkedAppIconSizeE = hidden local_unnamed_addr constant [5 x i8] c"size\00", align 1
@_ZN10extensions13manifest_keys16kManifestVersionE = hidden local_unnamed_addr constant [17 x i8] c"manifest_version\00", align 16
@_ZN10extensions13manifest_keys8kMatchesE = hidden local_unnamed_addr constant [8 x i8] c"matches\00", align 1
@_ZN10extensions13manifest_keys21kMinimumChromeVersionE = hidden local_unnamed_addr constant [23 x i8] c"minimum_chrome_version\00", align 16
@_ZN10extensions13manifest_keys10kMIMETypesE = hidden local_unnamed_addr constant [11 x i8] c"mime_types\00", align 1
@_ZN10extensions13manifest_keys17kMimeTypesHandlerE = hidden local_unnamed_addr constant [19 x i8] c"mime_types_handler\00", align 16
@_ZN10extensions13manifest_keys5kNameE = hidden local_unnamed_addr constant [5 x i8] c"name\00", align 1
@_ZN10extensions13manifest_keys12kNaClModulesE = hidden local_unnamed_addr constant [13 x i8] c"nacl_modules\00", align 1
@_ZN10extensions13manifest_keys20kNaClModulesMIMETypeE = hidden local_unnamed_addr constant [10 x i8] c"mime_type\00", align 1
@_ZN10extensions13manifest_keys16kNaClModulesPathE = hidden local_unnamed_addr constant [5 x i8] c"path\00", align 1
@_ZN10extensions13manifest_keys20kNativelyConnectableE = hidden local_unnamed_addr constant [21 x i8] c"natively_connectable\00", align 16
@_ZN10extensions13manifest_keys7kOAuth2E = hidden local_unnamed_addr constant [7 x i8] c"oauth2\00", align 1
@_ZN10extensions13manifest_keys18kOAuth2AutoApproveE = hidden local_unnamed_addr constant [20 x i8] c"oauth2.auto_approve\00", align 16
@_ZN10extensions13manifest_keys15kOAuth2ClientIdE = hidden local_unnamed_addr constant [17 x i8] c"oauth2.client_id\00", align 16
@_ZN10extensions13manifest_keys13kOAuth2ScopesE = hidden local_unnamed_addr constant [14 x i8] c"oauth2.scopes\00", align 1
@_ZN10extensions13manifest_keys15kOfflineEnabledE = hidden local_unnamed_addr constant [16 x i8] c"offline_enabled\00", align 16
@_ZN10extensions13manifest_keys15kOmniboxKeywordE = hidden local_unnamed_addr constant [16 x i8] c"omnibox.keyword\00", align 16
@_ZN10extensions13manifest_keys20kOptionalPermissionsE = hidden local_unnamed_addr constant [21 x i8] c"optional_permissions\00", align 16
@_ZN10extensions13manifest_keys12kOptionsPageE = hidden local_unnamed_addr constant [13 x i8] c"options_page\00", align 1
@_ZN10extensions13manifest_keys10kOptionsUIE = hidden local_unnamed_addr constant [11 x i8] c"options_ui\00", align 1
@_ZN10extensions13manifest_keys17kOverrideHomepageE = hidden local_unnamed_addr constant [35 x i8] c"chrome_settings_overrides.homepage\00", align 16
@_ZN10extensions13manifest_keys23kOverrideSearchProviderE = hidden local_unnamed_addr constant [42 x i8] c"chrome_settings_overrides.search_provider\00", align 16
@_ZN10extensions13manifest_keys20kOverrideStartupPageE = hidden local_unnamed_addr constant [40 x i8] c"chrome_settings_overrides.startup_pages\00", align 16
@_ZN10extensions13manifest_keys11kPageActionE = hidden local_unnamed_addr constant [12 x i8] c"page_action\00", align 1
@_ZN10extensions13manifest_keys12kPermissionsE = hidden local_unnamed_addr constant [12 x i8] c"permissions\00", align 1
@_ZN10extensions13manifest_keys22kPlatformAppBackgroundE = hidden local_unnamed_addr constant [15 x i8] c"app.background\00", align 1
@_ZN10extensions13manifest_keys26kPlatformAppBackgroundPageE = hidden local_unnamed_addr constant [20 x i8] c"app.background.page\00", align 16
@_ZN10extensions13manifest_keys29kPlatformAppBackgroundScriptsE = hidden local_unnamed_addr constant [23 x i8] c"app.background.scripts\00", align 16
@_ZN10extensions13manifest_keys33kPlatformAppContentSecurityPolicyE = hidden local_unnamed_addr constant [28 x i8] c"app.content_security_policy\00", align 16
@_ZN10extensions13manifest_keys10kPublicKeyE = hidden local_unnamed_addr constant [4 x i8] c"key\00", align 1
@_ZN10extensions13manifest_keys13kRemoveButtonE = hidden local_unnamed_addr constant [14 x i8] c"remove_button\00", align 1
@_ZN10extensions13manifest_keys22kReplacementAndroidAppE = hidden local_unnamed_addr constant [24 x i8] c"replacement_android_app\00", align 16
@_ZN10extensions13manifest_keys18kReplacementWebAppE = hidden local_unnamed_addr constant [20 x i8] c"replacement_web_app\00", align 16
@_ZN10extensions13manifest_keys15kSandboxedPagesE = hidden local_unnamed_addr constant [14 x i8] c"sandbox.pages\00", align 1
@_ZN10extensions13manifest_keys18kSandboxedPagesCSPE = hidden local_unnamed_addr constant [32 x i8] c"sandbox.content_security_policy\00", align 16
@_ZN10extensions13manifest_keys17kSettingsOverrideE = hidden local_unnamed_addr constant [26 x i8] c"chrome_settings_overrides\00", align 16
@_ZN10extensions13manifest_keys30kSettingsOverrideAlternateUrlsE = hidden local_unnamed_addr constant [57 x i8] c"chrome_settings_overrides.search_provider.alternate_urls\00", align 16
@_ZN10extensions13manifest_keys10kShortNameE = hidden local_unnamed_addr constant [11 x i8] c"short_name\00", align 1
@_ZN10extensions13manifest_keys8kSocketsE = hidden local_unnamed_addr constant [8 x i8] c"sockets\00", align 1
@_ZN10extensions13manifest_keys21kStorageManagedSchemaE = hidden local_unnamed_addr constant [23 x i8] c"storage.managed_schema\00", align 16
@_ZN10extensions13manifest_keys13kSuggestedKeyE = hidden local_unnamed_addr constant [14 x i8] c"suggested_key\00", align 1
@_ZN10extensions13manifest_keys16kSystemIndicatorE = hidden local_unnamed_addr constant [17 x i8] c"system_indicator\00", align 16
@_ZN10extensions13manifest_keys6kThemeE = hidden local_unnamed_addr constant [6 x i8] c"theme\00", align 1
@_ZN10extensions13manifest_keys12kThemeColorsE = hidden local_unnamed_addr constant [7 x i8] c"colors\00", align 1
@_ZN10extensions13manifest_keys23kThemeDisplayPropertiesE = hidden local_unnamed_addr constant [11 x i8] c"properties\00", align 1
@_ZN10extensions13manifest_keys12kThemeImagesE = hidden local_unnamed_addr constant [7 x i8] c"images\00", align 1
@_ZN10extensions13manifest_keys11kThemeTintsE = hidden local_unnamed_addr constant [6 x i8] c"tints\00", align 1
@_ZN10extensions13manifest_keys10kTtsEngineE = hidden local_unnamed_addr constant [11 x i8] c"tts_engine\00", align 1
@_ZN10extensions13manifest_keys10kTtsVoicesE = hidden local_unnamed_addr constant [7 x i8] c"voices\00", align 1
@_ZN10extensions13manifest_keys22kTtsVoicesEventTypeEndE = hidden local_unnamed_addr constant [4 x i8] c"end\00", align 1
@_ZN10extensions13manifest_keys24kTtsVoicesEventTypeErrorE = hidden local_unnamed_addr constant [6 x i8] c"error\00", align 1
@_ZN10extensions13manifest_keys25kTtsVoicesEventTypeMarkerE = hidden local_unnamed_addr constant [7 x i8] c"marker\00", align 1
@_ZN10extensions13manifest_keys27kTtsVoicesEventTypeSentenceE = hidden local_unnamed_addr constant [9 x i8] c"sentence\00", align 1
@_ZN10extensions13manifest_keys24kTtsVoicesEventTypeStartE = hidden local_unnamed_addr constant [6 x i8] c"start\00", align 1
@_ZN10extensions13manifest_keys23kTtsVoicesEventTypeWordE = hidden local_unnamed_addr constant [5 x i8] c"word\00", align 1
@_ZN10extensions13manifest_keys20kTtsVoicesEventTypesE = hidden local_unnamed_addr constant [12 x i8] c"event_types\00", align 1
@_ZN10extensions13manifest_keys16kTtsVoicesGenderE = hidden local_unnamed_addr constant [7 x i8] c"gender\00", align 1
@_ZN10extensions13manifest_keys14kTtsVoicesLangE = hidden local_unnamed_addr constant [5 x i8] c"lang\00", align 1
@_ZN10extensions13manifest_keys16kTtsVoicesRemoteE = hidden local_unnamed_addr constant [7 x i8] c"remote\00", align 1
@_ZN10extensions13manifest_keys19kTtsVoicesVoiceNameE = hidden local_unnamed_addr constant [11 x i8] c"voice_name\00", align 1
@_ZN10extensions13manifest_keys10kUpdateURLE = hidden local_unnamed_addr constant [11 x i8] c"update_url\00", align 1
@_ZN10extensions13manifest_keys12kUrlHandlersE = hidden local_unnamed_addr constant [13 x i8] c"url_handlers\00", align 1
@_ZN10extensions13manifest_keys16kUrlHandlerTitleE = hidden local_unnamed_addr constant [6 x i8] c"title\00", align 1
@_ZN10extensions13manifest_keys12kUsbPrintersE = hidden local_unnamed_addr constant [13 x i8] c"usb_printers\00", align 1
@_ZN10extensions13manifest_keys8kVersionE = hidden local_unnamed_addr constant [8 x i8] c"version\00", align 1
@_ZN10extensions13manifest_keys12kVersionNameE = hidden local_unnamed_addr constant [13 x i8] c"version_name\00", align 1
@_ZN10extensions13manifest_keys19kWebAppFileHandlersE = hidden local_unnamed_addr constant [22 x i8] c"web_app_file_handlers\00", align 16
@_ZN10extensions13manifest_keys24kWebAppFileHandlerAcceptE = hidden local_unnamed_addr constant [7 x i8] c"accept\00", align 1
@_ZN10extensions13manifest_keys24kWebAppFileHandlerActionE = hidden local_unnamed_addr constant [7 x i8] c"action\00", align 1
@_ZN10extensions13manifest_keys26kWebAppLinkedShortcutItemsE = hidden local_unnamed_addr constant [30 x i8] c"web_app_linked_shortcut_items\00", align 16
@_ZN10extensions13manifest_keys30kWebAppLinkedShortcutItemIconsE = hidden local_unnamed_addr constant [20 x i8] c"shortcut_item_icons\00", align 16
@_ZN10extensions13manifest_keys33kWebAppLinkedShortcutItemIconSizeE = hidden local_unnamed_addr constant [5 x i8] c"size\00", align 1
@_ZN10extensions13manifest_keys32kWebAppLinkedShortcutItemIconURLE = hidden local_unnamed_addr constant [4 x i8] c"url\00", align 1
@_ZN10extensions13manifest_keys29kWebAppLinkedShortcutItemNameE = hidden local_unnamed_addr constant [5 x i8] c"name\00", align 1
@_ZN10extensions13manifest_keys28kWebAppLinkedShortcutItemURLE = hidden local_unnamed_addr constant [4 x i8] c"url\00", align 1
@_ZN10extensions13manifest_keys20kWebAppShortcutIconsE = hidden local_unnamed_addr constant [23 x i8] c"web_app_shortcut_icons\00", align 16
@_ZN10extensions13manifest_keys8kWebURLsE = hidden local_unnamed_addr constant [9 x i8] c"app.urls\00", align 1
@_ZN10extensions13manifest_keys8kWebviewE = hidden local_unnamed_addr constant [8 x i8] c"webview\00", align 1
@_ZN10extensions13manifest_keys27kWebviewAccessibleResourcesE = hidden local_unnamed_addr constant [21 x i8] c"accessible_resources\00", align 16
@_ZN10extensions13manifest_keys12kWebviewNameE = hidden local_unnamed_addr constant [5 x i8] c"name\00", align 1
@_ZN10extensions13manifest_keys18kWebviewPartitionsE = hidden local_unnamed_addr constant [11 x i8] c"partitions\00", align 1
@_ZN10extensions15manifest_values19kActionCommandEventE = hidden local_unnamed_addr constant [16 x i8] c"_execute_action\00", align 16
@_ZN10extensions15manifest_values7kApiKeyE = hidden local_unnamed_addr constant [8 x i8] c"api_key\00", align 1
@_ZN10extensions15manifest_values26kBrowserActionCommandEventE = hidden local_unnamed_addr constant [24 x i8] c"_execute_browser_action\00", align 16
@_ZN10extensions15manifest_values20kIncognitoNotAllowedE = hidden local_unnamed_addr constant [12 x i8] c"not_allowed\00", align 1
@_ZN10extensions15manifest_values15kIncognitoSplitE = hidden local_unnamed_addr constant [6 x i8] c"split\00", align 1
@_ZN10extensions15manifest_values18kIncognitoSpanningE = hidden local_unnamed_addr constant [9 x i8] c"spanning\00", align 1
@_ZN10extensions15manifest_values16kIsolatedStorageE = hidden local_unnamed_addr constant [8 x i8] c"storage\00", align 1
@_ZN10extensions15manifest_values27kKeybindingPlatformChromeOsE = hidden local_unnamed_addr constant [9 x i8] c"chromeos\00", align 1
@_ZN10extensions15manifest_values26kKeybindingPlatformDefaultE = hidden local_unnamed_addr constant [8 x i8] c"default\00", align 1
@_ZN10extensions15manifest_values24kKeybindingPlatformLinuxE = hidden local_unnamed_addr constant [6 x i8] c"linux\00", align 1
@_ZN10extensions15manifest_values22kKeybindingPlatformMacE = hidden local_unnamed_addr constant [4 x i8] c"mac\00", align 1
@_ZN10extensions15manifest_values22kKeybindingPlatformWinE = hidden local_unnamed_addr constant [8 x i8] c"windows\00", align 1
@_ZN10extensions15manifest_values7kKeyAltE = hidden local_unnamed_addr constant [4 x i8] c"Alt\00", align 1
@_ZN10extensions15manifest_values9kKeyCommaE = hidden local_unnamed_addr constant [6 x i8] c"Comma\00", align 1
@_ZN10extensions15manifest_values11kKeyCommandE = hidden local_unnamed_addr constant [8 x i8] c"Command\00", align 1
@_ZN10extensions15manifest_values8kKeyCtrlE = hidden local_unnamed_addr constant [5 x i8] c"Ctrl\00", align 1
@_ZN10extensions15manifest_values7kKeyDelE = hidden local_unnamed_addr constant [7 x i8] c"Delete\00", align 1
@_ZN10extensions15manifest_values8kKeyDownE = hidden local_unnamed_addr constant [5 x i8] c"Down\00", align 1
@_ZN10extensions15manifest_values7kKeyEndE = hidden local_unnamed_addr constant [4 x i8] c"End\00", align 1
@_ZN10extensions15manifest_values8kKeyHomeE = hidden local_unnamed_addr constant [5 x i8] c"Home\00", align 1
@_ZN10extensions15manifest_values7kKeyInsE = hidden local_unnamed_addr constant [7 x i8] c"Insert\00", align 1
@_ZN10extensions15manifest_values8kKeyLeftE = hidden local_unnamed_addr constant [5 x i8] c"Left\00", align 1
@_ZN10extensions15manifest_values11kKeyMacCtrlE = hidden local_unnamed_addr constant [8 x i8] c"MacCtrl\00", align 1
@_ZN10extensions15manifest_values18kKeyMediaNextTrackE = hidden local_unnamed_addr constant [15 x i8] c"MediaNextTrack\00", align 1
@_ZN10extensions15manifest_values18kKeyMediaPlayPauseE = hidden local_unnamed_addr constant [15 x i8] c"MediaPlayPause\00", align 1
@_ZN10extensions15manifest_values18kKeyMediaPrevTrackE = hidden local_unnamed_addr constant [15 x i8] c"MediaPrevTrack\00", align 1
@_ZN10extensions15manifest_values13kKeyMediaStopE = hidden local_unnamed_addr constant [10 x i8] c"MediaStop\00", align 1
@_ZN10extensions15manifest_values9kKeyPgDwnE = hidden local_unnamed_addr constant [9 x i8] c"PageDown\00", align 1
@_ZN10extensions15manifest_values8kKeyPgUpE = hidden local_unnamed_addr constant [7 x i8] c"PageUp\00", align 1
@_ZN10extensions15manifest_values10kKeyPeriodE = hidden local_unnamed_addr constant [7 x i8] c"Period\00", align 1
@_ZN10extensions15manifest_values9kKeyRightE = hidden local_unnamed_addr constant [6 x i8] c"Right\00", align 1
@_ZN10extensions15manifest_values10kKeySearchE = hidden local_unnamed_addr constant [7 x i8] c"Search\00", align 1
@_ZN10extensions15manifest_values13kKeySeparatorE = hidden local_unnamed_addr constant [2 x i8] c"+\00", align 1
@_ZN10extensions15manifest_values9kKeyShiftE = hidden local_unnamed_addr constant [6 x i8] c"Shift\00", align 1
@_ZN10extensions15manifest_values9kKeySpaceE = hidden local_unnamed_addr constant [6 x i8] c"Space\00", align 1
@_ZN10extensions15manifest_values7kKeyTabE = hidden local_unnamed_addr constant [4 x i8] c"Tab\00", align 1
@_ZN10extensions15manifest_values6kKeyUpE = hidden local_unnamed_addr constant [3 x i8] c"Up\00", align 1
@_ZN10extensions15manifest_values23kPageActionCommandEventE = hidden local_unnamed_addr constant [21 x i8] c"_execute_page_action\00", align 16
@_ZN10extensions15manifest_values31kLaunchContainerPanelDeprecatedE = hidden local_unnamed_addr constant [6 x i8] c"panel\00", align 1
@_ZN10extensions15manifest_values19kLaunchContainerTabE = hidden local_unnamed_addr constant [4 x i8] c"tab\00", align 1
@_ZN10extensions15manifest_values22kLaunchContainerWindowE = hidden local_unnamed_addr constant [7 x i8] c"window\00", align 1
@_ZN10extensions15manifest_errors30kActiveTabPermissionNotGrantedE = hidden local_unnamed_addr constant [92 x i8] c"The 'activeTab' permission is not in effect because this extension has not been in invoked.\00", align 16
@_ZN10extensions15manifest_errors24kAllURLOrActiveTabNeededE = hidden local_unnamed_addr constant [63 x i8] c"Either the '<all_urls>' or 'activeTab' permission is required.\00", align 16
@_ZN10extensions15manifest_errors15kAppsNotEnabledE = hidden local_unnamed_addr constant [22 x i8] c"Apps are not enabled.\00", align 16
@_ZN10extensions15manifest_errors27kBackgroundPermissionNeededE = hidden local_unnamed_addr constant [78 x i8] c"Hosted apps that use 'background_page' must have the 'background' permission.\00", align 16
@_ZN10extensions15manifest_errors34kBackgroundRequiredForPlatformAppsE = hidden local_unnamed_addr constant [65 x i8] c"Packaged apps must have a background page or background scripts.\00", align 16
@_ZN10extensions15manifest_errors44kBackgroundSpecificationInvalidForManifestV3E = hidden local_unnamed_addr constant [101 x i8] c"The \22*\22 key cannot be used with manifest_version 3. Use the \22background.service_worker\22 key instead.\00", align 16
@_ZN10extensions15manifest_errors21kCannotAccessAboutUrlE = hidden local_unnamed_addr constant [128 x i8] c"Cannot access \22*\22 at origin \22*\22. Extension must have permission to access the frame's origin, and matchAboutBlank must be true.\00", align 16
@_ZN10extensions15manifest_errors22kCannotAccessChromeUrlE = hidden local_unnamed_addr constant [30 x i8] c"Cannot access a chrome:// URL\00", align 16
@_ZN10extensions15manifest_errors25kCannotAccessExtensionUrlE = hidden local_unnamed_addr constant [63 x i8] c"Cannot access a chrome-extension:// URL of different extension\00", align 16
@_ZN10extensions15manifest_errors17kCannotAccessPageE = hidden local_unnamed_addr constant [110 x i8] c"Cannot access contents of the page. Extension manifest must request permission to access the respective host.\00", align 16
@_ZN10extensions15manifest_errors24kCannotAccessPageWithUrlE = hidden local_unnamed_addr constant [99 x i8] c"Cannot access contents of url \22*\22. Extension manifest must request permission to access this host.\00", align 16
@_ZN10extensions15manifest_errors24kCannotChangeExtensionIDE = hidden local_unnamed_addr constant [46 x i8] c"Installed extensions cannot change their IDs.\00", align 16
@_ZN10extensions15manifest_errors28kCannotClaimAllHostsInExtentE = hidden local_unnamed_addr constant [43 x i8] c"Cannot claim all hosts ('*') in an extent.\00", align 16
@_ZN10extensions15manifest_errors27kCannotClaimAllURLsInExtentE = hidden local_unnamed_addr constant [36 x i8] c"Cannot claim all URLs in an extent.\00", align 16
@_ZN10extensions15manifest_errors20kCannotScriptGalleryE = hidden local_unnamed_addr constant [43 x i8] c"The extensions gallery cannot be scripted.\00", align 16
@_ZN10extensions15manifest_errors16kCannotScriptNtpE = hidden local_unnamed_addr constant [37 x i8] c"The New Tab Page cannot be scripted.\00", align 16
@_ZN10extensions15manifest_errors23kCannotScriptSigninPageE = hidden local_unnamed_addr constant [37 x i8] c"The sign-in page cannot be scripted.\00", align 16
@_ZN10extensions15manifest_errors32kChromeStyleInvalidForManifestV3E = hidden local_unnamed_addr constant [64 x i8] c"The chrome_style option cannot be used with manifest version 3.\00", align 16
@_ZN10extensions15manifest_errors20kChromeVersionTooLowE = hidden local_unnamed_addr constant [48 x i8] c"This extension requires * version * or greater.\00", align 16
@_ZN10extensions15manifest_errors38kDeclarativeNetRequestPermissionNeededE = hidden local_unnamed_addr constant [64 x i8] c"The extension requires '*' permission for the '*' manifest key.\00", align 16
@_ZN10extensions15manifest_errors27kDefaultStateShouldNotBeSetE = hidden local_unnamed_addr constant [76 x i8] c"The default_state key cannot be set for browser_action or page_action keys.\00", align 16
@_ZN10extensions15manifest_errors13kExpectStringE = hidden local_unnamed_addr constant [21 x i8] c"Expect string value.\00", align 16
@_ZN10extensions15manifest_errors13kFileNotFoundE = hidden local_unnamed_addr constant [19 x i8] c"File not found: *.\00", align 16
@_ZN10extensions15manifest_errors27kHasDifferentialFingerprintE = hidden local_unnamed_addr constant [94 x i8] c"Manifest contains a differential_fingerprint key that will be overridden on extension update.\00", align 16
@_ZN10extensions15manifest_errors17kInvalidAboutPageE = hidden local_unnamed_addr constant [32 x i8] c"Invalid value for 'about_page'.\00", align 16
@_ZN10extensions15manifest_errors35kInvalidAboutPageExpectRelativePathE = hidden local_unnamed_addr constant [63 x i8] c"Invalid value for 'about_page'. Value must be a relative path.\00", align 16
@_ZN10extensions15manifest_errors14kInvalidActionE = hidden local_unnamed_addr constant [28 x i8] c"Invalid value for 'action'.\00", align 16
@_ZN10extensions15manifest_errors25kInvalidActionDefaultIconE = hidden local_unnamed_addr constant [34 x i8] c"Invalid value for 'default_icon'.\00", align 16
@_ZN10extensions15manifest_errors26kInvalidActionDefaultPopupE = hidden local_unnamed_addr constant [34 x i8] c"Invalid type for 'default_popup'.\00", align 16
@_ZN10extensions15manifest_errors26kInvalidActionDefaultStateE = hidden local_unnamed_addr constant [35 x i8] c"Invalid value for 'default_state'.\00", align 16
@_ZN10extensions15manifest_errors26kInvalidActionDefaultTitleE = hidden local_unnamed_addr constant [35 x i8] c"Invalid value for 'default_title'.\00", align 16
@_ZN10extensions15manifest_errors22kInvalidAppDisplayModeE = hidden local_unnamed_addr constant [36 x i8] c"Invalid value for app.display_mode.\00", align 16
@_ZN10extensions15manifest_errors20kInvalidAppIconColorE = hidden local_unnamed_addr constant [34 x i8] c"Invalid value for app.icon_color.\00", align 16
@_ZN10extensions15manifest_errors21kInvalidAppThemeColorE = hidden local_unnamed_addr constant [35 x i8] c"Invalid value for app.theme_color.\00", align 16
@_ZN10extensions15manifest_errors18kInvalidBackgroundE = hidden local_unnamed_addr constant [37 x i8] c"Invalid value for 'background_page'.\00", align 16
@_ZN10extensions15manifest_errors31kInvalidBackgroundAllowJsAccessE = hidden local_unnamed_addr constant [48 x i8] c"Invalid value for 'background.allow_js_access'.\00", align 16
@_ZN10extensions15manifest_errors29kInvalidBackgroundCombinationE = hidden local_unnamed_addr constant [103 x i8] c"Only one of 'background.page', 'background.scripts', and 'background.service_worker' can be specified.\00", align 16
@_ZN10extensions15manifest_errors24kInvalidBackgroundScriptE = hidden local_unnamed_addr constant [43 x i8] c"Invalid value for 'background.scripts[*]'.\00", align 16
@_ZN10extensions15manifest_errors25kInvalidBackgroundScriptsE = hidden local_unnamed_addr constant [40 x i8] c"Invalid value for 'background.scripts'.\00", align 16
@_ZN10extensions15manifest_errors37kInvalidBackgroundServiceWorkerScriptE = hidden local_unnamed_addr constant [47 x i8] c"Invalid value for 'background.service_worker'.\00", align 16
@_ZN10extensions15manifest_errors35kInvalidBackgroundServiceWorkerTypeE = hidden local_unnamed_addr constant [37 x i8] c"Invalid value for 'background.type'.\00", align 16
@_ZN10extensions15manifest_errors29kInvalidBackgroundInHostedAppE = hidden local_unnamed_addr constant [109 x i8] c"Invalid value for 'background_page'. Hosted apps must specify an absolute HTTPS URL for the background page.\00", align 16
@_ZN10extensions15manifest_errors28kInvalidBackgroundPersistentE = hidden local_unnamed_addr constant [43 x i8] c"Invalid value for 'background.persistent'.\00", align 16
@_ZN10extensions15manifest_errors41kInvalidBackgroundPersistentInPlatformAppE = hidden local_unnamed_addr constant [130 x i8] c"Invalid value for 'app.background.persistent'. Packaged apps do not support persistent background pages and must use event pages.\00", align 16
@_ZN10extensions15manifest_errors34kInvalidBackgroundPersistentNoPageE = hidden local_unnamed_addr constant [88 x i8] c"Must specify one of background.page or background.scripts to use background.persistent.\00", align 16
@_ZN10extensions15manifest_errors21kInvalidBrowserActionE = hidden local_unnamed_addr constant [36 x i8] c"Invalid value for 'browser_action'.\00", align 16
@_ZN10extensions15manifest_errors26kInvalidChromeURLOverridesE = hidden local_unnamed_addr constant [42 x i8] c"Invalid value for 'chrome_url_overrides'.\00", align 16
@_ZN10extensions15manifest_errors19kInvalidCommandsKeyE = hidden local_unnamed_addr constant [30 x i8] c"Invalid value for 'commands'.\00", align 16
@_ZN10extensions15manifest_errors27kInvalidContentCapabilitiesE = hidden local_unnamed_addr constant [42 x i8] c"Invalid value for 'content_capabilities'.\00", align 16
@_ZN10extensions15manifest_errors32kInvalidContentCapabilitiesMatchE = hidden local_unnamed_addr constant [44 x i8] c"Invalid content_capabilities URL pattern: *\00", align 16
@_ZN10extensions15manifest_errors38kInvalidContentCapabilitiesMatchOriginE = hidden local_unnamed_addr constant [72 x i8] c"Domain wildcards are not allowed for content_capabilities URL patterns.\00", align 16
@_ZN10extensions15manifest_errors37kInvalidContentCapabilitiesPermissionE = hidden local_unnamed_addr constant [44 x i8] c"Invalid content_capabilities permission: *.\00", align 16
@_ZN10extensions15manifest_errors31kInvalidCSPInsecureValueIgnoredE = hidden local_unnamed_addr constant [54 x i8] c"'*': Ignored insecure CSP value \22*\22 in directive '*'.\00", align 16
@_ZN10extensions15manifest_errors29kInvalidCSPInsecureValueErrorE = hidden local_unnamed_addr constant [46 x i8] c"'*': Insecure CSP value \22*\22 in directive '*'.\00", align 16
@_ZN10extensions15manifest_errors27kInvalidCSPMissingSecureSrcE = hidden local_unnamed_addr constant [136 x i8] c"'*': CSP directive '*' must be specified (either explicitly, or implicitly via 'default-src') and must whitelist only secure resources.\00", align 16
@_ZN10extensions15manifest_errors21kInvalidDefaultLocaleE = hidden local_unnamed_addr constant [65 x i8] c"Invalid value for default locale - locale name must be a string.\00", align 16
@_ZN10extensions15manifest_errors19kInvalidDescriptionE = hidden local_unnamed_addr constant [33 x i8] c"Invalid value for 'description'.\00", align 16
@_ZN10extensions15manifest_errors20kInvalidDevToolsPageE = hidden local_unnamed_addr constant [35 x i8] c"Invalid value for 'devtools_page'.\00", align 16
@_ZN10extensions15manifest_errors25kInvalidDisplayInLauncherE = hidden local_unnamed_addr constant [41 x i8] c"Invalid value for 'display_in_launcher'.\00", align 16
@_ZN10extensions15manifest_errors27kInvalidDisplayInNewTabPageE = hidden local_unnamed_addr constant [45 x i8] c"Invalid value for 'display_in_new_tab_page'.\00", align 16
@_ZN10extensions15manifest_errors26kInvalidDisplayModeAppTypeE = hidden local_unnamed_addr constant [55 x i8] c"Only bookmark apps are allowed to use app.display_mode\00", align 16
@_ZN10extensions15manifest_errors23kInvalidEmptyDictionaryE = hidden local_unnamed_addr constant [26 x i8] c"Empty dictionary for '*'.\00", align 16
@_ZN10extensions15manifest_errors20kInvalidExcludeMatchE = hidden local_unnamed_addr constant [61 x i8] c"Invalid value for 'content_scripts[*].exclude_matches[*]': *\00", align 16
@_ZN10extensions15manifest_errors22kInvalidExcludeMatchesE = hidden local_unnamed_addr constant [56 x i8] c"Invalid value for 'content_scripts[*].exclude_matches'.\00", align 16
@_ZN10extensions15manifest_errors25kInvalidExportPermissionsE = hidden local_unnamed_addr constant [66 x i8] c"Permissions are not allowed for extensions that export resources.\00", align 16
@_ZN10extensions15manifest_errors29kInvalidExportAllowlistStringE = hidden local_unnamed_addr constant [41 x i8] c"Invalid value for 'export.allowlist[*]'.\00", align 16
@_ZN10extensions15manifest_errors22kInvalidFileAccessListE = hidden local_unnamed_addr constant [33 x i8] c"Invalid value for 'file_access'.\00", align 16
@_ZN10extensions15manifest_errors23kInvalidFileAccessValueE = hidden local_unnamed_addr constant [36 x i8] c"Invalid value for 'file_access[*]'.\00", align 16
@_ZN10extensions15manifest_errors26kInvalidFileBrowserHandlerE = hidden local_unnamed_addr constant [43 x i8] c"Invalid value for 'file_browser_handlers'.\00", align 16
@_ZN10extensions15manifest_errors28kInvalidFileBrowserHandlerIdE = hidden local_unnamed_addr constant [43 x i8] c"Required value 'id' is missing or invalid.\00", align 16
@_ZN10extensions15manifest_errors43kInvalidFileBrowserHandlerMissingPermissionE = hidden local_unnamed_addr constant [85 x i8] c"Declaring file browser handlers requires the fileBrowserHandler manifest permission.\00", align 16
@_ZN10extensions15manifest_errors23kInvalidFileFiltersListE = hidden local_unnamed_addr constant [34 x i8] c"Invalid value for 'file_filters'.\00", align 16
@_ZN10extensions15manifest_errors23kInvalidFileFilterValueE = hidden local_unnamed_addr constant [37 x i8] c"Invalid value for 'file_filters[*]'.\00", align 16
@_ZN10extensions15manifest_errors20kInvalidFileHandlersE = hidden local_unnamed_addr constant [35 x i8] c"Invalid value for 'file_handlers'.\00", align 16
@_ZN10extensions15manifest_errors42kInvalidFileHandlersHostedAppsNotSupportedE = hidden local_unnamed_addr constant [41 x i8] c"Hosted apps do not support file handlers\00", align 16
@_ZN10extensions15manifest_errors45kInvalidFileHandlersTooManyTypesAndExtensionsE = hidden local_unnamed_addr constant [62 x i8] c"Too many MIME and extension file_handlers have been declared.\00", align 16
@_ZN10extensions15manifest_errors28kInvalidFileHandlerExtensionE = hidden local_unnamed_addr constant [49 x i8] c"Invalid value for 'file_handlers[*].extensions'.\00", align 16
@_ZN10extensions15manifest_errors35kInvalidFileHandlerExtensionElementE = hidden local_unnamed_addr constant [52 x i8] c"Invalid value for 'file_handlers[*].extensions[*]'.\00", align 16
@_ZN10extensions15manifest_errors37kInvalidFileHandlerIncludeDirectoriesE = hidden local_unnamed_addr constant [41 x i8] c"Invalid value for 'include_directories'.\00", align 16
@_ZN10extensions15manifest_errors36kInvalidFileHandlerNoTypeOrExtensionE = hidden local_unnamed_addr constant [92 x i8] c"'file_handlers[*]' must contain a non-empty 'types', 'extensions' or 'include_directories'.\00", align 16
@_ZN10extensions15manifest_errors23kInvalidFileHandlerTypeE = hidden local_unnamed_addr constant [44 x i8] c"Invalid value for 'file_handlers[*].types'.\00", align 16
@_ZN10extensions15manifest_errors30kInvalidFileHandlerTypeElementE = hidden local_unnamed_addr constant [47 x i8] c"Invalid value for 'file_handlers[*].types[*]'.\00", align 16
@_ZN10extensions15manifest_errors23kInvalidFileHandlerVerbE = hidden local_unnamed_addr constant [43 x i8] c"Invalid value for 'file_handlers[*].verb'.\00", align 16
@_ZN10extensions15manifest_errors27kInvalidHomepageOverrideURLE = hidden local_unnamed_addr constant [50 x i8] c"Invalid value for overriding homepage url: '[*]'.\00", align 16
@_ZN10extensions15manifest_errors19kInvalidHomepageURLE = hidden local_unnamed_addr constant [39 x i8] c"Invalid value for homepage url: '[*]'.\00", align 16
@_ZN10extensions15manifest_errors22kInvalidHostPermissionE = hidden local_unnamed_addr constant [41 x i8] c"Invalid value for 'host_permissions[*]'.\00", align 16
@_ZN10extensions15manifest_errors23kInvalidHostPermissionsE = hidden local_unnamed_addr constant [38 x i8] c"Invalid value for 'host_permissions'.\00", align 16
@_ZN10extensions15manifest_errors15kInvalidIconKeyE = hidden local_unnamed_addr constant [27 x i8] c"Invalid key in icons: \22*\22.\00", align 16
@_ZN10extensions15manifest_errors16kInvalidIconPathE = hidden local_unnamed_addr constant [32 x i8] c"Invalid value for 'icons[\22*\22]'.\00", align 16
@_ZN10extensions15manifest_errors13kInvalidIconsE = hidden local_unnamed_addr constant [27 x i8] c"Invalid value for 'icons'.\00", align 16
@_ZN10extensions15manifest_errors23kInvalidImportAndExportE = hidden local_unnamed_addr constant [52 x i8] c"Simultaneous 'import' and 'export' are not allowed.\00", align 16
@_ZN10extensions15manifest_errors16kInvalidImportIdE = hidden local_unnamed_addr constant [34 x i8] c"Invalid value for 'import[*].id'.\00", align 16
@_ZN10extensions15manifest_errors21kInvalidImportVersionE = hidden local_unnamed_addr constant [47 x i8] c"Invalid value for 'import[*].minimum_version'.\00", align 16
@_ZN10extensions15manifest_errors23kInvalidInputComponentsE = hidden local_unnamed_addr constant [37 x i8] c"Invalid value for 'input_components'\00", align 16
@_ZN10extensions15manifest_errors32kInvalidInputComponentLayoutNameE = hidden local_unnamed_addr constant [50 x i8] c"Invalid value for 'input_components[*].layouts[*]\00", align 16
@_ZN10extensions15manifest_errors26kInvalidInputComponentNameE = hidden local_unnamed_addr constant [44 x i8] c"Invalid value for 'input_components[*].name\00", align 16
@_ZN10extensions15manifest_errors17kInvalidInputViewE = hidden local_unnamed_addr constant [32 x i8] c"Invalid value for 'input_view'.\00", align 16
@_ZN10extensions15manifest_errors17kInvalidIsolationE = hidden local_unnamed_addr constant [35 x i8] c"Invalid value for 'app.isolation'.\00", align 16
@_ZN10extensions15manifest_errors22kInvalidIsolationValueE = hidden local_unnamed_addr constant [38 x i8] c"Invalid value for 'app.isolation[*]'.\00", align 16
@_ZN10extensions15manifest_errors11kInvalidKeyE = hidden local_unnamed_addr constant [35 x i8] c"Value 'key' is missing or invalid.\00", align 16
@_ZN10extensions15manifest_errors18kInvalidKeyBindingE = hidden local_unnamed_addr constant [38 x i8] c"Invalid value for 'commands[*].*': *.\00", align 16
@_ZN10extensions15manifest_errors29kInvalidKeyBindingDescriptionE = hidden local_unnamed_addr constant [45 x i8] c"Invalid value for 'commands[*].description'.\00", align 16
@_ZN10extensions15manifest_errors28kInvalidKeyBindingDictionaryE = hidden local_unnamed_addr constant [35 x i8] c"Contents of 'commands[*]' invalid.\00", align 16
@_ZN10extensions15manifest_errors38kInvalidKeyBindingMediaKeyWithModifierE = hidden local_unnamed_addr constant [59 x i8] c"Media key cannot have any modifier for 'commands[*].*': *.\00", align 16
@_ZN10extensions15manifest_errors33kInvalidKeyBindingMissingPlatformE = hidden local_unnamed_addr constant [109 x i8] c"Could not find key specification for 'command[*].*': Either specify a key for '*', or specify a default key.\00", align 16
@_ZN10extensions15manifest_errors25kInvalidKeyBindingTooManyE = hidden local_unnamed_addr constant [63 x i8] c"Too many shortcuts specified for 'commands': The maximum is *.\00", align 16
@_ZN10extensions15manifest_errors33kInvalidKeyBindingUnknownPlatformE = hidden local_unnamed_addr constant [108 x i8] c"Unknown platform for 'command[*]': *. Valid values are: 'windows', 'mac' 'chromeos', 'linux' and 'default'.\00", align 16
@_ZN10extensions15manifest_errors25kInvalidKioskAlwaysUpdateE = hidden local_unnamed_addr constant [41 x i8] c"Invalid value for 'kiosk.always_update'.\00", align 16
@_ZN10extensions15manifest_errors20kInvalidKioskEnabledE = hidden local_unnamed_addr constant [35 x i8] c"Invalid value for 'kiosk_enabled'.\00", align 16
@_ZN10extensions15manifest_errors17kInvalidKioskOnlyE = hidden local_unnamed_addr constant [32 x i8] c"Invalid value for 'kiosk_only'.\00", align 16
@_ZN10extensions15manifest_errors30kInvalidKioskOnlyButNotEnabledE = hidden local_unnamed_addr constant [61 x i8] c"The 'kiosk_only' key is set, but 'kiosk_enabled' is not set.\00", align 16
@_ZN10extensions15manifest_errors36kInvalidKioskRequiredPlatformVersionE = hidden local_unnamed_addr constant [52 x i8] c"Invalid value for 'kiosk.required_platform_version'\00", align 16
@_ZN10extensions15manifest_errors26kInvalidKioskSecondaryAppsE = hidden local_unnamed_addr constant [41 x i8] c"Invalid value for 'kiosk_secondary_apps'\00", align 16
@_ZN10extensions15manifest_errors37kInvalidKioskSecondaryAppsBadAppEntryE = hidden local_unnamed_addr constant [44 x i8] c"Invalid app item for 'kiosk_secondary_apps'\00", align 16
@_ZN10extensions15manifest_errors38kInvalidKioskSecondaryAppsDuplicateAppE = hidden local_unnamed_addr constant [49 x i8] c"Duplicate app id in 'kiosk_secondary_apps': '*'.\00", align 16
@_ZN10extensions15manifest_errors45kInvalidKioskSecondaryAppsPropertyUnavailableE = hidden local_unnamed_addr constant [62 x i8] c"Property '*' not allowed for 'kiosk_secondary_apps' item '*'.\00", align 16
@_ZN10extensions15manifest_errors23kInvalidLaunchContainerE = hidden local_unnamed_addr constant [42 x i8] c"Invalid value for 'app.launch.container'.\00", align 16
@_ZN10extensions15manifest_errors19kInvalidLaunchValueE = hidden local_unnamed_addr constant [23 x i8] c"Invalid value for '*'.\00", align 16
@_ZN10extensions15manifest_errors28kInvalidLaunchValueContainerE = hidden local_unnamed_addr constant [32 x i8] c"Invalid container type for '*'.\00", align 16
@_ZN10extensions15manifest_errors21kInvalidLinkedAppIconE = hidden local_unnamed_addr constant [46 x i8] c"Invalid linked app icon. Must be a dictionary\00", align 16
@_ZN10extensions15manifest_errors25kInvalidLinkedAppIconSizeE = hidden local_unnamed_addr constant [55 x i8] c"Invalid 'size' for linked app icon. Must be an integer\00", align 16
@_ZN10extensions15manifest_errors24kInvalidLinkedAppIconURLE = hidden local_unnamed_addr constant [72 x i8] c"Invalid 'url' for linked app icon. Must be a string that is a valid URL\00", align 16
@_ZN10extensions15manifest_errors22kInvalidLinkedAppIconsE = hidden local_unnamed_addr constant [45 x i8] c"Invalid 'app.linked_icons'. Must be an array\00", align 16
@_ZN10extensions15manifest_errors16kInvalidManifestE = hidden local_unnamed_addr constant [25 x i8] c"Manifest file is invalid\00", align 16
@_ZN10extensions15manifest_errors19kInvalidManifestKeyE = hidden local_unnamed_addr constant [23 x i8] c"Invalid value for '*'.\00", align 16
@_ZN10extensions15manifest_errors33kInvalidManifestVersionMissingKeyE = hidden local_unnamed_addr constant [120 x i8] c"Missing 'manifest_version' key. Its value must be an integer *. See developer.chrome.com/*/manifestVersion for details.\00", align 16
@_ZN10extensions15manifest_errors34kInvalidManifestVersionUnsupportedE = hidden local_unnamed_addr constant [116 x i8] c"Invalid value for 'manifest_version'. Must be an integer *. See developer.chrome.com/*/manifestVersion for details.\00", align 16
@_ZN10extensions15manifest_errors13kInvalidMatchE = hidden local_unnamed_addr constant [53 x i8] c"Invalid value for 'content_scripts[*].matches[*]': *\00", align 16
@_ZN10extensions15manifest_errors18kInvalidMatchCountE = hidden local_unnamed_addr constant [92 x i8] c"Invalid value for 'content_scripts[*].matches'. There must be at least one match specified.\00", align 16
@_ZN10extensions15manifest_errors15kInvalidMatchesE = hidden local_unnamed_addr constant [67 x i8] c"Required value 'content_scripts[*].matches' is missing or invalid.\00", align 16
@_ZN10extensions15manifest_errors17kInvalidMIMETypesE = hidden local_unnamed_addr constant [31 x i8] c"Invalid value for 'mime_types'\00", align 16
@_ZN10extensions15manifest_errors24kInvalidMimeTypesHandlerE = hidden local_unnamed_addr constant [32 x i8] c"Invalid value for 'mime_types'.\00", align 16
@_ZN10extensions15manifest_errors28kInvalidMinimumChromeVersionE = hidden local_unnamed_addr constant [44 x i8] c"Invalid value for 'minimum_chrome_version'.\00", align 16
@_ZN10extensions15manifest_errors12kInvalidNameE = hidden local_unnamed_addr constant [45 x i8] c"Required value 'name' is missing or invalid.\00", align 16
@_ZN10extensions15manifest_errors27kInvalidNativelyConnectableE = hidden local_unnamed_addr constant [46 x i8] c"Invalid natively_connectable. Must be a list.\00", align 16
@_ZN10extensions15manifest_errors32kInvalidNativelyConnectableValueE = hidden local_unnamed_addr constant [64 x i8] c"Invalid natively_connectable value. Must be a non-empty string.\00", align 16
@_ZN10extensions15manifest_errors19kInvalidNaClModulesE = hidden local_unnamed_addr constant [34 x i8] c"Invalid value for 'nacl_modules'.\00", align 16
@_ZN10extensions15manifest_errors23kInvalidNaClModulesPathE = hidden local_unnamed_addr constant [42 x i8] c"Invalid value for 'nacl_modules[*].path'.\00", align 16
@_ZN10extensions15manifest_errors27kInvalidNaClModulesMIMETypeE = hidden local_unnamed_addr constant [47 x i8] c"Invalid value for 'nacl_modules[*].mime_type'.\00", align 16
@_ZN10extensions15manifest_errors25kInvalidOAuth2AutoApproveE = hidden local_unnamed_addr constant [70 x i8] c"Invalid value for 'oauth2.auto_approve'. Value must be true or false.\00", align 16
@_ZN10extensions15manifest_errors22kInvalidOAuth2ClientIdE = hidden local_unnamed_addr constant [38 x i8] c"Invalid value for 'oauth2.client_id'.\00", align 16
@_ZN10extensions15manifest_errors20kInvalidOAuth2ScopesE = hidden local_unnamed_addr constant [35 x i8] c"Invalid value for 'oauth2.scopes'.\00", align 16
@_ZN10extensions15manifest_errors22kInvalidOfflineEnabledE = hidden local_unnamed_addr constant [37 x i8] c"Invalid value for 'offline_enabled'.\00", align 16
@_ZN10extensions15manifest_errors20kEmptyOmniboxKeywordE = hidden local_unnamed_addr constant [59 x i8] c"Invalid value for 'omnibox.keyword'. It must be non-empty.\00", align 16
@_ZN10extensions15manifest_errors19kInvalidOptionsPageE = hidden local_unnamed_addr constant [23 x i8] c"Invalid value for '*'.\00", align 16
@_ZN10extensions15manifest_errors37kInvalidOptionsPageExpectUrlInPackageE = hidden local_unnamed_addr constant [66 x i8] c"Invalid value for 'options_page'.  Value must be a relative path.\00", align 16
@_ZN10extensions15manifest_errors30kInvalidOptionsPageInHostedAppE = hidden local_unnamed_addr constant [76 x i8] c"Invalid value for 'options_page'. Hosted apps must specify an absolute URL.\00", align 16
@_ZN10extensions15manifest_errors28kInvalidOptionsUIChromeStyleE = hidden local_unnamed_addr constant [45 x i8] c"Invalid value for 'options_ui.chrome_style'.\00", align 16
@_ZN10extensions15manifest_errors26kInvalidOptionsUIOpenInTabE = hidden local_unnamed_addr constant [44 x i8] c"Invalid value for 'options_ui.open_in_tab'.\00", align 16
@_ZN10extensions15manifest_errors18kInvalidPageActionE = hidden local_unnamed_addr constant [33 x i8] c"Invalid value for 'page_action'.\00", align 16
@_ZN10extensions15manifest_errors28kInvalidPermissionWithDetailE = hidden local_unnamed_addr constant [39 x i8] c"Invalid value for 'permissions[*]': *.\00", align 16
@_ZN10extensions15manifest_errors18kInvalidPermissionE = hidden local_unnamed_addr constant [36 x i8] c"Invalid value for 'permissions[*]'.\00", align 16
@_ZN10extensions15manifest_errors19kInvalidPermissionsE = hidden local_unnamed_addr constant [33 x i8] c"Invalid value for 'permissions'.\00", align 16
@_ZN10extensions15manifest_errors24kInvalidPermissionSchemeE = hidden local_unnamed_addr constant [27 x i8] c"Invalid scheme for '*[*]'.\00", align 16
@_ZN10extensions15manifest_errors29kInvalidReplacementAndroidAppE = hidden local_unnamed_addr constant [44 x i8] c"Invalid value for 'replacement_android_app'\00", align 16
@_ZN10extensions15manifest_errors25kInvalidReplacementWebAppE = hidden local_unnamed_addr constant [41 x i8] c"Invalid value for 'replacement_web_app'.\00", align 16
@_ZN10extensions15manifest_errors17kInvalidRulesetIDE = hidden local_unnamed_addr constant [116 x i8] c"'*.*': Invalid 'id' specified for Ruleset at index *. The ID must be non-empty, unique and must not start with '_'.\00", align 16
@_ZN10extensions15manifest_errors26kInvalidSandboxedPagesListE = hidden local_unnamed_addr constant [35 x i8] c"Invalid value for 'sandbox.pages'.\00", align 16
@_ZN10extensions15manifest_errors21kInvalidSandboxedPageE = hidden local_unnamed_addr constant [38 x i8] c"Invalid value for 'sandbox.pages[*]'.\00", align 16
@_ZN10extensions15manifest_errors31kInvalidSearchEngineMissingKeysE = hidden local_unnamed_addr constant [75 x i8] c"Missing or invalid value for 'chrome_settings_overrides.search_provider.*.\00", align 16
@_ZN10extensions15manifest_errors23kInvalidSearchEngineURLE = hidden local_unnamed_addr constant [65 x i8] c"Invalid URL [*] for 'chrome_settings_overrides.search_provider'.\00", align 16
@_ZN10extensions15manifest_errors17kInvalidShortNameE = hidden local_unnamed_addr constant [32 x i8] c"Invalid value for 'short_name'.\00", align 16
@_ZN10extensions15manifest_errors26kInvalidStartupOverrideURLE = hidden local_unnamed_addr constant [49 x i8] c"Invalid value for overriding startup URL: '[*]'.\00", align 16
@_ZN10extensions15manifest_errors23kInvalidSystemIndicatorE = hidden local_unnamed_addr constant [38 x i8] c"Invalid value for 'system_indicator'.\00", align 16
@_ZN10extensions15manifest_errors13kInvalidThemeE = hidden local_unnamed_addr constant [27 x i8] c"Invalid value for 'theme'.\00", align 16
@_ZN10extensions15manifest_errors19kInvalidThemeColorsE = hidden local_unnamed_addr constant [57 x i8] c"Invalid value for theme colors - colors must be integers\00", align 16
@_ZN10extensions15manifest_errors25kInvalidThemeColorAppTypeE = hidden local_unnamed_addr constant [54 x i8] c"Only bookmark apps are allowed to use app.theme_color\00", align 16
@_ZN10extensions15manifest_errors19kInvalidThemeImagesE = hidden local_unnamed_addr constant [57 x i8] c"Invalid value for theme images - images must be strings.\00", align 16
@_ZN10extensions15manifest_errors26kInvalidThemeImagesMissingE = hidden local_unnamed_addr constant [44 x i8] c"An image specified in the theme is missing.\00", align 16
@_ZN10extensions15manifest_errors18kInvalidThemeTintsE = hidden local_unnamed_addr constant [64 x i8] c"Invalid value for theme images - tints must be decimal numbers.\00", align 16
@_ZN10extensions15manifest_errors11kInvalidTtsE = hidden local_unnamed_addr constant [32 x i8] c"Invalid value for 'tts_engine'.\00", align 16
@_ZN10extensions15manifest_errors17kInvalidTtsVoicesE = hidden local_unnamed_addr constant [39 x i8] c"Invalid value for 'tts_engine.voices'.\00", align 16
@_ZN10extensions15manifest_errors27kInvalidTtsVoicesEventTypesE = hidden local_unnamed_addr constant [54 x i8] c"Invalid value for 'tts_engine.voices[*].event_types'.\00", align 16
@_ZN10extensions15manifest_errors23kInvalidTtsVoicesGenderE = hidden local_unnamed_addr constant [49 x i8] c"Invalid value for 'tts_engine.voices[*].gender'.\00", align 16
@_ZN10extensions15manifest_errors21kInvalidTtsVoicesLangE = hidden local_unnamed_addr constant [47 x i8] c"Invalid value for 'tts_engine.voices[*].lang'.\00", align 16
@_ZN10extensions15manifest_errors23kInvalidTtsVoicesRemoteE = hidden local_unnamed_addr constant [49 x i8] c"Invalid value for 'tts_engine.voices[*].remote'.\00", align 16
@_ZN10extensions15manifest_errors26kInvalidTtsVoicesVoiceNameE = hidden local_unnamed_addr constant [53 x i8] c"Invalid value for 'tts_engine.voices[*].voice_name'.\00", align 16
@_ZN10extensions15manifest_errors17kInvalidUpdateURLE = hidden local_unnamed_addr constant [37 x i8] c"Invalid value for update url: '[*]'.\00", align 16
@_ZN10extensions15manifest_errors19kInvalidURLHandlersE = hidden local_unnamed_addr constant [34 x i8] c"Invalid value for 'url_handlers'.\00", align 16
@_ZN10extensions15manifest_errors32kInvalidURLHandlerPatternElementE = hidden local_unnamed_addr constant [37 x i8] c"Invalid value for 'url_handlers[*]'.\00", align 16
@_ZN10extensions15manifest_errors23kInvalidURLHandlerTitleE = hidden local_unnamed_addr constant [43 x i8] c"Invalid value for 'url_handlers[*].title'.\00", align 16
@_ZN10extensions15manifest_errors25kInvalidURLHandlerPatternE = hidden local_unnamed_addr constant [48 x i8] c"Invalid value for 'url_handlers[*].matches[*]'.\00", align 16
@_ZN10extensions15manifest_errors23kInvalidURLPatternErrorE = hidden local_unnamed_addr constant [24 x i8] c"Invalid url pattern '*'\00", align 16
@_ZN10extensions15manifest_errors15kInvalidVersionE = hidden local_unnamed_addr constant [120 x i8] c"Required value 'version' is missing or invalid. It must be between 1-4 dot-separated integers each between 0 and 65536.\00", align 16
@_ZN10extensions15manifest_errors19kInvalidVersionNameE = hidden local_unnamed_addr constant [34 x i8] c"Invalid value for 'version_name'.\00", align 16
@_ZN10extensions15manifest_errors34kInvalidWebAccessibleResourcesListE = hidden local_unnamed_addr constant [46 x i8] c"Invalid value for 'web_accessible_resources'.\00", align 16
@_ZN10extensions15manifest_errors29kInvalidWebAccessibleResourceE = hidden local_unnamed_addr constant [51 x i8] c"Invalid value for 'web_accessible_resources[*]'. *\00", align 16
@_ZN10extensions15manifest_errors26kInvalidWebAppFileHandlersE = hidden local_unnamed_addr constant [43 x i8] c"Invalid value for 'web_app_file_handlers'.\00", align 16
@_ZN10extensions15manifest_errors40kInvalidWebAppFileHandlersNotBookmarkAppE = hidden local_unnamed_addr constant [78 x i8] c"The 'web_app_file_handlers' manifest key is only supported for Bookmark Apps.\00", align 16
@_ZN10extensions15manifest_errors25kInvalidWebAppFileHandlerE = hidden local_unnamed_addr constant [46 x i8] c"Invalid value for 'web_app_file_handlers[*]'.\00", align 16
@_ZN10extensions15manifest_errors31kInvalidWebAppFileHandlerAcceptE = hidden local_unnamed_addr constant [53 x i8] c"Invalid value for 'web_app_file_handlers[*].accept'.\00", align 16
@_ZN10extensions15manifest_errors31kInvalidWebAppFileHandlerActionE = hidden local_unnamed_addr constant [53 x i8] c"Invalid value for 'web_app_file_handlers[*].action'.\00", align 16
@_ZN10extensions15manifest_errors36kInvalidWebAppFileHandlerEmptyAcceptE = hidden local_unnamed_addr constant [53 x i8] c"'web_app_file_handlers[*].accept' must be non-empty.\00", align 16
@_ZN10extensions15manifest_errors39kInvalidWebAppFileHandlerFileExtensionsE = hidden local_unnamed_addr constant [72 x i8] c"Invalid value for 'web_app_file_handlers[*].accept[*].file_extensions'.\00", align 16
@_ZN10extensions15manifest_errors38kInvalidWebAppFileHandlerFileExtensionE = hidden local_unnamed_addr constant [74 x i8] c"Invalid value for web_app_file_handlers[*].accept[*].file_extensions[*]'.\00", align 16
@_ZN10extensions15manifest_errors32kInvalidWebAppLinkedShortcutItemE = hidden local_unnamed_addr constant [61 x i8] c"Invalid 'web_app_linked_shortcut_item'. Must be a dictionary\00", align 16
@_ZN10extensions15manifest_errors33kInvalidWebAppLinkedShortcutItemsE = hidden local_unnamed_addr constant [58 x i8] c"Invalid 'web_app_linked_shortcut_items'. Must be an array\00", align 16
@_ZN10extensions15manifest_errors47kInvalidWebAppLinkedShortcutItemsNotBookmarkAppE = hidden local_unnamed_addr constant [86 x i8] c"The 'web_app_linked_shortcut_items' manifest key is only supported for Bookmark Apps.\00", align 16
@_ZN10extensions15manifest_errors37kInvalidWebAppLinkedShortcutItemIconsE = hidden local_unnamed_addr constant [48 x i8] c"Invalid 'shortcut_item_icons'. Must be an array\00", align 16
@_ZN10extensions15manifest_errors36kInvalidWebAppLinkedShortcutItemIconE = hidden local_unnamed_addr constant [51 x i8] c"Invalid 'shortcut_item_icon'. Must be a dictionary\00", align 16
@_ZN10extensions15manifest_errors40kInvalidWebAppLinkedShortcutItemIconSizeE = hidden local_unnamed_addr constant [60 x i8] c"Invalid 'size' for 'shortcut_item_icon'. Must be an integer\00", align 16
@_ZN10extensions15manifest_errors39kInvalidWebAppLinkedShortcutItemIconUrlE = hidden local_unnamed_addr constant [77 x i8] c"Invalid 'url' for 'shortcut_item_icon'. Must be a string that is a valid URL\00", align 16
@_ZN10extensions15manifest_errors36kInvalidWebAppLinkedShortcutItemNameE = hidden local_unnamed_addr constant [69 x i8] c"Invalid 'name' for 'web_app_linked_shortcut_item'. Must be a string.\00", align 16
@_ZN10extensions15manifest_errors35kInvalidWebAppLinkedShortcutItemUrlE = hidden local_unnamed_addr constant [87 x i8] c"Invalid 'url' for 'web_app_linked_shortcut_item'. Must be a string that is a valid URL\00", align 16
@_ZN10extensions15manifest_errors31kInvalidWebAppShortcutItemIconsE = hidden local_unnamed_addr constant [71 x i8] c"Invalid value for web app shortcut item's icons. Must be a Dictionary.\00", align 16
@_ZN10extensions15manifest_errors27kInvalidWebAppShortcutIconsE = hidden local_unnamed_addr constant [66 x i8] c"Invalid value for 'web_app_shortcut_icons'. Must be a Dictionary.\00", align 16
@_ZN10extensions15manifest_errors41kInvalidWebAppShortcutIconsNotBookmarkAppE = hidden local_unnamed_addr constant [79 x i8] c"The 'web_app_shortcut_icons' manifest key is only supported for Bookmark Apps.\00", align 16
@_ZN10extensions15manifest_errors15kInvalidWebviewE = hidden local_unnamed_addr constant [29 x i8] c"Invalid value for 'webview'.\00", align 16
@_ZN10extensions15manifest_errors38kInvalidWebviewAccessibleResourcesListE = hidden local_unnamed_addr constant [49 x i8] c"Invalid value for'webview.accessible_resources'.\00", align 16
@_ZN10extensions15manifest_errors33kInvalidWebviewAccessibleResourceE = hidden local_unnamed_addr constant [53 x i8] c"Invalid value for 'webview.accessible_resources[*]'.\00", align 16
@_ZN10extensions15manifest_errors24kInvalidWebviewPartitionE = hidden local_unnamed_addr constant [43 x i8] c"Invalid value for 'webview.partitions[*]'.\00", align 16
@_ZN10extensions15manifest_errors28kInvalidWebviewPartitionNameE = hidden local_unnamed_addr constant [48 x i8] c"Invalid value for 'webview.partitions[*].name'.\00", align 16
@_ZN10extensions15manifest_errors29kInvalidWebviewPartitionsListE = hidden local_unnamed_addr constant [40 x i8] c"Invalid value for 'webview.partitions'.\00", align 16
@_ZN10extensions15manifest_errors14kInvalidWebURLE = hidden local_unnamed_addr constant [35 x i8] c"Invalid value for 'app.urls[*]': *\00", align 16
@_ZN10extensions15manifest_errors15kInvalidWebURLsE = hidden local_unnamed_addr constant [30 x i8] c"Invalid value for 'app.urls'.\00", align 16
@_ZN10extensions15manifest_errors15kInvalidZipHashE = hidden local_unnamed_addr constant [47 x i8] c"Required key 'zip_hash' is missing or invalid.\00", align 16
@_ZN10extensions15manifest_errors31kKeyIsDeprecatedWithReplacementE = hidden local_unnamed_addr constant [56 x i8] c"Key \22*\22 is deprecated.  Key \22*\22 should be used instead.\00", align 16
@_ZN10extensions15manifest_errors32kLaunchPathAndExtentAreExclusiveE = hidden local_unnamed_addr constant [68 x i8] c"The 'app.launch.local_path' and 'app.urls' keys cannot both be set.\00", align 16
@_ZN10extensions15manifest_errors29kLaunchPathAndURLAreExclusiveE = hidden local_unnamed_addr constant [78 x i8] c"The 'app.launch.local_path' and 'app.launch.web_url' keys cannot both be set.\00", align 16
@_ZN10extensions15manifest_errors18kLaunchURLRequiredE = hidden local_unnamed_addr constant [68 x i8] c"Either 'app.launch.local_path' or 'app.launch.web_url' is required.\00", align 16
@_ZN10extensions15manifest_errors21kLocalesInvalidLocaleE = hidden local_unnamed_addr constant [27 x i8] c"Invalid locale file '*': *\00", align 16
@_ZN10extensions15manifest_errors27kLocalesMessagesFileMissingE = hidden local_unnamed_addr constant [37 x i8] c"Messages file is missing for locale.\00", align 16
@_ZN10extensions15manifest_errors25kLocalesNoDefaultMessagesE = hidden local_unnamed_addr constant [63 x i8] c"Default locale is defined but default data couldn't be loaded.\00", align 16
@_ZN10extensions15manifest_errors32kLocalesNoValidLocaleNamesListedE = hidden local_unnamed_addr constant [59 x i8] c"No valid locale name could be found in _locales directory.\00", align 16
@_ZN10extensions15manifest_errors19kLocalesTreeMissingE = hidden local_unnamed_addr constant [63 x i8] c"Default locale was specified, but _locales subtree is missing.\00", align 16
@_ZN10extensions15manifest_errors19kManifestParseErrorE = hidden local_unnamed_addr constant [28 x i8] c"Manifest is not valid JSON.\00", align 16
@_ZN10extensions15manifest_errors19kManifestUnreadableE = hidden local_unnamed_addr constant [39 x i8] c"Manifest file is missing or unreadable\00", align 16
@_ZN10extensions15manifest_errors30kManifestVersionTooHighWarningE = hidden local_unnamed_addr constant [114 x i8] c"The maximum currently-supported manifest version is *, but this is *.  Certain features may not work as expected.\00", align 16
@_ZN10extensions15manifest_errors12kMissingFileE = hidden local_unnamed_addr constant [66 x i8] c"At least one js or css file is required for 'content_scripts[*]'.\00", align 16
@_ZN10extensions15manifest_errors18kMultipleOverridesE = hidden local_unnamed_addr constant [49 x i8] c"An extension cannot override more than one page.\00", align 16
@_ZN10extensions15manifest_errors19kNoWildCardsInPathsE = hidden local_unnamed_addr constant [55 x i8] c"Wildcards are not allowed in extent URL pattern paths.\00", align 16
@_ZN10extensions15manifest_errors25kNPAPIPluginsNotSupportedE = hidden local_unnamed_addr constant [33 x i8] c"NPAPI plugins are not supported.\00", align 16
@_ZN10extensions15manifest_errors17kOneUISurfaceOnlyE = hidden local_unnamed_addr constant [73 x i8] c"Only one of 'browser_action', 'page_action', and 'app' can be specified.\00", align 16
@_ZN10extensions15manifest_errors18kPageCaptureNeededE = hidden local_unnamed_addr constant [38 x i8] c"'pageCapture' permission is required.\00", align 16
@_ZN10extensions15manifest_errors27kPermissionCannotBeOptionalE = hidden local_unnamed_addr constant [78 x i8] c"Permission '*' cannot be listed as optional. This permission will be omitted.\00", align 16
@_ZN10extensions15manifest_errors36kPermissionMarkedOptionalAndRequiredE = hidden local_unnamed_addr constant [100 x i8] c"Optional permission '*' is redundant with the required permissions;this permission will be omitted.\00", align 16
@_ZN10extensions15manifest_errors25kPermissionMustBeOptionalE = hidden local_unnamed_addr constant [74 x i8] c"Permission '*' must be specified in the optional section of the manifest.\00", align 16
@_ZN10extensions15manifest_errors21kPermissionNotAllowedE = hidden local_unnamed_addr constant [33 x i8] c"Access to permission '*' denied.\00", align 16
@_ZN10extensions15manifest_errors31kPermissionNotAllowedInManifestE = hidden local_unnamed_addr constant [52 x i8] c"Permission '*' cannot be specified in the manifest.\00", align 16
@_ZN10extensions15manifest_errors29kPermissionUnknownOrMalformedE = hidden local_unnamed_addr constant [55 x i8] c"Permission '*' is unknown or URL pattern is malformed.\00", align 16
@_ZN10extensions15manifest_errors29kPluginsRequirementDeprecatedE = hidden local_unnamed_addr constant [41 x i8] c"The \22plugins\22 requirement is deprecated.\00", align 16
@_ZN10extensions15manifest_errors21kReservedMessageFoundE = hidden local_unnamed_addr constant [41 x i8] c"Reserved key * found in message catalog.\00", align 16
@_ZN10extensions15manifest_errors29kSandboxPagesCSPKeyNotAllowedE = hidden local_unnamed_addr constant [106 x i8] c"The Content Security Policy for sandboxed pages should be specified in 'content_security_policy.sandbox'.\00", align 16
@_ZN10extensions15manifest_errors19kRulesFileIsInvalidE = hidden local_unnamed_addr constant [63 x i8] c"Invalid value for key '*.*': The provided path '*' is invalid.\00", align 16
@_ZN10extensions15manifest_errors21kRulesetCountExceededE = hidden local_unnamed_addr constant [85 x i8] c"Invalid value for key '*.*': The number of rulesets must be less than or equal to *.\00", align 16
@_ZN10extensions15manifest_errors53kTransientBackgroundConflictsWithPersistentBackgroundE = hidden local_unnamed_addr constant [87 x i8] c"The 'transientBackground' permission cannot be used with a persistent background page.\00", align 16
@_ZN10extensions15manifest_errors22kTtsGenderIsDeprecatedE = hidden local_unnamed_addr constant [76 x i8] c"Voice gender is deprecated and values will be ignored starting in Chrome 71\00", align 16
@_ZN10extensions15manifest_errors24kUnrecognizedManifestKeyE = hidden local_unnamed_addr constant [31 x i8] c"Unrecognized manifest key '*'.\00", align 16
@_ZN10extensions15manifest_errors29kUnrecognizedManifestPropertyE = hidden local_unnamed_addr constant [47 x i8] c"Unrecognized property '*' of manifest key '*'.\00", align 16
@_ZN10extensions15manifest_errors24kUrlHandlersInHostedAppsE = hidden local_unnamed_addr constant [46 x i8] c"'url_handlers' cannot be used in Hosted Apps.\00", align 16
@_ZN10extensions15manifest_errors38kWebRequestConflictsWithLazyBackgroundE = hidden local_unnamed_addr constant [54 x i8] c"The 'webRequest' API cannot be used with event pages.\00", align 16

!llvm.module.flags = !{!0, !1}

!0 = !{i32 1, !"wchar_size", i32 4}
!1 = !{i32 7, !"PIC Level", i32 2}
