; ModuleID = '../../chrome/common/apps/platform_apps/media_galleries_permission.cc'
source_filename = "../../chrome/common/apps/platform_apps/media_galleries_permission.cc"
target datalayout = "e-m:e-i64:64-f80:128-n8:16:32:64-S128"
target triple = "x86_64-unknown-linux-gnu"

module asm ".symver exp, exp@GLIBC_2.2.5"
module asm ".symver exp2, exp2@GLIBC_2.2.5"
module asm ".symver exp2f, exp2f@GLIBC_2.2.5"
module asm ".symver expf, expf@GLIBC_2.2.5"
module asm ".symver lgamma, lgamma@GLIBC_2.2.5"
module asm ".symver lgammaf, lgammaf@GLIBC_2.2.5"
module asm ".symver lgammal, lgammal@GLIBC_2.2.5"
module asm ".symver log, log@GLIBC_2.2.5"
module asm ".symver log2, log2@GLIBC_2.2.5"
module asm ".symver log2f, log2f@GLIBC_2.2.5"
module asm ".symver logf, logf@GLIBC_2.2.5"
module asm ".symver pow, pow@GLIBC_2.2.5"
module asm ".symver powf, powf@GLIBC_2.2.5"

%"class.chrome_apps::MediaGalleriesPermission" = type { %"class.extensions::SetDisjunctionPermission" }
%"class.extensions::SetDisjunctionPermission" = type { %"class.extensions::APIPermission", %"class.std::__1::set" }
%"class.extensions::APIPermission" = type { i32 (...)**, %"class.extensions::APIPermissionInfo"* }
%"class.std::__1::set" = type { %"class.std::__1::__tree" }
%"class.std::__1::__tree" = type { %"class.std::__1::__tree_end_node"*, %"class.std::__1::__compressed_pair.1", %"class.std::__1::__compressed_pair.4" }
%"class.std::__1::__tree_end_node" = type { %"class.std::__1::__tree_node_base"* }
%"class.std::__1::__tree_node_base" = type <{ %"class.std::__1::__tree_end_node", %"class.std::__1::__tree_node_base"*, %"class.std::__1::__tree_end_node"*, i8, [7 x i8] }>
%"class.std::__1::__compressed_pair.1" = type { %"struct.std::__1::__compressed_pair_elem.2" }
%"struct.std::__1::__compressed_pair_elem.2" = type { %"class.std::__1::__tree_end_node" }
%"class.std::__1::__compressed_pair.4" = type { %"struct.std::__1::__compressed_pair_elem.5" }
%"struct.std::__1::__compressed_pair_elem.5" = type { i64 }
%"class.extensions::APIPermissionInfo" = type { i8*, i32, i32, %"class.extensions::APIPermission"* (%"class.extensions::APIPermissionInfo"*)* }
%"class.std::__1::__tree_node" = type { %"class.std::__1::__tree_node_base.base", %"class.chrome_apps::MediaGalleriesPermissionData" }
%"class.std::__1::__tree_node_base.base" = type <{ %"class.std::__1::__tree_end_node", %"class.std::__1::__tree_node_base"*, %"class.std::__1::__tree_end_node"*, i8 }>
%"class.chrome_apps::MediaGalleriesPermissionData" = type { %"class.std::__1::basic_string" }
%"class.std::__1::basic_string" = type { %"class.std::__1::__compressed_pair.11" }
%"class.std::__1::__compressed_pair.11" = type { %"struct.std::__1::__compressed_pair_elem.12" }
%"struct.std::__1::__compressed_pair_elem.12" = type { %"struct.std::__1::basic_string<char, std::__1::char_traits<char>, std::__1::allocator<char> >::__rep" }
%"struct.std::__1::basic_string<char, std::__1::char_traits<char>, std::__1::allocator<char> >::__rep" = type { %union.anon }
%union.anon = type { %"struct.std::__1::basic_string<char, std::__1::char_traits<char>, std::__1::allocator<char> >::__long" }
%"struct.std::__1::basic_string<char, std::__1::char_traits<char>, std::__1::allocator<char> >::__long" = type { i8*, i64, i64 }
%"class.base::Value" = type { %"class.absl::variant" }
%"class.absl::variant" = type { %"class.absl::variant_internal::VariantCopyAssignBaseNontrivial" }
%"class.absl::variant_internal::VariantCopyAssignBaseNontrivial" = type { %"class.absl::variant_internal::VariantMoveAssignBaseNontrivial" }
%"class.absl::variant_internal::VariantMoveAssignBaseNontrivial" = type { %"class.absl::variant_internal::VariantCopyBaseNontrivial" }
%"class.absl::variant_internal::VariantCopyBaseNontrivial" = type { %"class.absl::variant_internal::VariantMoveBaseNontrivial" }
%"class.absl::variant_internal::VariantMoveBaseNontrivial" = type { %"class.absl::variant_internal::VariantStateBaseDestructorNontrivial" }
%"class.absl::variant_internal::VariantStateBaseDestructorNontrivial" = type { %"class.absl::variant_internal::VariantStateBase" }
%"class.absl::variant_internal::VariantStateBase" = type { %"union.absl::variant_internal::DestructibleUnionImpl", i64 }
%"union.absl::variant_internal::DestructibleUnionImpl" = type { %"union.absl::variant_internal::DestructibleUnionImpl.7" }
%"union.absl::variant_internal::DestructibleUnionImpl.7" = type { %"union.absl::variant_internal::DestructibleUnionImpl.8" }
%"union.absl::variant_internal::DestructibleUnionImpl.8" = type { %"union.absl::variant_internal::DestructibleUnionImpl.9" }
%"union.absl::variant_internal::DestructibleUnionImpl.9" = type { %"union.absl::variant_internal::DestructibleUnionImpl.10" }
%"union.absl::variant_internal::DestructibleUnionImpl.10" = type { %"class.std::__1::basic_string" }
%"class.std::__1::vector.39" = type { %"class.std::__1::__vector_base.40" }
%"class.std::__1::__vector_base.40" = type { %"class.std::__1::basic_string"*, %"class.std::__1::basic_string"*, %"class.std::__1::__compressed_pair.41" }
%"class.std::__1::__compressed_pair.41" = type { %"struct.std::__1::__compressed_pair_elem.42" }
%"struct.std::__1::__compressed_pair_elem.42" = type { %"class.std::__1::basic_string"* }
%"struct.std::__1::basic_string<char, std::__1::char_traits<char>, std::__1::allocator<char> >::__short" = type { [23 x i8], %struct.anon }
%struct.anon = type { i8 }
%"class.base::ListValue" = type { %"class.base::Value" }
%"class.std::__1::vector.31" = type { %"class.std::__1::__vector_base.32" }
%"class.std::__1::__vector_base.32" = type { %"class.base::Value"*, %"class.base::Value"*, %"class.std::__1::__compressed_pair.33" }
%"class.std::__1::__compressed_pair.33" = type { %"struct.std::__1::__compressed_pair_elem.34" }
%"struct.std::__1::__compressed_pair_elem.34" = type { %"class.base::Value"* }
%"class.extensions::PermissionIDSet" = type { i32 (...)**, %"class.std::__1::set.46" }
%"class.std::__1::set.46" = type { %"class.std::__1::__tree.47" }
%"class.std::__1::__tree.47" = type { %"class.std::__1::__tree_end_node"*, %"class.std::__1::__compressed_pair.48", %"class.std::__1::__compressed_pair.52" }
%"class.std::__1::__compressed_pair.48" = type { %"struct.std::__1::__compressed_pair_elem.2" }
%"class.std::__1::__compressed_pair.52" = type { %"struct.std::__1::__compressed_pair_elem.5" }
%"struct.extensions::APIPermission::CheckParam" = type { i8 }
%"class.logging::CheckError" = type { %"class.logging::LogMessage"* }
%"class.logging::LogMessage" = type { i32 (...)**, i32, %"class.std::__1::basic_ostringstream", i64, i8*, i32, %"class.base::ScopedClearLastErrorBase" }
%"class.std::__1::basic_ostringstream" = type { %"class.std::__1::basic_ostream.base", %"class.std::__1::basic_stringbuf", %"class.std::__1::basic_ios.base" }
%"class.std::__1::basic_ostream.base" = type { i32 (...)** }
%"class.std::__1::basic_stringbuf" = type <{ %"class.std::__1::basic_streambuf", %"class.std::__1::basic_string", i8*, i32, [4 x i8] }>
%"class.std::__1::basic_streambuf" = type { i32 (...)**, %"class.std::__1::locale", i8*, i8*, i8*, i8*, i8*, i8* }
%"class.std::__1::locale" = type { %"class.std::__1::locale::__imp"* }
%"class.std::__1::locale::__imp" = type opaque
%"class.std::__1::basic_ios.base" = type <{ %"class.std::__1::ios_base", %"class.std::__1::basic_ostream"*, i32 }>
%"class.std::__1::ios_base" = type { i32 (...)**, i32, i64, i64, i32, i32, i8*, i8*, void (i32, %"class.std::__1::ios_base"*, i32)**, i32*, i64, i64, i64*, i64, i64, i8**, i64, i64 }
%"class.std::__1::basic_ostream" = type { i32 (...)**, %"class.std::__1::basic_ios.base" }
%"class.base::ScopedClearLastErrorBase" = type { i32 }
%"struct.std::__1::__less.89" = type { i8 }
%"class.std::__1::__vector_base_common" = type { i8 }

$_ZN10extensions24SetDisjunctionPermissionIN11chrome_apps28MediaGalleriesPermissionDataENS1_24MediaGalleriesPermissionEE9FromValueEPKN4base5ValueEPNSt3__112basic_stringIcNS9_11char_traitsIcEENS9_9allocatorIcEEEEPNS9_6vectorISF_NSD_ISF_EEEE = comdat any

$_ZNK10extensions24SetDisjunctionPermissionIN11chrome_apps28MediaGalleriesPermissionDataENS1_24MediaGalleriesPermissionEE5CheckEPKNS_13APIPermission10CheckParamE = comdat any

$_ZNK10extensions24SetDisjunctionPermissionIN11chrome_apps28MediaGalleriesPermissionDataENS1_24MediaGalleriesPermissionEE8ContainsEPKNS_13APIPermissionE = comdat any

$_ZNK10extensions24SetDisjunctionPermissionIN11chrome_apps28MediaGalleriesPermissionDataENS1_24MediaGalleriesPermissionEE5EqualEPKNS_13APIPermissionE = comdat any

$_ZNK10extensions24SetDisjunctionPermissionIN11chrome_apps28MediaGalleriesPermissionDataENS1_24MediaGalleriesPermissionEE7ToValueEv = comdat any

$_ZNK10extensions24SetDisjunctionPermissionIN11chrome_apps28MediaGalleriesPermissionDataENS1_24MediaGalleriesPermissionEE5CloneEv = comdat any

$_ZNK10extensions24SetDisjunctionPermissionIN11chrome_apps28MediaGalleriesPermissionDataENS1_24MediaGalleriesPermissionEE4DiffEPKNS_13APIPermissionE = comdat any

$_ZNK10extensions24SetDisjunctionPermissionIN11chrome_apps28MediaGalleriesPermissionDataENS1_24MediaGalleriesPermissionEE5UnionEPKNS_13APIPermissionE = comdat any

$_ZNK10extensions24SetDisjunctionPermissionIN11chrome_apps28MediaGalleriesPermissionDataENS1_24MediaGalleriesPermissionEE9IntersectEPKNS_13APIPermissionE = comdat any

$_ZN10extensions24SetDisjunctionPermissionIN11chrome_apps28MediaGalleriesPermissionDataENS1_24MediaGalleriesPermissionEED2Ev = comdat any

$_ZN10extensions24SetDisjunctionPermissionIN11chrome_apps28MediaGalleriesPermissionDataENS1_24MediaGalleriesPermissionEED0Ev = comdat any

$_ZNSt3__16__treeIN11chrome_apps28MediaGalleriesPermissionDataENS_4lessIS2_EENS_9allocatorIS2_EEE7destroyEPNS_11__tree_nodeIS2_PvEE = comdat any

$_ZN4absl16variant_internal26TypedThrowBadVariantAccessIRKNSt3__16vectorIN4base5ValueENS2_9allocatorIS5_EEEEEET_v = comdat any

$_ZNSt3__16__treeIN11chrome_apps28MediaGalleriesPermissionDataENS_4lessIS2_EENS_9allocatorIS2_EEE25__emplace_unique_key_argsIS2_JRKS2_EEENS_4pairINS_15__tree_iteratorIS2_PNS_11__tree_nodeIS2_PvEElEEbEERKT_DpOT0_ = comdat any

$_ZNSt3__127__tree_balance_after_insertIPNS_16__tree_node_baseIPvEEEEvT_S5_ = comdat any

$_ZNSt3__16vectorINS_12basic_stringIcNS_11char_traitsIcEENS_9allocatorIcEEEENS4_IS6_EEE21__push_back_slow_pathIRKS6_EEvOT_ = comdat any

$_ZN4base6ranges8includesIRKNSt3__13setIN11chrome_apps28MediaGalleriesPermissionDataENS2_4lessIS5_EENS2_9allocatorIS5_EEEESC_NS6_IvEENS_8identityESE_NS2_26bidirectional_iterator_tagESF_bbEEDaOT_OT0_T1_T2_T3_ = comdat any

$_ZNSt3__16__treeIN11chrome_apps28MediaGalleriesPermissionDataENS_4lessIS2_EENS_9allocatorIS2_EEE14__assign_multiINS_21__tree_const_iteratorIS2_PNS_11__tree_nodeIS2_PvEElEEEEvT_SF_ = comdat any

$_ZNSt3__16__treeIN11chrome_apps28MediaGalleriesPermissionDataENS_4lessIS2_EENS_9allocatorIS2_EEE15__emplace_multiIJRKS2_EEENS_15__tree_iteratorIS2_PNS_11__tree_nodeIS2_PvEElEEDpOT_ = comdat any

$_ZNSt3__116__set_differenceIRNS_6__lessIN11chrome_apps28MediaGalleriesPermissionDataES3_EENS_21__tree_const_iteratorIS3_PNS_11__tree_nodeIS3_PvEElEESB_NS_15insert_iteratorINS_3setIS3_NS_4lessIS3_EENS_9allocatorIS3_EEEEEEEET2_T0_SL_T1_SM_SK_T_ = comdat any

$_ZNSt3__16__treeIN11chrome_apps28MediaGalleriesPermissionDataENS_4lessIS2_EENS_9allocatorIS2_EEE30__emplace_hint_unique_key_argsIS2_JRKS2_EEENS_4pairINS_15__tree_iteratorIS2_PNS_11__tree_nodeIS2_PvEElEEbEENS_21__tree_const_iteratorIS2_SG_lEERKT_DpOT0_ = comdat any

$_ZNSt3__16__treeIN11chrome_apps28MediaGalleriesPermissionDataENS_4lessIS2_EENS_9allocatorIS2_EEE12__find_equalIS2_EERPNS_16__tree_node_baseIPvEENS_21__tree_const_iteratorIS2_PNS_11__tree_nodeIS2_SA_EElEERPNS_15__tree_end_nodeISC_EESD_RKT_ = comdat any

$_ZNSt3__111__set_unionIRNS_6__lessIN11chrome_apps28MediaGalleriesPermissionDataES3_EENS_21__tree_const_iteratorIS3_PNS_11__tree_nodeIS3_PvEElEESB_NS_15insert_iteratorINS_3setIS3_NS_4lessIS3_EENS_9allocatorIS3_EEEEEEEET2_T0_SL_T1_SM_SK_T_ = comdat any

$_ZNSt3__118__set_intersectionIRNS_6__lessIN11chrome_apps28MediaGalleriesPermissionDataES3_EENS_21__tree_const_iteratorIS3_PNS_11__tree_nodeIS3_PvEElEESB_NS_15insert_iteratorINS_3setIS3_NS_4lessIS3_EENS_9allocatorIS3_EEEEEEEET2_T0_SL_T1_SM_SK_T_ = comdat any

$_ZTVN10extensions24SetDisjunctionPermissionIN11chrome_apps28MediaGalleriesPermissionDataENS1_24MediaGalleriesPermissionEEE = comdat any

@_ZN11chrome_apps24MediaGalleriesPermission26kAllAutoDetectedPermissionE = hidden constant [16 x i8] c"allAutoDetected\00", align 16
@_ZN11chrome_apps24MediaGalleriesPermission15kReadPermissionE = hidden constant [5 x i8] c"read\00", align 1
@_ZN11chrome_apps24MediaGalleriesPermission17kCopyToPermissionE = hidden constant [7 x i8] c"copyTo\00", align 1
@_ZN11chrome_apps24MediaGalleriesPermission17kDeletePermissionE = hidden constant [7 x i8] c"delete\00", align 1
@_ZTVN11chrome_apps24MediaGalleriesPermissionE = hidden unnamed_addr constant { [14 x i8*] } { [14 x i8*] [i8* null, i8* null, i8* bitcast (void (%"class.chrome_apps::MediaGalleriesPermission"*)* @_ZN11chrome_apps24MediaGalleriesPermissionD2Ev to i8*), i8* bitcast (void (%"class.chrome_apps::MediaGalleriesPermission"*)* @_ZN11chrome_apps24MediaGalleriesPermissionD0Ev to i8*), i8* bitcast (void (%"class.extensions::PermissionIDSet"*, %"class.chrome_apps::MediaGalleriesPermission"*)* @_ZNK11chrome_apps24MediaGalleriesPermission14GetPermissionsEv to i8*), i8* bitcast (i1 (%"class.extensions::SetDisjunctionPermission"*, %"struct.extensions::APIPermission::CheckParam"*)* @_ZNK10extensions24SetDisjunctionPermissionIN11chrome_apps28MediaGalleriesPermissionDataENS1_24MediaGalleriesPermissionEE5CheckEPKNS_13APIPermission10CheckParamE to i8*), i8* bitcast (i1 (%"class.extensions::SetDisjunctionPermission"*, %"class.extensions::APIPermission"*)* @_ZNK10extensions24SetDisjunctionPermissionIN11chrome_apps28MediaGalleriesPermissionDataENS1_24MediaGalleriesPermissionEE8ContainsEPKNS_13APIPermissionE to i8*), i8* bitcast (i1 (%"class.extensions::SetDisjunctionPermission"*, %"class.extensions::APIPermission"*)* @_ZNK10extensions24SetDisjunctionPermissionIN11chrome_apps28MediaGalleriesPermissionDataENS1_24MediaGalleriesPermissionEE5EqualEPKNS_13APIPermissionE to i8*), i8* bitcast (i1 (%"class.chrome_apps::MediaGalleriesPermission"*, %"class.base::Value"*, %"class.std::__1::basic_string"*, %"class.std::__1::vector.39"*)* @_ZN11chrome_apps24MediaGalleriesPermission9FromValueEPKN4base5ValueEPNSt3__112basic_stringIcNS5_11char_traitsIcEENS5_9allocatorIcEEEEPNS5_6vectorISB_NS9_ISB_EEEE to i8*), i8* bitcast (%"class.base::Value"* (%"class.extensions::SetDisjunctionPermission"*)* @_ZNK10extensions24SetDisjunctionPermissionIN11chrome_apps28MediaGalleriesPermissionDataENS1_24MediaGalleriesPermissionEE7ToValueEv to i8*), i8* bitcast (%"class.extensions::APIPermission"* (%"class.extensions::SetDisjunctionPermission"*)* @_ZNK10extensions24SetDisjunctionPermissionIN11chrome_apps28MediaGalleriesPermissionDataENS1_24MediaGalleriesPermissionEE5CloneEv to i8*), i8* bitcast (%"class.extensions::APIPermission"* (%"class.extensions::SetDisjunctionPermission"*, %"class.extensions::APIPermission"*)* @_ZNK10extensions24SetDisjunctionPermissionIN11chrome_apps28MediaGalleriesPermissionDataENS1_24MediaGalleriesPermissionEE4DiffEPKNS_13APIPermissionE to i8*), i8* bitcast (%"class.extensions::APIPermission"* (%"class.extensions::SetDisjunctionPermission"*, %"class.extensions::APIPermission"*)* @_ZNK10extensions24SetDisjunctionPermissionIN11chrome_apps28MediaGalleriesPermissionDataENS1_24MediaGalleriesPermissionEE5UnionEPKNS_13APIPermissionE to i8*), i8* bitcast (%"class.extensions::APIPermission"* (%"class.extensions::SetDisjunctionPermission"*, %"class.extensions::APIPermission"*)* @_ZNK10extensions24SetDisjunctionPermissionIN11chrome_apps28MediaGalleriesPermissionDataENS1_24MediaGalleriesPermissionEE9IntersectEPKNS_13APIPermissionE to i8*)] }, align 8
@.str = private unnamed_addr constant [21 x i8] c"{\22mediaGalleries\22: [\00", align 1
@.str.1 = private unnamed_addr constant [3 x i8] c"]}\00", align 1
@.str.2 = private unnamed_addr constant [55 x i8] c"copyTo permission requires read and delete permissions\00", align 1
@.str.3 = private unnamed_addr constant [43 x i8] c"delete permission requires read permission\00", align 1
@_ZTVN10extensions24SetDisjunctionPermissionIN11chrome_apps28MediaGalleriesPermissionDataENS1_24MediaGalleriesPermissionEEE = linkonce_odr hidden unnamed_addr constant { [14 x i8*] } { [14 x i8*] [i8* null, i8* null, i8* bitcast (void (%"class.extensions::SetDisjunctionPermission"*)* @_ZN10extensions24SetDisjunctionPermissionIN11chrome_apps28MediaGalleriesPermissionDataENS1_24MediaGalleriesPermissionEED2Ev to i8*), i8* bitcast (void (%"class.extensions::SetDisjunctionPermission"*)* @_ZN10extensions24SetDisjunctionPermissionIN11chrome_apps28MediaGalleriesPermissionDataENS1_24MediaGalleriesPermissionEED0Ev to i8*), i8* bitcast (void ()* @__cxa_pure_virtual to i8*), i8* bitcast (i1 (%"class.extensions::SetDisjunctionPermission"*, %"struct.extensions::APIPermission::CheckParam"*)* @_ZNK10extensions24SetDisjunctionPermissionIN11chrome_apps28MediaGalleriesPermissionDataENS1_24MediaGalleriesPermissionEE5CheckEPKNS_13APIPermission10CheckParamE to i8*), i8* bitcast (i1 (%"class.extensions::SetDisjunctionPermission"*, %"class.extensions::APIPermission"*)* @_ZNK10extensions24SetDisjunctionPermissionIN11chrome_apps28MediaGalleriesPermissionDataENS1_24MediaGalleriesPermissionEE8ContainsEPKNS_13APIPermissionE to i8*), i8* bitcast (i1 (%"class.extensions::SetDisjunctionPermission"*, %"class.extensions::APIPermission"*)* @_ZNK10extensions24SetDisjunctionPermissionIN11chrome_apps28MediaGalleriesPermissionDataENS1_24MediaGalleriesPermissionEE5EqualEPKNS_13APIPermissionE to i8*), i8* bitcast (i1 (%"class.extensions::SetDisjunctionPermission"*, %"class.base::Value"*, %"class.std::__1::basic_string"*, %"class.std::__1::vector.39"*)* @_ZN10extensions24SetDisjunctionPermissionIN11chrome_apps28MediaGalleriesPermissionDataENS1_24MediaGalleriesPermissionEE9FromValueEPKN4base5ValueEPNSt3__112basic_stringIcNS9_11char_traitsIcEENS9_9allocatorIcEEEEPNS9_6vectorISF_NSD_ISF_EEEE to i8*), i8* bitcast (%"class.base::Value"* (%"class.extensions::SetDisjunctionPermission"*)* @_ZNK10extensions24SetDisjunctionPermissionIN11chrome_apps28MediaGalleriesPermissionDataENS1_24MediaGalleriesPermissionEE7ToValueEv to i8*), i8* bitcast (%"class.extensions::APIPermission"* (%"class.extensions::SetDisjunctionPermission"*)* @_ZNK10extensions24SetDisjunctionPermissionIN11chrome_apps28MediaGalleriesPermissionDataENS1_24MediaGalleriesPermissionEE5CloneEv to i8*), i8* bitcast (%"class.extensions::APIPermission"* (%"class.extensions::SetDisjunctionPermission"*, %"class.extensions::APIPermission"*)* @_ZNK10extensions24SetDisjunctionPermissionIN11chrome_apps28MediaGalleriesPermissionDataENS1_24MediaGalleriesPermissionEE4DiffEPKNS_13APIPermissionE to i8*), i8* bitcast (%"class.extensions::APIPermission"* (%"class.extensions::SetDisjunctionPermission"*, %"class.extensions::APIPermission"*)* @_ZNK10extensions24SetDisjunctionPermissionIN11chrome_apps28MediaGalleriesPermissionDataENS1_24MediaGalleriesPermissionEE5UnionEPKNS_13APIPermissionE to i8*), i8* bitcast (%"class.extensions::APIPermission"* (%"class.extensions::SetDisjunctionPermission"*, %"class.extensions::APIPermission"*)* @_ZNK10extensions24SetDisjunctionPermissionIN11chrome_apps28MediaGalleriesPermissionDataENS1_24MediaGalleriesPermissionEE9IntersectEPKNS_13APIPermissionE to i8*)] }, comdat, align 8
@.str.4 = private unnamed_addr constant [51 x i8] c"Cannot parse the permission list. It's not a list.\00", align 1
@.str.5 = private unnamed_addr constant [48 x i8] c"Cannot parse an item from the permission list: \00", align 1
@.str.7 = private unnamed_addr constant [65 x i8] c"../../extensions/common/permissions/set_disjunction_permission.h\00", align 1
@.str.8 = private unnamed_addr constant [22 x i8] c"rhs->info() == info()\00", align 1

@_ZN11chrome_apps24MediaGalleriesPermissionC1EPKN10extensions17APIPermissionInfoE = hidden unnamed_addr alias void (%"class.chrome_apps::MediaGalleriesPermission"*, %"class.extensions::APIPermissionInfo"*), void (%"class.chrome_apps::MediaGalleriesPermission"*, %"class.extensions::APIPermissionInfo"*)* @_ZN11chrome_apps24MediaGalleriesPermissionC2EPKN10extensions17APIPermissionInfoE
@_ZN11chrome_apps24MediaGalleriesPermissionD1Ev = hidden unnamed_addr alias void (%"class.chrome_apps::MediaGalleriesPermission"*), void (%"class.chrome_apps::MediaGalleriesPermission"*)* @_ZN11chrome_apps24MediaGalleriesPermissionD2Ev

; Function Attrs: nounwind ssp uwtable
define hidden void @_ZN11chrome_apps24MediaGalleriesPermissionC2EPKN10extensions17APIPermissionInfoE(%"class.chrome_apps::MediaGalleriesPermission"*, %"class.extensions::APIPermissionInfo"*) unnamed_addr #0 align 2 {
  %3 = getelementptr inbounds %"class.chrome_apps::MediaGalleriesPermission", %"class.chrome_apps::MediaGalleriesPermission"* %0, i64 0, i32 0, i32 0
  tail call void @_ZN10extensions13APIPermissionC2EPKNS_17APIPermissionInfoE(%"class.extensions::APIPermission"* %3, %"class.extensions::APIPermissionInfo"* %1) #10
  %4 = getelementptr inbounds %"class.chrome_apps::MediaGalleriesPermission", %"class.chrome_apps::MediaGalleriesPermission"* %0, i64 0, i32 0, i32 0, i32 0
  %5 = getelementptr inbounds %"class.chrome_apps::MediaGalleriesPermission", %"class.chrome_apps::MediaGalleriesPermission"* %0, i64 0, i32 0, i32 1, i32 0, i32 1, i32 0, i32 0, i32 0
  %6 = getelementptr inbounds %"class.chrome_apps::MediaGalleriesPermission", %"class.chrome_apps::MediaGalleriesPermission"* %0, i64 0, i32 0, i32 1, i32 0, i32 1, i32 0, i32 0
  %7 = getelementptr inbounds %"class.chrome_apps::MediaGalleriesPermission", %"class.chrome_apps::MediaGalleriesPermission"* %0, i64 0, i32 0, i32 1, i32 0, i32 0
  %8 = bitcast %"class.std::__1::__tree_node_base"** %5 to i8*
  tail call void @llvm.memset.p0i8.i64(i8* align 8 %8, i8 0, i64 16, i1 false) #10
  store %"class.std::__1::__tree_end_node"* %6, %"class.std::__1::__tree_end_node"** %7, align 8
  store i32 (...)** bitcast (i8** getelementptr inbounds ({ [14 x i8*] }, { [14 x i8*] }* @_ZTVN11chrome_apps24MediaGalleriesPermissionE, i64 0, inrange i32 0, i64 2) to i32 (...)**), i32 (...)*** %4, align 8
  ret void
}

; Function Attrs: nounwind ssp uwtable
define hidden void @_ZN11chrome_apps24MediaGalleriesPermissionD2Ev(%"class.chrome_apps::MediaGalleriesPermission"*) unnamed_addr #0 align 2 {
  %2 = getelementptr inbounds %"class.chrome_apps::MediaGalleriesPermission", %"class.chrome_apps::MediaGalleriesPermission"* %0, i64 0, i32 0, i32 0, i32 0
  store i32 (...)** bitcast (i8** getelementptr inbounds ({ [14 x i8*] }, { [14 x i8*] }* @_ZTVN10extensions24SetDisjunctionPermissionIN11chrome_apps28MediaGalleriesPermissionDataENS1_24MediaGalleriesPermissionEEE, i64 0, inrange i32 0, i64 2) to i32 (...)**), i32 (...)*** %2, align 8
  %3 = getelementptr inbounds %"class.chrome_apps::MediaGalleriesPermission", %"class.chrome_apps::MediaGalleriesPermission"* %0, i64 0, i32 0, i32 1, i32 0
  %4 = getelementptr inbounds %"class.chrome_apps::MediaGalleriesPermission", %"class.chrome_apps::MediaGalleriesPermission"* %0, i64 0, i32 0, i32 1, i32 0, i32 1, i32 0, i32 0
  %5 = bitcast %"class.std::__1::__tree_end_node"* %4 to %"class.std::__1::__tree_node"**
  %6 = load %"class.std::__1::__tree_node"*, %"class.std::__1::__tree_node"** %5, align 8
  tail call void @_ZNSt3__16__treeIN11chrome_apps28MediaGalleriesPermissionDataENS_4lessIS2_EENS_9allocatorIS2_EEE7destroyEPNS_11__tree_nodeIS2_PvEE(%"class.std::__1::__tree"* %3, %"class.std::__1::__tree_node"* %6) #10
  %7 = getelementptr inbounds %"class.chrome_apps::MediaGalleriesPermission", %"class.chrome_apps::MediaGalleriesPermission"* %0, i64 0, i32 0, i32 0
  tail call void @_ZN10extensions13APIPermissionD2Ev(%"class.extensions::APIPermission"* %7) #10
  ret void
}

; Function Attrs: nounwind ssp uwtable
define hidden void @_ZN11chrome_apps24MediaGalleriesPermissionD0Ev(%"class.chrome_apps::MediaGalleriesPermission"*) unnamed_addr #0 align 2 {
  %2 = getelementptr inbounds %"class.chrome_apps::MediaGalleriesPermission", %"class.chrome_apps::MediaGalleriesPermission"* %0, i64 0, i32 0, i32 0, i32 0
  store i32 (...)** bitcast (i8** getelementptr inbounds ({ [14 x i8*] }, { [14 x i8*] }* @_ZTVN10extensions24SetDisjunctionPermissionIN11chrome_apps28MediaGalleriesPermissionDataENS1_24MediaGalleriesPermissionEEE, i64 0, inrange i32 0, i64 2) to i32 (...)**), i32 (...)*** %2, align 8
  %3 = getelementptr inbounds %"class.chrome_apps::MediaGalleriesPermission", %"class.chrome_apps::MediaGalleriesPermission"* %0, i64 0, i32 0, i32 1, i32 0
  %4 = getelementptr inbounds %"class.chrome_apps::MediaGalleriesPermission", %"class.chrome_apps::MediaGalleriesPermission"* %0, i64 0, i32 0, i32 1, i32 0, i32 1, i32 0, i32 0
  %5 = bitcast %"class.std::__1::__tree_end_node"* %4 to %"class.std::__1::__tree_node"**
  %6 = load %"class.std::__1::__tree_node"*, %"class.std::__1::__tree_node"** %5, align 8
  tail call void @_ZNSt3__16__treeIN11chrome_apps28MediaGalleriesPermissionDataENS_4lessIS2_EENS_9allocatorIS2_EEE7destroyEPNS_11__tree_nodeIS2_PvEE(%"class.std::__1::__tree"* %3, %"class.std::__1::__tree_node"* %6) #10
  %7 = getelementptr inbounds %"class.chrome_apps::MediaGalleriesPermission", %"class.chrome_apps::MediaGalleriesPermission"* %0, i64 0, i32 0, i32 0
  tail call void @_ZN10extensions13APIPermissionD2Ev(%"class.extensions::APIPermission"* %7) #10
  %8 = bitcast %"class.chrome_apps::MediaGalleriesPermission"* %0 to i8*
  tail call void @_ZdlPv(i8* %8) #11
  ret void
}

; Function Attrs: nobuiltin nounwind
declare void @_ZdlPv(i8*) local_unnamed_addr #1

; Function Attrs: nounwind ssp uwtable
define hidden zeroext i1 @_ZN11chrome_apps24MediaGalleriesPermission9FromValueEPKN4base5ValueEPNSt3__112basic_stringIcNS5_11char_traitsIcEENS5_9allocatorIcEEEEPNS5_6vectorISB_NS9_ISB_EEEE(%"class.chrome_apps::MediaGalleriesPermission"*, %"class.base::Value"*, %"class.std::__1::basic_string"*, %"class.std::__1::vector.39"*) unnamed_addr #0 align 2 {
  %5 = alloca [15 x i8], align 8
  %6 = alloca %"class.std::__1::basic_string", align 8
  %7 = alloca %"class.std::__1::basic_string", align 8
  %8 = alloca %"class.std::__1::basic_string", align 8
  %9 = alloca %"class.std::__1::basic_string", align 8
  %10 = alloca %"class.std::__1::basic_string", align 8
  %11 = icmp eq %"class.std::__1::vector.39"* %3, null
  br i1 %11, label %12, label %15

12:                                               ; preds = %4
  %13 = getelementptr inbounds %"class.chrome_apps::MediaGalleriesPermission", %"class.chrome_apps::MediaGalleriesPermission"* %0, i64 0, i32 0
  %14 = tail call zeroext i1 @_ZN10extensions24SetDisjunctionPermissionIN11chrome_apps28MediaGalleriesPermissionDataENS1_24MediaGalleriesPermissionEE9FromValueEPKN4base5ValueEPNSt3__112basic_stringIcNS9_11char_traitsIcEENS9_9allocatorIcEEEEPNS9_6vectorISF_NSD_ISF_EEEE(%"class.extensions::SetDisjunctionPermission"* %13, %"class.base::Value"* %1, %"class.std::__1::basic_string"* %2, %"class.std::__1::vector.39"* null)
  br i1 %14, label %77, label %280

15:                                               ; preds = %4
  %16 = getelementptr inbounds %"class.std::__1::vector.39", %"class.std::__1::vector.39"* %3, i64 0, i32 0, i32 1
  %17 = bitcast %"class.std::__1::basic_string"** %16 to i64*
  %18 = load i64, i64* %17, align 8
  %19 = bitcast %"class.std::__1::vector.39"* %3 to i64*
  %20 = load i64, i64* %19, align 8
  %21 = sub i64 %18, %20
  %22 = sdiv exact i64 %21, 24
  %23 = getelementptr inbounds %"class.chrome_apps::MediaGalleriesPermission", %"class.chrome_apps::MediaGalleriesPermission"* %0, i64 0, i32 0
  %24 = tail call zeroext i1 @_ZN10extensions24SetDisjunctionPermissionIN11chrome_apps28MediaGalleriesPermissionDataENS1_24MediaGalleriesPermissionEE9FromValueEPKN4base5ValueEPNSt3__112basic_stringIcNS9_11char_traitsIcEENS9_9allocatorIcEEEEPNS9_6vectorISF_NSD_ISF_EEEE(%"class.extensions::SetDisjunctionPermission"* %23, %"class.base::Value"* %1, %"class.std::__1::basic_string"* %2, %"class.std::__1::vector.39"* nonnull %3)
  %25 = load i64, i64* %17, align 8
  %26 = load i64, i64* %19, align 8
  %27 = sub i64 %25, %26
  %28 = sdiv exact i64 %27, 24
  %29 = icmp ult i64 %22, %28
  br i1 %29, label %30, label %76

30:                                               ; preds = %15
  %31 = getelementptr inbounds [15 x i8], [15 x i8]* %5, i64 0, i64 0
  %32 = bitcast %"class.std::__1::basic_string"* %6 to i8*
  %33 = getelementptr inbounds %"class.std::__1::vector.39", %"class.std::__1::vector.39"* %3, i64 0, i32 0, i32 0
  %34 = bitcast %"class.std::__1::basic_string"* %6 to %"struct.std::__1::basic_string<char, std::__1::char_traits<char>, std::__1::allocator<char> >::__short"*
  %35 = getelementptr inbounds %"struct.std::__1::basic_string<char, std::__1::char_traits<char>, std::__1::allocator<char> >::__short", %"struct.std::__1::basic_string<char, std::__1::char_traits<char>, std::__1::allocator<char> >::__short"* %34, i64 0, i32 1, i32 0
  %36 = getelementptr inbounds %"class.std::__1::basic_string", %"class.std::__1::basic_string"* %6, i64 0, i32 0, i32 0, i32 0, i32 0, i32 0, i32 0
  br label %37

37:                                               ; preds = %30, %69
  %38 = phi i64 [ %26, %30 ], [ %72, %69 ]
  %39 = phi i64 [ %22, %30 ], [ %70, %69 ]
  %40 = inttoptr i64 %38 to %"class.std::__1::basic_string"*
  call void @llvm.lifetime.start.p0i8(i64 15, i8* nonnull %31)
  call void @llvm.lifetime.start.p0i8(i64 24, i8* nonnull %32) #10
  %41 = getelementptr inbounds %"class.std::__1::basic_string", %"class.std::__1::basic_string"* %40, i64 %39
  call void @_ZNSt3__1plIcNS_11char_traitsIcEENS_9allocatorIcEEEENS_12basic_stringIT_T0_T1_EEPKS6_RKS9_(%"class.std::__1::basic_string"* nonnull sret %6, i8* getelementptr inbounds ([21 x i8], [21 x i8]* @.str, i64 0, i64 0), %"class.std::__1::basic_string"* dereferenceable(24) %41) #10
  %42 = call dereferenceable(24) %"class.std::__1::basic_string"* @_ZNSt3__112basic_stringIcNS_11char_traitsIcEENS_9allocatorIcEEE6appendEPKc(%"class.std::__1::basic_string"* nonnull %6, i8* getelementptr inbounds ([3 x i8], [3 x i8]* @.str.1, i64 0, i64 0)) #10, !noalias !2
  %43 = bitcast %"class.std::__1::basic_string"* %42 to i8*
  %44 = bitcast %"class.std::__1::basic_string"* %42 to i64*
  %45 = load i64, i64* %44, align 8
  %46 = getelementptr inbounds %"class.std::__1::basic_string", %"class.std::__1::basic_string"* %42, i64 0, i32 0, i32 0, i32 0, i32 0, i32 0, i32 1
  %47 = bitcast i64* %46 to i8*
  call void @llvm.memcpy.p0i8.p0i8.i64(i8* nonnull align 8 %31, i8* align 8 %47, i64 15, i1 false)
  %48 = getelementptr inbounds i8, i8* %43, i64 23
  %49 = load i8, i8* %48, align 1
  call void @llvm.memset.p0i8.i64(i8* align 8 %43, i8 0, i64 24, i1 false) #10, !noalias !2
  %50 = load %"class.std::__1::basic_string"*, %"class.std::__1::basic_string"** %33, align 8
  %51 = getelementptr inbounds %"class.std::__1::basic_string", %"class.std::__1::basic_string"* %50, i64 %39
  %52 = bitcast %"class.std::__1::basic_string"* %51 to %"struct.std::__1::basic_string<char, std::__1::char_traits<char>, std::__1::allocator<char> >::__short"*
  %53 = getelementptr inbounds %"struct.std::__1::basic_string<char, std::__1::char_traits<char>, std::__1::allocator<char> >::__short", %"struct.std::__1::basic_string<char, std::__1::char_traits<char>, std::__1::allocator<char> >::__short"* %52, i64 0, i32 1, i32 0
  %54 = load i8, i8* %53, align 1
  %55 = icmp slt i8 %54, 0
  br i1 %55, label %56, label %59

56:                                               ; preds = %37
  %57 = getelementptr inbounds %"class.std::__1::basic_string", %"class.std::__1::basic_string"* %51, i64 0, i32 0, i32 0, i32 0, i32 0, i32 0, i32 0
  %58 = load i8*, i8** %57, align 8
  call void @_ZdlPv(i8* %58) #11
  br label %59

59:                                               ; preds = %56, %37
  %60 = bitcast %"class.std::__1::basic_string"* %51 to i64*
  store i64 %45, i64* %60, align 8
  %61 = getelementptr inbounds %"class.std::__1::basic_string", %"class.std::__1::basic_string"* %50, i64 %39, i32 0, i32 0, i32 0, i32 0, i32 0, i32 1
  %62 = bitcast i64* %61 to i8*
  call void @llvm.memcpy.p0i8.p0i8.i64(i8* align 8 %62, i8* nonnull align 8 %31, i64 15, i1 false)
  %63 = bitcast %"class.std::__1::basic_string"* %51 to i8*
  %64 = getelementptr inbounds i8, i8* %63, i64 23
  store i8 %49, i8* %64, align 1
  %65 = load i8, i8* %35, align 1
  %66 = icmp slt i8 %65, 0
  br i1 %66, label %67, label %69

67:                                               ; preds = %59
  %68 = load i8*, i8** %36, align 8
  call void @_ZdlPv(i8* %68) #11
  br label %69

69:                                               ; preds = %59, %67
  call void @llvm.lifetime.end.p0i8(i64 24, i8* nonnull %32) #10
  call void @llvm.lifetime.end.p0i8(i64 15, i8* nonnull %31)
  %70 = add nuw i64 %39, 1
  %71 = load i64, i64* %17, align 8
  %72 = load i64, i64* %19, align 8
  %73 = sub i64 %71, %72
  %74 = sdiv exact i64 %73, 24
  %75 = icmp ult i64 %70, %74
  br i1 %75, label %37, label %76

76:                                               ; preds = %69, %15
  br i1 %24, label %77, label %280

77:                                               ; preds = %12, %76
  %78 = getelementptr inbounds %"class.chrome_apps::MediaGalleriesPermission", %"class.chrome_apps::MediaGalleriesPermission"* %0, i64 0, i32 0, i32 1, i32 0, i32 0
  %79 = load %"class.std::__1::__tree_end_node"*, %"class.std::__1::__tree_end_node"** %78, align 8
  %80 = getelementptr inbounds %"class.chrome_apps::MediaGalleriesPermission", %"class.chrome_apps::MediaGalleriesPermission"* %0, i64 0, i32 0, i32 1, i32 0, i32 1, i32 0, i32 0
  %81 = icmp eq %"class.std::__1::__tree_end_node"* %79, %80
  br i1 %81, label %280, label %82

82:                                               ; preds = %77
  %83 = bitcast %"class.std::__1::basic_string"* %7 to i8*
  %84 = bitcast %"class.std::__1::basic_string"* %7 to %"struct.std::__1::basic_string<char, std::__1::char_traits<char>, std::__1::allocator<char> >::__short"*
  %85 = getelementptr inbounds %"struct.std::__1::basic_string<char, std::__1::char_traits<char>, std::__1::allocator<char> >::__short", %"struct.std::__1::basic_string<char, std::__1::char_traits<char>, std::__1::allocator<char> >::__short"* %84, i64 0, i32 1, i32 0
  %86 = getelementptr inbounds %"class.std::__1::basic_string", %"class.std::__1::basic_string"* %7, i64 0, i32 0, i32 0, i32 0, i32 0, i32 0, i32 1
  %87 = getelementptr inbounds %"class.std::__1::basic_string", %"class.std::__1::basic_string"* %7, i64 0, i32 0, i32 0, i32 0, i32 0, i32 0, i32 0
  %88 = bitcast %"class.std::__1::basic_string"* %8 to i8*
  %89 = bitcast %"class.std::__1::basic_string"* %8 to %"struct.std::__1::basic_string<char, std::__1::char_traits<char>, std::__1::allocator<char> >::__short"*
  %90 = getelementptr inbounds %"struct.std::__1::basic_string<char, std::__1::char_traits<char>, std::__1::allocator<char> >::__short", %"struct.std::__1::basic_string<char, std::__1::char_traits<char>, std::__1::allocator<char> >::__short"* %89, i64 0, i32 1, i32 0
  %91 = getelementptr inbounds %"class.std::__1::basic_string", %"class.std::__1::basic_string"* %8, i64 0, i32 0, i32 0, i32 0, i32 0, i32 0, i32 1
  %92 = getelementptr inbounds %"class.std::__1::basic_string", %"class.std::__1::basic_string"* %8, i64 0, i32 0, i32 0, i32 0, i32 0, i32 0, i32 0
  %93 = bitcast %"class.std::__1::basic_string"* %9 to i8*
  %94 = bitcast %"class.std::__1::basic_string"* %9 to %"struct.std::__1::basic_string<char, std::__1::char_traits<char>, std::__1::allocator<char> >::__short"*
  %95 = getelementptr inbounds %"struct.std::__1::basic_string<char, std::__1::char_traits<char>, std::__1::allocator<char> >::__short", %"struct.std::__1::basic_string<char, std::__1::char_traits<char>, std::__1::allocator<char> >::__short"* %94, i64 0, i32 1, i32 0
  %96 = getelementptr inbounds %"class.std::__1::basic_string", %"class.std::__1::basic_string"* %9, i64 0, i32 0, i32 0, i32 0, i32 0, i32 0, i32 1
  %97 = getelementptr inbounds %"class.std::__1::basic_string", %"class.std::__1::basic_string"* %9, i64 0, i32 0, i32 0, i32 0, i32 0, i32 0, i32 0
  %98 = bitcast %"class.std::__1::basic_string"* %10 to i8*
  %99 = bitcast %"class.std::__1::basic_string"* %10 to %"struct.std::__1::basic_string<char, std::__1::char_traits<char>, std::__1::allocator<char> >::__short"*
  %100 = getelementptr inbounds %"struct.std::__1::basic_string<char, std::__1::char_traits<char>, std::__1::allocator<char> >::__short", %"struct.std::__1::basic_string<char, std::__1::char_traits<char>, std::__1::allocator<char> >::__short"* %99, i64 0, i32 1, i32 0
  %101 = getelementptr inbounds %"class.std::__1::basic_string", %"class.std::__1::basic_string"* %10, i64 0, i32 0, i32 0, i32 0, i32 0, i32 0, i32 1
  %102 = getelementptr inbounds %"class.std::__1::basic_string", %"class.std::__1::basic_string"* %10, i64 0, i32 0, i32 0, i32 0, i32 0, i32 0, i32 0
  br label %103

103:                                              ; preds = %82, %257
  %104 = phi i8 [ 0, %82 ], [ %229, %257 ]
  %105 = phi i8 [ 0, %82 ], [ %228, %257 ]
  %106 = phi i8 [ 0, %82 ], [ %227, %257 ]
  %107 = phi %"class.std::__1::__tree_end_node"* [ %79, %82 ], [ %258, %257 ]
  call void @llvm.lifetime.start.p0i8(i64 24, i8* nonnull %83) #10
  %108 = getelementptr inbounds %"class.std::__1::__tree_end_node", %"class.std::__1::__tree_end_node"* %107, i64 4
  %109 = bitcast %"class.std::__1::__tree_end_node"* %108 to %"struct.std::__1::basic_string<char, std::__1::char_traits<char>, std::__1::allocator<char> >::__short"*
  %110 = getelementptr inbounds %"struct.std::__1::basic_string<char, std::__1::char_traits<char>, std::__1::allocator<char> >::__short", %"struct.std::__1::basic_string<char, std::__1::char_traits<char>, std::__1::allocator<char> >::__short"* %109, i64 0, i32 1, i32 0
  %111 = load i8, i8* %110, align 1, !noalias !5
  %112 = icmp slt i8 %111, 0
  br i1 %112, label %115, label %113

113:                                              ; preds = %103
  %114 = bitcast %"class.std::__1::__tree_end_node"* %108 to i8*
  call void @llvm.memcpy.p0i8.p0i8.i64(i8* nonnull align 8 %83, i8* align 8 %114, i64 24, i1 false) #10
  br label %121

115:                                              ; preds = %103
  %116 = bitcast %"class.std::__1::__tree_end_node"* %108 to i8**
  %117 = load i8*, i8** %116, align 8, !noalias !5
  %118 = getelementptr inbounds %"class.std::__1::__tree_end_node", %"class.std::__1::__tree_end_node"* %107, i64 5
  %119 = bitcast %"class.std::__1::__tree_end_node"* %118 to i64*
  %120 = load i64, i64* %119, align 8, !noalias !5
  call void @_ZNSt3__112basic_stringIcNS_11char_traitsIcEENS_9allocatorIcEEE25__init_copy_ctor_externalEPKcm(%"class.std::__1::basic_string"* nonnull %7, i8* %117, i64 %120) #10
  br label %121

121:                                              ; preds = %113, %115
  %122 = load i8, i8* %85, align 1
  %123 = icmp slt i8 %122, 0
  %124 = load i64, i64* %86, align 8
  %125 = zext i8 %122 to i64
  %126 = select i1 %123, i64 %124, i64 %125
  %127 = icmp eq i64 %126, 15
  br i1 %127, label %128, label %132

128:                                              ; preds = %121
  %129 = call i32 @_ZNKSt3__112basic_stringIcNS_11char_traitsIcEENS_9allocatorIcEEE7compareEmmPKcm(%"class.std::__1::basic_string"* nonnull %7, i64 0, i64 -1, i8* getelementptr inbounds ([16 x i8], [16 x i8]* @_ZN11chrome_apps24MediaGalleriesPermission26kAllAutoDetectedPermissionE, i64 0, i64 0), i64 15) #10
  %130 = icmp eq i32 %129, 0
  %131 = load i8, i8* %85, align 1
  br label %132

132:                                              ; preds = %121, %128
  %133 = phi i8 [ %131, %128 ], [ %122, %121 ]
  %134 = phi i1 [ %130, %128 ], [ false, %121 ]
  %135 = icmp slt i8 %133, 0
  br i1 %135, label %136, label %138

136:                                              ; preds = %132
  %137 = load i8*, i8** %87, align 8
  call void @_ZdlPv(i8* %137) #11
  br label %138

138:                                              ; preds = %132, %136
  call void @llvm.lifetime.end.p0i8(i64 24, i8* nonnull %83) #10
  br i1 %134, label %226, label %139

139:                                              ; preds = %138
  call void @llvm.lifetime.start.p0i8(i64 24, i8* nonnull %88) #10
  %140 = load i8, i8* %110, align 1, !noalias !8
  %141 = icmp slt i8 %140, 0
  br i1 %141, label %144, label %142

142:                                              ; preds = %139
  %143 = bitcast %"class.std::__1::__tree_end_node"* %108 to i8*
  call void @llvm.memcpy.p0i8.p0i8.i64(i8* nonnull align 8 %88, i8* align 8 %143, i64 24, i1 false) #10
  br label %150

144:                                              ; preds = %139
  %145 = bitcast %"class.std::__1::__tree_end_node"* %108 to i8**
  %146 = load i8*, i8** %145, align 8, !noalias !8
  %147 = getelementptr inbounds %"class.std::__1::__tree_end_node", %"class.std::__1::__tree_end_node"* %107, i64 5
  %148 = bitcast %"class.std::__1::__tree_end_node"* %147 to i64*
  %149 = load i64, i64* %148, align 8, !noalias !8
  call void @_ZNSt3__112basic_stringIcNS_11char_traitsIcEENS_9allocatorIcEEE25__init_copy_ctor_externalEPKcm(%"class.std::__1::basic_string"* nonnull %8, i8* %146, i64 %149) #10
  br label %150

150:                                              ; preds = %142, %144
  %151 = load i8, i8* %90, align 1
  %152 = icmp slt i8 %151, 0
  %153 = load i64, i64* %91, align 8
  %154 = zext i8 %151 to i64
  %155 = select i1 %152, i64 %153, i64 %154
  %156 = icmp eq i64 %155, 4
  br i1 %156, label %157, label %161

157:                                              ; preds = %150
  %158 = call i32 @_ZNKSt3__112basic_stringIcNS_11char_traitsIcEENS_9allocatorIcEEE7compareEmmPKcm(%"class.std::__1::basic_string"* nonnull %8, i64 0, i64 -1, i8* getelementptr inbounds ([5 x i8], [5 x i8]* @_ZN11chrome_apps24MediaGalleriesPermission15kReadPermissionE, i64 0, i64 0), i64 4) #10
  %159 = icmp eq i32 %158, 0
  %160 = load i8, i8* %90, align 1
  br label %161

161:                                              ; preds = %150, %157
  %162 = phi i8 [ %160, %157 ], [ %151, %150 ]
  %163 = phi i1 [ %159, %157 ], [ false, %150 ]
  %164 = icmp slt i8 %162, 0
  br i1 %164, label %165, label %167

165:                                              ; preds = %161
  %166 = load i8*, i8** %92, align 8
  call void @_ZdlPv(i8* %166) #11
  br label %167

167:                                              ; preds = %161, %165
  call void @llvm.lifetime.end.p0i8(i64 24, i8* nonnull %88) #10
  br i1 %163, label %226, label %168

168:                                              ; preds = %167
  call void @llvm.lifetime.start.p0i8(i64 24, i8* nonnull %93) #10
  %169 = load i8, i8* %110, align 1, !noalias !11
  %170 = icmp slt i8 %169, 0
  br i1 %170, label %173, label %171

171:                                              ; preds = %168
  %172 = bitcast %"class.std::__1::__tree_end_node"* %108 to i8*
  call void @llvm.memcpy.p0i8.p0i8.i64(i8* nonnull align 8 %93, i8* align 8 %172, i64 24, i1 false) #10
  br label %179

173:                                              ; preds = %168
  %174 = bitcast %"class.std::__1::__tree_end_node"* %108 to i8**
  %175 = load i8*, i8** %174, align 8, !noalias !11
  %176 = getelementptr inbounds %"class.std::__1::__tree_end_node", %"class.std::__1::__tree_end_node"* %107, i64 5
  %177 = bitcast %"class.std::__1::__tree_end_node"* %176 to i64*
  %178 = load i64, i64* %177, align 8, !noalias !11
  call void @_ZNSt3__112basic_stringIcNS_11char_traitsIcEENS_9allocatorIcEEE25__init_copy_ctor_externalEPKcm(%"class.std::__1::basic_string"* nonnull %9, i8* %175, i64 %178) #10
  br label %179

179:                                              ; preds = %171, %173
  %180 = load i8, i8* %95, align 1
  %181 = icmp slt i8 %180, 0
  %182 = load i64, i64* %96, align 8
  %183 = zext i8 %180 to i64
  %184 = select i1 %181, i64 %182, i64 %183
  %185 = icmp eq i64 %184, 6
  br i1 %185, label %186, label %190

186:                                              ; preds = %179
  %187 = call i32 @_ZNKSt3__112basic_stringIcNS_11char_traitsIcEENS_9allocatorIcEEE7compareEmmPKcm(%"class.std::__1::basic_string"* nonnull %9, i64 0, i64 -1, i8* getelementptr inbounds ([7 x i8], [7 x i8]* @_ZN11chrome_apps24MediaGalleriesPermission17kCopyToPermissionE, i64 0, i64 0), i64 6) #10
  %188 = icmp eq i32 %187, 0
  %189 = load i8, i8* %95, align 1
  br label %190

190:                                              ; preds = %179, %186
  %191 = phi i8 [ %189, %186 ], [ %180, %179 ]
  %192 = phi i1 [ %188, %186 ], [ false, %179 ]
  %193 = icmp slt i8 %191, 0
  br i1 %193, label %194, label %196

194:                                              ; preds = %190
  %195 = load i8*, i8** %97, align 8
  call void @_ZdlPv(i8* %195) #11
  br label %196

196:                                              ; preds = %190, %194
  call void @llvm.lifetime.end.p0i8(i64 24, i8* nonnull %93) #10
  br i1 %192, label %226, label %197

197:                                              ; preds = %196
  call void @llvm.lifetime.start.p0i8(i64 24, i8* nonnull %98) #10
  %198 = load i8, i8* %110, align 1, !noalias !14
  %199 = icmp slt i8 %198, 0
  br i1 %199, label %202, label %200

200:                                              ; preds = %197
  %201 = bitcast %"class.std::__1::__tree_end_node"* %108 to i8*
  call void @llvm.memcpy.p0i8.p0i8.i64(i8* nonnull align 8 %98, i8* align 8 %201, i64 24, i1 false) #10
  br label %208

202:                                              ; preds = %197
  %203 = bitcast %"class.std::__1::__tree_end_node"* %108 to i8**
  %204 = load i8*, i8** %203, align 8, !noalias !14
  %205 = getelementptr inbounds %"class.std::__1::__tree_end_node", %"class.std::__1::__tree_end_node"* %107, i64 5
  %206 = bitcast %"class.std::__1::__tree_end_node"* %205 to i64*
  %207 = load i64, i64* %206, align 8, !noalias !14
  call void @_ZNSt3__112basic_stringIcNS_11char_traitsIcEENS_9allocatorIcEEE25__init_copy_ctor_externalEPKcm(%"class.std::__1::basic_string"* nonnull %10, i8* %204, i64 %207) #10
  br label %208

208:                                              ; preds = %200, %202
  %209 = load i8, i8* %100, align 1
  %210 = icmp slt i8 %209, 0
  %211 = load i64, i64* %101, align 8
  %212 = zext i8 %209 to i64
  %213 = select i1 %210, i64 %211, i64 %212
  %214 = icmp eq i64 %213, 6
  br i1 %214, label %215, label %219

215:                                              ; preds = %208
  %216 = call i32 @_ZNKSt3__112basic_stringIcNS_11char_traitsIcEENS_9allocatorIcEEE7compareEmmPKcm(%"class.std::__1::basic_string"* nonnull %10, i64 0, i64 -1, i8* getelementptr inbounds ([7 x i8], [7 x i8]* @_ZN11chrome_apps24MediaGalleriesPermission17kDeletePermissionE, i64 0, i64 0), i64 6) #10
  %217 = icmp eq i32 %216, 0
  %218 = load i8, i8* %100, align 1
  br label %219

219:                                              ; preds = %208, %215
  %220 = phi i8 [ %218, %215 ], [ %209, %208 ]
  %221 = phi i1 [ %217, %215 ], [ false, %208 ]
  %222 = icmp slt i8 %220, 0
  br i1 %222, label %223, label %225

223:                                              ; preds = %219
  %224 = load i8*, i8** %102, align 8
  call void @_ZdlPv(i8* %224) #11
  br label %225

225:                                              ; preds = %219, %223
  call void @llvm.lifetime.end.p0i8(i64 24, i8* nonnull %98) #10
  br i1 %221, label %226, label %280

226:                                              ; preds = %225, %196, %167, %138
  %227 = phi i8 [ %106, %138 ], [ 1, %167 ], [ %106, %196 ], [ %106, %225 ]
  %228 = phi i8 [ %105, %138 ], [ %105, %167 ], [ 1, %196 ], [ %105, %225 ]
  %229 = phi i8 [ %104, %138 ], [ %104, %167 ], [ %104, %196 ], [ 1, %225 ]
  %230 = getelementptr inbounds %"class.std::__1::__tree_end_node", %"class.std::__1::__tree_end_node"* %107, i64 1, i32 0
  %231 = load %"class.std::__1::__tree_node_base"*, %"class.std::__1::__tree_node_base"** %230, align 8
  %232 = icmp eq %"class.std::__1::__tree_node_base"* %231, null
  br i1 %232, label %233, label %241

233:                                              ; preds = %226
  %234 = bitcast %"class.std::__1::__tree_end_node"* %107 to %"class.std::__1::__tree_node_base"*
  %235 = getelementptr inbounds %"class.std::__1::__tree_end_node", %"class.std::__1::__tree_end_node"* %107, i64 2
  %236 = bitcast %"class.std::__1::__tree_end_node"* %235 to %"class.std::__1::__tree_end_node"**
  %237 = load %"class.std::__1::__tree_end_node"*, %"class.std::__1::__tree_end_node"** %236, align 8
  %238 = getelementptr inbounds %"class.std::__1::__tree_end_node", %"class.std::__1::__tree_end_node"* %237, i64 0, i32 0
  %239 = load %"class.std::__1::__tree_node_base"*, %"class.std::__1::__tree_node_base"** %238, align 8
  %240 = icmp eq %"class.std::__1::__tree_node_base"* %239, %234
  br i1 %240, label %257, label %248

241:                                              ; preds = %226, %241
  %242 = phi %"class.std::__1::__tree_node_base"* [ %244, %241 ], [ %231, %226 ]
  %243 = getelementptr inbounds %"class.std::__1::__tree_node_base", %"class.std::__1::__tree_node_base"* %242, i64 0, i32 0, i32 0
  %244 = load %"class.std::__1::__tree_node_base"*, %"class.std::__1::__tree_node_base"** %243, align 8
  %245 = icmp eq %"class.std::__1::__tree_node_base"* %244, null
  br i1 %245, label %246, label %241

246:                                              ; preds = %241
  %247 = getelementptr inbounds %"class.std::__1::__tree_node_base", %"class.std::__1::__tree_node_base"* %242, i64 0, i32 0
  br label %257

248:                                              ; preds = %233, %248
  %249 = phi %"class.std::__1::__tree_end_node"** [ %252, %248 ], [ %236, %233 ]
  %250 = bitcast %"class.std::__1::__tree_end_node"** %249 to %"class.std::__1::__tree_node_base"**
  %251 = load %"class.std::__1::__tree_node_base"*, %"class.std::__1::__tree_node_base"** %250, align 8
  %252 = getelementptr inbounds %"class.std::__1::__tree_node_base", %"class.std::__1::__tree_node_base"* %251, i64 0, i32 2
  %253 = load %"class.std::__1::__tree_end_node"*, %"class.std::__1::__tree_end_node"** %252, align 8
  %254 = getelementptr inbounds %"class.std::__1::__tree_end_node", %"class.std::__1::__tree_end_node"* %253, i64 0, i32 0
  %255 = load %"class.std::__1::__tree_node_base"*, %"class.std::__1::__tree_node_base"** %254, align 8
  %256 = icmp eq %"class.std::__1::__tree_node_base"* %255, %251
  br i1 %256, label %257, label %248

257:                                              ; preds = %248, %233, %246
  %258 = phi %"class.std::__1::__tree_end_node"* [ %247, %246 ], [ %237, %233 ], [ %253, %248 ]
  %259 = icmp eq %"class.std::__1::__tree_end_node"* %258, %80
  br i1 %259, label %260, label %103

260:                                              ; preds = %257
  %261 = and i8 %228, 1
  %262 = icmp eq i8 %261, 0
  %263 = and i8 %227, 1
  br i1 %262, label %271, label %264

264:                                              ; preds = %260
  %265 = and i8 %263, %229
  %266 = icmp eq i8 %265, 0
  br i1 %266, label %267, label %280

267:                                              ; preds = %264
  %268 = icmp eq %"class.std::__1::basic_string"* %2, null
  br i1 %268, label %280, label %269

269:                                              ; preds = %267
  %270 = call dereferenceable(24) %"class.std::__1::basic_string"* @_ZNSt3__112basic_stringIcNS_11char_traitsIcEENS_9allocatorIcEEE17__assign_externalEPKcm(%"class.std::__1::basic_string"* nonnull %2, i8* getelementptr inbounds ([55 x i8], [55 x i8]* @.str.2, i64 0, i64 0), i64 54) #10
  br label %280

271:                                              ; preds = %260
  %272 = icmp ne i8 %263, 0
  %273 = and i8 %229, 1
  %274 = icmp eq i8 %273, 0
  %275 = or i1 %272, %274
  br i1 %275, label %280, label %276

276:                                              ; preds = %271
  %277 = icmp eq %"class.std::__1::basic_string"* %2, null
  br i1 %277, label %280, label %278

278:                                              ; preds = %276
  %279 = call dereferenceable(24) %"class.std::__1::basic_string"* @_ZNSt3__112basic_stringIcNS_11char_traitsIcEENS_9allocatorIcEEE17__assign_externalEPKcm(%"class.std::__1::basic_string"* nonnull %2, i8* getelementptr inbounds ([43 x i8], [43 x i8]* @.str.3, i64 0, i64 0), i64 42) #10
  br label %280

280:                                              ; preds = %225, %77, %264, %276, %271, %267, %269, %278, %12, %76
  %281 = phi i1 [ false, %76 ], [ false, %12 ], [ true, %264 ], [ false, %267 ], [ false, %276 ], [ true, %271 ], [ false, %269 ], [ false, %278 ], [ true, %77 ], [ false, %225 ]
  ret i1 %281
}

; Function Attrs: argmemonly nounwind
declare void @llvm.lifetime.start.p0i8(i64 immarg, i8* nocapture) #2

; Function Attrs: nounwind ssp uwtable
define linkonce_odr hidden zeroext i1 @_ZN10extensions24SetDisjunctionPermissionIN11chrome_apps28MediaGalleriesPermissionDataENS1_24MediaGalleriesPermissionEE9FromValueEPKN4base5ValueEPNSt3__112basic_stringIcNS9_11char_traitsIcEENS9_9allocatorIcEEEEPNS9_6vectorISF_NSD_ISF_EEEE(%"class.extensions::SetDisjunctionPermission"*, %"class.base::Value"*, %"class.std::__1::basic_string"*, %"class.std::__1::vector.39"*) unnamed_addr #0 comdat align 2 {
  %5 = alloca %"class.base::ListValue"*, align 8
  %6 = alloca %"class.base::Value"*, align 8
  %7 = alloca %"class.chrome_apps::MediaGalleriesPermissionData", align 8
  %8 = alloca %"class.std::__1::basic_string", align 8
  %9 = alloca %"class.std::__1::basic_string", align 8
  %10 = getelementptr inbounds %"class.extensions::SetDisjunctionPermission", %"class.extensions::SetDisjunctionPermission"* %0, i64 0, i32 1
  %11 = getelementptr inbounds %"class.std::__1::set", %"class.std::__1::set"* %10, i64 0, i32 0
  %12 = getelementptr inbounds %"class.extensions::SetDisjunctionPermission", %"class.extensions::SetDisjunctionPermission"* %0, i64 0, i32 1, i32 0, i32 1, i32 0, i32 0
  %13 = bitcast %"class.std::__1::__tree_end_node"* %12 to %"class.std::__1::__tree_node"**
  %14 = load %"class.std::__1::__tree_node"*, %"class.std::__1::__tree_node"** %13, align 8
  tail call void @_ZNSt3__16__treeIN11chrome_apps28MediaGalleriesPermissionDataENS_4lessIS2_EENS_9allocatorIS2_EEE7destroyEPNS_11__tree_nodeIS2_PvEE(%"class.std::__1::__tree"* %11, %"class.std::__1::__tree_node"* %14) #10
  %15 = getelementptr inbounds %"class.extensions::SetDisjunctionPermission", %"class.extensions::SetDisjunctionPermission"* %0, i64 0, i32 1, i32 0, i32 2, i32 0, i32 0
  store i64 0, i64* %15, align 8
  %16 = getelementptr inbounds %"class.std::__1::set", %"class.std::__1::set"* %10, i64 0, i32 0, i32 0
  store %"class.std::__1::__tree_end_node"* %12, %"class.std::__1::__tree_end_node"** %16, align 8
  %17 = getelementptr inbounds %"class.std::__1::__tree_end_node", %"class.std::__1::__tree_end_node"* %12, i64 0, i32 0
  store %"class.std::__1::__tree_node_base"* null, %"class.std::__1::__tree_node_base"** %17, align 8
  %18 = bitcast %"class.base::ListValue"** %5 to i8*
  call void @llvm.lifetime.start.p0i8(i64 8, i8* nonnull %18) #10
  store %"class.base::ListValue"* null, %"class.base::ListValue"** %5, align 8
  %19 = icmp eq %"class.base::Value"* %1, null
  br i1 %19, label %120, label %20

20:                                               ; preds = %4
  %21 = call zeroext i1 @_ZNK4base5Value9GetAsListEPPKNS_9ListValueE(%"class.base::Value"* nonnull %1, %"class.base::ListValue"** nonnull %5) #10
  br i1 %21, label %22, label %49

22:                                               ; preds = %20
  %23 = load %"class.base::ListValue"*, %"class.base::ListValue"** %5, align 8
  %24 = getelementptr inbounds %"class.base::ListValue", %"class.base::ListValue"* %23, i64 0, i32 0, i32 0, i32 0, i32 0, i32 0, i32 0, i32 0, i32 0, i32 1
  %25 = load i64, i64* %24, align 8
  %26 = icmp eq i64 %25, 7
  br i1 %26, label %27, label %59, !prof !17

27:                                               ; preds = %22
  %28 = bitcast %"class.base::Value"** %6 to i8*
  %29 = bitcast %"class.chrome_apps::MediaGalleriesPermissionData"* %7 to i8*
  %30 = getelementptr inbounds %"class.chrome_apps::MediaGalleriesPermissionData", %"class.chrome_apps::MediaGalleriesPermissionData"* %7, i64 0, i32 0, i32 0, i32 0, i32 0, i32 0, i32 0, i32 0
  %31 = bitcast %"class.std::__1::basic_string"* %8 to i8*
  %32 = getelementptr inbounds %"class.std::__1::basic_string", %"class.std::__1::basic_string"* %8, i64 0, i32 0, i32 0, i32 0, i32 0, i32 0, i32 0
  %33 = getelementptr inbounds %"class.std::__1::basic_string", %"class.std::__1::basic_string"* %8, i64 0, i32 0, i32 0, i32 0, i32 0, i32 0, i32 1
  %34 = icmp eq %"class.std::__1::vector.39"* %3, null
  %35 = getelementptr inbounds %"class.std::__1::vector.39", %"class.std::__1::vector.39"* %3, i64 0, i32 0, i32 1
  %36 = getelementptr inbounds %"class.std::__1::vector.39", %"class.std::__1::vector.39"* %3, i64 0, i32 0, i32 2, i32 0, i32 0
  %37 = bitcast %"class.std::__1::basic_string"* %8 to %"struct.std::__1::basic_string<char, std::__1::char_traits<char>, std::__1::allocator<char> >::__short"*
  %38 = getelementptr inbounds %"struct.std::__1::basic_string<char, std::__1::char_traits<char>, std::__1::allocator<char> >::__short", %"struct.std::__1::basic_string<char, std::__1::char_traits<char>, std::__1::allocator<char> >::__short"* %37, i64 0, i32 1, i32 0
  %39 = bitcast %"class.std::__1::basic_string"** %35 to i64*
  %40 = icmp eq %"class.std::__1::basic_string"* %2, null
  %41 = bitcast %"class.std::__1::basic_string"* %9 to i8*
  %42 = bitcast %"class.std::__1::basic_string"* %2 to %"struct.std::__1::basic_string<char, std::__1::char_traits<char>, std::__1::allocator<char> >::__short"*
  %43 = getelementptr inbounds %"struct.std::__1::basic_string<char, std::__1::char_traits<char>, std::__1::allocator<char> >::__short", %"struct.std::__1::basic_string<char, std::__1::char_traits<char>, std::__1::allocator<char> >::__short"* %42, i64 0, i32 1, i32 0
  %44 = getelementptr inbounds %"class.std::__1::basic_string", %"class.std::__1::basic_string"* %2, i64 0, i32 0, i32 0, i32 0, i32 0, i32 0, i32 0
  %45 = bitcast %"class.std::__1::basic_string"* %2 to i8*
  %46 = bitcast %"class.chrome_apps::MediaGalleriesPermissionData"* %7 to %"struct.std::__1::basic_string<char, std::__1::char_traits<char>, std::__1::allocator<char> >::__short"*
  %47 = getelementptr inbounds %"struct.std::__1::basic_string<char, std::__1::char_traits<char>, std::__1::allocator<char> >::__short", %"struct.std::__1::basic_string<char, std::__1::char_traits<char>, std::__1::allocator<char> >::__short"* %46, i64 0, i32 1, i32 0
  %48 = bitcast %"class.chrome_apps::MediaGalleriesPermissionData"* %7 to i8*
  br label %61

49:                                               ; preds = %20
  %50 = icmp eq %"class.std::__1::basic_string"* %2, null
  br i1 %50, label %120, label %51

51:                                               ; preds = %49
  %52 = call dereferenceable(24) %"class.std::__1::basic_string"* @_ZNSt3__112basic_stringIcNS_11char_traitsIcEENS_9allocatorIcEEE17__assign_externalEPKcm(%"class.std::__1::basic_string"* nonnull %2, i8* getelementptr inbounds ([51 x i8], [51 x i8]* @.str.4, i64 0, i64 0), i64 50) #10
  br label %120

53:                                               ; preds = %118
  %54 = add nuw i64 %63, 1
  %55 = load %"class.base::ListValue"*, %"class.base::ListValue"** %5, align 8
  %56 = getelementptr inbounds %"class.base::ListValue", %"class.base::ListValue"* %55, i64 0, i32 0, i32 0, i32 0, i32 0, i32 0, i32 0, i32 0, i32 0, i32 1
  %57 = load i64, i64* %56, align 8
  %58 = icmp eq i64 %57, 7
  br i1 %58, label %61, label %59, !prof !17

59:                                               ; preds = %53, %22
  %60 = call dereferenceable(24) %"class.std::__1::vector.31"* @_ZN4absl16variant_internal26TypedThrowBadVariantAccessIRKNSt3__16vectorIN4base5ValueENS2_9allocatorIS5_EEEEEET_v() #12
  unreachable

61:                                               ; preds = %27, %53
  %62 = phi %"class.base::ListValue"* [ %23, %27 ], [ %55, %53 ]
  %63 = phi i64 [ 0, %27 ], [ %54, %53 ]
  %64 = getelementptr inbounds %"class.base::ListValue", %"class.base::ListValue"* %62, i64 0, i32 0, i32 0, i32 0, i32 0, i32 0, i32 0, i32 0, i32 0, i32 0, i32 0, i32 0, i32 0, i32 0, i32 0, i32 0, i32 0, i32 0, i32 0, i32 0, i32 1
  %65 = load i64, i64* %64, align 8
  %66 = bitcast %"class.base::ListValue"* %62 to i64*
  %67 = load i64, i64* %66, align 8
  %68 = sub i64 %65, %67
  %69 = ashr exact i64 %68, 5
  %70 = icmp ult i64 %63, %69
  br i1 %70, label %71, label %120

71:                                               ; preds = %61
  call void @llvm.lifetime.start.p0i8(i64 8, i8* nonnull %28) #10
  store %"class.base::Value"* null, %"class.base::Value"** %6, align 8
  %72 = call zeroext i1 @_ZNK4base9ListValue3GetEmPPKNS_5ValueE(%"class.base::ListValue"* %62, i64 %63, %"class.base::Value"** nonnull %6) #10
  call void @llvm.lifetime.start.p0i8(i64 24, i8* nonnull %29) #10
  call void @llvm.memset.p0i8.i64(i8* nonnull align 8 %48, i8 -86, i64 24, i1 false)
  call void @_ZN11chrome_apps28MediaGalleriesPermissionDataC1Ev(%"class.chrome_apps::MediaGalleriesPermissionData"* nonnull %7) #10
  %73 = load %"class.base::Value"*, %"class.base::Value"** %6, align 8
  %74 = call zeroext i1 @_ZN11chrome_apps28MediaGalleriesPermissionData9FromValueEPKN4base5ValueE(%"class.chrome_apps::MediaGalleriesPermissionData"* nonnull %7, %"class.base::Value"* %73) #10
  br i1 %74, label %75, label %77

75:                                               ; preds = %71
  %76 = call { %"class.std::__1::__tree_end_node"*, i8 } @_ZNSt3__16__treeIN11chrome_apps28MediaGalleriesPermissionDataENS_4lessIS2_EENS_9allocatorIS2_EEE25__emplace_unique_key_argsIS2_JRKS2_EEENS_4pairINS_15__tree_iteratorIS2_PNS_11__tree_nodeIS2_PvEElEEbEERKT_DpOT0_(%"class.std::__1::__tree"* %11, %"class.chrome_apps::MediaGalleriesPermissionData"* nonnull dereferenceable(24) %7, %"class.chrome_apps::MediaGalleriesPermissionData"* nonnull dereferenceable(24) %7) #10
  br label %111

77:                                               ; preds = %71
  call void @llvm.lifetime.start.p0i8(i64 24, i8* nonnull %31) #10
  call void @llvm.memset.p0i8.i64(i8* nonnull align 8 %31, i8 0, i64 24, i1 false) #10
  %78 = load %"class.base::Value"*, %"class.base::Value"** %6, align 8
  %79 = call zeroext i1 @_ZN4base10JSONWriter5WriteERKNS_5ValueEPNSt3__112basic_stringIcNS4_11char_traitsIcEENS4_9allocatorIcEEEEm(%"class.base::Value"* dereferenceable(32) %78, %"class.std::__1::basic_string"* nonnull %8, i64 200) #10
  br i1 %34, label %96, label %80

80:                                               ; preds = %77
  %81 = load %"class.std::__1::basic_string"*, %"class.std::__1::basic_string"** %35, align 8
  %82 = load %"class.std::__1::basic_string"*, %"class.std::__1::basic_string"** %36, align 8
  %83 = icmp eq %"class.std::__1::basic_string"* %81, %82
  br i1 %83, label %95, label %84

84:                                               ; preds = %80
  %85 = load i8, i8* %38, align 1
  %86 = icmp slt i8 %85, 0
  br i1 %86, label %89, label %87

87:                                               ; preds = %84
  %88 = bitcast %"class.std::__1::basic_string"* %81 to i8*
  call void @llvm.memcpy.p0i8.p0i8.i64(i8* align 8 %88, i8* nonnull align 8 %31, i64 24, i1 false) #10
  br label %92

89:                                               ; preds = %84
  %90 = load i8*, i8** %32, align 8
  %91 = load i64, i64* %33, align 8
  call void @_ZNSt3__112basic_stringIcNS_11char_traitsIcEENS_9allocatorIcEEE25__init_copy_ctor_externalEPKcm(%"class.std::__1::basic_string"* %81, i8* %90, i64 %91) #10
  br label %92

92:                                               ; preds = %89, %87
  %93 = getelementptr inbounds %"class.std::__1::basic_string", %"class.std::__1::basic_string"* %81, i64 1
  %94 = ptrtoint %"class.std::__1::basic_string"* %93 to i64
  store i64 %94, i64* %39, align 8
  br label %103

95:                                               ; preds = %80
  call void @_ZNSt3__16vectorINS_12basic_stringIcNS_11char_traitsIcEENS_9allocatorIcEEEENS4_IS6_EEE21__push_back_slow_pathIRKS6_EEvOT_(%"class.std::__1::vector.39"* nonnull %3, %"class.std::__1::basic_string"* nonnull dereferenceable(24) %8) #10
  br label %103

96:                                               ; preds = %77
  br i1 %40, label %103, label %97

97:                                               ; preds = %96
  call void @llvm.lifetime.start.p0i8(i64 24, i8* nonnull %41) #10
  call void @_ZNSt3__1plIcNS_11char_traitsIcEENS_9allocatorIcEEEENS_12basic_stringIT_T0_T1_EEPKS6_RKS9_(%"class.std::__1::basic_string"* nonnull sret %9, i8* getelementptr inbounds ([48 x i8], [48 x i8]* @.str.5, i64 0, i64 0), %"class.std::__1::basic_string"* nonnull dereferenceable(24) %8) #10
  %98 = load i8, i8* %43, align 1
  %99 = icmp slt i8 %98, 0
  br i1 %99, label %100, label %102

100:                                              ; preds = %97
  %101 = load i8*, i8** %44, align 8
  call void @_ZdlPv(i8* %101) #11
  br label %102

102:                                              ; preds = %100, %97
  call void @llvm.memcpy.p0i8.p0i8.i64(i8* nonnull align 8 %45, i8* nonnull align 8 %41, i64 24, i1 false) #10
  call void @llvm.lifetime.end.p0i8(i64 24, i8* nonnull %41) #10
  br label %103

103:                                              ; preds = %95, %92, %102, %96
  %104 = phi i32 [ 1, %96 ], [ 1, %102 ], [ 0, %92 ], [ 0, %95 ]
  %105 = load i8, i8* %38, align 1
  %106 = icmp slt i8 %105, 0
  br i1 %106, label %107, label %109

107:                                              ; preds = %103
  %108 = load i8*, i8** %32, align 8
  call void @_ZdlPv(i8* %108) #11
  br label %109

109:                                              ; preds = %103, %107
  call void @llvm.lifetime.end.p0i8(i64 24, i8* nonnull %31) #10
  %110 = icmp eq i32 %104, 0
  br i1 %110, label %111, label %112

111:                                              ; preds = %109, %75
  br label %112

112:                                              ; preds = %109, %111
  %113 = phi i32 [ 0, %111 ], [ 1, %109 ]
  %114 = load i8, i8* %47, align 1
  %115 = icmp slt i8 %114, 0
  br i1 %115, label %116, label %118

116:                                              ; preds = %112
  %117 = load i8*, i8** %30, align 8
  call void @_ZdlPv(i8* %117) #11
  br label %118

118:                                              ; preds = %112, %116
  call void @llvm.lifetime.end.p0i8(i64 24, i8* nonnull %29) #10
  call void @llvm.lifetime.end.p0i8(i64 8, i8* nonnull %28) #10
  %119 = icmp eq i32 %113, 0
  br i1 %119, label %53, label %120

120:                                              ; preds = %118, %61, %51, %49, %4
  %121 = phi i1 [ true, %4 ], [ false, %49 ], [ false, %51 ], [ true, %61 ], [ false, %118 ]
  call void @llvm.lifetime.end.p0i8(i64 8, i8* nonnull %18) #10
  ret i1 %121
}

declare void @_ZNSt3__1plIcNS_11char_traitsIcEENS_9allocatorIcEEEENS_12basic_stringIT_T0_T1_EEPKS6_RKS9_(%"class.std::__1::basic_string"* sret, i8*, %"class.std::__1::basic_string"* dereferenceable(24)) local_unnamed_addr #3

; Function Attrs: argmemonly nounwind
declare void @llvm.lifetime.end.p0i8(i64 immarg, i8* nocapture) #2

; Function Attrs: nounwind ssp uwtable
define hidden void @_ZNK11chrome_apps24MediaGalleriesPermission14GetPermissionsEv(%"class.extensions::PermissionIDSet"* noalias sret, %"class.chrome_apps::MediaGalleriesPermission"*) unnamed_addr #0 align 2 {
  %3 = alloca %"class.std::__1::basic_string", align 8
  %4 = alloca %"class.std::__1::basic_string", align 8
  %5 = alloca %"class.std::__1::basic_string", align 8
  %6 = alloca %"class.std::__1::basic_string", align 8
  %7 = bitcast %"class.extensions::PermissionIDSet"* %0 to i8*
  call void @llvm.memset.p0i8.i64(i8* align 8 %7, i8 -86, i64 32, i1 false)
  tail call void @_ZN10extensions15PermissionIDSetC1Ev(%"class.extensions::PermissionIDSet"* %0) #10
  %8 = getelementptr inbounds %"class.chrome_apps::MediaGalleriesPermission", %"class.chrome_apps::MediaGalleriesPermission"* %1, i64 0, i32 0, i32 1, i32 0, i32 0
  %9 = load %"class.std::__1::__tree_end_node"*, %"class.std::__1::__tree_end_node"** %8, align 8
  %10 = getelementptr inbounds %"class.chrome_apps::MediaGalleriesPermission", %"class.chrome_apps::MediaGalleriesPermission"* %1, i64 0, i32 0, i32 1, i32 0, i32 1, i32 0, i32 0
  %11 = icmp eq %"class.std::__1::__tree_end_node"* %9, %10
  br i1 %11, label %216, label %12

12:                                               ; preds = %2
  %13 = bitcast %"class.std::__1::basic_string"* %3 to i8*
  %14 = bitcast %"class.std::__1::basic_string"* %3 to %"struct.std::__1::basic_string<char, std::__1::char_traits<char>, std::__1::allocator<char> >::__short"*
  %15 = getelementptr inbounds %"struct.std::__1::basic_string<char, std::__1::char_traits<char>, std::__1::allocator<char> >::__short", %"struct.std::__1::basic_string<char, std::__1::char_traits<char>, std::__1::allocator<char> >::__short"* %14, i64 0, i32 1, i32 0
  %16 = getelementptr inbounds %"class.std::__1::basic_string", %"class.std::__1::basic_string"* %3, i64 0, i32 0, i32 0, i32 0, i32 0, i32 0, i32 1
  %17 = getelementptr inbounds %"class.std::__1::basic_string", %"class.std::__1::basic_string"* %3, i64 0, i32 0, i32 0, i32 0, i32 0, i32 0, i32 0
  %18 = bitcast %"class.std::__1::basic_string"* %4 to i8*
  %19 = bitcast %"class.std::__1::basic_string"* %4 to %"struct.std::__1::basic_string<char, std::__1::char_traits<char>, std::__1::allocator<char> >::__short"*
  %20 = getelementptr inbounds %"struct.std::__1::basic_string<char, std::__1::char_traits<char>, std::__1::allocator<char> >::__short", %"struct.std::__1::basic_string<char, std::__1::char_traits<char>, std::__1::allocator<char> >::__short"* %19, i64 0, i32 1, i32 0
  %21 = getelementptr inbounds %"class.std::__1::basic_string", %"class.std::__1::basic_string"* %4, i64 0, i32 0, i32 0, i32 0, i32 0, i32 0, i32 1
  %22 = getelementptr inbounds %"class.std::__1::basic_string", %"class.std::__1::basic_string"* %4, i64 0, i32 0, i32 0, i32 0, i32 0, i32 0, i32 0
  %23 = bitcast %"class.std::__1::basic_string"* %5 to i8*
  %24 = bitcast %"class.std::__1::basic_string"* %5 to %"struct.std::__1::basic_string<char, std::__1::char_traits<char>, std::__1::allocator<char> >::__short"*
  %25 = getelementptr inbounds %"struct.std::__1::basic_string<char, std::__1::char_traits<char>, std::__1::allocator<char> >::__short", %"struct.std::__1::basic_string<char, std::__1::char_traits<char>, std::__1::allocator<char> >::__short"* %24, i64 0, i32 1, i32 0
  %26 = getelementptr inbounds %"class.std::__1::basic_string", %"class.std::__1::basic_string"* %5, i64 0, i32 0, i32 0, i32 0, i32 0, i32 0, i32 1
  %27 = getelementptr inbounds %"class.std::__1::basic_string", %"class.std::__1::basic_string"* %5, i64 0, i32 0, i32 0, i32 0, i32 0, i32 0, i32 0
  %28 = bitcast %"class.std::__1::basic_string"* %6 to i8*
  %29 = bitcast %"class.std::__1::basic_string"* %6 to %"struct.std::__1::basic_string<char, std::__1::char_traits<char>, std::__1::allocator<char> >::__short"*
  %30 = getelementptr inbounds %"struct.std::__1::basic_string<char, std::__1::char_traits<char>, std::__1::allocator<char> >::__short", %"struct.std::__1::basic_string<char, std::__1::char_traits<char>, std::__1::allocator<char> >::__short"* %29, i64 0, i32 1, i32 0
  %31 = getelementptr inbounds %"class.std::__1::basic_string", %"class.std::__1::basic_string"* %6, i64 0, i32 0, i32 0, i32 0, i32 0, i32 0, i32 1
  %32 = getelementptr inbounds %"class.std::__1::basic_string", %"class.std::__1::basic_string"* %6, i64 0, i32 0, i32 0, i32 0, i32 0, i32 0, i32 0
  br label %52

33:                                               ; preds = %209
  %34 = and i8 %179, 1
  %35 = icmp ne i8 %34, 0
  %36 = and i8 %180, 1
  %37 = icmp eq i8 %36, 0
  %38 = and i8 %181, 1
  %39 = icmp ne i8 %38, 0
  br i1 %37, label %43, label %40

40:                                               ; preds = %33
  %41 = and i8 %34, %181
  %42 = icmp eq i8 %41, 0
  br i1 %42, label %216, label %46

43:                                               ; preds = %33
  %44 = xor i1 %39, true
  %45 = or i1 %35, %44
  br i1 %45, label %46, label %216

46:                                               ; preds = %40, %43
  %47 = phi i1 [ true, %40 ], [ false, %43 ]
  %48 = and i8 %178, 1
  %49 = icmp eq i8 %48, 0
  %50 = xor i1 %35, true
  %51 = or i1 %49, %50
  br i1 %51, label %216, label %212

52:                                               ; preds = %12, %209
  %53 = phi i8 [ 0, %12 ], [ %181, %209 ]
  %54 = phi i8 [ 0, %12 ], [ %180, %209 ]
  %55 = phi i8 [ 0, %12 ], [ %179, %209 ]
  %56 = phi i8 [ 0, %12 ], [ %178, %209 ]
  %57 = phi %"class.std::__1::__tree_end_node"* [ %9, %12 ], [ %210, %209 ]
  %58 = getelementptr inbounds %"class.std::__1::__tree_end_node", %"class.std::__1::__tree_end_node"* %57, i64 4
  call void @llvm.lifetime.start.p0i8(i64 24, i8* nonnull %13) #10
  %59 = bitcast %"class.std::__1::__tree_end_node"* %58 to %"struct.std::__1::basic_string<char, std::__1::char_traits<char>, std::__1::allocator<char> >::__short"*
  %60 = getelementptr inbounds %"struct.std::__1::basic_string<char, std::__1::char_traits<char>, std::__1::allocator<char> >::__short", %"struct.std::__1::basic_string<char, std::__1::char_traits<char>, std::__1::allocator<char> >::__short"* %59, i64 0, i32 1, i32 0
  %61 = load i8, i8* %60, align 1, !noalias !18
  %62 = icmp slt i8 %61, 0
  br i1 %62, label %65, label %63

63:                                               ; preds = %52
  %64 = bitcast %"class.std::__1::__tree_end_node"* %58 to i8*
  call void @llvm.memcpy.p0i8.p0i8.i64(i8* nonnull align 8 %13, i8* align 8 %64, i64 24, i1 false) #10
  br label %71

65:                                               ; preds = %52
  %66 = bitcast %"class.std::__1::__tree_end_node"* %58 to i8**
  %67 = load i8*, i8** %66, align 8, !noalias !18
  %68 = getelementptr inbounds %"class.std::__1::__tree_end_node", %"class.std::__1::__tree_end_node"* %57, i64 5
  %69 = bitcast %"class.std::__1::__tree_end_node"* %68 to i64*
  %70 = load i64, i64* %69, align 8, !noalias !18
  call void @_ZNSt3__112basic_stringIcNS_11char_traitsIcEENS_9allocatorIcEEE25__init_copy_ctor_externalEPKcm(%"class.std::__1::basic_string"* nonnull %3, i8* %67, i64 %70) #10
  br label %71

71:                                               ; preds = %63, %65
  %72 = load i8, i8* %15, align 1
  %73 = icmp slt i8 %72, 0
  %74 = load i64, i64* %16, align 8
  %75 = zext i8 %72 to i64
  %76 = select i1 %73, i64 %74, i64 %75
  %77 = icmp eq i64 %76, 15
  br i1 %77, label %78, label %82

78:                                               ; preds = %71
  %79 = call i32 @_ZNKSt3__112basic_stringIcNS_11char_traitsIcEENS_9allocatorIcEEE7compareEmmPKcm(%"class.std::__1::basic_string"* nonnull %3, i64 0, i64 -1, i8* getelementptr inbounds ([16 x i8], [16 x i8]* @_ZN11chrome_apps24MediaGalleriesPermission26kAllAutoDetectedPermissionE, i64 0, i64 0), i64 15) #10
  %80 = icmp eq i32 %79, 0
  %81 = load i8, i8* %15, align 1
  br label %82

82:                                               ; preds = %71, %78
  %83 = phi i8 [ %81, %78 ], [ %72, %71 ]
  %84 = phi i1 [ %80, %78 ], [ false, %71 ]
  %85 = icmp slt i8 %83, 0
  br i1 %85, label %86, label %88

86:                                               ; preds = %82
  %87 = load i8*, i8** %17, align 8
  call void @_ZdlPv(i8* %87) #11
  br label %88

88:                                               ; preds = %82, %86
  call void @llvm.lifetime.end.p0i8(i64 24, i8* nonnull %13) #10
  br i1 %84, label %177, label %89

89:                                               ; preds = %88
  call void @llvm.lifetime.start.p0i8(i64 24, i8* nonnull %18) #10
  %90 = load i8, i8* %60, align 1, !noalias !21
  %91 = icmp slt i8 %90, 0
  br i1 %91, label %94, label %92

92:                                               ; preds = %89
  %93 = bitcast %"class.std::__1::__tree_end_node"* %58 to i8*
  call void @llvm.memcpy.p0i8.p0i8.i64(i8* nonnull align 8 %18, i8* align 8 %93, i64 24, i1 false) #10
  br label %100

94:                                               ; preds = %89
  %95 = bitcast %"class.std::__1::__tree_end_node"* %58 to i8**
  %96 = load i8*, i8** %95, align 8, !noalias !21
  %97 = getelementptr inbounds %"class.std::__1::__tree_end_node", %"class.std::__1::__tree_end_node"* %57, i64 5
  %98 = bitcast %"class.std::__1::__tree_end_node"* %97 to i64*
  %99 = load i64, i64* %98, align 8, !noalias !21
  call void @_ZNSt3__112basic_stringIcNS_11char_traitsIcEENS_9allocatorIcEEE25__init_copy_ctor_externalEPKcm(%"class.std::__1::basic_string"* nonnull %4, i8* %96, i64 %99) #10
  br label %100

100:                                              ; preds = %92, %94
  %101 = load i8, i8* %20, align 1
  %102 = icmp slt i8 %101, 0
  %103 = load i64, i64* %21, align 8
  %104 = zext i8 %101 to i64
  %105 = select i1 %102, i64 %103, i64 %104
  %106 = icmp eq i64 %105, 4
  br i1 %106, label %107, label %111

107:                                              ; preds = %100
  %108 = call i32 @_ZNKSt3__112basic_stringIcNS_11char_traitsIcEENS_9allocatorIcEEE7compareEmmPKcm(%"class.std::__1::basic_string"* nonnull %4, i64 0, i64 -1, i8* getelementptr inbounds ([5 x i8], [5 x i8]* @_ZN11chrome_apps24MediaGalleriesPermission15kReadPermissionE, i64 0, i64 0), i64 4) #10
  %109 = icmp eq i32 %108, 0
  %110 = load i8, i8* %20, align 1
  br label %111

111:                                              ; preds = %100, %107
  %112 = phi i8 [ %110, %107 ], [ %101, %100 ]
  %113 = phi i1 [ %109, %107 ], [ false, %100 ]
  %114 = icmp slt i8 %112, 0
  br i1 %114, label %115, label %117

115:                                              ; preds = %111
  %116 = load i8*, i8** %22, align 8
  call void @_ZdlPv(i8* %116) #11
  br label %117

117:                                              ; preds = %111, %115
  call void @llvm.lifetime.end.p0i8(i64 24, i8* nonnull %18) #10
  br i1 %113, label %177, label %118

118:                                              ; preds = %117
  call void @llvm.lifetime.start.p0i8(i64 24, i8* nonnull %23) #10
  %119 = load i8, i8* %60, align 1, !noalias !24
  %120 = icmp slt i8 %119, 0
  br i1 %120, label %123, label %121

121:                                              ; preds = %118
  %122 = bitcast %"class.std::__1::__tree_end_node"* %58 to i8*
  call void @llvm.memcpy.p0i8.p0i8.i64(i8* nonnull align 8 %23, i8* align 8 %122, i64 24, i1 false) #10
  br label %129

123:                                              ; preds = %118
  %124 = bitcast %"class.std::__1::__tree_end_node"* %58 to i8**
  %125 = load i8*, i8** %124, align 8, !noalias !24
  %126 = getelementptr inbounds %"class.std::__1::__tree_end_node", %"class.std::__1::__tree_end_node"* %57, i64 5
  %127 = bitcast %"class.std::__1::__tree_end_node"* %126 to i64*
  %128 = load i64, i64* %127, align 8, !noalias !24
  call void @_ZNSt3__112basic_stringIcNS_11char_traitsIcEENS_9allocatorIcEEE25__init_copy_ctor_externalEPKcm(%"class.std::__1::basic_string"* nonnull %5, i8* %125, i64 %128) #10
  br label %129

129:                                              ; preds = %121, %123
  %130 = load i8, i8* %25, align 1
  %131 = icmp slt i8 %130, 0
  %132 = load i64, i64* %26, align 8
  %133 = zext i8 %130 to i64
  %134 = select i1 %131, i64 %132, i64 %133
  %135 = icmp eq i64 %134, 6
  br i1 %135, label %136, label %140

136:                                              ; preds = %129
  %137 = call i32 @_ZNKSt3__112basic_stringIcNS_11char_traitsIcEENS_9allocatorIcEEE7compareEmmPKcm(%"class.std::__1::basic_string"* nonnull %5, i64 0, i64 -1, i8* getelementptr inbounds ([7 x i8], [7 x i8]* @_ZN11chrome_apps24MediaGalleriesPermission17kCopyToPermissionE, i64 0, i64 0), i64 6) #10
  %138 = icmp eq i32 %137, 0
  %139 = load i8, i8* %25, align 1
  br label %140

140:                                              ; preds = %129, %136
  %141 = phi i8 [ %139, %136 ], [ %130, %129 ]
  %142 = phi i1 [ %138, %136 ], [ false, %129 ]
  %143 = icmp slt i8 %141, 0
  br i1 %143, label %144, label %146

144:                                              ; preds = %140
  %145 = load i8*, i8** %27, align 8
  call void @_ZdlPv(i8* %145) #11
  br label %146

146:                                              ; preds = %140, %144
  call void @llvm.lifetime.end.p0i8(i64 24, i8* nonnull %23) #10
  br i1 %142, label %177, label %147

147:                                              ; preds = %146
  call void @llvm.lifetime.start.p0i8(i64 24, i8* nonnull %28) #10
  %148 = load i8, i8* %60, align 1, !noalias !27
  %149 = icmp slt i8 %148, 0
  br i1 %149, label %152, label %150

150:                                              ; preds = %147
  %151 = bitcast %"class.std::__1::__tree_end_node"* %58 to i8*
  call void @llvm.memcpy.p0i8.p0i8.i64(i8* nonnull align 8 %28, i8* align 8 %151, i64 24, i1 false) #10
  br label %158

152:                                              ; preds = %147
  %153 = bitcast %"class.std::__1::__tree_end_node"* %58 to i8**
  %154 = load i8*, i8** %153, align 8, !noalias !27
  %155 = getelementptr inbounds %"class.std::__1::__tree_end_node", %"class.std::__1::__tree_end_node"* %57, i64 5
  %156 = bitcast %"class.std::__1::__tree_end_node"* %155 to i64*
  %157 = load i64, i64* %156, align 8, !noalias !27
  call void @_ZNSt3__112basic_stringIcNS_11char_traitsIcEENS_9allocatorIcEEE25__init_copy_ctor_externalEPKcm(%"class.std::__1::basic_string"* nonnull %6, i8* %154, i64 %157) #10
  br label %158

158:                                              ; preds = %150, %152
  %159 = load i8, i8* %30, align 1
  %160 = icmp slt i8 %159, 0
  %161 = load i64, i64* %31, align 8
  %162 = zext i8 %159 to i64
  %163 = select i1 %160, i64 %161, i64 %162
  %164 = icmp eq i64 %163, 6
  br i1 %164, label %165, label %169

165:                                              ; preds = %158
  %166 = call i32 @_ZNKSt3__112basic_stringIcNS_11char_traitsIcEENS_9allocatorIcEEE7compareEmmPKcm(%"class.std::__1::basic_string"* nonnull %6, i64 0, i64 -1, i8* getelementptr inbounds ([7 x i8], [7 x i8]* @_ZN11chrome_apps24MediaGalleriesPermission17kDeletePermissionE, i64 0, i64 0), i64 6) #10
  %167 = icmp eq i32 %166, 0
  %168 = load i8, i8* %30, align 1
  br label %169

169:                                              ; preds = %158, %165
  %170 = phi i8 [ %168, %165 ], [ %159, %158 ]
  %171 = phi i1 [ %167, %165 ], [ false, %158 ]
  %172 = icmp slt i8 %170, 0
  br i1 %172, label %173, label %175

173:                                              ; preds = %169
  %174 = load i8*, i8** %32, align 8
  call void @_ZdlPv(i8* %174) #11
  br label %175

175:                                              ; preds = %169, %173
  call void @llvm.lifetime.end.p0i8(i64 24, i8* nonnull %28) #10
  %176 = select i1 %171, i8 1, i8 %53
  br label %177

177:                                              ; preds = %175, %146, %117, %88
  %178 = phi i8 [ 1, %88 ], [ %56, %117 ], [ %56, %146 ], [ %56, %175 ]
  %179 = phi i8 [ %55, %88 ], [ 1, %117 ], [ %55, %146 ], [ %55, %175 ]
  %180 = phi i8 [ %54, %88 ], [ %54, %117 ], [ 1, %146 ], [ %54, %175 ]
  %181 = phi i8 [ %53, %88 ], [ %53, %117 ], [ %53, %146 ], [ %176, %175 ]
  %182 = getelementptr inbounds %"class.std::__1::__tree_end_node", %"class.std::__1::__tree_end_node"* %57, i64 1, i32 0
  %183 = load %"class.std::__1::__tree_node_base"*, %"class.std::__1::__tree_node_base"** %182, align 8
  %184 = icmp eq %"class.std::__1::__tree_node_base"* %183, null
  br i1 %184, label %185, label %193

185:                                              ; preds = %177
  %186 = bitcast %"class.std::__1::__tree_end_node"* %57 to %"class.std::__1::__tree_node_base"*
  %187 = getelementptr inbounds %"class.std::__1::__tree_end_node", %"class.std::__1::__tree_end_node"* %57, i64 2
  %188 = bitcast %"class.std::__1::__tree_end_node"* %187 to %"class.std::__1::__tree_end_node"**
  %189 = load %"class.std::__1::__tree_end_node"*, %"class.std::__1::__tree_end_node"** %188, align 8
  %190 = getelementptr inbounds %"class.std::__1::__tree_end_node", %"class.std::__1::__tree_end_node"* %189, i64 0, i32 0
  %191 = load %"class.std::__1::__tree_node_base"*, %"class.std::__1::__tree_node_base"** %190, align 8
  %192 = icmp eq %"class.std::__1::__tree_node_base"* %191, %186
  br i1 %192, label %209, label %200

193:                                              ; preds = %177, %193
  %194 = phi %"class.std::__1::__tree_node_base"* [ %196, %193 ], [ %183, %177 ]
  %195 = getelementptr inbounds %"class.std::__1::__tree_node_base", %"class.std::__1::__tree_node_base"* %194, i64 0, i32 0, i32 0
  %196 = load %"class.std::__1::__tree_node_base"*, %"class.std::__1::__tree_node_base"** %195, align 8
  %197 = icmp eq %"class.std::__1::__tree_node_base"* %196, null
  br i1 %197, label %198, label %193

198:                                              ; preds = %193
  %199 = getelementptr inbounds %"class.std::__1::__tree_node_base", %"class.std::__1::__tree_node_base"* %194, i64 0, i32 0
  br label %209

200:                                              ; preds = %185, %200
  %201 = phi %"class.std::__1::__tree_end_node"** [ %204, %200 ], [ %188, %185 ]
  %202 = bitcast %"class.std::__1::__tree_end_node"** %201 to %"class.std::__1::__tree_node_base"**
  %203 = load %"class.std::__1::__tree_node_base"*, %"class.std::__1::__tree_node_base"** %202, align 8
  %204 = getelementptr inbounds %"class.std::__1::__tree_node_base", %"class.std::__1::__tree_node_base"* %203, i64 0, i32 2
  %205 = load %"class.std::__1::__tree_end_node"*, %"class.std::__1::__tree_end_node"** %204, align 8
  %206 = getelementptr inbounds %"class.std::__1::__tree_end_node", %"class.std::__1::__tree_end_node"* %205, i64 0, i32 0
  %207 = load %"class.std::__1::__tree_node_base"*, %"class.std::__1::__tree_node_base"** %206, align 8
  %208 = icmp eq %"class.std::__1::__tree_node_base"* %207, %203
  br i1 %208, label %209, label %200

209:                                              ; preds = %200, %185, %198
  %210 = phi %"class.std::__1::__tree_end_node"* [ %199, %198 ], [ %189, %185 ], [ %205, %200 ]
  %211 = icmp eq %"class.std::__1::__tree_end_node"* %210, %10
  br i1 %211, label %33, label %52

212:                                              ; preds = %46
  call void @_ZN10extensions15PermissionIDSet6insertENS_5mojom15APIPermissionIDE(%"class.extensions::PermissionIDSet"* %0, i32 183) #10
  br i1 %47, label %213, label %214

213:                                              ; preds = %212
  call void @_ZN10extensions15PermissionIDSet6insertENS_5mojom15APIPermissionIDE(%"class.extensions::PermissionIDSet"* %0, i32 181) #10
  br label %214

214:                                              ; preds = %213, %212
  br i1 %39, label %215, label %216

215:                                              ; preds = %214
  call void @_ZN10extensions15PermissionIDSet6insertENS_5mojom15APIPermissionIDE(%"class.extensions::PermissionIDSet"* %0, i32 182) #10
  br label %216

216:                                              ; preds = %2, %43, %40, %46, %215, %214
  ret void
}

declare void @_ZN10extensions15PermissionIDSetC1Ev(%"class.extensions::PermissionIDSet"*) unnamed_addr #3

declare void @_ZN10extensions15PermissionIDSet6insertENS_5mojom15APIPermissionIDE(%"class.extensions::PermissionIDSet"*, i32) local_unnamed_addr #3

; Function Attrs: nounwind ssp uwtable
define linkonce_odr hidden zeroext i1 @_ZNK10extensions24SetDisjunctionPermissionIN11chrome_apps28MediaGalleriesPermissionDataENS1_24MediaGalleriesPermissionEE5CheckEPKNS_13APIPermission10CheckParamE(%"class.extensions::SetDisjunctionPermission"*, %"struct.extensions::APIPermission::CheckParam"*) unnamed_addr #0 comdat align 2 {
  %3 = getelementptr inbounds %"class.extensions::SetDisjunctionPermission", %"class.extensions::SetDisjunctionPermission"* %0, i64 0, i32 1, i32 0, i32 0
  %4 = load %"class.std::__1::__tree_end_node"*, %"class.std::__1::__tree_end_node"** %3, align 8
  %5 = getelementptr inbounds %"class.extensions::SetDisjunctionPermission", %"class.extensions::SetDisjunctionPermission"* %0, i64 0, i32 1, i32 0, i32 1, i32 0, i32 0
  %6 = icmp eq %"class.std::__1::__tree_end_node"* %4, %5
  br i1 %6, label %43, label %7

7:                                                ; preds = %2, %40
  %8 = phi %"class.std::__1::__tree_end_node"* [ %41, %40 ], [ %4, %2 ]
  %9 = getelementptr inbounds %"class.std::__1::__tree_end_node", %"class.std::__1::__tree_end_node"* %8, i64 4
  %10 = bitcast %"class.std::__1::__tree_end_node"* %9 to %"class.chrome_apps::MediaGalleriesPermissionData"*
  %11 = tail call zeroext i1 @_ZNK11chrome_apps28MediaGalleriesPermissionData5CheckEPKN10extensions13APIPermission10CheckParamE(%"class.chrome_apps::MediaGalleriesPermissionData"* %10, %"struct.extensions::APIPermission::CheckParam"* %1) #10
  br i1 %11, label %43, label %12

12:                                               ; preds = %7
  %13 = getelementptr inbounds %"class.std::__1::__tree_end_node", %"class.std::__1::__tree_end_node"* %8, i64 1, i32 0
  %14 = load %"class.std::__1::__tree_node_base"*, %"class.std::__1::__tree_node_base"** %13, align 8
  %15 = icmp eq %"class.std::__1::__tree_node_base"* %14, null
  br i1 %15, label %16, label %24

16:                                               ; preds = %12
  %17 = bitcast %"class.std::__1::__tree_end_node"* %8 to %"class.std::__1::__tree_node_base"*
  %18 = getelementptr inbounds %"class.std::__1::__tree_end_node", %"class.std::__1::__tree_end_node"* %8, i64 2
  %19 = bitcast %"class.std::__1::__tree_end_node"* %18 to %"class.std::__1::__tree_end_node"**
  %20 = load %"class.std::__1::__tree_end_node"*, %"class.std::__1::__tree_end_node"** %19, align 8
  %21 = getelementptr inbounds %"class.std::__1::__tree_end_node", %"class.std::__1::__tree_end_node"* %20, i64 0, i32 0
  %22 = load %"class.std::__1::__tree_node_base"*, %"class.std::__1::__tree_node_base"** %21, align 8
  %23 = icmp eq %"class.std::__1::__tree_node_base"* %22, %17
  br i1 %23, label %40, label %31

24:                                               ; preds = %12, %24
  %25 = phi %"class.std::__1::__tree_node_base"* [ %27, %24 ], [ %14, %12 ]
  %26 = getelementptr inbounds %"class.std::__1::__tree_node_base", %"class.std::__1::__tree_node_base"* %25, i64 0, i32 0, i32 0
  %27 = load %"class.std::__1::__tree_node_base"*, %"class.std::__1::__tree_node_base"** %26, align 8
  %28 = icmp eq %"class.std::__1::__tree_node_base"* %27, null
  br i1 %28, label %29, label %24

29:                                               ; preds = %24
  %30 = getelementptr inbounds %"class.std::__1::__tree_node_base", %"class.std::__1::__tree_node_base"* %25, i64 0, i32 0
  br label %40

31:                                               ; preds = %16, %31
  %32 = phi %"class.std::__1::__tree_end_node"** [ %35, %31 ], [ %19, %16 ]
  %33 = bitcast %"class.std::__1::__tree_end_node"** %32 to %"class.std::__1::__tree_node_base"**
  %34 = load %"class.std::__1::__tree_node_base"*, %"class.std::__1::__tree_node_base"** %33, align 8
  %35 = getelementptr inbounds %"class.std::__1::__tree_node_base", %"class.std::__1::__tree_node_base"* %34, i64 0, i32 2
  %36 = load %"class.std::__1::__tree_end_node"*, %"class.std::__1::__tree_end_node"** %35, align 8
  %37 = getelementptr inbounds %"class.std::__1::__tree_end_node", %"class.std::__1::__tree_end_node"* %36, i64 0, i32 0
  %38 = load %"class.std::__1::__tree_node_base"*, %"class.std::__1::__tree_node_base"** %37, align 8
  %39 = icmp eq %"class.std::__1::__tree_node_base"* %38, %34
  br i1 %39, label %40, label %31

40:                                               ; preds = %31, %16, %29
  %41 = phi %"class.std::__1::__tree_end_node"* [ %30, %29 ], [ %20, %16 ], [ %36, %31 ]
  %42 = icmp eq %"class.std::__1::__tree_end_node"* %41, %5
  br i1 %42, label %43, label %7

43:                                               ; preds = %7, %40, %2
  %44 = phi i1 [ false, %2 ], [ false, %40 ], [ true, %7 ]
  ret i1 %44
}

; Function Attrs: nounwind ssp uwtable
define linkonce_odr hidden zeroext i1 @_ZNK10extensions24SetDisjunctionPermissionIN11chrome_apps28MediaGalleriesPermissionDataENS1_24MediaGalleriesPermissionEE8ContainsEPKNS_13APIPermissionE(%"class.extensions::SetDisjunctionPermission"*, %"class.extensions::APIPermission"*) unnamed_addr #0 comdat align 2 {
  %3 = alloca %"class.logging::CheckError", align 8
  %4 = getelementptr inbounds %"class.extensions::APIPermission", %"class.extensions::APIPermission"* %1, i64 0, i32 1
  %5 = load %"class.extensions::APIPermissionInfo"*, %"class.extensions::APIPermissionInfo"** %4, align 8
  %6 = getelementptr inbounds %"class.extensions::SetDisjunctionPermission", %"class.extensions::SetDisjunctionPermission"* %0, i64 0, i32 0, i32 1
  %7 = load %"class.extensions::APIPermissionInfo"*, %"class.extensions::APIPermissionInfo"** %6, align 8
  %8 = icmp eq %"class.extensions::APIPermissionInfo"* %5, %7
  br i1 %8, label %12, label %9

9:                                                ; preds = %2
  %10 = bitcast %"class.logging::CheckError"* %3 to i8*
  call void @llvm.lifetime.start.p0i8(i64 8, i8* nonnull %10) #10
  call void @_ZN7logging10CheckError5CheckEPKciS2_(%"class.logging::CheckError"* nonnull sret %3, i8* getelementptr inbounds ([65 x i8], [65 x i8]* @.str.7, i64 0, i64 0), i32 51, i8* getelementptr inbounds ([22 x i8], [22 x i8]* @.str.8, i64 0, i64 0)) #10
  %11 = call dereferenceable(160) %"class.std::__1::basic_ostream"* @_ZN7logging10CheckError6streamEv(%"class.logging::CheckError"* nonnull %3) #10
  call void @_ZN7logging10CheckErrorD1Ev(%"class.logging::CheckError"* nonnull %3) #10
  call void @llvm.lifetime.end.p0i8(i64 8, i8* nonnull %10) #10
  br label %12

12:                                               ; preds = %2, %9
  %13 = getelementptr inbounds %"class.extensions::SetDisjunctionPermission", %"class.extensions::SetDisjunctionPermission"* %0, i64 0, i32 1
  %14 = getelementptr inbounds %"class.extensions::APIPermission", %"class.extensions::APIPermission"* %1, i64 1
  %15 = bitcast %"class.extensions::APIPermission"* %14 to %"class.std::__1::set"*
  %16 = call zeroext i1 @_ZN4base6ranges8includesIRKNSt3__13setIN11chrome_apps28MediaGalleriesPermissionDataENS2_4lessIS5_EENS2_9allocatorIS5_EEEESC_NS6_IvEENS_8identityESE_NS2_26bidirectional_iterator_tagESF_bbEEDaOT_OT0_T1_T2_T3_(%"class.std::__1::set"* dereferenceable(24) %13, %"class.std::__1::set"* dereferenceable(24) %15)
  ret i1 %16
}

; Function Attrs: nounwind ssp uwtable
define linkonce_odr hidden zeroext i1 @_ZNK10extensions24SetDisjunctionPermissionIN11chrome_apps28MediaGalleriesPermissionDataENS1_24MediaGalleriesPermissionEE5EqualEPKNS_13APIPermissionE(%"class.extensions::SetDisjunctionPermission"*, %"class.extensions::APIPermission"*) unnamed_addr #0 comdat align 2 {
  %3 = alloca %"class.logging::CheckError", align 8
  %4 = getelementptr inbounds %"class.extensions::APIPermission", %"class.extensions::APIPermission"* %1, i64 0, i32 1
  %5 = load %"class.extensions::APIPermissionInfo"*, %"class.extensions::APIPermissionInfo"** %4, align 8
  %6 = getelementptr inbounds %"class.extensions::SetDisjunctionPermission", %"class.extensions::SetDisjunctionPermission"* %0, i64 0, i32 0, i32 1
  %7 = load %"class.extensions::APIPermissionInfo"*, %"class.extensions::APIPermissionInfo"** %6, align 8
  %8 = icmp eq %"class.extensions::APIPermissionInfo"* %5, %7
  br i1 %8, label %12, label %9

9:                                                ; preds = %2
  %10 = bitcast %"class.logging::CheckError"* %3 to i8*
  call void @llvm.lifetime.start.p0i8(i64 8, i8* nonnull %10) #10
  call void @_ZN7logging10CheckError5CheckEPKciS2_(%"class.logging::CheckError"* nonnull sret %3, i8* getelementptr inbounds ([65 x i8], [65 x i8]* @.str.7, i64 0, i64 0), i32 58, i8* getelementptr inbounds ([22 x i8], [22 x i8]* @.str.8, i64 0, i64 0)) #10
  %11 = call dereferenceable(160) %"class.std::__1::basic_ostream"* @_ZN7logging10CheckError6streamEv(%"class.logging::CheckError"* nonnull %3) #10
  call void @_ZN7logging10CheckErrorD1Ev(%"class.logging::CheckError"* nonnull %3) #10
  call void @llvm.lifetime.end.p0i8(i64 8, i8* nonnull %10) #10
  br label %12

12:                                               ; preds = %2, %9
  %13 = getelementptr inbounds %"class.extensions::APIPermission", %"class.extensions::APIPermission"* %1, i64 1
  %14 = getelementptr inbounds %"class.extensions::SetDisjunctionPermission", %"class.extensions::SetDisjunctionPermission"* %0, i64 0, i32 1, i32 0, i32 2, i32 0, i32 0
  %15 = load i64, i64* %14, align 8
  %16 = getelementptr inbounds %"class.extensions::APIPermission", %"class.extensions::APIPermission"* %1, i64 2
  %17 = bitcast %"class.extensions::APIPermission"* %16 to i64*
  %18 = load i64, i64* %17, align 8
  %19 = icmp eq i64 %15, %18
  br i1 %19, label %20, label %96

20:                                               ; preds = %12
  %21 = getelementptr inbounds %"class.extensions::SetDisjunctionPermission", %"class.extensions::SetDisjunctionPermission"* %0, i64 0, i32 1, i32 0, i32 0
  %22 = load %"class.std::__1::__tree_end_node"*, %"class.std::__1::__tree_end_node"** %21, align 8
  %23 = getelementptr inbounds %"class.extensions::SetDisjunctionPermission", %"class.extensions::SetDisjunctionPermission"* %0, i64 0, i32 1, i32 0, i32 1, i32 0, i32 0
  %24 = icmp eq %"class.std::__1::__tree_end_node"* %22, %23
  br i1 %24, label %96, label %25

25:                                               ; preds = %20
  %26 = bitcast %"class.extensions::APIPermission"* %13 to %"class.std::__1::__tree_end_node"**
  %27 = load %"class.std::__1::__tree_end_node"*, %"class.std::__1::__tree_end_node"** %26, align 8
  br label %28

28:                                               ; preds = %93, %25
  %29 = phi %"class.std::__1::__tree_end_node"* [ %94, %93 ], [ %27, %25 ]
  %30 = phi %"class.std::__1::__tree_end_node"* [ %65, %93 ], [ %22, %25 ]
  %31 = getelementptr inbounds %"class.std::__1::__tree_end_node", %"class.std::__1::__tree_end_node"* %30, i64 4
  %32 = bitcast %"class.std::__1::__tree_end_node"* %31 to %"class.chrome_apps::MediaGalleriesPermissionData"*
  %33 = getelementptr inbounds %"class.std::__1::__tree_end_node", %"class.std::__1::__tree_end_node"* %29, i64 4
  %34 = bitcast %"class.std::__1::__tree_end_node"* %33 to %"class.chrome_apps::MediaGalleriesPermissionData"*
  %35 = call zeroext i1 @_ZNK11chrome_apps28MediaGalleriesPermissionDataeqERKS0_(%"class.chrome_apps::MediaGalleriesPermissionData"* %32, %"class.chrome_apps::MediaGalleriesPermissionData"* dereferenceable(24) %34) #10
  br i1 %35, label %36, label %96

36:                                               ; preds = %28
  %37 = getelementptr inbounds %"class.std::__1::__tree_end_node", %"class.std::__1::__tree_end_node"* %30, i64 1, i32 0
  %38 = load %"class.std::__1::__tree_node_base"*, %"class.std::__1::__tree_node_base"** %37, align 8
  %39 = icmp eq %"class.std::__1::__tree_node_base"* %38, null
  br i1 %39, label %40, label %48

40:                                               ; preds = %36
  %41 = bitcast %"class.std::__1::__tree_end_node"* %30 to %"class.std::__1::__tree_node_base"*
  %42 = getelementptr inbounds %"class.std::__1::__tree_end_node", %"class.std::__1::__tree_end_node"* %30, i64 2
  %43 = bitcast %"class.std::__1::__tree_end_node"* %42 to %"class.std::__1::__tree_end_node"**
  %44 = load %"class.std::__1::__tree_end_node"*, %"class.std::__1::__tree_end_node"** %43, align 8
  %45 = getelementptr inbounds %"class.std::__1::__tree_end_node", %"class.std::__1::__tree_end_node"* %44, i64 0, i32 0
  %46 = load %"class.std::__1::__tree_node_base"*, %"class.std::__1::__tree_node_base"** %45, align 8
  %47 = icmp eq %"class.std::__1::__tree_node_base"* %46, %41
  br i1 %47, label %64, label %55

48:                                               ; preds = %36, %48
  %49 = phi %"class.std::__1::__tree_node_base"* [ %51, %48 ], [ %38, %36 ]
  %50 = getelementptr inbounds %"class.std::__1::__tree_node_base", %"class.std::__1::__tree_node_base"* %49, i64 0, i32 0, i32 0
  %51 = load %"class.std::__1::__tree_node_base"*, %"class.std::__1::__tree_node_base"** %50, align 8
  %52 = icmp eq %"class.std::__1::__tree_node_base"* %51, null
  br i1 %52, label %53, label %48

53:                                               ; preds = %48
  %54 = getelementptr inbounds %"class.std::__1::__tree_node_base", %"class.std::__1::__tree_node_base"* %49, i64 0, i32 0
  br label %64

55:                                               ; preds = %40, %55
  %56 = phi %"class.std::__1::__tree_end_node"** [ %59, %55 ], [ %43, %40 ]
  %57 = bitcast %"class.std::__1::__tree_end_node"** %56 to %"class.std::__1::__tree_node_base"**
  %58 = load %"class.std::__1::__tree_node_base"*, %"class.std::__1::__tree_node_base"** %57, align 8
  %59 = getelementptr inbounds %"class.std::__1::__tree_node_base", %"class.std::__1::__tree_node_base"* %58, i64 0, i32 2
  %60 = load %"class.std::__1::__tree_end_node"*, %"class.std::__1::__tree_end_node"** %59, align 8
  %61 = getelementptr inbounds %"class.std::__1::__tree_end_node", %"class.std::__1::__tree_end_node"* %60, i64 0, i32 0
  %62 = load %"class.std::__1::__tree_node_base"*, %"class.std::__1::__tree_node_base"** %61, align 8
  %63 = icmp eq %"class.std::__1::__tree_node_base"* %62, %58
  br i1 %63, label %64, label %55

64:                                               ; preds = %55, %53, %40
  %65 = phi %"class.std::__1::__tree_end_node"* [ %54, %53 ], [ %44, %40 ], [ %60, %55 ]
  %66 = getelementptr inbounds %"class.std::__1::__tree_end_node", %"class.std::__1::__tree_end_node"* %29, i64 1, i32 0
  %67 = load %"class.std::__1::__tree_node_base"*, %"class.std::__1::__tree_node_base"** %66, align 8
  %68 = icmp eq %"class.std::__1::__tree_node_base"* %67, null
  br i1 %68, label %69, label %77

69:                                               ; preds = %64
  %70 = bitcast %"class.std::__1::__tree_end_node"* %29 to %"class.std::__1::__tree_node_base"*
  %71 = getelementptr inbounds %"class.std::__1::__tree_end_node", %"class.std::__1::__tree_end_node"* %29, i64 2
  %72 = bitcast %"class.std::__1::__tree_end_node"* %71 to %"class.std::__1::__tree_end_node"**
  %73 = load %"class.std::__1::__tree_end_node"*, %"class.std::__1::__tree_end_node"** %72, align 8
  %74 = getelementptr inbounds %"class.std::__1::__tree_end_node", %"class.std::__1::__tree_end_node"* %73, i64 0, i32 0
  %75 = load %"class.std::__1::__tree_node_base"*, %"class.std::__1::__tree_node_base"** %74, align 8
  %76 = icmp eq %"class.std::__1::__tree_node_base"* %75, %70
  br i1 %76, label %93, label %84

77:                                               ; preds = %64, %77
  %78 = phi %"class.std::__1::__tree_node_base"* [ %80, %77 ], [ %67, %64 ]
  %79 = getelementptr inbounds %"class.std::__1::__tree_node_base", %"class.std::__1::__tree_node_base"* %78, i64 0, i32 0, i32 0
  %80 = load %"class.std::__1::__tree_node_base"*, %"class.std::__1::__tree_node_base"** %79, align 8
  %81 = icmp eq %"class.std::__1::__tree_node_base"* %80, null
  br i1 %81, label %82, label %77

82:                                               ; preds = %77
  %83 = getelementptr inbounds %"class.std::__1::__tree_node_base", %"class.std::__1::__tree_node_base"* %78, i64 0, i32 0
  br label %93

84:                                               ; preds = %69, %84
  %85 = phi %"class.std::__1::__tree_end_node"** [ %88, %84 ], [ %72, %69 ]
  %86 = bitcast %"class.std::__1::__tree_end_node"** %85 to %"class.std::__1::__tree_node_base"**
  %87 = load %"class.std::__1::__tree_node_base"*, %"class.std::__1::__tree_node_base"** %86, align 8
  %88 = getelementptr inbounds %"class.std::__1::__tree_node_base", %"class.std::__1::__tree_node_base"* %87, i64 0, i32 2
  %89 = load %"class.std::__1::__tree_end_node"*, %"class.std::__1::__tree_end_node"** %88, align 8
  %90 = getelementptr inbounds %"class.std::__1::__tree_end_node", %"class.std::__1::__tree_end_node"* %89, i64 0, i32 0
  %91 = load %"class.std::__1::__tree_node_base"*, %"class.std::__1::__tree_node_base"** %90, align 8
  %92 = icmp eq %"class.std::__1::__tree_node_base"* %91, %87
  br i1 %92, label %93, label %84

93:                                               ; preds = %84, %82, %69
  %94 = phi %"class.std::__1::__tree_end_node"* [ %83, %82 ], [ %73, %69 ], [ %89, %84 ]
  %95 = icmp eq %"class.std::__1::__tree_end_node"* %65, %23
  br i1 %95, label %96, label %28

96:                                               ; preds = %28, %93, %12, %20
  %97 = phi i1 [ false, %12 ], [ true, %20 ], [ false, %28 ], [ true, %93 ]
  ret i1 %97
}

; Function Attrs: nounwind ssp uwtable
define linkonce_odr hidden %"class.base::Value"* @_ZNK10extensions24SetDisjunctionPermissionIN11chrome_apps28MediaGalleriesPermissionDataENS1_24MediaGalleriesPermissionEE7ToValueEv(%"class.extensions::SetDisjunctionPermission"*) unnamed_addr #0 comdat align 2 {
  %2 = tail call i8* @_Znwm(i64 32) #11
  %3 = bitcast i8* %2 to %"class.base::ListValue"*
  tail call void @_ZN4base9ListValueC1Ev(%"class.base::ListValue"* nonnull %3) #10
  %4 = getelementptr inbounds %"class.extensions::SetDisjunctionPermission", %"class.extensions::SetDisjunctionPermission"* %0, i64 0, i32 1, i32 0, i32 0
  %5 = load %"class.std::__1::__tree_end_node"*, %"class.std::__1::__tree_end_node"** %4, align 8
  %6 = getelementptr inbounds %"class.extensions::SetDisjunctionPermission", %"class.extensions::SetDisjunctionPermission"* %0, i64 0, i32 1, i32 0, i32 1, i32 0, i32 0
  %7 = icmp eq %"class.std::__1::__tree_end_node"* %5, %6
  br i1 %7, label %43, label %8

8:                                                ; preds = %1, %40
  %9 = phi %"class.std::__1::__tree_end_node"* [ %41, %40 ], [ %5, %1 ]
  %10 = getelementptr inbounds %"class.std::__1::__tree_end_node", %"class.std::__1::__tree_end_node"* %9, i64 4
  %11 = bitcast %"class.std::__1::__tree_end_node"* %10 to %"class.chrome_apps::MediaGalleriesPermissionData"*
  %12 = tail call %"class.base::Value"* @_ZNK11chrome_apps28MediaGalleriesPermissionData7ToValueEv(%"class.chrome_apps::MediaGalleriesPermissionData"* %11) #10
  tail call void @_ZN4base9ListValue6AppendENSt3__110unique_ptrINS_5ValueENS1_14default_deleteIS3_EEEE(%"class.base::ListValue"* nonnull %3, %"class.base::Value"* %12) #10
  %13 = getelementptr inbounds %"class.std::__1::__tree_end_node", %"class.std::__1::__tree_end_node"* %9, i64 1, i32 0
  %14 = load %"class.std::__1::__tree_node_base"*, %"class.std::__1::__tree_node_base"** %13, align 8
  %15 = icmp eq %"class.std::__1::__tree_node_base"* %14, null
  br i1 %15, label %16, label %24

16:                                               ; preds = %8
  %17 = bitcast %"class.std::__1::__tree_end_node"* %9 to %"class.std::__1::__tree_node_base"*
  %18 = getelementptr inbounds %"class.std::__1::__tree_end_node", %"class.std::__1::__tree_end_node"* %9, i64 2
  %19 = bitcast %"class.std::__1::__tree_end_node"* %18 to %"class.std::__1::__tree_end_node"**
  %20 = load %"class.std::__1::__tree_end_node"*, %"class.std::__1::__tree_end_node"** %19, align 8
  %21 = getelementptr inbounds %"class.std::__1::__tree_end_node", %"class.std::__1::__tree_end_node"* %20, i64 0, i32 0
  %22 = load %"class.std::__1::__tree_node_base"*, %"class.std::__1::__tree_node_base"** %21, align 8
  %23 = icmp eq %"class.std::__1::__tree_node_base"* %22, %17
  br i1 %23, label %40, label %31

24:                                               ; preds = %8, %24
  %25 = phi %"class.std::__1::__tree_node_base"* [ %27, %24 ], [ %14, %8 ]
  %26 = getelementptr inbounds %"class.std::__1::__tree_node_base", %"class.std::__1::__tree_node_base"* %25, i64 0, i32 0, i32 0
  %27 = load %"class.std::__1::__tree_node_base"*, %"class.std::__1::__tree_node_base"** %26, align 8
  %28 = icmp eq %"class.std::__1::__tree_node_base"* %27, null
  br i1 %28, label %29, label %24

29:                                               ; preds = %24
  %30 = getelementptr inbounds %"class.std::__1::__tree_node_base", %"class.std::__1::__tree_node_base"* %25, i64 0, i32 0
  br label %40

31:                                               ; preds = %16, %31
  %32 = phi %"class.std::__1::__tree_end_node"** [ %35, %31 ], [ %19, %16 ]
  %33 = bitcast %"class.std::__1::__tree_end_node"** %32 to %"class.std::__1::__tree_node_base"**
  %34 = load %"class.std::__1::__tree_node_base"*, %"class.std::__1::__tree_node_base"** %33, align 8
  %35 = getelementptr inbounds %"class.std::__1::__tree_node_base", %"class.std::__1::__tree_node_base"* %34, i64 0, i32 2
  %36 = load %"class.std::__1::__tree_end_node"*, %"class.std::__1::__tree_end_node"** %35, align 8
  %37 = getelementptr inbounds %"class.std::__1::__tree_end_node", %"class.std::__1::__tree_end_node"* %36, i64 0, i32 0
  %38 = load %"class.std::__1::__tree_node_base"*, %"class.std::__1::__tree_node_base"** %37, align 8
  %39 = icmp eq %"class.std::__1::__tree_node_base"* %38, %34
  br i1 %39, label %40, label %31

40:                                               ; preds = %31, %16, %29
  %41 = phi %"class.std::__1::__tree_end_node"* [ %30, %29 ], [ %20, %16 ], [ %36, %31 ]
  %42 = icmp eq %"class.std::__1::__tree_end_node"* %41, %6
  br i1 %42, label %43, label %8

43:                                               ; preds = %40, %1
  %44 = bitcast i8* %2 to %"class.base::Value"*
  ret %"class.base::Value"* %44
}

; Function Attrs: nounwind ssp uwtable
define linkonce_odr hidden %"class.extensions::APIPermission"* @_ZNK10extensions24SetDisjunctionPermissionIN11chrome_apps28MediaGalleriesPermissionDataENS1_24MediaGalleriesPermissionEE5CloneEv(%"class.extensions::SetDisjunctionPermission"*) unnamed_addr #0 comdat align 2 {
  %2 = getelementptr inbounds %"class.extensions::SetDisjunctionPermission", %"class.extensions::SetDisjunctionPermission"* %0, i64 0, i32 0, i32 1
  %3 = load %"class.extensions::APIPermissionInfo"*, %"class.extensions::APIPermissionInfo"** %2, align 8
  %4 = tail call i8* @_Znwm(i64 40) #11
  %5 = bitcast i8* %4 to %"class.extensions::APIPermission"*
  tail call void @_ZN10extensions13APIPermissionC2EPKNS_17APIPermissionInfoE(%"class.extensions::APIPermission"* nonnull %5, %"class.extensions::APIPermissionInfo"* %3) #10
  %6 = bitcast i8* %4 to i32 (...)***
  %7 = getelementptr inbounds i8, i8* %4, i64 24
  %8 = getelementptr inbounds i8, i8* %4, i64 16
  tail call void @llvm.memset.p0i8.i64(i8* align 8 %7, i8 0, i64 16, i1 false) #10
  %9 = bitcast i8* %8 to i8**
  store i8* %7, i8** %9, align 8
  store i32 (...)** bitcast (i8** getelementptr inbounds ({ [14 x i8*] }, { [14 x i8*] }* @_ZTVN11chrome_apps24MediaGalleriesPermissionE, i64 0, inrange i32 0, i64 2) to i32 (...)**), i32 (...)*** %6, align 8
  %10 = getelementptr inbounds %"class.extensions::SetDisjunctionPermission", %"class.extensions::SetDisjunctionPermission"* %0, i64 0, i32 1
  %11 = bitcast i8* %8 to %"class.std::__1::set"*
  %12 = icmp eq %"class.std::__1::set"* %10, %11
  br i1 %12, label %18, label %13

13:                                               ; preds = %1
  %14 = bitcast i8* %8 to %"class.std::__1::__tree"*
  %15 = getelementptr inbounds %"class.std::__1::set", %"class.std::__1::set"* %10, i64 0, i32 0, i32 0
  %16 = load %"class.std::__1::__tree_end_node"*, %"class.std::__1::__tree_end_node"** %15, align 8
  %17 = getelementptr inbounds %"class.extensions::SetDisjunctionPermission", %"class.extensions::SetDisjunctionPermission"* %0, i64 0, i32 1, i32 0, i32 1, i32 0, i32 0
  tail call void @_ZNSt3__16__treeIN11chrome_apps28MediaGalleriesPermissionDataENS_4lessIS2_EENS_9allocatorIS2_EEE14__assign_multiINS_21__tree_const_iteratorIS2_PNS_11__tree_nodeIS2_PvEElEEEEvT_SF_(%"class.std::__1::__tree"* %14, %"class.std::__1::__tree_end_node"* %16, %"class.std::__1::__tree_end_node"* %17) #10
  br label %18

18:                                               ; preds = %13, %1
  ret %"class.extensions::APIPermission"* %5
}

; Function Attrs: nounwind ssp uwtable
define linkonce_odr hidden %"class.extensions::APIPermission"* @_ZNK10extensions24SetDisjunctionPermissionIN11chrome_apps28MediaGalleriesPermissionDataENS1_24MediaGalleriesPermissionEE4DiffEPKNS_13APIPermissionE(%"class.extensions::SetDisjunctionPermission"*, %"class.extensions::APIPermission"*) unnamed_addr #0 comdat align 2 {
  %3 = alloca %"struct.std::__1::__less.89", align 1
  %4 = alloca %"class.logging::CheckError", align 8
  %5 = alloca %"class.std::__1::set", align 16
  %6 = getelementptr inbounds %"class.extensions::APIPermission", %"class.extensions::APIPermission"* %1, i64 0, i32 1
  %7 = load %"class.extensions::APIPermissionInfo"*, %"class.extensions::APIPermissionInfo"** %6, align 8
  %8 = getelementptr inbounds %"class.extensions::SetDisjunctionPermission", %"class.extensions::SetDisjunctionPermission"* %0, i64 0, i32 0, i32 1
  %9 = load %"class.extensions::APIPermissionInfo"*, %"class.extensions::APIPermissionInfo"** %8, align 8
  %10 = icmp eq %"class.extensions::APIPermissionInfo"* %7, %9
  br i1 %10, label %14, label %11

11:                                               ; preds = %2
  %12 = bitcast %"class.logging::CheckError"* %4 to i8*
  call void @llvm.lifetime.start.p0i8(i64 8, i8* nonnull %12) #10
  call void @_ZN7logging10CheckError5CheckEPKciS2_(%"class.logging::CheckError"* nonnull sret %4, i8* getelementptr inbounds ([65 x i8], [65 x i8]* @.str.7, i64 0, i64 0), i32 71, i8* getelementptr inbounds ([22 x i8], [22 x i8]* @.str.8, i64 0, i64 0)) #10
  %13 = call dereferenceable(160) %"class.std::__1::basic_ostream"* @_ZN7logging10CheckError6streamEv(%"class.logging::CheckError"* nonnull %4) #10
  call void @_ZN7logging10CheckErrorD1Ev(%"class.logging::CheckError"* nonnull %4) #10
  call void @llvm.lifetime.end.p0i8(i64 8, i8* nonnull %12) #10
  br label %14

14:                                               ; preds = %2, %11
  %15 = call i8* @_Znwm(i64 40) #11
  %16 = load %"class.extensions::APIPermissionInfo"*, %"class.extensions::APIPermissionInfo"** %8, align 8
  %17 = bitcast i8* %15 to %"class.extensions::APIPermission"*
  call void @_ZN10extensions13APIPermissionC2EPKNS_17APIPermissionInfoE(%"class.extensions::APIPermission"* nonnull %17, %"class.extensions::APIPermissionInfo"* %16) #10
  %18 = bitcast i8* %15 to i32 (...)***
  %19 = getelementptr inbounds i8, i8* %15, i64 24
  %20 = getelementptr inbounds i8, i8* %15, i64 16
  call void @llvm.memset.p0i8.i64(i8* align 8 %19, i8 0, i64 16, i1 false) #10
  %21 = bitcast i8* %20 to i8**
  store i8* %19, i8** %21, align 8
  store i32 (...)** bitcast (i8** getelementptr inbounds ({ [14 x i8*] }, { [14 x i8*] }* @_ZTVN11chrome_apps24MediaGalleriesPermissionE, i64 0, inrange i32 0, i64 2) to i32 (...)**), i32 (...)*** %18, align 8
  %22 = ptrtoint i8* %15 to i64
  %23 = bitcast %"class.std::__1::set"* %5 to i8*
  call void @llvm.lifetime.start.p0i8(i64 24, i8* nonnull %23) #10
  %24 = getelementptr inbounds %"class.extensions::APIPermission", %"class.extensions::APIPermission"* %1, i64 1
  %25 = getelementptr inbounds %"class.std::__1::set", %"class.std::__1::set"* %5, i64 0, i32 0, i32 0
  %26 = getelementptr inbounds %"class.std::__1::set", %"class.std::__1::set"* %5, i64 0, i32 0, i32 1, i32 0, i32 0, i32 0
  %27 = getelementptr inbounds %"class.std::__1::set", %"class.std::__1::set"* %5, i64 0, i32 0, i32 1, i32 0, i32 0
  %28 = bitcast %"class.std::__1::__tree_node_base"** %26 to i8*
  call void @llvm.memset.p0i8.i64(i8* align 8 %28, i8 0, i64 16, i1 false) #10, !alias.scope !30
  store %"class.std::__1::__tree_end_node"* %27, %"class.std::__1::__tree_end_node"** %25, align 16, !alias.scope !30
  %29 = getelementptr inbounds %"class.extensions::SetDisjunctionPermission", %"class.extensions::SetDisjunctionPermission"* %0, i64 0, i32 1, i32 0, i32 0
  %30 = load %"class.std::__1::__tree_end_node"*, %"class.std::__1::__tree_end_node"** %29, align 8, !noalias !30
  %31 = getelementptr inbounds %"class.extensions::SetDisjunctionPermission", %"class.extensions::SetDisjunctionPermission"* %0, i64 0, i32 1, i32 0, i32 1, i32 0, i32 0
  %32 = bitcast %"class.extensions::APIPermission"* %24 to %"class.std::__1::__tree_end_node"**
  %33 = load %"class.std::__1::__tree_end_node"*, %"class.std::__1::__tree_end_node"** %32, align 8, !noalias !30
  %34 = getelementptr inbounds %"class.extensions::APIPermission", %"class.extensions::APIPermission"* %1, i64 1, i32 1
  %35 = bitcast %"class.extensions::APIPermissionInfo"** %34 to %"class.std::__1::__tree_end_node"*
  %36 = getelementptr inbounds %"struct.std::__1::__less.89", %"struct.std::__1::__less.89"* %3, i64 0, i32 0
  call void @llvm.lifetime.start.p0i8(i64 1, i8* nonnull %36) #10, !noalias !30
  %37 = call { %"class.std::__1::set"*, %"class.std::__1::__tree_end_node"* } @_ZNSt3__116__set_differenceIRNS_6__lessIN11chrome_apps28MediaGalleriesPermissionDataES3_EENS_21__tree_const_iteratorIS3_PNS_11__tree_nodeIS3_PvEElEESB_NS_15insert_iteratorINS_3setIS3_NS_4lessIS3_EENS_9allocatorIS3_EEEEEEEET2_T0_SL_T1_SM_SK_T_(%"class.std::__1::__tree_end_node"* %30, %"class.std::__1::__tree_end_node"* %31, %"class.std::__1::__tree_end_node"* %33, %"class.std::__1::__tree_end_node"* %35, %"class.std::__1::set"* nonnull %5, %"class.std::__1::__tree_end_node"* %27, %"struct.std::__1::__less.89"* nonnull dereferenceable(1) %3) #10
  call void @llvm.lifetime.end.p0i8(i64 1, i8* nonnull %36) #10, !noalias !30
  %38 = bitcast i8* %20 to %"class.std::__1::__tree"*
  %39 = bitcast i8* %19 to %"class.std::__1::__tree_node"**
  %40 = load %"class.std::__1::__tree_node"*, %"class.std::__1::__tree_node"** %39, align 8
  call void @_ZNSt3__16__treeIN11chrome_apps28MediaGalleriesPermissionDataENS_4lessIS2_EENS_9allocatorIS2_EEE7destroyEPNS_11__tree_nodeIS2_PvEE(%"class.std::__1::__tree"* %38, %"class.std::__1::__tree_node"* %40) #10
  %41 = bitcast %"class.std::__1::set"* %5 to <2 x i64>*
  %42 = load <2 x i64>, <2 x i64>* %41, align 16
  %43 = bitcast i8* %20 to <2 x i64>*
  store <2 x i64> %42, <2 x i64>* %43, align 8
  %44 = getelementptr inbounds %"class.std::__1::set", %"class.std::__1::set"* %5, i64 0, i32 0, i32 2, i32 0, i32 0
  %45 = getelementptr inbounds i8, i8* %15, i64 32
  %46 = bitcast i8* %45 to i64*
  %47 = load i64, i64* %44, align 16
  store i64 %47, i64* %46, align 8
  %48 = icmp eq i64 %47, 0
  %49 = extractelement <2 x i64> %42, i32 1
  br i1 %48, label %50, label %52

50:                                               ; preds = %14
  %51 = inttoptr i64 %49 to %"class.std::__1::__tree_node"*
  store i8* %19, i8** %21, align 8
  br label %57

52:                                               ; preds = %14
  %53 = inttoptr i64 %49 to %"class.std::__1::__tree_node_base"*
  %54 = getelementptr inbounds %"class.std::__1::__tree_node_base", %"class.std::__1::__tree_node_base"* %53, i64 0, i32 2
  %55 = bitcast %"class.std::__1::__tree_end_node"** %54 to i8**
  store i8* %19, i8** %55, align 8
  store %"class.std::__1::__tree_end_node"* %27, %"class.std::__1::__tree_end_node"** %25, align 16
  %56 = bitcast %"class.std::__1::__tree_end_node"* %27 to i8*
  call void @llvm.memset.p0i8.i64(i8* align 8 %56, i8 0, i64 16, i1 false) #10
  br label %57

57:                                               ; preds = %50, %52
  %58 = phi %"class.std::__1::__tree_node"* [ %51, %50 ], [ null, %52 ]
  %59 = getelementptr inbounds %"class.std::__1::set", %"class.std::__1::set"* %5, i64 0, i32 0
  call void @_ZNSt3__16__treeIN11chrome_apps28MediaGalleriesPermissionDataENS_4lessIS2_EENS_9allocatorIS2_EEE7destroyEPNS_11__tree_nodeIS2_PvEE(%"class.std::__1::__tree"* nonnull %59, %"class.std::__1::__tree_node"* %58) #10
  call void @llvm.lifetime.end.p0i8(i64 24, i8* nonnull %23) #10
  %60 = load i64, i64* %46, align 8
  %61 = icmp eq i64 %60, 0
  br i1 %61, label %62, label %68

62:                                               ; preds = %57
  %63 = bitcast i8* %15 to %"class.extensions::SetDisjunctionPermission"*
  %64 = bitcast i8* %15 to void (%"class.extensions::SetDisjunctionPermission"*)***
  %65 = load void (%"class.extensions::SetDisjunctionPermission"*)**, void (%"class.extensions::SetDisjunctionPermission"*)*** %64, align 8
  %66 = getelementptr inbounds void (%"class.extensions::SetDisjunctionPermission"*)*, void (%"class.extensions::SetDisjunctionPermission"*)** %65, i64 1
  %67 = load void (%"class.extensions::SetDisjunctionPermission"*)*, void (%"class.extensions::SetDisjunctionPermission"*)** %66, align 8
  call void %67(%"class.extensions::SetDisjunctionPermission"* nonnull %63) #10
  br label %68

68:                                               ; preds = %57, %62
  %69 = phi i64 [ 0, %62 ], [ %22, %57 ]
  %70 = inttoptr i64 %69 to %"class.extensions::APIPermission"*
  ret %"class.extensions::APIPermission"* %70
}

; Function Attrs: nounwind ssp uwtable
define linkonce_odr hidden %"class.extensions::APIPermission"* @_ZNK10extensions24SetDisjunctionPermissionIN11chrome_apps28MediaGalleriesPermissionDataENS1_24MediaGalleriesPermissionEE5UnionEPKNS_13APIPermissionE(%"class.extensions::SetDisjunctionPermission"*, %"class.extensions::APIPermission"*) unnamed_addr #0 comdat align 2 {
  %3 = alloca %"struct.std::__1::__less.89", align 1
  %4 = alloca %"class.logging::CheckError", align 8
  %5 = alloca %"class.std::__1::set", align 16
  %6 = getelementptr inbounds %"class.extensions::APIPermission", %"class.extensions::APIPermission"* %1, i64 0, i32 1
  %7 = load %"class.extensions::APIPermissionInfo"*, %"class.extensions::APIPermissionInfo"** %6, align 8
  %8 = getelementptr inbounds %"class.extensions::SetDisjunctionPermission", %"class.extensions::SetDisjunctionPermission"* %0, i64 0, i32 0, i32 1
  %9 = load %"class.extensions::APIPermissionInfo"*, %"class.extensions::APIPermissionInfo"** %8, align 8
  %10 = icmp eq %"class.extensions::APIPermissionInfo"* %7, %9
  br i1 %10, label %14, label %11

11:                                               ; preds = %2
  %12 = bitcast %"class.logging::CheckError"* %4 to i8*
  call void @llvm.lifetime.start.p0i8(i64 8, i8* nonnull %12) #10
  call void @_ZN7logging10CheckError5CheckEPKciS2_(%"class.logging::CheckError"* nonnull sret %4, i8* getelementptr inbounds ([65 x i8], [65 x i8]* @.str.7, i64 0, i64 0), i32 82, i8* getelementptr inbounds ([22 x i8], [22 x i8]* @.str.8, i64 0, i64 0)) #10
  %13 = call dereferenceable(160) %"class.std::__1::basic_ostream"* @_ZN7logging10CheckError6streamEv(%"class.logging::CheckError"* nonnull %4) #10
  call void @_ZN7logging10CheckErrorD1Ev(%"class.logging::CheckError"* nonnull %4) #10
  call void @llvm.lifetime.end.p0i8(i64 8, i8* nonnull %12) #10
  br label %14

14:                                               ; preds = %2, %11
  %15 = call i8* @_Znwm(i64 40) #11
  %16 = load %"class.extensions::APIPermissionInfo"*, %"class.extensions::APIPermissionInfo"** %8, align 8
  %17 = bitcast i8* %15 to %"class.extensions::APIPermission"*
  call void @_ZN10extensions13APIPermissionC2EPKNS_17APIPermissionInfoE(%"class.extensions::APIPermission"* nonnull %17, %"class.extensions::APIPermissionInfo"* %16) #10
  %18 = bitcast i8* %15 to i32 (...)***
  %19 = getelementptr inbounds i8, i8* %15, i64 24
  %20 = getelementptr inbounds i8, i8* %15, i64 16
  call void @llvm.memset.p0i8.i64(i8* align 8 %19, i8 0, i64 16, i1 false) #10
  %21 = bitcast i8* %20 to i8**
  store i8* %19, i8** %21, align 8
  store i32 (...)** bitcast (i8** getelementptr inbounds ({ [14 x i8*] }, { [14 x i8*] }* @_ZTVN11chrome_apps24MediaGalleriesPermissionE, i64 0, inrange i32 0, i64 2) to i32 (...)**), i32 (...)*** %18, align 8
  %22 = bitcast %"class.std::__1::set"* %5 to i8*
  call void @llvm.lifetime.start.p0i8(i64 24, i8* nonnull %22) #10
  %23 = getelementptr inbounds %"class.extensions::APIPermission", %"class.extensions::APIPermission"* %1, i64 1
  %24 = getelementptr inbounds %"class.std::__1::set", %"class.std::__1::set"* %5, i64 0, i32 0, i32 0
  %25 = getelementptr inbounds %"class.std::__1::set", %"class.std::__1::set"* %5, i64 0, i32 0, i32 1, i32 0, i32 0, i32 0
  %26 = getelementptr inbounds %"class.std::__1::set", %"class.std::__1::set"* %5, i64 0, i32 0, i32 1, i32 0, i32 0
  %27 = bitcast %"class.std::__1::__tree_node_base"** %25 to i8*
  call void @llvm.memset.p0i8.i64(i8* align 8 %27, i8 0, i64 16, i1 false) #10, !alias.scope !33
  store %"class.std::__1::__tree_end_node"* %26, %"class.std::__1::__tree_end_node"** %24, align 16, !alias.scope !33
  %28 = getelementptr inbounds %"class.extensions::SetDisjunctionPermission", %"class.extensions::SetDisjunctionPermission"* %0, i64 0, i32 1, i32 0, i32 0
  %29 = load %"class.std::__1::__tree_end_node"*, %"class.std::__1::__tree_end_node"** %28, align 8, !noalias !33
  %30 = getelementptr inbounds %"class.extensions::SetDisjunctionPermission", %"class.extensions::SetDisjunctionPermission"* %0, i64 0, i32 1, i32 0, i32 1, i32 0, i32 0
  %31 = bitcast %"class.extensions::APIPermission"* %23 to %"class.std::__1::__tree_end_node"**
  %32 = load %"class.std::__1::__tree_end_node"*, %"class.std::__1::__tree_end_node"** %31, align 8, !noalias !33
  %33 = getelementptr inbounds %"class.extensions::APIPermission", %"class.extensions::APIPermission"* %1, i64 1, i32 1
  %34 = bitcast %"class.extensions::APIPermissionInfo"** %33 to %"class.std::__1::__tree_end_node"*
  %35 = getelementptr inbounds %"struct.std::__1::__less.89", %"struct.std::__1::__less.89"* %3, i64 0, i32 0
  call void @llvm.lifetime.start.p0i8(i64 1, i8* nonnull %35) #10, !noalias !33
  %36 = call { %"class.std::__1::set"*, %"class.std::__1::__tree_end_node"* } @_ZNSt3__111__set_unionIRNS_6__lessIN11chrome_apps28MediaGalleriesPermissionDataES3_EENS_21__tree_const_iteratorIS3_PNS_11__tree_nodeIS3_PvEElEESB_NS_15insert_iteratorINS_3setIS3_NS_4lessIS3_EENS_9allocatorIS3_EEEEEEEET2_T0_SL_T1_SM_SK_T_(%"class.std::__1::__tree_end_node"* %29, %"class.std::__1::__tree_end_node"* %30, %"class.std::__1::__tree_end_node"* %32, %"class.std::__1::__tree_end_node"* %34, %"class.std::__1::set"* nonnull %5, %"class.std::__1::__tree_end_node"* %26, %"struct.std::__1::__less.89"* nonnull dereferenceable(1) %3) #10
  call void @llvm.lifetime.end.p0i8(i64 1, i8* nonnull %35) #10, !noalias !33
  %37 = bitcast i8* %20 to %"class.std::__1::__tree"*
  %38 = bitcast i8* %19 to %"class.std::__1::__tree_node"**
  %39 = load %"class.std::__1::__tree_node"*, %"class.std::__1::__tree_node"** %38, align 8
  call void @_ZNSt3__16__treeIN11chrome_apps28MediaGalleriesPermissionDataENS_4lessIS2_EENS_9allocatorIS2_EEE7destroyEPNS_11__tree_nodeIS2_PvEE(%"class.std::__1::__tree"* %37, %"class.std::__1::__tree_node"* %39) #10
  %40 = bitcast %"class.std::__1::set"* %5 to <2 x i64>*
  %41 = load <2 x i64>, <2 x i64>* %40, align 16
  %42 = bitcast i8* %20 to <2 x i64>*
  store <2 x i64> %41, <2 x i64>* %42, align 8
  %43 = getelementptr inbounds %"class.std::__1::set", %"class.std::__1::set"* %5, i64 0, i32 0, i32 2, i32 0, i32 0
  %44 = getelementptr inbounds i8, i8* %15, i64 32
  %45 = bitcast i8* %44 to i64*
  %46 = load i64, i64* %43, align 16
  store i64 %46, i64* %45, align 8
  %47 = icmp eq i64 %46, 0
  %48 = extractelement <2 x i64> %41, i32 1
  br i1 %47, label %49, label %51

49:                                               ; preds = %14
  %50 = inttoptr i64 %48 to %"class.std::__1::__tree_node"*
  store i8* %19, i8** %21, align 8
  br label %56

51:                                               ; preds = %14
  %52 = inttoptr i64 %48 to %"class.std::__1::__tree_node_base"*
  %53 = getelementptr inbounds %"class.std::__1::__tree_node_base", %"class.std::__1::__tree_node_base"* %52, i64 0, i32 2
  %54 = bitcast %"class.std::__1::__tree_end_node"** %53 to i8**
  store i8* %19, i8** %54, align 8
  store %"class.std::__1::__tree_end_node"* %26, %"class.std::__1::__tree_end_node"** %24, align 16
  %55 = bitcast %"class.std::__1::__tree_end_node"* %26 to i8*
  call void @llvm.memset.p0i8.i64(i8* align 8 %55, i8 0, i64 16, i1 false) #10
  br label %56

56:                                               ; preds = %51, %49
  %57 = phi %"class.std::__1::__tree_node"* [ null, %51 ], [ %50, %49 ]
  %58 = getelementptr inbounds %"class.std::__1::set", %"class.std::__1::set"* %5, i64 0, i32 0
  call void @_ZNSt3__16__treeIN11chrome_apps28MediaGalleriesPermissionDataENS_4lessIS2_EENS_9allocatorIS2_EEE7destroyEPNS_11__tree_nodeIS2_PvEE(%"class.std::__1::__tree"* nonnull %58, %"class.std::__1::__tree_node"* %57) #10
  call void @llvm.lifetime.end.p0i8(i64 24, i8* nonnull %22) #10
  ret %"class.extensions::APIPermission"* %17
}

; Function Attrs: nounwind ssp uwtable
define linkonce_odr hidden %"class.extensions::APIPermission"* @_ZNK10extensions24SetDisjunctionPermissionIN11chrome_apps28MediaGalleriesPermissionDataENS1_24MediaGalleriesPermissionEE9IntersectEPKNS_13APIPermissionE(%"class.extensions::SetDisjunctionPermission"*, %"class.extensions::APIPermission"*) unnamed_addr #0 comdat align 2 {
  %3 = alloca %"struct.std::__1::__less.89", align 1
  %4 = alloca %"class.logging::CheckError", align 8
  %5 = alloca %"class.std::__1::set", align 16
  %6 = getelementptr inbounds %"class.extensions::APIPermission", %"class.extensions::APIPermission"* %1, i64 0, i32 1
  %7 = load %"class.extensions::APIPermissionInfo"*, %"class.extensions::APIPermissionInfo"** %6, align 8
  %8 = getelementptr inbounds %"class.extensions::SetDisjunctionPermission", %"class.extensions::SetDisjunctionPermission"* %0, i64 0, i32 0, i32 1
  %9 = load %"class.extensions::APIPermissionInfo"*, %"class.extensions::APIPermissionInfo"** %8, align 8
  %10 = icmp eq %"class.extensions::APIPermissionInfo"* %7, %9
  br i1 %10, label %14, label %11

11:                                               ; preds = %2
  %12 = bitcast %"class.logging::CheckError"* %4 to i8*
  call void @llvm.lifetime.start.p0i8(i64 8, i8* nonnull %12) #10
  call void @_ZN7logging10CheckError5CheckEPKciS2_(%"class.logging::CheckError"* nonnull sret %4, i8* getelementptr inbounds ([65 x i8], [65 x i8]* @.str.7, i64 0, i64 0), i32 93, i8* getelementptr inbounds ([22 x i8], [22 x i8]* @.str.8, i64 0, i64 0)) #10
  %13 = call dereferenceable(160) %"class.std::__1::basic_ostream"* @_ZN7logging10CheckError6streamEv(%"class.logging::CheckError"* nonnull %4) #10
  call void @_ZN7logging10CheckErrorD1Ev(%"class.logging::CheckError"* nonnull %4) #10
  call void @llvm.lifetime.end.p0i8(i64 8, i8* nonnull %12) #10
  br label %14

14:                                               ; preds = %2, %11
  %15 = call i8* @_Znwm(i64 40) #11
  %16 = load %"class.extensions::APIPermissionInfo"*, %"class.extensions::APIPermissionInfo"** %8, align 8
  %17 = bitcast i8* %15 to %"class.extensions::APIPermission"*
  call void @_ZN10extensions13APIPermissionC2EPKNS_17APIPermissionInfoE(%"class.extensions::APIPermission"* nonnull %17, %"class.extensions::APIPermissionInfo"* %16) #10
  %18 = bitcast i8* %15 to i32 (...)***
  %19 = getelementptr inbounds i8, i8* %15, i64 24
  %20 = getelementptr inbounds i8, i8* %15, i64 16
  call void @llvm.memset.p0i8.i64(i8* align 8 %19, i8 0, i64 16, i1 false) #10
  %21 = bitcast i8* %20 to i8**
  store i8* %19, i8** %21, align 8
  store i32 (...)** bitcast (i8** getelementptr inbounds ({ [14 x i8*] }, { [14 x i8*] }* @_ZTVN11chrome_apps24MediaGalleriesPermissionE, i64 0, inrange i32 0, i64 2) to i32 (...)**), i32 (...)*** %18, align 8
  %22 = ptrtoint i8* %15 to i64
  %23 = bitcast %"class.std::__1::set"* %5 to i8*
  call void @llvm.lifetime.start.p0i8(i64 24, i8* nonnull %23) #10
  %24 = getelementptr inbounds %"class.extensions::APIPermission", %"class.extensions::APIPermission"* %1, i64 1
  %25 = getelementptr inbounds %"class.std::__1::set", %"class.std::__1::set"* %5, i64 0, i32 0, i32 0
  %26 = getelementptr inbounds %"class.std::__1::set", %"class.std::__1::set"* %5, i64 0, i32 0, i32 1, i32 0, i32 0, i32 0
  %27 = getelementptr inbounds %"class.std::__1::set", %"class.std::__1::set"* %5, i64 0, i32 0, i32 1, i32 0, i32 0
  %28 = bitcast %"class.std::__1::__tree_node_base"** %26 to i8*
  call void @llvm.memset.p0i8.i64(i8* align 8 %28, i8 0, i64 16, i1 false) #10, !alias.scope !36
  store %"class.std::__1::__tree_end_node"* %27, %"class.std::__1::__tree_end_node"** %25, align 16, !alias.scope !36
  %29 = getelementptr inbounds %"class.extensions::SetDisjunctionPermission", %"class.extensions::SetDisjunctionPermission"* %0, i64 0, i32 1, i32 0, i32 0
  %30 = load %"class.std::__1::__tree_end_node"*, %"class.std::__1::__tree_end_node"** %29, align 8, !noalias !36
  %31 = getelementptr inbounds %"class.extensions::SetDisjunctionPermission", %"class.extensions::SetDisjunctionPermission"* %0, i64 0, i32 1, i32 0, i32 1, i32 0, i32 0
  %32 = bitcast %"class.extensions::APIPermission"* %24 to %"class.std::__1::__tree_end_node"**
  %33 = load %"class.std::__1::__tree_end_node"*, %"class.std::__1::__tree_end_node"** %32, align 8, !noalias !36
  %34 = getelementptr inbounds %"class.extensions::APIPermission", %"class.extensions::APIPermission"* %1, i64 1, i32 1
  %35 = bitcast %"class.extensions::APIPermissionInfo"** %34 to %"class.std::__1::__tree_end_node"*
  %36 = getelementptr inbounds %"struct.std::__1::__less.89", %"struct.std::__1::__less.89"* %3, i64 0, i32 0
  call void @llvm.lifetime.start.p0i8(i64 1, i8* nonnull %36) #10, !noalias !36
  %37 = call { %"class.std::__1::set"*, %"class.std::__1::__tree_end_node"* } @_ZNSt3__118__set_intersectionIRNS_6__lessIN11chrome_apps28MediaGalleriesPermissionDataES3_EENS_21__tree_const_iteratorIS3_PNS_11__tree_nodeIS3_PvEElEESB_NS_15insert_iteratorINS_3setIS3_NS_4lessIS3_EENS_9allocatorIS3_EEEEEEEET2_T0_SL_T1_SM_SK_T_(%"class.std::__1::__tree_end_node"* %30, %"class.std::__1::__tree_end_node"* %31, %"class.std::__1::__tree_end_node"* %33, %"class.std::__1::__tree_end_node"* %35, %"class.std::__1::set"* nonnull %5, %"class.std::__1::__tree_end_node"* %27, %"struct.std::__1::__less.89"* nonnull dereferenceable(1) %3) #10
  call void @llvm.lifetime.end.p0i8(i64 1, i8* nonnull %36) #10, !noalias !36
  %38 = bitcast i8* %20 to %"class.std::__1::__tree"*
  %39 = bitcast i8* %19 to %"class.std::__1::__tree_node"**
  %40 = load %"class.std::__1::__tree_node"*, %"class.std::__1::__tree_node"** %39, align 8
  call void @_ZNSt3__16__treeIN11chrome_apps28MediaGalleriesPermissionDataENS_4lessIS2_EENS_9allocatorIS2_EEE7destroyEPNS_11__tree_nodeIS2_PvEE(%"class.std::__1::__tree"* %38, %"class.std::__1::__tree_node"* %40) #10
  %41 = bitcast %"class.std::__1::set"* %5 to <2 x i64>*
  %42 = load <2 x i64>, <2 x i64>* %41, align 16
  %43 = bitcast i8* %20 to <2 x i64>*
  store <2 x i64> %42, <2 x i64>* %43, align 8
  %44 = getelementptr inbounds %"class.std::__1::set", %"class.std::__1::set"* %5, i64 0, i32 0, i32 2, i32 0, i32 0
  %45 = getelementptr inbounds i8, i8* %15, i64 32
  %46 = bitcast i8* %45 to i64*
  %47 = load i64, i64* %44, align 16
  store i64 %47, i64* %46, align 8
  %48 = icmp eq i64 %47, 0
  %49 = extractelement <2 x i64> %42, i32 1
  br i1 %48, label %50, label %52

50:                                               ; preds = %14
  %51 = inttoptr i64 %49 to %"class.std::__1::__tree_node"*
  store i8* %19, i8** %21, align 8
  br label %57

52:                                               ; preds = %14
  %53 = inttoptr i64 %49 to %"class.std::__1::__tree_node_base"*
  %54 = getelementptr inbounds %"class.std::__1::__tree_node_base", %"class.std::__1::__tree_node_base"* %53, i64 0, i32 2
  %55 = bitcast %"class.std::__1::__tree_end_node"** %54 to i8**
  store i8* %19, i8** %55, align 8
  store %"class.std::__1::__tree_end_node"* %27, %"class.std::__1::__tree_end_node"** %25, align 16
  %56 = bitcast %"class.std::__1::__tree_end_node"* %27 to i8*
  call void @llvm.memset.p0i8.i64(i8* align 8 %56, i8 0, i64 16, i1 false) #10
  br label %57

57:                                               ; preds = %50, %52
  %58 = phi %"class.std::__1::__tree_node"* [ %51, %50 ], [ null, %52 ]
  %59 = getelementptr inbounds %"class.std::__1::set", %"class.std::__1::set"* %5, i64 0, i32 0
  call void @_ZNSt3__16__treeIN11chrome_apps28MediaGalleriesPermissionDataENS_4lessIS2_EENS_9allocatorIS2_EEE7destroyEPNS_11__tree_nodeIS2_PvEE(%"class.std::__1::__tree"* nonnull %59, %"class.std::__1::__tree_node"* %58) #10
  call void @llvm.lifetime.end.p0i8(i64 24, i8* nonnull %23) #10
  %60 = load i64, i64* %46, align 8
  %61 = icmp eq i64 %60, 0
  br i1 %61, label %62, label %68

62:                                               ; preds = %57
  %63 = bitcast i8* %15 to %"class.extensions::SetDisjunctionPermission"*
  %64 = bitcast i8* %15 to void (%"class.extensions::SetDisjunctionPermission"*)***
  %65 = load void (%"class.extensions::SetDisjunctionPermission"*)**, void (%"class.extensions::SetDisjunctionPermission"*)*** %64, align 8
  %66 = getelementptr inbounds void (%"class.extensions::SetDisjunctionPermission"*)*, void (%"class.extensions::SetDisjunctionPermission"*)** %65, i64 1
  %67 = load void (%"class.extensions::SetDisjunctionPermission"*)*, void (%"class.extensions::SetDisjunctionPermission"*)** %66, align 8
  call void %67(%"class.extensions::SetDisjunctionPermission"* nonnull %63) #10
  br label %68

68:                                               ; preds = %57, %62
  %69 = phi i64 [ 0, %62 ], [ %22, %57 ]
  %70 = inttoptr i64 %69 to %"class.extensions::APIPermission"*
  ret %"class.extensions::APIPermission"* %70
}

; Function Attrs: argmemonly nounwind
declare void @llvm.memcpy.p0i8.p0i8.i64(i8* nocapture writeonly, i8* nocapture readonly, i64, i1 immarg) #2

declare void @_ZNSt3__112basic_stringIcNS_11char_traitsIcEENS_9allocatorIcEEE25__init_copy_ctor_externalEPKcm(%"class.std::__1::basic_string"*, i8*, i64) local_unnamed_addr #3

declare dereferenceable(24) %"class.std::__1::basic_string"* @_ZNSt3__112basic_stringIcNS_11char_traitsIcEENS_9allocatorIcEEE17__assign_externalEPKcm(%"class.std::__1::basic_string"*, i8*, i64) local_unnamed_addr #3

declare void @_ZN10extensions13APIPermissionC2EPKNS_17APIPermissionInfoE(%"class.extensions::APIPermission"*, %"class.extensions::APIPermissionInfo"*) unnamed_addr #3

; Function Attrs: nounwind ssp uwtable
define linkonce_odr hidden void @_ZN10extensions24SetDisjunctionPermissionIN11chrome_apps28MediaGalleriesPermissionDataENS1_24MediaGalleriesPermissionEED2Ev(%"class.extensions::SetDisjunctionPermission"*) unnamed_addr #0 comdat align 2 {
  %2 = getelementptr inbounds %"class.extensions::SetDisjunctionPermission", %"class.extensions::SetDisjunctionPermission"* %0, i64 0, i32 0, i32 0
  store i32 (...)** bitcast (i8** getelementptr inbounds ({ [14 x i8*] }, { [14 x i8*] }* @_ZTVN10extensions24SetDisjunctionPermissionIN11chrome_apps28MediaGalleriesPermissionDataENS1_24MediaGalleriesPermissionEEE, i64 0, inrange i32 0, i64 2) to i32 (...)**), i32 (...)*** %2, align 8
  %3 = getelementptr inbounds %"class.extensions::SetDisjunctionPermission", %"class.extensions::SetDisjunctionPermission"* %0, i64 0, i32 1, i32 0
  %4 = getelementptr inbounds %"class.extensions::SetDisjunctionPermission", %"class.extensions::SetDisjunctionPermission"* %0, i64 0, i32 1, i32 0, i32 1, i32 0, i32 0
  %5 = bitcast %"class.std::__1::__tree_end_node"* %4 to %"class.std::__1::__tree_node"**
  %6 = load %"class.std::__1::__tree_node"*, %"class.std::__1::__tree_node"** %5, align 8
  tail call void @_ZNSt3__16__treeIN11chrome_apps28MediaGalleriesPermissionDataENS_4lessIS2_EENS_9allocatorIS2_EEE7destroyEPNS_11__tree_nodeIS2_PvEE(%"class.std::__1::__tree"* %3, %"class.std::__1::__tree_node"* %6) #10
  %7 = getelementptr inbounds %"class.extensions::SetDisjunctionPermission", %"class.extensions::SetDisjunctionPermission"* %0, i64 0, i32 0
  tail call void @_ZN10extensions13APIPermissionD2Ev(%"class.extensions::APIPermission"* %7) #10
  ret void
}

; Function Attrs: nounwind ssp uwtable
define linkonce_odr hidden void @_ZN10extensions24SetDisjunctionPermissionIN11chrome_apps28MediaGalleriesPermissionDataENS1_24MediaGalleriesPermissionEED0Ev(%"class.extensions::SetDisjunctionPermission"*) unnamed_addr #0 comdat align 2 {
  tail call void @llvm.trap() #12
  unreachable
}

declare void @__cxa_pure_virtual() unnamed_addr

; Function Attrs: cold noreturn nounwind
declare void @llvm.trap() #4

; Function Attrs: nounwind
declare void @_ZN10extensions13APIPermissionD2Ev(%"class.extensions::APIPermission"*) unnamed_addr #5

; Function Attrs: nounwind ssp uwtable
define linkonce_odr hidden void @_ZNSt3__16__treeIN11chrome_apps28MediaGalleriesPermissionDataENS_4lessIS2_EENS_9allocatorIS2_EEE7destroyEPNS_11__tree_nodeIS2_PvEE(%"class.std::__1::__tree"*, %"class.std::__1::__tree_node"*) local_unnamed_addr #0 comdat align 2 {
  %3 = icmp eq %"class.std::__1::__tree_node"* %1, null
  br i1 %3, label %20, label %4

4:                                                ; preds = %2
  %5 = bitcast %"class.std::__1::__tree_node"* %1 to %"class.std::__1::__tree_node"**
  %6 = load %"class.std::__1::__tree_node"*, %"class.std::__1::__tree_node"** %5, align 8
  tail call void @_ZNSt3__16__treeIN11chrome_apps28MediaGalleriesPermissionDataENS_4lessIS2_EENS_9allocatorIS2_EEE7destroyEPNS_11__tree_nodeIS2_PvEE(%"class.std::__1::__tree"* %0, %"class.std::__1::__tree_node"* %6) #10
  %7 = getelementptr inbounds %"class.std::__1::__tree_node", %"class.std::__1::__tree_node"* %1, i64 0, i32 0, i32 1
  %8 = bitcast %"class.std::__1::__tree_node_base"** %7 to %"class.std::__1::__tree_node"**
  %9 = load %"class.std::__1::__tree_node"*, %"class.std::__1::__tree_node"** %8, align 8
  tail call void @_ZNSt3__16__treeIN11chrome_apps28MediaGalleriesPermissionDataENS_4lessIS2_EENS_9allocatorIS2_EEE7destroyEPNS_11__tree_nodeIS2_PvEE(%"class.std::__1::__tree"* %0, %"class.std::__1::__tree_node"* %9) #10
  %10 = getelementptr inbounds %"class.std::__1::__tree_node", %"class.std::__1::__tree_node"* %1, i64 0, i32 1
  %11 = bitcast %"class.chrome_apps::MediaGalleriesPermissionData"* %10 to %"struct.std::__1::basic_string<char, std::__1::char_traits<char>, std::__1::allocator<char> >::__short"*
  %12 = getelementptr inbounds %"struct.std::__1::basic_string<char, std::__1::char_traits<char>, std::__1::allocator<char> >::__short", %"struct.std::__1::basic_string<char, std::__1::char_traits<char>, std::__1::allocator<char> >::__short"* %11, i64 0, i32 1, i32 0
  %13 = load i8, i8* %12, align 1
  %14 = icmp slt i8 %13, 0
  br i1 %14, label %15, label %18

15:                                               ; preds = %4
  %16 = getelementptr inbounds %"class.chrome_apps::MediaGalleriesPermissionData", %"class.chrome_apps::MediaGalleriesPermissionData"* %10, i64 0, i32 0, i32 0, i32 0, i32 0, i32 0, i32 0, i32 0
  %17 = load i8*, i8** %16, align 8
  tail call void @_ZdlPv(i8* %17) #11
  br label %18

18:                                               ; preds = %4, %15
  %19 = bitcast %"class.std::__1::__tree_node"* %1 to i8*
  tail call void @_ZdlPv(i8* %19) #11
  br label %20

20:                                               ; preds = %2, %18
  ret void
}

declare zeroext i1 @_ZNK4base5Value9GetAsListEPPKNS_9ListValueE(%"class.base::Value"*, %"class.base::ListValue"**) local_unnamed_addr #3

declare zeroext i1 @_ZNK4base9ListValue3GetEmPPKNS_5ValueE(%"class.base::ListValue"*, i64, %"class.base::Value"**) local_unnamed_addr #3

declare void @_ZN11chrome_apps28MediaGalleriesPermissionDataC1Ev(%"class.chrome_apps::MediaGalleriesPermissionData"*) unnamed_addr #3

declare zeroext i1 @_ZN11chrome_apps28MediaGalleriesPermissionData9FromValueEPKN4base5ValueE(%"class.chrome_apps::MediaGalleriesPermissionData"*, %"class.base::Value"*) local_unnamed_addr #3

declare zeroext i1 @_ZN4base10JSONWriter5WriteERKNS_5ValueEPNSt3__112basic_stringIcNS4_11char_traitsIcEENS4_9allocatorIcEEEEm(%"class.base::Value"* dereferenceable(32), %"class.std::__1::basic_string"*, i64) local_unnamed_addr #3

; Function Attrs: noreturn nounwind ssp uwtable
define linkonce_odr hidden dereferenceable(24) %"class.std::__1::vector.31"* @_ZN4absl16variant_internal26TypedThrowBadVariantAccessIRKNSt3__16vectorIN4base5ValueENS2_9allocatorIS5_EEEEEET_v() local_unnamed_addr #6 comdat {
  tail call void @_ZN4absl16variant_internal21ThrowBadVariantAccessEv() #12
  unreachable
}

; Function Attrs: noreturn
declare void @_ZN4absl16variant_internal21ThrowBadVariantAccessEv() local_unnamed_addr #7

; Function Attrs: nounwind ssp uwtable
define linkonce_odr hidden { %"class.std::__1::__tree_end_node"*, i8 } @_ZNSt3__16__treeIN11chrome_apps28MediaGalleriesPermissionDataENS_4lessIS2_EENS_9allocatorIS2_EEE25__emplace_unique_key_argsIS2_JRKS2_EEENS_4pairINS_15__tree_iteratorIS2_PNS_11__tree_nodeIS2_PvEElEEbEERKT_DpOT0_(%"class.std::__1::__tree"*, %"class.chrome_apps::MediaGalleriesPermissionData"* dereferenceable(24), %"class.chrome_apps::MediaGalleriesPermissionData"* dereferenceable(24)) local_unnamed_addr #0 comdat align 2 {
  %4 = getelementptr inbounds %"class.std::__1::__tree", %"class.std::__1::__tree"* %0, i64 0, i32 1, i32 0, i32 0
  %5 = bitcast %"class.std::__1::__tree_end_node"* %4 to %"class.std::__1::__tree_node"**
  %6 = load %"class.std::__1::__tree_node"*, %"class.std::__1::__tree_node"** %5, align 8
  %7 = icmp eq %"class.std::__1::__tree_node"* %6, null
  br i1 %7, label %35, label %8

8:                                                ; preds = %3
  %9 = getelementptr inbounds %"class.std::__1::__tree", %"class.std::__1::__tree"* %0, i64 0, i32 1, i32 0, i32 0, i32 0
  br label %10

10:                                               ; preds = %31, %8
  %11 = phi %"class.std::__1::__tree_node"* [ %34, %31 ], [ %6, %8 ]
  %12 = phi %"class.std::__1::__tree_node_base"** [ %33, %31 ], [ %9, %8 ]
  %13 = getelementptr inbounds %"class.std::__1::__tree_node", %"class.std::__1::__tree_node"* %11, i64 0, i32 1
  %14 = tail call zeroext i1 @_ZNK11chrome_apps28MediaGalleriesPermissionDataltERKS0_(%"class.chrome_apps::MediaGalleriesPermissionData"* %1, %"class.chrome_apps::MediaGalleriesPermissionData"* dereferenceable(24) %13) #10
  br i1 %14, label %15, label %21

15:                                               ; preds = %10
  %16 = getelementptr inbounds %"class.std::__1::__tree_node", %"class.std::__1::__tree_node"* %11, i64 0, i32 0, i32 0, i32 0
  %17 = load %"class.std::__1::__tree_node_base"*, %"class.std::__1::__tree_node_base"** %16, align 8
  %18 = icmp eq %"class.std::__1::__tree_node_base"* %17, null
  br i1 %18, label %19, label %31

19:                                               ; preds = %15
  %20 = getelementptr inbounds %"class.std::__1::__tree_node", %"class.std::__1::__tree_node"* %11, i64 0, i32 0, i32 0
  br label %37

21:                                               ; preds = %10
  %22 = tail call zeroext i1 @_ZNK11chrome_apps28MediaGalleriesPermissionDataltERKS0_(%"class.chrome_apps::MediaGalleriesPermissionData"* %13, %"class.chrome_apps::MediaGalleriesPermissionData"* dereferenceable(24) %1) #10
  br i1 %22, label %23, label %29

23:                                               ; preds = %21
  %24 = getelementptr inbounds %"class.std::__1::__tree_node", %"class.std::__1::__tree_node"* %11, i64 0, i32 0, i32 1
  %25 = load %"class.std::__1::__tree_node_base"*, %"class.std::__1::__tree_node_base"** %24, align 8
  %26 = icmp eq %"class.std::__1::__tree_node_base"* %25, null
  br i1 %26, label %27, label %31

27:                                               ; preds = %23
  %28 = getelementptr inbounds %"class.std::__1::__tree_node", %"class.std::__1::__tree_node"* %11, i64 0, i32 0, i32 0
  br label %37

29:                                               ; preds = %21
  %30 = getelementptr inbounds %"class.std::__1::__tree_node", %"class.std::__1::__tree_node"* %11, i64 0, i32 0, i32 0
  br label %37

31:                                               ; preds = %23, %15
  %32 = phi %"class.std::__1::__tree_node_base"* [ %17, %15 ], [ %25, %23 ]
  %33 = phi %"class.std::__1::__tree_node_base"** [ %16, %15 ], [ %24, %23 ]
  %34 = bitcast %"class.std::__1::__tree_node_base"* %32 to %"class.std::__1::__tree_node"*
  br label %10

35:                                               ; preds = %3
  %36 = getelementptr inbounds %"class.std::__1::__tree_end_node", %"class.std::__1::__tree_end_node"* %4, i64 0, i32 0
  br label %37

37:                                               ; preds = %19, %27, %29, %35
  %38 = phi %"class.std::__1::__tree_end_node"* [ %4, %35 ], [ %20, %19 ], [ %28, %27 ], [ %30, %29 ]
  %39 = phi %"class.std::__1::__tree_node_base"** [ %36, %35 ], [ %16, %19 ], [ %24, %27 ], [ %12, %29 ]
  %40 = bitcast %"class.std::__1::__tree_node_base"** %39 to %"class.std::__1::__tree_node"**
  %41 = load %"class.std::__1::__tree_node"*, %"class.std::__1::__tree_node"** %40, align 8
  %42 = icmp eq %"class.std::__1::__tree_node"* %41, null
  br i1 %42, label %43, label %80

43:                                               ; preds = %37
  %44 = tail call i8* @_Znwm(i64 56) #11, !noalias !39
  %45 = getelementptr inbounds i8, i8* %44, i64 32
  %46 = bitcast %"class.chrome_apps::MediaGalleriesPermissionData"* %2 to %"struct.std::__1::basic_string<char, std::__1::char_traits<char>, std::__1::allocator<char> >::__short"*
  %47 = getelementptr inbounds %"struct.std::__1::basic_string<char, std::__1::char_traits<char>, std::__1::allocator<char> >::__short", %"struct.std::__1::basic_string<char, std::__1::char_traits<char>, std::__1::allocator<char> >::__short"* %46, i64 0, i32 1, i32 0
  %48 = load i8, i8* %47, align 1, !noalias !39
  %49 = icmp slt i8 %48, 0
  br i1 %49, label %52, label %50

50:                                               ; preds = %43
  %51 = bitcast %"class.chrome_apps::MediaGalleriesPermissionData"* %2 to i8*
  tail call void @llvm.memcpy.p0i8.p0i8.i64(i8* align 8 %45, i8* align 8 %51, i64 24, i1 false) #10, !noalias !39
  br label %58

52:                                               ; preds = %43
  %53 = bitcast i8* %45 to %"class.std::__1::basic_string"*
  %54 = getelementptr inbounds %"class.chrome_apps::MediaGalleriesPermissionData", %"class.chrome_apps::MediaGalleriesPermissionData"* %2, i64 0, i32 0, i32 0, i32 0, i32 0, i32 0, i32 0, i32 0
  %55 = load i8*, i8** %54, align 8, !noalias !39
  %56 = getelementptr inbounds %"class.chrome_apps::MediaGalleriesPermissionData", %"class.chrome_apps::MediaGalleriesPermissionData"* %2, i64 0, i32 0, i32 0, i32 0, i32 0, i32 0, i32 0, i32 1
  %57 = load i64, i64* %56, align 8, !noalias !39
  tail call void @_ZNSt3__112basic_stringIcNS_11char_traitsIcEENS_9allocatorIcEEE25__init_copy_ctor_externalEPKcm(%"class.std::__1::basic_string"* %53, i8* %55, i64 %57) #10, !noalias !39
  br label %58

58:                                               ; preds = %50, %52
  %59 = bitcast i8* %44 to %"class.std::__1::__tree_node"*
  %60 = bitcast i8* %44 to %"class.std::__1::__tree_node_base"*
  %61 = getelementptr inbounds i8, i8* %44, i64 16
  %62 = bitcast i8* %61 to %"class.std::__1::__tree_end_node"**
  tail call void @llvm.memset.p0i8.i64(i8* nonnull align 8 %44, i8 0, i64 16, i1 false) #10
  store %"class.std::__1::__tree_end_node"* %38, %"class.std::__1::__tree_end_node"** %62, align 8
  %63 = bitcast %"class.std::__1::__tree_node_base"** %39 to i8**
  store i8* %44, i8** %63, align 8
  %64 = getelementptr inbounds %"class.std::__1::__tree", %"class.std::__1::__tree"* %0, i64 0, i32 0
  %65 = load %"class.std::__1::__tree_end_node"*, %"class.std::__1::__tree_end_node"** %64, align 8
  %66 = getelementptr inbounds %"class.std::__1::__tree_end_node", %"class.std::__1::__tree_end_node"* %65, i64 0, i32 0
  %67 = load %"class.std::__1::__tree_node_base"*, %"class.std::__1::__tree_node_base"** %66, align 8
  %68 = icmp eq %"class.std::__1::__tree_node_base"* %67, null
  br i1 %68, label %73, label %69

69:                                               ; preds = %58
  %70 = ptrtoint %"class.std::__1::__tree_node_base"* %67 to i64
  %71 = bitcast %"class.std::__1::__tree"* %0 to i64*
  store i64 %70, i64* %71, align 8
  %72 = load %"class.std::__1::__tree_node_base"*, %"class.std::__1::__tree_node_base"** %39, align 8
  br label %73

73:                                               ; preds = %69, %58
  %74 = phi %"class.std::__1::__tree_node_base"* [ %60, %58 ], [ %72, %69 ]
  %75 = getelementptr inbounds %"class.std::__1::__tree", %"class.std::__1::__tree"* %0, i64 0, i32 1, i32 0, i32 0, i32 0
  %76 = load %"class.std::__1::__tree_node_base"*, %"class.std::__1::__tree_node_base"** %75, align 8
  tail call void @_ZNSt3__127__tree_balance_after_insertIPNS_16__tree_node_baseIPvEEEEvT_S5_(%"class.std::__1::__tree_node_base"* %76, %"class.std::__1::__tree_node_base"* %74) #10
  %77 = getelementptr inbounds %"class.std::__1::__tree", %"class.std::__1::__tree"* %0, i64 0, i32 2, i32 0, i32 0
  %78 = load i64, i64* %77, align 8
  %79 = add i64 %78, 1
  store i64 %79, i64* %77, align 8
  br label %80

80:                                               ; preds = %73, %37
  %81 = phi i8 [ 1, %73 ], [ 0, %37 ]
  %82 = phi %"class.std::__1::__tree_node"* [ %59, %73 ], [ %41, %37 ]
  %83 = getelementptr inbounds %"class.std::__1::__tree_node", %"class.std::__1::__tree_node"* %82, i64 0, i32 0, i32 0
  %84 = insertvalue { %"class.std::__1::__tree_end_node"*, i8 } undef, %"class.std::__1::__tree_end_node"* %83, 0
  %85 = insertvalue { %"class.std::__1::__tree_end_node"*, i8 } %84, i8 %81, 1
  ret { %"class.std::__1::__tree_end_node"*, i8 } %85
}

declare zeroext i1 @_ZNK11chrome_apps28MediaGalleriesPermissionDataltERKS0_(%"class.chrome_apps::MediaGalleriesPermissionData"*, %"class.chrome_apps::MediaGalleriesPermissionData"* dereferenceable(24)) local_unnamed_addr #3

; Function Attrs: nobuiltin nofree
declare noalias nonnull i8* @_Znwm(i64) local_unnamed_addr #8

; Function Attrs: nounwind ssp uwtable
define linkonce_odr hidden void @_ZNSt3__127__tree_balance_after_insertIPNS_16__tree_node_baseIPvEEEEvT_S5_(%"class.std::__1::__tree_node_base"*, %"class.std::__1::__tree_node_base"*) local_unnamed_addr #0 comdat {
  %3 = icmp eq %"class.std::__1::__tree_node_base"* %1, %0
  %4 = getelementptr inbounds %"class.std::__1::__tree_node_base", %"class.std::__1::__tree_node_base"* %1, i64 0, i32 3
  %5 = zext i1 %3 to i8
  store i8 %5, i8* %4, align 8
  br i1 %3, label %156, label %6

6:                                                ; preds = %2, %149
  %7 = phi %"class.std::__1::__tree_node_base"* [ %20, %149 ], [ %1, %2 ]
  %8 = getelementptr inbounds %"class.std::__1::__tree_node_base", %"class.std::__1::__tree_node_base"* %7, i64 0, i32 2
  %9 = bitcast %"class.std::__1::__tree_end_node"** %8 to %"class.std::__1::__tree_node_base"**
  %10 = load %"class.std::__1::__tree_node_base"*, %"class.std::__1::__tree_node_base"** %9, align 8
  %11 = getelementptr inbounds %"class.std::__1::__tree_node_base", %"class.std::__1::__tree_node_base"* %10, i64 0, i32 3
  %12 = load i8, i8* %11, align 8, !range !42
  %13 = icmp eq i8 %12, 0
  br i1 %13, label %14, label %156

14:                                               ; preds = %6
  %15 = getelementptr inbounds %"class.std::__1::__tree_node_base", %"class.std::__1::__tree_node_base"* %10, i64 0, i32 2
  %16 = load %"class.std::__1::__tree_end_node"*, %"class.std::__1::__tree_end_node"** %15, align 8
  %17 = getelementptr inbounds %"class.std::__1::__tree_end_node", %"class.std::__1::__tree_end_node"* %16, i64 0, i32 0
  %18 = load %"class.std::__1::__tree_node_base"*, %"class.std::__1::__tree_node_base"** %17, align 8
  %19 = icmp eq %"class.std::__1::__tree_node_base"* %18, %10
  %20 = bitcast %"class.std::__1::__tree_end_node"* %16 to %"class.std::__1::__tree_node_base"*
  br i1 %19, label %21, label %87

21:                                               ; preds = %14
  %22 = getelementptr inbounds %"class.std::__1::__tree_end_node", %"class.std::__1::__tree_end_node"* %16, i64 1, i32 0
  %23 = load %"class.std::__1::__tree_node_base"*, %"class.std::__1::__tree_node_base"** %22, align 8
  %24 = icmp eq %"class.std::__1::__tree_node_base"* %23, null
  br i1 %24, label %29, label %25

25:                                               ; preds = %21
  %26 = getelementptr inbounds %"class.std::__1::__tree_node_base", %"class.std::__1::__tree_node_base"* %23, i64 0, i32 3
  %27 = load i8, i8* %26, align 8, !range !42
  %28 = icmp eq i8 %27, 0
  br i1 %28, label %149, label %29

29:                                               ; preds = %25, %21
  %30 = getelementptr inbounds %"class.std::__1::__tree_node_base", %"class.std::__1::__tree_node_base"* %10, i64 0, i32 2
  %31 = bitcast %"class.std::__1::__tree_end_node"* %16 to %"class.std::__1::__tree_node_base"*
  %32 = getelementptr inbounds %"class.std::__1::__tree_node_base", %"class.std::__1::__tree_node_base"* %10, i64 0, i32 0, i32 0
  %33 = load %"class.std::__1::__tree_node_base"*, %"class.std::__1::__tree_node_base"** %32, align 8
  %34 = icmp eq %"class.std::__1::__tree_node_base"* %33, %7
  br i1 %34, label %61, label %35

35:                                               ; preds = %29
  %36 = ptrtoint %"class.std::__1::__tree_end_node"* %16 to i64
  %37 = getelementptr inbounds %"class.std::__1::__tree_node_base", %"class.std::__1::__tree_node_base"* %10, i64 0, i32 1
  %38 = load %"class.std::__1::__tree_node_base"*, %"class.std::__1::__tree_node_base"** %37, align 8
  %39 = getelementptr inbounds %"class.std::__1::__tree_node_base", %"class.std::__1::__tree_node_base"* %38, i64 0, i32 0, i32 0
  %40 = load %"class.std::__1::__tree_node_base"*, %"class.std::__1::__tree_node_base"** %39, align 8
  store %"class.std::__1::__tree_node_base"* %40, %"class.std::__1::__tree_node_base"** %37, align 8
  %41 = icmp eq %"class.std::__1::__tree_node_base"* %40, null
  br i1 %41, label %47, label %42

42:                                               ; preds = %35
  %43 = getelementptr inbounds %"class.std::__1::__tree_node_base", %"class.std::__1::__tree_node_base"* %10, i64 0, i32 0
  %44 = getelementptr inbounds %"class.std::__1::__tree_node_base", %"class.std::__1::__tree_node_base"* %40, i64 0, i32 2
  store %"class.std::__1::__tree_end_node"* %43, %"class.std::__1::__tree_end_node"** %44, align 8
  %45 = bitcast %"class.std::__1::__tree_end_node"** %30 to i64*
  %46 = load i64, i64* %45, align 8
  br label %47

47:                                               ; preds = %35, %42
  %48 = phi i64 [ %46, %42 ], [ %36, %35 ]
  %49 = getelementptr inbounds %"class.std::__1::__tree_node_base", %"class.std::__1::__tree_node_base"* %38, i64 0, i32 2
  %50 = bitcast %"class.std::__1::__tree_end_node"** %49 to i64*
  store i64 %48, i64* %50, align 8
  %51 = load %"class.std::__1::__tree_end_node"*, %"class.std::__1::__tree_end_node"** %30, align 8
  %52 = getelementptr inbounds %"class.std::__1::__tree_end_node", %"class.std::__1::__tree_end_node"* %51, i64 0, i32 0
  %53 = load %"class.std::__1::__tree_node_base"*, %"class.std::__1::__tree_node_base"** %52, align 8
  %54 = icmp eq %"class.std::__1::__tree_node_base"* %53, %10
  %55 = getelementptr inbounds %"class.std::__1::__tree_end_node", %"class.std::__1::__tree_end_node"* %51, i64 1, i32 0
  %56 = select i1 %54, %"class.std::__1::__tree_node_base"** %52, %"class.std::__1::__tree_node_base"** %55
  store %"class.std::__1::__tree_node_base"* %38, %"class.std::__1::__tree_node_base"** %56, align 8
  store %"class.std::__1::__tree_node_base"* %10, %"class.std::__1::__tree_node_base"** %39, align 8
  %57 = getelementptr inbounds %"class.std::__1::__tree_node_base", %"class.std::__1::__tree_node_base"* %38, i64 0, i32 0
  store %"class.std::__1::__tree_end_node"* %57, %"class.std::__1::__tree_end_node"** %30, align 8
  %58 = getelementptr inbounds %"class.std::__1::__tree_node_base", %"class.std::__1::__tree_node_base"* %38, i64 0, i32 2
  %59 = bitcast %"class.std::__1::__tree_end_node"** %58 to %"class.std::__1::__tree_node_base"**
  %60 = load %"class.std::__1::__tree_node_base"*, %"class.std::__1::__tree_node_base"** %59, align 8
  br label %61

61:                                               ; preds = %47, %29
  %62 = phi %"class.std::__1::__tree_node_base"* [ %31, %29 ], [ %60, %47 ]
  %63 = phi %"class.std::__1::__tree_node_base"* [ %10, %29 ], [ %38, %47 ]
  %64 = getelementptr inbounds %"class.std::__1::__tree_node_base", %"class.std::__1::__tree_node_base"* %63, i64 0, i32 3
  store i8 1, i8* %64, align 8
  %65 = getelementptr inbounds %"class.std::__1::__tree_node_base", %"class.std::__1::__tree_node_base"* %62, i64 0, i32 3
  store i8 0, i8* %65, align 8
  %66 = getelementptr inbounds %"class.std::__1::__tree_node_base", %"class.std::__1::__tree_node_base"* %62, i64 0, i32 0, i32 0
  %67 = load %"class.std::__1::__tree_node_base"*, %"class.std::__1::__tree_node_base"** %66, align 8
  %68 = getelementptr inbounds %"class.std::__1::__tree_node_base", %"class.std::__1::__tree_node_base"* %67, i64 0, i32 1
  %69 = load %"class.std::__1::__tree_node_base"*, %"class.std::__1::__tree_node_base"** %68, align 8
  store %"class.std::__1::__tree_node_base"* %69, %"class.std::__1::__tree_node_base"** %66, align 8
  %70 = icmp eq %"class.std::__1::__tree_node_base"* %69, null
  br i1 %70, label %74, label %71

71:                                               ; preds = %61
  %72 = getelementptr inbounds %"class.std::__1::__tree_node_base", %"class.std::__1::__tree_node_base"* %62, i64 0, i32 0
  %73 = getelementptr inbounds %"class.std::__1::__tree_node_base", %"class.std::__1::__tree_node_base"* %69, i64 0, i32 2
  store %"class.std::__1::__tree_end_node"* %72, %"class.std::__1::__tree_end_node"** %73, align 8
  br label %74

74:                                               ; preds = %71, %61
  %75 = getelementptr inbounds %"class.std::__1::__tree_node_base", %"class.std::__1::__tree_node_base"* %62, i64 0, i32 2
  %76 = bitcast %"class.std::__1::__tree_end_node"** %75 to i64*
  %77 = load i64, i64* %76, align 8
  %78 = getelementptr inbounds %"class.std::__1::__tree_node_base", %"class.std::__1::__tree_node_base"* %67, i64 0, i32 2
  %79 = bitcast %"class.std::__1::__tree_end_node"** %78 to i64*
  store i64 %77, i64* %79, align 8
  %80 = load %"class.std::__1::__tree_end_node"*, %"class.std::__1::__tree_end_node"** %75, align 8
  %81 = getelementptr inbounds %"class.std::__1::__tree_end_node", %"class.std::__1::__tree_end_node"* %80, i64 0, i32 0
  %82 = load %"class.std::__1::__tree_node_base"*, %"class.std::__1::__tree_node_base"** %81, align 8
  %83 = icmp eq %"class.std::__1::__tree_node_base"* %82, %62
  %84 = getelementptr inbounds %"class.std::__1::__tree_end_node", %"class.std::__1::__tree_end_node"* %80, i64 1, i32 0
  %85 = select i1 %83, %"class.std::__1::__tree_node_base"** %81, %"class.std::__1::__tree_node_base"** %84
  store %"class.std::__1::__tree_node_base"* %67, %"class.std::__1::__tree_node_base"** %85, align 8
  store %"class.std::__1::__tree_node_base"* %62, %"class.std::__1::__tree_node_base"** %68, align 8
  %86 = getelementptr inbounds %"class.std::__1::__tree_node_base", %"class.std::__1::__tree_node_base"* %67, i64 0, i32 0
  store %"class.std::__1::__tree_end_node"* %86, %"class.std::__1::__tree_end_node"** %75, align 8
  br label %156

87:                                               ; preds = %14
  %88 = icmp eq %"class.std::__1::__tree_node_base"* %18, null
  br i1 %88, label %93, label %89

89:                                               ; preds = %87
  %90 = getelementptr inbounds %"class.std::__1::__tree_node_base", %"class.std::__1::__tree_node_base"* %18, i64 0, i32 3
  %91 = load i8, i8* %90, align 8, !range !42
  %92 = icmp eq i8 %91, 0
  br i1 %92, label %149, label %93

93:                                               ; preds = %89, %87
  %94 = getelementptr inbounds %"class.std::__1::__tree_node_base", %"class.std::__1::__tree_node_base"* %10, i64 0, i32 2
  %95 = bitcast %"class.std::__1::__tree_end_node"* %16 to %"class.std::__1::__tree_node_base"*
  %96 = getelementptr inbounds %"class.std::__1::__tree_node_base", %"class.std::__1::__tree_node_base"* %10, i64 0, i32 0, i32 0
  %97 = load %"class.std::__1::__tree_node_base"*, %"class.std::__1::__tree_node_base"** %96, align 8
  %98 = icmp eq %"class.std::__1::__tree_node_base"* %97, %7
  br i1 %98, label %99, label %123

99:                                               ; preds = %93
  %100 = ptrtoint %"class.std::__1::__tree_end_node"* %16 to i64
  %101 = getelementptr inbounds %"class.std::__1::__tree_node_base", %"class.std::__1::__tree_node_base"* %10, i64 0, i32 0, i32 0
  %102 = getelementptr inbounds %"class.std::__1::__tree_node_base", %"class.std::__1::__tree_node_base"* %7, i64 0, i32 1
  %103 = load %"class.std::__1::__tree_node_base"*, %"class.std::__1::__tree_node_base"** %102, align 8
  store %"class.std::__1::__tree_node_base"* %103, %"class.std::__1::__tree_node_base"** %101, align 8
  %104 = icmp eq %"class.std::__1::__tree_node_base"* %103, null
  br i1 %104, label %110, label %105

105:                                              ; preds = %99
  %106 = getelementptr inbounds %"class.std::__1::__tree_node_base", %"class.std::__1::__tree_node_base"* %10, i64 0, i32 0
  %107 = getelementptr inbounds %"class.std::__1::__tree_node_base", %"class.std::__1::__tree_node_base"* %103, i64 0, i32 2
  store %"class.std::__1::__tree_end_node"* %106, %"class.std::__1::__tree_end_node"** %107, align 8
  %108 = bitcast %"class.std::__1::__tree_end_node"** %94 to i64*
  %109 = load i64, i64* %108, align 8
  br label %110

110:                                              ; preds = %99, %105
  %111 = phi i64 [ %109, %105 ], [ %100, %99 ]
  %112 = bitcast %"class.std::__1::__tree_end_node"** %8 to i64*
  store i64 %111, i64* %112, align 8
  %113 = load %"class.std::__1::__tree_end_node"*, %"class.std::__1::__tree_end_node"** %94, align 8
  %114 = getelementptr inbounds %"class.std::__1::__tree_end_node", %"class.std::__1::__tree_end_node"* %113, i64 0, i32 0
  %115 = load %"class.std::__1::__tree_node_base"*, %"class.std::__1::__tree_node_base"** %114, align 8
  %116 = icmp eq %"class.std::__1::__tree_node_base"* %115, %10
  %117 = getelementptr inbounds %"class.std::__1::__tree_end_node", %"class.std::__1::__tree_end_node"* %113, i64 1, i32 0
  %118 = select i1 %116, %"class.std::__1::__tree_node_base"** %114, %"class.std::__1::__tree_node_base"** %117
  store %"class.std::__1::__tree_node_base"* %7, %"class.std::__1::__tree_node_base"** %118, align 8
  store %"class.std::__1::__tree_node_base"* %10, %"class.std::__1::__tree_node_base"** %102, align 8
  %119 = getelementptr inbounds %"class.std::__1::__tree_node_base", %"class.std::__1::__tree_node_base"* %7, i64 0, i32 0
  store %"class.std::__1::__tree_end_node"* %119, %"class.std::__1::__tree_end_node"** %94, align 8
  %120 = getelementptr inbounds %"class.std::__1::__tree_node_base", %"class.std::__1::__tree_node_base"* %7, i64 0, i32 2
  %121 = bitcast %"class.std::__1::__tree_end_node"** %120 to %"class.std::__1::__tree_node_base"**
  %122 = load %"class.std::__1::__tree_node_base"*, %"class.std::__1::__tree_node_base"** %121, align 8
  br label %123

123:                                              ; preds = %93, %110
  %124 = phi %"class.std::__1::__tree_node_base"* [ %122, %110 ], [ %95, %93 ]
  %125 = phi %"class.std::__1::__tree_node_base"* [ %7, %110 ], [ %10, %93 ]
  %126 = getelementptr inbounds %"class.std::__1::__tree_node_base", %"class.std::__1::__tree_node_base"* %125, i64 0, i32 3
  store i8 1, i8* %126, align 8
  %127 = getelementptr inbounds %"class.std::__1::__tree_node_base", %"class.std::__1::__tree_node_base"* %124, i64 0, i32 3
  store i8 0, i8* %127, align 8
  %128 = getelementptr inbounds %"class.std::__1::__tree_node_base", %"class.std::__1::__tree_node_base"* %124, i64 0, i32 1
  %129 = load %"class.std::__1::__tree_node_base"*, %"class.std::__1::__tree_node_base"** %128, align 8
  %130 = getelementptr inbounds %"class.std::__1::__tree_node_base", %"class.std::__1::__tree_node_base"* %129, i64 0, i32 0, i32 0
  %131 = load %"class.std::__1::__tree_node_base"*, %"class.std::__1::__tree_node_base"** %130, align 8
  store %"class.std::__1::__tree_node_base"* %131, %"class.std::__1::__tree_node_base"** %128, align 8
  %132 = icmp eq %"class.std::__1::__tree_node_base"* %131, null
  br i1 %132, label %136, label %133

133:                                              ; preds = %123
  %134 = getelementptr inbounds %"class.std::__1::__tree_node_base", %"class.std::__1::__tree_node_base"* %124, i64 0, i32 0
  %135 = getelementptr inbounds %"class.std::__1::__tree_node_base", %"class.std::__1::__tree_node_base"* %131, i64 0, i32 2
  store %"class.std::__1::__tree_end_node"* %134, %"class.std::__1::__tree_end_node"** %135, align 8
  br label %136

136:                                              ; preds = %133, %123
  %137 = getelementptr inbounds %"class.std::__1::__tree_node_base", %"class.std::__1::__tree_node_base"* %124, i64 0, i32 2
  %138 = bitcast %"class.std::__1::__tree_end_node"** %137 to i64*
  %139 = load i64, i64* %138, align 8
  %140 = getelementptr inbounds %"class.std::__1::__tree_node_base", %"class.std::__1::__tree_node_base"* %129, i64 0, i32 2
  %141 = bitcast %"class.std::__1::__tree_end_node"** %140 to i64*
  store i64 %139, i64* %141, align 8
  %142 = load %"class.std::__1::__tree_end_node"*, %"class.std::__1::__tree_end_node"** %137, align 8
  %143 = getelementptr inbounds %"class.std::__1::__tree_end_node", %"class.std::__1::__tree_end_node"* %142, i64 0, i32 0
  %144 = load %"class.std::__1::__tree_node_base"*, %"class.std::__1::__tree_node_base"** %143, align 8
  %145 = icmp eq %"class.std::__1::__tree_node_base"* %144, %124
  %146 = getelementptr inbounds %"class.std::__1::__tree_end_node", %"class.std::__1::__tree_end_node"* %142, i64 1, i32 0
  %147 = select i1 %145, %"class.std::__1::__tree_node_base"** %143, %"class.std::__1::__tree_node_base"** %146
  store %"class.std::__1::__tree_node_base"* %129, %"class.std::__1::__tree_node_base"** %147, align 8
  store %"class.std::__1::__tree_node_base"* %124, %"class.std::__1::__tree_node_base"** %130, align 8
  %148 = getelementptr inbounds %"class.std::__1::__tree_node_base", %"class.std::__1::__tree_node_base"* %129, i64 0, i32 0
  store %"class.std::__1::__tree_end_node"* %148, %"class.std::__1::__tree_end_node"** %137, align 8
  br label %156

149:                                              ; preds = %89, %25
  %150 = phi i8* [ %26, %25 ], [ %90, %89 ]
  store i8 1, i8* %11, align 8
  %151 = icmp eq %"class.std::__1::__tree_node_base"* %20, %0
  %152 = getelementptr inbounds %"class.std::__1::__tree_end_node", %"class.std::__1::__tree_end_node"* %16, i64 3
  %153 = bitcast %"class.std::__1::__tree_end_node"* %152 to i8*
  %154 = zext i1 %151 to i8
  store i8 %154, i8* %153, align 8
  store i8 1, i8* %150, align 8
  %155 = icmp eq %"class.std::__1::__tree_node_base"* %20, %0
  br i1 %155, label %156, label %6

156:                                              ; preds = %6, %149, %2, %136, %74
  ret void
}

; Function Attrs: inlinehint nounwind ssp uwtable
define linkonce_odr hidden void @_ZNSt3__16vectorINS_12basic_stringIcNS_11char_traitsIcEENS_9allocatorIcEEEENS4_IS6_EEE21__push_back_slow_pathIRKS6_EEvOT_(%"class.std::__1::vector.39"*, %"class.std::__1::basic_string"* dereferenceable(24)) local_unnamed_addr #9 comdat align 2 {
  %3 = getelementptr inbounds %"class.std::__1::vector.39", %"class.std::__1::vector.39"* %0, i64 0, i32 0, i32 1
  %4 = bitcast %"class.std::__1::basic_string"** %3 to i64*
  %5 = load i64, i64* %4, align 8
  %6 = bitcast %"class.std::__1::vector.39"* %0 to i64*
  %7 = load i64, i64* %6, align 8
  %8 = sub i64 %5, %7
  %9 = sdiv exact i64 %8, 24
  %10 = add nsw i64 %9, 1
  %11 = icmp ugt i64 %10, 768614336404564650
  br i1 %11, label %12, label %14

12:                                               ; preds = %2
  %13 = bitcast %"class.std::__1::vector.39"* %0 to %"class.std::__1::__vector_base_common"*
  tail call void @_ZNKSt3__120__vector_base_commonILb1EE20__throw_length_errorEv(%"class.std::__1::__vector_base_common"* %13) #12
  unreachable

14:                                               ; preds = %2
  %15 = getelementptr inbounds %"class.std::__1::vector.39", %"class.std::__1::vector.39"* %0, i64 0, i32 0, i32 2, i32 0, i32 0
  %16 = bitcast %"class.std::__1::basic_string"** %15 to i64*
  %17 = load i64, i64* %16, align 8
  %18 = sub i64 %17, %7
  %19 = sdiv exact i64 %18, 24
  %20 = icmp ult i64 %19, 384307168202282325
  br i1 %20, label %21, label %26

21:                                               ; preds = %14
  %22 = shl nsw i64 %19, 1
  %23 = icmp ult i64 %22, %10
  %24 = select i1 %23, i64 %10, i64 %22
  %25 = icmp eq i64 %24, 0
  br i1 %25, label %31, label %26

26:                                               ; preds = %14, %21
  %27 = phi i64 [ %24, %21 ], [ 768614336404564650, %14 ]
  %28 = mul i64 %27, 24
  %29 = tail call i8* @_Znwm(i64 %28) #11
  %30 = bitcast i8* %29 to %"class.std::__1::basic_string"*
  br label %31

31:                                               ; preds = %21, %26
  %32 = phi i64 [ %27, %26 ], [ 0, %21 ]
  %33 = phi %"class.std::__1::basic_string"* [ %30, %26 ], [ null, %21 ]
  %34 = getelementptr inbounds %"class.std::__1::basic_string", %"class.std::__1::basic_string"* %33, i64 %9
  %35 = getelementptr inbounds %"class.std::__1::basic_string", %"class.std::__1::basic_string"* %33, i64 %32
  %36 = ptrtoint %"class.std::__1::basic_string"* %35 to i64
  %37 = bitcast %"class.std::__1::basic_string"* %1 to %"struct.std::__1::basic_string<char, std::__1::char_traits<char>, std::__1::allocator<char> >::__short"*
  %38 = getelementptr inbounds %"struct.std::__1::basic_string<char, std::__1::char_traits<char>, std::__1::allocator<char> >::__short", %"struct.std::__1::basic_string<char, std::__1::char_traits<char>, std::__1::allocator<char> >::__short"* %37, i64 0, i32 1, i32 0
  %39 = load i8, i8* %38, align 1
  %40 = icmp slt i8 %39, 0
  br i1 %40, label %44, label %41

41:                                               ; preds = %31
  %42 = bitcast %"class.std::__1::basic_string"* %34 to i8*
  %43 = bitcast %"class.std::__1::basic_string"* %1 to i8*
  tail call void @llvm.memcpy.p0i8.p0i8.i64(i8* align 8 %42, i8* align 8 %43, i64 24, i1 false) #10
  br label %49

44:                                               ; preds = %31
  %45 = getelementptr inbounds %"class.std::__1::basic_string", %"class.std::__1::basic_string"* %1, i64 0, i32 0, i32 0, i32 0, i32 0, i32 0, i32 0
  %46 = load i8*, i8** %45, align 8
  %47 = getelementptr inbounds %"class.std::__1::basic_string", %"class.std::__1::basic_string"* %1, i64 0, i32 0, i32 0, i32 0, i32 0, i32 0, i32 1
  %48 = load i64, i64* %47, align 8
  tail call void @_ZNSt3__112basic_stringIcNS_11char_traitsIcEENS_9allocatorIcEEE25__init_copy_ctor_externalEPKcm(%"class.std::__1::basic_string"* %34, i8* %46, i64 %48) #10
  br label %49

49:                                               ; preds = %41, %44
  %50 = getelementptr inbounds %"class.std::__1::basic_string", %"class.std::__1::basic_string"* %34, i64 1
  %51 = ptrtoint %"class.std::__1::basic_string"* %50 to i64
  %52 = getelementptr inbounds %"class.std::__1::vector.39", %"class.std::__1::vector.39"* %0, i64 0, i32 0, i32 0
  %53 = load %"class.std::__1::basic_string"*, %"class.std::__1::basic_string"** %52, align 8
  %54 = load %"class.std::__1::basic_string"*, %"class.std::__1::basic_string"** %3, align 8
  %55 = icmp eq %"class.std::__1::basic_string"* %54, %53
  br i1 %55, label %56, label %58

56:                                               ; preds = %49
  %57 = ptrtoint %"class.std::__1::basic_string"* %53 to i64
  br label %69

58:                                               ; preds = %49, %58
  %59 = phi %"class.std::__1::basic_string"* [ %61, %58 ], [ %34, %49 ]
  %60 = phi %"class.std::__1::basic_string"* [ %62, %58 ], [ %54, %49 ]
  %61 = getelementptr inbounds %"class.std::__1::basic_string", %"class.std::__1::basic_string"* %59, i64 -1
  %62 = getelementptr inbounds %"class.std::__1::basic_string", %"class.std::__1::basic_string"* %60, i64 -1
  %63 = bitcast %"class.std::__1::basic_string"* %61 to i8*
  %64 = bitcast %"class.std::__1::basic_string"* %62 to i8*
  tail call void @llvm.memcpy.p0i8.p0i8.i64(i8* align 8 %63, i8* align 8 %64, i64 24, i1 false) #10
  tail call void @llvm.memset.p0i8.i64(i8* align 8 %64, i8 0, i64 24, i1 false) #10
  %65 = icmp eq %"class.std::__1::basic_string"* %62, %53
  br i1 %65, label %66, label %58

66:                                               ; preds = %58
  %67 = load i64, i64* %6, align 8
  %68 = load %"class.std::__1::basic_string"*, %"class.std::__1::basic_string"** %3, align 8
  br label %69

69:                                               ; preds = %56, %66
  %70 = phi %"class.std::__1::basic_string"* [ %53, %56 ], [ %68, %66 ]
  %71 = phi %"class.std::__1::basic_string"* [ %34, %56 ], [ %61, %66 ]
  %72 = phi i64 [ %57, %56 ], [ %67, %66 ]
  %73 = ptrtoint %"class.std::__1::basic_string"* %71 to i64
  store i64 %73, i64* %6, align 8
  store i64 %51, i64* %4, align 8
  store i64 %36, i64* %16, align 8
  %74 = inttoptr i64 %72 to %"class.std::__1::basic_string"*
  %75 = icmp eq %"class.std::__1::basic_string"* %70, %74
  br i1 %75, label %88, label %76

76:                                               ; preds = %69, %86
  %77 = phi %"class.std::__1::basic_string"* [ %78, %86 ], [ %70, %69 ]
  %78 = getelementptr inbounds %"class.std::__1::basic_string", %"class.std::__1::basic_string"* %77, i64 -1
  %79 = bitcast %"class.std::__1::basic_string"* %78 to %"struct.std::__1::basic_string<char, std::__1::char_traits<char>, std::__1::allocator<char> >::__short"*
  %80 = getelementptr inbounds %"struct.std::__1::basic_string<char, std::__1::char_traits<char>, std::__1::allocator<char> >::__short", %"struct.std::__1::basic_string<char, std::__1::char_traits<char>, std::__1::allocator<char> >::__short"* %79, i64 0, i32 1, i32 0
  %81 = load i8, i8* %80, align 1
  %82 = icmp slt i8 %81, 0
  br i1 %82, label %83, label %86

83:                                               ; preds = %76
  %84 = getelementptr inbounds %"class.std::__1::basic_string", %"class.std::__1::basic_string"* %78, i64 0, i32 0, i32 0, i32 0, i32 0, i32 0, i32 0
  %85 = load i8*, i8** %84, align 8
  tail call void @_ZdlPv(i8* %85) #11
  br label %86

86:                                               ; preds = %83, %76
  %87 = icmp eq %"class.std::__1::basic_string"* %78, %74
  br i1 %87, label %88, label %76

88:                                               ; preds = %86, %69
  %89 = icmp eq i64 %72, 0
  br i1 %89, label %92, label %90

90:                                               ; preds = %88
  %91 = inttoptr i64 %72 to i8*
  tail call void @_ZdlPv(i8* %91) #11
  br label %92

92:                                               ; preds = %88, %90
  ret void
}

; Function Attrs: argmemonly nounwind
declare void @llvm.memset.p0i8.i64(i8* nocapture writeonly, i8, i64, i1 immarg) #2

; Function Attrs: noreturn
declare void @_ZNKSt3__120__vector_base_commonILb1EE20__throw_length_errorEv(%"class.std::__1::__vector_base_common"*) local_unnamed_addr #7

declare dereferenceable(24) %"class.std::__1::basic_string"* @_ZNSt3__112basic_stringIcNS_11char_traitsIcEENS_9allocatorIcEEE6appendEPKc(%"class.std::__1::basic_string"*, i8*) local_unnamed_addr #3

declare i32 @_ZNKSt3__112basic_stringIcNS_11char_traitsIcEENS_9allocatorIcEEE7compareEmmPKcm(%"class.std::__1::basic_string"*, i64, i64, i8*, i64) local_unnamed_addr #3

declare zeroext i1 @_ZNK11chrome_apps28MediaGalleriesPermissionData5CheckEPKN10extensions13APIPermission10CheckParamE(%"class.chrome_apps::MediaGalleriesPermissionData"*, %"struct.extensions::APIPermission::CheckParam"*) local_unnamed_addr #3

declare void @_ZN7logging10CheckError5CheckEPKciS2_(%"class.logging::CheckError"* sret, i8*, i32, i8*) local_unnamed_addr #3

declare dereferenceable(160) %"class.std::__1::basic_ostream"* @_ZN7logging10CheckError6streamEv(%"class.logging::CheckError"*) local_unnamed_addr #3

; Function Attrs: nounwind
declare void @_ZN7logging10CheckErrorD1Ev(%"class.logging::CheckError"*) unnamed_addr #5

; Function Attrs: nounwind ssp uwtable
define linkonce_odr hidden zeroext i1 @_ZN4base6ranges8includesIRKNSt3__13setIN11chrome_apps28MediaGalleriesPermissionDataENS2_4lessIS5_EENS2_9allocatorIS5_EEEESC_NS6_IvEENS_8identityESE_NS2_26bidirectional_iterator_tagESF_bbEEDaOT_OT0_T1_T2_T3_(%"class.std::__1::set"* dereferenceable(24), %"class.std::__1::set"* dereferenceable(24)) local_unnamed_addr #0 comdat {
  %3 = getelementptr inbounds %"class.std::__1::set", %"class.std::__1::set"* %0, i64 0, i32 0, i32 1, i32 0, i32 0
  %4 = getelementptr inbounds %"class.std::__1::set", %"class.std::__1::set"* %1, i64 0, i32 0, i32 0
  %5 = load %"class.std::__1::__tree_end_node"*, %"class.std::__1::__tree_end_node"** %4, align 8
  %6 = getelementptr inbounds %"class.std::__1::set", %"class.std::__1::set"* %1, i64 0, i32 0, i32 1, i32 0, i32 0
  %7 = icmp eq %"class.std::__1::__tree_end_node"* %5, %6
  br i1 %7, label %83, label %8

8:                                                ; preds = %2
  %9 = getelementptr inbounds %"class.std::__1::set", %"class.std::__1::set"* %0, i64 0, i32 0, i32 0
  %10 = load %"class.std::__1::__tree_end_node"*, %"class.std::__1::__tree_end_node"** %9, align 8
  br label %11

11:                                               ; preds = %8, %80
  %12 = phi %"class.std::__1::__tree_end_node"* [ %81, %80 ], [ %10, %8 ]
  %13 = phi %"class.std::__1::__tree_end_node"* [ %52, %80 ], [ %5, %8 ]
  %14 = icmp eq %"class.std::__1::__tree_end_node"* %12, %3
  br i1 %14, label %83, label %15

15:                                               ; preds = %11
  %16 = getelementptr inbounds %"class.std::__1::__tree_end_node", %"class.std::__1::__tree_end_node"* %13, i64 4
  %17 = bitcast %"class.std::__1::__tree_end_node"* %16 to %"class.chrome_apps::MediaGalleriesPermissionData"*
  %18 = getelementptr inbounds %"class.std::__1::__tree_end_node", %"class.std::__1::__tree_end_node"* %12, i64 4
  %19 = bitcast %"class.std::__1::__tree_end_node"* %18 to %"class.chrome_apps::MediaGalleriesPermissionData"*
  %20 = tail call zeroext i1 @_ZNK11chrome_apps28MediaGalleriesPermissionDataltERKS0_(%"class.chrome_apps::MediaGalleriesPermissionData"* %17, %"class.chrome_apps::MediaGalleriesPermissionData"* dereferenceable(24) %19) #10
  br i1 %20, label %83, label %21

21:                                               ; preds = %15
  %22 = tail call zeroext i1 @_ZNK11chrome_apps28MediaGalleriesPermissionDataltERKS0_(%"class.chrome_apps::MediaGalleriesPermissionData"* %19, %"class.chrome_apps::MediaGalleriesPermissionData"* dereferenceable(24) %17) #10
  br i1 %22, label %51, label %23

23:                                               ; preds = %21
  %24 = getelementptr inbounds %"class.std::__1::__tree_end_node", %"class.std::__1::__tree_end_node"* %13, i64 1, i32 0
  %25 = load %"class.std::__1::__tree_node_base"*, %"class.std::__1::__tree_node_base"** %24, align 8
  %26 = icmp eq %"class.std::__1::__tree_node_base"* %25, null
  br i1 %26, label %27, label %35

27:                                               ; preds = %23
  %28 = bitcast %"class.std::__1::__tree_end_node"* %13 to %"class.std::__1::__tree_node_base"*
  %29 = getelementptr inbounds %"class.std::__1::__tree_end_node", %"class.std::__1::__tree_end_node"* %13, i64 2
  %30 = bitcast %"class.std::__1::__tree_end_node"* %29 to %"class.std::__1::__tree_end_node"**
  %31 = load %"class.std::__1::__tree_end_node"*, %"class.std::__1::__tree_end_node"** %30, align 8
  %32 = getelementptr inbounds %"class.std::__1::__tree_end_node", %"class.std::__1::__tree_end_node"* %31, i64 0, i32 0
  %33 = load %"class.std::__1::__tree_node_base"*, %"class.std::__1::__tree_node_base"** %32, align 8
  %34 = icmp eq %"class.std::__1::__tree_node_base"* %33, %28
  br i1 %34, label %51, label %42

35:                                               ; preds = %23, %35
  %36 = phi %"class.std::__1::__tree_node_base"* [ %38, %35 ], [ %25, %23 ]
  %37 = getelementptr inbounds %"class.std::__1::__tree_node_base", %"class.std::__1::__tree_node_base"* %36, i64 0, i32 0, i32 0
  %38 = load %"class.std::__1::__tree_node_base"*, %"class.std::__1::__tree_node_base"** %37, align 8
  %39 = icmp eq %"class.std::__1::__tree_node_base"* %38, null
  br i1 %39, label %40, label %35

40:                                               ; preds = %35
  %41 = getelementptr inbounds %"class.std::__1::__tree_node_base", %"class.std::__1::__tree_node_base"* %36, i64 0, i32 0
  br label %51

42:                                               ; preds = %27, %42
  %43 = phi %"class.std::__1::__tree_end_node"** [ %46, %42 ], [ %30, %27 ]
  %44 = bitcast %"class.std::__1::__tree_end_node"** %43 to %"class.std::__1::__tree_node_base"**
  %45 = load %"class.std::__1::__tree_node_base"*, %"class.std::__1::__tree_node_base"** %44, align 8
  %46 = getelementptr inbounds %"class.std::__1::__tree_node_base", %"class.std::__1::__tree_node_base"* %45, i64 0, i32 2
  %47 = load %"class.std::__1::__tree_end_node"*, %"class.std::__1::__tree_end_node"** %46, align 8
  %48 = getelementptr inbounds %"class.std::__1::__tree_end_node", %"class.std::__1::__tree_end_node"* %47, i64 0, i32 0
  %49 = load %"class.std::__1::__tree_node_base"*, %"class.std::__1::__tree_node_base"** %48, align 8
  %50 = icmp eq %"class.std::__1::__tree_node_base"* %49, %45
  br i1 %50, label %51, label %42

51:                                               ; preds = %42, %40, %27, %21
  %52 = phi %"class.std::__1::__tree_end_node"* [ %13, %21 ], [ %41, %40 ], [ %31, %27 ], [ %47, %42 ]
  %53 = getelementptr inbounds %"class.std::__1::__tree_end_node", %"class.std::__1::__tree_end_node"* %12, i64 1, i32 0
  %54 = load %"class.std::__1::__tree_node_base"*, %"class.std::__1::__tree_node_base"** %53, align 8
  %55 = icmp eq %"class.std::__1::__tree_node_base"* %54, null
  br i1 %55, label %56, label %64

56:                                               ; preds = %51
  %57 = bitcast %"class.std::__1::__tree_end_node"* %12 to %"class.std::__1::__tree_node_base"*
  %58 = getelementptr inbounds %"class.std::__1::__tree_end_node", %"class.std::__1::__tree_end_node"* %12, i64 2
  %59 = bitcast %"class.std::__1::__tree_end_node"* %58 to %"class.std::__1::__tree_end_node"**
  %60 = load %"class.std::__1::__tree_end_node"*, %"class.std::__1::__tree_end_node"** %59, align 8
  %61 = getelementptr inbounds %"class.std::__1::__tree_end_node", %"class.std::__1::__tree_end_node"* %60, i64 0, i32 0
  %62 = load %"class.std::__1::__tree_node_base"*, %"class.std::__1::__tree_node_base"** %61, align 8
  %63 = icmp eq %"class.std::__1::__tree_node_base"* %62, %57
  br i1 %63, label %80, label %71

64:                                               ; preds = %51, %64
  %65 = phi %"class.std::__1::__tree_node_base"* [ %67, %64 ], [ %54, %51 ]
  %66 = getelementptr inbounds %"class.std::__1::__tree_node_base", %"class.std::__1::__tree_node_base"* %65, i64 0, i32 0, i32 0
  %67 = load %"class.std::__1::__tree_node_base"*, %"class.std::__1::__tree_node_base"** %66, align 8
  %68 = icmp eq %"class.std::__1::__tree_node_base"* %67, null
  br i1 %68, label %69, label %64

69:                                               ; preds = %64
  %70 = getelementptr inbounds %"class.std::__1::__tree_node_base", %"class.std::__1::__tree_node_base"* %65, i64 0, i32 0
  br label %80

71:                                               ; preds = %56, %71
  %72 = phi %"class.std::__1::__tree_end_node"** [ %75, %71 ], [ %59, %56 ]
  %73 = bitcast %"class.std::__1::__tree_end_node"** %72 to %"class.std::__1::__tree_node_base"**
  %74 = load %"class.std::__1::__tree_node_base"*, %"class.std::__1::__tree_node_base"** %73, align 8
  %75 = getelementptr inbounds %"class.std::__1::__tree_node_base", %"class.std::__1::__tree_node_base"* %74, i64 0, i32 2
  %76 = load %"class.std::__1::__tree_end_node"*, %"class.std::__1::__tree_end_node"** %75, align 8
  %77 = getelementptr inbounds %"class.std::__1::__tree_end_node", %"class.std::__1::__tree_end_node"* %76, i64 0, i32 0
  %78 = load %"class.std::__1::__tree_node_base"*, %"class.std::__1::__tree_node_base"** %77, align 8
  %79 = icmp eq %"class.std::__1::__tree_node_base"* %78, %74
  br i1 %79, label %80, label %71

80:                                               ; preds = %71, %69, %56
  %81 = phi %"class.std::__1::__tree_end_node"* [ %70, %69 ], [ %60, %56 ], [ %76, %71 ]
  %82 = icmp eq %"class.std::__1::__tree_end_node"* %52, %6
  br i1 %82, label %83, label %11

83:                                               ; preds = %11, %15, %80, %2
  %84 = phi i1 [ true, %2 ], [ false, %15 ], [ false, %11 ], [ true, %80 ]
  ret i1 %84
}

declare zeroext i1 @_ZNK11chrome_apps28MediaGalleriesPermissionDataeqERKS0_(%"class.chrome_apps::MediaGalleriesPermissionData"*, %"class.chrome_apps::MediaGalleriesPermissionData"* dereferenceable(24)) local_unnamed_addr #3

declare void @_ZN4base9ListValueC1Ev(%"class.base::ListValue"*) unnamed_addr #3

declare %"class.base::Value"* @_ZNK11chrome_apps28MediaGalleriesPermissionData7ToValueEv(%"class.chrome_apps::MediaGalleriesPermissionData"*) local_unnamed_addr #3

declare void @_ZN4base9ListValue6AppendENSt3__110unique_ptrINS_5ValueENS1_14default_deleteIS3_EEEE(%"class.base::ListValue"*, %"class.base::Value"*) local_unnamed_addr #3

; Function Attrs: nounwind ssp uwtable
define linkonce_odr hidden void @_ZNSt3__16__treeIN11chrome_apps28MediaGalleriesPermissionDataENS_4lessIS2_EENS_9allocatorIS2_EEE14__assign_multiINS_21__tree_const_iteratorIS2_PNS_11__tree_nodeIS2_PvEElEEEEvT_SF_(%"class.std::__1::__tree"*, %"class.std::__1::__tree_end_node"*, %"class.std::__1::__tree_end_node"*) local_unnamed_addr #0 comdat align 2 {
  %4 = getelementptr inbounds %"class.std::__1::__tree", %"class.std::__1::__tree"* %0, i64 0, i32 2, i32 0, i32 0
  %5 = load i64, i64* %4, align 8
  %6 = icmp eq i64 %5, 0
  br i1 %6, label %275, label %7

7:                                                ; preds = %3
  %8 = getelementptr inbounds %"class.std::__1::__tree", %"class.std::__1::__tree"* %0, i64 0, i32 0
  %9 = bitcast %"class.std::__1::__tree"* %0 to %"class.std::__1::__tree_node"**
  %10 = load %"class.std::__1::__tree_node"*, %"class.std::__1::__tree_node"** %9, align 8
  %11 = getelementptr inbounds %"class.std::__1::__tree", %"class.std::__1::__tree"* %0, i64 0, i32 1, i32 0, i32 0
  store %"class.std::__1::__tree_end_node"* %11, %"class.std::__1::__tree_end_node"** %8, align 8
  %12 = getelementptr inbounds %"class.std::__1::__tree_end_node", %"class.std::__1::__tree_end_node"* %11, i64 0, i32 0
  %13 = load %"class.std::__1::__tree_node_base"*, %"class.std::__1::__tree_node_base"** %12, align 8
  %14 = getelementptr inbounds %"class.std::__1::__tree_node_base", %"class.std::__1::__tree_node_base"* %13, i64 0, i32 2
  store %"class.std::__1::__tree_end_node"* null, %"class.std::__1::__tree_end_node"** %14, align 8
  %15 = getelementptr inbounds %"class.std::__1::__tree_node", %"class.std::__1::__tree_node"* %10, i64 0, i32 0, i32 1
  %16 = bitcast %"class.std::__1::__tree_end_node"* %11 to i8*
  tail call void @llvm.memset.p0i8.i64(i8* align 8 %16, i8 0, i64 16, i1 false) #10
  %17 = load %"class.std::__1::__tree_node_base"*, %"class.std::__1::__tree_node_base"** %15, align 8
  %18 = icmp eq %"class.std::__1::__tree_node_base"* %17, null
  %19 = bitcast %"class.std::__1::__tree_node_base"* %17 to %"class.std::__1::__tree_node"*
  %20 = select i1 %18, %"class.std::__1::__tree_node"* %10, %"class.std::__1::__tree_node"* %19
  %21 = icmp eq %"class.std::__1::__tree_node"* %20, null
  br i1 %21, label %22, label %23

22:                                               ; preds = %7
  tail call void @_ZNSt3__16__treeIN11chrome_apps28MediaGalleriesPermissionDataENS_4lessIS2_EENS_9allocatorIS2_EEE7destroyEPNS_11__tree_nodeIS2_PvEE(%"class.std::__1::__tree"* %0, %"class.std::__1::__tree_node"* %20) #10
  br label %275

23:                                               ; preds = %7
  %24 = getelementptr inbounds %"class.std::__1::__tree_node", %"class.std::__1::__tree_node"* %20, i64 0, i32 0, i32 2
  %25 = load %"class.std::__1::__tree_end_node"*, %"class.std::__1::__tree_end_node"** %24, align 8
  %26 = icmp eq %"class.std::__1::__tree_end_node"* %25, null
  br i1 %26, label %72, label %27

27:                                               ; preds = %23
  %28 = bitcast %"class.std::__1::__tree_node"* %20 to %"class.std::__1::__tree_node_base"*
  %29 = getelementptr inbounds %"class.std::__1::__tree_end_node", %"class.std::__1::__tree_end_node"* %25, i64 0, i32 0
  %30 = load %"class.std::__1::__tree_node_base"*, %"class.std::__1::__tree_node_base"** %29, align 8
  %31 = icmp eq %"class.std::__1::__tree_node_base"* %30, %28
  br i1 %31, label %32, label %51

32:                                               ; preds = %27
  store %"class.std::__1::__tree_node_base"* null, %"class.std::__1::__tree_node_base"** %29, align 8
  %33 = bitcast %"class.std::__1::__tree_end_node"** %24 to %"class.std::__1::__tree_node"**
  %34 = load %"class.std::__1::__tree_node"*, %"class.std::__1::__tree_node"** %33, align 8
  %35 = getelementptr inbounds %"class.std::__1::__tree_node", %"class.std::__1::__tree_node"* %34, i64 0, i32 0, i32 1
  %36 = load %"class.std::__1::__tree_node_base"*, %"class.std::__1::__tree_node_base"** %35, align 8
  %37 = icmp eq %"class.std::__1::__tree_node_base"* %36, null
  br i1 %37, label %72, label %38

38:                                               ; preds = %32, %47
  %39 = phi %"class.std::__1::__tree_node_base"* [ %48, %47 ], [ %36, %32 ]
  %40 = getelementptr inbounds %"class.std::__1::__tree_node_base", %"class.std::__1::__tree_node_base"* %39, i64 0, i32 0, i32 0
  %41 = load %"class.std::__1::__tree_node_base"*, %"class.std::__1::__tree_node_base"** %40, align 8
  %42 = icmp eq %"class.std::__1::__tree_node_base"* %41, null
  br i1 %42, label %43, label %47

43:                                               ; preds = %38
  %44 = getelementptr inbounds %"class.std::__1::__tree_node_base", %"class.std::__1::__tree_node_base"* %39, i64 0, i32 1
  %45 = load %"class.std::__1::__tree_node_base"*, %"class.std::__1::__tree_node_base"** %44, align 8
  %46 = icmp eq %"class.std::__1::__tree_node_base"* %45, null
  br i1 %46, label %49, label %47

47:                                               ; preds = %43, %38
  %48 = phi %"class.std::__1::__tree_node_base"* [ %41, %38 ], [ %45, %43 ]
  br label %38

49:                                               ; preds = %43
  %50 = bitcast %"class.std::__1::__tree_node_base"* %39 to %"class.std::__1::__tree_node"*
  br label %72

51:                                               ; preds = %27
  %52 = getelementptr inbounds %"class.std::__1::__tree_end_node", %"class.std::__1::__tree_end_node"* %25, i64 1, i32 0
  store %"class.std::__1::__tree_node_base"* null, %"class.std::__1::__tree_node_base"** %52, align 8
  %53 = load %"class.std::__1::__tree_end_node"*, %"class.std::__1::__tree_end_node"** %24, align 8
  %54 = getelementptr inbounds %"class.std::__1::__tree_end_node", %"class.std::__1::__tree_end_node"* %53, i64 0, i32 0
  %55 = load %"class.std::__1::__tree_node_base"*, %"class.std::__1::__tree_node_base"** %54, align 8
  %56 = icmp eq %"class.std::__1::__tree_node_base"* %55, null
  br i1 %56, label %57, label %59

57:                                               ; preds = %51
  %58 = bitcast %"class.std::__1::__tree_end_node"* %53 to %"class.std::__1::__tree_node"*
  br label %72

59:                                               ; preds = %51, %68
  %60 = phi %"class.std::__1::__tree_node_base"* [ %69, %68 ], [ %55, %51 ]
  %61 = getelementptr inbounds %"class.std::__1::__tree_node_base", %"class.std::__1::__tree_node_base"* %60, i64 0, i32 0, i32 0
  %62 = load %"class.std::__1::__tree_node_base"*, %"class.std::__1::__tree_node_base"** %61, align 8
  %63 = icmp eq %"class.std::__1::__tree_node_base"* %62, null
  br i1 %63, label %64, label %68

64:                                               ; preds = %59
  %65 = getelementptr inbounds %"class.std::__1::__tree_node_base", %"class.std::__1::__tree_node_base"* %60, i64 0, i32 1
  %66 = load %"class.std::__1::__tree_node_base"*, %"class.std::__1::__tree_node_base"** %65, align 8
  %67 = icmp eq %"class.std::__1::__tree_node_base"* %66, null
  br i1 %67, label %70, label %68

68:                                               ; preds = %64, %59
  %69 = phi %"class.std::__1::__tree_node_base"* [ %62, %59 ], [ %66, %64 ]
  br label %59

70:                                               ; preds = %64
  %71 = bitcast %"class.std::__1::__tree_node_base"* %60 to %"class.std::__1::__tree_node"*
  br label %72

72:                                               ; preds = %23, %32, %49, %57, %70
  %73 = phi %"class.std::__1::__tree_node"* [ %50, %49 ], [ %58, %57 ], [ %71, %70 ], [ null, %23 ], [ %34, %32 ]
  %74 = ptrtoint %"class.std::__1::__tree_node"* %73 to i64
  %75 = icmp eq %"class.std::__1::__tree_end_node"* %1, %2
  br i1 %75, label %255, label %76

76:                                               ; preds = %72
  %77 = bitcast %"class.std::__1::__tree_end_node"* %11 to %"class.std::__1::__tree_node"**
  %78 = bitcast %"class.std::__1::__tree"* %0 to i64*
  %79 = getelementptr inbounds %"class.std::__1::__tree", %"class.std::__1::__tree"* %0, i64 0, i32 1, i32 0, i32 0, i32 0
  br label %80

80:                                               ; preds = %76, %247
  %81 = phi %"class.std::__1::__tree_node"* [ %73, %76 ], [ %249, %247 ]
  %82 = phi i64 [ %74, %76 ], [ %219, %247 ]
  %83 = phi %"class.std::__1::__tree_node"* [ %20, %76 ], [ %81, %247 ]
  %84 = phi %"class.std::__1::__tree_end_node"* [ %1, %76 ], [ %248, %247 ]
  %85 = getelementptr inbounds %"class.std::__1::__tree_end_node", %"class.std::__1::__tree_end_node"* %84, i64 4
  %86 = bitcast %"class.std::__1::__tree_end_node"* %85 to %"class.chrome_apps::MediaGalleriesPermissionData"*
  %87 = getelementptr inbounds %"class.std::__1::__tree_node", %"class.std::__1::__tree_node"* %83, i64 0, i32 1
  %88 = getelementptr inbounds %"class.chrome_apps::MediaGalleriesPermissionData", %"class.chrome_apps::MediaGalleriesPermissionData"* %87, i64 0, i32 0
  %89 = icmp eq %"class.chrome_apps::MediaGalleriesPermissionData"* %87, %86
  br i1 %89, label %121, label %90

90:                                               ; preds = %80
  %91 = bitcast %"class.chrome_apps::MediaGalleriesPermissionData"* %87 to %"struct.std::__1::basic_string<char, std::__1::char_traits<char>, std::__1::allocator<char> >::__short"*
  %92 = getelementptr inbounds %"struct.std::__1::basic_string<char, std::__1::char_traits<char>, std::__1::allocator<char> >::__short", %"struct.std::__1::basic_string<char, std::__1::char_traits<char>, std::__1::allocator<char> >::__short"* %91, i64 0, i32 1, i32 0
  %93 = load i8, i8* %92, align 1
  %94 = icmp slt i8 %93, 0
  %95 = bitcast %"class.std::__1::__tree_end_node"* %85 to %"struct.std::__1::basic_string<char, std::__1::char_traits<char>, std::__1::allocator<char> >::__short"*
  %96 = getelementptr inbounds %"struct.std::__1::basic_string<char, std::__1::char_traits<char>, std::__1::allocator<char> >::__short", %"struct.std::__1::basic_string<char, std::__1::char_traits<char>, std::__1::allocator<char> >::__short"* %95, i64 0, i32 1, i32 0
  %97 = load i8, i8* %96, align 1
  %98 = icmp slt i8 %97, 0
  br i1 %94, label %110, label %99

99:                                               ; preds = %90
  br i1 %98, label %103, label %100

100:                                              ; preds = %99
  %101 = bitcast %"class.chrome_apps::MediaGalleriesPermissionData"* %87 to i8*
  %102 = bitcast %"class.std::__1::__tree_end_node"* %85 to i8*
  tail call void @llvm.memcpy.p0i8.p0i8.i64(i8* align 8 %101, i8* align 8 %102, i64 24, i1 false) #10
  br label %121

103:                                              ; preds = %99
  %104 = bitcast %"class.std::__1::__tree_end_node"* %85 to i8**
  %105 = load i8*, i8** %104, align 8
  %106 = getelementptr inbounds %"class.std::__1::__tree_end_node", %"class.std::__1::__tree_end_node"* %84, i64 5
  %107 = bitcast %"class.std::__1::__tree_end_node"* %106 to i64*
  %108 = load i64, i64* %107, align 8
  %109 = tail call dereferenceable(24) %"class.std::__1::basic_string"* @_ZNSt3__112basic_stringIcNS_11char_traitsIcEENS_9allocatorIcEEE17__assign_no_aliasILb1EEERS5_PKcm(%"class.std::__1::basic_string"* %88, i8* %105, i64 %108) #10
  br label %121

110:                                              ; preds = %90
  %111 = bitcast %"class.std::__1::__tree_end_node"* %85 to i8**
  %112 = load i8*, i8** %111, align 8
  %113 = getelementptr inbounds %"class.std::__1::__tree_end_node", %"class.std::__1::__tree_end_node"* %84, i64 5
  %114 = bitcast %"class.std::__1::__tree_end_node"* %113 to i64*
  %115 = load i64, i64* %114, align 8
  %116 = bitcast %"class.std::__1::__tree_end_node"* %85 to i8*
  %117 = zext i8 %97 to i64
  %118 = select i1 %98, i8* %112, i8* %116
  %119 = select i1 %98, i64 %115, i64 %117
  %120 = tail call dereferenceable(24) %"class.std::__1::basic_string"* @_ZNSt3__112basic_stringIcNS_11char_traitsIcEENS_9allocatorIcEEE17__assign_no_aliasILb0EEERS5_PKcm(%"class.std::__1::basic_string"* %88, i8* %118, i64 %119) #10
  br label %121

121:                                              ; preds = %80, %100, %103, %110
  %122 = load %"class.std::__1::__tree_node"*, %"class.std::__1::__tree_node"** %77, align 8
  %123 = icmp eq %"class.std::__1::__tree_node"* %122, null
  br i1 %123, label %145, label %124

124:                                              ; preds = %121, %142
  %125 = phi %"class.std::__1::__tree_node"* [ %144, %142 ], [ %122, %121 ]
  %126 = getelementptr inbounds %"class.std::__1::__tree_node", %"class.std::__1::__tree_node"* %125, i64 0, i32 1
  %127 = tail call zeroext i1 @_ZNK11chrome_apps28MediaGalleriesPermissionDataltERKS0_(%"class.chrome_apps::MediaGalleriesPermissionData"* %87, %"class.chrome_apps::MediaGalleriesPermissionData"* dereferenceable(24) %126) #10
  br i1 %127, label %128, label %135

128:                                              ; preds = %124
  %129 = getelementptr inbounds %"class.std::__1::__tree_node", %"class.std::__1::__tree_node"* %125, i64 0, i32 0, i32 0, i32 0
  %130 = load %"class.std::__1::__tree_node_base"*, %"class.std::__1::__tree_node_base"** %129, align 8
  %131 = icmp eq %"class.std::__1::__tree_node_base"* %130, null
  br i1 %131, label %132, label %142

132:                                              ; preds = %128
  %133 = getelementptr inbounds %"class.std::__1::__tree_node", %"class.std::__1::__tree_node"* %125, i64 0, i32 0, i32 0, i32 0
  %134 = getelementptr inbounds %"class.std::__1::__tree_node", %"class.std::__1::__tree_node"* %125, i64 0, i32 0, i32 0
  br label %145

135:                                              ; preds = %124
  %136 = getelementptr inbounds %"class.std::__1::__tree_node", %"class.std::__1::__tree_node"* %125, i64 0, i32 0, i32 1
  %137 = load %"class.std::__1::__tree_node_base"*, %"class.std::__1::__tree_node_base"** %136, align 8
  %138 = icmp eq %"class.std::__1::__tree_node_base"* %137, null
  br i1 %138, label %139, label %142

139:                                              ; preds = %135
  %140 = getelementptr inbounds %"class.std::__1::__tree_node", %"class.std::__1::__tree_node"* %125, i64 0, i32 0, i32 1
  %141 = getelementptr inbounds %"class.std::__1::__tree_node", %"class.std::__1::__tree_node"* %125, i64 0, i32 0, i32 0
  br label %145

142:                                              ; preds = %135, %128
  %143 = phi %"class.std::__1::__tree_node_base"* [ %130, %128 ], [ %137, %135 ]
  %144 = bitcast %"class.std::__1::__tree_node_base"* %143 to %"class.std::__1::__tree_node"*
  br label %124

145:                                              ; preds = %121, %139, %132
  %146 = phi %"class.std::__1::__tree_end_node"* [ %134, %132 ], [ %141, %139 ], [ %11, %121 ]
  %147 = phi %"class.std::__1::__tree_node_base"** [ %133, %132 ], [ %140, %139 ], [ %12, %121 ]
  %148 = bitcast %"class.std::__1::__tree_node"* %83 to %"class.std::__1::__tree_node_base"*
  %149 = getelementptr inbounds %"class.std::__1::__tree_node", %"class.std::__1::__tree_node"* %83, i64 0, i32 0, i32 2
  %150 = bitcast %"class.std::__1::__tree_node"* %83 to i8*
  tail call void @llvm.memset.p0i8.i64(i8* nonnull align 8 %150, i8 0, i64 16, i1 false) #10
  store %"class.std::__1::__tree_end_node"* %146, %"class.std::__1::__tree_end_node"** %149, align 8
  %151 = bitcast %"class.std::__1::__tree_node_base"** %147 to %"class.std::__1::__tree_node"**
  store %"class.std::__1::__tree_node"* %83, %"class.std::__1::__tree_node"** %151, align 8
  %152 = load %"class.std::__1::__tree_end_node"*, %"class.std::__1::__tree_end_node"** %8, align 8
  %153 = getelementptr inbounds %"class.std::__1::__tree_end_node", %"class.std::__1::__tree_end_node"* %152, i64 0, i32 0
  %154 = load %"class.std::__1::__tree_node_base"*, %"class.std::__1::__tree_node_base"** %153, align 8
  %155 = icmp eq %"class.std::__1::__tree_node_base"* %154, null
  br i1 %155, label %159, label %156

156:                                              ; preds = %145
  %157 = ptrtoint %"class.std::__1::__tree_node_base"* %154 to i64
  store i64 %157, i64* %78, align 8
  %158 = load %"class.std::__1::__tree_node_base"*, %"class.std::__1::__tree_node_base"** %147, align 8
  br label %159

159:                                              ; preds = %145, %156
  %160 = phi %"class.std::__1::__tree_node_base"* [ %148, %145 ], [ %158, %156 ]
  %161 = load %"class.std::__1::__tree_node_base"*, %"class.std::__1::__tree_node_base"** %79, align 8
  tail call void @_ZNSt3__127__tree_balance_after_insertIPNS_16__tree_node_baseIPvEEEEvT_S5_(%"class.std::__1::__tree_node_base"* %161, %"class.std::__1::__tree_node_base"* %160) #10
  %162 = load i64, i64* %4, align 8
  %163 = add i64 %162, 1
  store i64 %163, i64* %4, align 8
  %164 = icmp eq i64 %82, 0
  br i1 %164, label %218, label %165

165:                                              ; preds = %159
  %166 = inttoptr i64 %82 to %"class.std::__1::__tree_node"*
  %167 = getelementptr inbounds %"class.std::__1::__tree_node", %"class.std::__1::__tree_node"* %166, i64 0, i32 0, i32 2
  %168 = load %"class.std::__1::__tree_end_node"*, %"class.std::__1::__tree_end_node"** %167, align 8
  %169 = icmp eq %"class.std::__1::__tree_end_node"* %168, null
  br i1 %169, label %215, label %170

170:                                              ; preds = %165
  %171 = inttoptr i64 %82 to %"class.std::__1::__tree_node_base"*
  %172 = getelementptr inbounds %"class.std::__1::__tree_end_node", %"class.std::__1::__tree_end_node"* %168, i64 0, i32 0
  %173 = load %"class.std::__1::__tree_node_base"*, %"class.std::__1::__tree_node_base"** %172, align 8
  %174 = icmp eq %"class.std::__1::__tree_node_base"* %173, %171
  br i1 %174, label %175, label %194

175:                                              ; preds = %170
  store %"class.std::__1::__tree_node_base"* null, %"class.std::__1::__tree_node_base"** %172, align 8
  %176 = bitcast %"class.std::__1::__tree_end_node"** %167 to %"class.std::__1::__tree_node"**
  %177 = load %"class.std::__1::__tree_node"*, %"class.std::__1::__tree_node"** %176, align 8
  %178 = getelementptr inbounds %"class.std::__1::__tree_node", %"class.std::__1::__tree_node"* %177, i64 0, i32 0, i32 1
  %179 = load %"class.std::__1::__tree_node_base"*, %"class.std::__1::__tree_node_base"** %178, align 8
  %180 = icmp eq %"class.std::__1::__tree_node_base"* %179, null
  br i1 %180, label %215, label %181

181:                                              ; preds = %175, %190
  %182 = phi %"class.std::__1::__tree_node_base"* [ %191, %190 ], [ %179, %175 ]
  %183 = getelementptr inbounds %"class.std::__1::__tree_node_base", %"class.std::__1::__tree_node_base"* %182, i64 0, i32 0, i32 0
  %184 = load %"class.std::__1::__tree_node_base"*, %"class.std::__1::__tree_node_base"** %183, align 8
  %185 = icmp eq %"class.std::__1::__tree_node_base"* %184, null
  br i1 %185, label %186, label %190

186:                                              ; preds = %181
  %187 = getelementptr inbounds %"class.std::__1::__tree_node_base", %"class.std::__1::__tree_node_base"* %182, i64 0, i32 1
  %188 = load %"class.std::__1::__tree_node_base"*, %"class.std::__1::__tree_node_base"** %187, align 8
  %189 = icmp eq %"class.std::__1::__tree_node_base"* %188, null
  br i1 %189, label %192, label %190

190:                                              ; preds = %186, %181
  %191 = phi %"class.std::__1::__tree_node_base"* [ %184, %181 ], [ %188, %186 ]
  br label %181

192:                                              ; preds = %186
  %193 = bitcast %"class.std::__1::__tree_node_base"* %182 to %"class.std::__1::__tree_node"*
  br label %215

194:                                              ; preds = %170
  %195 = getelementptr inbounds %"class.std::__1::__tree_end_node", %"class.std::__1::__tree_end_node"* %168, i64 1, i32 0
  store %"class.std::__1::__tree_node_base"* null, %"class.std::__1::__tree_node_base"** %195, align 8
  %196 = load %"class.std::__1::__tree_end_node"*, %"class.std::__1::__tree_end_node"** %167, align 8
  %197 = getelementptr inbounds %"class.std::__1::__tree_end_node", %"class.std::__1::__tree_end_node"* %196, i64 0, i32 0
  %198 = load %"class.std::__1::__tree_node_base"*, %"class.std::__1::__tree_node_base"** %197, align 8
  %199 = icmp eq %"class.std::__1::__tree_node_base"* %198, null
  br i1 %199, label %200, label %202

200:                                              ; preds = %194
  %201 = bitcast %"class.std::__1::__tree_end_node"* %196 to %"class.std::__1::__tree_node"*
  br label %215

202:                                              ; preds = %194, %211
  %203 = phi %"class.std::__1::__tree_node_base"* [ %212, %211 ], [ %198, %194 ]
  %204 = getelementptr inbounds %"class.std::__1::__tree_node_base", %"class.std::__1::__tree_node_base"* %203, i64 0, i32 0, i32 0
  %205 = load %"class.std::__1::__tree_node_base"*, %"class.std::__1::__tree_node_base"** %204, align 8
  %206 = icmp eq %"class.std::__1::__tree_node_base"* %205, null
  br i1 %206, label %207, label %211

207:                                              ; preds = %202
  %208 = getelementptr inbounds %"class.std::__1::__tree_node_base", %"class.std::__1::__tree_node_base"* %203, i64 0, i32 1
  %209 = load %"class.std::__1::__tree_node_base"*, %"class.std::__1::__tree_node_base"** %208, align 8
  %210 = icmp eq %"class.std::__1::__tree_node_base"* %209, null
  br i1 %210, label %213, label %211

211:                                              ; preds = %207, %202
  %212 = phi %"class.std::__1::__tree_node_base"* [ %205, %202 ], [ %209, %207 ]
  br label %202

213:                                              ; preds = %207
  %214 = bitcast %"class.std::__1::__tree_node_base"* %203 to %"class.std::__1::__tree_node"*
  br label %215

215:                                              ; preds = %213, %200, %192, %175, %165
  %216 = phi %"class.std::__1::__tree_node"* [ %193, %192 ], [ %201, %200 ], [ %214, %213 ], [ null, %165 ], [ %177, %175 ]
  %217 = ptrtoint %"class.std::__1::__tree_node"* %216 to i64
  br label %218

218:                                              ; preds = %159, %215
  %219 = phi i64 [ 0, %159 ], [ %217, %215 ]
  %220 = getelementptr inbounds %"class.std::__1::__tree_end_node", %"class.std::__1::__tree_end_node"* %84, i64 1, i32 0
  %221 = load %"class.std::__1::__tree_node_base"*, %"class.std::__1::__tree_node_base"** %220, align 8
  %222 = icmp eq %"class.std::__1::__tree_node_base"* %221, null
  br i1 %222, label %223, label %231

223:                                              ; preds = %218
  %224 = bitcast %"class.std::__1::__tree_end_node"* %84 to %"class.std::__1::__tree_node_base"*
  %225 = getelementptr inbounds %"class.std::__1::__tree_end_node", %"class.std::__1::__tree_end_node"* %84, i64 2
  %226 = bitcast %"class.std::__1::__tree_end_node"* %225 to %"class.std::__1::__tree_end_node"**
  %227 = load %"class.std::__1::__tree_end_node"*, %"class.std::__1::__tree_end_node"** %226, align 8
  %228 = getelementptr inbounds %"class.std::__1::__tree_end_node", %"class.std::__1::__tree_end_node"* %227, i64 0, i32 0
  %229 = load %"class.std::__1::__tree_node_base"*, %"class.std::__1::__tree_node_base"** %228, align 8
  %230 = icmp eq %"class.std::__1::__tree_node_base"* %229, %224
  br i1 %230, label %247, label %238

231:                                              ; preds = %218, %231
  %232 = phi %"class.std::__1::__tree_node_base"* [ %234, %231 ], [ %221, %218 ]
  %233 = getelementptr inbounds %"class.std::__1::__tree_node_base", %"class.std::__1::__tree_node_base"* %232, i64 0, i32 0, i32 0
  %234 = load %"class.std::__1::__tree_node_base"*, %"class.std::__1::__tree_node_base"** %233, align 8
  %235 = icmp eq %"class.std::__1::__tree_node_base"* %234, null
  br i1 %235, label %236, label %231

236:                                              ; preds = %231
  %237 = getelementptr inbounds %"class.std::__1::__tree_node_base", %"class.std::__1::__tree_node_base"* %232, i64 0, i32 0
  br label %247

238:                                              ; preds = %223, %238
  %239 = phi %"class.std::__1::__tree_end_node"** [ %242, %238 ], [ %226, %223 ]
  %240 = bitcast %"class.std::__1::__tree_end_node"** %239 to %"class.std::__1::__tree_node_base"**
  %241 = load %"class.std::__1::__tree_node_base"*, %"class.std::__1::__tree_node_base"** %240, align 8
  %242 = getelementptr inbounds %"class.std::__1::__tree_node_base", %"class.std::__1::__tree_node_base"* %241, i64 0, i32 2
  %243 = load %"class.std::__1::__tree_end_node"*, %"class.std::__1::__tree_end_node"** %242, align 8
  %244 = getelementptr inbounds %"class.std::__1::__tree_end_node", %"class.std::__1::__tree_end_node"* %243, i64 0, i32 0
  %245 = load %"class.std::__1::__tree_node_base"*, %"class.std::__1::__tree_node_base"** %244, align 8
  %246 = icmp eq %"class.std::__1::__tree_node_base"* %245, %241
  br i1 %246, label %247, label %238

247:                                              ; preds = %238, %223, %236
  %248 = phi %"class.std::__1::__tree_end_node"* [ %237, %236 ], [ %227, %223 ], [ %243, %238 ]
  %249 = inttoptr i64 %219 to %"class.std::__1::__tree_node"*
  %250 = icmp ne %"class.std::__1::__tree_node"* %81, null
  %251 = icmp ne %"class.std::__1::__tree_end_node"* %248, %2
  %252 = and i1 %251, %250
  br i1 %252, label %80, label %253

253:                                              ; preds = %247
  %254 = inttoptr i64 %219 to %"class.std::__1::__tree_node"*
  br label %255

255:                                              ; preds = %72, %253
  %256 = phi %"class.std::__1::__tree_node"* [ %73, %72 ], [ %254, %253 ]
  %257 = phi %"class.std::__1::__tree_end_node"* [ %1, %72 ], [ %248, %253 ]
  %258 = phi %"class.std::__1::__tree_node"* [ %20, %72 ], [ %81, %253 ]
  %259 = phi i64 [ %74, %72 ], [ %219, %253 ]
  tail call void @_ZNSt3__16__treeIN11chrome_apps28MediaGalleriesPermissionDataENS_4lessIS2_EENS_9allocatorIS2_EEE7destroyEPNS_11__tree_nodeIS2_PvEE(%"class.std::__1::__tree"* %0, %"class.std::__1::__tree_node"* %258) #10
  %260 = icmp eq i64 %259, 0
  br i1 %260, label %275, label %261

261:                                              ; preds = %255
  %262 = getelementptr inbounds %"class.std::__1::__tree_node", %"class.std::__1::__tree_node"* %256, i64 0, i32 0, i32 2
  %263 = load %"class.std::__1::__tree_end_node"*, %"class.std::__1::__tree_end_node"** %262, align 8
  %264 = icmp eq %"class.std::__1::__tree_end_node"* %263, null
  br i1 %264, label %273, label %265

265:                                              ; preds = %261, %265
  %266 = phi %"class.std::__1::__tree_end_node"* [ %269, %265 ], [ %263, %261 ]
  %267 = getelementptr inbounds %"class.std::__1::__tree_end_node", %"class.std::__1::__tree_end_node"* %266, i64 2
  %268 = bitcast %"class.std::__1::__tree_end_node"* %267 to %"class.std::__1::__tree_end_node"**
  %269 = load %"class.std::__1::__tree_end_node"*, %"class.std::__1::__tree_end_node"** %268, align 8
  %270 = icmp eq %"class.std::__1::__tree_end_node"* %269, null
  br i1 %270, label %271, label %265

271:                                              ; preds = %265
  %272 = bitcast %"class.std::__1::__tree_end_node"* %266 to %"class.std::__1::__tree_node"*
  br label %273

273:                                              ; preds = %271, %261
  %274 = phi %"class.std::__1::__tree_node"* [ %256, %261 ], [ %272, %271 ]
  tail call void @_ZNSt3__16__treeIN11chrome_apps28MediaGalleriesPermissionDataENS_4lessIS2_EENS_9allocatorIS2_EEE7destroyEPNS_11__tree_nodeIS2_PvEE(%"class.std::__1::__tree"* %0, %"class.std::__1::__tree_node"* %274) #10
  br label %275

275:                                              ; preds = %22, %273, %255, %3
  %276 = phi %"class.std::__1::__tree_end_node"* [ %1, %3 ], [ %257, %255 ], [ %257, %273 ], [ %1, %22 ]
  %277 = icmp eq %"class.std::__1::__tree_end_node"* %276, %2
  br i1 %277, label %313, label %278

278:                                              ; preds = %275, %310
  %279 = phi %"class.std::__1::__tree_end_node"* [ %311, %310 ], [ %276, %275 ]
  %280 = getelementptr inbounds %"class.std::__1::__tree_end_node", %"class.std::__1::__tree_end_node"* %279, i64 4
  %281 = bitcast %"class.std::__1::__tree_end_node"* %280 to %"class.chrome_apps::MediaGalleriesPermissionData"*
  %282 = tail call %"class.std::__1::__tree_end_node"* @_ZNSt3__16__treeIN11chrome_apps28MediaGalleriesPermissionDataENS_4lessIS2_EENS_9allocatorIS2_EEE15__emplace_multiIJRKS2_EEENS_15__tree_iteratorIS2_PNS_11__tree_nodeIS2_PvEElEEDpOT_(%"class.std::__1::__tree"* %0, %"class.chrome_apps::MediaGalleriesPermissionData"* dereferenceable(24) %281) #10
  %283 = getelementptr inbounds %"class.std::__1::__tree_end_node", %"class.std::__1::__tree_end_node"* %279, i64 1, i32 0
  %284 = load %"class.std::__1::__tree_node_base"*, %"class.std::__1::__tree_node_base"** %283, align 8
  %285 = icmp eq %"class.std::__1::__tree_node_base"* %284, null
  br i1 %285, label %286, label %294

286:                                              ; preds = %278
  %287 = bitcast %"class.std::__1::__tree_end_node"* %279 to %"class.std::__1::__tree_node_base"*
  %288 = getelementptr inbounds %"class.std::__1::__tree_end_node", %"class.std::__1::__tree_end_node"* %279, i64 2
  %289 = bitcast %"class.std::__1::__tree_end_node"* %288 to %"class.std::__1::__tree_end_node"**
  %290 = load %"class.std::__1::__tree_end_node"*, %"class.std::__1::__tree_end_node"** %289, align 8
  %291 = getelementptr inbounds %"class.std::__1::__tree_end_node", %"class.std::__1::__tree_end_node"* %290, i64 0, i32 0
  %292 = load %"class.std::__1::__tree_node_base"*, %"class.std::__1::__tree_node_base"** %291, align 8
  %293 = icmp eq %"class.std::__1::__tree_node_base"* %292, %287
  br i1 %293, label %310, label %301

294:                                              ; preds = %278, %294
  %295 = phi %"class.std::__1::__tree_node_base"* [ %297, %294 ], [ %284, %278 ]
  %296 = getelementptr inbounds %"class.std::__1::__tree_node_base", %"class.std::__1::__tree_node_base"* %295, i64 0, i32 0, i32 0
  %297 = load %"class.std::__1::__tree_node_base"*, %"class.std::__1::__tree_node_base"** %296, align 8
  %298 = icmp eq %"class.std::__1::__tree_node_base"* %297, null
  br i1 %298, label %299, label %294

299:                                              ; preds = %294
  %300 = getelementptr inbounds %"class.std::__1::__tree_node_base", %"class.std::__1::__tree_node_base"* %295, i64 0, i32 0
  br label %310

301:                                              ; preds = %286, %301
  %302 = phi %"class.std::__1::__tree_end_node"** [ %305, %301 ], [ %289, %286 ]
  %303 = bitcast %"class.std::__1::__tree_end_node"** %302 to %"class.std::__1::__tree_node_base"**
  %304 = load %"class.std::__1::__tree_node_base"*, %"class.std::__1::__tree_node_base"** %303, align 8
  %305 = getelementptr inbounds %"class.std::__1::__tree_node_base", %"class.std::__1::__tree_node_base"* %304, i64 0, i32 2
  %306 = load %"class.std::__1::__tree_end_node"*, %"class.std::__1::__tree_end_node"** %305, align 8
  %307 = getelementptr inbounds %"class.std::__1::__tree_end_node", %"class.std::__1::__tree_end_node"* %306, i64 0, i32 0
  %308 = load %"class.std::__1::__tree_node_base"*, %"class.std::__1::__tree_node_base"** %307, align 8
  %309 = icmp eq %"class.std::__1::__tree_node_base"* %308, %304
  br i1 %309, label %310, label %301

310:                                              ; preds = %301, %286, %299
  %311 = phi %"class.std::__1::__tree_end_node"* [ %300, %299 ], [ %290, %286 ], [ %306, %301 ]
  %312 = icmp eq %"class.std::__1::__tree_end_node"* %311, %2
  br i1 %312, label %313, label %278

313:                                              ; preds = %310, %275
  ret void
}

declare dereferenceable(24) %"class.std::__1::basic_string"* @_ZNSt3__112basic_stringIcNS_11char_traitsIcEENS_9allocatorIcEEE17__assign_no_aliasILb1EEERS5_PKcm(%"class.std::__1::basic_string"*, i8*, i64) local_unnamed_addr #3

declare dereferenceable(24) %"class.std::__1::basic_string"* @_ZNSt3__112basic_stringIcNS_11char_traitsIcEENS_9allocatorIcEEE17__assign_no_aliasILb0EEERS5_PKcm(%"class.std::__1::basic_string"*, i8*, i64) local_unnamed_addr #3

; Function Attrs: nounwind ssp uwtable
define linkonce_odr hidden %"class.std::__1::__tree_end_node"* @_ZNSt3__16__treeIN11chrome_apps28MediaGalleriesPermissionDataENS_4lessIS2_EENS_9allocatorIS2_EEE15__emplace_multiIJRKS2_EEENS_15__tree_iteratorIS2_PNS_11__tree_nodeIS2_PvEElEEDpOT_(%"class.std::__1::__tree"*, %"class.chrome_apps::MediaGalleriesPermissionData"* dereferenceable(24)) local_unnamed_addr #0 comdat align 2 {
  %3 = tail call i8* @_Znwm(i64 56) #11, !noalias !43
  %4 = getelementptr inbounds i8, i8* %3, i64 32
  %5 = bitcast %"class.chrome_apps::MediaGalleriesPermissionData"* %1 to %"struct.std::__1::basic_string<char, std::__1::char_traits<char>, std::__1::allocator<char> >::__short"*
  %6 = getelementptr inbounds %"struct.std::__1::basic_string<char, std::__1::char_traits<char>, std::__1::allocator<char> >::__short", %"struct.std::__1::basic_string<char, std::__1::char_traits<char>, std::__1::allocator<char> >::__short"* %5, i64 0, i32 1, i32 0
  %7 = load i8, i8* %6, align 1, !noalias !43
  %8 = icmp slt i8 %7, 0
  br i1 %8, label %11, label %9

9:                                                ; preds = %2
  %10 = bitcast %"class.chrome_apps::MediaGalleriesPermissionData"* %1 to i8*
  tail call void @llvm.memcpy.p0i8.p0i8.i64(i8* align 8 %4, i8* align 8 %10, i64 24, i1 false) #10, !noalias !43
  br label %17

11:                                               ; preds = %2
  %12 = bitcast i8* %4 to %"class.std::__1::basic_string"*
  %13 = getelementptr inbounds %"class.chrome_apps::MediaGalleriesPermissionData", %"class.chrome_apps::MediaGalleriesPermissionData"* %1, i64 0, i32 0, i32 0, i32 0, i32 0, i32 0, i32 0, i32 0
  %14 = load i8*, i8** %13, align 8, !noalias !43
  %15 = getelementptr inbounds %"class.chrome_apps::MediaGalleriesPermissionData", %"class.chrome_apps::MediaGalleriesPermissionData"* %1, i64 0, i32 0, i32 0, i32 0, i32 0, i32 0, i32 0, i32 1
  %16 = load i64, i64* %15, align 8, !noalias !43
  tail call void @_ZNSt3__112basic_stringIcNS_11char_traitsIcEENS_9allocatorIcEEE25__init_copy_ctor_externalEPKcm(%"class.std::__1::basic_string"* %12, i8* %14, i64 %16) #10, !noalias !43
  br label %17

17:                                               ; preds = %9, %11
  %18 = bitcast i8* %4 to %"class.chrome_apps::MediaGalleriesPermissionData"*
  %19 = getelementptr inbounds %"class.std::__1::__tree", %"class.std::__1::__tree"* %0, i64 0, i32 1, i32 0, i32 0
  %20 = bitcast %"class.std::__1::__tree_end_node"* %19 to %"class.std::__1::__tree_node"**
  %21 = load %"class.std::__1::__tree_node"*, %"class.std::__1::__tree_node"** %20, align 8
  %22 = icmp eq %"class.std::__1::__tree_node"* %21, null
  br i1 %22, label %44, label %23

23:                                               ; preds = %17, %41
  %24 = phi %"class.std::__1::__tree_node"* [ %43, %41 ], [ %21, %17 ]
  %25 = getelementptr inbounds %"class.std::__1::__tree_node", %"class.std::__1::__tree_node"* %24, i64 0, i32 1
  %26 = tail call zeroext i1 @_ZNK11chrome_apps28MediaGalleriesPermissionDataltERKS0_(%"class.chrome_apps::MediaGalleriesPermissionData"* %18, %"class.chrome_apps::MediaGalleriesPermissionData"* dereferenceable(24) %25) #10
  br i1 %26, label %27, label %34

27:                                               ; preds = %23
  %28 = getelementptr inbounds %"class.std::__1::__tree_node", %"class.std::__1::__tree_node"* %24, i64 0, i32 0, i32 0, i32 0
  %29 = load %"class.std::__1::__tree_node_base"*, %"class.std::__1::__tree_node_base"** %28, align 8
  %30 = icmp eq %"class.std::__1::__tree_node_base"* %29, null
  br i1 %30, label %31, label %41

31:                                               ; preds = %27
  %32 = getelementptr inbounds %"class.std::__1::__tree_node", %"class.std::__1::__tree_node"* %24, i64 0, i32 0, i32 0, i32 0
  %33 = getelementptr inbounds %"class.std::__1::__tree_node", %"class.std::__1::__tree_node"* %24, i64 0, i32 0, i32 0
  br label %46

34:                                               ; preds = %23
  %35 = getelementptr inbounds %"class.std::__1::__tree_node", %"class.std::__1::__tree_node"* %24, i64 0, i32 0, i32 1
  %36 = load %"class.std::__1::__tree_node_base"*, %"class.std::__1::__tree_node_base"** %35, align 8
  %37 = icmp eq %"class.std::__1::__tree_node_base"* %36, null
  br i1 %37, label %38, label %41

38:                                               ; preds = %34
  %39 = getelementptr inbounds %"class.std::__1::__tree_node", %"class.std::__1::__tree_node"* %24, i64 0, i32 0, i32 1
  %40 = getelementptr inbounds %"class.std::__1::__tree_node", %"class.std::__1::__tree_node"* %24, i64 0, i32 0, i32 0
  br label %46

41:                                               ; preds = %34, %27
  %42 = phi %"class.std::__1::__tree_node_base"* [ %29, %27 ], [ %36, %34 ]
  %43 = bitcast %"class.std::__1::__tree_node_base"* %42 to %"class.std::__1::__tree_node"*
  br label %23

44:                                               ; preds = %17
  %45 = getelementptr inbounds %"class.std::__1::__tree_end_node", %"class.std::__1::__tree_end_node"* %19, i64 0, i32 0
  br label %46

46:                                               ; preds = %31, %38, %44
  %47 = phi %"class.std::__1::__tree_end_node"* [ %19, %44 ], [ %33, %31 ], [ %40, %38 ]
  %48 = phi %"class.std::__1::__tree_node_base"** [ %45, %44 ], [ %32, %31 ], [ %39, %38 ]
  %49 = bitcast i8* %3 to %"class.std::__1::__tree_node_base"*
  %50 = getelementptr inbounds i8, i8* %3, i64 16
  %51 = bitcast i8* %50 to %"class.std::__1::__tree_end_node"**
  tail call void @llvm.memset.p0i8.i64(i8* nonnull align 8 %3, i8 0, i64 16, i1 false) #10
  store %"class.std::__1::__tree_end_node"* %47, %"class.std::__1::__tree_end_node"** %51, align 8
  %52 = bitcast %"class.std::__1::__tree_node_base"** %48 to i8**
  store i8* %3, i8** %52, align 8
  %53 = getelementptr inbounds %"class.std::__1::__tree", %"class.std::__1::__tree"* %0, i64 0, i32 0
  %54 = load %"class.std::__1::__tree_end_node"*, %"class.std::__1::__tree_end_node"** %53, align 8
  %55 = getelementptr inbounds %"class.std::__1::__tree_end_node", %"class.std::__1::__tree_end_node"* %54, i64 0, i32 0
  %56 = load %"class.std::__1::__tree_node_base"*, %"class.std::__1::__tree_node_base"** %55, align 8
  %57 = icmp eq %"class.std::__1::__tree_node_base"* %56, null
  br i1 %57, label %62, label %58

58:                                               ; preds = %46
  %59 = ptrtoint %"class.std::__1::__tree_node_base"* %56 to i64
  %60 = bitcast %"class.std::__1::__tree"* %0 to i64*
  store i64 %59, i64* %60, align 8
  %61 = load %"class.std::__1::__tree_node_base"*, %"class.std::__1::__tree_node_base"** %48, align 8
  br label %62

62:                                               ; preds = %58, %46
  %63 = phi %"class.std::__1::__tree_node_base"* [ %49, %46 ], [ %61, %58 ]
  %64 = getelementptr inbounds %"class.std::__1::__tree", %"class.std::__1::__tree"* %0, i64 0, i32 1, i32 0, i32 0, i32 0
  %65 = load %"class.std::__1::__tree_node_base"*, %"class.std::__1::__tree_node_base"** %64, align 8
  tail call void @_ZNSt3__127__tree_balance_after_insertIPNS_16__tree_node_baseIPvEEEEvT_S5_(%"class.std::__1::__tree_node_base"* %65, %"class.std::__1::__tree_node_base"* %63) #10
  %66 = getelementptr inbounds %"class.std::__1::__tree", %"class.std::__1::__tree"* %0, i64 0, i32 2, i32 0, i32 0
  %67 = load i64, i64* %66, align 8
  %68 = add i64 %67, 1
  store i64 %68, i64* %66, align 8
  %69 = bitcast i8* %3 to %"class.std::__1::__tree_end_node"*
  ret %"class.std::__1::__tree_end_node"* %69
}

; Function Attrs: nounwind ssp uwtable
define linkonce_odr hidden { %"class.std::__1::set"*, %"class.std::__1::__tree_end_node"* } @_ZNSt3__116__set_differenceIRNS_6__lessIN11chrome_apps28MediaGalleriesPermissionDataES3_EENS_21__tree_const_iteratorIS3_PNS_11__tree_nodeIS3_PvEElEESB_NS_15insert_iteratorINS_3setIS3_NS_4lessIS3_EENS_9allocatorIS3_EEEEEEEET2_T0_SL_T1_SM_SK_T_(%"class.std::__1::__tree_end_node"*, %"class.std::__1::__tree_end_node"*, %"class.std::__1::__tree_end_node"*, %"class.std::__1::__tree_end_node"*, %"class.std::__1::set"*, %"class.std::__1::__tree_end_node"*, %"struct.std::__1::__less.89"* dereferenceable(1)) local_unnamed_addr #0 comdat {
  %8 = icmp eq %"class.std::__1::__tree_end_node"* %0, %1
  br i1 %8, label %211, label %9

9:                                                ; preds = %7
  %10 = getelementptr inbounds %"class.std::__1::set", %"class.std::__1::set"* %4, i64 0, i32 0
  br label %11

11:                                               ; preds = %9, %206
  %12 = phi %"class.std::__1::__tree_end_node"* [ %0, %9 ], [ %209, %206 ]
  %13 = phi %"class.std::__1::__tree_end_node"* [ %5, %9 ], [ %208, %206 ]
  %14 = phi %"class.std::__1::__tree_end_node"* [ %2, %9 ], [ %207, %206 ]
  %15 = icmp eq %"class.std::__1::__tree_end_node"* %14, %3
  br i1 %15, label %16, label %82

16:                                               ; preds = %11, %79
  %17 = phi %"class.std::__1::__tree_end_node"* [ %80, %79 ], [ %12, %11 ]
  %18 = phi %"class.std::__1::__tree_end_node"* [ %51, %79 ], [ %13, %11 ]
  %19 = getelementptr inbounds %"class.std::__1::__tree_end_node", %"class.std::__1::__tree_end_node"* %17, i64 4
  %20 = bitcast %"class.std::__1::__tree_end_node"* %19 to %"class.chrome_apps::MediaGalleriesPermissionData"*
  %21 = tail call { %"class.std::__1::__tree_end_node"*, i8 } @_ZNSt3__16__treeIN11chrome_apps28MediaGalleriesPermissionDataENS_4lessIS2_EENS_9allocatorIS2_EEE30__emplace_hint_unique_key_argsIS2_JRKS2_EEENS_4pairINS_15__tree_iteratorIS2_PNS_11__tree_nodeIS2_PvEElEEbEENS_21__tree_const_iteratorIS2_SG_lEERKT_DpOT0_(%"class.std::__1::__tree"* %10, %"class.std::__1::__tree_end_node"* %18, %"class.chrome_apps::MediaGalleriesPermissionData"* dereferenceable(24) %20, %"class.chrome_apps::MediaGalleriesPermissionData"* dereferenceable(24) %20) #10
  %22 = extractvalue { %"class.std::__1::__tree_end_node"*, i8 } %21, 0
  %23 = getelementptr inbounds %"class.std::__1::__tree_end_node", %"class.std::__1::__tree_end_node"* %22, i64 1, i32 0
  %24 = load %"class.std::__1::__tree_node_base"*, %"class.std::__1::__tree_node_base"** %23, align 8
  %25 = icmp eq %"class.std::__1::__tree_node_base"* %24, null
  br i1 %25, label %26, label %34

26:                                               ; preds = %16
  %27 = bitcast %"class.std::__1::__tree_end_node"* %22 to %"class.std::__1::__tree_node_base"*
  %28 = getelementptr inbounds %"class.std::__1::__tree_end_node", %"class.std::__1::__tree_end_node"* %22, i64 2
  %29 = bitcast %"class.std::__1::__tree_end_node"* %28 to %"class.std::__1::__tree_end_node"**
  %30 = load %"class.std::__1::__tree_end_node"*, %"class.std::__1::__tree_end_node"** %29, align 8
  %31 = getelementptr inbounds %"class.std::__1::__tree_end_node", %"class.std::__1::__tree_end_node"* %30, i64 0, i32 0
  %32 = load %"class.std::__1::__tree_node_base"*, %"class.std::__1::__tree_node_base"** %31, align 8
  %33 = icmp eq %"class.std::__1::__tree_node_base"* %32, %27
  br i1 %33, label %50, label %41

34:                                               ; preds = %16, %34
  %35 = phi %"class.std::__1::__tree_node_base"* [ %37, %34 ], [ %24, %16 ]
  %36 = getelementptr inbounds %"class.std::__1::__tree_node_base", %"class.std::__1::__tree_node_base"* %35, i64 0, i32 0, i32 0
  %37 = load %"class.std::__1::__tree_node_base"*, %"class.std::__1::__tree_node_base"** %36, align 8
  %38 = icmp eq %"class.std::__1::__tree_node_base"* %37, null
  br i1 %38, label %39, label %34

39:                                               ; preds = %34
  %40 = getelementptr inbounds %"class.std::__1::__tree_node_base", %"class.std::__1::__tree_node_base"* %35, i64 0, i32 0
  br label %50

41:                                               ; preds = %26, %41
  %42 = phi %"class.std::__1::__tree_end_node"** [ %45, %41 ], [ %29, %26 ]
  %43 = bitcast %"class.std::__1::__tree_end_node"** %42 to %"class.std::__1::__tree_node_base"**
  %44 = load %"class.std::__1::__tree_node_base"*, %"class.std::__1::__tree_node_base"** %43, align 8
  %45 = getelementptr inbounds %"class.std::__1::__tree_node_base", %"class.std::__1::__tree_node_base"* %44, i64 0, i32 2
  %46 = load %"class.std::__1::__tree_end_node"*, %"class.std::__1::__tree_end_node"** %45, align 8
  %47 = getelementptr inbounds %"class.std::__1::__tree_end_node", %"class.std::__1::__tree_end_node"* %46, i64 0, i32 0
  %48 = load %"class.std::__1::__tree_node_base"*, %"class.std::__1::__tree_node_base"** %47, align 8
  %49 = icmp eq %"class.std::__1::__tree_node_base"* %48, %44
  br i1 %49, label %50, label %41

50:                                               ; preds = %41, %39, %26
  %51 = phi %"class.std::__1::__tree_end_node"* [ %40, %39 ], [ %30, %26 ], [ %46, %41 ]
  %52 = getelementptr inbounds %"class.std::__1::__tree_end_node", %"class.std::__1::__tree_end_node"* %17, i64 1, i32 0
  %53 = load %"class.std::__1::__tree_node_base"*, %"class.std::__1::__tree_node_base"** %52, align 8
  %54 = icmp eq %"class.std::__1::__tree_node_base"* %53, null
  br i1 %54, label %55, label %63

55:                                               ; preds = %50
  %56 = bitcast %"class.std::__1::__tree_end_node"* %17 to %"class.std::__1::__tree_node_base"*
  %57 = getelementptr inbounds %"class.std::__1::__tree_end_node", %"class.std::__1::__tree_end_node"* %17, i64 2
  %58 = bitcast %"class.std::__1::__tree_end_node"* %57 to %"class.std::__1::__tree_end_node"**
  %59 = load %"class.std::__1::__tree_end_node"*, %"class.std::__1::__tree_end_node"** %58, align 8
  %60 = getelementptr inbounds %"class.std::__1::__tree_end_node", %"class.std::__1::__tree_end_node"* %59, i64 0, i32 0
  %61 = load %"class.std::__1::__tree_node_base"*, %"class.std::__1::__tree_node_base"** %60, align 8
  %62 = icmp eq %"class.std::__1::__tree_node_base"* %61, %56
  br i1 %62, label %79, label %70

63:                                               ; preds = %50, %63
  %64 = phi %"class.std::__1::__tree_node_base"* [ %66, %63 ], [ %53, %50 ]
  %65 = getelementptr inbounds %"class.std::__1::__tree_node_base", %"class.std::__1::__tree_node_base"* %64, i64 0, i32 0, i32 0
  %66 = load %"class.std::__1::__tree_node_base"*, %"class.std::__1::__tree_node_base"** %65, align 8
  %67 = icmp eq %"class.std::__1::__tree_node_base"* %66, null
  br i1 %67, label %68, label %63

68:                                               ; preds = %63
  %69 = getelementptr inbounds %"class.std::__1::__tree_node_base", %"class.std::__1::__tree_node_base"* %64, i64 0, i32 0
  br label %79

70:                                               ; preds = %55, %70
  %71 = phi %"class.std::__1::__tree_end_node"** [ %74, %70 ], [ %58, %55 ]
  %72 = bitcast %"class.std::__1::__tree_end_node"** %71 to %"class.std::__1::__tree_node_base"**
  %73 = load %"class.std::__1::__tree_node_base"*, %"class.std::__1::__tree_node_base"** %72, align 8
  %74 = getelementptr inbounds %"class.std::__1::__tree_node_base", %"class.std::__1::__tree_node_base"* %73, i64 0, i32 2
  %75 = load %"class.std::__1::__tree_end_node"*, %"class.std::__1::__tree_end_node"** %74, align 8
  %76 = getelementptr inbounds %"class.std::__1::__tree_end_node", %"class.std::__1::__tree_end_node"* %75, i64 0, i32 0
  %77 = load %"class.std::__1::__tree_node_base"*, %"class.std::__1::__tree_node_base"** %76, align 8
  %78 = icmp eq %"class.std::__1::__tree_node_base"* %77, %73
  br i1 %78, label %79, label %70

79:                                               ; preds = %70, %68, %55
  %80 = phi %"class.std::__1::__tree_end_node"* [ %69, %68 ], [ %59, %55 ], [ %75, %70 ]
  %81 = icmp eq %"class.std::__1::__tree_end_node"* %80, %1
  br i1 %81, label %211, label %16

82:                                               ; preds = %11
  %83 = getelementptr inbounds %"class.std::__1::__tree_end_node", %"class.std::__1::__tree_end_node"* %12, i64 4
  %84 = bitcast %"class.std::__1::__tree_end_node"* %83 to %"class.chrome_apps::MediaGalleriesPermissionData"*
  %85 = getelementptr inbounds %"class.std::__1::__tree_end_node", %"class.std::__1::__tree_end_node"* %14, i64 4
  %86 = bitcast %"class.std::__1::__tree_end_node"* %85 to %"class.chrome_apps::MediaGalleriesPermissionData"*
  %87 = tail call zeroext i1 @_ZNK11chrome_apps28MediaGalleriesPermissionDataltERKS0_(%"class.chrome_apps::MediaGalleriesPermissionData"* %84, %"class.chrome_apps::MediaGalleriesPermissionData"* dereferenceable(24) %86) #10
  br i1 %87, label %88, label %147

88:                                               ; preds = %82
  %89 = tail call { %"class.std::__1::__tree_end_node"*, i8 } @_ZNSt3__16__treeIN11chrome_apps28MediaGalleriesPermissionDataENS_4lessIS2_EENS_9allocatorIS2_EEE30__emplace_hint_unique_key_argsIS2_JRKS2_EEENS_4pairINS_15__tree_iteratorIS2_PNS_11__tree_nodeIS2_PvEElEEbEENS_21__tree_const_iteratorIS2_SG_lEERKT_DpOT0_(%"class.std::__1::__tree"* %10, %"class.std::__1::__tree_end_node"* %13, %"class.chrome_apps::MediaGalleriesPermissionData"* dereferenceable(24) %84, %"class.chrome_apps::MediaGalleriesPermissionData"* dereferenceable(24) %84) #10
  %90 = extractvalue { %"class.std::__1::__tree_end_node"*, i8 } %89, 0
  %91 = getelementptr inbounds %"class.std::__1::__tree_end_node", %"class.std::__1::__tree_end_node"* %90, i64 1, i32 0
  %92 = load %"class.std::__1::__tree_node_base"*, %"class.std::__1::__tree_node_base"** %91, align 8
  %93 = icmp eq %"class.std::__1::__tree_node_base"* %92, null
  br i1 %93, label %94, label %102

94:                                               ; preds = %88
  %95 = bitcast %"class.std::__1::__tree_end_node"* %90 to %"class.std::__1::__tree_node_base"*
  %96 = getelementptr inbounds %"class.std::__1::__tree_end_node", %"class.std::__1::__tree_end_node"* %90, i64 2
  %97 = bitcast %"class.std::__1::__tree_end_node"* %96 to %"class.std::__1::__tree_end_node"**
  %98 = load %"class.std::__1::__tree_end_node"*, %"class.std::__1::__tree_end_node"** %97, align 8
  %99 = getelementptr inbounds %"class.std::__1::__tree_end_node", %"class.std::__1::__tree_end_node"* %98, i64 0, i32 0
  %100 = load %"class.std::__1::__tree_node_base"*, %"class.std::__1::__tree_node_base"** %99, align 8
  %101 = icmp eq %"class.std::__1::__tree_node_base"* %100, %95
  br i1 %101, label %118, label %109

102:                                              ; preds = %88, %102
  %103 = phi %"class.std::__1::__tree_node_base"* [ %105, %102 ], [ %92, %88 ]
  %104 = getelementptr inbounds %"class.std::__1::__tree_node_base", %"class.std::__1::__tree_node_base"* %103, i64 0, i32 0, i32 0
  %105 = load %"class.std::__1::__tree_node_base"*, %"class.std::__1::__tree_node_base"** %104, align 8
  %106 = icmp eq %"class.std::__1::__tree_node_base"* %105, null
  br i1 %106, label %107, label %102

107:                                              ; preds = %102
  %108 = getelementptr inbounds %"class.std::__1::__tree_node_base", %"class.std::__1::__tree_node_base"* %103, i64 0, i32 0
  br label %118

109:                                              ; preds = %94, %109
  %110 = phi %"class.std::__1::__tree_end_node"** [ %113, %109 ], [ %97, %94 ]
  %111 = bitcast %"class.std::__1::__tree_end_node"** %110 to %"class.std::__1::__tree_node_base"**
  %112 = load %"class.std::__1::__tree_node_base"*, %"class.std::__1::__tree_node_base"** %111, align 8
  %113 = getelementptr inbounds %"class.std::__1::__tree_node_base", %"class.std::__1::__tree_node_base"* %112, i64 0, i32 2
  %114 = load %"class.std::__1::__tree_end_node"*, %"class.std::__1::__tree_end_node"** %113, align 8
  %115 = getelementptr inbounds %"class.std::__1::__tree_end_node", %"class.std::__1::__tree_end_node"* %114, i64 0, i32 0
  %116 = load %"class.std::__1::__tree_node_base"*, %"class.std::__1::__tree_node_base"** %115, align 8
  %117 = icmp eq %"class.std::__1::__tree_node_base"* %116, %112
  br i1 %117, label %118, label %109

118:                                              ; preds = %109, %94, %107
  %119 = phi %"class.std::__1::__tree_end_node"* [ %108, %107 ], [ %98, %94 ], [ %114, %109 ]
  %120 = getelementptr inbounds %"class.std::__1::__tree_end_node", %"class.std::__1::__tree_end_node"* %12, i64 1, i32 0
  %121 = load %"class.std::__1::__tree_node_base"*, %"class.std::__1::__tree_node_base"** %120, align 8
  %122 = icmp eq %"class.std::__1::__tree_node_base"* %121, null
  br i1 %122, label %123, label %131

123:                                              ; preds = %118
  %124 = bitcast %"class.std::__1::__tree_end_node"* %12 to %"class.std::__1::__tree_node_base"*
  %125 = getelementptr inbounds %"class.std::__1::__tree_end_node", %"class.std::__1::__tree_end_node"* %12, i64 2
  %126 = bitcast %"class.std::__1::__tree_end_node"* %125 to %"class.std::__1::__tree_end_node"**
  %127 = load %"class.std::__1::__tree_end_node"*, %"class.std::__1::__tree_end_node"** %126, align 8
  %128 = getelementptr inbounds %"class.std::__1::__tree_end_node", %"class.std::__1::__tree_end_node"* %127, i64 0, i32 0
  %129 = load %"class.std::__1::__tree_node_base"*, %"class.std::__1::__tree_node_base"** %128, align 8
  %130 = icmp eq %"class.std::__1::__tree_node_base"* %129, %124
  br i1 %130, label %206, label %138

131:                                              ; preds = %118, %131
  %132 = phi %"class.std::__1::__tree_node_base"* [ %134, %131 ], [ %121, %118 ]
  %133 = getelementptr inbounds %"class.std::__1::__tree_node_base", %"class.std::__1::__tree_node_base"* %132, i64 0, i32 0, i32 0
  %134 = load %"class.std::__1::__tree_node_base"*, %"class.std::__1::__tree_node_base"** %133, align 8
  %135 = icmp eq %"class.std::__1::__tree_node_base"* %134, null
  br i1 %135, label %136, label %131

136:                                              ; preds = %131
  %137 = getelementptr inbounds %"class.std::__1::__tree_node_base", %"class.std::__1::__tree_node_base"* %132, i64 0, i32 0
  br label %206

138:                                              ; preds = %123, %138
  %139 = phi %"class.std::__1::__tree_end_node"** [ %142, %138 ], [ %126, %123 ]
  %140 = bitcast %"class.std::__1::__tree_end_node"** %139 to %"class.std::__1::__tree_node_base"**
  %141 = load %"class.std::__1::__tree_node_base"*, %"class.std::__1::__tree_node_base"** %140, align 8
  %142 = getelementptr inbounds %"class.std::__1::__tree_node_base", %"class.std::__1::__tree_node_base"* %141, i64 0, i32 2
  %143 = load %"class.std::__1::__tree_end_node"*, %"class.std::__1::__tree_end_node"** %142, align 8
  %144 = getelementptr inbounds %"class.std::__1::__tree_end_node", %"class.std::__1::__tree_end_node"* %143, i64 0, i32 0
  %145 = load %"class.std::__1::__tree_node_base"*, %"class.std::__1::__tree_node_base"** %144, align 8
  %146 = icmp eq %"class.std::__1::__tree_node_base"* %145, %141
  br i1 %146, label %206, label %138

147:                                              ; preds = %82
  %148 = tail call zeroext i1 @_ZNK11chrome_apps28MediaGalleriesPermissionDataltERKS0_(%"class.chrome_apps::MediaGalleriesPermissionData"* %86, %"class.chrome_apps::MediaGalleriesPermissionData"* dereferenceable(24) %84) #10
  br i1 %148, label %177, label %149

149:                                              ; preds = %147
  %150 = getelementptr inbounds %"class.std::__1::__tree_end_node", %"class.std::__1::__tree_end_node"* %12, i64 1, i32 0
  %151 = load %"class.std::__1::__tree_node_base"*, %"class.std::__1::__tree_node_base"** %150, align 8
  %152 = icmp eq %"class.std::__1::__tree_node_base"* %151, null
  br i1 %152, label %153, label %161

153:                                              ; preds = %149
  %154 = bitcast %"class.std::__1::__tree_end_node"* %12 to %"class.std::__1::__tree_node_base"*
  %155 = getelementptr inbounds %"class.std::__1::__tree_end_node", %"class.std::__1::__tree_end_node"* %12, i64 2
  %156 = bitcast %"class.std::__1::__tree_end_node"* %155 to %"class.std::__1::__tree_end_node"**
  %157 = load %"class.std::__1::__tree_end_node"*, %"class.std::__1::__tree_end_node"** %156, align 8
  %158 = getelementptr inbounds %"class.std::__1::__tree_end_node", %"class.std::__1::__tree_end_node"* %157, i64 0, i32 0
  %159 = load %"class.std::__1::__tree_node_base"*, %"class.std::__1::__tree_node_base"** %158, align 8
  %160 = icmp eq %"class.std::__1::__tree_node_base"* %159, %154
  br i1 %160, label %177, label %168

161:                                              ; preds = %149, %161
  %162 = phi %"class.std::__1::__tree_node_base"* [ %164, %161 ], [ %151, %149 ]
  %163 = getelementptr inbounds %"class.std::__1::__tree_node_base", %"class.std::__1::__tree_node_base"* %162, i64 0, i32 0, i32 0
  %164 = load %"class.std::__1::__tree_node_base"*, %"class.std::__1::__tree_node_base"** %163, align 8
  %165 = icmp eq %"class.std::__1::__tree_node_base"* %164, null
  br i1 %165, label %166, label %161

166:                                              ; preds = %161
  %167 = getelementptr inbounds %"class.std::__1::__tree_node_base", %"class.std::__1::__tree_node_base"* %162, i64 0, i32 0
  br label %177

168:                                              ; preds = %153, %168
  %169 = phi %"class.std::__1::__tree_end_node"** [ %172, %168 ], [ %156, %153 ]
  %170 = bitcast %"class.std::__1::__tree_end_node"** %169 to %"class.std::__1::__tree_node_base"**
  %171 = load %"class.std::__1::__tree_node_base"*, %"class.std::__1::__tree_node_base"** %170, align 8
  %172 = getelementptr inbounds %"class.std::__1::__tree_node_base", %"class.std::__1::__tree_node_base"* %171, i64 0, i32 2
  %173 = load %"class.std::__1::__tree_end_node"*, %"class.std::__1::__tree_end_node"** %172, align 8
  %174 = getelementptr inbounds %"class.std::__1::__tree_end_node", %"class.std::__1::__tree_end_node"* %173, i64 0, i32 0
  %175 = load %"class.std::__1::__tree_node_base"*, %"class.std::__1::__tree_node_base"** %174, align 8
  %176 = icmp eq %"class.std::__1::__tree_node_base"* %175, %171
  br i1 %176, label %177, label %168

177:                                              ; preds = %168, %166, %153, %147
  %178 = phi %"class.std::__1::__tree_end_node"* [ %12, %147 ], [ %167, %166 ], [ %157, %153 ], [ %173, %168 ]
  %179 = getelementptr inbounds %"class.std::__1::__tree_end_node", %"class.std::__1::__tree_end_node"* %14, i64 1, i32 0
  %180 = load %"class.std::__1::__tree_node_base"*, %"class.std::__1::__tree_node_base"** %179, align 8
  %181 = icmp eq %"class.std::__1::__tree_node_base"* %180, null
  br i1 %181, label %182, label %190

182:                                              ; preds = %177
  %183 = bitcast %"class.std::__1::__tree_end_node"* %14 to %"class.std::__1::__tree_node_base"*
  %184 = getelementptr inbounds %"class.std::__1::__tree_end_node", %"class.std::__1::__tree_end_node"* %14, i64 2
  %185 = bitcast %"class.std::__1::__tree_end_node"* %184 to %"class.std::__1::__tree_end_node"**
  %186 = load %"class.std::__1::__tree_end_node"*, %"class.std::__1::__tree_end_node"** %185, align 8
  %187 = getelementptr inbounds %"class.std::__1::__tree_end_node", %"class.std::__1::__tree_end_node"* %186, i64 0, i32 0
  %188 = load %"class.std::__1::__tree_node_base"*, %"class.std::__1::__tree_node_base"** %187, align 8
  %189 = icmp eq %"class.std::__1::__tree_node_base"* %188, %183
  br i1 %189, label %206, label %197

190:                                              ; preds = %177, %190
  %191 = phi %"class.std::__1::__tree_node_base"* [ %193, %190 ], [ %180, %177 ]
  %192 = getelementptr inbounds %"class.std::__1::__tree_node_base", %"class.std::__1::__tree_node_base"* %191, i64 0, i32 0, i32 0
  %193 = load %"class.std::__1::__tree_node_base"*, %"class.std::__1::__tree_node_base"** %192, align 8
  %194 = icmp eq %"class.std::__1::__tree_node_base"* %193, null
  br i1 %194, label %195, label %190

195:                                              ; preds = %190
