; ModuleID = '../../third_party/webrtc/api/media_stream_interface.cc'
source_filename = "../../third_party/webrtc/api/media_stream_interface.cc"
target datalayout = "e-m:e-i64:64-f80:128-n8:16:32:64-S128"
target triple = "x86_64-unknown-linux-gnu"

module asm ".symver exp, exp@GLIBC_2.2.5"
module asm ".symver exp2, exp2@GLIBC_2.2.5"
module asm ".symver exp2f, exp2f@GLIBC_2.2.5"
module asm ".symver expf, expf@GLIBC_2.2.5"
module asm ".symver lgamma, lgamma@GLIBC_2.2.5"
module asm ".symver lgammaf, lgammaf@GLIBC_2.2.5"
module asm ".symver lgammal, lgammal@GLIBC_2.2.5"
module asm ".symver log, log@GLIBC_2.2.5"
module asm ".symver log2, log2@GLIBC_2.2.5"
module asm ".symver log2f, log2f@GLIBC_2.2.5"
module asm ".symver logf, logf@GLIBC_2.2.5"
module asm ".symver pow, pow@GLIBC_2.2.5"
module asm ".symver powf, powf@GLIBC_2.2.5"

%"class.webrtc::VideoTrackInterface" = type { %"class.webrtc::MediaStreamTrackInterface", %"class.rtc::VideoSourceInterface" }
%"class.webrtc::MediaStreamTrackInterface" = type { %"class.rtc::RefCountInterface", %"class.webrtc::NotifierInterface" }
%"class.rtc::RefCountInterface" = type { i32 (...)** }
%"class.webrtc::NotifierInterface" = type { i32 (...)** }
%"class.rtc::VideoSourceInterface" = type { i32 (...)** }
%"class.webrtc::AudioTrackInterface" = type { %"class.webrtc::MediaStreamTrackInterface" }
%"class.rtc::scoped_refptr" = type { %"class.webrtc::AudioProcessorInterface"* }
%"class.webrtc::AudioProcessorInterface" = type { %"class.rtc::RefCountInterface" }
%"struct.cricket::AudioOptions" = type { %"class.absl::optional", %"class.absl::optional", %"class.absl::optional", %"class.absl::optional", %"class.absl::optional", %"class.absl::optional.0", %"class.absl::optional", %"class.absl::optional.0", %"class.absl::optional", %"class.absl::optional", %"class.absl::optional", %"class.absl::optional", %"class.absl::optional", %"class.absl::optional.5", %"class.absl::optional.5", %"class.absl::optional", %"class.absl::optional", %"class.absl::optional", %"class.absl::optional.10" }
%"class.absl::optional.0" = type { %"class.absl::optional_internal::optional_data.1" }
%"class.absl::optional_internal::optional_data.1" = type { %"class.absl::optional_internal::optional_data_base.2" }
%"class.absl::optional_internal::optional_data_base.2" = type { %"class.absl::optional_internal::optional_data_dtor_base.3" }
%"class.absl::optional_internal::optional_data_dtor_base.3" = type { i8, %union.anon.4 }
%union.anon.4 = type { i32 }
%"class.absl::optional.5" = type { %"class.absl::optional_internal::optional_data.6" }
%"class.absl::optional_internal::optional_data.6" = type { %"class.absl::optional_internal::optional_data_base.7" }
%"class.absl::optional_internal::optional_data_base.7" = type { %"class.absl::optional_internal::optional_data_dtor_base.8" }
%"class.absl::optional_internal::optional_data_dtor_base.8" = type { i8, %union.anon.9 }
%union.anon.9 = type { i16 }
%"class.absl::optional" = type { %"class.absl::optional_internal::optional_data" }
%"class.absl::optional_internal::optional_data" = type { %"class.absl::optional_internal::optional_data_base" }
%"class.absl::optional_internal::optional_data_base" = type { %"class.absl::optional_internal::optional_data_dtor_base" }
%"class.absl::optional_internal::optional_data_dtor_base" = type { i8, %union.anon }
%union.anon = type { i8 }
%"class.absl::optional.10" = type { %"class.absl::optional_internal::optional_data.11" }
%"class.absl::optional_internal::optional_data.11" = type { %"class.absl::optional_internal::optional_data_base.12" }
%"class.absl::optional_internal::optional_data_base.12" = type { %"class.absl::optional_internal::optional_data_dtor_base.13" }
%"class.absl::optional_internal::optional_data_dtor_base.13" = type { i8, %union.anon.14 }
%union.anon.14 = type { %"class.std::__1::basic_string" }
%"class.std::__1::basic_string" = type { %"class.std::__1::__compressed_pair" }
%"class.std::__1::__compressed_pair" = type { %"struct.std::__1::__compressed_pair_elem" }
%"struct.std::__1::__compressed_pair_elem" = type { %"struct.std::__1::basic_string<char, std::__1::char_traits<char>, std::__1::allocator<char> >::__rep" }
%"struct.std::__1::basic_string<char, std::__1::char_traits<char>, std::__1::allocator<char> >::__rep" = type { %union.anon.15 }
%union.anon.15 = type { %"struct.std::__1::basic_string<char, std::__1::char_traits<char>, std::__1::allocator<char> >::__long" }
%"struct.std::__1::basic_string<char, std::__1::char_traits<char>, std::__1::allocator<char> >::__long" = type { i8*, i64, i64 }
%"class.webrtc::AudioSourceInterface" = type { %"class.webrtc::MediaSourceInterface" }
%"class.webrtc::MediaSourceInterface" = type { %"class.rtc::RefCountInterface", %"class.webrtc::NotifierInterface" }
%"class.rtc::VideoSinkInterface" = type opaque
%"struct.rtc::VideoSinkWants" = type { i8, i8, i32, %"class.absl::optional.0", i32, i32, %"class.std::__1::vector" }
%"class.std::__1::vector" = type { %"class.std::__1::__vector_base" }
%"class.std::__1::__vector_base" = type { %"struct.rtc::VideoSinkWants::FrameSize"*, %"struct.rtc::VideoSinkWants::FrameSize"*, %"class.std::__1::__compressed_pair.17" }
%"struct.rtc::VideoSinkWants::FrameSize" = type { i32, i32 }
%"class.std::__1::__compressed_pair.17" = type { %"struct.std::__1::__compressed_pair_elem.18" }
%"struct.std::__1::__compressed_pair_elem.18" = type { %"struct.rtc::VideoSinkWants::FrameSize"* }
%"class.webrtc::AudioSourceInterface::AudioObserver" = type { i32 (...)** }
%"class.webrtc::AudioTrackSinkInterface" = type { i32 (...)** }

$_ZN6webrtc19VideoTrackInterfaceD2Ev = comdat any

$_ZN6webrtc19VideoTrackInterfaceD0Ev = comdat any

$_ZN6webrtc19VideoTrackInterface15AddOrUpdateSinkEPN3rtc18VideoSinkInterfaceINS_10VideoFrameEEERKNS1_14VideoSinkWantsE = comdat any

$_ZN6webrtc19VideoTrackInterface10RemoveSinkEPN3rtc18VideoSinkInterfaceINS_10VideoFrameEEE = comdat any

$_ZN6webrtc19VideoTrackInterface16set_content_hintENS0_11ContentHintE = comdat any

$_ZThn8_N6webrtc19VideoTrackInterfaceD1Ev = comdat any

$_ZThn8_N6webrtc19VideoTrackInterfaceD0Ev = comdat any

$_ZThn16_N6webrtc19VideoTrackInterfaceD1Ev = comdat any

$_ZThn16_N6webrtc19VideoTrackInterfaceD0Ev = comdat any

$_ZThn16_N6webrtc19VideoTrackInterface15AddOrUpdateSinkEPN3rtc18VideoSinkInterfaceINS_10VideoFrameEEERKNS1_14VideoSinkWantsE = comdat any

$_ZThn16_N6webrtc19VideoTrackInterface10RemoveSinkEPN3rtc18VideoSinkInterfaceINS_10VideoFrameEEE = comdat any

$_ZN6webrtc25MediaStreamTrackInterfaceD2Ev = comdat any

$_ZN6webrtc19AudioTrackInterfaceD0Ev = comdat any

$_ZThn8_N6webrtc19AudioTrackInterfaceD1Ev = comdat any

$_ZThn8_N6webrtc19AudioTrackInterfaceD0Ev = comdat any

$_ZN6webrtc20MediaSourceInterfaceD2Ev = comdat any

$_ZN6webrtc20AudioSourceInterfaceD0Ev = comdat any

$_ZN6webrtc20AudioSourceInterface9SetVolumeEd = comdat any

$_ZN6webrtc20AudioSourceInterface21RegisterAudioObserverEPNS0_13AudioObserverE = comdat any

$_ZN6webrtc20AudioSourceInterface23UnregisterAudioObserverEPNS0_13AudioObserverE = comdat any

$_ZN6webrtc20AudioSourceInterface7AddSinkEPNS_23AudioTrackSinkInterfaceE = comdat any

$_ZN6webrtc20AudioSourceInterface10RemoveSinkEPNS_23AudioTrackSinkInterfaceE = comdat any

$_ZThn8_N6webrtc20AudioSourceInterfaceD1Ev = comdat any

$_ZThn8_N6webrtc20AudioSourceInterfaceD0Ev = comdat any

@_ZN7cricket15kMediaTypeVideoE = external constant [0 x i8], align 1
@_ZN6webrtc25MediaStreamTrackInterface10kVideoKindE = hidden local_unnamed_addr constant i8* getelementptr inbounds ([0 x i8], [0 x i8]* @_ZN7cricket15kMediaTypeVideoE, i64 0, i64 0), align 8
@_ZN7cricket15kMediaTypeAudioE = external constant [0 x i8], align 1
@_ZN6webrtc25MediaStreamTrackInterface10kAudioKindE = hidden local_unnamed_addr constant i8* getelementptr inbounds ([0 x i8], [0 x i8]* @_ZN7cricket15kMediaTypeAudioE, i64 0, i64 0), align 8
@_ZTVN6webrtc19VideoTrackInterfaceE = hidden unnamed_addr constant { [16 x i8*], [6 x i8*], [6 x i8*] } { [16 x i8*] [i8* null, i8* null, i8* bitcast (void ()* @__cxa_pure_virtual to i8*), i8* bitcast (void ()* @__cxa_pure_virtual to i8*), i8* bitcast (void (%"class.webrtc::VideoTrackInterface"*)* @_ZN6webrtc19VideoTrackInterfaceD2Ev to i8*), i8* bitcast (void (%"class.webrtc::VideoTrackInterface"*)* @_ZN6webrtc19VideoTrackInterfaceD0Ev to i8*), i8* bitcast (void ()* @__cxa_pure_virtual to i8*), i8* bitcast (void ()* @__cxa_pure_virtual to i8*), i8* bitcast (void ()* @__cxa_pure_virtual to i8*), i8* bitcast (void ()* @__cxa_pure_virtual to i8*), i8* bitcast (void ()* @__cxa_pure_virtual to i8*), i8* bitcast (void (%"class.webrtc::VideoTrackInterface"*, %"class.rtc::VideoSinkInterface"*, %"struct.rtc::VideoSinkWants"*)* @_ZN6webrtc19VideoTrackInterface15AddOrUpdateSinkEPN3rtc18VideoSinkInterfaceINS_10VideoFrameEEERKNS1_14VideoSinkWantsE to i8*), i8* bitcast (void (%"class.webrtc::VideoTrackInterface"*, %"class.rtc::VideoSinkInterface"*)* @_ZN6webrtc19VideoTrackInterface10RemoveSinkEPN3rtc18VideoSinkInterfaceINS_10VideoFrameEEE to i8*), i8* bitcast (void ()* @__cxa_pure_virtual to i8*), i8* bitcast (i32 (%"class.webrtc::VideoTrackInterface"*)* @_ZNK6webrtc19VideoTrackInterface12content_hintEv to i8*), i8* bitcast (void (%"class.webrtc::VideoTrackInterface"*, i32)* @_ZN6webrtc19VideoTrackInterface16set_content_hintENS0_11ContentHintE to i8*)], [6 x i8*] [i8* inttoptr (i64 -8 to i8*), i8* null, i8* bitcast (void ()* @__cxa_pure_virtual to i8*), i8* bitcast (void ()* @__cxa_pure_virtual to i8*), i8* bitcast (void (%"class.webrtc::VideoTrackInterface"*)* @_ZThn8_N6webrtc19VideoTrackInterfaceD1Ev to i8*), i8* bitcast (void (%"class.webrtc::VideoTrackInterface"*)* @_ZThn8_N6webrtc19VideoTrackInterfaceD0Ev to i8*)], [6 x i8*] [i8* inttoptr (i64 -16 to i8*), i8* null, i8* bitcast (void (%"class.webrtc::VideoTrackInterface"*)* @_ZThn16_N6webrtc19VideoTrackInterfaceD1Ev to i8*), i8* bitcast (void (%"class.webrtc::VideoTrackInterface"*)* @_ZThn16_N6webrtc19VideoTrackInterfaceD0Ev to i8*), i8* bitcast (void (%"class.webrtc::VideoTrackInterface"*, %"class.rtc::VideoSinkInterface"*, %"struct.rtc::VideoSinkWants"*)* @_ZThn16_N6webrtc19VideoTrackInterface15AddOrUpdateSinkEPN3rtc18VideoSinkInterfaceINS_10VideoFrameEEERKNS1_14VideoSinkWantsE to i8*), i8* bitcast (void (%"class.webrtc::VideoTrackInterface"*, %"class.rtc::VideoSinkInterface"*)* @_ZThn16_N6webrtc19VideoTrackInterface10RemoveSinkEPN3rtc18VideoSinkInterfaceINS_10VideoFrameEEE to i8*)] }, align 8
@_ZTVN6webrtc19AudioTrackInterfaceE = hidden unnamed_addr constant { [16 x i8*], [6 x i8*] } { [16 x i8*] [i8* null, i8* null, i8* bitcast (void ()* @__cxa_pure_virtual to i8*), i8* bitcast (void ()* @__cxa_pure_virtual to i8*), i8* bitcast (void (%"class.webrtc::MediaStreamTrackInterface"*)* @_ZN6webrtc25MediaStreamTrackInterfaceD2Ev to i8*), i8* bitcast (void (%"class.webrtc::AudioTrackInterface"*)* @_ZN6webrtc19AudioTrackInterfaceD0Ev to i8*), i8* bitcast (void ()* @__cxa_pure_virtual to i8*), i8* bitcast (void ()* @__cxa_pure_virtual to i8*), i8* bitcast (void ()* @__cxa_pure_virtual to i8*), i8* bitcast (void ()* @__cxa_pure_virtual to i8*), i8* bitcast (void ()* @__cxa_pure_virtual to i8*), i8* bitcast (void ()* @__cxa_pure_virtual to i8*), i8* bitcast (void ()* @__cxa_pure_virtual to i8*), i8* bitcast (void ()* @__cxa_pure_virtual to i8*), i8* bitcast (i1 (%"class.webrtc::AudioTrackInterface"*, i32*)* @_ZN6webrtc19AudioTrackInterface14GetSignalLevelEPi to i8*), i8* bitcast (void (%"class.rtc::scoped_refptr"*, %"class.webrtc::AudioTrackInterface"*)* @_ZN6webrtc19AudioTrackInterface17GetAudioProcessorEv to i8*)], [6 x i8*] [i8* inttoptr (i64 -8 to i8*), i8* null, i8* bitcast (void ()* @__cxa_pure_virtual to i8*), i8* bitcast (void ()* @__cxa_pure_virtual to i8*), i8* bitcast (void (%"class.webrtc::AudioTrackInterface"*)* @_ZThn8_N6webrtc19AudioTrackInterfaceD1Ev to i8*), i8* bitcast (void (%"class.webrtc::AudioTrackInterface"*)* @_ZThn8_N6webrtc19AudioTrackInterfaceD0Ev to i8*)] }, align 8
@_ZTVN6webrtc20AudioSourceInterfaceE = hidden unnamed_addr constant { [14 x i8*], [6 x i8*] } { [14 x i8*] [i8* null, i8* null, i8* bitcast (void ()* @__cxa_pure_virtual to i8*), i8* bitcast (void ()* @__cxa_pure_virtual to i8*), i8* bitcast (void (%"class.webrtc::MediaSourceInterface"*)* @_ZN6webrtc20MediaSourceInterfaceD2Ev to i8*), i8* bitcast (void (%"class.webrtc::AudioSourceInterface"*)* @_ZN6webrtc20AudioSourceInterfaceD0Ev to i8*), i8* bitcast (void ()* @__cxa_pure_virtual to i8*), i8* bitcast (void ()* @__cxa_pure_virtual to i8*), i8* bitcast (void (%"class.webrtc::AudioSourceInterface"*, double)* @_ZN6webrtc20AudioSourceInterface9SetVolumeEd to i8*), i8* bitcast (void (%"class.webrtc::AudioSourceInterface"*, %"class.webrtc::AudioSourceInterface::AudioObserver"*)* @_ZN6webrtc20AudioSourceInterface21RegisterAudioObserverEPNS0_13AudioObserverE to i8*), i8* bitcast (void (%"class.webrtc::AudioSourceInterface"*, %"class.webrtc::AudioSourceInterface::AudioObserver"*)* @_ZN6webrtc20AudioSourceInterface23UnregisterAudioObserverEPNS0_13AudioObserverE to i8*), i8* bitcast (void (%"class.webrtc::AudioSourceInterface"*, %"class.webrtc::AudioTrackSinkInterface"*)* @_ZN6webrtc20AudioSourceInterface7AddSinkEPNS_23AudioTrackSinkInterfaceE to i8*), i8* bitcast (void (%"class.webrtc::AudioSourceInterface"*, %"class.webrtc::AudioTrackSinkInterface"*)* @_ZN6webrtc20AudioSourceInterface10RemoveSinkEPNS_23AudioTrackSinkInterfaceE to i8*), i8* bitcast (void (%"struct.cricket::AudioOptions"*, %"class.webrtc::AudioSourceInterface"*)* @_ZNK6webrtc20AudioSourceInterface7optionsEv to i8*)], [6 x i8*] [i8* inttoptr (i64 -8 to i8*), i8* null, i8* bitcast (void ()* @__cxa_pure_virtual to i8*), i8* bitcast (void ()* @__cxa_pure_virtual to i8*), i8* bitcast (void (%"class.webrtc::AudioSourceInterface"*)* @_ZThn8_N6webrtc20AudioSourceInterfaceD1Ev to i8*), i8* bitcast (void (%"class.webrtc::AudioSourceInterface"*)* @_ZThn8_N6webrtc20AudioSourceInterfaceD0Ev to i8*)] }, align 8

; Function Attrs: norecurse nounwind readnone ssp uwtable
define hidden i32 @_ZNK6webrtc19VideoTrackInterface12content_hintEv(%"class.webrtc::VideoTrackInterface"* nocapture readnone) unnamed_addr #0 align 2 {
  ret i32 0
}

; Function Attrs: norecurse nounwind readnone ssp uwtable
define hidden zeroext i1 @_ZN6webrtc19AudioTrackInterface14GetSignalLevelEPi(%"class.webrtc::AudioTrackInterface"* nocapture readnone, i32* nocapture readnone) unnamed_addr #0 align 2 {
  ret i1 false
}

; Function Attrs: nofree norecurse nounwind ssp uwtable writeonly
define hidden void @_ZN6webrtc19AudioTrackInterface17GetAudioProcessorEv(%"class.rtc::scoped_refptr"* noalias nocapture sret, %"class.webrtc::AudioTrackInterface"* nocapture readnone) unnamed_addr #1 align 2 {
  %3 = getelementptr inbounds %"class.rtc::scoped_refptr", %"class.rtc::scoped_refptr"* %0, i64 0, i32 0
  store %"class.webrtc::AudioProcessorInterface"* null, %"class.webrtc::AudioProcessorInterface"** %3, align 8
  ret void
}

; Function Attrs: nounwind ssp uwtable
define hidden void @_ZNK6webrtc20AudioSourceInterface7optionsEv(%"struct.cricket::AudioOptions"* noalias sret, %"class.webrtc::AudioSourceInterface"* nocapture readnone) unnamed_addr #2 align 2 {
  tail call void @_ZN7cricket12AudioOptionsC1Ev(%"struct.cricket::AudioOptions"* %0) #6
  ret void
}

declare void @_ZN7cricket12AudioOptionsC1Ev(%"struct.cricket::AudioOptions"*) unnamed_addr #3

declare void @__cxa_pure_virtual() unnamed_addr

; Function Attrs: nounwind ssp uwtable
define linkonce_odr hidden void @_ZN6webrtc19VideoTrackInterfaceD2Ev(%"class.webrtc::VideoTrackInterface"*) unnamed_addr #2 comdat align 2 {
  ret void
}

; Function Attrs: nounwind ssp uwtable
define linkonce_odr hidden void @_ZN6webrtc19VideoTrackInterfaceD0Ev(%"class.webrtc::VideoTrackInterface"*) unnamed_addr #2 comdat align 2 {
  tail call void @llvm.trap() #7
  unreachable
}

; Function Attrs: nounwind ssp uwtable
define linkonce_odr hidden void @_ZN6webrtc19VideoTrackInterface15AddOrUpdateSinkEPN3rtc18VideoSinkInterfaceINS_10VideoFrameEEERKNS1_14VideoSinkWantsE(%"class.webrtc::VideoTrackInterface"*, %"class.rtc::VideoSinkInterface"*, %"struct.rtc::VideoSinkWants"* dereferenceable(48)) unnamed_addr #2 comdat align 2 {
  ret void
}

; Function Attrs: nounwind ssp uwtable
define linkonce_odr hidden void @_ZN6webrtc19VideoTrackInterface10RemoveSinkEPN3rtc18VideoSinkInterfaceINS_10VideoFrameEEE(%"class.webrtc::VideoTrackInterface"*, %"class.rtc::VideoSinkInterface"*) unnamed_addr #2 comdat align 2 {
  ret void
}

; Function Attrs: nounwind ssp uwtable
define linkonce_odr hidden void @_ZN6webrtc19VideoTrackInterface16set_content_hintENS0_11ContentHintE(%"class.webrtc::VideoTrackInterface"*, i32) unnamed_addr #2 comdat align 2 {
  ret void
}

; Function Attrs: nounwind ssp uwtable
define linkonce_odr hidden void @_ZThn8_N6webrtc19VideoTrackInterfaceD1Ev(%"class.webrtc::VideoTrackInterface"*) unnamed_addr #2 comdat align 2 {
  ret void
}

; Function Attrs: nounwind ssp uwtable
define linkonce_odr hidden void @_ZThn8_N6webrtc19VideoTrackInterfaceD0Ev(%"class.webrtc::VideoTrackInterface"*) unnamed_addr #2 comdat align 2 {
  tail call void @llvm.trap() #7
  unreachable
}

; Function Attrs: nounwind ssp uwtable
define linkonce_odr hidden void @_ZThn16_N6webrtc19VideoTrackInterfaceD1Ev(%"class.webrtc::VideoTrackInterface"*) unnamed_addr #2 comdat align 2 {
  ret void
}

; Function Attrs: nounwind ssp uwtable
define linkonce_odr hidden void @_ZThn16_N6webrtc19VideoTrackInterfaceD0Ev(%"class.webrtc::VideoTrackInterface"*) unnamed_addr #2 comdat align 2 {
  tail call void @llvm.trap() #7
  unreachable
}

; Function Attrs: nounwind ssp uwtable
define linkonce_odr hidden void @_ZThn16_N6webrtc19VideoTrackInterface15AddOrUpdateSinkEPN3rtc18VideoSinkInterfaceINS_10VideoFrameEEERKNS1_14VideoSinkWantsE(%"class.webrtc::VideoTrackInterface"*, %"class.rtc::VideoSinkInterface"*, %"struct.rtc::VideoSinkWants"* dereferenceable(48)) unnamed_addr #2 comdat align 2 {
  ret void
}

; Function Attrs: nounwind ssp uwtable
define linkonce_odr hidden void @_ZThn16_N6webrtc19VideoTrackInterface10RemoveSinkEPN3rtc18VideoSinkInterfaceINS_10VideoFrameEEE(%"class.webrtc::VideoTrackInterface"*, %"class.rtc::VideoSinkInterface"*) unnamed_addr #2 comdat align 2 {
  ret void
}

; Function Attrs: nounwind ssp uwtable
define linkonce_odr hidden void @_ZN6webrtc25MediaStreamTrackInterfaceD2Ev(%"class.webrtc::MediaStreamTrackInterface"*) unnamed_addr #2 comdat align 2 {
  ret void
}

; Function Attrs: nounwind ssp uwtable
define linkonce_odr hidden void @_ZN6webrtc19AudioTrackInterfaceD0Ev(%"class.webrtc::AudioTrackInterface"*) unnamed_addr #2 comdat align 2 {
  tail call void @llvm.trap() #7
  unreachable
}

; Function Attrs: nounwind ssp uwtable
define linkonce_odr hidden void @_ZThn8_N6webrtc19AudioTrackInterfaceD1Ev(%"class.webrtc::AudioTrackInterface"*) unnamed_addr #2 comdat align 2 {
  ret void
}

; Function Attrs: nounwind ssp uwtable
define linkonce_odr hidden void @_ZThn8_N6webrtc19AudioTrackInterfaceD0Ev(%"class.webrtc::AudioTrackInterface"*) unnamed_addr #2 comdat align 2 {
  tail call void @llvm.trap() #7
  unreachable
}

; Function Attrs: nounwind ssp uwtable
define linkonce_odr hidden void @_ZN6webrtc20MediaSourceInterfaceD2Ev(%"class.webrtc::MediaSourceInterface"*) unnamed_addr #2 comdat align 2 {
  ret void
}

; Function Attrs: inlinehint nounwind ssp uwtable
define linkonce_odr hidden void @_ZN6webrtc20AudioSourceInterfaceD0Ev(%"class.webrtc::AudioSourceInterface"*) unnamed_addr #4 comdat align 2 {
  tail call void @llvm.trap() #7
  unreachable
}

; Function Attrs: nounwind ssp uwtable
define linkonce_odr hidden void @_ZN6webrtc20AudioSourceInterface9SetVolumeEd(%"class.webrtc::AudioSourceInterface"*, double) unnamed_addr #2 comdat align 2 {
  ret void
}

; Function Attrs: nounwind ssp uwtable
define linkonce_odr hidden void @_ZN6webrtc20AudioSourceInterface21RegisterAudioObserverEPNS0_13AudioObserverE(%"class.webrtc::AudioSourceInterface"*, %"class.webrtc::AudioSourceInterface::AudioObserver"*) unnamed_addr #2 comdat align 2 {
  ret void
}

; Function Attrs: nounwind ssp uwtable
define linkonce_odr hidden void @_ZN6webrtc20AudioSourceInterface23UnregisterAudioObserverEPNS0_13AudioObserverE(%"class.webrtc::AudioSourceInterface"*, %"class.webrtc::AudioSourceInterface::AudioObserver"*) unnamed_addr #2 comdat align 2 {
  ret void
}

; Function Attrs: nounwind ssp uwtable
define linkonce_odr hidden void @_ZN6webrtc20AudioSourceInterface7AddSinkEPNS_23AudioTrackSinkInterfaceE(%"class.webrtc::AudioSourceInterface"*, %"class.webrtc::AudioTrackSinkInterface"*) unnamed_addr #2 comdat align 2 {
  ret void
}

; Function Attrs: nounwind ssp uwtable
define linkonce_odr hidden void @_ZN6webrtc20AudioSourceInterface10RemoveSinkEPNS_23AudioTrackSinkInterfaceE(%"class.webrtc::AudioSourceInterface"*, %"class.webrtc::AudioTrackSinkInterface"*) unnamed_addr #2 comdat align 2 {
  ret void
}

; Function Attrs: inlinehint nounwind ssp uwtable
define linkonce_odr hidden void @_ZThn8_N6webrtc20AudioSourceInterfaceD1Ev(%"class.webrtc::AudioSourceInterface"*) unnamed_addr #4 comdat align 2 {
  ret void
}

; Function Attrs: inlinehint nounwind ssp uwtable
define linkonce_odr hidden void @_ZThn8_N6webrtc20AudioSourceInterfaceD0Ev(%"class.webrtc::AudioSourceInterface"*) unnamed_addr #4 comdat align 2 {
  tail call void @llvm.trap() #7
  unreachable
}

; Function Attrs: cold noreturn nounwind
declare void @llvm.trap() #5

attributes #0 = { norecurse nounwind readnone ssp uwtable "correctly-rounded-divide-sqrt-fp-math"="false" "disable-tail-calls"="false" "less-precise-fpmad"="false" "min-legal-vector-width"="0" "no-frame-pointer-elim"="false" "no-frame-pointer-elim-non-leaf" "no-infs-fp-math"="false" "no-jump-tables"="false" "no-nans-fp-math"="false" "no-signed-zeros-fp-math"="false" "no-trapping-math"="false" "null-pointer-is-valid"="true" "stack-protector-buffer-size"="4" "target-cpu"="x86-64" "target-features"="+cx8,+fxsr,+mmx,+sse,+sse2,+sse3,+x87" "unsafe-fp-math"="false" "use-soft-float"="false" }
attributes #1 = { nofree norecurse nounwind ssp uwtable writeonly "correctly-rounded-divide-sqrt-fp-math"="false" "disable-tail-calls"="false" "less-precise-fpmad"="false" "min-legal-vector-width"="0" "no-frame-pointer-elim"="false" "no-frame-pointer-elim-non-leaf" "no-infs-fp-math"="false" "no-jump-tables"="false" "no-nans-fp-math"="false" "no-signed-zeros-fp-math"="false" "no-trapping-math"="false" "null-pointer-is-valid"="true" "stack-protector-buffer-size"="4" "target-cpu"="x86-64" "target-features"="+cx8,+fxsr,+mmx,+sse,+sse2,+sse3,+x87" "unsafe-fp-math"="false" "use-soft-float"="false" }
attributes #2 = { nounwind ssp uwtable "correctly-rounded-divide-sqrt-fp-math"="false" "disable-tail-calls"="false" "less-precise-fpmad"="false" "min-legal-vector-width"="0" "no-frame-pointer-elim"="false" "no-frame-pointer-elim-non-leaf" "no-infs-fp-math"="false" "no-jump-tables"="false" "no-nans-fp-math"="false" "no-signed-zeros-fp-math"="false" "no-trapping-math"="false" "null-pointer-is-valid"="true" "stack-protector-buffer-size"="4" "target-cpu"="x86-64" "target-features"="+cx8,+fxsr,+mmx,+sse,+sse2,+sse3,+x87" "unsafe-fp-math"="false" "use-soft-float"="false" }
attributes #3 = { "correctly-rounded-divide-sqrt-fp-math"="false" "disable-tail-calls"="false" "less-precise-fpmad"="false" "no-frame-pointer-elim"="false" "no-frame-pointer-elim-non-leaf" "no-infs-fp-math"="false" "no-nans-fp-math"="false" "no-signed-zeros-fp-math"="false" "no-trapping-math"="false" "null-pointer-is-valid"="true" "stack-protector-buffer-size"="4" "target-cpu"="x86-64" "target-features"="+cx8,+fxsr,+mmx,+sse,+sse2,+sse3,+x87" "unsafe-fp-math"="false" "use-soft-float"="false" }
attributes #4 = { inlinehint nounwind ssp uwtable "correctly-rounded-divide-sqrt-fp-math"="false" "disable-tail-calls"="false" "less-precise-fpmad"="false" "min-legal-vector-width"="0" "no-frame-pointer-elim"="false" "no-frame-pointer-elim-non-leaf" "no-infs-fp-math"="false" "no-jump-tables"="false" "no-nans-fp-math"="false" "no-signed-zeros-fp-math"="false" "no-trapping-math"="false" "null-pointer-is-valid"="true" "stack-protector-buffer-size"="4" "target-cpu"="x86-64" "target-features"="+cx8,+fxsr,+mmx,+sse,+sse2,+sse3,+x87" "unsafe-fp-math"="false" "use-soft-float"="false" }
attributes #5 = { cold noreturn nounwind }
attributes #6 = { nounwind }
attributes #7 = { noreturn nounwind }

!llvm.module.flags = !{!0, !1}

!0 = !{i32 1, !"wchar_size", i32 4}
!1 = !{i32 7, !"PIC Level", i32 2}
