; ModuleID = 'gen/components/media_router/common/mojom/media_router.mojom.cc'
source_filename = "gen/components/media_router/common/mojom/media_router.mojom.cc"
target datalayout = "e-m:e-i64:64-f80:128-n8:16:32:64-S128"
target triple = "x86_64-unknown-linux-gnu"

module asm ".symver exp, exp@GLIBC_2.2.5"
module asm ".symver exp2, exp2@GLIBC_2.2.5"
module asm ".symver exp2f, exp2f@GLIBC_2.2.5"
module asm ".symver expf, expf@GLIBC_2.2.5"
module asm ".symver lgamma, lgamma@GLIBC_2.2.5"
module asm ".symver lgammaf, lgammaf@GLIBC_2.2.5"
module asm ".symver lgammal, lgammal@GLIBC_2.2.5"
module asm ".symver log, log@GLIBC_2.2.5"
module asm ".symver log2, log2@GLIBC_2.2.5"
module asm ".symver log2f, log2f@GLIBC_2.2.5"
module asm ".symver logf, logf@GLIBC_2.2.5"
module asm ".symver pow, pow@GLIBC_2.2.5"
module asm ".symver powf, powf@GLIBC_2.2.5"

%"struct.std::__1::pair" = type { i32, %"struct.mojo::internal::GenericValidationInfo" }
%"struct.mojo::internal::GenericValidationInfo" = type { i1 (i8*, %"class.mojo::internal::ValidationContext"*)*, i1 (i8*, %"class.mojo::internal::ValidationContext"*)* }
%"class.mojo::internal::ValidationContext" = type <{ %"class.mojo::Message"*, i8*, i32, [4 x i8], i64, i64, i32, i32, i32, i32, i32, [4 x i8] }>
%"class.mojo::Message" = type { %"class.mojo::ScopedHandleBase", %"class.mojo::internal::Buffer", %"class.std::__1::vector", %"class.std::__1::vector.36", %"class.mojo::ConnectionGroup::Ref"*, i8, i8, i8* }
%"class.mojo::ScopedHandleBase" = type { %"class.mojo::MessageHandle" }
%"class.mojo::MessageHandle" = type { i64 }
%"class.mojo::internal::Buffer" = type { %"class.mojo::MessageHandle", i64, i8*, i64, i64 }
%"class.std::__1::vector" = type { %"class.std::__1::__vector_base" }
%"class.std::__1::__vector_base" = type { %"class.mojo::ScopedHandleBase.30"*, %"class.mojo::ScopedHandleBase.30"*, %"class.std::__1::__compressed_pair.31" }
%"class.mojo::ScopedHandleBase.30" = type { %"class.mojo::Handle" }
%"class.mojo::Handle" = type { i32 }
%"class.std::__1::__compressed_pair.31" = type { %"struct.std::__1::__compressed_pair_elem.32" }
%"struct.std::__1::__compressed_pair_elem.32" = type { %"class.mojo::ScopedHandleBase.30"* }
%"class.std::__1::vector.36" = type { %"class.std::__1::__vector_base.37" }
%"class.std::__1::__vector_base.37" = type { %"class.mojo::ScopedInterfaceEndpointHandle"*, %"class.mojo::ScopedInterfaceEndpointHandle"*, %"class.std::__1::__compressed_pair.38" }
%"class.mojo::ScopedInterfaceEndpointHandle" = type { %class.scoped_refptr }
%class.scoped_refptr = type { %"class.mojo::ScopedInterfaceEndpointHandle::State"* }
%"class.mojo::ScopedInterfaceEndpointHandle::State" = type opaque
%"class.std::__1::__compressed_pair.38" = type { %"struct.std::__1::__compressed_pair_elem.39" }
%"struct.std::__1::__compressed_pair_elem.39" = type { %"class.mojo::ScopedInterfaceEndpointHandle"* }
%"class.mojo::ConnectionGroup::Ref" = type { i32, %class.scoped_refptr.43 }
%class.scoped_refptr.43 = type { %"class.mojo::ConnectionGroup"* }
%"class.mojo::ConnectionGroup" = type <{ i32 (...)**, %"class.base::RefCountedThreadSafe", [4 x i8], %"class.base::RepeatingCallback", %class.scoped_refptr.47, %"class.mojo::ConnectionGroup::Ref", %"struct.std::__1::atomic.49", [4 x i8] }>
%"class.base::RefCountedThreadSafe" = type { %"class.base::subtle::RefCountedThreadSafeBase" }
%"class.base::subtle::RefCountedThreadSafeBase" = type { %"class.base::AtomicRefCount" }
%"class.base::AtomicRefCount" = type { %"struct.std::__1::atomic" }
%"struct.std::__1::atomic" = type { %"struct.std::__1::__atomic_base" }
%"struct.std::__1::__atomic_base" = type { %"struct.std::__1::__atomic_base.44" }
%"struct.std::__1::__atomic_base.44" = type { %"struct.std::__1::__cxx_atomic_impl" }
%"struct.std::__1::__cxx_atomic_impl" = type { %"struct.std::__1::__cxx_atomic_base_impl" }
%"struct.std::__1::__cxx_atomic_base_impl" = type { i32 }
%"class.base::RepeatingCallback" = type { %"class.base::internal::CallbackBaseCopyable" }
%"class.base::internal::CallbackBaseCopyable" = type { %"class.base::internal::CallbackBase" }
%"class.base::internal::CallbackBase" = type { %class.scoped_refptr.45 }
%class.scoped_refptr.45 = type { %"class.base::internal::BindStateBase"* }
%"class.base::internal::BindStateBase" = type { %"class.base::RefCountedThreadSafe.46", void ()*, void (%"class.base::internal::BindStateBase"*)*, i1 (%"class.base::internal::BindStateBase"*, i32)* }
%"class.base::RefCountedThreadSafe.46" = type { %"class.base::subtle::RefCountedThreadSafeBase" }
%class.scoped_refptr.47 = type { %"class.base::SequencedTaskRunner"* }
%"class.base::SequencedTaskRunner" = type { %"class.base::TaskRunner.base", [4 x i8] }
%"class.base::TaskRunner.base" = type <{ i32 (...)**, %"class.base::RefCountedThreadSafe.48" }>
%"class.base::RefCountedThreadSafe.48" = type { %"class.base::subtle::RefCountedThreadSafeBase" }
%"struct.std::__1::atomic.49" = type { %"struct.std::__1::__atomic_base.50" }
%"struct.std::__1::__atomic_base.50" = type { %"struct.std::__1::__atomic_base.51" }
%"struct.std::__1::__atomic_base.51" = type { %"struct.std::__1::__cxx_atomic_impl.52" }
%"struct.std::__1::__cxx_atomic_impl.52" = type { %"struct.std::__1::__cxx_atomic_base_impl.53" }
%"struct.std::__1::__cxx_atomic_base_impl.53" = type { i32 }
%"class.media_router::mojom::MediaSink" = type { %"class.std::__1::basic_string", %"class.std::__1::basic_string", %"class.absl::optional", %"class.absl::optional", i32, i32, %"class.mojo::StructPtr" }
%"class.std::__1::basic_string" = type { %"class.std::__1::__compressed_pair" }
%"class.std::__1::__compressed_pair" = type { %"struct.std::__1::__compressed_pair_elem" }
%"struct.std::__1::__compressed_pair_elem" = type { %"struct.std::__1::basic_string<char, std::__1::char_traits<char>, std::__1::allocator<char> >::__rep" }
%"struct.std::__1::basic_string<char, std::__1::char_traits<char>, std::__1::allocator<char> >::__rep" = type { %union.anon }
%union.anon = type { %"struct.std::__1::basic_string<char, std::__1::char_traits<char>, std::__1::allocator<char> >::__long" }
%"struct.std::__1::basic_string<char, std::__1::char_traits<char>, std::__1::allocator<char> >::__long" = type { i8*, i64, i64 }
%"class.absl::optional" = type { %"class.absl::optional_internal::optional_data" }
%"class.absl::optional_internal::optional_data" = type { %"class.absl::optional_internal::optional_data_base" }
%"class.absl::optional_internal::optional_data_base" = type { %"class.absl::optional_internal::optional_data_dtor_base" }
%"class.absl::optional_internal::optional_data_dtor_base" = type { i8, %union.anon.1 }
%union.anon.1 = type { %"class.std::__1::basic_string" }
%"class.mojo::StructPtr" = type { %"class.std::__1::unique_ptr" }
%"class.std::__1::unique_ptr" = type { %"class.std::__1::__compressed_pair.2" }
%"class.std::__1::__compressed_pair.2" = type { %"struct.std::__1::__compressed_pair_elem.3" }
%"struct.std::__1::__compressed_pair_elem.3" = type { %"class.media_router::mojom::MediaSinkExtraData"* }
%"class.media_router::mojom::MediaSinkExtraData" = type { i32, %"union.media_router::mojom::MediaSinkExtraData::Union_" }
%"union.media_router::mojom::MediaSinkExtraData::Union_" = type { %"class.mojo::StructPtr.4"* }
%"class.mojo::StructPtr.4" = type { %"class.std::__1::unique_ptr.5" }
%"class.std::__1::unique_ptr.5" = type { %"class.std::__1::__compressed_pair.6" }
%"class.std::__1::__compressed_pair.6" = type { %"struct.std::__1::__compressed_pair_elem.7" }
%"struct.std::__1::__compressed_pair_elem.7" = type { %"class.media_router::mojom::DialMediaSink"* }
%"class.media_router::mojom::DialMediaSink" = type { %"class.net::IPAddress", %"class.std::__1::basic_string", %class.GURL }
%"class.net::IPAddress" = type { %"class.net::IPAddressBytes" }
%"class.net::IPAddressBytes" = type { %"struct.std::__1::array", i8 }
%"struct.std::__1::array" = type { [16 x i8] }
%class.GURL = type { %"class.std::__1::basic_string", i8, %"struct.url::Parsed", %"class.std::__1::unique_ptr.8" }
%"struct.url::Parsed" = type { %"struct.url::Component", %"struct.url::Component", %"struct.url::Component", %"struct.url::Component", %"struct.url::Component", %"struct.url::Component", %"struct.url::Component", %"struct.url::Component", i8, %"struct.url::Parsed"* }
%"struct.url::Component" = type { i32, i32 }
%"class.std::__1::unique_ptr.8" = type { %"class.std::__1::__compressed_pair.9" }
%"class.std::__1::__compressed_pair.9" = type { %"struct.std::__1::__compressed_pair_elem.10" }
%"struct.std::__1::__compressed_pair_elem.10" = type { %class.GURL* }
%"class.media_router::mojom::CastMediaSink" = type { %"class.net::IPEndPoint", %"class.std::__1::basic_string", i8, i32 }
%"class.net::IPEndPoint" = type { %"class.net::IPAddress", i16 }
%"class.media_router::mojom::MediaRoute" = type <{ %"class.std::__1::basic_string", %"class.std::__1::basic_string", %"class.absl::optional", %"class.std::__1::basic_string", %"class.std::__1::basic_string", %"class.std::__1::basic_string", i8, [3 x i8], i32, i8, i8, i8, i8, [4 x i8] }>
%"class.media_router::mojom::Issue" = type <{ %"class.std::__1::basic_string", %"class.std::__1::basic_string", i32, i8, [3 x i8], %"class.std::__1::basic_string", %"class.absl::optional", i32, [4 x i8], %"class.std::__1::vector.54", i32, [4 x i8] }>
%"class.std::__1::vector.54" = type { %"class.std::__1::__vector_base.55" }
%"class.std::__1::__vector_base.55" = type { i32*, i32*, %"class.std::__1::__compressed_pair.56" }
%"class.std::__1::__compressed_pair.56" = type { %"struct.std::__1::__compressed_pair_elem.57" }
%"struct.std::__1::__compressed_pair_elem.57" = type { i32* }
%"class.media_router::mojom::RouteMessage" = type { i32, %"class.absl::optional", %"class.absl::optional.61" }
%"class.absl::optional.61" = type { %"class.absl::optional_internal::optional_data.62" }
%"class.absl::optional_internal::optional_data.62" = type { %"class.absl::optional_internal::optional_data_base.63" }
%"class.absl::optional_internal::optional_data_base.63" = type { %"class.absl::optional_internal::optional_data_dtor_base.64" }
%"class.absl::optional_internal::optional_data_dtor_base.64" = type { i8, %union.anon.65 }
%union.anon.65 = type { %"class.std::__1::vector.66" }
%"class.std::__1::vector.66" = type { %"class.std::__1::__vector_base.67" }
%"class.std::__1::__vector_base.67" = type { i8*, i8*, %"class.std::__1::__compressed_pair.68" }
%"class.std::__1::__compressed_pair.68" = type { %"struct.std::__1::__compressed_pair_elem.69" }
%"struct.std::__1::__compressed_pair_elem.69" = type { i8* }
%"class.media_router::mojom::MediaRouteProviderConfig" = type { i8, i8, i8, i8, i8 }
%"class.media_router::mojom::RoutePresentationConnection" = type { %"class.mojo::PendingRemote", %"class.mojo::PendingReceiver" }
%"class.mojo::PendingRemote" = type { %"struct.mojo::internal::PendingRemoteState" }
%"struct.mojo::internal::PendingRemoteState" = type { %"class.mojo::ScopedHandleBase.73", i32 }
%"class.mojo::ScopedHandleBase.73" = type { %"class.mojo::MessagePipeHandle" }
%"class.mojo::MessagePipeHandle" = type { %"class.mojo::Handle" }
%"class.mojo::PendingReceiver" = type { %"struct.mojo::internal::PendingReceiverState" }
%"struct.mojo::internal::PendingReceiverState" = type { %"class.mojo::ScopedHandleBase.73", %"class.mojo::ConnectionGroup::Ref" }
%"class.media_router::mojom::CastSessionState" = type { %"class.std::__1::basic_string", %"class.std::__1::basic_string", %"class.std::__1::basic_string", %"class.std::__1::basic_string" }
%"class.media_router::mojom::CastProviderState" = type { %"class.std::__1::vector.74" }
%"class.std::__1::vector.74" = type { %"class.std::__1::__vector_base.75" }
%"class.std::__1::__vector_base.75" = type { %"class.mojo::InlinedStructPtr"*, %"class.mojo::InlinedStructPtr"*, %"class.std::__1::__compressed_pair.76" }
%"class.mojo::InlinedStructPtr" = type <{ %"class.media_router::mojom::CastSessionState", i32, [4 x i8] }>
%"class.std::__1::__compressed_pair.76" = type { %"struct.std::__1::__compressed_pair_elem.77" }
%"struct.std::__1::__compressed_pair_elem.77" = type { %"class.mojo::InlinedStructPtr"* }
%"class.media_router::mojom::ProviderState" = type { i32, %"union.media_router::mojom::ProviderState::Union_" }
%"union.media_router::mojom::ProviderState::Union_" = type { %"class.mojo::StructPtr.81"* }
%"class.mojo::StructPtr.81" = type { %"class.std::__1::unique_ptr.82" }
%"class.std::__1::unique_ptr.82" = type { %"class.std::__1::__compressed_pair.83" }
%"class.std::__1::__compressed_pair.83" = type { %"struct.std::__1::__compressed_pair_elem.84" }
%"struct.std::__1::__compressed_pair_elem.84" = type { %"class.media_router::mojom::CastProviderState"* }
%"class.media_router::mojom::MediaRouteProviderProxy" = type { %"class.media_router::mojom::MediaRouteProvider", %"class.mojo::MessageReceiverWithResponder"* }
%"class.media_router::mojom::MediaRouteProvider" = type { i32 (...)** }
%"class.mojo::MessageReceiverWithResponder" = type { %"class.mojo::MessageReceiver" }
%"class.mojo::MessageReceiver" = type { i32 (...)** }
%"class.media_router::mojom::MediaRouterProxy" = type { %"class.media_router::mojom::MediaRouter", %"class.mojo::MessageReceiverWithResponder"* }
%"class.media_router::mojom::MediaRouter" = type { i32 (...)** }
%"struct.std::__1::basic_string<char, std::__1::char_traits<char>, std::__1::allocator<char> >::__short" = type { [23 x i8], %struct.anon }
%struct.anon = type { i8 }
%"class.perfetto::TracedValue" = type <{ %"class.perfetto::protos::pbzero::DebugAnnotation"*, %"class.perfetto::internal::CheckedScope", [7 x i8] }>
%"class.perfetto::protos::pbzero::DebugAnnotation" = type { %"class.protozero::Message.base", [7 x i8] }
%"class.protozero::Message.base" = type <{ %"class.protozero::ScatteredStreamWriter"*, %"class.protozero::MessageArena"*, %"class.protozero::Message"*, i8*, i32, i32, i8 }>
%"class.protozero::ScatteredStreamWriter" = type { %"class.protozero::ScatteredStreamWriter::Delegate"*, %"struct.protozero::ContiguousMemoryRange", i8*, i64 }
%"class.protozero::ScatteredStreamWriter::Delegate" = type { i32 (...)** }
%"struct.protozero::ContiguousMemoryRange" = type { i8*, i8* }
%"class.protozero::MessageArena" = type { %"class.std::__1::list" }
%"class.std::__1::list" = type { %"class.std::__1::__list_imp" }
%"class.std::__1::__list_imp" = type { %"struct.std::__1::__list_node_base", %"class.std::__1::__compressed_pair.25" }
%"struct.std::__1::__list_node_base" = type { %"struct.std::__1::__list_node_base"*, %"struct.std::__1::__list_node_base"* }
%"class.std::__1::__compressed_pair.25" = type { %"struct.std::__1::__compressed_pair_elem.26" }
%"struct.std::__1::__compressed_pair_elem.26" = type { i64 }
%"class.protozero::Message" = type <{ %"class.protozero::ScatteredStreamWriter"*, %"class.protozero::MessageArena"*, %"class.protozero::Message"*, i8*, i32, i32, i8, [7 x i8] }>
%"class.perfetto::internal::CheckedScope" = type { i8 }
%"class.perfetto::TracedDictionary" = type <{ %"class.protozero::Message"*, i32, %"class.perfetto::internal::CheckedScope", [3 x i8] }>
%"class.perfetto::TracedArray" = type <{ %"class.perfetto::protos::pbzero::DebugAnnotation"*, %"class.perfetto::internal::CheckedScope", [7 x i8] }>
%"struct.std::__1::__murmur2_or_cityhash" = type { i8 }
%"class.mojo::StructPtr.15" = type { %"class.std::__1::unique_ptr.16" }
%"class.std::__1::unique_ptr.16" = type { %"class.std::__1::__compressed_pair.17" }
%"class.std::__1::__compressed_pair.17" = type { %"struct.std::__1::__compressed_pair_elem.18" }
%"struct.std::__1::__compressed_pair_elem.18" = type { %"class.media_router::mojom::CastMediaSink"* }
%"class.url::Origin" = type { %"class.url::SchemeHostPort", %"class.absl::optional.88" }
%"class.url::SchemeHostPort" = type <{ %"class.std::__1::basic_string", %"class.std::__1::basic_string", i16, [6 x i8] }>
%"class.absl::optional.88" = type { %"class.absl::optional_internal::optional_data.89" }
%"class.absl::optional_internal::optional_data.89" = type { %"class.absl::optional_internal::optional_data_base.90" }
%"class.absl::optional_internal::optional_data_base.90" = type { %"class.absl::optional_internal::optional_data_dtor_base.91" }
%"class.absl::optional_internal::optional_data_dtor_base.91" = type { i8, %union.anon.92 }
%union.anon.92 = type { %"class.url::Origin::Nonce" }
%"class.url::Origin::Nonce" = type { %"class.base::UnguessableToken" }
%"class.base::UnguessableToken" = type { %"class.base::Token" }
%"class.base::Token" = type { i64, i64 }
%"class.base::OnceCallback" = type { %"class.base::internal::CallbackBase" }
%"class.base::TimeDelta" = type { i64 }
%"class.mojo::internal::MessageFragment.93" = type { %"class.mojo::Message"*, i64 }
%"class.mojo::internal::MessageFragment.96" = type { %"class.mojo::Message"*, i64 }
%"class.media_router::mojom::internal::MediaRouteProvider_CreateRoute_Params_Data" = type { %"struct.mojo::internal::StructHeader", %"struct.mojo::internal::Pointer", %"struct.mojo::internal::Pointer", %"struct.mojo::internal::Pointer", %"struct.mojo::internal::Pointer.94", i32, i8, [3 x i8], %"struct.mojo::internal::Pointer.95" }
%"struct.mojo::internal::StructHeader" = type { i32, i32 }
%"struct.mojo::internal::Pointer" = type { i64 }
%"struct.mojo::internal::Pointer.94" = type { i64 }
%"struct.mojo::internal::Pointer.95" = type { i64 }
%"class.mojo::internal::Array_Data" = type { %"struct.mojo::internal::ArrayHeader" }
%"struct.mojo::internal::ArrayHeader" = type { i32, i32 }
%"class.url::mojom::internal::Origin_Data" = type { %"struct.mojo::internal::StructHeader", %"struct.mojo::internal::Pointer", %"struct.mojo::internal::Pointer", i16, [6 x i8], %"struct.mojo::internal::Pointer.97" }
%"struct.mojo::internal::Pointer.97" = type { i64 }
%"class.mojo_base::mojom::internal::TimeDelta_Data" = type { %"struct.mojo::internal::StructHeader", i64 }
%"class.media_router::mojom::internal::MediaRouteProvider_JoinRoute_Params_Data" = type { %"struct.mojo::internal::StructHeader", %"struct.mojo::internal::Pointer", %"struct.mojo::internal::Pointer", %"struct.mojo::internal::Pointer.94", i32, i8, [3 x i8], %"struct.mojo::internal::Pointer.95" }
%"class.media_router::mojom::internal::MediaRouteProvider_ConnectRouteByRouteId_Params_Data" = type { %"struct.mojo::internal::StructHeader", %"struct.mojo::internal::Pointer", %"struct.mojo::internal::Pointer", %"struct.mojo::internal::Pointer", %"struct.mojo::internal::Pointer.94", i32, i8, [3 x i8], %"struct.mojo::internal::Pointer.95" }
%"class.base::OnceCallback.107" = type { %"class.base::internal::CallbackBase" }
%"class.media_router::mojom::internal::MediaRouteProvider_TerminateRoute_Params_Data" = type { %"struct.mojo::internal::StructHeader", %"struct.mojo::internal::Pointer" }
%"class.media_router::mojom::internal::MediaRouteProvider_SendRouteMessage_Params_Data" = type { %"struct.mojo::internal::StructHeader", %"struct.mojo::internal::Pointer", %"struct.mojo::internal::Pointer" }
%"class.mojo::internal::ContainerValidateParams" = type { i32, i8, %"class.mojo::internal::ContainerValidateParams"*, %"class.mojo::internal::ContainerValidateParams"*, i1 (i32, %"class.mojo::internal::ValidationContext"*)* }
%"class.media_router::mojom::internal::MediaRouteProvider_SendRouteBinaryMessage_Params_Data" = type { %"struct.mojo::internal::StructHeader", %"struct.mojo::internal::Pointer", %"struct.mojo::internal::Pointer.111" }
%"struct.mojo::internal::Pointer.111" = type { i64 }
%"class.mojo::internal::Array_Data.113" = type { %"struct.mojo::internal::ArrayHeader" }
%"class.media_router::mojom::internal::MediaRouteProvider_StartObservingMediaSinks_Params_Data" = type { %"struct.mojo::internal::StructHeader", %"struct.mojo::internal::Pointer" }
%"class.media_router::mojom::internal::MediaRouteProvider_StopObservingMediaSinks_Params_Data" = type { %"struct.mojo::internal::StructHeader", %"struct.mojo::internal::Pointer" }
%"class.media_router::mojom::internal::MediaRouteProvider_StartObservingMediaRoutes_Params_Data" = type { %"struct.mojo::internal::StructHeader", %"struct.mojo::internal::Pointer" }
%"class.media_router::mojom::internal::MediaRouteProvider_StopObservingMediaRoutes_Params_Data" = type { %"struct.mojo::internal::StructHeader", %"struct.mojo::internal::Pointer" }
%"class.media_router::mojom::internal::MediaRouteProvider_StartListeningForRouteMessages_Params_Data" = type { %"struct.mojo::internal::StructHeader", %"struct.mojo::internal::Pointer" }
%"class.media_router::mojom::internal::MediaRouteProvider_StopListeningForRouteMessages_Params_Data" = type { %"struct.mojo::internal::StructHeader", %"struct.mojo::internal::Pointer" }
%"class.media_router::mojom::internal::MediaRouteProvider_DetachRoute_Params_Data" = type { %"struct.mojo::internal::StructHeader", %"struct.mojo::internal::Pointer" }
%"class.media_router::mojom::internal::MediaRouteProvider_EnableMdnsDiscovery_Params_Data" = type { %"struct.mojo::internal::StructHeader" }
%"class.media_router::mojom::internal::MediaRouteProvider_UpdateMediaSinks_Params_Data" = type { %"struct.mojo::internal::StructHeader", %"struct.mojo::internal::Pointer" }
%"class.mojo::PendingReceiver.123" = type { %"struct.mojo::internal::PendingReceiverState" }
%"class.mojo::PendingRemote.124" = type { %"struct.mojo::internal::PendingRemoteState" }
%"class.base::OnceCallback.125" = type { %"class.base::internal::CallbackBase" }
%"class.media_router::mojom::internal::MediaRouteProvider_CreateMediaRouteController_Params_Data" = type { %"struct.mojo::internal::StructHeader", %"struct.mojo::internal::Pointer", %"struct.mojo::internal::Handle_Data", %"struct.mojo::internal::Interface_Data", [4 x i8] }
%"struct.mojo::internal::Handle_Data" = type { i32 }
%"struct.mojo::internal::Interface_Data" = type { %"struct.mojo::internal::Handle_Data", i32 }
%"class.base::OnceCallback.127" = type { %"class.base::internal::CallbackBase" }
%"class.media_router::mojom::internal::MediaRouteProvider_GetState_Params_Data" = type { %"struct.mojo::internal::StructHeader" }
%"class.media_router::mojom::MediaRouteProvider_CreateRoute_ForwardToCallback" = type { %"class.mojo::MessageReceiver", %"class.base::OnceCallback" }
%"class.absl::optional.131" = type { %"class.absl::optional_internal::optional_data.132" }
%"class.absl::optional_internal::optional_data.132" = type { %"class.absl::optional_internal::optional_data_base.133" }
%"class.absl::optional_internal::optional_data_base.133" = type { %"class.absl::optional_internal::optional_data_dtor_base.134" }
%"class.absl::optional_internal::optional_data_dtor_base.134" = type { i8, [7 x i8], %union.anon.135 }
%union.anon.135 = type { %"class.media_router::MediaRoute" }
%"class.media_router::MediaRoute" = type <{ %"class.std::__1::basic_string", %"class.std::__1::basic_string", %"class.media_router::MediaSource", %"class.std::__1::basic_string", %"class.std::__1::basic_string", %"class.std::__1::basic_string", i8, [3 x i8], i32, i8, i8, i8, i8, [4 x i8] }>
%"class.media_router::MediaSource" = type { %"class.std::__1::basic_string", %class.GURL }
%"class.mojo::StructPtr.136" = type { %"class.std::__1::unique_ptr.137" }
%"class.std::__1::unique_ptr.137" = type { %"class.std::__1::__compressed_pair.138" }
%"class.std::__1::__compressed_pair.138" = type { %"struct.std::__1::__compressed_pair_elem.139" }
%"struct.std::__1::__compressed_pair_elem.139" = type { %"class.media_router::mojom::RoutePresentationConnection"* }
%"class.media_router::mojom::MediaRouteProvider_CreateRoute_ResponseParamsDataView" = type { %"class.media_router::mojom::internal::MediaRouteProvider_CreateRoute_ResponseParams_Data"*, %"class.mojo::Message"* }
%"class.media_router::mojom::internal::MediaRouteProvider_CreateRoute_ResponseParams_Data" = type { %"struct.mojo::internal::StructHeader", %"struct.mojo::internal::Pointer.129", %"struct.mojo::internal::Pointer.130", %"struct.mojo::internal::Pointer", i32, [4 x i8] }
%"struct.mojo::internal::Pointer.129" = type { i64 }
%"struct.mojo::internal::Pointer.130" = type { i64 }
%"class.media_router::mojom::internal::MediaRoute_Data" = type { %"struct.mojo::internal::StructHeader", %"struct.mojo::internal::Pointer", %"struct.mojo::internal::Pointer", %"struct.mojo::internal::Pointer", %"struct.mojo::internal::Pointer", %"struct.mojo::internal::Pointer", %"struct.mojo::internal::Pointer", i8, [3 x i8], i32 }
%"class.media_router::mojom::internal::RoutePresentationConnection_Data" = type { %"struct.mojo::internal::StructHeader", %"struct.mojo::internal::Interface_Data", %"struct.mojo::internal::Handle_Data", [4 x i8] }
%"class.media_router::mojom::MediaRouteProvider_CreateRoute_ProxyToResponder" = type { i64, i8, %"class.std::__1::unique_ptr.143" }
%"class.std::__1::unique_ptr.143" = type { %"class.std::__1::__compressed_pair.144" }
%"class.std::__1::__compressed_pair.144" = type { %"struct.std::__1::__compressed_pair_elem.145" }
%"struct.std::__1::__compressed_pair_elem.145" = type { %"class.mojo::MessageReceiverWithStatus"* }
%"class.mojo::MessageReceiverWithStatus" = type { %"class.mojo::MessageReceiver" }
%"class.mojo::internal::MessageFragment.150" = type { %"class.mojo::Message"*, i64 }
%"class.mojo::internal::MessageFragment.151" = type { %"class.mojo::Message"*, i64 }
%"struct.mojo::internal::MessageHeaderV1" = type { %"struct.mojo::internal::MessageHeader", i64 }
%"struct.mojo::internal::MessageHeader" = type { %"struct.mojo::internal::StructHeader", i32, i32, i32, i32 }
%"class.media_router::mojom::MediaRouteProvider_JoinRoute_ForwardToCallback" = type { %"class.mojo::MessageReceiver", %"class.base::OnceCallback" }
%"class.media_router::mojom::MediaRouteProvider_JoinRoute_ResponseParamsDataView" = type { %"class.media_router::mojom::internal::MediaRouteProvider_JoinRoute_ResponseParams_Data"*, %"class.mojo::Message"* }
%"class.media_router::mojom::internal::MediaRouteProvider_JoinRoute_ResponseParams_Data" = type { %"struct.mojo::internal::StructHeader", %"struct.mojo::internal::Pointer.129", %"struct.mojo::internal::Pointer.130", %"struct.mojo::internal::Pointer", i32, [4 x i8] }
%"class.media_router::mojom::MediaRouteProvider_JoinRoute_ProxyToResponder" = type { i64, i8, %"class.std::__1::unique_ptr.143" }
%"class.media_router::mojom::MediaRouteProvider_ConnectRouteByRouteId_ForwardToCallback" = type { %"class.mojo::MessageReceiver", %"class.base::OnceCallback" }
%"class.media_router::mojom::MediaRouteProvider_ConnectRouteByRouteId_ResponseParamsDataView" = type { %"class.media_router::mojom::internal::MediaRouteProvider_ConnectRouteByRouteId_ResponseParams_Data"*, %"class.mojo::Message"* }
%"class.media_router::mojom::internal::MediaRouteProvider_ConnectRouteByRouteId_ResponseParams_Data" = type { %"struct.mojo::internal::StructHeader", %"struct.mojo::internal::Pointer.129", %"struct.mojo::internal::Pointer.130", %"struct.mojo::internal::Pointer", i32, [4 x i8] }
%"class.media_router::mojom::MediaRouteProvider_ConnectRouteByRouteId_ProxyToResponder" = type { i64, i8, %"class.std::__1::unique_ptr.143" }
%"class.media_router::mojom::MediaRouteProvider_TerminateRoute_ForwardToCallback" = type { %"class.mojo::MessageReceiver", %"class.base::OnceCallback.107" }
%"class.media_router::mojom::MediaRouteProvider_TerminateRoute_ResponseParamsDataView" = type { %"class.media_router::mojom::internal::MediaRouteProvider_TerminateRoute_ResponseParams_Data"*, %"class.mojo::Message"* }
%"class.media_router::mojom::internal::MediaRouteProvider_TerminateRoute_ResponseParams_Data" = type { %"struct.mojo::internal::StructHeader", %"struct.mojo::internal::Pointer", i32, [4 x i8] }
%"class.media_router::mojom::MediaRouteProvider_TerminateRoute_ProxyToResponder" = type { i64, i8, %"class.std::__1::unique_ptr.143" }
%"class.media_router::mojom::MediaRouteProvider_CreateMediaRouteController_ForwardToCallback" = type { %"class.mojo::MessageReceiver", %"class.base::OnceCallback.125" }
%"class.media_router::mojom::MediaRouteProvider_CreateMediaRouteController_ProxyToResponder" = type { i64, i8, %"class.std::__1::unique_ptr.143" }
%"class.media_router::mojom::internal::MediaRouteProvider_CreateMediaRouteController_ResponseParams_Data" = type { %"struct.mojo::internal::StructHeader", i8, [7 x i8] }
%"class.media_router::mojom::MediaRouteProvider_GetState_ForwardToCallback" = type { %"class.mojo::MessageReceiver", %"class.base::OnceCallback.127" }
%"class.mojo::StructPtr.157" = type { %"class.std::__1::unique_ptr.158" }
%"class.std::__1::unique_ptr.158" = type { %"class.std::__1::__compressed_pair.159" }
%"class.std::__1::__compressed_pair.159" = type { %"struct.std::__1::__compressed_pair_elem.160" }
%"struct.std::__1::__compressed_pair_elem.160" = type { %"class.media_router::mojom::ProviderState"* }
%"class.media_router::mojom::internal::ProviderState_Data" = type { i32, i32, %"union.media_router::mojom::internal::ProviderState_Data::Union_" }
%"union.media_router::mojom::internal::ProviderState_Data::Union_" = type { %"struct.mojo::internal::Pointer.156" }
%"struct.mojo::internal::Pointer.156" = type { i64 }
%"class.media_router::mojom::MediaRouteProvider_GetState_ProxyToResponder" = type { i64, i8, %"class.std::__1::unique_ptr.143" }
%"class.mojo::internal::MessageFragment.406" = type { %"class.mojo::Message"*, i64 }
%"class.media_router::mojom::internal::MediaRouteProvider_GetState_ResponseParams_Data" = type { %"struct.mojo::internal::StructHeader", %"class.media_router::mojom::internal::ProviderState_Data" }
%"class.media_router::mojom::internal::CastProviderState_Data" = type { %"struct.mojo::internal::StructHeader", %"struct.mojo::internal::Pointer.285" }
%"struct.mojo::internal::Pointer.285" = type { i64 }
%"class.base::TaskAnnotator::ScopedSetIpcHash" = type { %"class.base::TaskAnnotator::ScopedSetIpcHash"*, i32, i8* }
%"class.media_router::mojom::MediaRouteProvider_CreateMediaRouteController_ParamsDataView" = type { %"class.media_router::mojom::internal::MediaRouteProvider_CreateMediaRouteController_Params_Data"*, %"class.mojo::Message"* }
%"class.media_router::mojom::MediaRouteProviderRequestValidator" = type { %"class.mojo::MessageReceiver" }
%"class.media_router::mojom::MediaRouteProviderResponseValidator" = type { %"class.mojo::MessageReceiver" }
%"class.mojo::PendingRemote.166" = type { %"struct.mojo::internal::PendingRemoteState" }
%"class.base::OnceCallback.167" = type { %"class.base::internal::CallbackBase" }
%"class.media_router::mojom::internal::MediaRouter_RegisterMediaRouteProvider_Params_Data" = type { %"struct.mojo::internal::StructHeader", i32, %"struct.mojo::internal::Interface_Data", [4 x i8] }
%"class.std::__1::vector.169" = type { %"class.std::__1::__vector_base.170" }
%"class.std::__1::__vector_base.170" = type { %"class.media_router::MediaSinkInternal"*, %"class.media_router::MediaSinkInternal"*, %"class.std::__1::__compressed_pair.172" }
%"class.media_router::MediaSinkInternal" = type { %"class.media_router::MediaSink", i32, %union.anon.171 }
%"class.media_router::MediaSink" = type { %"class.std::__1::basic_string", %"class.std::__1::basic_string", %"class.absl::optional", %"class.absl::optional", i32, i32 }
%union.anon.171 = type { %"struct.media_router::DialSinkExtraData" }
%"struct.media_router::DialSinkExtraData" = type { %"class.net::IPAddress", %"class.std::__1::basic_string", %class.GURL }
%"class.std::__1::__compressed_pair.172" = type { %"struct.std::__1::__compressed_pair_elem.173" }
%"struct.std::__1::__compressed_pair_elem.173" = type { %"class.media_router::MediaSinkInternal"* }
%"class.std::__1::vector.177" = type { %"class.std::__1::__vector_base.178" }
%"class.std::__1::__vector_base.178" = type { %"class.url::Origin"*, %"class.url::Origin"*, %"class.std::__1::__compressed_pair.179" }
%"class.std::__1::__compressed_pair.179" = type { %"struct.std::__1::__compressed_pair_elem.180" }
%"struct.std::__1::__compressed_pair_elem.180" = type { %"class.url::Origin"* }
%"class.mojo::internal::MessageFragment.414" = type { %"class.mojo::Message"*, i64 }
%"class.media_router::mojom::internal::MediaRouter_OnSinksReceived_Params_Data" = type { %"struct.mojo::internal::StructHeader", i32, [4 x i8], %"struct.mojo::internal::Pointer", %"struct.mojo::internal::Pointer.185", %"struct.mojo::internal::Pointer.186" }
%"struct.mojo::internal::Pointer.185" = type { i64 }
%"struct.mojo::internal::Pointer.186" = type { i64 }
%"class.mojo::internal::Array_Data.188" = type { %"struct.mojo::internal::ArrayHeader" }
%"class.media_router::mojom::internal::MediaSink_Data" = type { %"struct.mojo::internal::StructHeader", %"struct.mojo::internal::Pointer", %"struct.mojo::internal::Pointer", %"struct.mojo::internal::Pointer", %"struct.mojo::internal::Pointer", i32, i32, %"class.media_router::mojom::internal::MediaSinkExtraData_Data" }
%"class.media_router::mojom::internal::MediaSinkExtraData_Data" = type { i32, i32, %"union.media_router::mojom::internal::MediaSinkExtraData_Data::Union_" }
%"union.media_router::mojom::internal::MediaSinkExtraData_Data::Union_" = type { %"struct.mojo::internal::Pointer.260" }
%"struct.mojo::internal::Pointer.260" = type { i64 }
%"class.mojo::internal::Array_Data.190" = type { %"struct.mojo::internal::ArrayHeader" }
%"struct.media_router::IssueInfo" = type { %"class.std::__1::basic_string", i32, i32, %"class.std::__1::basic_string", %"class.std::__1::vector.54", %"class.std::__1::basic_string", %"class.std::__1::basic_string", i8, i32 }
%"class.mojo::internal::MessageFragment.192" = type { %"class.mojo::Message"*, i64 }
%"class.media_router::mojom::internal::MediaRouter_OnIssue_Params_Data" = type { %"struct.mojo::internal::StructHeader", %"struct.mojo::internal::Pointer.193" }
%"struct.mojo::internal::Pointer.193" = type { i64 }
%"class.media_router::mojom::internal::Issue_Data" = type { %"struct.mojo::internal::StructHeader", %"struct.mojo::internal::Pointer", %"struct.mojo::internal::Pointer", i32, i8, [3 x i8], %"struct.mojo::internal::Pointer", %"struct.mojo::internal::Pointer", i32, i32, %"struct.mojo::internal::Pointer.194" }
%"struct.mojo::internal::Pointer.194" = type { i64 }
%"class.std::__1::vector.195" = type { %"class.std::__1::__vector_base.196" }
%"class.std::__1::__vector_base.196" = type { %"class.media_router::MediaRoute"*, %"class.media_router::MediaRoute"*, %"class.std::__1::__compressed_pair.197" }
%"class.std::__1::__compressed_pair.197" = type { %"struct.std::__1::__compressed_pair_elem.198" }
%"struct.std::__1::__compressed_pair_elem.198" = type { %"class.media_router::MediaRoute"* }
%"class.std::__1::vector.202" = type { %"class.std::__1::__vector_base.203" }
%"class.std::__1::__vector_base.203" = type { %"class.std::__1::basic_string"*, %"class.std::__1::basic_string"*, %"class.std::__1::__compressed_pair.204" }
%"class.std::__1::__compressed_pair.204" = type { %"struct.std::__1::__compressed_pair_elem.205" }
%"struct.std::__1::__compressed_pair_elem.205" = type { %"class.std::__1::basic_string"* }
%"class.media_router::mojom::internal::MediaRouter_OnRoutesUpdated_Params_Data" = type { %"struct.mojo::internal::StructHeader", i32, [4 x i8], %"struct.mojo::internal::Pointer.210", %"struct.mojo::internal::Pointer", %"struct.mojo::internal::Pointer.211" }
%"struct.mojo::internal::Pointer.210" = type { i64 }
%"struct.mojo::internal::Pointer.211" = type { i64 }
%"class.mojo::internal::Array_Data.213" = type { %"struct.mojo::internal::ArrayHeader" }
%"class.mojo::internal::Array_Data.215" = type { %"struct.mojo::internal::ArrayHeader" }
%"class.media_router::mojom::internal::MediaRouter_OnSinkAvailabilityUpdated_Params_Data" = type { %"struct.mojo::internal::StructHeader", i32, i32 }
%"class.media_router::mojom::internal::MediaRouter_OnPresentationConnectionStateChanged_Params_Data" = type { %"struct.mojo::internal::StructHeader", %"struct.mojo::internal::Pointer", i32, [4 x i8] }
%"class.media_router::mojom::internal::MediaRouter_OnPresentationConnectionClosed_Params_Data" = type { %"struct.mojo::internal::StructHeader", %"struct.mojo::internal::Pointer", i32, [4 x i8], %"struct.mojo::internal::Pointer" }
%"class.std::__1::vector.219" = type { %"class.std::__1::__vector_base.220" }
%"class.std::__1::__vector_base.220" = type { %"class.mojo::StructPtr.221"*, %"class.mojo::StructPtr.221"*, %"class.std::__1::__compressed_pair.228" }
%"class.mojo::StructPtr.221" = type { %"class.std::__1::unique_ptr.222" }
%"class.std::__1::unique_ptr.222" = type { %"class.std::__1::__compressed_pair.223" }
%"class.std::__1::__compressed_pair.223" = type { %"struct.std::__1::__compressed_pair_elem.224" }
%"struct.std::__1::__compressed_pair_elem.224" = type { %"class.media_router::mojom::RouteMessage"* }
%"class.std::__1::__compressed_pair.228" = type { %"struct.std::__1::__compressed_pair_elem.229" }
%"struct.std::__1::__compressed_pair_elem.229" = type { %"class.mojo::StructPtr.221"* }
%"class.mojo::internal::MessageFragment.430" = type { %"class.mojo::Message"*, i64 }
%"class.media_router::mojom::internal::MediaRouter_OnRouteMessagesReceived_Params_Data" = type { %"struct.mojo::internal::StructHeader", %"struct.mojo::internal::Pointer", %"struct.mojo::internal::Pointer.234" }
%"struct.mojo::internal::Pointer.234" = type { i64 }
%"class.mojo::internal::Array_Data.236" = type { %"struct.mojo::internal::ArrayHeader" }
%"class.media_router::mojom::internal::RouteMessage_Data" = type { %"struct.mojo::internal::StructHeader", i32, [4 x i8], %"struct.mojo::internal::Pointer", %"struct.mojo::internal::Pointer.111" }
%"class.base::OnceCallback.237" = type { %"class.base::internal::CallbackBase" }
%"class.media_router::mojom::internal::MediaRouter_GetMediaSinkServiceStatus_Params_Data" = type { %"struct.mojo::internal::StructHeader" }
%"class.mojo::PendingReceiver.239" = type { %"struct.mojo::internal::PendingReceiverState" }
%"class.media_router::mojom::internal::MediaRouter_GetLogger_Params_Data" = type { %"struct.mojo::internal::StructHeader", %"struct.mojo::internal::Handle_Data", [4 x i8] }
%"class.media_router::mojom::internal::MediaRouter_GetLogsAsString_Params_Data" = type { %"struct.mojo::internal::StructHeader" }
%"class.mojo::PendingReceiver.242" = type { %"struct.mojo::internal::PendingReceiverState" }
%"class.media_router::mojom::internal::MediaRouter_GetMirroringServiceHostForTab_Params_Data" = type { %"struct.mojo::internal::StructHeader", i32, %"struct.mojo::internal::Handle_Data" }
%"class.media_router::mojom::internal::MediaRouter_GetMirroringServiceHostForDesktop_Params_Data" = type { %"struct.mojo::internal::StructHeader", i32, %"struct.mojo::internal::Handle_Data", %"struct.mojo::internal::Pointer" }
%"class.media_router::mojom::internal::MediaRouter_GetMirroringServiceHostForOffscreenTab_Params_Data" = type { %"struct.mojo::internal::StructHeader", %"struct.mojo::internal::Pointer.247", %"struct.mojo::internal::Pointer", %"struct.mojo::internal::Handle_Data", [4 x i8] }
%"struct.mojo::internal::Pointer.247" = type { i64 }
%"class.url::mojom::internal::Url_Data" = type { %"struct.mojo::internal::StructHeader", %"struct.mojo::internal::Pointer" }
%"class.media_router::mojom::MediaRouter_RegisterMediaRouteProvider_ForwardToCallback" = type { %"class.mojo::MessageReceiver", %"class.base::OnceCallback.167" }
%"class.mojo::StructPtr.249" = type { %"class.std::__1::unique_ptr.250" }
%"class.std::__1::unique_ptr.250" = type { %"class.std::__1::__compressed_pair.251" }
%"class.std::__1::__compressed_pair.251" = type { %"struct.std::__1::__compressed_pair_elem.252" }
%"struct.std::__1::__compressed_pair_elem.252" = type { %"class.media_router::mojom::MediaRouteProviderConfig"* }
%"class.media_router::mojom::MediaRouter_RegisterMediaRouteProvider_ProxyToResponder" = type { i64, i8, %"class.std::__1::unique_ptr.143" }
%"class.mojo::internal::MessageFragment.257" = type { %"class.mojo::Message"*, i64 }
%"class.media_router::mojom::internal::MediaRouter_RegisterMediaRouteProvider_ResponseParams_Data" = type { %"struct.mojo::internal::StructHeader", %"struct.mojo::internal::Pointer", %"struct.mojo::internal::Pointer.248" }
%"struct.mojo::internal::Pointer.248" = type { i64 }
%"class.media_router::mojom::internal::MediaRouteProviderConfig_Data" = type { %"struct.mojo::internal::StructHeader", i8, [7 x i8] }
%"class.media_router::mojom::MediaRouter_GetMediaSinkServiceStatus_ForwardToCallback" = type { %"class.mojo::MessageReceiver", %"class.base::OnceCallback.237" }
%"class.media_router::mojom::MediaRouter_GetMediaSinkServiceStatus_ProxyToResponder" = type { i64, i8, %"class.std::__1::unique_ptr.143" }
%"class.media_router::mojom::internal::MediaRouter_GetMediaSinkServiceStatus_ResponseParams_Data" = type { %"struct.mojo::internal::StructHeader", %"struct.mojo::internal::Pointer" }
%"class.media_router::mojom::MediaRouter_GetLogsAsString_ForwardToCallback" = type { %"class.mojo::MessageReceiver", %"class.base::OnceCallback.237" }
%"class.media_router::mojom::MediaRouter_GetLogsAsString_ProxyToResponder" = type { i64, i8, %"class.std::__1::unique_ptr.143" }
%"class.media_router::mojom::internal::MediaRouter_GetLogsAsString_ResponseParams_Data" = type { %"struct.mojo::internal::StructHeader", %"struct.mojo::internal::Pointer" }
%"class.media_router::mojom::MediaRouter_RegisterMediaRouteProvider_ParamsDataView" = type { %"class.media_router::mojom::internal::MediaRouter_RegisterMediaRouteProvider_Params_Data"*, %"class.mojo::Message"* }
%"class.media_router::mojom::MediaRouterRequestValidator" = type { %"class.mojo::MessageReceiver" }
%"class.media_router::mojom::MediaRouterResponseValidator" = type { %"class.mojo::MessageReceiver" }
%"class.mojo::StructPtr.262" = type { %"class.std::__1::unique_ptr.263" }
%"class.std::__1::unique_ptr.263" = type { %"class.std::__1::__compressed_pair.264" }
%"class.std::__1::__compressed_pair.264" = type { %"struct.std::__1::__compressed_pair_elem.265" }
%"struct.std::__1::__compressed_pair_elem.265" = type { %"class.media_router::mojom::MediaSink"* }
%"class.media_router::mojom::MediaSinkDataView" = type { %"class.media_router::mojom::internal::MediaSink_Data"*, %"class.mojo::Message"* }
%"class.media_router::mojom::internal::DialMediaSink_Data" = type { %"struct.mojo::internal::StructHeader", %"struct.mojo::internal::Pointer.269", %"struct.mojo::internal::Pointer", %"struct.mojo::internal::Pointer.247" }
%"struct.mojo::internal::Pointer.269" = type { i64 }
%"class.network::mojom::internal::IPAddress_Data" = type { %"struct.mojo::internal::StructHeader", %"struct.mojo::internal::Pointer.111" }
%"class.media_router::mojom::internal::CastMediaSink_Data" = type { %"struct.mojo::internal::StructHeader", %"struct.mojo::internal::Pointer.270", %"struct.mojo::internal::Pointer", i8, [3 x i8], i32 }
%"struct.mojo::internal::Pointer.270" = type { i64 }
%"class.network::mojom::internal::IPEndPoint_Data" = type { %"struct.mojo::internal::StructHeader", %"struct.mojo::internal::Pointer.269", i16, [6 x i8] }
%"class.mojo::StructPtr.271" = type { %"class.std::__1::unique_ptr.272" }
%"class.std::__1::unique_ptr.272" = type { %"class.std::__1::__compressed_pair.273" }
%"class.std::__1::__compressed_pair.273" = type { %"struct.std::__1::__compressed_pair_elem.274" }
%"struct.std::__1::__compressed_pair_elem.274" = type { %"class.media_router::mojom::MediaRoute"* }
%"class.media_router::mojom::MediaRouteDataView" = type { %"class.media_router::mojom::internal::MediaRoute_Data"*, %"class.mojo::Message"* }
%"class.mojo::StructPtr.278" = type { %"class.std::__1::unique_ptr.279" }
%"class.std::__1::unique_ptr.279" = type { %"class.std::__1::__compressed_pair.280" }
%"class.std::__1::__compressed_pair.280" = type { %"struct.std::__1::__compressed_pair_elem.281" }
%"struct.std::__1::__compressed_pair_elem.281" = type { %"class.media_router::mojom::Issue"* }
%"class.media_router::mojom::IssueDataView" = type { %"class.media_router::mojom::internal::Issue_Data"*, %"class.mojo::Message"* }
%"class.media_router::mojom::RouteMessageDataView" = type { %"class.media_router::mojom::internal::RouteMessage_Data"*, %"class.mojo::Message"* }
%"class.media_router::mojom::RoutePresentationConnectionDataView" = type { %"class.media_router::mojom::internal::RoutePresentationConnection_Data"*, %"class.mojo::Message"* }
%"class.media_router::mojom::internal::CastSessionState_Data" = type { %"struct.mojo::internal::StructHeader", %"struct.mojo::internal::Pointer", %"struct.mojo::internal::Pointer", %"struct.mojo::internal::Pointer", %"struct.mojo::internal::Pointer" }
%"class.mojo::internal::Array_Data.408" = type { %"struct.mojo::internal::ArrayHeader" }
%"class.std::__1::unique_ptr.339" = type { %"class.std::__1::__compressed_pair.340" }
%"class.std::__1::__compressed_pair.340" = type { %"struct.std::__1::__compressed_pair_elem.341" }
%"struct.std::__1::__compressed_pair_elem.341" = type { %"class.media_router::mojom::MediaRouteProvider_GetState_ProxyToResponder"* }
%"class.absl::optional.394" = type { %"class.absl::optional_internal::optional_data.395" }
%"class.absl::optional_internal::optional_data.395" = type { %"class.absl::optional_internal::optional_data_base.396" }
%"class.absl::optional_internal::optional_data_base.396" = type { %"class.absl::optional_internal::optional_data_dtor_base.397" }
%"class.absl::optional_internal::optional_data_dtor_base.397" = type { i8, %union.anon.398 }
%union.anon.398 = type { %"class.base::UnguessableToken" }
%"class.mojo_base::mojom::internal::UnguessableToken_Data" = type { %"struct.mojo::internal::StructHeader", i64, i64 }
%"class.mojo::internal::MessageFragment.410" = type { %"class.mojo::Message"*, i64 }
%"class.std::__1::__vector_base_common" = type { i8 }
%"class.mojo::internal::MessageFragment.416" = type { %"class.mojo::Message"*, i64 }
%"class.mojo::internal::MessageFragment.417" = type { %"class.mojo::Message"*, i64 }
%"class.mojo::internal::MessageFragment.418" = type { %"class.mojo::Message"*, i64 }
%"struct.media_router::CastSinkExtraData" = type <{ %"class.net::IPEndPoint", i32, %"class.std::__1::basic_string", i8, [3 x i8], i32, i8, [7 x i8] }>
%"class.mojo::internal::MessageFragment.419" = type { %"class.mojo::Message"*, i64 }
%"class.mojo::internal::Array_Data.425" = type { %"struct.mojo::internal::ArrayHeader" }

$_ZN4mojo8internal23ContainerValidateParamsD2Ev = comdat any

$_ZN12media_router5mojom60MediaRouteProvider_CreateMediaRouteController_ParamsDataView12TakeObserverIN4mojo13PendingRemoteINS0_19MediaStatusObserverEEEEET_v = comdat any

$_ZN12media_router5mojom53MediaRouter_RegisterMediaRouteProvider_ParamsDataView23TakeMediaRouterProviderIN4mojo13PendingRemoteINS0_18MediaRouteProviderEEEEET_v = comdat any

$_ZN12media_router5mojom35RoutePresentationConnectionDataView20TakeConnectionRemoteIN4mojo13PendingRemoteIN5blink5mojom22PresentationConnectionEEEEET_v = comdat any

$_ZN12media_router5mojom18MediaSinkExtraData16NewDialMediaSinkEN4mojo9StructPtrINS0_13DialMediaSinkEEE = comdat any

$_ZN12media_router5mojom48MediaRouteProvider_CreateRoute_ForwardToCallbackD2Ev = comdat any

$_ZN12media_router5mojom48MediaRouteProvider_CreateRoute_ForwardToCallbackD0Ev = comdat any

$_ZN12media_router5mojom46MediaRouteProvider_JoinRoute_ForwardToCallbackD2Ev = comdat any

$_ZN12media_router5mojom46MediaRouteProvider_JoinRoute_ForwardToCallbackD0Ev = comdat any

$_ZN12media_router5mojom58MediaRouteProvider_ConnectRouteByRouteId_ForwardToCallbackD2Ev = comdat any

$_ZN12media_router5mojom58MediaRouteProvider_ConnectRouteByRouteId_ForwardToCallbackD0Ev = comdat any

$_ZN12media_router5mojom51MediaRouteProvider_TerminateRoute_ForwardToCallbackD2Ev = comdat any

$_ZN12media_router5mojom51MediaRouteProvider_TerminateRoute_ForwardToCallbackD0Ev = comdat any

$_ZN12media_router5mojom63MediaRouteProvider_CreateMediaRouteController_ForwardToCallbackD2Ev = comdat any

$_ZN12media_router5mojom63MediaRouteProvider_CreateMediaRouteController_ForwardToCallbackD0Ev = comdat any

$_ZN12media_router5mojom45MediaRouteProvider_GetState_ForwardToCallbackD2Ev = comdat any

$_ZN12media_router5mojom45MediaRouteProvider_GetState_ForwardToCallbackD0Ev = comdat any

$_ZN12media_router5mojom18MediaRouteProviderD2Ev = comdat any

$_ZN12media_router5mojom23MediaRouteProviderProxyD0Ev = comdat any

$_ZN4mojo15MessageReceiverD2Ev = comdat any

$_ZN12media_router5mojom34MediaRouteProviderRequestValidatorD0Ev = comdat any

$_ZN12media_router5mojom35MediaRouteProviderResponseValidatorD0Ev = comdat any

$_ZN12media_router5mojom56MediaRouter_RegisterMediaRouteProvider_ForwardToCallbackD2Ev = comdat any

$_ZN12media_router5mojom56MediaRouter_RegisterMediaRouteProvider_ForwardToCallbackD0Ev = comdat any

$_ZN12media_router5mojom55MediaRouter_GetMediaSinkServiceStatus_ForwardToCallbackD2Ev = comdat any

$_ZN12media_router5mojom55MediaRouter_GetMediaSinkServiceStatus_ForwardToCallbackD0Ev = comdat any

$_ZN12media_router5mojom45MediaRouter_GetLogsAsString_ForwardToCallbackD2Ev = comdat any

$_ZN12media_router5mojom45MediaRouter_GetLogsAsString_ForwardToCallbackD0Ev = comdat any

$_ZN12media_router5mojom16MediaRouterProxyD0Ev = comdat any

$_ZN12media_router5mojom27MediaRouterRequestValidatorD0Ev = comdat any

$_ZN12media_router5mojom28MediaRouterResponseValidatorD0Ev = comdat any

$_ZN4base8internal7InvokerINS0_9BindStateIMN12media_router5mojom47MediaRouteProvider_CreateRoute_ProxyToResponderEFvRKN4absl8optionalINS3_10MediaRouteEEEN4mojo9StructPtrINS4_27RoutePresentationConnectionEEERKNS7_INSt3__112basic_stringIcNSG_11char_traitsIcEENSG_9allocatorIcEEEEEENS3_18RouteRequestResult10ResultCodeEEJNSG_10unique_ptrIS5_NSG_14default_deleteIS5_EEEEEEEFvSB_SF_SP_SR_EE7RunOnceEPNS0_13BindStateBaseESB_OSF_SP_SR_ = comdat any

$_ZN4base8internal9BindStateIMN12media_router5mojom47MediaRouteProvider_CreateRoute_ProxyToResponderEFvRKN4absl8optionalINS2_10MediaRouteEEEN4mojo9StructPtrINS3_27RoutePresentationConnectionEEERKNS6_INSt3__112basic_stringIcNSF_11char_traitsIcEENSF_9allocatorIcEEEEEENS2_18RouteRequestResult10ResultCodeEEJNSF_10unique_ptrIS4_NSF_14default_deleteIS4_EEEEEE7DestroyEPKNS0_13BindStateBaseE = comdat any

$_ZN4base8internal7InvokerINS0_9BindStateIMN12media_router5mojom45MediaRouteProvider_JoinRoute_ProxyToResponderEFvRKN4absl8optionalINS3_10MediaRouteEEEN4mojo9StructPtrINS4_27RoutePresentationConnectionEEERKNS7_INSt3__112basic_stringIcNSG_11char_traitsIcEENSG_9allocatorIcEEEEEENS3_18RouteRequestResult10ResultCodeEEJNSG_10unique_ptrIS5_NSG_14default_deleteIS5_EEEEEEEFvSB_SF_SP_SR_EE7RunOnceEPNS0_13BindStateBaseESB_OSF_SP_SR_ = comdat any

$_ZN4base8internal9BindStateIMN12media_router5mojom45MediaRouteProvider_JoinRoute_ProxyToResponderEFvRKN4absl8optionalINS2_10MediaRouteEEEN4mojo9StructPtrINS3_27RoutePresentationConnectionEEERKNS6_INSt3__112basic_stringIcNSF_11char_traitsIcEENSF_9allocatorIcEEEEEENS2_18RouteRequestResult10ResultCodeEEJNSF_10unique_ptrIS4_NSF_14default_deleteIS4_EEEEEE7DestroyEPKNS0_13BindStateBaseE = comdat any

$_ZN4base8internal7InvokerINS0_9BindStateIMN12media_router5mojom57MediaRouteProvider_ConnectRouteByRouteId_ProxyToResponderEFvRKN4absl8optionalINS3_10MediaRouteEEEN4mojo9StructPtrINS4_27RoutePresentationConnectionEEERKNS7_INSt3__112basic_stringIcNSG_11char_traitsIcEENSG_9allocatorIcEEEEEENS3_18RouteRequestResult10ResultCodeEEJNSG_10unique_ptrIS5_NSG_14default_deleteIS5_EEEEEEEFvSB_SF_SP_SR_EE7RunOnceEPNS0_13BindStateBaseESB_OSF_SP_SR_ = comdat any

$_ZN4base8internal9BindStateIMN12media_router5mojom57MediaRouteProvider_ConnectRouteByRouteId_ProxyToResponderEFvRKN4absl8optionalINS2_10MediaRouteEEEN4mojo9StructPtrINS3_27RoutePresentationConnectionEEERKNS6_INSt3__112basic_stringIcNSF_11char_traitsIcEENSF_9allocatorIcEEEEEENS2_18RouteRequestResult10ResultCodeEEJNSF_10unique_ptrIS4_NSF_14default_deleteIS4_EEEEEE7DestroyEPKNS0_13BindStateBaseE = comdat any

$_ZN4base8internal7InvokerINS0_9BindStateIMN12media_router5mojom50MediaRouteProvider_TerminateRoute_ProxyToResponderEFvRKN4absl8optionalINSt3__112basic_stringIcNS8_11char_traitsIcEENS8_9allocatorIcEEEEEENS3_18RouteRequestResult10ResultCodeEEJNS8_10unique_ptrIS5_NS8_14default_deleteIS5_EEEEEEEFvSH_SJ_EE7RunOnceEPNS0_13BindStateBaseESH_SJ_ = comdat any

$_ZN4base8internal9BindStateIMN12media_router5mojom50MediaRouteProvider_TerminateRoute_ProxyToResponderEFvRKN4absl8optionalINSt3__112basic_stringIcNS7_11char_traitsIcEENS7_9allocatorIcEEEEEENS2_18RouteRequestResult10ResultCodeEEJNS7_10unique_ptrIS4_NS7_14default_deleteIS4_EEEEEE7DestroyEPKNS0_13BindStateBaseE = comdat any

$_ZN4base8internal7InvokerINS0_9BindStateIMN12media_router5mojom62MediaRouteProvider_CreateMediaRouteController_ProxyToResponderEFvbEJNSt3__110unique_ptrIS5_NS8_14default_deleteIS5_EEEEEEEFvbEE7RunOnceEPNS0_13BindStateBaseEb = comdat any

$_ZN4base8internal9BindStateIMN12media_router5mojom62MediaRouteProvider_CreateMediaRouteController_ProxyToResponderEFvbEJNSt3__110unique_ptrIS4_NS7_14default_deleteIS4_EEEEEE7DestroyEPKNS0_13BindStateBaseE = comdat any

$_ZN4base8internal7InvokerINS0_9BindStateIMN12media_router5mojom44MediaRouteProvider_GetState_ProxyToResponderEFvN4mojo9StructPtrINS4_13ProviderStateEEEEJNSt3__110unique_ptrIS5_NSC_14default_deleteIS5_EEEEEEEFvS9_EE7RunOnceEPNS0_13BindStateBaseEOS9_ = comdat any

$_ZN4base8internal13FunctorTraitsIMN12media_router5mojom44MediaRouteProvider_GetState_ProxyToResponderEFvN4mojo9StructPtrINS3_13ProviderStateEEEEvE6InvokeISA_NSt3__110unique_ptrIS4_NSD_14default_deleteIS4_EEEEJS8_EEEvT_OT0_DpOT1_ = comdat any

$_ZN4base8internal9BindStateIMN12media_router5mojom44MediaRouteProvider_GetState_ProxyToResponderEFvN4mojo9StructPtrINS3_13ProviderStateEEEEJNSt3__110unique_ptrIS4_NSB_14default_deleteIS4_EEEEEE7DestroyEPKNS0_13BindStateBaseE = comdat any

$_ZN12media_router5mojom11MediaRouterD2Ev = comdat any

$_ZN4base8internal7InvokerINS0_9BindStateIMN12media_router5mojom55MediaRouter_RegisterMediaRouteProvider_ProxyToResponderEFvRKNSt3__112basic_stringIcNS6_11char_traitsIcEENS6_9allocatorIcEEEEN4mojo9StructPtrINS4_24MediaRouteProviderConfigEEEEJNS6_10unique_ptrIS5_NS6_14default_deleteIS5_EEEEEEEFvSE_SI_EE7RunOnceEPNS0_13BindStateBaseESE_OSI_ = comdat any

$_ZN4base8internal9BindStateIMN12media_router5mojom55MediaRouter_RegisterMediaRouteProvider_ProxyToResponderEFvRKNSt3__112basic_stringIcNS5_11char_traitsIcEENS5_9allocatorIcEEEEN4mojo9StructPtrINS3_24MediaRouteProviderConfigEEEEJNS5_10unique_ptrIS4_NS5_14default_deleteIS4_EEEEEE7DestroyEPKNS0_13BindStateBaseE = comdat any

$_ZN4base8internal7InvokerINS0_9BindStateIMN12media_router5mojom54MediaRouter_GetMediaSinkServiceStatus_ProxyToResponderEFvRKNSt3__112basic_stringIcNS6_11char_traitsIcEENS6_9allocatorIcEEEEEJNS6_10unique_ptrIS5_NS6_14default_deleteIS5_EEEEEEEFvSE_EE7RunOnceEPNS0_13BindStateBaseESE_ = comdat any

$_ZN4base8internal9BindStateIMN12media_router5mojom54MediaRouter_GetMediaSinkServiceStatus_ProxyToResponderEFvRKNSt3__112basic_stringIcNS5_11char_traitsIcEENS5_9allocatorIcEEEEEJNS5_10unique_ptrIS4_NS5_14default_deleteIS4_EEEEEE7DestroyEPKNS0_13BindStateBaseE = comdat any

$_ZN4base8internal7InvokerINS0_9BindStateIMN12media_router5mojom44MediaRouter_GetLogsAsString_ProxyToResponderEFvRKNSt3__112basic_stringIcNS6_11char_traitsIcEENS6_9allocatorIcEEEEEJNS6_10unique_ptrIS5_NS6_14default_deleteIS5_EEEEEEEFvSE_EE7RunOnceEPNS0_13BindStateBaseESE_ = comdat any

$_ZN4base8internal9BindStateIMN12media_router5mojom44MediaRouter_GetLogsAsString_ProxyToResponderEFvRKNSt3__112basic_stringIcNS5_11char_traitsIcEENS5_9allocatorIcEEEEEJNS5_10unique_ptrIS4_NS5_14default_deleteIS4_EEEEEE7DestroyEPKNS0_13BindStateBaseE = comdat any

$_ZNSt3__121__murmur2_or_cityhashImLm64EEclEPKvm = comdat any

$_ZNSt3__121__murmur2_or_cityhashImLm64EE18__hash_len_0_to_16EPKcm = comdat any

$_ZN4mojo8internal10SerializerINS_14StringDataViewEKNSt3__112basic_stringIcNS3_11char_traitsIcEENS3_9allocatorIcEEEEE9SerializeERSA_RNS0_15MessageFragmentINS0_10Array_DataIcEEEE = comdat any

$_ZN4mojo8internal10SerializerIN3url5mojom14OriginDataViewEKNS2_6OriginEE9SerializeERS6_RNS0_15MessageFragmentINS3_8internal11Origin_DataEEE = comdat any

$_ZN4mojo8internal11DeserializeINS_14StringDataViewERPNS0_10Array_DataIcEEN4absl8optionalINSt3__112basic_stringIcNS9_11char_traitsIcEENS9_9allocatorIcEEEEEEJRPNS_7MessageEELPv0EEEbOT0_PT1_DpOT2_ = comdat any

$_ZN4mojo8internal10SerializerIN12media_router5mojom18MediaRouteDataViewEKNS2_10MediaRouteEE9SerializeERS6_RNS0_15MessageFragmentINS3_8internal15MediaRoute_DataEEE = comdat any

$_ZN4mojo8internal10SerializerIN12media_router5mojom35RoutePresentationConnectionDataViewENS_9StructPtrINS3_27RoutePresentationConnectionEEEE9SerializeERS7_RNS0_15MessageFragmentINS3_8internal32RoutePresentationConnection_DataEEE = comdat any

$_ZN4mojo8internal10SerializerIN12media_router5mojom25CastProviderStateDataViewEKNS_9StructPtrINS3_17CastProviderStateEEEE9SerializeERS8_RNS0_15MessageFragmentINS3_8internal22CastProviderState_DataEEE = comdat any

$_ZN4mojo8internal10SerializerIN12media_router5mojom24CastSessionStateDataViewEKNS_16InlinedStructPtrINS3_16CastSessionStateEEEE9SerializeERS8_RNS0_15MessageFragmentINS3_8internal21CastSessionState_DataEEE = comdat any

$_ZN4mojo8internal10SerializerIN12media_router5mojom17MediaSinkDataViewEKNS2_17MediaSinkInternalEE9SerializeERS6_RNS0_15MessageFragmentINS3_8internal14MediaSink_DataEEE = comdat any

$_ZN4mojo8internal10SerializerIN12media_router5mojom26MediaSinkExtraDataDataViewEKNS2_17MediaSinkInternalEE9SerializeERS6_RNS0_15MessageFragmentINS3_8internal23MediaSinkExtraData_DataEEEb = comdat any

$_ZN4mojo8internal10SerializerIN12media_router5mojom21DialMediaSinkDataViewEKNS2_17DialSinkExtraDataEE9SerializeERS6_RNS0_15MessageFragmentINS3_8internal18DialMediaSink_DataEEE = comdat any

$_ZN4mojo8internal10SerializerIN7network5mojom17IPAddressDataViewEKN3net9IPAddressEE9SerializeERS7_RNS0_15MessageFragmentINS3_8internal14IPAddress_DataEEE = comdat any

$_ZN4mojo8internal10SerializerIN12media_router5mojom21CastMediaSinkDataViewEKNS2_17CastSinkExtraDataEE9SerializeERS6_RNS0_15MessageFragmentINS3_8internal18CastMediaSink_DataEEE = comdat any

$_ZN4mojo8internal10SerializerIN12media_router5mojom13IssueDataViewEKNS2_9IssueInfoEE9SerializeERS6_RNS0_15MessageFragmentINS3_8internal10Issue_DataEEE = comdat any

$_ZN12media_router5mojom8internal21Issue_ActionType_Data8ValidateEiPN4mojo8internal17ValidationContextE = comdat any

$_ZN4mojo8internal10SerializerIN12media_router5mojom20RouteMessageDataViewENS_9StructPtrINS3_12RouteMessageEEEE9SerializeERS7_RNS0_15MessageFragmentINS3_8internal17RouteMessage_DataEEE = comdat any

$_ZN4mojo8internal10SerializerIN12media_router5mojom32MediaRouteProviderConfigDataViewENS_9StructPtrINS3_24MediaRouteProviderConfigEEEE9SerializeERS7_RNS0_15MessageFragmentINS3_8internal29MediaRouteProviderConfig_DataEEE = comdat any

$_ZN4mojo8internal15ArraySerializerINS_13ArrayDataViewIN12media_router5mojom17MediaSinkDataViewEEENSt3__16vectorINS3_17MediaSinkInternalENS7_9allocatorIS9_EEEENS0_13ArrayIteratorINS_11ArrayTraitsISC_EESC_Lb0EEEvE19DeserializeElementsEPNS0_10Array_DataINS0_7PointerINS4_8internal14MediaSink_DataEEEEEPSC_PNS_7MessageE = comdat any

$_ZN4mojo8internal15ArraySerializerINS_13ArrayDataViewIN3url5mojom14OriginDataViewEEENSt3__16vectorINS3_6OriginENS7_9allocatorIS9_EEEENS0_13ArrayIteratorINS_11ArrayTraitsISC_EESC_Lb0EEEvE19DeserializeElementsEPNS0_10Array_DataINS0_7PointerINS4_8internal11Origin_DataEEEEEPSC_PNS_7MessageE = comdat any

$_ZN4mojo8internal15ArraySerializerINS_13ArrayDataViewIN12media_router5mojom18MediaRouteDataViewEEENSt3__16vectorINS3_10MediaRouteENS7_9allocatorIS9_EEEENS0_13ArrayIteratorINS_11ArrayTraitsISC_EESC_Lb0EEEvE19DeserializeElementsEPNS0_10Array_DataINS0_7PointerINS4_8internal15MediaRoute_DataEEEEEPSC_PNS_7MessageE = comdat any

$_ZN4mojo8internal15ArraySerializerINS_13ArrayDataViewINS_14StringDataViewEEENSt3__16vectorINS5_12basic_stringIcNS5_11char_traitsIcEENS5_9allocatorIcEEEENSA_ISC_EEEENS0_13ArrayIteratorINS_11ArrayTraitsISE_EESE_Lb0EEEvE19DeserializeElementsEPNS0_10Array_DataINS0_7PointerINSK_IcEEEEEEPSE_PNS_7MessageE = comdat any

$_ZN4mojo8internal15ArraySerializerINS_13ArrayDataViewIN12media_router5mojom20RouteMessageDataViewEEENSt3__16vectorINS_9StructPtrINS4_12RouteMessageEEENS7_9allocatorISB_EEEENS0_13ArrayIteratorINS_11ArrayTraitsISE_EESE_Lb0EEEvE19DeserializeElementsEPNS0_10Array_DataINS0_7PointerINS4_8internal17RouteMessage_DataEEEEEPSE_PNS_7MessageE = comdat any

$_ZN4mojo11ArrayTraitsINSt3__16vectorINS_9StructPtrIN12media_router5mojom12RouteMessageEEENS1_9allocatorIS7_EEEEE6ResizeERSA_m = comdat any

$_ZN4mojo8internal11DeserializeINS_13ArrayDataViewIhEERPNS0_10Array_DataIhEEN4absl8optionalINSt3__16vectorIhNSA_9allocatorIhEEEEEEJRPNS_7MessageEELPv0EEEbOT0_PT1_DpOT2_ = comdat any

$_ZN4mojo16InlinedStructPtrIN12media_router5mojom16CastSessionStateEE4TakeEPS4_ = comdat any

$_ZNSt3__14swapIN12media_router5mojom16CastSessionStateEEENS_9enable_ifIXaasr21is_move_constructibleIT_EE5valuesr18is_move_assignableIS5_EE5valueEvE4typeERS5_S8_ = comdat any

$_ZN12media_router5mojom16CastSessionStateaSERKS1_ = comdat any

$_ZN4mojo8internal15ArraySerializerINS_13ArrayDataViewIN12media_router5mojom24CastSessionStateDataViewEEENSt3__16vectorINS_16InlinedStructPtrINS4_16CastSessionStateEEENS7_9allocatorISB_EEEENS0_13ArrayIteratorINS_11ArrayTraitsISE_EESE_Lb0EEEvE19DeserializeElementsEPNS0_10Array_DataINS0_7PointerINS4_8internal21CastSessionState_DataEEEEEPSE_PNS_7MessageE = comdat any

$_ZN4mojo11ArrayTraitsINSt3__16vectorINS_16InlinedStructPtrIN12media_router5mojom16CastSessionStateEEENS1_9allocatorIS7_EEEEE6ResizeERSA_m = comdat any

@.str = private unnamed_addr constant [8 x i8] c"sink_id\00", align 1
@.str.1 = private unnamed_addr constant [8 x i8] c"<value>\00", align 1
@.str.2 = private unnamed_addr constant [5 x i8] c"name\00", align 1
@.str.3 = private unnamed_addr constant [12 x i8] c"description\00", align 1
@.str.4 = private unnamed_addr constant [7 x i8] c"domain\00", align 1
@.str.5 = private unnamed_addr constant [10 x i8] c"icon_type\00", align 1
@.str.6 = private unnamed_addr constant [12 x i8] c"provider_id\00", align 1
@.str.7 = private unnamed_addr constant [11 x i8] c"extra_data\00", align 1
@.str.8 = private unnamed_addr constant [11 x i8] c"ip_address\00", align 1
@.str.9 = private unnamed_addr constant [11 x i8] c"model_name\00", align 1
@.str.10 = private unnamed_addr constant [8 x i8] c"app_url\00", align 1
@.str.11 = private unnamed_addr constant [12 x i8] c"ip_endpoint\00", align 1
@.str.12 = private unnamed_addr constant [13 x i8] c"capabilities\00", align 1
@.str.13 = private unnamed_addr constant [16 x i8] c"cast_channel_id\00", align 1
@.str.14 = private unnamed_addr constant [15 x i8] c"media_route_id\00", align 1
@.str.15 = private unnamed_addr constant [16 x i8] c"presentation_id\00", align 1
@.str.16 = private unnamed_addr constant [13 x i8] c"media_source\00", align 1
@.str.17 = private unnamed_addr constant [14 x i8] c"media_sink_id\00", align 1
@.str.18 = private unnamed_addr constant [16 x i8] c"media_sink_name\00", align 1
@.str.19 = private unnamed_addr constant [9 x i8] c"is_local\00", align 1
@.str.20 = private unnamed_addr constant [16 x i8] c"controller_type\00", align 1
@.str.21 = private unnamed_addr constant [12 x i8] c"for_display\00", align 1
@.str.22 = private unnamed_addr constant [18 x i8] c"is_off_the_record\00", align 1
@.str.23 = private unnamed_addr constant [22 x i8] c"is_local_presentation\00", align 1
@.str.24 = private unnamed_addr constant [14 x i8] c"is_connecting\00", align 1
@.str.25 = private unnamed_addr constant [9 x i8] c"route_id\00", align 1
@.str.26 = private unnamed_addr constant [9 x i8] c"severity\00", align 1
@.str.27 = private unnamed_addr constant [12 x i8] c"is_blocking\00", align 1
@.str.28 = private unnamed_addr constant [6 x i8] c"title\00", align 1
@.str.29 = private unnamed_addr constant [8 x i8] c"message\00", align 1
@.str.30 = private unnamed_addr constant [15 x i8] c"default_action\00", align 1
@.str.31 = private unnamed_addr constant [18 x i8] c"secondary_actions\00", align 1
@.str.32 = private unnamed_addr constant [13 x i8] c"help_page_id\00", align 1
@.str.33 = private unnamed_addr constant [5 x i8] c"type\00", align 1
@.str.34 = private unnamed_addr constant [5 x i8] c"data\00", align 1
@.str.35 = private unnamed_addr constant [22 x i8] c"enable_dial_discovery\00", align 1
@.str.36 = private unnamed_addr constant [22 x i8] c"enable_cast_discovery\00", align 1
@.str.37 = private unnamed_addr constant [23 x i8] c"enable_dial_sink_query\00", align 1
@.str.38 = private unnamed_addr constant [23 x i8] c"enable_cast_sink_query\00", align 1
@.str.39 = private unnamed_addr constant [22 x i8] c"use_mirroring_service\00", align 1
@.str.40 = private unnamed_addr constant [18 x i8] c"connection_remote\00", align 1
@.str.41 = private unnamed_addr constant [20 x i8] c"connection_receiver\00", align 1
@.str.42 = private unnamed_addr constant [7 x i8] c"app_id\00", align 1
@.str.43 = private unnamed_addr constant [11 x i8] c"session_id\00", align 1
@.str.44 = private unnamed_addr constant [18 x i8] c"route_description\00", align 1
@.str.45 = private unnamed_addr constant [14 x i8] c"session_state\00", align 1
@_ZN12media_router5mojom18MediaRouteProvider5Name_E = hidden constant [38 x i8] c"media_router.mojom.MediaRouteProvider\00", align 16
@_ZTVN12media_router5mojom23MediaRouteProviderProxyE = hidden unnamed_addr constant { [21 x i8*] } { [21 x i8*] [i8* null, i8* null, i8* bitcast (void (%"class.media_router::mojom::MediaRouteProvider"*)* @_ZN12media_router5mojom18MediaRouteProviderD2Ev to i8*), i8* bitcast (void (%"class.media_router::mojom::MediaRouteProviderProxy"*)* @_ZN12media_router5mojom23MediaRouteProviderProxyD0Ev to i8*), i8* bitcast (void (%"class.media_router::mojom::MediaRouteProviderProxy"*, %"class.std::__1::basic_string"*, %"class.std::__1::basic_string"*, %"class.std::__1::basic_string"*, %"class.url::Origin"*, i32, i64, i1, %"class.base::OnceCallback"*)* @_ZN12media_router5mojom23MediaRouteProviderProxy11CreateRouteERKNSt3__112basic_stringIcNS2_11char_traitsIcEENS2_9allocatorIcEEEESA_SA_RKN3url6OriginEiN4base9TimeDeltaEbNSF_12OnceCallbackIFvRKN4absl8optionalINS_10MediaRouteEEEN4mojo9StructPtrINS0_27RoutePresentationConnectionEEERKNSJ_IS8_EENS_18RouteRequestResult10ResultCodeEEEE to i8*), i8* bitcast (void (%"class.media_router::mojom::MediaRouteProviderProxy"*, %"class.std::__1::basic_string"*, %"class.std::__1::basic_string"*, %"class.url::Origin"*, i32, i64, i1, %"class.base::OnceCallback"*)* @_ZN12media_router5mojom23MediaRouteProviderProxy9JoinRouteERKNSt3__112basic_stringIcNS2_11char_traitsIcEENS2_9allocatorIcEEEESA_RKN3url6OriginEiN4base9TimeDeltaEbNSF_12OnceCallbackIFvRKN4absl8optionalINS_10MediaRouteEEEN4mojo9StructPtrINS0_27RoutePresentationConnectionEEERKNSJ_IS8_EENS_18RouteRequestResult10ResultCodeEEEE to i8*), i8* bitcast (void (%"class.media_router::mojom::MediaRouteProviderProxy"*, %"class.std::__1::basic_string"*, %"class.std::__1::basic_string"*, %"class.std::__1::basic_string"*, %"class.url::Origin"*, i32, i64, i1, %"class.base::OnceCallback"*)* @_ZN12media_router5mojom23MediaRouteProviderProxy21ConnectRouteByRouteIdERKNSt3__112basic_stringIcNS2_11char_traitsIcEENS2_9allocatorIcEEEESA_SA_RKN3url6OriginEiN4base9TimeDeltaEbNSF_12OnceCallbackIFvRKN4absl8optionalINS_10MediaRouteEEEN4mojo9StructPtrINS0_27RoutePresentationConnectionEEERKNSJ_IS8_EENS_18RouteRequestResult10ResultCodeEEEE to i8*), i8* bitcast (void (%"class.media_router::mojom::MediaRouteProviderProxy"*, %"class.std::__1::basic_string"*, %"class.base::OnceCallback.107"*)* @_ZN12media_router5mojom23MediaRouteProviderProxy14TerminateRouteERKNSt3__112basic_stringIcNS2_11char_traitsIcEENS2_9allocatorIcEEEEN4base12OnceCallbackIFvRKN4absl8optionalIS8_EENS_18RouteRequestResult10ResultCodeEEEE to i8*), i8* bitcast (void (%"class.media_router::mojom::MediaRouteProviderProxy"*, %"class.std::__1::basic_string"*, %"class.std::__1::basic_string"*)* @_ZN12media_router5mojom23MediaRouteProviderProxy16SendRouteMessageERKNSt3__112basic_stringIcNS2_11char_traitsIcEENS2_9allocatorIcEEEESA_ to i8*), i8* bitcast (void (%"class.media_router::mojom::MediaRouteProviderProxy"*, %"class.std::__1::basic_string"*, %"class.std::__1::vector.66"*)* @_ZN12media_router5mojom23MediaRouteProviderProxy22SendRouteBinaryMessageERKNSt3__112basic_stringIcNS2_11char_traitsIcEENS2_9allocatorIcEEEERKNS2_6vectorIhNS6_IhEEEE to i8*), i8* bitcast (void (%"class.media_router::mojom::MediaRouteProviderProxy"*, %"class.std::__1::basic_string"*)* @_ZN12media_router5mojom23MediaRouteProviderProxy24StartObservingMediaSinksERKNSt3__112basic_stringIcNS2_11char_traitsIcEENS2_9allocatorIcEEEE to i8*), i8* bitcast (void (%"class.media_router::mojom::MediaRouteProviderProxy"*, %"class.std::__1::basic_string"*)* @_ZN12media_router5mojom23MediaRouteProviderProxy23StopObservingMediaSinksERKNSt3__112basic_stringIcNS2_11char_traitsIcEENS2_9allocatorIcEEEE to i8*), i8* bitcast (void (%"class.media_router::mojom::MediaRouteProviderProxy"*, %"class.std::__1::basic_string"*)* @_ZN12media_router5mojom23MediaRouteProviderProxy25StartObservingMediaRoutesERKNSt3__112basic_stringIcNS2_11char_traitsIcEENS2_9allocatorIcEEEE to i8*), i8* bitcast (void (%"class.media_router::mojom::MediaRouteProviderProxy"*, %"class.std::__1::basic_string"*)* @_ZN12media_router5mojom23MediaRouteProviderProxy24StopObservingMediaRoutesERKNSt3__112basic_stringIcNS2_11char_traitsIcEENS2_9allocatorIcEEEE to i8*), i8* bitcast (void (%"class.media_router::mojom::MediaRouteProviderProxy"*, %"class.std::__1::basic_string"*)* @_ZN12media_router5mojom23MediaRouteProviderProxy30StartListeningForRouteMessagesERKNSt3__112basic_stringIcNS2_11char_traitsIcEENS2_9allocatorIcEEEE to i8*), i8* bitcast (void (%"class.media_router::mojom::MediaRouteProviderProxy"*, %"class.std::__1::basic_string"*)* @_ZN12media_router5mojom23MediaRouteProviderProxy29StopListeningForRouteMessagesERKNSt3__112basic_stringIcNS2_11char_traitsIcEENS2_9allocatorIcEEEE to i8*), i8* bitcast (void (%"class.media_router::mojom::MediaRouteProviderProxy"*, %"class.std::__1::basic_string"*)* @_ZN12media_router5mojom23MediaRouteProviderProxy11DetachRouteERKNSt3__112basic_stringIcNS2_11char_traitsIcEENS2_9allocatorIcEEEE to i8*), i8* bitcast (void (%"class.media_router::mojom::MediaRouteProviderProxy"*)* @_ZN12media_router5mojom23MediaRouteProviderProxy19EnableMdnsDiscoveryEv to i8*), i8* bitcast (void (%"class.media_router::mojom::MediaRouteProviderProxy"*, %"class.std::__1::basic_string"*)* @_ZN12media_router5mojom23MediaRouteProviderProxy16UpdateMediaSinksERKNSt3__112basic_stringIcNS2_11char_traitsIcEENS2_9allocatorIcEEEE to i8*), i8* bitcast (void (%"class.media_router::mojom::MediaRouteProviderProxy"*, %"class.std::__1::basic_string"*, %"class.mojo::PendingReceiver.123"*, %"class.mojo::PendingRemote.124"*, %"class.base::OnceCallback.125"*)* @_ZN12media_router5mojom23MediaRouteProviderProxy26CreateMediaRouteControllerERKNSt3__112basic_stringIcNS2_11char_traitsIcEENS2_9allocatorIcEEEEN4mojo15PendingReceiverINS0_15MediaControllerEEENSB_13PendingRemoteINS0_19MediaStatusObserverEEEN4base12OnceCallbackIFvbEEE to i8*), i8* bitcast (void (%"class.media_router::mojom::MediaRouteProviderProxy"*, %"class.base::OnceCallback.127"*)* @_ZN12media_router5mojom23MediaRouteProviderProxy8GetStateEN4base12OnceCallbackIFvN4mojo9StructPtrINS0_13ProviderStateEEEEEE to i8*)] }, align 8
@_ZN12media_router5mojomL33kMediaRouteProviderValidationInfoE = internal constant [17 x %"struct.std::__1::pair"] [%"struct.std::__1::pair" { i32 549903834, %"struct.mojo::internal::GenericValidationInfo" { i1 (i8*, %"class.mojo::internal::ValidationContext"*)* @_ZN12media_router5mojom8internal42MediaRouteProvider_CreateRoute_Params_Data8ValidateEPKvPN4mojo8internal17ValidationContextE, i1 (i8*, %"class.mojo::internal::ValidationContext"*)* @_ZN12media_router5mojom8internal50MediaRouteProvider_CreateRoute_ResponseParams_Data8ValidateEPKvPN4mojo8internal17ValidationContextE } }, %"struct.std::__1::pair" { i32 358600210, %"struct.mojo::internal::GenericValidationInfo" { i1 (i8*, %"class.mojo::internal::ValidationContext"*)* @_ZN12media_router5mojom8internal40MediaRouteProvider_JoinRoute_Params_Data8ValidateEPKvPN4mojo8internal17ValidationContextE, i1 (i8*, %"class.mojo::internal::ValidationContext"*)* @_ZN12media_router5mojom8internal48MediaRouteProvider_JoinRoute_ResponseParams_Data8ValidateEPKvPN4mojo8internal17ValidationContextE } }, %"struct.std::__1::pair" { i32 498289839, %"struct.mojo::internal::GenericValidationInfo" { i1 (i8*, %"class.mojo::internal::ValidationContext"*)* @_ZN12media_router5mojom8internal52MediaRouteProvider_ConnectRouteByRouteId_Params_Data8ValidateEPKvPN4mojo8internal17ValidationContextE, i1 (i8*, %"class.mojo::internal::ValidationContext"*)* @_ZN12media_router5mojom8internal60MediaRouteProvider_ConnectRouteByRouteId_ResponseParams_Data8ValidateEPKvPN4mojo8internal17ValidationContextE } }, %"struct.std::__1::pair" { i32 489918840, %"struct.mojo::internal::GenericValidationInfo" { i1 (i8*, %"class.mojo::internal::ValidationContext"*)* @_ZN12media_router5mojom8internal45MediaRouteProvider_TerminateRoute_Params_Data8ValidateEPKvPN4mojo8internal17ValidationContextE, i1 (i8*, %"class.mojo::internal::ValidationContext"*)* @_ZN12media_router5mojom8internal53MediaRouteProvider_TerminateRoute_ResponseParams_Data8ValidateEPKvPN4mojo8internal17ValidationContextE } }, %"struct.std::__1::pair" { i32 72368339, %"struct.mojo::internal::GenericValidationInfo" { i1 (i8*, %"class.mojo::internal::ValidationContext"*)* @_ZN12media_router5mojom8internal47MediaRouteProvider_SendRouteMessage_Params_Data8ValidateEPKvPN4mojo8internal17ValidationContextE, i1 (i8*, %"class.mojo::internal::ValidationContext"*)* null } }, %"struct.std::__1::pair" { i32 525452331, %"struct.mojo::internal::GenericValidationInfo" { i1 (i8*, %"class.mojo::internal::ValidationContext"*)* @_ZN12media_router5mojom8internal53MediaRouteProvider_SendRouteBinaryMessage_Params_Data8ValidateEPKvPN4mojo8internal17ValidationContextE, i1 (i8*, %"class.mojo::internal::ValidationContext"*)* null } }, %"struct.std::__1::pair" { i32 2126271038, %"struct.mojo::internal::GenericValidationInfo" { i1 (i8*, %"class.mojo::internal::ValidationContext"*)* @_ZN12media_router5mojom8internal55MediaRouteProvider_StartObservingMediaSinks_Params_Data8ValidateEPKvPN4mojo8internal17ValidationContextE, i1 (i8*, %"class.mojo::internal::ValidationContext"*)* null } }, %"struct.std::__1::pair" { i32 698531329, %"struct.mojo::internal::GenericValidationInfo" { i1 (i8*, %"class.mojo::internal::ValidationContext"*)* @_ZN12media_router5mojom8internal54MediaRouteProvider_StopObservingMediaSinks_Params_Data8ValidateEPKvPN4mojo8internal17ValidationContextE, i1 (i8*, %"class.mojo::internal::ValidationContext"*)* null } }, %"struct.std::__1::pair" { i32 606034778, %"struct.mojo::internal::GenericValidationInfo" { i1 (i8*, %"class.mojo::internal::ValidationContext"*)* @_ZN12media_router5mojom8internal56MediaRouteProvider_StartObservingMediaRoutes_Params_Data8ValidateEPKvPN4mojo8internal17ValidationContextE, i1 (i8*, %"class.mojo::internal::ValidationContext"*)* null } }, %"struct.std::__1::pair" { i32 792594567, %"struct.mojo::internal::GenericValidationInfo" { i1 (i8*, %"class.mojo::internal::ValidationContext"*)* @_ZN12media_router5mojom8internal55MediaRouteProvider_StopObservingMediaRoutes_Params_Data8ValidateEPKvPN4mojo8internal17ValidationContextE, i1 (i8*, %"class.mojo::internal::ValidationContext"*)* null } }, %"struct.std::__1::pair" { i32 468663343, %"struct.mojo::internal::GenericValidationInfo" { i1 (i8*, %"class.mojo::internal::ValidationContext"*)* @_ZN12media_router5mojom8internal61MediaRouteProvider_StartListeningForRouteMessages_Params_Data8ValidateEPKvPN4mojo8internal17ValidationContextE, i1 (i8*, %"class.mojo::internal::ValidationContext"*)* null } }, %"struct.std::__1::pair" { i32 450443892, %"struct.mojo::internal::GenericValidationInfo" { i1 (i8*, %"class.mojo::internal::ValidationContext"*)* @_ZN12media_router5mojom8internal60MediaRouteProvider_StopListeningForRouteMessages_Params_Data8ValidateEPKvPN4mojo8internal17ValidationContextE, i1 (i8*, %"class.mojo::internal::ValidationContext"*)* null } }, %"struct.std::__1::pair" { i32 276950636, %"struct.mojo::internal::GenericValidationInfo" { i1 (i8*, %"class.mojo::internal::ValidationContext"*)* @_ZN12media_router5mojom8internal42MediaRouteProvider_DetachRoute_Params_Data8ValidateEPKvPN4mojo8internal17ValidationContextE, i1 (i8*, %"class.mojo::internal::ValidationContext"*)* null } }, %"struct.std::__1::pair" { i32 556180616, %"struct.mojo::internal::GenericValidationInfo" { i1 (i8*, %"class.mojo::internal::ValidationContext"*)* @_ZN12media_router5mojom8internal50MediaRouteProvider_EnableMdnsDiscovery_Params_Data8ValidateEPKvPN4mojo8internal17ValidationContextE, i1 (i8*, %"class.mojo::internal::ValidationContext"*)* null } }, %"struct.std::__1::pair" { i32 2136808940, %"struct.mojo::internal::GenericValidationInfo" { i1 (i8*, %"class.mojo::internal::ValidationContext"*)* @_ZN12media_router5mojom8internal47MediaRouteProvider_UpdateMediaSinks_Params_Data8ValidateEPKvPN4mojo8internal17ValidationContextE, i1 (i8*, %"class.mojo::internal::ValidationContext"*)* null } }, %"struct.std::__1::pair" { i32 1937535124, %"struct.mojo::internal::GenericValidationInfo" { i1 (i8*, %"class.mojo::internal::ValidationContext"*)* @_ZN12media_router5mojom8internal57MediaRouteProvider_CreateMediaRouteController_Params_Data8ValidateEPKvPN4mojo8internal17ValidationContextE, i1 (i8*, %"class.mojo::internal::ValidationContext"*)* @_ZN12media_router5mojom8internal65MediaRouteProvider_CreateMediaRouteController_ResponseParams_Data8ValidateEPKvPN4mojo8internal17ValidationContextE } }, %"struct.std::__1::pair" { i32 683974006, %"struct.mojo::internal::GenericValidationInfo" { i1 (i8*, %"class.mojo::internal::ValidationContext"*)* @_ZN12media_router5mojom8internal39MediaRouteProvider_GetState_Params_Data8ValidateEPKvPN4mojo8internal17ValidationContextE, i1 (i8*, %"class.mojo::internal::ValidationContext"*)* @_ZN12media_router5mojom8internal47MediaRouteProvider_GetState_ResponseParams_Data8ValidateEPKvPN4mojo8internal17ValidationContextE } }], align 16
@_ZN12media_router5mojom11MediaRouter5Name_E = hidden constant [31 x i8] c"media_router.mojom.MediaRouter\00", align 16
@_ZTVN12media_router5mojom16MediaRouterProxyE = hidden unnamed_addr constant { [18 x i8*] } { [18 x i8*] [i8* null, i8* null, i8* bitcast (void (%"class.media_router::mojom::MediaRouter"*)* @_ZN12media_router5mojom11MediaRouterD2Ev to i8*), i8* bitcast (void (%"class.media_router::mojom::MediaRouterProxy"*)* @_ZN12media_router5mojom16MediaRouterProxyD0Ev to i8*), i8* bitcast (void (%"class.media_router::mojom::MediaRouterProxy"*, i32, %"class.mojo::PendingRemote.166"*, %"class.base::OnceCallback.167"*)* @_ZN12media_router5mojom16MediaRouterProxy26RegisterMediaRouteProviderENS_20MediaRouteProviderIdEN4mojo13PendingRemoteINS0_18MediaRouteProviderEEEN4base12OnceCallbackIFvRKNSt3__112basic_stringIcNS9_11char_traitsIcEENS9_9allocatorIcEEEENS3_9StructPtrINS0_24MediaRouteProviderConfigEEEEEE to i8*), i8* bitcast (void (%"class.media_router::mojom::MediaRouterProxy"*, i32, %"class.std::__1::basic_string"*, %"class.std::__1::vector.169"*, %"class.std::__1::vector.177"*)* @_ZN12media_router5mojom16MediaRouterProxy15OnSinksReceivedENS_20MediaRouteProviderIdERKNSt3__112basic_stringIcNS3_11char_traitsIcEENS3_9allocatorIcEEEERKNS3_6vectorINS_17MediaSinkInternalENS7_ISD_EEEERKNSC_IN3url6OriginENS7_ISJ_EEEE to i8*), i8* bitcast (void (%"class.media_router::mojom::MediaRouterProxy"*, %"struct.media_router::IssueInfo"*)* @_ZN12media_router5mojom16MediaRouterProxy7OnIssueERKNS_9IssueInfoE to i8*), i8* bitcast (void (%"class.media_router::mojom::MediaRouterProxy"*, i32, %"class.std::__1::vector.195"*, %"class.std::__1::basic_string"*, %"class.std::__1::vector.202"*)* @_ZN12media_router5mojom16MediaRouterProxy15OnRoutesUpdatedENS_20MediaRouteProviderIdERKNSt3__16vectorINS_10MediaRouteENS3_9allocatorIS5_EEEERKNS3_12basic_stringIcNS3_11char_traitsIcEENS6_IcEEEERKNS4_ISF_NS6_ISF_EEEE to i8*), i8* bitcast (void (%"class.media_router::mojom::MediaRouterProxy"*, i32, i32)* @_ZN12media_router5mojom16MediaRouterProxy25OnSinkAvailabilityUpdatedENS_20MediaRouteProviderIdENS0_28MediaRouter_SinkAvailabilityE to i8*), i8* bitcast (void (%"class.media_router::mojom::MediaRouterProxy"*, %"class.std::__1::basic_string"*, i32)* @_ZN12media_router5mojom16MediaRouterProxy36OnPresentationConnectionStateChangedERKNSt3__112basic_stringIcNS2_11char_traitsIcEENS2_9allocatorIcEEEEN5blink5mojom27PresentationConnectionStateE to i8*), i8* bitcast (void (%"class.media_router::mojom::MediaRouterProxy"*, %"class.std::__1::basic_string"*, i32, %"class.std::__1::basic_string"*)* @_ZN12media_router5mojom16MediaRouterProxy30OnPresentationConnectionClosedERKNSt3__112basic_stringIcNS2_11char_traitsIcEENS2_9allocatorIcEEEEN5blink5mojom33PresentationConnectionCloseReasonESA_ to i8*), i8* bitcast (void (%"class.media_router::mojom::MediaRouterProxy"*, %"class.std::__1::basic_string"*, %"class.std::__1::vector.219"*)* @_ZN12media_router5mojom16MediaRouterProxy23OnRouteMessagesReceivedERKNSt3__112basic_stringIcNS2_11char_traitsIcEENS2_9allocatorIcEEEENS2_6vectorIN4mojo9StructPtrINS0_12RouteMessageEEENS6_ISF_EEEE to i8*), i8* bitcast (void (%"class.media_router::mojom::MediaRouterProxy"*, %"class.base::OnceCallback.237"*)* @_ZN12media_router5mojom16MediaRouterProxy25GetMediaSinkServiceStatusEN4base12OnceCallbackIFvRKNSt3__112basic_stringIcNS4_11char_traitsIcEENS4_9allocatorIcEEEEEEE to i8*), i8* bitcast (void (%"class.media_router::mojom::MediaRouterProxy"*, %"class.mojo::PendingReceiver.239"*)* @_ZN12media_router5mojom16MediaRouterProxy9GetLoggerEN4mojo15PendingReceiverINS0_6LoggerEEE to i8*), i8* bitcast (void (%"class.media_router::mojom::MediaRouterProxy"*, %"class.base::OnceCallback.237"*)* @_ZN12media_router5mojom16MediaRouterProxy15GetLogsAsStringEN4base12OnceCallbackIFvRKNSt3__112basic_stringIcNS4_11char_traitsIcEENS4_9allocatorIcEEEEEEE to i8*), i8* bitcast (void (%"class.media_router::mojom::MediaRouterProxy"*, i32, %"class.mojo::PendingReceiver.242"*)* @_ZN12media_router5mojom16MediaRouterProxy29GetMirroringServiceHostForTabEiN4mojo15PendingReceiverIN9mirroring5mojom20MirroringServiceHostEEE to i8*), i8* bitcast (void (%"class.media_router::mojom::MediaRouterProxy"*, i32, %"class.std::__1::basic_string"*, %"class.mojo::PendingReceiver.242"*)* @_ZN12media_router5mojom16MediaRouterProxy33GetMirroringServiceHostForDesktopEiRKNSt3__112basic_stringIcNS2_11char_traitsIcEENS2_9allocatorIcEEEEN4mojo15PendingReceiverIN9mirroring5mojom20MirroringServiceHostEEE to i8*), i8* bitcast (void (%"class.media_router::mojom::MediaRouterProxy"*, %class.GURL*, %"class.std::__1::basic_string"*, %"class.mojo::PendingReceiver.242"*)* @_ZN12media_router5mojom16MediaRouterProxy38GetMirroringServiceHostForOffscreenTabERK4GURLRKNSt3__112basic_stringIcNS5_11char_traitsIcEENS5_9allocatorIcEEEEN4mojo15PendingReceiverIN9mirroring5mojom20MirroringServiceHostEEE to i8*)] }, align 8
@_ZN12media_router5mojomL26kMediaRouterValidationInfoE = internal constant [14 x %"struct.std::__1::pair"] [%"struct.std::__1::pair" { i32 469322219, %"struct.mojo::internal::GenericValidationInfo" { i1 (i8*, %"class.mojo::internal::ValidationContext"*)* @_ZN12media_router5mojom8internal50MediaRouter_RegisterMediaRouteProvider_Params_Data8ValidateEPKvPN4mojo8internal17ValidationContextE, i1 (i8*, %"class.mojo::internal::ValidationContext"*)* @_ZN12media_router5mojom8internal58MediaRouter_RegisterMediaRouteProvider_ResponseParams_Data8ValidateEPKvPN4mojo8internal17ValidationContextE } }, %"struct.std::__1::pair" { i32 1928577056, %"struct.mojo::internal::GenericValidationInfo" { i1 (i8*, %"class.mojo::internal::ValidationContext"*)* @_ZN12media_router5mojom8internal39MediaRouter_OnSinksReceived_Params_Data8ValidateEPKvPN4mojo8internal17ValidationContextE, i1 (i8*, %"class.mojo::internal::ValidationContext"*)* null } }, %"struct.std::__1::pair" { i32 2018684495, %"struct.mojo::internal::GenericValidationInfo" { i1 (i8*, %"class.mojo::internal::ValidationContext"*)* @_ZN12media_router5mojom8internal31MediaRouter_OnIssue_Params_Data8ValidateEPKvPN4mojo8internal17ValidationContextE, i1 (i8*, %"class.mojo::internal::ValidationContext"*)* null } }, %"struct.std::__1::pair" { i32 1492971086, %"struct.mojo::internal::GenericValidationInfo" { i1 (i8*, %"class.mojo::internal::ValidationContext"*)* @_ZN12media_router5mojom8internal39MediaRouter_OnRoutesUpdated_Params_Data8ValidateEPKvPN4mojo8internal17ValidationContextE, i1 (i8*, %"class.mojo::internal::ValidationContext"*)* null } }, %"struct.std::__1::pair" { i32 941885398, %"struct.mojo::internal::GenericValidationInfo" { i1 (i8*, %"class.mojo::internal::ValidationContext"*)* @_ZN12media_router5mojom8internal49MediaRouter_OnSinkAvailabilityUpdated_Params_Data8ValidateEPKvPN4mojo8internal17ValidationContextE, i1 (i8*, %"class.mojo::internal::ValidationContext"*)* null } }, %"struct.std::__1::pair" { i32 1937552585, %"struct.mojo::internal::GenericValidationInfo" { i1 (i8*, %"class.mojo::internal::ValidationContext"*)* @_ZN12media_router5mojom8internal60MediaRouter_OnPresentationConnectionStateChanged_Params_Data8ValidateEPKvPN4mojo8internal17ValidationContextE, i1 (i8*, %"class.mojo::internal::ValidationContext"*)* null } }, %"struct.std::__1::pair" { i32 1507653985, %"struct.mojo::internal::GenericValidationInfo" { i1 (i8*, %"class.mojo::internal::ValidationContext"*)* @_ZN12media_router5mojom8internal54MediaRouter_OnPresentationConnectionClosed_Params_Data8ValidateEPKvPN4mojo8internal17ValidationContextE, i1 (i8*, %"class.mojo::internal::ValidationContext"*)* null } }, %"struct.std::__1::pair" { i32 1557709862, %"struct.mojo::internal::GenericValidationInfo" { i1 (i8*, %"class.mojo::internal::ValidationContext"*)* @_ZN12media_router5mojom8internal47MediaRouter_OnRouteMessagesReceived_Params_Data8ValidateEPKvPN4mojo8internal17ValidationContextE, i1 (i8*, %"class.mojo::internal::ValidationContext"*)* null } }, %"struct.std::__1::pair" { i32 715071744, %"struct.mojo::internal::GenericValidationInfo" { i1 (i8*, %"class.mojo::internal::ValidationContext"*)* @_ZN12media_router5mojom8internal49MediaRouter_GetMediaSinkServiceStatus_Params_Data8ValidateEPKvPN4mojo8internal17ValidationContextE, i1 (i8*, %"class.mojo::internal::ValidationContext"*)* @_ZN12media_router5mojom8internal57MediaRouter_GetMediaSinkServiceStatus_ResponseParams_Data8ValidateEPKvPN4mojo8internal17ValidationContextE } }, %"struct.std::__1::pair" { i32 463645633, %"struct.mojo::internal::GenericValidationInfo" { i1 (i8*, %"class.mojo::internal::ValidationContext"*)* @_ZN12media_router5mojom8internal33MediaRouter_GetLogger_Params_Data8ValidateEPKvPN4mojo8internal17ValidationContextE, i1 (i8*, %"class.mojo::internal::ValidationContext"*)* null } }, %"struct.std::__1::pair" { i32 403434951, %"struct.mojo::internal::GenericValidationInfo" { i1 (i8*, %"class.mojo::internal::ValidationContext"*)* @_ZN12media_router5mojom8internal39MediaRouter_GetLogsAsString_Params_Data8ValidateEPKvPN4mojo8internal17ValidationContextE, i1 (i8*, %"class.mojo::internal::ValidationContext"*)* @_ZN12media_router5mojom8internal47MediaRouter_GetLogsAsString_ResponseParams_Data8ValidateEPKvPN4mojo8internal17ValidationContextE } }, %"struct.std::__1::pair" { i32 893932936, %"struct.mojo::internal::GenericValidationInfo" { i1 (i8*, %"class.mojo::internal::ValidationContext"*)* @_ZN12media_router5mojom8internal53MediaRouter_GetMirroringServiceHostForTab_Params_Data8ValidateEPKvPN4mojo8internal17ValidationContextE, i1 (i8*, %"class.mojo::internal::ValidationContext"*)* null } }, %"struct.std::__1::pair" { i32 2089763210, %"struct.mojo::internal::GenericValidationInfo" { i1 (i8*, %"class.mojo::internal::ValidationContext"*)* @_ZN12media_router5mojom8internal57MediaRouter_GetMirroringServiceHostForDesktop_Params_Data8ValidateEPKvPN4mojo8internal17ValidationContextE, i1 (i8*, %"class.mojo::internal::ValidationContext"*)* null } }, %"struct.std::__1::pair" { i32 592701268, %"struct.mojo::internal::GenericValidationInfo" { i1 (i8*, %"class.mojo::internal::ValidationContext"*)* @_ZN12media_router5mojom8internal62MediaRouter_GetMirroringServiceHostForOffscreenTab_Params_Data8ValidateEPKvPN4mojo8internal17ValidationContextE, i1 (i8*, %"class.mojo::internal::ValidationContext"*)* null } }], align 16
@_ZTVN12media_router5mojom48MediaRouteProvider_CreateRoute_ForwardToCallbackE = hidden unnamed_addr constant { [6 x i8*] } { [6 x i8*] [i8* null, i8* null, i8* bitcast (void (%"class.media_router::mojom::MediaRouteProvider_CreateRoute_ForwardToCallback"*)* @_ZN12media_router5mojom48MediaRouteProvider_CreateRoute_ForwardToCallbackD2Ev to i8*), i8* bitcast (void (%"class.media_router::mojom::MediaRouteProvider_CreateRoute_ForwardToCallback"*)* @_ZN12media_router5mojom48MediaRouteProvider_CreateRoute_ForwardToCallbackD0Ev to i8*), i8* bitcast (i1 (%"class.mojo::MessageReceiver"*)* @_ZN4mojo15MessageReceiver25PrefersSerializedMessagesEv to i8*), i8* bitcast (i1 (%"class.media_router::mojom::MediaRouteProvider_CreateRoute_ForwardToCallback"*, %"class.mojo::Message"*)* @_ZN12media_router5mojom48MediaRouteProvider_CreateRoute_ForwardToCallback6AcceptEPN4mojo7MessageE to i8*)] }, align 8
@_ZTVN12media_router5mojom46MediaRouteProvider_JoinRoute_ForwardToCallbackE = hidden unnamed_addr constant { [6 x i8*] } { [6 x i8*] [i8* null, i8* null, i8* bitcast (void (%"class.media_router::mojom::MediaRouteProvider_JoinRoute_ForwardToCallback"*)* @_ZN12media_router5mojom46MediaRouteProvider_JoinRoute_ForwardToCallbackD2Ev to i8*), i8* bitcast (void (%"class.media_router::mojom::MediaRouteProvider_JoinRoute_ForwardToCallback"*)* @_ZN12media_router5mojom46MediaRouteProvider_JoinRoute_ForwardToCallbackD0Ev to i8*), i8* bitcast (i1 (%"class.mojo::MessageReceiver"*)* @_ZN4mojo15MessageReceiver25PrefersSerializedMessagesEv to i8*), i8* bitcast (i1 (%"class.media_router::mojom::MediaRouteProvider_JoinRoute_ForwardToCallback"*, %"class.mojo::Message"*)* @_ZN12media_router5mojom46MediaRouteProvider_JoinRoute_ForwardToCallback6AcceptEPN4mojo7MessageE to i8*)] }, align 8
@_ZTVN12media_router5mojom58MediaRouteProvider_ConnectRouteByRouteId_ForwardToCallbackE = hidden unnamed_addr constant { [6 x i8*] } { [6 x i8*] [i8* null, i8* null, i8* bitcast (void (%"class.media_router::mojom::MediaRouteProvider_ConnectRouteByRouteId_ForwardToCallback"*)* @_ZN12media_router5mojom58MediaRouteProvider_ConnectRouteByRouteId_ForwardToCallbackD2Ev to i8*), i8* bitcast (void (%"class.media_router::mojom::MediaRouteProvider_ConnectRouteByRouteId_ForwardToCallback"*)* @_ZN12media_router5mojom58MediaRouteProvider_ConnectRouteByRouteId_ForwardToCallbackD0Ev to i8*), i8* bitcast (i1 (%"class.mojo::MessageReceiver"*)* @_ZN4mojo15MessageReceiver25PrefersSerializedMessagesEv to i8*), i8* bitcast (i1 (%"class.media_router::mojom::MediaRouteProvider_ConnectRouteByRouteId_ForwardToCallback"*, %"class.mojo::Message"*)* @_ZN12media_router5mojom58MediaRouteProvider_ConnectRouteByRouteId_ForwardToCallback6AcceptEPN4mojo7MessageE to i8*)] }, align 8
@_ZTVN12media_router5mojom51MediaRouteProvider_TerminateRoute_ForwardToCallbackE = hidden unnamed_addr constant { [6 x i8*] } { [6 x i8*] [i8* null, i8* null, i8* bitcast (void (%"class.media_router::mojom::MediaRouteProvider_TerminateRoute_ForwardToCallback"*)* @_ZN12media_router5mojom51MediaRouteProvider_TerminateRoute_ForwardToCallbackD2Ev to i8*), i8* bitcast (void (%"class.media_router::mojom::MediaRouteProvider_TerminateRoute_ForwardToCallback"*)* @_ZN12media_router5mojom51MediaRouteProvider_TerminateRoute_ForwardToCallbackD0Ev to i8*), i8* bitcast (i1 (%"class.mojo::MessageReceiver"*)* @_ZN4mojo15MessageReceiver25PrefersSerializedMessagesEv to i8*), i8* bitcast (i1 (%"class.media_router::mojom::MediaRouteProvider_TerminateRoute_ForwardToCallback"*, %"class.mojo::Message"*)* @_ZN12media_router5mojom51MediaRouteProvider_TerminateRoute_ForwardToCallback6AcceptEPN4mojo7MessageE to i8*)] }, align 8
@_ZTVN12media_router5mojom63MediaRouteProvider_CreateMediaRouteController_ForwardToCallbackE = hidden unnamed_addr constant { [6 x i8*] } { [6 x i8*] [i8* null, i8* null, i8* bitcast (void (%"class.media_router::mojom::MediaRouteProvider_CreateMediaRouteController_ForwardToCallback"*)* @_ZN12media_router5mojom63MediaRouteProvider_CreateMediaRouteController_ForwardToCallbackD2Ev to i8*), i8* bitcast (void (%"class.media_router::mojom::MediaRouteProvider_CreateMediaRouteController_ForwardToCallback"*)* @_ZN12media_router5mojom63MediaRouteProvider_CreateMediaRouteController_ForwardToCallbackD0Ev to i8*), i8* bitcast (i1 (%"class.mojo::MessageReceiver"*)* @_ZN4mojo15MessageReceiver25PrefersSerializedMessagesEv to i8*), i8* bitcast (i1 (%"class.media_router::mojom::MediaRouteProvider_CreateMediaRouteController_ForwardToCallback"*, %"class.mojo::Message"*)* @_ZN12media_router5mojom63MediaRouteProvider_CreateMediaRouteController_ForwardToCallback6AcceptEPN4mojo7MessageE to i8*)] }, align 8
@_ZTVN12media_router5mojom45MediaRouteProvider_GetState_ForwardToCallbackE = hidden unnamed_addr constant { [6 x i8*] } { [6 x i8*] [i8* null, i8* null, i8* bitcast (void (%"class.media_router::mojom::MediaRouteProvider_GetState_ForwardToCallback"*)* @_ZN12media_router5mojom45MediaRouteProvider_GetState_ForwardToCallbackD2Ev to i8*), i8* bitcast (void (%"class.media_router::mojom::MediaRouteProvider_GetState_ForwardToCallback"*)* @_ZN12media_router5mojom45MediaRouteProvider_GetState_ForwardToCallbackD0Ev to i8*), i8* bitcast (i1 (%"class.mojo::MessageReceiver"*)* @_ZN4mojo15MessageReceiver25PrefersSerializedMessagesEv to i8*), i8* bitcast (i1 (%"class.media_router::mojom::MediaRouteProvider_GetState_ForwardToCallback"*, %"class.mojo::Message"*)* @_ZN12media_router5mojom45MediaRouteProvider_GetState_ForwardToCallback6AcceptEPN4mojo7MessageE to i8*)] }, align 8
@_ZTVN12media_router5mojom34MediaRouteProviderRequestValidatorE = hidden unnamed_addr constant { [6 x i8*] } { [6 x i8*] [i8* null, i8* null, i8* bitcast (void (%"class.mojo::MessageReceiver"*)* @_ZN4mojo15MessageReceiverD2Ev to i8*), i8* bitcast (void (%"class.media_router::mojom::MediaRouteProviderRequestValidator"*)* @_ZN12media_router5mojom34MediaRouteProviderRequestValidatorD0Ev to i8*), i8* bitcast (i1 (%"class.mojo::MessageReceiver"*)* @_ZN4mojo15MessageReceiver25PrefersSerializedMessagesEv to i8*), i8* bitcast (i1 (%"class.media_router::mojom::MediaRouteProviderRequestValidator"*, %"class.mojo::Message"*)* @_ZN12media_router5mojom34MediaRouteProviderRequestValidator6AcceptEPN4mojo7MessageE to i8*)] }, align 8
@_ZTVN12media_router5mojom35MediaRouteProviderResponseValidatorE = hidden unnamed_addr constant { [6 x i8*] } { [6 x i8*] [i8* null, i8* null, i8* bitcast (void (%"class.mojo::MessageReceiver"*)* @_ZN4mojo15MessageReceiverD2Ev to i8*), i8* bitcast (void (%"class.media_router::mojom::MediaRouteProviderResponseValidator"*)* @_ZN12media_router5mojom35MediaRouteProviderResponseValidatorD0Ev to i8*), i8* bitcast (i1 (%"class.mojo::MessageReceiver"*)* @_ZN4mojo15MessageReceiver25PrefersSerializedMessagesEv to i8*), i8* bitcast (i1 (%"class.media_router::mojom::MediaRouteProviderResponseValidator"*, %"class.mojo::Message"*)* @_ZN12media_router5mojom35MediaRouteProviderResponseValidator6AcceptEPN4mojo7MessageE to i8*)] }, align 8
@_ZTVN12media_router5mojom56MediaRouter_RegisterMediaRouteProvider_ForwardToCallbackE = hidden unnamed_addr constant { [6 x i8*] } { [6 x i8*] [i8* null, i8* null, i8* bitcast (void (%"class.media_router::mojom::MediaRouter_RegisterMediaRouteProvider_ForwardToCallback"*)* @_ZN12media_router5mojom56MediaRouter_RegisterMediaRouteProvider_ForwardToCallbackD2Ev to i8*), i8* bitcast (void (%"class.media_router::mojom::MediaRouter_RegisterMediaRouteProvider_ForwardToCallback"*)* @_ZN12media_router5mojom56MediaRouter_RegisterMediaRouteProvider_ForwardToCallbackD0Ev to i8*), i8* bitcast (i1 (%"class.mojo::MessageReceiver"*)* @_ZN4mojo15MessageReceiver25PrefersSerializedMessagesEv to i8*), i8* bitcast (i1 (%"class.media_router::mojom::MediaRouter_RegisterMediaRouteProvider_ForwardToCallback"*, %"class.mojo::Message"*)* @_ZN12media_router5mojom56MediaRouter_RegisterMediaRouteProvider_ForwardToCallback6AcceptEPN4mojo7MessageE to i8*)] }, align 8
@_ZTVN12media_router5mojom55MediaRouter_GetMediaSinkServiceStatus_ForwardToCallbackE = hidden unnamed_addr constant { [6 x i8*] } { [6 x i8*] [i8* null, i8* null, i8* bitcast (void (%"class.media_router::mojom::MediaRouter_GetMediaSinkServiceStatus_ForwardToCallback"*)* @_ZN12media_router5mojom55MediaRouter_GetMediaSinkServiceStatus_ForwardToCallbackD2Ev to i8*), i8* bitcast (void (%"class.media_router::mojom::MediaRouter_GetMediaSinkServiceStatus_ForwardToCallback"*)* @_ZN12media_router5mojom55MediaRouter_GetMediaSinkServiceStatus_ForwardToCallbackD0Ev to i8*), i8* bitcast (i1 (%"class.mojo::MessageReceiver"*)* @_ZN4mojo15MessageReceiver25PrefersSerializedMessagesEv to i8*), i8* bitcast (i1 (%"class.media_router::mojom::MediaRouter_GetMediaSinkServiceStatus_ForwardToCallback"*, %"class.mojo::Message"*)* @_ZN12media_router5mojom55MediaRouter_GetMediaSinkServiceStatus_ForwardToCallback6AcceptEPN4mojo7MessageE to i8*)] }, align 8
@_ZTVN12media_router5mojom45MediaRouter_GetLogsAsString_ForwardToCallbackE = hidden unnamed_addr constant { [6 x i8*] } { [6 x i8*] [i8* null, i8* null, i8* bitcast (void (%"class.media_router::mojom::MediaRouter_GetLogsAsString_ForwardToCallback"*)* @_ZN12media_router5mojom45MediaRouter_GetLogsAsString_ForwardToCallbackD2Ev to i8*), i8* bitcast (void (%"class.media_router::mojom::MediaRouter_GetLogsAsString_ForwardToCallback"*)* @_ZN12media_router5mojom45MediaRouter_GetLogsAsString_ForwardToCallbackD0Ev to i8*), i8* bitcast (i1 (%"class.mojo::MessageReceiver"*)* @_ZN4mojo15MessageReceiver25PrefersSerializedMessagesEv to i8*), i8* bitcast (i1 (%"class.media_router::mojom::MediaRouter_GetLogsAsString_ForwardToCallback"*, %"class.mojo::Message"*)* @_ZN12media_router5mojom45MediaRouter_GetLogsAsString_ForwardToCallback6AcceptEPN4mojo7MessageE to i8*)] }, align 8
@_ZTVN12media_router5mojom27MediaRouterRequestValidatorE = hidden unnamed_addr constant { [6 x i8*] } { [6 x i8*] [i8* null, i8* null, i8* bitcast (void (%"class.mojo::MessageReceiver"*)* @_ZN4mojo15MessageReceiverD2Ev to i8*), i8* bitcast (void (%"class.media_router::mojom::MediaRouterRequestValidator"*)* @_ZN12media_router5mojom27MediaRouterRequestValidatorD0Ev to i8*), i8* bitcast (i1 (%"class.mojo::MessageReceiver"*)* @_ZN4mojo15MessageReceiver25PrefersSerializedMessagesEv to i8*), i8* bitcast (i1 (%"class.media_router::mojom::MediaRouterRequestValidator"*, %"class.mojo::Message"*)* @_ZN12media_router5mojom27MediaRouterRequestValidator6AcceptEPN4mojo7MessageE to i8*)] }, align 8
@_ZTVN12media_router5mojom28MediaRouterResponseValidatorE = hidden unnamed_addr constant { [6 x i8*] } { [6 x i8*] [i8* null, i8* null, i8* bitcast (void (%"class.mojo::MessageReceiver"*)* @_ZN4mojo15MessageReceiverD2Ev to i8*), i8* bitcast (void (%"class.media_router::mojom::MediaRouterResponseValidator"*)* @_ZN12media_router5mojom28MediaRouterResponseValidatorD0Ev to i8*), i8* bitcast (i1 (%"class.mojo::MessageReceiver"*)* @_ZN4mojo15MessageReceiver25PrefersSerializedMessagesEv to i8*), i8* bitcast (i1 (%"class.media_router::mojom::MediaRouterResponseValidator"*, %"class.mojo::Message"*)* @_ZN12media_router5mojom28MediaRouterResponseValidator6AcceptEPN4mojo7MessageE to i8*)] }, align 8
@switch.table._ZN4mojo8internal10SerializerIN12media_router5mojom17MediaSinkDataViewEKNS2_17MediaSinkInternalEE9SerializeERS6_RNS0_15MessageFragmentINS3_8internal14MediaSink_DataEEE = private unnamed_addr constant [8 x i32] [i32 0, i32 1, i32 2, i32 7, i32 7, i32 7, i32 6, i32 7], align 4

@_ZN12media_router5mojom9MediaSinkC1Ev = hidden unnamed_addr alias void (%"class.media_router::mojom::MediaSink"*), void (%"class.media_router::mojom::MediaSink"*)* @_ZN12media_router5mojom9MediaSinkC2Ev
@_ZN12media_router5mojom9MediaSinkC1ERKNSt3__112basic_stringIcNS2_11char_traitsIcEENS2_9allocatorIcEEEESA_RKN4absl8optionalIS8_EESF_NS0_12SinkIconTypeENS_20MediaRouteProviderIdEN4mojo9StructPtrINS0_18MediaSinkExtraDataEEE = hidden unnamed_addr alias void (%"class.media_router::mojom::MediaSink"*, %"class.std::__1::basic_string"*, %"class.std::__1::basic_string"*, %"class.absl::optional"*, %"class.absl::optional"*, i32, i32, %"class.mojo::StructPtr"*), void (%"class.media_router::mojom::MediaSink"*, %"class.std::__1::basic_string"*, %"class.std::__1::basic_string"*, %"class.absl::optional"*, %"class.absl::optional"*, i32, i32, %"class.mojo::StructPtr"*)* @_ZN12media_router5mojom9MediaSinkC2ERKNSt3__112basic_stringIcNS2_11char_traitsIcEENS2_9allocatorIcEEEESA_RKN4absl8optionalIS8_EESF_NS0_12SinkIconTypeENS_20MediaRouteProviderIdEN4mojo9StructPtrINS0_18MediaSinkExtraDataEEE
@_ZN12media_router5mojom9MediaSinkD1Ev = hidden unnamed_addr alias void (%"class.media_router::mojom::MediaSink"*), void (%"class.media_router::mojom::MediaSink"*)* @_ZN12media_router5mojom9MediaSinkD2Ev
@_ZN12media_router5mojom13DialMediaSinkC1Ev = hidden unnamed_addr alias void (%"class.media_router::mojom::DialMediaSink"*), void (%"class.media_router::mojom::DialMediaSink"*)* @_ZN12media_router5mojom13DialMediaSinkC2Ev
@_ZN12media_router5mojom13DialMediaSinkC1ERKN3net9IPAddressERKNSt3__112basic_stringIcNS6_11char_traitsIcEENS6_9allocatorIcEEEERK4GURL = hidden unnamed_addr alias void (%"class.media_router::mojom::DialMediaSink"*, %"class.net::IPAddress"*, %"class.std::__1::basic_string"*, %class.GURL*), void (%"class.media_router::mojom::DialMediaSink"*, %"class.net::IPAddress"*, %"class.std::__1::basic_string"*, %class.GURL*)* @_ZN12media_router5mojom13DialMediaSinkC2ERKN3net9IPAddressERKNSt3__112basic_stringIcNS6_11char_traitsIcEENS6_9allocatorIcEEEERK4GURL
@_ZN12media_router5mojom13DialMediaSinkD1Ev = hidden unnamed_addr alias void (%"class.media_router::mojom::DialMediaSink"*), void (%"class.media_router::mojom::DialMediaSink"*)* @_ZN12media_router5mojom13DialMediaSinkD2Ev
@_ZN12media_router5mojom13CastMediaSinkC1Ev = hidden unnamed_addr alias void (%"class.media_router::mojom::CastMediaSink"*), void (%"class.media_router::mojom::CastMediaSink"*)* @_ZN12media_router5mojom13CastMediaSinkC2Ev
@_ZN12media_router5mojom13CastMediaSinkC1ERKN3net10IPEndPointERKNSt3__112basic_stringIcNS6_11char_traitsIcEENS6_9allocatorIcEEEEhi = hidden unnamed_addr alias void (%"class.media_router::mojom::CastMediaSink"*, %"class.net::IPEndPoint"*, %"class.std::__1::basic_string"*, i8, i32), void (%"class.media_router::mojom::CastMediaSink"*, %"class.net::IPEndPoint"*, %"class.std::__1::basic_string"*, i8, i32)* @_ZN12media_router5mojom13CastMediaSinkC2ERKN3net10IPEndPointERKNSt3__112basic_stringIcNS6_11char_traitsIcEENS6_9allocatorIcEEEEhi
@_ZN12media_router5mojom13CastMediaSinkD1Ev = hidden unnamed_addr alias void (%"class.media_router::mojom::CastMediaSink"*), void (%"class.media_router::mojom::CastMediaSink"*)* @_ZN12media_router5mojom13CastMediaSinkD2Ev
@_ZN12media_router5mojom10MediaRouteC1Ev = hidden unnamed_addr alias void (%"class.media_router::mojom::MediaRoute"*), void (%"class.media_router::mojom::MediaRoute"*)* @_ZN12media_router5mojom10MediaRouteC2Ev
@_ZN12media_router5mojom10MediaRouteC1ERKNSt3__112basic_stringIcNS2_11char_traitsIcEENS2_9allocatorIcEEEESA_RKN4absl8optionalIS8_EESA_SA_SA_bNS0_19RouteControllerTypeEbbbb = hidden unnamed_addr alias void (%"class.media_router::mojom::MediaRoute"*, %"class.std::__1::basic_string"*, %"class.std::__1::basic_string"*, %"class.absl::optional"*, %"class.std::__1::basic_string"*, %"class.std::__1::basic_string"*, %"class.std::__1::basic_string"*, i1, i32, i1, i1, i1, i1), void (%"class.media_router::mojom::MediaRoute"*, %"class.std::__1::basic_string"*, %"class.std::__1::basic_string"*, %"class.absl::optional"*, %"class.std::__1::basic_string"*, %"class.std::__1::basic_string"*, %"class.std::__1::basic_string"*, i1, i32, i1, i1, i1, i1)* @_ZN12media_router5mojom10MediaRouteC2ERKNSt3__112basic_stringIcNS2_11char_traitsIcEENS2_9allocatorIcEEEESA_RKN4absl8optionalIS8_EESA_SA_SA_bNS0_19RouteControllerTypeEbbbb
@_ZN12media_router5mojom10MediaRouteD1Ev = hidden unnamed_addr alias void (%"class.media_router::mojom::MediaRoute"*), void (%"class.media_router::mojom::MediaRoute"*)* @_ZN12media_router5mojom10MediaRouteD2Ev
@_ZN12media_router5mojom5IssueC1Ev = hidden unnamed_addr alias void (%"class.media_router::mojom::Issue"*), void (%"class.media_router::mojom::Issue"*)* @_ZN12media_router5mojom5IssueC2Ev
@_ZN12media_router5mojom5IssueC1ERKNSt3__112basic_stringIcNS2_11char_traitsIcEENS2_9allocatorIcEEEESA_NS_9IssueInfo8SeverityEbSA_RKN4absl8optionalIS8_EENSB_6ActionENS2_6vectorISI_NS6_ISI_EEEEi = hidden unnamed_addr alias void (%"class.media_router::mojom::Issue"*, %"class.std::__1::basic_string"*, %"class.std::__1::basic_string"*, i32, i1, %"class.std::__1::basic_string"*, %"class.absl::optional"*, i32, %"class.std::__1::vector.54"*, i32), void (%"class.media_router::mojom::Issue"*, %"class.std::__1::basic_string"*, %"class.std::__1::basic_string"*, i32, i1, %"class.std::__1::basic_string"*, %"class.absl::optional"*, i32, %"class.std::__1::vector.54"*, i32)* @_ZN12media_router5mojom5IssueC2ERKNSt3__112basic_stringIcNS2_11char_traitsIcEENS2_9allocatorIcEEEESA_NS_9IssueInfo8SeverityEbSA_RKN4absl8optionalIS8_EENSB_6ActionENS2_6vectorISI_NS6_ISI_EEEEi
@_ZN12media_router5mojom5IssueD1Ev = hidden unnamed_addr alias void (%"class.media_router::mojom::Issue"*), void (%"class.media_router::mojom::Issue"*)* @_ZN12media_router5mojom5IssueD2Ev
@_ZN12media_router5mojom12RouteMessageC1Ev = hidden unnamed_addr alias void (%"class.media_router::mojom::RouteMessage"*), void (%"class.media_router::mojom::RouteMessage"*)* @_ZN12media_router5mojom12RouteMessageC2Ev
@_ZN12media_router5mojom12RouteMessageC1ENS0_17RouteMessage_TypeERKN4absl8optionalINSt3__112basic_stringIcNS5_11char_traitsIcEENS5_9allocatorIcEEEEEENS4_INS5_6vectorIhNS9_IhEEEEEE = hidden unnamed_addr alias void (%"class.media_router::mojom::RouteMessage"*, i32, %"class.absl::optional"*, %"class.absl::optional.61"*), void (%"class.media_router::mojom::RouteMessage"*, i32, %"class.absl::optional"*, %"class.absl::optional.61"*)* @_ZN12media_router5mojom12RouteMessageC2ENS0_17RouteMessage_TypeERKN4absl8optionalINSt3__112basic_stringIcNS5_11char_traitsIcEENS5_9allocatorIcEEEEEENS4_INS5_6vectorIhNS9_IhEEEEEE
@_ZN12media_router5mojom12RouteMessageD1Ev = hidden unnamed_addr alias void (%"class.media_router::mojom::RouteMessage"*), void (%"class.media_router::mojom::RouteMessage"*)* @_ZN12media_router5mojom12RouteMessageD2Ev
@_ZN12media_router5mojom24MediaRouteProviderConfigC1Ev = hidden unnamed_addr alias void (%"class.media_router::mojom::MediaRouteProviderConfig"*), void (%"class.media_router::mojom::MediaRouteProviderConfig"*)* @_ZN12media_router5mojom24MediaRouteProviderConfigC2Ev
@_ZN12media_router5mojom24MediaRouteProviderConfigC1Ebbbbb = hidden unnamed_addr alias void (%"class.media_router::mojom::MediaRouteProviderConfig"*, i1, i1, i1, i1, i1), void (%"class.media_router::mojom::MediaRouteProviderConfig"*, i1, i1, i1, i1, i1)* @_ZN12media_router5mojom24MediaRouteProviderConfigC2Ebbbbb
@_ZN12media_router5mojom24MediaRouteProviderConfigD1Ev = hidden unnamed_addr alias void (%"class.media_router::mojom::MediaRouteProviderConfig"*), void (%"class.media_router::mojom::MediaRouteProviderConfig"*)* @_ZN12media_router5mojom24MediaRouteProviderConfigD2Ev
@_ZN12media_router5mojom27RoutePresentationConnectionC1Ev = hidden unnamed_addr alias void (%"class.media_router::mojom::RoutePresentationConnection"*), void (%"class.media_router::mojom::RoutePresentationConnection"*)* @_ZN12media_router5mojom27RoutePresentationConnectionC2Ev
@_ZN12media_router5mojom27RoutePresentationConnectionC1EN4mojo13PendingRemoteIN5blink5mojom22PresentationConnectionEEENS2_15PendingReceiverIS6_EE = hidden unnamed_addr alias void (%"class.media_router::mojom::RoutePresentationConnection"*, %"class.mojo::PendingRemote"*, %"class.mojo::PendingReceiver"*), void (%"class.media_router::mojom::RoutePresentationConnection"*, %"class.mojo::PendingRemote"*, %"class.mojo::PendingReceiver"*)* @_ZN12media_router5mojom27RoutePresentationConnectionC2EN4mojo13PendingRemoteIN5blink5mojom22PresentationConnectionEEENS2_15PendingReceiverIS6_EE
@_ZN12media_router5mojom27RoutePresentationConnectionD1Ev = hidden unnamed_addr alias void (%"class.media_router::mojom::RoutePresentationConnection"*), void (%"class.media_router::mojom::RoutePresentationConnection"*)* @_ZN12media_router5mojom27RoutePresentationConnectionD2Ev
@_ZN12media_router5mojom16CastSessionStateC1Ev = hidden unnamed_addr alias void (%"class.media_router::mojom::CastSessionState"*), void (%"class.media_router::mojom::CastSessionState"*)* @_ZN12media_router5mojom16CastSessionStateC2Ev
@_ZN12media_router5mojom16CastSessionStateC1ERKNSt3__112basic_stringIcNS2_11char_traitsIcEENS2_9allocatorIcEEEESA_SA_SA_ = hidden unnamed_addr alias void (%"class.media_router::mojom::CastSessionState"*, %"class.std::__1::basic_string"*, %"class.std::__1::basic_string"*, %"class.std::__1::basic_string"*, %"class.std::__1::basic_string"*), void (%"class.media_router::mojom::CastSessionState"*, %"class.std::__1::basic_string"*, %"class.std::__1::basic_string"*, %"class.std::__1::basic_string"*, %"class.std::__1::basic_string"*)* @_ZN12media_router5mojom16CastSessionStateC2ERKNSt3__112basic_stringIcNS2_11char_traitsIcEENS2_9allocatorIcEEEESA_SA_SA_
@_ZN12media_router5mojom16CastSessionStateD1Ev = hidden unnamed_addr alias void (%"class.media_router::mojom::CastSessionState"*), void (%"class.media_router::mojom::CastSessionState"*)* @_ZN12media_router5mojom16CastSessionStateD2Ev
@_ZN12media_router5mojom17CastProviderStateC1Ev = hidden unnamed_addr alias void (%"class.media_router::mojom::CastProviderState"*), void (%"class.media_router::mojom::CastProviderState"*)* @_ZN12media_router5mojom17CastProviderStateC2Ev
@_ZN12media_router5mojom17CastProviderStateC1ENSt3__16vectorIN4mojo16InlinedStructPtrINS0_16CastSessionStateEEENS2_9allocatorIS7_EEEE = hidden unnamed_addr alias void (%"class.media_router::mojom::CastProviderState"*, %"class.std::__1::vector.74"*), void (%"class.media_router::mojom::CastProviderState"*, %"class.std::__1::vector.74"*)* @_ZN12media_router5mojom17CastProviderStateC2ENSt3__16vectorIN4mojo16InlinedStructPtrINS0_16CastSessionStateEEENS2_9allocatorIS7_EEEE
@_ZN12media_router5mojom17CastProviderStateD1Ev = hidden unnamed_addr alias void (%"class.media_router::mojom::CastProviderState"*), void (%"class.media_router::mojom::CastProviderState"*)* @_ZN12media_router5mojom17CastProviderStateD2Ev
@_ZN12media_router5mojom18MediaSinkExtraDataC1Ev = hidden unnamed_addr alias void (%"class.media_router::mojom::MediaSinkExtraData"*), void (%"class.media_router::mojom::MediaSinkExtraData"*)* @_ZN12media_router5mojom18MediaSinkExtraDataC2Ev
@_ZN12media_router5mojom18MediaSinkExtraDataD1Ev = hidden unnamed_addr alias void (%"class.media_router::mojom::MediaSinkExtraData"*), void (%"class.media_router::mojom::MediaSinkExtraData"*)* @_ZN12media_router5mojom18MediaSinkExtraDataD2Ev
@_ZN12media_router5mojom13ProviderStateC1Ev = hidden unnamed_addr alias void (%"class.media_router::mojom::ProviderState"*), void (%"class.media_router::mojom::ProviderState"*)* @_ZN12media_router5mojom13ProviderStateC2Ev
@_ZN12media_router5mojom13ProviderStateD1Ev = hidden unnamed_addr alias void (%"class.media_router::mojom::ProviderState"*), void (%"class.media_router::mojom::ProviderState"*)* @_ZN12media_router5mojom13ProviderStateD2Ev
@_ZN12media_router5mojom23MediaRouteProviderProxyC1EPN4mojo28MessageReceiverWithResponderE = hidden unnamed_addr alias void (%"class.media_router::mojom::MediaRouteProviderProxy"*, %"class.mojo::MessageReceiverWithResponder"*), void (%"class.media_router::mojom::MediaRouteProviderProxy"*, %"class.mojo::MessageReceiverWithResponder"*)* @_ZN12media_router5mojom23MediaRouteProviderProxyC2EPN4mojo28MessageReceiverWithResponderE
@_ZN12media_router5mojom16MediaRouterProxyC1EPN4mojo28MessageReceiverWithResponderE = hidden unnamed_addr alias void (%"class.media_router::mojom::MediaRouterProxy"*, %"class.mojo::MessageReceiverWithResponder"*), void (%"class.media_router::mojom::MediaRouterProxy"*, %"class.mojo::MessageReceiverWithResponder"*)* @_ZN12media_router5mojom16MediaRouterProxyC2EPN4mojo28MessageReceiverWithResponderE

; Function Attrs: nounwind ssp uwtable
define hidden void @_ZN12media_router5mojom9MediaSinkC2Ev(%"class.media_router::mojom::MediaSink"* nocapture) unnamed_addr #0 align 2 {
  %2 = getelementptr inbounds %"class.media_router::mojom::MediaSink", %"class.media_router::mojom::MediaSink"* %0, i64 0, i32 2, i32 0, i32 0, i32 0, i32 1
  %3 = getelementptr inbounds %"class.media_router::mojom::MediaSink", %"class.media_router::mojom::MediaSink"* %0, i64 0, i32 3, i32 0, i32 0, i32 0, i32 1
  %4 = bitcast %"class.media_router::mojom::MediaSink"* %0 to i8*
  call void @llvm.memset.p0i8.i64(i8* align 8 %4, i8 0, i64 49, i1 false)
  %5 = bitcast %union.anon.1* %2 to i8*
  call void @llvm.memset.p0i8.i64(i8* align 8 %5, i8 0, i64 25, i1 false)
  %6 = bitcast %union.anon.1* %3 to i8*
  call void @llvm.memset.p0i8.i64(i8* align 8 %6, i8 0, i64 40, i1 false)
  ret void
}

; Function Attrs: argmemonly nounwind
declare void @llvm.memset.p0i8.i64(i8* nocapture writeonly, i8, i64, i1 immarg) #1

; Function Attrs: nounwind ssp uwtable
define hidden void @_ZN12media_router5mojom9MediaSinkC2ERKNSt3__112basic_stringIcNS2_11char_traitsIcEENS2_9allocatorIcEEEESA_RKN4absl8optionalIS8_EESF_NS0_12SinkIconTypeENS_20MediaRouteProviderIdEN4mojo9StructPtrINS0_18MediaSinkExtraDataEEE(%"class.media_router::mojom::MediaSink"*, %"class.std::__1::basic_string"* nocapture readonly dereferenceable(24), %"class.std::__1::basic_string"* nocapture readonly dereferenceable(24), %"class.absl::optional"* nocapture readonly dereferenceable(32), %"class.absl::optional"* nocapture readonly dereferenceable(32), i32, i32, %"class.mojo::StructPtr"* nocapture) unnamed_addr #0 align 2 {
  %9 = bitcast %"class.std::__1::basic_string"* %1 to %"struct.std::__1::basic_string<char, std::__1::char_traits<char>, std::__1::allocator<char> >::__short"*
  %10 = getelementptr inbounds %"struct.std::__1::basic_string<char, std::__1::char_traits<char>, std::__1::allocator<char> >::__short", %"struct.std::__1::basic_string<char, std::__1::char_traits<char>, std::__1::allocator<char> >::__short"* %9, i64 0, i32 1, i32 0
  %11 = load i8, i8* %10, align 1
  %12 = icmp slt i8 %11, 0
  br i1 %12, label %16, label %13

13:                                               ; preds = %8
  %14 = bitcast %"class.media_router::mojom::MediaSink"* %0 to i8*
  %15 = bitcast %"class.std::__1::basic_string"* %1 to i8*
  tail call void @llvm.memcpy.p0i8.p0i8.i64(i8* align 8 %14, i8* align 8 %15, i64 24, i1 false) #13
  br label %22

16:                                               ; preds = %8
  %17 = getelementptr inbounds %"class.media_router::mojom::MediaSink", %"class.media_router::mojom::MediaSink"* %0, i64 0, i32 0
  %18 = getelementptr inbounds %"class.std::__1::basic_string", %"class.std::__1::basic_string"* %1, i64 0, i32 0, i32 0, i32 0, i32 0, i32 0, i32 0
  %19 = load i8*, i8** %18, align 8
  %20 = getelementptr inbounds %"class.std::__1::basic_string", %"class.std::__1::basic_string"* %1, i64 0, i32 0, i32 0, i32 0, i32 0, i32 0, i32 1
  %21 = load i64, i64* %20, align 8
  tail call void @_ZNSt3__112basic_stringIcNS_11char_traitsIcEENS_9allocatorIcEEE25__init_copy_ctor_externalEPKcm(%"class.std::__1::basic_string"* %17, i8* %19, i64 %21) #13
  br label %22

22:                                               ; preds = %13, %16
  %23 = getelementptr inbounds %"class.media_router::mojom::MediaSink", %"class.media_router::mojom::MediaSink"* %0, i64 0, i32 1
  %24 = bitcast %"class.std::__1::basic_string"* %2 to %"struct.std::__1::basic_string<char, std::__1::char_traits<char>, std::__1::allocator<char> >::__short"*
  %25 = getelementptr inbounds %"struct.std::__1::basic_string<char, std::__1::char_traits<char>, std::__1::allocator<char> >::__short", %"struct.std::__1::basic_string<char, std::__1::char_traits<char>, std::__1::allocator<char> >::__short"* %24, i64 0, i32 1, i32 0
  %26 = load i8, i8* %25, align 1
  %27 = icmp slt i8 %26, 0
  br i1 %27, label %31, label %28

28:                                               ; preds = %22
  %29 = bitcast %"class.std::__1::basic_string"* %23 to i8*
  %30 = bitcast %"class.std::__1::basic_string"* %2 to i8*
  tail call void @llvm.memcpy.p0i8.p0i8.i64(i8* align 8 %29, i8* align 8 %30, i64 24, i1 false) #13
  br label %36

31:                                               ; preds = %22
  %32 = getelementptr inbounds %"class.std::__1::basic_string", %"class.std::__1::basic_string"* %2, i64 0, i32 0, i32 0, i32 0, i32 0, i32 0, i32 0
  %33 = load i8*, i8** %32, align 8
  %34 = getelementptr inbounds %"class.std::__1::basic_string", %"class.std::__1::basic_string"* %2, i64 0, i32 0, i32 0, i32 0, i32 0, i32 0, i32 1
  %35 = load i64, i64* %34, align 8
  tail call void @_ZNSt3__112basic_stringIcNS_11char_traitsIcEENS_9allocatorIcEEE25__init_copy_ctor_externalEPKcm(%"class.std::__1::basic_string"* %23, i8* %33, i64 %35) #13
  br label %36

36:                                               ; preds = %28, %31
  %37 = getelementptr inbounds %"class.media_router::mojom::MediaSink", %"class.media_router::mojom::MediaSink"* %0, i64 0, i32 2, i32 0, i32 0, i32 0, i32 0
  %38 = getelementptr inbounds %"class.absl::optional", %"class.absl::optional"* %3, i64 0, i32 0, i32 0, i32 0, i32 0
  tail call void @llvm.memset.p0i8.i64(i8* align 8 %37, i8 0, i64 32, i1 false) #13
  %39 = load i8, i8* %38, align 8, !range !2
  %40 = icmp eq i8 %39, 0
  br i1 %40, label %57, label %41

41:                                               ; preds = %36
  %42 = getelementptr inbounds %"class.absl::optional", %"class.absl::optional"* %3, i64 0, i32 0, i32 0, i32 0, i32 1, i32 0
  %43 = getelementptr inbounds %"class.media_router::mojom::MediaSink", %"class.media_router::mojom::MediaSink"* %0, i64 0, i32 2, i32 0, i32 0, i32 0, i32 1, i32 0
  %44 = bitcast %"class.std::__1::basic_string"* %42 to %"struct.std::__1::basic_string<char, std::__1::char_traits<char>, std::__1::allocator<char> >::__short"*
  %45 = getelementptr inbounds %"struct.std::__1::basic_string<char, std::__1::char_traits<char>, std::__1::allocator<char> >::__short", %"struct.std::__1::basic_string<char, std::__1::char_traits<char>, std::__1::allocator<char> >::__short"* %44, i64 0, i32 1, i32 0
  %46 = load i8, i8* %45, align 1
  %47 = icmp slt i8 %46, 0
  br i1 %47, label %51, label %48

48:                                               ; preds = %41
  %49 = bitcast %"class.std::__1::basic_string"* %43 to i8*
  %50 = bitcast %"class.std::__1::basic_string"* %42 to i8*
  tail call void @llvm.memcpy.p0i8.p0i8.i64(i8* align 8 %49, i8* align 8 %50, i64 24, i1 false) #13
  br label %56

51:                                               ; preds = %41
  %52 = getelementptr inbounds %"class.std::__1::basic_string", %"class.std::__1::basic_string"* %42, i64 0, i32 0, i32 0, i32 0, i32 0, i32 0, i32 0
  %53 = load i8*, i8** %52, align 8
  %54 = getelementptr inbounds %"class.absl::optional", %"class.absl::optional"* %3, i64 0, i32 0, i32 0, i32 0, i32 1, i32 0, i32 0, i32 0, i32 0, i32 0, i32 0, i32 1
  %55 = load i64, i64* %54, align 8
  tail call void @_ZNSt3__112basic_stringIcNS_11char_traitsIcEENS_9allocatorIcEEE25__init_copy_ctor_externalEPKcm(%"class.std::__1::basic_string"* %43, i8* %53, i64 %55) #13
  br label %56

56:                                               ; preds = %51, %48
  store i8 1, i8* %37, align 8
  br label %57

57:                                               ; preds = %36, %56
  %58 = getelementptr inbounds %"class.media_router::mojom::MediaSink", %"class.media_router::mojom::MediaSink"* %0, i64 0, i32 3, i32 0, i32 0, i32 0, i32 0
  %59 = getelementptr inbounds %"class.absl::optional", %"class.absl::optional"* %4, i64 0, i32 0, i32 0, i32 0, i32 0
  tail call void @llvm.memset.p0i8.i64(i8* align 8 %58, i8 0, i64 32, i1 false) #13
  %60 = load i8, i8* %59, align 8, !range !2
  %61 = icmp eq i8 %60, 0
  br i1 %61, label %78, label %62

62:                                               ; preds = %57
  %63 = getelementptr inbounds %"class.absl::optional", %"class.absl::optional"* %4, i64 0, i32 0, i32 0, i32 0, i32 1, i32 0
  %64 = getelementptr inbounds %"class.media_router::mojom::MediaSink", %"class.media_router::mojom::MediaSink"* %0, i64 0, i32 3, i32 0, i32 0, i32 0, i32 1, i32 0
  %65 = bitcast %"class.std::__1::basic_string"* %63 to %"struct.std::__1::basic_string<char, std::__1::char_traits<char>, std::__1::allocator<char> >::__short"*
  %66 = getelementptr inbounds %"struct.std::__1::basic_string<char, std::__1::char_traits<char>, std::__1::allocator<char> >::__short", %"struct.std::__1::basic_string<char, std::__1::char_traits<char>, std::__1::allocator<char> >::__short"* %65, i64 0, i32 1, i32 0
  %67 = load i8, i8* %66, align 1
  %68 = icmp slt i8 %67, 0
  br i1 %68, label %72, label %69

69:                                               ; preds = %62
  %70 = bitcast %"class.std::__1::basic_string"* %64 to i8*
  %71 = bitcast %"class.std::__1::basic_string"* %63 to i8*
  tail call void @llvm.memcpy.p0i8.p0i8.i64(i8* align 8 %70, i8* align 8 %71, i64 24, i1 false) #13
  br label %77

72:                                               ; preds = %62
  %73 = getelementptr inbounds %"class.std::__1::basic_string", %"class.std::__1::basic_string"* %63, i64 0, i32 0, i32 0, i32 0, i32 0, i32 0, i32 0
  %74 = load i8*, i8** %73, align 8
  %75 = getelementptr inbounds %"class.absl::optional", %"class.absl::optional"* %4, i64 0, i32 0, i32 0, i32 0, i32 1, i32 0, i32 0, i32 0, i32 0, i32 0, i32 0, i32 1
  %76 = load i64, i64* %75, align 8
  tail call void @_ZNSt3__112basic_stringIcNS_11char_traitsIcEENS_9allocatorIcEEE25__init_copy_ctor_externalEPKcm(%"class.std::__1::basic_string"* %64, i8* %74, i64 %76) #13
  br label %77

77:                                               ; preds = %72, %69
  store i8 1, i8* %58, align 8
  br label %78

78:                                               ; preds = %57, %77
  %79 = getelementptr inbounds %"class.media_router::mojom::MediaSink", %"class.media_router::mojom::MediaSink"* %0, i64 0, i32 4
  store i32 %5, i32* %79, align 8
  %80 = getelementptr inbounds %"class.media_router::mojom::MediaSink", %"class.media_router::mojom::MediaSink"* %0, i64 0, i32 5
  store i32 %6, i32* %80, align 4
  %81 = getelementptr inbounds %"class.media_router::mojom::MediaSink", %"class.media_router::mojom::MediaSink"* %0, i64 0, i32 6
  %82 = bitcast %"class.mojo::StructPtr"* %81 to i64*
  %83 = getelementptr inbounds %"class.mojo::StructPtr", %"class.mojo::StructPtr"* %81, i64 0, i32 0, i32 0, i32 0, i32 0
  store %"class.media_router::mojom::MediaSinkExtraData"* null, %"class.media_router::mojom::MediaSinkExtraData"** %83, align 8
  %84 = bitcast %"class.mojo::StructPtr"* %7 to i64*
  %85 = load i64, i64* %84, align 8
  store i64 %85, i64* %82, align 8
  store i64 0, i64* %84, align 8
  ret void
}

; Function Attrs: nounwind ssp uwtable
define hidden void @_ZN12media_router5mojom9MediaSinkD2Ev(%"class.media_router::mojom::MediaSink"* nocapture) unnamed_addr #0 align 2 {
  %2 = getelementptr inbounds %"class.media_router::mojom::MediaSink", %"class.media_router::mojom::MediaSink"* %0, i64 0, i32 6, i32 0, i32 0, i32 0, i32 0
  %3 = load %"class.media_router::mojom::MediaSinkExtraData"*, %"class.media_router::mojom::MediaSinkExtraData"** %2, align 8
  store %"class.media_router::mojom::MediaSinkExtraData"* null, %"class.media_router::mojom::MediaSinkExtraData"** %2, align 8
  %4 = icmp eq %"class.media_router::mojom::MediaSinkExtraData"* %3, null
  br i1 %4, label %7, label %5

5:                                                ; preds = %1
  tail call void @_ZN12media_router5mojom18MediaSinkExtraData13DestroyActiveEv(%"class.media_router::mojom::MediaSinkExtraData"* nonnull %3) #13
  %6 = bitcast %"class.media_router::mojom::MediaSinkExtraData"* %3 to i8*
  tail call void @_ZdlPv(i8* %6) #14
  br label %7

7:                                                ; preds = %1, %5
  %8 = getelementptr inbounds %"class.media_router::mojom::MediaSink", %"class.media_router::mojom::MediaSink"* %0, i64 0, i32 3, i32 0, i32 0, i32 0, i32 0
  %9 = load i8, i8* %8, align 8, !range !2
  %10 = icmp eq i8 %9, 0
  br i1 %10, label %21, label %11

11:                                               ; preds = %7
  %12 = getelementptr inbounds %"class.media_router::mojom::MediaSink", %"class.media_router::mojom::MediaSink"* %0, i64 0, i32 3, i32 0, i32 0, i32 0, i32 1, i32 0
  %13 = bitcast %"class.std::__1::basic_string"* %12 to %"struct.std::__1::basic_string<char, std::__1::char_traits<char>, std::__1::allocator<char> >::__short"*
  %14 = getelementptr inbounds %"struct.std::__1::basic_string<char, std::__1::char_traits<char>, std::__1::allocator<char> >::__short", %"struct.std::__1::basic_string<char, std::__1::char_traits<char>, std::__1::allocator<char> >::__short"* %13, i64 0, i32 1, i32 0
  %15 = load i8, i8* %14, align 1
  %16 = icmp slt i8 %15, 0
  br i1 %16, label %17, label %20

17:                                               ; preds = %11
  %18 = getelementptr inbounds %"class.std::__1::basic_string", %"class.std::__1::basic_string"* %12, i64 0, i32 0, i32 0, i32 0, i32 0, i32 0, i32 0
  %19 = load i8*, i8** %18, align 8
  tail call void @_ZdlPv(i8* %19) #14
  br label %20

20:                                               ; preds = %17, %11
  store i8 0, i8* %8, align 8
  br label %21

21:                                               ; preds = %7, %20
  %22 = getelementptr inbounds %"class.media_router::mojom::MediaSink", %"class.media_router::mojom::MediaSink"* %0, i64 0, i32 2, i32 0, i32 0, i32 0, i32 0
  %23 = load i8, i8* %22, align 8, !range !2
  %24 = icmp eq i8 %23, 0
  br i1 %24, label %35, label %25

25:                                               ; preds = %21
  %26 = getelementptr inbounds %"class.media_router::mojom::MediaSink", %"class.media_router::mojom::MediaSink"* %0, i64 0, i32 2, i32 0, i32 0, i32 0, i32 1, i32 0
  %27 = bitcast %"class.std::__1::basic_string"* %26 to %"struct.std::__1::basic_string<char, std::__1::char_traits<char>, std::__1::allocator<char> >::__short"*
  %28 = getelementptr inbounds %"struct.std::__1::basic_string<char, std::__1::char_traits<char>, std::__1::allocator<char> >::__short", %"struct.std::__1::basic_string<char, std::__1::char_traits<char>, std::__1::allocator<char> >::__short"* %27, i64 0, i32 1, i32 0
  %29 = load i8, i8* %28, align 1
  %30 = icmp slt i8 %29, 0
  br i1 %30, label %31, label %34

31:                                               ; preds = %25
  %32 = getelementptr inbounds %"class.std::__1::basic_string", %"class.std::__1::basic_string"* %26, i64 0, i32 0, i32 0, i32 0, i32 0, i32 0, i32 0
  %33 = load i8*, i8** %32, align 8
  tail call void @_ZdlPv(i8* %33) #14
  br label %34

34:                                               ; preds = %31, %25
  store i8 0, i8* %22, align 8
  br label %35

35:                                               ; preds = %21, %34
  %36 = getelementptr inbounds %"class.media_router::mojom::MediaSink", %"class.media_router::mojom::MediaSink"* %0, i64 0, i32 1
  %37 = bitcast %"class.std::__1::basic_string"* %36 to %"struct.std::__1::basic_string<char, std::__1::char_traits<char>, std::__1::allocator<char> >::__short"*
  %38 = getelementptr inbounds %"struct.std::__1::basic_string<char, std::__1::char_traits<char>, std::__1::allocator<char> >::__short", %"struct.std::__1::basic_string<char, std::__1::char_traits<char>, std::__1::allocator<char> >::__short"* %37, i64 0, i32 1, i32 0
  %39 = load i8, i8* %38, align 1
  %40 = icmp slt i8 %39, 0
  br i1 %40, label %41, label %44

41:                                               ; preds = %35
  %42 = getelementptr inbounds %"class.std::__1::basic_string", %"class.std::__1::basic_string"* %36, i64 0, i32 0, i32 0, i32 0, i32 0, i32 0, i32 0
  %43 = load i8*, i8** %42, align 8
  tail call void @_ZdlPv(i8* %43) #14
  br label %44

44:                                               ; preds = %35, %41
  %45 = bitcast %"class.media_router::mojom::MediaSink"* %0 to %"struct.std::__1::basic_string<char, std::__1::char_traits<char>, std::__1::allocator<char> >::__short"*
  %46 = getelementptr inbounds %"struct.std::__1::basic_string<char, std::__1::char_traits<char>, std::__1::allocator<char> >::__short", %"struct.std::__1::basic_string<char, std::__1::char_traits<char>, std::__1::allocator<char> >::__short"* %45, i64 0, i32 1, i32 0
  %47 = load i8, i8* %46, align 1
  %48 = icmp slt i8 %47, 0
  br i1 %48, label %49, label %52

49:                                               ; preds = %44
  %50 = getelementptr inbounds %"class.media_router::mojom::MediaSink", %"class.media_router::mojom::MediaSink"* %0, i64 0, i32 0, i32 0, i32 0, i32 0, i32 0, i32 0, i32 0
  %51 = load i8*, i8** %50, align 8
  tail call void @_ZdlPv(i8* %51) #14
  br label %52

52:                                               ; preds = %44, %49
  ret void
}

; Function Attrs: nounwind ssp uwtable
define hidden void @_ZNK12media_router5mojom9MediaSink14WriteIntoTraceEN8perfetto11TracedValueE(%"class.media_router::mojom::MediaSink"*, %"class.perfetto::TracedValue"*) local_unnamed_addr #0 align 2 {
  %3 = alloca %"class.perfetto::TracedValue", align 8
  %4 = alloca %"class.perfetto::TracedValue", align 8
  %5 = alloca %"class.perfetto::TracedValue", align 8
  %6 = alloca %"class.perfetto::TracedValue", align 8
  %7 = alloca %"class.perfetto::TracedValue", align 8
  %8 = alloca %"class.perfetto::TracedValue", align 8
  %9 = alloca %"class.perfetto::TracedValue", align 8
  %10 = alloca %"class.perfetto::TracedValue", align 8
  %11 = alloca %"class.perfetto::TracedDictionary", align 8
  %12 = alloca %"class.perfetto::TracedValue", align 8
  %13 = alloca %"class.perfetto::TracedValue", align 8
  %14 = alloca %"class.perfetto::TracedValue", align 8
  %15 = alloca %"class.perfetto::TracedValue", align 8
  %16 = alloca %"class.perfetto::TracedValue", align 8
  %17 = alloca %"class.perfetto::TracedValue", align 8
  %18 = alloca %"class.perfetto::TracedValue", align 8
  %19 = alloca %"class.std::__1::basic_string", align 8
  %20 = bitcast %"class.perfetto::TracedDictionary"* %11 to i8*
  call void @llvm.lifetime.start.p0i8(i64 16, i8* nonnull %20) #13
  %21 = bitcast %"class.perfetto::TracedDictionary"* %11 to i8*
  call void @llvm.memset.p0i8.i64(i8* nonnull align 8 %21, i8 -86, i64 16, i1 false)
  call void @_ZNO8perfetto11TracedValue15WriteDictionaryEv(%"class.perfetto::TracedDictionary"* nonnull sret %11, %"class.perfetto::TracedValue"* %1) #13
  call void @_ZN8perfetto16TracedDictionary7AddItemENS_12StaticStringE(%"class.perfetto::TracedValue"* nonnull sret %12, %"class.perfetto::TracedDictionary"* nonnull %11, i8* getelementptr inbounds ([8 x i8], [8 x i8]* @.str, i64 0, i64 0)) #13
  %22 = getelementptr inbounds %"class.media_router::mojom::MediaSink", %"class.media_router::mojom::MediaSink"* %0, i64 0, i32 0
  %23 = bitcast %"class.perfetto::TracedValue"* %12 to i8*
  %24 = bitcast %"class.perfetto::TracedValue"* %10 to i8*
  call void @llvm.lifetime.start.p0i8(i64 16, i8* nonnull %24) #13
  call void @llvm.memcpy.p0i8.p0i8.i64(i8* nonnull align 8 %24, i8* nonnull align 8 %23, i64 16, i1 false) #13
  call void @_ZNO8perfetto11TracedValue11WriteStringERKNSt3__112basic_stringIcNS1_11char_traitsIcEENS1_9allocatorIcEEEE(%"class.perfetto::TracedValue"* nonnull %10, %"class.std::__1::basic_string"* dereferenceable(24) %22) #13
  call void @llvm.lifetime.end.p0i8(i64 16, i8* nonnull %24) #13
  call void @_ZN8perfetto16TracedDictionary7AddItemENS_12StaticStringE(%"class.perfetto::TracedValue"* nonnull sret %13, %"class.perfetto::TracedDictionary"* nonnull %11, i8* getelementptr inbounds ([5 x i8], [5 x i8]* @.str.2, i64 0, i64 0)) #13
  %25 = getelementptr inbounds %"class.media_router::mojom::MediaSink", %"class.media_router::mojom::MediaSink"* %0, i64 0, i32 1
  %26 = bitcast %"class.perfetto::TracedValue"* %13 to i8*
  %27 = bitcast %"class.perfetto::TracedValue"* %9 to i8*
  call void @llvm.lifetime.start.p0i8(i64 16, i8* nonnull %27) #13
  call void @llvm.memcpy.p0i8.p0i8.i64(i8* nonnull align 8 %27, i8* nonnull align 8 %26, i64 16, i1 false) #13
  call void @_ZNO8perfetto11TracedValue11WriteStringERKNSt3__112basic_stringIcNS1_11char_traitsIcEENS1_9allocatorIcEEEE(%"class.perfetto::TracedValue"* nonnull %9, %"class.std::__1::basic_string"* dereferenceable(24) %25) #13
  call void @llvm.lifetime.end.p0i8(i64 16, i8* nonnull %27) #13
  call void @_ZN8perfetto16TracedDictionary7AddItemENS_12StaticStringE(%"class.perfetto::TracedValue"* nonnull sret %14, %"class.perfetto::TracedDictionary"* nonnull %11, i8* getelementptr inbounds ([12 x i8], [12 x i8]* @.str.3, i64 0, i64 0)) #13
  %28 = bitcast %"class.perfetto::TracedValue"* %14 to i8*
  %29 = bitcast %"class.perfetto::TracedValue"* %8 to i8*
  call void @llvm.lifetime.start.p0i8(i64 16, i8* nonnull %29) #13
  call void @llvm.memcpy.p0i8.p0i8.i64(i8* nonnull align 8 %29, i8* nonnull align 8 %28, i64 16, i1 false) #13
  %30 = getelementptr inbounds %"class.media_router::mojom::MediaSink", %"class.media_router::mojom::MediaSink"* %0, i64 0, i32 2, i32 0, i32 0, i32 0, i32 0
  %31 = load i8, i8* %30, align 8, !range !2
  %32 = icmp eq i8 %31, 0
  br i1 %32, label %33, label %34

33:                                               ; preds = %2
  call void @_ZNO8perfetto11TracedValue12WritePointerEPKv(%"class.perfetto::TracedValue"* nonnull %8, i8* null) #13
  br label %37

34:                                               ; preds = %2
  %35 = getelementptr inbounds %"class.media_router::mojom::MediaSink", %"class.media_router::mojom::MediaSink"* %0, i64 0, i32 2, i32 0, i32 0, i32 0, i32 1, i32 0
  %36 = bitcast %"class.perfetto::TracedValue"* %7 to i8*
  call void @llvm.lifetime.start.p0i8(i64 16, i8* nonnull %36) #13
  call void @llvm.memcpy.p0i8.p0i8.i64(i8* nonnull align 8 %36, i8* nonnull align 8 %29, i64 16, i1 false) #13
  call void @_ZNO8perfetto11TracedValue11WriteStringERKNSt3__112basic_stringIcNS1_11char_traitsIcEENS1_9allocatorIcEEEE(%"class.perfetto::TracedValue"* nonnull %7, %"class.std::__1::basic_string"* dereferenceable(24) %35) #13
  call void @llvm.lifetime.end.p0i8(i64 16, i8* nonnull %36) #13
  br label %37

37:                                               ; preds = %34, %33
  call void @llvm.lifetime.end.p0i8(i64 16, i8* nonnull %29) #13
  call void @_ZN8perfetto16TracedDictionary7AddItemENS_12StaticStringE(%"class.perfetto::TracedValue"* nonnull sret %15, %"class.perfetto::TracedDictionary"* nonnull %11, i8* getelementptr inbounds ([7 x i8], [7 x i8]* @.str.4, i64 0, i64 0)) #13
  %38 = bitcast %"class.perfetto::TracedValue"* %15 to i8*
  %39 = bitcast %"class.perfetto::TracedValue"* %6 to i8*
  call void @llvm.lifetime.start.p0i8(i64 16, i8* nonnull %39) #13
  call void @llvm.memcpy.p0i8.p0i8.i64(i8* nonnull align 8 %39, i8* nonnull align 8 %38, i64 16, i1 false) #13
  %40 = getelementptr inbounds %"class.media_router::mojom::MediaSink", %"class.media_router::mojom::MediaSink"* %0, i64 0, i32 3, i32 0, i32 0, i32 0, i32 0
  %41 = load i8, i8* %40, align 8, !range !2
  %42 = icmp eq i8 %41, 0
  br i1 %42, label %43, label %44

43:                                               ; preds = %37
  call void @_ZNO8perfetto11TracedValue12WritePointerEPKv(%"class.perfetto::TracedValue"* nonnull %6, i8* null) #13
  br label %47

44:                                               ; preds = %37
  %45 = getelementptr inbounds %"class.media_router::mojom::MediaSink", %"class.media_router::mojom::MediaSink"* %0, i64 0, i32 3, i32 0, i32 0, i32 0, i32 1, i32 0
  %46 = bitcast %"class.perfetto::TracedValue"* %5 to i8*
  call void @llvm.lifetime.start.p0i8(i64 16, i8* nonnull %46) #13
  call void @llvm.memcpy.p0i8.p0i8.i64(i8* nonnull align 8 %46, i8* nonnull align 8 %39, i64 16, i1 false) #13
  call void @_ZNO8perfetto11TracedValue11WriteStringERKNSt3__112basic_stringIcNS1_11char_traitsIcEENS1_9allocatorIcEEEE(%"class.perfetto::TracedValue"* nonnull %5, %"class.std::__1::basic_string"* dereferenceable(24) %45) #13
  call void @llvm.lifetime.end.p0i8(i64 16, i8* nonnull %46) #13
  br label %47

47:                                               ; preds = %44, %43
  call void @llvm.lifetime.end.p0i8(i64 16, i8* nonnull %39) #13
  call void @_ZN8perfetto16TracedDictionary7AddItemENS_12StaticStringE(%"class.perfetto::TracedValue"* nonnull sret %16, %"class.perfetto::TracedDictionary"* nonnull %11, i8* getelementptr inbounds ([10 x i8], [10 x i8]* @.str.5, i64 0, i64 0)) #13
  %48 = getelementptr inbounds %"class.media_router::mojom::MediaSink", %"class.media_router::mojom::MediaSink"* %0, i64 0, i32 4
  %49 = bitcast %"class.perfetto::TracedValue"* %16 to i8*
  %50 = bitcast %"class.perfetto::TracedValue"* %4 to i8*
  call void @llvm.lifetime.start.p0i8(i64 16, i8* nonnull %50) #13
  call void @llvm.memcpy.p0i8.p0i8.i64(i8* nonnull align 8 %50, i8* nonnull align 8 %49, i64 16, i1 false) #13
  %51 = load i32, i32* %48, align 4
  call void @_ZN8perfetto17TraceFormatTraitsIN12media_router5mojom12SinkIconTypeEvE14WriteIntoTraceENS_11TracedValueES3_(%"class.perfetto::TracedValue"* nonnull %4, i32 %51) #13
  call void @llvm.lifetime.end.p0i8(i64 16, i8* nonnull %50) #13
  call void @_ZN8perfetto16TracedDictionary7AddItemENS_12StaticStringE(%"class.perfetto::TracedValue"* nonnull sret %17, %"class.perfetto::TracedDictionary"* nonnull %11, i8* getelementptr inbounds ([12 x i8], [12 x i8]* @.str.6, i64 0, i64 0)) #13
  %52 = getelementptr inbounds %"class.media_router::mojom::MediaSink", %"class.media_router::mojom::MediaSink"* %0, i64 0, i32 5
  %53 = bitcast %"class.perfetto::TracedValue"* %17 to i8*
  %54 = bitcast %"class.perfetto::TracedValue"* %3 to i8*
  call void @llvm.lifetime.start.p0i8(i64 16, i8* nonnull %54) #13
  call void @llvm.memcpy.p0i8.p0i8.i64(i8* nonnull align 8 %54, i8* nonnull align 8 %53, i64 16, i1 false) #13
  %55 = load i32, i32* %52, align 4
  %56 = zext i32 %55 to i64
  call void @_ZNO8perfetto11TracedValue11WriteUInt64Em(%"class.perfetto::TracedValue"* nonnull %3, i64 %56) #13
  call void @llvm.lifetime.end.p0i8(i64 16, i8* nonnull %54) #13
  call void @_ZN8perfetto16TracedDictionary7AddItemENS_12StaticStringE(%"class.perfetto::TracedValue"* nonnull sret %18, %"class.perfetto::TracedDictionary"* nonnull %11, i8* getelementptr inbounds ([11 x i8], [11 x i8]* @.str.7, i64 0, i64 0)) #13
  %57 = bitcast %"class.std::__1::basic_string"* %19 to i8*
  call void @llvm.lifetime.start.p0i8(i64 24, i8* nonnull %57) #13
  %58 = bitcast %"class.std::__1::basic_string"* %19 to %"struct.std::__1::basic_string<char, std::__1::char_traits<char>, std::__1::allocator<char> >::__short"*
  %59 = getelementptr inbounds %"struct.std::__1::basic_string<char, std::__1::char_traits<char>, std::__1::allocator<char> >::__short", %"struct.std::__1::basic_string<char, std::__1::char_traits<char>, std::__1::allocator<char> >::__short"* %58, i64 0, i32 1, i32 0
  store i8 7, i8* %59, align 1
  call void @llvm.memcpy.p0i8.p0i8.i64(i8* nonnull align 8 %57, i8* align 1 getelementptr inbounds ([8 x i8], [8 x i8]* @.str.1, i64 0, i64 0), i64 7, i1 false) #13
  %60 = getelementptr inbounds i8, i8* %57, i64 7
  store i8 0, i8* %60, align 1
  call void @_ZNO8perfetto11TracedValue11WriteStringERKNSt3__112basic_stringIcNS1_11char_traitsIcEENS1_9allocatorIcEEEE(%"class.perfetto::TracedValue"* nonnull %18, %"class.std::__1::basic_string"* nonnull dereferenceable(24) %19) #13
  %61 = load i8, i8* %59, align 1
  %62 = icmp slt i8 %61, 0
  br i1 %62, label %63, label %66

63:                                               ; preds = %47
  %64 = getelementptr inbounds %"class.std::__1::basic_string", %"class.std::__1::basic_string"* %19, i64 0, i32 0, i32 0, i32 0, i32 0, i32 0, i32 0
  %65 = load i8*, i8** %64, align 8
  call void @_ZdlPv(i8* %65) #14
  br label %66

66:                                               ; preds = %47, %63
  call void @llvm.lifetime.end.p0i8(i64 24, i8* nonnull %57) #13
  call void @llvm.lifetime.end.p0i8(i64 16, i8* nonnull %20) #13
  ret void
}

; Function Attrs: argmemonly nounwind
declare void @llvm.lifetime.start.p0i8(i64 immarg, i8* nocapture) #1

declare void @_ZNO8perfetto11TracedValue15WriteDictionaryEv(%"class.perfetto::TracedDictionary"* sret, %"class.perfetto::TracedValue"*) local_unnamed_addr #2

declare void @_ZN8perfetto16TracedDictionary7AddItemENS_12StaticStringE(%"class.perfetto::TracedValue"* sret, %"class.perfetto::TracedDictionary"*, i8*) local_unnamed_addr #2

; Function Attrs: argmemonly nounwind
declare void @llvm.lifetime.end.p0i8(i64 immarg, i8* nocapture) #1

; Function Attrs: nounwind ssp uwtable
define hidden zeroext i1 @_ZN12media_router5mojom9MediaSink8ValidateEPKvPN4mojo8internal17ValidationContextE(i8*, %"class.mojo::internal::ValidationContext"*) local_unnamed_addr #0 align 2 {
  %3 = tail call zeroext i1 @_ZN12media_router5mojom8internal14MediaSink_Data8ValidateEPKvPN4mojo8internal17ValidationContextE(i8* %0, %"class.mojo::internal::ValidationContext"* %1) #13
  ret i1 %3
}

declare zeroext i1 @_ZN12media_router5mojom8internal14MediaSink_Data8ValidateEPKvPN4mojo8internal17ValidationContextE(i8*, %"class.mojo::internal::ValidationContext"*) local_unnamed_addr #2

; Function Attrs: nounwind ssp uwtable
define hidden void @_ZN12media_router5mojom13DialMediaSinkC2Ev(%"class.media_router::mojom::DialMediaSink"*) unnamed_addr #0 align 2 {
  %2 = getelementptr inbounds %"class.media_router::mojom::DialMediaSink", %"class.media_router::mojom::DialMediaSink"* %0, i64 0, i32 0
  tail call void @_ZN3net9IPAddressC1Ev(%"class.net::IPAddress"* %2) #13
  %3 = getelementptr inbounds %"class.media_router::mojom::DialMediaSink", %"class.media_router::mojom::DialMediaSink"* %0, i64 0, i32 1
  %4 = bitcast %"class.std::__1::basic_string"* %3 to i8*
  tail call void @llvm.memset.p0i8.i64(i8* align 8 %4, i8 0, i64 24, i1 false) #13
  %5 = getelementptr inbounds %"class.media_router::mojom::DialMediaSink", %"class.media_router::mojom::DialMediaSink"* %0, i64 0, i32 2
  tail call void @_ZN4GURLC1Ev(%class.GURL* %5) #13
  ret void
}

declare void @_ZN3net9IPAddressC1Ev(%"class.net::IPAddress"*) unnamed_addr #2

declare void @_ZN4GURLC1Ev(%class.GURL*) unnamed_addr #2

; Function Attrs: nounwind ssp uwtable
define hidden void @_ZN12media_router5mojom13DialMediaSinkC2ERKN3net9IPAddressERKNSt3__112basic_stringIcNS6_11char_traitsIcEENS6_9allocatorIcEEEERK4GURL(%"class.media_router::mojom::DialMediaSink"*, %"class.net::IPAddress"* dereferenceable(17), %"class.std::__1::basic_string"* nocapture readonly dereferenceable(24), %class.GURL* dereferenceable(120)) unnamed_addr #0 align 2 {
  %5 = getelementptr inbounds %"class.media_router::mojom::DialMediaSink", %"class.media_router::mojom::DialMediaSink"* %0, i64 0, i32 0
  tail call void @_ZN3net9IPAddressC1ERKS0_(%"class.net::IPAddress"* %5, %"class.net::IPAddress"* dereferenceable(17) %1) #13
  %6 = getelementptr inbounds %"class.media_router::mojom::DialMediaSink", %"class.media_router::mojom::DialMediaSink"* %0, i64 0, i32 1
  %7 = bitcast %"class.std::__1::basic_string"* %2 to %"struct.std::__1::basic_string<char, std::__1::char_traits<char>, std::__1::allocator<char> >::__short"*
  %8 = getelementptr inbounds %"struct.std::__1::basic_string<char, std::__1::char_traits<char>, std::__1::allocator<char> >::__short", %"struct.std::__1::basic_string<char, std::__1::char_traits<char>, std::__1::allocator<char> >::__short"* %7, i64 0, i32 1, i32 0
  %9 = load i8, i8* %8, align 1
  %10 = icmp slt i8 %9, 0
  br i1 %10, label %14, label %11

11:                                               ; preds = %4
  %12 = bitcast %"class.std::__1::basic_string"* %6 to i8*
  %13 = bitcast %"class.std::__1::basic_string"* %2 to i8*
  tail call void @llvm.memcpy.p0i8.p0i8.i64(i8* align 8 %12, i8* align 8 %13, i64 24, i1 false) #13
  br label %19

14:                                               ; preds = %4
  %15 = getelementptr inbounds %"class.std::__1::basic_string", %"class.std::__1::basic_string"* %2, i64 0, i32 0, i32 0, i32 0, i32 0, i32 0, i32 0
  %16 = load i8*, i8** %15, align 8
  %17 = getelementptr inbounds %"class.std::__1::basic_string", %"class.std::__1::basic_string"* %2, i64 0, i32 0, i32 0, i32 0, i32 0, i32 0, i32 1
  %18 = load i64, i64* %17, align 8
  tail call void @_ZNSt3__112basic_stringIcNS_11char_traitsIcEENS_9allocatorIcEEE25__init_copy_ctor_externalEPKcm(%"class.std::__1::basic_string"* %6, i8* %16, i64 %18) #13
  br label %19

19:                                               ; preds = %11, %14
  %20 = getelementptr inbounds %"class.media_router::mojom::DialMediaSink", %"class.media_router::mojom::DialMediaSink"* %0, i64 0, i32 2
  tail call void @_ZN4GURLC1ERKS_(%class.GURL* %20, %class.GURL* dereferenceable(120) %3) #13
  ret void
}

declare void @_ZN3net9IPAddressC1ERKS0_(%"class.net::IPAddress"*, %"class.net::IPAddress"* dereferenceable(17)) unnamed_addr #2

declare void @_ZN4GURLC1ERKS_(%class.GURL*, %class.GURL* dereferenceable(120)) unnamed_addr #2

; Function Attrs: nounwind ssp uwtable
define hidden void @_ZN12media_router5mojom13DialMediaSinkD2Ev(%"class.media_router::mojom::DialMediaSink"*) unnamed_addr #0 align 2 {
  %2 = getelementptr inbounds %"class.media_router::mojom::DialMediaSink", %"class.media_router::mojom::DialMediaSink"* %0, i64 0, i32 2
  tail call void @_ZN4GURLD1Ev(%class.GURL* %2) #13
  %3 = getelementptr inbounds %"class.media_router::mojom::DialMediaSink", %"class.media_router::mojom::DialMediaSink"* %0, i64 0, i32 1
  %4 = bitcast %"class.std::__1::basic_string"* %3 to %"struct.std::__1::basic_string<char, std::__1::char_traits<char>, std::__1::allocator<char> >::__short"*
  %5 = getelementptr inbounds %"struct.std::__1::basic_string<char, std::__1::char_traits<char>, std::__1::allocator<char> >::__short", %"struct.std::__1::basic_string<char, std::__1::char_traits<char>, std::__1::allocator<char> >::__short"* %4, i64 0, i32 1, i32 0
  %6 = load i8, i8* %5, align 1
  %7 = icmp slt i8 %6, 0
  br i1 %7, label %8, label %11

8:                                                ; preds = %1
  %9 = getelementptr inbounds %"class.std::__1::basic_string", %"class.std::__1::basic_string"* %3, i64 0, i32 0, i32 0, i32 0, i32 0, i32 0, i32 0
  %10 = load i8*, i8** %9, align 8
  tail call void @_ZdlPv(i8* %10) #14
  br label %11

11:                                               ; preds = %1, %8
  %12 = getelementptr inbounds %"class.media_router::mojom::DialMediaSink", %"class.media_router::mojom::DialMediaSink"* %0, i64 0, i32 0
  tail call void @_ZN3net9IPAddressD1Ev(%"class.net::IPAddress"* %12) #13
  ret void
}

; Function Attrs: nounwind
declare void @_ZN4GURLD1Ev(%class.GURL*) unnamed_addr #3

; Function Attrs: nounwind
declare void @_ZN3net9IPAddressD1Ev(%"class.net::IPAddress"*) unnamed_addr #3

; Function Attrs: nounwind ssp uwtable
define hidden void @_ZNK12media_router5mojom13DialMediaSink14WriteIntoTraceEN8perfetto11TracedValueE(%"class.media_router::mojom::DialMediaSink"*, %"class.perfetto::TracedValue"*) local_unnamed_addr #0 align 2 {
  %3 = alloca %"class.perfetto::TracedValue", align 8
  %4 = alloca %"class.perfetto::TracedValue", align 8
  %5 = alloca %"class.perfetto::TracedDictionary", align 8
  %6 = alloca %"class.perfetto::TracedValue", align 8
  %7 = alloca %"class.std::__1::basic_string", align 8
  %8 = alloca %"class.perfetto::TracedValue", align 8
  %9 = alloca %"class.perfetto::TracedValue", align 8
  %10 = bitcast %"class.perfetto::TracedDictionary"* %5 to i8*
  call void @llvm.lifetime.start.p0i8(i64 16, i8* nonnull %10) #13
  %11 = bitcast %"class.perfetto::TracedDictionary"* %5 to i8*
  call void @llvm.memset.p0i8.i64(i8* nonnull align 8 %11, i8 -86, i64 16, i1 false)
  call void @_ZNO8perfetto11TracedValue15WriteDictionaryEv(%"class.perfetto::TracedDictionary"* nonnull sret %5, %"class.perfetto::TracedValue"* %1) #13
  call void @_ZN8perfetto16TracedDictionary7AddItemENS_12StaticStringE(%"class.perfetto::TracedValue"* nonnull sret %6, %"class.perfetto::TracedDictionary"* nonnull %5, i8* getelementptr inbounds ([11 x i8], [11 x i8]* @.str.8, i64 0, i64 0)) #13
  %12 = bitcast %"class.std::__1::basic_string"* %7 to i8*
  call void @llvm.lifetime.start.p0i8(i64 24, i8* nonnull %12) #13
  %13 = bitcast %"class.std::__1::basic_string"* %7 to %"struct.std::__1::basic_string<char, std::__1::char_traits<char>, std::__1::allocator<char> >::__short"*
  %14 = getelementptr inbounds %"struct.std::__1::basic_string<char, std::__1::char_traits<char>, std::__1::allocator<char> >::__short", %"struct.std::__1::basic_string<char, std::__1::char_traits<char>, std::__1::allocator<char> >::__short"* %13, i64 0, i32 1, i32 0
  store i8 7, i8* %14, align 1
  call void @llvm.memcpy.p0i8.p0i8.i64(i8* nonnull align 8 %12, i8* align 1 getelementptr inbounds ([8 x i8], [8 x i8]* @.str.1, i64 0, i64 0), i64 7, i1 false) #13
  %15 = getelementptr inbounds i8, i8* %12, i64 7
  store i8 0, i8* %15, align 1
  call void @_ZNO8perfetto11TracedValue11WriteStringERKNSt3__112basic_stringIcNS1_11char_traitsIcEENS1_9allocatorIcEEEE(%"class.perfetto::TracedValue"* nonnull %6, %"class.std::__1::basic_string"* nonnull dereferenceable(24) %7) #13
  %16 = load i8, i8* %14, align 1
  %17 = icmp slt i8 %16, 0
  br i1 %17, label %18, label %21

18:                                               ; preds = %2
  %19 = getelementptr inbounds %"class.std::__1::basic_string", %"class.std::__1::basic_string"* %7, i64 0, i32 0, i32 0, i32 0, i32 0, i32 0, i32 0
  %20 = load i8*, i8** %19, align 8
  call void @_ZdlPv(i8* %20) #14
  br label %21

21:                                               ; preds = %2, %18
  call void @llvm.lifetime.end.p0i8(i64 24, i8* nonnull %12) #13
  call void @_ZN8perfetto16TracedDictionary7AddItemENS_12StaticStringE(%"class.perfetto::TracedValue"* nonnull sret %8, %"class.perfetto::TracedDictionary"* nonnull %5, i8* getelementptr inbounds ([11 x i8], [11 x i8]* @.str.9, i64 0, i64 0)) #13
  %22 = getelementptr inbounds %"class.media_router::mojom::DialMediaSink", %"class.media_router::mojom::DialMediaSink"* %0, i64 0, i32 1
  %23 = bitcast %"class.perfetto::TracedValue"* %8 to i8*
  %24 = bitcast %"class.perfetto::TracedValue"* %3 to i8*
  call void @llvm.lifetime.start.p0i8(i64 16, i8* nonnull %24) #13
  call void @llvm.memcpy.p0i8.p0i8.i64(i8* nonnull align 8 %24, i8* nonnull align 8 %23, i64 16, i1 false) #13
  call void @_ZNO8perfetto11TracedValue11WriteStringERKNSt3__112basic_stringIcNS1_11char_traitsIcEENS1_9allocatorIcEEEE(%"class.perfetto::TracedValue"* nonnull %3, %"class.std::__1::basic_string"* dereferenceable(24) %22) #13
  call void @llvm.lifetime.end.p0i8(i64 16, i8* nonnull %24) #13
  call void @_ZN8perfetto16TracedDictionary7AddItemENS_12StaticStringE(%"class.perfetto::TracedValue"* nonnull sret %9, %"class.perfetto::TracedDictionary"* nonnull %5, i8* getelementptr inbounds ([8 x i8], [8 x i8]* @.str.10, i64 0, i64 0)) #13
  %25 = getelementptr inbounds %"class.media_router::mojom::DialMediaSink", %"class.media_router::mojom::DialMediaSink"* %0, i64 0, i32 2
  %26 = bitcast %"class.perfetto::TracedValue"* %9 to i8*
  %27 = bitcast %"class.perfetto::TracedValue"* %4 to i8*
  call void @llvm.lifetime.start.p0i8(i64 16, i8* nonnull %27) #13
  call void @llvm.memcpy.p0i8.p0i8.i64(i8* nonnull align 8 %27, i8* nonnull align 8 %26, i64 16, i1 false) #13
  call void @_ZNK4GURL14WriteIntoTraceEN8perfetto11TracedValueE(%class.GURL* %25, %"class.perfetto::TracedValue"* nonnull %4) #13
  call void @llvm.lifetime.end.p0i8(i64 16, i8* nonnull %27) #13
  call void @llvm.lifetime.end.p0i8(i64 16, i8* nonnull %10) #13
  ret void
}

; Function Attrs: nounwind ssp uwtable
define hidden zeroext i1 @_ZN12media_router5mojom13DialMediaSink8ValidateEPKvPN4mojo8internal17ValidationContextE(i8*, %"class.mojo::internal::ValidationContext"*) local_unnamed_addr #0 align 2 {
  %3 = tail call zeroext i1 @_ZN12media_router5mojom8internal18DialMediaSink_Data8ValidateEPKvPN4mojo8internal17ValidationContextE(i8* %0, %"class.mojo::internal::ValidationContext"* %1) #13
  ret i1 %3
}

declare zeroext i1 @_ZN12media_router5mojom8internal18DialMediaSink_Data8ValidateEPKvPN4mojo8internal17ValidationContextE(i8*, %"class.mojo::internal::ValidationContext"*) local_unnamed_addr #2

; Function Attrs: nounwind ssp uwtable
define hidden void @_ZN12media_router5mojom13CastMediaSinkC2Ev(%"class.media_router::mojom::CastMediaSink"*) unnamed_addr #0 align 2 {
  %2 = getelementptr inbounds %"class.media_router::mojom::CastMediaSink", %"class.media_router::mojom::CastMediaSink"* %0, i64 0, i32 0
  tail call void @_ZN3net10IPEndPointC1Ev(%"class.net::IPEndPoint"* %2) #13
  %3 = getelementptr inbounds %"class.media_router::mojom::CastMediaSink", %"class.media_router::mojom::CastMediaSink"* %0, i64 0, i32 1
  %4 = getelementptr inbounds %"class.media_router::mojom::CastMediaSink", %"class.media_router::mojom::CastMediaSink"* %0, i64 0, i32 3
  store i32 0, i32* %4, align 4
  %5 = bitcast %"class.std::__1::basic_string"* %3 to i8*
  call void @llvm.memset.p0i8.i64(i8* align 8 %5, i8 0, i64 25, i1 false)
  ret void
}

declare void @_ZN3net10IPEndPointC1Ev(%"class.net::IPEndPoint"*) unnamed_addr #2

; Function Attrs: nounwind ssp uwtable
define hidden void @_ZN12media_router5mojom13CastMediaSinkC2ERKN3net10IPEndPointERKNSt3__112basic_stringIcNS6_11char_traitsIcEENS6_9allocatorIcEEEEhi(%"class.media_router::mojom::CastMediaSink"*, %"class.net::IPEndPoint"* dereferenceable(20), %"class.std::__1::basic_string"* nocapture readonly dereferenceable(24), i8 zeroext, i32) unnamed_addr #0 align 2 {
  %6 = getelementptr inbounds %"class.media_router::mojom::CastMediaSink", %"class.media_router::mojom::CastMediaSink"* %0, i64 0, i32 0
  tail call void @_ZN3net10IPEndPointC1ERKS0_(%"class.net::IPEndPoint"* %6, %"class.net::IPEndPoint"* dereferenceable(20) %1) #13
  %7 = getelementptr inbounds %"class.media_router::mojom::CastMediaSink", %"class.media_router::mojom::CastMediaSink"* %0, i64 0, i32 1
  %8 = bitcast %"class.std::__1::basic_string"* %2 to %"struct.std::__1::basic_string<char, std::__1::char_traits<char>, std::__1::allocator<char> >::__short"*
  %9 = getelementptr inbounds %"struct.std::__1::basic_string<char, std::__1::char_traits<char>, std::__1::allocator<char> >::__short", %"struct.std::__1::basic_string<char, std::__1::char_traits<char>, std::__1::allocator<char> >::__short"* %8, i64 0, i32 1, i32 0
  %10 = load i8, i8* %9, align 1
  %11 = icmp slt i8 %10, 0
  br i1 %11, label %15, label %12

12:                                               ; preds = %5
  %13 = bitcast %"class.std::__1::basic_string"* %7 to i8*
  %14 = bitcast %"class.std::__1::basic_string"* %2 to i8*
  tail call void @llvm.memcpy.p0i8.p0i8.i64(i8* align 8 %13, i8* align 8 %14, i64 24, i1 false) #13
  br label %20

15:                                               ; preds = %5
  %16 = getelementptr inbounds %"class.std::__1::basic_string", %"class.std::__1::basic_string"* %2, i64 0, i32 0, i32 0, i32 0, i32 0, i32 0, i32 0
  %17 = load i8*, i8** %16, align 8
  %18 = getelementptr inbounds %"class.std::__1::basic_string", %"class.std::__1::basic_string"* %2, i64 0, i32 0, i32 0, i32 0, i32 0, i32 0, i32 1
  %19 = load i64, i64* %18, align 8
  tail call void @_ZNSt3__112basic_stringIcNS_11char_traitsIcEENS_9allocatorIcEEE25__init_copy_ctor_externalEPKcm(%"class.std::__1::basic_string"* %7, i8* %17, i64 %19) #13
  br label %20

20:                                               ; preds = %12, %15
  %21 = getelementptr inbounds %"class.media_router::mojom::CastMediaSink", %"class.media_router::mojom::CastMediaSink"* %0, i64 0, i32 2
  store i8 %3, i8* %21, align 8
  %22 = getelementptr inbounds %"class.media_router::mojom::CastMediaSink", %"class.media_router::mojom::CastMediaSink"* %0, i64 0, i32 3
  store i32 %4, i32* %22, align 4
  ret void
}

declare void @_ZN3net10IPEndPointC1ERKS0_(%"class.net::IPEndPoint"*, %"class.net::IPEndPoint"* dereferenceable(20)) unnamed_addr #2

; Function Attrs: nounwind ssp uwtable
define hidden void @_ZN12media_router5mojom13CastMediaSinkD2Ev(%"class.media_router::mojom::CastMediaSink"*) unnamed_addr #0 align 2 {
  %2 = getelementptr inbounds %"class.media_router::mojom::CastMediaSink", %"class.media_router::mojom::CastMediaSink"* %0, i64 0, i32 1
  %3 = bitcast %"class.std::__1::basic_string"* %2 to %"struct.std::__1::basic_string<char, std::__1::char_traits<char>, std::__1::allocator<char> >::__short"*
  %4 = getelementptr inbounds %"struct.std::__1::basic_string<char, std::__1::char_traits<char>, std::__1::allocator<char> >::__short", %"struct.std::__1::basic_string<char, std::__1::char_traits<char>, std::__1::allocator<char> >::__short"* %3, i64 0, i32 1, i32 0
  %5 = load i8, i8* %4, align 1
  %6 = icmp slt i8 %5, 0
  br i1 %6, label %7, label %10

7:                                                ; preds = %1
  %8 = getelementptr inbounds %"class.std::__1::basic_string", %"class.std::__1::basic_string"* %2, i64 0, i32 0, i32 0, i32 0, i32 0, i32 0, i32 0
  %9 = load i8*, i8** %8, align 8
  tail call void @_ZdlPv(i8* %9) #14
  br label %10

10:                                               ; preds = %1, %7
  %11 = getelementptr inbounds %"class.media_router::mojom::CastMediaSink", %"class.media_router::mojom::CastMediaSink"* %0, i64 0, i32 0
  tail call void @_ZN3net10IPEndPointD1Ev(%"class.net::IPEndPoint"* %11) #13
  ret void
}

; Function Attrs: nounwind
declare void @_ZN3net10IPEndPointD1Ev(%"class.net::IPEndPoint"*) unnamed_addr #3

; Function Attrs: nounwind ssp uwtable
define hidden void @_ZNK12media_router5mojom13CastMediaSink14WriteIntoTraceEN8perfetto11TracedValueE(%"class.media_router::mojom::CastMediaSink"*, %"class.perfetto::TracedValue"*) local_unnamed_addr #0 align 2 {
  %3 = alloca %"class.perfetto::TracedValue", align 8
  %4 = alloca %"class.perfetto::TracedValue", align 8
  %5 = alloca %"class.perfetto::TracedValue", align 8
  %6 = alloca %"class.perfetto::TracedDictionary", align 8
  %7 = alloca %"class.perfetto::TracedValue", align 8
  %8 = alloca %"class.std::__1::basic_string", align 8
  %9 = alloca %"class.perfetto::TracedValue", align 8
  %10 = alloca %"class.perfetto::TracedValue", align 8
  %11 = alloca %"class.perfetto::TracedValue", align 8
  %12 = bitcast %"class.perfetto::TracedDictionary"* %6 to i8*
  call void @llvm.lifetime.start.p0i8(i64 16, i8* nonnull %12) #13
  %13 = bitcast %"class.perfetto::TracedDictionary"* %6 to i8*
  call void @llvm.memset.p0i8.i64(i8* nonnull align 8 %13, i8 -86, i64 16, i1 false)
  call void @_ZNO8perfetto11TracedValue15WriteDictionaryEv(%"class.perfetto::TracedDictionary"* nonnull sret %6, %"class.perfetto::TracedValue"* %1) #13
  call void @_ZN8perfetto16TracedDictionary7AddItemENS_12StaticStringE(%"class.perfetto::TracedValue"* nonnull sret %7, %"class.perfetto::TracedDictionary"* nonnull %6, i8* getelementptr inbounds ([12 x i8], [12 x i8]* @.str.11, i64 0, i64 0)) #13
  %14 = bitcast %"class.std::__1::basic_string"* %8 to i8*
  call void @llvm.lifetime.start.p0i8(i64 24, i8* nonnull %14) #13
  %15 = bitcast %"class.std::__1::basic_string"* %8 to %"struct.std::__1::basic_string<char, std::__1::char_traits<char>, std::__1::allocator<char> >::__short"*
  %16 = getelementptr inbounds %"struct.std::__1::basic_string<char, std::__1::char_traits<char>, std::__1::allocator<char> >::__short", %"struct.std::__1::basic_string<char, std::__1::char_traits<char>, std::__1::allocator<char> >::__short"* %15, i64 0, i32 1, i32 0
  store i8 7, i8* %16, align 1
  call void @llvm.memcpy.p0i8.p0i8.i64(i8* nonnull align 8 %14, i8* align 1 getelementptr inbounds ([8 x i8], [8 x i8]* @.str.1, i64 0, i64 0), i64 7, i1 false) #13
  %17 = getelementptr inbounds i8, i8* %14, i64 7
  store i8 0, i8* %17, align 1
  call void @_ZNO8perfetto11TracedValue11WriteStringERKNSt3__112basic_stringIcNS1_11char_traitsIcEENS1_9allocatorIcEEEE(%"class.perfetto::TracedValue"* nonnull %7, %"class.std::__1::basic_string"* nonnull dereferenceable(24) %8) #13
  %18 = load i8, i8* %16, align 1
  %19 = icmp slt i8 %18, 0
  br i1 %19, label %20, label %23

20:                                               ; preds = %2
  %21 = getelementptr inbounds %"class.std::__1::basic_string", %"class.std::__1::basic_string"* %8, i64 0, i32 0, i32 0, i32 0, i32 0, i32 0, i32 0
  %22 = load i8*, i8** %21, align 8
  call void @_ZdlPv(i8* %22) #14
  br label %23

23:                                               ; preds = %20, %2
  call void @llvm.lifetime.end.p0i8(i64 24, i8* nonnull %14) #13
  call void @_ZN8perfetto16TracedDictionary7AddItemENS_12StaticStringE(%"class.perfetto::TracedValue"* nonnull sret %9, %"class.perfetto::TracedDictionary"* nonnull %6, i8* getelementptr inbounds ([11 x i8], [11 x i8]* @.str.9, i64 0, i64 0)) #13
  %24 = getelementptr inbounds %"class.media_router::mojom::CastMediaSink", %"class.media_router::mojom::CastMediaSink"* %0, i64 0, i32 1
  %25 = bitcast %"class.perfetto::TracedValue"* %9 to i8*
  %26 = bitcast %"class.perfetto::TracedValue"* %4 to i8*
  call void @llvm.lifetime.start.p0i8(i64 16, i8* nonnull %26) #13
  call void @llvm.memcpy.p0i8.p0i8.i64(i8* nonnull align 8 %26, i8* nonnull align 8 %25, i64 16, i1 false) #13
  call void @_ZNO8perfetto11TracedValue11WriteStringERKNSt3__112basic_stringIcNS1_11char_traitsIcEENS1_9allocatorIcEEEE(%"class.perfetto::TracedValue"* nonnull %4, %"class.std::__1::basic_string"* dereferenceable(24) %24) #13
  call void @llvm.lifetime.end.p0i8(i64 16, i8* nonnull %26) #13
  call void @_ZN8perfetto16TracedDictionary7AddItemENS_12StaticStringE(%"class.perfetto::TracedValue"* nonnull sret %10, %"class.perfetto::TracedDictionary"* nonnull %6, i8* getelementptr inbounds ([13 x i8], [13 x i8]* @.str.12, i64 0, i64 0)) #13
  %27 = getelementptr inbounds %"class.media_router::mojom::CastMediaSink", %"class.media_router::mojom::CastMediaSink"* %0, i64 0, i32 2
  %28 = bitcast %"class.perfetto::TracedValue"* %10 to i8*
  %29 = bitcast %"class.perfetto::TracedValue"* %3 to i8*
  call void @llvm.lifetime.start.p0i8(i64 16, i8* nonnull %29) #13
  call void @llvm.memcpy.p0i8.p0i8.i64(i8* nonnull align 8 %29, i8* nonnull align 8 %28, i64 16, i1 false) #13
  %30 = load i8, i8* %27, align 1
  %31 = zext i8 %30 to i64
  call void @_ZNO8perfetto11TracedValue11WriteUInt64Em(%"class.perfetto::TracedValue"* nonnull %3, i64 %31) #13
  call void @llvm.lifetime.end.p0i8(i64 16, i8* nonnull %29) #13
  call void @_ZN8perfetto16TracedDictionary7AddItemENS_12StaticStringE(%"class.perfetto::TracedValue"* nonnull sret %11, %"class.perfetto::TracedDictionary"* nonnull %6, i8* getelementptr inbounds ([16 x i8], [16 x i8]* @.str.13, i64 0, i64 0)) #13
  %32 = getelementptr inbounds %"class.media_router::mojom::CastMediaSink", %"class.media_router::mojom::CastMediaSink"* %0, i64 0, i32 3
  %33 = bitcast %"class.perfetto::TracedValue"* %11 to i8*
  %34 = bitcast %"class.perfetto::TracedValue"* %5 to i8*
  call void @llvm.lifetime.start.p0i8(i64 16, i8* nonnull %34) #13
  call void @llvm.memcpy.p0i8.p0i8.i64(i8* nonnull align 8 %34, i8* nonnull align 8 %33, i64 16, i1 false) #13
  %35 = load i32, i32* %32, align 4
  %36 = sext i32 %35 to i64
  call void @_ZNO8perfetto11TracedValue10WriteInt64El(%"class.perfetto::TracedValue"* nonnull %5, i64 %36) #13
  call void @llvm.lifetime.end.p0i8(i64 16, i8* nonnull %34) #13
  call void @llvm.lifetime.end.p0i8(i64 16, i8* nonnull %12) #13
  ret void
}

; Function Attrs: nounwind ssp uwtable
define hidden zeroext i1 @_ZN12media_router5mojom13CastMediaSink8ValidateEPKvPN4mojo8internal17ValidationContextE(i8*, %"class.mojo::internal::ValidationContext"*) local_unnamed_addr #0 align 2 {
  %3 = tail call zeroext i1 @_ZN12media_router5mojom8internal18CastMediaSink_Data8ValidateEPKvPN4mojo8internal17ValidationContextE(i8* %0, %"class.mojo::internal::ValidationContext"* %1) #13
  ret i1 %3
}

declare zeroext i1 @_ZN12media_router5mojom8internal18CastMediaSink_Data8ValidateEPKvPN4mojo8internal17ValidationContextE(i8*, %"class.mojo::internal::ValidationContext"*) local_unnamed_addr #2

; Function Attrs: nounwind ssp uwtable
define hidden void @_ZN12media_router5mojom10MediaRouteC2Ev(%"class.media_router::mojom::MediaRoute"* nocapture) unnamed_addr #0 align 2 {
  %2 = getelementptr inbounds %"class.media_router::mojom::MediaRoute", %"class.media_router::mojom::MediaRoute"* %0, i64 0, i32 2, i32 0, i32 0, i32 0, i32 1
  %3 = getelementptr inbounds %"class.media_router::mojom::MediaRoute", %"class.media_router::mojom::MediaRoute"* %0, i64 0, i32 8
  %4 = bitcast %"class.media_router::mojom::MediaRoute"* %0 to i8*
  call void @llvm.memset.p0i8.i64(i8* align 8 %4, i8 0, i64 49, i1 false)
  %5 = bitcast %union.anon.1* %2 to i8*
  call void @llvm.memset.p0i8.i64(i8* align 8 %5, i8 0, i64 97, i1 false)
  %6 = bitcast i32* %3 to i64*
  store i64 0, i64* %6, align 4
  ret void
}

; Function Attrs: nounwind ssp uwtable
define hidden void @_ZN12media_router5mojom10MediaRouteC2ERKNSt3__112basic_stringIcNS2_11char_traitsIcEENS2_9allocatorIcEEEESA_RKN4absl8optionalIS8_EESA_SA_SA_bNS0_19RouteControllerTypeEbbbb(%"class.media_router::mojom::MediaRoute"*, %"class.std::__1::basic_string"* nocapture readonly dereferenceable(24), %"class.std::__1::basic_string"* nocapture readonly dereferenceable(24), %"class.absl::optional"* nocapture readonly dereferenceable(32), %"class.std::__1::basic_string"* nocapture readonly dereferenceable(24), %"class.std::__1::basic_string"* nocapture readonly dereferenceable(24), %"class.std::__1::basic_string"* nocapture readonly dereferenceable(24), i1 zeroext, i32, i1 zeroext, i1 zeroext, i1 zeroext, i1 zeroext) unnamed_addr #0 align 2 {
  %14 = zext i1 %7 to i8
  %15 = zext i1 %9 to i8
  %16 = zext i1 %10 to i8
  %17 = zext i1 %11 to i8
  %18 = zext i1 %12 to i8
  %19 = bitcast %"class.std::__1::basic_string"* %1 to %"struct.std::__1::basic_string<char, std::__1::char_traits<char>, std::__1::allocator<char> >::__short"*
  %20 = getelementptr inbounds %"struct.std::__1::basic_string<char, std::__1::char_traits<char>, std::__1::allocator<char> >::__short", %"struct.std::__1::basic_string<char, std::__1::char_traits<char>, std::__1::allocator<char> >::__short"* %19, i64 0, i32 1, i32 0
  %21 = load i8, i8* %20, align 1
  %22 = icmp slt i8 %21, 0
  br i1 %22, label %26, label %23

23:                                               ; preds = %13
  %24 = bitcast %"class.media_router::mojom::MediaRoute"* %0 to i8*
  %25 = bitcast %"class.std::__1::basic_string"* %1 to i8*
  tail call void @llvm.memcpy.p0i8.p0i8.i64(i8* align 8 %24, i8* align 8 %25, i64 24, i1 false) #13
  br label %32

26:                                               ; preds = %13
  %27 = getelementptr inbounds %"class.media_router::mojom::MediaRoute", %"class.media_router::mojom::MediaRoute"* %0, i64 0, i32 0
  %28 = getelementptr inbounds %"class.std::__1::basic_string", %"class.std::__1::basic_string"* %1, i64 0, i32 0, i32 0, i32 0, i32 0, i32 0, i32 0
  %29 = load i8*, i8** %28, align 8
  %30 = getelementptr inbounds %"class.std::__1::basic_string", %"class.std::__1::basic_string"* %1, i64 0, i32 0, i32 0, i32 0, i32 0, i32 0, i32 1
  %31 = load i64, i64* %30, align 8
  tail call void @_ZNSt3__112basic_stringIcNS_11char_traitsIcEENS_9allocatorIcEEE25__init_copy_ctor_externalEPKcm(%"class.std::__1::basic_string"* %27, i8* %29, i64 %31) #13
  br label %32

32:                                               ; preds = %23, %26
  %33 = getelementptr inbounds %"class.media_router::mojom::MediaRoute", %"class.media_router::mojom::MediaRoute"* %0, i64 0, i32 1
  %34 = bitcast %"class.std::__1::basic_string"* %2 to %"struct.std::__1::basic_string<char, std::__1::char_traits<char>, std::__1::allocator<char> >::__short"*
  %35 = getelementptr inbounds %"struct.std::__1::basic_string<char, std::__1::char_traits<char>, std::__1::allocator<char> >::__short", %"struct.std::__1::basic_string<char, std::__1::char_traits<char>, std::__1::allocator<char> >::__short"* %34, i64 0, i32 1, i32 0
  %36 = load i8, i8* %35, align 1
  %37 = icmp slt i8 %36, 0
  br i1 %37, label %41, label %38

38:                                               ; preds = %32
  %39 = bitcast %"class.std::__1::basic_string"* %33 to i8*
  %40 = bitcast %"class.std::__1::basic_string"* %2 to i8*
  tail call void @llvm.memcpy.p0i8.p0i8.i64(i8* align 8 %39, i8* align 8 %40, i64 24, i1 false) #13
  br label %46

41:                                               ; preds = %32
  %42 = getelementptr inbounds %"class.std::__1::basic_string", %"class.std::__1::basic_string"* %2, i64 0, i32 0, i32 0, i32 0, i32 0, i32 0, i32 0
  %43 = load i8*, i8** %42, align 8
  %44 = getelementptr inbounds %"class.std::__1::basic_string", %"class.std::__1::basic_string"* %2, i64 0, i32 0, i32 0, i32 0, i32 0, i32 0, i32 1
  %45 = load i64, i64* %44, align 8
  tail call void @_ZNSt3__112basic_stringIcNS_11char_traitsIcEENS_9allocatorIcEEE25__init_copy_ctor_externalEPKcm(%"class.std::__1::basic_string"* %33, i8* %43, i64 %45) #13
  br label %46

46:                                               ; preds = %38, %41
  %47 = getelementptr inbounds %"class.media_router::mojom::MediaRoute", %"class.media_router::mojom::MediaRoute"* %0, i64 0, i32 2, i32 0, i32 0, i32 0, i32 0
  %48 = getelementptr inbounds %"class.absl::optional", %"class.absl::optional"* %3, i64 0, i32 0, i32 0, i32 0, i32 0
  tail call void @llvm.memset.p0i8.i64(i8* align 8 %47, i8 0, i64 32, i1 false) #13
  %49 = load i8, i8* %48, align 8, !range !2
  %50 = icmp eq i8 %49, 0
  br i1 %50, label %67, label %51

51:                                               ; preds = %46
  %52 = getelementptr inbounds %"class.absl::optional", %"class.absl::optional"* %3, i64 0, i32 0, i32 0, i32 0, i32 1, i32 0
  %53 = getelementptr inbounds %"class.media_router::mojom::MediaRoute", %"class.media_router::mojom::MediaRoute"* %0, i64 0, i32 2, i32 0, i32 0, i32 0, i32 1, i32 0
  %54 = bitcast %"class.std::__1::basic_string"* %52 to %"struct.std::__1::basic_string<char, std::__1::char_traits<char>, std::__1::allocator<char> >::__short"*
  %55 = getelementptr inbounds %"struct.std::__1::basic_string<char, std::__1::char_traits<char>, std::__1::allocator<char> >::__short", %"struct.std::__1::basic_string<char, std::__1::char_traits<char>, std::__1::allocator<char> >::__short"* %54, i64 0, i32 1, i32 0
  %56 = load i8, i8* %55, align 1
  %57 = icmp slt i8 %56, 0
  br i1 %57, label %61, label %58

58:                                               ; preds = %51
  %59 = bitcast %"class.std::__1::basic_string"* %53 to i8*
  %60 = bitcast %"class.std::__1::basic_string"* %52 to i8*
  tail call void @llvm.memcpy.p0i8.p0i8.i64(i8* align 8 %59, i8* align 8 %60, i64 24, i1 false) #13
  br label %66

61:                                               ; preds = %51
  %62 = getelementptr inbounds %"class.std::__1::basic_string", %"class.std::__1::basic_string"* %52, i64 0, i32 0, i32 0, i32 0, i32 0, i32 0, i32 0
  %63 = load i8*, i8** %62, align 8
  %64 = getelementptr inbounds %"class.absl::optional", %"class.absl::optional"* %3, i64 0, i32 0, i32 0, i32 0, i32 1, i32 0, i32 0, i32 0, i32 0, i32 0, i32 0, i32 1
  %65 = load i64, i64* %64, align 8
  tail call void @_ZNSt3__112basic_stringIcNS_11char_traitsIcEENS_9allocatorIcEEE25__init_copy_ctor_externalEPKcm(%"class.std::__1::basic_string"* %53, i8* %63, i64 %65) #13
  br label %66

66:                                               ; preds = %61, %58
  store i8 1, i8* %47, align 8
  br label %67

67:                                               ; preds = %46, %66
  %68 = getelementptr inbounds %"class.media_router::mojom::MediaRoute", %"class.media_router::mojom::MediaRoute"* %0, i64 0, i32 3
  %69 = bitcast %"class.std::__1::basic_string"* %4 to %"struct.std::__1::basic_string<char, std::__1::char_traits<char>, std::__1::allocator<char> >::__short"*
  %70 = getelementptr inbounds %"struct.std::__1::basic_string<char, std::__1::char_traits<char>, std::__1::allocator<char> >::__short", %"struct.std::__1::basic_string<char, std::__1::char_traits<char>, std::__1::allocator<char> >::__short"* %69, i64 0, i32 1, i32 0
  %71 = load i8, i8* %70, align 1
  %72 = icmp slt i8 %71, 0
  br i1 %72, label %76, label %73

73:                                               ; preds = %67
  %74 = bitcast %"class.std::__1::basic_string"* %68 to i8*
  %75 = bitcast %"class.std::__1::basic_string"* %4 to i8*
  tail call void @llvm.memcpy.p0i8.p0i8.i64(i8* align 8 %74, i8* align 8 %75, i64 24, i1 false) #13
  br label %81

76:                                               ; preds = %67
  %77 = getelementptr inbounds %"class.std::__1::basic_string", %"class.std::__1::basic_string"* %4, i64 0, i32 0, i32 0, i32 0, i32 0, i32 0, i32 0
  %78 = load i8*, i8** %77, align 8
  %79 = getelementptr inbounds %"class.std::__1::basic_string", %"class.std::__1::basic_string"* %4, i64 0, i32 0, i32 0, i32 0, i32 0, i32 0, i32 1
  %80 = load i64, i64* %79, align 8
  tail call void @_ZNSt3__112basic_stringIcNS_11char_traitsIcEENS_9allocatorIcEEE25__init_copy_ctor_externalEPKcm(%"class.std::__1::basic_string"* %68, i8* %78, i64 %80) #13
  br label %81

81:                                               ; preds = %73, %76
  %82 = getelementptr inbounds %"class.media_router::mojom::MediaRoute", %"class.media_router::mojom::MediaRoute"* %0, i64 0, i32 4
  %83 = bitcast %"class.std::__1::basic_string"* %5 to %"struct.std::__1::basic_string<char, std::__1::char_traits<char>, std::__1::allocator<char> >::__short"*
  %84 = getelementptr inbounds %"struct.std::__1::basic_string<char, std::__1::char_traits<char>, std::__1::allocator<char> >::__short", %"struct.std::__1::basic_string<char, std::__1::char_traits<char>, std::__1::allocator<char> >::__short"* %83, i64 0, i32 1, i32 0
  %85 = load i8, i8* %84, align 1
  %86 = icmp slt i8 %85, 0
  br i1 %86, label %90, label %87

87:                                               ; preds = %81
  %88 = bitcast %"class.std::__1::basic_string"* %82 to i8*
  %89 = bitcast %"class.std::__1::basic_string"* %5 to i8*
  tail call void @llvm.memcpy.p0i8.p0i8.i64(i8* align 8 %88, i8* align 8 %89, i64 24, i1 false) #13
  br label %95

90:                                               ; preds = %81
  %91 = getelementptr inbounds %"class.std::__1::basic_string", %"class.std::__1::basic_string"* %5, i64 0, i32 0, i32 0, i32 0, i32 0, i32 0, i32 0
  %92 = load i8*, i8** %91, align 8
  %93 = getelementptr inbounds %"class.std::__1::basic_string", %"class.std::__1::basic_string"* %5, i64 0, i32 0, i32 0, i32 0, i32 0, i32 0, i32 1
  %94 = load i64, i64* %93, align 8
  tail call void @_ZNSt3__112basic_stringIcNS_11char_traitsIcEENS_9allocatorIcEEE25__init_copy_ctor_externalEPKcm(%"class.std::__1::basic_string"* %82, i8* %92, i64 %94) #13
  br label %95

95:                                               ; preds = %87, %90
  %96 = getelementptr inbounds %"class.media_router::mojom::MediaRoute", %"class.media_router::mojom::MediaRoute"* %0, i64 0, i32 5
  %97 = bitcast %"class.std::__1::basic_string"* %6 to %"struct.std::__1::basic_string<char, std::__1::char_traits<char>, std::__1::allocator<char> >::__short"*
  %98 = getelementptr inbounds %"struct.std::__1::basic_string<char, std::__1::char_traits<char>, std::__1::allocator<char> >::__short", %"struct.std::__1::basic_string<char, std::__1::char_traits<char>, std::__1::allocator<char> >::__short"* %97, i64 0, i32 1, i32 0
  %99 = load i8, i8* %98, align 1
  %100 = icmp slt i8 %99, 0
  br i1 %100, label %104, label %101

101:                                              ; preds = %95
  %102 = bitcast %"class.std::__1::basic_string"* %96 to i8*
  %103 = bitcast %"class.std::__1::basic_string"* %6 to i8*
  tail call void @llvm.memcpy.p0i8.p0i8.i64(i8* align 8 %102, i8* align 8 %103, i64 24, i1 false) #13
  br label %109

104:                                              ; preds = %95
  %105 = getelementptr inbounds %"class.std::__1::basic_string", %"class.std::__1::basic_string"* %6, i64 0, i32 0, i32 0, i32 0, i32 0, i32 0, i32 0
  %106 = load i8*, i8** %105, align 8
  %107 = getelementptr inbounds %"class.std::__1::basic_string", %"class.std::__1::basic_string"* %6, i64 0, i32 0, i32 0, i32 0, i32 0, i32 0, i32 1
  %108 = load i64, i64* %107, align 8
  tail call void @_ZNSt3__112basic_stringIcNS_11char_traitsIcEENS_9allocatorIcEEE25__init_copy_ctor_externalEPKcm(%"class.std::__1::basic_string"* %96, i8* %106, i64 %108) #13
  br label %109

109:                                              ; preds = %101, %104
  %110 = getelementptr inbounds %"class.media_router::mojom::MediaRoute", %"class.media_router::mojom::MediaRoute"* %0, i64 0, i32 6
  store i8 %14, i8* %110, align 8
  %111 = getelementptr inbounds %"class.media_router::mojom::MediaRoute", %"class.media_router::mojom::MediaRoute"* %0, i64 0, i32 8
  store i32 %8, i32* %111, align 4
  %112 = getelementptr inbounds %"class.media_router::mojom::MediaRoute", %"class.media_router::mojom::MediaRoute"* %0, i64 0, i32 9
  store i8 %15, i8* %112, align 8
  %113 = getelementptr inbounds %"class.media_router::mojom::MediaRoute", %"class.media_router::mojom::MediaRoute"* %0, i64 0, i32 10
  store i8 %16, i8* %113, align 1
  %114 = getelementptr inbounds %"class.media_router::mojom::MediaRoute", %"class.media_router::mojom::MediaRoute"* %0, i64 0, i32 11
  store i8 %17, i8* %114, align 2
  %115 = getelementptr inbounds %"class.media_router::mojom::MediaRoute", %"class.media_router::mojom::MediaRoute"* %0, i64 0, i32 12
  store i8 %18, i8* %115, align 1
  ret void
}

; Function Attrs: nounwind ssp uwtable
define hidden void @_ZN12media_router5mojom10MediaRouteD2Ev(%"class.media_router::mojom::MediaRoute"* nocapture) unnamed_addr #0 align 2 {
  %2 = getelementptr inbounds %"class.media_router::mojom::MediaRoute", %"class.media_router::mojom::MediaRoute"* %0, i64 0, i32 5
  %3 = bitcast %"class.std::__1::basic_string"* %2 to %"struct.std::__1::basic_string<char, std::__1::char_traits<char>, std::__1::allocator<char> >::__short"*
  %4 = getelementptr inbounds %"struct.std::__1::basic_string<char, std::__1::char_traits<char>, std::__1::allocator<char> >::__short", %"struct.std::__1::basic_string<char, std::__1::char_traits<char>, std::__1::allocator<char> >::__short"* %3, i64 0, i32 1, i32 0
  %5 = load i8, i8* %4, align 1
  %6 = icmp slt i8 %5, 0
  br i1 %6, label %7, label %10

7:                                                ; preds = %1
  %8 = getelementptr inbounds %"class.std::__1::basic_string", %"class.std::__1::basic_string"* %2, i64 0, i32 0, i32 0, i32 0, i32 0, i32 0, i32 0
  %9 = load i8*, i8** %8, align 8
  tail call void @_ZdlPv(i8* %9) #14
  br label %10

10:                                               ; preds = %1, %7
  %11 = getelementptr inbounds %"class.media_router::mojom::MediaRoute", %"class.media_router::mojom::MediaRoute"* %0, i64 0, i32 4
  %12 = bitcast %"class.std::__1::basic_string"* %11 to %"struct.std::__1::basic_string<char, std::__1::char_traits<char>, std::__1::allocator<char> >::__short"*
  %13 = getelementptr inbounds %"struct.std::__1::basic_string<char, std::__1::char_traits<char>, std::__1::allocator<char> >::__short", %"struct.std::__1::basic_string<char, std::__1::char_traits<char>, std::__1::allocator<char> >::__short"* %12, i64 0, i32 1, i32 0
  %14 = load i8, i8* %13, align 1
  %15 = icmp slt i8 %14, 0
  br i1 %15, label %16, label %19

16:                                               ; preds = %10
  %17 = getelementptr inbounds %"class.std::__1::basic_string", %"class.std::__1::basic_string"* %11, i64 0, i32 0, i32 0, i32 0, i32 0, i32 0, i32 0
  %18 = load i8*, i8** %17, align 8
  tail call void @_ZdlPv(i8* %18) #14
  br label %19

19:                                               ; preds = %10, %16
  %20 = getelementptr inbounds %"class.media_router::mojom::MediaRoute", %"class.media_router::mojom::MediaRoute"* %0, i64 0, i32 3
  %21 = bitcast %"class.std::__1::basic_string"* %20 to %"struct.std::__1::basic_string<char, std::__1::char_traits<char>, std::__1::allocator<char> >::__short"*
  %22 = getelementptr inbounds %"struct.std::__1::basic_string<char, std::__1::char_traits<char>, std::__1::allocator<char> >::__short", %"struct.std::__1::basic_string<char, std::__1::char_traits<char>, std::__1::allocator<char> >::__short"* %21, i64 0, i32 1, i32 0
  %23 = load i8, i8* %22, align 1
  %24 = icmp slt i8 %23, 0
  br i1 %24, label %25, label %28

25:                                               ; preds = %19
  %26 = getelementptr inbounds %"class.std::__1::basic_string", %"class.std::__1::basic_string"* %20, i64 0, i32 0, i32 0, i32 0, i32 0, i32 0, i32 0
  %27 = load i8*, i8** %26, align 8
  tail call void @_ZdlPv(i8* %27) #14
  br label %28

28:                                               ; preds = %19, %25
  %29 = getelementptr inbounds %"class.media_router::mojom::MediaRoute", %"class.media_router::mojom::MediaRoute"* %0, i64 0, i32 2, i32 0, i32 0, i32 0, i32 0
  %30 = load i8, i8* %29, align 8, !range !2
  %31 = icmp eq i8 %30, 0
  br i1 %31, label %42, label %32

32:                                               ; preds = %28
  %33 = getelementptr inbounds %"class.media_router::mojom::MediaRoute", %"class.media_router::mojom::MediaRoute"* %0, i64 0, i32 2, i32 0, i32 0, i32 0, i32 1, i32 0
  %34 = bitcast %"class.std::__1::basic_string"* %33 to %"struct.std::__1::basic_string<char, std::__1::char_traits<char>, std::__1::allocator<char> >::__short"*
  %35 = getelementptr inbounds %"struct.std::__1::basic_string<char, std::__1::char_traits<char>, std::__1::allocator<char> >::__short", %"struct.std::__1::basic_string<char, std::__1::char_traits<char>, std::__1::allocator<char> >::__short"* %34, i64 0, i32 1, i32 0
  %36 = load i8, i8* %35, align 1
  %37 = icmp slt i8 %36, 0
  br i1 %37, label %38, label %41

38:                                               ; preds = %32
  %39 = getelementptr inbounds %"class.std::__1::basic_string", %"class.std::__1::basic_string"* %33, i64 0, i32 0, i32 0, i32 0, i32 0, i32 0, i32 0
  %40 = load i8*, i8** %39, align 8
  tail call void @_ZdlPv(i8* %40) #14
  br label %41

41:                                               ; preds = %38, %32
  store i8 0, i8* %29, align 8
  br label %42

42:                                               ; preds = %28, %41
  %43 = getelementptr inbounds %"class.media_router::mojom::MediaRoute", %"class.media_router::mojom::MediaRoute"* %0, i64 0, i32 1
  %44 = bitcast %"class.std::__1::basic_string"* %43 to %"struct.std::__1::basic_string<char, std::__1::char_traits<char>, std::__1::allocator<char> >::__short"*
  %45 = getelementptr inbounds %"struct.std::__1::basic_string<char, std::__1::char_traits<char>, std::__1::allocator<char> >::__short", %"struct.std::__1::basic_string<char, std::__1::char_traits<char>, std::__1::allocator<char> >::__short"* %44, i64 0, i32 1, i32 0
  %46 = load i8, i8* %45, align 1
  %47 = icmp slt i8 %46, 0
  br i1 %47, label %48, label %51

48:                                               ; preds = %42
  %49 = getelementptr inbounds %"class.std::__1::basic_string", %"class.std::__1::basic_string"* %43, i64 0, i32 0, i32 0, i32 0, i32 0, i32 0, i32 0
  %50 = load i8*, i8** %49, align 8
  tail call void @_ZdlPv(i8* %50) #14
  br label %51

51:                                               ; preds = %42, %48
  %52 = bitcast %"class.media_router::mojom::MediaRoute"* %0 to %"struct.std::__1::basic_string<char, std::__1::char_traits<char>, std::__1::allocator<char> >::__short"*
  %53 = getelementptr inbounds %"struct.std::__1::basic_string<char, std::__1::char_traits<char>, std::__1::allocator<char> >::__short", %"struct.std::__1::basic_string<char, std::__1::char_traits<char>, std::__1::allocator<char> >::__short"* %52, i64 0, i32 1, i32 0
  %54 = load i8, i8* %53, align 1
  %55 = icmp slt i8 %54, 0
  br i1 %55, label %56, label %59

56:                                               ; preds = %51
  %57 = getelementptr inbounds %"class.media_router::mojom::MediaRoute", %"class.media_router::mojom::MediaRoute"* %0, i64 0, i32 0, i32 0, i32 0, i32 0, i32 0, i32 0, i32 0
  %58 = load i8*, i8** %57, align 8
  tail call void @_ZdlPv(i8* %58) #14
  br label %59

59:                                               ; preds = %51, %56
  ret void
}

; Function Attrs: nounwind ssp uwtable
define hidden void @_ZNK12media_router5mojom10MediaRoute14WriteIntoTraceEN8perfetto11TracedValueE(%"class.media_router::mojom::MediaRoute"*, %"class.perfetto::TracedValue"*) local_unnamed_addr #0 align 2 {
  %3 = alloca %"class.perfetto::TracedValue", align 8
  %4 = alloca %"class.perfetto::TracedValue", align 8
  %5 = alloca %"class.perfetto::TracedValue", align 8
  %6 = alloca %"class.perfetto::TracedValue", align 8
  %7 = alloca %"class.perfetto::TracedValue", align 8
  %8 = alloca %"class.perfetto::TracedValue", align 8
  %9 = alloca %"class.perfetto::TracedValue", align 8
  %10 = alloca %"class.perfetto::TracedValue", align 8
  %11 = alloca %"class.perfetto::TracedValue", align 8
  %12 = alloca %"class.perfetto::TracedValue", align 8
  %13 = alloca %"class.perfetto::TracedValue", align 8
  %14 = alloca %"class.perfetto::TracedValue", align 8
  %15 = alloca %"class.perfetto::TracedValue", align 8
  %16 = alloca %"class.perfetto::TracedDictionary", align 8
  %17 = alloca %"class.perfetto::TracedValue", align 8
  %18 = alloca %"class.perfetto::TracedValue", align 8
  %19 = alloca %"class.perfetto::TracedValue", align 8
  %20 = alloca %"class.perfetto::TracedValue", align 8
  %21 = alloca %"class.perfetto::TracedValue", align 8
  %22 = alloca %"class.perfetto::TracedValue", align 8
  %23 = alloca %"class.perfetto::TracedValue", align 8
  %24 = alloca %"class.perfetto::TracedValue", align 8
  %25 = alloca %"class.perfetto::TracedValue", align 8
  %26 = alloca %"class.perfetto::TracedValue", align 8
  %27 = alloca %"class.perfetto::TracedValue", align 8
  %28 = alloca %"class.perfetto::TracedValue", align 8
  %29 = bitcast %"class.perfetto::TracedDictionary"* %16 to i8*
  call void @llvm.lifetime.start.p0i8(i64 16, i8* nonnull %29) #13
  %30 = bitcast %"class.perfetto::TracedDictionary"* %16 to i8*
  call void @llvm.memset.p0i8.i64(i8* nonnull align 8 %30, i8 -86, i64 16, i1 false)
  call void @_ZNO8perfetto11TracedValue15WriteDictionaryEv(%"class.perfetto::TracedDictionary"* nonnull sret %16, %"class.perfetto::TracedValue"* %1) #13
  call void @_ZN8perfetto16TracedDictionary7AddItemENS_12StaticStringE(%"class.perfetto::TracedValue"* nonnull sret %17, %"class.perfetto::TracedDictionary"* nonnull %16, i8* getelementptr inbounds ([15 x i8], [15 x i8]* @.str.14, i64 0, i64 0)) #13
  %31 = getelementptr inbounds %"class.media_router::mojom::MediaRoute", %"class.media_router::mojom::MediaRoute"* %0, i64 0, i32 0
  %32 = bitcast %"class.perfetto::TracedValue"* %17 to i8*
  %33 = bitcast %"class.perfetto::TracedValue"* %14 to i8*
  call void @llvm.lifetime.start.p0i8(i64 16, i8* nonnull %33) #13
  call void @llvm.memcpy.p0i8.p0i8.i64(i8* nonnull align 8 %33, i8* nonnull align 8 %32, i64 16, i1 false) #13
  call void @_ZNO8perfetto11TracedValue11WriteStringERKNSt3__112basic_stringIcNS1_11char_traitsIcEENS1_9allocatorIcEEEE(%"class.perfetto::TracedValue"* nonnull %14, %"class.std::__1::basic_string"* dereferenceable(24) %31) #13
  call void @llvm.lifetime.end.p0i8(i64 16, i8* nonnull %33) #13
  call void @_ZN8perfetto16TracedDictionary7AddItemENS_12StaticStringE(%"class.perfetto::TracedValue"* nonnull sret %18, %"class.perfetto::TracedDictionary"* nonnull %16, i8* getelementptr inbounds ([16 x i8], [16 x i8]* @.str.15, i64 0, i64 0)) #13
  %34 = getelementptr inbounds %"class.media_router::mojom::MediaRoute", %"class.media_router::mojom::MediaRoute"* %0, i64 0, i32 1
  %35 = bitcast %"class.perfetto::TracedValue"* %18 to i8*
  %36 = bitcast %"class.perfetto::TracedValue"* %13 to i8*
  call void @llvm.lifetime.start.p0i8(i64 16, i8* nonnull %36) #13
  call void @llvm.memcpy.p0i8.p0i8.i64(i8* nonnull align 8 %36, i8* nonnull align 8 %35, i64 16, i1 false) #13
  call void @_ZNO8perfetto11TracedValue11WriteStringERKNSt3__112basic_stringIcNS1_11char_traitsIcEENS1_9allocatorIcEEEE(%"class.perfetto::TracedValue"* nonnull %13, %"class.std::__1::basic_string"* dereferenceable(24) %34) #13
  call void @llvm.lifetime.end.p0i8(i64 16, i8* nonnull %36) #13
  call void @_ZN8perfetto16TracedDictionary7AddItemENS_12StaticStringE(%"class.perfetto::TracedValue"* nonnull sret %19, %"class.perfetto::TracedDictionary"* nonnull %16, i8* getelementptr inbounds ([13 x i8], [13 x i8]* @.str.16, i64 0, i64 0)) #13
  %37 = bitcast %"class.perfetto::TracedValue"* %19 to i8*
  %38 = bitcast %"class.perfetto::TracedValue"* %12 to i8*
  call void @llvm.lifetime.start.p0i8(i64 16, i8* nonnull %38) #13
  call void @llvm.memcpy.p0i8.p0i8.i64(i8* nonnull align 8 %38, i8* nonnull align 8 %37, i64 16, i1 false) #13
  %39 = getelementptr inbounds %"class.media_router::mojom::MediaRoute", %"class.media_router::mojom::MediaRoute"* %0, i64 0, i32 2, i32 0, i32 0, i32 0, i32 0
  %40 = load i8, i8* %39, align 8, !range !2
  %41 = icmp eq i8 %40, 0
  br i1 %41, label %42, label %43

42:                                               ; preds = %2
  call void @_ZNO8perfetto11TracedValue12WritePointerEPKv(%"class.perfetto::TracedValue"* nonnull %12, i8* null) #13
  br label %46

43:                                               ; preds = %2
  %44 = getelementptr inbounds %"class.media_router::mojom::MediaRoute", %"class.media_router::mojom::MediaRoute"* %0, i64 0, i32 2, i32 0, i32 0, i32 0, i32 1, i32 0
  %45 = bitcast %"class.perfetto::TracedValue"* %11 to i8*
  call void @llvm.lifetime.start.p0i8(i64 16, i8* nonnull %45) #13
  call void @llvm.memcpy.p0i8.p0i8.i64(i8* nonnull align 8 %45, i8* nonnull align 8 %38, i64 16, i1 false) #13
  call void @_ZNO8perfetto11TracedValue11WriteStringERKNSt3__112basic_stringIcNS1_11char_traitsIcEENS1_9allocatorIcEEEE(%"class.perfetto::TracedValue"* nonnull %11, %"class.std::__1::basic_string"* dereferenceable(24) %44) #13
  call void @llvm.lifetime.end.p0i8(i64 16, i8* nonnull %45) #13
  br label %46

46:                                               ; preds = %42, %43
  call void @llvm.lifetime.end.p0i8(i64 16, i8* nonnull %38) #13
  call void @_ZN8perfetto16TracedDictionary7AddItemENS_12StaticStringE(%"class.perfetto::TracedValue"* nonnull sret %20, %"class.perfetto::TracedDictionary"* nonnull %16, i8* getelementptr inbounds ([14 x i8], [14 x i8]* @.str.17, i64 0, i64 0)) #13
  %47 = getelementptr inbounds %"class.media_router::mojom::MediaRoute", %"class.media_router::mojom::MediaRoute"* %0, i64 0, i32 3
  %48 = bitcast %"class.perfetto::TracedValue"* %20 to i8*
  %49 = bitcast %"class.perfetto::TracedValue"* %10 to i8*
  call void @llvm.lifetime.start.p0i8(i64 16, i8* nonnull %49) #13
  call void @llvm.memcpy.p0i8.p0i8.i64(i8* nonnull align 8 %49, i8* nonnull align 8 %48, i64 16, i1 false) #13
  call void @_ZNO8perfetto11TracedValue11WriteStringERKNSt3__112basic_stringIcNS1_11char_traitsIcEENS1_9allocatorIcEEEE(%"class.perfetto::TracedValue"* nonnull %10, %"class.std::__1::basic_string"* dereferenceable(24) %47) #13
  call void @llvm.lifetime.end.p0i8(i64 16, i8* nonnull %49) #13
  call void @_ZN8perfetto16TracedDictionary7AddItemENS_12StaticStringE(%"class.perfetto::TracedValue"* nonnull sret %21, %"class.perfetto::TracedDictionary"* nonnull %16, i8* getelementptr inbounds ([16 x i8], [16 x i8]* @.str.18, i64 0, i64 0)) #13
  %50 = getelementptr inbounds %"class.media_router::mojom::MediaRoute", %"class.media_router::mojom::MediaRoute"* %0, i64 0, i32 4
  %51 = bitcast %"class.perfetto::TracedValue"* %21 to i8*
  %52 = bitcast %"class.perfetto::TracedValue"* %9 to i8*
  call void @llvm.lifetime.start.p0i8(i64 16, i8* nonnull %52) #13
  call void @llvm.memcpy.p0i8.p0i8.i64(i8* nonnull align 8 %52, i8* nonnull align 8 %51, i64 16, i1 false) #13
  call void @_ZNO8perfetto11TracedValue11WriteStringERKNSt3__112basic_stringIcNS1_11char_traitsIcEENS1_9allocatorIcEEEE(%"class.perfetto::TracedValue"* nonnull %9, %"class.std::__1::basic_string"* dereferenceable(24) %50) #13
  call void @llvm.lifetime.end.p0i8(i64 16, i8* nonnull %52) #13
  call void @_ZN8perfetto16TracedDictionary7AddItemENS_12StaticStringE(%"class.perfetto::TracedValue"* nonnull sret %22, %"class.perfetto::TracedDictionary"* nonnull %16, i8* getelementptr inbounds ([12 x i8], [12 x i8]* @.str.3, i64 0, i64 0)) #13
  %53 = getelementptr inbounds %"class.media_router::mojom::MediaRoute", %"class.media_router::mojom::MediaRoute"* %0, i64 0, i32 5
  %54 = bitcast %"class.perfetto::TracedValue"* %22 to i8*
  %55 = bitcast %"class.perfetto::TracedValue"* %8 to i8*
  call void @llvm.lifetime.start.p0i8(i64 16, i8* nonnull %55) #13
  call void @llvm.memcpy.p0i8.p0i8.i64(i8* nonnull align 8 %55, i8* nonnull align 8 %54, i64 16, i1 false) #13
  call void @_ZNO8perfetto11TracedValue11WriteStringERKNSt3__112basic_stringIcNS1_11char_traitsIcEENS1_9allocatorIcEEEE(%"class.perfetto::TracedValue"* nonnull %8, %"class.std::__1::basic_string"* dereferenceable(24) %53) #13
  call void @llvm.lifetime.end.p0i8(i64 16, i8* nonnull %55) #13
  call void @_ZN8perfetto16TracedDictionary7AddItemENS_12StaticStringE(%"class.perfetto::TracedValue"* nonnull sret %23, %"class.perfetto::TracedDictionary"* nonnull %16, i8* getelementptr inbounds ([9 x i8], [9 x i8]* @.str.19, i64 0, i64 0)) #13
  %56 = getelementptr inbounds %"class.media_router::mojom::MediaRoute", %"class.media_router::mojom::MediaRoute"* %0, i64 0, i32 6
  %57 = bitcast %"class.perfetto::TracedValue"* %23 to i8*
  %58 = bitcast %"class.perfetto::TracedValue"* %7 to i8*
  call void @llvm.lifetime.start.p0i8(i64 16, i8* nonnull %58) #13
  call void @llvm.memcpy.p0i8.p0i8.i64(i8* nonnull align 8 %58, i8* nonnull align 8 %57, i64 16, i1 false) #13
  %59 = load i8, i8* %56, align 1, !range !2
  %60 = icmp ne i8 %59, 0
  call void @_ZNO8perfetto11TracedValue12WriteBooleanEb(%"class.perfetto::TracedValue"* nonnull %7, i1 zeroext %60) #13
  call void @llvm.lifetime.end.p0i8(i64 16, i8* nonnull %58) #13
  call void @_ZN8perfetto16TracedDictionary7AddItemENS_12StaticStringE(%"class.perfetto::TracedValue"* nonnull sret %24, %"class.perfetto::TracedDictionary"* nonnull %16, i8* getelementptr inbounds ([16 x i8], [16 x i8]* @.str.20, i64 0, i64 0)) #13
  %61 = getelementptr inbounds %"class.media_router::mojom::MediaRoute", %"class.media_router::mojom::MediaRoute"* %0, i64 0, i32 8
  %62 = bitcast %"class.perfetto::TracedValue"* %24 to i8*
  %63 = bitcast %"class.perfetto::TracedValue"* %6 to i8*
  call void @llvm.lifetime.start.p0i8(i64 16, i8* nonnull %63) #13
  call void @llvm.memcpy.p0i8.p0i8.i64(i8* nonnull align 8 %63, i8* nonnull align 8 %62, i64 16, i1 false) #13
  %64 = load i32, i32* %61, align 4
  call void @_ZN8perfetto17TraceFormatTraitsIN12media_router5mojom19RouteControllerTypeEvE14WriteIntoTraceENS_11TracedValueES3_(%"class.perfetto::TracedValue"* nonnull %6, i32 %64) #13
  call void @llvm.lifetime.end.p0i8(i64 16, i8* nonnull %63) #13
  call void @_ZN8perfetto16TracedDictionary7AddItemENS_12StaticStringE(%"class.perfetto::TracedValue"* nonnull sret %25, %"class.perfetto::TracedDictionary"* nonnull %16, i8* getelementptr inbounds ([12 x i8], [12 x i8]* @.str.21, i64 0, i64 0)) #13
  %65 = getelementptr inbounds %"class.media_router::mojom::MediaRoute", %"class.media_router::mojom::MediaRoute"* %0, i64 0, i32 9
  %66 = bitcast %"class.perfetto::TracedValue"* %25 to i8*
  %67 = bitcast %"class.perfetto::TracedValue"* %5 to i8*
  call void @llvm.lifetime.start.p0i8(i64 16, i8* nonnull %67) #13
  call void @llvm.memcpy.p0i8.p0i8.i64(i8* nonnull align 8 %67, i8* nonnull align 8 %66, i64 16, i1 false) #13
  %68 = load i8, i8* %65, align 1, !range !2
  %69 = icmp ne i8 %68, 0
  call void @_ZNO8perfetto11TracedValue12WriteBooleanEb(%"class.perfetto::TracedValue"* nonnull %5, i1 zeroext %69) #13
  call void @llvm.lifetime.end.p0i8(i64 16, i8* nonnull %67) #13
  call void @_ZN8perfetto16TracedDictionary7AddItemENS_12StaticStringE(%"class.perfetto::TracedValue"* nonnull sret %26, %"class.perfetto::TracedDictionary"* nonnull %16, i8* getelementptr inbounds ([18 x i8], [18 x i8]* @.str.22, i64 0, i64 0)) #13
  %70 = getelementptr inbounds %"class.media_router::mojom::MediaRoute", %"class.media_router::mojom::MediaRoute"* %0, i64 0, i32 10
  %71 = bitcast %"class.perfetto::TracedValue"* %26 to i8*
  %72 = bitcast %"class.perfetto::TracedValue"* %4 to i8*
  call void @llvm.lifetime.start.p0i8(i64 16, i8* nonnull %72) #13
  call void @llvm.memcpy.p0i8.p0i8.i64(i8* nonnull align 8 %72, i8* nonnull align 8 %71, i64 16, i1 false) #13
  %73 = load i8, i8* %70, align 1, !range !2
  %74 = icmp ne i8 %73, 0
  call void @_ZNO8perfetto11TracedValue12WriteBooleanEb(%"class.perfetto::TracedValue"* nonnull %4, i1 zeroext %74) #13
  call void @llvm.lifetime.end.p0i8(i64 16, i8* nonnull %72) #13
  call void @_ZN8perfetto16TracedDictionary7AddItemENS_12StaticStringE(%"class.perfetto::TracedValue"* nonnull sret %27, %"class.perfetto::TracedDictionary"* nonnull %16, i8* getelementptr inbounds ([22 x i8], [22 x i8]* @.str.23, i64 0, i64 0)) #13
  %75 = getelementptr inbounds %"class.media_router::mojom::MediaRoute", %"class.media_router::mojom::MediaRoute"* %0, i64 0, i32 11
  %76 = bitcast %"class.perfetto::TracedValue"* %27 to i8*
  %77 = bitcast %"class.perfetto::TracedValue"* %3 to i8*
  call void @llvm.lifetime.start.p0i8(i64 16, i8* nonnull %77) #13
  call void @llvm.memcpy.p0i8.p0i8.i64(i8* nonnull align 8 %77, i8* nonnull align 8 %76, i64 16, i1 false) #13
  %78 = load i8, i8* %75, align 1, !range !2
  %79 = icmp ne i8 %78, 0
  call void @_ZNO8perfetto11TracedValue12WriteBooleanEb(%"class.perfetto::TracedValue"* nonnull %3, i1 zeroext %79) #13
  call void @llvm.lifetime.end.p0i8(i64 16, i8* nonnull %77) #13
  call void @_ZN8perfetto16TracedDictionary7AddItemENS_12StaticStringE(%"class.perfetto::TracedValue"* nonnull sret %28, %"class.perfetto::TracedDictionary"* nonnull %16, i8* getelementptr inbounds ([14 x i8], [14 x i8]* @.str.24, i64 0, i64 0)) #13
  %80 = getelementptr inbounds %"class.media_router::mojom::MediaRoute", %"class.media_router::mojom::MediaRoute"* %0, i64 0, i32 12
  %81 = bitcast %"class.perfetto::TracedValue"* %28 to i8*
  %82 = bitcast %"class.perfetto::TracedValue"* %15 to i8*
  call void @llvm.lifetime.start.p0i8(i64 16, i8* nonnull %82) #13
  call void @llvm.memcpy.p0i8.p0i8.i64(i8* nonnull align 8 %82, i8* nonnull align 8 %81, i64 16, i1 false) #13
  %83 = load i8, i8* %80, align 1, !range !2
  %84 = icmp ne i8 %83, 0
  call void @_ZNO8perfetto11TracedValue12WriteBooleanEb(%"class.perfetto::TracedValue"* nonnull %15, i1 zeroext %84) #13
  call void @llvm.lifetime.end.p0i8(i64 16, i8* nonnull %82) #13
  call void @llvm.lifetime.end.p0i8(i64 16, i8* nonnull %29) #13
  ret void
}

; Function Attrs: nounwind ssp uwtable
define hidden zeroext i1 @_ZN12media_router5mojom10MediaRoute8ValidateEPKvPN4mojo8internal17ValidationContextE(i8*, %"class.mojo::internal::ValidationContext"*) local_unnamed_addr #0 align 2 {
  %3 = tail call zeroext i1 @_ZN12media_router5mojom8internal15MediaRoute_Data8ValidateEPKvPN4mojo8internal17ValidationContextE(i8* %0, %"class.mojo::internal::ValidationContext"* %1) #13
  ret i1 %3
}

declare zeroext i1 @_ZN12media_router5mojom8internal15MediaRoute_Data8ValidateEPKvPN4mojo8internal17ValidationContextE(i8*, %"class.mojo::internal::ValidationContext"*) local_unnamed_addr #2

; Function Attrs: nounwind ssp uwtable
define hidden void @_ZN12media_router5mojom5IssueC2Ev(%"class.media_router::mojom::Issue"* nocapture) unnamed_addr #0 align 2 {
  %2 = getelementptr inbounds %"class.media_router::mojom::Issue", %"class.media_router::mojom::Issue"* %0, i64 0, i32 5
  %3 = getelementptr inbounds %"class.media_router::mojom::Issue", %"class.media_router::mojom::Issue"* %0, i64 0, i32 6, i32 0, i32 0, i32 0, i32 1
  %4 = getelementptr inbounds %"class.media_router::mojom::Issue", %"class.media_router::mojom::Issue"* %0, i64 0, i32 9
  %5 = bitcast %"class.media_router::mojom::Issue"* %0 to i8*
  call void @llvm.memset.p0i8.i64(i8* align 8 %5, i8 0, i64 53, i1 false)
  %6 = bitcast %"class.std::__1::basic_string"* %2 to i8*
  call void @llvm.memset.p0i8.i64(i8* align 8 %6, i8 0, i64 25, i1 false)
  %7 = bitcast %union.anon.1* %3 to i8*
  call void @llvm.memset.p0i8.i64(i8* align 8 %7, i8 0, i64 28, i1 false)
  %8 = bitcast %"class.std::__1::vector.54"* %4 to i8*
  call void @llvm.memset.p0i8.i64(i8* align 8 %8, i8 0, i64 28, i1 false)
  ret void
}

; Function Attrs: nounwind ssp uwtable
define hidden void @_ZN12media_router5mojom5IssueC2ERKNSt3__112basic_stringIcNS2_11char_traitsIcEENS2_9allocatorIcEEEESA_NS_9IssueInfo8SeverityEbSA_RKN4absl8optionalIS8_EENSB_6ActionENS2_6vectorISI_NS6_ISI_EEEEi(%"class.media_router::mojom::Issue"*, %"class.std::__1::basic_string"* nocapture readonly dereferenceable(24), %"class.std::__1::basic_string"* nocapture readonly dereferenceable(24), i32, i1 zeroext, %"class.std::__1::basic_string"* nocapture readonly dereferenceable(24), %"class.absl::optional"* nocapture readonly dereferenceable(32), i32, %"class.std::__1::vector.54"* nocapture, i32) unnamed_addr #0 align 2 {
  %11 = zext i1 %4 to i8
  %12 = bitcast %"class.std::__1::basic_string"* %1 to %"struct.std::__1::basic_string<char, std::__1::char_traits<char>, std::__1::allocator<char> >::__short"*
  %13 = getelementptr inbounds %"struct.std::__1::basic_string<char, std::__1::char_traits<char>, std::__1::allocator<char> >::__short", %"struct.std::__1::basic_string<char, std::__1::char_traits<char>, std::__1::allocator<char> >::__short"* %12, i64 0, i32 1, i32 0
  %14 = load i8, i8* %13, align 1
  %15 = icmp slt i8 %14, 0
  br i1 %15, label %19, label %16

16:                                               ; preds = %10
  %17 = bitcast %"class.media_router::mojom::Issue"* %0 to i8*
  %18 = bitcast %"class.std::__1::basic_string"* %1 to i8*
  tail call void @llvm.memcpy.p0i8.p0i8.i64(i8* align 8 %17, i8* align 8 %18, i64 24, i1 false) #13
  br label %25

19:                                               ; preds = %10
  %20 = getelementptr inbounds %"class.media_router::mojom::Issue", %"class.media_router::mojom::Issue"* %0, i64 0, i32 0
  %21 = getelementptr inbounds %"class.std::__1::basic_string", %"class.std::__1::basic_string"* %1, i64 0, i32 0, i32 0, i32 0, i32 0, i32 0, i32 0
  %22 = load i8*, i8** %21, align 8
  %23 = getelementptr inbounds %"class.std::__1::basic_string", %"class.std::__1::basic_string"* %1, i64 0, i32 0, i32 0, i32 0, i32 0, i32 0, i32 1
  %24 = load i64, i64* %23, align 8
  tail call void @_ZNSt3__112basic_stringIcNS_11char_traitsIcEENS_9allocatorIcEEE25__init_copy_ctor_externalEPKcm(%"class.std::__1::basic_string"* %20, i8* %22, i64 %24) #13
  br label %25

25:                                               ; preds = %16, %19
  %26 = getelementptr inbounds %"class.media_router::mojom::Issue", %"class.media_router::mojom::Issue"* %0, i64 0, i32 1
  %27 = bitcast %"class.std::__1::basic_string"* %2 to %"struct.std::__1::basic_string<char, std::__1::char_traits<char>, std::__1::allocator<char> >::__short"*
  %28 = getelementptr inbounds %"struct.std::__1::basic_string<char, std::__1::char_traits<char>, std::__1::allocator<char> >::__short", %"struct.std::__1::basic_string<char, std::__1::char_traits<char>, std::__1::allocator<char> >::__short"* %27, i64 0, i32 1, i32 0
  %29 = load i8, i8* %28, align 1
  %30 = icmp slt i8 %29, 0
  br i1 %30, label %34, label %31

31:                                               ; preds = %25
  %32 = bitcast %"class.std::__1::basic_string"* %26 to i8*
  %33 = bitcast %"class.std::__1::basic_string"* %2 to i8*
  tail call void @llvm.memcpy.p0i8.p0i8.i64(i8* align 8 %32, i8* align 8 %33, i64 24, i1 false) #13
  br label %39

34:                                               ; preds = %25
  %35 = getelementptr inbounds %"class.std::__1::basic_string", %"class.std::__1::basic_string"* %2, i64 0, i32 0, i32 0, i32 0, i32 0, i32 0, i32 0
  %36 = load i8*, i8** %35, align 8
  %37 = getelementptr inbounds %"class.std::__1::basic_string", %"class.std::__1::basic_string"* %2, i64 0, i32 0, i32 0, i32 0, i32 0, i32 0, i32 1
  %38 = load i64, i64* %37, align 8
  tail call void @_ZNSt3__112basic_stringIcNS_11char_traitsIcEENS_9allocatorIcEEE25__init_copy_ctor_externalEPKcm(%"class.std::__1::basic_string"* %26, i8* %36, i64 %38) #13
  br label %39

39:                                               ; preds = %31, %34
  %40 = getelementptr inbounds %"class.media_router::mojom::Issue", %"class.media_router::mojom::Issue"* %0, i64 0, i32 2
  store i32 %3, i32* %40, align 8
  %41 = getelementptr inbounds %"class.media_router::mojom::Issue", %"class.media_router::mojom::Issue"* %0, i64 0, i32 3
  store i8 %11, i8* %41, align 4
  %42 = getelementptr inbounds %"class.media_router::mojom::Issue", %"class.media_router::mojom::Issue"* %0, i64 0, i32 5
  %43 = bitcast %"class.std::__1::basic_string"* %5 to %"struct.std::__1::basic_string<char, std::__1::char_traits<char>, std::__1::allocator<char> >::__short"*
  %44 = getelementptr inbounds %"struct.std::__1::basic_string<char, std::__1::char_traits<char>, std::__1::allocator<char> >::__short", %"struct.std::__1::basic_string<char, std::__1::char_traits<char>, std::__1::allocator<char> >::__short"* %43, i64 0, i32 1, i32 0
  %45 = load i8, i8* %44, align 1
  %46 = icmp slt i8 %45, 0
  br i1 %46, label %50, label %47

47:                                               ; preds = %39
  %48 = bitcast %"class.std::__1::basic_string"* %42 to i8*
  %49 = bitcast %"class.std::__1::basic_string"* %5 to i8*
  tail call void @llvm.memcpy.p0i8.p0i8.i64(i8* align 8 %48, i8* align 8 %49, i64 24, i1 false) #13
  br label %55

50:                                               ; preds = %39
  %51 = getelementptr inbounds %"class.std::__1::basic_string", %"class.std::__1::basic_string"* %5, i64 0, i32 0, i32 0, i32 0, i32 0, i32 0, i32 0
  %52 = load i8*, i8** %51, align 8
  %53 = getelementptr inbounds %"class.std::__1::basic_string", %"class.std::__1::basic_string"* %5, i64 0, i32 0, i32 0, i32 0, i32 0, i32 0, i32 1
  %54 = load i64, i64* %53, align 8
  tail call void @_ZNSt3__112basic_stringIcNS_11char_traitsIcEENS_9allocatorIcEEE25__init_copy_ctor_externalEPKcm(%"class.std::__1::basic_string"* %42, i8* %52, i64 %54) #13
  br label %55

55:                                               ; preds = %47, %50
  %56 = getelementptr inbounds %"class.media_router::mojom::Issue", %"class.media_router::mojom::Issue"* %0, i64 0, i32 6, i32 0, i32 0, i32 0, i32 0
  %57 = getelementptr inbounds %"class.absl::optional", %"class.absl::optional"* %6, i64 0, i32 0, i32 0, i32 0, i32 0
  tail call void @llvm.memset.p0i8.i64(i8* align 8 %56, i8 0, i64 32, i1 false) #13
  %58 = load i8, i8* %57, align 8, !range !2
  %59 = icmp eq i8 %58, 0
  br i1 %59, label %76, label %60

60:                                               ; preds = %55
  %61 = getelementptr inbounds %"class.absl::optional", %"class.absl::optional"* %6, i64 0, i32 0, i32 0, i32 0, i32 1, i32 0
  %62 = getelementptr inbounds %"class.media_router::mojom::Issue", %"class.media_router::mojom::Issue"* %0, i64 0, i32 6, i32 0, i32 0, i32 0, i32 1, i32 0
  %63 = bitcast %"class.std::__1::basic_string"* %61 to %"struct.std::__1::basic_string<char, std::__1::char_traits<char>, std::__1::allocator<char> >::__short"*
  %64 = getelementptr inbounds %"struct.std::__1::basic_string<char, std::__1::char_traits<char>, std::__1::allocator<char> >::__short", %"struct.std::__1::basic_string<char, std::__1::char_traits<char>, std::__1::allocator<char> >::__short"* %63, i64 0, i32 1, i32 0
  %65 = load i8, i8* %64, align 1
  %66 = icmp slt i8 %65, 0
  br i1 %66, label %70, label %67

67:                                               ; preds = %60
  %68 = bitcast %"class.std::__1::basic_string"* %62 to i8*
  %69 = bitcast %"class.std::__1::basic_string"* %61 to i8*
  tail call void @llvm.memcpy.p0i8.p0i8.i64(i8* align 8 %68, i8* align 8 %69, i64 24, i1 false) #13
  br label %75

70:                                               ; preds = %60
  %71 = getelementptr inbounds %"class.std::__1::basic_string", %"class.std::__1::basic_string"* %61, i64 0, i32 0, i32 0, i32 0, i32 0, i32 0, i32 0
  %72 = load i8*, i8** %71, align 8
  %73 = getelementptr inbounds %"class.absl::optional", %"class.absl::optional"* %6, i64 0, i32 0, i32 0, i32 0, i32 1, i32 0, i32 0, i32 0, i32 0, i32 0, i32 0, i32 1
  %74 = load i64, i64* %73, align 8
  tail call void @_ZNSt3__112basic_stringIcNS_11char_traitsIcEENS_9allocatorIcEEE25__init_copy_ctor_externalEPKcm(%"class.std::__1::basic_string"* %62, i8* %72, i64 %74) #13
  br label %75

75:                                               ; preds = %70, %67
  store i8 1, i8* %56, align 8
  br label %76

76:                                               ; preds = %55, %75
  %77 = getelementptr inbounds %"class.media_router::mojom::Issue", %"class.media_router::mojom::Issue"* %0, i64 0, i32 7
  store i32 %7, i32* %77, align 8
  %78 = getelementptr inbounds %"class.media_router::mojom::Issue", %"class.media_router::mojom::Issue"* %0, i64 0, i32 9
  %79 = bitcast %"class.std::__1::vector.54"* %78 to i8*
  tail call void @llvm.memset.p0i8.i64(i8* align 8 %79, i8 0, i64 24, i1 false) #13
  %80 = bitcast %"class.std::__1::vector.54"* %8 to i64*
  %81 = load i64, i64* %80, align 8
  %82 = bitcast %"class.std::__1::vector.54"* %78 to i64*
  store i64 %81, i64* %82, align 8
  %83 = getelementptr inbounds %"class.std::__1::vector.54", %"class.std::__1::vector.54"* %8, i64 0, i32 0, i32 1
  %84 = bitcast i32** %83 to i64*
  %85 = load i64, i64* %84, align 8
  %86 = getelementptr inbounds %"class.media_router::mojom::Issue", %"class.media_router::mojom::Issue"* %0, i64 0, i32 9, i32 0, i32 1
  %87 = bitcast i32** %86 to i64*
  store i64 %85, i64* %87, align 8
  %88 = getelementptr inbounds %"class.std::__1::vector.54", %"class.std::__1::vector.54"* %8, i64 0, i32 0, i32 2, i32 0, i32 0
  %89 = bitcast i32** %88 to i64*
  %90 = load i64, i64* %89, align 8
  %91 = getelementptr inbounds %"class.media_router::mojom::Issue", %"class.media_router::mojom::Issue"* %0, i64 0, i32 9, i32 0, i32 2, i32 0, i32 0
  %92 = bitcast i32** %91 to i64*
  store i64 %90, i64* %92, align 8
  %93 = bitcast %"class.std::__1::vector.54"* %8 to i8*
  tail call void @llvm.memset.p0i8.i64(i8* align 8 %93, i8 0, i64 24, i1 false) #13
  %94 = getelementptr inbounds %"class.media_router::mojom::Issue", %"class.media_router::mojom::Issue"* %0, i64 0, i32 10
  store i32 %9, i32* %94, align 8
  ret void
}

; Function Attrs: nounwind ssp uwtable
define hidden void @_ZN12media_router5mojom5IssueD2Ev(%"class.media_router::mojom::Issue"* nocapture) unnamed_addr #0 align 2 {
  %2 = getelementptr inbounds %"class.media_router::mojom::Issue", %"class.media_router::mojom::Issue"* %0, i64 0, i32 9, i32 0, i32 0
  %3 = load i32*, i32** %2, align 8
  %4 = icmp eq i32* %3, null
  br i1 %4, label %10, label %5

5:                                                ; preds = %1
  %6 = ptrtoint i32* %3 to i64
  %7 = getelementptr inbounds %"class.media_router::mojom::Issue", %"class.media_router::mojom::Issue"* %0, i64 0, i32 9, i32 0, i32 1
  %8 = bitcast i32** %7 to i64*
  store i64 %6, i64* %8, align 8
  %9 = bitcast i32* %3 to i8*
  tail call void @_ZdlPv(i8* %9) #14
  br label %10

10:                                               ; preds = %1, %5
  %11 = getelementptr inbounds %"class.media_router::mojom::Issue", %"class.media_router::mojom::Issue"* %0, i64 0, i32 6, i32 0, i32 0, i32 0, i32 0
  %12 = load i8, i8* %11, align 8, !range !2
  %13 = icmp eq i8 %12, 0
  br i1 %13, label %24, label %14

14:                                               ; preds = %10
  %15 = getelementptr inbounds %"class.media_router::mojom::Issue", %"class.media_router::mojom::Issue"* %0, i64 0, i32 6, i32 0, i32 0, i32 0, i32 1, i32 0
  %16 = bitcast %"class.std::__1::basic_string"* %15 to %"struct.std::__1::basic_string<char, std::__1::char_traits<char>, std::__1::allocator<char> >::__short"*
  %17 = getelementptr inbounds %"struct.std::__1::basic_string<char, std::__1::char_traits<char>, std::__1::allocator<char> >::__short", %"struct.std::__1::basic_string<char, std::__1::char_traits<char>, std::__1::allocator<char> >::__short"* %16, i64 0, i32 1, i32 0
  %18 = load i8, i8* %17, align 1
  %19 = icmp slt i8 %18, 0
  br i1 %19, label %20, label %23

20:                                               ; preds = %14
  %21 = getelementptr inbounds %"class.std::__1::basic_string", %"class.std::__1::basic_string"* %15, i64 0, i32 0, i32 0, i32 0, i32 0, i32 0, i32 0
  %22 = load i8*, i8** %21, align 8
  tail call void @_ZdlPv(i8* %22) #14
  br label %23

23:                                               ; preds = %20, %14
  store i8 0, i8* %11, align 8
  br label %24

24:                                               ; preds = %10, %23
  %25 = getelementptr inbounds %"class.media_router::mojom::Issue", %"class.media_router::mojom::Issue"* %0, i64 0, i32 5
  %26 = bitcast %"class.std::__1::basic_string"* %25 to %"struct.std::__1::basic_string<char, std::__1::char_traits<char>, std::__1::allocator<char> >::__short"*
  %27 = getelementptr inbounds %"struct.std::__1::basic_string<char, std::__1::char_traits<char>, std::__1::allocator<char> >::__short", %"struct.std::__1::basic_string<char, std::__1::char_traits<char>, std::__1::allocator<char> >::__short"* %26, i64 0, i32 1, i32 0
  %28 = load i8, i8* %27, align 1
  %29 = icmp slt i8 %28, 0
  br i1 %29, label %30, label %33

30:                                               ; preds = %24
  %31 = getelementptr inbounds %"class.std::__1::basic_string", %"class.std::__1::basic_string"* %25, i64 0, i32 0, i32 0, i32 0, i32 0, i32 0, i32 0
  %32 = load i8*, i8** %31, align 8
  tail call void @_ZdlPv(i8* %32) #14
  br label %33

33:                                               ; preds = %24, %30
  %34 = getelementptr inbounds %"class.media_router::mojom::Issue", %"class.media_router::mojom::Issue"* %0, i64 0, i32 1
  %35 = bitcast %"class.std::__1::basic_string"* %34 to %"struct.std::__1::basic_string<char, std::__1::char_traits<char>, std::__1::allocator<char> >::__short"*
  %36 = getelementptr inbounds %"struct.std::__1::basic_string<char, std::__1::char_traits<char>, std::__1::allocator<char> >::__short", %"struct.std::__1::basic_string<char, std::__1::char_traits<char>, std::__1::allocator<char> >::__short"* %35, i64 0, i32 1, i32 0
  %37 = load i8, i8* %36, align 1
  %38 = icmp slt i8 %37, 0
  br i1 %38, label %39, label %42

39:                                               ; preds = %33
  %40 = getelementptr inbounds %"class.std::__1::basic_string", %"class.std::__1::basic_string"* %34, i64 0, i32 0, i32 0, i32 0, i32 0, i32 0, i32 0
  %41 = load i8*, i8** %40, align 8
  tail call void @_ZdlPv(i8* %41) #14
  br label %42

42:                                               ; preds = %33, %39
  %43 = bitcast %"class.media_router::mojom::Issue"* %0 to %"struct.std::__1::basic_string<char, std::__1::char_traits<char>, std::__1::allocator<char> >::__short"*
  %44 = getelementptr inbounds %"struct.std::__1::basic_string<char, std::__1::char_traits<char>, std::__1::allocator<char> >::__short", %"struct.std::__1::basic_string<char, std::__1::char_traits<char>, std::__1::allocator<char> >::__short"* %43, i64 0, i32 1, i32 0
  %45 = load i8, i8* %44, align 1
  %46 = icmp slt i8 %45, 0
  br i1 %46, label %47, label %50

47:                                               ; preds = %42
  %48 = getelementptr inbounds %"class.media_router::mojom::Issue", %"class.media_router::mojom::Issue"* %0, i64 0, i32 0, i32 0, i32 0, i32 0, i32 0, i32 0, i32 0
  %49 = load i8*, i8** %48, align 8
  tail call void @_ZdlPv(i8* %49) #14
  br label %50

50:                                               ; preds = %42, %47
  ret void
}

; Function Attrs: nounwind ssp uwtable
define hidden void @_ZNK12media_router5mojom5Issue14WriteIntoTraceEN8perfetto11TracedValueE(%"class.media_router::mojom::Issue"*, %"class.perfetto::TracedValue"*) local_unnamed_addr #0 align 2 {
  %3 = alloca %"class.perfetto::TracedValue", align 8
  %4 = alloca %"class.perfetto::TracedValue", align 8
  %5 = alloca %"class.perfetto::TracedArray", align 8
  %6 = alloca %"class.perfetto::TracedValue", align 8
  %7 = alloca %"class.perfetto::TracedValue", align 8
  %8 = alloca %"class.perfetto::TracedValue", align 8
  %9 = alloca %"class.perfetto::TracedValue", align 8
  %10 = alloca %"class.perfetto::TracedValue", align 8
  %11 = alloca %"class.perfetto::TracedValue", align 8
  %12 = alloca %"class.perfetto::TracedValue", align 8
  %13 = alloca %"class.perfetto::TracedValue", align 8
  %14 = alloca %"class.perfetto::TracedValue", align 8
  %15 = alloca %"class.perfetto::TracedValue", align 8
  %16 = alloca %"class.perfetto::TracedDictionary", align 8
  %17 = alloca %"class.perfetto::TracedValue", align 8
  %18 = alloca %"class.perfetto::TracedValue", align 8
  %19 = alloca %"class.perfetto::TracedValue", align 8
  %20 = alloca %"class.perfetto::TracedValue", align 8
  %21 = alloca %"class.perfetto::TracedValue", align 8
  %22 = alloca %"class.perfetto::TracedValue", align 8
  %23 = alloca %"class.perfetto::TracedValue", align 8
  %24 = alloca %"class.perfetto::TracedValue", align 8
  %25 = alloca %"class.perfetto::TracedValue", align 8
  %26 = bitcast %"class.perfetto::TracedDictionary"* %16 to i8*
  call void @llvm.lifetime.start.p0i8(i64 16, i8* nonnull %26) #13
  %27 = bitcast %"class.perfetto::TracedDictionary"* %16 to i8*
  call void @llvm.memset.p0i8.i64(i8* nonnull align 8 %27, i8 -86, i64 16, i1 false)
  call void @_ZNO8perfetto11TracedValue15WriteDictionaryEv(%"class.perfetto::TracedDictionary"* nonnull sret %16, %"class.perfetto::TracedValue"* %1) #13
  call void @_ZN8perfetto16TracedDictionary7AddItemENS_12StaticStringE(%"class.perfetto::TracedValue"* nonnull sret %17, %"class.perfetto::TracedDictionary"* nonnull %16, i8* getelementptr inbounds ([9 x i8], [9 x i8]* @.str.25, i64 0, i64 0)) #13
  %28 = getelementptr inbounds %"class.media_router::mojom::Issue", %"class.media_router::mojom::Issue"* %0, i64 0, i32 0
  %29 = bitcast %"class.perfetto::TracedValue"* %17 to i8*
  %30 = bitcast %"class.perfetto::TracedValue"* %14 to i8*
  call void @llvm.lifetime.start.p0i8(i64 16, i8* nonnull %30) #13
  call void @llvm.memcpy.p0i8.p0i8.i64(i8* nonnull align 8 %30, i8* nonnull align 8 %29, i64 16, i1 false) #13
  call void @_ZNO8perfetto11TracedValue11WriteStringERKNSt3__112basic_stringIcNS1_11char_traitsIcEENS1_9allocatorIcEEEE(%"class.perfetto::TracedValue"* nonnull %14, %"class.std::__1::basic_string"* dereferenceable(24) %28) #13
  call void @llvm.lifetime.end.p0i8(i64 16, i8* nonnull %30) #13
  call void @_ZN8perfetto16TracedDictionary7AddItemENS_12StaticStringE(%"class.perfetto::TracedValue"* nonnull sret %18, %"class.perfetto::TracedDictionary"* nonnull %16, i8* getelementptr inbounds ([8 x i8], [8 x i8]* @.str, i64 0, i64 0)) #13
  %31 = getelementptr inbounds %"class.media_router::mojom::Issue", %"class.media_router::mojom::Issue"* %0, i64 0, i32 1
  %32 = bitcast %"class.perfetto::TracedValue"* %18 to i8*
  %33 = bitcast %"class.perfetto::TracedValue"* %13 to i8*
  call void @llvm.lifetime.start.p0i8(i64 16, i8* nonnull %33) #13
  call void @llvm.memcpy.p0i8.p0i8.i64(i8* nonnull align 8 %33, i8* nonnull align 8 %32, i64 16, i1 false) #13
  call void @_ZNO8perfetto11TracedValue11WriteStringERKNSt3__112basic_stringIcNS1_11char_traitsIcEENS1_9allocatorIcEEEE(%"class.perfetto::TracedValue"* nonnull %13, %"class.std::__1::basic_string"* dereferenceable(24) %31) #13
  call void @llvm.lifetime.end.p0i8(i64 16, i8* nonnull %33) #13
  call void @_ZN8perfetto16TracedDictionary7AddItemENS_12StaticStringE(%"class.perfetto::TracedValue"* nonnull sret %19, %"class.perfetto::TracedDictionary"* nonnull %16, i8* getelementptr inbounds ([9 x i8], [9 x i8]* @.str.26, i64 0, i64 0)) #13
  %34 = getelementptr inbounds %"class.media_router::mojom::Issue", %"class.media_router::mojom::Issue"* %0, i64 0, i32 2
  %35 = bitcast %"class.perfetto::TracedValue"* %19 to i8*
  %36 = bitcast %"class.perfetto::TracedValue"* %12 to i8*
  call void @llvm.lifetime.start.p0i8(i64 16, i8* nonnull %36) #13
  call void @llvm.memcpy.p0i8.p0i8.i64(i8* nonnull align 8 %36, i8* nonnull align 8 %35, i64 16, i1 false) #13
  %37 = load i32, i32* %34, align 4
  %38 = sext i32 %37 to i64
  call void @_ZNO8perfetto11TracedValue10WriteInt64El(%"class.perfetto::TracedValue"* nonnull %12, i64 %38) #13
  call void @llvm.lifetime.end.p0i8(i64 16, i8* nonnull %36) #13
  call void @_ZN8perfetto16TracedDictionary7AddItemENS_12StaticStringE(%"class.perfetto::TracedValue"* nonnull sret %20, %"class.perfetto::TracedDictionary"* nonnull %16, i8* getelementptr inbounds ([12 x i8], [12 x i8]* @.str.27, i64 0, i64 0)) #13
  %39 = getelementptr inbounds %"class.media_router::mojom::Issue", %"class.media_router::mojom::Issue"* %0, i64 0, i32 3
  %40 = bitcast %"class.perfetto::TracedValue"* %20 to i8*
  %41 = bitcast %"class.perfetto::TracedValue"* %11 to i8*
  call void @llvm.lifetime.start.p0i8(i64 16, i8* nonnull %41) #13
  call void @llvm.memcpy.p0i8.p0i8.i64(i8* nonnull align 8 %41, i8* nonnull align 8 %40, i64 16, i1 false) #13
  %42 = load i8, i8* %39, align 1, !range !2
  %43 = icmp ne i8 %42, 0
  call void @_ZNO8perfetto11TracedValue12WriteBooleanEb(%"class.perfetto::TracedValue"* nonnull %11, i1 zeroext %43) #13
  call void @llvm.lifetime.end.p0i8(i64 16, i8* nonnull %41) #13
  call void @_ZN8perfetto16TracedDictionary7AddItemENS_12StaticStringE(%"class.perfetto::TracedValue"* nonnull sret %21, %"class.perfetto::TracedDictionary"* nonnull %16, i8* getelementptr inbounds ([6 x i8], [6 x i8]* @.str.28, i64 0, i64 0)) #13
  %44 = getelementptr inbounds %"class.media_router::mojom::Issue", %"class.media_router::mojom::Issue"* %0, i64 0, i32 5
  %45 = bitcast %"class.perfetto::TracedValue"* %21 to i8*
  %46 = bitcast %"class.perfetto::TracedValue"* %10 to i8*
  call void @llvm.lifetime.start.p0i8(i64 16, i8* nonnull %46) #13
  call void @llvm.memcpy.p0i8.p0i8.i64(i8* nonnull align 8 %46, i8* nonnull align 8 %45, i64 16, i1 false) #13
  call void @_ZNO8perfetto11TracedValue11WriteStringERKNSt3__112basic_stringIcNS1_11char_traitsIcEENS1_9allocatorIcEEEE(%"class.perfetto::TracedValue"* nonnull %10, %"class.std::__1::basic_string"* dereferenceable(24) %44) #13
  call void @llvm.lifetime.end.p0i8(i64 16, i8* nonnull %46) #13
  call void @_ZN8perfetto16TracedDictionary7AddItemENS_12StaticStringE(%"class.perfetto::TracedValue"* nonnull sret %22, %"class.perfetto::TracedDictionary"* nonnull %16, i8* getelementptr inbounds ([8 x i8], [8 x i8]* @.str.29, i64 0, i64 0)) #13
  %47 = bitcast %"class.perfetto::TracedValue"* %22 to i8*
  %48 = bitcast %"class.perfetto::TracedValue"* %9 to i8*
  call void @llvm.lifetime.start.p0i8(i64 16, i8* nonnull %48) #13
  call void @llvm.memcpy.p0i8.p0i8.i64(i8* nonnull align 8 %48, i8* nonnull align 8 %47, i64 16, i1 false) #13
  %49 = getelementptr inbounds %"class.media_router::mojom::Issue", %"class.media_router::mojom::Issue"* %0, i64 0, i32 6, i32 0, i32 0, i32 0, i32 0
  %50 = load i8, i8* %49, align 8, !range !2
  %51 = icmp eq i8 %50, 0
  br i1 %51, label %52, label %53

52:                                               ; preds = %2
  call void @_ZNO8perfetto11TracedValue12WritePointerEPKv(%"class.perfetto::TracedValue"* nonnull %9, i8* null) #13
  br label %56

53:                                               ; preds = %2
  %54 = getelementptr inbounds %"class.media_router::mojom::Issue", %"class.media_router::mojom::Issue"* %0, i64 0, i32 6, i32 0, i32 0, i32 0, i32 1, i32 0
  %55 = bitcast %"class.perfetto::TracedValue"* %8 to i8*
  call void @llvm.lifetime.start.p0i8(i64 16, i8* nonnull %55) #13
  call void @llvm.memcpy.p0i8.p0i8.i64(i8* nonnull align 8 %55, i8* nonnull align 8 %48, i64 16, i1 false) #13
  call void @_ZNO8perfetto11TracedValue11WriteStringERKNSt3__112basic_stringIcNS1_11char_traitsIcEENS1_9allocatorIcEEEE(%"class.perfetto::TracedValue"* nonnull %8, %"class.std::__1::basic_string"* dereferenceable(24) %54) #13
  call void @llvm.lifetime.end.p0i8(i64 16, i8* nonnull %55) #13
  br label %56

56:                                               ; preds = %52, %53
  call void @llvm.lifetime.end.p0i8(i64 16, i8* nonnull %48) #13
  call void @_ZN8perfetto16TracedDictionary7AddItemENS_12StaticStringE(%"class.perfetto::TracedValue"* nonnull sret %23, %"class.perfetto::TracedDictionary"* nonnull %16, i8* getelementptr inbounds ([15 x i8], [15 x i8]* @.str.30, i64 0, i64 0)) #13
  %57 = getelementptr inbounds %"class.media_router::mojom::Issue", %"class.media_router::mojom::Issue"* %0, i64 0, i32 7
  %58 = bitcast %"class.perfetto::TracedValue"* %23 to i8*
  %59 = bitcast %"class.perfetto::TracedValue"* %7 to i8*
  call void @llvm.lifetime.start.p0i8(i64 16, i8* nonnull %59) #13
  call void @llvm.memcpy.p0i8.p0i8.i64(i8* nonnull align 8 %59, i8* nonnull align 8 %58, i64 16, i1 false) #13
  %60 = load i32, i32* %57, align 4
  %61 = sext i32 %60 to i64
  call void @_ZNO8perfetto11TracedValue10WriteInt64El(%"class.perfetto::TracedValue"* nonnull %7, i64 %61) #13
  call void @llvm.lifetime.end.p0i8(i64 16, i8* nonnull %59) #13
  call void @_ZN8perfetto16TracedDictionary7AddItemENS_12StaticStringE(%"class.perfetto::TracedValue"* nonnull sret %24, %"class.perfetto::TracedDictionary"* nonnull %16, i8* getelementptr inbounds ([18 x i8], [18 x i8]* @.str.31, i64 0, i64 0)) #13
  %62 = bitcast %"class.perfetto::TracedValue"* %24 to i8*
  %63 = bitcast %"class.perfetto::TracedValue"* %6 to i8*
  call void @llvm.lifetime.start.p0i8(i64 16, i8* nonnull %63) #13
  call void @llvm.memcpy.p0i8.p0i8.i64(i8* nonnull align 8 %63, i8* nonnull align 8 %62, i64 16, i1 false) #13
  %64 = bitcast %"class.perfetto::TracedArray"* %5 to i8*
  call void @llvm.lifetime.start.p0i8(i64 16, i8* nonnull %64) #13
  call void @llvm.memset.p0i8.i64(i8* nonnull align 8 %64, i8 -86, i64 16, i1 false) #13
  call void @_ZNO8perfetto11TracedValue10WriteArrayEv(%"class.perfetto::TracedArray"* nonnull sret %5, %"class.perfetto::TracedValue"* nonnull %6) #13
  %65 = getelementptr inbounds %"class.media_router::mojom::Issue", %"class.media_router::mojom::Issue"* %0, i64 0, i32 9, i32 0, i32 0
  %66 = load i32*, i32** %65, align 8
  %67 = getelementptr inbounds %"class.media_router::mojom::Issue", %"class.media_router::mojom::Issue"* %0, i64 0, i32 9, i32 0, i32 1
  %68 = load i32*, i32** %67, align 8
  %69 = icmp eq i32* %66, %68
  br i1 %69, label %79, label %70

70:                                               ; preds = %56
  %71 = bitcast %"class.perfetto::TracedValue"* %4 to i8*
  %72 = bitcast %"class.perfetto::TracedValue"* %3 to i8*
  br label %73

73:                                               ; preds = %73, %70
  %74 = phi i32* [ %66, %70 ], [ %77, %73 ]
  call void @llvm.lifetime.start.p0i8(i64 16, i8* nonnull %71) #13
  call void @_ZN8perfetto11TracedArray10AppendItemEv(%"class.perfetto::TracedValue"* nonnull sret %4, %"class.perfetto::TracedArray"* nonnull %5) #13
  call void @llvm.lifetime.start.p0i8(i64 16, i8* nonnull %72) #13
  call void @llvm.memcpy.p0i8.p0i8.i64(i8* nonnull align 8 %72, i8* nonnull align 8 %71, i64 16, i1 false) #13
  %75 = load i32, i32* %74, align 4
  %76 = sext i32 %75 to i64
  call void @_ZNO8perfetto11TracedValue10WriteInt64El(%"class.perfetto::TracedValue"* nonnull %3, i64 %76) #13
  call void @llvm.lifetime.end.p0i8(i64 16, i8* nonnull %72) #13
  call void @llvm.lifetime.end.p0i8(i64 16, i8* nonnull %71) #13
  %77 = getelementptr inbounds i32, i32* %74, i64 1
  %78 = icmp eq i32* %77, %68
  br i1 %78, label %79, label %73

79:                                               ; preds = %73, %56
  call void @llvm.lifetime.end.p0i8(i64 16, i8* nonnull %64) #13
  call void @llvm.lifetime.end.p0i8(i64 16, i8* nonnull %63) #13
  call void @_ZN8perfetto16TracedDictionary7AddItemENS_12StaticStringE(%"class.perfetto::TracedValue"* nonnull sret %25, %"class.perfetto::TracedDictionary"* nonnull %16, i8* getelementptr inbounds ([13 x i8], [13 x i8]* @.str.32, i64 0, i64 0)) #13
  %80 = getelementptr inbounds %"class.media_router::mojom::Issue", %"class.media_router::mojom::Issue"* %0, i64 0, i32 10
  %81 = bitcast %"class.perfetto::TracedValue"* %25 to i8*
  %82 = bitcast %"class.perfetto::TracedValue"* %15 to i8*
  call void @llvm.lifetime.start.p0i8(i64 16, i8* nonnull %82) #13
  call void @llvm.memcpy.p0i8.p0i8.i64(i8* nonnull align 8 %82, i8* nonnull align 8 %81, i64 16, i1 false) #13
  %83 = load i32, i32* %80, align 4
  %84 = sext i32 %83 to i64
  call void @_ZNO8perfetto11TracedValue10WriteInt64El(%"class.perfetto::TracedValue"* nonnull %15, i64 %84) #13
  call void @llvm.lifetime.end.p0i8(i64 16, i8* nonnull %82) #13
  call void @llvm.lifetime.end.p0i8(i64 16, i8* nonnull %26) #13
  ret void
}

; Function Attrs: nounwind ssp uwtable
define hidden zeroext i1 @_ZN12media_router5mojom5Issue8ValidateEPKvPN4mojo8internal17ValidationContextE(i8*, %"class.mojo::internal::ValidationContext"*) local_unnamed_addr #0 align 2 {
  %3 = tail call zeroext i1 @_ZN12media_router5mojom8internal10Issue_Data8ValidateEPKvPN4mojo8internal17ValidationContextE(i8* %0, %"class.mojo::internal::ValidationContext"* %1) #13
  ret i1 %3
}

declare zeroext i1 @_ZN12media_router5mojom8internal10Issue_Data8ValidateEPKvPN4mojo8internal17ValidationContextE(i8*, %"class.mojo::internal::ValidationContext"*) local_unnamed_addr #2

; Function Attrs: nounwind ssp uwtable
define hidden void @_ZN12media_router5mojom12RouteMessageC2Ev(%"class.media_router::mojom::RouteMessage"* nocapture) unnamed_addr #0 align 2 {
  %2 = getelementptr inbounds %"class.media_router::mojom::RouteMessage", %"class.media_router::mojom::RouteMessage"* %0, i64 0, i32 0
  store i32 0, i32* %2, align 8
  %3 = getelementptr inbounds %"class.media_router::mojom::RouteMessage", %"class.media_router::mojom::RouteMessage"* %0, i64 0, i32 1, i32 0, i32 0, i32 0, i32 0
  store i8 0, i8* %3, align 8
  %4 = getelementptr inbounds %"class.media_router::mojom::RouteMessage", %"class.media_router::mojom::RouteMessage"* %0, i64 0, i32 1, i32 0, i32 0, i32 0, i32 1
  %5 = getelementptr inbounds %"class.media_router::mojom::RouteMessage", %"class.media_router::mojom::RouteMessage"* %0, i64 0, i32 2, i32 0, i32 0, i32 0, i32 1
  %6 = bitcast %union.anon.65* %5 to i8*
  tail call void @llvm.memset.p0i8.i64(i8* align 8 %6, i8 0, i64 24, i1 false) #13
  %7 = bitcast %union.anon.1* %4 to i8*
  call void @llvm.memset.p0i8.i64(i8* align 8 %7, i8 0, i64 25, i1 false)
  ret void
}

; Function Attrs: nounwind ssp uwtable
define hidden void @_ZN12media_router5mojom12RouteMessageC2ENS0_17RouteMessage_TypeERKN4absl8optionalINSt3__112basic_stringIcNS5_11char_traitsIcEENS5_9allocatorIcEEEEEENS4_INS5_6vectorIhNS9_IhEEEEEE(%"class.media_router::mojom::RouteMessage"*, i32, %"class.absl::optional"* nocapture readonly dereferenceable(32), %"class.absl::optional.61"* nocapture) unnamed_addr #0 align 2 {
  %5 = getelementptr inbounds %"class.media_router::mojom::RouteMessage", %"class.media_router::mojom::RouteMessage"* %0, i64 0, i32 0
  store i32 %1, i32* %5, align 8
  %6 = getelementptr inbounds %"class.media_router::mojom::RouteMessage", %"class.media_router::mojom::RouteMessage"* %0, i64 0, i32 1, i32 0, i32 0, i32 0, i32 0
  %7 = getelementptr inbounds %"class.absl::optional", %"class.absl::optional"* %2, i64 0, i32 0, i32 0, i32 0, i32 0
  tail call void @llvm.memset.p0i8.i64(i8* align 8 %6, i8 0, i64 32, i1 false) #13
  %8 = load i8, i8* %7, align 8, !range !2
  %9 = icmp eq i8 %8, 0
  br i1 %9, label %26, label %10

10:                                               ; preds = %4
  %11 = getelementptr inbounds %"class.absl::optional", %"class.absl::optional"* %2, i64 0, i32 0, i32 0, i32 0, i32 1, i32 0
  %12 = getelementptr inbounds %"class.media_router::mojom::RouteMessage", %"class.media_router::mojom::RouteMessage"* %0, i64 0, i32 1, i32 0, i32 0, i32 0, i32 1, i32 0
  %13 = bitcast %"class.std::__1::basic_string"* %11 to %"struct.std::__1::basic_string<char, std::__1::char_traits<char>, std::__1::allocator<char> >::__short"*
  %14 = getelementptr inbounds %"struct.std::__1::basic_string<char, std::__1::char_traits<char>, std::__1::allocator<char> >::__short", %"struct.std::__1::basic_string<char, std::__1::char_traits<char>, std::__1::allocator<char> >::__short"* %13, i64 0, i32 1, i32 0
  %15 = load i8, i8* %14, align 1
  %16 = icmp slt i8 %15, 0
  br i1 %16, label %20, label %17

17:                                               ; preds = %10
  %18 = bitcast %"class.std::__1::basic_string"* %12 to i8*
  %19 = bitcast %"class.std::__1::basic_string"* %11 to i8*
  tail call void @llvm.memcpy.p0i8.p0i8.i64(i8* align 8 %18, i8* align 8 %19, i64 24, i1 false) #13
  br label %25

20:                                               ; preds = %10
  %21 = getelementptr inbounds %"class.std::__1::basic_string", %"class.std::__1::basic_string"* %11, i64 0, i32 0, i32 0, i32 0, i32 0, i32 0, i32 0
  %22 = load i8*, i8** %21, align 8
  %23 = getelementptr inbounds %"class.absl::optional", %"class.absl::optional"* %2, i64 0, i32 0, i32 0, i32 0, i32 1, i32 0, i32 0, i32 0, i32 0, i32 0, i32 0, i32 1
  %24 = load i64, i64* %23, align 8
  tail call void @_ZNSt3__112basic_stringIcNS_11char_traitsIcEENS_9allocatorIcEEE25__init_copy_ctor_externalEPKcm(%"class.std::__1::basic_string"* %12, i8* %22, i64 %24) #13
  br label %25

25:                                               ; preds = %20, %17
  store i8 1, i8* %6, align 8
  br label %26

26:                                               ; preds = %4, %25
  %27 = getelementptr inbounds %"class.media_router::mojom::RouteMessage", %"class.media_router::mojom::RouteMessage"* %0, i64 0, i32 2, i32 0, i32 0, i32 0, i32 0
  %28 = getelementptr inbounds %"class.absl::optional.61", %"class.absl::optional.61"* %3, i64 0, i32 0, i32 0, i32 0, i32 0
  tail call void @llvm.memset.p0i8.i64(i8* align 8 %27, i8 0, i64 32, i1 false) #13
  %29 = load i8, i8* %28, align 8, !range !2
  %30 = icmp eq i8 %29, 0
  br i1 %30, label %49, label %31

31:                                               ; preds = %26
  %32 = getelementptr inbounds %"class.absl::optional.61", %"class.absl::optional.61"* %3, i64 0, i32 0, i32 0, i32 0, i32 1, i32 0
  %33 = getelementptr inbounds %"class.media_router::mojom::RouteMessage", %"class.media_router::mojom::RouteMessage"* %0, i64 0, i32 2, i32 0, i32 0, i32 0, i32 1, i32 0
  %34 = bitcast %"class.std::__1::vector.66"* %33 to i8*
  tail call void @llvm.memset.p0i8.i64(i8* align 8 %34, i8 0, i64 24, i1 false) #13
  %35 = bitcast %"class.std::__1::vector.66"* %32 to i64*
  %36 = load i64, i64* %35, align 8
  %37 = bitcast %"class.std::__1::vector.66"* %33 to i64*
  store i64 %36, i64* %37, align 8
  %38 = getelementptr inbounds %"class.absl::optional.61", %"class.absl::optional.61"* %3, i64 0, i32 0, i32 0, i32 0, i32 1, i32 0, i32 0, i32 1
  %39 = bitcast i8** %38 to i64*
  %40 = load i64, i64* %39, align 8
  %41 = getelementptr inbounds %"class.media_router::mojom::RouteMessage", %"class.media_router::mojom::RouteMessage"* %0, i64 0, i32 2, i32 0, i32 0, i32 0, i32 1, i32 0, i32 0, i32 1
  %42 = bitcast i8** %41 to i64*
  store i64 %40, i64* %42, align 8
  %43 = getelementptr inbounds %"class.absl::optional.61", %"class.absl::optional.61"* %3, i64 0, i32 0, i32 0, i32 0, i32 1, i32 0, i32 0, i32 2, i32 0, i32 0
  %44 = bitcast i8** %43 to i64*
  %45 = load i64, i64* %44, align 8
  %46 = getelementptr inbounds %"class.media_router::mojom::RouteMessage", %"class.media_router::mojom::RouteMessage"* %0, i64 0, i32 2, i32 0, i32 0, i32 0, i32 1, i32 0, i32 0, i32 2, i32 0, i32 0
  %47 = bitcast i8** %46 to i64*
  store i64 %45, i64* %47, align 8
  %48 = bitcast %"class.std::__1::vector.66"* %32 to i8*
  tail call void @llvm.memset.p0i8.i64(i8* align 8 %48, i8 0, i64 24, i1 false) #13
  store i8 1, i8* %27, align 8
  br label %49

49:                                               ; preds = %26, %31
  ret void
}

; Function Attrs: nounwind ssp uwtable
define hidden void @_ZN12media_router5mojom12RouteMessageD2Ev(%"class.media_router::mojom::RouteMessage"* nocapture) unnamed_addr #0 align 2 {
  %2 = getelementptr inbounds %"class.media_router::mojom::RouteMessage", %"class.media_router::mojom::RouteMessage"* %0, i64 0, i32 2, i32 0, i32 0, i32 0, i32 0
  %3 = load i8, i8* %2, align 8, !range !2
  %4 = icmp eq i8 %3, 0
  br i1 %4, label %14, label %5

5:                                                ; preds = %1
  %6 = getelementptr inbounds %"class.media_router::mojom::RouteMessage", %"class.media_router::mojom::RouteMessage"* %0, i64 0, i32 2, i32 0, i32 0, i32 0, i32 1, i32 0, i32 0, i32 0
  %7 = load i8*, i8** %6, align 8
  %8 = icmp eq i8* %7, null
  br i1 %8, label %13, label %9

9:                                                ; preds = %5
  %10 = ptrtoint i8* %7 to i64
  %11 = getelementptr inbounds %"class.media_router::mojom::RouteMessage", %"class.media_router::mojom::RouteMessage"* %0, i64 0, i32 2, i32 0, i32 0, i32 0, i32 1, i32 0, i32 0, i32 1
  %12 = bitcast i8** %11 to i64*
  store i64 %10, i64* %12, align 8
  tail call void @_ZdlPv(i8* nonnull %7) #14
  br label %13

13:                                               ; preds = %9, %5
  store i8 0, i8* %2, align 8
  br label %14

14:                                               ; preds = %1, %13
  %15 = getelementptr inbounds %"class.media_router::mojom::RouteMessage", %"class.media_router::mojom::RouteMessage"* %0, i64 0, i32 1, i32 0, i32 0, i32 0, i32 0
  %16 = load i8, i8* %15, align 8, !range !2
  %17 = icmp eq i8 %16, 0
  br i1 %17, label %28, label %18

18:                                               ; preds = %14
  %19 = getelementptr inbounds %"class.media_router::mojom::RouteMessage", %"class.media_router::mojom::RouteMessage"* %0, i64 0, i32 1, i32 0, i32 0, i32 0, i32 1, i32 0
  %20 = bitcast %"class.std::__1::basic_string"* %19 to %"struct.std::__1::basic_string<char, std::__1::char_traits<char>, std::__1::allocator<char> >::__short"*
  %21 = getelementptr inbounds %"struct.std::__1::basic_string<char, std::__1::char_traits<char>, std::__1::allocator<char> >::__short", %"struct.std::__1::basic_string<char, std::__1::char_traits<char>, std::__1::allocator<char> >::__short"* %20, i64 0, i32 1, i32 0
  %22 = load i8, i8* %21, align 1
  %23 = icmp slt i8 %22, 0
  br i1 %23, label %24, label %27

24:                                               ; preds = %18
  %25 = getelementptr inbounds %"class.std::__1::basic_string", %"class.std::__1::basic_string"* %19, i64 0, i32 0, i32 0, i32 0, i32 0, i32 0, i32 0
  %26 = load i8*, i8** %25, align 8
  tail call void @_ZdlPv(i8* %26) #14
  br label %27

27:                                               ; preds = %24, %18
  store i8 0, i8* %15, align 8
  br label %28

28:                                               ; preds = %14, %27
  ret void
}

; Function Attrs: nounwind ssp uwtable
define hidden void @_ZNK12media_router5mojom12RouteMessage14WriteIntoTraceEN8perfetto11TracedValueE(%"class.media_router::mojom::RouteMessage"*, %"class.perfetto::TracedValue"*) local_unnamed_addr #0 align 2 {
  %3 = alloca %"class.perfetto::TracedValue", align 8
  %4 = alloca %"class.perfetto::TracedValue", align 8
  %5 = alloca %"class.perfetto::TracedValue", align 8
  %6 = alloca %"class.perfetto::TracedValue", align 8
  %7 = alloca %"class.perfetto::TracedValue", align 8
  %8 = alloca %"class.perfetto::TracedArray", align 8
  %9 = alloca %"class.perfetto::TracedValue", align 8
  %10 = alloca %"class.perfetto::TracedValue", align 8
  %11 = alloca %"class.perfetto::TracedDictionary", align 8
  %12 = alloca %"class.perfetto::TracedValue", align 8
  %13 = alloca %"class.perfetto::TracedValue", align 8
  %14 = alloca %"class.perfetto::TracedValue", align 8
  %15 = bitcast %"class.perfetto::TracedDictionary"* %11 to i8*
  call void @llvm.lifetime.start.p0i8(i64 16, i8* nonnull %15) #13
  %16 = bitcast %"class.perfetto::TracedDictionary"* %11 to i8*
  call void @llvm.memset.p0i8.i64(i8* nonnull align 8 %16, i8 -86, i64 16, i1 false)
  call void @_ZNO8perfetto11TracedValue15WriteDictionaryEv(%"class.perfetto::TracedDictionary"* nonnull sret %11, %"class.perfetto::TracedValue"* %1) #13
  call void @_ZN8perfetto16TracedDictionary7AddItemENS_12StaticStringE(%"class.perfetto::TracedValue"* nonnull sret %12, %"class.perfetto::TracedDictionary"* nonnull %11, i8* getelementptr inbounds ([5 x i8], [5 x i8]* @.str.33, i64 0, i64 0)) #13
  %17 = getelementptr inbounds %"class.media_router::mojom::RouteMessage", %"class.media_router::mojom::RouteMessage"* %0, i64 0, i32 0
  %18 = bitcast %"class.perfetto::TracedValue"* %12 to i8*
  %19 = bitcast %"class.perfetto::TracedValue"* %5 to i8*
  call void @llvm.lifetime.start.p0i8(i64 16, i8* nonnull %19) #13
  call void @llvm.memcpy.p0i8.p0i8.i64(i8* nonnull align 8 %19, i8* nonnull align 8 %18, i64 16, i1 false) #13
  %20 = load i32, i32* %17, align 4
  call void @_ZN8perfetto17TraceFormatTraitsIN12media_router5mojom17RouteMessage_TypeEvE14WriteIntoTraceENS_11TracedValueES3_(%"class.perfetto::TracedValue"* nonnull %5, i32 %20) #13
  call void @llvm.lifetime.end.p0i8(i64 16, i8* nonnull %19) #13
  call void @_ZN8perfetto16TracedDictionary7AddItemENS_12StaticStringE(%"class.perfetto::TracedValue"* nonnull sret %13, %"class.perfetto::TracedDictionary"* nonnull %11, i8* getelementptr inbounds ([8 x i8], [8 x i8]* @.str.29, i64 0, i64 0)) #13
  %21 = bitcast %"class.perfetto::TracedValue"* %13 to i8*
  %22 = bitcast %"class.perfetto::TracedValue"* %4 to i8*
  call void @llvm.lifetime.start.p0i8(i64 16, i8* nonnull %22) #13
  call void @llvm.memcpy.p0i8.p0i8.i64(i8* nonnull align 8 %22, i8* nonnull align 8 %21, i64 16, i1 false) #13
  %23 = getelementptr inbounds %"class.media_router::mojom::RouteMessage", %"class.media_router::mojom::RouteMessage"* %0, i64 0, i32 1, i32 0, i32 0, i32 0, i32 0
  %24 = load i8, i8* %23, align 8, !range !2
  %25 = icmp eq i8 %24, 0
  br i1 %25, label %26, label %27

26:                                               ; preds = %2
  call void @_ZNO8perfetto11TracedValue12WritePointerEPKv(%"class.perfetto::TracedValue"* nonnull %4, i8* null) #13
  br label %30

27:                                               ; preds = %2
  %28 = getelementptr inbounds %"class.media_router::mojom::RouteMessage", %"class.media_router::mojom::RouteMessage"* %0, i64 0, i32 1, i32 0, i32 0, i32 0, i32 1, i32 0
  %29 = bitcast %"class.perfetto::TracedValue"* %3 to i8*
  call void @llvm.lifetime.start.p0i8(i64 16, i8* nonnull %29) #13
  call void @llvm.memcpy.p0i8.p0i8.i64(i8* nonnull align 8 %29, i8* nonnull align 8 %22, i64 16, i1 false) #13
  call void @_ZNO8perfetto11TracedValue11WriteStringERKNSt3__112basic_stringIcNS1_11char_traitsIcEENS1_9allocatorIcEEEE(%"class.perfetto::TracedValue"* nonnull %3, %"class.std::__1::basic_string"* dereferenceable(24) %28) #13
  call void @llvm.lifetime.end.p0i8(i64 16, i8* nonnull %29) #13
  br label %30

30:                                               ; preds = %27, %26
  call void @llvm.lifetime.end.p0i8(i64 16, i8* nonnull %22) #13
  call void @_ZN8perfetto16TracedDictionary7AddItemENS_12StaticStringE(%"class.perfetto::TracedValue"* nonnull sret %14, %"class.perfetto::TracedDictionary"* nonnull %11, i8* getelementptr inbounds ([5 x i8], [5 x i8]* @.str.34, i64 0, i64 0)) #13
  %31 = bitcast %"class.perfetto::TracedValue"* %14 to i8*
  %32 = bitcast %"class.perfetto::TracedValue"* %10 to i8*
  call void @llvm.lifetime.start.p0i8(i64 16, i8* nonnull %32) #13
  call void @llvm.memcpy.p0i8.p0i8.i64(i8* nonnull align 8 %32, i8* nonnull align 8 %31, i64 16, i1 false) #13
  %33 = getelementptr inbounds %"class.media_router::mojom::RouteMessage", %"class.media_router::mojom::RouteMessage"* %0, i64 0, i32 2, i32 0, i32 0, i32 0, i32 0
  %34 = load i8, i8* %33, align 8, !range !2
  %35 = icmp eq i8 %34, 0
  br i1 %35, label %36, label %37

36:                                               ; preds = %30
  call void @_ZNO8perfetto11TracedValue12WritePointerEPKv(%"class.perfetto::TracedValue"* nonnull %10, i8* null) #13
  br label %55

37:                                               ; preds = %30
  %38 = bitcast %"class.perfetto::TracedValue"* %9 to i8*
  call void @llvm.lifetime.start.p0i8(i64 16, i8* nonnull %38) #13
  call void @llvm.memcpy.p0i8.p0i8.i64(i8* nonnull align 8 %38, i8* nonnull align 8 %32, i64 16, i1 false) #13
  %39 = bitcast %"class.perfetto::TracedArray"* %8 to i8*
  call void @llvm.lifetime.start.p0i8(i64 16, i8* nonnull %39) #13
  call void @llvm.memset.p0i8.i64(i8* nonnull align 8 %39, i8 -86, i64 16, i1 false) #13
  call void @_ZNO8perfetto11TracedValue10WriteArrayEv(%"class.perfetto::TracedArray"* nonnull sret %8, %"class.perfetto::TracedValue"* nonnull %9) #13
  %40 = getelementptr inbounds %"class.media_router::mojom::RouteMessage", %"class.media_router::mojom::RouteMessage"* %0, i64 0, i32 2, i32 0, i32 0, i32 0, i32 1, i32 0, i32 0, i32 0
  %41 = load i8*, i8** %40, align 8
  %42 = getelementptr inbounds %"class.media_router::mojom::RouteMessage", %"class.media_router::mojom::RouteMessage"* %0, i64 0, i32 2, i32 0, i32 0, i32 0, i32 1, i32 0, i32 0, i32 1
  %43 = load i8*, i8** %42, align 8
  %44 = icmp eq i8* %41, %43
  br i1 %44, label %54, label %45

45:                                               ; preds = %37
  %46 = bitcast %"class.perfetto::TracedValue"* %7 to i8*
  %47 = bitcast %"class.perfetto::TracedValue"* %6 to i8*
  br label %48

48:                                               ; preds = %48, %45
  %49 = phi i8* [ %41, %45 ], [ %52, %48 ]
  call void @llvm.lifetime.start.p0i8(i64 16, i8* nonnull %46) #13
  call void @_ZN8perfetto11TracedArray10AppendItemEv(%"class.perfetto::TracedValue"* nonnull sret %7, %"class.perfetto::TracedArray"* nonnull %8) #13
  call void @llvm.lifetime.start.p0i8(i64 16, i8* nonnull %47) #13
  call void @llvm.memcpy.p0i8.p0i8.i64(i8* nonnull align 8 %47, i8* nonnull align 8 %46, i64 16, i1 false) #13
  %50 = load i8, i8* %49, align 1
  %51 = zext i8 %50 to i64
  call void @_ZNO8perfetto11TracedValue11WriteUInt64Em(%"class.perfetto::TracedValue"* nonnull %6, i64 %51) #13
  call void @llvm.lifetime.end.p0i8(i64 16, i8* nonnull %47) #13
  call void @llvm.lifetime.end.p0i8(i64 16, i8* nonnull %46) #13
  %52 = getelementptr inbounds i8, i8* %49, i64 1
  %53 = icmp eq i8* %52, %43
  br i1 %53, label %54, label %48

54:                                               ; preds = %48, %37
  call void @llvm.lifetime.end.p0i8(i64 16, i8* nonnull %39) #13
  call void @llvm.lifetime.end.p0i8(i64 16, i8* nonnull %38) #13
  br label %55

55:                                               ; preds = %54, %36
  call void @llvm.lifetime.end.p0i8(i64 16, i8* nonnull %32) #13
  call void @llvm.lifetime.end.p0i8(i64 16, i8* nonnull %15) #13
  ret void
}

; Function Attrs: nounwind ssp uwtable
define hidden zeroext i1 @_ZN12media_router5mojom12RouteMessage8ValidateEPKvPN4mojo8internal17ValidationContextE(i8*, %"class.mojo::internal::ValidationContext"*) local_unnamed_addr #0 align 2 {
  %3 = tail call zeroext i1 @_ZN12media_router5mojom8internal17RouteMessage_Data8ValidateEPKvPN4mojo8internal17ValidationContextE(i8* %0, %"class.mojo::internal::ValidationContext"* %1) #13
  ret i1 %3
}

declare zeroext i1 @_ZN12media_router5mojom8internal17RouteMessage_Data8ValidateEPKvPN4mojo8internal17ValidationContextE(i8*, %"class.mojo::internal::ValidationContext"*) local_unnamed_addr #2

; Function Attrs: nofree norecurse nounwind ssp uwtable writeonly
define hidden void @_ZN12media_router5mojom24MediaRouteProviderConfigC2Ev(%"class.media_router::mojom::MediaRouteProviderConfig"* nocapture) unnamed_addr #4 align 2 {
  %2 = getelementptr inbounds %"class.media_router::mojom::MediaRouteProviderConfig", %"class.media_router::mojom::MediaRouteProviderConfig"* %0, i64 0, i32 0
  call void @llvm.memset.p0i8.i64(i8* align 1 %2, i8 0, i64 5, i1 false)
  ret void
}

; Function Attrs: nofree norecurse nounwind ssp uwtable writeonly
define hidden void @_ZN12media_router5mojom24MediaRouteProviderConfigC2Ebbbbb(%"class.media_router::mojom::MediaRouteProviderConfig"* nocapture, i1 zeroext, i1 zeroext, i1 zeroext, i1 zeroext, i1 zeroext) unnamed_addr #4 align 2 {
  %7 = zext i1 %1 to i8
  %8 = zext i1 %2 to i8
  %9 = zext i1 %3 to i8
  %10 = zext i1 %4 to i8
  %11 = zext i1 %5 to i8
  %12 = getelementptr inbounds %"class.media_router::mojom::MediaRouteProviderConfig", %"class.media_router::mojom::MediaRouteProviderConfig"* %0, i64 0, i32 0
  store i8 %7, i8* %12, align 1
  %13 = getelementptr inbounds %"class.media_router::mojom::MediaRouteProviderConfig", %"class.media_router::mojom::MediaRouteProviderConfig"* %0, i64 0, i32 1
  store i8 %8, i8* %13, align 1
  %14 = getelementptr inbounds %"class.media_router::mojom::MediaRouteProviderConfig", %"class.media_router::mojom::MediaRouteProviderConfig"* %0, i64 0, i32 2
  store i8 %9, i8* %14, align 1
  %15 = getelementptr inbounds %"class.media_router::mojom::MediaRouteProviderConfig", %"class.media_router::mojom::MediaRouteProviderConfig"* %0, i64 0, i32 3
  store i8 %10, i8* %15, align 1
  %16 = getelementptr inbounds %"class.media_router::mojom::MediaRouteProviderConfig", %"class.media_router::mojom::MediaRouteProviderConfig"* %0, i64 0, i32 4
  store i8 %11, i8* %16, align 1
  ret void
}

; Function Attrs: norecurse nounwind readnone ssp uwtable
define hidden void @_ZN12media_router5mojom24MediaRouteProviderConfigD2Ev(%"class.media_router::mojom::MediaRouteProviderConfig"* nocapture) unnamed_addr #5 align 2 {
  ret void
}

; Function Attrs: norecurse nounwind readonly ssp uwtable
define hidden i64 @_ZNK12media_router5mojom24MediaRouteProviderConfig4HashEm(%"class.media_router::mojom::MediaRouteProviderConfig"* nocapture readonly, i64) local_unnamed_addr #6 align 2 {
  %3 = getelementptr inbounds %"class.media_router::mojom::MediaRouteProviderConfig", %"class.media_router::mojom::MediaRouteProviderConfig"* %0, i64 0, i32 0
  %4 = load i8, i8* %3, align 1, !range !2
  %5 = zext i8 %4 to i64
  %6 = shl i64 %1, 6
  %7 = or i64 %6, %5
  %8 = lshr i64 %1, 2
  %9 = add i64 %7, %8
  %10 = xor i64 %9, %1
  %11 = getelementptr inbounds %"class.media_router::mojom::MediaRouteProviderConfig", %"class.media_router::mojom::MediaRouteProviderConfig"* %0, i64 0, i32 1
  %12 = load i8, i8* %11, align 1, !range !2
  %13 = zext i8 %12 to i64
  %14 = shl i64 %10, 6
  %15 = or i64 %14, %13
  %16 = lshr i64 %10, 2
  %17 = add i64 %15, %16
  %18 = xor i64 %17, %10
  %19 = getelementptr inbounds %"class.media_router::mojom::MediaRouteProviderConfig", %"class.media_router::mojom::MediaRouteProviderConfig"* %0, i64 0, i32 2
  %20 = load i8, i8* %19, align 1, !range !2
  %21 = zext i8 %20 to i64
  %22 = shl i64 %18, 6
  %23 = or i64 %22, %21
  %24 = lshr i64 %18, 2
  %25 = add i64 %23, %24
  %26 = xor i64 %25, %18
  %27 = getelementptr inbounds %"class.media_router::mojom::MediaRouteProviderConfig", %"class.media_router::mojom::MediaRouteProviderConfig"* %0, i64 0, i32 3
  %28 = load i8, i8* %27, align 1, !range !2
  %29 = zext i8 %28 to i64
  %30 = shl i64 %26, 6
  %31 = or i64 %30, %29
  %32 = lshr i64 %26, 2
  %33 = add i64 %31, %32
  %34 = xor i64 %33, %26
  %35 = getelementptr inbounds %"class.media_router::mojom::MediaRouteProviderConfig", %"class.media_router::mojom::MediaRouteProviderConfig"* %0, i64 0, i32 4
  %36 = load i8, i8* %35, align 1, !range !2
  %37 = zext i8 %36 to i64
  %38 = shl i64 %34, 6
  %39 = or i64 %38, %37
  %40 = lshr i64 %34, 2
  %41 = add i64 %39, %40
  %42 = xor i64 %41, %34
  ret i64 %42
}

; Function Attrs: nounwind ssp uwtable
define hidden void @_ZNK12media_router5mojom24MediaRouteProviderConfig14WriteIntoTraceEN8perfetto11TracedValueE(%"class.media_router::mojom::MediaRouteProviderConfig"* nocapture readonly, %"class.perfetto::TracedValue"*) local_unnamed_addr #0 align 2 {
  %3 = alloca %"class.perfetto::TracedValue", align 8
  %4 = alloca %"class.perfetto::TracedValue", align 8
  %5 = alloca %"class.perfetto::TracedValue", align 8
  %6 = alloca %"class.perfetto::TracedValue", align 8
  %7 = alloca %"class.perfetto::TracedValue", align 8
  %8 = alloca %"class.perfetto::TracedDictionary", align 8
  %9 = alloca %"class.perfetto::TracedValue", align 8
  %10 = alloca %"class.perfetto::TracedValue", align 8
  %11 = alloca %"class.perfetto::TracedValue", align 8
  %12 = alloca %"class.perfetto::TracedValue", align 8
  %13 = alloca %"class.perfetto::TracedValue", align 8
  %14 = bitcast %"class.perfetto::TracedDictionary"* %8 to i8*
  call void @llvm.lifetime.start.p0i8(i64 16, i8* nonnull %14) #13
  %15 = bitcast %"class.perfetto::TracedDictionary"* %8 to i8*
  call void @llvm.memset.p0i8.i64(i8* nonnull align 8 %15, i8 -86, i64 16, i1 false)
  call void @_ZNO8perfetto11TracedValue15WriteDictionaryEv(%"class.perfetto::TracedDictionary"* nonnull sret %8, %"class.perfetto::TracedValue"* %1) #13
  call void @_ZN8perfetto16TracedDictionary7AddItemENS_12StaticStringE(%"class.perfetto::TracedValue"* nonnull sret %9, %"class.perfetto::TracedDictionary"* nonnull %8, i8* getelementptr inbounds ([22 x i8], [22 x i8]* @.str.35, i64 0, i64 0)) #13
  %16 = getelementptr inbounds %"class.media_router::mojom::MediaRouteProviderConfig", %"class.media_router::mojom::MediaRouteProviderConfig"* %0, i64 0, i32 0
  %17 = bitcast %"class.perfetto::TracedValue"* %9 to i8*
  %18 = bitcast %"class.perfetto::TracedValue"* %6 to i8*
  call void @llvm.lifetime.start.p0i8(i64 16, i8* nonnull %18) #13
  call void @llvm.memcpy.p0i8.p0i8.i64(i8* nonnull align 8 %18, i8* nonnull align 8 %17, i64 16, i1 false) #13
  %19 = load i8, i8* %16, align 1, !range !2
  %20 = icmp ne i8 %19, 0
  call void @_ZNO8perfetto11TracedValue12WriteBooleanEb(%"class.perfetto::TracedValue"* nonnull %6, i1 zeroext %20) #13
  call void @llvm.lifetime.end.p0i8(i64 16, i8* nonnull %18) #13
  call void @_ZN8perfetto16TracedDictionary7AddItemENS_12StaticStringE(%"class.perfetto::TracedValue"* nonnull sret %10, %"class.perfetto::TracedDictionary"* nonnull %8, i8* getelementptr inbounds ([22 x i8], [22 x i8]* @.str.36, i64 0, i64 0)) #13
  %21 = getelementptr inbounds %"class.media_router::mojom::MediaRouteProviderConfig", %"class.media_router::mojom::MediaRouteProviderConfig"* %0, i64 0, i32 1
  %22 = bitcast %"class.perfetto::TracedValue"* %10 to i8*
  %23 = bitcast %"class.perfetto::TracedValue"* %5 to i8*
  call void @llvm.lifetime.start.p0i8(i64 16, i8* nonnull %23) #13
  call void @llvm.memcpy.p0i8.p0i8.i64(i8* nonnull align 8 %23, i8* nonnull align 8 %22, i64 16, i1 false) #13
  %24 = load i8, i8* %21, align 1, !range !2
  %25 = icmp ne i8 %24, 0
  call void @_ZNO8perfetto11TracedValue12WriteBooleanEb(%"class.perfetto::TracedValue"* nonnull %5, i1 zeroext %25) #13
  call void @llvm.lifetime.end.p0i8(i64 16, i8* nonnull %23) #13
  call void @_ZN8perfetto16TracedDictionary7AddItemENS_12StaticStringE(%"class.perfetto::TracedValue"* nonnull sret %11, %"class.perfetto::TracedDictionary"* nonnull %8, i8* getelementptr inbounds ([23 x i8], [23 x i8]* @.str.37, i64 0, i64 0)) #13
  %26 = getelementptr inbounds %"class.media_router::mojom::MediaRouteProviderConfig", %"class.media_router::mojom::MediaRouteProviderConfig"* %0, i64 0, i32 2
  %27 = bitcast %"class.perfetto::TracedValue"* %11 to i8*
  %28 = bitcast %"class.perfetto::TracedValue"* %4 to i8*
  call void @llvm.lifetime.start.p0i8(i64 16, i8* nonnull %28) #13
  call void @llvm.memcpy.p0i8.p0i8.i64(i8* nonnull align 8 %28, i8* nonnull align 8 %27, i64 16, i1 false) #13
  %29 = load i8, i8* %26, align 1, !range !2
  %30 = icmp ne i8 %29, 0
  call void @_ZNO8perfetto11TracedValue12WriteBooleanEb(%"class.perfetto::TracedValue"* nonnull %4, i1 zeroext %30) #13
  call void @llvm.lifetime.end.p0i8(i64 16, i8* nonnull %28) #13
  call void @_ZN8perfetto16TracedDictionary7AddItemENS_12StaticStringE(%"class.perfetto::TracedValue"* nonnull sret %12, %"class.perfetto::TracedDictionary"* nonnull %8, i8* getelementptr inbounds ([23 x i8], [23 x i8]* @.str.38, i64 0, i64 0)) #13
  %31 = getelementptr inbounds %"class.media_router::mojom::MediaRouteProviderConfig", %"class.media_router::mojom::MediaRouteProviderConfig"* %0, i64 0, i32 3
  %32 = bitcast %"class.perfetto::TracedValue"* %12 to i8*
  %33 = bitcast %"class.perfetto::TracedValue"* %3 to i8*
  call void @llvm.lifetime.start.p0i8(i64 16, i8* nonnull %33) #13
  call void @llvm.memcpy.p0i8.p0i8.i64(i8* nonnull align 8 %33, i8* nonnull align 8 %32, i64 16, i1 false) #13
  %34 = load i8, i8* %31, align 1, !range !2
  %35 = icmp ne i8 %34, 0
  call void @_ZNO8perfetto11TracedValue12WriteBooleanEb(%"class.perfetto::TracedValue"* nonnull %3, i1 zeroext %35) #13
  call void @llvm.lifetime.end.p0i8(i64 16, i8* nonnull %33) #13
  call void @_ZN8perfetto16TracedDictionary7AddItemENS_12StaticStringE(%"class.perfetto::TracedValue"* nonnull sret %13, %"class.perfetto::TracedDictionary"* nonnull %8, i8* getelementptr inbounds ([22 x i8], [22 x i8]* @.str.39, i64 0, i64 0)) #13
  %36 = getelementptr inbounds %"class.media_router::mojom::MediaRouteProviderConfig", %"class.media_router::mojom::MediaRouteProviderConfig"* %0, i64 0, i32 4
  %37 = bitcast %"class.perfetto::TracedValue"* %13 to i8*
  %38 = bitcast %"class.perfetto::TracedValue"* %7 to i8*
  call void @llvm.lifetime.start.p0i8(i64 16, i8* nonnull %38) #13
  call void @llvm.memcpy.p0i8.p0i8.i64(i8* nonnull align 8 %38, i8* nonnull align 8 %37, i64 16, i1 false) #13
  %39 = load i8, i8* %36, align 1, !range !2
  %40 = icmp ne i8 %39, 0
  call void @_ZNO8perfetto11TracedValue12WriteBooleanEb(%"class.perfetto::TracedValue"* nonnull %7, i1 zeroext %40) #13
  call void @llvm.lifetime.end.p0i8(i64 16, i8* nonnull %38) #13
  call void @llvm.lifetime.end.p0i8(i64 16, i8* nonnull %14) #13
  ret void
}

; Function Attrs: nounwind ssp uwtable
define hidden zeroext i1 @_ZN12media_router5mojom24MediaRouteProviderConfig8ValidateEPKvPN4mojo8internal17ValidationContextE(i8*, %"class.mojo::internal::ValidationContext"*) local_unnamed_addr #0 align 2 {
  %3 = tail call zeroext i1 @_ZN12media_router5mojom8internal29MediaRouteProviderConfig_Data8ValidateEPKvPN4mojo8internal17ValidationContextE(i8* %0, %"class.mojo::internal::ValidationContext"* %1) #13
  ret i1 %3
}

declare zeroext i1 @_ZN12media_router5mojom8internal29MediaRouteProviderConfig_Data8ValidateEPKvPN4mojo8internal17ValidationContextE(i8*, %"class.mojo::internal::ValidationContext"*) local_unnamed_addr #2

; Function Attrs: nounwind ssp uwtable
define hidden void @_ZN12media_router5mojom27RoutePresentationConnectionC2Ev(%"class.media_router::mojom::RoutePresentationConnection"*) unnamed_addr #0 align 2 {
  %2 = bitcast %"class.media_router::mojom::RoutePresentationConnection"* %0 to i64*
  store i64 0, i64* %2, align 8
  %3 = getelementptr inbounds %"class.media_router::mojom::RoutePresentationConnection", %"class.media_router::mojom::RoutePresentationConnection"* %0, i64 0, i32 0, i32 0
  tail call void @_ZN4mojo8internal18PendingRemoteStateC1Ev(%"struct.mojo::internal::PendingRemoteState"* %3) #13
  %4 = getelementptr inbounds %"class.media_router::mojom::RoutePresentationConnection", %"class.media_router::mojom::RoutePresentationConnection"* %0, i64 0, i32 1
  %5 = bitcast %"class.mojo::PendingReceiver"* %4 to i8*
  tail call void @llvm.memset.p0i8.i64(i8* align 8 %5, i8 0, i64 24, i1 false)
  %6 = getelementptr inbounds %"class.mojo::PendingReceiver", %"class.mojo::PendingReceiver"* %4, i64 0, i32 0
  tail call void @_ZN4mojo8internal20PendingReceiverStateC1Ev(%"struct.mojo::internal::PendingReceiverState"* %6) #13
  ret void
}

; Function Attrs: nounwind ssp uwtable
define hidden void @_ZN12media_router5mojom27RoutePresentationConnectionC2EN4mojo13PendingRemoteIN5blink5mojom22PresentationConnectionEEENS2_15PendingReceiverIS6_EE(%"class.media_router::mojom::RoutePresentationConnection"*, %"class.mojo::PendingRemote"*, %"class.mojo::PendingReceiver"*) unnamed_addr #0 align 2 {
  %4 = getelementptr inbounds %"class.media_router::mojom::RoutePresentationConnection", %"class.media_router::mojom::RoutePresentationConnection"* %0, i64 0, i32 0, i32 0
  %5 = getelementptr inbounds %"class.mojo::PendingRemote", %"class.mojo::PendingRemote"* %1, i64 0, i32 0
  tail call void @_ZN4mojo8internal18PendingRemoteStateC1EOS1_(%"struct.mojo::internal::PendingRemoteState"* %4, %"struct.mojo::internal::PendingRemoteState"* dereferenceable(8) %5) #13
  %6 = getelementptr inbounds %"class.media_router::mojom::RoutePresentationConnection", %"class.media_router::mojom::RoutePresentationConnection"* %0, i64 0, i32 1, i32 0
  %7 = getelementptr inbounds %"class.mojo::PendingReceiver", %"class.mojo::PendingReceiver"* %2, i64 0, i32 0
  tail call void @_ZN4mojo8internal20PendingReceiverStateC1EOS1_(%"struct.mojo::internal::PendingReceiverState"* %6, %"struct.mojo::internal::PendingReceiverState"* dereferenceable(24) %7) #13
  ret void
}

; Function Attrs: nounwind ssp uwtable
define hidden void @_ZN12media_router5mojom27RoutePresentationConnectionD2Ev(%"class.media_router::mojom::RoutePresentationConnection"*) unnamed_addr #0 align 2 {
  %2 = getelementptr inbounds %"class.media_router::mojom::RoutePresentationConnection", %"class.media_router::mojom::RoutePresentationConnection"* %0, i64 0, i32 1, i32 0
  tail call void @_ZN4mojo8internal20PendingReceiverStateD1Ev(%"struct.mojo::internal::PendingReceiverState"* %2) #13
  %3 = getelementptr inbounds %"class.media_router::mojom::RoutePresentationConnection", %"class.media_router::mojom::RoutePresentationConnection"* %0, i64 0, i32 0, i32 0
  tail call void @_ZN4mojo8internal18PendingRemoteStateD1Ev(%"struct.mojo::internal::PendingRemoteState"* %3) #13
  ret void
}

; Function Attrs: nounwind ssp uwtable
define hidden void @_ZNK12media_router5mojom27RoutePresentationConnection14WriteIntoTraceEN8perfetto11TracedValueE(%"class.media_router::mojom::RoutePresentationConnection"* nocapture readnone, %"class.perfetto::TracedValue"*) local_unnamed_addr #0 align 2 {
  %3 = alloca %"class.perfetto::TracedDictionary", align 8
  %4 = alloca %"class.perfetto::TracedValue", align 8
  %5 = alloca %"class.std::__1::basic_string", align 8
  %6 = alloca %"class.perfetto::TracedValue", align 8
  %7 = alloca %"class.std::__1::basic_string", align 8
  %8 = bitcast %"class.perfetto::TracedDictionary"* %3 to i8*
  call void @llvm.lifetime.start.p0i8(i64 16, i8* nonnull %8) #13
  %9 = bitcast %"class.perfetto::TracedDictionary"* %3 to i8*
  call void @llvm.memset.p0i8.i64(i8* nonnull align 8 %9, i8 -86, i64 16, i1 false)
  call void @_ZNO8perfetto11TracedValue15WriteDictionaryEv(%"class.perfetto::TracedDictionary"* nonnull sret %3, %"class.perfetto::TracedValue"* %1) #13
  call void @_ZN8perfetto16TracedDictionary7AddItemENS_12StaticStringE(%"class.perfetto::TracedValue"* nonnull sret %4, %"class.perfetto::TracedDictionary"* nonnull %3, i8* getelementptr inbounds ([18 x i8], [18 x i8]* @.str.40, i64 0, i64 0)) #13
  %10 = bitcast %"class.std::__1::basic_string"* %5 to i8*
  call void @llvm.lifetime.start.p0i8(i64 24, i8* nonnull %10) #13
  %11 = bitcast %"class.std::__1::basic_string"* %5 to %"struct.std::__1::basic_string<char, std::__1::char_traits<char>, std::__1::allocator<char> >::__short"*
  %12 = getelementptr inbounds %"struct.std::__1::basic_string<char, std::__1::char_traits<char>, std::__1::allocator<char> >::__short", %"struct.std::__1::basic_string<char, std::__1::char_traits<char>, std::__1::allocator<char> >::__short"* %11, i64 0, i32 1, i32 0
  store i8 7, i8* %12, align 1
  call void @llvm.memcpy.p0i8.p0i8.i64(i8* nonnull align 8 %10, i8* align 1 getelementptr inbounds ([8 x i8], [8 x i8]* @.str.1, i64 0, i64 0), i64 7, i1 false) #13
  %13 = getelementptr inbounds i8, i8* %10, i64 7
  store i8 0, i8* %13, align 1
  call void @_ZNO8perfetto11TracedValue11WriteStringERKNSt3__112basic_stringIcNS1_11char_traitsIcEENS1_9allocatorIcEEEE(%"class.perfetto::TracedValue"* nonnull %4, %"class.std::__1::basic_string"* nonnull dereferenceable(24) %5) #13
  %14 = load i8, i8* %12, align 1
  %15 = icmp slt i8 %14, 0
  br i1 %15, label %16, label %19

16:                                               ; preds = %2
  %17 = getelementptr inbounds %"class.std::__1::basic_string", %"class.std::__1::basic_string"* %5, i64 0, i32 0, i32 0, i32 0, i32 0, i32 0, i32 0
  %18 = load i8*, i8** %17, align 8
  call void @_ZdlPv(i8* %18) #14
  br label %19

19:                                               ; preds = %2, %16
  call void @llvm.lifetime.end.p0i8(i64 24, i8* nonnull %10) #13
  call void @_ZN8perfetto16TracedDictionary7AddItemENS_12StaticStringE(%"class.perfetto::TracedValue"* nonnull sret %6, %"class.perfetto::TracedDictionary"* nonnull %3, i8* getelementptr inbounds ([20 x i8], [20 x i8]* @.str.41, i64 0, i64 0)) #13
  %20 = bitcast %"class.std::__1::basic_string"* %7 to i8*
  call void @llvm.lifetime.start.p0i8(i64 24, i8* nonnull %20) #13
  %21 = bitcast %"class.std::__1::basic_string"* %7 to %"struct.std::__1::basic_string<char, std::__1::char_traits<char>, std::__1::allocator<char> >::__short"*
  %22 = getelementptr inbounds %"struct.std::__1::basic_string<char, std::__1::char_traits<char>, std::__1::allocator<char> >::__short", %"struct.std::__1::basic_string<char, std::__1::char_traits<char>, std::__1::allocator<char> >::__short"* %21, i64 0, i32 1, i32 0
  store i8 7, i8* %22, align 1
  call void @llvm.memcpy.p0i8.p0i8.i64(i8* nonnull align 8 %20, i8* align 1 getelementptr inbounds ([8 x i8], [8 x i8]* @.str.1, i64 0, i64 0), i64 7, i1 false) #13
  %23 = getelementptr inbounds i8, i8* %20, i64 7
  store i8 0, i8* %23, align 1
  call void @_ZNO8perfetto11TracedValue11WriteStringERKNSt3__112basic_stringIcNS1_11char_traitsIcEENS1_9allocatorIcEEEE(%"class.perfetto::TracedValue"* nonnull %6, %"class.std::__1::basic_string"* nonnull dereferenceable(24) %7) #13
  %24 = load i8, i8* %22, align 1
  %25 = icmp slt i8 %24, 0
  br i1 %25, label %26, label %29

26:                                               ; preds = %19
  %27 = getelementptr inbounds %"class.std::__1::basic_string", %"class.std::__1::basic_string"* %7, i64 0, i32 0, i32 0, i32 0, i32 0, i32 0, i32 0
  %28 = load i8*, i8** %27, align 8
  call void @_ZdlPv(i8* %28) #14
  br label %29

29:                                               ; preds = %19, %26
  call void @llvm.lifetime.end.p0i8(i64 24, i8* nonnull %20) #13
  call void @llvm.lifetime.end.p0i8(i64 16, i8* nonnull %8) #13
  ret void
}

; Function Attrs: nounwind ssp uwtable
define hidden zeroext i1 @_ZN12media_router5mojom27RoutePresentationConnection8ValidateEPKvPN4mojo8internal17ValidationContextE(i8*, %"class.mojo::internal::ValidationContext"*) local_unnamed_addr #0 align 2 {
  %3 = tail call zeroext i1 @_ZN12media_router5mojom8internal32RoutePresentationConnection_Data8ValidateEPKvPN4mojo8internal17ValidationContextE(i8* %0, %"class.mojo::internal::ValidationContext"* %1) #13
  ret i1 %3
}

declare zeroext i1 @_ZN12media_router5mojom8internal32RoutePresentationConnection_Data8ValidateEPKvPN4mojo8internal17ValidationContextE(i8*, %"class.mojo::internal::ValidationContext"*) local_unnamed_addr #2

; Function Attrs: nounwind ssp uwtable
define hidden void @_ZN12media_router5mojom16CastSessionStateC2Ev(%"class.media_router::mojom::CastSessionState"* nocapture) unnamed_addr #0 align 2 {
  %2 = bitcast %"class.media_router::mojom::CastSessionState"* %0 to i8*
  call void @llvm.memset.p0i8.i64(i8* align 8 %2, i8 0, i64 96, i1 false)
  ret void
}

; Function Attrs: nounwind ssp uwtable
define hidden void @_ZN12media_router5mojom16CastSessionStateC2ERKNSt3__112basic_stringIcNS2_11char_traitsIcEENS2_9allocatorIcEEEESA_SA_SA_(%"class.media_router::mojom::CastSessionState"*, %"class.std::__1::basic_string"* nocapture readonly dereferenceable(24), %"class.std::__1::basic_string"* nocapture readonly dereferenceable(24), %"class.std::__1::basic_string"* nocapture readonly dereferenceable(24), %"class.std::__1::basic_string"* nocapture readonly dereferenceable(24)) unnamed_addr #0 align 2 {
  %6 = bitcast %"class.std::__1::basic_string"* %1 to %"struct.std::__1::basic_string<char, std::__1::char_traits<char>, std::__1::allocator<char> >::__short"*
  %7 = getelementptr inbounds %"struct.std::__1::basic_string<char, std::__1::char_traits<char>, std::__1::allocator<char> >::__short", %"struct.std::__1::basic_string<char, std::__1::char_traits<char>, std::__1::allocator<char> >::__short"* %6, i64 0, i32 1, i32 0
  %8 = load i8, i8* %7, align 1
  %9 = icmp slt i8 %8, 0
  br i1 %9, label %13, label %10

10:                                               ; preds = %5
  %11 = bitcast %"class.media_router::mojom::CastSessionState"* %0 to i8*
  %12 = bitcast %"class.std::__1::basic_string"* %1 to i8*
  tail call void @llvm.memcpy.p0i8.p0i8.i64(i8* align 8 %11, i8* align 8 %12, i64 24, i1 false) #13
  br label %19

13:                                               ; preds = %5
  %14 = getelementptr inbounds %"class.media_router::mojom::CastSessionState", %"class.media_router::mojom::CastSessionState"* %0, i64 0, i32 0
  %15 = getelementptr inbounds %"class.std::__1::basic_string", %"class.std::__1::basic_string"* %1, i64 0, i32 0, i32 0, i32 0, i32 0, i32 0, i32 0
  %16 = load i8*, i8** %15, align 8
  %17 = getelementptr inbounds %"class.std::__1::basic_string", %"class.std::__1::basic_string"* %1, i64 0, i32 0, i32 0, i32 0, i32 0, i32 0, i32 1
  %18 = load i64, i64* %17, align 8
  tail call void @_ZNSt3__112basic_stringIcNS_11char_traitsIcEENS_9allocatorIcEEE25__init_copy_ctor_externalEPKcm(%"class.std::__1::basic_string"* %14, i8* %16, i64 %18) #13
  br label %19

19:                                               ; preds = %10, %13
  %20 = getelementptr inbounds %"class.media_router::mojom::CastSessionState", %"class.media_router::mojom::CastSessionState"* %0, i64 0, i32 1
  %21 = bitcast %"class.std::__1::basic_string"* %2 to %"struct.std::__1::basic_string<char, std::__1::char_traits<char>, std::__1::allocator<char> >::__short"*
  %22 = getelementptr inbounds %"struct.std::__1::basic_string<char, std::__1::char_traits<char>, std::__1::allocator<char> >::__short", %"struct.std::__1::basic_string<char, std::__1::char_traits<char>, std::__1::allocator<char> >::__short"* %21, i64 0, i32 1, i32 0
  %23 = load i8, i8* %22, align 1
  %24 = icmp slt i8 %23, 0
  br i1 %24, label %28, label %25

25:                                               ; preds = %19
  %26 = bitcast %"class.std::__1::basic_string"* %20 to i8*
  %27 = bitcast %"class.std::__1::basic_string"* %2 to i8*
  tail call void @llvm.memcpy.p0i8.p0i8.i64(i8* align 8 %26, i8* align 8 %27, i64 24, i1 false) #13
  br label %33

28:                                               ; preds = %19
  %29 = getelementptr inbounds %"class.std::__1::basic_string", %"class.std::__1::basic_string"* %2, i64 0, i32 0, i32 0, i32 0, i32 0, i32 0, i32 0
  %30 = load i8*, i8** %29, align 8
  %31 = getelementptr inbounds %"class.std::__1::basic_string", %"class.std::__1::basic_string"* %2, i64 0, i32 0, i32 0, i32 0, i32 0, i32 0, i32 1
  %32 = load i64, i64* %31, align 8
  tail call void @_ZNSt3__112basic_stringIcNS_11char_traitsIcEENS_9allocatorIcEEE25__init_copy_ctor_externalEPKcm(%"class.std::__1::basic_string"* %20, i8* %30, i64 %32) #13
  br label %33

33:                                               ; preds = %25, %28
  %34 = getelementptr inbounds %"class.media_router::mojom::CastSessionState", %"class.media_router::mojom::CastSessionState"* %0, i64 0, i32 2
  %35 = bitcast %"class.std::__1::basic_string"* %3 to %"struct.std::__1::basic_string<char, std::__1::char_traits<char>, std::__1::allocator<char> >::__short"*
  %36 = getelementptr inbounds %"struct.std::__1::basic_string<char, std::__1::char_traits<char>, std::__1::allocator<char> >::__short", %"struct.std::__1::basic_string<char, std::__1::char_traits<char>, std::__1::allocator<char> >::__short"* %35, i64 0, i32 1, i32 0
  %37 = load i8, i8* %36, align 1
  %38 = icmp slt i8 %37, 0
  br i1 %38, label %42, label %39

39:                                               ; preds = %33
  %40 = bitcast %"class.std::__1::basic_string"* %34 to i8*
  %41 = bitcast %"class.std::__1::basic_string"* %3 to i8*
  tail call void @llvm.memcpy.p0i8.p0i8.i64(i8* align 8 %40, i8* align 8 %41, i64 24, i1 false) #13
  br label %47

42:                                               ; preds = %33
  %43 = getelementptr inbounds %"class.std::__1::basic_string", %"class.std::__1::basic_string"* %3, i64 0, i32 0, i32 0, i32 0, i32 0, i32 0, i32 0
  %44 = load i8*, i8** %43, align 8
  %45 = getelementptr inbounds %"class.std::__1::basic_string", %"class.std::__1::basic_string"* %3, i64 0, i32 0, i32 0, i32 0, i32 0, i32 0, i32 1
  %46 = load i64, i64* %45, align 8
  tail call void @_ZNSt3__112basic_stringIcNS_11char_traitsIcEENS_9allocatorIcEEE25__init_copy_ctor_externalEPKcm(%"class.std::__1::basic_string"* %34, i8* %44, i64 %46) #13
  br label %47

47:                                               ; preds = %39, %42
  %48 = getelementptr inbounds %"class.media_router::mojom::CastSessionState", %"class.media_router::mojom::CastSessionState"* %0, i64 0, i32 3
  %49 = bitcast %"class.std::__1::basic_string"* %4 to %"struct.std::__1::basic_string<char, std::__1::char_traits<char>, std::__1::allocator<char> >::__short"*
  %50 = getelementptr inbounds %"struct.std::__1::basic_string<char, std::__1::char_traits<char>, std::__1::allocator<char> >::__short", %"struct.std::__1::basic_string<char, std::__1::char_traits<char>, std::__1::allocator<char> >::__short"* %49, i64 0, i32 1, i32 0
  %51 = load i8, i8* %50, align 1
  %52 = icmp slt i8 %51, 0
  br i1 %52, label %56, label %53

53:                                               ; preds = %47
  %54 = bitcast %"class.std::__1::basic_string"* %48 to i8*
  %55 = bitcast %"class.std::__1::basic_string"* %4 to i8*
  tail call void @llvm.memcpy.p0i8.p0i8.i64(i8* align 8 %54, i8* align 8 %55, i64 24, i1 false) #13
  br label %61

56:                                               ; preds = %47
  %57 = getelementptr inbounds %"class.std::__1::basic_string", %"class.std::__1::basic_string"* %4, i64 0, i32 0, i32 0, i32 0, i32 0, i32 0, i32 0
  %58 = load i8*, i8** %57, align 8
  %59 = getelementptr inbounds %"class.std::__1::basic_string", %"class.std::__1::basic_string"* %4, i64 0, i32 0, i32 0, i32 0, i32 0, i32 0, i32 1
  %60 = load i64, i64* %59, align 8
  tail call void @_ZNSt3__112basic_stringIcNS_11char_traitsIcEENS_9allocatorIcEEE25__init_copy_ctor_externalEPKcm(%"class.std::__1::basic_string"* %48, i8* %58, i64 %60) #13
  br label %61

61:                                               ; preds = %53, %56
  ret void
}

; Function Attrs: nounwind ssp uwtable
define hidden void @_ZN12media_router5mojom16CastSessionStateD2Ev(%"class.media_router::mojom::CastSessionState"* nocapture readonly) unnamed_addr #0 align 2 {
  %2 = getelementptr inbounds %"class.media_router::mojom::CastSessionState", %"class.media_router::mojom::CastSessionState"* %0, i64 0, i32 3
  %3 = bitcast %"class.std::__1::basic_string"* %2 to %"struct.std::__1::basic_string<char, std::__1::char_traits<char>, std::__1::allocator<char> >::__short"*
  %4 = getelementptr inbounds %"struct.std::__1::basic_string<char, std::__1::char_traits<char>, std::__1::allocator<char> >::__short", %"struct.std::__1::basic_string<char, std::__1::char_traits<char>, std::__1::allocator<char> >::__short"* %3, i64 0, i32 1, i32 0
  %5 = load i8, i8* %4, align 1
  %6 = icmp slt i8 %5, 0
  br i1 %6, label %7, label %10

7:                                                ; preds = %1
  %8 = getelementptr inbounds %"class.std::__1::basic_string", %"class.std::__1::basic_string"* %2, i64 0, i32 0, i32 0, i32 0, i32 0, i32 0, i32 0
  %9 = load i8*, i8** %8, align 8
  tail call void @_ZdlPv(i8* %9) #14
  br label %10

10:                                               ; preds = %1, %7
  %11 = getelementptr inbounds %"class.media_router::mojom::CastSessionState", %"class.media_router::mojom::CastSessionState"* %0, i64 0, i32 2
  %12 = bitcast %"class.std::__1::basic_string"* %11 to %"struct.std::__1::basic_string<char, std::__1::char_traits<char>, std::__1::allocator<char> >::__short"*
  %13 = getelementptr inbounds %"struct.std::__1::basic_string<char, std::__1::char_traits<char>, std::__1::allocator<char> >::__short", %"struct.std::__1::basic_string<char, std::__1::char_traits<char>, std::__1::allocator<char> >::__short"* %12, i64 0, i32 1, i32 0
  %14 = load i8, i8* %13, align 1
  %15 = icmp slt i8 %14, 0
  br i1 %15, label %16, label %19

16:                                               ; preds = %10
  %17 = getelementptr inbounds %"class.std::__1::basic_string", %"class.std::__1::basic_string"* %11, i64 0, i32 0, i32 0, i32 0, i32 0, i32 0, i32 0
  %18 = load i8*, i8** %17, align 8
  tail call void @_ZdlPv(i8* %18) #14
  br label %19

19:                                               ; preds = %10, %16
  %20 = getelementptr inbounds %"class.media_router::mojom::CastSessionState", %"class.media_router::mojom::CastSessionState"* %0, i64 0, i32 1
  %21 = bitcast %"class.std::__1::basic_string"* %20 to %"struct.std::__1::basic_string<char, std::__1::char_traits<char>, std::__1::allocator<char> >::__short"*
  %22 = getelementptr inbounds %"struct.std::__1::basic_string<char, std::__1::char_traits<char>, std::__1::allocator<char> >::__short", %"struct.std::__1::basic_string<char, std::__1::char_traits<char>, std::__1::allocator<char> >::__short"* %21, i64 0, i32 1, i32 0
  %23 = load i8, i8* %22, align 1
  %24 = icmp slt i8 %23, 0
  br i1 %24, label %25, label %28

25:                                               ; preds = %19
  %26 = getelementptr inbounds %"class.std::__1::basic_string", %"class.std::__1::basic_string"* %20, i64 0, i32 0, i32 0, i32 0, i32 0, i32 0, i32 0
  %27 = load i8*, i8** %26, align 8
  tail call void @_ZdlPv(i8* %27) #14
  br label %28

28:                                               ; preds = %19, %25
  %29 = bitcast %"class.media_router::mojom::CastSessionState"* %0 to %"struct.std::__1::basic_string<char, std::__1::char_traits<char>, std::__1::allocator<char> >::__short"*
  %30 = getelementptr inbounds %"struct.std::__1::basic_string<char, std::__1::char_traits<char>, std::__1::allocator<char> >::__short", %"struct.std::__1::basic_string<char, std::__1::char_traits<char>, std::__1::allocator<char> >::__short"* %29, i64 0, i32 1, i32 0
  %31 = load i8, i8* %30, align 1
  %32 = icmp slt i8 %31, 0
  br i1 %32, label %33, label %36

33:                                               ; preds = %28
  %34 = getelementptr inbounds %"class.media_router::mojom::CastSessionState", %"class.media_router::mojom::CastSessionState"* %0, i64 0, i32 0, i32 0, i32 0, i32 0, i32 0, i32 0, i32 0
  %35 = load i8*, i8** %34, align 8
  tail call void @_ZdlPv(i8* %35) #14
  br label %36

36:                                               ; preds = %28, %33
  ret void
}

; Function Attrs: nounwind ssp uwtable
define hidden i64 @_ZNK12media_router5mojom16CastSessionState4HashEm(%"class.media_router::mojom::CastSessionState"*, i64) local_unnamed_addr #0 align 2 {
  %3 = alloca %"struct.std::__1::__murmur2_or_cityhash", align 1
  %4 = alloca %"struct.std::__1::__murmur2_or_cityhash", align 1
  %5 = alloca %"struct.std::__1::__murmur2_or_cityhash", align 1
  %6 = alloca %"struct.std::__1::__murmur2_or_cityhash", align 1
  %7 = bitcast %"class.media_router::mojom::CastSessionState"* %0 to %"struct.std::__1::basic_string<char, std::__1::char_traits<char>, std::__1::allocator<char> >::__short"*
  %8 = getelementptr inbounds %"struct.std::__1::basic_string<char, std::__1::char_traits<char>, std::__1::allocator<char> >::__short", %"struct.std::__1::basic_string<char, std::__1::char_traits<char>, std::__1::allocator<char> >::__short"* %7, i64 0, i32 1, i32 0
  %9 = load i8, i8* %8, align 1
  %10 = icmp slt i8 %9, 0
  %11 = getelementptr inbounds %"class.media_router::mojom::CastSessionState", %"class.media_router::mojom::CastSessionState"* %0, i64 0, i32 0, i32 0, i32 0, i32 0, i32 0, i32 0, i32 0
  %12 = load i8*, i8** %11, align 8
  %13 = getelementptr inbounds %"class.media_router::mojom::CastSessionState", %"class.media_router::mojom::CastSessionState"* %0, i64 0, i32 0, i32 0, i32 0, i32 0, i32 0, i32 0, i32 1
  %14 = load i64, i64* %13, align 8
  %15 = bitcast %"class.media_router::mojom::CastSessionState"* %0 to i8*
  %16 = zext i8 %9 to i64
  %17 = select i1 %10, i8* %12, i8* %15
  %18 = select i1 %10, i64 %14, i64 %16
  %19 = getelementptr inbounds %"struct.std::__1::__murmur2_or_cityhash", %"struct.std::__1::__murmur2_or_cityhash"* %6, i64 0, i32 0
  call void @llvm.lifetime.start.p0i8(i64 1, i8* nonnull %19) #13
  %20 = call i64 @_ZNSt3__121__murmur2_or_cityhashImLm64EEclEPKvm(%"struct.std::__1::__murmur2_or_cityhash"* nonnull %6, i8* %17, i64 %18) #13
  call void @llvm.lifetime.end.p0i8(i64 1, i8* nonnull %19) #13
  %21 = shl i64 %1, 6
  %22 = lshr i64 %1, 2
  %23 = add i64 %22, %21
  %24 = add i64 %23, %20
  %25 = xor i64 %24, %1
  %26 = getelementptr inbounds %"class.media_router::mojom::CastSessionState", %"class.media_router::mojom::CastSessionState"* %0, i64 0, i32 1
  %27 = bitcast %"class.std::__1::basic_string"* %26 to %"struct.std::__1::basic_string<char, std::__1::char_traits<char>, std::__1::allocator<char> >::__short"*
  %28 = getelementptr inbounds %"struct.std::__1::basic_string<char, std::__1::char_traits<char>, std::__1::allocator<char> >::__short", %"struct.std::__1::basic_string<char, std::__1::char_traits<char>, std::__1::allocator<char> >::__short"* %27, i64 0, i32 1, i32 0
  %29 = load i8, i8* %28, align 1
  %30 = icmp slt i8 %29, 0
  %31 = getelementptr inbounds %"class.std::__1::basic_string", %"class.std::__1::basic_string"* %26, i64 0, i32 0, i32 0, i32 0, i32 0, i32 0, i32 0
  %32 = load i8*, i8** %31, align 8
  %33 = getelementptr inbounds %"class.media_router::mojom::CastSessionState", %"class.media_router::mojom::CastSessionState"* %0, i64 0, i32 1, i32 0, i32 0, i32 0, i32 0, i32 0, i32 1
  %34 = load i64, i64* %33, align 8
  %35 = bitcast %"class.std::__1::basic_string"* %26 to i8*
  %36 = zext i8 %29 to i64
  %37 = select i1 %30, i8* %32, i8* %35
  %38 = select i1 %30, i64 %34, i64 %36
  %39 = getelementptr inbounds %"struct.std::__1::__murmur2_or_cityhash", %"struct.std::__1::__murmur2_or_cityhash"* %5, i64 0, i32 0
  call void @llvm.lifetime.start.p0i8(i64 1, i8* nonnull %39) #13
  %40 = call i64 @_ZNSt3__121__murmur2_or_cityhashImLm64EEclEPKvm(%"struct.std::__1::__murmur2_or_cityhash"* nonnull %5, i8* %37, i64 %38) #13
  call void @llvm.lifetime.end.p0i8(i64 1, i8* nonnull %39) #13
  %41 = shl i64 %25, 6
  %42 = lshr i64 %25, 2
  %43 = add i64 %42, %41
  %44 = add i64 %43, %40
  %45 = xor i64 %44, %25
  %46 = getelementptr inbounds %"class.media_router::mojom::CastSessionState", %"class.media_router::mojom::CastSessionState"* %0, i64 0, i32 2
  %47 = bitcast %"class.std::__1::basic_string"* %46 to %"struct.std::__1::basic_string<char, std::__1::char_traits<char>, std::__1::allocator<char> >::__short"*
  %48 = getelementptr inbounds %"struct.std::__1::basic_string<char, std::__1::char_traits<char>, std::__1::allocator<char> >::__short", %"struct.std::__1::basic_string<char, std::__1::char_traits<char>, std::__1::allocator<char> >::__short"* %47, i64 0, i32 1, i32 0
  %49 = load i8, i8* %48, align 1
  %50 = icmp slt i8 %49, 0
  %51 = getelementptr inbounds %"class.std::__1::basic_string", %"class.std::__1::basic_string"* %46, i64 0, i32 0, i32 0, i32 0, i32 0, i32 0, i32 0
  %52 = load i8*, i8** %51, align 8
  %53 = getelementptr inbounds %"class.media_router::mojom::CastSessionState", %"class.media_router::mojom::CastSessionState"* %0, i64 0, i32 2, i32 0, i32 0, i32 0, i32 0, i32 0, i32 1
  %54 = load i64, i64* %53, align 8
  %55 = bitcast %"class.std::__1::basic_string"* %46 to i8*
  %56 = zext i8 %49 to i64
  %57 = select i1 %50, i8* %52, i8* %55
  %58 = select i1 %50, i64 %54, i64 %56
  %59 = getelementptr inbounds %"struct.std::__1::__murmur2_or_cityhash", %"struct.std::__1::__murmur2_or_cityhash"* %4, i64 0, i32 0
  call void @llvm.lifetime.start.p0i8(i64 1, i8* nonnull %59) #13
  %60 = call i64 @_ZNSt3__121__murmur2_or_cityhashImLm64EEclEPKvm(%"struct.std::__1::__murmur2_or_cityhash"* nonnull %4, i8* %57, i64 %58) #13
  call void @llvm.lifetime.end.p0i8(i64 1, i8* nonnull %59) #13
  %61 = shl i64 %45, 6
  %62 = lshr i64 %45, 2
  %63 = add i64 %62, %61
  %64 = add i64 %63, %60
  %65 = xor i64 %64, %45
  %66 = getelementptr inbounds %"class.media_router::mojom::CastSessionState", %"class.media_router::mojom::CastSessionState"* %0, i64 0, i32 3
  %67 = bitcast %"class.std::__1::basic_string"* %66 to %"struct.std::__1::basic_string<char, std::__1::char_traits<char>, std::__1::allocator<char> >::__short"*
  %68 = getelementptr inbounds %"struct.std::__1::basic_string<char, std::__1::char_traits<char>, std::__1::allocator<char> >::__short", %"struct.std::__1::basic_string<char, std::__1::char_traits<char>, std::__1::allocator<char> >::__short"* %67, i64 0, i32 1, i32 0
  %69 = load i8, i8* %68, align 1
  %70 = icmp slt i8 %69, 0
  %71 = getelementptr inbounds %"class.std::__1::basic_string", %"class.std::__1::basic_string"* %66, i64 0, i32 0, i32 0, i32 0, i32 0, i32 0, i32 0
  %72 = load i8*, i8** %71, align 8
  %73 = getelementptr inbounds %"class.media_router::mojom::CastSessionState", %"class.media_router::mojom::CastSessionState"* %0, i64 0, i32 3, i32 0, i32 0, i32 0, i32 0, i32 0, i32 1
  %74 = load i64, i64* %73, align 8
  %75 = bitcast %"class.std::__1::basic_string"* %66 to i8*
  %76 = zext i8 %69 to i64
  %77 = select i1 %70, i8* %72, i8* %75
  %78 = select i1 %70, i64 %74, i64 %76
  %79 = getelementptr inbounds %"struct.std::__1::__murmur2_or_cityhash", %"struct.std::__1::__murmur2_or_cityhash"* %3, i64 0, i32 0
  call void @llvm.lifetime.start.p0i8(i64 1, i8* nonnull %79) #13
  %80 = call i64 @_ZNSt3__121__murmur2_or_cityhashImLm64EEclEPKvm(%"struct.std::__1::__murmur2_or_cityhash"* nonnull %3, i8* %77, i64 %78) #13
  call void @llvm.lifetime.end.p0i8(i64 1, i8* nonnull %79) #13
  %81 = shl i64 %65, 6
  %82 = lshr i64 %65, 2
  %83 = add i64 %82, %81
  %84 = add i64 %83, %80
  %85 = xor i64 %84, %65
  ret i64 %85
}

; Function Attrs: nounwind ssp uwtable
define hidden void @_ZNK12media_router5mojom16CastSessionState14WriteIntoTraceEN8perfetto11TracedValueE(%"class.media_router::mojom::CastSessionState"*, %"class.perfetto::TracedValue"*) local_unnamed_addr #0 align 2 {
  %3 = alloca %"class.perfetto::TracedValue", align 8
  %4 = alloca %"class.perfetto::TracedValue", align 8
  %5 = alloca %"class.perfetto::TracedValue", align 8
  %6 = alloca %"class.perfetto::TracedValue", align 8
  %7 = alloca %"class.perfetto::TracedDictionary", align 8
  %8 = alloca %"class.perfetto::TracedValue", align 8
  %9 = alloca %"class.perfetto::TracedValue", align 8
  %10 = alloca %"class.perfetto::TracedValue", align 8
  %11 = alloca %"class.perfetto::TracedValue", align 8
  %12 = bitcast %"class.perfetto::TracedDictionary"* %7 to i8*
  call void @llvm.lifetime.start.p0i8(i64 16, i8* nonnull %12) #13
  %13 = bitcast %"class.perfetto::TracedDictionary"* %7 to i8*
  call void @llvm.memset.p0i8.i64(i8* nonnull align 8 %13, i8 -86, i64 16, i1 false)
  call void @_ZNO8perfetto11TracedValue15WriteDictionaryEv(%"class.perfetto::TracedDictionary"* nonnull sret %7, %"class.perfetto::TracedValue"* %1) #13
  call void @_ZN8perfetto16TracedDictionary7AddItemENS_12StaticStringE(%"class.perfetto::TracedValue"* nonnull sret %8, %"class.perfetto::TracedDictionary"* nonnull %7, i8* getelementptr inbounds ([8 x i8], [8 x i8]* @.str, i64 0, i64 0)) #13
  %14 = getelementptr inbounds %"class.media_router::mojom::CastSessionState", %"class.media_router::mojom::CastSessionState"* %0, i64 0, i32 0
  %15 = bitcast %"class.perfetto::TracedValue"* %8 to i8*
  %16 = bitcast %"class.perfetto::TracedValue"* %5 to i8*
  call void @llvm.lifetime.start.p0i8(i64 16, i8* nonnull %16) #13
  call void @llvm.memcpy.p0i8.p0i8.i64(i8* nonnull align 8 %16, i8* nonnull align 8 %15, i64 16, i1 false) #13
  call void @_ZNO8perfetto11TracedValue11WriteStringERKNSt3__112basic_stringIcNS1_11char_traitsIcEENS1_9allocatorIcEEEE(%"class.perfetto::TracedValue"* nonnull %5, %"class.std::__1::basic_string"* dereferenceable(24) %14) #13
  call void @llvm.lifetime.end.p0i8(i64 16, i8* nonnull %16) #13
  call void @_ZN8perfetto16TracedDictionary7AddItemENS_12StaticStringE(%"class.perfetto::TracedValue"* nonnull sret %9, %"class.perfetto::TracedDictionary"* nonnull %7, i8* getelementptr inbounds ([7 x i8], [7 x i8]* @.str.42, i64 0, i64 0)) #13
  %17 = getelementptr inbounds %"class.media_router::mojom::CastSessionState", %"class.media_router::mojom::CastSessionState"* %0, i64 0, i32 1
  %18 = bitcast %"class.perfetto::TracedValue"* %9 to i8*
  %19 = bitcast %"class.perfetto::TracedValue"* %4 to i8*
  call void @llvm.lifetime.start.p0i8(i64 16, i8* nonnull %19) #13
  call void @llvm.memcpy.p0i8.p0i8.i64(i8* nonnull align 8 %19, i8* nonnull align 8 %18, i64 16, i1 false) #13
  call void @_ZNO8perfetto11TracedValue11WriteStringERKNSt3__112basic_stringIcNS1_11char_traitsIcEENS1_9allocatorIcEEEE(%"class.perfetto::TracedValue"* nonnull %4, %"class.std::__1::basic_string"* dereferenceable(24) %17) #13
  call void @llvm.lifetime.end.p0i8(i64 16, i8* nonnull %19) #13
  call void @_ZN8perfetto16TracedDictionary7AddItemENS_12StaticStringE(%"class.perfetto::TracedValue"* nonnull sret %10, %"class.perfetto::TracedDictionary"* nonnull %7, i8* getelementptr inbounds ([11 x i8], [11 x i8]* @.str.43, i64 0, i64 0)) #13
  %20 = getelementptr inbounds %"class.media_router::mojom::CastSessionState", %"class.media_router::mojom::CastSessionState"* %0, i64 0, i32 2
  %21 = bitcast %"class.perfetto::TracedValue"* %10 to i8*
  %22 = bitcast %"class.perfetto::TracedValue"* %3 to i8*
  call void @llvm.lifetime.start.p0i8(i64 16, i8* nonnull %22) #13
  call void @llvm.memcpy.p0i8.p0i8.i64(i8* nonnull align 8 %22, i8* nonnull align 8 %21, i64 16, i1 false) #13
  call void @_ZNO8perfetto11TracedValue11WriteStringERKNSt3__112basic_stringIcNS1_11char_traitsIcEENS1_9allocatorIcEEEE(%"class.perfetto::TracedValue"* nonnull %3, %"class.std::__1::basic_string"* dereferenceable(24) %20) #13
  call void @llvm.lifetime.end.p0i8(i64 16, i8* nonnull %22) #13
  call void @_ZN8perfetto16TracedDictionary7AddItemENS_12StaticStringE(%"class.perfetto::TracedValue"* nonnull sret %11, %"class.perfetto::TracedDictionary"* nonnull %7, i8* getelementptr inbounds ([18 x i8], [18 x i8]* @.str.44, i64 0, i64 0)) #13
  %23 = getelementptr inbounds %"class.media_router::mojom::CastSessionState", %"class.media_router::mojom::CastSessionState"* %0, i64 0, i32 3
  %24 = bitcast %"class.perfetto::TracedValue"* %11 to i8*
  %25 = bitcast %"class.perfetto::TracedValue"* %6 to i8*
  call void @llvm.lifetime.start.p0i8(i64 16, i8* nonnull %25) #13
  call void @llvm.memcpy.p0i8.p0i8.i64(i8* nonnull align 8 %25, i8* nonnull align 8 %24, i64 16, i1 false) #13
  call void @_ZNO8perfetto11TracedValue11WriteStringERKNSt3__112basic_stringIcNS1_11char_traitsIcEENS1_9allocatorIcEEEE(%"class.perfetto::TracedValue"* nonnull %6, %"class.std::__1::basic_string"* dereferenceable(24) %23) #13
  call void @llvm.lifetime.end.p0i8(i64 16, i8* nonnull %25) #13
  call void @llvm.lifetime.end.p0i8(i64 16, i8* nonnull %12) #13
  ret void
}

; Function Attrs: nounwind ssp uwtable
define hidden zeroext i1 @_ZN12media_router5mojom16CastSessionState8ValidateEPKvPN4mojo8internal17ValidationContextE(i8*, %"class.mojo::internal::ValidationContext"*) local_unnamed_addr #0 align 2 {
  %3 = tail call zeroext i1 @_ZN12media_router5mojom8internal21CastSessionState_Data8ValidateEPKvPN4mojo8internal17ValidationContextE(i8* %0, %"class.mojo::internal::ValidationContext"* %1) #13
  ret i1 %3
}

declare zeroext i1 @_ZN12media_router5mojom8internal21CastSessionState_Data8ValidateEPKvPN4mojo8internal17ValidationContextE(i8*, %"class.mojo::internal::ValidationContext"*) local_unnamed_addr #2

; Function Attrs: nounwind ssp uwtable
define hidden void @_ZN12media_router5mojom17CastProviderStateC2Ev(%"class.media_router::mojom::CastProviderState"* nocapture) unnamed_addr #0 align 2 {
  %2 = bitcast %"class.media_router::mojom::CastProviderState"* %0 to i8*
  tail call void @llvm.memset.p0i8.i64(i8* align 8 %2, i8 0, i64 24, i1 false) #13
  ret void
}

; Function Attrs: nounwind ssp uwtable
define hidden void @_ZN12media_router5mojom17CastProviderStateC2ENSt3__16vectorIN4mojo16InlinedStructPtrINS0_16CastSessionStateEEENS2_9allocatorIS7_EEEE(%"class.media_router::mojom::CastProviderState"* nocapture, %"class.std::__1::vector.74"* nocapture) unnamed_addr #0 align 2 {
  %3 = bitcast %"class.media_router::mojom::CastProviderState"* %0 to i8*
  tail call void @llvm.memset.p0i8.i64(i8* align 8 %3, i8 0, i64 24, i1 false) #13
  %4 = bitcast %"class.std::__1::vector.74"* %1 to i64*
  %5 = load i64, i64* %4, align 8
  %6 = bitcast %"class.media_router::mojom::CastProviderState"* %0 to i64*
  store i64 %5, i64* %6, align 8
  %7 = getelementptr inbounds %"class.std::__1::vector.74", %"class.std::__1::vector.74"* %1, i64 0, i32 0, i32 1
  %8 = bitcast %"class.mojo::InlinedStructPtr"** %7 to i64*
  %9 = load i64, i64* %8, align 8
  %10 = getelementptr inbounds %"class.media_router::mojom::CastProviderState", %"class.media_router::mojom::CastProviderState"* %0, i64 0, i32 0, i32 0, i32 1
  %11 = bitcast %"class.mojo::InlinedStructPtr"** %10 to i64*
  store i64 %9, i64* %11, align 8
  %12 = getelementptr inbounds %"class.std::__1::vector.74", %"class.std::__1::vector.74"* %1, i64 0, i32 0, i32 2, i32 0, i32 0
  %13 = bitcast %"class.mojo::InlinedStructPtr"** %12 to i64*
  %14 = load i64, i64* %13, align 8
  %15 = getelementptr inbounds %"class.media_router::mojom::CastProviderState", %"class.media_router::mojom::CastProviderState"* %0, i64 0, i32 0, i32 0, i32 2, i32 0, i32 0
  %16 = bitcast %"class.mojo::InlinedStructPtr"** %15 to i64*
  store i64 %14, i64* %16, align 8
  %17 = bitcast %"class.std::__1::vector.74"* %1 to i8*
  tail call void @llvm.memset.p0i8.i64(i8* align 8 %17, i8 0, i64 24, i1 false) #13
  ret void
}

; Function Attrs: nounwind ssp uwtable
define hidden void @_ZN12media_router5mojom17CastProviderStateD2Ev(%"class.media_router::mojom::CastProviderState"* nocapture) unnamed_addr #0 align 2 {
  %2 = getelementptr inbounds %"class.media_router::mojom::CastProviderState", %"class.media_router::mojom::CastProviderState"* %0, i64 0, i32 0, i32 0, i32 0
  %3 = load %"class.mojo::InlinedStructPtr"*, %"class.mojo::InlinedStructPtr"** %2, align 8
  %4 = icmp eq %"class.mojo::InlinedStructPtr"* %3, null
  br i1 %4, label %54, label %5

5:                                                ; preds = %1
  %6 = bitcast %"class.mojo::InlinedStructPtr"* %3 to i8*
  %7 = getelementptr inbounds %"class.media_router::mojom::CastProviderState", %"class.media_router::mojom::CastProviderState"* %0, i64 0, i32 0, i32 0, i32 1
  %8 = load %"class.mojo::InlinedStructPtr"*, %"class.mojo::InlinedStructPtr"** %7, align 8
  %9 = icmp eq %"class.mojo::InlinedStructPtr"* %8, %3
  br i1 %9, label %52, label %10

10:                                               ; preds = %5, %47
  %11 = phi %"class.mojo::InlinedStructPtr"* [ %12, %47 ], [ %8, %5 ]
  %12 = getelementptr inbounds %"class.mojo::InlinedStructPtr", %"class.mojo::InlinedStructPtr"* %11, i64 -1
  %13 = getelementptr inbounds %"class.mojo::InlinedStructPtr", %"class.mojo::InlinedStructPtr"* %11, i64 -1, i32 0, i32 3
  %14 = bitcast %"class.std::__1::basic_string"* %13 to %"struct.std::__1::basic_string<char, std::__1::char_traits<char>, std::__1::allocator<char> >::__short"*
  %15 = getelementptr inbounds %"struct.std::__1::basic_string<char, std::__1::char_traits<char>, std::__1::allocator<char> >::__short", %"struct.std::__1::basic_string<char, std::__1::char_traits<char>, std::__1::allocator<char> >::__short"* %14, i64 0, i32 1, i32 0
  %16 = load i8, i8* %15, align 1
  %17 = icmp slt i8 %16, 0
  br i1 %17, label %18, label %21

18:                                               ; preds = %10
  %19 = getelementptr inbounds %"class.std::__1::basic_string", %"class.std::__1::basic_string"* %13, i64 0, i32 0, i32 0, i32 0, i32 0, i32 0, i32 0
  %20 = load i8*, i8** %19, align 8
  tail call void @_ZdlPv(i8* %20) #14
  br label %21

21:                                               ; preds = %18, %10
  %22 = getelementptr inbounds %"class.mojo::InlinedStructPtr", %"class.mojo::InlinedStructPtr"* %11, i64 -1, i32 0, i32 2
  %23 = bitcast %"class.std::__1::basic_string"* %22 to %"struct.std::__1::basic_string<char, std::__1::char_traits<char>, std::__1::allocator<char> >::__short"*
  %24 = getelementptr inbounds %"struct.std::__1::basic_string<char, std::__1::char_traits<char>, std::__1::allocator<char> >::__short", %"struct.std::__1::basic_string<char, std::__1::char_traits<char>, std::__1::allocator<char> >::__short"* %23, i64 0, i32 1, i32 0
  %25 = load i8, i8* %24, align 1
  %26 = icmp slt i8 %25, 0
  br i1 %26, label %27, label %30

27:                                               ; preds = %21
  %28 = getelementptr inbounds %"class.std::__1::basic_string", %"class.std::__1::basic_string"* %22, i64 0, i32 0, i32 0, i32 0, i32 0, i32 0, i32 0
  %29 = load i8*, i8** %28, align 8
  tail call void @_ZdlPv(i8* %29) #14
  br label %30

30:                                               ; preds = %27, %21
  %31 = getelementptr inbounds %"class.mojo::InlinedStructPtr", %"class.mojo::InlinedStructPtr"* %11, i64 -1, i32 0, i32 1
  %32 = bitcast %"class.std::__1::basic_string"* %31 to %"struct.std::__1::basic_string<char, std::__1::char_traits<char>, std::__1::allocator<char> >::__short"*
  %33 = getelementptr inbounds %"struct.std::__1::basic_string<char, std::__1::char_traits<char>, std::__1::allocator<char> >::__short", %"struct.std::__1::basic_string<char, std::__1::char_traits<char>, std::__1::allocator<char> >::__short"* %32, i64 0, i32 1, i32 0
  %34 = load i8, i8* %33, align 1
  %35 = icmp slt i8 %34, 0
  br i1 %35, label %36, label %39

36:                                               ; preds = %30
  %37 = getelementptr inbounds %"class.std::__1::basic_string", %"class.std::__1::basic_string"* %31, i64 0, i32 0, i32 0, i32 0, i32 0, i32 0, i32 0
  %38 = load i8*, i8** %37, align 8
  tail call void @_ZdlPv(i8* %38) #14
  br label %39

39:                                               ; preds = %36, %30
  %40 = bitcast %"class.mojo::InlinedStructPtr"* %12 to %"struct.std::__1::basic_string<char, std::__1::char_traits<char>, std::__1::allocator<char> >::__short"*
  %41 = getelementptr inbounds %"struct.std::__1::basic_string<char, std::__1::char_traits<char>, std::__1::allocator<char> >::__short", %"struct.std::__1::basic_string<char, std::__1::char_traits<char>, std::__1::allocator<char> >::__short"* %40, i64 0, i32 1, i32 0
  %42 = load i8, i8* %41, align 1
  %43 = icmp slt i8 %42, 0
  br i1 %43, label %44, label %47

44:                                               ; preds = %39
  %45 = getelementptr inbounds %"class.mojo::InlinedStructPtr", %"class.mojo::InlinedStructPtr"* %12, i64 0, i32 0, i32 0, i32 0, i32 0, i32 0, i32 0, i32 0, i32 0
  %46 = load i8*, i8** %45, align 8
  tail call void @_ZdlPv(i8* %46) #14
  br label %47

47:                                               ; preds = %44, %39
  %48 = icmp eq %"class.mojo::InlinedStructPtr"* %12, %3
  br i1 %48, label %49, label %10

49:                                               ; preds = %47
  %50 = bitcast %"class.media_router::mojom::CastProviderState"* %0 to i8**
  %51 = load i8*, i8** %50, align 8
  br label %52

52:                                               ; preds = %5, %49
  %53 = phi i8* [ %51, %49 ], [ %6, %5 ]
  store %"class.mojo::InlinedStructPtr"* %3, %"class.mojo::InlinedStructPtr"** %7, align 8
  tail call void @_ZdlPv(i8* %53) #14
  br label %54

54:                                               ; preds = %1, %52
  ret void
}

; Function Attrs: nounwind ssp uwtable
define hidden void @_ZNK12media_router5mojom17CastProviderState14WriteIntoTraceEN8perfetto11TracedValueE(%"class.media_router::mojom::CastProviderState"* nocapture readonly, %"class.perfetto::TracedValue"*) local_unnamed_addr #0 align 2 {
  %3 = alloca %"class.perfetto::TracedValue", align 8
  %4 = alloca %"class.perfetto::TracedValue", align 8
  %5 = alloca %"class.perfetto::TracedValue", align 8
  %6 = alloca %"class.perfetto::TracedArray", align 8
  %7 = alloca %"class.perfetto::TracedValue", align 8
  %8 = alloca %"class.perfetto::TracedDictionary", align 8
  %9 = alloca %"class.perfetto::TracedValue", align 8
  %10 = bitcast %"class.perfetto::TracedDictionary"* %8 to i8*
  call void @llvm.lifetime.start.p0i8(i64 16, i8* nonnull %10) #13
  %11 = bitcast %"class.perfetto::TracedDictionary"* %8 to i8*
  call void @llvm.memset.p0i8.i64(i8* nonnull align 8 %11, i8 -86, i64 16, i1 false)
  call void @_ZNO8perfetto11TracedValue15WriteDictionaryEv(%"class.perfetto::TracedDictionary"* nonnull sret %8, %"class.perfetto::TracedValue"* %1) #13
  call void @_ZN8perfetto16TracedDictionary7AddItemENS_12StaticStringE(%"class.perfetto::TracedValue"* nonnull sret %9, %"class.perfetto::TracedDictionary"* nonnull %8, i8* getelementptr inbounds ([14 x i8], [14 x i8]* @.str.45, i64 0, i64 0)) #13
  %12 = bitcast %"class.perfetto::TracedValue"* %9 to i8*
  %13 = bitcast %"class.perfetto::TracedValue"* %7 to i8*
  call void @llvm.lifetime.start.p0i8(i64 16, i8* nonnull %13) #13
  call void @llvm.memcpy.p0i8.p0i8.i64(i8* nonnull align 8 %13, i8* nonnull align 8 %12, i64 16, i1 false) #13
  %14 = bitcast %"class.perfetto::TracedArray"* %6 to i8*
  call void @llvm.lifetime.start.p0i8(i64 16, i8* nonnull %14) #13
  call void @llvm.memset.p0i8.i64(i8* nonnull align 8 %14, i8 -86, i64 16, i1 false) #13
  call void @_ZNO8perfetto11TracedValue10WriteArrayEv(%"class.perfetto::TracedArray"* nonnull sret %6, %"class.perfetto::TracedValue"* nonnull %7) #13
  %15 = getelementptr inbounds %"class.media_router::mojom::CastProviderState", %"class.media_router::mojom::CastProviderState"* %0, i64 0, i32 0, i32 0, i32 0
  %16 = load %"class.mojo::InlinedStructPtr"*, %"class.mojo::InlinedStructPtr"** %15, align 8
  %17 = getelementptr inbounds %"class.media_router::mojom::CastProviderState", %"class.media_router::mojom::CastProviderState"* %0, i64 0, i32 0, i32 0, i32 1
  %18 = load %"class.mojo::InlinedStructPtr"*, %"class.mojo::InlinedStructPtr"** %17, align 8
  %19 = icmp eq %"class.mojo::InlinedStructPtr"* %16, %18
  br i1 %19, label %37, label %20

20:                                               ; preds = %2
  %21 = bitcast %"class.perfetto::TracedValue"* %5 to i8*
  %22 = bitcast %"class.perfetto::TracedValue"* %4 to i8*
  %23 = bitcast %"class.perfetto::TracedValue"* %3 to i8*
  br label %24

24:                                               ; preds = %34, %20
  %25 = phi %"class.mojo::InlinedStructPtr"* [ %16, %20 ], [ %35, %34 ]
  call void @llvm.lifetime.start.p0i8(i64 16, i8* nonnull %21) #13
  call void @_ZN8perfetto11TracedArray10AppendItemEv(%"class.perfetto::TracedValue"* nonnull sret %5, %"class.perfetto::TracedArray"* nonnull %6) #13
  %26 = getelementptr inbounds %"class.mojo::InlinedStructPtr", %"class.mojo::InlinedStructPtr"* %25, i64 0, i32 1
  %27 = load i32, i32* %26, align 8
  %28 = icmp eq i32 %27, 0
  call void @llvm.lifetime.start.p0i8(i64 16, i8* nonnull %22) #13
  call void @llvm.memcpy.p0i8.p0i8.i64(i8* nonnull align 8 %22, i8* nonnull align 8 %21, i64 16, i1 false) #13
  %29 = icmp eq %"class.mojo::InlinedStructPtr"* %25, null
  %30 = or i1 %29, %28
  br i1 %30, label %31, label %32

31:                                               ; preds = %24
  call void @_ZNO8perfetto11TracedValue12WritePointerEPKv(%"class.perfetto::TracedValue"* nonnull %4, i8* null) #13
  br label %34

32:                                               ; preds = %24
  %33 = getelementptr inbounds %"class.mojo::InlinedStructPtr", %"class.mojo::InlinedStructPtr"* %25, i64 0, i32 0
  call void @llvm.lifetime.start.p0i8(i64 16, i8* nonnull %23) #13
  call void @llvm.memcpy.p0i8.p0i8.i64(i8* nonnull align 8 %23, i8* nonnull align 8 %22, i64 16, i1 false) #13
  call void @_ZNK12media_router5mojom16CastSessionState14WriteIntoTraceEN8perfetto11TracedValueE(%"class.media_router::mojom::CastSessionState"* nonnull %33, %"class.perfetto::TracedValue"* nonnull %3) #13
  call void @llvm.lifetime.end.p0i8(i64 16, i8* nonnull %23) #13
  br label %34

34:                                               ; preds = %32, %31
  call void @llvm.lifetime.end.p0i8(i64 16, i8* nonnull %22) #13
  call void @llvm.lifetime.end.p0i8(i64 16, i8* nonnull %21) #13
  %35 = getelementptr inbounds %"class.mojo::InlinedStructPtr", %"class.mojo::InlinedStructPtr"* %25, i64 1
  %36 = icmp eq %"class.mojo::InlinedStructPtr"* %35, %18
  br i1 %36, label %37, label %24

37:                                               ; preds = %34, %2
  call void @llvm.lifetime.end.p0i8(i64 16, i8* nonnull %14) #13
  call void @llvm.lifetime.end.p0i8(i64 16, i8* nonnull %13) #13
  call void @llvm.lifetime.end.p0i8(i64 16, i8* nonnull %10) #13
  ret void
}

; Function Attrs: nounwind ssp uwtable
define hidden zeroext i1 @_ZN12media_router5mojom17CastProviderState8ValidateEPKvPN4mojo8internal17ValidationContextE(i8*, %"class.mojo::internal::ValidationContext"*) local_unnamed_addr #0 align 2 {
  %3 = tail call zeroext i1 @_ZN12media_router5mojom8internal22CastProviderState_Data8ValidateEPKvPN4mojo8internal17ValidationContextE(i8* %0, %"class.mojo::internal::ValidationContext"* %1) #13
  ret i1 %3
}

declare zeroext i1 @_ZN12media_router5mojom8internal22CastProviderState_Data8ValidateEPKvPN4mojo8internal17ValidationContextE(i8*, %"class.mojo::internal::ValidationContext"*) local_unnamed_addr #2

; Function Attrs: nofree nounwind ssp uwtable
define hidden void @_ZN12media_router5mojom18MediaSinkExtraDataC2Ev(%"class.media_router::mojom::MediaSinkExtraData"* nocapture) unnamed_addr #7 align 2 {
  %2 = getelementptr inbounds %"class.media_router::mojom::MediaSinkExtraData", %"class.media_router::mojom::MediaSinkExtraData"* %0, i64 0, i32 0
  store i32 0, i32* %2, align 8
  %3 = tail call i8* @_Znwm(i64 8) #14
  %4 = bitcast i8* %3 to i64*
  store i64 0, i64* %4, align 8
  %5 = getelementptr inbounds %"class.media_router::mojom::MediaSinkExtraData", %"class.media_router::mojom::MediaSinkExtraData"* %0, i64 0, i32 1, i32 0
  %6 = bitcast %"class.mojo::StructPtr.4"** %5 to i8**
  store i8* %3, i8** %6, align 8
  ret void
}

; Function Attrs: nobuiltin nofree
declare noalias nonnull i8* @_Znwm(i64) local_unnamed_addr #8

; Function Attrs: nounwind ssp uwtable
define hidden void @_ZN12media_router5mojom18MediaSinkExtraDataD2Ev(%"class.media_router::mojom::MediaSinkExtraData"* nocapture readonly) unnamed_addr #0 align 2 {
  tail call void @_ZN12media_router5mojom18MediaSinkExtraData13DestroyActiveEv(%"class.media_router::mojom::MediaSinkExtraData"* %0)
  ret void
}

; Function Attrs: nounwind ssp uwtable
define hidden void @_ZN12media_router5mojom18MediaSinkExtraData13DestroyActiveEv(%"class.media_router::mojom::MediaSinkExtraData"* nocapture readonly) local_unnamed_addr #0 align 2 {
  %2 = getelementptr inbounds %"class.media_router::mojom::MediaSinkExtraData", %"class.media_router::mojom::MediaSinkExtraData"* %0, i64 0, i32 0
  %3 = load i32, i32* %2, align 8
  switch i32 %3, label %50 [
    i32 0, label %4
    i32 1, label %27
  ]

4:                                                ; preds = %1
  %5 = getelementptr inbounds %"class.media_router::mojom::MediaSinkExtraData", %"class.media_router::mojom::MediaSinkExtraData"* %0, i64 0, i32 1, i32 0
  %6 = load %"class.mojo::StructPtr.4"*, %"class.mojo::StructPtr.4"** %5, align 8
  %7 = icmp eq %"class.mojo::StructPtr.4"* %6, null
  br i1 %7, label %50, label %8

8:                                                ; preds = %4
  %9 = getelementptr inbounds %"class.mojo::StructPtr.4", %"class.mojo::StructPtr.4"* %6, i64 0, i32 0, i32 0, i32 0, i32 0
  %10 = load %"class.media_router::mojom::DialMediaSink"*, %"class.media_router::mojom::DialMediaSink"** %9, align 8
  store %"class.media_router::mojom::DialMediaSink"* null, %"class.media_router::mojom::DialMediaSink"** %9, align 8
  %11 = icmp eq %"class.media_router::mojom::DialMediaSink"* %10, null
  br i1 %11, label %25, label %12

12:                                               ; preds = %8
  %13 = getelementptr inbounds %"class.media_router::mojom::DialMediaSink", %"class.media_router::mojom::DialMediaSink"* %10, i64 0, i32 2
  tail call void @_ZN4GURLD1Ev(%class.GURL* %13) #13
  %14 = getelementptr inbounds %"class.media_router::mojom::DialMediaSink", %"class.media_router::mojom::DialMediaSink"* %10, i64 0, i32 1
  %15 = bitcast %"class.std::__1::basic_string"* %14 to %"struct.std::__1::basic_string<char, std::__1::char_traits<char>, std::__1::allocator<char> >::__short"*
  %16 = getelementptr inbounds %"struct.std::__1::basic_string<char, std::__1::char_traits<char>, std::__1::allocator<char> >::__short", %"struct.std::__1::basic_string<char, std::__1::char_traits<char>, std::__1::allocator<char> >::__short"* %15, i64 0, i32 1, i32 0
  %17 = load i8, i8* %16, align 1
  %18 = icmp slt i8 %17, 0
  br i1 %18, label %19, label %22

19:                                               ; preds = %12
  %20 = getelementptr inbounds %"class.std::__1::basic_string", %"class.std::__1::basic_string"* %14, i64 0, i32 0, i32 0, i32 0, i32 0, i32 0, i32 0
  %21 = load i8*, i8** %20, align 8
  tail call void @_ZdlPv(i8* %21) #14
  br label %22

22:                                               ; preds = %19, %12
  %23 = getelementptr inbounds %"class.media_router::mojom::DialMediaSink", %"class.media_router::mojom::DialMediaSink"* %10, i64 0, i32 0
  tail call void @_ZN3net9IPAddressD1Ev(%"class.net::IPAddress"* %23) #13
  %24 = getelementptr inbounds %"class.media_router::mojom::DialMediaSink", %"class.media_router::mojom::DialMediaSink"* %10, i64 0, i32 0, i32 0, i32 0, i32 0, i64 0
  tail call void @_ZdlPv(i8* %24) #14
  br label %25

25:                                               ; preds = %8, %22
  %26 = bitcast %"class.mojo::StructPtr.4"* %6 to i8*
  tail call void @_ZdlPv(i8* %26) #14
  br label %50

27:                                               ; preds = %1
  %28 = getelementptr inbounds %"class.media_router::mojom::MediaSinkExtraData", %"class.media_router::mojom::MediaSinkExtraData"* %0, i64 0, i32 1
  %29 = bitcast %"union.media_router::mojom::MediaSinkExtraData::Union_"* %28 to %"class.mojo::StructPtr.15"**
  %30 = load %"class.mojo::StructPtr.15"*, %"class.mojo::StructPtr.15"** %29, align 8
  %31 = icmp eq %"class.mojo::StructPtr.15"* %30, null
  br i1 %31, label %50, label %32

32:                                               ; preds = %27
  %33 = getelementptr inbounds %"class.mojo::StructPtr.15", %"class.mojo::StructPtr.15"* %30, i64 0, i32 0, i32 0, i32 0, i32 0
  %34 = load %"class.media_router::mojom::CastMediaSink"*, %"class.media_router::mojom::CastMediaSink"** %33, align 8
  store %"class.media_router::mojom::CastMediaSink"* null, %"class.media_router::mojom::CastMediaSink"** %33, align 8
  %35 = icmp eq %"class.media_router::mojom::CastMediaSink"* %34, null
  br i1 %35, label %48, label %36

36:                                               ; preds = %32
  %37 = getelementptr inbounds %"class.media_router::mojom::CastMediaSink", %"class.media_router::mojom::CastMediaSink"* %34, i64 0, i32 1
  %38 = bitcast %"class.std::__1::basic_string"* %37 to %"struct.std::__1::basic_string<char, std::__1::char_traits<char>, std::__1::allocator<char> >::__short"*
  %39 = getelementptr inbounds %"struct.std::__1::basic_string<char, std::__1::char_traits<char>, std::__1::allocator<char> >::__short", %"struct.std::__1::basic_string<char, std::__1::char_traits<char>, std::__1::allocator<char> >::__short"* %38, i64 0, i32 1, i32 0
  %40 = load i8, i8* %39, align 1
  %41 = icmp slt i8 %40, 0
  br i1 %41, label %42, label %45

42:                                               ; preds = %36
  %43 = getelementptr inbounds %"class.std::__1::basic_string", %"class.std::__1::basic_string"* %37, i64 0, i32 0, i32 0, i32 0, i32 0, i32 0, i32 0
  %44 = load i8*, i8** %43, align 8
  tail call void @_ZdlPv(i8* %44) #14
  br label %45

45:                                               ; preds = %42, %36
  %46 = getelementptr inbounds %"class.media_router::mojom::CastMediaSink", %"class.media_router::mojom::CastMediaSink"* %34, i64 0, i32 0
  tail call void @_ZN3net10IPEndPointD1Ev(%"class.net::IPEndPoint"* %46) #13
  %47 = getelementptr inbounds %"class.media_router::mojom::CastMediaSink", %"class.media_router::mojom::CastMediaSink"* %34, i64 0, i32 0, i32 0, i32 0, i32 0, i32 0, i64 0
  tail call void @_ZdlPv(i8* %47) #14
  br label %48

48:                                               ; preds = %32, %45
  %49 = bitcast %"class.mojo::StructPtr.15"* %30 to i8*
  tail call void @_ZdlPv(i8* %49) #14
  br label %50

50:                                               ; preds = %27, %48, %4, %25, %1
  ret void
}

; Function Attrs: nounwind ssp uwtable
define hidden void @_ZN12media_router5mojom18MediaSinkExtraData19set_dial_media_sinkEN4mojo9StructPtrINS0_13DialMediaSinkEEE(%"class.media_router::mojom::MediaSinkExtraData"* nocapture, %"class.mojo::StructPtr.4"* nocapture) local_unnamed_addr #0 align 2 {
  %3 = getelementptr inbounds %"class.media_router::mojom::MediaSinkExtraData", %"class.media_router::mojom::MediaSinkExtraData"* %0, i64 0, i32 0
  %4 = load i32, i32* %3, align 8
  %5 = icmp eq i32 %4, 0
  br i1 %5, label %6, label %34

6:                                                ; preds = %2
  %7 = getelementptr inbounds %"class.media_router::mojom::MediaSinkExtraData", %"class.media_router::mojom::MediaSinkExtraData"* %0, i64 0, i32 1, i32 0
  %8 = load %"class.mojo::StructPtr.4"*, %"class.mojo::StructPtr.4"** %7, align 8
  %9 = getelementptr inbounds %"class.mojo::StructPtr.4", %"class.mojo::StructPtr.4"* %8, i64 0, i32 0, i32 0, i32 0, i32 0
  %10 = load %"class.media_router::mojom::DialMediaSink"*, %"class.media_router::mojom::DialMediaSink"** %9, align 8
  store %"class.media_router::mojom::DialMediaSink"* null, %"class.media_router::mojom::DialMediaSink"** %9, align 8
  %11 = icmp eq %"class.media_router::mojom::DialMediaSink"* %10, null
  br i1 %11, label %12, label %14

12:                                               ; preds = %6
  %13 = bitcast %"class.mojo::StructPtr.4"* %8 to i64*
  br label %29

14:                                               ; preds = %6
  %15 = getelementptr inbounds %"class.media_router::mojom::DialMediaSink", %"class.media_router::mojom::DialMediaSink"* %10, i64 0, i32 2
  tail call void @_ZN4GURLD1Ev(%class.GURL* %15) #13
  %16 = getelementptr inbounds %"class.media_router::mojom::DialMediaSink", %"class.media_router::mojom::DialMediaSink"* %10, i64 0, i32 1
  %17 = bitcast %"class.std::__1::basic_string"* %16 to %"struct.std::__1::basic_string<char, std::__1::char_traits<char>, std::__1::allocator<char> >::__short"*
  %18 = getelementptr inbounds %"struct.std::__1::basic_string<char, std::__1::char_traits<char>, std::__1::allocator<char> >::__short", %"struct.std::__1::basic_string<char, std::__1::char_traits<char>, std::__1::allocator<char> >::__short"* %17, i64 0, i32 1, i32 0
  %19 = load i8, i8* %18, align 1
  %20 = icmp slt i8 %19, 0
  br i1 %20, label %21, label %24

21:                                               ; preds = %14
  %22 = getelementptr inbounds %"class.std::__1::basic_string", %"class.std::__1::basic_string"* %16, i64 0, i32 0, i32 0, i32 0, i32 0, i32 0, i32 0
  %23 = load i8*, i8** %22, align 8
  tail call void @_ZdlPv(i8* %23) #14
  br label %24

24:                                               ; preds = %21, %14
  %25 = getelementptr inbounds %"class.media_router::mojom::DialMediaSink", %"class.media_router::mojom::DialMediaSink"* %10, i64 0, i32 0
  tail call void @_ZN3net9IPAddressD1Ev(%"class.net::IPAddress"* %25) #13
  %26 = getelementptr inbounds %"class.media_router::mojom::DialMediaSink", %"class.media_router::mojom::DialMediaSink"* %10, i64 0, i32 0, i32 0, i32 0, i32 0, i64 0
  tail call void @_ZdlPv(i8* %26) #14
  %27 = bitcast %"class.mojo::StructPtr.4"* %8 to i64*
  %28 = load i64, i64* %27, align 8
  br label %29

29:                                               ; preds = %12, %24
  %30 = phi i64* [ %13, %12 ], [ %27, %24 ]
  %31 = phi i64 [ 0, %12 ], [ %28, %24 ]
  %32 = bitcast %"class.mojo::StructPtr.4"* %1 to i64*
  %33 = load i64, i64* %32, align 8
  store i64 %33, i64* %30, align 8
  store i64 %31, i64* %32, align 8
  br label %41

34:                                               ; preds = %2
  tail call void @_ZN12media_router5mojom18MediaSinkExtraData13DestroyActiveEv(%"class.media_router::mojom::MediaSinkExtraData"* %0)
  store i32 0, i32* %3, align 8
  %35 = tail call i8* @_Znwm(i64 8) #14
  %36 = bitcast i8* %35 to i64*
  %37 = bitcast %"class.mojo::StructPtr.4"* %1 to i64*
  %38 = load i64, i64* %37, align 8
  store i64 %38, i64* %36, align 8
  store i64 0, i64* %37, align 8
  %39 = getelementptr inbounds %"class.media_router::mojom::MediaSinkExtraData", %"class.media_router::mojom::MediaSinkExtraData"* %0, i64 0, i32 1, i32 0
  %40 = bitcast %"class.mojo::StructPtr.4"** %39 to i8**
  store i8* %35, i8** %40, align 8
  br label %41

41:                                               ; preds = %34, %29
  ret void
}

; Function Attrs: nounwind ssp uwtable
define hidden void @_ZN12media_router5mojom18MediaSinkExtraData19set_cast_media_sinkEN4mojo9StructPtrINS0_13CastMediaSinkEEE(%"class.media_router::mojom::MediaSinkExtraData"* nocapture, %"class.mojo::StructPtr.15"* nocapture) local_unnamed_addr #0 align 2 {
  %3 = getelementptr inbounds %"class.media_router::mojom::MediaSinkExtraData", %"class.media_router::mojom::MediaSinkExtraData"* %0, i64 0, i32 0
  %4 = load i32, i32* %3, align 8
  %5 = icmp eq i32 %4, 1
  br i1 %5, label %6, label %34

6:                                                ; preds = %2
  %7 = getelementptr inbounds %"class.media_router::mojom::MediaSinkExtraData", %"class.media_router::mojom::MediaSinkExtraData"* %0, i64 0, i32 1
  %8 = bitcast %"union.media_router::mojom::MediaSinkExtraData::Union_"* %7 to %"class.mojo::StructPtr.15"**
  %9 = load %"class.mojo::StructPtr.15"*, %"class.mojo::StructPtr.15"** %8, align 8
  %10 = getelementptr inbounds %"class.mojo::StructPtr.15", %"class.mojo::StructPtr.15"* %9, i64 0, i32 0, i32 0, i32 0, i32 0
  %11 = load %"class.media_router::mojom::CastMediaSink"*, %"class.media_router::mojom::CastMediaSink"** %10, align 8
  store %"class.media_router::mojom::CastMediaSink"* null, %"class.media_router::mojom::CastMediaSink"** %10, align 8
  %12 = icmp eq %"class.media_router::mojom::CastMediaSink"* %11, null
  br i1 %12, label %13, label %15

13:                                               ; preds = %6
  %14 = bitcast %"class.mojo::StructPtr.15"* %9 to i64*
  br label %29

15:                                               ; preds = %6
  %16 = getelementptr inbounds %"class.media_router::mojom::CastMediaSink", %"class.media_router::mojom::CastMediaSink"* %11, i64 0, i32 1
  %17 = bitcast %"class.std::__1::basic_string"* %16 to %"struct.std::__1::basic_string<char, std::__1::char_traits<char>, std::__1::allocator<char> >::__short"*
  %18 = getelementptr inbounds %"struct.std::__1::basic_string<char, std::__1::char_traits<char>, std::__1::allocator<char> >::__short", %"struct.std::__1::basic_string<char, std::__1::char_traits<char>, std::__1::allocator<char> >::__short"* %17, i64 0, i32 1, i32 0
  %19 = load i8, i8* %18, align 1
  %20 = icmp slt i8 %19, 0
  br i1 %20, label %21, label %24

21:                                               ; preds = %15
  %22 = getelementptr inbounds %"class.std::__1::basic_string", %"class.std::__1::basic_string"* %16, i64 0, i32 0, i32 0, i32 0, i32 0, i32 0, i32 0
  %23 = load i8*, i8** %22, align 8
  tail call void @_ZdlPv(i8* %23) #14
  br label %24

24:                                               ; preds = %21, %15
  %25 = getelementptr inbounds %"class.media_router::mojom::CastMediaSink", %"class.media_router::mojom::CastMediaSink"* %11, i64 0, i32 0
  tail call void @_ZN3net10IPEndPointD1Ev(%"class.net::IPEndPoint"* %25) #13
  %26 = getelementptr inbounds %"class.media_router::mojom::CastMediaSink", %"class.media_router::mojom::CastMediaSink"* %11, i64 0, i32 0, i32 0, i32 0, i32 0, i32 0, i64 0
  tail call void @_ZdlPv(i8* %26) #14
  %27 = bitcast %"class.mojo::StructPtr.15"* %9 to i64*
  %28 = load i64, i64* %27, align 8
  br label %29

29:                                               ; preds = %13, %24
  %30 = phi i64* [ %14, %13 ], [ %27, %24 ]
  %31 = phi i64 [ 0, %13 ], [ %28, %24 ]
  %32 = bitcast %"class.mojo::StructPtr.15"* %1 to i64*
  %33 = load i64, i64* %32, align 8
  store i64 %33, i64* %30, align 8
  store i64 %31, i64* %32, align 8
  br label %41

34:                                               ; preds = %2
  tail call void @_ZN12media_router5mojom18MediaSinkExtraData13DestroyActiveEv(%"class.media_router::mojom::MediaSinkExtraData"* %0)
  store i32 1, i32* %3, align 8
  %35 = tail call i8* @_Znwm(i64 8) #14
  %36 = bitcast i8* %35 to i64*
  %37 = bitcast %"class.mojo::StructPtr.15"* %1 to i64*
  %38 = load i64, i64* %37, align 8
  store i64 %38, i64* %36, align 8
  store i64 0, i64* %37, align 8
  %39 = getelementptr inbounds %"class.media_router::mojom::MediaSinkExtraData", %"class.media_router::mojom::MediaSinkExtraData"* %0, i64 0, i32 1
  %40 = bitcast %"union.media_router::mojom::MediaSinkExtraData::Union_"* %39 to i8**
  store i8* %35, i8** %40, align 8
  br label %41

41:                                               ; preds = %34, %29
  ret void
}

; Function Attrs: nobuiltin nounwind
declare void @_ZdlPv(i8*) local_unnamed_addr #9

; Function Attrs: nounwind ssp uwtable
define hidden zeroext i1 @_ZN12media_router5mojom18MediaSinkExtraData8ValidateEPKvPN4mojo8internal17ValidationContextE(i8*, %"class.mojo::internal::ValidationContext"*) local_unnamed_addr #0 align 2 {
  %3 = tail call zeroext i1 @_ZN12media_router5mojom8internal23MediaSinkExtraData_Data8ValidateEPKvPN4mojo8internal17ValidationContextEb(i8* %0, %"class.mojo::internal::ValidationContext"* %1, i1 zeroext false) #13
  ret i1 %3
}

declare zeroext i1 @_ZN12media_router5mojom8internal23MediaSinkExtraData_Data8ValidateEPKvPN4mojo8internal17ValidationContextEb(i8*, %"class.mojo::internal::ValidationContext"*, i1 zeroext) local_unnamed_addr #2

; Function Attrs: nofree nounwind ssp uwtable
define hidden void @_ZN12media_router5mojom13ProviderStateC2Ev(%"class.media_router::mojom::ProviderState"* nocapture) unnamed_addr #7 align 2 {
  %2 = getelementptr inbounds %"class.media_router::mojom::ProviderState", %"class.media_router::mojom::ProviderState"* %0, i64 0, i32 0
  store i32 0, i32* %2, align 8
  %3 = tail call i8* @_Znwm(i64 8) #14
  %4 = bitcast i8* %3 to i64*
  store i64 0, i64* %4, align 8
  %5 = getelementptr inbounds %"class.media_router::mojom::ProviderState", %"class.media_router::mojom::ProviderState"* %0, i64 0, i32 1, i32 0
  %6 = bitcast %"class.mojo::StructPtr.81"** %5 to i8**
  store i8* %3, i8** %6, align 8
  ret void
}

; Function Attrs: nounwind ssp uwtable
define hidden void @_ZN12media_router5mojom13ProviderStateD2Ev(%"class.media_router::mojom::ProviderState"* nocapture readonly) unnamed_addr #0 align 2 {
  %2 = getelementptr inbounds %"class.media_router::mojom::ProviderState", %"class.media_router::mojom::ProviderState"* %0, i64 0, i32 0
  %3 = load i32, i32* %2, align 8
  %4 = icmp eq i32 %3, 0
  br i1 %4, label %5, label %17

5:                                                ; preds = %1
  %6 = getelementptr inbounds %"class.media_router::mojom::ProviderState", %"class.media_router::mojom::ProviderState"* %0, i64 0, i32 1, i32 0
  %7 = load %"class.mojo::StructPtr.81"*, %"class.mojo::StructPtr.81"** %6, align 8
  %8 = icmp eq %"class.mojo::StructPtr.81"* %7, null
  br i1 %8, label %17, label %9

9:                                                ; preds = %5
  %10 = getelementptr inbounds %"class.mojo::StructPtr.81", %"class.mojo::StructPtr.81"* %7, i64 0, i32 0, i32 0, i32 0, i32 0
  %11 = load %"class.media_router::mojom::CastProviderState"*, %"class.media_router::mojom::CastProviderState"** %10, align 8
  store %"class.media_router::mojom::CastProviderState"* null, %"class.media_router::mojom::CastProviderState"** %10, align 8
  %12 = icmp eq %"class.media_router::mojom::CastProviderState"* %11, null
  br i1 %12, label %15, label %13

13:                                               ; preds = %9
  tail call void @_ZN12media_router5mojom17CastProviderStateD2Ev(%"class.media_router::mojom::CastProviderState"* nonnull %11) #13
  %14 = bitcast %"class.media_router::mojom::CastProviderState"* %11 to i8*
  tail call void @_ZdlPv(i8* %14) #14
  br label %15

15:                                               ; preds = %13, %9
  %16 = bitcast %"class.mojo::StructPtr.81"* %7 to i8*
  tail call void @_ZdlPv(i8* %16) #14
  br label %17

17:                                               ; preds = %1, %5, %15
  ret void
}

; Function Attrs: nounwind ssp uwtable
define hidden void @_ZN12media_router5mojom13ProviderState13DestroyActiveEv(%"class.media_router::mojom::ProviderState"* nocapture readonly) local_unnamed_addr #0 align 2 {
  %2 = getelementptr inbounds %"class.media_router::mojom::ProviderState", %"class.media_router::mojom::ProviderState"* %0, i64 0, i32 0
  %3 = load i32, i32* %2, align 8
  %4 = icmp eq i32 %3, 0
  br i1 %4, label %5, label %17

5:                                                ; preds = %1
  %6 = getelementptr inbounds %"class.media_router::mojom::ProviderState", %"class.media_router::mojom::ProviderState"* %0, i64 0, i32 1, i32 0
  %7 = load %"class.mojo::StructPtr.81"*, %"class.mojo::StructPtr.81"** %6, align 8
  %8 = icmp eq %"class.mojo::StructPtr.81"* %7, null
  br i1 %8, label %17, label %9

9:                                                ; preds = %5
  %10 = getelementptr inbounds %"class.mojo::StructPtr.81", %"class.mojo::StructPtr.81"* %7, i64 0, i32 0, i32 0, i32 0, i32 0
  %11 = load %"class.media_router::mojom::CastProviderState"*, %"class.media_router::mojom::CastProviderState"** %10, align 8
  store %"class.media_router::mojom::CastProviderState"* null, %"class.media_router::mojom::CastProviderState"** %10, align 8
  %12 = icmp eq %"class.media_router::mojom::CastProviderState"* %11, null
  br i1 %12, label %15, label %13

13:                                               ; preds = %9
  tail call void @_ZN12media_router5mojom17CastProviderStateD2Ev(%"class.media_router::mojom::CastProviderState"* nonnull %11) #13
  %14 = bitcast %"class.media_router::mojom::CastProviderState"* %11 to i8*
  tail call void @_ZdlPv(i8* %14) #14
  br label %15

15:                                               ; preds = %9, %13
  %16 = bitcast %"class.mojo::StructPtr.81"* %7 to i8*
  tail call void @_ZdlPv(i8* %16) #14
  br label %17

17:                                               ; preds = %5, %15, %1
  ret void
}

; Function Attrs: nounwind ssp uwtable
define hidden void @_ZN12media_router5mojom13ProviderState23set_cast_provider_stateEN4mojo9StructPtrINS0_17CastProviderStateEEE(%"class.media_router::mojom::ProviderState"* nocapture, %"class.mojo::StructPtr.81"* nocapture) local_unnamed_addr #0 align 2 {
  %3 = getelementptr inbounds %"class.media_router::mojom::ProviderState", %"class.media_router::mojom::ProviderState"* %0, i64 0, i32 0
  %4 = load i32, i32* %3, align 8
  %5 = icmp eq i32 %4, 0
  br i1 %5, label %6, label %23

6:                                                ; preds = %2
  %7 = getelementptr inbounds %"class.media_router::mojom::ProviderState", %"class.media_router::mojom::ProviderState"* %0, i64 0, i32 1, i32 0
  %8 = load %"class.mojo::StructPtr.81"*, %"class.mojo::StructPtr.81"** %7, align 8
  %9 = getelementptr inbounds %"class.mojo::StructPtr.81", %"class.mojo::StructPtr.81"* %8, i64 0, i32 0, i32 0, i32 0, i32 0
  %10 = load %"class.media_router::mojom::CastProviderState"*, %"class.media_router::mojom::CastProviderState"** %9, align 8
  store %"class.media_router::mojom::CastProviderState"* null, %"class.media_router::mojom::CastProviderState"** %9, align 8
  %11 = icmp eq %"class.media_router::mojom::CastProviderState"* %10, null
  br i1 %11, label %12, label %14

12:                                               ; preds = %6
  %13 = bitcast %"class.mojo::StructPtr.81"* %8 to i64*
  br label %18

14:                                               ; preds = %6
  tail call void @_ZN12media_router5mojom17CastProviderStateD2Ev(%"class.media_router::mojom::CastProviderState"* nonnull %10) #13
  %15 = bitcast %"class.media_router::mojom::CastProviderState"* %10 to i8*
  tail call void @_ZdlPv(i8* %15) #14
  %16 = bitcast %"class.mojo::StructPtr.81"* %8 to i64*
  %17 = load i64, i64* %16, align 8
  br label %18

18:                                               ; preds = %12, %14
  %19 = phi i64* [ %13, %12 ], [ %16, %14 ]
  %20 = phi i64 [ 0, %12 ], [ %17, %14 ]
  %21 = bitcast %"class.mojo::StructPtr.81"* %1 to i64*
  %22 = load i64, i64* %21, align 8
  store i64 %22, i64* %19, align 8
  store i64 %20, i64* %21, align 8
  br label %30

23:                                               ; preds = %2
  store i32 0, i32* %3, align 8
  %24 = tail call i8* @_Znwm(i64 8) #14
  %25 = bitcast i8* %24 to i64*
  %26 = bitcast %"class.mojo::StructPtr.81"* %1 to i64*
  %27 = load i64, i64* %26, align 8
  store i64 %27, i64* %25, align 8
  store i64 0, i64* %26, align 8
  %28 = getelementptr inbounds %"class.media_router::mojom::ProviderState", %"class.media_router::mojom::ProviderState"* %0, i64 0, i32 1, i32 0
  %29 = bitcast %"class.mojo::StructPtr.81"** %28 to i8**
  store i8* %24, i8** %29, align 8
  br label %30

30:                                               ; preds = %23, %18
  ret void
}

; Function Attrs: nounwind ssp uwtable
define hidden zeroext i1 @_ZN12media_router5mojom13ProviderState8ValidateEPKvPN4mojo8internal17ValidationContextE(i8*, %"class.mojo::internal::ValidationContext"*) local_unnamed_addr #0 align 2 {
  %3 = tail call zeroext i1 @_ZN12media_router5mojom8internal18ProviderState_Data8ValidateEPKvPN4mojo8internal17ValidationContextEb(i8* %0, %"class.mojo::internal::ValidationContext"* %1, i1 zeroext false) #13
  ret i1 %3
}

declare zeroext i1 @_ZN12media_router5mojom8internal18ProviderState_Data8ValidateEPKvPN4mojo8internal17ValidationContextEb(i8*, %"class.mojo::internal::ValidationContext"*, i1 zeroext) local_unnamed_addr #2

; Function Attrs: nofree norecurse nounwind ssp uwtable writeonly
define hidden void @_ZN12media_router5mojom23MediaRouteProviderProxyC2EPN4mojo28MessageReceiverWithResponderE(%"class.media_router::mojom::MediaRouteProviderProxy"* nocapture, %"class.mojo::MessageReceiverWithResponder"*) unnamed_addr #4 align 2 {
  %3 = getelementptr inbounds %"class.media_router::mojom::MediaRouteProviderProxy", %"class.media_router::mojom::MediaRouteProviderProxy"* %0, i64 0, i32 0, i32 0
  store i32 (...)** bitcast (i8** getelementptr inbounds ({ [21 x i8*] }, { [21 x i8*] }* @_ZTVN12media_router5mojom23MediaRouteProviderProxyE, i64 0, inrange i32 0, i64 2) to i32 (...)**), i32 (...)*** %3, align 8
  %4 = getelementptr inbounds %"class.media_router::mojom::MediaRouteProviderProxy", %"class.media_router::mojom::MediaRouteProviderProxy"* %0, i64 0, i32 1
  store %"class.mojo::MessageReceiverWithResponder"* %1, %"class.mojo::MessageReceiverWithResponder"** %4, align 8
  ret void
}

; Function Attrs: nounwind ssp uwtable
define hidden void @_ZN12media_router5mojom23MediaRouteProviderProxy11CreateRouteERKNSt3__112basic_stringIcNS2_11char_traitsIcEENS2_9allocatorIcEEEESA_SA_RKN3url6OriginEiN4base9TimeDeltaEbNSF_12OnceCallbackIFvRKN4absl8optionalINS_10MediaRouteEEEN4mojo9StructPtrINS0_27RoutePresentationConnectionEEERKNSJ_IS8_EENS_18RouteRequestResult10ResultCodeEEEE(%"class.media_router::mojom::MediaRouteProviderProxy"* nocapture readonly, %"class.std::__1::basic_string"* dereferenceable(24), %"class.std::__1::basic_string"* dereferenceable(24), %"class.std::__1::basic_string"* dereferenceable(24), %"class.url::Origin"* dereferenceable(80), i32, i64, i1 zeroext, %"class.base::OnceCallback"* nocapture) unnamed_addr #0 align 2 {
  %10 = alloca %"class.base::TimeDelta", align 8
  %11 = alloca %"class.mojo::Message", align 8
  %12 = alloca %"class.mojo::internal::MessageFragment.93", align 8
  %13 = alloca %"class.mojo::internal::MessageFragment.93", align 8
  %14 = alloca %"class.mojo::internal::MessageFragment.93", align 8
  %15 = alloca %"class.mojo::internal::MessageFragment.96", align 8
  %16 = alloca %"class.base::OnceCallback", align 8
  %17 = getelementptr inbounds %"class.base::TimeDelta", %"class.base::TimeDelta"* %10, i64 0, i32 0
  store i64 %6, i64* %17, align 8
  %18 = zext i1 %7 to i8
  %19 = bitcast %"class.mojo::Message"* %11 to i8*
  call void @llvm.lifetime.start.p0i8(i64 120, i8* nonnull %19) #13
  call void @llvm.memset.p0i8.i64(i8* nonnull align 8 %19, i8 -86, i64 120, i1 false)
  call void @_ZN4mojo7MessageC1EjjmmPNSt3__16vectorINS_16ScopedHandleBaseINS_6HandleEEENS1_9allocatorIS5_EEEE(%"class.mojo::Message"* nonnull %11, i32 549903834, i32 1, i64 0, i64 0, %"class.std::__1::vector"* null) #13
  %20 = getelementptr inbounds %"class.mojo::Message", %"class.mojo::Message"* %11, i64 0, i32 1
  %21 = call i64 @_ZN4mojo8internal6Buffer8AllocateEm(%"class.mojo::internal::Buffer"* %20, i64 56) #13
  %22 = getelementptr inbounds %"class.mojo::Message", %"class.mojo::Message"* %11, i64 0, i32 1, i32 2
  %23 = load i8*, i8** %22, align 8
  %24 = getelementptr inbounds i8, i8* %23, i64 %21
  %25 = bitcast i8* %24 to %"class.media_router::mojom::internal::MediaRouteProvider_CreateRoute_Params_Data"*
  call void @_ZN12media_router5mojom8internal42MediaRouteProvider_CreateRoute_Params_DataC1Ev(%"class.media_router::mojom::internal::MediaRouteProvider_CreateRoute_Params_Data"* %25) #13
  %26 = bitcast %"class.mojo::internal::MessageFragment.93"* %12 to i8*
  call void @llvm.lifetime.start.p0i8(i64 16, i8* nonnull %26) #13
  %27 = getelementptr inbounds %"class.mojo::internal::MessageFragment.93", %"class.mojo::internal::MessageFragment.93"* %12, i64 0, i32 0
  %28 = getelementptr inbounds %"class.mojo::internal::MessageFragment.93", %"class.mojo::internal::MessageFragment.93"* %12, i64 0, i32 1
  store %"class.mojo::Message"* %11, %"class.mojo::Message"** %27, align 8
  store i64 -1, i64* %28, align 8
  call void @_ZN4mojo8internal10SerializerINS_14StringDataViewEKNSt3__112basic_stringIcNS3_11char_traitsIcEENS3_9allocatorIcEEEEE9SerializeERSA_RNS0_15MessageFragmentINS0_10Array_DataIcEEEE(%"class.std::__1::basic_string"* dereferenceable(24) %1, %"class.mojo::internal::MessageFragment.93"* nonnull dereferenceable(16) %12) #13
  %29 = load i8*, i8** %22, align 8
  %30 = getelementptr inbounds i8, i8* %29, i64 %21
  %31 = getelementptr inbounds i8, i8* %30, i64 8
  %32 = load i64, i64* %28, align 8
  %33 = icmp eq i64 %32, -1
  br i1 %33, label %40, label %34

34:                                               ; preds = %9
  %35 = load %"class.mojo::Message"*, %"class.mojo::Message"** %27, align 8
  %36 = getelementptr inbounds %"class.mojo::Message", %"class.mojo::Message"* %35, i64 0, i32 1, i32 2
  %37 = load i8*, i8** %36, align 8
  %38 = getelementptr inbounds i8, i8* %37, i64 %32
  %39 = bitcast i8* %38 to %"class.mojo::internal::Array_Data"*
  br label %40

40:                                               ; preds = %9, %34
  %41 = phi %"class.mojo::internal::Array_Data"* [ %39, %34 ], [ null, %9 ]
  %42 = bitcast i8* %31 to i64*
  %43 = icmp eq %"class.mojo::internal::Array_Data"* %41, null
  %44 = ptrtoint %"class.mojo::internal::Array_Data"* %41 to i64
  %45 = ptrtoint i8* %31 to i64
  %46 = sub i64 %44, %45
  %47 = select i1 %43, i64 0, i64 %46
  store i64 %47, i64* %42, align 8
  %48 = bitcast %"class.mojo::internal::MessageFragment.93"* %13 to i8*
  call void @llvm.lifetime.start.p0i8(i64 16, i8* nonnull %48) #13
  %49 = getelementptr inbounds %"class.mojo::internal::MessageFragment.93", %"class.mojo::internal::MessageFragment.93"* %13, i64 0, i32 0
  %50 = getelementptr inbounds %"class.mojo::internal::MessageFragment.93", %"class.mojo::internal::MessageFragment.93"* %13, i64 0, i32 1
  store %"class.mojo::Message"* %11, %"class.mojo::Message"** %49, align 8
  store i64 -1, i64* %50, align 8
  call void @_ZN4mojo8internal10SerializerINS_14StringDataViewEKNSt3__112basic_stringIcNS3_11char_traitsIcEENS3_9allocatorIcEEEEE9SerializeERSA_RNS0_15MessageFragmentINS0_10Array_DataIcEEEE(%"class.std::__1::basic_string"* dereferenceable(24) %2, %"class.mojo::internal::MessageFragment.93"* nonnull dereferenceable(16) %13) #13
  %51 = load i8*, i8** %22, align 8
  %52 = getelementptr inbounds i8, i8* %51, i64 %21
  %53 = getelementptr inbounds i8, i8* %52, i64 16
  %54 = load i64, i64* %50, align 8
  %55 = icmp eq i64 %54, -1
  br i1 %55, label %62, label %56

56:                                               ; preds = %40
  %57 = load %"class.mojo::Message"*, %"class.mojo::Message"** %49, align 8
  %58 = getelementptr inbounds %"class.mojo::Message", %"class.mojo::Message"* %57, i64 0, i32 1, i32 2
  %59 = load i8*, i8** %58, align 8
  %60 = getelementptr inbounds i8, i8* %59, i64 %54
  %61 = bitcast i8* %60 to %"class.mojo::internal::Array_Data"*
  br label %62

62:                                               ; preds = %40, %56
  %63 = phi %"class.mojo::internal::Array_Data"* [ %61, %56 ], [ null, %40 ]
  %64 = bitcast i8* %53 to i64*
  %65 = icmp eq %"class.mojo::internal::Array_Data"* %63, null
  %66 = ptrtoint %"class.mojo::internal::Array_Data"* %63 to i64
  %67 = ptrtoint i8* %53 to i64
  %68 = sub i64 %66, %67
  %69 = select i1 %65, i64 0, i64 %68
  store i64 %69, i64* %64, align 8
  %70 = bitcast %"class.mojo::internal::MessageFragment.93"* %14 to i8*
  call void @llvm.lifetime.start.p0i8(i64 16, i8* nonnull %70) #13
  %71 = getelementptr inbounds %"class.mojo::internal::MessageFragment.93", %"class.mojo::internal::MessageFragment.93"* %14, i64 0, i32 0
  %72 = getelementptr inbounds %"class.mojo::internal::MessageFragment.93", %"class.mojo::internal::MessageFragment.93"* %14, i64 0, i32 1
  store %"class.mojo::Message"* %11, %"class.mojo::Message"** %71, align 8
  store i64 -1, i64* %72, align 8
  call void @_ZN4mojo8internal10SerializerINS_14StringDataViewEKNSt3__112basic_stringIcNS3_11char_traitsIcEENS3_9allocatorIcEEEEE9SerializeERSA_RNS0_15MessageFragmentINS0_10Array_DataIcEEEE(%"class.std::__1::basic_string"* dereferenceable(24) %3, %"class.mojo::internal::MessageFragment.93"* nonnull dereferenceable(16) %14) #13
  %73 = load i8*, i8** %22, align 8
  %74 = getelementptr inbounds i8, i8* %73, i64 %21
  %75 = getelementptr inbounds i8, i8* %74, i64 24
  %76 = load i64, i64* %72, align 8
  %77 = icmp eq i64 %76, -1
  br i1 %77, label %84, label %78

78:                                               ; preds = %62
  %79 = load %"class.mojo::Message"*, %"class.mojo::Message"** %71, align 8
  %80 = getelementptr inbounds %"class.mojo::Message", %"class.mojo::Message"* %79, i64 0, i32 1, i32 2
  %81 = load i8*, i8** %80, align 8
  %82 = getelementptr inbounds i8, i8* %81, i64 %76
  %83 = bitcast i8* %82 to %"class.mojo::internal::Array_Data"*
  br label %84

84:                                               ; preds = %62, %78
  %85 = phi %"class.mojo::internal::Array_Data"* [ %83, %78 ], [ null, %62 ]
  %86 = bitcast i8* %75 to i64*
  %87 = icmp eq %"class.mojo::internal::Array_Data"* %85, null
  %88 = ptrtoint %"class.mojo::internal::Array_Data"* %85 to i64
  %89 = ptrtoint i8* %75 to i64
  %90 = sub i64 %88, %89
  %91 = select i1 %87, i64 0, i64 %90
  store i64 %91, i64* %86, align 8
  %92 = bitcast %"class.mojo::internal::MessageFragment.96"* %15 to i8*
  call void @llvm.lifetime.start.p0i8(i64 16, i8* nonnull %92) #13
  %93 = getelementptr inbounds %"class.mojo::internal::MessageFragment.96", %"class.mojo::internal::MessageFragment.96"* %15, i64 0, i32 0
  %94 = getelementptr inbounds %"class.mojo::internal::MessageFragment.96", %"class.mojo::internal::MessageFragment.96"* %15, i64 0, i32 1
  store %"class.mojo::Message"* %11, %"class.mojo::Message"** %93, align 8
  store i64 -1, i64* %94, align 8
  call void @_ZN4mojo8internal10SerializerIN3url5mojom14OriginDataViewEKNS2_6OriginEE9SerializeERS6_RNS0_15MessageFragmentINS3_8internal11Origin_DataEEE(%"class.url::Origin"* dereferenceable(80) %4, %"class.mojo::internal::MessageFragment.96"* nonnull dereferenceable(16) %15) #13
  %95 = load i8*, i8** %22, align 8
  %96 = getelementptr inbounds i8, i8* %95, i64 %21
  %97 = getelementptr inbounds i8, i8* %96, i64 32
  %98 = load i64, i64* %94, align 8
  %99 = icmp eq i64 %98, -1
  br i1 %99, label %106, label %100

100:                                              ; preds = %84
  %101 = load %"class.mojo::Message"*, %"class.mojo::Message"** %93, align 8
  %102 = getelementptr inbounds %"class.mojo::Message", %"class.mojo::Message"* %101, i64 0, i32 1, i32 2
  %103 = load i8*, i8** %102, align 8
  %104 = getelementptr inbounds i8, i8* %103, i64 %98
  %105 = bitcast i8* %104 to %"class.url::mojom::internal::Origin_Data"*
  br label %106

106:                                              ; preds = %84, %100
  %107 = phi %"class.url::mojom::internal::Origin_Data"* [ %105, %100 ], [ null, %84 ]
  %108 = bitcast i8* %97 to i64*
  %109 = icmp eq %"class.url::mojom::internal::Origin_Data"* %107, null
  %110 = ptrtoint %"class.url::mojom::internal::Origin_Data"* %107 to i64
  %111 = ptrtoint i8* %97 to i64
  %112 = sub i64 %110, %111
  %113 = select i1 %109, i64 0, i64 %112
  store i64 %113, i64* %108, align 8
  %114 = load i8*, i8** %22, align 8
  %115 = getelementptr inbounds i8, i8* %114, i64 %21
  %116 = getelementptr inbounds i8, i8* %115, i64 40
  %117 = bitcast i8* %116 to i32*
  store i32 %5, i32* %117, align 4
  %118 = call i64 @_ZN4mojo8internal6Buffer8AllocateEm(%"class.mojo::internal::Buffer"* %20, i64 16) #13
  %119 = load i8*, i8** %22, align 8
  %120 = getelementptr inbounds i8, i8* %119, i64 %118
  %121 = bitcast i8* %120 to %"class.mojo_base::mojom::internal::TimeDelta_Data"*
  call void @_ZN9mojo_base5mojom8internal14TimeDelta_DataC1Ev(%"class.mojo_base::mojom::internal::TimeDelta_Data"* %121) #13
  %122 = call i64 @_ZN4mojo12StructTraitsIN9mojo_base5mojom17TimeDeltaDataViewEN4base9TimeDeltaEE12microsecondsERKS5_(%"class.base::TimeDelta"* nonnull dereferenceable(8) %10) #13
  %123 = load i8*, i8** %22, align 8
  %124 = getelementptr inbounds i8, i8* %123, i64 %118
  %125 = getelementptr inbounds i8, i8* %124, i64 8
  %126 = bitcast i8* %125 to i64*
  store i64 %122, i64* %126, align 1
  %127 = load i8*, i8** %22, align 8
  %128 = getelementptr inbounds i8, i8* %127, i64 %21
  %129 = getelementptr inbounds i8, i8* %128, i64 48
  %130 = icmp eq i64 %118, -1
  %131 = getelementptr inbounds i8, i8* %127, i64 %118
  %132 = bitcast i8* %131 to %"class.mojo_base::mojom::internal::TimeDelta_Data"*
  %133 = select i1 %130, %"class.mojo_base::mojom::internal::TimeDelta_Data"* null, %"class.mojo_base::mojom::internal::TimeDelta_Data"* %132
  %134 = bitcast i8* %129 to i64*
  %135 = icmp eq %"class.mojo_base::mojom::internal::TimeDelta_Data"* %133, null
  %136 = ptrtoint %"class.mojo_base::mojom::internal::TimeDelta_Data"* %133 to i64
  %137 = ptrtoint i8* %129 to i64
  %138 = sub i64 %136, %137
  %139 = select i1 %135, i64 0, i64 %138
  store i64 %139, i64* %134, align 8
  %140 = load i8*, i8** %22, align 8
  %141 = getelementptr inbounds i8, i8* %140, i64 %21
  %142 = getelementptr inbounds i8, i8* %141, i64 44
  %143 = load i8, i8* %142, align 4
  %144 = and i8 %143, -2
  %145 = or i8 %144, %18
  store i8 %145, i8* %142, align 4
  %146 = call i8* @_Znwm(i64 16) #14
  %147 = getelementptr inbounds %"class.base::OnceCallback", %"class.base::OnceCallback"* %8, i64 0, i32 0, i32 0, i32 0
  %148 = bitcast %"class.base::OnceCallback"* %8 to i64*
  %149 = load i64, i64* %148, align 8
  store %"class.base::internal::BindStateBase"* null, %"class.base::internal::BindStateBase"** %147, align 8
  %150 = bitcast i8* %146 to i32 (...)***
  store i32 (...)** bitcast (i8** getelementptr inbounds ({ [6 x i8*] }, { [6 x i8*] }* @_ZTVN12media_router5mojom48MediaRouteProvider_CreateRoute_ForwardToCallbackE, i64 0, inrange i32 0, i64 2) to i32 (...)**), i32 (...)*** %150, align 8
  %151 = getelementptr inbounds i8, i8* %146, i64 8
  %152 = getelementptr inbounds %"class.base::OnceCallback", %"class.base::OnceCallback"* %16, i64 0, i32 0, i32 0, i32 0
  %153 = bitcast i8* %151 to i64*
  store i64 %149, i64* %153, align 8
  store %"class.base::internal::BindStateBase"* null, %"class.base::internal::BindStateBase"** %152, align 8
  %154 = bitcast i8* %146 to %"class.mojo::MessageReceiver"*
  %155 = getelementptr inbounds %"class.base::OnceCallback", %"class.base::OnceCallback"* %16, i64 0, i32 0
  call void @_ZN4base8internal12CallbackBaseD2Ev(%"class.base::internal::CallbackBase"* nonnull %155) #13
  %156 = getelementptr inbounds %"class.media_router::mojom::MediaRouteProviderProxy", %"class.media_router::mojom::MediaRouteProviderProxy"* %0, i64 0, i32 1
  %157 = load %"class.mojo::MessageReceiverWithResponder"*, %"class.mojo::MessageReceiverWithResponder"** %156, align 8
  %158 = bitcast %"class.mojo::MessageReceiverWithResponder"* %157 to i1 (%"class.mojo::MessageReceiverWithResponder"*, %"class.mojo::Message"*, %"class.mojo::MessageReceiver"*)***
  %159 = load i1 (%"class.mojo::MessageReceiverWithResponder"*, %"class.mojo::Message"*, %"class.mojo::MessageReceiver"*)**, i1 (%"class.mojo::MessageReceiverWithResponder"*, %"class.mojo::Message"*, %"class.mojo::MessageReceiver"*)*** %158, align 8
  %160 = getelementptr inbounds i1 (%"class.mojo::MessageReceiverWithResponder"*, %"class.mojo::Message"*, %"class.mojo::MessageReceiver"*)*, i1 (%"class.mojo::MessageReceiverWithResponder"*, %"class.mojo::Message"*, %"class.mojo::MessageReceiver"*)** %159, i64 4
  %161 = load i1 (%"class.mojo::MessageReceiverWithResponder"*, %"class.mojo::Message"*, %"class.mojo::MessageReceiver"*)*, i1 (%"class.mojo::MessageReceiverWithResponder"*, %"class.mojo::Message"*, %"class.mojo::MessageReceiver"*)** %160, align 8
  %162 = call zeroext i1 %161(%"class.mojo::MessageReceiverWithResponder"* %157, %"class.mojo::Message"* nonnull %11, %"class.mojo::MessageReceiver"* nonnull %154) #13
  call void @llvm.lifetime.end.p0i8(i64 16, i8* nonnull %92) #13
  call void @llvm.lifetime.end.p0i8(i64 16, i8* nonnull %70) #13
  call void @llvm.lifetime.end.p0i8(i64 16, i8* nonnull %48) #13
  call void @llvm.lifetime.end.p0i8(i64 16, i8* nonnull %26) #13
  call void @_ZN4mojo7MessageD1Ev(%"class.mojo::Message"* nonnull %11) #13
  call void @llvm.lifetime.end.p0i8(i64 120, i8* nonnull %19) #13
  ret void
}

declare void @_ZN4mojo7MessageC1EjjmmPNSt3__16vectorINS_16ScopedHandleBaseINS_6HandleEEENS1_9allocatorIS5_EEEE(%"class.mojo::Message"*, i32, i32, i64, i64, %"class.std::__1::vector"*) unnamed_addr #2

; Function Attrs: nounwind
declare void @_ZN4base8internal12CallbackBaseD2Ev(%"class.base::internal::CallbackBase"*) unnamed_addr #3

; Function Attrs: nounwind
declare void @_ZN4mojo7MessageD1Ev(%"class.mojo::Message"*) unnamed_addr #3

; Function Attrs: nounwind ssp uwtable
define hidden void @_ZN12media_router5mojom23MediaRouteProviderProxy9JoinRouteERKNSt3__112basic_stringIcNS2_11char_traitsIcEENS2_9allocatorIcEEEESA_RKN3url6OriginEiN4base9TimeDeltaEbNSF_12OnceCallbackIFvRKN4absl8optionalINS_10MediaRouteEEEN4mojo9StructPtrINS0_27RoutePresentationConnectionEEERKNSJ_IS8_EENS_18RouteRequestResult10ResultCodeEEEE(%"class.media_router::mojom::MediaRouteProviderProxy"* nocapture readonly, %"class.std::__1::basic_string"* dereferenceable(24), %"class.std::__1::basic_string"* dereferenceable(24), %"class.url::Origin"* dereferenceable(80), i32, i64, i1 zeroext, %"class.base::OnceCallback"* nocapture) unnamed_addr #0 align 2 {
  %9 = alloca %"class.base::TimeDelta", align 8
  %10 = alloca %"class.mojo::Message", align 8
  %11 = alloca %"class.mojo::internal::MessageFragment.93", align 8
  %12 = alloca %"class.mojo::internal::MessageFragment.93", align 8
  %13 = alloca %"class.mojo::internal::MessageFragment.96", align 8
  %14 = alloca %"class.base::OnceCallback", align 8
  %15 = getelementptr inbounds %"class.base::TimeDelta", %"class.base::TimeDelta"* %9, i64 0, i32 0
  store i64 %5, i64* %15, align 8
  %16 = zext i1 %6 to i8
  %17 = bitcast %"class.mojo::Message"* %10 to i8*
  call void @llvm.lifetime.start.p0i8(i64 120, i8* nonnull %17) #13
  call void @llvm.memset.p0i8.i64(i8* nonnull align 8 %17, i8 -86, i64 120, i1 false)
  call void @_ZN4mojo7MessageC1EjjmmPNSt3__16vectorINS_16ScopedHandleBaseINS_6HandleEEENS1_9allocatorIS5_EEEE(%"class.mojo::Message"* nonnull %10, i32 358600210, i32 1, i64 0, i64 0, %"class.std::__1::vector"* null) #13
  %18 = getelementptr inbounds %"class.mojo::Message", %"class.mojo::Message"* %10, i64 0, i32 1
  %19 = call i64 @_ZN4mojo8internal6Buffer8AllocateEm(%"class.mojo::internal::Buffer"* %18, i64 48) #13
  %20 = getelementptr inbounds %"class.mojo::Message", %"class.mojo::Message"* %10, i64 0, i32 1, i32 2
  %21 = load i8*, i8** %20, align 8
  %22 = getelementptr inbounds i8, i8* %21, i64 %19
  %23 = bitcast i8* %22 to %"class.media_router::mojom::internal::MediaRouteProvider_JoinRoute_Params_Data"*
  call void @_ZN12media_router5mojom8internal40MediaRouteProvider_JoinRoute_Params_DataC1Ev(%"class.media_router::mojom::internal::MediaRouteProvider_JoinRoute_Params_Data"* %23) #13
  %24 = bitcast %"class.mojo::internal::MessageFragment.93"* %11 to i8*
  call void @llvm.lifetime.start.p0i8(i64 16, i8* nonnull %24) #13
  %25 = getelementptr inbounds %"class.mojo::internal::MessageFragment.93", %"class.mojo::internal::MessageFragment.93"* %11, i64 0, i32 0
  %26 = getelementptr inbounds %"class.mojo::internal::MessageFragment.93", %"class.mojo::internal::MessageFragment.93"* %11, i64 0, i32 1
  store %"class.mojo::Message"* %10, %"class.mojo::Message"** %25, align 8
  store i64 -1, i64* %26, align 8
  call void @_ZN4mojo8internal10SerializerINS_14StringDataViewEKNSt3__112basic_stringIcNS3_11char_traitsIcEENS3_9allocatorIcEEEEE9SerializeERSA_RNS0_15MessageFragmentINS0_10Array_DataIcEEEE(%"class.std::__1::basic_string"* dereferenceable(24) %1, %"class.mojo::internal::MessageFragment.93"* nonnull dereferenceable(16) %11) #13
  %27 = load i8*, i8** %20, align 8
  %28 = getelementptr inbounds i8, i8* %27, i64 %19
  %29 = getelementptr inbounds i8, i8* %28, i64 8
  %30 = load i64, i64* %26, align 8
  %31 = icmp eq i64 %30, -1
  br i1 %31, label %38, label %32

32:                                               ; preds = %8
  %33 = load %"class.mojo::Message"*, %"class.mojo::Message"** %25, align 8
  %34 = getelementptr inbounds %"class.mojo::Message", %"class.mojo::Message"* %33, i64 0, i32 1, i32 2
  %35 = load i8*, i8** %34, align 8
  %36 = getelementptr inbounds i8, i8* %35, i64 %30
  %37 = bitcast i8* %36 to %"class.mojo::internal::Array_Data"*
  br label %38

38:                                               ; preds = %8, %32
  %39 = phi %"class.mojo::internal::Array_Data"* [ %37, %32 ], [ null, %8 ]
  %40 = bitcast i8* %29 to i64*
  %41 = icmp eq %"class.mojo::internal::Array_Data"* %39, null
  %42 = ptrtoint %"class.mojo::internal::Array_Data"* %39 to i64
  %43 = ptrtoint i8* %29 to i64
  %44 = sub i64 %42, %43
  %45 = select i1 %41, i64 0, i64 %44
  store i64 %45, i64* %40, align 8
  %46 = bitcast %"class.mojo::internal::MessageFragment.93"* %12 to i8*
  call void @llvm.lifetime.start.p0i8(i64 16, i8* nonnull %46) #13
  %47 = getelementptr inbounds %"class.mojo::internal::MessageFragment.93", %"class.mojo::internal::MessageFragment.93"* %12, i64 0, i32 0
  %48 = getelementptr inbounds %"class.mojo::internal::MessageFragment.93", %"class.mojo::internal::MessageFragment.93"* %12, i64 0, i32 1
  store %"class.mojo::Message"* %10, %"class.mojo::Message"** %47, align 8
  store i64 -1, i64* %48, align 8
  call void @_ZN4mojo8internal10SerializerINS_14StringDataViewEKNSt3__112basic_stringIcNS3_11char_traitsIcEENS3_9allocatorIcEEEEE9SerializeERSA_RNS0_15MessageFragmentINS0_10Array_DataIcEEEE(%"class.std::__1::basic_string"* dereferenceable(24) %2, %"class.mojo::internal::MessageFragment.93"* nonnull dereferenceable(16) %12) #13
  %49 = load i8*, i8** %20, align 8
  %50 = getelementptr inbounds i8, i8* %49, i64 %19
  %51 = getelementptr inbounds i8, i8* %50, i64 16
  %52 = load i64, i64* %48, align 8
  %53 = icmp eq i64 %52, -1
  br i1 %53, label %60, label %54

54:                                               ; preds = %38
  %55 = load %"class.mojo::Message"*, %"class.mojo::Message"** %47, align 8
  %56 = getelementptr inbounds %"class.mojo::Message", %"class.mojo::Message"* %55, i64 0, i32 1, i32 2
  %57 = load i8*, i8** %56, align 8
  %58 = getelementptr inbounds i8, i8* %57, i64 %52
  %59 = bitcast i8* %58 to %"class.mojo::internal::Array_Data"*
  br label %60

60:                                               ; preds = %38, %54
  %61 = phi %"class.mojo::internal::Array_Data"* [ %59, %54 ], [ null, %38 ]
  %62 = bitcast i8* %51 to i64*
  %63 = icmp eq %"class.mojo::internal::Array_Data"* %61, null
  %64 = ptrtoint %"class.mojo::internal::Array_Data"* %61 to i64
  %65 = ptrtoint i8* %51 to i64
  %66 = sub i64 %64, %65
  %67 = select i1 %63, i64 0, i64 %66
  store i64 %67, i64* %62, align 8
  %68 = bitcast %"class.mojo::internal::MessageFragment.96"* %13 to i8*
  call void @llvm.lifetime.start.p0i8(i64 16, i8* nonnull %68) #13
  %69 = getelementptr inbounds %"class.mojo::internal::MessageFragment.96", %"class.mojo::internal::MessageFragment.96"* %13, i64 0, i32 0
  %70 = getelementptr inbounds %"class.mojo::internal::MessageFragment.96", %"class.mojo::internal::MessageFragment.96"* %13, i64 0, i32 1
  store %"class.mojo::Message"* %10, %"class.mojo::Message"** %69, align 8
  store i64 -1, i64* %70, align 8
  call void @_ZN4mojo8internal10SerializerIN3url5mojom14OriginDataViewEKNS2_6OriginEE9SerializeERS6_RNS0_15MessageFragmentINS3_8internal11Origin_DataEEE(%"class.url::Origin"* dereferenceable(80) %3, %"class.mojo::internal::MessageFragment.96"* nonnull dereferenceable(16) %13) #13
  %71 = load i8*, i8** %20, align 8
  %72 = getelementptr inbounds i8, i8* %71, i64 %19
  %73 = getelementptr inbounds i8, i8* %72, i64 24
  %74 = load i64, i64* %70, align 8
  %75 = icmp eq i64 %74, -1
  br i1 %75, label %82, label %76

76:                                               ; preds = %60
  %77 = load %"class.mojo::Message"*, %"class.mojo::Message"** %69, align 8
  %78 = getelementptr inbounds %"class.mojo::Message", %"class.mojo::Message"* %77, i64 0, i32 1, i32 2
  %79 = load i8*, i8** %78, align 8
  %80 = getelementptr inbounds i8, i8* %79, i64 %74
  %81 = bitcast i8* %80 to %"class.url::mojom::internal::Origin_Data"*
  br label %82

82:                                               ; preds = %60, %76
  %83 = phi %"class.url::mojom::internal::Origin_Data"* [ %81, %76 ], [ null, %60 ]
  %84 = bitcast i8* %73 to i64*
  %85 = icmp eq %"class.url::mojom::internal::Origin_Data"* %83, null
  %86 = ptrtoint %"class.url::mojom::internal::Origin_Data"* %83 to i64
  %87 = ptrtoint i8* %73 to i64
  %88 = sub i64 %86, %87
  %89 = select i1 %85, i64 0, i64 %88
  store i64 %89, i64* %84, align 8
  %90 = load i8*, i8** %20, align 8
  %91 = getelementptr inbounds i8, i8* %90, i64 %19
  %92 = getelementptr inbounds i8, i8* %91, i64 32
  %93 = bitcast i8* %92 to i32*
  store i32 %4, i32* %93, align 4
  %94 = call i64 @_ZN4mojo8internal6Buffer8AllocateEm(%"class.mojo::internal::Buffer"* %18, i64 16) #13
  %95 = load i8*, i8** %20, align 8
  %96 = getelementptr inbounds i8, i8* %95, i64 %94
  %97 = bitcast i8* %96 to %"class.mojo_base::mojom::internal::TimeDelta_Data"*
  call void @_ZN9mojo_base5mojom8internal14TimeDelta_DataC1Ev(%"class.mojo_base::mojom::internal::TimeDelta_Data"* %97) #13
  %98 = call i64 @_ZN4mojo12StructTraitsIN9mojo_base5mojom17TimeDeltaDataViewEN4base9TimeDeltaEE12microsecondsERKS5_(%"class.base::TimeDelta"* nonnull dereferenceable(8) %9) #13
  %99 = load i8*, i8** %20, align 8
  %100 = getelementptr inbounds i8, i8* %99, i64 %94
  %101 = getelementptr inbounds i8, i8* %100, i64 8
  %102 = bitcast i8* %101 to i64*
  store i64 %98, i64* %102, align 1
  %103 = load i8*, i8** %20, align 8
  %104 = getelementptr inbounds i8, i8* %103, i64 %19
  %105 = getelementptr inbounds i8, i8* %104, i64 40
  %106 = icmp eq i64 %94, -1
  %107 = getelementptr inbounds i8, i8* %103, i64 %94
  %108 = bitcast i8* %107 to %"class.mojo_base::mojom::internal::TimeDelta_Data"*
  %109 = select i1 %106, %"class.mojo_base::mojom::internal::TimeDelta_Data"* null, %"class.mojo_base::mojom::internal::TimeDelta_Data"* %108
  %110 = bitcast i8* %105 to i64*
  %111 = icmp eq %"class.mojo_base::mojom::internal::TimeDelta_Data"* %109, null
  %112 = ptrtoint %"class.mojo_base::mojom::internal::TimeDelta_Data"* %109 to i64
  %113 = ptrtoint i8* %105 to i64
  %114 = sub i64 %112, %113
  %115 = select i1 %111, i64 0, i64 %114
  store i64 %115, i64* %110, align 8
  %116 = load i8*, i8** %20, align 8
  %117 = getelementptr inbounds i8, i8* %116, i64 %19
  %118 = getelementptr inbounds i8, i8* %117, i64 36
  %119 = load i8, i8* %118, align 4
  %120 = and i8 %119, -2
  %121 = or i8 %120, %16
  store i8 %121, i8* %118, align 4
  %122 = call i8* @_Znwm(i64 16) #14
  %123 = getelementptr inbounds %"class.base::OnceCallback", %"class.base::OnceCallback"* %7, i64 0, i32 0, i32 0, i32 0
  %124 = bitcast %"class.base::OnceCallback"* %7 to i64*
  %125 = load i64, i64* %124, align 8
  store %"class.base::internal::BindStateBase"* null, %"class.base::internal::BindStateBase"** %123, align 8
  %126 = bitcast i8* %122 to i32 (...)***
  store i32 (...)** bitcast (i8** getelementptr inbounds ({ [6 x i8*] }, { [6 x i8*] }* @_ZTVN12media_router5mojom46MediaRouteProvider_JoinRoute_ForwardToCallbackE, i64 0, inrange i32 0, i64 2) to i32 (...)**), i32 (...)*** %126, align 8
  %127 = getelementptr inbounds i8, i8* %122, i64 8
  %128 = getelementptr inbounds %"class.base::OnceCallback", %"class.base::OnceCallback"* %14, i64 0, i32 0, i32 0, i32 0
  %129 = bitcast i8* %127 to i64*
  store i64 %125, i64* %129, align 8
  store %"class.base::internal::BindStateBase"* null, %"class.base::internal::BindStateBase"** %128, align 8
  %130 = bitcast i8* %122 to %"class.mojo::MessageReceiver"*
  %131 = getelementptr inbounds %"class.base::OnceCallback", %"class.base::OnceCallback"* %14, i64 0, i32 0
  call void @_ZN4base8internal12CallbackBaseD2Ev(%"class.base::internal::CallbackBase"* nonnull %131) #13
  %132 = getelementptr inbounds %"class.media_router::mojom::MediaRouteProviderProxy", %"class.media_router::mojom::MediaRouteProviderProxy"* %0, i64 0, i32 1
  %133 = load %"class.mojo::MessageReceiverWithResponder"*, %"class.mojo::MessageReceiverWithResponder"** %132, align 8
  %134 = bitcast %"class.mojo::MessageReceiverWithResponder"* %133 to i1 (%"class.mojo::MessageReceiverWithResponder"*, %"class.mojo::Message"*, %"class.mojo::MessageReceiver"*)***
  %135 = load i1 (%"class.mojo::MessageReceiverWithResponder"*, %"class.mojo::Message"*, %"class.mojo::MessageReceiver"*)**, i1 (%"class.mojo::MessageReceiverWithResponder"*, %"class.mojo::Message"*, %"class.mojo::MessageReceiver"*)*** %134, align 8
  %136 = getelementptr inbounds i1 (%"class.mojo::MessageReceiverWithResponder"*, %"class.mojo::Message"*, %"class.mojo::MessageReceiver"*)*, i1 (%"class.mojo::MessageReceiverWithResponder"*, %"class.mojo::Message"*, %"class.mojo::MessageReceiver"*)** %135, i64 4
  %137 = load i1 (%"class.mojo::MessageReceiverWithResponder"*, %"class.mojo::Message"*, %"class.mojo::MessageReceiver"*)*, i1 (%"class.mojo::MessageReceiverWithResponder"*, %"class.mojo::Message"*, %"class.mojo::MessageReceiver"*)** %136, align 8
  %138 = call zeroext i1 %137(%"class.mojo::MessageReceiverWithResponder"* %133, %"class.mojo::Message"* nonnull %10, %"class.mojo::MessageReceiver"* nonnull %130) #13
  call void @llvm.lifetime.end.p0i8(i64 16, i8* nonnull %68) #13
  call void @llvm.lifetime.end.p0i8(i64 16, i8* nonnull %46) #13
  call void @llvm.lifetime.end.p0i8(i64 16, i8* nonnull %24) #13
  call void @_ZN4mojo7MessageD1Ev(%"class.mojo::Message"* nonnull %10) #13
  call void @llvm.lifetime.end.p0i8(i64 120, i8* nonnull %17) #13
  ret void
}

; Function Attrs: nounwind ssp uwtable
define hidden void @_ZN12media_router5mojom23MediaRouteProviderProxy21ConnectRouteByRouteIdERKNSt3__112basic_stringIcNS2_11char_traitsIcEENS2_9allocatorIcEEEESA_SA_RKN3url6OriginEiN4base9TimeDeltaEbNSF_12OnceCallbackIFvRKN4absl8optionalINS_10MediaRouteEEEN4mojo9StructPtrINS0_27RoutePresentationConnectionEEERKNSJ_IS8_EENS_18RouteRequestResult10ResultCodeEEEE(%"class.media_router::mojom::MediaRouteProviderProxy"* nocapture readonly, %"class.std::__1::basic_string"* dereferenceable(24), %"class.std::__1::basic_string"* dereferenceable(24), %"class.std::__1::basic_string"* dereferenceable(24), %"class.url::Origin"* dereferenceable(80), i32, i64, i1 zeroext, %"class.base::OnceCallback"* nocapture) unnamed_addr #0 align 2 {
  %10 = alloca %"class.base::TimeDelta", align 8
  %11 = alloca %"class.mojo::Message", align 8
  %12 = alloca %"class.mojo::internal::MessageFragment.93", align 8
  %13 = alloca %"class.mojo::internal::MessageFragment.93", align 8
  %14 = alloca %"class.mojo::internal::MessageFragment.93", align 8
  %15 = alloca %"class.mojo::internal::MessageFragment.96", align 8
  %16 = alloca %"class.base::OnceCallback", align 8
  %17 = getelementptr inbounds %"class.base::TimeDelta", %"class.base::TimeDelta"* %10, i64 0, i32 0
  store i64 %6, i64* %17, align 8
  %18 = zext i1 %7 to i8
  %19 = bitcast %"class.mojo::Message"* %11 to i8*
  call void @llvm.lifetime.start.p0i8(i64 120, i8* nonnull %19) #13
  call void @llvm.memset.p0i8.i64(i8* nonnull align 8 %19, i8 -86, i64 120, i1 false)
  call void @_ZN4mojo7MessageC1EjjmmPNSt3__16vectorINS_16ScopedHandleBaseINS_6HandleEEENS1_9allocatorIS5_EEEE(%"class.mojo::Message"* nonnull %11, i32 498289839, i32 1, i64 0, i64 0, %"class.std::__1::vector"* null) #13
  %20 = getelementptr inbounds %"class.mojo::Message", %"class.mojo::Message"* %11, i64 0, i32 1
  %21 = call i64 @_ZN4mojo8internal6Buffer8AllocateEm(%"class.mojo::internal::Buffer"* %20, i64 56) #13
  %22 = getelementptr inbounds %"class.mojo::Message", %"class.mojo::Message"* %11, i64 0, i32 1, i32 2
  %23 = load i8*, i8** %22, align 8
  %24 = getelementptr inbounds i8, i8* %23, i64 %21
  %25 = bitcast i8* %24 to %"class.media_router::mojom::internal::MediaRouteProvider_ConnectRouteByRouteId_Params_Data"*
  call void @_ZN12media_router5mojom8internal52MediaRouteProvider_ConnectRouteByRouteId_Params_DataC1Ev(%"class.media_router::mojom::internal::MediaRouteProvider_ConnectRouteByRouteId_Params_Data"* %25) #13
  %26 = bitcast %"class.mojo::internal::MessageFragment.93"* %12 to i8*
  call void @llvm.lifetime.start.p0i8(i64 16, i8* nonnull %26) #13
  %27 = getelementptr inbounds %"class.mojo::internal::MessageFragment.93", %"class.mojo::internal::MessageFragment.93"* %12, i64 0, i32 0
  %28 = getelementptr inbounds %"class.mojo::internal::MessageFragment.93", %"class.mojo::internal::MessageFragment.93"* %12, i64 0, i32 1
  store %"class.mojo::Message"* %11, %"class.mojo::Message"** %27, align 8
  store i64 -1, i64* %28, align 8
  call void @_ZN4mojo8internal10SerializerINS_14StringDataViewEKNSt3__112basic_stringIcNS3_11char_traitsIcEENS3_9allocatorIcEEEEE9SerializeERSA_RNS0_15MessageFragmentINS0_10Array_DataIcEEEE(%"class.std::__1::basic_string"* dereferenceable(24) %1, %"class.mojo::internal::MessageFragment.93"* nonnull dereferenceable(16) %12) #13
  %29 = load i8*, i8** %22, align 8
  %30 = getelementptr inbounds i8, i8* %29, i64 %21
  %31 = getelementptr inbounds i8, i8* %30, i64 8
  %32 = load i64, i64* %28, align 8
  %33 = icmp eq i64 %32, -1
  br i1 %33, label %40, label %34

34:                                               ; preds = %9
  %35 = load %"class.mojo::Message"*, %"class.mojo::Message"** %27, align 8
  %36 = getelementptr inbounds %"class.mojo::Message", %"class.mojo::Message"* %35, i64 0, i32 1, i32 2
  %37 = load i8*, i8** %36, align 8
  %38 = getelementptr inbounds i8, i8* %37, i64 %32
  %39 = bitcast i8* %38 to %"class.mojo::internal::Array_Data"*
  br label %40

40:                                               ; preds = %9, %34
  %41 = phi %"class.mojo::internal::Array_Data"* [ %39, %34 ], [ null, %9 ]
  %42 = bitcast i8* %31 to i64*
  %43 = icmp eq %"class.mojo::internal::Array_Data"* %41, null
  %44 = ptrtoint %"class.mojo::internal::Array_Data"* %41 to i64
  %45 = ptrtoint i8* %31 to i64
  %46 = sub i64 %44, %45
  %47 = select i1 %43, i64 0, i64 %46
  store i64 %47, i64* %42, align 8
  %48 = bitcast %"class.mojo::internal::MessageFragment.93"* %13 to i8*
  call void @llvm.lifetime.start.p0i8(i64 16, i8* nonnull %48) #13
  %49 = getelementptr inbounds %"class.mojo::internal::MessageFragment.93", %"class.mojo::internal::MessageFragment.93"* %13, i64 0, i32 0
  %50 = getelementptr inbounds %"class.mojo::internal::MessageFragment.93", %"class.mojo::internal::MessageFragment.93"* %13, i64 0, i32 1
  store %"class.mojo::Message"* %11, %"class.mojo::Message"** %49, align 8
  store i64 -1, i64* %50, align 8
  call void @_ZN4mojo8internal10SerializerINS_14StringDataViewEKNSt3__112basic_stringIcNS3_11char_traitsIcEENS3_9allocatorIcEEEEE9SerializeERSA_RNS0_15MessageFragmentINS0_10Array_DataIcEEEE(%"class.std::__1::basic_string"* dereferenceable(24) %2, %"class.mojo::internal::MessageFragment.93"* nonnull dereferenceable(16) %13) #13
  %51 = load i8*, i8** %22, align 8
  %52 = getelementptr inbounds i8, i8* %51, i64 %21
  %53 = getelementptr inbounds i8, i8* %52, i64 16
  %54 = load i64, i64* %50, align 8
  %55 = icmp eq i64 %54, -1
  br i1 %55, label %62, label %56

56:                                               ; preds = %40
  %57 = load %"class.mojo::Message"*, %"class.mojo::Message"** %49, align 8
  %58 = getelementptr inbounds %"class.mojo::Message", %"class.mojo::Message"* %57, i64 0, i32 1, i32 2
  %59 = load i8*, i8** %58, align 8
  %60 = getelementptr inbounds i8, i8* %59, i64 %54
  %61 = bitcast i8* %60 to %"class.mojo::internal::Array_Data"*
  br label %62

62:                                               ; preds = %40, %56
  %63 = phi %"class.mojo::internal::Array_Data"* [ %61, %56 ], [ null, %40 ]
  %64 = bitcast i8* %53 to i64*
  %65 = icmp eq %"class.mojo::internal::Array_Data"* %63, null
  %66 = ptrtoint %"class.mojo::internal::Array_Data"* %63 to i64
  %67 = ptrtoint i8* %53 to i64
  %68 = sub i64 %66, %67
  %69 = select i1 %65, i64 0, i64 %68
  store i64 %69, i64* %64, align 8
  %70 = bitcast %"class.mojo::internal::MessageFragment.93"* %14 to i8*
  call void @llvm.lifetime.start.p0i8(i64 16, i8* nonnull %70) #13
  %71 = getelementptr inbounds %"class.mojo::internal::MessageFragment.93", %"class.mojo::internal::MessageFragment.93"* %14, i64 0, i32 0
  %72 = getelementptr inbounds %"class.mojo::internal::MessageFragment.93", %"class.mojo::internal::MessageFragment.93"* %14, i64 0, i32 1
  store %"class.mojo::Message"* %11, %"class.mojo::Message"** %71, align 8
  store i64 -1, i64* %72, align 8
  call void @_ZN4mojo8internal10SerializerINS_14StringDataViewEKNSt3__112basic_stringIcNS3_11char_traitsIcEENS3_9allocatorIcEEEEE9SerializeERSA_RNS0_15MessageFragmentINS0_10Array_DataIcEEEE(%"class.std::__1::basic_string"* dereferenceable(24) %3, %"class.mojo::internal::MessageFragment.93"* nonnull dereferenceable(16) %14) #13
  %73 = load i8*, i8** %22, align 8
  %74 = getelementptr inbounds i8, i8* %73, i64 %21
  %75 = getelementptr inbounds i8, i8* %74, i64 24
  %76 = load i64, i64* %72, align 8
  %77 = icmp eq i64 %76, -1
  br i1 %77, label %84, label %78

78:                                               ; preds = %62
  %79 = load %"class.mojo::Message"*, %"class.mojo::Message"** %71, align 8
  %80 = getelementptr inbounds %"class.mojo::Message", %"class.mojo::Message"* %79, i64 0, i32 1, i32 2
  %81 = load i8*, i8** %80, align 8
  %82 = getelementptr inbounds i8, i8* %81, i64 %76
  %83 = bitcast i8* %82 to %"class.mojo::internal::Array_Data"*
  br label %84

84:                                               ; preds = %62, %78
  %85 = phi %"class.mojo::internal::Array_Data"* [ %83, %78 ], [ null, %62 ]
  %86 = bitcast i8* %75 to i64*
  %87 = icmp eq %"class.mojo::internal::Array_Data"* %85, null
  %88 = ptrtoint %"class.mojo::internal::Array_Data"* %85 to i64
  %89 = ptrtoint i8* %75 to i64
  %90 = sub i64 %88, %89
  %91 = select i1 %87, i64 0, i64 %90
  store i64 %91, i64* %86, align 8
  %92 = bitcast %"class.mojo::internal::MessageFragment.96"* %15 to i8*
  call void @llvm.lifetime.start.p0i8(i64 16, i8* nonnull %92) #13
  %93 = getelementptr inbounds %"class.mojo::internal::MessageFragment.96", %"class.mojo::internal::MessageFragment.96"* %15, i64 0, i32 0
  %94 = getelementptr inbounds %"class.mojo::internal::MessageFragment.96", %"class.mojo::internal::MessageFragment.96"* %15, i64 0, i32 1
  store %"class.mojo::Message"* %11, %"class.mojo::Message"** %93, align 8
  store i64 -1, i64* %94, align 8
  call void @_ZN4mojo8internal10SerializerIN3url5mojom14OriginDataViewEKNS2_6OriginEE9SerializeERS6_RNS0_15MessageFragmentINS3_8internal11Origin_DataEEE(%"class.url::Origin"* dereferenceable(80) %4, %"class.mojo::internal::MessageFragment.96"* nonnull dereferenceable(16) %15) #13
  %95 = load i8*, i8** %22, align 8
  %96 = getelementptr inbounds i8, i8* %95, i64 %21
  %97 = getelementptr inbounds i8, i8* %96, i64 32
  %98 = load i64, i64* %94, align 8
  %99 = icmp eq i64 %98, -1
  br i1 %99, label %106, label %100

100:                                              ; preds = %84
  %101 = load %"class.mojo::Message"*, %"class.mojo::Message"** %93, align 8
  %102 = getelementptr inbounds %"class.mojo::Message", %"class.mojo::Message"* %101, i64 0, i32 1, i32 2
  %103 = load i8*, i8** %102, align 8
  %104 = getelementptr inbounds i8, i8* %103, i64 %98
  %105 = bitcast i8* %104 to %"class.url::mojom::internal::Origin_Data"*
  br label %106

106:                                              ; preds = %84, %100
  %107 = phi %"class.url::mojom::internal::Origin_Data"* [ %105, %100 ], [ null, %84 ]
  %108 = bitcast i8* %97 to i64*
  %109 = icmp eq %"class.url::mojom::internal::Origin_Data"* %107, null
  %110 = ptrtoint %"class.url::mojom::internal::Origin_Data"* %107 to i64
  %111 = ptrtoint i8* %97 to i64
  %112 = sub i64 %110, %111
  %113 = select i1 %109, i64 0, i64 %112
  store i64 %113, i64* %108, align 8
  %114 = load i8*, i8** %22, align 8
  %115 = getelementptr inbounds i8, i8* %114, i64 %21
  %116 = getelementptr inbounds i8, i8* %115, i64 40
  %117 = bitcast i8* %116 to i32*
  store i32 %5, i32* %117, align 4
  %118 = call i64 @_ZN4mojo8internal6Buffer8AllocateEm(%"class.mojo::internal::Buffer"* %20, i64 16) #13
  %119 = load i8*, i8** %22, align 8
  %120 = getelementptr inbounds i8, i8* %119, i64 %118
  %121 = bitcast i8* %120 to %"class.mojo_base::mojom::internal::TimeDelta_Data"*
  call void @_ZN9mojo_base5mojom8internal14TimeDelta_DataC1Ev(%"class.mojo_base::mojom::internal::TimeDelta_Data"* %121) #13
  %122 = call i64 @_ZN4mojo12StructTraitsIN9mojo_base5mojom17TimeDeltaDataViewEN4base9TimeDeltaEE12microsecondsERKS5_(%"class.base::TimeDelta"* nonnull dereferenceable(8) %10) #13
  %123 = load i8*, i8** %22, align 8
  %124 = getelementptr inbounds i8, i8* %123, i64 %118
  %125 = getelementptr inbounds i8, i8* %124, i64 8
  %126 = bitcast i8* %125 to i64*
  store i64 %122, i64* %126, align 1
  %127 = load i8*, i8** %22, align 8
  %128 = getelementptr inbounds i8, i8* %127, i64 %21
  %129 = getelementptr inbounds i8, i8* %128, i64 48
  %130 = icmp eq i64 %118, -1
  %131 = getelementptr inbounds i8, i8* %127, i64 %118
  %132 = bitcast i8* %131 to %"class.mojo_base::mojom::internal::TimeDelta_Data"*
  %133 = select i1 %130, %"class.mojo_base::mojom::internal::TimeDelta_Data"* null, %"class.mojo_base::mojom::internal::TimeDelta_Data"* %132
  %134 = bitcast i8* %129 to i64*
  %135 = icmp eq %"class.mojo_base::mojom::internal::TimeDelta_Data"* %133, null
  %136 = ptrtoint %"class.mojo_base::mojom::internal::TimeDelta_Data"* %133 to i64
  %137 = ptrtoint i8* %129 to i64
  %138 = sub i64 %136, %137
  %139 = select i1 %135, i64 0, i64 %138
  store i64 %139, i64* %134, align 8
  %140 = load i8*, i8** %22, align 8
  %141 = getelementptr inbounds i8, i8* %140, i64 %21
  %142 = getelementptr inbounds i8, i8* %141, i64 44
  %143 = load i8, i8* %142, align 4
  %144 = and i8 %143, -2
  %145 = or i8 %144, %18
  store i8 %145, i8* %142, align 4
  %146 = call i8* @_Znwm(i64 16) #14
  %147 = getelementptr inbounds %"class.base::OnceCallback", %"class.base::OnceCallback"* %8, i64 0, i32 0, i32 0, i32 0
  %148 = bitcast %"class.base::OnceCallback"* %8 to i64*
  %149 = load i64, i64* %148, align 8
  store %"class.base::internal::BindStateBase"* null, %"class.base::internal::BindStateBase"** %147, align 8
  %150 = bitcast i8* %146 to i32 (...)***
  store i32 (...)** bitcast (i8** getelementptr inbounds ({ [6 x i8*] }, { [6 x i8*] }* @_ZTVN12media_router5mojom58MediaRouteProvider_ConnectRouteByRouteId_ForwardToCallbackE, i64 0, inrange i32 0, i64 2) to i32 (...)**), i32 (...)*** %150, align 8
  %151 = getelementptr inbounds i8, i8* %146, i64 8
  %152 = getelementptr inbounds %"class.base::OnceCallback", %"class.base::OnceCallback"* %16, i64 0, i32 0, i32 0, i32 0
  %153 = bitcast i8* %151 to i64*
  store i64 %149, i64* %153, align 8
  store %"class.base::internal::BindStateBase"* null, %"class.base::internal::BindStateBase"** %152, align 8
  %154 = bitcast i8* %146 to %"class.mojo::MessageReceiver"*
  %155 = getelementptr inbounds %"class.base::OnceCallback", %"class.base::OnceCallback"* %16, i64 0, i32 0
  call void @_ZN4base8internal12CallbackBaseD2Ev(%"class.base::internal::CallbackBase"* nonnull %155) #13
  %156 = getelementptr inbounds %"class.media_router::mojom::MediaRouteProviderProxy", %"class.media_router::mojom::MediaRouteProviderProxy"* %0, i64 0, i32 1
  %157 = load %"class.mojo::MessageReceiverWithResponder"*, %"class.mojo::MessageReceiverWithResponder"** %156, align 8
  %158 = bitcast %"class.mojo::MessageReceiverWithResponder"* %157 to i1 (%"class.mojo::MessageReceiverWithResponder"*, %"class.mojo::Message"*, %"class.mojo::MessageReceiver"*)***
  %159 = load i1 (%"class.mojo::MessageReceiverWithResponder"*, %"class.mojo::Message"*, %"class.mojo::MessageReceiver"*)**, i1 (%"class.mojo::MessageReceiverWithResponder"*, %"class.mojo::Message"*, %"class.mojo::MessageReceiver"*)*** %158, align 8
  %160 = getelementptr inbounds i1 (%"class.mojo::MessageReceiverWithResponder"*, %"class.mojo::Message"*, %"class.mojo::MessageReceiver"*)*, i1 (%"class.mojo::MessageReceiverWithResponder"*, %"class.mojo::Message"*, %"class.mojo::MessageReceiver"*)** %159, i64 4
  %161 = load i1 (%"class.mojo::MessageReceiverWithResponder"*, %"class.mojo::Message"*, %"class.mojo::MessageReceiver"*)*, i1 (%"class.mojo::MessageReceiverWithResponder"*, %"class.mojo::Message"*, %"class.mojo::MessageReceiver"*)** %160, align 8
  %162 = call zeroext i1 %161(%"class.mojo::MessageReceiverWithResponder"* %157, %"class.mojo::Message"* nonnull %11, %"class.mojo::MessageReceiver"* nonnull %154) #13
  call void @llvm.lifetime.end.p0i8(i64 16, i8* nonnull %92) #13
  call void @llvm.lifetime.end.p0i8(i64 16, i8* nonnull %70) #13
  call void @llvm.lifetime.end.p0i8(i64 16, i8* nonnull %48) #13
  call void @llvm.lifetime.end.p0i8(i64 16, i8* nonnull %26) #13
  call void @_ZN4mojo7MessageD1Ev(%"class.mojo::Message"* nonnull %11) #13
  call void @llvm.lifetime.end.p0i8(i64 120, i8* nonnull %19) #13
  ret void
}

; Function Attrs: nounwind ssp uwtable
define hidden void @_ZN12media_router5mojom23MediaRouteProviderProxy14TerminateRouteERKNSt3__112basic_stringIcNS2_11char_traitsIcEENS2_9allocatorIcEEEEN4base12OnceCallbackIFvRKN4absl8optionalIS8_EENS_18RouteRequestResult10ResultCodeEEEE(%"class.media_router::mojom::MediaRouteProviderProxy"* nocapture readonly, %"class.std::__1::basic_string"* dereferenceable(24), %"class.base::OnceCallback.107"* nocapture) unnamed_addr #0 align 2 {
  %4 = alloca %"class.mojo::Message", align 8
  %5 = alloca %"class.mojo::internal::MessageFragment.93", align 8
  %6 = alloca %"class.base::OnceCallback.107", align 8
  %7 = bitcast %"class.mojo::Message"* %4 to i8*
  call void @llvm.lifetime.start.p0i8(i64 120, i8* nonnull %7) #13
  call void @llvm.memset.p0i8.i64(i8* nonnull align 8 %7, i8 -86, i64 120, i1 false)
  call void @_ZN4mojo7MessageC1EjjmmPNSt3__16vectorINS_16ScopedHandleBaseINS_6HandleEEENS1_9allocatorIS5_EEEE(%"class.mojo::Message"* nonnull %4, i32 489918840, i32 1, i64 0, i64 0, %"class.std::__1::vector"* null) #13
  %8 = getelementptr inbounds %"class.mojo::Message", %"class.mojo::Message"* %4, i64 0, i32 1
  %9 = call i64 @_ZN4mojo8internal6Buffer8AllocateEm(%"class.mojo::internal::Buffer"* %8, i64 16) #13
  %10 = getelementptr inbounds %"class.mojo::Message", %"class.mojo::Message"* %4, i64 0, i32 1, i32 2
  %11 = load i8*, i8** %10, align 8
  %12 = getelementptr inbounds i8, i8* %11, i64 %9
  %13 = bitcast i8* %12 to %"class.media_router::mojom::internal::MediaRouteProvider_TerminateRoute_Params_Data"*
  call void @_ZN12media_router5mojom8internal45MediaRouteProvider_TerminateRoute_Params_DataC1Ev(%"class.media_router::mojom::internal::MediaRouteProvider_TerminateRoute_Params_Data"* %13) #13
  %14 = bitcast %"class.mojo::internal::MessageFragment.93"* %5 to i8*
  call void @llvm.lifetime.start.p0i8(i64 16, i8* nonnull %14) #13
  %15 = getelementptr inbounds %"class.mojo::internal::MessageFragment.93", %"class.mojo::internal::MessageFragment.93"* %5, i64 0, i32 0
  %16 = getelementptr inbounds %"class.mojo::internal::MessageFragment.93", %"class.mojo::internal::MessageFragment.93"* %5, i64 0, i32 1
  store %"class.mojo::Message"* %4, %"class.mojo::Message"** %15, align 8
  store i64 -1, i64* %16, align 8
  call void @_ZN4mojo8internal10SerializerINS_14StringDataViewEKNSt3__112basic_stringIcNS3_11char_traitsIcEENS3_9allocatorIcEEEEE9SerializeERSA_RNS0_15MessageFragmentINS0_10Array_DataIcEEEE(%"class.std::__1::basic_string"* dereferenceable(24) %1, %"class.mojo::internal::MessageFragment.93"* nonnull dereferenceable(16) %5) #13
  %17 = load i8*, i8** %10, align 8
  %18 = getelementptr inbounds i8, i8* %17, i64 %9
  %19 = getelementptr inbounds i8, i8* %18, i64 8
  %20 = load i64, i64* %16, align 8
  %21 = icmp eq i64 %20, -1
  br i1 %21, label %28, label %22

22:                                               ; preds = %3
  %23 = load %"class.mojo::Message"*, %"class.mojo::Message"** %15, align 8
  %24 = getelementptr inbounds %"class.mojo::Message", %"class.mojo::Message"* %23, i64 0, i32 1, i32 2
  %25 = load i8*, i8** %24, align 8
  %26 = getelementptr inbounds i8, i8* %25, i64 %20
  %27 = bitcast i8* %26 to %"class.mojo::internal::Array_Data"*
  br label %28

28:                                               ; preds = %22, %3
  %29 = phi %"class.mojo::internal::Array_Data"* [ %27, %22 ], [ null, %3 ]
  %30 = bitcast i8* %19 to i64*
  %31 = icmp eq %"class.mojo::internal::Array_Data"* %29, null
  %32 = ptrtoint %"class.mojo::internal::Array_Data"* %29 to i64
  %33 = ptrtoint i8* %19 to i64
  %34 = sub i64 %32, %33
  %35 = select i1 %31, i64 0, i64 %34
  store i64 %35, i64* %30, align 8
  %36 = call i8* @_Znwm(i64 16) #14
  %37 = getelementptr inbounds %"class.base::OnceCallback.107", %"class.base::OnceCallback.107"* %2, i64 0, i32 0, i32 0, i32 0
  %38 = bitcast %"class.base::OnceCallback.107"* %2 to i64*
  %39 = load i64, i64* %38, align 8
  store %"class.base::internal::BindStateBase"* null, %"class.base::internal::BindStateBase"** %37, align 8
  %40 = bitcast i8* %36 to i32 (...)***
  store i32 (...)** bitcast (i8** getelementptr inbounds ({ [6 x i8*] }, { [6 x i8*] }* @_ZTVN12media_router5mojom51MediaRouteProvider_TerminateRoute_ForwardToCallbackE, i64 0, inrange i32 0, i64 2) to i32 (...)**), i32 (...)*** %40, align 8
  %41 = getelementptr inbounds i8, i8* %36, i64 8
  %42 = getelementptr inbounds %"class.base::OnceCallback.107", %"class.base::OnceCallback.107"* %6, i64 0, i32 0, i32 0, i32 0
  %43 = bitcast i8* %41 to i64*
  store i64 %39, i64* %43, align 8
  store %"class.base::internal::BindStateBase"* null, %"class.base::internal::BindStateBase"** %42, align 8
  %44 = bitcast i8* %36 to %"class.mojo::MessageReceiver"*
  %45 = getelementptr inbounds %"class.base::OnceCallback.107", %"class.base::OnceCallback.107"* %6, i64 0, i32 0
  call void @_ZN4base8internal12CallbackBaseD2Ev(%"class.base::internal::CallbackBase"* nonnull %45) #13
  %46 = getelementptr inbounds %"class.media_router::mojom::MediaRouteProviderProxy", %"class.media_router::mojom::MediaRouteProviderProxy"* %0, i64 0, i32 1
  %47 = load %"class.mojo::MessageReceiverWithResponder"*, %"class.mojo::MessageReceiverWithResponder"** %46, align 8
  %48 = bitcast %"class.mojo::MessageReceiverWithResponder"* %47 to i1 (%"class.mojo::MessageReceiverWithResponder"*, %"class.mojo::Message"*, %"class.mojo::MessageReceiver"*)***
  %49 = load i1 (%"class.mojo::MessageReceiverWithResponder"*, %"class.mojo::Message"*, %"class.mojo::MessageReceiver"*)**, i1 (%"class.mojo::MessageReceiverWithResponder"*, %"class.mojo::Message"*, %"class.mojo::MessageReceiver"*)*** %48, align 8
  %50 = getelementptr inbounds i1 (%"class.mojo::MessageReceiverWithResponder"*, %"class.mojo::Message"*, %"class.mojo::MessageReceiver"*)*, i1 (%"class.mojo::MessageReceiverWithResponder"*, %"class.mojo::Message"*, %"class.mojo::MessageReceiver"*)** %49, i64 4
  %51 = load i1 (%"class.mojo::MessageReceiverWithResponder"*, %"class.mojo::Message"*, %"class.mojo::MessageReceiver"*)*, i1 (%"class.mojo::MessageReceiverWithResponder"*, %"class.mojo::Message"*, %"class.mojo::MessageReceiver"*)** %50, align 8
  %52 = call zeroext i1 %51(%"class.mojo::MessageReceiverWithResponder"* %47, %"class.mojo::Message"* nonnull %4, %"class.mojo::MessageReceiver"* nonnull %44) #13
  call void @llvm.lifetime.end.p0i8(i64 16, i8* nonnull %14) #13
  call void @_ZN4mojo7MessageD1Ev(%"class.mojo::Message"* nonnull %4) #13
  call void @llvm.lifetime.end.p0i8(i64 120, i8* nonnull %7) #13
  ret void
}

; Function Attrs: nounwind ssp uwtable
define hidden void @_ZN12media_router5mojom23MediaRouteProviderProxy16SendRouteMessageERKNSt3__112basic_stringIcNS2_11char_traitsIcEENS2_9allocatorIcEEEESA_(%"class.media_router::mojom::MediaRouteProviderProxy"* nocapture readonly, %"class.std::__1::basic_string"* dereferenceable(24), %"class.std::__1::basic_string"* dereferenceable(24)) unnamed_addr #0 align 2 {
  %4 = alloca %"class.mojo::Message", align 8
  %5 = alloca %"class.mojo::internal::MessageFragment.93", align 8
  %6 = alloca %"class.mojo::internal::MessageFragment.93", align 8
  %7 = bitcast %"class.mojo::Message"* %4 to i8*
  call void @llvm.lifetime.start.p0i8(i64 120, i8* nonnull %7) #13
  call void @llvm.memset.p0i8.i64(i8* nonnull align 8 %7, i8 -86, i64 120, i1 false)
  call void @_ZN4mojo7MessageC1EjjmmPNSt3__16vectorINS_16ScopedHandleBaseINS_6HandleEEENS1_9allocatorIS5_EEEE(%"class.mojo::Message"* nonnull %4, i32 72368339, i32 0, i64 0, i64 0, %"class.std::__1::vector"* null) #13
  %8 = getelementptr inbounds %"class.mojo::Message", %"class.mojo::Message"* %4, i64 0, i32 1
  %9 = call i64 @_ZN4mojo8internal6Buffer8AllocateEm(%"class.mojo::internal::Buffer"* %8, i64 24) #13
  %10 = getelementptr inbounds %"class.mojo::Message", %"class.mojo::Message"* %4, i64 0, i32 1, i32 2
  %11 = load i8*, i8** %10, align 8
  %12 = getelementptr inbounds i8, i8* %11, i64 %9
  %13 = bitcast i8* %12 to %"class.media_router::mojom::internal::MediaRouteProvider_SendRouteMessage_Params_Data"*
  call void @_ZN12media_router5mojom8internal47MediaRouteProvider_SendRouteMessage_Params_DataC1Ev(%"class.media_router::mojom::internal::MediaRouteProvider_SendRouteMessage_Params_Data"* %13) #13
  %14 = bitcast %"class.mojo::internal::MessageFragment.93"* %5 to i8*
  call void @llvm.lifetime.start.p0i8(i64 16, i8* nonnull %14) #13
  %15 = getelementptr inbounds %"class.mojo::internal::MessageFragment.93", %"class.mojo::internal::MessageFragment.93"* %5, i64 0, i32 0
  %16 = getelementptr inbounds %"class.mojo::internal::MessageFragment.93", %"class.mojo::internal::MessageFragment.93"* %5, i64 0, i32 1
  store %"class.mojo::Message"* %4, %"class.mojo::Message"** %15, align 8
  store i64 -1, i64* %16, align 8
  call void @_ZN4mojo8internal10SerializerINS_14StringDataViewEKNSt3__112basic_stringIcNS3_11char_traitsIcEENS3_9allocatorIcEEEEE9SerializeERSA_RNS0_15MessageFragmentINS0_10Array_DataIcEEEE(%"class.std::__1::basic_string"* dereferenceable(24) %1, %"class.mojo::internal::MessageFragment.93"* nonnull dereferenceable(16) %5) #13
  %17 = load i8*, i8** %10, align 8
  %18 = getelementptr inbounds i8, i8* %17, i64 %9
  %19 = getelementptr inbounds i8, i8* %18, i64 8
  %20 = load i64, i64* %16, align 8
  %21 = icmp eq i64 %20, -1
  br i1 %21, label %28, label %22

22:                                               ; preds = %3
  %23 = load %"class.mojo::Message"*, %"class.mojo::Message"** %15, align 8
  %24 = getelementptr inbounds %"class.mojo::Message", %"class.mojo::Message"* %23, i64 0, i32 1, i32 2
  %25 = load i8*, i8** %24, align 8
  %26 = getelementptr inbounds i8, i8* %25, i64 %20
  %27 = bitcast i8* %26 to %"class.mojo::internal::Array_Data"*
  br label %28

28:                                               ; preds = %3, %22
  %29 = phi %"class.mojo::internal::Array_Data"* [ %27, %22 ], [ null, %3 ]
  %30 = bitcast i8* %19 to i64*
  %31 = icmp eq %"class.mojo::internal::Array_Data"* %29, null
  %32 = ptrtoint %"class.mojo::internal::Array_Data"* %29 to i64
  %33 = ptrtoint i8* %19 to i64
  %34 = sub i64 %32, %33
  %35 = select i1 %31, i64 0, i64 %34
  store i64 %35, i64* %30, align 8
  %36 = bitcast %"class.mojo::internal::MessageFragment.93"* %6 to i8*
  call void @llvm.lifetime.start.p0i8(i64 16, i8* nonnull %36) #13
  %37 = getelementptr inbounds %"class.mojo::internal::MessageFragment.93", %"class.mojo::internal::MessageFragment.93"* %6, i64 0, i32 0
  %38 = getelementptr inbounds %"class.mojo::internal::MessageFragment.93", %"class.mojo::internal::MessageFragment.93"* %6, i64 0, i32 1
  store %"class.mojo::Message"* %4, %"class.mojo::Message"** %37, align 8
  store i64 -1, i64* %38, align 8
  call void @_ZN4mojo8internal10SerializerINS_14StringDataViewEKNSt3__112basic_stringIcNS3_11char_traitsIcEENS3_9allocatorIcEEEEE9SerializeERSA_RNS0_15MessageFragmentINS0_10Array_DataIcEEEE(%"class.std::__1::basic_string"* dereferenceable(24) %2, %"class.mojo::internal::MessageFragment.93"* nonnull dereferenceable(16) %6) #13
  %39 = load i8*, i8** %10, align 8
  %40 = getelementptr inbounds i8, i8* %39, i64 %9
  %41 = getelementptr inbounds i8, i8* %40, i64 16
  %42 = load i64, i64* %38, align 8
  %43 = icmp eq i64 %42, -1
  br i1 %43, label %50, label %44

44:                                               ; preds = %28
  %45 = load %"class.mojo::Message"*, %"class.mojo::Message"** %37, align 8
  %46 = getelementptr inbounds %"class.mojo::Message", %"class.mojo::Message"* %45, i64 0, i32 1, i32 2
  %47 = load i8*, i8** %46, align 8
  %48 = getelementptr inbounds i8, i8* %47, i64 %42
  %49 = bitcast i8* %48 to %"class.mojo::internal::Array_Data"*
  br label %50

50:                                               ; preds = %28, %44
  %51 = phi %"class.mojo::internal::Array_Data"* [ %49, %44 ], [ null, %28 ]
  %52 = bitcast i8* %41 to i64*
  %53 = icmp eq %"class.mojo::internal::Array_Data"* %51, null
  %54 = ptrtoint %"class.mojo::internal::Array_Data"* %51 to i64
  %55 = ptrtoint i8* %41 to i64
  %56 = sub i64 %54, %55
  %57 = select i1 %53, i64 0, i64 %56
  store i64 %57, i64* %52, align 8
  %58 = getelementptr inbounds %"class.media_router::mojom::MediaRouteProviderProxy", %"class.media_router::mojom::MediaRouteProviderProxy"* %0, i64 0, i32 1
  %59 = bitcast %"class.mojo::MessageReceiverWithResponder"** %58 to %"class.mojo::MessageReceiver"**
  %60 = load %"class.mojo::MessageReceiver"*, %"class.mojo::MessageReceiver"** %59, align 8
  %61 = bitcast %"class.mojo::MessageReceiver"* %60 to i1 (%"class.mojo::MessageReceiver"*, %"class.mojo::Message"*)***
  %62 = load i1 (%"class.mojo::MessageReceiver"*, %"class.mojo::Message"*)**, i1 (%"class.mojo::MessageReceiver"*, %"class.mojo::Message"*)*** %61, align 8
  %63 = getelementptr inbounds i1 (%"class.mojo::MessageReceiver"*, %"class.mojo::Message"*)*, i1 (%"class.mojo::MessageReceiver"*, %"class.mojo::Message"*)** %62, i64 3
  %64 = load i1 (%"class.mojo::MessageReceiver"*, %"class.mojo::Message"*)*, i1 (%"class.mojo::MessageReceiver"*, %"class.mojo::Message"*)** %63, align 8
  %65 = call zeroext i1 %64(%"class.mojo::MessageReceiver"* %60, %"class.mojo::Message"* nonnull %4) #13
  call void @llvm.lifetime.end.p0i8(i64 16, i8* nonnull %36) #13
  call void @llvm.lifetime.end.p0i8(i64 16, i8* nonnull %14) #13
  call void @_ZN4mojo7MessageD1Ev(%"class.mojo::Message"* nonnull %4) #13
  call void @llvm.lifetime.end.p0i8(i64 120, i8* nonnull %7) #13
  ret void
}

; Function Attrs: nounwind ssp uwtable
define hidden void @_ZN12media_router5mojom23MediaRouteProviderProxy22SendRouteBinaryMessageERKNSt3__112basic_stringIcNS2_11char_traitsIcEENS2_9allocatorIcEEEERKNS2_6vectorIhNS6_IhEEEE(%"class.media_router::mojom::MediaRouteProviderProxy"* nocapture readonly, %"class.std::__1::basic_string"* dereferenceable(24), %"class.std::__1::vector.66"* nocapture readonly dereferenceable(24)) unnamed_addr #0 align 2 {
  %4 = alloca %"class.mojo::Message", align 8
  %5 = alloca %"class.mojo::internal::MessageFragment.93", align 8
  %6 = alloca %"class.mojo::internal::ContainerValidateParams", align 8
  %7 = bitcast %"class.mojo::Message"* %4 to i8*
  call void @llvm.lifetime.start.p0i8(i64 120, i8* nonnull %7) #13
  call void @llvm.memset.p0i8.i64(i8* nonnull align 8 %7, i8 -86, i64 120, i1 false)
  call void @_ZN4mojo7MessageC1EjjmmPNSt3__16vectorINS_16ScopedHandleBaseINS_6HandleEEENS1_9allocatorIS5_EEEE(%"class.mojo::Message"* nonnull %4, i32 525452331, i32 0, i64 0, i64 0, %"class.std::__1::vector"* null) #13
  %8 = getelementptr inbounds %"class.mojo::Message", %"class.mojo::Message"* %4, i64 0, i32 1
  %9 = call i64 @_ZN4mojo8internal6Buffer8AllocateEm(%"class.mojo::internal::Buffer"* %8, i64 24) #13
  %10 = getelementptr inbounds %"class.mojo::Message", %"class.mojo::Message"* %4, i64 0, i32 1, i32 2
  %11 = load i8*, i8** %10, align 8
  %12 = getelementptr inbounds i8, i8* %11, i64 %9
  %13 = bitcast i8* %12 to %"class.media_router::mojom::internal::MediaRouteProvider_SendRouteBinaryMessage_Params_Data"*
  call void @_ZN12media_router5mojom8internal53MediaRouteProvider_SendRouteBinaryMessage_Params_DataC1Ev(%"class.media_router::mojom::internal::MediaRouteProvider_SendRouteBinaryMessage_Params_Data"* %13) #13
  %14 = bitcast %"class.mojo::internal::MessageFragment.93"* %5 to i8*
  call void @llvm.lifetime.start.p0i8(i64 16, i8* nonnull %14) #13
  %15 = getelementptr inbounds %"class.mojo::internal::MessageFragment.93", %"class.mojo::internal::MessageFragment.93"* %5, i64 0, i32 0
  %16 = getelementptr inbounds %"class.mojo::internal::MessageFragment.93", %"class.mojo::internal::MessageFragment.93"* %5, i64 0, i32 1
  store %"class.mojo::Message"* %4, %"class.mojo::Message"** %15, align 8
  store i64 -1, i64* %16, align 8
  call void @_ZN4mojo8internal10SerializerINS_14StringDataViewEKNSt3__112basic_stringIcNS3_11char_traitsIcEENS3_9allocatorIcEEEEE9SerializeERSA_RNS0_15MessageFragmentINS0_10Array_DataIcEEEE(%"class.std::__1::basic_string"* dereferenceable(24) %1, %"class.mojo::internal::MessageFragment.93"* nonnull dereferenceable(16) %5) #13
  %17 = load i8*, i8** %10, align 8
  %18 = getelementptr inbounds i8, i8* %17, i64 %9
  %19 = getelementptr inbounds i8, i8* %18, i64 8
  %20 = load i64, i64* %16, align 8
  %21 = icmp eq i64 %20, -1
  br i1 %21, label %28, label %22

22:                                               ; preds = %3
  %23 = load %"class.mojo::Message"*, %"class.mojo::Message"** %15, align 8
  %24 = getelementptr inbounds %"class.mojo::Message", %"class.mojo::Message"* %23, i64 0, i32 1, i32 2
  %25 = load i8*, i8** %24, align 8
  %26 = getelementptr inbounds i8, i8* %25, i64 %20
  %27 = bitcast i8* %26 to %"class.mojo::internal::Array_Data"*
  br label %28

28:                                               ; preds = %3, %22
  %29 = phi %"class.mojo::internal::Array_Data"* [ %27, %22 ], [ null, %3 ]
  %30 = bitcast i8* %19 to i64*
  %31 = icmp eq %"class.mojo::internal::Array_Data"* %29, null
  %32 = ptrtoint %"class.mojo::internal::Array_Data"* %29 to i64
  %33 = ptrtoint i8* %19 to i64
  %34 = sub i64 %32, %33
  %35 = select i1 %31, i64 0, i64 %34
  store i64 %35, i64* %30, align 8
  %36 = bitcast %"class.mojo::internal::ContainerValidateParams"* %6 to i8*
  call void @llvm.lifetime.start.p0i8(i64 32, i8* nonnull %36) #13
  %37 = bitcast %"class.mojo::internal::ContainerValidateParams"* %6 to i64*
  store i64 -6148914691236517206, i64* %37, align 8
  %38 = getelementptr inbounds %"class.mojo::internal::ContainerValidateParams", %"class.mojo::internal::ContainerValidateParams"* %6, i64 0, i32 0
  store i32 0, i32* %38, align 8
  %39 = getelementptr inbounds %"class.mojo::internal::ContainerValidateParams", %"class.mojo::internal::ContainerValidateParams"* %6, i64 0, i32 1
  store i8 0, i8* %39, align 4
  %40 = getelementptr inbounds %"class.mojo::internal::ContainerValidateParams", %"class.mojo::internal::ContainerValidateParams"* %6, i64 0, i32 2
  %41 = getelementptr inbounds %"class.std::__1::vector.66", %"class.std::__1::vector.66"* %2, i64 0, i32 0, i32 1
  %42 = bitcast i8** %41 to i64*
  %43 = bitcast %"class.mojo::internal::ContainerValidateParams"** %40 to i8*
  call void @llvm.memset.p0i8.i64(i8* align 8 %43, i8 0, i64 24, i1 false)
  %44 = load i64, i64* %42, align 8
  %45 = bitcast %"class.std::__1::vector.66"* %2 to i64*
  %46 = load i64, i64* %45, align 8
  %47 = sub i64 %44, %46
  %48 = icmp ugt i64 %47, 4294967287
  br i1 %48, label %63, label %49

49:                                               ; preds = %28
  %50 = trunc i64 %47 to i32
  %51 = add nuw i32 %50, 8
  %52 = zext i32 %51 to i64
  %53 = call i64 @_ZN4mojo8internal6Buffer8AllocateEm(%"class.mojo::internal::Buffer"* %8, i64 %52) #13
  %54 = load i8*, i8** %10, align 8
  %55 = getelementptr inbounds i8, i8* %54, i64 %53
  %56 = bitcast i8* %55 to i32*
  store i32 %51, i32* %56, align 1
  %57 = getelementptr inbounds i8, i8* %55, i64 4
  %58 = bitcast i8* %57 to i32*
  store i32 %50, i32* %58, align 1
  %59 = load i64, i64* %45, align 8
  %60 = load i64, i64* %42, align 8
  %61 = sub i64 %60, %59
  %62 = icmp eq i64 %61, 0
  br i1 %62, label %122, label %63

63:                                               ; preds = %49, %28
  %64 = phi i64 [ -1, %28 ], [ %53, %49 ]
  %65 = phi i64 [ %46, %28 ], [ %59, %49 ]
  %66 = phi i64 [ %47, %28 ], [ %61, %49 ]
  %67 = inttoptr i64 %65 to i8*
  %68 = load i8*, i8** %10, align 8
  %69 = getelementptr inbounds i8, i8* %68, i64 %64
  %70 = icmp eq i64 %65, 0
  %71 = getelementptr inbounds i8, i8* %69, i64 8
  br i1 %70, label %72, label %83

72:                                               ; preds = %63
  %73 = getelementptr inbounds %"class.std::__1::vector.66", %"class.std::__1::vector.66"* %2, i64 0, i32 0, i32 0
  %74 = load i8, i8* %67, align 1
  store i8 %74, i8* %71, align 1
  %75 = icmp eq i64 %66, 1
  br i1 %75, label %122, label %76

76:                                               ; preds = %72
  %77 = add i64 %66, -1
  %78 = add i64 %66, -2
  %79 = and i64 %77, 3
  %80 = icmp ult i64 %78, 3
  br i1 %80, label %109, label %81

81:                                               ; preds = %76
  %82 = sub i64 %77, %79
  br label %84

83:                                               ; preds = %63
  call void @llvm.memcpy.p0i8.p0i8.i64(i8* align 1 %71, i8* nonnull align 1 %67, i64 %66, i1 false) #13
  br label %122

84:                                               ; preds = %84, %81
  %85 = phi i64 [ 1, %81 ], [ %103, %84 ]
  %86 = phi i64 [ %82, %81 ], [ %107, %84 ]
  %87 = load i8*, i8** %73, align 8
  %88 = add nuw nsw i64 %85, 1
  %89 = getelementptr inbounds i8, i8* %87, i64 %85
  %90 = load i8, i8* %89, align 1
  %91 = getelementptr inbounds i8, i8* %71, i64 %85
  store i8 %90, i8* %91, align 1
  %92 = load i8*, i8** %73, align 8
  %93 = add nuw nsw i64 %85, 2
  %94 = getelementptr inbounds i8, i8* %92, i64 %88
  %95 = load i8, i8* %94, align 1
  %96 = getelementptr inbounds i8, i8* %71, i64 %88
  store i8 %95, i8* %96, align 1
  %97 = load i8*, i8** %73, align 8
  %98 = add nuw i64 %85, 3
  %99 = getelementptr inbounds i8, i8* %97, i64 %93
  %100 = load i8, i8* %99, align 1
  %101 = getelementptr inbounds i8, i8* %71, i64 %93
  store i8 %100, i8* %101, align 1
  %102 = load i8*, i8** %73, align 8
  %103 = add nuw i64 %85, 4
  %104 = getelementptr inbounds i8, i8* %102, i64 %98
  %105 = load i8, i8* %104, align 1
  %106 = getelementptr inbounds i8, i8* %71, i64 %98
  store i8 %105, i8* %106, align 1
  %107 = add i64 %86, -4
  %108 = icmp eq i64 %107, 0
  br i1 %108, label %109, label %84

109:                                              ; preds = %84, %76
  %110 = phi i64 [ 1, %76 ], [ %103, %84 ]
  %111 = icmp eq i64 %79, 0
  br i1 %111, label %122, label %112

112:                                              ; preds = %109, %112
  %113 = phi i64 [ %116, %112 ], [ %110, %109 ]
  %114 = phi i64 [ %120, %112 ], [ %79, %109 ]
  %115 = load i8*, i8** %73, align 8
  %116 = add nuw i64 %113, 1
  %117 = getelementptr inbounds i8, i8* %115, i64 %113
  %118 = load i8, i8* %117, align 1
  %119 = getelementptr inbounds i8, i8* %71, i64 %113
  store i8 %118, i8* %119, align 1
  %120 = add i64 %114, -1
  %121 = icmp eq i64 %120, 0
  br i1 %121, label %122, label %112, !llvm.loop !3

122:                                              ; preds = %109, %112, %49, %72, %83
  %123 = phi i64 [ %64, %72 ], [ %64, %83 ], [ %53, %49 ], [ %64, %112 ], [ %64, %109 ]
  %124 = load i8*, i8** %10, align 8
  %125 = getelementptr inbounds i8, i8* %124, i64 %9
  %126 = getelementptr inbounds i8, i8* %125, i64 16
  %127 = icmp eq i64 %123, -1
  %128 = getelementptr inbounds i8, i8* %124, i64 %123
  %129 = bitcast i8* %128 to %"class.mojo::internal::Array_Data.113"*
  %130 = select i1 %127, %"class.mojo::internal::Array_Data.113"* null, %"class.mojo::internal::Array_Data.113"* %129
  %131 = bitcast i8* %126 to i64*
  %132 = icmp eq %"class.mojo::internal::Array_Data.113"* %130, null
  %133 = ptrtoint %"class.mojo::internal::Array_Data.113"* %130 to i64
  %134 = ptrtoint i8* %126 to i64
  %135 = sub i64 %133, %134
  %136 = select i1 %132, i64 0, i64 %135
  store i64 %136, i64* %131, align 8
  %137 = getelementptr inbounds %"class.media_router::mojom::MediaRouteProviderProxy", %"class.media_router::mojom::MediaRouteProviderProxy"* %0, i64 0, i32 1
  %138 = bitcast %"class.mojo::MessageReceiverWithResponder"** %137 to %"class.mojo::MessageReceiver"**
  %139 = load %"class.mojo::MessageReceiver"*, %"class.mojo::MessageReceiver"** %138, align 8
  %140 = bitcast %"class.mojo::MessageReceiver"* %139 to i1 (%"class.mojo::MessageReceiver"*, %"class.mojo::Message"*)***
  %141 = load i1 (%"class.mojo::MessageReceiver"*, %"class.mojo::Message"*)**, i1 (%"class.mojo::MessageReceiver"*, %"class.mojo::Message"*)*** %140, align 8
  %142 = getelementptr inbounds i1 (%"class.mojo::MessageReceiver"*, %"class.mojo::Message"*)*, i1 (%"class.mojo::MessageReceiver"*, %"class.mojo::Message"*)** %141, i64 3
  %143 = load i1 (%"class.mojo::MessageReceiver"*, %"class.mojo::Message"*)*, i1 (%"class.mojo::MessageReceiver"*, %"class.mojo::Message"*)** %142, align 8
  %144 = call zeroext i1 %143(%"class.mojo::MessageReceiver"* %139, %"class.mojo::Message"* nonnull %4) #13
  call void @_ZN4mojo8internal23ContainerValidateParamsD2Ev(%"class.mojo::internal::ContainerValidateParams"* nonnull %6) #13
  call void @llvm.lifetime.end.p0i8(i64 32, i8* nonnull %36) #13
  call void @llvm.lifetime.end.p0i8(i64 16, i8* nonnull %14) #13
  call void @_ZN4mojo7MessageD1Ev(%"class.mojo::Message"* nonnull %4) #13
  call void @llvm.lifetime.end.p0i8(i64 120, i8* nonnull %7) #13
  ret void
}

; Function Attrs: argmemonly nounwind
declare void @llvm.memcpy.p0i8.p0i8.i64(i8* nocapture writeonly, i8* nocapture readonly, i64, i1 immarg) #1

; Function Attrs: nounwind ssp uwtable
define linkonce_odr hidden void @_ZN4mojo8internal23ContainerValidateParamsD2Ev(%"class.mojo::internal::ContainerValidateParams"*) unnamed_addr #0 comdat align 2 {
  %2 = getelementptr inbounds %"class.mojo::internal::ContainerValidateParams", %"class.mojo::internal::ContainerValidateParams"* %0, i64 0, i32 3
  %3 = load %"class.mojo::internal::ContainerValidateParams"*, %"class.mojo::internal::ContainerValidateParams"** %2, align 8
  %4 = icmp eq %"class.mojo::internal::ContainerValidateParams"* %3, null
  br i1 %4, label %7, label %5

5:                                                ; preds = %1
  tail call void @_ZN4mojo8internal23ContainerValidateParamsD2Ev(%"class.mojo::internal::ContainerValidateParams"* nonnull %3) #13
  %6 = bitcast %"class.mojo::internal::ContainerValidateParams"* %3 to i8*
  tail call void @_ZdlPv(i8* %6) #14
  br label %7

7:                                                ; preds = %1, %5
  %8 = getelementptr inbounds %"class.mojo::internal::ContainerValidateParams", %"class.mojo::internal::ContainerValidateParams"* %0, i64 0, i32 2
  %9 = load %"class.mojo::internal::ContainerValidateParams"*, %"class.mojo::internal::ContainerValidateParams"** %8, align 8
  %10 = icmp eq %"class.mojo::internal::ContainerValidateParams"* %9, null
  br i1 %10, label %13, label %11

11:                                               ; preds = %7
  tail call void @_ZN4mojo8internal23ContainerValidateParamsD2Ev(%"class.mojo::internal::ContainerValidateParams"* nonnull %9) #13
  %12 = bitcast %"class.mojo::internal::ContainerValidateParams"* %9 to i8*
  tail call void @_ZdlPv(i8* %12) #14
  ret void

13:                                               ; preds = %7
  ret void
}

; Function Attrs: nounwind ssp uwtable
define hidden void @_ZN12media_router5mojom23MediaRouteProviderProxy24StartObservingMediaSinksERKNSt3__112basic_stringIcNS2_11char_traitsIcEENS2_9allocatorIcEEEE(%"class.media_router::mojom::MediaRouteProviderProxy"* nocapture readonly, %"class.std::__1::basic_string"* dereferenceable(24)) unnamed_addr #0 align 2 {
  %3 = alloca %"class.mojo::Message", align 8
  %4 = alloca %"class.mojo::internal::MessageFragment.93", align 8
  %5 = bitcast %"class.mojo::Message"* %3 to i8*
  call void @llvm.lifetime.start.p0i8(i64 120, i8* nonnull %5) #13
  call void @llvm.memset.p0i8.i64(i8* nonnull align 8 %5, i8 -86, i64 120, i1 false)
  call void @_ZN4mojo7MessageC1EjjmmPNSt3__16vectorINS_16ScopedHandleBaseINS_6HandleEEENS1_9allocatorIS5_EEEE(%"class.mojo::Message"* nonnull %3, i32 2126271038, i32 0, i64 0, i64 0, %"class.std::__1::vector"* null) #13
  %6 = getelementptr inbounds %"class.mojo::Message", %"class.mojo::Message"* %3, i64 0, i32 1
  %7 = call i64 @_ZN4mojo8internal6Buffer8AllocateEm(%"class.mojo::internal::Buffer"* %6, i64 16) #13
  %8 = getelementptr inbounds %"class.mojo::Message", %"class.mojo::Message"* %3, i64 0, i32 1, i32 2
  %9 = load i8*, i8** %8, align 8
  %10 = getelementptr inbounds i8, i8* %9, i64 %7
  %11 = bitcast i8* %10 to %"class.media_router::mojom::internal::MediaRouteProvider_StartObservingMediaSinks_Params_Data"*
  call void @_ZN12media_router5mojom8internal55MediaRouteProvider_StartObservingMediaSinks_Params_DataC1Ev(%"class.media_router::mojom::internal::MediaRouteProvider_StartObservingMediaSinks_Params_Data"* %11) #13
  %12 = bitcast %"class.mojo::internal::MessageFragment.93"* %4 to i8*
  call void @llvm.lifetime.start.p0i8(i64 16, i8* nonnull %12) #13
  %13 = getelementptr inbounds %"class.mojo::internal::MessageFragment.93", %"class.mojo::internal::MessageFragment.93"* %4, i64 0, i32 0
  %14 = getelementptr inbounds %"class.mojo::internal::MessageFragment.93", %"class.mojo::internal::MessageFragment.93"* %4, i64 0, i32 1
  store %"class.mojo::Message"* %3, %"class.mojo::Message"** %13, align 8
  store i64 -1, i64* %14, align 8
  call void @_ZN4mojo8internal10SerializerINS_14StringDataViewEKNSt3__112basic_stringIcNS3_11char_traitsIcEENS3_9allocatorIcEEEEE9SerializeERSA_RNS0_15MessageFragmentINS0_10Array_DataIcEEEE(%"class.std::__1::basic_string"* dereferenceable(24) %1, %"class.mojo::internal::MessageFragment.93"* nonnull dereferenceable(16) %4) #13
  %15 = load i8*, i8** %8, align 8
  %16 = getelementptr inbounds i8, i8* %15, i64 %7
  %17 = getelementptr inbounds i8, i8* %16, i64 8
  %18 = load i64, i64* %14, align 8
  %19 = icmp eq i64 %18, -1
  br i1 %19, label %26, label %20

20:                                               ; preds = %2
  %21 = load %"class.mojo::Message"*, %"class.mojo::Message"** %13, align 8
  %22 = getelementptr inbounds %"class.mojo::Message", %"class.mojo::Message"* %21, i64 0, i32 1, i32 2
  %23 = load i8*, i8** %22, align 8
  %24 = getelementptr inbounds i8, i8* %23, i64 %18
  %25 = bitcast i8* %24 to %"class.mojo::internal::Array_Data"*
  br label %26

26:                                               ; preds = %2, %20
  %27 = phi %"class.mojo::internal::Array_Data"* [ %25, %20 ], [ null, %2 ]
  %28 = bitcast i8* %17 to i64*
  %29 = icmp eq %"class.mojo::internal::Array_Data"* %27, null
  %30 = ptrtoint %"class.mojo::internal::Array_Data"* %27 to i64
  %31 = ptrtoint i8* %17 to i64
  %32 = sub i64 %30, %31
  %33 = select i1 %29, i64 0, i64 %32
  store i64 %33, i64* %28, align 8
  %34 = getelementptr inbounds %"class.media_router::mojom::MediaRouteProviderProxy", %"class.media_router::mojom::MediaRouteProviderProxy"* %0, i64 0, i32 1
  %35 = bitcast %"class.mojo::MessageReceiverWithResponder"** %34 to %"class.mojo::MessageReceiver"**
  %36 = load %"class.mojo::MessageReceiver"*, %"class.mojo::MessageReceiver"** %35, align 8
  %37 = bitcast %"class.mojo::MessageReceiver"* %36 to i1 (%"class.mojo::MessageReceiver"*, %"class.mojo::Message"*)***
  %38 = load i1 (%"class.mojo::MessageReceiver"*, %"class.mojo::Message"*)**, i1 (%"class.mojo::MessageReceiver"*, %"class.mojo::Message"*)*** %37, align 8
  %39 = getelementptr inbounds i1 (%"class.mojo::MessageReceiver"*, %"class.mojo::Message"*)*, i1 (%"class.mojo::MessageReceiver"*, %"class.mojo::Message"*)** %38, i64 3
  %40 = load i1 (%"class.mojo::MessageReceiver"*, %"class.mojo::Message"*)*, i1 (%"class.mojo::MessageReceiver"*, %"class.mojo::Message"*)** %39, align 8
  %41 = call zeroext i1 %40(%"class.mojo::MessageReceiver"* %36, %"class.mojo::Message"* nonnull %3) #13
  call void @llvm.lifetime.end.p0i8(i64 16, i8* nonnull %12) #13
  call void @_ZN4mojo7MessageD1Ev(%"class.mojo::Message"* nonnull %3) #13
  call void @llvm.lifetime.end.p0i8(i64 120, i8* nonnull %5) #13
  ret void
}

; Function Attrs: nounwind ssp uwtable
define hidden void @_ZN12media_router5mojom23MediaRouteProviderProxy23StopObservingMediaSinksERKNSt3__112basic_stringIcNS2_11char_traitsIcEENS2_9allocatorIcEEEE(%"class.media_router::mojom::MediaRouteProviderProxy"* nocapture readonly, %"class.std::__1::basic_string"* dereferenceable(24)) unnamed_addr #0 align 2 {
  %3 = alloca %"class.mojo::Message", align 8
  %4 = alloca %"class.mojo::internal::MessageFragment.93", align 8
  %5 = bitcast %"class.mojo::Message"* %3 to i8*
  call void @llvm.lifetime.start.p0i8(i64 120, i8* nonnull %5) #13
  call void @llvm.memset.p0i8.i64(i8* nonnull align 8 %5, i8 -86, i64 120, i1 false)
  call void @_ZN4mojo7MessageC1EjjmmPNSt3__16vectorINS_16ScopedHandleBaseINS_6HandleEEENS1_9allocatorIS5_EEEE(%"class.mojo::Message"* nonnull %3, i32 698531329, i32 0, i64 0, i64 0, %"class.std::__1::vector"* null) #13
  %6 = getelementptr inbounds %"class.mojo::Message", %"class.mojo::Message"* %3, i64 0, i32 1
  %7 = call i64 @_ZN4mojo8internal6Buffer8AllocateEm(%"class.mojo::internal::Buffer"* %6, i64 16) #13
  %8 = getelementptr inbounds %"class.mojo::Message", %"class.mojo::Message"* %3, i64 0, i32 1, i32 2
  %9 = load i8*, i8** %8, align 8
  %10 = getelementptr inbounds i8, i8* %9, i64 %7
  %11 = bitcast i8* %10 to %"class.media_router::mojom::internal::MediaRouteProvider_StopObservingMediaSinks_Params_Data"*
  call void @_ZN12media_router5mojom8internal54MediaRouteProvider_StopObservingMediaSinks_Params_DataC1Ev(%"class.media_router::mojom::internal::MediaRouteProvider_StopObservingMediaSinks_Params_Data"* %11) #13
  %12 = bitcast %"class.mojo::internal::MessageFragment.93"* %4 to i8*
  call void @llvm.lifetime.start.p0i8(i64 16, i8* nonnull %12) #13
  %13 = getelementptr inbounds %"class.mojo::internal::MessageFragment.93", %"class.mojo::internal::MessageFragment.93"* %4, i64 0, i32 0
  %14 = getelementptr inbounds %"class.mojo::internal::MessageFragment.93", %"class.mojo::internal::MessageFragment.93"* %4, i64 0, i32 1
  store %"class.mojo::Message"* %3, %"class.mojo::Message"** %13, align 8
  store i64 -1, i64* %14, align 8
  call void @_ZN4mojo8internal10SerializerINS_14StringDataViewEKNSt3__112basic_stringIcNS3_11char_traitsIcEENS3_9allocatorIcEEEEE9SerializeERSA_RNS0_15MessageFragmentINS0_10Array_DataIcEEEE(%"class.std::__1::basic_string"* dereferenceable(24) %1, %"class.mojo::internal::MessageFragment.93"* nonnull dereferenceable(16) %4) #13
  %15 = load i8*, i8** %8, align 8
  %16 = getelementptr inbounds i8, i8* %15, i64 %7
  %17 = getelementptr inbounds i8, i8* %16, i64 8
  %18 = load i64, i64* %14, align 8
  %19 = icmp eq i64 %18, -1
  br i1 %19, label %26, label %20

20:                                               ; preds = %2
  %21 = load %"class.mojo::Message"*, %"class.mojo::Message"** %13, align 8
  %22 = getelementptr inbounds %"class.mojo::Message", %"class.mojo::Message"* %21, i64 0, i32 1, i32 2
  %23 = load i8*, i8** %22, align 8
  %24 = getelementptr inbounds i8, i8* %23, i64 %18
  %25 = bitcast i8* %24 to %"class.mojo::internal::Array_Data"*
  br label %26

26:                                               ; preds = %2, %20
  %27 = phi %"class.mojo::internal::Array_Data"* [ %25, %20 ], [ null, %2 ]
  %28 = bitcast i8* %17 to i64*
  %29 = icmp eq %"class.mojo::internal::Array_Data"* %27, null
  %30 = ptrtoint %"class.mojo::internal::Array_Data"* %27 to i64
  %31 = ptrtoint i8* %17 to i64
  %32 = sub i64 %30, %31
  %33 = select i1 %29, i64 0, i64 %32
  store i64 %33, i64* %28, align 8
  %34 = getelementptr inbounds %"class.media_router::mojom::MediaRouteProviderProxy", %"class.media_router::mojom::MediaRouteProviderProxy"* %0, i64 0, i32 1
  %35 = bitcast %"class.mojo::MessageReceiverWithResponder"** %34 to %"class.mojo::MessageReceiver"**
  %36 = load %"class.mojo::MessageReceiver"*, %"class.mojo::MessageReceiver"** %35, align 8
  %37 = bitcast %"class.mojo::MessageReceiver"* %36 to i1 (%"class.mojo::MessageReceiver"*, %"class.mojo::Message"*)***
  %38 = load i1 (%"class.mojo::MessageReceiver"*, %"class.mojo::Message"*)**, i1 (%"class.mojo::MessageReceiver"*, %"class.mojo::Message"*)*** %37, align 8
  %39 = getelementptr inbounds i1 (%"class.mojo::MessageReceiver"*, %"class.mojo::Message"*)*, i1 (%"class.mojo::MessageReceiver"*, %"class.mojo::Message"*)** %38, i64 3
  %40 = load i1 (%"class.mojo::MessageReceiver"*, %"class.mojo::Message"*)*, i1 (%"class.mojo::MessageReceiver"*, %"class.mojo::Message"*)** %39, align 8
  %41 = call zeroext i1 %40(%"class.mojo::MessageReceiver"* %36, %"class.mojo::Message"* nonnull %3) #13
  call void @llvm.lifetime.end.p0i8(i64 16, i8* nonnull %12) #13
  call void @_ZN4mojo7MessageD1Ev(%"class.mojo::Message"* nonnull %3) #13
  call void @llvm.lifetime.end.p0i8(i64 120, i8* nonnull %5) #13
  ret void
}

; Function Attrs: nounwind ssp uwtable
define hidden void @_ZN12media_router5mojom23MediaRouteProviderProxy25StartObservingMediaRoutesERKNSt3__112basic_stringIcNS2_11char_traitsIcEENS2_9allocatorIcEEEE(%"class.media_router::mojom::MediaRouteProviderProxy"* nocapture readonly, %"class.std::__1::basic_string"* dereferenceable(24)) unnamed_addr #0 align 2 {
  %3 = alloca %"class.mojo::Message", align 8
  %4 = alloca %"class.mojo::internal::MessageFragment.93", align 8
  %5 = bitcast %"class.mojo::Message"* %3 to i8*
  call void @llvm.lifetime.start.p0i8(i64 120, i8* nonnull %5) #13
  call void @llvm.memset.p0i8.i64(i8* nonnull align 8 %5, i8 -86, i64 120, i1 false)
  call void @_ZN4mojo7MessageC1EjjmmPNSt3__16vectorINS_16ScopedHandleBaseINS_6HandleEEENS1_9allocatorIS5_EEEE(%"class.mojo::Message"* nonnull %3, i32 606034778, i32 0, i64 0, i64 0, %"class.std::__1::vector"* null) #13
  %6 = getelementptr inbounds %"class.mojo::Message", %"class.mojo::Message"* %3, i64 0, i32 1
  %7 = call i64 @_ZN4mojo8internal6Buffer8AllocateEm(%"class.mojo::internal::Buffer"* %6, i64 16) #13
  %8 = getelementptr inbounds %"class.mojo::Message", %"class.mojo::Message"* %3, i64 0, i32 1, i32 2
  %9 = load i8*, i8** %8, align 8
  %10 = getelementptr inbounds i8, i8* %9, i64 %7
  %11 = bitcast i8* %10 to %"class.media_router::mojom::internal::MediaRouteProvider_StartObservingMediaRoutes_Params_Data"*
  call void @_ZN12media_router5mojom8internal56MediaRouteProvider_StartObservingMediaRoutes_Params_DataC1Ev(%"class.media_router::mojom::internal::MediaRouteProvider_StartObservingMediaRoutes_Params_Data"* %11) #13
  %12 = bitcast %"class.mojo::internal::MessageFragment.93"* %4 to i8*
  call void @llvm.lifetime.start.p0i8(i64 16, i8* nonnull %12) #13
  %13 = getelementptr inbounds %"class.mojo::internal::MessageFragment.93", %"class.mojo::internal::MessageFragment.93"* %4, i64 0, i32 0
  %14 = getelementptr inbounds %"class.mojo::internal::MessageFragment.93", %"class.mojo::internal::MessageFragment.93"* %4, i64 0, i32 1
  store %"class.mojo::Message"* %3, %"class.mojo::Message"** %13, align 8
  store i64 -1, i64* %14, align 8
  call void @_ZN4mojo8internal10SerializerINS_14StringDataViewEKNSt3__112basic_stringIcNS3_11char_traitsIcEENS3_9allocatorIcEEEEE9SerializeERSA_RNS0_15MessageFragmentINS0_10Array_DataIcEEEE(%"class.std::__1::basic_string"* dereferenceable(24) %1, %"class.mojo::internal::MessageFragment.93"* nonnull dereferenceable(16) %4) #13
  %15 = load i8*, i8** %8, align 8
  %16 = getelementptr inbounds i8, i8* %15, i64 %7
  %17 = getelementptr inbounds i8, i8* %16, i64 8
  %18 = load i64, i64* %14, align 8
  %19 = icmp eq i64 %18, -1
  br i1 %19, label %26, label %20

20:                                               ; preds = %2
  %21 = load %"class.mojo::Message"*, %"class.mojo::Message"** %13, align 8
  %22 = getelementptr inbounds %"class.mojo::Message", %"class.mojo::Message"* %21, i64 0, i32 1, i32 2
  %23 = load i8*, i8** %22, align 8
  %24 = getelementptr inbounds i8, i8* %23, i64 %18
  %25 = bitcast i8* %24 to %"class.mojo::internal::Array_Data"*
  br label %26

26:                                               ; preds = %2, %20
  %27 = phi %"class.mojo::internal::Array_Data"* [ %25, %20 ], [ null, %2 ]
  %28 = bitcast i8* %17 to i64*
  %29 = icmp eq %"class.mojo::internal::Array_Data"* %27, null
  %30 = ptrtoint %"class.mojo::internal::Array_Data"* %27 to i64
  %31 = ptrtoint i8* %17 to i64
  %32 = sub i64 %30, %31
  %33 = select i1 %29, i64 0, i64 %32
  store i64 %33, i64* %28, align 8
  %34 = getelementptr inbounds %"class.media_router::mojom::MediaRouteProviderProxy", %"class.media_router::mojom::MediaRouteProviderProxy"* %0, i64 0, i32 1
  %35 = bitcast %"class.mojo::MessageReceiverWithResponder"** %34 to %"class.mojo::MessageReceiver"**
  %36 = load %"class.mojo::MessageReceiver"*, %"class.mojo::MessageReceiver"** %35, align 8
  %37 = bitcast %"class.mojo::MessageReceiver"* %36 to i1 (%"class.mojo::MessageReceiver"*, %"class.mojo::Message"*)***
  %38 = load i1 (%"class.mojo::MessageReceiver"*, %"class.mojo::Message"*)**, i1 (%"class.mojo::MessageReceiver"*, %"class.mojo::Message"*)*** %37, align 8
  %39 = getelementptr inbounds i1 (%"class.mojo::MessageReceiver"*, %"class.mojo::Message"*)*, i1 (%"class.mojo::MessageReceiver"*, %"class.mojo::Message"*)** %38, i64 3
  %40 = load i1 (%"class.mojo::MessageReceiver"*, %"class.mojo::Message"*)*, i1 (%"class.mojo::MessageReceiver"*, %"class.mojo::Message"*)** %39, align 8
  %41 = call zeroext i1 %40(%"class.mojo::MessageReceiver"* %36, %"class.mojo::Message"* nonnull %3) #13
  call void @llvm.lifetime.end.p0i8(i64 16, i8* nonnull %12) #13
  call void @_ZN4mojo7MessageD1Ev(%"class.mojo::Message"* nonnull %3) #13
  call void @llvm.lifetime.end.p0i8(i64 120, i8* nonnull %5) #13
  ret void
}

; Function Attrs: nounwind ssp uwtable
define hidden void @_ZN12media_router5mojom23MediaRouteProviderProxy24StopObservingMediaRoutesERKNSt3__112basic_stringIcNS2_11char_traitsIcEENS2_9allocatorIcEEEE(%"class.media_router::mojom::MediaRouteProviderProxy"* nocapture readonly, %"class.std::__1::basic_string"* dereferenceable(24)) unnamed_addr #0 align 2 {
  %3 = alloca %"class.mojo::Message", align 8
  %4 = alloca %"class.mojo::internal::MessageFragment.93", align 8
  %5 = bitcast %"class.mojo::Message"* %3 to i8*
  call void @llvm.lifetime.start.p0i8(i64 120, i8* nonnull %5) #13
  call void @llvm.memset.p0i8.i64(i8* nonnull align 8 %5, i8 -86, i64 120, i1 false)
  call void @_ZN4mojo7MessageC1EjjmmPNSt3__16vectorINS_16ScopedHandleBaseINS_6HandleEEENS1_9allocatorIS5_EEEE(%"class.mojo::Message"* nonnull %3, i32 792594567, i32 0, i64 0, i64 0, %"class.std::__1::vector"* null) #13
  %6 = getelementptr inbounds %"class.mojo::Message", %"class.mojo::Message"* %3, i64 0, i32 1
  %7 = call i64 @_ZN4mojo8internal6Buffer8AllocateEm(%"class.mojo::internal::Buffer"* %6, i64 16) #13
  %8 = getelementptr inbounds %"class.mojo::Message", %"class.mojo::Message"* %3, i64 0, i32 1, i32 2
  %9 = load i8*, i8** %8, align 8
  %10 = getelementptr inbounds i8, i8* %9, i64 %7
  %11 = bitcast i8* %10 to %"class.media_router::mojom::internal::MediaRouteProvider_StopObservingMediaRoutes_Params_Data"*
  call void @_ZN12media_router5mojom8internal55MediaRouteProvider_StopObservingMediaRoutes_Params_DataC1Ev(%"class.media_router::mojom::internal::MediaRouteProvider_StopObservingMediaRoutes_Params_Data"* %11) #13
  %12 = bitcast %"class.mojo::internal::MessageFragment.93"* %4 to i8*
  call void @llvm.lifetime.start.p0i8(i64 16, i8* nonnull %12) #13
  %13 = getelementptr inbounds %"class.mojo::internal::MessageFragment.93", %"class.mojo::internal::MessageFragment.93"* %4, i64 0, i32 0
  %14 = getelementptr inbounds %"class.mojo::internal::MessageFragment.93", %"class.mojo::internal::MessageFragment.93"* %4, i64 0, i32 1
  store %"class.mojo::Message"* %3, %"class.mojo::Message"** %13, align 8
  store i64 -1, i64* %14, align 8
  call void @_ZN4mojo8internal10SerializerINS_14StringDataViewEKNSt3__112basic_stringIcNS3_11char_traitsIcEENS3_9allocatorIcEEEEE9SerializeERSA_RNS0_15MessageFragmentINS0_10Array_DataIcEEEE(%"class.std::__1::basic_string"* dereferenceable(24) %1, %"class.mojo::internal::MessageFragment.93"* nonnull dereferenceable(16) %4) #13
  %15 = load i8*, i8** %8, align 8
  %16 = getelementptr inbounds i8, i8* %15, i64 %7
  %17 = getelementptr inbounds i8, i8* %16, i64 8
  %18 = load i64, i64* %14, align 8
  %19 = icmp eq i64 %18, -1
  br i1 %19, label %26, label %20

20:                                               ; preds = %2
  %21 = load %"class.mojo::Message"*, %"class.mojo::Message"** %13, align 8
  %22 = getelementptr inbounds %"class.mojo::Message", %"class.mojo::Message"* %21, i64 0, i32 1, i32 2
  %23 = load i8*, i8** %22, align 8
  %24 = getelementptr inbounds i8, i8* %23, i64 %18
  %25 = bitcast i8* %24 to %"class.mojo::internal::Array_Data"*
  br label %26

26:                                               ; preds = %2, %20
  %27 = phi %"class.mojo::internal::Array_Data"* [ %25, %20 ], [ null, %2 ]
  %28 = bitcast i8* %17 to i64*
  %29 = icmp eq %"class.mojo::internal::Array_Data"* %27, null
  %30 = ptrtoint %"class.mojo::internal::Array_Data"* %27 to i64
  %31 = ptrtoint i8* %17 to i64
  %32 = sub i64 %30, %31
  %33 = select i1 %29, i64 0, i64 %32
  store i64 %33, i64* %28, align 8
  %34 = getelementptr inbounds %"class.media_router::mojom::MediaRouteProviderProxy", %"class.media_router::mojom::MediaRouteProviderProxy"* %0, i64 0, i32 1
  %35 = bitcast %"class.mojo::MessageReceiverWithResponder"** %34 to %"class.mojo::MessageReceiver"**
  %36 = load %"class.mojo::MessageReceiver"*, %"class.mojo::MessageReceiver"** %35, align 8
  %37 = bitcast %"class.mojo::MessageReceiver"* %36 to i1 (%"class.mojo::MessageReceiver"*, %"class.mojo::Message"*)***
  %38 = load i1 (%"class.mojo::MessageReceiver"*, %"class.mojo::Message"*)**, i1 (%"class.mojo::MessageReceiver"*, %"class.mojo::Message"*)*** %37, align 8
  %39 = getelementptr inbounds i1 (%"class.mojo::MessageReceiver"*, %"class.mojo::Message"*)*, i1 (%"class.mojo::MessageReceiver"*, %"class.mojo::Message"*)** %38, i64 3
  %40 = load i1 (%"class.mojo::MessageReceiver"*, %"class.mojo::Message"*)*, i1 (%"class.mojo::MessageReceiver"*, %"class.mojo::Message"*)** %39, align 8
  %41 = call zeroext i1 %40(%"class.mojo::MessageReceiver"* %36, %"class.mojo::Message"* nonnull %3) #13
  call void @llvm.lifetime.end.p0i8(i64 16, i8* nonnull %12) #13
  call void @_ZN4mojo7MessageD1Ev(%"class.mojo::Message"* nonnull %3) #13
  call void @llvm.lifetime.end.p0i8(i64 120, i8* nonnull %5) #13
  ret void
}

; Function Attrs: nounwind ssp uwtable
define hidden void @_ZN12media_router5mojom23MediaRouteProviderProxy30StartListeningForRouteMessagesERKNSt3__112basic_stringIcNS2_11char_traitsIcEENS2_9allocatorIcEEEE(%"class.media_router::mojom::MediaRouteProviderProxy"* nocapture readonly, %"class.std::__1::basic_string"* dereferenceable(24)) unnamed_addr #0 align 2 {
  %3 = alloca %"class.mojo::Message", align 8
  %4 = alloca %"class.mojo::internal::MessageFragment.93", align 8
  %5 = bitcast %"class.mojo::Message"* %3 to i8*
  call void @llvm.lifetime.start.p0i8(i64 120, i8* nonnull %5) #13
  call void @llvm.memset.p0i8.i64(i8* nonnull align 8 %5, i8 -86, i64 120, i1 false)
  call void @_ZN4mojo7MessageC1EjjmmPNSt3__16vectorINS_16ScopedHandleBaseINS_6HandleEEENS1_9allocatorIS5_EEEE(%"class.mojo::Message"* nonnull %3, i32 468663343, i32 0, i64 0, i64 0, %"class.std::__1::vector"* null) #13
  %6 = getelementptr inbounds %"class.mojo::Message", %"class.mojo::Message"* %3, i64 0, i32 1
  %7 = call i64 @_ZN4mojo8internal6Buffer8AllocateEm(%"class.mojo::internal::Buffer"* %6, i64 16) #13
  %8 = getelementptr inbounds %"class.mojo::Message", %"class.mojo::Message"* %3, i64 0, i32 1, i32 2
  %9 = load i8*, i8** %8, align 8
  %10 = getelementptr inbounds i8, i8* %9, i64 %7
  %11 = bitcast i8* %10 to %"class.media_router::mojom::internal::MediaRouteProvider_StartListeningForRouteMessages_Params_Data"*
  call void @_ZN12media_router5mojom8internal61MediaRouteProvider_StartListeningForRouteMessages_Params_DataC1Ev(%"class.media_router::mojom::internal::MediaRouteProvider_StartListeningForRouteMessages_Params_Data"* %11) #13
  %12 = bitcast %"class.mojo::internal::MessageFragment.93"* %4 to i8*
  call void @llvm.lifetime.start.p0i8(i64 16, i8* nonnull %12) #13
  %13 = getelementptr inbounds %"class.mojo::internal::MessageFragment.93", %"class.mojo::internal::MessageFragment.93"* %4, i64 0, i32 0
  %14 = getelementptr inbounds %"class.mojo::internal::MessageFragment.93", %"class.mojo::internal::MessageFragment.93"* %4, i64 0, i32 1
  store %"class.mojo::Message"* %3, %"class.mojo::Message"** %13, align 8
  store i64 -1, i64* %14, align 8
  call void @_ZN4mojo8internal10SerializerINS_14StringDataViewEKNSt3__112basic_stringIcNS3_11char_traitsIcEENS3_9allocatorIcEEEEE9SerializeERSA_RNS0_15MessageFragmentINS0_10Array_DataIcEEEE(%"class.std::__1::basic_string"* dereferenceable(24) %1, %"class.mojo::internal::MessageFragment.93"* nonnull dereferenceable(16) %4) #13
  %15 = load i8*, i8** %8, align 8
  %16 = getelementptr inbounds i8, i8* %15, i64 %7
  %17 = getelementptr inbounds i8, i8* %16, i64 8
  %18 = load i64, i64* %14, align 8
  %19 = icmp eq i64 %18, -1
  br i1 %19, label %26, label %20

20:                                               ; preds = %2
  %21 = load %"class.mojo::Message"*, %"class.mojo::Message"** %13, align 8
  %22 = getelementptr inbounds %"class.mojo::Message", %"class.mojo::Message"* %21, i64 0, i32 1, i32 2
  %23 = load i8*, i8** %22, align 8
  %24 = getelementptr inbounds i8, i8* %23, i64 %18
  %25 = bitcast i8* %24 to %"class.mojo::internal::Array_Data"*
  br label %26

26:                                               ; preds = %2, %20
  %27 = phi %"class.mojo::internal::Array_Data"* [ %25, %20 ], [ null, %2 ]
  %28 = bitcast i8* %17 to i64*
  %29 = icmp eq %"class.mojo::internal::Array_Data"* %27, null
  %30 = ptrtoint %"class.mojo::internal::Array_Data"* %27 to i64
  %31 = ptrtoint i8* %17 to i64
  %32 = sub i64 %30, %31
  %33 = select i1 %29, i64 0, i64 %32
  store i64 %33, i64* %28, align 8
  %34 = getelementptr inbounds %"class.media_router::mojom::MediaRouteProviderProxy", %"class.media_router::mojom::MediaRouteProviderProxy"* %0, i64 0, i32 1
  %35 = bitcast %"class.mojo::MessageReceiverWithResponder"** %34 to %"class.mojo::MessageReceiver"**
  %36 = load %"class.mojo::MessageReceiver"*, %"class.mojo::MessageReceiver"** %35, align 8
  %37 = bitcast %"class.mojo::MessageReceiver"* %36 to i1 (%"class.mojo::MessageReceiver"*, %"class.mojo::Message"*)***
  %38 = load i1 (%"class.mojo::MessageReceiver"*, %"class.mojo::Message"*)**, i1 (%"class.mojo::MessageReceiver"*, %"class.mojo::Message"*)*** %37, align 8
  %39 = getelementptr inbounds i1 (%"class.mojo::MessageReceiver"*, %"class.mojo::Message"*)*, i1 (%"class.mojo::MessageReceiver"*, %"class.mojo::Message"*)** %38, i64 3
  %40 = load i1 (%"class.mojo::MessageReceiver"*, %"class.mojo::Message"*)*, i1 (%"class.mojo::MessageReceiver"*, %"class.mojo::Message"*)** %39, align 8
  %41 = call zeroext i1 %40(%"class.mojo::MessageReceiver"* %36, %"class.mojo::Message"* nonnull %3) #13
  call void @llvm.lifetime.end.p0i8(i64 16, i8* nonnull %12) #13
  call void @_ZN4mojo7MessageD1Ev(%"class.mojo::Message"* nonnull %3) #13
  call void @llvm.lifetime.end.p0i8(i64 120, i8* nonnull %5) #13
  ret void
}

; Function Attrs: nounwind ssp uwtable
define hidden void @_ZN12media_router5mojom23MediaRouteProviderProxy29StopListeningForRouteMessagesERKNSt3__112basic_stringIcNS2_11char_traitsIcEENS2_9allocatorIcEEEE(%"class.media_router::mojom::MediaRouteProviderProxy"* nocapture readonly, %"class.std::__1::basic_string"* dereferenceable(24)) unnamed_addr #0 align 2 {
  %3 = alloca %"class.mojo::Message", align 8
  %4 = alloca %"class.mojo::internal::MessageFragment.93", align 8
  %5 = bitcast %"class.mojo::Message"* %3 to i8*
  call void @llvm.lifetime.start.p0i8(i64 120, i8* nonnull %5) #13
  call void @llvm.memset.p0i8.i64(i8* nonnull align 8 %5, i8 -86, i64 120, i1 false)
  call void @_ZN4mojo7MessageC1EjjmmPNSt3__16vectorINS_16ScopedHandleBaseINS_6HandleEEENS1_9allocatorIS5_EEEE(%"class.mojo::Message"* nonnull %3, i32 450443892, i32 0, i64 0, i64 0, %"class.std::__1::vector"* null) #13
  %6 = getelementptr inbounds %"class.mojo::Message", %"class.mojo::Message"* %3, i64 0, i32 1
  %7 = call i64 @_ZN4mojo8internal6Buffer8AllocateEm(%"class.mojo::internal::Buffer"* %6, i64 16) #13
  %8 = getelementptr inbounds %"class.mojo::Message", %"class.mojo::Message"* %3, i64 0, i32 1, i32 2
  %9 = load i8*, i8** %8, align 8
  %10 = getelementptr inbounds i8, i8* %9, i64 %7
  %11 = bitcast i8* %10 to %"class.media_router::mojom::internal::MediaRouteProvider_StopListeningForRouteMessages_Params_Data"*
  call void @_ZN12media_router5mojom8internal60MediaRouteProvider_StopListeningForRouteMessages_Params_DataC1Ev(%"class.media_router::mojom::internal::MediaRouteProvider_StopListeningForRouteMessages_Params_Data"* %11) #13
  %12 = bitcast %"class.mojo::internal::MessageFragment.93"* %4 to i8*
  call void @llvm.lifetime.start.p0i8(i64 16, i8* nonnull %12) #13
  %13 = getelementptr inbounds %"class.mojo::internal::MessageFragment.93", %"class.mojo::internal::MessageFragment.93"* %4, i64 0, i32 0
  %14 = getelementptr inbounds %"class.mojo::internal::MessageFragment.93", %"class.mojo::internal::MessageFragment.93"* %4, i64 0, i32 1
  store %"class.mojo::Message"* %3, %"class.mojo::Message"** %13, align 8
  store i64 -1, i64* %14, align 8
  call void @_ZN4mojo8internal10SerializerINS_14StringDataViewEKNSt3__112basic_stringIcNS3_11char_traitsIcEENS3_9allocatorIcEEEEE9SerializeERSA_RNS0_15MessageFragmentINS0_10Array_DataIcEEEE(%"class.std::__1::basic_string"* dereferenceable(24) %1, %"class.mojo::internal::MessageFragment.93"* nonnull dereferenceable(16) %4) #13
  %15 = load i8*, i8** %8, align 8
  %16 = getelementptr inbounds i8, i8* %15, i64 %7
  %17 = getelementptr inbounds i8, i8* %16, i64 8
  %18 = load i64, i64* %14, align 8
  %19 = icmp eq i64 %18, -1
  br i1 %19, label %26, label %20

20:                                               ; preds = %2
  %21 = load %"class.mojo::Message"*, %"class.mojo::Message"** %13, align 8
  %22 = getelementptr inbounds %"class.mojo::Message", %"class.mojo::Message"* %21, i64 0, i32 1, i32 2
  %23 = load i8*, i8** %22, align 8
  %24 = getelementptr inbounds i8, i8* %23, i64 %18
  %25 = bitcast i8* %24 to %"class.mojo::internal::Array_Data"*
  br label %26

26:                                               ; preds = %2, %20
  %27 = phi %"class.mojo::internal::Array_Data"* [ %25, %20 ], [ null, %2 ]
  %28 = bitcast i8* %17 to i64*
  %29 = icmp eq %"class.mojo::internal::Array_Data"* %27, null
  %30 = ptrtoint %"class.mojo::internal::Array_Data"* %27 to i64
  %31 = ptrtoint i8* %17 to i64
  %32 = sub i64 %30, %31
  %33 = select i1 %29, i64 0, i64 %32
  store i64 %33, i64* %28, align 8
  %34 = getelementptr inbounds %"class.media_router::mojom::MediaRouteProviderProxy", %"class.media_router::mojom::MediaRouteProviderProxy"* %0, i64 0, i32 1
  %35 = bitcast %"class.mojo::MessageReceiverWithResponder"** %34 to %"class.mojo::MessageReceiver"**
  %36 = load %"class.mojo::MessageReceiver"*, %"class.mojo::MessageReceiver"** %35, align 8
  %37 = bitcast %"class.mojo::MessageReceiver"* %36 to i1 (%"class.mojo::MessageReceiver"*, %"class.mojo::Message"*)***
  %38 = load i1 (%"class.mojo::MessageReceiver"*, %"class.mojo::Message"*)**, i1 (%"class.mojo::MessageReceiver"*, %"class.mojo::Message"*)*** %37, align 8
  %39 = getelementptr inbounds i1 (%"class.mojo::MessageReceiver"*, %"class.mojo::Message"*)*, i1 (%"class.mojo::MessageReceiver"*, %"class.mojo::Message"*)** %38, i64 3
  %40 = load i1 (%"class.mojo::MessageReceiver"*, %"class.mojo::Message"*)*, i1 (%"class.mojo::MessageReceiver"*, %"class.mojo::Message"*)** %39, align 8
  %41 = call zeroext i1 %40(%"class.mojo::MessageReceiver"* %36, %"class.mojo::Message"* nonnull %3) #13
  call void @llvm.lifetime.end.p0i8(i64 16, i8* nonnull %12) #13
  call void @_ZN4mojo7MessageD1Ev(%"class.mojo::Message"* nonnull %3) #13
  call void @llvm.lifetime.end.p0i8(i64 120, i8* nonnull %5) #13
  ret void
}

; Function Attrs: nounwind ssp uwtable
define hidden void @_ZN12media_router5mojom23MediaRouteProviderProxy11DetachRouteERKNSt3__112basic_stringIcNS2_11char_traitsIcEENS2_9allocatorIcEEEE(%"class.media_router::mojom::MediaRouteProviderProxy"* nocapture readonly, %"class.std::__1::basic_string"* dereferenceable(24)) unnamed_addr #0 align 2 {
  %3 = alloca %"class.mojo::Message", align 8
  %4 = alloca %"class.mojo::internal::MessageFragment.93", align 8
  %5 = bitcast %"class.mojo::Message"* %3 to i8*
  call void @llvm.lifetime.start.p0i8(i64 120, i8* nonnull %5) #13
  call void @llvm.memset.p0i8.i64(i8* nonnull align 8 %5, i8 -86, i64 120, i1 false)
  call void @_ZN4mojo7MessageC1EjjmmPNSt3__16vectorINS_16ScopedHandleBaseINS_6HandleEEENS1_9allocatorIS5_EEEE(%"class.mojo::Message"* nonnull %3, i32 276950636, i32 0, i64 0, i64 0, %"class.std::__1::vector"* null) #13
  %6 = getelementptr inbounds %"class.mojo::Message", %"class.mojo::Message"* %3, i64 0, i32 1
  %7 = call i64 @_ZN4mojo8internal6Buffer8AllocateEm(%"class.mojo::internal::Buffer"* %6, i64 16) #13
  %8 = getelementptr inbounds %"class.mojo::Message", %"class.mojo::Message"* %3, i64 0, i32 1, i32 2
  %9 = load i8*, i8** %8, align 8
  %10 = getelementptr inbounds i8, i8* %9, i64 %7
  %11 = bitcast i8* %10 to %"class.media_router::mojom::internal::MediaRouteProvider_DetachRoute_Params_Data"*
  call void @_ZN12media_router5mojom8internal42MediaRouteProvider_DetachRoute_Params_DataC1Ev(%"class.media_router::mojom::internal::MediaRouteProvider_DetachRoute_Params_Data"* %11) #13
  %12 = bitcast %"class.mojo::internal::MessageFragment.93"* %4 to i8*
  call void @llvm.lifetime.start.p0i8(i64 16, i8* nonnull %12) #13
  %13 = getelementptr inbounds %"class.mojo::internal::MessageFragment.93", %"class.mojo::internal::MessageFragment.93"* %4, i64 0, i32 0
  %14 = getelementptr inbounds %"class.mojo::internal::MessageFragment.93", %"class.mojo::internal::MessageFragment.93"* %4, i64 0, i32 1
  store %"class.mojo::Message"* %3, %"class.mojo::Message"** %13, align 8
  store i64 -1, i64* %14, align 8
  call void @_ZN4mojo8internal10SerializerINS_14StringDataViewEKNSt3__112basic_stringIcNS3_11char_traitsIcEENS3_9allocatorIcEEEEE9SerializeERSA_RNS0_15MessageFragmentINS0_10Array_DataIcEEEE(%"class.std::__1::basic_string"* dereferenceable(24) %1, %"class.mojo::internal::MessageFragment.93"* nonnull dereferenceable(16) %4) #13
  %15 = load i8*, i8** %8, align 8
  %16 = getelementptr inbounds i8, i8* %15, i64 %7
  %17 = getelementptr inbounds i8, i8* %16, i64 8
  %18 = load i64, i64* %14, align 8
  %19 = icmp eq i64 %18, -1
  br i1 %19, label %26, label %20

20:                                               ; preds = %2
  %21 = load %"class.mojo::Message"*, %"class.mojo::Message"** %13, align 8
  %22 = getelementptr inbounds %"class.mojo::Message", %"class.mojo::Message"* %21, i64 0, i32 1, i32 2
  %23 = load i8*, i8** %22, align 8
  %24 = getelementptr inbounds i8, i8* %23, i64 %18
  %25 = bitcast i8* %24 to %"class.mojo::internal::Array_Data"*
  br label %26

26:                                               ; preds = %2, %20
  %27 = phi %"class.mojo::internal::Array_Data"* [ %25, %20 ], [ null, %2 ]
  %28 = bitcast i8* %17 to i64*
  %29 = icmp eq %"class.mojo::internal::Array_Data"* %27, null
  %30 = ptrtoint %"class.mojo::internal::Array_Data"* %27 to i64
  %31 = ptrtoint i8* %17 to i64
  %32 = sub i64 %30, %31
  %33 = select i1 %29, i64 0, i64 %32
  store i64 %33, i64* %28, align 8
  %34 = getelementptr inbounds %"class.media_router::mojom::MediaRouteProviderProxy", %"class.media_router::mojom::MediaRouteProviderProxy"* %0, i64 0, i32 1
  %35 = bitcast %"class.mojo::MessageReceiverWithResponder"** %34 to %"class.mojo::MessageReceiver"**
  %36 = load %"class.mojo::MessageReceiver"*, %"class.mojo::MessageReceiver"** %35, align 8
  %37 = bitcast %"class.mojo::MessageReceiver"* %36 to i1 (%"class.mojo::MessageReceiver"*, %"class.mojo::Message"*)***
  %38 = load i1 (%"class.mojo::MessageReceiver"*, %"class.mojo::Message"*)**, i1 (%"class.mojo::MessageReceiver"*, %"class.mojo::Message"*)*** %37, align 8
  %39 = getelementptr inbounds i1 (%"class.mojo::MessageReceiver"*, %"class.mojo::Message"*)*, i1 (%"class.mojo::MessageReceiver"*, %"class.mojo::Message"*)** %38, i64 3
  %40 = load i1 (%"class.mojo::MessageReceiver"*, %"class.mojo::Message"*)*, i1 (%"class.mojo::MessageReceiver"*, %"class.mojo::Message"*)** %39, align 8
  %41 = call zeroext i1 %40(%"class.mojo::MessageReceiver"* %36, %"class.mojo::Message"* nonnull %3) #13
  call void @llvm.lifetime.end.p0i8(i64 16, i8* nonnull %12) #13
  call void @_ZN4mojo7MessageD1Ev(%"class.mojo::Message"* nonnull %3) #13
  call void @llvm.lifetime.end.p0i8(i64 120, i8* nonnull %5) #13
  ret void
}

; Function Attrs: nounwind ssp uwtable
define hidden void @_ZN12media_router5mojom23MediaRouteProviderProxy19EnableMdnsDiscoveryEv(%"class.media_router::mojom::MediaRouteProviderProxy"* nocapture readonly) unnamed_addr #0 align 2 {
  %2 = alloca %"class.mojo::Message", align 8
  %3 = bitcast %"class.mojo::Message"* %2 to i8*
  call void @llvm.lifetime.start.p0i8(i64 120, i8* nonnull %3) #13
  call void @llvm.memset.p0i8.i64(i8* nonnull align 8 %3, i8 -86, i64 120, i1 false)
  call void @_ZN4mojo7MessageC1EjjmmPNSt3__16vectorINS_16ScopedHandleBaseINS_6HandleEEENS1_9allocatorIS5_EEEE(%"class.mojo::Message"* nonnull %2, i32 556180616, i32 0, i64 0, i64 0, %"class.std::__1::vector"* null) #13
  %4 = getelementptr inbounds %"class.mojo::Message", %"class.mojo::Message"* %2, i64 0, i32 1
  %5 = call i64 @_ZN4mojo8internal6Buffer8AllocateEm(%"class.mojo::internal::Buffer"* %4, i64 8) #13
  %6 = getelementptr inbounds %"class.mojo::Message", %"class.mojo::Message"* %2, i64 0, i32 1, i32 2
  %7 = load i8*, i8** %6, align 8
  %8 = getelementptr inbounds i8, i8* %7, i64 %5
  %9 = bitcast i8* %8 to %"class.media_router::mojom::internal::MediaRouteProvider_EnableMdnsDiscovery_Params_Data"*
  call void @_ZN12media_router5mojom8internal50MediaRouteProvider_EnableMdnsDiscovery_Params_DataC1Ev(%"class.media_router::mojom::internal::MediaRouteProvider_EnableMdnsDiscovery_Params_Data"* %9) #13
  %10 = getelementptr inbounds %"class.media_router::mojom::MediaRouteProviderProxy", %"class.media_router::mojom::MediaRouteProviderProxy"* %0, i64 0, i32 1
  %11 = bitcast %"class.mojo::MessageReceiverWithResponder"** %10 to %"class.mojo::MessageReceiver"**
  %12 = load %"class.mojo::MessageReceiver"*, %"class.mojo::MessageReceiver"** %11, align 8
  %13 = bitcast %"class.mojo::MessageReceiver"* %12 to i1 (%"class.mojo::MessageReceiver"*, %"class.mojo::Message"*)***
  %14 = load i1 (%"class.mojo::MessageReceiver"*, %"class.mojo::Message"*)**, i1 (%"class.mojo::MessageReceiver"*, %"class.mojo::Message"*)*** %13, align 8
  %15 = getelementptr inbounds i1 (%"class.mojo::MessageReceiver"*, %"class.mojo::Message"*)*, i1 (%"class.mojo::MessageReceiver"*, %"class.mojo::Message"*)** %14, i64 3
  %16 = load i1 (%"class.mojo::MessageReceiver"*, %"class.mojo::Message"*)*, i1 (%"class.mojo::MessageReceiver"*, %"class.mojo::Message"*)** %15, align 8
  %17 = call zeroext i1 %16(%"class.mojo::MessageReceiver"* %12, %"class.mojo::Message"* nonnull %2) #13
  call void @_ZN4mojo7MessageD1Ev(%"class.mojo::Message"* nonnull %2) #13
  call void @llvm.lifetime.end.p0i8(i64 120, i8* nonnull %3) #13
  ret void
}

; Function Attrs: nounwind ssp uwtable
define hidden void @_ZN12media_router5mojom23MediaRouteProviderProxy16UpdateMediaSinksERKNSt3__112basic_stringIcNS2_11char_traitsIcEENS2_9allocatorIcEEEE(%"class.media_router::mojom::MediaRouteProviderProxy"* nocapture readonly, %"class.std::__1::basic_string"* dereferenceable(24)) unnamed_addr #0 align 2 {
  %3 = alloca %"class.mojo::Message", align 8
  %4 = alloca %"class.mojo::internal::MessageFragment.93", align 8
  %5 = bitcast %"class.mojo::Message"* %3 to i8*
  call void @llvm.lifetime.start.p0i8(i64 120, i8* nonnull %5) #13
  call void @llvm.memset.p0i8.i64(i8* nonnull align 8 %5, i8 -86, i64 120, i1 false)
  call void @_ZN4mojo7MessageC1EjjmmPNSt3__16vectorINS_16ScopedHandleBaseINS_6HandleEEENS1_9allocatorIS5_EEEE(%"class.mojo::Message"* nonnull %3, i32 2136808940, i32 0, i64 0, i64 0, %"class.std::__1::vector"* null) #13
  %6 = getelementptr inbounds %"class.mojo::Message", %"class.mojo::Message"* %3, i64 0, i32 1
  %7 = call i64 @_ZN4mojo8internal6Buffer8AllocateEm(%"class.mojo::internal::Buffer"* %6, i64 16) #13
  %8 = getelementptr inbounds %"class.mojo::Message", %"class.mojo::Message"* %3, i64 0, i32 1, i32 2
  %9 = load i8*, i8** %8, align 8
  %10 = getelementptr inbounds i8, i8* %9, i64 %7
  %11 = bitcast i8* %10 to %"class.media_router::mojom::internal::MediaRouteProvider_UpdateMediaSinks_Params_Data"*
  call void @_ZN12media_router5mojom8internal47MediaRouteProvider_UpdateMediaSinks_Params_DataC1Ev(%"class.media_router::mojom::internal::MediaRouteProvider_UpdateMediaSinks_Params_Data"* %11) #13
  %12 = bitcast %"class.mojo::internal::MessageFragment.93"* %4 to i8*
  call void @llvm.lifetime.start.p0i8(i64 16, i8* nonnull %12) #13
  %13 = getelementptr inbounds %"class.mojo::internal::MessageFragment.93", %"class.mojo::internal::MessageFragment.93"* %4, i64 0, i32 0
  %14 = getelementptr inbounds %"class.mojo::internal::MessageFragment.93", %"class.mojo::internal::MessageFragment.93"* %4, i64 0, i32 1
  store %"class.mojo::Message"* %3, %"class.mojo::Message"** %13, align 8
  store i64 -1, i64* %14, align 8
  call void @_ZN4mojo8internal10SerializerINS_14StringDataViewEKNSt3__112basic_stringIcNS3_11char_traitsIcEENS3_9allocatorIcEEEEE9SerializeERSA_RNS0_15MessageFragmentINS0_10Array_DataIcEEEE(%"class.std::__1::basic_string"* dereferenceable(24) %1, %"class.mojo::internal::MessageFragment.93"* nonnull dereferenceable(16) %4) #13
  %15 = load i8*, i8** %8, align 8
  %16 = getelementptr inbounds i8, i8* %15, i64 %7
  %17 = getelementptr inbounds i8, i8* %16, i64 8
  %18 = load i64, i64* %14, align 8
  %19 = icmp eq i64 %18, -1
  br i1 %19, label %26, label %20

20:                                               ; preds = %2
  %21 = load %"class.mojo::Message"*, %"class.mojo::Message"** %13, align 8
  %22 = getelementptr inbounds %"class.mojo::Message", %"class.mojo::Message"* %21, i64 0, i32 1, i32 2
  %23 = load i8*, i8** %22, align 8
  %24 = getelementptr inbounds i8, i8* %23, i64 %18
  %25 = bitcast i8* %24 to %"class.mojo::internal::Array_Data"*
  br label %26

26:                                               ; preds = %2, %20
  %27 = phi %"class.mojo::internal::Array_Data"* [ %25, %20 ], [ null, %2 ]
  %28 = bitcast i8* %17 to i64*
  %29 = icmp eq %"class.mojo::internal::Array_Data"* %27, null
  %30 = ptrtoint %"class.mojo::internal::Array_Data"* %27 to i64
  %31 = ptrtoint i8* %17 to i64
  %32 = sub i64 %30, %31
  %33 = select i1 %29, i64 0, i64 %32
  store i64 %33, i64* %28, align 8
  %34 = getelementptr inbounds %"class.media_router::mojom::MediaRouteProviderProxy", %"class.media_router::mojom::MediaRouteProviderProxy"* %0, i64 0, i32 1
  %35 = bitcast %"class.mojo::MessageReceiverWithResponder"** %34 to %"class.mojo::MessageReceiver"**
  %36 = load %"class.mojo::MessageReceiver"*, %"class.mojo::MessageReceiver"** %35, align 8
  %37 = bitcast %"class.mojo::MessageReceiver"* %36 to i1 (%"class.mojo::MessageReceiver"*, %"class.mojo::Message"*)***
  %38 = load i1 (%"class.mojo::MessageReceiver"*, %"class.mojo::Message"*)**, i1 (%"class.mojo::MessageReceiver"*, %"class.mojo::Message"*)*** %37, align 8
  %39 = getelementptr inbounds i1 (%"class.mojo::MessageReceiver"*, %"class.mojo::Message"*)*, i1 (%"class.mojo::MessageReceiver"*, %"class.mojo::Message"*)** %38, i64 3
  %40 = load i1 (%"class.mojo::MessageReceiver"*, %"class.mojo::Message"*)*, i1 (%"class.mojo::MessageReceiver"*, %"class.mojo::Message"*)** %39, align 8
  %41 = call zeroext i1 %40(%"class.mojo::MessageReceiver"* %36, %"class.mojo::Message"* nonnull %3) #13
  call void @llvm.lifetime.end.p0i8(i64 16, i8* nonnull %12) #13
  call void @_ZN4mojo7MessageD1Ev(%"class.mojo::Message"* nonnull %3) #13
  call void @llvm.lifetime.end.p0i8(i64 120, i8* nonnull %5) #13
  ret void
}

; Function Attrs: nounwind ssp uwtable
define hidden void @_ZN12media_router5mojom23MediaRouteProviderProxy26CreateMediaRouteControllerERKNSt3__112basic_stringIcNS2_11char_traitsIcEENS2_9allocatorIcEEEEN4mojo15PendingReceiverINS0_15MediaControllerEEENSB_13PendingRemoteINS0_19MediaStatusObserverEEEN4base12OnceCallbackIFvbEEE(%"class.media_router::mojom::MediaRouteProviderProxy"* nocapture readonly, %"class.std::__1::basic_string"* dereferenceable(24), %"class.mojo::PendingReceiver.123"* nocapture, %"class.mojo::PendingRemote.124"* nocapture, %"class.base::OnceCallback.125"* nocapture) unnamed_addr #0 align 2 {
  %6 = alloca %"class.mojo::ScopedHandleBase.30", align 4
  %7 = alloca %"class.mojo::ScopedHandleBase.73", align 4
  %8 = alloca %"class.mojo::Message", align 8
  %9 = alloca %"class.mojo::internal::MessageFragment.93", align 8
  %10 = alloca %"class.base::OnceCallback.125", align 8
  %11 = bitcast %"class.mojo::Message"* %8 to i8*
  call void @llvm.lifetime.start.p0i8(i64 120, i8* nonnull %11) #13
  call void @llvm.memset.p0i8.i64(i8* nonnull align 8 %11, i8 -86, i64 120, i1 false)
  call void @_ZN4mojo7MessageC1EjjmmPNSt3__16vectorINS_16ScopedHandleBaseINS_6HandleEEENS1_9allocatorIS5_EEEE(%"class.mojo::Message"* nonnull %8, i32 1937535124, i32 1, i64 0, i64 0, %"class.std::__1::vector"* null) #13
  %12 = getelementptr inbounds %"class.mojo::Message", %"class.mojo::Message"* %8, i64 0, i32 1
  %13 = call i64 @_ZN4mojo8internal6Buffer8AllocateEm(%"class.mojo::internal::Buffer"* %12, i64 32) #13
  %14 = getelementptr inbounds %"class.mojo::Message", %"class.mojo::Message"* %8, i64 0, i32 1, i32 2
  %15 = load i8*, i8** %14, align 8
  %16 = getelementptr inbounds i8, i8* %15, i64 %13
  %17 = bitcast i8* %16 to %"class.media_router::mojom::internal::MediaRouteProvider_CreateMediaRouteController_Params_Data"*
  call void @_ZN12media_router5mojom8internal57MediaRouteProvider_CreateMediaRouteController_Params_DataC1Ev(%"class.media_router::mojom::internal::MediaRouteProvider_CreateMediaRouteController_Params_Data"* %17) #13
  %18 = bitcast %"class.mojo::internal::MessageFragment.93"* %9 to i8*
  call void @llvm.lifetime.start.p0i8(i64 16, i8* nonnull %18) #13
  %19 = getelementptr inbounds %"class.mojo::internal::MessageFragment.93", %"class.mojo::internal::MessageFragment.93"* %9, i64 0, i32 0
  %20 = getelementptr inbounds %"class.mojo::internal::MessageFragment.93", %"class.mojo::internal::MessageFragment.93"* %9, i64 0, i32 1
  store %"class.mojo::Message"* %8, %"class.mojo::Message"** %19, align 8
  store i64 -1, i64* %20, align 8
  call void @_ZN4mojo8internal10SerializerINS_14StringDataViewEKNSt3__112basic_stringIcNS3_11char_traitsIcEENS3_9allocatorIcEEEEE9SerializeERSA_RNS0_15MessageFragmentINS0_10Array_DataIcEEEE(%"class.std::__1::basic_string"* dereferenceable(24) %1, %"class.mojo::internal::MessageFragment.93"* nonnull dereferenceable(16) %9) #13
  %21 = load i8*, i8** %14, align 8
  %22 = getelementptr inbounds i8, i8* %21, i64 %13
  %23 = getelementptr inbounds i8, i8* %22, i64 8
  %24 = load i64, i64* %20, align 8
  %25 = icmp eq i64 %24, -1
  br i1 %25, label %32, label %26

26:                                               ; preds = %5
  %27 = load %"class.mojo::Message"*, %"class.mojo::Message"** %19, align 8
  %28 = getelementptr inbounds %"class.mojo::Message", %"class.mojo::Message"* %27, i64 0, i32 1, i32 2
  %29 = load i8*, i8** %28, align 8
  %30 = getelementptr inbounds i8, i8* %29, i64 %24
  %31 = bitcast i8* %30 to %"class.mojo::internal::Array_Data"*
  br label %32

32:                                               ; preds = %5, %26
  %33 = phi %"class.mojo::internal::Array_Data"* [ %31, %26 ], [ null, %5 ]
  %34 = bitcast i8* %23 to i64*
  %35 = icmp eq %"class.mojo::internal::Array_Data"* %33, null
  %36 = ptrtoint %"class.mojo::internal::Array_Data"* %33 to i64
  %37 = ptrtoint i8* %23 to i64
  %38 = sub i64 %36, %37
  %39 = select i1 %35, i64 0, i64 %38
  store i64 %39, i64* %34, align 8
  %40 = load i8*, i8** %14, align 8
  %41 = getelementptr inbounds i8, i8* %40, i64 %13
  %42 = getelementptr inbounds i8, i8* %41, i64 16
  %43 = bitcast i8* %42 to %"struct.mojo::internal::Handle_Data"*
  %44 = bitcast %"class.mojo::ScopedHandleBase.30"* %6 to i8*
  call void @llvm.lifetime.start.p0i8(i64 4, i8* nonnull %44) #13
  %45 = getelementptr inbounds %"class.mojo::PendingReceiver.123", %"class.mojo::PendingReceiver.123"* %2, i64 0, i32 0, i32 0, i32 0, i32 0, i32 0
  %46 = load i32, i32* %45, align 4, !noalias !5
  store i32 0, i32* %45, align 4, !noalias !5
  %47 = getelementptr inbounds %"class.mojo::ScopedHandleBase.30", %"class.mojo::ScopedHandleBase.30"* %6, i64 0, i32 0, i32 0
  store i32 %46, i32* %47, align 4, !alias.scope !10
  call void @_ZN4mojo8internal15SerializeHandleENS_16ScopedHandleBaseINS_6HandleEEERNS_7MessageERNS0_11Handle_DataE(%"class.mojo::ScopedHandleBase.30"* nonnull %6, %"class.mojo::Message"* nonnull dereferenceable(120) %8, %"struct.mojo::internal::Handle_Data"* dereferenceable(4) %43) #13
  %48 = load i32, i32* %47, align 4
  %49 = icmp eq i32 %48, 0
  br i1 %49, label %52, label %50

50:                                               ; preds = %32
  %51 = call i32 @MojoClose(i32 %48) #13
  br label %52

52:                                               ; preds = %32, %50
  call void @llvm.lifetime.end.p0i8(i64 4, i8* nonnull %44) #13
  %53 = load i8*, i8** %14, align 8
  %54 = getelementptr inbounds i8, i8* %53, i64 %13
  %55 = getelementptr inbounds i8, i8* %54, i64 20
  %56 = bitcast i8* %55 to %"struct.mojo::internal::Interface_Data"*
  %57 = bitcast %"class.mojo::ScopedHandleBase.73"* %7 to i8*
  call void @llvm.lifetime.start.p0i8(i64 4, i8* nonnull %57) #13
  %58 = getelementptr inbounds %"class.mojo::PendingRemote.124", %"class.mojo::PendingRemote.124"* %3, i64 0, i32 0, i32 1
  %59 = load i32, i32* %58, align 4
  store i32 0, i32* %58, align 4, !noalias !13
  %60 = getelementptr inbounds %"class.mojo::ScopedHandleBase.73", %"class.mojo::ScopedHandleBase.73"* %7, i64 0, i32 0, i32 0, i32 0
  %61 = getelementptr inbounds %"class.mojo::PendingRemote.124", %"class.mojo::PendingRemote.124"* %3, i64 0, i32 0, i32 0, i32 0, i32 0, i32 0
  %62 = load i32, i32* %61, align 4, !noalias !16
  store i32 %62, i32* %60, align 4, !alias.scope !16
  store i32 0, i32* %61, align 4, !noalias !16
  call void @_ZN4mojo8internal22SerializeInterfaceInfoENS_16ScopedHandleBaseINS_17MessagePipeHandleEEEjRNS_7MessageERNS0_14Interface_DataE(%"class.mojo::ScopedHandleBase.73"* nonnull %7, i32 %59, %"class.mojo::Message"* nonnull dereferenceable(120) %8, %"struct.mojo::internal::Interface_Data"* dereferenceable(8) %56) #13
  %63 = load i32, i32* %60, align 4
  %64 = icmp eq i32 %63, 0
  br i1 %64, label %67, label %65

65:                                               ; preds = %52
  %66 = call i32 @MojoClose(i32 %63) #13
  br label %67

67:                                               ; preds = %65, %52
  call void @llvm.lifetime.end.p0i8(i64 4, i8* nonnull %57) #13
  %68 = call i8* @_Znwm(i64 16) #14
  %69 = getelementptr inbounds %"class.base::OnceCallback.125", %"class.base::OnceCallback.125"* %4, i64 0, i32 0, i32 0, i32 0
  %70 = bitcast %"class.base::OnceCallback.125"* %4 to i64*
  %71 = load i64, i64* %70, align 8
  store %"class.base::internal::BindStateBase"* null, %"class.base::internal::BindStateBase"** %69, align 8
  %72 = bitcast i8* %68 to i32 (...)***
  store i32 (...)** bitcast (i8** getelementptr inbounds ({ [6 x i8*] }, { [6 x i8*] }* @_ZTVN12media_router5mojom63MediaRouteProvider_CreateMediaRouteController_ForwardToCallbackE, i64 0, inrange i32 0, i64 2) to i32 (...)**), i32 (...)*** %72, align 8
  %73 = getelementptr inbounds i8, i8* %68, i64 8
  %74 = getelementptr inbounds %"class.base::OnceCallback.125", %"class.base::OnceCallback.125"* %10, i64 0, i32 0, i32 0, i32 0
  %75 = bitcast i8* %73 to i64*
  store i64 %71, i64* %75, align 8
  store %"class.base::internal::BindStateBase"* null, %"class.base::internal::BindStateBase"** %74, align 8
  %76 = bitcast i8* %68 to %"class.mojo::MessageReceiver"*
  %77 = getelementptr inbounds %"class.base::OnceCallback.125", %"class.base::OnceCallback.125"* %10, i64 0, i32 0
  call void @_ZN4base8internal12CallbackBaseD2Ev(%"class.base::internal::CallbackBase"* nonnull %77) #13
  %78 = getelementptr inbounds %"class.media_router::mojom::MediaRouteProviderProxy", %"class.media_router::mojom::MediaRouteProviderProxy"* %0, i64 0, i32 1
  %79 = load %"class.mojo::MessageReceiverWithResponder"*, %"class.mojo::MessageReceiverWithResponder"** %78, align 8
  %80 = bitcast %"class.mojo::MessageReceiverWithResponder"* %79 to i1 (%"class.mojo::MessageReceiverWithResponder"*, %"class.mojo::Message"*, %"class.mojo::MessageReceiver"*)***
  %81 = load i1 (%"class.mojo::MessageReceiverWithResponder"*, %"class.mojo::Message"*, %"class.mojo::MessageReceiver"*)**, i1 (%"class.mojo::MessageReceiverWithResponder"*, %"class.mojo::Message"*, %"class.mojo::MessageReceiver"*)*** %80, align 8
  %82 = getelementptr inbounds i1 (%"class.mojo::MessageReceiverWithResponder"*, %"class.mojo::Message"*, %"class.mojo::MessageReceiver"*)*, i1 (%"class.mojo::MessageReceiverWithResponder"*, %"class.mojo::Message"*, %"class.mojo::MessageReceiver"*)** %81, i64 4
  %83 = load i1 (%"class.mojo::MessageReceiverWithResponder"*, %"class.mojo::Message"*, %"class.mojo::MessageReceiver"*)*, i1 (%"class.mojo::MessageReceiverWithResponder"*, %"class.mojo::Message"*, %"class.mojo::MessageReceiver"*)** %82, align 8
  %84 = call zeroext i1 %83(%"class.mojo::MessageReceiverWithResponder"* %79, %"class.mojo::Message"* nonnull %8, %"class.mojo::MessageReceiver"* nonnull %76) #13
  call void @llvm.lifetime.end.p0i8(i64 16, i8* nonnull %18) #13
  call void @_ZN4mojo7MessageD1Ev(%"class.mojo::Message"* nonnull %8) #13
  call void @llvm.lifetime.end.p0i8(i64 120, i8* nonnull %11) #13
  ret void
}

; Function Attrs: nounwind ssp uwtable
define hidden void @_ZN12media_router5mojom23MediaRouteProviderProxy8GetStateEN4base12OnceCallbackIFvN4mojo9StructPtrINS0_13ProviderStateEEEEEE(%"class.media_router::mojom::MediaRouteProviderProxy"* nocapture readonly, %"class.base::OnceCallback.127"* nocapture) unnamed_addr #0 align 2 {
  %3 = alloca %"class.mojo::Message", align 8
  %4 = alloca %"class.base::OnceCallback.127", align 8
  %5 = bitcast %"class.mojo::Message"* %3 to i8*
  call void @llvm.lifetime.start.p0i8(i64 120, i8* nonnull %5) #13
  call void @llvm.memset.p0i8.i64(i8* nonnull align 8 %5, i8 -86, i64 120, i1 false)
  call void @_ZN4mojo7MessageC1EjjmmPNSt3__16vectorINS_16ScopedHandleBaseINS_6HandleEEENS1_9allocatorIS5_EEEE(%"class.mojo::Message"* nonnull %3, i32 683974006, i32 1, i64 0, i64 0, %"class.std::__1::vector"* null) #13
  %6 = getelementptr inbounds %"class.mojo::Message", %"class.mojo::Message"* %3, i64 0, i32 1
  %7 = call i64 @_ZN4mojo8internal6Buffer8AllocateEm(%"class.mojo::internal::Buffer"* %6, i64 8) #13
  %8 = getelementptr inbounds %"class.mojo::Message", %"class.mojo::Message"* %3, i64 0, i32 1, i32 2
  %9 = load i8*, i8** %8, align 8
  %10 = getelementptr inbounds i8, i8* %9, i64 %7
  %11 = bitcast i8* %10 to %"class.media_router::mojom::internal::MediaRouteProvider_GetState_Params_Data"*
  call void @_ZN12media_router5mojom8internal39MediaRouteProvider_GetState_Params_DataC1Ev(%"class.media_router::mojom::internal::MediaRouteProvider_GetState_Params_Data"* %11) #13
  %12 = call i8* @_Znwm(i64 16) #14
  %13 = getelementptr inbounds %"class.base::OnceCallback.127", %"class.base::OnceCallback.127"* %1, i64 0, i32 0, i32 0, i32 0
  %14 = bitcast %"class.base::OnceCallback.127"* %1 to i64*
  %15 = load i64, i64* %14, align 8
  store %"class.base::internal::BindStateBase"* null, %"class.base::internal::BindStateBase"** %13, align 8
  %16 = bitcast i8* %12 to i32 (...)***
  store i32 (...)** bitcast (i8** getelementptr inbounds ({ [6 x i8*] }, { [6 x i8*] }* @_ZTVN12media_router5mojom45MediaRouteProvider_GetState_ForwardToCallbackE, i64 0, inrange i32 0, i64 2) to i32 (...)**), i32 (...)*** %16, align 8
  %17 = getelementptr inbounds i8, i8* %12, i64 8
  %18 = getelementptr inbounds %"class.base::OnceCallback.127", %"class.base::OnceCallback.127"* %4, i64 0, i32 0, i32 0, i32 0
  %19 = bitcast i8* %17 to i64*
  store i64 %15, i64* %19, align 8
  store %"class.base::internal::BindStateBase"* null, %"class.base::internal::BindStateBase"** %18, align 8
  %20 = bitcast i8* %12 to %"class.mojo::MessageReceiver"*
  %21 = getelementptr inbounds %"class.base::OnceCallback.127", %"class.base::OnceCallback.127"* %4, i64 0, i32 0
  call void @_ZN4base8internal12CallbackBaseD2Ev(%"class.base::internal::CallbackBase"* nonnull %21) #13
  %22 = getelementptr inbounds %"class.media_router::mojom::MediaRouteProviderProxy", %"class.media_router::mojom::MediaRouteProviderProxy"* %0, i64 0, i32 1
  %23 = load %"class.mojo::MessageReceiverWithResponder"*, %"class.mojo::MessageReceiverWithResponder"** %22, align 8
  %24 = bitcast %"class.mojo::MessageReceiverWithResponder"* %23 to i1 (%"class.mojo::MessageReceiverWithResponder"*, %"class.mojo::Message"*, %"class.mojo::MessageReceiver"*)***
  %25 = load i1 (%"class.mojo::MessageReceiverWithResponder"*, %"class.mojo::Message"*, %"class.mojo::MessageReceiver"*)**, i1 (%"class.mojo::MessageReceiverWithResponder"*, %"class.mojo::Message"*, %"class.mojo::MessageReceiver"*)*** %24, align 8
  %26 = getelementptr inbounds i1 (%"class.mojo::MessageReceiverWithResponder"*, %"class.mojo::Message"*, %"class.mojo::MessageReceiver"*)*, i1 (%"class.mojo::MessageReceiverWithResponder"*, %"class.mojo::Message"*, %"class.mojo::MessageReceiver"*)** %25, i64 4
  %27 = load i1 (%"class.mojo::MessageReceiverWithResponder"*, %"class.mojo::Message"*, %"class.mojo::MessageReceiver"*)*, i1 (%"class.mojo::MessageReceiverWithResponder"*, %"class.mojo::Message"*, %"class.mojo::MessageReceiver"*)** %26, align 8
  %28 = call zeroext i1 %27(%"class.mojo::MessageReceiverWithResponder"* %23, %"class.mojo::Message"* nonnull %3, %"class.mojo::MessageReceiver"* nonnull %20) #13
  call void @_ZN4mojo7MessageD1Ev(%"class.mojo::Message"* nonnull %3) #13
  call void @llvm.lifetime.end.p0i8(i64 120, i8* nonnull %5) #13
  ret void
}

; Function Attrs: nounwind ssp uwtable
define hidden zeroext i1 @_ZN12media_router5mojom48MediaRouteProvider_CreateRoute_ForwardToCallback6AcceptEPN4mojo7MessageE(%"class.media_router::mojom::MediaRouteProvider_CreateRoute_ForwardToCallback"* nocapture, %"class.mojo::Message"*) unnamed_addr #0 align 2 {
  %3 = alloca %"class.base::OnceCallback", align 8
  %4 = alloca %"class.mojo::internal::Array_Data"*, align 8
  %5 = alloca %"class.absl::optional.131", align 8
  %6 = alloca %"class.mojo::StructPtr.136", align 8
  %7 = alloca %"class.absl::optional", align 8
  %8 = alloca %"class.media_router::mojom::MediaRouteProvider_CreateRoute_ResponseParamsDataView", align 8
  %9 = alloca %"class.mojo::StructPtr.136", align 8
  %10 = tail call i8* @_ZNK4mojo7Message7payloadEv(%"class.mojo::Message"* %1) #13
  %11 = getelementptr inbounds %"class.absl::optional.131", %"class.absl::optional.131"* %5, i64 0, i32 0, i32 0, i32 0, i32 0
  call void @llvm.lifetime.start.p0i8(i64 288, i8* nonnull %11) #13
  %12 = bitcast %"class.absl::optional.131"* %5 to i64*
  store i64 -6148914691236517206, i64* %12, align 8
  store i8 0, i8* %11, align 8
  %13 = getelementptr inbounds %"class.absl::optional.131", %"class.absl::optional.131"* %5, i64 0, i32 0, i32 0, i32 0, i32 2
  %14 = bitcast %union.anon.135* %13 to i8*
  call void @llvm.memset.p0i8.i64(i8* align 8 %14, i8 0, i64 280, i1 false) #13
  %15 = bitcast %"class.mojo::StructPtr.136"* %6 to i8*
  call void @llvm.lifetime.start.p0i8(i64 8, i8* nonnull %15) #13
  %16 = getelementptr inbounds %"class.mojo::StructPtr.136", %"class.mojo::StructPtr.136"* %6, i64 0, i32 0, i32 0, i32 0, i32 0
  %17 = bitcast %"class.mojo::StructPtr.136"* %6 to i64*
  store i64 0, i64* %17, align 8
  %18 = getelementptr inbounds %"class.absl::optional", %"class.absl::optional"* %7, i64 0, i32 0, i32 0, i32 0, i32 0
  call void @llvm.lifetime.start.p0i8(i64 32, i8* nonnull %18) #13
  %19 = bitcast %"class.absl::optional"* %7 to i64*
  store i64 -6148914691236517206, i64* %19, align 8
  store i8 0, i8* %18, align 8
  %20 = getelementptr inbounds %"class.absl::optional", %"class.absl::optional"* %7, i64 0, i32 0, i32 0, i32 0, i32 1
  %21 = bitcast %union.anon.1* %20 to i8*
  call void @llvm.memset.p0i8.i64(i8* align 8 %21, i8 0, i64 24, i1 false) #13
  %22 = bitcast %"class.media_router::mojom::MediaRouteProvider_CreateRoute_ResponseParamsDataView"* %8 to i8*
  call void @llvm.lifetime.start.p0i8(i64 16, i8* nonnull %22) #13
  %23 = getelementptr inbounds %"class.media_router::mojom::MediaRouteProvider_CreateRoute_ResponseParamsDataView", %"class.media_router::mojom::MediaRouteProvider_CreateRoute_ResponseParamsDataView"* %8, i64 0, i32 0
  %24 = getelementptr inbounds %"class.media_router::mojom::MediaRouteProvider_CreateRoute_ResponseParamsDataView", %"class.media_router::mojom::MediaRouteProvider_CreateRoute_ResponseParamsDataView"* %8, i64 0, i32 1
  %25 = bitcast %"class.media_router::mojom::MediaRouteProvider_CreateRoute_ResponseParamsDataView"* %8 to i8**
  store i8* %10, i8** %25, align 8
  store %"class.mojo::Message"* %1, %"class.mojo::Message"** %24, align 8
  %26 = getelementptr inbounds i8, i8* %10, i64 8
  %27 = bitcast i8* %26 to i64*
  %28 = load i64, i64* %27, align 8
  %29 = icmp eq i64 %28, 0
  %30 = bitcast i8* %10 to %"class.media_router::mojom::internal::MediaRouteProvider_CreateRoute_ResponseParams_Data"*
  br i1 %29, label %39, label %31

31:                                               ; preds = %2
  %32 = getelementptr inbounds i8, i8* %26, i64 %28
  %33 = bitcast i8* %32 to %"class.media_router::mojom::internal::MediaRoute_Data"*
  %34 = getelementptr inbounds %"class.absl::optional.131", %"class.absl::optional.131"* %5, i64 0, i32 0, i32 0, i32 0, i32 2, i32 0
  call void @_ZN12media_router10MediaRouteC1Ev(%"class.media_router::MediaRoute"* %34) #13
  store i8 1, i8* %11, align 8
  %35 = load %"class.mojo::Message"*, %"class.mojo::Message"** %24, align 8
  %36 = call zeroext i1 @_ZN4mojo12StructTraitsIN12media_router5mojom18MediaRouteDataViewENS1_10MediaRouteEE4ReadES3_PS4_(%"class.media_router::mojom::internal::MediaRoute_Data"* nonnull %33, %"class.mojo::Message"* %35, %"class.media_router::MediaRoute"* %34) #13
  br i1 %36, label %37, label %70

37:                                               ; preds = %31
  %38 = load %"class.media_router::mojom::internal::MediaRouteProvider_CreateRoute_ResponseParams_Data"*, %"class.media_router::mojom::internal::MediaRouteProvider_CreateRoute_ResponseParams_Data"** %23, align 8
  br label %39

39:                                               ; preds = %37, %2
  %40 = phi %"class.media_router::mojom::internal::MediaRouteProvider_CreateRoute_ResponseParams_Data"* [ %38, %37 ], [ %30, %2 ]
  %41 = getelementptr inbounds %"class.media_router::mojom::internal::MediaRouteProvider_CreateRoute_ResponseParams_Data", %"class.media_router::mojom::internal::MediaRouteProvider_CreateRoute_ResponseParams_Data"* %40, i64 0, i32 2
  %42 = getelementptr inbounds %"struct.mojo::internal::Pointer.130", %"struct.mojo::internal::Pointer.130"* %41, i64 0, i32 0
  %43 = load i64, i64* %42, align 8
  %44 = icmp eq i64 %43, 0
  br i1 %44, label %45, label %46

45:                                               ; preds = %39
  store %"class.media_router::mojom::RoutePresentationConnection"* null, %"class.media_router::mojom::RoutePresentationConnection"** %16, align 8
  br label %53

46:                                               ; preds = %39
  %47 = bitcast %"struct.mojo::internal::Pointer.130"* %41 to i8*
  %48 = getelementptr inbounds i8, i8* %47, i64 %43
  %49 = bitcast i8* %48 to %"class.media_router::mojom::internal::RoutePresentationConnection_Data"*
  %50 = load %"class.mojo::Message"*, %"class.mojo::Message"** %24, align 8
  %51 = call zeroext i1 @_ZN4mojo12StructTraitsIN12media_router5mojom35RoutePresentationConnectionDataViewENS_9StructPtrINS2_27RoutePresentationConnectionEEEE4ReadES3_PS6_(%"class.media_router::mojom::internal::RoutePresentationConnection_Data"* nonnull %49, %"class.mojo::Message"* %50, %"class.mojo::StructPtr.136"* nonnull %6) #13
  %52 = load %"class.media_router::mojom::internal::MediaRouteProvider_CreateRoute_ResponseParams_Data"*, %"class.media_router::mojom::internal::MediaRouteProvider_CreateRoute_ResponseParams_Data"** %23, align 8
  br label %53

53:                                               ; preds = %45, %46
  %54 = phi %"class.media_router::mojom::internal::MediaRouteProvider_CreateRoute_ResponseParams_Data"* [ %52, %46 ], [ %40, %45 ]
  %55 = bitcast %"class.mojo::internal::Array_Data"** %4 to i8*
  call void @llvm.lifetime.start.p0i8(i64 8, i8* nonnull %55) #13
  %56 = getelementptr inbounds %"class.media_router::mojom::internal::MediaRouteProvider_CreateRoute_ResponseParams_Data", %"class.media_router::mojom::internal::MediaRouteProvider_CreateRoute_ResponseParams_Data"* %54, i64 0, i32 3
  %57 = getelementptr inbounds %"struct.mojo::internal::Pointer", %"struct.mojo::internal::Pointer"* %56, i64 0, i32 0
  %58 = load i64, i64* %57, align 8
  %59 = icmp eq i64 %58, 0
  %60 = bitcast %"struct.mojo::internal::Pointer"* %56 to i8*
  %61 = getelementptr inbounds i8, i8* %60, i64 %58
  %62 = bitcast i8* %61 to %"class.mojo::internal::Array_Data"*
  %63 = select i1 %59, %"class.mojo::internal::Array_Data"* null, %"class.mojo::internal::Array_Data"* %62
  store %"class.mojo::internal::Array_Data"* %63, %"class.mojo::internal::Array_Data"** %4, align 8
  %64 = call zeroext i1 @_ZN4mojo8internal11DeserializeINS_14StringDataViewERPNS0_10Array_DataIcEEN4absl8optionalINSt3__112basic_stringIcNS9_11char_traitsIcEENS9_9allocatorIcEEEEEEJRPNS_7MessageEELPv0EEEbOT0_PT1_DpOT2_(%"class.mojo::internal::Array_Data"** nonnull dereferenceable(8) %4, %"class.absl::optional"* nonnull %7, %"class.mojo::Message"** dereferenceable(8) %24) #13
  call void @llvm.lifetime.end.p0i8(i64 8, i8* nonnull %55) #13
  br i1 %64, label %65, label %70

65:                                               ; preds = %53
  %66 = load %"class.media_router::mojom::internal::MediaRouteProvider_CreateRoute_ResponseParams_Data"*, %"class.media_router::mojom::internal::MediaRouteProvider_CreateRoute_ResponseParams_Data"** %23, align 8
  %67 = getelementptr inbounds %"class.media_router::mojom::internal::MediaRouteProvider_CreateRoute_ResponseParams_Data", %"class.media_router::mojom::internal::MediaRouteProvider_CreateRoute_ResponseParams_Data"* %66, i64 0, i32 4
  %68 = load i32, i32* %67, align 4
  %69 = icmp ult i32 %68, 12
  br i1 %69, label %71, label %70

70:                                               ; preds = %65, %53, %31
  call void @_ZN4mojo8internal31ReportValidationErrorForMessageEPNS_7MessageENS0_15ValidationErrorEPKcjb(%"class.mojo::Message"* %1, i32 17, i8* getelementptr inbounds ([38 x i8], [38 x i8]* @_ZN12media_router5mojom18MediaRouteProvider5Name_E, i64 0, i64 0), i32 0, i1 zeroext true) #13
  br label %92

71:                                               ; preds = %65
  %72 = getelementptr inbounds %"class.media_router::mojom::MediaRouteProvider_CreateRoute_ForwardToCallback", %"class.media_router::mojom::MediaRouteProvider_CreateRoute_ForwardToCallback"* %0, i64 0, i32 1, i32 0, i32 0, i32 0
  %73 = load %"class.base::internal::BindStateBase"*, %"class.base::internal::BindStateBase"** %72, align 8
  %74 = icmp eq %"class.base::internal::BindStateBase"* %73, null
  br i1 %74, label %92, label %75

75:                                               ; preds = %71
  %76 = ptrtoint %"class.base::internal::BindStateBase"* %73 to i64
  %77 = bitcast %"class.mojo::StructPtr.136"* %9 to i64*
  %78 = getelementptr inbounds %"class.mojo::StructPtr.136", %"class.mojo::StructPtr.136"* %9, i64 0, i32 0, i32 0, i32 0, i32 0
  %79 = load i64, i64* %17, align 8
  store i64 %79, i64* %77, align 8
  store i64 0, i64* %17, align 8
  %80 = bitcast %"class.base::OnceCallback"* %3 to i8*
  call void @llvm.lifetime.start.p0i8(i64 8, i8* nonnull %80) #13
  %81 = bitcast %"class.base::OnceCallback"* %3 to i64*
  store i64 %76, i64* %81, align 8
  store %"class.base::internal::BindStateBase"* null, %"class.base::internal::BindStateBase"** %72, align 8
  %82 = getelementptr inbounds %"class.base::OnceCallback", %"class.base::OnceCallback"* %3, i64 0, i32 0
  %83 = getelementptr inbounds %"class.base::internal::BindStateBase", %"class.base::internal::BindStateBase"* %73, i64 0, i32 1
  %84 = bitcast void ()** %83 to void (%"class.base::internal::BindStateBase"*, %"class.absl::optional.131"*, %"class.mojo::StructPtr.136"*, %"class.absl::optional"*, i32)**
  %85 = load void (%"class.base::internal::BindStateBase"*, %"class.absl::optional.131"*, %"class.mojo::StructPtr.136"*, %"class.absl::optional"*, i32)*, void (%"class.base::internal::BindStateBase"*, %"class.absl::optional.131"*, %"class.mojo::StructPtr.136"*, %"class.absl::optional"*, i32)** %84, align 8
  call void %85(%"class.base::internal::BindStateBase"* nonnull %73, %"class.absl::optional.131"* nonnull dereferenceable(288) %5, %"class.mojo::StructPtr.136"* nonnull dereferenceable(8) %9, %"class.absl::optional"* nonnull dereferenceable(32) %7, i32 %68) #13
  call void @_ZN4base8internal12CallbackBaseD2Ev(%"class.base::internal::CallbackBase"* nonnull %82) #13
  call void @llvm.lifetime.end.p0i8(i64 8, i8* nonnull %80) #13
  %86 = load %"class.media_router::mojom::RoutePresentationConnection"*, %"class.media_router::mojom::RoutePresentationConnection"** %78, align 8
  store %"class.media_router::mojom::RoutePresentationConnection"* null, %"class.media_router::mojom::RoutePresentationConnection"** %78, align 8
  %87 = icmp eq %"class.media_router::mojom::RoutePresentationConnection"* %86, null
  br i1 %87, label %92, label %88

88:                                               ; preds = %75
  %89 = getelementptr inbounds %"class.media_router::mojom::RoutePresentationConnection", %"class.media_router::mojom::RoutePresentationConnection"* %86, i64 0, i32 1, i32 0
  call void @_ZN4mojo8internal20PendingReceiverStateD1Ev(%"struct.mojo::internal::PendingReceiverState"* %89) #13
  %90 = getelementptr inbounds %"class.media_router::mojom::RoutePresentationConnection", %"class.media_router::mojom::RoutePresentationConnection"* %86, i64 0, i32 0, i32 0
  call void @_ZN4mojo8internal18PendingRemoteStateD1Ev(%"struct.mojo::internal::PendingRemoteState"* %90) #13
  %91 = bitcast %"class.media_router::mojom::RoutePresentationConnection"* %86 to i8*
  call void @_ZdlPv(i8* %91) #14
  br label %92

92:                                               ; preds = %88, %75, %71, %70
  %93 = phi i1 [ false, %70 ], [ true, %71 ], [ true, %75 ], [ true, %88 ]
  call void @llvm.lifetime.end.p0i8(i64 16, i8* nonnull %22) #13
  %94 = load i8, i8* %18, align 8, !range !2
  %95 = icmp eq i8 %94, 0
  br i1 %95, label %106, label %96

96:                                               ; preds = %92
  %97 = getelementptr inbounds %"class.absl::optional", %"class.absl::optional"* %7, i64 0, i32 0, i32 0, i32 0, i32 1, i32 0
  %98 = bitcast %"class.std::__1::basic_string"* %97 to %"struct.std::__1::basic_string<char, std::__1::char_traits<char>, std::__1::allocator<char> >::__short"*
  %99 = getelementptr inbounds %"struct.std::__1::basic_string<char, std::__1::char_traits<char>, std::__1::allocator<char> >::__short", %"struct.std::__1::basic_string<char, std::__1::char_traits<char>, std::__1::allocator<char> >::__short"* %98, i64 0, i32 1, i32 0
  %100 = load i8, i8* %99, align 1
  %101 = icmp slt i8 %100, 0
  br i1 %101, label %102, label %105

102:                                              ; preds = %96
  %103 = getelementptr inbounds %"class.std::__1::basic_string", %"class.std::__1::basic_string"* %97, i64 0, i32 0, i32 0, i32 0, i32 0, i32 0, i32 0
  %104 = load i8*, i8** %103, align 8
  call void @_ZdlPv(i8* %104) #14
  br label %105

105:                                              ; preds = %102, %96
  store i8 0, i8* %18, align 8
  br label %106

106:                                              ; preds = %92, %105
  call void @llvm.lifetime.end.p0i8(i64 32, i8* nonnull %18) #13
  %107 = load %"class.media_router::mojom::RoutePresentationConnection"*, %"class.media_router::mojom::RoutePresentationConnection"** %16, align 8
  store %"class.media_router::mojom::RoutePresentationConnection"* null, %"class.media_router::mojom::RoutePresentationConnection"** %16, align 8
  %108 = icmp eq %"class.media_router::mojom::RoutePresentationConnection"* %107, null
  br i1 %108, label %113, label %109

109:                                              ; preds = %106
  %110 = getelementptr inbounds %"class.media_router::mojom::RoutePresentationConnection", %"class.media_router::mojom::RoutePresentationConnection"* %107, i64 0, i32 1, i32 0
  call void @_ZN4mojo8internal20PendingReceiverStateD1Ev(%"struct.mojo::internal::PendingReceiverState"* %110) #13
  %111 = getelementptr inbounds %"class.media_router::mojom::RoutePresentationConnection", %"class.media_router::mojom::RoutePresentationConnection"* %107, i64 0, i32 0, i32 0
  call void @_ZN4mojo8internal18PendingRemoteStateD1Ev(%"struct.mojo::internal::PendingRemoteState"* %111) #13
  %112 = bitcast %"class.media_router::mojom::RoutePresentationConnection"* %107 to i8*
  call void @_ZdlPv(i8* %112) #14
  br label %113

113:                                              ; preds = %106, %109
  call void @llvm.lifetime.end.p0i8(i64 8, i8* nonnull %15) #13
  %114 = load i8, i8* %11, align 8, !range !2
  %115 = icmp eq i8 %114, 0
  br i1 %115, label %118, label %116

116:                                              ; preds = %113
  %117 = getelementptr inbounds %"class.absl::optional.131", %"class.absl::optional.131"* %5, i64 0, i32 0, i32 0, i32 0, i32 2, i32 0
  call void @_ZN12media_router10MediaRouteD1Ev(%"class.media_router::MediaRoute"* %117) #13
  store i8 0, i8* %11, align 8
  br label %118

118:                                              ; preds = %113, %116
  call void @llvm.lifetime.end.p0i8(i64 288, i8* nonnull %11) #13
  ret i1 %93
}

declare void @_ZN4mojo8internal31ReportValidationErrorForMessageEPNS_7MessageENS0_15ValidationErrorEPKcjb(%"class.mojo::Message"*, i32, i8*, i32, i1 zeroext) local_unnamed_addr #2

; Function Attrs: nounwind ssp uwtable
define hidden void @_ZN12media_router5mojom47MediaRouteProvider_CreateRoute_ProxyToResponder3RunERKN4absl8optionalINS_10MediaRouteEEEN4mojo9StructPtrINS0_27RoutePresentationConnectionEEERKNS3_INSt3__112basic_stringIcNSC_11char_traitsIcEENSC_9allocatorIcEEEEEENS_18RouteRequestResult10ResultCodeE(%"class.media_router::mojom::MediaRouteProvider_CreateRoute_ProxyToResponder"* nocapture, %"class.absl::optional.131"* dereferenceable(288), %"class.mojo::StructPtr.136"*, %"class.absl::optional"* dereferenceable(32), i32) #0 align 2 {
  %6 = alloca %"class.mojo::Message", align 8
  %7 = alloca %"class.mojo::internal::MessageFragment.150", align 8
  %8 = alloca %"class.mojo::internal::MessageFragment.151", align 8
  %9 = alloca %"class.mojo::internal::MessageFragment.93", align 8
  %10 = getelementptr inbounds %"class.media_router::mojom::MediaRouteProvider_CreateRoute_ProxyToResponder", %"class.media_router::mojom::MediaRouteProvider_CreateRoute_ProxyToResponder"* %0, i64 0, i32 1
  %11 = load i8, i8* %10, align 8, !range !2
  %12 = icmp eq i8 %11, 0
  %13 = select i1 %12, i32 2, i32 6
  %14 = bitcast %"class.mojo::Message"* %6 to i8*
  call void @llvm.lifetime.start.p0i8(i64 120, i8* nonnull %14) #13
  call void @llvm.memset.p0i8.i64(i8* nonnull align 8 %14, i8 -86, i64 120, i1 false)
  call void @_ZN4mojo7MessageC1EjjmmPNSt3__16vectorINS_16ScopedHandleBaseINS_6HandleEEENS1_9allocatorIS5_EEEE(%"class.mojo::Message"* nonnull %6, i32 549903834, i32 %13, i64 0, i64 0, %"class.std::__1::vector"* null) #13
  %15 = getelementptr inbounds %"class.mojo::Message", %"class.mojo::Message"* %6, i64 0, i32 1
  %16 = call i64 @_ZN4mojo8internal6Buffer8AllocateEm(%"class.mojo::internal::Buffer"* %15, i64 40) #13
  %17 = getelementptr inbounds %"class.mojo::Message", %"class.mojo::Message"* %6, i64 0, i32 1, i32 2
  %18 = load i8*, i8** %17, align 8
  %19 = getelementptr inbounds i8, i8* %18, i64 %16
  %20 = bitcast i8* %19 to %"class.media_router::mojom::internal::MediaRouteProvider_CreateRoute_ResponseParams_Data"*
  call void @_ZN12media_router5mojom8internal50MediaRouteProvider_CreateRoute_ResponseParams_DataC1Ev(%"class.media_router::mojom::internal::MediaRouteProvider_CreateRoute_ResponseParams_Data"* %20) #13
  %21 = bitcast %"class.mojo::internal::MessageFragment.150"* %7 to i8*
  call void @llvm.lifetime.start.p0i8(i64 16, i8* nonnull %21) #13
  %22 = getelementptr inbounds %"class.mojo::internal::MessageFragment.150", %"class.mojo::internal::MessageFragment.150"* %7, i64 0, i32 0
  %23 = getelementptr inbounds %"class.mojo::internal::MessageFragment.150", %"class.mojo::internal::MessageFragment.150"* %7, i64 0, i32 1
  store %"class.mojo::Message"* %6, %"class.mojo::Message"** %22, align 8
  store i64 -1, i64* %23, align 8
  %24 = getelementptr inbounds %"class.absl::optional.131", %"class.absl::optional.131"* %1, i64 0, i32 0, i32 0, i32 0, i32 0
  %25 = load i8, i8* %24, align 8, !range !2
  %26 = icmp eq i8 %25, 0
  br i1 %26, label %27, label %32

27:                                               ; preds = %5
  %28 = load i8*, i8** %17, align 8
  %29 = getelementptr inbounds i8, i8* %28, i64 %16
  %30 = getelementptr inbounds i8, i8* %29, i64 8
  %31 = bitcast i8* %30 to %"struct.mojo::internal::Pointer.129"*
  br label %46

32:                                               ; preds = %5
  %33 = getelementptr inbounds %"class.absl::optional.131", %"class.absl::optional.131"* %1, i64 0, i32 0, i32 0, i32 0, i32 2, i32 0
  call void @_ZN4mojo8internal10SerializerIN12media_router5mojom18MediaRouteDataViewEKNS2_10MediaRouteEE9SerializeERS6_RNS0_15MessageFragmentINS3_8internal15MediaRoute_DataEEE(%"class.media_router::MediaRoute"* dereferenceable(280) %33, %"class.mojo::internal::MessageFragment.150"* nonnull dereferenceable(16) %7) #13
  %34 = load i64, i64* %23, align 8
  %35 = load i8*, i8** %17, align 8
  %36 = getelementptr inbounds i8, i8* %35, i64 %16
  %37 = getelementptr inbounds i8, i8* %36, i64 8
  %38 = bitcast i8* %37 to %"struct.mojo::internal::Pointer.129"*
  %39 = icmp eq i64 %34, -1
  br i1 %39, label %46, label %40

40:                                               ; preds = %32
  %41 = load %"class.mojo::Message"*, %"class.mojo::Message"** %22, align 8
  %42 = getelementptr inbounds %"class.mojo::Message", %"class.mojo::Message"* %41, i64 0, i32 1, i32 2
  %43 = load i8*, i8** %42, align 8
  %44 = getelementptr inbounds i8, i8* %43, i64 %34
  %45 = bitcast i8* %44 to %"class.media_router::mojom::internal::MediaRoute_Data"*
  br label %46

46:                                               ; preds = %27, %32, %40
  %47 = phi %"struct.mojo::internal::Pointer.129"* [ %38, %40 ], [ %38, %32 ], [ %31, %27 ]
  %48 = phi %"class.media_router::mojom::internal::MediaRoute_Data"* [ %45, %40 ], [ null, %32 ], [ null, %27 ]
  %49 = getelementptr inbounds %"struct.mojo::internal::Pointer.129", %"struct.mojo::internal::Pointer.129"* %47, i64 0, i32 0
  %50 = icmp eq %"class.media_router::mojom::internal::MediaRoute_Data"* %48, null
  %51 = ptrtoint %"class.media_router::mojom::internal::MediaRoute_Data"* %48 to i64
  %52 = ptrtoint %"struct.mojo::internal::Pointer.129"* %47 to i64
  %53 = sub i64 %51, %52
  %54 = select i1 %50, i64 0, i64 %53
  store i64 %54, i64* %49, align 8
  %55 = bitcast %"class.mojo::internal::MessageFragment.151"* %8 to i8*
  call void @llvm.lifetime.start.p0i8(i64 16, i8* nonnull %55) #13
  %56 = getelementptr inbounds %"class.mojo::internal::MessageFragment.151", %"class.mojo::internal::MessageFragment.151"* %8, i64 0, i32 0
  %57 = getelementptr inbounds %"class.mojo::internal::MessageFragment.151", %"class.mojo::internal::MessageFragment.151"* %8, i64 0, i32 1
  store %"class.mojo::Message"* %6, %"class.mojo::Message"** %56, align 8
  store i64 -1, i64* %57, align 8
  call void @_ZN4mojo8internal10SerializerIN12media_router5mojom35RoutePresentationConnectionDataViewENS_9StructPtrINS3_27RoutePresentationConnectionEEEE9SerializeERS7_RNS0_15MessageFragmentINS3_8internal32RoutePresentationConnection_DataEEE(%"class.mojo::StructPtr.136"* dereferenceable(8) %2, %"class.mojo::internal::MessageFragment.151"* nonnull dereferenceable(16) %8) #13
  %58 = load i8*, i8** %17, align 8
  %59 = getelementptr inbounds i8, i8* %58, i64 %16
  %60 = getelementptr inbounds i8, i8* %59, i64 16
  %61 = load i64, i64* %57, align 8
  %62 = icmp eq i64 %61, -1
  br i1 %62, label %69, label %63

63:                                               ; preds = %46
  %64 = load %"class.mojo::Message"*, %"class.mojo::Message"** %56, align 8
  %65 = getelementptr inbounds %"class.mojo::Message", %"class.mojo::Message"* %64, i64 0, i32 1, i32 2
  %66 = load i8*, i8** %65, align 8
  %67 = getelementptr inbounds i8, i8* %66, i64 %61
  %68 = bitcast i8* %67 to %"class.media_router::mojom::internal::RoutePresentationConnection_Data"*
  br label %69

69:                                               ; preds = %46, %63
  %70 = phi %"class.media_router::mojom::internal::RoutePresentationConnection_Data"* [ %68, %63 ], [ null, %46 ]
  %71 = bitcast i8* %60 to i64*
  %72 = icmp eq %"class.media_router::mojom::internal::RoutePresentationConnection_Data"* %70, null
  %73 = ptrtoint %"class.media_router::mojom::internal::RoutePresentationConnection_Data"* %70 to i64
  %74 = ptrtoint i8* %60 to i64
  %75 = sub i64 %73, %74
  %76 = select i1 %72, i64 0, i64 %75
  store i64 %76, i64* %71, align 8
  %77 = bitcast %"class.mojo::internal::MessageFragment.93"* %9 to i8*
  call void @llvm.lifetime.start.p0i8(i64 16, i8* nonnull %77) #13
  %78 = getelementptr inbounds %"class.mojo::internal::MessageFragment.93", %"class.mojo::internal::MessageFragment.93"* %9, i64 0, i32 0
  %79 = getelementptr inbounds %"class.mojo::internal::MessageFragment.93", %"class.mojo::internal::MessageFragment.93"* %9, i64 0, i32 1
  store %"class.mojo::Message"* %6, %"class.mojo::Message"** %78, align 8
  store i64 -1, i64* %79, align 8
  %80 = getelementptr inbounds %"class.absl::optional", %"class.absl::optional"* %3, i64 0, i32 0, i32 0, i32 0, i32 0
  %81 = load i8, i8* %80, align 8, !range !2
  %82 = icmp eq i8 %81, 0
  br i1 %82, label %83, label %88

83:                                               ; preds = %69
  %84 = load i8*, i8** %17, align 8
  %85 = getelementptr inbounds i8, i8* %84, i64 %16
  %86 = getelementptr inbounds i8, i8* %85, i64 24
  %87 = bitcast i8* %86 to %"struct.mojo::internal::Pointer"*
  br label %102

88:                                               ; preds = %69
  %89 = getelementptr inbounds %"class.absl::optional", %"class.absl::optional"* %3, i64 0, i32 0, i32 0, i32 0, i32 1, i32 0
  call void @_ZN4mojo8internal10SerializerINS_14StringDataViewEKNSt3__112basic_stringIcNS3_11char_traitsIcEENS3_9allocatorIcEEEEE9SerializeERSA_RNS0_15MessageFragmentINS0_10Array_DataIcEEEE(%"class.std::__1::basic_string"* dereferenceable(24) %89, %"class.mojo::internal::MessageFragment.93"* nonnull dereferenceable(16) %9) #13
  %90 = load i64, i64* %79, align 8
  %91 = load i8*, i8** %17, align 8
  %92 = getelementptr inbounds i8, i8* %91, i64 %16
  %93 = getelementptr inbounds i8, i8* %92, i64 24
  %94 = bitcast i8* %93 to %"struct.mojo::internal::Pointer"*
  %95 = icmp eq i64 %90, -1
  br i1 %95, label %102, label %96

96:                                               ; preds = %88
  %97 = load %"class.mojo::Message"*, %"class.mojo::Message"** %78, align 8
  %98 = getelementptr inbounds %"class.mojo::Message", %"class.mojo::Message"* %97, i64 0, i32 1, i32 2
  %99 = load i8*, i8** %98, align 8
  %100 = getelementptr inbounds i8, i8* %99, i64 %90
  %101 = bitcast i8* %100 to %"class.mojo::internal::Array_Data"*
  br label %102

102:                                              ; preds = %83, %88, %96
  %103 = phi %"struct.mojo::internal::Pointer"* [ %94, %96 ], [ %94, %88 ], [ %87, %83 ]
  %104 = phi %"class.mojo::internal::Array_Data"* [ %101, %96 ], [ null, %88 ], [ null, %83 ]
  %105 = getelementptr inbounds %"struct.mojo::internal::Pointer", %"struct.mojo::internal::Pointer"* %103, i64 0, i32 0
  %106 = icmp eq %"class.mojo::internal::Array_Data"* %104, null
  %107 = ptrtoint %"class.mojo::internal::Array_Data"* %104 to i64
  %108 = ptrtoint %"struct.mojo::internal::Pointer"* %103 to i64
  %109 = sub i64 %107, %108
  %110 = select i1 %106, i64 0, i64 %109
  store i64 %110, i64* %105, align 8
  %111 = load i8*, i8** %17, align 8
  %112 = getelementptr inbounds i8, i8* %111, i64 %16
  %113 = getelementptr inbounds i8, i8* %112, i64 32
  %114 = bitcast i8* %113 to i32*
  %115 = add i32 %4, -1
  %116 = icmp ult i32 %115, 11
  %117 = select i1 %116, i32 %4, i32 0
  store i32 %117, i32* %114, align 4
  %118 = getelementptr inbounds %"class.media_router::mojom::MediaRouteProvider_CreateRoute_ProxyToResponder", %"class.media_router::mojom::MediaRouteProvider_CreateRoute_ProxyToResponder"* %0, i64 0, i32 0
  %119 = load i64, i64* %118, align 8
  %120 = bitcast i8** %17 to %"struct.mojo::internal::MessageHeaderV1"**
  %121 = load %"struct.mojo::internal::MessageHeaderV1"*, %"struct.mojo::internal::MessageHeaderV1"** %120, align 8
  %122 = getelementptr inbounds %"struct.mojo::internal::MessageHeaderV1", %"struct.mojo::internal::MessageHeaderV1"* %121, i64 0, i32 1
  store i64 %119, i64* %122, align 1
  %123 = getelementptr inbounds %"class.media_router::mojom::MediaRouteProvider_CreateRoute_ProxyToResponder", %"class.media_router::mojom::MediaRouteProvider_CreateRoute_ProxyToResponder"* %0, i64 0, i32 2, i32 0, i32 0, i32 0
  %124 = load %"class.mojo::MessageReceiverWithStatus"*, %"class.mojo::MessageReceiverWithStatus"** %123, align 8
  %125 = getelementptr inbounds %"class.mojo::MessageReceiverWithStatus", %"class.mojo::MessageReceiverWithStatus"* %124, i64 0, i32 0
  %126 = bitcast %"class.mojo::MessageReceiverWithStatus"* %124 to i1 (%"class.mojo::MessageReceiver"*, %"class.mojo::Message"*)***
  %127 = load i1 (%"class.mojo::MessageReceiver"*, %"class.mojo::Message"*)**, i1 (%"class.mojo::MessageReceiver"*, %"class.mojo::Message"*)*** %126, align 8
  %128 = getelementptr inbounds i1 (%"class.mojo::MessageReceiver"*, %"class.mojo::Message"*)*, i1 (%"class.mojo::MessageReceiver"*, %"class.mojo::Message"*)** %127, i64 3
  %129 = load i1 (%"class.mojo::MessageReceiver"*, %"class.mojo::Message"*)*, i1 (%"class.mojo::MessageReceiver"*, %"class.mojo::Message"*)** %128, align 8
  %130 = call zeroext i1 %129(%"class.mojo::MessageReceiver"* %125, %"class.mojo::Message"* nonnull %6) #13
  %131 = load %"class.mojo::MessageReceiverWithStatus"*, %"class.mojo::MessageReceiverWithStatus"** %123, align 8
  store %"class.mojo::MessageReceiverWithStatus"* null, %"class.mojo::MessageReceiverWithStatus"** %123, align 8
  %132 = icmp eq %"class.mojo::MessageReceiverWithStatus"* %131, null
  br i1 %132, label %138, label %133

133:                                              ; preds = %102
  %134 = bitcast %"class.mojo::MessageReceiverWithStatus"* %131 to void (%"class.mojo::MessageReceiverWithStatus"*)***
  %135 = load void (%"class.mojo::MessageReceiverWithStatus"*)**, void (%"class.mojo::MessageReceiverWithStatus"*)*** %134, align 8
  %136 = getelementptr inbounds void (%"class.mojo::MessageReceiverWithStatus"*)*, void (%"class.mojo::MessageReceiverWithStatus"*)** %135, i64 1
  %137 = load void (%"class.mojo::MessageReceiverWithStatus"*)*, void (%"class.mojo::MessageReceiverWithStatus"*)** %136, align 8
  call void %137(%"class.mojo::MessageReceiverWithStatus"* nonnull %131) #13
  br label %138

138:                                              ; preds = %102, %133
  call void @llvm.lifetime.end.p0i8(i64 16, i8* nonnull %77) #13
  call void @llvm.lifetime.end.p0i8(i64 16, i8* nonnull %55) #13
  call void @llvm.lifetime.end.p0i8(i64 16, i8* nonnull %21) #13
  call void @_ZN4mojo7MessageD1Ev(%"class.mojo::Message"* nonnull %6) #13
  call void @llvm.lifetime.end.p0i8(i64 120, i8* nonnull %14) #13
  ret void
}

; Function Attrs: nounwind ssp uwtable
define hidden zeroext i1 @_ZN12media_router5mojom46MediaRouteProvider_JoinRoute_ForwardToCallback6AcceptEPN4mojo7MessageE(%"class.media_router::mojom::MediaRouteProvider_JoinRoute_ForwardToCallback"* nocapture, %"class.mojo::Message"*) unnamed_addr #0 align 2 {
  %3 = alloca %"class.base::OnceCallback", align 8
  %4 = alloca %"class.mojo::internal::Array_Data"*, align 8
  %5 = alloca %"class.absl::optional.131", align 8
  %6 = alloca %"class.mojo::StructPtr.136", align 8
  %7 = alloca %"class.absl::optional", align 8
  %8 = alloca %"class.media_router::mojom::MediaRouteProvider_JoinRoute_ResponseParamsDataView", align 8
  %9 = alloca %"class.mojo::StructPtr.136", align 8
  %10 = tail call i8* @_ZNK4mojo7Message7payloadEv(%"class.mojo::Message"* %1) #13
  %11 = getelementptr inbounds %"class.absl::optional.131", %"class.absl::optional.131"* %5, i64 0, i32 0, i32 0, i32 0, i32 0
  call void @llvm.lifetime.start.p0i8(i64 288, i8* nonnull %11) #13
  %12 = bitcast %"class.absl::optional.131"* %5 to i64*
  store i64 -6148914691236517206, i64* %12, align 8
  store i8 0, i8* %11, align 8
  %13 = getelementptr inbounds %"class.absl::optional.131", %"class.absl::optional.131"* %5, i64 0, i32 0, i32 0, i32 0, i32 2
  %14 = bitcast %union.anon.135* %13 to i8*
  call void @llvm.memset.p0i8.i64(i8* align 8 %14, i8 0, i64 280, i1 false) #13
  %15 = bitcast %"class.mojo::StructPtr.136"* %6 to i8*
  call void @llvm.lifetime.start.p0i8(i64 8, i8* nonnull %15) #13
  %16 = getelementptr inbounds %"class.mojo::StructPtr.136", %"class.mojo::StructPtr.136"* %6, i64 0, i32 0, i32 0, i32 0, i32 0
  %17 = bitcast %"class.mojo::StructPtr.136"* %6 to i64*
  store i64 0, i64* %17, align 8
  %18 = getelementptr inbounds %"class.absl::optional", %"class.absl::optional"* %7, i64 0, i32 0, i32 0, i32 0, i32 0
  call void @llvm.lifetime.start.p0i8(i64 32, i8* nonnull %18) #13
  %19 = bitcast %"class.absl::optional"* %7 to i64*
  store i64 -6148914691236517206, i64* %19, align 8
  store i8 0, i8* %18, align 8
  %20 = getelementptr inbounds %"class.absl::optional", %"class.absl::optional"* %7, i64 0, i32 0, i32 0, i32 0, i32 1
  %21 = bitcast %union.anon.1* %20 to i8*
  call void @llvm.memset.p0i8.i64(i8* align 8 %21, i8 0, i64 24, i1 false) #13
  %22 = bitcast %"class.media_router::mojom::MediaRouteProvider_JoinRoute_ResponseParamsDataView"* %8 to i8*
  call void @llvm.lifetime.start.p0i8(i64 16, i8* nonnull %22) #13
  %23 = getelementptr inbounds %"class.media_router::mojom::MediaRouteProvider_JoinRoute_ResponseParamsDataView", %"class.media_router::mojom::MediaRouteProvider_JoinRoute_ResponseParamsDataView"* %8, i64 0, i32 0
  %24 = getelementptr inbounds %"class.media_router::mojom::MediaRouteProvider_JoinRoute_ResponseParamsDataView", %"class.media_router::mojom::MediaRouteProvider_JoinRoute_ResponseParamsDataView"* %8, i64 0, i32 1
  %25 = bitcast %"class.media_router::mojom::MediaRouteProvider_JoinRoute_ResponseParamsDataView"* %8 to i8**
  store i8* %10, i8** %25, align 8
  store %"class.mojo::Message"* %1, %"class.mojo::Message"** %24, align 8
  %26 = getelementptr inbounds i8, i8* %10, i64 8
  %27 = bitcast i8* %26 to i64*
  %28 = load i64, i64* %27, align 8
  %29 = icmp eq i64 %28, 0
  %30 = bitcast i8* %10 to %"class.media_router::mojom::internal::MediaRouteProvider_JoinRoute_ResponseParams_Data"*
  br i1 %29, label %39, label %31

31:                                               ; preds = %2
  %32 = getelementptr inbounds i8, i8* %26, i64 %28
  %33 = bitcast i8* %32 to %"class.media_router::mojom::internal::MediaRoute_Data"*
  %34 = getelementptr inbounds %"class.absl::optional.131", %"class.absl::optional.131"* %5, i64 0, i32 0, i32 0, i32 0, i32 2, i32 0
  call void @_ZN12media_router10MediaRouteC1Ev(%"class.media_router::MediaRoute"* %34) #13
  store i8 1, i8* %11, align 8
  %35 = load %"class.mojo::Message"*, %"class.mojo::Message"** %24, align 8
  %36 = call zeroext i1 @_ZN4mojo12StructTraitsIN12media_router5mojom18MediaRouteDataViewENS1_10MediaRouteEE4ReadES3_PS4_(%"class.media_router::mojom::internal::MediaRoute_Data"* nonnull %33, %"class.mojo::Message"* %35, %"class.media_router::MediaRoute"* %34) #13
  br i1 %36, label %37, label %70

37:                                               ; preds = %31
  %38 = load %"class.media_router::mojom::internal::MediaRouteProvider_JoinRoute_ResponseParams_Data"*, %"class.media_router::mojom::internal::MediaRouteProvider_JoinRoute_ResponseParams_Data"** %23, align 8
  br label %39

39:                                               ; preds = %37, %2
  %40 = phi %"class.media_router::mojom::internal::MediaRouteProvider_JoinRoute_ResponseParams_Data"* [ %38, %37 ], [ %30, %2 ]
  %41 = getelementptr inbounds %"class.media_router::mojom::internal::MediaRouteProvider_JoinRoute_ResponseParams_Data", %"class.media_router::mojom::internal::MediaRouteProvider_JoinRoute_ResponseParams_Data"* %40, i64 0, i32 2
  %42 = getelementptr inbounds %"struct.mojo::internal::Pointer.130", %"struct.mojo::internal::Pointer.130"* %41, i64 0, i32 0
  %43 = load i64, i64* %42, align 8
  %44 = icmp eq i64 %43, 0
  br i1 %44, label %45, label %46

45:                                               ; preds = %39
  store %"class.media_router::mojom::RoutePresentationConnection"* null, %"class.media_router::mojom::RoutePresentationConnection"** %16, align 8
  br label %53

46:                                               ; preds = %39
  %47 = bitcast %"struct.mojo::internal::Pointer.130"* %41 to i8*
  %48 = getelementptr inbounds i8, i8* %47, i64 %43
  %49 = bitcast i8* %48 to %"class.media_router::mojom::internal::RoutePresentationConnection_Data"*
  %50 = load %"class.mojo::Message"*, %"class.mojo::Message"** %24, align 8
  %51 = call zeroext i1 @_ZN4mojo12StructTraitsIN12media_router5mojom35RoutePresentationConnectionDataViewENS_9StructPtrINS2_27RoutePresentationConnectionEEEE4ReadES3_PS6_(%"class.media_router::mojom::internal::RoutePresentationConnection_Data"* nonnull %49, %"class.mojo::Message"* %50, %"class.mojo::StructPtr.136"* nonnull %6) #13
  %52 = load %"class.media_router::mojom::internal::MediaRouteProvider_JoinRoute_ResponseParams_Data"*, %"class.media_router::mojom::internal::MediaRouteProvider_JoinRoute_ResponseParams_Data"** %23, align 8
  br label %53

53:                                               ; preds = %45, %46
  %54 = phi %"class.media_router::mojom::internal::MediaRouteProvider_JoinRoute_ResponseParams_Data"* [ %52, %46 ], [ %40, %45 ]
  %55 = bitcast %"class.mojo::internal::Array_Data"** %4 to i8*
  call void @llvm.lifetime.start.p0i8(i64 8, i8* nonnull %55) #13
  %56 = getelementptr inbounds %"class.media_router::mojom::internal::MediaRouteProvider_JoinRoute_ResponseParams_Data", %"class.media_router::mojom::internal::MediaRouteProvider_JoinRoute_ResponseParams_Data"* %54, i64 0, i32 3
  %57 = getelementptr inbounds %"struct.mojo::internal::Pointer", %"struct.mojo::internal::Pointer"* %56, i64 0, i32 0
  %58 = load i64, i64* %57, align 8
  %59 = icmp eq i64 %58, 0
  %60 = bitcast %"struct.mojo::internal::Pointer"* %56 to i8*
  %61 = getelementptr inbounds i8, i8* %60, i64 %58
  %62 = bitcast i8* %61 to %"class.mojo::internal::Array_Data"*
  %63 = select i1 %59, %"class.mojo::internal::Array_Data"* null, %"class.mojo::internal::Array_Data"* %62
  store %"class.mojo::internal::Array_Data"* %63, %"class.mojo::internal::Array_Data"** %4, align 8
  %64 = call zeroext i1 @_ZN4mojo8internal11DeserializeINS_14StringDataViewERPNS0_10Array_DataIcEEN4absl8optionalINSt3__112basic_stringIcNS9_11char_traitsIcEENS9_9allocatorIcEEEEEEJRPNS_7MessageEELPv0EEEbOT0_PT1_DpOT2_(%"class.mojo::internal::Array_Data"** nonnull dereferenceable(8) %4, %"class.absl::optional"* nonnull %7, %"class.mojo::Message"** dereferenceable(8) %24) #13
  call void @llvm.lifetime.end.p0i8(i64 8, i8* nonnull %55) #13
  br i1 %64, label %65, label %70

65:                                               ; preds = %53
  %66 = load %"class.media_router::mojom::internal::MediaRouteProvider_JoinRoute_ResponseParams_Data"*, %"class.media_router::mojom::internal::MediaRouteProvider_JoinRoute_ResponseParams_Data"** %23, align 8
  %67 = getelementptr inbounds %"class.media_router::mojom::internal::MediaRouteProvider_JoinRoute_ResponseParams_Data", %"class.media_router::mojom::internal::MediaRouteProvider_JoinRoute_ResponseParams_Data"* %66, i64 0, i32 4
  %68 = load i32, i32* %67, align 4
  %69 = icmp ult i32 %68, 12
  br i1 %69, label %71, label %70

70:                                               ; preds = %65, %53, %31
  call void @_ZN4mojo8internal31ReportValidationErrorForMessageEPNS_7MessageENS0_15ValidationErrorEPKcjb(%"class.mojo::Message"* %1, i32 17, i8* getelementptr inbounds ([38 x i8], [38 x i8]* @_ZN12media_router5mojom18MediaRouteProvider5Name_E, i64 0, i64 0), i32 1, i1 zeroext true) #13
  br label %92

71:                                               ; preds = %65
  %72 = getelementptr inbounds %"class.media_router::mojom::MediaRouteProvider_JoinRoute_ForwardToCallback", %"class.media_router::mojom::MediaRouteProvider_JoinRoute_ForwardToCallback"* %0, i64 0, i32 1, i32 0, i32 0, i32 0
  %73 = load %"class.base::internal::BindStateBase"*, %"class.base::internal::BindStateBase"** %72, align 8
  %74 = icmp eq %"class.base::internal::BindStateBase"* %73, null
  br i1 %74, label %92, label %75

75:                                               ; preds = %71
  %76 = ptrtoint %"class.base::internal::BindStateBase"* %73 to i64
  %77 = bitcast %"class.mojo::StructPtr.136"* %9 to i64*
  %78 = getelementptr inbounds %"class.mojo::StructPtr.136", %"class.mojo::StructPtr.136"* %9, i64 0, i32 0, i32 0, i32 0, i32 0
  %79 = load i64, i64* %17, align 8
  store i64 %79, i64* %77, align 8
  store i64 0, i64* %17, align 8
  %80 = bitcast %"class.base::OnceCallback"* %3 to i8*
  call void @llvm.lifetime.start.p0i8(i64 8, i8* nonnull %80) #13
  %81 = bitcast %"class.base::OnceCallback"* %3 to i64*
  store i64 %76, i64* %81, align 8
  store %"class.base::internal::BindStateBase"* null, %"class.base::internal::BindStateBase"** %72, align 8
  %82 = getelementptr inbounds %"class.base::OnceCallback", %"class.base::OnceCallback"* %3, i64 0, i32 0
  %83 = getelementptr inbounds %"class.base::internal::BindStateBase", %"class.base::internal::BindStateBase"* %73, i64 0, i32 1
  %84 = bitcast void ()** %83 to void (%"class.base::internal::BindStateBase"*, %"class.absl::optional.131"*, %"class.mojo::StructPtr.136"*, %"class.absl::optional"*, i32)**
