; ModuleID = '../../chrome/browser/media_galleries/media_file_system_registry.cc'
source_filename = "../../chrome/browser/media_galleries/media_file_system_registry.cc"
target datalayout = "e-m:e-i64:64-f80:128-n8:16:32:64-S128"
target triple = "x86_64-unknown-linux-gnu"

module asm ".symver exp, exp@GLIBC_2.2.5"
module asm ".symver exp2, exp2@GLIBC_2.2.5"
module asm ".symver exp2f, exp2f@GLIBC_2.2.5"
module asm ".symver expf, expf@GLIBC_2.2.5"
module asm ".symver lgamma, lgamma@GLIBC_2.2.5"
module asm ".symver lgammaf, lgammaf@GLIBC_2.2.5"
module asm ".symver lgammal, lgammal@GLIBC_2.2.5"
module asm ".symver log, log@GLIBC_2.2.5"
module asm ".symver log2, log2@GLIBC_2.2.5"
module asm ".symver log2f, log2f@GLIBC_2.2.5"
module asm ".symver logf, logf@GLIBC_2.2.5"
module asm ".symver pow, pow@GLIBC_2.2.5"
module asm ".symver powf, powf@GLIBC_2.2.5"

%"struct.base::TaskTraitsExtensionStorage" = type { i8, %"struct.std::__1::array" }
%"struct.std::__1::array" = type { [8 x i8] }
%"struct.std::__1::piecewise_construct_t" = type { i8 }
%struct.MediaFileSystemInfo = type <{ %"class.std::__1::basic_string", %"class.base::FilePath", %"class.std::__1::basic_string.1", i64, %"class.std::__1::basic_string.1", i8, i8, [6 x i8] }>
%"class.std::__1::basic_string" = type { %"class.std::__1::__compressed_pair" }
%"class.std::__1::__compressed_pair" = type { %"struct.std::__1::__compressed_pair_elem" }
%"struct.std::__1::__compressed_pair_elem" = type { %"struct.std::__1::basic_string<char16_t, std::__1::char_traits<char16_t>, std::__1::allocator<char16_t> >::__rep" }
%"struct.std::__1::basic_string<char16_t, std::__1::char_traits<char16_t>, std::__1::allocator<char16_t> >::__rep" = type { %union.anon }
%union.anon = type { %"struct.std::__1::basic_string<char16_t, std::__1::char_traits<char16_t>, std::__1::allocator<char16_t> >::__long" }
%"struct.std::__1::basic_string<char16_t, std::__1::char_traits<char16_t>, std::__1::allocator<char16_t> >::__long" = type { i16*, i64, i64 }
%"class.base::FilePath" = type { %"class.std::__1::basic_string.1" }
%"class.std::__1::basic_string.1" = type { %"class.std::__1::__compressed_pair.2" }
%"class.std::__1::__compressed_pair.2" = type { %"struct.std::__1::__compressed_pair_elem.3" }
%"struct.std::__1::__compressed_pair_elem.3" = type { %"struct.std::__1::basic_string<char, std::__1::char_traits<char>, std::__1::allocator<char> >::__rep" }
%"struct.std::__1::basic_string<char, std::__1::char_traits<char>, std::__1::allocator<char> >::__rep" = type { %union.anon.4 }
%union.anon.4 = type { %"struct.std::__1::basic_string<char, std::__1::char_traits<char>, std::__1::allocator<char> >::__long" }
%"struct.std::__1::basic_string<char, std::__1::char_traits<char>, std::__1::allocator<char> >::__long" = type { i8*, i64, i64 }
%class.MediaFileSystemRegistry = type { %"class.storage_monitor::RemovableStorageObserver", %"class.MediaGalleriesPreferences::GalleryChangeObserver", %"class.std::__1::map", %"class.std::__1::map.18", %"class.std::__1::unique_ptr", %"class.std::__1::unique_ptr.30" }
%"class.storage_monitor::RemovableStorageObserver" = type { i32 (...)** }
%"class.MediaGalleriesPreferences::GalleryChangeObserver" = type { i32 (...)** }
%"class.std::__1::map" = type { %"class.std::__1::__tree" }
%"class.std::__1::__tree" = type { %"class.std::__1::__tree_end_node"*, %"class.std::__1::__compressed_pair.10", %"class.std::__1::__compressed_pair.15" }
%"class.std::__1::__tree_end_node" = type { %"class.std::__1::__tree_node_base"* }
%"class.std::__1::__tree_node_base" = type <{ %"class.std::__1::__tree_end_node", %"class.std::__1::__tree_node_base"*, %"class.std::__1::__tree_end_node"*, i8, [7 x i8] }>
%"class.std::__1::__compressed_pair.10" = type { %"struct.std::__1::__compressed_pair_elem.11" }
%"struct.std::__1::__compressed_pair_elem.11" = type { %"class.std::__1::__tree_end_node" }
%"class.std::__1::__compressed_pair.15" = type { %"struct.std::__1::__compressed_pair_elem.16" }
%"struct.std::__1::__compressed_pair_elem.16" = type { i64 }
%"class.std::__1::map.18" = type { %"class.std::__1::__tree.19" }
%"class.std::__1::__tree.19" = type { %"class.std::__1::__tree_end_node"*, %"class.std::__1::__compressed_pair.20", %"class.std::__1::__compressed_pair.24" }
%"class.std::__1::__compressed_pair.20" = type { %"struct.std::__1::__compressed_pair_elem.11" }
%"class.std::__1::__compressed_pair.24" = type { %"struct.std::__1::__compressed_pair_elem.16" }
%"class.std::__1::unique_ptr" = type { %"class.std::__1::__compressed_pair.27" }
%"class.std::__1::__compressed_pair.27" = type { %"struct.std::__1::__compressed_pair_elem.28" }
%"struct.std::__1::__compressed_pair_elem.28" = type { %class.MediaFileSystemContext* }
%class.MediaFileSystemContext = type { i32 (...)** }
%"class.std::__1::unique_ptr.30" = type { %"class.std::__1::__compressed_pair.31" }
%"class.std::__1::__compressed_pair.31" = type { %"struct.std::__1::__compressed_pair_elem.32" }
%"struct.std::__1::__compressed_pair_elem.32" = type { %class.GalleryWatchManager* }
%class.GalleryWatchManager = type { %"class.MediaGalleriesPreferences::GalleryChangeObserver", %"class.storage_monitor::RemovableStorageObserver", i8, %"class.std::__1::set", %"class.std::__1::map.42", %"class.std::__1::map.53", %"class.std::__1::map.64", %"class.std::__1::unique_ptr.75", %class.scoped_refptr, %"class.std::__1::map.82", %"class.base::WeakPtrFactory" }
%"class.std::__1::set" = type { %"class.std::__1::__tree.33" }
%"class.std::__1::__tree.33" = type { %"class.std::__1::__tree_end_node"*, %"class.std::__1::__compressed_pair.34", %"class.std::__1::__compressed_pair.38" }
%"class.std::__1::__compressed_pair.34" = type { %"struct.std::__1::__compressed_pair_elem.11" }
%"class.std::__1::__compressed_pair.38" = type { %"struct.std::__1::__compressed_pair_elem.16" }
%"class.std::__1::map.42" = type { %"class.std::__1::__tree.43" }
%"class.std::__1::__tree.43" = type { %"class.std::__1::__tree_end_node"*, %"class.std::__1::__compressed_pair.44", %"class.std::__1::__compressed_pair.48" }
%"class.std::__1::__compressed_pair.44" = type { %"struct.std::__1::__compressed_pair_elem.11" }
%"class.std::__1::__compressed_pair.48" = type { %"struct.std::__1::__compressed_pair_elem.16" }
%"class.std::__1::map.53" = type { %"class.std::__1::__tree.54" }
%"class.std::__1::__tree.54" = type { %"class.std::__1::__tree_end_node"*, %"class.std::__1::__compressed_pair.55", %"class.std::__1::__compressed_pair.59" }
%"class.std::__1::__compressed_pair.55" = type { %"struct.std::__1::__compressed_pair_elem.11" }
%"class.std::__1::__compressed_pair.59" = type { %"struct.std::__1::__compressed_pair_elem.16" }
%"class.std::__1::map.64" = type { %"class.std::__1::__tree.65" }
%"class.std::__1::__tree.65" = type { %"class.std::__1::__tree_end_node"*, %"class.std::__1::__compressed_pair.66", %"class.std::__1::__compressed_pair.70" }
%"class.std::__1::__compressed_pair.66" = type { %"struct.std::__1::__compressed_pair_elem.11" }
%"class.std::__1::__compressed_pair.70" = type { %"struct.std::__1::__compressed_pair_elem.16" }
%"class.std::__1::unique_ptr.75" = type { %"class.std::__1::__compressed_pair.76" }
%"class.std::__1::__compressed_pair.76" = type { %"struct.std::__1::__compressed_pair_elem.77" }
%"struct.std::__1::__compressed_pair_elem.77" = type { %"class.GalleryWatchManager::FileWatchManager"* }
%"class.GalleryWatchManager::FileWatchManager" = type opaque
%class.scoped_refptr = type { %"class.base::SequencedTaskRunner"* }
%"class.base::SequencedTaskRunner" = type { %"class.base::TaskRunner.base", [4 x i8] }
%"class.base::TaskRunner.base" = type <{ i32 (...)**, %"class.base::RefCountedThreadSafe" }>
%"class.base::RefCountedThreadSafe" = type { %"class.base::subtle::RefCountedThreadSafeBase" }
%"class.base::subtle::RefCountedThreadSafeBase" = type { %"class.base::AtomicRefCount" }
%"class.base::AtomicRefCount" = type { %"struct.std::__1::atomic" }
%"struct.std::__1::atomic" = type { %"struct.std::__1::__atomic_base" }
%"struct.std::__1::__atomic_base" = type { %"struct.std::__1::__atomic_base.81" }
%"struct.std::__1::__atomic_base.81" = type { %"struct.std::__1::__cxx_atomic_impl" }
%"struct.std::__1::__cxx_atomic_impl" = type { %"struct.std::__1::__cxx_atomic_base_impl" }
%"struct.std::__1::__cxx_atomic_base_impl" = type { i32 }
%"class.std::__1::map.82" = type { %"class.std::__1::__tree.83" }
%"class.std::__1::__tree.83" = type { %"class.std::__1::__tree_end_node"*, %"class.std::__1::__compressed_pair.84", %"class.std::__1::__compressed_pair.88" }
%"class.std::__1::__compressed_pair.84" = type { %"struct.std::__1::__compressed_pair_elem.11" }
%"class.std::__1::__compressed_pair.88" = type { %"struct.std::__1::__compressed_pair_elem.16" }
%"class.base::WeakPtrFactory" = type { %"class.base::internal::WeakPtrFactoryBase" }
%"class.base::internal::WeakPtrFactoryBase" = type { %"class.base::internal::WeakReferenceOwner", i64 }
%"class.base::internal::WeakReferenceOwner" = type { %class.scoped_refptr.91 }
%class.scoped_refptr.91 = type { %"class.base::internal::WeakReference::Flag"* }
%"class.base::internal::WeakReference::Flag" = type <{ %"class.base::RefCountedThreadSafe.92", %"class.base::AtomicFlag", [3 x i8] }>
%"class.base::RefCountedThreadSafe.92" = type { %"class.base::subtle::RefCountedThreadSafeBase" }
%"class.base::AtomicFlag" = type { %"struct.std::__1::atomic.93" }
%"struct.std::__1::atomic.93" = type { %"struct.std::__1::__atomic_base.94" }
%"struct.std::__1::__atomic_base.94" = type { %"struct.std::__1::__atomic_base.95" }
%"struct.std::__1::__atomic_base.95" = type { %"struct.std::__1::__cxx_atomic_impl.96" }
%"struct.std::__1::__cxx_atomic_impl.96" = type { %"struct.std::__1::__cxx_atomic_base_impl.97" }
%"struct.std::__1::__cxx_atomic_base_impl.97" = type { i8 }
%"struct.std::__1::basic_string<char16_t, std::__1::char_traits<char16_t>, std::__1::allocator<char16_t> >::__short" = type { [11 x i16], %struct.anon }
%struct.anon = type { %"struct.std::__1::__padding", i8 }
%"struct.std::__1::__padding" = type { [1 x i8] }
%"class.std::__1::__basic_string_common" = type { i8 }
%"struct.std::__1::basic_string<char, std::__1::char_traits<char>, std::__1::allocator<char> >::__short" = type { [23 x i8], %struct.anon.5 }
%struct.anon.5 = type { i8 }
%"class.content::WebContents" = type <{ %"class.content::PageNavigator", %"class.base::SupportsUserData.base", [7 x i8] }>
%"class.content::PageNavigator" = type { i32 (...)** }
%"class.base::SupportsUserData.base" = type <{ i32 (...)**, %"class.std::__1::map.101", %"class.base::SequenceCheckerDoNothing" }>
%"class.std::__1::map.101" = type { %"class.std::__1::__tree.102" }
%"class.std::__1::__tree.102" = type { %"class.std::__1::__tree_end_node"*, %"class.std::__1::__compressed_pair.103", %"class.std::__1::__compressed_pair.107" }
%"class.std::__1::__compressed_pair.103" = type { %"struct.std::__1::__compressed_pair_elem.11" }
%"class.std::__1::__compressed_pair.107" = type { %"struct.std::__1::__compressed_pair_elem.16" }
%"class.base::SequenceCheckerDoNothing" = type { i8 }
%"class.extensions::Extension" = type { %"class.base::RefCountedThreadSafe.112", %"class.std::__1::basic_string.1", %"class.std::__1::basic_string.1", %"class.std::__1::basic_string.1", i32, %"class.base::FilePath", %"class.extensions::URLPatternSet", %"class.std::__1::unique_ptr.123", %"class.std::__1::unique_ptr.129", %"class.std::__1::vector", %class.GURL, %"class.base::Version", %"class.std::__1::basic_string.1", %"class.std::__1::basic_string.1", i8, %"class.std::__1::basic_string.1", %"class.std::__1::unique_ptr.153", %"class.std::__1::map.194", i8, %"class.base::ThreadChecker", i8, i8, i8, i32, %"class.base::GUID" }
%"class.base::RefCountedThreadSafe.112" = type { %"class.base::subtle::RefCountedThreadSafeBase" }
%"class.extensions::URLPatternSet" = type { %"class.std::__1::set.113" }
%"class.std::__1::set.113" = type { %"class.std::__1::__tree.114" }
%"class.std::__1::__tree.114" = type { %"class.std::__1::__tree_end_node"*, %"class.std::__1::__compressed_pair.115", %"class.std::__1::__compressed_pair.119" }
%"class.std::__1::__compressed_pair.115" = type { %"struct.std::__1::__compressed_pair_elem.11" }
%"class.std::__1::__compressed_pair.119" = type { %"struct.std::__1::__compressed_pair_elem.16" }
%"class.std::__1::unique_ptr.123" = type { %"class.std::__1::__compressed_pair.124" }
%"class.std::__1::__compressed_pair.124" = type { %"struct.std::__1::__compressed_pair_elem.125" }
%"struct.std::__1::__compressed_pair_elem.125" = type { %"class.extensions::PermissionsParser"* }
%"class.extensions::PermissionsParser" = type opaque
%"class.std::__1::unique_ptr.129" = type { %"class.std::__1::__compressed_pair.130" }
%"class.std::__1::__compressed_pair.130" = type { %"struct.std::__1::__compressed_pair_elem.131" }
%"struct.std::__1::__compressed_pair_elem.131" = type { %"class.extensions::PermissionsData"* }
%"class.extensions::PermissionsData" = type opaque
%"class.std::__1::vector" = type { %"class.std::__1::__vector_base" }
%"class.std::__1::__vector_base" = type { %"struct.extensions::InstallWarning"*, %"struct.extensions::InstallWarning"*, %"class.std::__1::__compressed_pair.135" }
%"struct.extensions::InstallWarning" = type { %"class.std::__1::basic_string.1", %"class.std::__1::basic_string.1", %"class.std::__1::basic_string.1" }
%"class.std::__1::__compressed_pair.135" = type { %"struct.std::__1::__compressed_pair_elem.136" }
%"struct.std::__1::__compressed_pair_elem.136" = type { %"struct.extensions::InstallWarning"* }
%class.GURL = type { %"class.std::__1::basic_string.1", i8, %"struct.url::Parsed", %"class.std::__1::unique_ptr.140" }
%"struct.url::Parsed" = type { %"struct.url::Component", %"struct.url::Component", %"struct.url::Component", %"struct.url::Component", %"struct.url::Component", %"struct.url::Component", %"struct.url::Component", %"struct.url::Component", i8, %"struct.url::Parsed"* }
%"struct.url::Component" = type { i32, i32 }
%"class.std::__1::unique_ptr.140" = type { %"class.std::__1::__compressed_pair.141" }
%"class.std::__1::__compressed_pair.141" = type { %"struct.std::__1::__compressed_pair_elem.142" }
%"struct.std::__1::__compressed_pair_elem.142" = type { %class.GURL* }
%"class.base::Version" = type { %"class.std::__1::vector.146" }
%"class.std::__1::vector.146" = type { %"class.std::__1::__vector_base.147" }
%"class.std::__1::__vector_base.147" = type { i32*, i32*, %"class.std::__1::__compressed_pair.148" }
%"class.std::__1::__compressed_pair.148" = type { %"struct.std::__1::__compressed_pair_elem.149" }
%"struct.std::__1::__compressed_pair_elem.149" = type { i32* }
%"class.std::__1::unique_ptr.153" = type { %"class.std::__1::__compressed_pair.154" }
%"class.std::__1::__compressed_pair.154" = type { %"struct.std::__1::__compressed_pair_elem.155" }
%"struct.std::__1::__compressed_pair_elem.155" = type { %"class.extensions::Manifest"* }
%"class.extensions::Manifest" = type { %"class.std::__1::basic_string.1", %"class.extensions::HashedExtensionId", i32, %"class.std::__1::unique_ptr.156", %"class.std::__1::unique_ptr.156", i32, i32 }
%"class.extensions::HashedExtensionId" = type { %"class.std::__1::basic_string.1" }
%"class.std::__1::unique_ptr.156" = type { %"class.std::__1::__compressed_pair.157" }
%"class.std::__1::__compressed_pair.157" = type { %"struct.std::__1::__compressed_pair_elem.158" }
%"struct.std::__1::__compressed_pair_elem.158" = type { %"class.base::DictionaryValue"* }
%"class.base::DictionaryValue" = type { %"class.base::Value" }
%"class.base::Value" = type { %"class.absl::variant" }
%"class.absl::variant" = type { %"class.absl::variant_internal::VariantCopyAssignBaseNontrivial" }
%"class.absl::variant_internal::VariantCopyAssignBaseNontrivial" = type { %"class.absl::variant_internal::VariantMoveAssignBaseNontrivial" }
%"class.absl::variant_internal::VariantMoveAssignBaseNontrivial" = type { %"class.absl::variant_internal::VariantCopyBaseNontrivial" }
%"class.absl::variant_internal::VariantCopyBaseNontrivial" = type { %"class.absl::variant_internal::VariantMoveBaseNontrivial" }
%"class.absl::variant_internal::VariantMoveBaseNontrivial" = type { %"class.absl::variant_internal::VariantStateBaseDestructorNontrivial" }
%"class.absl::variant_internal::VariantStateBaseDestructorNontrivial" = type { %"class.absl::variant_internal::VariantStateBase" }
%"class.absl::variant_internal::VariantStateBase" = type { %"union.absl::variant_internal::DestructibleUnionImpl", i64 }
%"union.absl::variant_internal::DestructibleUnionImpl" = type { %"union.absl::variant_internal::DestructibleUnionImpl.159" }
%"union.absl::variant_internal::DestructibleUnionImpl.159" = type { %"union.absl::variant_internal::DestructibleUnionImpl.160" }
%"union.absl::variant_internal::DestructibleUnionImpl.160" = type { %"union.absl::variant_internal::DestructibleUnionImpl.161" }
%"union.absl::variant_internal::DestructibleUnionImpl.161" = type { %"union.absl::variant_internal::DestructibleUnionImpl.162" }
%"union.absl::variant_internal::DestructibleUnionImpl.162" = type { %"class.std::__1::basic_string.1" }
%"class.std::__1::map.194" = type { %"class.std::__1::__tree.195" }
%"class.std::__1::__tree.195" = type { %"class.std::__1::__tree_end_node"*, %"class.std::__1::__compressed_pair.196", %"class.std::__1::__compressed_pair.200" }
%"class.std::__1::__compressed_pair.196" = type { %"struct.std::__1::__compressed_pair_elem.11" }
%"class.std::__1::__compressed_pair.200" = type { %"struct.std::__1::__compressed_pair_elem.16" }
%"class.base::ThreadChecker" = type { i8 }
%"class.base::GUID" = type { %"class.std::__1::basic_string.1" }
%"class.base::OnceCallback" = type { %"class.base::internal::CallbackBase" }
%"class.base::internal::CallbackBase" = type { %class.scoped_refptr.205 }
%class.scoped_refptr.205 = type { %"class.base::internal::BindStateBase"* }
%"class.base::internal::BindStateBase" = type { %"class.base::RefCountedThreadSafe.206", void ()*, void (%"class.base::internal::BindStateBase"*)*, i1 (%"class.base::internal::BindStateBase"*, i32)* }
%"class.base::RefCountedThreadSafe.206" = type { %"class.base::subtle::RefCountedThreadSafeBase" }
%"class.logging::CheckError" = type { %"class.logging::LogMessage"* }
%"class.logging::LogMessage" = type { i32 (...)**, i32, %"class.std::__1::basic_ostringstream", i64, i8*, i32, %"class.base::ScopedClearLastErrorBase" }
%"class.std::__1::basic_ostringstream" = type { %"class.std::__1::basic_ostream.base", %"class.std::__1::basic_stringbuf", %"class.std::__1::basic_ios.base" }
%"class.std::__1::basic_ostream.base" = type { i32 (...)** }
%"class.std::__1::basic_stringbuf" = type <{ %"class.std::__1::basic_streambuf", %"class.std::__1::basic_string.1", i8*, i32, [4 x i8] }>
%"class.std::__1::basic_streambuf" = type { i32 (...)**, %"class.std::__1::locale", i8*, i8*, i8*, i8*, i8*, i8* }
%"class.std::__1::locale" = type { %"class.std::__1::locale::__imp"* }
%"class.std::__1::locale::__imp" = type opaque
%"class.std::__1::basic_ios.base" = type <{ %"class.std::__1::ios_base", %"class.std::__1::basic_ostream"*, i32 }>
%"class.std::__1::ios_base" = type { i32 (...)**, i32, i64, i64, i32, i32, i8*, i8*, void (i32, %"class.std::__1::ios_base"*, i32)**, i32*, i64, i64, i64*, i64, i64, i8**, i64, i64 }
%"class.std::__1::basic_ostream" = type { i32 (...)**, %"class.std::__1::basic_ios.base" }
%"class.base::ScopedClearLastErrorBase" = type { i32 }
%"class.std::__1::set.273" = type { %"class.std::__1::__tree.274" }
%"class.std::__1::__tree.274" = type { %"class.std::__1::__tree_end_node"*, %"class.std::__1::__compressed_pair.275", %"class.std::__1::__compressed_pair.279" }
%"class.std::__1::__compressed_pair.275" = type { %"struct.std::__1::__compressed_pair_elem.11" }
%"class.std::__1::__compressed_pair.279" = type { %"struct.std::__1::__compressed_pair_elem.16" }
%"class.std::__1::vector.281" = type { %"class.std::__1::__vector_base.282" }
%"class.std::__1::__vector_base.282" = type { %struct.MediaFileSystemInfo*, %struct.MediaFileSystemInfo*, %"class.std::__1::__compressed_pair.283" }
%"class.std::__1::__compressed_pair.283" = type { %"struct.std::__1::__compressed_pair_elem.284" }
%"struct.std::__1::__compressed_pair_elem.284" = type { %struct.MediaFileSystemInfo* }
%"class.content::BrowserContext" = type { %"class.base::SupportsUserData.base", %"class.std::__1::unique_ptr.207" }
%"class.std::__1::unique_ptr.207" = type { %"class.std::__1::__compressed_pair.208" }
%"class.std::__1::__compressed_pair.208" = type { %"struct.std::__1::__compressed_pair_elem.209" }
%"struct.std::__1::__compressed_pair_elem.209" = type { %"class.content::BrowserContext::Impl"* }
%"class.content::BrowserContext::Impl" = type opaque
%class.Profile = type { %"class.content::BrowserContext", %"class.std::__1::unique_ptr.213", i8, i8, i32, %"class.base::ObserverList", %"class.std::__1::unique_ptr.227" }
%"class.std::__1::unique_ptr.213" = type { %"class.std::__1::__compressed_pair.214" }
%"class.std::__1::__compressed_pair.214" = type { %"struct.std::__1::__compressed_pair_elem.215" }
%"struct.std::__1::__compressed_pair_elem.215" = type { %"class.content::ResourceContext"* }
%"class.content::ResourceContext" = type opaque
%"class.base::ObserverList" = type <{ %"class.std::__1::vector.219", %"class.base::LinkedList", i64, i32, [4 x i8] }>
%"class.std::__1::vector.219" = type { %"class.std::__1::__vector_base.220" }
%"class.std::__1::__vector_base.220" = type { %"class.base::internal::CheckedObserverAdapter"*, %"class.base::internal::CheckedObserverAdapter"*, %"class.std::__1::__compressed_pair.222" }
%"class.base::internal::CheckedObserverAdapter" = type { %"class.base::WeakPtr" }
%"class.base::WeakPtr" = type { %"class.base::internal::WeakPtrBase" }
%"class.base::internal::WeakPtrBase" = type { %"class.base::internal::WeakReference", i64 }
%"class.base::internal::WeakReference" = type { %class.scoped_refptr.221 }
%class.scoped_refptr.221 = type { %"class.base::internal::WeakReference::Flag"* }
%"class.std::__1::__compressed_pair.222" = type { %"struct.std::__1::__compressed_pair_elem.223" }
%"struct.std::__1::__compressed_pair_elem.223" = type { %"class.base::internal::CheckedObserverAdapter"* }
%"class.base::LinkedList" = type { %"class.base::LinkNode" }
%"class.base::LinkNode" = type { %"class.base::internal::LinkNodeBase" }
%"class.base::internal::LinkNodeBase" = type { %"class.base::internal::LinkNodeBase"*, %"class.base::internal::LinkNodeBase"* }
%"class.std::__1::unique_ptr.227" = type { %"class.std::__1::__compressed_pair.228" }
%"class.std::__1::__compressed_pair.228" = type { %"struct.std::__1::__compressed_pair_elem.229" }
%"struct.std::__1::__compressed_pair_elem.229" = type { %"class.variations::VariationsClient"* }
%"class.variations::VariationsClient" = type opaque
%class.MediaGalleriesPreferences = type { %class.KeyedService, %"class.storage_monitor::RemovableStorageObserver", i8, %"class.std::__1::vector.233", %class.Profile*, %"class.extensions::ExtensionPrefs"*, %"class.std::__1::map.241", %"class.std::__1::map.252", %"class.base::ObserverList.261", %"class.base::WeakPtrFactory.272" }
%class.KeyedService = type { i32 (...)** }
%"class.std::__1::vector.233" = type { %"class.std::__1::__vector_base.234" }
%"class.std::__1::__vector_base.234" = type { %"class.base::OnceCallback.235"*, %"class.base::OnceCallback.235"*, %"class.std::__1::__compressed_pair.236" }
%"class.base::OnceCallback.235" = type { %"class.base::internal::CallbackBase" }
%"class.std::__1::__compressed_pair.236" = type { %"struct.std::__1::__compressed_pair_elem.237" }
%"struct.std::__1::__compressed_pair_elem.237" = type { %"class.base::OnceCallback.235"* }
%"class.extensions::ExtensionPrefs" = type opaque
%"class.std::__1::map.241" = type { %"class.std::__1::__tree.242" }
%"class.std::__1::__tree.242" = type { %"class.std::__1::__tree_end_node"*, %"class.std::__1::__compressed_pair.243", %"class.std::__1::__compressed_pair.247" }
%"class.std::__1::__compressed_pair.243" = type { %"struct.std::__1::__compressed_pair_elem.11" }
%"class.std::__1::__compressed_pair.247" = type { %"struct.std::__1::__compressed_pair_elem.16" }
%"class.std::__1::map.252" = type { %"class.std::__1::__tree.253" }
%"class.std::__1::__tree.253" = type { %"class.std::__1::__tree_end_node"*, %"class.std::__1::__compressed_pair.254", %"class.std::__1::__compressed_pair.258" }
%"class.std::__1::__compressed_pair.254" = type { %"struct.std::__1::__compressed_pair_elem.11" }
%"class.std::__1::__compressed_pair.258" = type { %"struct.std::__1::__compressed_pair_elem.16" }
%"class.base::ObserverList.261" = type <{ %"class.std::__1::vector.262", %"class.base::LinkedList.269", i64, i32, [4 x i8] }>
%"class.std::__1::vector.262" = type { %"class.std::__1::__vector_base.263" }
%"class.std::__1::__vector_base.263" = type { %"class.base::internal::UncheckedObserverAdapter"*, %"class.base::internal::UncheckedObserverAdapter"*, %"class.std::__1::__compressed_pair.264" }
%"class.base::internal::UncheckedObserverAdapter" = type { i8* }
%"class.std::__1::__compressed_pair.264" = type { %"struct.std::__1::__compressed_pair_elem.265" }
%"struct.std::__1::__compressed_pair_elem.265" = type { %"class.base::internal::UncheckedObserverAdapter"* }
%"class.base::LinkedList.269" = type { %"class.base::LinkNode.270" }
%"class.base::LinkNode.270" = type { %"class.base::internal::LinkNodeBase" }
%"class.base::WeakPtrFactory.272" = type { %"class.base::internal::WeakPtrFactoryBase" }
%class.ExtensionGalleriesHost = type { i32 (...)**, %"class.base::RefCountedThreadSafe.288", %class.MediaFileSystemContext*, %"class.base::FilePath", %"class.std::__1::basic_string.1", %"class.base::OnceCallback.235", %"class.std::__1::map.289", %"class.(anonymous namespace)::RPHReferenceManager" }
%"class.base::RefCountedThreadSafe.288" = type { %"class.base::subtle::RefCountedThreadSafeBase" }
%"class.std::__1::map.289" = type { %"class.std::__1::__tree.290" }
%"class.std::__1::__tree.290" = type { %"class.std::__1::__tree_end_node"*, %"class.std::__1::__compressed_pair.291", %"class.std::__1::__compressed_pair.295" }
%"class.std::__1::__compressed_pair.291" = type { %"struct.std::__1::__compressed_pair_elem.11" }
%"class.std::__1::__compressed_pair.295" = type { %"struct.std::__1::__compressed_pair_elem.16" }
%"class.(anonymous namespace)::RPHReferenceManager" = type { i32 (...)**, %"class.base::OnceCallback.235", %"class.std::__1::map.298" }
%"class.std::__1::map.298" = type { %"class.std::__1::__tree.299" }
%"class.std::__1::__tree.299" = type { %"class.std::__1::__tree_end_node"*, %"class.std::__1::__compressed_pair.300", %"class.std::__1::__compressed_pair.304" }
%"class.std::__1::__compressed_pair.300" = type { %"struct.std::__1::__compressed_pair_elem.11" }
%"class.std::__1::__compressed_pair.304" = type { %"struct.std::__1::__compressed_pair_elem.16" }
%"class.std::__1::__tree_node.550" = type { %"class.std::__1::__tree_node_base.base", i64 }
%"class.std::__1::__tree_node_base.base" = type <{ %"class.std::__1::__tree_end_node", %"class.std::__1::__tree_node_base"*, %"class.std::__1::__tree_end_node"*, i8 }>
%"class.std::__1::tuple.637" = type { %"struct.std::__1::__tuple_impl.638" }
%"struct.std::__1::__tuple_impl.638" = type { %"class.std::__1::__tuple_leaf.639" }
%"class.std::__1::__tuple_leaf.639" = type { %class.Profile** }
%"class.std::__1::tuple.455" = type { i8 }
%"class.std::__1::map.312" = type { %"class.std::__1::__tree.313" }
%"class.std::__1::__tree.313" = type { %"class.std::__1::__tree_end_node"*, %"class.std::__1::__compressed_pair.314", %"class.std::__1::__compressed_pair.318" }
%"class.std::__1::__compressed_pair.314" = type { %"struct.std::__1::__compressed_pair_elem.11" }
%"class.std::__1::__compressed_pair.318" = type { %"struct.std::__1::__compressed_pair_elem.16" }
%"class.base::CallbackListSubscription" = type { %"class.base::OnceCallback.235" }
%"class.base::RepeatingCallback" = type { %"class.base::internal::CallbackBaseCopyable" }
%"class.base::internal::CallbackBaseCopyable" = type { %"class.base::internal::CallbackBase" }
%"class.std::__1::__tree_node.602" = type { %"class.std::__1::__tree_node_base.base", %"struct.std::__1::__value_type.603" }
%"struct.std::__1::__value_type.603" = type { %"struct.std::__1::pair.363" }
%"struct.std::__1::pair.363" = type { %class.Profile*, %"class.std::__1::map.312" }
%"class.std::__1::__tree_node.647" = type { %"class.std::__1::__tree_node_base.base", %"struct.std::__1::__value_type.648" }
%"struct.std::__1::__value_type.648" = type { %"struct.std::__1::pair.370" }
%"struct.std::__1::pair.370" = type { %"class.std::__1::basic_string.1", %class.scoped_refptr.371 }
%class.scoped_refptr.371 = type { %class.ExtensionGalleriesHost* }
%class.BrowserContextKeyedServiceShutdownNotifierFactory = type { %class.BrowserContextKeyedServiceFactory }
%class.BrowserContextKeyedServiceFactory = type { %class.KeyedServiceFactory }
%class.KeyedServiceFactory = type { %class.KeyedServiceBaseFactory.base, %"class.std::__1::map.321", %"class.std::__1::map.332" }
%class.KeyedServiceBaseFactory.base = type <{ i32 (...)**, %class.DependencyManager*, i8*, i32 }>
%class.DependencyManager = type opaque
%"class.std::__1::map.321" = type { %"class.std::__1::__tree.322" }
%"class.std::__1::__tree.322" = type { %"class.std::__1::__tree_end_node"*, %"class.std::__1::__compressed_pair.323", %"class.std::__1::__compressed_pair.327" }
%"class.std::__1::__compressed_pair.323" = type { %"struct.std::__1::__compressed_pair_elem.11" }
%"class.std::__1::__compressed_pair.327" = type { %"struct.std::__1::__compressed_pair_elem.16" }
%"class.std::__1::map.332" = type { %"class.std::__1::__tree.333" }
%"class.std::__1::__tree.333" = type { %"class.std::__1::__tree_end_node"*, %"class.std::__1::__compressed_pair.334", %"class.std::__1::__compressed_pair.338" }
%"class.std::__1::__compressed_pair.334" = type { %"struct.std::__1::__compressed_pair_elem.11" }
%"class.std::__1::__compressed_pair.338" = type { %"struct.std::__1::__compressed_pair_elem.16" }
%class.KeyedServiceBaseFactory = type <{ i32 (...)**, %class.DependencyManager*, i8*, i32, [4 x i8] }>
%class.MediaGalleriesPreferencesFactory = type { %class.BrowserContextKeyedServiceFactory }
%"class.(anonymous namespace)::MediaFileSystemRegistryShutdownNotifierFactory" = type { %class.BrowserContextKeyedServiceShutdownNotifierFactory }
%class.KeyedServiceShutdownNotifier = type { %class.KeyedService, %"class.base::OnceCallbackList" }
%"class.base::OnceCallbackList" = type { %"class.base::internal::CallbackListBase", %"class.std::__1::list" }
%"class.base::internal::CallbackListBase" = type { %"class.std::__1::list", i8, %"class.base::RepeatingCallback", %"class.base::WeakPtrFactory.345" }
%"class.base::WeakPtrFactory.345" = type { %"class.base::internal::WeakPtrFactoryBase" }
%"class.std::__1::list" = type { %"class.std::__1::__list_imp" }
%"class.std::__1::__list_imp" = type { %"struct.std::__1::__list_node_base", %"class.std::__1::__compressed_pair.341" }
%"struct.std::__1::__list_node_base" = type { %"struct.std::__1::__list_node_base"*, %"struct.std::__1::__list_node_base"* }
%"class.std::__1::__compressed_pair.341" = type { %"struct.std::__1::__compressed_pair_elem.16" }
%"class.std::__1::tuple.685" = type { %"struct.std::__1::__tuple_impl.686" }
%"struct.std::__1::__tuple_impl.686" = type { %"class.std::__1::__tuple_leaf.687" }
%"class.std::__1::__tuple_leaf.687" = type { %"class.std::__1::basic_string.1"* }
%"class.content::RenderFrameHost" = type { %"class.IPC::Listener", %"class.IPC::Sender" }
%"class.IPC::Listener" = type { i32 (...)** }
%"class.IPC::Sender" = type { i32 (...)** }
%"class.content::RenderProcessHost" = type <{ %"class.IPC::Sender", %"class.IPC::Listener", %"class.base::SupportsUserData.base", [7 x i8] }>
%"class.std::__1::__tree_node" = type { %"class.std::__1::__tree_node_base.base", %"struct.std::__1::__value_type" }
%"struct.std::__1::__value_type" = type { %"struct.std::__1::pair.441" }
%"struct.std::__1::pair.441" = type { %"class.content::RenderProcessHost"*, %"class.std::__1::unique_ptr.419" }
%"class.std::__1::unique_ptr.419" = type { %"class.std::__1::__compressed_pair.420" }
%"class.std::__1::__compressed_pair.420" = type { %"struct.std::__1::__compressed_pair_elem.421" }
%"struct.std::__1::__compressed_pair_elem.421" = type { %"class.(anonymous namespace)::RPHReferenceManager::RPHObserver"* }
%"class.(anonymous namespace)::RPHReferenceManager::RPHObserver" = type { %"class.content::RenderProcessHostObserver", %"class.(anonymous namespace)::RPHReferenceManager"*, %"class.content::RenderProcessHost"*, %"class.std::__1::map.423" }
%"class.content::RenderProcessHostObserver" = type { %"class.base::CheckedObserver" }
%"class.base::CheckedObserver" = type { i32 (...)**, %"class.base::WeakPtrFactory.422" }
%"class.base::WeakPtrFactory.422" = type { %"class.base::internal::WeakPtrFactoryBase" }
%"class.std::__1::map.423" = type { %"class.std::__1::__tree.424" }
%"class.std::__1::__tree.424" = type { %"class.std::__1::__tree_end_node"*, %"class.std::__1::__compressed_pair.425", %"class.std::__1::__compressed_pair.429" }
%"class.std::__1::__compressed_pair.425" = type { %"struct.std::__1::__compressed_pair_elem.11" }
%"class.std::__1::__compressed_pair.429" = type { %"struct.std::__1::__compressed_pair_elem.16" }
%"class.std::__1::__tree_node.442" = type { %"class.std::__1::__tree_node_base.base", %"struct.std::__1::__value_type.443" }
%"struct.std::__1::__value_type.443" = type { %"struct.std::__1::pair.444" }
%"struct.std::__1::pair.444" = type { %"class.content::WebContents"*, %"class.std::__1::unique_ptr.445" }
%"class.std::__1::unique_ptr.445" = type { %"class.std::__1::__compressed_pair.446" }
%"class.std::__1::__compressed_pair.446" = type { %"struct.std::__1::__compressed_pair_elem.447" }
%"struct.std::__1::__compressed_pair_elem.447" = type { %"class.(anonymous namespace)::RPHReferenceManager::RPHWebContentsObserver"* }
%"class.(anonymous namespace)::RPHReferenceManager::RPHWebContentsObserver" = type { %"class.content::WebContentsObserver", %"class.(anonymous namespace)::RPHReferenceManager"* }
%"class.content::WebContentsObserver" = type { %"class.IPC::Listener", %"class.content::WebContents"* }
%"class.base::internal::OwnedWrapper" = type { %"class.std::__1::unique_ptr.519" }
%"class.std::__1::unique_ptr.519" = type { %"class.std::__1::__compressed_pair.520" }
%"class.std::__1::__compressed_pair.520" = type { %"struct.std::__1::__compressed_pair_elem.521" }
%"struct.std::__1::__compressed_pair_elem.521" = type { %"class.std::__1::set.508"* }
%"class.std::__1::set.508" = type { %"class.std::__1::__tree.509" }
%"class.std::__1::__tree.509" = type { %"class.std::__1::__tree_end_node"*, %"class.std::__1::__compressed_pair.510", %"class.std::__1::__compressed_pair.514" }
%"class.std::__1::__compressed_pair.510" = type { %"struct.std::__1::__compressed_pair_elem.11" }
%"class.std::__1::__compressed_pair.514" = type { %"struct.std::__1::__compressed_pair_elem.16" }
%"class.std::__1::__tree_node.543" = type { %"class.std::__1::__tree_node_base.base", %"struct.std::__1::__value_type.544" }
%"struct.std::__1::__value_type.544" = type { %"struct.std::__1::pair.311" }
%"struct.std::__1::pair.311" = type { i64, %struct.MediaGalleryPrefInfo }
%struct.MediaGalleryPrefInfo = type { i64, %"class.std::__1::basic_string", %"class.std::__1::basic_string.1", %"class.base::FilePath", i32, %"class.std::__1::basic_string", %"class.std::__1::basic_string", %"class.std::__1::basic_string", i64, %"class.base::Time", i8, i32, i32, i32, i32, i32 }
%"class.base::Time" = type { %"class.base::time_internal::TimeBase" }
%"class.base::time_internal::TimeBase" = type { i64 }
%"struct.base::internal::BindState" = type { %"class.base::internal::BindStateBase", { i64, i64 }, %"class.std::__1::tuple.535" }
%"class.std::__1::tuple.535" = type { %"struct.std::__1::__tuple_impl.536" }
%"struct.std::__1::__tuple_impl.536" = type { %"class.std::__1::__tuple_leaf.537", %"class.std::__1::__tuple_leaf.538", %"class.std::__1::__tuple_leaf.539", %"class.std::__1::__tuple_leaf.540", %"class.std::__1::__tuple_leaf.541" }
%"class.std::__1::__tuple_leaf.537" = type { %class.scoped_refptr.371 }
%"class.std::__1::__tuple_leaf.538" = type { %"class.base::internal::OwnedWrapper" }
%"class.std::__1::__tuple_leaf.539" = type { %"class.std::__1::set.273" }
%"class.std::__1::__tuple_leaf.540" = type { %"class.std::__1::map.241" }
%"class.std::__1::__tuple_leaf.541" = type { %"class.base::OnceCallback" }
%"class.std::__1::__tree_node.528" = type { %"class.std::__1::__tree_node_base.base", %"class.std::__1::basic_string.1" }
%"class.base::OnceCallback.309" = type { %"class.base::internal::CallbackBase" }
%"class.base::Location" = type { i8*, i8*, i32, i8* }
%"class.base::SingleThreadTaskRunner" = type { %"class.base::SequencedTaskRunner.base", [4 x i8] }
%"class.base::SequencedTaskRunner.base" = type { %"class.base::TaskRunner.base" }
%"class.content::BrowserTaskTraits" = type { %"class.base::TaskTraits" }
%"class.base::TaskTraits" = type { %"struct.base::TaskTraitsExtensionStorage", i8, i8, i8, i8, i8, i8 }
%"class.base::TaskRunner" = type <{ i32 (...)**, %"class.base::RefCountedThreadSafe", [4 x i8] }>
%"class.std::__1::__tree_node.653" = type { %"class.std::__1::__tree_node_base.base", %"struct.std::__1::__value_type.651" }
%"struct.std::__1::__value_type.651" = type { %"struct.std::__1::pair.652" }
%"struct.std::__1::pair.652" = type { %class.Profile*, %"class.base::CallbackListSubscription" }
%"class.storage_monitor::StorageInfo" = type { %"class.std::__1::basic_string.1", %"class.std::__1::basic_string.1", %"class.std::__1::basic_string", %"class.std::__1::basic_string", %"class.std::__1::basic_string", i64 }
%"class.std::__1::vector.346" = type { %"class.std::__1::__vector_base.347" }
%"class.std::__1::__vector_base.347" = type { %"struct.(anonymous namespace)::InvalidatedGalleriesInfo"*, %"struct.(anonymous namespace)::InvalidatedGalleriesInfo"*, %"class.std::__1::__compressed_pair.358" }
%"struct.(anonymous namespace)::InvalidatedGalleriesInfo" = type { %"class.std::__1::set.348", %"class.std::__1::set.273" }
%"class.std::__1::set.348" = type { %"class.std::__1::__tree.349" }
%"class.std::__1::__tree.349" = type { %"class.std::__1::__tree_end_node"*, %"class.std::__1::__compressed_pair.350", %"class.std::__1::__compressed_pair.354" }
%"class.std::__1::__compressed_pair.350" = type { %"struct.std::__1::__compressed_pair_elem.11" }
%"class.std::__1::__compressed_pair.354" = type { %"struct.std::__1::__compressed_pair_elem.16" }
%"class.std::__1::__compressed_pair.358" = type { %"struct.std::__1::__compressed_pair_elem.359" }
%"struct.std::__1::__compressed_pair_elem.359" = type { %"struct.(anonymous namespace)::InvalidatedGalleriesInfo"* }
%"class.std::__1::__tree_node.609" = type { %"class.std::__1::__tree_node_base.base", %class.ExtensionGalleriesHost* }
%"class.std::__1::__vector_base_common" = type { i8 }
%"class.std::__1::__tree_node.572" = type { %"class.std::__1::__tree_node_base.base", %"struct.std::__1::__value_type.573" }
%"struct.std::__1::__value_type.573" = type { %"struct.std::__1::pair.571" }
%"struct.std::__1::pair.571" = type { i64, %struct.MediaFileSystemInfo }
%"class.storage_monitor::StorageMonitor" = type { i32 (...)**, %"class.std::__1::unique_ptr.373", %class.scoped_refptr.379, i8, i8, %"class.std::__1::vector.233", %"class.base::Lock", %"class.std::__1::map.380", %"class.std::__1::unique_ptr.389" }
%"class.std::__1::unique_ptr.373" = type { %"class.std::__1::__compressed_pair.374" }
%"class.std::__1::__compressed_pair.374" = type { %"struct.std::__1::__compressed_pair_elem.375" }
%"struct.std::__1::__compressed_pair_elem.375" = type { %"class.storage_monitor::StorageMonitor::Receiver"* }
%"class.storage_monitor::StorageMonitor::Receiver" = type { i32 (...)** }
%class.scoped_refptr.379 = type { %"class.base::ObserverListThreadSafe"* }
%"class.base::ObserverListThreadSafe" = type opaque
%"class.base::Lock" = type { %"class.base::internal::LockImpl" }
%"class.base::internal::LockImpl" = type { %union.pthread_mutex_t }
%union.pthread_mutex_t = type { %struct.__pthread_mutex_s }
%struct.__pthread_mutex_s = type { i32, i32, i32, i32, i32, i16, i16, %struct.__pthread_internal_list }
%struct.__pthread_internal_list = type { %struct.__pthread_internal_list*, %struct.__pthread_internal_list* }
%"class.std::__1::map.380" = type { %"class.std::__1::__tree.381" }
%"class.std::__1::__tree.381" = type { %"class.std::__1::__tree_end_node"*, %"class.std::__1::__compressed_pair.382", %"class.std::__1::__compressed_pair.386" }
%"class.std::__1::__compressed_pair.382" = type { %"struct.std::__1::__compressed_pair_elem.11" }
%"class.std::__1::__compressed_pair.386" = type { %"struct.std::__1::__compressed_pair_elem.16" }
%"class.std::__1::unique_ptr.389" = type { %"class.std::__1::__compressed_pair.390" }
%"class.std::__1::__compressed_pair.390" = type { %"struct.std::__1::__compressed_pair_elem.391" }
%"struct.std::__1::__compressed_pair_elem.391" = type { %"class.storage_monitor::TransientDeviceIds"* }
%"class.storage_monitor::TransientDeviceIds" = type opaque
%"class.std::__1::vector.410" = type { %"class.std::__1::__vector_base.411" }
%"class.std::__1::__vector_base.411" = type { %"class.extensions::Extension"**, %"class.extensions::Extension"**, %"class.std::__1::__compressed_pair.412" }
%"class.std::__1::__compressed_pair.412" = type { %"struct.std::__1::__compressed_pair_elem.413" }
%"struct.std::__1::__compressed_pair_elem.413" = type { %"class.extensions::Extension"** }
%"class.extensions::ExtensionRegistry" = type { %class.KeyedService, %"class.extensions::ExtensionSet", %"class.extensions::ExtensionSet", %"class.extensions::ExtensionSet", %"class.extensions::ExtensionSet", %"class.extensions::ExtensionSet", %"class.extensions::ExtensionSet", %"class.base::ObserverList.406", %"class.content::BrowserContext"* }
%"class.extensions::ExtensionSet" = type { %"class.std::__1::map.397" }
%"class.std::__1::map.397" = type { %"class.std::__1::__tree.398" }
%"class.std::__1::__tree.398" = type { %"class.std::__1::__tree_end_node"*, %"class.std::__1::__compressed_pair.399", %"class.std::__1::__compressed_pair.403" }
%"class.std::__1::__compressed_pair.399" = type { %"struct.std::__1::__compressed_pair_elem.11" }
%"class.std::__1::__compressed_pair.403" = type { %"struct.std::__1::__compressed_pair_elem.16" }
%"class.base::ObserverList.406" = type <{ %"class.std::__1::vector.262", %"class.base::LinkedList.407", i64, i32, [4 x i8] }>
%"class.base::LinkedList.407" = type { %"class.base::LinkNode.408" }
%"class.base::LinkNode.408" = type { %"class.base::internal::LinkNodeBase" }
%"struct.content::ChildProcessTerminationInfo" = type opaque
%"class.IPC::Message" = type { %"class.base::Pickle", i8, %class.scoped_refptr.464 }
%"class.base::Pickle" = type { i32 (...)**, %"struct.base::Pickle::Header"*, i64, i64, i64 }
%"struct.base::Pickle::Header" = type { i32 }
%class.scoped_refptr.464 = type { %"class.IPC::MessageAttachmentSet"* }
%"class.IPC::MessageAttachmentSet" = type opaque
%"class.mojo::ScopedInterfaceEndpointHandle" = type { %class.scoped_refptr.465 }
%class.scoped_refptr.465 = type { %"class.mojo::ScopedInterfaceEndpointHandle::State"* }
%"class.mojo::ScopedInterfaceEndpointHandle::State" = type opaque
%"class.blink::mojom::CaptureHandleConfig" = type opaque
%"class.content::RenderViewHost" = type { i32 (...)** }
%"class.content::NavigationHandle" = type { %"class.base::SupportsUserData.base", [7 x i8] }
%"struct.content::GlobalRequestID" = type { i32, i32 }
%"class.blink::mojom::ResourceLoadInfo" = type opaque
%"struct.content::CookieAccessDetails" = type <{ i32, [4 x i8], %class.GURL, %class.GURL, %"class.std::__1::vector.467", i8, [7 x i8] }>
%"class.std::__1::vector.467" = type { %"class.std::__1::__vector_base.468" }
%"class.std::__1::__vector_base.468" = type { %"class.net::CanonicalCookie"*, %"class.net::CanonicalCookie"*, %"class.std::__1::__compressed_pair.469" }
%"class.net::CanonicalCookie" = type { %"class.std::__1::basic_string.1", %"class.std::__1::basic_string.1", %"class.std::__1::basic_string.1", %"class.std::__1::basic_string.1", %"class.base::Time", %"class.base::Time", %"class.base::Time", i8, i8, i32, i32, i8, i32, i32 }
%"class.std::__1::__compressed_pair.469" = type { %"struct.std::__1::__compressed_pair_elem.470" }
%"struct.std::__1::__compressed_pair_elem.470" = type { %"class.net::CanonicalCookie"* }
%"struct.content::LoadCommittedDetails" = type { %"class.content::NavigationEntry"*, i32, i32, %class.GURL, i8, i8, i8, i8, i32 }
%"class.content::NavigationEntry" = type opaque
%"struct.content::PrunedDetails" = type { i32, i32 }
%"struct.content::EntryChangedDetails" = type { %"class.content::NavigationEntry"*, i32 }
%"struct.content::Referrer" = type <{ %class.GURL, i32, [4 x i8] }>
%"class.blink::WebInputEvent" = type { i32 (...)**, float, %"class.gfx::Vector2dF", %"class.base::TimeTicks", i32, i32 }
%"class.gfx::Vector2dF" = type { float, float }
%"class.base::TimeTicks" = type { %"class.base::time_internal::TimeBase.466" }
%"class.base::time_internal::TimeBase.466" = type { i64 }
%"class.gfx::Size" = type { i32, i32 }
%"struct.blink::UserAgentOverride" = type { %"class.std::__1::basic_string.1", %"class.absl::optional" }
%"class.absl::optional" = type { %"class.absl::optional_internal::optional_data" }
%"class.absl::optional_internal::optional_data" = type { %"class.absl::optional_internal::optional_data_base" }
%"class.absl::optional_internal::optional_data_base" = type { %"class.absl::optional_internal::optional_data_dtor_base" }
%"class.absl::optional_internal::optional_data_dtor_base" = type { i8, [7 x i8], %union.anon.474 }
%union.anon.474 = type { %"struct.blink::UserAgentMetadata" }
%"struct.blink::UserAgentMetadata" = type <{ %"class.std::__1::vector.475", %"class.std::__1::basic_string.1", %"class.std::__1::basic_string.1", %"class.std::__1::basic_string.1", %"class.std::__1::basic_string.1", %"class.std::__1::basic_string.1", i8, [7 x i8] }>
%"class.std::__1::vector.475" = type { %"class.std::__1::__vector_base.476" }
%"class.std::__1::__vector_base.476" = type { %"struct.blink::UserAgentBrandVersion"*, %"struct.blink::UserAgentBrandVersion"*, %"class.std::__1::__compressed_pair.477" }
%"struct.blink::UserAgentBrandVersion" = type { %"class.std::__1::basic_string.1", %"class.std::__1::basic_string.1" }
%"class.std::__1::__compressed_pair.477" = type { %"struct.std::__1::__compressed_pair_elem.478" }
%"struct.std::__1::__compressed_pair_elem.478" = type { %"struct.blink::UserAgentBrandVersion"* }
%"class.std::__1::vector.482" = type opaque
%"struct.content::AXEventNotificationDetails" = type opaque
%"class.std::__1::vector.483" = type opaque
%"class.absl::optional.484" = type { %"class.absl::optional_internal::optional_data.485" }
%"class.absl::optional_internal::optional_data.485" = type { %"class.absl::optional_internal::optional_data_base.486" }
%"class.absl::optional_internal::optional_data_base.486" = type { %"class.absl::optional_internal::optional_data_dtor_base.487" }
%"class.absl::optional_internal::optional_data_dtor_base.487" = type { i8, %union.anon.488 }
%union.anon.488 = type { %"class.std::__1::basic_string" }
%"struct.content::WebContentsObserver::MediaPlayerInfo" = type { i8, i8 }
%"struct.content::MediaPlayerId" = type opaque
%"class.content::RenderWidgetHost" = type opaque
%"struct.content::FocusedNodeDetails" = type opaque
%"class.absl::optional.489" = type { %"class.absl::optional_internal::optional_data.490" }
%"class.absl::optional_internal::optional_data.490" = type { %"class.absl::optional_internal::optional_data_base.491" }
%"class.absl::optional_internal::optional_data_base.491" = type { %"class.absl::optional_internal::optional_data_dtor_base.492" }
%"class.absl::optional_internal::optional_data_dtor_base.492" = type { i8, %union.anon.493 }
%union.anon.493 = type { %class.GURL }
%"class.mojo::ScopedHandleBase" = type { %"class.mojo::MessagePipeHandle" }
%"class.mojo::MessagePipeHandle" = type { %"class.mojo::Handle" }
%"class.mojo::Handle" = type { i32 }
%"struct.std::__1::pair.494" = type opaque
%"class.std::__1::tuple.578" = type { %"struct.std::__1::__tuple_impl.579" }
%"struct.std::__1::__tuple_impl.579" = type { %"class.std::__1::__tuple_leaf.580" }
%"class.std::__1::__tuple_leaf.580" = type { i64* }
%"class.user_prefs::PrefRegistrySyncable" = type opaque
%"class.MediaFileSystemRegistry::MediaFileSystemContextImpl" = type { %class.MediaFileSystemContext }
%"class.storage::ExternalMountPoints" = type { %"class.storage::MountPoints", %"class.base::RefCountedThreadSafe.610", %"class.base::Lock", %"class.std::__1::map.611", %"class.std::__1::map.620" }
%"class.storage::MountPoints" = type { i32 (...)** }
%"class.base::RefCountedThreadSafe.610" = type { %"class.base::subtle::RefCountedThreadSafeBase" }
%"class.std::__1::map.611" = type { %"class.std::__1::__tree.612" }
%"class.std::__1::__tree.612" = type { %"class.std::__1::__tree_end_node"*, %"class.std::__1::__compressed_pair.613", %"class.std::__1::__compressed_pair.617" }
%"class.std::__1::__compressed_pair.613" = type { %"struct.std::__1::__compressed_pair_elem.11" }
%"class.std::__1::__compressed_pair.617" = type { %"struct.std::__1::__compressed_pair_elem.16" }
%"class.std::__1::map.620" = type { %"class.std::__1::__tree.621" }
%"class.std::__1::__tree.621" = type { %"class.std::__1::__tree_end_node"*, %"class.std::__1::__compressed_pair.622", %"class.std::__1::__compressed_pair.626" }
%"class.std::__1::__compressed_pair.622" = type { %"struct.std::__1::__compressed_pair_elem.11" }
%"class.std::__1::__compressed_pair.626" = type { %"struct.std::__1::__compressed_pair_elem.16" }
%"class.storage::FileSystemMountOption" = type { i32 }

$_ZN22ExtensionGalleriesHost24ReferenceFromWebContentsEPN7content11WebContentsE = comdat any

$_ZN22ExtensionGalleriesHost19GetMediaFileSystemsERKNSt3__13setImNS0_4lessImEENS0_9allocatorImEEEERKNS0_3mapIm20MediaGalleryPrefInfoS3_NS4_INS0_4pairIKmSA_EEEEEEN4base12OnceCallbackIFvRKNS0_6vectorI19MediaFileSystemInfoNS4_ISL_EEEEEEE = comdat any

$_ZN22ExtensionGalleriesHost23RegisterMediaFileSystemERK20MediaGalleryPrefInfoN4base12OnceCallbackIFvNS3_4File5ErrorEEEE = comdat any

$_ZN22ExtensionGalleriesHostC2EP22MediaFileSystemContextRKN4base8FilePathERKNSt3__112basic_stringIcNS6_11char_traitsIcEENS6_9allocatorIcEEEENS2_12OnceCallbackIFvvEEE = comdat any

$_ZN15storage_monitor24RemovableStorageObserver26OnRemovableStorageAttachedERKNS_11StorageInfoE = comdat any

$_ZN25MediaGalleriesPreferences21GalleryChangeObserver17OnPermissionAddedEPS_RKNSt3__112basic_stringIcNS2_11char_traitsIcEENS2_9allocatorIcEEEEm = comdat any

$_ZN25MediaGalleriesPreferences21GalleryChangeObserver14OnGalleryAddedEPS_m = comdat any

$_ZN25MediaGalleriesPreferences21GalleryChangeObserver20OnGalleryInfoUpdatedEPS_m = comdat any

$_ZN7content25RenderProcessHostObserver18RenderProcessReadyEPNS_17RenderProcessHostE = comdat any

$_ZN7content25RenderProcessHostObserver19RenderProcessExitedEPNS_17RenderProcessHostERKNS_27ChildProcessTerminationInfoE = comdat any

$_ZNSt3__113__tree_removeIPNS_16__tree_node_baseIPvEEEEvT_S5_ = comdat any

$_ZNSt3__127__tree_balance_after_insertIPNS_16__tree_node_baseIPvEEEEvT_S5_ = comdat any

$_ZN3IPC8Listener18OnChannelConnectedEi = comdat any

$_ZN3IPC8Listener14OnChannelErrorEv = comdat any

$_ZN3IPC8Listener20OnBadMessageReceivedERKNS_7MessageE = comdat any

$_ZN3IPC8Listener28OnAssociatedInterfaceRequestERKNSt3__112basic_stringIcNS1_11char_traitsIcEENS1_9allocatorIcEEEEN4mojo29ScopedInterfaceEndpointHandleE = comdat any

$_ZN3IPC8Listener15OnChannelDeniedEv = comdat any

$_ZN3IPC8Listener20OnChannelListenErrorEv = comdat any

$_ZN7content19WebContentsObserver18RenderFrameCreatedEPNS_15RenderFrameHostE = comdat any

$_ZN7content19WebContentsObserver18RenderFrameDeletedEPNS_15RenderFrameHostE = comdat any

$_ZN7content19WebContentsObserver22RenderFrameHostChangedEPNS_15RenderFrameHostES2_ = comdat any

$_ZN7content19WebContentsObserver12FrameDeletedEi = comdat any

$_ZN7content19WebContentsObserver27RenderFrameHostStateChangedEPNS_15RenderFrameHostENS1_14LifecycleStateES3_ = comdat any

$_ZN7content19WebContentsObserver20CaptureTargetChangedEv = comdat any

$_ZN7content19WebContentsObserver27OnCaptureHandleConfigUpdateERKN5blink5mojom19CaptureHandleConfigE = comdat any

$_ZN7content19WebContentsObserver15RenderViewReadyEv = comdat any

$_ZN7content19WebContentsObserver17RenderViewDeletedEPNS_14RenderViewHostE = comdat any

$_ZN7content19WebContentsObserver17RenderProcessGoneEN4base17TerminationStatusE = comdat any

$_ZN7content19WebContentsObserver21RenderViewHostChangedEPNS_14RenderViewHostES2_ = comdat any

$_ZN7content19WebContentsObserver22OnRendererUnresponsiveEPNS_17RenderProcessHostE = comdat any

$_ZN7content19WebContentsObserver20OnRendererResponsiveEPNS_17RenderProcessHostE = comdat any

$_ZN7content19WebContentsObserver18DidStartNavigationEPNS_16NavigationHandleE = comdat any

$_ZN7content19WebContentsObserver21DidRedirectNavigationEPNS_16NavigationHandleE = comdat any

$_ZN7content19WebContentsObserver23ReadyToCommitNavigationEPNS_16NavigationHandleE = comdat any

$_ZN7content19WebContentsObserver19DidFinishNavigationEPNS_16NavigationHandleE = comdat any

$_ZN7content19WebContentsObserver17DidActivatePortalEPNS_11WebContentsEN4base9TimeTicksE = comdat any

$_ZN7content19WebContentsObserver15DidStartLoadingEv = comdat any

$_ZN7content19WebContentsObserver18DidReceiveResponseEv = comdat any

$_ZN7content19WebContentsObserver14DidStopLoadingEv = comdat any

$_ZN7content19WebContentsObserver19LoadProgressChangedEd = comdat any

$_ZN7content19WebContentsObserver28DocumentAvailableInMainFrameEPNS_15RenderFrameHostE = comdat any

$_ZN7content19WebContentsObserver34DocumentOnLoadCompletedInMainFrameEPNS_15RenderFrameHostE = comdat any

$_ZN7content19WebContentsObserver16DOMContentLoadedEPNS_15RenderFrameHostE = comdat any

$_ZN7content19WebContentsObserver13DidFinishLoadEPNS_15RenderFrameHostERK4GURL = comdat any

$_ZN7content19WebContentsObserver11DidFailLoadEPNS_15RenderFrameHostERK4GURLi = comdat any

$_ZN7content19WebContentsObserver29DidChangeVisibleSecurityStateEv = comdat any

$_ZN7content19WebContentsObserver30DidLoadResourceFromMemoryCacheEPNS_15RenderFrameHostERK4GURLRKNSt3__112basic_stringIcNS6_11char_traitsIcEENS6_9allocatorIcEEEEN7network5mojom18RequestDestinationE = comdat any

$_ZN7content19WebContentsObserver20ResourceLoadCompleteEPNS_15RenderFrameHostERKNS_15GlobalRequestIDERKN5blink5mojom16ResourceLoadInfoE = comdat any

$_ZN7content19WebContentsObserver17OnCookiesAccessedEPNS_15RenderFrameHostERKNS_19CookieAccessDetailsE = comdat any

$_ZN7content19WebContentsObserver17OnCookiesAccessedEPNS_16NavigationHandleERKNS_19CookieAccessDetailsE = comdat any

$_ZN7content19WebContentsObserver20NavigationListPrunedERKNS_13PrunedDetailsE = comdat any

$_ZN7content19WebContentsObserver24NavigationEntriesDeletedEv = comdat any

$_ZN7content19WebContentsObserver22NavigationEntryChangedERKNS_19EntryChangedDetailsE = comdat any

$_ZN7content19WebContentsObserver19DidOpenRequestedURLEPNS_11WebContentsEPNS_15RenderFrameHostERK4GURLRKNS_8ReferrerE21WindowOpenDispositionN2ui14PageTransitionEbb = comdat any

$_ZN7content19WebContentsObserver29DidFirstVisuallyNonEmptyPaintEv = comdat any

$_ZN7content19WebContentsObserver17NavigationStoppedEv = comdat any

$_ZN7content19WebContentsObserver21DidGetUserInteractionERKN5blink13WebInputEventE = comdat any

$_ZN7content19WebContentsObserver20DidGetIgnoredUIEventEv = comdat any

$_ZN7content19WebContentsObserver19OnVisibilityChangedENS_10VisibilityE = comdat any

$_ZN7content19WebContentsObserver19MainFrameWasResizedEb = comdat any

$_ZN7content19WebContentsObserver16FrameNameChangedEPNS_15RenderFrameHostERKNSt3__112basic_stringIcNS3_11char_traitsIcEENS3_9allocatorIcEEEE = comdat any

$_ZN7content19WebContentsObserver27FrameReceivedUserActivationEPNS_15RenderFrameHostE = comdat any

$_ZN7content19WebContentsObserver24FrameDisplayStateChangedEPNS_15RenderFrameHostEb = comdat any

$_ZN7content19WebContentsObserver16FrameSizeChangedEPNS_15RenderFrameHostERKN3gfx4SizeE = comdat any

$_ZN7content19WebContentsObserver11TitleWasSetEPNS_15NavigationEntryE = comdat any

$_ZN7content19WebContentsObserver16AppCacheAccessedERK4GURLb = comdat any

$_ZN7content19WebContentsObserver21PepperInstanceCreatedEv = comdat any

$_ZN7content19WebContentsObserver21PepperInstanceDeletedEv = comdat any

$_ZN7content19WebContentsObserver18ViewportFitChangedEN5blink5mojom11ViewportFitE = comdat any

$_ZN7content19WebContentsObserver13PluginCrashedERKN4base8FilePathEi = comdat any

$_ZN7content19WebContentsObserver23PluginHungStatusChangedEiRKN4base8FilePathEb = comdat any

$_ZN7content19WebContentsObserver23InnerWebContentsCreatedEPNS_11WebContentsE = comdat any

$_ZN7content19WebContentsObserver24InnerWebContentsAttachedEPNS_11WebContentsEPNS_15RenderFrameHostEb = comdat any

$_ZN7content19WebContentsObserver24InnerWebContentsDetachedEPNS_11WebContentsE = comdat any

$_ZN7content19WebContentsObserver24DidCloneToNewWebContentsEPNS_11WebContentsES2_ = comdat any

$_ZN7content19WebContentsObserver20UserAgentOverrideSetERKN5blink17UserAgentOverrideE = comdat any

$_ZN7content19WebContentsObserver19DidUpdateFaviconURLEPNS_15RenderFrameHostERKNSt3__16vectorIN4mojo9StructPtrIN5blink5mojom10FaviconURLEEENS3_9allocatorISA_EEEE = comdat any

$_ZN7content19WebContentsObserver19OnAudioStateChangedEb = comdat any

$_ZN7content19WebContentsObserver24OnFrameAudioStateChangedEPNS_15RenderFrameHostEb = comdat any

$_ZN7content19WebContentsObserver37OnIsConnectedToBluetoothDeviceChangedEb = comdat any

$_ZN7content19WebContentsObserver25DidUpdateAudioMutingStateEb = comdat any

$_ZN7content19WebContentsObserver29DidToggleFullscreenModeForTabEbb = comdat any

$_ZN7content19WebContentsObserver20DidAcquireFullscreenEPNS_15RenderFrameHostE = comdat any

$_ZN7content19WebContentsObserver32DidChangeVerticalScrollDirectionEN3viz23VerticalScrollDirectionE = comdat any

$_ZN7content19WebContentsObserver27BeforeFormRepostWarningShowEv = comdat any

$_ZN7content19WebContentsObserver17BeforeUnloadFiredEbRKN4base9TimeTicksE = comdat any

$_ZN7content19WebContentsObserver27BeforeUnloadDialogCancelledEv = comdat any

$_ZN7content19WebContentsObserver30AXTreeIDForMainFrameHasChangedEv = comdat any

$_ZN7content19WebContentsObserver26AccessibilityEventReceivedERKNS_26AXEventNotificationDetailsE = comdat any

$_ZN7content19WebContentsObserver36AccessibilityLocationChangesReceivedERKNSt3__16vectorINS_35AXLocationChangeNotificationDetailsENS1_9allocatorIS3_EEEE = comdat any

$_ZN7content19WebContentsObserver19DidChangeThemeColorEv = comdat any

$_ZN7content19WebContentsObserver24OnBackgroundColorChangedEv = comdat any

$_ZN7content19WebContentsObserver24OnDidAddMessageToConsoleEPNS_15RenderFrameHostEN5blink5mojom19ConsoleMessageLevelERKNSt3__112basic_stringIDsNS6_11char_traitsIDsEENS6_9allocatorIDsEEEEiSE_RKN4absl8optionalISC_EE = comdat any

$_ZN7content19WebContentsObserver19MediaStartedPlayingERKNS0_15MediaPlayerInfoERKNS_13MediaPlayerIdE = comdat any

$_ZN7content19WebContentsObserver19MediaStoppedPlayingERKNS0_15MediaPlayerInfoERKNS_13MediaPlayerIdENS0_18MediaStoppedReasonE = comdat any

$_ZN7content19WebContentsObserver12MediaResizedERKN3gfx4SizeERKNS_13MediaPlayerIdE = comdat any

$_ZN7content19WebContentsObserver33MediaEffectivelyFullscreenChangedEb = comdat any

$_ZN7content19WebContentsObserver28MediaPictureInPictureChangedEb = comdat any

$_ZN7content19WebContentsObserver23MediaMutedStatusChangedERKNS_13MediaPlayerIdEb = comdat any

$_ZN7content19WebContentsObserver20MediaBufferUnderflowERKNS_13MediaPlayerIdE = comdat any

$_ZN7content19WebContentsObserver15MediaPlayerSeekERKNS_13MediaPlayerIdE = comdat any

$_ZN7content19WebContentsObserver14MediaDestroyedERKNS_13MediaPlayerIdE = comdat any

$_ZN7content19WebContentsObserver24OnPageScaleFactorChangedEf = comdat any

$_ZN7content19WebContentsObserver7OnPasteEv = comdat any

$_ZN7content19WebContentsObserver20OnWebContentsFocusedEPNS_16RenderWidgetHostE = comdat any

$_ZN7content19WebContentsObserver22OnWebContentsLostFocusEPNS_16RenderWidgetHostE = comdat any

$_ZN7content19WebContentsObserver20OnFocusChangedInPageEPNS_18FocusedNodeDetailsE = comdat any

$_ZN7content19WebContentsObserver23DidUpdateWebManifestURLEPNS_15RenderFrameHostERKN4absl8optionalI4GURLEE = comdat any

$_ZN7content19WebContentsObserver27OnInterfaceRequestFromFrameEPNS_15RenderFrameHostERKNSt3__112basic_stringIcNS3_11char_traitsIcEENS3_9allocatorIcEEEEPN4mojo16ScopedHandleBaseINSC_17MessagePipeHandleEEE = comdat any

$_ZN7content19WebContentsObserver27AudioContextPlaybackStartedERKNSt3__14pairIPNS_15RenderFrameHostEiEE = comdat any

$_ZN7content19WebContentsObserver27AudioContextPlaybackStoppedERKNSt3__14pairIPNS_15RenderFrameHostEiEE = comdat any

$_ZN7content19WebContentsObserver23OnServiceWorkerAccessedEPNS_15RenderFrameHostERK4GURLNS_24AllowServiceWorkerResultE = comdat any

$_ZN7content19WebContentsObserver23OnServiceWorkerAccessedEPNS_16NavigationHandleERK4GURLNS_24AllowServiceWorkerResultE = comdat any

$_ZN22ExtensionGalleriesHost37GetMediaFileSystemsForAttachedDevicesEPKNSt3__13setINS0_12basic_stringIcNS0_11char_traitsIcEENS0_9allocatorIcEEEENS0_4lessIS7_EENS5_IS7_EEEERKNS1_ImNS8_ImEENS5_ImEEEERKNS0_3mapIm20MediaGalleryPrefInfoSE_NS5_INS0_4pairIKmSK_EEEEEEN4base12OnceCallbackIFvRKNS0_6vectorI19MediaFileSystemInfoNS5_ISV_EEEEEEE = comdat any

$_ZNSt3__16__treeINS_12basic_stringIcNS_11char_traitsIcEENS_9allocatorIcEEEENS_4lessIS6_EENS4_IS6_EEE25__emplace_unique_key_argsIS6_JRKS6_EEENS_4pairINS_15__tree_iteratorIS6_PNS_11__tree_nodeIS6_PvEElEEbEERKT_DpOT0_ = comdat any

$_ZNSt3__16__treeINS_12basic_stringIcNS_11char_traitsIcEENS_9allocatorIcEEEENS_4lessIS6_EENS4_IS6_EEE12__find_equalIS6_EERPNS_16__tree_node_baseIPvEERPNS_15__tree_end_nodeISF_EERKT_ = comdat any

$_ZN4base8internal7InvokerINS0_9BindStateIM22ExtensionGalleriesHostFvPKNSt3__13setINS4_12basic_stringIcNS4_11char_traitsIcEENS4_9allocatorIcEEEENS4_4lessISB_EENS9_ISB_EEEERKNS5_ImNSC_ImEENS9_ImEEEERKNS4_3mapIm20MediaGalleryPrefInfoSI_NS9_INS4_4pairIKmSO_EEEEEENS_12OnceCallbackIFvRKNS4_6vectorI19MediaFileSystemInfoNS9_ISY_EEEEEEEEJ13scoped_refptrIS3_ENS0_12OwnedWrapperISF_NS4_14default_deleteISF_EEEESK_ST_S14_EEEFvvEE7RunOnceEPNS0_13BindStateBaseE = comdat any

$_ZN4base8internal9BindStateIM22ExtensionGalleriesHostFvPKNSt3__13setINS3_12basic_stringIcNS3_11char_traitsIcEENS3_9allocatorIcEEEENS3_4lessISA_EENS8_ISA_EEEERKNS4_ImNSB_ImEENS8_ImEEEERKNS3_3mapIm20MediaGalleryPrefInfoSH_NS8_INS3_4pairIKmSN_EEEEEENS_12OnceCallbackIFvRKNS3_6vectorI19MediaFileSystemInfoNS8_ISX_EEEEEEEEJ13scoped_refptrIS2_ENS0_12OwnedWrapperISE_NS3_14default_deleteISE_EEEESJ_SS_S13_EEC2IS15_JPS2_S1B_SL_SU_S13_EEENS3_17integral_constantIbLb0EEEPFvvEOT_DpOT0_ = comdat any

$_ZN4base8internal9BindStateIM22ExtensionGalleriesHostFvPKNSt3__13setINS3_12basic_stringIcNS3_11char_traitsIcEENS3_9allocatorIcEEEENS3_4lessISA_EENS8_ISA_EEEERKNS4_ImNSB_ImEENS8_ImEEEERKNS3_3mapIm20MediaGalleryPrefInfoSH_NS8_INS3_4pairIKmSN_EEEEEENS_12OnceCallbackIFvRKNS3_6vectorI19MediaFileSystemInfoNS8_ISX_EEEEEEEEJ13scoped_refptrIS2_ENS0_12OwnedWrapperISE_NS3_14default_deleteISE_EEEESJ_SS_S13_EE7DestroyEPKNS0_13BindStateBaseE = comdat any

$_ZN4base8internal9BindStateIM22ExtensionGalleriesHostFvPKNSt3__13setINS3_12basic_stringIcNS3_11char_traitsIcEENS3_9allocatorIcEEEENS3_4lessISA_EENS8_ISA_EEEERKNS4_ImNSB_ImEENS8_ImEEEERKNS3_3mapIm20MediaGalleryPrefInfoSH_NS8_INS3_4pairIKmSN_EEEEEENS_12OnceCallbackIFvRKNS3_6vectorI19MediaFileSystemInfoNS8_ISX_EEEEEEEEJ13scoped_refptrIS2_ENS0_12OwnedWrapperISE_NS3_14default_deleteISE_EEEESJ_SS_S13_EED2Ev = comdat any

$_ZNSt3__16__treeINS_12__value_typeIm20MediaGalleryPrefInfoEENS_19__map_value_compareImS3_NS_4lessImEELb1EEENS_9allocatorIS3_EEE7destroyEPNS_11__tree_nodeIS3_PvEE = comdat any

$_ZNSt3__13setImNS_4lessImEENS_9allocatorImEEEC2ERKS5_ = comdat any

$_ZNSt3__16__treeINS_12__value_typeIm20MediaGalleryPrefInfoEENS_19__map_value_compareImS3_NS_4lessImEELb1EEENS_9allocatorIS3_EEE30__emplace_hint_unique_key_argsImJRKNS_4pairIKmS2_EEEEENSC_INS_15__tree_iteratorIS3_PNS_11__tree_nodeIS3_PvEElEEbEENS_21__tree_const_iteratorIS3_SL_lEERKT_DpOT0_ = comdat any

$_ZNSt3__16__treeINS_12__value_typeIm20MediaGalleryPrefInfoEENS_19__map_value_compareImS3_NS_4lessImEELb1EEENS_9allocatorIS3_EEE12__find_equalImEERPNS_16__tree_node_baseIPvEENS_21__tree_const_iteratorIS3_PNS_11__tree_nodeIS3_SD_EElEERPNS_15__tree_end_nodeISF_EESG_RKT_ = comdat any

$_ZN19MediaFileSystemInfoaSERKS_ = comdat any

$_ZN22ExtensionGalleriesHost7CleanUpEv = comdat any

$_ZNKSt3__16__treeINS_12basic_stringIcNS_11char_traitsIcEENS_9allocatorIcEEEENS_4lessIS6_EENS4_IS6_EEE4findIS6_EENS_21__tree_const_iteratorIS6_PNS_11__tree_nodeIS6_PvEElEERKT_ = comdat any

$_ZNSt3__16vectorI19MediaFileSystemInfoNS_9allocatorIS1_EEE21__push_back_slow_pathIRKS1_EEvOT_ = comdat any

$_ZNSt3__16__treeINS_12__value_typeIm19MediaFileSystemInfoEENS_19__map_value_compareImS3_NS_4lessImEELb1EEENS_9allocatorIS3_EEE25__emplace_unique_key_argsImJRKNS_21piecewise_construct_tENS_5tupleIJRKmEEENSF_IJEEEEEENS_4pairINS_15__tree_iteratorIS3_PNS_11__tree_nodeIS3_PvEElEEbEERKT_DpOT0_ = comdat any

$_ZNSt3__112basic_stringIDsNS_11char_traitsIDsEENS_9allocatorIDsEEEaSERKS5_ = comdat any

$_ZNSt3__112basic_stringIDsNS_11char_traitsIDsEENS_9allocatorIDsEEE21__grow_by_and_replaceEmmmmmmPKDs = comdat any

$_ZNSt3__16__treeINS_12__value_typeIm19MediaFileSystemInfoEENS_19__map_value_compareImS3_NS_4lessImEELb1EEENS_9allocatorIS3_EEE7destroyEPNS_11__tree_nodeIS3_PvEE = comdat any

$_ZNSt3__16__treeINS_12basic_stringIcNS_11char_traitsIcEENS_9allocatorIcEEEENS_4lessIS6_EENS4_IS6_EEE7destroyEPNS_11__tree_nodeIS6_PvEE = comdat any

$_ZN22ExtensionGalleriesHost31RegisterAttachedMediaFileSystemEPKNSt3__13setINS0_12basic_stringIcNS0_11char_traitsIcEENS0_9allocatorIcEEEENS0_4lessIS7_EENS5_IS7_EEEERK20MediaGalleryPrefInfoN4base12OnceCallbackIFvNSH_4File5ErrorEEEE = comdat any

$_ZN4base8internal7InvokerINS0_9BindStateIM22ExtensionGalleriesHostFvPKNSt3__13setINS4_12basic_stringIcNS4_11char_traitsIcEENS4_9allocatorIcEEEENS4_4lessISB_EENS9_ISB_EEEERK20MediaGalleryPrefInfoNS_12OnceCallbackIFvNS_4File5ErrorEEEEEJ13scoped_refptrIS3_ENS0_12OwnedWrapperISF_NS4_14default_deleteISF_EEEESI_SP_EEEFvvEE7RunOnceEPNS0_13BindStateBaseE = comdat any

$_ZN4base8internal9BindStateIM22ExtensionGalleriesHostFvPKNSt3__13setINS3_12basic_stringIcNS3_11char_traitsIcEENS3_9allocatorIcEEEENS3_4lessISA_EENS8_ISA_EEEERK20MediaGalleryPrefInfoNS_12OnceCallbackIFvNS_4File5ErrorEEEEEJ13scoped_refptrIS2_ENS0_12OwnedWrapperISE_NS3_14default_deleteISE_EEEESH_SO_EE7DestroyEPKNS0_13BindStateBaseE = comdat any

$_ZN4base8internal7InvokerINS0_9BindStateINS_12OnceCallbackIFvNS_4File5ErrorEEEEJS5_EEEFvvEE7RunOnceEPNS0_13BindStateBaseE = comdat any

$_ZN4base8internal9BindStateINS_12OnceCallbackIFvNS_4File5ErrorEEEEJS4_EE7DestroyEPKNS0_13BindStateBaseE = comdat any

$_ZN4base8internal23QueryCancellationTraitsINS0_9BindStateINS_12OnceCallbackIFvNS_4File5ErrorEEEEJS5_EEEEEbPKNS0_13BindStateBaseENS9_21CancellationQueryModeE = comdat any

$_ZN33BrowserContextKeyedServiceFactory20RegisterProfilePrefsEPN10user_prefs20PrefRegistrySyncableE = comdat any

$_ZNSt3__16__treeIP22ExtensionGalleriesHostNS_4lessIS2_EENS_9allocatorIS2_EEE7destroyEPNS_11__tree_nodeIS2_PvEE = comdat any

$_ZNSt3__16__treeINS_12__value_typeIm19MediaFileSystemInfoEENS_19__map_value_compareImS3_NS_4lessImEELb1EEENS_9allocatorIS3_EEE5eraseENS_21__tree_const_iteratorIS3_PNS_11__tree_nodeIS3_PvEElEE = comdat any

$_ZN23MediaFileSystemRegistry26MediaFileSystemContextImplD0Ev = comdat any

$_ZN23MediaFileSystemRegistry26MediaFileSystemContextImpl18RegisterFileSystemERKNSt3__112basic_stringIcNS1_11char_traitsIcEENS1_9allocatorIcEEEES9_RKN4base8FilePathE = comdat any

$_ZN23MediaFileSystemRegistry26MediaFileSystemContextImpl16RevokeFileSystemERKNSt3__112basic_stringIcNS1_11char_traitsIcEENS1_9allocatorIcEEEE = comdat any

$_ZNK23MediaFileSystemRegistry26MediaFileSystemContextImpl17GetRegisteredPathERKNSt3__112basic_stringIcNS1_11char_traitsIcEENS1_9allocatorIcEEEE = comdat any

$_ZN22MediaFileSystemContextD2Ev = comdat any

$_ZN23MediaFileSystemRegistry26MediaFileSystemContextImpl32RegisterFileSystemForMassStorageERKNSt3__112basic_stringIcNS1_11char_traitsIcEENS1_9allocatorIcEEEES9_RKN4base8FilePathE = comdat any

$_ZN22ExtensionGalleriesHostD2Ev = comdat any

$_ZN22ExtensionGalleriesHostD0Ev = comdat any

$_ZN4base8internal7InvokerINS0_9BindStateIM22ExtensionGalleriesHostFvvEJNS0_17UnretainedWrapperIS3_EEEEEFvvEE3RunEPNS0_13BindStateBaseE = comdat any

$_ZN4base8internal9BindStateIM22ExtensionGalleriesHostFvvEJNS0_17UnretainedWrapperIS2_EEEE7DestroyEPKNS0_13BindStateBaseE = comdat any

$_ZNSt3__16__treeImNS_4lessImEENS_9allocatorImEEE7destroyEPNS_11__tree_nodeImPvEE = comdat any

$_ZNSt3__16__treeINS_12__value_typeINS_12basic_stringIcNS_11char_traitsIcEENS_9allocatorIcEEEE13scoped_refptrI22ExtensionGalleriesHostEEENS_19__map_value_compareIS7_SB_NS_4lessIS7_EELb1EEENS5_ISB_EEE7destroyEPNS_11__tree_nodeISB_PvEE = comdat any

$_ZNSt3__16__treeINS_12__value_typeIP7ProfileN4base24CallbackListSubscriptionEEENS_19__map_value_compareIS3_S6_NS_4lessIS3_EELb1EEENS_9allocatorIS6_EEE25__emplace_unique_key_argsIS3_JRKNS_21piecewise_construct_tENS_5tupleIJRKS3_EEENSI_IJEEEEEENS_4pairINS_15__tree_iteratorIS6_PNS_11__tree_nodeIS6_PvEElEEbEERKT_DpOT0_ = comdat any

$_ZN4base8internal7InvokerINS0_9BindStateIM23MediaFileSystemRegistryFvP7ProfileEJNS0_17UnretainedWrapperIS3_EES5_EEEFvvEE3RunEPNS0_13BindStateBaseE = comdat any

$_ZN4base8internal9BindStateIM23MediaFileSystemRegistryFvP7ProfileEJNS0_17UnretainedWrapperIS2_EES4_EE7DestroyEPKNS0_13BindStateBaseE = comdat any

$_ZNSt3__16__treeINS_12__value_typeIP7ProfileNS_3mapINS_12basic_stringIcNS_11char_traitsIcEENS_9allocatorIcEEEE13scoped_refptrI22ExtensionGalleriesHostENS_4lessISA_EENS8_INS_4pairIKSA_SD_EEEEEEEENS_19__map_value_compareIS3_SL_NSE_IS3_EELb1EEENS8_ISL_EEE7destroyEPNS_11__tree_nodeISL_PvEE = comdat any

$_ZNSt3__16__treeINS_12__value_typeIP7ProfileN4base24CallbackListSubscriptionEEENS_19__map_value_compareIS3_S6_NS_4lessIS3_EELb1EEENS_9allocatorIS6_EEE7destroyEPNS_11__tree_nodeIS6_PvEE = comdat any

$_ZNKSt3__16__treeINS_12__value_typeINS_12basic_stringIcNS_11char_traitsIcEENS_9allocatorIcEEEE13scoped_refptrI22ExtensionGalleriesHostEEENS_19__map_value_compareIS7_SB_NS_4lessIS7_EELb1EEENS5_ISB_EEE4findIS7_EENS_21__tree_const_iteratorISB_PNS_11__tree_nodeISB_PvEElEERKT_ = comdat any

$_ZNSt3__16__treeINS_12__value_typeINS_12basic_stringIcNS_11char_traitsIcEENS_9allocatorIcEEEE13scoped_refptrI22ExtensionGalleriesHostEEENS_19__map_value_compareIS7_SB_NS_4lessIS7_EELb1EEENS5_ISB_EEE25__emplace_unique_key_argsIS7_JRKNS_21piecewise_construct_tENS_5tupleIJRKS7_EEENSM_IJEEEEEENS_4pairINS_15__tree_iteratorISB_PNS_11__tree_nodeISB_PvEElEEbEERKT_DpOT0_ = comdat any

$_ZNSt3__16__treeINS_12__value_typeINS_12basic_stringIcNS_11char_traitsIcEENS_9allocatorIcEEEE13scoped_refptrI22ExtensionGalleriesHostEEENS_19__map_value_compareIS7_SB_NS_4lessIS7_EELb1EEENS5_ISB_EEE12__find_equalIS7_EERPNS_16__tree_node_baseIPvEERPNS_15__tree_end_nodeISM_EERKT_ = comdat any

$_ZN4base8internal7InvokerINS0_9BindStateIM23MediaFileSystemRegistryFvP7ProfileRKNSt3__112basic_stringIcNS6_11char_traitsIcEENS6_9allocatorIcEEEEEJNS0_17UnretainedWrapperIS3_EES5_SC_EEEFvvEE7RunOnceEPNS0_13BindStateBaseE = comdat any

$_ZN4base8internal9BindStateIM23MediaFileSystemRegistryFvP7ProfileRKNSt3__112basic_stringIcNS5_11char_traitsIcEENS5_9allocatorIcEEEEEJNS0_17UnretainedWrapperIS2_EES4_SB_EE7DestroyEPKNS0_13BindStateBaseE = comdat any

$_ZNSt3__16__treeINS_12__value_typeINS_12basic_stringIcNS_11char_traitsIcEENS_9allocatorIcEEEE13scoped_refptrI22ExtensionGalleriesHostEEENS_19__map_value_compareIS7_SB_NS_4lessIS7_EELb1EEENS5_ISB_EEE4findIS7_EENS_15__tree_iteratorISB_PNS_11__tree_nodeISB_PvEElEERKT_ = comdat any

$_ZNSt3__16__treeINS_12__value_typeINS_12basic_stringIcNS_11char_traitsIcEENS_9allocatorIcEEEE13scoped_refptrI22ExtensionGalleriesHostEEENS_19__map_value_compareIS7_SB_NS_4lessIS7_EELb1EEENS5_ISB_EEE5eraseENS_21__tree_const_iteratorISB_PNS_11__tree_nodeISB_PvEElEE = comdat any

$_ZTVN23MediaFileSystemRegistry26MediaFileSystemContextImplE = comdat any

$_ZTV22ExtensionGalleriesHost = comdat any

@.str = private unnamed_addr constant [67 x i8] c"../../chrome/browser/media_galleries/media_file_system_registry.cc\00", align 1
@.str.1 = private unnamed_addr constant [46 x i8] c"BrowserThread::CurrentlyOn(BrowserThread::UI)\00", align 1
@.ref.tmp = private constant { %"struct.base::TaskTraitsExtensionStorage", i8, i8, i8, i8, i8, i8 } { %"struct.base::TaskTraitsExtensionStorage" zeroinitializer, i8 2, i8 1, i8 0, i8 0, i8 0, i8 0 }, align 1
@.str.2 = private unnamed_addr constant [36 x i8] c"RegisterMediaFileSystemForExtension\00", align 1
@_ZTV23MediaFileSystemRegistry = hidden unnamed_addr constant { [8 x i8*], [9 x i8*] } { [8 x i8*] [i8* null, i8* null, i8* bitcast (void (%"class.storage_monitor::RemovableStorageObserver"*, %"class.storage_monitor::StorageInfo"*)* @_ZN15storage_monitor24RemovableStorageObserver26OnRemovableStorageAttachedERKNS_11StorageInfoE to i8*), i8* bitcast (void (%class.MediaFileSystemRegistry*, %"class.storage_monitor::StorageInfo"*)* @_ZN23MediaFileSystemRegistry26OnRemovableStorageDetachedERKN15storage_monitor11StorageInfoE to i8*), i8* bitcast (void (%class.MediaFileSystemRegistry*)* @_ZN23MediaFileSystemRegistryD2Ev to i8*), i8* bitcast (void (%class.MediaFileSystemRegistry*)* @_ZN23MediaFileSystemRegistryD0Ev to i8*), i8* bitcast (void (%class.MediaFileSystemRegistry*, %class.MediaGalleriesPreferences*, %"class.std::__1::basic_string.1"*, i64)* @_ZN23MediaFileSystemRegistry19OnPermissionRemovedEP25MediaGalleriesPreferencesRKNSt3__112basic_stringIcNS2_11char_traitsIcEENS2_9allocatorIcEEEEm to i8*), i8* bitcast (void (%class.MediaFileSystemRegistry*, %class.MediaGalleriesPreferences*, i64)* @_ZN23MediaFileSystemRegistry16OnGalleryRemovedEP25MediaGalleriesPreferencesm to i8*)], [9 x i8*] [i8* inttoptr (i64 -8 to i8*), i8* null, i8* bitcast (void (%"class.MediaGalleriesPreferences::GalleryChangeObserver"*, %class.MediaGalleriesPreferences*, %"class.std::__1::basic_string.1"*, i64)* @_ZN25MediaGalleriesPreferences21GalleryChangeObserver17OnPermissionAddedEPS_RKNSt3__112basic_stringIcNS2_11char_traitsIcEENS2_9allocatorIcEEEEm to i8*), i8* bitcast (void (%class.MediaFileSystemRegistry*, %class.MediaGalleriesPreferences*, %"class.std::__1::basic_string.1"*, i64)* @_ZThn8_N23MediaFileSystemRegistry19OnPermissionRemovedEP25MediaGalleriesPreferencesRKNSt3__112basic_stringIcNS2_11char_traitsIcEENS2_9allocatorIcEEEEm to i8*), i8* bitcast (void (%"class.MediaGalleriesPreferences::GalleryChangeObserver"*, %class.MediaGalleriesPreferences*, i64)* @_ZN25MediaGalleriesPreferences21GalleryChangeObserver14OnGalleryAddedEPS_m to i8*), i8* bitcast (void (%class.MediaFileSystemRegistry*, %class.MediaGalleriesPreferences*, i64)* @_ZThn8_N23MediaFileSystemRegistry16OnGalleryRemovedEP25MediaGalleriesPreferencesm to i8*), i8* bitcast (void (%"class.MediaGalleriesPreferences::GalleryChangeObserver"*, %class.MediaGalleriesPreferences*, i64)* @_ZN25MediaGalleriesPreferences21GalleryChangeObserver20OnGalleryInfoUpdatedEPS_m to i8*), i8* bitcast (void (%class.MediaFileSystemRegistry*)* @_ZThn8_N23MediaFileSystemRegistryD1Ev to i8*), i8* bitcast (void (%class.MediaFileSystemRegistry*)* @_ZThn8_N23MediaFileSystemRegistryD0Ev to i8*)] }, align 8
@_ZTVN12_GLOBAL__N_119RPHReferenceManager11RPHObserverE = internal unnamed_addr constant { [7 x i8*] } { [7 x i8*] [i8* null, i8* null, i8* bitcast (void (%"class.(anonymous namespace)::RPHReferenceManager::RPHObserver"*)* @_ZN12_GLOBAL__N_119RPHReferenceManager11RPHObserverD2Ev to i8*), i8* bitcast (void (%"class.(anonymous namespace)::RPHReferenceManager::RPHObserver"*)* @_ZN12_GLOBAL__N_119RPHReferenceManager11RPHObserverD0Ev to i8*), i8* bitcast (void (%"class.content::RenderProcessHostObserver"*, %"class.content::RenderProcessHost"*)* @_ZN7content25RenderProcessHostObserver18RenderProcessReadyEPNS_17RenderProcessHostE to i8*), i8* bitcast (void (%"class.content::RenderProcessHostObserver"*, %"class.content::RenderProcessHost"*, %"struct.content::ChildProcessTerminationInfo"*)* @_ZN7content25RenderProcessHostObserver19RenderProcessExitedEPNS_17RenderProcessHostERKNS_27ChildProcessTerminationInfoE to i8*), i8* bitcast (void (%"class.(anonymous namespace)::RPHReferenceManager::RPHObserver"*, %"class.content::RenderProcessHost"*)* @_ZN12_GLOBAL__N_119RPHReferenceManager11RPHObserver26RenderProcessHostDestroyedEPN7content17RenderProcessHostE to i8*)] }, align 8
@_ZNSt3__1L19piecewise_constructE = internal constant %"struct.std::__1::piecewise_construct_t" undef, align 1
@_ZTVN12_GLOBAL__N_119RPHReferenceManager22RPHWebContentsObserverE = internal unnamed_addr constant { [109 x i8*] } { [109 x i8*] [i8* null, i8* null, i8* bitcast (i1 (%"class.content::WebContentsObserver"*, %"class.IPC::Message"*)* @_ZN7content19WebContentsObserver17OnMessageReceivedERKN3IPC7MessageE to i8*), i8* bitcast (void (%"class.IPC::Listener"*, i32)* @_ZN3IPC8Listener18OnChannelConnectedEi to i8*), i8* bitcast (void (%"class.IPC::Listener"*)* @_ZN3IPC8Listener14OnChannelErrorEv to i8*), i8* bitcast (void (%"class.IPC::Listener"*, %"class.IPC::Message"*)* @_ZN3IPC8Listener20OnBadMessageReceivedERKNS_7MessageE to i8*), i8* bitcast (void (%"class.IPC::Listener"*, %"class.std::__1::basic_string.1"*, %"class.mojo::ScopedInterfaceEndpointHandle"*)* @_ZN3IPC8Listener28OnAssociatedInterfaceRequestERKNSt3__112basic_stringIcNS1_11char_traitsIcEENS1_9allocatorIcEEEEN4mojo29ScopedInterfaceEndpointHandleE to i8*), i8* bitcast (void (%"class.IPC::Listener"*)* @_ZN3IPC8Listener15OnChannelDeniedEv to i8*), i8* bitcast (void (%"class.IPC::Listener"*)* @_ZN3IPC8Listener20OnChannelListenErrorEv to i8*), i8* bitcast (void (%"class.content::WebContentsObserver"*)* @_ZN7content19WebContentsObserverD2Ev to i8*), i8* bitcast (void (%"class.(anonymous namespace)::RPHReferenceManager::RPHWebContentsObserver"*)* @_ZN12_GLOBAL__N_119RPHReferenceManager22RPHWebContentsObserverD0Ev to i8*), i8* bitcast (void (%"class.content::WebContentsObserver"*, %"class.content::RenderFrameHost"*)* @_ZN7content19WebContentsObserver18RenderFrameCreatedEPNS_15RenderFrameHostE to i8*), i8* bitcast (void (%"class.content::WebContentsObserver"*, %"class.content::RenderFrameHost"*)* @_ZN7content19WebContentsObserver18RenderFrameDeletedEPNS_15RenderFrameHostE to i8*), i8* bitcast (void (%"class.content::WebContentsObserver"*, %"class.content::RenderFrameHost"*, %"class.content::RenderFrameHost"*)* @_ZN7content19WebContentsObserver22RenderFrameHostChangedEPNS_15RenderFrameHostES2_ to i8*), i8* bitcast (void (%"class.content::WebContentsObserver"*, i32)* @_ZN7content19WebContentsObserver12FrameDeletedEi to i8*), i8* bitcast (void (%"class.content::WebContentsObserver"*, %"class.content::RenderFrameHost"*, i32, i32)* @_ZN7content19WebContentsObserver27RenderFrameHostStateChangedEPNS_15RenderFrameHostENS1_14LifecycleStateES3_ to i8*), i8* bitcast (void (%"class.content::WebContentsObserver"*)* @_ZN7content19WebContentsObserver20CaptureTargetChangedEv to i8*), i8* bitcast (void (%"class.content::WebContentsObserver"*, %"class.blink::mojom::CaptureHandleConfig"*)* @_ZN7content19WebContentsObserver27OnCaptureHandleConfigUpdateERKN5blink5mojom19CaptureHandleConfigE to i8*), i8* bitcast (void (%"class.content::WebContentsObserver"*)* @_ZN7content19WebContentsObserver15RenderViewReadyEv to i8*), i8* bitcast (void (%"class.content::WebContentsObserver"*, %"class.content::RenderViewHost"*)* @_ZN7content19WebContentsObserver17RenderViewDeletedEPNS_14RenderViewHostE to i8*), i8* bitcast (void (%"class.content::WebContentsObserver"*, i32)* @_ZN7content19WebContentsObserver17RenderProcessGoneEN4base17TerminationStatusE to i8*), i8* bitcast (void (%"class.content::WebContentsObserver"*, %"class.content::RenderViewHost"*, %"class.content::RenderViewHost"*)* @_ZN7content19WebContentsObserver21RenderViewHostChangedEPNS_14RenderViewHostES2_ to i8*), i8* bitcast (void (%"class.content::WebContentsObserver"*, %"class.content::RenderProcessHost"*)* @_ZN7content19WebContentsObserver22OnRendererUnresponsiveEPNS_17RenderProcessHostE to i8*), i8* bitcast (void (%"class.content::WebContentsObserver"*, %"class.content::RenderProcessHost"*)* @_ZN7content19WebContentsObserver20OnRendererResponsiveEPNS_17RenderProcessHostE to i8*), i8* bitcast (void (%"class.content::WebContentsObserver"*, %"class.content::NavigationHandle"*)* @_ZN7content19WebContentsObserver18DidStartNavigationEPNS_16NavigationHandleE to i8*), i8* bitcast (void (%"class.content::WebContentsObserver"*, %"class.content::NavigationHandle"*)* @_ZN7content19WebContentsObserver21DidRedirectNavigationEPNS_16NavigationHandleE to i8*), i8* bitcast (void (%"class.content::WebContentsObserver"*, %"class.content::NavigationHandle"*)* @_ZN7content19WebContentsObserver23ReadyToCommitNavigationEPNS_16NavigationHandleE to i8*), i8* bitcast (void (%"class.content::WebContentsObserver"*, %"class.content::NavigationHandle"*)* @_ZN7content19WebContentsObserver19DidFinishNavigationEPNS_16NavigationHandleE to i8*), i8* bitcast (void (%"class.content::WebContentsObserver"*, %"class.content::WebContents"*, i64)* @_ZN7content19WebContentsObserver17DidActivatePortalEPNS_11WebContentsEN4base9TimeTicksE to i8*), i8* bitcast (void (%"class.content::WebContentsObserver"*)* @_ZN7content19WebContentsObserver15DidStartLoadingEv to i8*), i8* bitcast (void (%"class.content::WebContentsObserver"*)* @_ZN7content19WebContentsObserver18DidReceiveResponseEv to i8*), i8* bitcast (void (%"class.content::WebContentsObserver"*)* @_ZN7content19WebContentsObserver14DidStopLoadingEv to i8*), i8* bitcast (void (%"class.content::WebContentsObserver"*, double)* @_ZN7content19WebContentsObserver19LoadProgressChangedEd to i8*), i8* bitcast (void (%"class.content::WebContentsObserver"*, %"class.content::RenderFrameHost"*)* @_ZN7content19WebContentsObserver28DocumentAvailableInMainFrameEPNS_15RenderFrameHostE to i8*), i8* bitcast (void (%"class.content::WebContentsObserver"*, %"class.content::RenderFrameHost"*)* @_ZN7content19WebContentsObserver34DocumentOnLoadCompletedInMainFrameEPNS_15RenderFrameHostE to i8*), i8* bitcast (void (%"class.content::WebContentsObserver"*, %"class.content::RenderFrameHost"*)* @_ZN7content19WebContentsObserver16DOMContentLoadedEPNS_15RenderFrameHostE to i8*), i8* bitcast (void (%"class.content::WebContentsObserver"*, %"class.content::RenderFrameHost"*, %class.GURL*)* @_ZN7content19WebContentsObserver13DidFinishLoadEPNS_15RenderFrameHostERK4GURL to i8*), i8* bitcast (void (%"class.content::WebContentsObserver"*, %"class.content::RenderFrameHost"*, %class.GURL*, i32)* @_ZN7content19WebContentsObserver11DidFailLoadEPNS_15RenderFrameHostERK4GURLi to i8*), i8* bitcast (void (%"class.content::WebContentsObserver"*)* @_ZN7content19WebContentsObserver29DidChangeVisibleSecurityStateEv to i8*), i8* bitcast (void (%"class.content::WebContentsObserver"*, %"class.content::RenderFrameHost"*, %class.GURL*, %"class.std::__1::basic_string.1"*, i32)* @_ZN7content19WebContentsObserver30DidLoadResourceFromMemoryCacheEPNS_15RenderFrameHostERK4GURLRKNSt3__112basic_stringIcNS6_11char_traitsIcEENS6_9allocatorIcEEEEN7network5mojom18RequestDestinationE to i8*), i8* bitcast (void (%"class.content::WebContentsObserver"*, %"class.content::RenderFrameHost"*, %"struct.content::GlobalRequestID"*, %"class.blink::mojom::ResourceLoadInfo"*)* @_ZN7content19WebContentsObserver20ResourceLoadCompleteEPNS_15RenderFrameHostERKNS_15GlobalRequestIDERKN5blink5mojom16ResourceLoadInfoE to i8*), i8* bitcast (void (%"class.content::WebContentsObserver"*, %"class.content::RenderFrameHost"*, %"struct.content::CookieAccessDetails"*)* @_ZN7content19WebContentsObserver17OnCookiesAccessedEPNS_15RenderFrameHostERKNS_19CookieAccessDetailsE to i8*), i8* bitcast (void (%"class.content::WebContentsObserver"*, %"class.content::NavigationHandle"*, %"struct.content::CookieAccessDetails"*)* @_ZN7content19WebContentsObserver17OnCookiesAccessedEPNS_16NavigationHandleERKNS_19CookieAccessDetailsE to i8*), i8* bitcast (void (%"class.(anonymous namespace)::RPHReferenceManager::RPHWebContentsObserver"*, %"struct.content::LoadCommittedDetails"*)* @_ZN12_GLOBAL__N_119RPHReferenceManager22RPHWebContentsObserver24NavigationEntryCommittedERKN7content20LoadCommittedDetailsE to i8*), i8* bitcast (void (%"class.content::WebContentsObserver"*, %"struct.content::PrunedDetails"*)* @_ZN7content19WebContentsObserver20NavigationListPrunedERKNS_13PrunedDetailsE to i8*), i8* bitcast (void (%"class.content::WebContentsObserver"*)* @_ZN7content19WebContentsObserver24NavigationEntriesDeletedEv to i8*), i8* bitcast (void (%"class.content::WebContentsObserver"*, %"struct.content::EntryChangedDetails"*)* @_ZN7content19WebContentsObserver22NavigationEntryChangedERKNS_19EntryChangedDetailsE to i8*), i8* bitcast (void (%"class.content::WebContentsObserver"*, %"class.content::WebContents"*, %"class.content::RenderFrameHost"*, %class.GURL*, %"struct.content::Referrer"*, i32, i32, i1, i1)* @_ZN7content19WebContentsObserver19DidOpenRequestedURLEPNS_11WebContentsEPNS_15RenderFrameHostERK4GURLRKNS_8ReferrerE21WindowOpenDispositionN2ui14PageTransitionEbb to i8*), i8* bitcast (void (%"class.content::WebContentsObserver"*)* @_ZN7content19WebContentsObserver29DidFirstVisuallyNonEmptyPaintEv to i8*), i8* bitcast (void (%"class.content::WebContentsObserver"*)* @_ZN7content19WebContentsObserver17NavigationStoppedEv to i8*), i8* bitcast (void (%"class.content::WebContentsObserver"*, %"class.blink::WebInputEvent"*)* @_ZN7content19WebContentsObserver21DidGetUserInteractionERKN5blink13WebInputEventE to i8*), i8* bitcast (void (%"class.content::WebContentsObserver"*)* @_ZN7content19WebContentsObserver20DidGetIgnoredUIEventEv to i8*), i8* bitcast (void (%"class.content::WebContentsObserver"*, i32)* @_ZN7content19WebContentsObserver19OnVisibilityChangedENS_10VisibilityE to i8*), i8* bitcast (void (%"class.content::WebContentsObserver"*, i1)* @_ZN7content19WebContentsObserver19MainFrameWasResizedEb to i8*), i8* bitcast (void (%"class.content::WebContentsObserver"*, %"class.content::RenderFrameHost"*, %"class.std::__1::basic_string.1"*)* @_ZN7content19WebContentsObserver16FrameNameChangedEPNS_15RenderFrameHostERKNSt3__112basic_stringIcNS3_11char_traitsIcEENS3_9allocatorIcEEEE to i8*), i8* bitcast (void (%"class.content::WebContentsObserver"*, %"class.content::RenderFrameHost"*)* @_ZN7content19WebContentsObserver27FrameReceivedUserActivationEPNS_15RenderFrameHostE to i8*), i8* bitcast (void (%"class.content::WebContentsObserver"*, %"class.content::RenderFrameHost"*, i1)* @_ZN7content19WebContentsObserver24FrameDisplayStateChangedEPNS_15RenderFrameHostEb to i8*), i8* bitcast (void (%"class.content::WebContentsObserver"*, %"class.content::RenderFrameHost"*, %"class.gfx::Size"*)* @_ZN7content19WebContentsObserver16FrameSizeChangedEPNS_15RenderFrameHostERKN3gfx4SizeE to i8*), i8* bitcast (void (%"class.content::WebContentsObserver"*, %"class.content::NavigationEntry"*)* @_ZN7content19WebContentsObserver11TitleWasSetEPNS_15NavigationEntryE to i8*), i8* bitcast (void (%"class.content::WebContentsObserver"*, %class.GURL*, i1)* @_ZN7content19WebContentsObserver16AppCacheAccessedERK4GURLb to i8*), i8* bitcast (void (%"class.content::WebContentsObserver"*)* @_ZN7content19WebContentsObserver21PepperInstanceCreatedEv to i8*), i8* bitcast (void (%"class.content::WebContentsObserver"*)* @_ZN7content19WebContentsObserver21PepperInstanceDeletedEv to i8*), i8* bitcast (void (%"class.content::WebContentsObserver"*, i32)* @_ZN7content19WebContentsObserver18ViewportFitChangedEN5blink5mojom11ViewportFitE to i8*), i8* bitcast (void (%"class.content::WebContentsObserver"*, %"class.base::FilePath"*, i32)* @_ZN7content19WebContentsObserver13PluginCrashedERKN4base8FilePathEi to i8*), i8* bitcast (void (%"class.content::WebContentsObserver"*, i32, %"class.base::FilePath"*, i1)* @_ZN7content19WebContentsObserver23PluginHungStatusChangedEiRKN4base8FilePathEb to i8*), i8* bitcast (void (%"class.content::WebContentsObserver"*, %"class.content::WebContents"*)* @_ZN7content19WebContentsObserver23InnerWebContentsCreatedEPNS_11WebContentsE to i8*), i8* bitcast (void (%"class.content::WebContentsObserver"*, %"class.content::WebContents"*, %"class.content::RenderFrameHost"*, i1)* @_ZN7content19WebContentsObserver24InnerWebContentsAttachedEPNS_11WebContentsEPNS_15RenderFrameHostEb to i8*), i8* bitcast (void (%"class.content::WebContentsObserver"*, %"class.content::WebContents"*)* @_ZN7content19WebContentsObserver24InnerWebContentsDetachedEPNS_11WebContentsE to i8*), i8* bitcast (void (%"class.content::WebContentsObserver"*, %"class.content::WebContents"*, %"class.content::WebContents"*)* @_ZN7content19WebContentsObserver24DidCloneToNewWebContentsEPNS_11WebContentsES2_ to i8*), i8* bitcast (void (%"class.(anonymous namespace)::RPHReferenceManager::RPHWebContentsObserver"*)* @_ZN12_GLOBAL__N_119RPHReferenceManager22RPHWebContentsObserver20WebContentsDestroyedEv to i8*), i8* bitcast (void (%"class.content::WebContentsObserver"*, %"struct.blink::UserAgentOverride"*)* @_ZN7content19WebContentsObserver20UserAgentOverrideSetERKN5blink17UserAgentOverrideE to i8*), i8* bitcast (void (%"class.content::WebContentsObserver"*, %"class.content::RenderFrameHost"*, %"class.std::__1::vector.482"*)* @_ZN7content19WebContentsObserver19DidUpdateFaviconURLEPNS_15RenderFrameHostERKNSt3__16vectorIN4mojo9StructPtrIN5blink5mojom10FaviconURLEEENS3_9allocatorISA_EEEE to i8*), i8* bitcast (void (%"class.content::WebContentsObserver"*, i1)* @_ZN7content19WebContentsObserver19OnAudioStateChangedEb to i8*), i8* bitcast (void (%"class.content::WebContentsObserver"*, %"class.content::RenderFrameHost"*, i1)* @_ZN7content19WebContentsObserver24OnFrameAudioStateChangedEPNS_15RenderFrameHostEb to i8*), i8* bitcast (void (%"class.content::WebContentsObserver"*, i1)* @_ZN7content19WebContentsObserver37OnIsConnectedToBluetoothDeviceChangedEb to i8*), i8* bitcast (void (%"class.content::WebContentsObserver"*, i1)* @_ZN7content19WebContentsObserver25DidUpdateAudioMutingStateEb to i8*), i8* bitcast (void (%"class.content::WebContentsObserver"*, i1, i1)* @_ZN7content19WebContentsObserver29DidToggleFullscreenModeForTabEbb to i8*), i8* bitcast (void (%"class.content::WebContentsObserver"*, %"class.content::RenderFrameHost"*)* @_ZN7content19WebContentsObserver20DidAcquireFullscreenEPNS_15RenderFrameHostE to i8*), i8* bitcast (void (%"class.content::WebContentsObserver"*, i32)* @_ZN7content19WebContentsObserver32DidChangeVerticalScrollDirectionEN3viz23VerticalScrollDirectionE to i8*), i8* bitcast (void (%"class.content::WebContentsObserver"*)* @_ZN7content19WebContentsObserver27BeforeFormRepostWarningShowEv to i8*), i8* bitcast (void (%"class.content::WebContentsObserver"*, i1, %"class.base::TimeTicks"*)* @_ZN7content19WebContentsObserver17BeforeUnloadFiredEbRKN4base9TimeTicksE to i8*), i8* bitcast (void (%"class.content::WebContentsObserver"*)* @_ZN7content19WebContentsObserver27BeforeUnloadDialogCancelledEv to i8*), i8* bitcast (void (%"class.content::WebContentsObserver"*)* @_ZN7content19WebContentsObserver30AXTreeIDForMainFrameHasChangedEv to i8*), i8* bitcast (void (%"class.content::WebContentsObserver"*, %"struct.content::AXEventNotificationDetails"*)* @_ZN7content19WebContentsObserver26AccessibilityEventReceivedERKNS_26AXEventNotificationDetailsE to i8*), i8* bitcast (void (%"class.content::WebContentsObserver"*, %"class.std::__1::vector.483"*)* @_ZN7content19WebContentsObserver36AccessibilityLocationChangesReceivedERKNSt3__16vectorINS_35AXLocationChangeNotificationDetailsENS1_9allocatorIS3_EEEE to i8*), i8* bitcast (void (%"class.content::WebContentsObserver"*)* @_ZN7content19WebContentsObserver19DidChangeThemeColorEv to i8*), i8* bitcast (void (%"class.content::WebContentsObserver"*)* @_ZN7content19WebContentsObserver24OnBackgroundColorChangedEv to i8*), i8* bitcast (void (%"class.content::WebContentsObserver"*, %"class.content::RenderFrameHost"*, i32, %"class.std::__1::basic_string"*, i32, %"class.std::__1::basic_string"*, %"class.absl::optional.484"*)* @_ZN7content19WebContentsObserver24OnDidAddMessageToConsoleEPNS_15RenderFrameHostEN5blink5mojom19ConsoleMessageLevelERKNSt3__112basic_stringIDsNS6_11char_traitsIDsEENS6_9allocatorIDsEEEEiSE_RKN4absl8optionalISC_EE to i8*), i8* bitcast (void (%"class.content::WebContentsObserver"*, %"struct.content::WebContentsObserver::MediaPlayerInfo"*, %"struct.content::MediaPlayerId"*)* @_ZN7content19WebContentsObserver19MediaStartedPlayingERKNS0_15MediaPlayerInfoERKNS_13MediaPlayerIdE to i8*), i8* bitcast (void (%"class.content::WebContentsObserver"*, %"struct.content::WebContentsObserver::MediaPlayerInfo"*, %"struct.content::MediaPlayerId"*, i32)* @_ZN7content19WebContentsObserver19MediaStoppedPlayingERKNS0_15MediaPlayerInfoERKNS_13MediaPlayerIdENS0_18MediaStoppedReasonE to i8*), i8* bitcast (void (%"class.content::WebContentsObserver"*, %"class.gfx::Size"*, %"struct.content::MediaPlayerId"*)* @_ZN7content19WebContentsObserver12MediaResizedERKN3gfx4SizeERKNS_13MediaPlayerIdE to i8*), i8* bitcast (void (%"class.content::WebContentsObserver"*, i1)* @_ZN7content19WebContentsObserver33MediaEffectivelyFullscreenChangedEb to i8*), i8* bitcast (void (%"class.content::WebContentsObserver"*, i1)* @_ZN7content19WebContentsObserver28MediaPictureInPictureChangedEb to i8*), i8* bitcast (void (%"class.content::WebContentsObserver"*, %"struct.content::MediaPlayerId"*, i1)* @_ZN7content19WebContentsObserver23MediaMutedStatusChangedERKNS_13MediaPlayerIdEb to i8*), i8* bitcast (void (%"class.content::WebContentsObserver"*, %"struct.content::MediaPlayerId"*)* @_ZN7content19WebContentsObserver20MediaBufferUnderflowERKNS_13MediaPlayerIdE to i8*), i8* bitcast (void (%"class.content::WebContentsObserver"*, %"struct.content::MediaPlayerId"*)* @_ZN7content19WebContentsObserver15MediaPlayerSeekERKNS_13MediaPlayerIdE to i8*), i8* bitcast (void (%"class.content::WebContentsObserver"*, %"struct.content::MediaPlayerId"*)* @_ZN7content19WebContentsObserver14MediaDestroyedERKNS_13MediaPlayerIdE to i8*), i8* bitcast (void (%"class.content::WebContentsObserver"*, float)* @_ZN7content19WebContentsObserver24OnPageScaleFactorChangedEf to i8*), i8* bitcast (void (%"class.content::WebContentsObserver"*)* @_ZN7content19WebContentsObserver7OnPasteEv to i8*), i8* bitcast (i1 (%"class.content::WebContentsObserver"*, %"class.IPC::Message"*, %"class.content::RenderFrameHost"*)* @_ZN7content19WebContentsObserver17OnMessageReceivedERKN3IPC7MessageEPNS_15RenderFrameHostE to i8*), i8* bitcast (void (%"class.content::WebContentsObserver"*, %"class.content::RenderWidgetHost"*)* @_ZN7content19WebContentsObserver20OnWebContentsFocusedEPNS_16RenderWidgetHostE to i8*), i8* bitcast (void (%"class.content::WebContentsObserver"*, %"class.content::RenderWidgetHost"*)* @_ZN7content19WebContentsObserver22OnWebContentsLostFocusEPNS_16RenderWidgetHostE to i8*), i8* bitcast (void (%"class.content::WebContentsObserver"*, %"struct.content::FocusedNodeDetails"*)* @_ZN7content19WebContentsObserver20OnFocusChangedInPageEPNS_18FocusedNodeDetailsE to i8*), i8* bitcast (void (%"class.content::WebContentsObserver"*, %"class.content::RenderFrameHost"*, %"class.absl::optional.489"*)* @_ZN7content19WebContentsObserver23DidUpdateWebManifestURLEPNS_15RenderFrameHostERKN4absl8optionalI4GURLEE to i8*), i8* bitcast (void (%"class.content::WebContentsObserver"*, %"class.content::RenderFrameHost"*, %"class.std::__1::basic_string.1"*, %"class.mojo::ScopedHandleBase"*)* @_ZN7content19WebContentsObserver27OnInterfaceRequestFromFrameEPNS_15RenderFrameHostERKNSt3__112basic_stringIcNS3_11char_traitsIcEENS3_9allocatorIcEEEEPN4mojo16ScopedHandleBaseINSC_17MessagePipeHandleEEE to i8*), i8* bitcast (void (%"class.content::WebContentsObserver"*, %"struct.std::__1::pair.494"*)* @_ZN7content19WebContentsObserver27AudioContextPlaybackStartedERKNSt3__14pairIPNS_15RenderFrameHostEiEE to i8*), i8* bitcast (void (%"class.content::WebContentsObserver"*, %"struct.std::__1::pair.494"*)* @_ZN7content19WebContentsObserver27AudioContextPlaybackStoppedERKNSt3__14pairIPNS_15RenderFrameHostEiEE to i8*), i8* bitcast (void (%"class.content::WebContentsObserver"*, %"class.content::RenderFrameHost"*, %class.GURL*, i24)* @_ZN7content19WebContentsObserver23OnServiceWorkerAccessedEPNS_15RenderFrameHostERK4GURLNS_24AllowServiceWorkerResultE to i8*), i8* bitcast (void (%"class.content::WebContentsObserver"*, %"class.content::NavigationHandle"*, %class.GURL*, i24)* @_ZN7content19WebContentsObserver23OnServiceWorkerAccessedEPNS_16NavigationHandleERK4GURLNS_24AllowServiceWorkerResultE to i8*)] }, align 8
@.ref.tmp.4 = private constant { %"struct.base::TaskTraitsExtensionStorage", i8, i8, i8, i8, i8, i8 } { %"struct.base::TaskTraitsExtensionStorage" zeroinitializer, i8 2, i8 1, i8 0, i8 0, i8 0, i8 0 }, align 1
@.str.5 = private unnamed_addr constant [32 x i8] c"RegisterAttachedMediaFileSystem\00", align 1
@.str.6 = private unnamed_addr constant [27 x i8] c"../../base/bind_internal.h\00", align 1
@.str.7 = private unnamed_addr constant [18 x i8] c"!IsNull(functor_)\00", align 1
@_ZN4base9SingletonIN12_GLOBAL__N_146MediaFileSystemRegistryShutdownNotifierFactoryENS_22DefaultSingletonTraitsIS2_EES2_E9instance_E = internal global i64 0, align 8
@.str.8 = private unnamed_addr constant [24 x i8] c"MediaFileSystemRegistry\00", align 1
@_ZTVN12_GLOBAL__N_146MediaFileSystemRegistryShutdownNotifierFactoryE = internal unnamed_addr constant { [20 x i8*] } { [20 x i8*] [i8* null, i8* null, i8* bitcast (void (%class.BrowserContextKeyedServiceShutdownNotifierFactory*)* @_ZN49BrowserContextKeyedServiceShutdownNotifierFactoryD2Ev to i8*), i8* bitcast (void (%"class.(anonymous namespace)::MediaFileSystemRegistryShutdownNotifierFactory"*)* @_ZN12_GLOBAL__N_146MediaFileSystemRegistryShutdownNotifierFactoryD0Ev to i8*), i8* bitcast (i8* (%class.BrowserContextKeyedServiceFactory*, i8*)* @_ZNK33BrowserContextKeyedServiceFactory15GetContextToUseEPv to i8*), i8* bitcast (i1 (%class.BrowserContextKeyedServiceFactory*)* @_ZNK33BrowserContextKeyedServiceFactory27ServiceIsCreatedWithContextEv to i8*), i8* bitcast (i1 (%class.BrowserContextKeyedServiceFactory*)* @_ZNK33BrowserContextKeyedServiceFactory25ServiceIsNULLWhileTestingEv to i8*), i8* bitcast (void (%class.BrowserContextKeyedServiceFactory*, i8*)* @_ZN33BrowserContextKeyedServiceFactory15ContextShutdownEPv to i8*), i8* bitcast (void (%class.BrowserContextKeyedServiceFactory*, i8*)* @_ZN33BrowserContextKeyedServiceFactory16ContextDestroyedEPv to i8*), i8* bitcast (void (%class.BrowserContextKeyedServiceFactory*, %"class.user_prefs::PrefRegistrySyncable"*)* @_ZN33BrowserContextKeyedServiceFactory13RegisterPrefsEPN10user_prefs20PrefRegistrySyncableE to i8*), i8* bitcast (void (%class.KeyedServiceFactory*, i8*)* @_ZN19KeyedServiceFactory22SetEmptyTestingFactoryEPv to i8*), i8* bitcast (i1 (%class.KeyedServiceFactory*, i8*)* @_ZN19KeyedServiceFactory17HasTestingFactoryEPv to i8*), i8* bitcast (void (%class.BrowserContextKeyedServiceFactory*, i8*)* @_ZN33BrowserContextKeyedServiceFactory16CreateServiceNowEPv to i8*), i8* bitcast (void ()* @_ZNK33BrowserContextKeyedServiceFactory23BuildServiceInstanceForEPv to i8*), i8* bitcast (i1 (%class.BrowserContextKeyedServiceFactory*, i8*)* @_ZNK33BrowserContextKeyedServiceFactory14IsOffTheRecordEPv to i8*), i8* bitcast (%"class.content::BrowserContext"* (%class.BrowserContextKeyedServiceShutdownNotifierFactory*, %"class.content::BrowserContext"*)* @_ZNK49BrowserContextKeyedServiceShutdownNotifierFactory22GetBrowserContextToUseEPN7content14BrowserContextE to i8*), i8* bitcast (i1 (%class.BrowserContextKeyedServiceFactory*)* @_ZNK33BrowserContextKeyedServiceFactory34ServiceIsCreatedWithBrowserContextEv to i8*), i8* bitcast (%class.KeyedService* (%class.BrowserContextKeyedServiceShutdownNotifierFactory*, %"class.content::BrowserContext"*)* @_ZNK49BrowserContextKeyedServiceShutdownNotifierFactory23BuildServiceInstanceForEPN7content14BrowserContextE to i8*), i8* bitcast (void (%class.BrowserContextKeyedServiceFactory*, %"class.content::BrowserContext"*)* @_ZN33BrowserContextKeyedServiceFactory22BrowserContextShutdownEPN7content14BrowserContextE to i8*), i8* bitcast (void (%class.BrowserContextKeyedServiceFactory*, %"class.user_prefs::PrefRegistrySyncable"*)* @_ZN33BrowserContextKeyedServiceFactory20RegisterProfilePrefsEPN10user_prefs20PrefRegistrySyncableE to i8*)] }, align 8
@_ZTVN23MediaFileSystemRegistry26MediaFileSystemContextImplE = linkonce_odr hidden unnamed_addr constant { [7 x i8*] } { [7 x i8*] [i8* null, i8* null, i8* bitcast (void (%class.MediaFileSystemContext*)* @_ZN22MediaFileSystemContextD2Ev to i8*), i8* bitcast (void (%"class.MediaFileSystemRegistry::MediaFileSystemContextImpl"*)* @_ZN23MediaFileSystemRegistry26MediaFileSystemContextImplD0Ev to i8*), i8* bitcast (i1 (%"class.MediaFileSystemRegistry::MediaFileSystemContextImpl"*, %"class.std::__1::basic_string.1"*, %"class.std::__1::basic_string.1"*, %"class.base::FilePath"*)* @_ZN23MediaFileSystemRegistry26MediaFileSystemContextImpl18RegisterFileSystemERKNSt3__112basic_stringIcNS1_11char_traitsIcEENS1_9allocatorIcEEEES9_RKN4base8FilePathE to i8*), i8* bitcast (void (%"class.MediaFileSystemRegistry::MediaFileSystemContextImpl"*, %"class.std::__1::basic_string.1"*)* @_ZN23MediaFileSystemRegistry26MediaFileSystemContextImpl16RevokeFileSystemERKNSt3__112basic_stringIcNS1_11char_traitsIcEENS1_9allocatorIcEEEE to i8*), i8* bitcast (void (%"class.base::FilePath"*, %"class.MediaFileSystemRegistry::MediaFileSystemContextImpl"*, %"class.std::__1::basic_string.1"*)* @_ZNK23MediaFileSystemRegistry26MediaFileSystemContextImpl17GetRegisteredPathERKNSt3__112basic_stringIcNS1_11char_traitsIcEENS1_9allocatorIcEEEE to i8*)] }, comdat, align 8
@.str.9 = private unnamed_addr constant [18 x i8] c"path.IsAbsolute()\00", align 1
@.str.10 = private unnamed_addr constant [25 x i8] c"!path.ReferencesParent()\00", align 1
@_ZTV22ExtensionGalleriesHost = linkonce_odr hidden unnamed_addr constant { [4 x i8*] } { [4 x i8*] [i8* null, i8* null, i8* bitcast (void (%class.ExtensionGalleriesHost*)* @_ZN22ExtensionGalleriesHostD2Ev to i8*), i8* bitcast (void (%class.ExtensionGalleriesHost*)* @_ZN22ExtensionGalleriesHostD0Ev to i8*)] }, comdat, align 8
@_ZTVN12_GLOBAL__N_119RPHReferenceManagerE = internal unnamed_addr constant { [4 x i8*] } { [4 x i8*] [i8* null, i8* null, i8* bitcast (void (%"class.(anonymous namespace)::RPHReferenceManager"*)* @_ZN12_GLOBAL__N_119RPHReferenceManagerD2Ev to i8*), i8* bitcast (void (%"class.(anonymous namespace)::RPHReferenceManager"*)* @_ZN12_GLOBAL__N_119RPHReferenceManagerD0Ev to i8*)] }, align 8

@_ZN19MediaFileSystemInfoC1ERKNSt3__112basic_stringIDsNS0_11char_traitsIDsEENS0_9allocatorIDsEEEERKN4base8FilePathERKNS1_IcNS2_IcEENS4_IcEEEEmSH_bb = hidden unnamed_addr alias void (%struct.MediaFileSystemInfo*, %"class.std::__1::basic_string"*, %"class.base::FilePath"*, %"class.std::__1::basic_string.1"*, i64, %"class.std::__1::basic_string.1"*, i1, i1), void (%struct.MediaFileSystemInfo*, %"class.std::__1::basic_string"*, %"class.base::FilePath"*, %"class.std::__1::basic_string.1"*, i64, %"class.std::__1::basic_string.1"*, i1, i1)* @_ZN19MediaFileSystemInfoC2ERKNSt3__112basic_stringIDsNS0_11char_traitsIDsEENS0_9allocatorIDsEEEERKN4base8FilePathERKNS1_IcNS2_IcEENS4_IcEEEEmSH_bb
@_ZN19MediaFileSystemInfoC1Ev = hidden unnamed_addr alias void (%struct.MediaFileSystemInfo*), void (%struct.MediaFileSystemInfo*)* @_ZN19MediaFileSystemInfoC2Ev
@_ZN19MediaFileSystemInfoC1ERKS_ = hidden unnamed_addr alias void (%struct.MediaFileSystemInfo*, %struct.MediaFileSystemInfo*), void (%struct.MediaFileSystemInfo*, %struct.MediaFileSystemInfo*)* @_ZN19MediaFileSystemInfoC2ERKS_
@_ZN19MediaFileSystemInfoD1Ev = hidden unnamed_addr alias void (%struct.MediaFileSystemInfo*), void (%struct.MediaFileSystemInfo*)* @_ZN19MediaFileSystemInfoD2Ev
@_ZN23MediaFileSystemRegistryC1Ev = hidden unnamed_addr alias void (%class.MediaFileSystemRegistry*), void (%class.MediaFileSystemRegistry*)* @_ZN23MediaFileSystemRegistryC2Ev
@_ZN23MediaFileSystemRegistryD1Ev = hidden unnamed_addr alias void (%class.MediaFileSystemRegistry*), void (%class.MediaFileSystemRegistry*)* @_ZN23MediaFileSystemRegistryD2Ev

; Function Attrs: nounwind ssp uwtable
define hidden void @_ZN19MediaFileSystemInfoC2ERKNSt3__112basic_stringIDsNS0_11char_traitsIDsEENS0_9allocatorIDsEEEERKN4base8FilePathERKNS1_IcNS2_IcEENS4_IcEEEEmSH_bb(%struct.MediaFileSystemInfo*, %"class.std::__1::basic_string"* nocapture readonly dereferenceable(24), %"class.base::FilePath"* dereferenceable(24), %"class.std::__1::basic_string.1"* nocapture readonly dereferenceable(24), i64, %"class.std::__1::basic_string.1"* nocapture readonly dereferenceable(24), i1 zeroext, i1 zeroext) unnamed_addr #0 align 2 {
  %9 = zext i1 %6 to i8
  %10 = zext i1 %7 to i8
  %11 = bitcast %"class.std::__1::basic_string"* %1 to %"struct.std::__1::basic_string<char16_t, std::__1::char_traits<char16_t>, std::__1::allocator<char16_t> >::__short"*
  %12 = getelementptr inbounds %"struct.std::__1::basic_string<char16_t, std::__1::char_traits<char16_t>, std::__1::allocator<char16_t> >::__short", %"struct.std::__1::basic_string<char16_t, std::__1::char_traits<char16_t>, std::__1::allocator<char16_t> >::__short"* %11, i64 0, i32 1, i32 1
  %13 = load i8, i8* %12, align 1
  %14 = icmp slt i8 %13, 0
  br i1 %14, label %18, label %15

15:                                               ; preds = %8
  %16 = bitcast %struct.MediaFileSystemInfo* %0 to i8*
  %17 = bitcast %"class.std::__1::basic_string"* %1 to i8*
  tail call void @llvm.memcpy.p0i8.p0i8.i64(i8* align 8 %16, i8* align 8 %17, i64 24, i1 false) #10
  br label %193

18:                                               ; preds = %8
  %19 = getelementptr inbounds %"class.std::__1::basic_string", %"class.std::__1::basic_string"* %1, i64 0, i32 0, i32 0, i32 0, i32 0, i32 0, i32 0
  %20 = load i16*, i16** %19, align 8
  %21 = getelementptr inbounds %"class.std::__1::basic_string", %"class.std::__1::basic_string"* %1, i64 0, i32 0, i32 0, i32 0, i32 0, i32 0, i32 1
  %22 = load i64, i64* %21, align 8
  %23 = icmp ult i64 %22, 11
  br i1 %23, label %24, label %29

24:                                               ; preds = %18
  %25 = bitcast %struct.MediaFileSystemInfo* %0 to i16*
  %26 = trunc i64 %22 to i8
  %27 = bitcast %struct.MediaFileSystemInfo* %0 to %"struct.std::__1::basic_string<char16_t, std::__1::char_traits<char16_t>, std::__1::allocator<char16_t> >::__short"*
  %28 = getelementptr inbounds %"struct.std::__1::basic_string<char16_t, std::__1::char_traits<char16_t>, std::__1::allocator<char16_t> >::__short", %"struct.std::__1::basic_string<char16_t, std::__1::char_traits<char16_t>, std::__1::allocator<char16_t> >::__short"* %27, i64 0, i32 1, i32 1
  store i8 %26, i8* %28, align 1
  br label %46

29:                                               ; preds = %18
  %30 = icmp ugt i64 %22, 9223372036854775791
  br i1 %30, label %31, label %33

31:                                               ; preds = %29
  %32 = bitcast %struct.MediaFileSystemInfo* %0 to %"class.std::__1::__basic_string_common"*
  tail call void @_ZNKSt3__121__basic_string_commonILb1EE20__throw_length_errorEv(%"class.std::__1::__basic_string_common"* %32) #11
  unreachable

33:                                               ; preds = %29
  %34 = add nuw nsw i64 %22, 8
  %35 = and i64 %34, -8
  %36 = icmp slt i64 %35, 0
  br i1 %36, label %37, label %38

37:                                               ; preds = %33
  tail call void @abort() #11
  unreachable

38:                                               ; preds = %33
  %39 = shl i64 %35, 1
  %40 = tail call i8* @_Znwm(i64 %39) #12
  %41 = bitcast i8* %40 to i16*
  %42 = bitcast %struct.MediaFileSystemInfo* %0 to i8**
  store i8* %40, i8** %42, align 8
  %43 = or i64 %35, -9223372036854775808
  %44 = getelementptr inbounds %struct.MediaFileSystemInfo, %struct.MediaFileSystemInfo* %0, i64 0, i32 0, i32 0, i32 0, i32 0, i32 0, i32 0, i32 2
  store i64 %43, i64* %44, align 8
  %45 = getelementptr inbounds %struct.MediaFileSystemInfo, %struct.MediaFileSystemInfo* %0, i64 0, i32 0, i32 0, i32 0, i32 0, i32 0, i32 0, i32 1
  store i64 %22, i64* %45, align 8
  br label %46

46:                                               ; preds = %38, %24
  %47 = phi i16* [ %25, %24 ], [ %41, %38 ]
  %48 = add nuw nsw i64 %22, 1
  %49 = add i64 %22, 1
  %50 = icmp ult i64 %49, 16
  br i1 %50, label %140, label %51

51:                                               ; preds = %46
  %52 = add i64 %22, 1
  %53 = getelementptr i16, i16* %47, i64 %52
  %54 = getelementptr i16, i16* %20, i64 %52
  %55 = icmp ult i16* %47, %54
  %56 = icmp ult i16* %20, %53
  %57 = and i1 %55, %56
  br i1 %57, label %140, label %58

58:                                               ; preds = %51
  %59 = and i64 %49, -16
  %60 = sub i64 %48, %59
  %61 = getelementptr i16, i16* %20, i64 %59
  %62 = getelementptr i16, i16* %47, i64 %59
  %63 = add i64 %59, -16
  %64 = lshr exact i64 %63, 4
  %65 = add nuw nsw i64 %64, 1
  %66 = and i64 %65, 3
  %67 = icmp ult i64 %63, 48
  br i1 %67, label %119, label %68

68:                                               ; preds = %58
  %69 = sub nsw i64 %65, %66
  br label %70

70:                                               ; preds = %70, %68
  %71 = phi i64 [ 0, %68 ], [ %116, %70 ]
  %72 = phi i64 [ %69, %68 ], [ %117, %70 ]
  %73 = getelementptr i16, i16* %20, i64 %71
  %74 = getelementptr i16, i16* %47, i64 %71
  %75 = bitcast i16* %73 to <8 x i16>*
  %76 = load <8 x i16>, <8 x i16>* %75, align 2, !alias.scope !2
  %77 = getelementptr i16, i16* %73, i64 8
  %78 = bitcast i16* %77 to <8 x i16>*
  %79 = load <8 x i16>, <8 x i16>* %78, align 2, !alias.scope !2
  %80 = bitcast i16* %74 to <8 x i16>*
  store <8 x i16> %76, <8 x i16>* %80, align 2, !alias.scope !5, !noalias !2
  %81 = getelementptr i16, i16* %74, i64 8
  %82 = bitcast i16* %81 to <8 x i16>*
  store <8 x i16> %79, <8 x i16>* %82, align 2, !alias.scope !5, !noalias !2
  %83 = or i64 %71, 16
  %84 = getelementptr i16, i16* %20, i64 %83
  %85 = getelementptr i16, i16* %47, i64 %83
  %86 = bitcast i16* %84 to <8 x i16>*
  %87 = load <8 x i16>, <8 x i16>* %86, align 2, !alias.scope !2
  %88 = getelementptr i16, i16* %84, i64 8
  %89 = bitcast i16* %88 to <8 x i16>*
  %90 = load <8 x i16>, <8 x i16>* %89, align 2, !alias.scope !2
  %91 = bitcast i16* %85 to <8 x i16>*
  store <8 x i16> %87, <8 x i16>* %91, align 2, !alias.scope !5, !noalias !2
  %92 = getelementptr i16, i16* %85, i64 8
  %93 = bitcast i16* %92 to <8 x i16>*
  store <8 x i16> %90, <8 x i16>* %93, align 2, !alias.scope !5, !noalias !2
  %94 = or i64 %71, 32
  %95 = getelementptr i16, i16* %20, i64 %94
  %96 = getelementptr i16, i16* %47, i64 %94
  %97 = bitcast i16* %95 to <8 x i16>*
  %98 = load <8 x i16>, <8 x i16>* %97, align 2, !alias.scope !2
  %99 = getelementptr i16, i16* %95, i64 8
  %100 = bitcast i16* %99 to <8 x i16>*
  %101 = load <8 x i16>, <8 x i16>* %100, align 2, !alias.scope !2
  %102 = bitcast i16* %96 to <8 x i16>*
  store <8 x i16> %98, <8 x i16>* %102, align 2, !alias.scope !5, !noalias !2
  %103 = getelementptr i16, i16* %96, i64 8
  %104 = bitcast i16* %103 to <8 x i16>*
  store <8 x i16> %101, <8 x i16>* %104, align 2, !alias.scope !5, !noalias !2
  %105 = or i64 %71, 48
  %106 = getelementptr i16, i16* %20, i64 %105
  %107 = getelementptr i16, i16* %47, i64 %105
  %108 = bitcast i16* %106 to <8 x i16>*
  %109 = load <8 x i16>, <8 x i16>* %108, align 2, !alias.scope !2
  %110 = getelementptr i16, i16* %106, i64 8
  %111 = bitcast i16* %110 to <8 x i16>*
  %112 = load <8 x i16>, <8 x i16>* %111, align 2, !alias.scope !2
  %113 = bitcast i16* %107 to <8 x i16>*
  store <8 x i16> %109, <8 x i16>* %113, align 2, !alias.scope !5, !noalias !2
  %114 = getelementptr i16, i16* %107, i64 8
  %115 = bitcast i16* %114 to <8 x i16>*
  store <8 x i16> %112, <8 x i16>* %115, align 2, !alias.scope !5, !noalias !2
  %116 = add i64 %71, 64
  %117 = add i64 %72, -4
  %118 = icmp eq i64 %117, 0
  br i1 %118, label %119, label %70, !llvm.loop !7

119:                                              ; preds = %70, %58
  %120 = phi i64 [ 0, %58 ], [ %116, %70 ]
  %121 = icmp eq i64 %66, 0
  br i1 %121, label %138, label %122

122:                                              ; preds = %119, %122
  %123 = phi i64 [ %135, %122 ], [ %120, %119 ]
  %124 = phi i64 [ %136, %122 ], [ %66, %119 ]
  %125 = getelementptr i16, i16* %20, i64 %123
  %126 = getelementptr i16, i16* %47, i64 %123
  %127 = bitcast i16* %125 to <8 x i16>*
  %128 = load <8 x i16>, <8 x i16>* %127, align 2, !alias.scope !2
  %129 = getelementptr i16, i16* %125, i64 8
  %130 = bitcast i16* %129 to <8 x i16>*
  %131 = load <8 x i16>, <8 x i16>* %130, align 2, !alias.scope !2
  %132 = bitcast i16* %126 to <8 x i16>*
  store <8 x i16> %128, <8 x i16>* %132, align 2, !alias.scope !5, !noalias !2
  %133 = getelementptr i16, i16* %126, i64 8
  %134 = bitcast i16* %133 to <8 x i16>*
  store <8 x i16> %131, <8 x i16>* %134, align 2, !alias.scope !5, !noalias !2
  %135 = add i64 %123, 16
  %136 = add i64 %124, -1
  %137 = icmp eq i64 %136, 0
  br i1 %137, label %138, label %122, !llvm.loop !9

138:                                              ; preds = %122, %119
  %139 = icmp eq i64 %49, %59
  br i1 %139, label %193, label %140

140:                                              ; preds = %138, %51, %46
  %141 = phi i64 [ %48, %51 ], [ %48, %46 ], [ %60, %138 ]
  %142 = phi i16* [ %20, %51 ], [ %20, %46 ], [ %61, %138 ]
  %143 = phi i16* [ %47, %51 ], [ %47, %46 ], [ %62, %138 ]
  %144 = add i64 %141, -1
  %145 = and i64 %141, 7
  %146 = icmp eq i64 %145, 0
  br i1 %146, label %158, label %147

147:                                              ; preds = %140, %147
  %148 = phi i64 [ %153, %147 ], [ %141, %140 ]
  %149 = phi i16* [ %155, %147 ], [ %142, %140 ]
  %150 = phi i16* [ %154, %147 ], [ %143, %140 ]
  %151 = phi i64 [ %156, %147 ], [ %145, %140 ]
  %152 = load i16, i16* %149, align 2
  store i16 %152, i16* %150, align 2
  %153 = add i64 %148, -1
  %154 = getelementptr inbounds i16, i16* %150, i64 1
  %155 = getelementptr inbounds i16, i16* %149, i64 1
  %156 = add i64 %151, -1
  %157 = icmp eq i64 %156, 0
  br i1 %157, label %158, label %147, !llvm.loop !11

158:                                              ; preds = %147, %140
  %159 = phi i64 [ %141, %140 ], [ %153, %147 ]
  %160 = phi i16* [ %142, %140 ], [ %155, %147 ]
  %161 = phi i16* [ %143, %140 ], [ %154, %147 ]
  %162 = icmp ult i64 %144, 7
  br i1 %162, label %193, label %163

163:                                              ; preds = %158, %163
  %164 = phi i64 [ %189, %163 ], [ %159, %158 ]
  %165 = phi i16* [ %191, %163 ], [ %160, %158 ]
  %166 = phi i16* [ %190, %163 ], [ %161, %158 ]
  %167 = load i16, i16* %165, align 2
  store i16 %167, i16* %166, align 2
  %168 = getelementptr inbounds i16, i16* %166, i64 1
  %169 = getelementptr inbounds i16, i16* %165, i64 1
  %170 = load i16, i16* %169, align 2
  store i16 %170, i16* %168, align 2
  %171 = getelementptr inbounds i16, i16* %166, i64 2
  %172 = getelementptr inbounds i16, i16* %165, i64 2
  %173 = load i16, i16* %172, align 2
  store i16 %173, i16* %171, align 2
  %174 = getelementptr inbounds i16, i16* %166, i64 3
  %175 = getelementptr inbounds i16, i16* %165, i64 3
  %176 = load i16, i16* %175, align 2
  store i16 %176, i16* %174, align 2
  %177 = getelementptr inbounds i16, i16* %166, i64 4
  %178 = getelementptr inbounds i16, i16* %165, i64 4
  %179 = load i16, i16* %178, align 2
  store i16 %179, i16* %177, align 2
  %180 = getelementptr inbounds i16, i16* %166, i64 5
  %181 = getelementptr inbounds i16, i16* %165, i64 5
  %182 = load i16, i16* %181, align 2
  store i16 %182, i16* %180, align 2
  %183 = getelementptr inbounds i16, i16* %166, i64 6
  %184 = getelementptr inbounds i16, i16* %165, i64 6
  %185 = load i16, i16* %184, align 2
  store i16 %185, i16* %183, align 2
  %186 = getelementptr inbounds i16, i16* %166, i64 7
  %187 = getelementptr inbounds i16, i16* %165, i64 7
  %188 = load i16, i16* %187, align 2
  store i16 %188, i16* %186, align 2
  %189 = add i64 %164, -8
  %190 = getelementptr inbounds i16, i16* %166, i64 8
  %191 = getelementptr inbounds i16, i16* %165, i64 8
  %192 = icmp eq i64 %189, 0
  br i1 %192, label %193, label %163, !llvm.loop !12

193:                                              ; preds = %158, %163, %138, %15
  %194 = getelementptr inbounds %struct.MediaFileSystemInfo, %struct.MediaFileSystemInfo* %0, i64 0, i32 1
  tail call void @_ZN4base8FilePathC1ERKS0_(%"class.base::FilePath"* %194, %"class.base::FilePath"* dereferenceable(24) %2) #10
  %195 = getelementptr inbounds %struct.MediaFileSystemInfo, %struct.MediaFileSystemInfo* %0, i64 0, i32 2
  %196 = bitcast %"class.std::__1::basic_string.1"* %3 to %"struct.std::__1::basic_string<char, std::__1::char_traits<char>, std::__1::allocator<char> >::__short"*
  %197 = getelementptr inbounds %"struct.std::__1::basic_string<char, std::__1::char_traits<char>, std::__1::allocator<char> >::__short", %"struct.std::__1::basic_string<char, std::__1::char_traits<char>, std::__1::allocator<char> >::__short"* %196, i64 0, i32 1, i32 0
  %198 = load i8, i8* %197, align 1
  %199 = icmp slt i8 %198, 0
  br i1 %199, label %203, label %200

200:                                              ; preds = %193
  %201 = bitcast %"class.std::__1::basic_string.1"* %195 to i8*
  %202 = bitcast %"class.std::__1::basic_string.1"* %3 to i8*
  tail call void @llvm.memcpy.p0i8.p0i8.i64(i8* align 8 %201, i8* align 8 %202, i64 24, i1 false) #10
  br label %208

203:                                              ; preds = %193
  %204 = getelementptr inbounds %"class.std::__1::basic_string.1", %"class.std::__1::basic_string.1"* %3, i64 0, i32 0, i32 0, i32 0, i32 0, i32 0, i32 0
  %205 = load i8*, i8** %204, align 8
  %206 = getelementptr inbounds %"class.std::__1::basic_string.1", %"class.std::__1::basic_string.1"* %3, i64 0, i32 0, i32 0, i32 0, i32 0, i32 0, i32 1
  %207 = load i64, i64* %206, align 8
  tail call void @_ZNSt3__112basic_stringIcNS_11char_traitsIcEENS_9allocatorIcEEE25__init_copy_ctor_externalEPKcm(%"class.std::__1::basic_string.1"* %195, i8* %205, i64 %207) #10
  br label %208

208:                                              ; preds = %200, %203
  %209 = getelementptr inbounds %struct.MediaFileSystemInfo, %struct.MediaFileSystemInfo* %0, i64 0, i32 3
  store i64 %4, i64* %209, align 8
  %210 = getelementptr inbounds %struct.MediaFileSystemInfo, %struct.MediaFileSystemInfo* %0, i64 0, i32 4
  %211 = bitcast %"class.std::__1::basic_string.1"* %5 to %"struct.std::__1::basic_string<char, std::__1::char_traits<char>, std::__1::allocator<char> >::__short"*
  %212 = getelementptr inbounds %"struct.std::__1::basic_string<char, std::__1::char_traits<char>, std::__1::allocator<char> >::__short", %"struct.std::__1::basic_string<char, std::__1::char_traits<char>, std::__1::allocator<char> >::__short"* %211, i64 0, i32 1, i32 0
  %213 = load i8, i8* %212, align 1
  %214 = icmp slt i8 %213, 0
  br i1 %214, label %218, label %215

215:                                              ; preds = %208
  %216 = bitcast %"class.std::__1::basic_string.1"* %210 to i8*
  %217 = bitcast %"class.std::__1::basic_string.1"* %5 to i8*
  tail call void @llvm.memcpy.p0i8.p0i8.i64(i8* align 8 %216, i8* align 8 %217, i64 24, i1 false) #10
  br label %223

218:                                              ; preds = %208
  %219 = getelementptr inbounds %"class.std::__1::basic_string.1", %"class.std::__1::basic_string.1"* %5, i64 0, i32 0, i32 0, i32 0, i32 0, i32 0, i32 0
  %220 = load i8*, i8** %219, align 8
  %221 = getelementptr inbounds %"class.std::__1::basic_string.1", %"class.std::__1::basic_string.1"* %5, i64 0, i32 0, i32 0, i32 0, i32 0, i32 0, i32 1
  %222 = load i64, i64* %221, align 8
  tail call void @_ZNSt3__112basic_stringIcNS_11char_traitsIcEENS_9allocatorIcEEE25__init_copy_ctor_externalEPKcm(%"class.std::__1::basic_string.1"* %210, i8* %220, i64 %222) #10
  br label %223

223:                                              ; preds = %215, %218
  %224 = getelementptr inbounds %struct.MediaFileSystemInfo, %struct.MediaFileSystemInfo* %0, i64 0, i32 5
  store i8 %9, i8* %224, align 8
  %225 = getelementptr inbounds %struct.MediaFileSystemInfo, %struct.MediaFileSystemInfo* %0, i64 0, i32 6
  store i8 %10, i8* %225, align 1
  ret void
}

declare void @_ZN4base8FilePathC1ERKS0_(%"class.base::FilePath"*, %"class.base::FilePath"* dereferenceable(24)) unnamed_addr #1

; Function Attrs: nounwind ssp uwtable
define hidden void @_ZN19MediaFileSystemInfoC2Ev(%struct.MediaFileSystemInfo*) unnamed_addr #0 align 2 {
  %2 = bitcast %struct.MediaFileSystemInfo* %0 to i8*
  tail call void @llvm.memset.p0i8.i64(i8* align 8 %2, i8 0, i64 24, i1 false) #10
  %3 = getelementptr inbounds %struct.MediaFileSystemInfo, %struct.MediaFileSystemInfo* %0, i64 0, i32 1
  tail call void @_ZN4base8FilePathC1Ev(%"class.base::FilePath"* %3) #10
  %4 = getelementptr inbounds %struct.MediaFileSystemInfo, %struct.MediaFileSystemInfo* %0, i64 0, i32 2
  %5 = bitcast %"class.std::__1::basic_string.1"* %4 to i8*
  tail call void @llvm.memset.p0i8.i64(i8* align 8 %5, i8 0, i64 24, i1 false) #10
  %6 = getelementptr inbounds %struct.MediaFileSystemInfo, %struct.MediaFileSystemInfo* %0, i64 0, i32 4
  %7 = bitcast %"class.std::__1::basic_string.1"* %6 to i8*
  tail call void @llvm.memset.p0i8.i64(i8* align 8 %7, i8 0, i64 24, i1 false) #10
  ret void
}

declare void @_ZN4base8FilePathC1Ev(%"class.base::FilePath"*) unnamed_addr #1

; Function Attrs: nounwind ssp uwtable
define hidden void @_ZN19MediaFileSystemInfoC2ERKS_(%struct.MediaFileSystemInfo*, %struct.MediaFileSystemInfo* dereferenceable(112)) unnamed_addr #0 align 2 {
  %3 = bitcast %struct.MediaFileSystemInfo* %1 to %"struct.std::__1::basic_string<char16_t, std::__1::char_traits<char16_t>, std::__1::allocator<char16_t> >::__short"*
  %4 = getelementptr inbounds %"struct.std::__1::basic_string<char16_t, std::__1::char_traits<char16_t>, std::__1::allocator<char16_t> >::__short", %"struct.std::__1::basic_string<char16_t, std::__1::char_traits<char16_t>, std::__1::allocator<char16_t> >::__short"* %3, i64 0, i32 1, i32 1
  %5 = load i8, i8* %4, align 1
  %6 = icmp slt i8 %5, 0
  br i1 %6, label %10, label %7

7:                                                ; preds = %2
  %8 = bitcast %struct.MediaFileSystemInfo* %0 to i8*
  %9 = bitcast %struct.MediaFileSystemInfo* %1 to i8*
  tail call void @llvm.memcpy.p0i8.p0i8.i64(i8* align 8 %8, i8* align 8 %9, i64 24, i1 false) #10
  br label %185

10:                                               ; preds = %2
  %11 = getelementptr inbounds %struct.MediaFileSystemInfo, %struct.MediaFileSystemInfo* %1, i64 0, i32 0, i32 0, i32 0, i32 0, i32 0, i32 0, i32 0
  %12 = load i16*, i16** %11, align 8
  %13 = getelementptr inbounds %struct.MediaFileSystemInfo, %struct.MediaFileSystemInfo* %1, i64 0, i32 0, i32 0, i32 0, i32 0, i32 0, i32 0, i32 1
  %14 = load i64, i64* %13, align 8
  %15 = icmp ult i64 %14, 11
  br i1 %15, label %16, label %21

16:                                               ; preds = %10
  %17 = bitcast %struct.MediaFileSystemInfo* %0 to i16*
  %18 = trunc i64 %14 to i8
  %19 = bitcast %struct.MediaFileSystemInfo* %0 to %"struct.std::__1::basic_string<char16_t, std::__1::char_traits<char16_t>, std::__1::allocator<char16_t> >::__short"*
  %20 = getelementptr inbounds %"struct.std::__1::basic_string<char16_t, std::__1::char_traits<char16_t>, std::__1::allocator<char16_t> >::__short", %"struct.std::__1::basic_string<char16_t, std::__1::char_traits<char16_t>, std::__1::allocator<char16_t> >::__short"* %19, i64 0, i32 1, i32 1
  store i8 %18, i8* %20, align 1
  br label %38

21:                                               ; preds = %10
  %22 = icmp ugt i64 %14, 9223372036854775791
  br i1 %22, label %23, label %25

23:                                               ; preds = %21
  %24 = bitcast %struct.MediaFileSystemInfo* %0 to %"class.std::__1::__basic_string_common"*
  tail call void @_ZNKSt3__121__basic_string_commonILb1EE20__throw_length_errorEv(%"class.std::__1::__basic_string_common"* %24) #11
  unreachable

25:                                               ; preds = %21
  %26 = add nuw nsw i64 %14, 8
  %27 = and i64 %26, -8
  %28 = icmp slt i64 %27, 0
  br i1 %28, label %29, label %30

29:                                               ; preds = %25
  tail call void @abort() #11
  unreachable

30:                                               ; preds = %25
  %31 = shl i64 %27, 1
  %32 = tail call i8* @_Znwm(i64 %31) #12
  %33 = bitcast i8* %32 to i16*
  %34 = bitcast %struct.MediaFileSystemInfo* %0 to i8**
  store i8* %32, i8** %34, align 8
  %35 = or i64 %27, -9223372036854775808
  %36 = getelementptr inbounds %struct.MediaFileSystemInfo, %struct.MediaFileSystemInfo* %0, i64 0, i32 0, i32 0, i32 0, i32 0, i32 0, i32 0, i32 2
  store i64 %35, i64* %36, align 8
  %37 = getelementptr inbounds %struct.MediaFileSystemInfo, %struct.MediaFileSystemInfo* %0, i64 0, i32 0, i32 0, i32 0, i32 0, i32 0, i32 0, i32 1
  store i64 %14, i64* %37, align 8
  br label %38

38:                                               ; preds = %30, %16
  %39 = phi i16* [ %17, %16 ], [ %33, %30 ]
  %40 = add nuw nsw i64 %14, 1
  %41 = add i64 %14, 1
  %42 = icmp ult i64 %41, 16
  br i1 %42, label %132, label %43

43:                                               ; preds = %38
  %44 = add i64 %14, 1
  %45 = getelementptr i16, i16* %39, i64 %44
  %46 = getelementptr i16, i16* %12, i64 %44
  %47 = icmp ult i16* %39, %46
  %48 = icmp ult i16* %12, %45
  %49 = and i1 %47, %48
  br i1 %49, label %132, label %50

50:                                               ; preds = %43
  %51 = and i64 %41, -16
  %52 = sub i64 %40, %51
  %53 = getelementptr i16, i16* %12, i64 %51
  %54 = getelementptr i16, i16* %39, i64 %51
  %55 = add i64 %51, -16
  %56 = lshr exact i64 %55, 4
  %57 = add nuw nsw i64 %56, 1
  %58 = and i64 %57, 3
  %59 = icmp ult i64 %55, 48
  br i1 %59, label %111, label %60

60:                                               ; preds = %50
  %61 = sub nsw i64 %57, %58
  br label %62

62:                                               ; preds = %62, %60
  %63 = phi i64 [ 0, %60 ], [ %108, %62 ]
  %64 = phi i64 [ %61, %60 ], [ %109, %62 ]
  %65 = getelementptr i16, i16* %12, i64 %63
  %66 = getelementptr i16, i16* %39, i64 %63
  %67 = bitcast i16* %65 to <8 x i16>*
  %68 = load <8 x i16>, <8 x i16>* %67, align 2, !alias.scope !13
  %69 = getelementptr i16, i16* %65, i64 8
  %70 = bitcast i16* %69 to <8 x i16>*
  %71 = load <8 x i16>, <8 x i16>* %70, align 2, !alias.scope !13
  %72 = bitcast i16* %66 to <8 x i16>*
  store <8 x i16> %68, <8 x i16>* %72, align 2, !alias.scope !16, !noalias !13
  %73 = getelementptr i16, i16* %66, i64 8
  %74 = bitcast i16* %73 to <8 x i16>*
  store <8 x i16> %71, <8 x i16>* %74, align 2, !alias.scope !16, !noalias !13
  %75 = or i64 %63, 16
  %76 = getelementptr i16, i16* %12, i64 %75
  %77 = getelementptr i16, i16* %39, i64 %75
  %78 = bitcast i16* %76 to <8 x i16>*
  %79 = load <8 x i16>, <8 x i16>* %78, align 2, !alias.scope !13
  %80 = getelementptr i16, i16* %76, i64 8
  %81 = bitcast i16* %80 to <8 x i16>*
  %82 = load <8 x i16>, <8 x i16>* %81, align 2, !alias.scope !13
  %83 = bitcast i16* %77 to <8 x i16>*
  store <8 x i16> %79, <8 x i16>* %83, align 2, !alias.scope !16, !noalias !13
  %84 = getelementptr i16, i16* %77, i64 8
  %85 = bitcast i16* %84 to <8 x i16>*
  store <8 x i16> %82, <8 x i16>* %85, align 2, !alias.scope !16, !noalias !13
  %86 = or i64 %63, 32
  %87 = getelementptr i16, i16* %12, i64 %86
  %88 = getelementptr i16, i16* %39, i64 %86
  %89 = bitcast i16* %87 to <8 x i16>*
  %90 = load <8 x i16>, <8 x i16>* %89, align 2, !alias.scope !13
  %91 = getelementptr i16, i16* %87, i64 8
  %92 = bitcast i16* %91 to <8 x i16>*
  %93 = load <8 x i16>, <8 x i16>* %92, align 2, !alias.scope !13
  %94 = bitcast i16* %88 to <8 x i16>*
  store <8 x i16> %90, <8 x i16>* %94, align 2, !alias.scope !16, !noalias !13
  %95 = getelementptr i16, i16* %88, i64 8
  %96 = bitcast i16* %95 to <8 x i16>*
  store <8 x i16> %93, <8 x i16>* %96, align 2, !alias.scope !16, !noalias !13
  %97 = or i64 %63, 48
  %98 = getelementptr i16, i16* %12, i64 %97
  %99 = getelementptr i16, i16* %39, i64 %97
  %100 = bitcast i16* %98 to <8 x i16>*
  %101 = load <8 x i16>, <8 x i16>* %100, align 2, !alias.scope !13
  %102 = getelementptr i16, i16* %98, i64 8
  %103 = bitcast i16* %102 to <8 x i16>*
  %104 = load <8 x i16>, <8 x i16>* %103, align 2, !alias.scope !13
  %105 = bitcast i16* %99 to <8 x i16>*
  store <8 x i16> %101, <8 x i16>* %105, align 2, !alias.scope !16, !noalias !13
  %106 = getelementptr i16, i16* %99, i64 8
  %107 = bitcast i16* %106 to <8 x i16>*
  store <8 x i16> %104, <8 x i16>* %107, align 2, !alias.scope !16, !noalias !13
  %108 = add i64 %63, 64
  %109 = add i64 %64, -4
  %110 = icmp eq i64 %109, 0
  br i1 %110, label %111, label %62, !llvm.loop !18

111:                                              ; preds = %62, %50
  %112 = phi i64 [ 0, %50 ], [ %108, %62 ]
  %113 = icmp eq i64 %58, 0
  br i1 %113, label %130, label %114

114:                                              ; preds = %111, %114
  %115 = phi i64 [ %127, %114 ], [ %112, %111 ]
  %116 = phi i64 [ %128, %114 ], [ %58, %111 ]
  %117 = getelementptr i16, i16* %12, i64 %115
  %118 = getelementptr i16, i16* %39, i64 %115
  %119 = bitcast i16* %117 to <8 x i16>*
  %120 = load <8 x i16>, <8 x i16>* %119, align 2, !alias.scope !13
  %121 = getelementptr i16, i16* %117, i64 8
  %122 = bitcast i16* %121 to <8 x i16>*
  %123 = load <8 x i16>, <8 x i16>* %122, align 2, !alias.scope !13
  %124 = bitcast i16* %118 to <8 x i16>*
  store <8 x i16> %120, <8 x i16>* %124, align 2, !alias.scope !16, !noalias !13
  %125 = getelementptr i16, i16* %118, i64 8
  %126 = bitcast i16* %125 to <8 x i16>*
  store <8 x i16> %123, <8 x i16>* %126, align 2, !alias.scope !16, !noalias !13
  %127 = add i64 %115, 16
  %128 = add i64 %116, -1
  %129 = icmp eq i64 %128, 0
  br i1 %129, label %130, label %114, !llvm.loop !19

130:                                              ; preds = %114, %111
  %131 = icmp eq i64 %41, %51
  br i1 %131, label %185, label %132

132:                                              ; preds = %130, %43, %38
  %133 = phi i64 [ %40, %43 ], [ %40, %38 ], [ %52, %130 ]
  %134 = phi i16* [ %12, %43 ], [ %12, %38 ], [ %53, %130 ]
  %135 = phi i16* [ %39, %43 ], [ %39, %38 ], [ %54, %130 ]
  %136 = add i64 %133, -1
  %137 = and i64 %133, 7
  %138 = icmp eq i64 %137, 0
  br i1 %138, label %150, label %139

139:                                              ; preds = %132, %139
  %140 = phi i64 [ %145, %139 ], [ %133, %132 ]
  %141 = phi i16* [ %147, %139 ], [ %134, %132 ]
  %142 = phi i16* [ %146, %139 ], [ %135, %132 ]
  %143 = phi i64 [ %148, %139 ], [ %137, %132 ]
  %144 = load i16, i16* %141, align 2
  store i16 %144, i16* %142, align 2
  %145 = add i64 %140, -1
  %146 = getelementptr inbounds i16, i16* %142, i64 1
  %147 = getelementptr inbounds i16, i16* %141, i64 1
  %148 = add i64 %143, -1
  %149 = icmp eq i64 %148, 0
  br i1 %149, label %150, label %139, !llvm.loop !20

150:                                              ; preds = %139, %132
  %151 = phi i64 [ %133, %132 ], [ %145, %139 ]
  %152 = phi i16* [ %134, %132 ], [ %147, %139 ]
  %153 = phi i16* [ %135, %132 ], [ %146, %139 ]
  %154 = icmp ult i64 %136, 7
  br i1 %154, label %185, label %155

155:                                              ; preds = %150, %155
  %156 = phi i64 [ %181, %155 ], [ %151, %150 ]
  %157 = phi i16* [ %183, %155 ], [ %152, %150 ]
  %158 = phi i16* [ %182, %155 ], [ %153, %150 ]
  %159 = load i16, i16* %157, align 2
  store i16 %159, i16* %158, align 2
  %160 = getelementptr inbounds i16, i16* %158, i64 1
  %161 = getelementptr inbounds i16, i16* %157, i64 1
  %162 = load i16, i16* %161, align 2
  store i16 %162, i16* %160, align 2
  %163 = getelementptr inbounds i16, i16* %158, i64 2
  %164 = getelementptr inbounds i16, i16* %157, i64 2
  %165 = load i16, i16* %164, align 2
  store i16 %165, i16* %163, align 2
  %166 = getelementptr inbounds i16, i16* %158, i64 3
  %167 = getelementptr inbounds i16, i16* %157, i64 3
  %168 = load i16, i16* %167, align 2
  store i16 %168, i16* %166, align 2
  %169 = getelementptr inbounds i16, i16* %158, i64 4
  %170 = getelementptr inbounds i16, i16* %157, i64 4
  %171 = load i16, i16* %170, align 2
  store i16 %171, i16* %169, align 2
  %172 = getelementptr inbounds i16, i16* %158, i64 5
  %173 = getelementptr inbounds i16, i16* %157, i64 5
  %174 = load i16, i16* %173, align 2
  store i16 %174, i16* %172, align 2
  %175 = getelementptr inbounds i16, i16* %158, i64 6
  %176 = getelementptr inbounds i16, i16* %157, i64 6
  %177 = load i16, i16* %176, align 2
  store i16 %177, i16* %175, align 2
  %178 = getelementptr inbounds i16, i16* %158, i64 7
  %179 = getelementptr inbounds i16, i16* %157, i64 7
  %180 = load i16, i16* %179, align 2
  store i16 %180, i16* %178, align 2
  %181 = add i64 %156, -8
  %182 = getelementptr inbounds i16, i16* %158, i64 8
  %183 = getelementptr inbounds i16, i16* %157, i64 8
  %184 = icmp eq i64 %181, 0
  br i1 %184, label %185, label %155, !llvm.loop !21

185:                                              ; preds = %150, %155, %130, %7
  %186 = getelementptr inbounds %struct.MediaFileSystemInfo, %struct.MediaFileSystemInfo* %0, i64 0, i32 1
  %187 = getelementptr inbounds %struct.MediaFileSystemInfo, %struct.MediaFileSystemInfo* %1, i64 0, i32 1
  tail call void @_ZN4base8FilePathC1ERKS0_(%"class.base::FilePath"* %186, %"class.base::FilePath"* dereferenceable(24) %187) #10
  %188 = getelementptr inbounds %struct.MediaFileSystemInfo, %struct.MediaFileSystemInfo* %0, i64 0, i32 2
  %189 = getelementptr inbounds %struct.MediaFileSystemInfo, %struct.MediaFileSystemInfo* %1, i64 0, i32 2
  %190 = bitcast %"class.std::__1::basic_string.1"* %189 to %"struct.std::__1::basic_string<char, std::__1::char_traits<char>, std::__1::allocator<char> >::__short"*
  %191 = getelementptr inbounds %"struct.std::__1::basic_string<char, std::__1::char_traits<char>, std::__1::allocator<char> >::__short", %"struct.std::__1::basic_string<char, std::__1::char_traits<char>, std::__1::allocator<char> >::__short"* %190, i64 0, i32 1, i32 0
  %192 = load i8, i8* %191, align 1
  %193 = icmp slt i8 %192, 0
  br i1 %193, label %197, label %194

194:                                              ; preds = %185
  %195 = bitcast %"class.std::__1::basic_string.1"* %188 to i8*
  %196 = bitcast %"class.std::__1::basic_string.1"* %189 to i8*
  tail call void @llvm.memcpy.p0i8.p0i8.i64(i8* align 8 %195, i8* align 8 %196, i64 24, i1 false) #10
  br label %202

197:                                              ; preds = %185
  %198 = getelementptr inbounds %"class.std::__1::basic_string.1", %"class.std::__1::basic_string.1"* %189, i64 0, i32 0, i32 0, i32 0, i32 0, i32 0, i32 0
  %199 = load i8*, i8** %198, align 8
  %200 = getelementptr inbounds %struct.MediaFileSystemInfo, %struct.MediaFileSystemInfo* %1, i64 0, i32 2, i32 0, i32 0, i32 0, i32 0, i32 0, i32 1
  %201 = load i64, i64* %200, align 8
  tail call void @_ZNSt3__112basic_stringIcNS_11char_traitsIcEENS_9allocatorIcEEE25__init_copy_ctor_externalEPKcm(%"class.std::__1::basic_string.1"* %188, i8* %199, i64 %201) #10
  br label %202

202:                                              ; preds = %194, %197
  %203 = getelementptr inbounds %struct.MediaFileSystemInfo, %struct.MediaFileSystemInfo* %0, i64 0, i32 3
  %204 = getelementptr inbounds %struct.MediaFileSystemInfo, %struct.MediaFileSystemInfo* %1, i64 0, i32 3
  %205 = load i64, i64* %204, align 8
  store i64 %205, i64* %203, align 8
  %206 = getelementptr inbounds %struct.MediaFileSystemInfo, %struct.MediaFileSystemInfo* %0, i64 0, i32 4
  %207 = getelementptr inbounds %struct.MediaFileSystemInfo, %struct.MediaFileSystemInfo* %1, i64 0, i32 4
  %208 = bitcast %"class.std::__1::basic_string.1"* %207 to %"struct.std::__1::basic_string<char, std::__1::char_traits<char>, std::__1::allocator<char> >::__short"*
  %209 = getelementptr inbounds %"struct.std::__1::basic_string<char, std::__1::char_traits<char>, std::__1::allocator<char> >::__short", %"struct.std::__1::basic_string<char, std::__1::char_traits<char>, std::__1::allocator<char> >::__short"* %208, i64 0, i32 1, i32 0
  %210 = load i8, i8* %209, align 1
  %211 = icmp slt i8 %210, 0
  br i1 %211, label %215, label %212

212:                                              ; preds = %202
  %213 = bitcast %"class.std::__1::basic_string.1"* %206 to i8*
  %214 = bitcast %"class.std::__1::basic_string.1"* %207 to i8*
  tail call void @llvm.memcpy.p0i8.p0i8.i64(i8* align 8 %213, i8* align 8 %214, i64 24, i1 false) #10
  br label %220

215:                                              ; preds = %202
  %216 = getelementptr inbounds %"class.std::__1::basic_string.1", %"class.std::__1::basic_string.1"* %207, i64 0, i32 0, i32 0, i32 0, i32 0, i32 0, i32 0
  %217 = load i8*, i8** %216, align 8
  %218 = getelementptr inbounds %struct.MediaFileSystemInfo, %struct.MediaFileSystemInfo* %1, i64 0, i32 4, i32 0, i32 0, i32 0, i32 0, i32 0, i32 1
  %219 = load i64, i64* %218, align 8
  tail call void @_ZNSt3__112basic_stringIcNS_11char_traitsIcEENS_9allocatorIcEEE25__init_copy_ctor_externalEPKcm(%"class.std::__1::basic_string.1"* %206, i8* %217, i64 %219) #10
  br label %220

220:                                              ; preds = %212, %215
  %221 = getelementptr inbounds %struct.MediaFileSystemInfo, %struct.MediaFileSystemInfo* %0, i64 0, i32 5
  %222 = getelementptr inbounds %struct.MediaFileSystemInfo, %struct.MediaFileSystemInfo* %1, i64 0, i32 5
  %223 = bitcast i8* %222 to i16*
  %224 = bitcast i8* %221 to i16*
  %225 = load i16, i16* %223, align 8
  store i16 %225, i16* %224, align 8
  ret void
}

; Function Attrs: argmemonly nounwind
declare void @llvm.memcpy.p0i8.p0i8.i64(i8* nocapture writeonly, i8* nocapture readonly, i64, i1 immarg) #2

; Function Attrs: nounwind ssp uwtable
define hidden void @_ZN19MediaFileSystemInfoD2Ev(%struct.MediaFileSystemInfo*) unnamed_addr #0 align 2 {
  %2 = getelementptr inbounds %struct.MediaFileSystemInfo, %struct.MediaFileSystemInfo* %0, i64 0, i32 4
  %3 = bitcast %"class.std::__1::basic_string.1"* %2 to %"struct.std::__1::basic_string<char, std::__1::char_traits<char>, std::__1::allocator<char> >::__short"*
  %4 = getelementptr inbounds %"struct.std::__1::basic_string<char, std::__1::char_traits<char>, std::__1::allocator<char> >::__short", %"struct.std::__1::basic_string<char, std::__1::char_traits<char>, std::__1::allocator<char> >::__short"* %3, i64 0, i32 1, i32 0
  %5 = load i8, i8* %4, align 1
  %6 = icmp slt i8 %5, 0
  br i1 %6, label %7, label %10

7:                                                ; preds = %1
  %8 = getelementptr inbounds %"class.std::__1::basic_string.1", %"class.std::__1::basic_string.1"* %2, i64 0, i32 0, i32 0, i32 0, i32 0, i32 0, i32 0
  %9 = load i8*, i8** %8, align 8
  tail call void @_ZdlPv(i8* %9) #12
  br label %10

10:                                               ; preds = %1, %7
  %11 = getelementptr inbounds %struct.MediaFileSystemInfo, %struct.MediaFileSystemInfo* %0, i64 0, i32 2
  %12 = bitcast %"class.std::__1::basic_string.1"* %11 to %"struct.std::__1::basic_string<char, std::__1::char_traits<char>, std::__1::allocator<char> >::__short"*
  %13 = getelementptr inbounds %"struct.std::__1::basic_string<char, std::__1::char_traits<char>, std::__1::allocator<char> >::__short", %"struct.std::__1::basic_string<char, std::__1::char_traits<char>, std::__1::allocator<char> >::__short"* %12, i64 0, i32 1, i32 0
  %14 = load i8, i8* %13, align 1
  %15 = icmp slt i8 %14, 0
  br i1 %15, label %16, label %19

16:                                               ; preds = %10
  %17 = getelementptr inbounds %"class.std::__1::basic_string.1", %"class.std::__1::basic_string.1"* %11, i64 0, i32 0, i32 0, i32 0, i32 0, i32 0, i32 0
  %18 = load i8*, i8** %17, align 8
  tail call void @_ZdlPv(i8* %18) #12
  br label %19

19:                                               ; preds = %10, %16
  %20 = getelementptr inbounds %struct.MediaFileSystemInfo, %struct.MediaFileSystemInfo* %0, i64 0, i32 1
  tail call void @_ZN4base8FilePathD1Ev(%"class.base::FilePath"* %20) #10
  %21 = bitcast %struct.MediaFileSystemInfo* %0 to %"struct.std::__1::basic_string<char16_t, std::__1::char_traits<char16_t>, std::__1::allocator<char16_t> >::__short"*
  %22 = getelementptr inbounds %"struct.std::__1::basic_string<char16_t, std::__1::char_traits<char16_t>, std::__1::allocator<char16_t> >::__short", %"struct.std::__1::basic_string<char16_t, std::__1::char_traits<char16_t>, std::__1::allocator<char16_t> >::__short"* %21, i64 0, i32 1, i32 1
  %23 = load i8, i8* %22, align 1
  %24 = icmp slt i8 %23, 0
  br i1 %24, label %25, label %28

25:                                               ; preds = %19
  %26 = bitcast %struct.MediaFileSystemInfo* %0 to i8**
  %27 = load i8*, i8** %26, align 8
  tail call void @_ZdlPv(i8* %27) #12
  br label %28

28:                                               ; preds = %19, %25
  ret void
}

; Function Attrs: nounwind
declare void @_ZN4base8FilePathD1Ev(%"class.base::FilePath"*) unnamed_addr #3

; Function Attrs: nounwind ssp uwtable
define hidden void @_ZN23MediaFileSystemRegistry31GetMediaFileSystemsForExtensionEPN7content11WebContentsEPKN10extensions9ExtensionEN4base12OnceCallbackIFvRKNSt3__16vectorI19MediaFileSystemInfoNS9_9allocatorISB_EEEEEEE(%class.MediaFileSystemRegistry*, %"class.content::WebContents"*, %"class.extensions::Extension"*, %"class.base::OnceCallback"* nocapture) local_unnamed_addr #0 align 2 {
  %5 = alloca %"class.base::OnceCallback", align 8
  %6 = alloca %"class.logging::CheckError", align 8
  %7 = alloca %"class.std::__1::set.273", align 8
  %8 = alloca %"class.std::__1::vector.281", align 8
  %9 = alloca %"class.base::OnceCallback", align 8
  %10 = tail call zeroext i1 @_ZN7content13BrowserThread11CurrentlyOnENS0_2IDE(i32 0) #10
  br i1 %10, label %14, label %11

11:                                               ; preds = %4
  %12 = bitcast %"class.logging::CheckError"* %6 to i8*
  call void @llvm.lifetime.start.p0i8(i64 8, i8* nonnull %12) #10
  call void @_ZN7logging10CheckError5CheckEPKciS2_(%"class.logging::CheckError"* nonnull sret %6, i8* getelementptr inbounds ([67 x i8], [67 x i8]* @.str, i64 0, i64 0), i32 523, i8* getelementptr inbounds ([46 x i8], [46 x i8]* @.str.1, i64 0, i64 0)) #10
  %13 = call dereferenceable(160) %"class.std::__1::basic_ostream"* @_ZN7logging10CheckError6streamEv(%"class.logging::CheckError"* nonnull %6) #10
  call void @_ZN7logging10CheckErrorD1Ev(%"class.logging::CheckError"* nonnull %6) #10
  call void @llvm.lifetime.end.p0i8(i64 8, i8* nonnull %12) #10
  br label %14

14:                                               ; preds = %4, %11
  %15 = bitcast %"class.content::WebContents"* %1 to %"class.content::BrowserContext"* (%"class.content::WebContents"*)***
  %16 = load %"class.content::BrowserContext"* (%"class.content::WebContents"*)**, %"class.content::BrowserContext"* (%"class.content::WebContents"*)*** %15, align 8
  %17 = getelementptr inbounds %"class.content::BrowserContext"* (%"class.content::WebContents"*)*, %"class.content::BrowserContext"* (%"class.content::WebContents"*)** %16, i64 6
  %18 = load %"class.content::BrowserContext"* (%"class.content::WebContents"*)*, %"class.content::BrowserContext"* (%"class.content::WebContents"*)** %17, align 8
  %19 = call %"class.content::BrowserContext"* %18(%"class.content::WebContents"* %1) #10
  %20 = call %class.Profile* @_ZN7Profile18FromBrowserContextEPN7content14BrowserContextE(%"class.content::BrowserContext"* %19) #10
  %21 = call %class.MediaGalleriesPreferences* @_ZN23MediaFileSystemRegistry14GetPreferencesEP7Profile(%class.MediaFileSystemRegistry* %0, %class.Profile* %20)
  %22 = bitcast %"class.std::__1::set.273"* %7 to i8*
  call void @llvm.lifetime.start.p0i8(i64 24, i8* nonnull %22) #10
  %23 = getelementptr inbounds %"class.std::__1::set.273", %"class.std::__1::set.273"* %7, i64 0, i32 0, i32 2, i32 0, i32 0
  %24 = bitcast %"class.std::__1::set.273"* %7 to i8*
  call void @llvm.memset.p0i8.i64(i8* nonnull align 8 %24, i8 -86, i64 24, i1 false)
  call void @_ZN25MediaGalleriesPreferences21GalleriesForExtensionERKN10extensions9ExtensionE(%"class.std::__1::set.273"* nonnull sret %7, %class.MediaGalleriesPreferences* %21, %"class.extensions::Extension"* dereferenceable(472) %2) #10
  %25 = load i64, i64* %23, align 8
  %26 = icmp eq i64 %25, 0
  br i1 %26, label %27, label %84

27:                                               ; preds = %14
  %28 = bitcast %"class.std::__1::vector.281"* %8 to i8*
  call void @llvm.lifetime.start.p0i8(i64 24, i8* nonnull %28) #10
  call void @llvm.memset.p0i8.i64(i8* nonnull align 8 %28, i8 0, i64 24, i1 false) #10
  %29 = bitcast %"class.base::OnceCallback"* %5 to i8*
  call void @llvm.lifetime.start.p0i8(i64 8, i8* nonnull %29) #10
  %30 = getelementptr inbounds %"class.base::OnceCallback", %"class.base::OnceCallback"* %3, i64 0, i32 0, i32 0, i32 0
  %31 = bitcast %"class.base::OnceCallback"* %3 to i64*
  %32 = load i64, i64* %31, align 8
  %33 = bitcast %"class.base::OnceCallback"* %5 to i64*
  store i64 %32, i64* %33, align 8
  store %"class.base::internal::BindStateBase"* null, %"class.base::internal::BindStateBase"** %30, align 8
  %34 = getelementptr inbounds %"class.base::OnceCallback", %"class.base::OnceCallback"* %5, i64 0, i32 0
  %35 = inttoptr i64 %32 to %"class.base::internal::BindStateBase"*
  %36 = getelementptr inbounds %"class.base::internal::BindStateBase", %"class.base::internal::BindStateBase"* %35, i64 0, i32 1
  %37 = bitcast void ()** %36 to void (%"class.base::internal::BindStateBase"*, %"class.std::__1::vector.281"*)**
  %38 = load void (%"class.base::internal::BindStateBase"*, %"class.std::__1::vector.281"*)*, void (%"class.base::internal::BindStateBase"*, %"class.std::__1::vector.281"*)** %37, align 8
  call void %38(%"class.base::internal::BindStateBase"* %35, %"class.std::__1::vector.281"* nonnull dereferenceable(24) %8) #10
  call void @_ZN4base8internal12CallbackBaseD2Ev(%"class.base::internal::CallbackBase"* nonnull %34) #10
  call void @llvm.lifetime.end.p0i8(i64 8, i8* nonnull %29) #10
  %39 = getelementptr inbounds %"class.std::__1::vector.281", %"class.std::__1::vector.281"* %8, i64 0, i32 0, i32 0
  %40 = load %struct.MediaFileSystemInfo*, %struct.MediaFileSystemInfo** %39, align 8
  %41 = icmp eq %struct.MediaFileSystemInfo* %40, null
  br i1 %41, label %83, label %42

42:                                               ; preds = %27
  %43 = bitcast %struct.MediaFileSystemInfo* %40 to i8*
  %44 = getelementptr inbounds %"class.std::__1::vector.281", %"class.std::__1::vector.281"* %8, i64 0, i32 0, i32 1
  %45 = load %struct.MediaFileSystemInfo*, %struct.MediaFileSystemInfo** %44, align 8
  %46 = icmp eq %struct.MediaFileSystemInfo* %45, %40
  br i1 %46, label %81, label %47

47:                                               ; preds = %42, %76
  %48 = phi %struct.MediaFileSystemInfo* [ %49, %76 ], [ %45, %42 ]
  %49 = getelementptr inbounds %struct.MediaFileSystemInfo, %struct.MediaFileSystemInfo* %48, i64 -1
  %50 = getelementptr inbounds %struct.MediaFileSystemInfo, %struct.MediaFileSystemInfo* %48, i64 -1, i32 4
  %51 = bitcast %"class.std::__1::basic_string.1"* %50 to %"struct.std::__1::basic_string<char, std::__1::char_traits<char>, std::__1::allocator<char> >::__short"*
  %52 = getelementptr inbounds %"struct.std::__1::basic_string<char, std::__1::char_traits<char>, std::__1::allocator<char> >::__short", %"struct.std::__1::basic_string<char, std::__1::char_traits<char>, std::__1::allocator<char> >::__short"* %51, i64 0, i32 1, i32 0
  %53 = load i8, i8* %52, align 1
  %54 = icmp slt i8 %53, 0
  br i1 %54, label %55, label %58

55:                                               ; preds = %47
  %56 = getelementptr inbounds %"class.std::__1::basic_string.1", %"class.std::__1::basic_string.1"* %50, i64 0, i32 0, i32 0, i32 0, i32 0, i32 0, i32 0
  %57 = load i8*, i8** %56, align 8
  call void @_ZdlPv(i8* %57) #12
  br label %58

58:                                               ; preds = %55, %47
  %59 = getelementptr inbounds %struct.MediaFileSystemInfo, %struct.MediaFileSystemInfo* %48, i64 -1, i32 2
  %60 = bitcast %"class.std::__1::basic_string.1"* %59 to %"struct.std::__1::basic_string<char, std::__1::char_traits<char>, std::__1::allocator<char> >::__short"*
  %61 = getelementptr inbounds %"struct.std::__1::basic_string<char, std::__1::char_traits<char>, std::__1::allocator<char> >::__short", %"struct.std::__1::basic_string<char, std::__1::char_traits<char>, std::__1::allocator<char> >::__short"* %60, i64 0, i32 1, i32 0
  %62 = load i8, i8* %61, align 1
  %63 = icmp slt i8 %62, 0
  br i1 %63, label %64, label %67

64:                                               ; preds = %58
  %65 = getelementptr inbounds %"class.std::__1::basic_string.1", %"class.std::__1::basic_string.1"* %59, i64 0, i32 0, i32 0, i32 0, i32 0, i32 0, i32 0
  %66 = load i8*, i8** %65, align 8
  call void @_ZdlPv(i8* %66) #12
  br label %67

67:                                               ; preds = %64, %58
  %68 = getelementptr inbounds %struct.MediaFileSystemInfo, %struct.MediaFileSystemInfo* %48, i64 -1, i32 1
  call void @_ZN4base8FilePathD1Ev(%"class.base::FilePath"* %68) #10
  %69 = bitcast %struct.MediaFileSystemInfo* %49 to %"struct.std::__1::basic_string<char16_t, std::__1::char_traits<char16_t>, std::__1::allocator<char16_t> >::__short"*
  %70 = getelementptr inbounds %"struct.std::__1::basic_string<char16_t, std::__1::char_traits<char16_t>, std::__1::allocator<char16_t> >::__short", %"struct.std::__1::basic_string<char16_t, std::__1::char_traits<char16_t>, std::__1::allocator<char16_t> >::__short"* %69, i64 0, i32 1, i32 1
  %71 = load i8, i8* %70, align 1
  %72 = icmp slt i8 %71, 0
  br i1 %72, label %73, label %76

73:                                               ; preds = %67
  %74 = bitcast %struct.MediaFileSystemInfo* %49 to i8**
  %75 = load i8*, i8** %74, align 8
  call void @_ZdlPv(i8* %75) #12
  br label %76

76:                                               ; preds = %73, %67
  %77 = icmp eq %struct.MediaFileSystemInfo* %49, %40
  br i1 %77, label %78, label %47

78:                                               ; preds = %76
  %79 = bitcast %"class.std::__1::vector.281"* %8 to i8**
  %80 = load i8*, i8** %79, align 8
  br label %81

81:                                               ; preds = %42, %78
  %82 = phi i8* [ %80, %78 ], [ %43, %42 ]
  store %struct.MediaFileSystemInfo* %40, %struct.MediaFileSystemInfo** %44, align 8
  call void @_ZdlPv(i8* %82) #12
  br label %83

83:                                               ; preds = %27, %81
  call void @llvm.lifetime.end.p0i8(i64 24, i8* nonnull %28) #10
  br label %93

84:                                               ; preds = %14
  %85 = call dereferenceable(24) %"class.std::__1::basic_string.1"* @_ZNK10extensions9Extension2idEv(%"class.extensions::Extension"* %2) #10
  %86 = call %class.ExtensionGalleriesHost* @_ZN23MediaFileSystemRegistry23GetExtensionGalleryHostEP7ProfileP25MediaGalleriesPreferencesRKNSt3__112basic_stringIcNS4_11char_traitsIcEENS4_9allocatorIcEEEE(%class.MediaFileSystemRegistry* %0, %class.Profile* %20, %class.MediaGalleriesPreferences* %21, %"class.std::__1::basic_string.1"* dereferenceable(24) %85)
  call void @_ZN22ExtensionGalleriesHost24ReferenceFromWebContentsEPN7content11WebContentsE(%class.ExtensionGalleriesHost* %86, %"class.content::WebContents"* %1)
  %87 = call dereferenceable(24) %"class.std::__1::map.241"* @_ZNK25MediaGalleriesPreferences15known_galleriesEv(%class.MediaGalleriesPreferences* %21) #10
  %88 = getelementptr inbounds %"class.base::OnceCallback", %"class.base::OnceCallback"* %3, i64 0, i32 0, i32 0, i32 0
  %89 = bitcast %"class.base::OnceCallback"* %3 to i64*
  %90 = load i64, i64* %89, align 8
  %91 = bitcast %"class.base::OnceCallback"* %9 to i64*
  store i64 %90, i64* %91, align 8
  store %"class.base::internal::BindStateBase"* null, %"class.base::internal::BindStateBase"** %88, align 8
  call void @_ZN22ExtensionGalleriesHost19GetMediaFileSystemsERKNSt3__13setImNS0_4lessImEENS0_9allocatorImEEEERKNS0_3mapIm20MediaGalleryPrefInfoS3_NS4_INS0_4pairIKmSA_EEEEEEN4base12OnceCallbackIFvRKNS0_6vectorI19MediaFileSystemInfoNS4_ISL_EEEEEEE(%class.ExtensionGalleriesHost* %86, %"class.std::__1::set.273"* nonnull dereferenceable(24) %7, %"class.std::__1::map.241"* dereferenceable(24) %87, %"class.base::OnceCallback"* nonnull %9)
  %92 = getelementptr inbounds %"class.base::OnceCallback", %"class.base::OnceCallback"* %9, i64 0, i32 0
  call void @_ZN4base8internal12CallbackBaseD2Ev(%"class.base::internal::CallbackBase"* nonnull %92) #10
  br label %93

93:                                               ; preds = %84, %83
  %94 = getelementptr inbounds %"class.std::__1::set.273", %"class.std::__1::set.273"* %7, i64 0, i32 0
  %95 = getelementptr inbounds %"class.std::__1::set.273", %"class.std::__1::set.273"* %7, i64 0, i32 0, i32 1, i32 0, i32 0
  %96 = bitcast %"class.std::__1::__tree_end_node"* %95 to %"class.std::__1::__tree_node.550"**
  %97 = load %"class.std::__1::__tree_node.550"*, %"class.std::__1::__tree_node.550"** %96, align 8
  call void @_ZNSt3__16__treeImNS_4lessImEENS_9allocatorImEEE7destroyEPNS_11__tree_nodeImPvEE(%"class.std::__1::__tree.274"* nonnull %94, %"class.std::__1::__tree_node.550"* %97) #10
  call void @llvm.lifetime.end.p0i8(i64 24, i8* nonnull %22) #10
  ret void
}

declare zeroext i1 @_ZN7content13BrowserThread11CurrentlyOnENS0_2IDE(i32) local_unnamed_addr #1

; Function Attrs: argmemonly nounwind
declare void @llvm.lifetime.start.p0i8(i64 immarg, i8* nocapture) #2

declare void @_ZN7logging10CheckError5CheckEPKciS2_(%"class.logging::CheckError"* sret, i8*, i32, i8*) local_unnamed_addr #1

declare dereferenceable(160) %"class.std::__1::basic_ostream"* @_ZN7logging10CheckError6streamEv(%"class.logging::CheckError"*) local_unnamed_addr #1

; Function Attrs: nounwind
declare void @_ZN7logging10CheckErrorD1Ev(%"class.logging::CheckError"*) unnamed_addr #3

; Function Attrs: argmemonly nounwind
declare void @llvm.lifetime.end.p0i8(i64 immarg, i8* nocapture) #2

declare %class.Profile* @_ZN7Profile18FromBrowserContextEPN7content14BrowserContextE(%"class.content::BrowserContext"*) local_unnamed_addr #1

; Function Attrs: nounwind ssp uwtable
define hidden %class.MediaGalleriesPreferences* @_ZN23MediaFileSystemRegistry14GetPreferencesEP7Profile(%class.MediaFileSystemRegistry*, %class.Profile*) local_unnamed_addr #0 align 2 {
  %3 = alloca %"class.std::__1::tuple.637", align 8
  %4 = alloca %"class.std::__1::tuple.455", align 1
  %5 = alloca %class.Profile*, align 8
  %6 = alloca %"class.std::__1::map.312", align 16
  %7 = alloca %"class.base::CallbackListSubscription", align 8
  %8 = alloca %"class.base::OnceCallback.235", align 8
  %9 = alloca %"class.base::RepeatingCallback", align 8
  store %class.Profile* %1, %class.Profile** %5, align 8
  %10 = getelementptr inbounds %class.MediaFileSystemRegistry, %class.MediaFileSystemRegistry* %0, i64 0, i32 2
  %11 = getelementptr inbounds %class.MediaFileSystemRegistry, %class.MediaFileSystemRegistry* %0, i64 0, i32 2, i32 0, i32 1, i32 0, i32 0
  %12 = bitcast %"class.std::__1::__tree_end_node"* %11 to %"class.std::__1::__tree_node.602"**
  %13 = load %"class.std::__1::__tree_node.602"*, %"class.std::__1::__tree_node.602"** %12, align 8
  %14 = icmp eq %"class.std::__1::__tree_node.602"* %13, null
  %15 = ptrtoint %class.Profile* %1 to i64
  br i1 %14, label %37, label %16

16:                                               ; preds = %2, %16
  %17 = phi %"class.std::__1::__tree_end_node"* [ %27, %16 ], [ %11, %2 ]
  %18 = phi %"class.std::__1::__tree_node.602"* [ %28, %16 ], [ %13, %2 ]
  %19 = getelementptr inbounds %"class.std::__1::__tree_node.602", %"class.std::__1::__tree_node.602"* %18, i64 0, i32 1, i32 0, i32 0
  %20 = load %class.Profile*, %class.Profile** %19, align 8
  %21 = icmp ult %class.Profile* %20, %1
  %22 = getelementptr inbounds %"class.std::__1::__tree_node.602", %"class.std::__1::__tree_node.602"* %18, i64 0, i32 0, i32 1
  %23 = bitcast %"class.std::__1::__tree_node_base"** %22 to %"class.std::__1::__tree_node.602"**
  %24 = getelementptr inbounds %"class.std::__1::__tree_node.602", %"class.std::__1::__tree_node.602"* %18, i64 0, i32 0, i32 0
  %25 = bitcast %"class.std::__1::__tree_node.602"* %18 to %"class.std::__1::__tree_node.602"**
  %26 = select i1 %21, %"class.std::__1::__tree_node.602"** %23, %"class.std::__1::__tree_node.602"** %25
  %27 = select i1 %21, %"class.std::__1::__tree_end_node"* %17, %"class.std::__1::__tree_end_node"* %24
  %28 = load %"class.std::__1::__tree_node.602"*, %"class.std::__1::__tree_node.602"** %26, align 8
  %29 = icmp eq %"class.std::__1::__tree_node.602"* %28, null
  br i1 %29, label %30, label %16

30:                                               ; preds = %16
  %31 = icmp eq %"class.std::__1::__tree_end_node"* %27, %11
  br i1 %31, label %37, label %32

32:                                               ; preds = %30
  %33 = getelementptr inbounds %"class.std::__1::__tree_end_node", %"class.std::__1::__tree_end_node"* %27, i64 4
  %34 = bitcast %"class.std::__1::__tree_end_node"* %33 to %class.Profile**
  %35 = load %class.Profile*, %class.Profile** %34, align 8
  %36 = icmp ugt %class.Profile* %35, %1
  br i1 %36, label %37, label %178

37:                                               ; preds = %32, %30, %2
  %38 = bitcast %"class.std::__1::map.312"* %6 to i8*
  call void @llvm.lifetime.start.p0i8(i64 24, i8* nonnull %38) #10
  %39 = getelementptr inbounds %"class.std::__1::map.312", %"class.std::__1::map.312"* %6, i64 0, i32 0, i32 1, i32 0, i32 0, i32 0
  %40 = getelementptr inbounds %"class.std::__1::map.312", %"class.std::__1::map.312"* %6, i64 0, i32 0, i32 1, i32 0, i32 0
  %41 = getelementptr inbounds %"class.std::__1::map.312", %"class.std::__1::map.312"* %6, i64 0, i32 0, i32 0
  %42 = bitcast %"class.std::__1::__tree_node_base"** %39 to i8*
  call void @llvm.memset.p0i8.i64(i8* align 8 %42, i8 0, i64 16, i1 false) #10
  store %"class.std::__1::__tree_end_node"* %40, %"class.std::__1::__tree_end_node"** %41, align 16
  br i1 %14, label %71, label %43

43:                                               ; preds = %37
  %44 = getelementptr inbounds %class.MediaFileSystemRegistry, %class.MediaFileSystemRegistry* %0, i64 0, i32 2, i32 0, i32 1, i32 0, i32 0, i32 0
  br label %45

45:                                               ; preds = %67, %43
  %46 = phi %"class.std::__1::__tree_node.602"* [ %70, %67 ], [ %13, %43 ]
  %47 = phi %"class.std::__1::__tree_node_base"** [ %69, %67 ], [ %44, %43 ]
  %48 = getelementptr inbounds %"class.std::__1::__tree_node.602", %"class.std::__1::__tree_node.602"* %46, i64 0, i32 1, i32 0, i32 0
  %49 = load %class.Profile*, %class.Profile** %48, align 8
  %50 = icmp ugt %class.Profile* %49, %1
  br i1 %50, label %51, label %57

51:                                               ; preds = %45
  %52 = getelementptr inbounds %"class.std::__1::__tree_node.602", %"class.std::__1::__tree_node.602"* %46, i64 0, i32 0, i32 0, i32 0
  %53 = load %"class.std::__1::__tree_node_base"*, %"class.std::__1::__tree_node_base"** %52, align 8
  %54 = icmp eq %"class.std::__1::__tree_node_base"* %53, null
  br i1 %54, label %55, label %67

55:                                               ; preds = %51
  %56 = getelementptr inbounds %"class.std::__1::__tree_node.602", %"class.std::__1::__tree_node.602"* %46, i64 0, i32 0, i32 0
  br label %73

57:                                               ; preds = %45
  %58 = icmp ult %class.Profile* %49, %1
  br i1 %58, label %59, label %65

59:                                               ; preds = %57
  %60 = getelementptr inbounds %"class.std::__1::__tree_node.602", %"class.std::__1::__tree_node.602"* %46, i64 0, i32 0, i32 1
  %61 = load %"class.std::__1::__tree_node_base"*, %"class.std::__1::__tree_node_base"** %60, align 8
  %62 = icmp eq %"class.std::__1::__tree_node_base"* %61, null
  br i1 %62, label %63, label %67

63:                                               ; preds = %59
  %64 = getelementptr inbounds %"class.std::__1::__tree_node.602", %"class.std::__1::__tree_node.602"* %46, i64 0, i32 0, i32 0
  br label %73

65:                                               ; preds = %57
  %66 = getelementptr inbounds %"class.std::__1::__tree_node.602", %"class.std::__1::__tree_node.602"* %46, i64 0, i32 0, i32 0
  br label %73

67:                                               ; preds = %59, %51
  %68 = phi %"class.std::__1::__tree_node_base"* [ %53, %51 ], [ %61, %59 ]
  %69 = phi %"class.std::__1::__tree_node_base"** [ %52, %51 ], [ %60, %59 ]
  %70 = bitcast %"class.std::__1::__tree_node_base"* %68 to %"class.std::__1::__tree_node.602"*
  br label %45

71:                                               ; preds = %37
  %72 = getelementptr inbounds %"class.std::__1::__tree_end_node", %"class.std::__1::__tree_end_node"* %11, i64 0, i32 0
  br label %73

73:                                               ; preds = %71, %65, %63, %55
  %74 = phi %"class.std::__1::__tree_end_node"* [ %11, %71 ], [ %56, %55 ], [ %64, %63 ], [ %66, %65 ]
  %75 = phi %"class.std::__1::__tree_node_base"** [ %72, %71 ], [ %52, %55 ], [ %60, %63 ], [ %47, %65 ]
  %76 = bitcast %"class.std::__1::__tree_node_base"** %75 to %"class.std::__1::__tree_node.602"**
  %77 = load %"class.std::__1::__tree_node.602"*, %"class.std::__1::__tree_node.602"** %76, align 8
  %78 = icmp eq %"class.std::__1::__tree_node.602"* %77, null
  br i1 %78, label %79, label %107

79:                                               ; preds = %73
  %80 = call i8* @_Znwm(i64 64) #12, !noalias !22
  %81 = getelementptr inbounds i8, i8* %80, i64 32
  %82 = bitcast i8* %81 to i64*
  store i64 %15, i64* %82, align 8, !noalias !22
  %83 = getelementptr inbounds i8, i8* %80, i64 48
  %84 = getelementptr inbounds i8, i8* %80, i64 40
  call void @llvm.memset.p0i8.i64(i8* align 8 %83, i8 0, i64 16, i1 false) #10, !noalias !22
  %85 = bitcast i8* %84 to i8**
  store i8* %83, i8** %85, align 8, !noalias !22
  %86 = bitcast i8* %80 to %"class.std::__1::__tree_node.602"*
  %87 = bitcast i8* %80 to %"class.std::__1::__tree_node_base"*
  %88 = getelementptr inbounds i8, i8* %80, i64 16
  %89 = bitcast i8* %88 to %"class.std::__1::__tree_end_node"**
  call void @llvm.memset.p0i8.i64(i8* nonnull align 8 %80, i8 0, i64 16, i1 false) #10
  store %"class.std::__1::__tree_end_node"* %74, %"class.std::__1::__tree_end_node"** %89, align 8
  %90 = bitcast %"class.std::__1::__tree_node_base"** %75 to i8**
  store i8* %80, i8** %90, align 8
  %91 = getelementptr inbounds %"class.std::__1::map", %"class.std::__1::map"* %10, i64 0, i32 0, i32 0
  %92 = load %"class.std::__1::__tree_end_node"*, %"class.std::__1::__tree_end_node"** %91, align 8
  %93 = getelementptr inbounds %"class.std::__1::__tree_end_node", %"class.std::__1::__tree_end_node"* %92, i64 0, i32 0
  %94 = load %"class.std::__1::__tree_node_base"*, %"class.std::__1::__tree_node_base"** %93, align 8
  %95 = icmp eq %"class.std::__1::__tree_node_base"* %94, null
  br i1 %95, label %100, label %96

96:                                               ; preds = %79
  %97 = ptrtoint %"class.std::__1::__tree_node_base"* %94 to i64
  %98 = bitcast %"class.std::__1::map"* %10 to i64*
  store i64 %97, i64* %98, align 8
  %99 = load %"class.std::__1::__tree_node_base"*, %"class.std::__1::__tree_node_base"** %75, align 8
  br label %100

100:                                              ; preds = %96, %79
  %101 = phi %"class.std::__1::__tree_node_base"* [ %87, %79 ], [ %99, %96 ]
  %102 = getelementptr inbounds %class.MediaFileSystemRegistry, %class.MediaFileSystemRegistry* %0, i64 0, i32 2, i32 0, i32 1, i32 0, i32 0, i32 0
  %103 = load %"class.std::__1::__tree_node_base"*, %"class.std::__1::__tree_node_base"** %102, align 8
  call void @_ZNSt3__127__tree_balance_after_insertIPNS_16__tree_node_baseIPvEEEEvT_S5_(%"class.std::__1::__tree_node_base"* %103, %"class.std::__1::__tree_node_base"* %101) #10
  %104 = getelementptr inbounds %class.MediaFileSystemRegistry, %class.MediaFileSystemRegistry* %0, i64 0, i32 2, i32 0, i32 2, i32 0, i32 0
  %105 = load i64, i64* %104, align 8
  %106 = add i64 %105, 1
  store i64 %106, i64* %104, align 8
  br label %107

107:                                              ; preds = %73, %100
  %108 = phi %"class.std::__1::__tree_node.602"* [ %86, %100 ], [ %77, %73 ]
  %109 = getelementptr inbounds %"class.std::__1::__tree_node.602", %"class.std::__1::__tree_node.602"* %108, i64 0, i32 1, i32 0, i32 1
  %110 = getelementptr inbounds %"class.std::__1::map.312", %"class.std::__1::map.312"* %109, i64 0, i32 0
  %111 = getelementptr inbounds %"class.std::__1::__tree_node.602", %"class.std::__1::__tree_node.602"* %108, i64 0, i32 1, i32 0, i32 1, i32 0, i32 1, i32 0, i32 0
  %112 = bitcast %"class.std::__1::__tree_end_node"* %111 to %"class.std::__1::__tree_node.647"**
  %113 = load %"class.std::__1::__tree_node.647"*, %"class.std::__1::__tree_node.647"** %112, align 8
  call void @_ZNSt3__16__treeINS_12__value_typeINS_12basic_stringIcNS_11char_traitsIcEENS_9allocatorIcEEEE13scoped_refptrI22ExtensionGalleriesHostEEENS_19__map_value_compareIS7_SB_NS_4lessIS7_EELb1EEENS5_ISB_EEE7destroyEPNS_11__tree_nodeISB_PvEE(%"class.std::__1::__tree.313"* %110, %"class.std::__1::__tree_node.647"* %113) #10
  %114 = bitcast %"class.std::__1::map.312"* %6 to <2 x i64>*
  %115 = load <2 x i64>, <2 x i64>* %114, align 16
  %116 = bitcast %"class.std::__1::map.312"* %109 to <2 x i64>*
  store <2 x i64> %115, <2 x i64>* %116, align 8
  %117 = getelementptr inbounds %"class.std::__1::map.312", %"class.std::__1::map.312"* %6, i64 0, i32 0, i32 2, i32 0, i32 0
  %118 = getelementptr inbounds %"class.std::__1::__tree_node.602", %"class.std::__1::__tree_node.602"* %108, i64 0, i32 1, i32 0, i32 1, i32 0, i32 2, i32 0, i32 0
  %119 = load i64, i64* %117, align 16
  store i64 %119, i64* %118, align 8
  %120 = icmp eq i64 %119, 0
  %121 = extractelement <2 x i64> %115, i32 1
  br i1 %120, label %122, label %125

122:                                              ; preds = %107
  %123 = inttoptr i64 %121 to %"class.std::__1::__tree_node.647"*
  %124 = getelementptr inbounds %"class.std::__1::map.312", %"class.std::__1::map.312"* %109, i64 0, i32 0, i32 0
  store %"class.std::__1::__tree_end_node"* %111, %"class.std::__1::__tree_end_node"** %124, align 8
  br label %129

125:                                              ; preds = %107
  %126 = inttoptr i64 %121 to %"class.std::__1::__tree_node_base"*
  %127 = getelementptr inbounds %"class.std::__1::__tree_node_base", %"class.std::__1::__tree_node_base"* %126, i64 0, i32 2
  store %"class.std::__1::__tree_end_node"* %111, %"class.std::__1::__tree_end_node"** %127, align 8
  store %"class.std::__1::__tree_end_node"* %40, %"class.std::__1::__tree_end_node"** %41, align 16
  %128 = bitcast %"class.std::__1::__tree_end_node"* %40 to i8*
  call void @llvm.memset.p0i8.i64(i8* align 8 %128, i8 0, i64 16, i1 false) #10
  br label %129

129:                                              ; preds = %122, %125
  %130 = phi %"class.std::__1::__tree_node.647"* [ %123, %122 ], [ null, %125 ]
  %131 = getelementptr inbounds %"class.std::__1::map.312", %"class.std::__1::map.312"* %6, i64 0, i32 0
  call void @_ZNSt3__16__treeINS_12__value_typeINS_12basic_stringIcNS_11char_traitsIcEENS_9allocatorIcEEEE13scoped_refptrI22ExtensionGalleriesHostEEENS_19__map_value_compareIS7_SB_NS_4lessIS7_EELb1EEENS5_ISB_EEE7destroyEPNS_11__tree_nodeISB_PvEE(%"class.std::__1::__tree.313"* nonnull %131, %"class.std::__1::__tree_node.647"* %130) #10
  call void @llvm.lifetime.end.p0i8(i64 24, i8* nonnull %38) #10
  %132 = bitcast %"class.base::CallbackListSubscription"* %7 to i8*
  call void @llvm.lifetime.start.p0i8(i64 8, i8* nonnull %132) #10
  %133 = load atomic i64, i64* @_ZN4base9SingletonIN12_GLOBAL__N_146MediaFileSystemRegistryShutdownNotifierFactoryENS_22DefaultSingletonTraitsIS2_EES2_E9instance_E acquire, align 8
  %134 = icmp ugt i64 %133, 1
  br i1 %134, label %147, label %135

135:                                              ; preds = %129
  %136 = call zeroext i1 @_ZN4base8internal17NeedsLazyInstanceEPl(i64* nonnull @_ZN4base9SingletonIN12_GLOBAL__N_146MediaFileSystemRegistryShutdownNotifierFactoryENS_22DefaultSingletonTraitsIS2_EES2_E9instance_E) #10
  br i1 %136, label %137, label %145

137:                                              ; preds = %135
  %138 = call i8* @_Znwm(i64 80) #12
  %139 = bitcast i8* %138 to %class.BrowserContextKeyedServiceShutdownNotifierFactory*
  call void @_ZN49BrowserContextKeyedServiceShutdownNotifierFactoryC2EPKc(%class.BrowserContextKeyedServiceShutdownNotifierFactory* nonnull %139, i8* getelementptr inbounds ([24 x i8], [24 x i8]* @.str.8, i64 0, i64 0)) #10
  %140 = bitcast i8* %138 to i32 (...)***
  store i32 (...)** bitcast (i8** getelementptr inbounds ({ [20 x i8*] }, { [20 x i8*] }* @_ZTVN12_GLOBAL__N_146MediaFileSystemRegistryShutdownNotifierFactoryE, i64 0, inrange i32 0, i64 2) to i32 (...)**), i32 (...)*** %140, align 8
  %141 = bitcast i8* %138 to %class.KeyedServiceBaseFactory*
  %142 = call %class.MediaGalleriesPreferencesFactory* @_ZN32MediaGalleriesPreferencesFactory11GetInstanceEv() #10
  %143 = bitcast %class.MediaGalleriesPreferencesFactory* %142 to %class.KeyedServiceBaseFactory*
  call void @_ZN23KeyedServiceBaseFactory9DependsOnEPS_(%class.KeyedServiceBaseFactory* nonnull %141, %class.KeyedServiceBaseFactory* %143) #10
  %144 = ptrtoint i8* %138 to i64
  call void @_ZN4base8internal20CompleteLazyInstanceEPllPFvPvES2_(i64* nonnull @_ZN4base9SingletonIN12_GLOBAL__N_146MediaFileSystemRegistryShutdownNotifierFactoryENS_22DefaultSingletonTraitsIS2_EES2_E9instance_E, i64 %144, void (i8*)* nonnull @_ZN4base9SingletonIN12_GLOBAL__N_146MediaFileSystemRegistryShutdownNotifierFactoryENS_22DefaultSingletonTraitsIS2_EES2_E6OnExitEPv, i8* null) #10
  br label %147

145:                                              ; preds = %135
  %146 = load atomic i64, i64* @_ZN4base9SingletonIN12_GLOBAL__N_146MediaFileSystemRegistryShutdownNotifierFactoryENS_22DefaultSingletonTraitsIS2_EES2_E9instance_E acquire, align 8
  br label %147

147:                                              ; preds = %129, %137, %145
  %148 = phi i64 [ %133, %129 ], [ %144, %137 ], [ %146, %145 ]
  %149 = inttoptr i64 %148 to %"class.(anonymous namespace)::MediaFileSystemRegistryShutdownNotifierFactory"*
  %150 = getelementptr inbounds %"class.(anonymous namespace)::MediaFileSystemRegistryShutdownNotifierFactory", %"class.(anonymous namespace)::MediaFileSystemRegistryShutdownNotifierFactory"* %149, i64 0, i32 0
  %151 = bitcast %class.Profile** %5 to %"class.content::BrowserContext"**
  %152 = load %"class.content::BrowserContext"*, %"class.content::BrowserContext"** %151, align 8
  %153 = call %class.KeyedServiceShutdownNotifier* @_ZN49BrowserContextKeyedServiceShutdownNotifierFactory3GetEPN7content14BrowserContextE(%class.BrowserContextKeyedServiceShutdownNotifierFactory* %150, %"class.content::BrowserContext"* %152) #10
  %154 = ptrtoint %class.MediaFileSystemRegistry* %0 to i64
  %155 = call i8* @_Znwm(i64 64) #12, !noalias !25
  %156 = bitcast i8* %155 to %"class.base::internal::BindStateBase"*
  call void @_ZN4base8internal13BindStateBaseC2EPFvvEPFvPKS1_E(%"class.base::internal::BindStateBase"* nonnull %156, void ()* bitcast (void (%"class.base::internal::BindStateBase"*)* @_ZN4base8internal7InvokerINS0_9BindStateIM23MediaFileSystemRegistryFvP7ProfileEJNS0_17UnretainedWrapperIS3_EES5_EEEFvvEE3RunEPNS0_13BindStateBaseE to void ()*), void (%"class.base::internal::BindStateBase"*)* nonnull @_ZN4base8internal9BindStateIM23MediaFileSystemRegistryFvP7ProfileEJNS0_17UnretainedWrapperIS2_EES4_EE7DestroyEPKNS0_13BindStateBaseE) #10, !noalias !25
  %157 = getelementptr inbounds i8, i8* %155, i64 32
  %158 = bitcast i8* %157 to <2 x i64>*
  store <2 x i64> <i64 ptrtoint (void (%class.MediaFileSystemRegistry*, %class.Profile*)* @_ZN23MediaFileSystemRegistry17OnProfileShutdownEP7Profile to i64), i64 0>, <2 x i64>* %158, align 8, !noalias !25
  %159 = getelementptr inbounds i8, i8* %155, i64 48
  %160 = bitcast i8* %159 to i64*
  store i64 %154, i64* %160, align 8, !noalias !25
  %161 = getelementptr inbounds i8, i8* %155, i64 56
  %162 = ptrtoint %"class.content::BrowserContext"* %152 to i64
  %163 = bitcast i8* %161 to i64*
  store i64 %162, i64* %163, align 8, !noalias !25
  %164 = bitcast %"class.base::RepeatingCallback"* %9 to i8**
  store i8* %155, i8** %164, align 8, !alias.scope !25
  %165 = getelementptr inbounds %"class.base::OnceCallback.235", %"class.base::OnceCallback.235"* %8, i64 0, i32 0
  %166 = getelementptr inbounds %"class.base::RepeatingCallback", %"class.base::RepeatingCallback"* %9, i64 0, i32 0
  call void @_ZN4base8internal12CallbackBaseC2EONS0_20CallbackBaseCopyableE(%"class.base::internal::CallbackBase"* nonnull %165, %"class.base::internal::CallbackBaseCopyable"* nonnull dereferenceable(8) %166) #10
  call void @_ZN28KeyedServiceShutdownNotifier9SubscribeEN4base12OnceCallbackIFvvEEE(%"class.base::CallbackListSubscription"* nonnull sret %7, %class.KeyedServiceShutdownNotifier* %153, %"class.base::OnceCallback.235"* nonnull %8) #10
  %167 = getelementptr inbounds %class.MediaFileSystemRegistry, %class.MediaFileSystemRegistry* %0, i64 0, i32 3, i32 0
  %168 = bitcast %"class.std::__1::tuple.637"* %3 to i8*
  call void @llvm.lifetime.start.p0i8(i64 8, i8* nonnull %168) #10
  %169 = getelementptr inbounds %"class.std::__1::tuple.637", %"class.std::__1::tuple.637"* %3, i64 0, i32 0, i32 0, i32 0
  store %class.Profile** %5, %class.Profile*** %169, align 8
  %170 = getelementptr inbounds %"class.std::__1::tuple.455", %"class.std::__1::tuple.455"* %4, i64 0, i32 0
  call void @llvm.lifetime.start.p0i8(i64 1, i8* nonnull %170) #10
  %171 = call { %"class.std::__1::__tree_end_node"*, i8 } @_ZNSt3__16__treeINS_12__value_typeIP7ProfileN4base24CallbackListSubscriptionEEENS_19__map_value_compareIS3_S6_NS_4lessIS3_EELb1EEENS_9allocatorIS6_EEE25__emplace_unique_key_argsIS3_JRKNS_21piecewise_construct_tENS_5tupleIJRKS3_EEENSI_IJEEEEEENS_4pairINS_15__tree_iteratorIS6_PNS_11__tree_nodeIS6_PvEElEEbEERKT_DpOT0_(%"class.std::__1::__tree.19"* %167, %class.Profile** nonnull dereferenceable(8) %5, %"struct.std::__1::piecewise_construct_t"* nonnull dereferenceable(1) @_ZNSt3__1L19piecewise_constructE, %"class.std::__1::tuple.637"* nonnull dereferenceable(8) %3, %"class.std::__1::tuple.455"* nonnull dereferenceable(1) %4) #10
  %172 = extractvalue { %"class.std::__1::__tree_end_node"*, i8 } %171, 0
  %173 = getelementptr inbounds %"class.std::__1::__tree_end_node", %"class.std::__1::__tree_end_node"* %172, i64 5
  %174 = bitcast %"class.std::__1::__tree_end_node"* %173 to %"class.base::CallbackListSubscription"*
  call void @llvm.lifetime.end.p0i8(i64 1, i8* nonnull %170) #10
  call void @llvm.lifetime.end.p0i8(i64 8, i8* nonnull %168) #10
  %175 = call dereferenceable(8) %"class.base::CallbackListSubscription"* @_ZN4base24CallbackListSubscriptionaSEOS0_(%"class.base::CallbackListSubscription"* %174, %"class.base::CallbackListSubscription"* nonnull dereferenceable(8) %7) #10
  call void @_ZN4base24CallbackListSubscriptionD1Ev(%"class.base::CallbackListSubscription"* nonnull %7) #10
  call void @_ZN4base8internal12CallbackBaseD2Ev(%"class.base::internal::CallbackBase"* nonnull %165) #10
  %176 = getelementptr inbounds %"class.base::RepeatingCallback", %"class.base::RepeatingCallback"* %9, i64 0, i32 0, i32 0
  call void @_ZN4base8internal12CallbackBaseD2Ev(%"class.base::internal::CallbackBase"* nonnull %176) #10
  call void @llvm.lifetime.end.p0i8(i64 8, i8* nonnull %132) #10
  call void @_ZN15media_galleries10UsageCountENS_20MediaGalleriesUsagesE(i32 4) #10
  %177 = load %class.Profile*, %class.Profile** %5, align 8
  br label %178

178:                                              ; preds = %32, %147
  %179 = phi %class.Profile* [ %1, %32 ], [ %177, %147 ]
  %180 = call %class.MediaGalleriesPreferences* @_ZN32MediaGalleriesPreferencesFactory13GetForProfileEP7Profile(%class.Profile* %179) #10
  ret %class.MediaGalleriesPreferences* %180
}

declare void @_ZN25MediaGalleriesPreferences21GalleriesForExtensionERKN10extensions9ExtensionE(%"class.std::__1::set.273"* sret, %class.MediaGalleriesPreferences*, %"class.extensions::Extension"* dereferenceable(472)) local_unnamed_addr #1

; Function Attrs: nounwind ssp uwtable
define hidden %class.ExtensionGalleriesHost* @_ZN23MediaFileSystemRegistry23GetExtensionGalleryHostEP7ProfileP25MediaGalleriesPreferencesRKNSt3__112basic_stringIcNS4_11char_traitsIcEENS4_9allocatorIcEEEE(%class.MediaFileSystemRegistry*, %class.Profile*, %class.MediaGalleriesPreferences*, %"class.std::__1::basic_string.1"* dereferenceable(24)) local_unnamed_addr #0 align 2 {
  %5 = alloca %"class.std::__1::tuple.685", align 8
  %6 = alloca %"class.std::__1::tuple.455", align 1
  %7 = alloca %"class.std::__1::tuple.685", align 8
  %8 = alloca %"class.std::__1::tuple.455", align 1
  %9 = alloca %"class.base::FilePath", align 8
  %10 = alloca %"class.base::OnceCallback.235", align 8
  %11 = ptrtoint %class.Profile* %1 to i64
  %12 = getelementptr inbounds %class.MediaFileSystemRegistry, %class.MediaFileSystemRegistry* %0, i64 0, i32 2
  %13 = getelementptr inbounds %class.MediaFileSystemRegistry, %class.MediaFileSystemRegistry* %0, i64 0, i32 2, i32 0, i32 1, i32 0, i32 0
  %14 = bitcast %"class.std::__1::__tree_end_node"* %13 to %"class.std::__1::__tree_node.602"**
  %15 = load %"class.std::__1::__tree_node.602"*, %"class.std::__1::__tree_node.602"** %14, align 8
  %16 = icmp eq %"class.std::__1::__tree_node.602"* %15, null
  br i1 %16, label %38, label %17

17:                                               ; preds = %4, %17
  %18 = phi %"class.std::__1::__tree_end_node"* [ %28, %17 ], [ %13, %4 ]
  %19 = phi %"class.std::__1::__tree_node.602"* [ %29, %17 ], [ %15, %4 ]
  %20 = getelementptr inbounds %"class.std::__1::__tree_node.602", %"class.std::__1::__tree_node.602"* %19, i64 0, i32 1, i32 0, i32 0
  %21 = load %class.Profile*, %class.Profile** %20, align 8
  %22 = icmp ult %class.Profile* %21, %1
  %23 = getelementptr inbounds %"class.std::__1::__tree_node.602", %"class.std::__1::__tree_node.602"* %19, i64 0, i32 0, i32 1
  %24 = bitcast %"class.std::__1::__tree_node_base"** %23 to %"class.std::__1::__tree_node.602"**
  %25 = getelementptr inbounds %"class.std::__1::__tree_node.602", %"class.std::__1::__tree_node.602"* %19, i64 0, i32 0, i32 0
  %26 = bitcast %"class.std::__1::__tree_node.602"* %19 to %"class.std::__1::__tree_node.602"**
  %27 = select i1 %22, %"class.std::__1::__tree_node.602"** %24, %"class.std::__1::__tree_node.602"** %26
  %28 = select i1 %22, %"class.std::__1::__tree_end_node"* %18, %"class.std::__1::__tree_end_node"* %25
  %29 = load %"class.std::__1::__tree_node.602"*, %"class.std::__1::__tree_node.602"** %27, align 8
  %30 = icmp eq %"class.std::__1::__tree_node.602"* %29, null
  br i1 %30, label %31, label %17

31:                                               ; preds = %17
  %32 = icmp eq %"class.std::__1::__tree_end_node"* %28, %13
  br i1 %32, label %38, label %33

33:                                               ; preds = %31
  %34 = getelementptr inbounds %"class.std::__1::__tree_end_node", %"class.std::__1::__tree_end_node"* %28, i64 4
  %35 = bitcast %"class.std::__1::__tree_end_node"* %34 to %class.Profile**
  %36 = load %class.Profile*, %class.Profile** %35, align 8
  %37 = icmp ugt %class.Profile* %36, %1
  br i1 %37, label %38, label %39

38:                                               ; preds = %33, %31, %4
  br label %39

39:                                               ; preds = %33, %38
  %40 = phi %"class.std::__1::__tree_end_node"* [ %13, %38 ], [ %28, %33 ]
  %41 = getelementptr inbounds %"class.std::__1::__tree_end_node", %"class.std::__1::__tree_end_node"* %40, i64 5
  %42 = getelementptr inbounds %"class.std::__1::__tree_end_node", %"class.std::__1::__tree_end_node"* %40, i64 7
  %43 = bitcast %"class.std::__1::__tree_end_node"* %42 to i64*
  %44 = load i64, i64* %43, align 8
  %45 = icmp eq i64 %44, 0
  br i1 %45, label %46, label %48

46:                                               ; preds = %39
  %47 = getelementptr inbounds %class.MediaFileSystemRegistry, %class.MediaFileSystemRegistry* %0, i64 0, i32 1
  tail call void @_ZN25MediaGalleriesPreferences24AddGalleryChangeObserverEPNS_21GalleryChangeObserverE(%class.MediaGalleriesPreferences* %2, %"class.MediaGalleriesPreferences::GalleryChangeObserver"* %47) #10
  br label %48

48:                                               ; preds = %46, %39
  %49 = bitcast %"class.std::__1::__tree_end_node"* %41 to %"class.std::__1::__tree.313"*
  %50 = bitcast %"class.std::__1::tuple.685"* %5 to i8*
  call void @llvm.lifetime.start.p0i8(i64 8, i8* nonnull %50) #10
  %51 = getelementptr inbounds %"class.std::__1::tuple.685", %"class.std::__1::tuple.685"* %5, i64 0, i32 0, i32 0, i32 0
  store %"class.std::__1::basic_string.1"* %3, %"class.std::__1::basic_string.1"** %51, align 8
  %52 = getelementptr inbounds %"class.std::__1::tuple.455", %"class.std::__1::tuple.455"* %6, i64 0, i32 0
  call void @llvm.lifetime.start.p0i8(i64 1, i8* nonnull %52) #10
  %53 = call { %"class.std::__1::__tree_end_node"*, i8 } @_ZNSt3__16__treeINS_12__value_typeINS_12basic_stringIcNS_11char_traitsIcEENS_9allocatorIcEEEE13scoped_refptrI22ExtensionGalleriesHostEEENS_19__map_value_compareIS7_SB_NS_4lessIS7_EELb1EEENS5_ISB_EEE25__emplace_unique_key_argsIS7_JRKNS_21piecewise_construct_tENS_5tupleIJRKS7_EEENSM_IJEEEEEENS_4pairINS_15__tree_iteratorISB_PNS_11__tree_nodeISB_PvEElEEbEERKT_DpOT0_(%"class.std::__1::__tree.313"* %49, %"class.std::__1::basic_string.1"* dereferenceable(24) %3, %"struct.std::__1::piecewise_construct_t"* nonnull dereferenceable(1) @_ZNSt3__1L19piecewise_constructE, %"class.std::__1::tuple.685"* nonnull dereferenceable(8) %5, %"class.std::__1::tuple.455"* nonnull dereferenceable(1) %6) #10
  %54 = extractvalue { %"class.std::__1::__tree_end_node"*, i8 } %53, 0
  %55 = getelementptr inbounds %"class.std::__1::__tree_end_node", %"class.std::__1::__tree_end_node"* %54, i64 7
  call void @llvm.lifetime.end.p0i8(i64 1, i8* nonnull %52) #10
  call void @llvm.lifetime.end.p0i8(i64 8, i8* nonnull %50) #10
  %56 = bitcast %"class.std::__1::__tree_end_node"* %55 to %class.ExtensionGalleriesHost**
  %57 = load %class.ExtensionGalleriesHost*, %class.ExtensionGalleriesHost** %56, align 8
  %58 = icmp eq %class.ExtensionGalleriesHost* %57, null
  br i1 %58, label %59, label %189

59:                                               ; preds = %48
  %60 = call i8* @_Znwm(i64 144) #12
  %61 = bitcast i8* %60 to %class.ExtensionGalleriesHost*
  %62 = getelementptr inbounds %class.MediaFileSystemRegistry, %class.MediaFileSystemRegistry* %0, i64 0, i32 4, i32 0, i32 0, i32 0
  %63 = load %class.MediaFileSystemContext*, %class.MediaFileSystemContext** %62, align 8
  %64 = bitcast %"class.base::FilePath"* %9 to i8*
  call void @llvm.lifetime.start.p0i8(i64 24, i8* nonnull %64) #10
  %65 = bitcast %class.Profile* %1 to void (%"class.base::FilePath"*, %class.Profile*)***
  %66 = load void (%"class.base::FilePath"*, %class.Profile*)**, void (%"class.base::FilePath"*, %class.Profile*)*** %65, align 8
  %67 = getelementptr inbounds void (%"class.base::FilePath"*, %class.Profile*)*, void (%"class.base::FilePath"*, %class.Profile*)** %66, i64 6
  %68 = load void (%"class.base::FilePath"*, %class.Profile*)*, void (%"class.base::FilePath"*, %class.Profile*)** %67, align 8
  call void %68(%"class.base::FilePath"* nonnull sret %9, %class.Profile* %1) #10
  %69 = ptrtoint %class.MediaFileSystemRegistry* %0 to i64
  %70 = call i8* @_Znwm(i64 88) #12, !noalias !30
  %71 = bitcast i8* %70 to %"class.base::internal::BindStateBase"*
  call void @_ZN4base8internal13BindStateBaseC2EPFvvEPFvPKS1_E(%"class.base::internal::BindStateBase"* nonnull %71, void ()* bitcast (void (%"class.base::internal::BindStateBase"*)* @_ZN4base8internal7InvokerINS0_9BindStateIM23MediaFileSystemRegistryFvP7ProfileRKNSt3__112basic_stringIcNS6_11char_traitsIcEENS6_9allocatorIcEEEEEJNS0_17UnretainedWrapperIS3_EES5_SC_EEEFvvEE7RunOnceEPNS0_13BindStateBaseE to void ()*), void (%"class.base::internal::BindStateBase"*)* nonnull @_ZN4base8internal9BindStateIM23MediaFileSystemRegistryFvP7ProfileRKNSt3__112basic_stringIcNS5_11char_traitsIcEENS5_9allocatorIcEEEEEJNS0_17UnretainedWrapperIS2_EES4_SB_EE7DestroyEPKNS0_13BindStateBaseE) #10, !noalias !30
  %72 = getelementptr inbounds i8, i8* %70, i64 32
  %73 = bitcast i8* %72 to <2 x i64>*
  store <2 x i64> <i64 ptrtoint (void (%class.MediaFileSystemRegistry*, %class.Profile*, %"class.std::__1::basic_string.1"*)* @_ZN23MediaFileSystemRegistry29OnExtensionGalleriesHostEmptyEP7ProfileRKNSt3__112basic_stringIcNS2_11char_traitsIcEENS2_9allocatorIcEEEE to i64), i64 0>, <2 x i64>* %73, align 8, !noalias !30
  %74 = getelementptr inbounds i8, i8* %70, i64 48
  %75 = bitcast i8* %74 to i64*
  store i64 %69, i64* %75, align 8, !noalias !30
  %76 = getelementptr inbounds i8, i8* %70, i64 56
  %77 = bitcast i8* %76 to i64*
  store i64 %11, i64* %77, align 8, !noalias !30
  %78 = getelementptr inbounds i8, i8* %70, i64 64
  %79 = bitcast %"class.std::__1::basic_string.1"* %3 to %"struct.std::__1::basic_string<char, std::__1::char_traits<char>, std::__1::allocator<char> >::__short"*
  %80 = getelementptr inbounds %"struct.std::__1::basic_string<char, std::__1::char_traits<char>, std::__1::allocator<char> >::__short", %"struct.std::__1::basic_string<char, std::__1::char_traits<char>, std::__1::allocator<char> >::__short"* %79, i64 0, i32 1, i32 0
  %81 = load i8, i8* %80, align 1, !noalias !30
  %82 = icmp slt i8 %81, 0
  br i1 %82, label %85, label %83

83:                                               ; preds = %59
  %84 = bitcast %"class.std::__1::basic_string.1"* %3 to i8*
  call void @llvm.memcpy.p0i8.p0i8.i64(i8* align 8 %78, i8* align 8 %84, i64 24, i1 false) #10, !noalias !30
  br label %91

85:                                               ; preds = %59
  %86 = bitcast i8* %78 to %"class.std::__1::basic_string.1"*
  %87 = getelementptr inbounds %"class.std::__1::basic_string.1", %"class.std::__1::basic_string.1"* %3, i64 0, i32 0, i32 0, i32 0, i32 0, i32 0, i32 0
  %88 = load i8*, i8** %87, align 8, !noalias !30
  %89 = getelementptr inbounds %"class.std::__1::basic_string.1", %"class.std::__1::basic_string.1"* %3, i64 0, i32 0, i32 0, i32 0, i32 0, i32 0, i32 1
  %90 = load i64, i64* %89, align 8, !noalias !30
  call void @_ZNSt3__112basic_stringIcNS_11char_traitsIcEENS_9allocatorIcEEE25__init_copy_ctor_externalEPKcm(%"class.std::__1::basic_string.1"* %86, i8* %88, i64 %90) #10, !noalias !30
  br label %91

91:                                               ; preds = %83, %85
  %92 = bitcast %"class.base::OnceCallback.235"* %10 to i8**
  store i8* %70, i8** %92, align 8, !alias.scope !30
  call void @_ZN22ExtensionGalleriesHostC2EP22MediaFileSystemContextRKN4base8FilePathERKNSt3__112basic_stringIcNS6_11char_traitsIcEENS6_9allocatorIcEEEENS2_12OnceCallbackIFvvEEE(%class.ExtensionGalleriesHost* nonnull %61, %class.MediaFileSystemContext* %63, %"class.base::FilePath"* nonnull dereferenceable(24) %9, %"class.std::__1::basic_string.1"* dereferenceable(24) %3, %"class.base::OnceCallback.235"* nonnull %10)
  %93 = getelementptr inbounds %"class.base::OnceCallback.235", %"class.base::OnceCallback.235"* %10, i64 0, i32 0
  call void @_ZN4base8internal12CallbackBaseD2Ev(%"class.base::internal::CallbackBase"* nonnull %93) #10
  call void @_ZN4base8FilePathD1Ev(%"class.base::FilePath"* nonnull %9) #10
  call void @llvm.lifetime.end.p0i8(i64 24, i8* nonnull %64) #10
  %94 = load %"class.std::__1::__tree_node.602"*, %"class.std::__1::__tree_node.602"** %14, align 8
  %95 = icmp eq %"class.std::__1::__tree_node.602"* %94, null
  br i1 %95, label %124, label %96

96:                                               ; preds = %91
  %97 = getelementptr inbounds %class.MediaFileSystemRegistry, %class.MediaFileSystemRegistry* %0, i64 0, i32 2, i32 0, i32 1, i32 0, i32 0, i32 0
  br label %98

98:                                               ; preds = %120, %96
  %99 = phi %"class.std::__1::__tree_node.602"* [ %123, %120 ], [ %94, %96 ]
  %100 = phi %"class.std::__1::__tree_node_base"** [ %122, %120 ], [ %97, %96 ]
  %101 = getelementptr inbounds %"class.std::__1::__tree_node.602", %"class.std::__1::__tree_node.602"* %99, i64 0, i32 1, i32 0, i32 0
  %102 = load %class.Profile*, %class.Profile** %101, align 8
  %103 = icmp ugt %class.Profile* %102, %1
  br i1 %103, label %104, label %110

104:                                              ; preds = %98
  %105 = getelementptr inbounds %"class.std::__1::__tree_node.602", %"class.std::__1::__tree_node.602"* %99, i64 0, i32 0, i32 0, i32 0
  %106 = load %"class.std::__1::__tree_node_base"*, %"class.std::__1::__tree_node_base"** %105, align 8
  %107 = icmp eq %"class.std::__1::__tree_node_base"* %106, null
  br i1 %107, label %108, label %120

108:                                              ; preds = %104
  %109 = getelementptr inbounds %"class.std::__1::__tree_node.602", %"class.std::__1::__tree_node.602"* %99, i64 0, i32 0, i32 0
  br label %126

110:                                              ; preds = %98
  %111 = icmp ult %class.Profile* %102, %1
  br i1 %111, label %112, label %118

112:                                              ; preds = %110
  %113 = getelementptr inbounds %"class.std::__1::__tree_node.602", %"class.std::__1::__tree_node.602"* %99, i64 0, i32 0, i32 1
  %114 = load %"class.std::__1::__tree_node_base"*, %"class.std::__1::__tree_node_base"** %113, align 8
  %115 = icmp eq %"class.std::__1::__tree_node_base"* %114, null
  br i1 %115, label %116, label %120

116:                                              ; preds = %112
  %117 = getelementptr inbounds %"class.std::__1::__tree_node.602", %"class.std::__1::__tree_node.602"* %99, i64 0, i32 0, i32 0
  br label %126

118:                                              ; preds = %110
  %119 = getelementptr inbounds %"class.std::__1::__tree_node.602", %"class.std::__1::__tree_node.602"* %99, i64 0, i32 0, i32 0
  br label %126

120:                                              ; preds = %112, %104
  %121 = phi %"class.std::__1::__tree_node_base"* [ %106, %104 ], [ %114, %112 ]
  %122 = phi %"class.std::__1::__tree_node_base"** [ %105, %104 ], [ %113, %112 ]
  %123 = bitcast %"class.std::__1::__tree_node_base"* %121 to %"class.std::__1::__tree_node.602"*
  br label %98

124:                                              ; preds = %91
  %125 = getelementptr inbounds %"class.std::__1::__tree_end_node", %"class.std::__1::__tree_end_node"* %13, i64 0, i32 0
  br label %126

126:                                              ; preds = %124, %118, %116, %108
  %127 = phi %"class.std::__1::__tree_end_node"* [ %13, %124 ], [ %109, %108 ], [ %117, %116 ], [ %119, %118 ]
  %128 = phi %"class.std::__1::__tree_node_base"** [ %125, %124 ], [ %105, %108 ], [ %113, %116 ], [ %100, %118 ]
  %129 = bitcast %"class.std::__1::__tree_node_base"** %128 to %"class.std::__1::__tree_node.602"**
  %130 = load %"class.std::__1::__tree_node.602"*, %"class.std::__1::__tree_node.602"** %129, align 8
  %131 = icmp eq %"class.std::__1::__tree_node.602"* %130, null
  br i1 %131, label %132, label %160

132:                                              ; preds = %126
  %133 = call i8* @_Znwm(i64 64) #12, !noalias !35
  %134 = getelementptr inbounds i8, i8* %133, i64 32
  %135 = bitcast i8* %134 to i64*
  store i64 %11, i64* %135, align 8, !noalias !35
  %136 = getelementptr inbounds i8, i8* %133, i64 48
  %137 = getelementptr inbounds i8, i8* %133, i64 40
  call void @llvm.memset.p0i8.i64(i8* align 8 %136, i8 0, i64 16, i1 false) #10, !noalias !35
  %138 = bitcast i8* %137 to i8**
  store i8* %136, i8** %138, align 8, !noalias !35
  %139 = bitcast i8* %133 to %"class.std::__1::__tree_node.602"*
  %140 = bitcast i8* %133 to %"class.std::__1::__tree_node_base"*
  %141 = getelementptr inbounds i8, i8* %133, i64 16
  %142 = bitcast i8* %141 to %"class.std::__1::__tree_end_node"**
  call void @llvm.memset.p0i8.i64(i8* nonnull align 8 %133, i8 0, i64 16, i1 false) #10
  store %"class.std::__1::__tree_end_node"* %127, %"class.std::__1::__tree_end_node"** %142, align 8
  %143 = bitcast %"class.std::__1::__tree_node_base"** %128 to i8**
  store i8* %133, i8** %143, align 8
  %144 = getelementptr inbounds %"class.std::__1::map", %"class.std::__1::map"* %12, i64 0, i32 0, i32 0
  %145 = load %"class.std::__1::__tree_end_node"*, %"class.std::__1::__tree_end_node"** %144, align 8
  %146 = getelementptr inbounds %"class.std::__1::__tree_end_node", %"class.std::__1::__tree_end_node"* %145, i64 0, i32 0
  %147 = load %"class.std::__1::__tree_node_base"*, %"class.std::__1::__tree_node_base"** %146, align 8
  %148 = icmp eq %"class.std::__1::__tree_node_base"* %147, null
  br i1 %148, label %153, label %149

149:                                              ; preds = %132
  %150 = ptrtoint %"class.std::__1::__tree_node_base"* %147 to i64
  %151 = bitcast %"class.std::__1::map"* %12 to i64*
  store i64 %150, i64* %151, align 8
  %152 = load %"class.std::__1::__tree_node_base"*, %"class.std::__1::__tree_node_base"** %128, align 8
  br label %153

153:                                              ; preds = %149, %132
  %154 = phi %"class.std::__1::__tree_node_base"* [ %140, %132 ], [ %152, %149 ]
  %155 = getelementptr inbounds %class.MediaFileSystemRegistry, %class.MediaFileSystemRegistry* %0, i64 0, i32 2, i32 0, i32 1, i32 0, i32 0, i32 0
  %156 = load %"class.std::__1::__tree_node_base"*, %"class.std::__1::__tree_node_base"** %155, align 8
  call void @_ZNSt3__127__tree_balance_after_insertIPNS_16__tree_node_baseIPvEEEEvT_S5_(%"class.std::__1::__tree_node_base"* %156, %"class.std::__1::__tree_node_base"* %154) #10
  %157 = getelementptr inbounds %class.MediaFileSystemRegistry, %class.MediaFileSystemRegistry* %0, i64 0, i32 2, i32 0, i32 2, i32 0, i32 0
  %158 = load i64, i64* %157, align 8
  %159 = add i64 %158, 1
  store i64 %159, i64* %157, align 8
  br label %160

160:                                              ; preds = %126, %153
  %161 = phi %"class.std::__1::__tree_node.602"* [ %139, %153 ], [ %130, %126 ]
  %162 = getelementptr inbounds %"class.std::__1::__tree_node.602", %"class.std::__1::__tree_node.602"* %161, i64 0, i32 1, i32 0, i32 1, i32 0
  %163 = bitcast %"class.std::__1::tuple.685"* %7 to i8*
  call void @llvm.lifetime.start.p0i8(i64 8, i8* nonnull %163) #10
  %164 = getelementptr inbounds %"class.std::__1::tuple.685", %"class.std::__1::tuple.685"* %7, i64 0, i32 0, i32 0, i32 0
  store %"class.std::__1::basic_string.1"* %3, %"class.std::__1::basic_string.1"** %164, align 8
  %165 = getelementptr inbounds %"class.std::__1::tuple.455", %"class.std::__1::tuple.455"* %8, i64 0, i32 0
  call void @llvm.lifetime.start.p0i8(i64 1, i8* nonnull %165) #10
  %166 = call { %"class.std::__1::__tree_end_node"*, i8 } @_ZNSt3__16__treeINS_12__value_typeINS_12basic_stringIcNS_11char_traitsIcEENS_9allocatorIcEEEE13scoped_refptrI22ExtensionGalleriesHostEEENS_19__map_value_compareIS7_SB_NS_4lessIS7_EELb1EEENS5_ISB_EEE25__emplace_unique_key_argsIS7_JRKNS_21piecewise_construct_tENS_5tupleIJRKS7_EEENSM_IJEEEEEENS_4pairINS_15__tree_iteratorISB_PNS_11__tree_nodeISB_PvEElEEbEERKT_DpOT0_(%"class.std::__1::__tree.313"* %162, %"class.std::__1::basic_string.1"* dereferenceable(24) %3, %"struct.std::__1::piecewise_construct_t"* nonnull dereferenceable(1) @_ZNSt3__1L19piecewise_constructE, %"class.std::__1::tuple.685"* nonnull dereferenceable(8) %7, %"class.std::__1::tuple.455"* nonnull dereferenceable(1) %8) #10
  %167 = extractvalue { %"class.std::__1::__tree_end_node"*, i8 } %166, 0
  %168 = getelementptr inbounds %"class.std::__1::__tree_end_node", %"class.std::__1::__tree_end_node"* %167, i64 7
  call void @llvm.lifetime.end.p0i8(i64 1, i8* nonnull %165) #10
  call void @llvm.lifetime.end.p0i8(i64 8, i8* nonnull %163) #10
  %169 = getelementptr inbounds i8, i8* %60, i64 8
  %170 = bitcast i8* %169 to i32*
  %171 = atomicrmw add i32* %170, i32 1 monotonic
  %172 = ptrtoint i8* %60 to i64
  %173 = bitcast %"class.std::__1::__tree_end_node"* %168 to i64*
  %174 = bitcast %"class.std::__1::__tree_end_node"* %168 to %class.ExtensionGalleriesHost**
  %175 = load %class.ExtensionGalleriesHost*, %class.ExtensionGalleriesHost** %174, align 8
  store i64 %172, i64* %173, align 8
  %176 = icmp eq %class.ExtensionGalleriesHost* %175, null
  br i1 %176, label %189, label %177

177:                                              ; preds = %160
  %178 = getelementptr inbounds %class.ExtensionGalleriesHost, %class.ExtensionGalleriesHost* %175, i64 0, i32 1
  %179 = getelementptr inbounds %"class.base::RefCountedThreadSafe.288", %"class.base::RefCountedThreadSafe.288"* %178, i64 0, i32 0, i32 0, i32 0, i32 0, i32 0, i32 0, i32 0, i32 0
  %180 = atomicrmw sub i32* %179, i32 1 acq_rel
  %181 = icmp eq i32 %180, 1
  br i1 %181, label %182, label %189

182:                                              ; preds = %177
  %183 = getelementptr inbounds %"class.base::RefCountedThreadSafe.288", %"class.base::RefCountedThreadSafe.288"* %178, i64 -2
  %184 = bitcast %"class.base::RefCountedThreadSafe.288"* %183 to %class.ExtensionGalleriesHost*
  %185 = bitcast %"class.base::RefCountedThreadSafe.288"* %183 to void (%class.ExtensionGalleriesHost*)***
  %186 = load void (%class.ExtensionGalleriesHost*)**, void (%class.ExtensionGalleriesHost*)*** %185, align 8
  %187 = getelementptr inbounds void (%class.ExtensionGalleriesHost*)*, void (%class.ExtensionGalleriesHost*)** %186, i64 1
  %188 = load void (%class.ExtensionGalleriesHost*)*, void (%class.ExtensionGalleriesHost*)** %187, align 8
  call void %188(%class.ExtensionGalleriesHost* nonnull %184) #10
  br label %189

189:                                              ; preds = %182, %177, %160, %48
  %190 = phi %class.ExtensionGalleriesHost* [ %57, %48 ], [ %61, %160 ], [ %61, %177 ], [ %61, %182 ]
  ret %class.ExtensionGalleriesHost* %190
}

declare dereferenceable(24) %"class.std::__1::basic_string.1"* @_ZNK10extensions9Extension2idEv(%"class.extensions::Extension"*) local_unnamed_addr #1

; Function Attrs: nounwind ssp uwtable
define linkonce_odr hidden void @_ZN22ExtensionGalleriesHost24ReferenceFromWebContentsEPN7content11WebContentsE(%class.ExtensionGalleriesHost*, %"class.content::WebContents"*) local_unnamed_addr #0 comdat align 2 {
  %3 = getelementptr inbounds %class.ExtensionGalleriesHost, %class.ExtensionGalleriesHost* %0, i64 0, i32 7
  %4 = bitcast %"class.content::WebContents"* %1 to %"class.content::RenderFrameHost"* (%"class.content::WebContents"*)***
  %5 = load %"class.content::RenderFrameHost"* (%"class.content::WebContents"*)**, %"class.content::RenderFrameHost"* (%"class.content::WebContents"*)*** %4, align 8
  %6 = getelementptr inbounds %"class.content::RenderFrameHost"* (%"class.content::WebContents"*)*, %"class.content::RenderFrameHost"* (%"class.content::WebContents"*)** %5, i64 10
  %7 = load %"class.content::RenderFrameHost"* (%"class.content::WebContents"*)*, %"class.content::RenderFrameHost"* (%"class.content::WebContents"*)** %6, align 8
  %8 = tail call %"class.content::RenderFrameHost"* %7(%"class.content::WebContents"* %1) #10
  %9 = bitcast %"class.content::RenderFrameHost"* %8 to %"class.content::RenderProcessHost"* (%"class.content::RenderFrameHost"*)***
  %10 = load %"class.content::RenderProcessHost"* (%"class.content::RenderFrameHost"*)**, %"class.content::RenderProcessHost"* (%"class.content::RenderFrameHost"*)*** %9, align 8
  %11 = getelementptr inbounds %"class.content::RenderProcessHost"* (%"class.content::RenderFrameHost"*)*, %"class.content::RenderProcessHost"* (%"class.content::RenderFrameHost"*)** %10, i64 14
  %12 = load %"class.content::RenderProcessHost"* (%"class.content::RenderFrameHost"*)*, %"class.content::RenderProcessHost"* (%"class.content::RenderFrameHost"*)** %11, align 8
  %13 = tail call %"class.content::RenderProcessHost"* %12(%"class.content::RenderFrameHost"* %8) #10
  %14 = ptrtoint %"class.content::RenderProcessHost"* %13 to i64
  %15 = getelementptr inbounds %class.ExtensionGalleriesHost, %class.ExtensionGalleriesHost* %0, i64 0, i32 7, i32 2
  %16 = getelementptr inbounds %class.ExtensionGalleriesHost, %class.ExtensionGalleriesHost* %0, i64 0, i32 7, i32 2, i32 0, i32 1, i32 0, i32 0
  %17 = bitcast %"class.std::__1::__tree_end_node"* %16 to %"class.std::__1::__tree_node"**
  %18 = load %"class.std::__1::__tree_node"*, %"class.std::__1::__tree_node"** %17, align 8
  %19 = icmp eq %"class.std::__1::__tree_node"* %18, null
  br i1 %19, label %41, label %20

20:                                               ; preds = %2, %20
  %21 = phi %"class.std::__1::__tree_end_node"* [ %31, %20 ], [ %16, %2 ]
  %22 = phi %"class.std::__1::__tree_node"* [ %32, %20 ], [ %18, %2 ]
  %23 = getelementptr inbounds %"class.std::__1::__tree_node", %"class.std::__1::__tree_node"* %22, i64 0, i32 1, i32 0, i32 0
  %24 = load %"class.content::RenderProcessHost"*, %"class.content::RenderProcessHost"** %23, align 8
  %25 = icmp ult %"class.content::RenderProcessHost"* %24, %13
  %26 = getelementptr inbounds %"class.std::__1::__tree_node", %"class.std::__1::__tree_node"* %22, i64 0, i32 0, i32 1
  %27 = bitcast %"class.std::__1::__tree_node_base"** %26 to %"class.std::__1::__tree_node"**
  %28 = getelementptr inbounds %"class.std::__1::__tree_node", %"class.std::__1::__tree_node"* %22, i64 0, i32 0, i32 0
  %29 = bitcast %"class.std::__1::__tree_node"* %22 to %"class.std::__1::__tree_node"**
  %30 = select i1 %25, %"class.std::__1::__tree_node"** %27, %"class.std::__1::__tree_node"** %29
  %31 = select i1 %25, %"class.std::__1::__tree_end_node"* %21, %"class.std::__1::__tree_end_node"* %28
  %32 = load %"class.std::__1::__tree_node"*, %"class.std::__1::__tree_node"** %30, align 8
  %33 = icmp eq %"class.std::__1::__tree_node"* %32, null
  br i1 %33, label %34, label %20

34:                                               ; preds = %20
  %35 = icmp eq %"class.std::__1::__tree_end_node"* %31, %16
  br i1 %35, label %41, label %36

36:                                               ; preds = %34
  %37 = getelementptr inbounds %"class.std::__1::__tree_end_node", %"class.std::__1::__tree_end_node"* %31, i64 4
  %38 = bitcast %"class.std::__1::__tree_end_node"* %37 to %"class.content::RenderProcessHost"**
  %39 = load %"class.content::RenderProcessHost"*, %"class.content::RenderProcessHost"** %38, align 8
  %40 = icmp ult %"class.content::RenderProcessHost"* %13, %39
  br i1 %40, label %41, label %136

41:                                               ; preds = %36, %34, %2
  %42 = ptrtoint %"class.(anonymous namespace)::RPHReferenceManager"* %3 to i64
  %43 = tail call i8* @_Znwm(i64 64) #12
  %44 = bitcast i8* %43 to %"class.content::RenderProcessHostObserver"*
  %45 = bitcast i8* %43 to %"class.base::CheckedObserver"*
  tail call void @_ZN4base15CheckedObserverC2Ev(%"class.base::CheckedObserver"* nonnull %45) #10
  %46 = bitcast i8* %43 to i32 (...)***
  store i32 (...)** bitcast (i8** getelementptr inbounds ({ [7 x i8*] }, { [7 x i8*] }* @_ZTVN12_GLOBAL__N_119RPHReferenceManager11RPHObserverE, i64 0, inrange i32 0, i64 2) to i32 (...)**), i32 (...)*** %46, align 8
  %47 = getelementptr inbounds i8, i8* %43, i64 24
  %48 = bitcast i8* %47 to i64*
  store i64 %42, i64* %48, align 8
  %49 = getelementptr inbounds i8, i8* %43, i64 32
  %50 = bitcast i8* %49 to %"class.content::RenderProcessHost"**
  store %"class.content::RenderProcessHost"* %13, %"class.content::RenderProcessHost"** %50, align 8
  %51 = getelementptr inbounds i8, i8* %43, i64 48
  %52 = getelementptr inbounds i8, i8* %43, i64 40
  tail call void @llvm.memset.p0i8.i64(i8* align 8 %51, i8 0, i64 16, i1 false) #10
  %53 = bitcast i8* %52 to i8**
  store i8* %51, i8** %53, align 8
  %54 = bitcast %"class.content::RenderProcessHost"* %13 to void (%"class.content::RenderProcessHost"*, %"class.content::RenderProcessHostObserver"*)***
  %55 = load void (%"class.content::RenderProcessHost"*, %"class.content::RenderProcessHostObserver"*)**, void (%"class.content::RenderProcessHost"*, %"class.content::RenderProcessHostObserver"*)*** %54, align 8
  %56 = getelementptr inbounds void (%"class.content::RenderProcessHost"*, %"class.content::RenderProcessHostObserver"*)*, void (%"class.content::RenderProcessHost"*, %"class.content::RenderProcessHostObserver"*)** %55, i64 8
  %57 = load void (%"class.content::RenderProcessHost"*, %"class.content::RenderProcessHostObserver"*)*, void (%"class.content::RenderProcessHost"*, %"class.content::RenderProcessHostObserver"*)** %56, align 8
  tail call void %57(%"class.content::RenderProcessHost"* %13, %"class.content::RenderProcessHostObserver"* nonnull %44) #10
  %58 = ptrtoint i8* %43 to i64
  %59 = load %"class.std::__1::__tree_node"*, %"class.std::__1::__tree_node"** %17, align 8
  %60 = icmp eq %"class.std::__1::__tree_node"* %59, null
  br i1 %60, label %89, label %61

61:                                               ; preds = %41
  %62 = getelementptr inbounds %class.ExtensionGalleriesHost, %class.ExtensionGalleriesHost* %0, i64 0, i32 7, i32 2, i32 0, i32 1, i32 0, i32 0, i32 0
  br label %63

63:                                               ; preds = %85, %61
  %64 = phi %"class.std::__1::__tree_node"* [ %88, %85 ], [ %59, %61 ]
  %65 = phi %"class.std::__1::__tree_node_base"** [ %87, %85 ], [ %62, %61 ]
  %66 = getelementptr inbounds %"class.std::__1::__tree_node", %"class.std::__1::__tree_node"* %64, i64 0, i32 1, i32 0, i32 0
  %67 = load %"class.content::RenderProcessHost"*, %"class.content::RenderProcessHost"** %66, align 8
  %68 = icmp ult %"class.content::RenderProcessHost"* %13, %67
  br i1 %68, label %69, label %75

69:                                               ; preds = %63
  %70 = getelementptr inbounds %"class.std::__1::__tree_node", %"class.std::__1::__tree_node"* %64, i64 0, i32 0, i32 0, i32 0
  %71 = load %"class.std::__1::__tree_node_base"*, %"class.std::__1::__tree_node_base"** %70, align 8
  %72 = icmp eq %"class.std::__1::__tree_node_base"* %71, null
  br i1 %72, label %73, label %85

73:                                               ; preds = %69
  %74 = getelementptr inbounds %"class.std::__1::__tree_node", %"class.std::__1::__tree_node"* %64, i64 0, i32 0, i32 0
  br label %91

75:                                               ; preds = %63
  %76 = icmp ult %"class.content::RenderProcessHost"* %67, %13
  br i1 %76, label %77, label %83

77:                                               ; preds = %75
  %78 = getelementptr inbounds %"class.std::__1::__tree_node", %"class.std::__1::__tree_node"* %64, i64 0, i32 0, i32 1
  %79 = load %"class.std::__1::__tree_node_base"*, %"class.std::__1::__tree_node_base"** %78, align 8
  %80 = icmp eq %"class.std::__1::__tree_node_base"* %79, null
  br i1 %80, label %81, label %85

81:                                               ; preds = %77
  %82 = getelementptr inbounds %"class.std::__1::__tree_node", %"class.std::__1::__tree_node"* %64, i64 0, i32 0, i32 0
  br label %91

83:                                               ; preds = %75
  %84 = getelementptr inbounds %"class.std::__1::__tree_node", %"class.std::__1::__tree_node"* %64, i64 0, i32 0, i32 0
  br label %91

85:                                               ; preds = %77, %69
  %86 = phi %"class.std::__1::__tree_node_base"* [ %71, %69 ], [ %79, %77 ]
  %87 = phi %"class.std::__1::__tree_node_base"** [ %70, %69 ], [ %78, %77 ]
  %88 = bitcast %"class.std::__1::__tree_node_base"* %86 to %"class.std::__1::__tree_node"*
  br label %63

89:                                               ; preds = %41
  %90 = getelementptr inbounds %"class.std::__1::__tree_end_node", %"class.std::__1::__tree_end_node"* %16, i64 0, i32 0
  br label %91

91:                                               ; preds = %89, %83, %81, %73
  %92 = phi %"class.std::__1::__tree_end_node"* [ %16, %89 ], [ %74, %73 ], [ %82, %81 ], [ %84, %83 ]
  %93 = phi %"class.std::__1::__tree_node_base"** [ %90, %89 ], [ %70, %73 ], [ %78, %81 ], [ %65, %83 ]
  %94 = bitcast %"class.std::__1::__tree_node_base"** %93 to %"class.std::__1::__tree_node"**
  %95 = load %"class.std::__1::__tree_node"*, %"class.std::__1::__tree_node"** %94, align 8
  %96 = icmp eq %"class.std::__1::__tree_node"* %95, null
  br i1 %96, label %97, label %124

97:                                               ; preds = %91
  %98 = tail call i8* @_Znwm(i64 48) #12, !noalias !38
  %99 = getelementptr inbounds i8, i8* %98, i64 32
  %100 = bitcast i8* %99 to i64*
  store i64 %14, i64* %100, align 8, !noalias !38
  %101 = getelementptr inbounds i8, i8* %98, i64 40
  %102 = bitcast i8* %101 to i64*
  store i64 0, i64* %102, align 8, !noalias !38
  %103 = bitcast i8* %98 to %"class.std::__1::__tree_node"*
  %104 = bitcast i8* %98 to %"class.std::__1::__tree_node_base"*
  %105 = getelementptr inbounds i8, i8* %98, i64 16
  %106 = bitcast i8* %105 to %"class.std::__1::__tree_end_node"**
  tail call void @llvm.memset.p0i8.i64(i8* nonnull align 8 %98, i8 0, i64 16, i1 false) #10
  store %"class.std::__1::__tree_end_node"* %92, %"class.std::__1::__tree_end_node"** %106, align 8
  %107 = bitcast %"class.std::__1::__tree_node_base"** %93 to i8**
  store i8* %98, i8** %107, align 8
  %108 = getelementptr inbounds %"class.std::__1::map.298", %"class.std::__1::map.298"* %15, i64 0, i32 0, i32 0
  %109 = load %"class.std::__1::__tree_end_node"*, %"class.std::__1::__tree_end_node"** %108, align 8
  %110 = getelementptr inbounds %"class.std::__1::__tree_end_node", %"class.std::__1::__tree_end_node"* %109, i64 0, i32 0
  %111 = load %"class.std::__1::__tree_node_base"*, %"class.std::__1::__tree_node_base"** %110, align 8
  %112 = icmp eq %"class.std::__1::__tree_node_base"* %111, null
  br i1 %112, label %117, label %113

113:                                              ; preds = %97
  %114 = ptrtoint %"class.std::__1::__tree_node_base"* %111 to i64
  %115 = bitcast %"class.std::__1::map.298"* %15 to i64*
  store i64 %114, i64* %115, align 8
  %116 = load %"class.std::__1::__tree_node_base"*, %"class.std::__1::__tree_node_base"** %93, align 8
  br label %117

117:                                              ; preds = %113, %97
  %118 = phi %"class.std::__1::__tree_node_base"* [ %104, %97 ], [ %116, %113 ]
  %119 = getelementptr inbounds %class.ExtensionGalleriesHost, %class.ExtensionGalleriesHost* %0, i64 0, i32 7, i32 2, i32 0, i32 1, i32 0, i32 0, i32 0
  %120 = load %"class.std::__1::__tree_node_base"*, %"class.std::__1::__tree_node_base"** %119, align 8
  tail call void @_ZNSt3__127__tree_balance_after_insertIPNS_16__tree_node_baseIPvEEEEvT_S5_(%"class.std::__1::__tree_node_base"* %120, %"class.std::__1::__tree_node_base"* %118) #10
  %121 = getelementptr inbounds %class.ExtensionGalleriesHost, %class.ExtensionGalleriesHost* %0, i64 0, i32 7, i32 2, i32 0, i32 2, i32 0, i32 0
  %122 = load i64, i64* %121, align 8
  %123 = add i64 %122, 1
  store i64 %123, i64* %121, align 8
  br label %124

124:                                              ; preds = %117, %91
  %125 = phi %"class.std::__1::__tree_node"* [ %103, %117 ], [ %95, %91 ]
  %126 = getelementptr inbounds %"class.std::__1::__tree_node", %"class.std::__1::__tree_node"* %125, i64 0, i32 1, i32 0, i32 1
  %127 = getelementptr inbounds %"class.std::__1::unique_ptr.419", %"class.std::__1::unique_ptr.419"* %126, i64 0, i32 0, i32 0, i32 0
  %128 = load %"class.(anonymous namespace)::RPHReferenceManager::RPHObserver"*, %"class.(anonymous namespace)::RPHReferenceManager::RPHObserver"** %127, align 8
  %129 = bitcast %"class.std::__1::unique_ptr.419"* %126 to i64*
  store i64 %58, i64* %129, align 8
  %130 = icmp eq %"class.(anonymous namespace)::RPHReferenceManager::RPHObserver"* %128, null
  br i1 %130, label %136, label %131

131:                                              ; preds = %124
  %132 = bitcast %"class.(anonymous namespace)::RPHReferenceManager::RPHObserver"* %128 to void (%"class.(anonymous namespace)::RPHReferenceManager::RPHObserver"*)***
  %133 = load void (%"class.(anonymous namespace)::RPHReferenceManager::RPHObserver"*)**, void (%"class.(anonymous namespace)::RPHReferenceManager::RPHObserver"*)*** %132, align 8
  %134 = getelementptr inbounds void (%"class.(anonymous namespace)::RPHReferenceManager::RPHObserver"*)*, void (%"class.(anonymous namespace)::RPHReferenceManager::RPHObserver"*)** %133, i64 1
  %135 = load void (%"class.(anonymous namespace)::RPHReferenceManager::RPHObserver"*)*, void (%"class.(anonymous namespace)::RPHReferenceManager::RPHObserver"*)** %134, align 8
  tail call void %135(%"class.(anonymous namespace)::RPHReferenceManager::RPHObserver"* nonnull %128) #10
  br label %136

136:                                              ; preds = %131, %124, %36
  %137 = load %"class.std::__1::__tree_node"*, %"class.std::__1::__tree_node"** %17, align 8
  %138 = icmp eq %"class.std::__1::__tree_node"* %137, null
  br i1 %138, label %167, label %139

139:                                              ; preds = %136
  %140 = getelementptr inbounds %class.ExtensionGalleriesHost, %class.ExtensionGalleriesHost* %0, i64 0, i32 7, i32 2, i32 0, i32 1, i32 0, i32 0, i32 0
  br label %141

141:                                              ; preds = %163, %139
  %142 = phi %"class.std::__1::__tree_node"* [ %166, %163 ], [ %137, %139 ]
  %143 = phi %"class.std::__1::__tree_node_base"** [ %165, %163 ], [ %140, %139 ]
  %144 = getelementptr inbounds %"class.std::__1::__tree_node", %"class.std::__1::__tree_node"* %142, i64 0, i32 1, i32 0, i32 0
  %145 = load %"class.content::RenderProcessHost"*, %"class.content::RenderProcessHost"** %144, align 8
  %146 = icmp ult %"class.content::RenderProcessHost"* %13, %145
  br i1 %146, label %147, label %153

147:                                              ; preds = %141
  %148 = getelementptr inbounds %"class.std::__1::__tree_node", %"class.std::__1::__tree_node"* %142, i64 0, i32 0, i32 0, i32 0
  %149 = load %"class.std::__1::__tree_node_base"*, %"class.std::__1::__tree_node_base"** %148, align 8
  %150 = icmp eq %"class.std::__1::__tree_node_base"* %149, null
  br i1 %150, label %151, label %163

151:                                              ; preds = %147
  %152 = getelementptr inbounds %"class.std::__1::__tree_node", %"class.std::__1::__tree_node"* %142, i64 0, i32 0, i32 0
  br label %169

153:                                              ; preds = %141
  %154 = icmp ult %"class.content::RenderProcessHost"* %145, %13
  br i1 %154, label %155, label %161

155:                                              ; preds = %153
  %156 = getelementptr inbounds %"class.std::__1::__tree_node", %"class.std::__1::__tree_node"* %142, i64 0, i32 0, i32 1
  %157 = load %"class.std::__1::__tree_node_base"*, %"class.std::__1::__tree_node_base"** %156, align 8
  %158 = icmp eq %"class.std::__1::__tree_node_base"* %157, null
  br i1 %158, label %159, label %163

159:                                              ; preds = %155
  %160 = getelementptr inbounds %"class.std::__1::__tree_node", %"class.std::__1::__tree_node"* %142, i64 0, i32 0, i32 0
  br label %169

161:                                              ; preds = %153
  %162 = getelementptr inbounds %"class.std::__1::__tree_node", %"class.std::__1::__tree_node"* %142, i64 0, i32 0, i32 0
  br label %169

163:                                              ; preds = %155, %147
  %164 = phi %"class.std::__1::__tree_node_base"* [ %149, %147 ], [ %157, %155 ]
  %165 = phi %"class.std::__1::__tree_node_base"** [ %148, %147 ], [ %156, %155 ]
  %166 = bitcast %"class.std::__1::__tree_node_base"* %164 to %"class.std::__1::__tree_node"*
  br label %141

167:                                              ; preds = %136
  %168 = getelementptr inbounds %"class.std::__1::__tree_end_node", %"class.std::__1::__tree_end_node"* %16, i64 0, i32 0
  br label %169

169:                                              ; preds = %167, %161, %159, %151
  %170 = phi %"class.std::__1::__tree_end_node"* [ %16, %167 ], [ %152, %151 ], [ %160, %159 ], [ %162, %161 ]
  %171 = phi %"class.std::__1::__tree_node_base"** [ %168, %167 ], [ %148, %151 ], [ %156, %159 ], [ %143, %161 ]
  %172 = bitcast %"class.std::__1::__tree_node_base"** %171 to %"class.std::__1::__tree_node"**
  %173 = load %"class.std::__1::__tree_node"*, %"class.std::__1::__tree_node"** %172, align 8
  %174 = icmp eq %"class.std::__1::__tree_node"* %173, null
  br i1 %174, label %175, label %202

175:                                              ; preds = %169
  %176 = tail call i8* @_Znwm(i64 48) #12, !noalias !41
  %177 = getelementptr inbounds i8, i8* %176, i64 32
  %178 = bitcast i8* %177 to i64*
  store i64 %14, i64* %178, align 8, !noalias !41
  %179 = getelementptr inbounds i8, i8* %176, i64 40
  %180 = bitcast i8* %179 to i64*
  store i64 0, i64* %180, align 8, !noalias !41
  %181 = bitcast i8* %176 to %"class.std::__1::__tree_node"*
  %182 = bitcast i8* %176 to %"class.std::__1::__tree_node_base"*
  %183 = getelementptr inbounds i8, i8* %176, i64 16
  %184 = bitcast i8* %183 to %"class.std::__1::__tree_end_node"**
  tail call void @llvm.memset.p0i8.i64(i8* nonnull align 8 %176, i8 0, i64 16, i1 false) #10
  store %"class.std::__1::__tree_end_node"* %170, %"class.std::__1::__tree_end_node"** %184, align 8
  %185 = bitcast %"class.std::__1::__tree_node_base"** %171 to i8**
  store i8* %176, i8** %185, align 8
  %186 = getelementptr inbounds %"class.std::__1::map.298", %"class.std::__1::map.298"* %15, i64 0, i32 0, i32 0
  %187 = load %"class.std::__1::__tree_end_node"*, %"class.std::__1::__tree_end_node"** %186, align 8
  %188 = getelementptr inbounds %"class.std::__1::__tree_end_node", %"class.std::__1::__tree_end_node"* %187, i64 0, i32 0
  %189 = load %"class.std::__1::__tree_node_base"*, %"class.std::__1::__tree_node_base"** %188, align 8
  %190 = icmp eq %"class.std::__1::__tree_node_base"* %189, null
  br i1 %190, label %195, label %191

191:                                              ; preds = %175
  %192 = ptrtoint %"class.std::__1::__tree_node_base"* %189 to i64
  %193 = bitcast %"class.std::__1::map.298"* %15 to i64*
  store i64 %192, i64* %193, align 8
  %194 = load %"class.std::__1::__tree_node_base"*, %"class.std::__1::__tree_node_base"** %171, align 8
  br label %195

195:                                              ; preds = %191, %175
  %196 = phi %"class.std::__1::__tree_node_base"* [ %182, %175 ], [ %194, %191 ]
  %197 = getelementptr inbounds %class.ExtensionGalleriesHost, %class.ExtensionGalleriesHost* %0, i64 0, i32 7, i32 2, i32 0, i32 1, i32 0, i32 0, i32 0
  %198 = load %"class.std::__1::__tree_node_base"*, %"class.std::__1::__tree_node_base"** %197, align 8
  tail call void @_ZNSt3__127__tree_balance_after_insertIPNS_16__tree_node_baseIPvEEEEvT_S5_(%"class.std::__1::__tree_node_base"* %198, %"class.std::__1::__tree_node_base"* %196) #10
  %199 = getelementptr inbounds %class.ExtensionGalleriesHost, %class.ExtensionGalleriesHost* %0, i64 0, i32 7, i32 2, i32 0, i32 2, i32 0, i32 0
  %200 = load i64, i64* %199, align 8
  %201 = add i64 %200, 1
  store i64 %201, i64* %199, align 8
  br label %202

202:                                              ; preds = %195, %169
  %203 = phi %"class.std::__1::__tree_node"* [ %181, %195 ], [ %173, %169 ]
  %204 = getelementptr inbounds %"class.std::__1::__tree_node", %"class.std::__1::__tree_node"* %203, i64 0, i32 1, i32 0, i32 1, i32 0, i32 0, i32 0
  %205 = load %"class.(anonymous namespace)::RPHReferenceManager::RPHObserver"*, %"class.(anonymous namespace)::RPHReferenceManager::RPHObserver"** %204, align 8
  %206 = ptrtoint %"class.content::WebContents"* %1 to i64
  %207 = getelementptr inbounds %"class.(anonymous namespace)::RPHReferenceManager::RPHObserver", %"class.(anonymous namespace)::RPHReferenceManager::RPHObserver"* %205, i64 0, i32 3
  %208 = getelementptr inbounds %"class.(anonymous namespace)::RPHReferenceManager::RPHObserver", %"class.(anonymous namespace)::RPHReferenceManager::RPHObserver"* %205, i64 0, i32 3, i32 0, i32 1, i32 0, i32 0
  %209 = bitcast %"class.std::__1::__tree_end_node"* %208 to %"class.std::__1::__tree_node.442"**
  %210 = load %"class.std::__1::__tree_node.442"*, %"class.std::__1::__tree_node.442"** %209, align 8
  %211 = icmp eq %"class.std::__1::__tree_node.442"* %210, null
  br i1 %211, label %233, label %212

212:                                              ; preds = %202, %212
  %213 = phi %"class.std::__1::__tree_end_node"* [ %223, %212 ], [ %208, %202 ]
  %214 = phi %"class.std::__1::__tree_node.442"* [ %224, %212 ], [ %210, %202 ]
  %215 = getelementptr inbounds %"class.std::__1::__tree_node.442", %"class.std::__1::__tree_node.442"* %214, i64 0, i32 1, i32 0, i32 0
  %216 = load %"class.content::WebContents"*, %"class.content::WebContents"** %215, align 8
  %217 = icmp ult %"class.content::WebContents"* %216, %1
  %218 = getelementptr inbounds %"class.std::__1::__tree_node.442", %"class.std::__1::__tree_node.442"* %214, i64 0, i32 0, i32 1
  %219 = bitcast %"class.std::__1::__tree_node_base"** %218 to %"class.std::__1::__tree_node.442"**
  %220 = getelementptr inbounds %"class.std::__1::__tree_node.442", %"class.std::__1::__tree_node.442"* %214, i64 0, i32 0, i32 0
  %221 = bitcast %"class.std::__1::__tree_node.442"* %214 to %"class.std::__1::__tree_node.442"**
  %222 = select i1 %217, %"class.std::__1::__tree_node.442"** %219, %"class.std::__1::__tree_node.442"** %221
  %223 = select i1 %217, %"class.std::__1::__tree_end_node"* %213, %"class.std::__1::__tree_end_node"* %220
  %224 = load %"class.std::__1::__tree_node.442"*, %"class.std::__1::__tree_node.442"** %222, align 8
  %225 = icmp eq %"class.std::__1::__tree_node.442"* %224, null
  br i1 %225, label %226, label %212

226:                                              ; preds = %212
  %227 = icmp eq %"class.std::__1::__tree_end_node"* %223, %208
  br i1 %227, label %233, label %228

228:                                              ; preds = %226
  %229 = getelementptr inbounds %"class.std::__1::__tree_end_node", %"class.std::__1::__tree_end_node"* %223, i64 4
  %230 = bitcast %"class.std::__1::__tree_end_node"* %229 to %"class.content::WebContents"**
  %231 = load %"class.content::WebContents"*, %"class.content::WebContents"** %230, align 8
  %232 = icmp ugt %"class.content::WebContents"* %231, %1
  br i1 %232, label %233, label %320

233:                                              ; preds = %228, %226, %202
  %234 = getelementptr inbounds %"class.(anonymous namespace)::RPHReferenceManager::RPHObserver", %"class.(anonymous namespace)::RPHReferenceManager::RPHObserver"* %205, i64 0, i32 1
  %235 = tail call i8* @_Znwm(i64 24) #12
  %236 = bitcast %"class.(anonymous namespace)::RPHReferenceManager"** %234 to i64*
  %237 = load i64, i64* %236, align 8
  %238 = bitcast i8* %235 to %"class.content::WebContentsObserver"*
  tail call void @_ZN7content19WebContentsObserverC2EPNS_11WebContentsE(%"class.content::WebContentsObserver"* nonnull %238, %"class.content::WebContents"* %1) #10
  %239 = bitcast i8* %235 to i32 (...)***
  store i32 (...)** bitcast (i8** getelementptr inbounds ({ [109 x i8*] }, { [109 x i8*] }* @_ZTVN12_GLOBAL__N_119RPHReferenceManager22RPHWebContentsObserverE, i64 0, inrange i32 0, i64 2) to i32 (...)**), i32 (...)*** %239, align 8
  %240 = getelementptr inbounds i8, i8* %235, i64 16
  %241 = bitcast i8* %240 to i64*
  store i64 %237, i64* %241, align 8
  %242 = ptrtoint i8* %235 to i64
  %243 = load %"class.std::__1::__tree_node.442"*, %"class.std::__1::__tree_node.442"** %209, align 8
  %244 = icmp eq %"class.std::__1::__tree_node.442"* %243, null
  br i1 %244, label %273, label %245

245:                                              ; preds = %233
  %246 = getelementptr inbounds %"class.(anonymous namespace)::RPHReferenceManager::RPHObserver", %"class.(anonymous namespace)::RPHReferenceManager::RPHObserver"* %205, i64 0, i32 3, i32 0, i32 1, i32 0, i32 0, i32 0
  br label %247

247:                                              ; preds = %269, %245
  %248 = phi %"class.std::__1::__tree_node.442"* [ %272, %269 ], [ %243, %245 ]
  %249 = phi %"class.std::__1::__tree_node_base"** [ %271, %269 ], [ %246, %245 ]
  %250 = getelementptr inbounds %"class.std::__1::__tree_node.442", %"class.std::__1::__tree_node.442"* %248, i64 0, i32 1, i32 0, i32 0
  %251 = load %"class.content::WebContents"*, %"class.content::WebContents"** %250, align 8
  %252 = icmp ugt %"class.content::WebContents"* %251, %1
  br i1 %252, label %253, label %259

253:                                              ; preds = %247
  %254 = getelementptr inbounds %"class.std::__1::__tree_node.442", %"class.std::__1::__tree_node.442"* %248, i64 0, i32 0, i32 0, i32 0
  %255 = load %"class.std::__1::__tree_node_base"*, %"class.std::__1::__tree_node_base"** %254, align 8
  %256 = icmp eq %"class.std::__1::__tree_node_base"* %255, null
  br i1 %256, label %257, label %269

257:                                              ; preds = %253
  %258 = getelementptr inbounds %"class.std::__1::__tree_node.442", %"class.std::__1::__tree_node.442"* %248, i64 0, i32 0, i32 0
  br label %275

259:                                              ; preds = %247
  %260 = icmp ult %"class.content::WebContents"* %251, %1
  br i1 %260, label %261, label %267

261:                                              ; preds = %259
  %262 = getelementptr inbounds %"class.std::__1::__tree_node.442", %"class.std::__1::__tree_node.442"* %248, i64 0, i32 0, i32 1
  %263 = load %"class.std::__1::__tree_node_base"*, %"class.std::__1::__tree_node_base"** %262, align 8
  %264 = icmp eq %"class.std::__1::__tree_node_base"* %263, null
  br i1 %264, label %265, label %269

265:                                              ; preds = %261
  %266 = getelementptr inbounds %"class.std::__1::__tree_node.442", %"class.std::__1::__tree_node.442"* %248, i64 0, i32 0, i32 0
  br label %275

267:                                              ; preds = %259
  %268 = getelementptr inbounds %"class.std::__1::__tree_node.442", %"class.std::__1::__tree_node.442"* %248, i64 0, i32 0, i32 0
  br label %275

269:                                              ; preds = %261, %253
  %270 = phi %"class.std::__1::__tree_node_base"* [ %255, %253 ], [ %263, %261 ]
  %271 = phi %"class.std::__1::__tree_node_base"** [ %254, %253 ], [ %262, %261 ]
  %272 = bitcast %"class.std::__1::__tree_node_base"* %270 to %"class.std::__1::__tree_node.442"*
  br label %247

273:                                              ; preds = %233
  %274 = getelementptr inbounds %"class.std::__1::__tree_end_node", %"class.std::__1::__tree_end_node"* %208, i64 0, i32 0
  br label %275

275:                                              ; preds = %273, %267, %265, %257
  %276 = phi %"class.std::__1::__tree_end_node"* [ %208, %273 ], [ %258, %257 ], [ %266, %265 ], [ %268, %267 ]
  %277 = phi %"class.std::__1::__tree_node_base"** [ %274, %273 ], [ %254, %257 ], [ %262, %265 ], [ %249, %267 ]
  %278 = bitcast %"class.std::__1::__tree_node_base"** %277 to %"class.std::__1::__tree_node.442"**
  %279 = load %"class.std::__1::__tree_node.442"*, %"class.std::__1::__tree_node.442"** %278, align 8
  %280 = icmp eq %"class.std::__1::__tree_node.442"* %279, null
  br i1 %280, label %281, label %308

281:                                              ; preds = %275
  %282 = tail call i8* @_Znwm(i64 48) #12, !noalias !44
  %283 = getelementptr inbounds i8, i8* %282, i64 32
  %284 = bitcast i8* %283 to i64*
  store i64 %206, i64* %284, align 8, !noalias !44
  %285 = getelementptr inbounds i8, i8* %282, i64 40
  %286 = bitcast i8* %285 to i64*
  store i64 0, i64* %286, align 8, !noalias !44
  %287 = bitcast i8* %282 to %"class.std::__1::__tree_node.442"*
  %288 = bitcast i8* %282 to %"class.std::__1::__tree_node_base"*
  %289 = getelementptr inbounds i8, i8* %282, i64 16
  %290 = bitcast i8* %289 to %"class.std::__1::__tree_end_node"**
  tail call void @llvm.memset.p0i8.i64(i8* nonnull align 8 %282, i8 0, i64 16, i1 false) #10
  store %"class.std::__1::__tree_end_node"* %276, %"class.std::__1::__tree_end_node"** %290, align 8
  %291 = bitcast %"class.std::__1::__tree_node_base"** %277 to i8**
  store i8* %282, i8** %291, align 8
  %292 = getelementptr inbounds %"class.std::__1::map.423", %"class.std::__1::map.423"* %207, i64 0, i32 0, i32 0
  %293 = load %"class.std::__1::__tree_end_node"*, %"class.std::__1::__tree_end_node"** %292, align 8
  %294 = getelementptr inbounds %"class.std::__1::__tree_end_node", %"class.std::__1::__tree_end_node"* %293, i64 0, i32 0
  %295 = load %"class.std::__1::__tree_node_base"*, %"class.std::__1::__tree_node_base"** %294, align 8
  %296 = icmp eq %"class.std::__1::__tree_node_base"* %295, null
  br i1 %296, label %301, label %297

297:                                              ; preds = %281
  %298 = ptrtoint %"class.std::__1::__tree_node_base"* %295 to i64
  %299 = bitcast %"class.std::__1::map.423"* %207 to i64*
  store i64 %298, i64* %299, align 8
  %300 = load %"class.std::__1::__tree_node_base"*, %"class.std::__1::__tree_node_base"** %277, align 8
  br label %301

301:                                              ; preds = %297, %281
  %302 = phi %"class.std::__1::__tree_node_base"* [ %288, %281 ], [ %300, %297 ]
  %303 = getelementptr inbounds %"class.(anonymous namespace)::RPHReferenceManager::RPHObserver", %"class.(anonymous namespace)::RPHReferenceManager::RPHObserver"* %205, i64 0, i32 3, i32 0, i32 1, i32 0, i32 0, i32 0
  %304 = load %"class.std::__1::__tree_node_base"*, %"class.std::__1::__tree_node_base"** %303, align 8
  tail call void @_ZNSt3__127__tree_balance_after_insertIPNS_16__tree_node_baseIPvEEEEvT_S5_(%"class.std::__1::__tree_node_base"* %304, %"class.std::__1::__tree_node_base"* %302) #10
  %305 = getelementptr inbounds %"class.(anonymous namespace)::RPHReferenceManager::RPHObserver", %"class.(anonymous namespace)::RPHReferenceManager::RPHObserver"* %205, i64 0, i32 3, i32 0, i32 2, i32 0, i32 0
  %306 = load i64, i64* %305, align 8
  %307 = add i64 %306, 1
  store i64 %307, i64* %305, align 8
  br label %308

308:                                              ; preds = %301, %275
  %309 = phi %"class.std::__1::__tree_node.442"* [ %287, %301 ], [ %279, %275 ]
  %310 = getelementptr inbounds %"class.std::__1::__tree_node.442", %"class.std::__1::__tree_node.442"* %309, i64 0, i32 1, i32 0, i32 1
  %311 = getelementptr inbounds %"class.std::__1::unique_ptr.445", %"class.std::__1::unique_ptr.445"* %310, i64 0, i32 0, i32 0, i32 0
  %312 = load %"class.(anonymous namespace)::RPHReferenceManager::RPHWebContentsObserver"*, %"class.(anonymous namespace)::RPHReferenceManager::RPHWebContentsObserver"** %311, align 8
  %313 = bitcast %"class.std::__1::unique_ptr.445"* %310 to i64*
  store i64 %242, i64* %313, align 8
  %314 = icmp eq %"class.(anonymous namespace)::RPHReferenceManager::RPHWebContentsObserver"* %312, null
  br i1 %314, label %320, label %315

315:                                              ; preds = %308
  %316 = bitcast %"class.(anonymous namespace)::RPHReferenceManager::RPHWebContentsObserver"* %312 to void (%"class.(anonymous namespace)::RPHReferenceManager::RPHWebContentsObserver"*)***
  %317 = load void (%"class.(anonymous namespace)::RPHReferenceManager::RPHWebContentsObserver"*)**, void (%"class.(anonymous namespace)::RPHReferenceManager::RPHWebContentsObserver"*)*** %316, align 8
  %318 = getelementptr inbounds void (%"class.(anonymous namespace)::RPHReferenceManager::RPHWebContentsObserver"*)*, void (%"class.(anonymous namespace)::RPHReferenceManager::RPHWebContentsObserver"*)** %317, i64 8
  %319 = load void (%"class.(anonymous namespace)::RPHReferenceManager::RPHWebContentsObserver"*)*, void (%"class.(anonymous namespace)::RPHReferenceManager::RPHWebContentsObserver"*)** %318, align 8
  tail call void %319(%"class.(anonymous namespace)::RPHReferenceManager::RPHWebContentsObserver"* nonnull %312) #10
  br label %320

320:                                              ; preds = %228, %308, %315
  ret void
}

; Function Attrs: nounwind ssp uwtable
define linkonce_odr hidden void @_ZN22ExtensionGalleriesHost19GetMediaFileSystemsERKNSt3__13setImNS0_4lessImEENS0_9allocatorImEEEERKNS0_3mapIm20MediaGalleryPrefInfoS3_NS4_INS0_4pairIKmSA_EEEEEEN4base12OnceCallbackIFvRKNS0_6vectorI19MediaFileSystemInfoNS4_ISL_EEEEEEE(%class.ExtensionGalleriesHost*, %"class.std::__1::set.273"* dereferenceable(24), %"class.std::__1::map.241"* dereferenceable(24), %"class.base::OnceCallback"*) local_unnamed_addr #0 comdat align 2 {
  %5 = alloca %"class.base::OnceCallback.235", align 8
  %6 = alloca <2 x i64>, align 16
  %7 = bitcast <2 x i64>* %6 to { i64, i64 }*
  %8 = alloca %class.ExtensionGalleriesHost*, align 8
  %9 = alloca %"class.base::internal::OwnedWrapper", align 8
  %10 = tail call i8* @_Znwm(i64 24) #12
  %11 = bitcast i8* %10 to %"class.std::__1::set.508"*
  %12 = getelementptr inbounds i8, i8* %10, i64 8
  tail call void @llvm.memset.p0i8.i64(i8* align 8 %12, i8 0, i64 16, i1 false) #10
  %13 = bitcast i8* %10 to i8**
  store i8* %12, i8** %13, align 8
  %14 = getelementptr inbounds %"class.std::__1::set.273", %"class.std::__1::set.273"* %1, i64 0, i32 0, i32 0
  %15 = load %"class.std::__1::__tree_end_node"*, %"class.std::__1::__tree_end_node"** %14, align 8
  %16 = getelementptr inbounds %"class.std::__1::set.273", %"class.std::__1::set.273"* %1, i64 0, i32 0, i32 1, i32 0, i32 0
  %17 = icmp eq %"class.std::__1::__tree_end_node"* %15, %16
  br i1 %17, label %22, label %18

18:                                               ; preds = %4
  %19 = getelementptr inbounds %"class.std::__1::map.241", %"class.std::__1::map.241"* %2, i64 0, i32 0, i32 1, i32 0, i32 0
  %20 = bitcast %"class.std::__1::__tree_end_node"* %19 to %"class.std::__1::__tree_node.543"**
  %21 = bitcast i8* %10 to %"class.std::__1::__tree.509"*
  br label %41

22:                                               ; preds = %103, %4
  %23 = bitcast <2 x i64>* %6 to i8*
  call void @llvm.lifetime.start.p0i8(i64 16, i8* nonnull %23) #10
  store <2 x i64> <i64 ptrtoint (void (%class.ExtensionGalleriesHost*, %"class.std::__1::set.508"*, %"class.std::__1::set.273"*, %"class.std::__1::map.241"*, %"class.base::OnceCallback"*)* @_ZN22ExtensionGalleriesHost37GetMediaFileSystemsForAttachedDevicesEPKNSt3__13setINS0_12basic_stringIcNS0_11char_traitsIcEENS0_9allocatorIcEEEENS0_4lessIS7_EENS5_IS7_EEEERKNS1_ImNS8_ImEENS5_ImEEEERKNS0_3mapIm20MediaGalleryPrefInfoSE_NS5_INS0_4pairIKmSK_EEEEEEN4base12OnceCallbackIFvRKNS0_6vectorI19MediaFileSystemInfoNS5_ISV_EEEEEEE to i64), i64 0>, <2 x i64>* %6, align 16
  %24 = bitcast %class.ExtensionGalleriesHost** %8 to i8*
  call void @llvm.lifetime.start.p0i8(i64 8, i8* nonnull %24) #10
  store %class.ExtensionGalleriesHost* %0, %class.ExtensionGalleriesHost** %8, align 8
  %25 = bitcast %"class.base::internal::OwnedWrapper"* %9 to i8*
  call void @llvm.lifetime.start.p0i8(i64 8, i8* nonnull %25) #10
  %26 = getelementptr inbounds %"class.base::internal::OwnedWrapper", %"class.base::internal::OwnedWrapper"* %9, i64 0, i32 0, i32 0, i32 0, i32 0
  %27 = bitcast %"class.base::internal::OwnedWrapper"* %9 to i8**
  store i8* %10, i8** %27, align 8
  %28 = tail call i8* @_Znwm(i64 120) #12, !noalias !47
  %29 = bitcast i8* %28 to %"struct.base::internal::BindState"*
  call void @_ZN4base8internal9BindStateIM22ExtensionGalleriesHostFvPKNSt3__13setINS3_12basic_stringIcNS3_11char_traitsIcEENS3_9allocatorIcEEEENS3_4lessISA_EENS8_ISA_EEEERKNS4_ImNSB_ImEENS8_ImEEEERKNS3_3mapIm20MediaGalleryPrefInfoSH_NS8_INS3_4pairIKmSN_EEEEEENS_12OnceCallbackIFvRKNS3_6vectorI19MediaFileSystemInfoNS8_ISX_EEEEEEEEJ13scoped_refptrIS2_ENS0_12OwnedWrapperISE_NS3_14default_deleteISE_EEEESJ_SS_S13_EEC2IS15_JPS2_S1B_SL_SU_S13_EEENS3_17integral_constantIbLb0EEEPFvvEOT_DpOT0_(%"struct.base::internal::BindState"* nonnull %29, void ()* bitcast (void (%"class.base::internal::BindStateBase"*)* @_ZN4base8internal7InvokerINS0_9BindStateIM22ExtensionGalleriesHostFvPKNSt3__13setINS4_12basic_stringIcNS4_11char_traitsIcEENS4_9allocatorIcEEEENS4_4lessISB_EENS9_ISB_EEEERKNS5_ImNSC_ImEENS9_ImEEEERKNS4_3mapIm20MediaGalleryPrefInfoSI_NS9_INS4_4pairIKmSO_EEEEEENS_12OnceCallbackIFvRKNS4_6vectorI19MediaFileSystemInfoNS9_ISY_EEEEEEEEJ13scoped_refptrIS3_ENS0_12OwnedWrapperISF_NS4_14default_deleteISF_EEEESK_ST_S14_EEEFvvEE7RunOnceEPNS0_13BindStateBaseE to void ()*), { i64, i64 }* nonnull dereferenceable(16) %7, %class.ExtensionGalleriesHost** nonnull dereferenceable(8) %8, %"class.base::internal::OwnedWrapper"* nonnull dereferenceable(8) %9, %"class.std::__1::set.273"* dereferenceable(24) %1, %"class.std::__1::map.241"* dereferenceable(24) %2, %"class.base::OnceCallback"* dereferenceable(8) %3) #10, !noalias !47
  %30 = bitcast %"class.base::OnceCallback.235"* %5 to i8**
  store i8* %28, i8** %30, align 8, !alias.scope !47
  call void @_ZN15storage_monitor16MediaStorageUtil21FilterAttachedDevicesEPNSt3__13setINS1_12basic_stringIcNS1_11char_traitsIcEENS1_9allocatorIcEEEENS1_4lessIS8_EENS6_IS8_EEEEN4base12OnceCallbackIFvvEEE(%"class.std::__1::set.508"* nonnull %11, %"class.base::OnceCallback.235"* nonnull %5) #10
  %31 = getelementptr inbounds %"class.base::OnceCallback.235", %"class.base::OnceCallback.235"* %5, i64 0, i32 0
  call void @_ZN4base8internal12CallbackBaseD2Ev(%"class.base::internal::CallbackBase"* nonnull %31) #10
  %32 = load %"class.std::__1::set.508"*, %"class.std::__1::set.508"** %26, align 8
  store %"class.std::__1::set.508"* null, %"class.std::__1::set.508"** %26, align 8
  %33 = icmp eq %"class.std::__1::set.508"* %32, null
  br i1 %33, label %40, label %34

34:                                               ; preds = %22
  %35 = getelementptr inbounds %"class.std::__1::set.508", %"class.std::__1::set.508"* %32, i64 0, i32 0
  %36 = getelementptr inbounds %"class.std::__1::set.508", %"class.std::__1::set.508"* %32, i64 0, i32 0, i32 1, i32 0, i32 0
  %37 = bitcast %"class.std::__1::__tree_end_node"* %36 to %"class.std::__1::__tree_node.528"**
  %38 = load %"class.std::__1::__tree_node.528"*, %"class.std::__1::__tree_node.528"** %37, align 8
  call void @_ZNSt3__16__treeINS_12basic_stringIcNS_11char_traitsIcEENS_9allocatorIcEEEENS_4lessIS6_EENS4_IS6_EEE7destroyEPNS_11__tree_nodeIS6_PvEE(%"class.std::__1::__tree.509"* %35, %"class.std::__1::__tree_node.528"* %38) #10
  %39 = bitcast %"class.std::__1::set.508"* %32 to i8*
  call void @_ZdlPv(i8* %39) #12
  br label %40

40:                                               ; preds = %22, %34
  call void @llvm.lifetime.end.p0i8(i64 8, i8* nonnull %25) #10
  call void @llvm.lifetime.end.p0i8(i64 8, i8* nonnull %24) #10
  call void @llvm.lifetime.end.p0i8(i64 16, i8* nonnull %23) #10
  ret void

41:                                               ; preds = %18, %103
  %42 = phi %"class.std::__1::__tree_end_node"* [ %15, %18 ], [ %104, %103 ]
  %43 = load %"class.std::__1::__tree_node.543"*, %"class.std::__1::__tree_node.543"** %20, align 8
  %44 = icmp eq %"class.std::__1::__tree_node.543"* %43, null
  br i1 %44, label %70, label %45

45:                                               ; preds = %41
  %46 = getelementptr inbounds %"class.std::__1::__tree_end_node", %"class.std::__1::__tree_end_node"* %42, i64 4
  %47 = bitcast %"class.std::__1::__tree_end_node"* %46 to i64*
  %48 = load i64, i64* %47, align 8
  br label %49

49:                                               ; preds = %49, %45
  %50 = phi %"class.std::__1::__tree_end_node"* [ %19, %45 ], [ %60, %49 ]
  %51 = phi %"class.std::__1::__tree_node.543"* [ %43, %45 ], [ %61, %49 ]
  %52 = getelementptr inbounds %"class.std::__1::__tree_node.543", %"class.std::__1::__tree_node.543"* %51, i64 0, i32 1, i32 0, i32 0
  %53 = load i64, i64* %52, align 8
  %54 = icmp ult i64 %53, %48
  %55 = getelementptr inbounds %"class.std::__1::__tree_node.543", %"class.std::__1::__tree_node.543"* %51, i64 0, i32 0, i32 1
  %56 = bitcast %"class.std::__1::__tree_node_base"** %55 to %"class.std::__1::__tree_node.543"**
  %57 = getelementptr inbounds %"class.std::__1::__tree_node.543", %"class.std::__1::__tree_node.543"* %51, i64 0, i32 0, i32 0
  %58 = bitcast %"class.std::__1::__tree_node.543"* %51 to %"class.std::__1::__tree_node.543"**
  %59 = select i1 %54, %"class.std::__1::__tree_node.543"** %56, %"class.std::__1::__tree_node.543"** %58
  %60 = select i1 %54, %"class.std::__1::__tree_end_node"* %50, %"class.std::__1::__tree_end_node"* %57
  %61 = load %"class.std::__1::__tree_node.543"*, %"class.std::__1::__tree_node.543"** %59, align 8
  %62 = icmp eq %"class.std::__1::__tree_node.543"* %61, null
  br i1 %62, label %63, label %49

63:                                               ; preds = %49
  %64 = icmp eq %"class.std::__1::__tree_end_node"* %60, %19
  br i1 %64, label %70, label %65

65:                                               ; preds = %63
  %66 = getelementptr inbounds %"class.std::__1::__tree_end_node", %"class.std::__1::__tree_end_node"* %60, i64 4
  %67 = bitcast %"class.std::__1::__tree_end_node"* %66 to i64*
  %68 = load i64, i64* %67, align 8
  %69 = icmp ult i64 %48, %68
  br i1 %69, label %70, label %71

70:                                               ; preds = %65, %63, %41
  br label %71

71:                                               ; preds = %65, %70
  %72 = phi %"class.std::__1::__tree_end_node"* [ %19, %70 ], [ %60, %65 ]
  %73 = getelementptr inbounds %"class.std::__1::__tree_end_node", %"class.std::__1::__tree_end_node"* %72, i64 9
  %74 = bitcast %"class.std::__1::__tree_end_node"* %73 to %"class.std::__1::basic_string.1"*
  %75 = tail call { %"class.std::__1::__tree_end_node"*, i8 } @_ZNSt3__16__treeINS_12basic_stringIcNS_11char_traitsIcEENS_9allocatorIcEEEENS_4lessIS6_EENS4_IS6_EEE25__emplace_unique_key_argsIS6_JRKS6_EEENS_4pairINS_15__tree_iteratorIS6_PNS_11__tree_nodeIS6_PvEElEEbEERKT_DpOT0_(%"class.std::__1::__tree.509"* nonnull %21, %"class.std::__1::basic_string.1"* dereferenceable(24) %74, %"class.std::__1::basic_string.1"* dereferenceable(24) %74) #10
  %76 = getelementptr inbounds %"class.std::__1::__tree_end_node", %"class.std::__1::__tree_end_node"* %42, i64 1, i32 0
  %77 = load %"class.std::__1::__tree_node_base"*, %"class.std::__1::__tree_node_base"** %76, align 8
  %78 = icmp eq %"class.std::__1::__tree_node_base"* %77, null
  br i1 %78, label %79, label %87

79:                                               ; preds = %71
  %80 = bitcast %"class.std::__1::__tree_end_node"* %42 to %"class.std::__1::__tree_node_base"*
  %81 = getelementptr inbounds %"class.std::__1::__tree_end_node", %"class.std::__1::__tree_end_node"* %42, i64 2
  %82 = bitcast %"class.std::__1::__tree_end_node"* %81 to %"class.std::__1::__tree_end_node"**
  %83 = load %"class.std::__1::__tree_end_node"*, %"class.std::__1::__tree_end_node"** %82, align 8
  %84 = getelementptr inbounds %"class.std::__1::__tree_end_node", %"class.std::__1::__tree_end_node"* %83, i64 0, i32 0
  %85 = load %"class.std::__1::__tree_node_base"*, %"class.std::__1::__tree_node_base"** %84, align 8
  %86 = icmp eq %"class.std::__1::__tree_node_base"* %85, %80
  br i1 %86, label %103, label %94

87:                                               ; preds = %71, %87
  %88 = phi %"class.std::__1::__tree_node_base"* [ %90, %87 ], [ %77, %71 ]
  %89 = getelementptr inbounds %"class.std::__1::__tree_node_base", %"class.std::__1::__tree_node_base"* %88, i64 0, i32 0, i32 0
  %90 = load %"class.std::__1::__tree_node_base"*, %"class.std::__1::__tree_node_base"** %89, align 8
  %91 = icmp eq %"class.std::__1::__tree_node_base"* %90, null
  br i1 %91, label %92, label %87

92:                                               ; preds = %87
  %93 = getelementptr inbounds %"class.std::__1::__tree_node_base", %"class.std::__1::__tree_node_base"* %88, i64 0, i32 0
  br label %103

94:                                               ; preds = %79, %94
  %95 = phi %"class.std::__1::__tree_end_node"** [ %98, %94 ], [ %82, %79 ]
  %96 = bitcast %"class.std::__1::__tree_end_node"** %95 to %"class.std::__1::__tree_node_base"**
  %97 = load %"class.std::__1::__tree_node_base"*, %"class.std::__1::__tree_node_base"** %96, align 8
  %98 = getelementptr inbounds %"class.std::__1::__tree_node_base", %"class.std::__1::__tree_node_base"* %97, i64 0, i32 2
  %99 = load %"class.std::__1::__tree_end_node"*, %"class.std::__1::__tree_end_node"** %98, align 8
  %100 = getelementptr inbounds %"class.std::__1::__tree_end_node", %"class.std::__1::__tree_end_node"* %99, i64 0, i32 0
  %101 = load %"class.std::__1::__tree_node_base"*, %"class.std::__1::__tree_node_base"** %100, align 8
  %102 = icmp eq %"class.std::__1::__tree_node_base"* %101, %97
  br i1 %102, label %103, label %94

103:                                              ; preds = %94, %79, %92
  %104 = phi %"class.std::__1::__tree_end_node"* [ %93, %92 ], [ %83, %79 ], [ %99, %94 ]
  %105 = icmp eq %"class.std::__1::__tree_end_node"* %104, %16
  br i1 %105, label %22, label %41
}

declare dereferenceable(24) %"class.std::__1::map.241"* @_ZNK25MediaGalleriesPreferences15known_galleriesEv(%class.MediaGalleriesPreferences*) local_unnamed_addr #1

; Function Attrs: nounwind ssp uwtable
define hidden void @_ZN23MediaFileSystemRegistry35RegisterMediaFileSystemForExtensionEPN7content11WebContentsEPKN10extensions9ExtensionEmN4base12OnceCallbackIFvNS7_4File5ErrorEEEE(%class.MediaFileSystemRegistry*, %"class.content::WebContents"*, %"class.extensions::Extension"*, i64, %"class.base::OnceCallback.309"* nocapture) local_unnamed_addr #0 align 2 {
  %6 = alloca %"class.logging::CheckError", align 8
  %7 = alloca %"class.std::__1::set.273", align 8
  %8 = alloca %"class.base::Location", align 8
  %9 = alloca %"class.base::OnceCallback.235", align 8
  %10 = alloca %"class.base::OnceCallback.309", align 8
  %11 = bitcast %"class.content::WebContents"* %1 to %"class.content::BrowserContext"* (%"class.content::WebContents"*)***
  %12 = load %"class.content::BrowserContext"* (%"class.content::WebContents"*)**, %"class.content::BrowserContext"* (%"class.content::WebContents"*)*** %11, align 8
  %13 = getelementptr inbounds %"class.content::BrowserContext"* (%"class.content::WebContents"*)*, %"class.content::BrowserContext"* (%"class.content::WebContents"*)** %12, i64 6
  %14 = load %"class.content::BrowserContext"* (%"class.content::WebContents"*)*, %"class.content::BrowserContext"* (%"class.content::WebContents"*)** %13, align 8
  %15 = tail call %"class.content::BrowserContext"* %14(%"class.content::WebContents"* %1) #10
  %16 = tail call %class.Profile* @_ZN7Profile18FromBrowserContextEPN7content14BrowserContextE(%"class.content::BrowserContext"* %15) #10
  %17 = tail call %class.MediaGalleriesPreferences* @_ZN23MediaFileSystemRegistry14GetPreferencesEP7Profile(%class.MediaFileSystemRegistry* %0, %class.Profile* %16)
  %18 = tail call dereferenceable(24) %"class.std::__1::map.241"* @_ZNK25MediaGalleriesPreferences15known_galleriesEv(%class.MediaGalleriesPreferences* %17) #10
  %19 = getelementptr inbounds %"class.std::__1::map.241", %"class.std::__1::map.241"* %18, i64 0, i32 0, i32 1, i32 0, i32 0
  %20 = bitcast %"class.std::__1::__tree_end_node"* %19 to %"class.std::__1::__tree_node.543"**
  %21 = load %"class.std::__1::__tree_node.543"*, %"class.std::__1::__tree_node.543"** %20, align 8
  %22 = icmp eq %"class.std::__1::__tree_node.543"* %21, null
  br i1 %22, label %44, label %23

23:                                               ; preds = %5, %23
  %24 = phi %"class.std::__1::__tree_end_node"* [ %34, %23 ], [ %19, %5 ]
  %25 = phi %"class.std::__1::__tree_node.543"* [ %35, %23 ], [ %21, %5 ]
  %26 = getelementptr inbounds %"class.std::__1::__tree_node.543", %"class.std::__1::__tree_node.543"* %25, i64 0, i32 1, i32 0, i32 0
  %27 = load i64, i64* %26, align 8
  %28 = icmp ult i64 %27, %3
  %29 = getelementptr inbounds %"class.std::__1::__tree_node.543", %"class.std::__1::__tree_node.543"* %25, i64 0, i32 0, i32 1
  %30 = bitcast %"class.std::__1::__tree_node_base"** %29 to %"class.std::__1::__tree_node.543"**
  %31 = getelementptr inbounds %"class.std::__1::__tree_node.543", %"class.std::__1::__tree_node.543"* %25, i64 0, i32 0, i32 0
  %32 = bitcast %"class.std::__1::__tree_node.543"* %25 to %"class.std::__1::__tree_node.543"**
  %33 = select i1 %28, %"class.std::__1::__tree_node.543"** %30, %"class.std::__1::__tree_node.543"** %32
  %34 = select i1 %28, %"class.std::__1::__tree_end_node"* %24, %"class.std::__1::__tree_end_node"* %31
  %35 = load %"class.std::__1::__tree_node.543"*, %"class.std::__1::__tree_node.543"** %33, align 8
  %36 = icmp eq %"class.std::__1::__tree_node.543"* %35, null
  br i1 %36, label %37, label %23

37:                                               ; preds = %23
  %38 = icmp eq %"class.std::__1::__tree_end_node"* %34, %19
  br i1 %38, label %44, label %39

39:                                               ; preds = %37
  %40 = getelementptr inbounds %"class.std::__1::__tree_end_node", %"class.std::__1::__tree_end_node"* %34, i64 4
  %41 = bitcast %"class.std::__1::__tree_end_node"* %40 to i64*
  %42 = load i64, i64* %41, align 8
  %43 = icmp ugt i64 %42, %3
  br i1 %43, label %44, label %45

44:                                               ; preds = %39, %37, %5
  br label %45

45:                                               ; preds = %39, %44
  %46 = phi %"class.std::__1::__tree_end_node"* [ %19, %44 ], [ %34, %39 ]
  %47 = bitcast %"class.std::__1::set.273"* %7 to i8*
  call void @llvm.lifetime.start.p0i8(i64 24, i8* nonnull %47) #10
  %48 = bitcast %"class.std::__1::set.273"* %7 to i8*
  call void @llvm.memset.p0i8.i64(i8* nonnull align 8 %48, i8 -86, i64 24, i1 false)
  call void @_ZN25MediaGalleriesPreferences21GalleriesForExtensionERKN10extensions9ExtensionE(%"class.std::__1::set.273"* nonnull sret %7, %class.MediaGalleriesPreferences* %17, %"class.extensions::Extension"* dereferenceable(472) %2) #10
  %49 = call dereferenceable(24) %"class.std::__1::map.241"* @_ZNK25MediaGalleriesPreferences15known_galleriesEv(%class.MediaGalleriesPreferences* %17) #10
  %50 = getelementptr inbounds %"class.std::__1::map.241", %"class.std::__1::map.241"* %49, i64 0, i32 0, i32 1, i32 0, i32 0
  %51 = icmp eq %"class.std::__1::__tree_end_node"* %46, %50
  br i1 %51, label %78, label %52

52:                                               ; preds = %45
  %53 = getelementptr inbounds %"class.std::__1::set.273", %"class.std::__1::set.273"* %7, i64 0, i32 0, i32 1, i32 0, i32 0
  %54 = bitcast %"class.std::__1::__tree_end_node"* %53 to %"class.std::__1::__tree_node.550"**
  %55 = load %"class.std::__1::__tree_node.550"*, %"class.std::__1::__tree_node.550"** %54, align 8
  %56 = icmp eq %"class.std::__1::__tree_node.550"* %55, null
  br i1 %56, label %78, label %57

57:                                               ; preds = %52, %57
  %58 = phi %"class.std::__1::__tree_end_node"* [ %68, %57 ], [ %53, %52 ]
  %59 = phi %"class.std::__1::__tree_node.550"* [ %69, %57 ], [ %55, %52 ]
  %60 = getelementptr inbounds %"class.std::__1::__tree_node.550", %"class.std::__1::__tree_node.550"* %59, i64 0, i32 1
  %61 = load i64, i64* %60, align 8
  %62 = icmp ult i64 %61, %3
  %63 = getelementptr inbounds %"class.std::__1::__tree_node.550", %"class.std::__1::__tree_node.550"* %59, i64 0, i32 0, i32 1
  %64 = bitcast %"class.std::__1::__tree_node_base"** %63 to %"class.std::__1::__tree_node.550"**
  %65 = getelementptr inbounds %"class.std::__1::__tree_node.550", %"class.std::__1::__tree_node.550"* %59, i64 0, i32 0, i32 0
  %66 = bitcast %"class.std::__1::__tree_node.550"* %59 to %"class.std::__1::__tree_node.550"**
  %67 = select i1 %62, %"class.std::__1::__tree_node.550"** %64, %"class.std::__1::__tree_node.550"** %66
  %68 = select i1 %62, %"class.std::__1::__tree_end_node"* %58, %"class.std::__1::__tree_end_node"* %65
  %69 = load %"class.std::__1::__tree_node.550"*, %"class.std::__1::__tree_node.550"** %67, align 8
  %70 = icmp eq %"class.std::__1::__tree_node.550"* %69, null
  br i1 %70, label %71, label %57

71:                                               ; preds = %57
  %72 = icmp eq %"class.std::__1::__tree_end_node"* %68, %53
  br i1 %72, label %78, label %73

73:                                               ; preds = %71
  %74 = getelementptr inbounds %"class.std::__1::__tree_end_node", %"class.std::__1::__tree_end_node"* %68, i64 4
  %75 = bitcast %"class.std::__1::__tree_end_node"* %74 to i64*
  %76 = load i64, i64* %75, align 8
  %77 = icmp ugt i64 %76, %3
  br i1 %77, label %78, label %108

78:                                               ; preds = %73, %71, %52, %45
  %79 = call %"class.base::SingleThreadTaskRunner"* @_ZN7content21GetIOThreadTaskRunnerERKNS_17BrowserTaskTraitsE(%"class.content::BrowserTaskTraits"* dereferenceable(15) bitcast ({ %"struct.base::TaskTraitsExtensionStorage", i8, i8, i8, i8, i8, i8 }* @.ref.tmp to %"class.content::BrowserTaskTraits"*)) #10
  %80 = bitcast %"class.base::SingleThreadTaskRunner"* %79 to %"class.base::TaskRunner"*
  %81 = bitcast %"class.base::Location"* %8 to i8*
  call void @llvm.lifetime.start.p0i8(i64 32, i8* nonnull %81) #10
  call void @_ZN4base8Location7CurrentEPKcS2_i(%"class.base::Location"* nonnull sret %8, i8* getelementptr inbounds ([36 x i8], [36 x i8]* @.str.2, i64 0, i64 0), i8* getelementptr inbounds ([67 x i8], [67 x i8]* @.str, i64 0, i64 0), i32 563) #10
  %82 = call i8* @_Znwm(i64 48) #12, !noalias !52
  %83 = bitcast i8* %82 to %"class.base::internal::BindStateBase"*
  call void @_ZN4base8internal13BindStateBaseC2EPFvvEPFvPKS1_EPFbS5_NS1_21CancellationQueryModeEE(%"class.base::internal::BindStateBase"* nonnull %83, void ()* bitcast (void (%"class.base::internal::BindStateBase"*)* @_ZN4base8internal7InvokerINS0_9BindStateINS_12OnceCallbackIFvNS_4File5ErrorEEEEJS5_EEEFvvEE7RunOnceEPNS0_13BindStateBaseE to void ()*), void (%"class.base::internal::BindStateBase"*)* nonnull @_ZN4base8internal9BindStateINS_12OnceCallbackIFvNS_4File5ErrorEEEEJS4_EE7DestroyEPKNS0_13BindStateBaseE, i1 (%"class.base::internal::BindStateBase"*, i32)* nonnull @_ZN4base8internal23QueryCancellationTraitsINS0_9BindStateINS_12OnceCallbackIFvNS_4File5ErrorEEEEJS5_EEEEEbPKNS0_13BindStateBaseENS9_21CancellationQueryModeE) #10, !noalias !52
  %84 = getelementptr inbounds i8, i8* %82, i64 32
  %85 = getelementptr inbounds %"class.base::OnceCallback.309", %"class.base::OnceCallback.309"* %4, i64 0, i32 0, i32 0, i32 0
  %86 = bitcast %"class.base::OnceCallback.309"* %4 to i64*
  %87 = load i64, i64* %86, align 8, !noalias !52
  %88 = bitcast i8* %84 to i64*
  store i64 %87, i64* %88, align 8, !noalias !52
  store %"class.base::internal::BindStateBase"* null, %"class.base::internal::BindStateBase"** %85, align 8, !noalias !52
  %89 = getelementptr inbounds i8, i8* %82, i64 40
  %90 = bitcast i8* %89 to i32*
  store i32 -4, i32* %90, align 4, !noalias !52
  %91 = icmp eq i64 %87, 0
  br i1 %91, label %92, label %95

92:                                               ; preds = %78
  %93 = bitcast %"class.logging::CheckError"* %6 to i8*
  call void @llvm.lifetime.start.p0i8(i64 8, i8* nonnull %93) #10, !noalias !52
  call void @_ZN7logging10CheckError5CheckEPKciS2_(%"class.logging::CheckError"* nonnull sret %6, i8* getelementptr inbounds ([27 x i8], [27 x i8]* @.str.6, i64 0, i64 0), i32 896, i8* getelementptr inbounds ([18 x i8], [18 x i8]* @.str.7, i64 0, i64 0)) #10, !noalias !52
  %94 = call dereferenceable(160) %"class.std::__1::basic_ostream"* @_ZN7logging10CheckError6streamEv(%"class.logging::CheckError"* nonnull %6) #10, !noalias !52
  call void @_ZN7logging10CheckErrorD1Ev(%"class.logging::CheckError"* nonnull %6) #10, !noalias !52
  call void @llvm.lifetime.end.p0i8(i64 8, i8* nonnull %93) #10, !noalias !52
  br label %95

95:                                               ; preds = %78, %92
  %96 = bitcast %"class.base::OnceCallback.235"* %9 to i8**
  store i8* %82, i8** %96, align 8, !alias.scope !52
  %97 = call zeroext i1 @_ZN4base10TaskRunner8PostTaskERKNS_8LocationENS_12OnceCallbackIFvvEEE(%"class.base::TaskRunner"* %80, %"class.base::Location"* nonnull dereferenceable(32) %8, %"class.base::OnceCallback.235"* nonnull %9) #10
  %98 = getelementptr inbounds %"class.base::OnceCallback.235", %"class.base::OnceCallback.235"* %9, i64 0, i32 0
  call void @_ZN4base8internal12CallbackBaseD2Ev(%"class.base::internal::CallbackBase"* nonnull %98) #10
  call void @llvm.lifetime.end.p0i8(i64 32, i8* nonnull %81) #10
  %99 = icmp eq %"class.base::SingleThreadTaskRunner"* %79, null
  br i1 %99, label %118, label %100

100:                                              ; preds = %95
  %101 = getelementptr inbounds %"class.base::SingleThreadTaskRunner", %"class.base::SingleThreadTaskRunner"* %79, i64 0, i32 0, i32 0, i32 1
  %102 = getelementptr inbounds %"class.base::RefCountedThreadSafe", %"class.base::RefCountedThreadSafe"* %101, i64 0, i32 0, i32 0, i32 0, i32 0, i32 0, i32 0, i32 0, i32 0
  %103 = atomicrmw sub i32* %102, i32 1 acq_rel
  %104 = icmp eq i32 %103, 1
  br i1 %104, label %105, label %118

105:                                              ; preds = %100
  %106 = getelementptr inbounds %"class.base::RefCountedThreadSafe", %"class.base::RefCountedThreadSafe"* %101, i64 -2
  %107 = bitcast %"class.base::RefCountedThreadSafe"* %106 to %"class.base::TaskRunner"*
  call void @_ZN4base16TaskRunnerTraits8DestructEPKNS_10TaskRunnerE(%"class.base::TaskRunner"* %107) #10
  br label %118

108:                                              ; preds = %73
  %109 = call dereferenceable(24) %"class.std::__1::basic_string.1"* @_ZNK10extensions9Extension2idEv(%"class.extensions::Extension"* %2) #10
  %110 = call %class.ExtensionGalleriesHost* @_ZN23MediaFileSystemRegistry23GetExtensionGalleryHostEP7ProfileP25MediaGalleriesPreferencesRKNSt3__112basic_stringIcNS4_11char_traitsIcEENS4_9allocatorIcEEEE(%class.MediaFileSystemRegistry* %0, %class.Profile* %16, %class.MediaGalleriesPreferences* %17, %"class.std::__1::basic_string.1"* dereferenceable(24) %109)
  call void @_ZN22ExtensionGalleriesHost24ReferenceFromWebContentsEPN7content11WebContentsE(%class.ExtensionGalleriesHost* %110, %"class.content::WebContents"* %1)
  %111 = getelementptr inbounds %"class.std::__1::__tree_end_node", %"class.std::__1::__tree_end_node"* %46, i64 5
  %112 = bitcast %"class.std::__1::__tree_end_node"* %111 to %struct.MediaGalleryPrefInfo*
  %113 = getelementptr inbounds %"class.base::OnceCallback.309", %"class.base::OnceCallback.309"* %4, i64 0, i32 0, i32 0, i32 0
  %114 = bitcast %"class.base::OnceCallback.309"* %4 to i64*
  %115 = load i64, i64* %114, align 8
  %116 = bitcast %"class.base::OnceCallback.309"* %10 to i64*
  store i64 %115, i64* %116, align 8
  store %"class.base::internal::BindStateBase"* null, %"class.base::internal::BindStateBase"** %113, align 8
  call void @_ZN22ExtensionGalleriesHost23RegisterMediaFileSystemERK20MediaGalleryPrefInfoN4base12OnceCallbackIFvNS3_4File5ErrorEEEE(%class.ExtensionGalleriesHost* %110, %struct.MediaGalleryPrefInfo* dereferenceable(200) %112, %"class.base::OnceCallback.309"* nonnull %10)
  %117 = getelementptr inbounds %"class.base::OnceCallback.309", %"class.base::OnceCallback.309"* %10, i64 0, i32 0
  call void @_ZN4base8internal12CallbackBaseD2Ev(%"class.base::internal::CallbackBase"* nonnull %117) #10
  br label %118

118:                                              ; preds = %105, %100, %95, %108
  %119 = getelementptr inbounds %"class.std::__1::set.273", %"class.std::__1::set.273"* %7, i64 0, i32 0
  %120 = getelementptr inbounds %"class.std::__1::set.273", %"class.std::__1::set.273"* %7, i64 0, i32 0, i32 1, i32 0, i32 0
  %121 = bitcast %"class.std::__1::__tree_end_node"* %120 to %"class.std::__1::__tree_node.550"**
  %122 = load %"class.std::__1::__tree_node.550"*, %"class.std::__1::__tree_node.550"** %121, align 8
  call void @_ZNSt3__16__treeImNS_4lessImEENS_9allocatorImEEE7destroyEPNS_11__tree_nodeImPvEE(%"class.std::__1::__tree.274"* nonnull %119, %"class.std::__1::__tree_node.550"* %122) #10
  call void @llvm.lifetime.end.p0i8(i64 24, i8* nonnull %47) #10
  ret void
}

declare %"class.base::SingleThreadTaskRunner"* @_ZN7content21GetIOThreadTaskRunnerERKNS_17BrowserTaskTraitsE(%"class.content::BrowserTaskTraits"* dereferenceable(15)) local_unnamed_addr #1

declare zeroext i1 @_ZN4base10TaskRunner8PostTaskERKNS_8LocationENS_12OnceCallbackIFvvEEE(%"class.base::TaskRunner"*, %"class.base::Location"* dereferenceable(32), %"class.base::OnceCallback.235"*) local_unnamed_addr #1

declare void @_ZN4base8Location7CurrentEPKcS2_i(%"class.base::Location"* sret, i8*, i8*, i32) local_unnamed_addr #1

; Function Attrs: nounwind ssp uwtable
define linkonce_odr hidden void @_ZN22ExtensionGalleriesHost23RegisterMediaFileSystemERK20MediaGalleryPrefInfoN4base12OnceCallbackIFvNS3_4File5ErrorEEEE(%class.ExtensionGalleriesHost*, %struct.MediaGalleryPrefInfo* dereferenceable(200), %"class.base::OnceCallback.309"*) local_unnamed_addr #0 comdat align 2 {
  %4 = alloca %"class.base::OnceCallback.235", align 8
  %5 = tail call i8* @_Znwm(i64 24) #12
  %6 = bitcast i8* %5 to %"class.std::__1::set.508"*
  %7 = getelementptr inbounds i8, i8* %5, i64 8
  tail call void @llvm.memset.p0i8.i64(i8* align 8 %7, i8 0, i64 16, i1 false) #10
  %8 = bitcast i8* %5 to i8**
  store i8* %7, i8** %8, align 8
  %9 = getelementptr inbounds %struct.MediaGalleryPrefInfo, %struct.MediaGalleryPrefInfo* %1, i64 0, i32 2
  %10 = bitcast i8* %5 to %"class.std::__1::__tree.509"*
  %11 = tail call { %"class.std::__1::__tree_end_node"*, i8 } @_ZNSt3__16__treeINS_12basic_stringIcNS_11char_traitsIcEENS_9allocatorIcEEEENS_4lessIS6_EENS4_IS6_EEE25__emplace_unique_key_argsIS6_JRKS6_EEENS_4pairINS_15__tree_iteratorIS6_PNS_11__tree_nodeIS6_PvEElEEbEERKT_DpOT0_(%"class.std::__1::__tree.509"* nonnull %10, %"class.std::__1::basic_string.1"* dereferenceable(24) %9, %"class.std::__1::basic_string.1"* dereferenceable(24) %9) #10
  %12 = ptrtoint i8* %5 to i64
  %13 = tail call i8* @_Znwm(i64 272) #12, !noalias !57
  %14 = bitcast i8* %13 to %"class.base::internal::BindStateBase"*
  tail call void @_ZN4base8internal13BindStateBaseC2EPFvvEPFvPKS1_E(%"class.base::internal::BindStateBase"* nonnull %14, void ()* bitcast (void (%"class.base::internal::BindStateBase"*)* @_ZN4base8internal7InvokerINS0_9BindStateIM22ExtensionGalleriesHostFvPKNSt3__13setINS4_12basic_stringIcNS4_11char_traitsIcEENS4_9allocatorIcEEEENS4_4lessISB_EENS9_ISB_EEEERK20MediaGalleryPrefInfoNS_12OnceCallbackIFvNS_4File5ErrorEEEEEJ13scoped_refptrIS3_ENS0_12OwnedWrapperISF_NS4_14default_deleteISF_EEEESI_SP_EEEFvvEE7RunOnceEPNS0_13BindStateBaseE to void ()*), void (%"class.base::internal::BindStateBase"*)* nonnull @_ZN4base8internal9BindStateIM22ExtensionGalleriesHostFvPKNSt3__13setINS3_12basic_stringIcNS3_11char_traitsIcEENS3_9allocatorIcEEEENS3_4lessISA_EENS8_ISA_EEEERK20MediaGalleryPrefInfoNS_12OnceCallbackIFvNS_4File5ErrorEEEEEJ13scoped_refptrIS2_ENS0_12OwnedWrapperISE_NS3_14default_deleteISE_EEEESH_SO_EE7DestroyEPKNS0_13BindStateBaseE) #10, !noalias !57
  %15 = getelementptr inbounds i8, i8* %13, i64 32
  %16 = bitcast i8* %15 to <2 x i64>*
  store <2 x i64> <i64 ptrtoint (void (%class.ExtensionGalleriesHost*, %"class.std::__1::set.508"*, %struct.MediaGalleryPrefInfo*, %"class.base::OnceCallback.309"*)* @_ZN22ExtensionGalleriesHost31RegisterAttachedMediaFileSystemEPKNSt3__13setINS0_12basic_stringIcNS0_11char_traitsIcEENS0_9allocatorIcEEEENS0_4lessIS7_EENS5_IS7_EEEERK20MediaGalleryPrefInfoN4base12OnceCallbackIFvNSH_4File5ErrorEEEE to i64), i64 0>, <2 x i64>* %16, align 8, !noalias !57
  %17 = getelementptr inbounds i8, i8* %13, i64 48
  %18 = bitcast i8* %17 to %class.ExtensionGalleriesHost**
  store %class.ExtensionGalleriesHost* %0, %class.ExtensionGalleriesHost** %18, align 8, !noalias !57
  %19 = icmp eq %class.ExtensionGalleriesHost* %0, null
  br i1 %19, label %23, label %20

20:                                               ; preds = %3
  %21 = getelementptr inbounds %class.ExtensionGalleriesHost, %class.ExtensionGalleriesHost* %0, i64 0, i32 1, i32 0, i32 0, i32 0, i32 0, i32 0, i32 0, i32 0, i32 0
  %22 = atomicrmw add i32* %21, i32 1 monotonic, !noalias !57
  br label %23

23:                                               ; preds = %20, %3
  %24 = getelementptr inbounds i8, i8* %13, i64 56
  %25 = bitcast i8* %24 to i64*
  store i64 %12, i64* %25, align 8, !noalias !57
  %26 = getelementptr inbounds i8, i8* %13, i64 64
  %27 = bitcast i8* %26 to %struct.MediaGalleryPrefInfo*
  tail call void @_ZN20MediaGalleryPrefInfoC1ERKS_(%struct.MediaGalleryPrefInfo* %27, %struct.MediaGalleryPrefInfo* dereferenceable(200) %1) #10, !noalias !57
  %28 = getelementptr inbounds i8, i8* %13, i64 264
  %29 = getelementptr inbounds %"class.base::OnceCallback.309", %"class.base::OnceCallback.309"* %2, i64 0, i32 0, i32 0, i32 0
  %30 = bitcast %"class.base::OnceCallback.309"* %2 to i64*
  %31 = load i64, i64* %30, align 8, !noalias !57
  %32 = bitcast i8* %28 to i64*
  store i64 %31, i64* %32, align 8, !noalias !57
  store %"class.base::internal::BindStateBase"* null, %"class.base::internal::BindStateBase"** %29, align 8, !noalias !57
  %33 = bitcast %"class.base::OnceCallback.235"* %4 to i8**
  store i8* %13, i8** %33, align 8, !alias.scope !57
  call void @_ZN15storage_monitor16MediaStorageUtil21FilterAttachedDevicesEPNSt3__13setINS1_12basic_stringIcNS1_11char_traitsIcEENS1_9allocatorIcEEEENS1_4lessIS8_EENS6_IS8_EEEEN4base12OnceCallbackIFvvEEE(%"class.std::__1::set.508"* nonnull %6, %"class.base::OnceCallback.235"* nonnull %4) #10
  %34 = getelementptr inbounds %"class.base::OnceCallback.235", %"class.base::OnceCallback.235"* %4, i64 0, i32 0
  call void @_ZN4base8internal12CallbackBaseD2Ev(%"class.base::internal::CallbackBase"* nonnull %34) #10
  ret void
}

declare %class.KeyedServiceShutdownNotifier* @_ZN49BrowserContextKeyedServiceShutdownNotifierFactory3GetEPN7content14BrowserContextE(%class.BrowserContextKeyedServiceShutdownNotifierFactory*, %"class.content::BrowserContext"*) local_unnamed_addr #1

declare void @_ZN28KeyedServiceShutdownNotifier9SubscribeEN4base12OnceCallbackIFvvEEE(%"class.base::CallbackListSubscription"* sret, %class.KeyedServiceShutdownNotifier*, %"class.base::OnceCallback.235"*) local_unnamed_addr #1

; Function Attrs: nounwind ssp uwtable
define hidden void @_ZN23MediaFileSystemRegistry17OnProfileShutdownEP7Profile(%class.MediaFileSystemRegistry*, %class.Profile*) #0 align 2 {
  %3 = getelementptr inbounds %class.MediaFileSystemRegistry, %class.MediaFileSystemRegistry* %0, i64 0, i32 2
  %4 = getelementptr inbounds %class.MediaFileSystemRegistry, %class.MediaFileSystemRegistry* %0, i64 0, i32 2, i32 0, i32 1, i32 0, i32 0
  %5 = bitcast %"class.std::__1::__tree_end_node"* %4 to %"class.std::__1::__tree_node.602"**
  %6 = load %"class.std::__1::__tree_node.602"*, %"class.std::__1::__tree_node.602"** %5, align 8
  %7 = icmp eq %"class.std::__1::__tree_node.602"* %6, null
  %8 = bitcast %"class.std::__1::__tree_node.602"* %6 to %"class.std::__1::__tree_node_base"*
  br i1 %7, label %30, label %9

9:                                                ; preds = %2, %9
  %10 = phi %"class.std::__1::__tree_end_node"* [ %20, %9 ], [ %4, %2 ]
  %11 = phi %"class.std::__1::__tree_node.602"* [ %21, %9 ], [ %6, %2 ]
  %12 = getelementptr inbounds %"class.std::__1::__tree_node.602", %"class.std::__1::__tree_node.602"* %11, i64 0, i32 1, i32 0, i32 0
  %13 = load %class.Profile*, %class.Profile** %12, align 8
  %14 = icmp ult %class.Profile* %13, %1
  %15 = getelementptr inbounds %"class.std::__1::__tree_node.602", %"class.std::__1::__tree_node.602"* %11, i64 0, i32 0, i32 1
  %16 = bitcast %"class.std::__1::__tree_node_base"** %15 to %"class.std::__1::__tree_node.602"**
  %17 = getelementptr inbounds %"class.std::__1::__tree_node.602", %"class.std::__1::__tree_node.602"* %11, i64 0, i32 0, i32 0
  %18 = bitcast %"class.std::__1::__tree_node.602"* %11 to %"class.std::__1::__tree_node.602"**
  %19 = select i1 %14, %"class.std::__1::__tree_node.602"** %16, %"class.std::__1::__tree_node.602"** %18
  %20 = select i1 %14, %"class.std::__1::__tree_end_node"* %10, %"class.std::__1::__tree_end_node"* %17
  %21 = load %"class.std::__1::__tree_node.602"*, %"class.std::__1::__tree_node.602"** %19, align 8
  %22 = icmp eq %"class.std::__1::__tree_node.602"* %21, null
  br i1 %22, label %23, label %9

23:                                               ; preds = %9
  %24 = icmp eq %"class.std::__1::__tree_end_node"* %20, %4
  br i1 %24, label %30, label %25

25:                                               ; preds = %23
  %26 = getelementptr inbounds %"class.std::__1::__tree_end_node", %"class.std::__1::__tree_end_node"* %20, i64 4
  %27 = bitcast %"class.std::__1::__tree_end_node"* %26 to %class.Profile**
  %28 = load %class.Profile*, %class.Profile** %27, align 8
  %29 = icmp ugt %class.Profile* %28, %1
  br i1 %29, label %30, label %31

30:                                               ; preds = %25, %23, %2
  br label %31

31:                                               ; preds = %25, %30
  %32 = phi %"class.std::__1::__tree_end_node"* [ %4, %30 ], [ %20, %25 ]
  %33 = getelementptr inbounds %"class.std::__1::__tree_end_node", %"class.std::__1::__tree_end_node"* %32, i64 1, i32 0
  %34 = load %"class.std::__1::__tree_node_base"*, %"class.std::__1::__tree_node_base"** %33, align 8
  %35 = icmp eq %"class.std::__1::__tree_node_base"* %34, null
  br i1 %35, label %36, label %44

36:                                               ; preds = %31
  %37 = bitcast %"class.std::__1::__tree_end_node"* %32 to %"class.std::__1::__tree_node_base"*
  %38 = getelementptr inbounds %"class.std::__1::__tree_end_node", %"class.std::__1::__tree_end_node"* %32, i64 2
  %39 = bitcast %"class.std::__1::__tree_end_node"* %38 to %"class.std::__1::__tree_end_node"**
  %40 = load %"class.std::__1::__tree_end_node"*, %"class.std::__1::__tree_end_node"** %39, align 8
  %41 = getelementptr inbounds %"class.std::__1::__tree_end_node", %"class.std::__1::__tree_end_node"* %40, i64 0, i32 0
  %42 = load %"class.std::__1::__tree_node_base"*, %"class.std::__1::__tree_node_base"** %41, align 8
  %43 = icmp eq %"class.std::__1::__tree_node_base"* %42, %37
  br i1 %43, label %60, label %51

44:                                               ; preds = %31, %44
  %45 = phi %"class.std::__1::__tree_node_base"* [ %47, %44 ], [ %34, %31 ]
  %46 = getelementptr inbounds %"class.std::__1::__tree_node_base", %"class.std::__1::__tree_node_base"* %45, i64 0, i32 0, i32 0
  %47 = load %"class.std::__1::__tree_node_base"*, %"class.std::__1::__tree_node_base"** %46, align 8
  %48 = icmp eq %"class.std::__1::__tree_node_base"* %47, null
  br i1 %48, label %49, label %44

49:                                               ; preds = %44
  %50 = getelementptr inbounds %"class.std::__1::__tree_node_base", %"class.std::__1::__tree_node_base"* %45, i64 0, i32 0
  br label %60

51:                                               ; preds = %36, %51
  %52 = phi %"class.std::__1::__tree_end_node"** [ %55, %51 ], [ %39, %36 ]
  %53 = bitcast %"class.std::__1::__tree_end_node"** %52 to %"class.std::__1::__tree_node_base"**
  %54 = load %"class.std::__1::__tree_node_base"*, %"class.std::__1::__tree_node_base"** %53, align 8
  %55 = getelementptr inbounds %"class.std::__1::__tree_node_base", %"class.std::__1::__tree_node_base"* %54, i64 0, i32 2
  %56 = load %"class.std::__1::__tree_end_node"*, %"class.std::__1::__tree_end_node"** %55, align 8
  %57 = getelementptr inbounds %"class.std::__1::__tree_end_node", %"class.std::__1::__tree_end_node"* %56, i64 0, i32 0
  %58 = load %"class.std::__1::__tree_node_base"*, %"class.std::__1::__tree_node_base"** %57, align 8
  %59 = icmp eq %"class.std::__1::__tree_node_base"* %58, %54
  br i1 %59, label %60, label %51

60:                                               ; preds = %51, %49, %36
  %61 = phi %"class.std::__1::__tree_end_node"* [ %50, %49 ], [ %40, %36 ], [ %56, %51 ]
  %62 = getelementptr inbounds %"class.std::__1::map", %"class.std::__1::map"* %3, i64 0, i32 0, i32 0
  %63 = load %"class.std::__1::__tree_end_node"*, %"class.std::__1::__tree_end_node"** %62, align 8
  %64 = icmp eq %"class.std::__1::__tree_end_node"* %63, %32
  br i1 %64, label %65, label %68

65:                                               ; preds = %60
  %66 = ptrtoint %"class.std::__1::__tree_end_node"* %61 to i64
  %67 = bitcast %"class.std::__1::map"* %3 to i64*
  store i64 %66, i64* %67, align 8
  br label %68

68:                                               ; preds = %60, %65
  %69 = getelementptr inbounds %class.MediaFileSystemRegistry, %class.MediaFileSystemRegistry* %0, i64 0, i32 2, i32 0, i32 2, i32 0, i32 0
  %70 = load i64, i64* %69, align 8
  %71 = add i64 %70, -1
  store i64 %71, i64* %69, align 8
  %72 = bitcast %"class.std::__1::__tree_end_node"* %32 to %"class.std::__1::__tree_node_base"*
  tail call void @_ZNSt3__113__tree_removeIPNS_16__tree_node_baseIPvEEEEvT_S5_(%"class.std::__1::__tree_node_base"* %8, %"class.std::__1::__tree_node_base"* %72) #10
  %73 = getelementptr inbounds %"class.std::__1::__tree_end_node", %"class.std::__1::__tree_end_node"* %32, i64 5
  %74 = bitcast %"class.std::__1::__tree_end_node"* %73 to %"class.std::__1::__tree.313"*
  %75 = getelementptr inbounds %"class.std::__1::__tree_end_node", %"class.std::__1::__tree_end_node"* %32, i64 6
  %76 = bitcast %"class.std::__1::__tree_end_node"* %75 to %"class.std::__1::__tree_node.647"**
  %77 = load %"class.std::__1::__tree_node.647"*, %"class.std::__1::__tree_node.647"** %76, align 8
  tail call void @_ZNSt3__16__treeINS_12__value_typeINS_12basic_stringIcNS_11char_traitsIcEENS_9allocatorIcEEEE13scoped_refptrI22ExtensionGalleriesHostEEENS_19__map_value_compareIS7_SB_NS_4lessIS7_EELb1EEENS5_ISB_EEE7destroyEPNS_11__tree_nodeISB_PvEE(%"class.std::__1::__tree.313"* %74, %"class.std::__1::__tree_node.647"* %77) #10
  %78 = bitcast %"class.std::__1::__tree_end_node"* %32 to i8*
  tail call void @_ZdlPv(i8* %78) #12
  %79 = getelementptr inbounds %class.MediaFileSystemRegistry, %class.MediaFileSystemRegistry* %0, i64 0, i32 3
  %80 = getelementptr inbounds %class.MediaFileSystemRegistry, %class.MediaFileSystemRegistry* %0, i64 0, i32 3, i32 0, i32 1, i32 0, i32 0
  %81 = bitcast %"class.std::__1::__tree_end_node"* %80 to %"class.std::__1::__tree_node.653"**
  %82 = load %"class.std::__1::__tree_node.653"*, %"class.std::__1::__tree_node.653"** %81, align 8
  %83 = icmp eq %"class.std::__1::__tree_node.653"* %82, null
  %84 = bitcast %"class.std::__1::__tree_node.653"* %82 to %"class.std::__1::__tree_node_base"*
  br i1 %83, label %106, label %85

85:                                               ; preds = %68, %85
  %86 = phi %"class.std::__1::__tree_end_node"* [ %96, %85 ], [ %80, %68 ]
  %87 = phi %"class.std::__1::__tree_node.653"* [ %97, %85 ], [ %82, %68 ]
  %88 = getelementptr inbounds %"class.std::__1::__tree_node.653", %"class.std::__1::__tree_node.653"* %87, i64 0, i32 1, i32 0, i32 0
  %89 = load %class.Profile*, %class.Profile** %88, align 8
  %90 = icmp ult %class.Profile* %89, %1
  %91 = getelementptr inbounds %"class.std::__1::__tree_node.653", %"class.std::__1::__tree_node.653"* %87, i64 0, i32 0, i32 1
  %92 = bitcast %"class.std::__1::__tree_node_base"** %91 to %"class.std::__1::__tree_node.653"**
  %93 = getelementptr inbounds %"class.std::__1::__tree_node.653", %"class.std::__1::__tree_node.653"* %87, i64 0, i32 0, i32 0
  %94 = bitcast %"class.std::__1::__tree_node.653"* %87 to %"class.std::__1::__tree_node.653"**
  %95 = select i1 %90, %"class.std::__1::__tree_node.653"** %92, %"class.std::__1::__tree_node.653"** %94
  %96 = select i1 %90, %"class.std::__1::__tree_end_node"* %86, %"class.std::__1::__tree_end_node"* %93
  %97 = load %"class.std::__1::__tree_node.653"*, %"class.std::__1::__tree_node.653"** %95, align 8
  %98 = icmp eq %"class.std::__1::__tree_node.653"* %97, null
  br i1 %98, label %99, label %85

99:                                               ; preds = %85
  %100 = icmp eq %"class.std::__1::__tree_end_node"* %96, %80
  br i1 %100, label %106, label %101

101:                                              ; preds = %99
  %102 = getelementptr inbounds %"class.std::__1::__tree_end_node", %"class.std::__1::__tree_end_node"* %96, i64 4
  %103 = bitcast %"class.std::__1::__tree_end_node"* %102 to %class.Profile**
  %104 = load %class.Profile*, %class.Profile** %103, align 8
  %105 = icmp ugt %class.Profile* %104, %1
  br i1 %105, label %106, label %107

106:                                              ; preds = %101, %99, %68
  br label %107

107:                                              ; preds = %101, %106
  %108 = phi %"class.std::__1::__tree_end_node"* [ %80, %106 ], [ %96, %101 ]
  %109 = getelementptr inbounds %"class.std::__1::__tree_end_node", %"class.std::__1::__tree_end_node"* %108, i64 1, i32 0
  %110 = load %"class.std::__1::__tree_node_base"*, %"class.std::__1::__tree_node_base"** %109, align 8
  %111 = icmp eq %"class.std::__1::__tree_node_base"* %110, null
  br i1 %111, label %112, label %120

112:                                              ; preds = %107
  %113 = bitcast %"class.std::__1::__tree_end_node"* %108 to %"class.std::__1::__tree_node_base"*
  %114 = getelementptr inbounds %"class.std::__1::__tree_end_node", %"class.std::__1::__tree_end_node"* %108, i64 2
  %115 = bitcast %"class.std::__1::__tree_end_node"* %114 to %"class.std::__1::__tree_end_node"**
  %116 = load %"class.std::__1::__tree_end_node"*, %"class.std::__1::__tree_end_node"** %115, align 8
  %117 = getelementptr inbounds %"class.std::__1::__tree_end_node", %"class.std::__1::__tree_end_node"* %116, i64 0, i32 0
  %118 = load %"class.std::__1::__tree_node_base"*, %"class.std::__1::__tree_node_base"** %117, align 8
  %119 = icmp eq %"class.std::__1::__tree_node_base"* %118, %113
  br i1 %119, label %136, label %127

120:                                              ; preds = %107, %120
  %121 = phi %"class.std::__1::__tree_node_base"* [ %123, %120 ], [ %110, %107 ]
  %122 = getelementptr inbounds %"class.std::__1::__tree_node_base", %"class.std::__1::__tree_node_base"* %121, i64 0, i32 0, i32 0
  %123 = load %"class.std::__1::__tree_node_base"*, %"class.std::__1::__tree_node_base"** %122, align 8
  %124 = icmp eq %"class.std::__1::__tree_node_base"* %123, null
  br i1 %124, label %125, label %120

125:                                              ; preds = %120
  %126 = getelementptr inbounds %"class.std::__1::__tree_node_base", %"class.std::__1::__tree_node_base"* %121, i64 0, i32 0
  br label %136

127:                                              ; preds = %112, %127
  %128 = phi %"class.std::__1::__tree_end_node"** [ %131, %127 ], [ %115, %112 ]
  %129 = bitcast %"class.std::__1::__tree_end_node"** %128 to %"class.std::__1::__tree_node_base"**
  %130 = load %"class.std::__1::__tree_node_base"*, %"class.std::__1::__tree_node_base"** %129, align 8
  %131 = getelementptr inbounds %"class.std::__1::__tree_node_base", %"class.std::__1::__tree_node_base"* %130, i64 0, i32 2
  %132 = load %"class.std::__1::__tree_end_node"*, %"class.std::__1::__tree_end_node"** %131, align 8
  %133 = getelementptr inbounds %"class.std::__1::__tree_end_node", %"class.std::__1::__tree_end_node"* %132, i64 0, i32 0
  %134 = load %"class.std::__1::__tree_node_base"*, %"class.std::__1::__tree_node_base"** %133, align 8
  %135 = icmp eq %"class.std::__1::__tree_node_base"* %134, %130
  br i1 %135, label %136, label %127

136:                                              ; preds = %127, %125, %112
  %137 = phi %"class.std::__1::__tree_end_node"* [ %126, %125 ], [ %116, %112 ], [ %132, %127 ]
  %138 = getelementptr inbounds %"class.std::__1::map.18", %"class.std::__1::map.18"* %79, i64 0, i32 0, i32 0
  %139 = load %"class.std::__1::__tree_end_node"*, %"class.std::__1::__tree_end_node"** %138, align 8
  %140 = icmp eq %"class.std::__1::__tree_end_node"* %139, %108
  br i1 %140, label %141, label %144

141:                                              ; preds = %136
  %142 = ptrtoint %"class.std::__1::__tree_end_node"* %137 to i64
  %143 = bitcast %"class.std::__1::map.18"* %79 to i64*
  store i64 %142, i64* %143, align 8
  br label %144

144:                                              ; preds = %136, %141
  %145 = getelementptr inbounds %class.MediaFileSystemRegistry, %class.MediaFileSystemRegistry* %0, i64 0, i32 3, i32 0, i32 2, i32 0, i32 0
  %146 = load i64, i64* %145, align 8
  %147 = add i64 %146, -1
  store i64 %147, i64* %145, align 8
  %148 = bitcast %"class.std::__1::__tree_end_node"* %108 to %"class.std::__1::__tree_node_base"*
  tail call void @_ZNSt3__113__tree_removeIPNS_16__tree_node_baseIPvEEEEvT_S5_(%"class.std::__1::__tree_node_base"* %84, %"class.std::__1::__tree_node_base"* %148) #10
  %149 = getelementptr inbounds %"class.std::__1::__tree_end_node", %"class.std::__1::__tree_end_node"* %108, i64 5
  %150 = bitcast %"class.std::__1::__tree_end_node"* %149 to %"class.base::CallbackListSubscription"*
  tail call void @_ZN4base24CallbackListSubscriptionD1Ev(%"class.base::CallbackListSubscription"* %150) #10
  %151 = bitcast %"class.std::__1::__tree_end_node"* %108 to i8*
  tail call void @_ZdlPv(i8* %151) #12
  ret void
}

declare dereferenceable(8) %"class.base::CallbackListSubscription"* @_ZN4base24CallbackListSubscriptionaSEOS0_(%"class.base::CallbackListSubscription"*, %"class.base::CallbackListSubscription"* dereferenceable(8)) local_unnamed_addr #1

; Function Attrs: nounwind
declare void @_ZN4base24CallbackListSubscriptionD1Ev(%"class.base::CallbackListSubscription"*) unnamed_addr #3

; Function Attrs: nounwind
declare void @_ZN4base8internal12CallbackBaseD2Ev(%"class.base::internal::CallbackBase"*) unnamed_addr #3

declare void @_ZN15media_galleries10UsageCountENS_20MediaGalleriesUsagesE(i32) local_unnamed_addr #1

declare %class.MediaGalleriesPreferences* @_ZN32MediaGalleriesPreferencesFactory13GetForProfileEP7Profile(%class.Profile*) local_unnamed_addr #1

; Function Attrs: nounwind ssp uwtable
define hidden %class.GalleryWatchManager* @_ZN23MediaFileSystemRegistry21gallery_watch_managerEv(%class.MediaFileSystemRegistry* nocapture) local_unnamed_addr #0 align 2 {
  %2 = getelementptr inbounds %class.MediaFileSystemRegistry, %class.MediaFileSystemRegistry* %0, i64 0, i32 5
  %3 = getelementptr inbounds %"class.std::__1::unique_ptr.30", %"class.std::__1::unique_ptr.30"* %2, i64 0, i32 0, i32 0, i32 0
  %4 = load %class.GalleryWatchManager*, %class.GalleryWatchManager** %3, align 8
  %5 = icmp eq %class.GalleryWatchManager* %4, null
  br i1 %5, label %6, label %20

6:                                                ; preds = %1
  %7 = tail call i8* @_Znwm(i64 176) #12
  %8 = bitcast i8* %7 to %class.GalleryWatchManager*
  tail call void @_ZN19GalleryWatchManagerC1Ev(%class.GalleryWatchManager* nonnull %8) #10
  %9 = ptrtoint i8* %7 to i64
  %10 = load %class.GalleryWatchManager*, %class.GalleryWatchManager** %3, align 8
  %11 = bitcast %"class.std::__1::unique_ptr.30"* %2 to i64*
  store i64 %9, i64* %11, align 8
  %12 = icmp eq %class.GalleryWatchManager* %10, null
  %13 = bitcast i8* %7 to %class.GalleryWatchManager*
  br i1 %12, label %20, label %14

14:                                               ; preds = %6
  %15 = bitcast %class.GalleryWatchManager* %10 to void (%class.GalleryWatchManager*)***
  %16 = load void (%class.GalleryWatchManager*)**, void (%class.GalleryWatchManager*)*** %15, align 8
  %17 = getelementptr inbounds void (%class.GalleryWatchManager*)*, void (%class.GalleryWatchManager*)** %16, i64 6
  %18 = load void (%class.GalleryWatchManager*)*, void (%class.GalleryWatchManager*)** %17, align 8
  tail call void %18(%class.GalleryWatchManager* nonnull %10) #10
  %19 = load %class.GalleryWatchManager*, %class.GalleryWatchManager** %3, align 8
  br label %20

20:                                               ; preds = %1, %6, %14
  %21 = phi %class.GalleryWatchManager* [ %4, %1 ], [ %13, %6 ], [ %19, %14 ]
  ret %class.GalleryWatchManager* %21
}

; Function Attrs: nounwind ssp uwtable
define hidden void @_ZN23MediaFileSystemRegistry26OnRemovableStorageDetachedERKN15storage_monitor11StorageInfoE(%class.MediaFileSystemRegistry*, %"class.storage_monitor::StorageInfo"* dereferenceable(128)) unnamed_addr #0 align 2 {
  %3 = alloca %"class.std::__1::vector.346", align 8
  %4 = alloca %"struct.(anonymous namespace)::InvalidatedGalleriesInfo", align 8
  %5 = alloca %"class.std::__1::set.273", align 16
  %6 = bitcast %"class.std::__1::vector.346"* %3 to i8*
  call void @llvm.lifetime.start.p0i8(i64 24, i8* nonnull %6) #10
  %7 = getelementptr inbounds %"class.std::__1::vector.346", %"class.std::__1::vector.346"* %3, i64 0, i32 0, i32 0
  %8 = getelementptr inbounds %"class.std::__1::vector.346", %"class.std::__1::vector.346"* %3, i64 0, i32 0, i32 1
  %9 = getelementptr inbounds %"class.std::__1::vector.346", %"class.std::__1::vector.346"* %3, i64 0, i32 0, i32 2, i32 0, i32 0
  call void @llvm.memset.p0i8.i64(i8* nonnull align 8 %6, i8 0, i64 24, i1 false) #10
  %10 = getelementptr inbounds %class.MediaFileSystemRegistry, %class.MediaFileSystemRegistry* %0, i64 0, i32 2, i32 0, i32 0
  %11 = load %"class.std::__1::__tree_end_node"*, %"class.std::__1::__tree_end_node"** %10, align 8
  %12 = getelementptr inbounds %class.MediaFileSystemRegistry, %class.MediaFileSystemRegistry* %0, i64 0, i32 2, i32 0, i32 1, i32 0, i32 0
  %13 = icmp eq %"class.std::__1::__tree_end_node"* %11, %12
  br i1 %13, label %354, label %14

14:                                               ; preds = %2
  %15 = bitcast %"struct.(anonymous namespace)::InvalidatedGalleriesInfo"* %4 to i8*
  %16 = getelementptr inbounds %"struct.(anonymous namespace)::InvalidatedGalleriesInfo", %"struct.(anonymous namespace)::InvalidatedGalleriesInfo"* %4, i64 0, i32 0, i32 0, i32 0
  %17 = getelementptr inbounds %"struct.(anonymous namespace)::InvalidatedGalleriesInfo", %"struct.(anonymous namespace)::InvalidatedGalleriesInfo"* %4, i64 0, i32 0, i32 0, i32 1, i32 0, i32 0, i32 0
  %18 = getelementptr inbounds %"struct.(anonymous namespace)::InvalidatedGalleriesInfo", %"struct.(anonymous namespace)::InvalidatedGalleriesInfo"* %4, i64 0, i32 0, i32 0, i32 2, i32 0, i32 0
  %19 = getelementptr inbounds %"struct.(anonymous namespace)::InvalidatedGalleriesInfo", %"struct.(anonymous namespace)::InvalidatedGalleriesInfo"* %4, i64 0, i32 1
  %20 = getelementptr inbounds %"class.std::__1::set.273", %"class.std::__1::set.273"* %19, i64 0, i32 0, i32 0
  %21 = getelementptr inbounds %"struct.(anonymous namespace)::InvalidatedGalleriesInfo", %"struct.(anonymous namespace)::InvalidatedGalleriesInfo"* %4, i64 0, i32 1, i32 0, i32 1, i32 0, i32 0, i32 0
  %22 = getelementptr inbounds %"struct.(anonymous namespace)::InvalidatedGalleriesInfo", %"struct.(anonymous namespace)::InvalidatedGalleriesInfo"* %4, i64 0, i32 1, i32 0, i32 2, i32 0, i32 0
  %23 = getelementptr inbounds %"struct.(anonymous namespace)::InvalidatedGalleriesInfo", %"struct.(anonymous namespace)::InvalidatedGalleriesInfo"* %4, i64 0, i32 0, i32 0, i32 1, i32 0, i32 0
  %24 = bitcast %"class.std::__1::__tree_node_base"** %17 to i8*
  %25 = getelementptr inbounds %"struct.(anonymous namespace)::InvalidatedGalleriesInfo", %"struct.(anonymous namespace)::InvalidatedGalleriesInfo"* %4, i64 0, i32 1, i32 0, i32 1, i32 0, i32 0
  %26 = getelementptr inbounds %"struct.(anonymous namespace)::InvalidatedGalleriesInfo", %"struct.(anonymous namespace)::InvalidatedGalleriesInfo"* %4, i64 0, i32 1, i32 0, i32 0
  %27 = bitcast %"class.std::__1::__tree_node_base"** %21 to i8*
  %28 = bitcast %"class.std::__1::set.273"* %5 to i8*
  %29 = getelementptr inbounds %"class.storage_monitor::StorageInfo", %"class.storage_monitor::StorageInfo"* %1, i64 0, i32 0
  %30 = getelementptr inbounds %"class.std::__1::set.273", %"class.std::__1::set.273"* %19, i64 0, i32 0
  %31 = bitcast %"class.std::__1::__tree_end_node"* %25 to %"class.std::__1::__tree_node.550"**
  %32 = getelementptr inbounds %"class.std::__1::set.273", %"class.std::__1::set.273"* %5, i64 0, i32 0, i32 1, i32 0, i32 0
  %33 = getelementptr inbounds %"class.std::__1::set.273", %"class.std::__1::set.273"* %5, i64 0, i32 0, i32 2, i32 0, i32 0
  %34 = getelementptr inbounds %"class.std::__1::set.273", %"class.std::__1::set.273"* %5, i64 0, i32 0, i32 0
  %35 = bitcast %"class.std::__1::__tree_end_node"* %32 to i8*
  %36 = getelementptr inbounds %"class.std::__1::set.273", %"class.std::__1::set.273"* %5, i64 0, i32 0
  %37 = bitcast %"class.std::__1::__tree_end_node"* %23 to %"class.std::__1::__tree_node.609"**
  %38 = getelementptr inbounds %"class.std::__1::__tree_end_node", %"class.std::__1::__tree_end_node"* %23, i64 0, i32 0
  %39 = bitcast %"struct.(anonymous namespace)::InvalidatedGalleriesInfo"* %4 to i64*
  %40 = bitcast %"struct.(anonymous namespace)::InvalidatedGalleriesInfo"** %8 to i64*
  %41 = bitcast %"class.std::__1::vector.346"* %3 to i64*
  %42 = bitcast %"struct.(anonymous namespace)::InvalidatedGalleriesInfo"** %9 to i64*
  %43 = getelementptr inbounds %"struct.(anonymous namespace)::InvalidatedGalleriesInfo", %"struct.(anonymous namespace)::InvalidatedGalleriesInfo"* %4, i64 0, i32 1, i32 0
  %44 = getelementptr inbounds %"struct.(anonymous namespace)::InvalidatedGalleriesInfo", %"struct.(anonymous namespace)::InvalidatedGalleriesInfo"* %4, i64 0, i32 0, i32 0
  %45 = bitcast %"class.std::__1::set.273"* %5 to <2 x i64>*
  %46 = bitcast %"class.std::__1::set.273"* %19 to <2 x i64>*
  br label %54

47:                                               ; preds = %323
  %48 = load i64, i64* %40, align 8
  %49 = load i64, i64* %41, align 8
  %50 = icmp eq i64 %48, %49
  %51 = inttoptr i64 %49 to %"struct.(anonymous namespace)::InvalidatedGalleriesInfo"*
  br i1 %50, label %328, label %52

52:                                               ; preds = %47
  %53 = inttoptr i64 %49 to %"struct.(anonymous namespace)::InvalidatedGalleriesInfo"*
  br label %355

54:                                               ; preds = %14, %323
  %55 = phi %"class.std::__1::__tree_end_node"* [ %11, %14 ], [ %324, %323 ]
  %56 = getelementptr inbounds %"class.std::__1::__tree_end_node", %"class.std::__1::__tree_end_node"* %55, i64 4
  %57 = bitcast %"class.std::__1::__tree_end_node"* %56 to %class.Profile**
  %58 = load %class.Profile*, %class.Profile** %57, align 8
  %59 = call %class.MediaGalleriesPreferences* @_ZN23MediaFileSystemRegistry14GetPreferencesEP7Profile(%class.MediaFileSystemRegistry* %0, %class.Profile* %58)
  %60 = call zeroext i1 @_ZNK25MediaGalleriesPreferences13IsInitializedEv(%class.MediaGalleriesPreferences* %59) #10
  br i1 %60, label %61, label %295

61:                                               ; preds = %54
  call void @llvm.lifetime.start.p0i8(i64 48, i8* nonnull %15) #10
  call void @llvm.memset.p0i8.i64(i8* align 8 %24, i8 0, i64 16, i1 false) #10
  store %"class.std::__1::__tree_end_node"* %23, %"class.std::__1::__tree_end_node"** %16, align 8
  call void @llvm.memset.p0i8.i64(i8* align 8 %27, i8 0, i64 16, i1 false) #10
  store %"class.std::__1::__tree_end_node"* %25, %"class.std::__1::__tree_end_node"** %26, align 8
  call void @llvm.lifetime.start.p0i8(i64 24, i8* nonnull %28) #10
  call void @_ZNK25MediaGalleriesPreferences25LookUpGalleriesByDeviceIdERKNSt3__112basic_stringIcNS0_11char_traitsIcEENS0_9allocatorIcEEEE(%"class.std::__1::set.273"* nonnull sret %5, %class.MediaGalleriesPreferences* %59, %"class.std::__1::basic_string.1"* dereferenceable(24) %29) #10
  %62 = load %"class.std::__1::__tree_node.550"*, %"class.std::__1::__tree_node.550"** %31, align 8
  call void @_ZNSt3__16__treeImNS_4lessImEENS_9allocatorImEEE7destroyEPNS_11__tree_nodeImPvEE(%"class.std::__1::__tree.274"* %30, %"class.std::__1::__tree_node.550"* %62) #10
  %63 = load <2 x i64>, <2 x i64>* %45, align 16
  store <2 x i64> %63, <2 x i64>* %46, align 8
  %64 = load i64, i64* %33, align 16
  store i64 %64, i64* %22, align 8
  %65 = icmp eq i64 %64, 0
  %66 = extractelement <2 x i64> %63, i32 1
  br i1 %65, label %67, label %69

67:                                               ; preds = %61
  %68 = inttoptr i64 %66 to %"class.std::__1::__tree_node.550"*
  store %"class.std::__1::__tree_end_node"* %25, %"class.std::__1::__tree_end_node"** %20, align 8
  br label %72

69:                                               ; preds = %61
  %70 = inttoptr i64 %66 to %"class.std::__1::__tree_node_base"*
  %71 = getelementptr inbounds %"class.std::__1::__tree_node_base", %"class.std::__1::__tree_node_base"* %70, i64 0, i32 2
  store %"class.std::__1::__tree_end_node"* %25, %"class.std::__1::__tree_end_node"** %71, align 8
  store %"class.std::__1::__tree_end_node"* %32, %"class.std::__1::__tree_end_node"** %34, align 16
  call void @llvm.memset.p0i8.i64(i8* align 8 %35, i8 0, i64 16, i1 false) #10
  br label %72

72:                                               ; preds = %67, %69
  %73 = phi %"class.std::__1::__tree_node.550"* [ %68, %67 ], [ null, %69 ]
  call void @_ZNSt3__16__treeImNS_4lessImEENS_9allocatorImEEE7destroyEPNS_11__tree_nodeImPvEE(%"class.std::__1::__tree.274"* nonnull %36, %"class.std::__1::__tree_node.550"* %73) #10
  call void @llvm.lifetime.end.p0i8(i64 24, i8* nonnull %28) #10
  %74 = getelementptr inbounds %"class.std::__1::__tree_end_node", %"class.std::__1::__tree_end_node"* %55, i64 5
  %75 = bitcast %"class.std::__1::__tree_end_node"* %74 to %"class.std::__1::__tree_end_node"**
  %76 = load %"class.std::__1::__tree_end_node"*, %"class.std::__1::__tree_end_node"** %75, align 8
  %77 = getelementptr inbounds %"class.std::__1::__tree_end_node", %"class.std::__1::__tree_end_node"* %55, i64 6
  %78 = icmp eq %"class.std::__1::__tree_end_node"* %76, %77
  br i1 %78, label %79, label %204

79:                                               ; preds = %292, %72
  %80 = load %"struct.(anonymous namespace)::InvalidatedGalleriesInfo"*, %"struct.(anonymous namespace)::InvalidatedGalleriesInfo"** %8, align 8
  %81 = load %"struct.(anonymous namespace)::InvalidatedGalleriesInfo"*, %"struct.(anonymous namespace)::InvalidatedGalleriesInfo"** %9, align 8
  %82 = icmp eq %"struct.(anonymous namespace)::InvalidatedGalleriesInfo"* %80, %81
  %83 = ptrtoint %"struct.(anonymous namespace)::InvalidatedGalleriesInfo"* %81 to i64
  br i1 %82, label %87, label %84

84:                                               ; preds = %79
  call fastcc void @_ZNSt3__116allocator_traitsINS_9allocatorIN12_GLOBAL__N_124InvalidatedGalleriesInfoEEEE9constructIS3_JRKS3_EvEEvRS4_PT_DpOT0_(%"struct.(anonymous namespace)::InvalidatedGalleriesInfo"* %80, %"struct.(anonymous namespace)::InvalidatedGalleriesInfo"* nonnull dereferenceable(48) %4) #10
  %85 = getelementptr inbounds %"struct.(anonymous namespace)::InvalidatedGalleriesInfo", %"struct.(anonymous namespace)::InvalidatedGalleriesInfo"* %80, i64 1
  %86 = ptrtoint %"struct.(anonymous namespace)::InvalidatedGalleriesInfo"* %85 to i64
  store i64 %86, i64* %40, align 8
  br label %201

87:                                               ; preds = %79
  %88 = ptrtoint %"struct.(anonymous namespace)::InvalidatedGalleriesInfo"* %80 to i64
  %89 = load i64, i64* %41, align 8
  %90 = sub i64 %88, %89
  %91 = sdiv exact i64 %90, 48
  %92 = add nsw i64 %91, 1
  %93 = icmp ugt i64 %92, 384307168202282325
  br i1 %93, label %94, label %96

94:                                               ; preds = %87
  %95 = bitcast %"class.std::__1::vector.346"* %3 to %"class.std::__1::__vector_base_common"*
  call void @_ZNKSt3__120__vector_base_commonILb1EE20__throw_length_errorEv(%"class.std::__1::__vector_base_common"* nonnull %95) #11
  unreachable

96:                                               ; preds = %87
  %97 = sub i64 %83, %89
  %98 = sdiv exact i64 %97, 48
  %99 = icmp ult i64 %98, 192153584101141162
  br i1 %99, label %100, label %105

100:                                              ; preds = %96
  %101 = shl nsw i64 %98, 1
  %102 = icmp ult i64 %101, %92
  %103 = select i1 %102, i64 %92, i64 %101
  %104 = icmp eq i64 %103, 0
  br i1 %104, label %110, label %105

105:                                              ; preds = %100, %96
  %106 = phi i64 [ %103, %100 ], [ 384307168202282325, %96 ]
  %107 = mul i64 %106, 48
  %108 = call i8* @_Znwm(i64 %107) #12
  %109 = bitcast i8* %108 to %"struct.(anonymous namespace)::InvalidatedGalleriesInfo"*
  br label %110

110:                                              ; preds = %105, %100
  %111 = phi i64 [ %106, %105 ], [ 0, %100 ]
  %112 = phi %"struct.(anonymous namespace)::InvalidatedGalleriesInfo"* [ %109, %105 ], [ null, %100 ]
  %113 = getelementptr inbounds %"struct.(anonymous namespace)::InvalidatedGalleriesInfo", %"struct.(anonymous namespace)::InvalidatedGalleriesInfo"* %112, i64 %91
  %114 = getelementptr inbounds %"struct.(anonymous namespace)::InvalidatedGalleriesInfo", %"struct.(anonymous namespace)::InvalidatedGalleriesInfo"* %112, i64 %111
  %115 = ptrtoint %"struct.(anonymous namespace)::InvalidatedGalleriesInfo"* %114 to i64
  call fastcc void @_ZNSt3__116allocator_traitsINS_9allocatorIN12_GLOBAL__N_124InvalidatedGalleriesInfoEEEE9constructIS3_JRKS3_EvEEvRS4_PT_DpOT0_(%"struct.(anonymous namespace)::InvalidatedGalleriesInfo"* %113, %"struct.(anonymous namespace)::InvalidatedGalleriesInfo"* nonnull dereferenceable(48) %4) #10
  %116 = getelementptr inbounds %"struct.(anonymous namespace)::InvalidatedGalleriesInfo", %"struct.(anonymous namespace)::InvalidatedGalleriesInfo"* %113, i64 1
  %117 = ptrtoint %"struct.(anonymous namespace)::InvalidatedGalleriesInfo"* %116 to i64
  %118 = load %"struct.(anonymous namespace)::InvalidatedGalleriesInfo"*, %"struct.(anonymous namespace)::InvalidatedGalleriesInfo"** %7, align 8
  %119 = load %"struct.(anonymous namespace)::InvalidatedGalleriesInfo"*, %"struct.(anonymous namespace)::InvalidatedGalleriesInfo"** %8, align 8
  %120 = icmp eq %"struct.(anonymous namespace)::InvalidatedGalleriesInfo"* %119, %118
  br i1 %120, label %121, label %123

121:                                              ; preds = %110
  %122 = ptrtoint %"struct.(anonymous namespace)::InvalidatedGalleriesInfo"* %118 to i64
  br label %178

123:                                              ; preds = %110, %173
  %124 = phi %"struct.(anonymous namespace)::InvalidatedGalleriesInfo"* [ %126, %173 ], [ %113, %110 ]
  %125 = phi %"struct.(anonymous namespace)::InvalidatedGalleriesInfo"* [ %127, %173 ], [ %119, %110 ]
  %126 = getelementptr inbounds %"struct.(anonymous namespace)::InvalidatedGalleriesInfo", %"struct.(anonymous namespace)::InvalidatedGalleriesInfo"* %124, i64 -1
  %127 = getelementptr inbounds %"struct.(anonymous namespace)::InvalidatedGalleriesInfo", %"struct.(anonymous namespace)::InvalidatedGalleriesInfo"* %125, i64 -1
  %128 = bitcast %"struct.(anonymous namespace)::InvalidatedGalleriesInfo"* %127 to i64*
  %129 = load i64, i64* %128, align 8
  %130 = bitcast %"struct.(anonymous namespace)::InvalidatedGalleriesInfo"* %126 to i64*
  store i64 %129, i64* %130, align 8
  %131 = getelementptr inbounds %"struct.(anonymous namespace)::InvalidatedGalleriesInfo", %"struct.(anonymous namespace)::InvalidatedGalleriesInfo"* %124, i64 -1, i32 0, i32 0, i32 1
  %132 = getelementptr inbounds %"struct.(anonymous namespace)::InvalidatedGalleriesInfo", %"struct.(anonymous namespace)::InvalidatedGalleriesInfo"* %125, i64 -1, i32 0, i32 0, i32 1
  %133 = bitcast %"class.std::__1::__compressed_pair.350"* %132 to i64*
  %134 = bitcast %"class.std::__1::__compressed_pair.350"* %131 to i64*
  %135 = load i64, i64* %133, align 8
  store i64 %135, i64* %134, align 8
  %136 = getelementptr inbounds %"struct.(anonymous namespace)::InvalidatedGalleriesInfo", %"struct.(anonymous namespace)::InvalidatedGalleriesInfo"* %125, i64 -1, i32 0, i32 0, i32 2, i32 0, i32 0
  %137 = getelementptr inbounds %"struct.(anonymous namespace)::InvalidatedGalleriesInfo", %"struct.(anonymous namespace)::InvalidatedGalleriesInfo"* %124, i64 -1, i32 0, i32 0, i32 2, i32 0, i32 0
  %138 = load i64, i64* %136, align 8
  store i64 %138, i64* %137, align 8
  %139 = icmp eq i64 %138, 0
  %140 = getelementptr inbounds %"struct.(anonymous namespace)::InvalidatedGalleriesInfo", %"struct.(anonymous namespace)::InvalidatedGalleriesInfo"* %124, i64 -1, i32 0, i32 0, i32 1, i32 0, i32 0
  br i1 %139, label %141, label %143

141:                                              ; preds = %123
  %142 = getelementptr inbounds %"struct.(anonymous namespace)::InvalidatedGalleriesInfo", %"struct.(anonymous namespace)::InvalidatedGalleriesInfo"* %126, i64 0, i32 0, i32 0, i32 0
  store %"class.std::__1::__tree_end_node"* %140, %"class.std::__1::__tree_end_node"** %142, align 8
  br label %149

143:                                              ; preds = %123
  %144 = inttoptr i64 %135 to %"class.std::__1::__tree_node_base"*
  %145 = getelementptr inbounds %"struct.(anonymous namespace)::InvalidatedGalleriesInfo", %"struct.(anonymous namespace)::InvalidatedGalleriesInfo"* %127, i64 0, i32 0, i32 0, i32 0
  %146 = getelementptr inbounds %"class.std::__1::__tree_node_base", %"class.std::__1::__tree_node_base"* %144, i64 0, i32 2
  store %"class.std::__1::__tree_end_node"* %140, %"class.std::__1::__tree_end_node"** %146, align 8
  %147 = getelementptr inbounds %"struct.(anonymous namespace)::InvalidatedGalleriesInfo", %"struct.(anonymous namespace)::InvalidatedGalleriesInfo"* %125, i64 -1, i32 0, i32 0, i32 1, i32 0, i32 0
  store %"class.std::__1::__tree_end_node"* %147, %"class.std::__1::__tree_end_node"** %145, align 8
  %148 = bitcast %"class.std::__1::__tree_end_node"* %147 to i8*
  call void @llvm.memset.p0i8.i64(i8* align 8 %148, i8 0, i64 16, i1 false) #10
  br label %149

149:                                              ; preds = %143, %141
  %150 = getelementptr inbounds %"struct.(anonymous namespace)::InvalidatedGalleriesInfo", %"struct.(anonymous namespace)::InvalidatedGalleriesInfo"* %124, i64 -1, i32 1
  %151 = getelementptr inbounds %"struct.(anonymous namespace)::InvalidatedGalleriesInfo", %"struct.(anonymous namespace)::InvalidatedGalleriesInfo"* %125, i64 -1, i32 1
  %152 = bitcast %"class.std::__1::set.273"* %151 to i64*
  %153 = load i64, i64* %152, align 8
  %154 = bitcast %"class.std::__1::set.273"* %150 to i64*
  store i64 %153, i64* %154, align 8
  %155 = getelementptr inbounds %"struct.(anonymous namespace)::InvalidatedGalleriesInfo", %"struct.(anonymous namespace)::InvalidatedGalleriesInfo"* %124, i64 -1, i32 1, i32 0, i32 1
  %156 = getelementptr inbounds %"struct.(anonymous namespace)::InvalidatedGalleriesInfo", %"struct.(anonymous namespace)::InvalidatedGalleriesInfo"* %125, i64 -1, i32 1, i32 0, i32 1
  %157 = bitcast %"class.std::__1::__compressed_pair.275"* %156 to i64*
  %158 = bitcast %"class.std::__1::__compressed_pair.275"* %155 to i64*
  %159 = load i64, i64* %157, align 8
  store i64 %159, i64* %158, align 8
  %160 = getelementptr inbounds %"struct.(anonymous namespace)::InvalidatedGalleriesInfo", %"struct.(anonymous namespace)::InvalidatedGalleriesInfo"* %125, i64 -1, i32 1, i32 0, i32 2, i32 0, i32 0
  %161 = getelementptr inbounds %"struct.(anonymous namespace)::InvalidatedGalleriesInfo", %"struct.(anonymous namespace)::InvalidatedGalleriesInfo"* %124, i64 -1, i32 1, i32 0, i32 2, i32 0, i32 0
  %162 = load i64, i64* %160, align 8
  store i64 %162, i64* %161, align 8
  %163 = icmp eq i64 %162, 0
  %164 = getelementptr inbounds %"struct.(anonymous namespace)::InvalidatedGalleriesInfo", %"struct.(anonymous namespace)::InvalidatedGalleriesInfo"* %124, i64 -1, i32 1, i32 0, i32 1, i32 0, i32 0
  br i1 %163, label %165, label %167

165:                                              ; preds = %149
  %166 = getelementptr inbounds %"class.std::__1::set.273", %"class.std::__1::set.273"* %150, i64 0, i32 0, i32 0
  store %"class.std::__1::__tree_end_node"* %164, %"class.std::__1::__tree_end_node"** %166, align 8
  br label %173

167:                                              ; preds = %149
  %168 = inttoptr i64 %159 to %"class.std::__1::__tree_node_base"*
  %169 = getelementptr inbounds %"class.std::__1::set.273", %"class.std::__1::set.273"* %151, i64 0, i32 0, i32 0
  %170 = getelementptr inbounds %"class.std::__1::__tree_node_base", %"class.std::__1::__tree_node_base"* %168, i64 0, i32 2
  store %"class.std::__1::__tree_end_node"* %164, %"class.std::__1::__tree_end_node"** %170, align 8
  %171 = getelementptr inbounds %"struct.(anonymous namespace)::InvalidatedGalleriesInfo", %"struct.(anonymous namespace)::InvalidatedGalleriesInfo"* %125, i64 -1, i32 1, i32 0, i32 1, i32 0, i32 0
  store %"class.std::__1::__tree_end_node"* %171, %"class.std::__1::__tree_end_node"** %169, align 8
  %172 = bitcast %"class.std::__1::__tree_end_node"* %171 to i8*
  call void @llvm.memset.p0i8.i64(i8* align 8 %172, i8 0, i64 16, i1 false) #10
  br label %173

173:                                              ; preds = %167, %165
  %174 = icmp eq %"struct.(anonymous namespace)::InvalidatedGalleriesInfo"* %127, %118
  br i1 %174, label %175, label %123

175:                                              ; preds = %173
  %176 = load i64, i64* %41, align 8
  %177 = load %"struct.(anonymous namespace)::InvalidatedGalleriesInfo"*, %"struct.(anonymous namespace)::InvalidatedGalleriesInfo"** %8, align 8
  br label %178

178:                                              ; preds = %175, %121
  %179 = phi %"struct.(anonymous namespace)::InvalidatedGalleriesInfo"* [ %118, %121 ], [ %177, %175 ]
  %180 = phi %"struct.(anonymous namespace)::InvalidatedGalleriesInfo"* [ %113, %121 ], [ %126, %175 ]
  %181 = phi i64 [ %122, %121 ], [ %176, %175 ]
  %182 = ptrtoint %"struct.(anonymous namespace)::InvalidatedGalleriesInfo"* %180 to i64
  store i64 %182, i64* %41, align 8
  store i64 %117, i64* %40, align 8
  store i64 %115, i64* %42, align 8
  %183 = inttoptr i64 %181 to %"struct.(anonymous namespace)::InvalidatedGalleriesInfo"*
  %184 = icmp eq %"struct.(anonymous namespace)::InvalidatedGalleriesInfo"* %179, %183
  br i1 %184, label %197, label %185

185:                                              ; preds = %178, %185
  %186 = phi %"struct.(anonymous namespace)::InvalidatedGalleriesInfo"* [ %187, %185 ], [ %179, %178 ]
  %187 = getelementptr inbounds %"struct.(anonymous namespace)::InvalidatedGalleriesInfo", %"struct.(anonymous namespace)::InvalidatedGalleriesInfo"* %186, i64 -1
  %188 = getelementptr inbounds %"struct.(anonymous namespace)::InvalidatedGalleriesInfo", %"struct.(anonymous namespace)::InvalidatedGalleriesInfo"* %186, i64 -1, i32 1, i32 0
  %189 = getelementptr inbounds %"struct.(anonymous namespace)::InvalidatedGalleriesInfo", %"struct.(anonymous namespace)::InvalidatedGalleriesInfo"* %186, i64 -1, i32 1, i32 0, i32 1, i32 0, i32 0
  %190 = bitcast %"class.std::__1::__tree_end_node"* %189 to %"class.std::__1::__tree_node.550"**
  %191 = load %"class.std::__1::__tree_node.550"*, %"class.std::__1::__tree_node.550"** %190, align 8
  call void @_ZNSt3__16__treeImNS_4lessImEENS_9allocatorImEEE7destroyEPNS_11__tree_nodeImPvEE(%"class.std::__1::__tree.274"* %188, %"class.std::__1::__tree_node.550"* %191) #10
  %192 = getelementptr inbounds %"struct.(anonymous namespace)::InvalidatedGalleriesInfo", %"struct.(anonymous namespace)::InvalidatedGalleriesInfo"* %187, i64 0, i32 0, i32 0
  %193 = getelementptr inbounds %"struct.(anonymous namespace)::InvalidatedGalleriesInfo", %"struct.(anonymous namespace)::InvalidatedGalleriesInfo"* %186, i64 -1, i32 0, i32 0, i32 1, i32 0, i32 0
  %194 = bitcast %"class.std::__1::__tree_end_node"* %193 to %"class.std::__1::__tree_node.609"**
  %195 = load %"class.std::__1::__tree_node.609"*, %"class.std::__1::__tree_node.609"** %194, align 8
  call void @_ZNSt3__16__treeIP22ExtensionGalleriesHostNS_4lessIS2_EENS_9allocatorIS2_EEE7destroyEPNS_11__tree_nodeIS2_PvEE(%"class.std::__1::__tree.349"* %192, %"class.std::__1::__tree_node.609"* %195) #10
  %196 = icmp eq %"struct.(anonymous namespace)::InvalidatedGalleriesInfo"* %187, %183
  br i1 %196, label %197, label %185

197:                                              ; preds = %185, %178
  %198 = icmp eq i64 %181, 0
  br i1 %198, label %201, label %199

199:                                              ; preds = %197
  %200 = inttoptr i64 %181 to i8*
  call void @_ZdlPv(i8* %200) #12
  br label %201

201:                                              ; preds = %84, %197, %199
  %202 = load %"class.std::__1::__tree_node.550"*, %"class.std::__1::__tree_node.550"** %31, align 8
  call void @_ZNSt3__16__treeImNS_4lessImEENS_9allocatorImEEE7destroyEPNS_11__tree_nodeImPvEE(%"class.std::__1::__tree.274"* %43, %"class.std::__1::__tree_node.550"* %202) #10
  %203 = load %"class.std::__1::__tree_node.609"*, %"class.std::__1::__tree_node.609"** %37, align 8
  call void @_ZNSt3__16__treeIP22ExtensionGalleriesHostNS_4lessIS2_EENS_9allocatorIS2_EEE7destroyEPNS_11__tree_nodeIS2_PvEE(%"class.std::__1::__tree.349"* nonnull %44, %"class.std::__1::__tree_node.609"* %203) #10
  call void @llvm.lifetime.end.p0i8(i64 48, i8* nonnull %15) #10
  br label %295

204:                                              ; preds = %72, %292
  %205 = phi %"class.std::__1::__tree_end_node"* [ %293, %292 ], [ %76, %72 ]
  %206 = getelementptr inbounds %"class.std::__1::__tree_end_node", %"class.std::__1::__tree_end_node"* %205, i64 7
  %207 = bitcast %"class.std::__1::__tree_end_node"* %206 to %class.ExtensionGalleriesHost**
  %208 = load %class.ExtensionGalleriesHost*, %class.ExtensionGalleriesHost** %207, align 8
  %209 = ptrtoint %class.ExtensionGalleriesHost* %208 to i64
  %210 = load %"class.std::__1::__tree_node.609"*, %"class.std::__1::__tree_node.609"** %37, align 8
  %211 = icmp eq %"class.std::__1::__tree_node.609"* %210, null
  br i1 %211, label %238, label %212

212:                                              ; preds = %204, %234
  %213 = phi %"class.std::__1::__tree_node.609"* [ %237, %234 ], [ %210, %204 ]
  %214 = phi %"class.std::__1::__tree_node_base"** [ %236, %234 ], [ %17, %204 ]
  %215 = getelementptr inbounds %"class.std::__1::__tree_node.609", %"class.std::__1::__tree_node.609"* %213, i64 0, i32 1
  %216 = load %class.ExtensionGalleriesHost*, %class.ExtensionGalleriesHost** %215, align 8
  %217 = icmp ult %class.ExtensionGalleriesHost* %208, %216
  br i1 %217, label %218, label %224

218:                                              ; preds = %212
  %219 = getelementptr inbounds %"class.std::__1::__tree_node.609", %"class.std::__1::__tree_node.609"* %213, i64 0, i32 0, i32 0, i32 0
  %220 = load %"class.std::__1::__tree_node_base"*, %"class.std::__1::__tree_node_base"** %219, align 8
  %221 = icmp eq %"class.std::__1::__tree_node_base"* %220, null
  br i1 %221, label %222, label %234

222:                                              ; preds = %218
  %223 = getelementptr inbounds %"class.std::__1::__tree_node.609", %"class.std::__1::__tree_node.609"* %213, i64 0, i32 0, i32 0
  br label %238

224:                                              ; preds = %212
  %225 = icmp ult %class.ExtensionGalleriesHost* %216, %208
  br i1 %225, label %226, label %232

226:                                              ; preds = %224
  %227 = getelementptr inbounds %"class.std::__1::__tree_node.609", %"class.std::__1::__tree_node.609"* %213, i64 0, i32 0, i32 1
  %228 = load %"class.std::__1::__tree_node_base"*, %"class.std::__1::__tree_node_base"** %227, align 8
  %229 = icmp eq %"class.std::__1::__tree_node_base"* %228, null
  br i1 %229, label %230, label %234

230:                                              ; preds = %226
  %231 = getelementptr inbounds %"class.std::__1::__tree_node.609", %"class.std::__1::__tree_node.609"* %213, i64 0, i32 0, i32 0
  br label %238

232:                                              ; preds = %224
  %233 = getelementptr inbounds %"class.std::__1::__tree_node.609", %"class.std::__1::__tree_node.609"* %213, i64 0, i32 0, i32 0
  br label %238

234:                                              ; preds = %226, %218
  %235 = phi %"class.std::__1::__tree_node_base"* [ %220, %218 ], [ %228, %226 ]
  %236 = phi %"class.std::__1::__tree_node_base"** [ %219, %218 ], [ %227, %226 ]
  %237 = bitcast %"class.std::__1::__tree_node_base"* %235 to %"class.std::__1::__tree_node.609"*
  br label %212

238:                                              ; preds = %204, %232, %230, %222
  %239 = phi %"class.std::__1::__tree_end_node"* [ %223, %222 ], [ %231, %230 ], [ %233, %232 ], [ %23, %204 ]
  %240 = phi %"class.std::__1::__tree_node_base"** [ %219, %222 ], [ %227, %230 ], [ %214, %232 ], [ %38, %204 ]
  %241 = bitcast %"class.std::__1::__tree_node_base"** %240 to %"class.std::__1::__tree_node.609"**
  %242 = load %"class.std::__1::__tree_node.609"*, %"class.std::__1::__tree_node.609"** %241, align 8
  %243 = icmp eq %"class.std::__1::__tree_node.609"* %242, null
  br i1 %243, label %244, label %264

244:                                              ; preds = %238
  %245 = call i8* @_Znwm(i64 40) #12, !noalias !62
  %246 = getelementptr inbounds i8, i8* %245, i64 32
  %247 = bitcast i8* %246 to i64*
  store i64 %209, i64* %247, align 8, !noalias !62
  %248 = bitcast i8* %245 to %"class.std::__1::__tree_node_base"*
  %249 = getelementptr inbounds i8, i8* %245, i64 16
  %250 = bitcast i8* %249 to %"class.std::__1::__tree_end_node"**
  call void @llvm.memset.p0i8.i64(i8* nonnull align 8 %245, i8 0, i64 16, i1 false) #10
  store %"class.std::__1::__tree_end_node"* %239, %"class.std::__1::__tree_end_node"** %250, align 8
  %251 = bitcast %"class.std::__1::__tree_node_base"** %240 to i8**
  store i8* %245, i8** %251, align 8
  %252 = load %"class.std::__1::__tree_end_node"*, %"class.std::__1::__tree_end_node"** %16, align 8
  %253 = getelementptr inbounds %"class.std::__1::__tree_end_node", %"class.std::__1::__tree_end_node"* %252, i64 0, i32 0
  %254 = load %"class.std::__1::__tree_node_base"*, %"class.std::__1::__tree_node_base"** %253, align 8
  %255 = icmp eq %"class.std::__1::__tree_node_base"* %254, null
  br i1 %255, label %259, label %256

256:                                              ; preds = %244
  %257 = ptrtoint %"class.std::__1::__tree_node_base"* %254 to i64
  store i64 %257, i64* %39, align 8
  %258 = load %"class.std::__1::__tree_node_base"*, %"class.std::__1::__tree_node_base"** %240, align 8
  br label %259

259:                                              ; preds = %256, %244
  %260 = phi %"class.std::__1::__tree_node_base"* [ %248, %244 ], [ %258, %256 ]
  %261 = load %"class.std::__1::__tree_node_base"*, %"class.std::__1::__tree_node_base"** %17, align 8
  call void @_ZNSt3__127__tree_balance_after_insertIPNS_16__tree_node_baseIPvEEEEvT_S5_(%"class.std::__1::__tree_node_base"* %261, %"class.std::__1::__tree_node_base"* %260) #10
  %262 = load i64, i64* %18, align 8
  %263 = add i64 %262, 1
  store i64 %263, i64* %18, align 8
  br label %264

264:                                              ; preds = %238, %259
  %265 = getelementptr inbounds %"class.std::__1::__tree_end_node", %"class.std::__1::__tree_end_node"* %205, i64 1, i32 0
  %266 = load %"class.std::__1::__tree_node_base"*, %"class.std::__1::__tree_node_base"** %265, align 8
  %267 = icmp eq %"class.std::__1::__tree_node_base"* %266, null
  br i1 %267, label %268, label %276

268:                                              ; preds = %264
  %269 = bitcast %"class.std::__1::__tree_end_node"* %205 to %"class.std::__1::__tree_node_base"*
  %270 = getelementptr inbounds %"class.std::__1::__tree_end_node", %"class.std::__1::__tree_end_node"* %205, i64 2
  %271 = bitcast %"class.std::__1::__tree_end_node"* %270 to %"class.std::__1::__tree_end_node"**
  %272 = load %"class.std::__1::__tree_end_node"*, %"class.std::__1::__tree_end_node"** %271, align 8
  %273 = getelementptr inbounds %"class.std::__1::__tree_end_node", %"class.std::__1::__tree_end_node"* %272, i64 0, i32 0
  %274 = load %"class.std::__1::__tree_node_base"*, %"class.std::__1::__tree_node_base"** %273, align 8
  %275 = icmp eq %"class.std::__1::__tree_node_base"* %274, %269
  br i1 %275, label %292, label %283

276:                                              ; preds = %264, %276
  %277 = phi %"class.std::__1::__tree_node_base"* [ %279, %276 ], [ %266, %264 ]
  %278 = getelementptr inbounds %"class.std::__1::__tree_node_base", %"class.std::__1::__tree_node_base"* %277, i64 0, i32 0, i32 0
  %279 = load %"class.std::__1::__tree_node_base"*, %"class.std::__1::__tree_node_base"** %278, align 8
  %280 = icmp eq %"class.std::__1::__tree_node_base"* %279, null
  br i1 %280, label %281, label %276

281:                                              ; preds = %276
  %282 = getelementptr inbounds %"class.std::__1::__tree_node_base", %"class.std::__1::__tree_node_base"* %277, i64 0, i32 0
  br label %292

283:                                              ; preds = %268, %283
  %284 = phi %"class.std::__1::__tree_end_node"** [ %287, %283 ], [ %271, %268 ]
  %285 = bitcast %"class.std::__1::__tree_end_node"** %284 to %"class.std::__1::__tree_node_base"**
  %286 = load %"class.std::__1::__tree_node_base"*, %"class.std::__1::__tree_node_base"** %285, align 8
  %287 = getelementptr inbounds %"class.std::__1::__tree_node_base", %"class.std::__1::__tree_node_base"* %286, i64 0, i32 2
  %288 = load %"class.std::__1::__tree_end_node"*, %"class.std::__1::__tree_end_node"** %287, align 8
  %289 = getelementptr inbounds %"class.std::__1::__tree_end_node", %"class.std::__1::__tree_end_node"* %288, i64 0, i32 0
  %290 = load %"class.std::__1::__tree_node_base"*, %"class.std::__1::__tree_node_base"** %289, align 8
  %291 = icmp eq %"class.std::__1::__tree_node_base"* %290, %286
  br i1 %291, label %292, label %283

292:                                              ; preds = %283, %268, %281
  %293 = phi %"class.std::__1::__tree_end_node"* [ %282, %281 ], [ %272, %268 ], [ %288, %283 ]
  %294 = icmp eq %"class.std::__1::__tree_end_node"* %293, %77
  br i1 %294, label %79, label %204

295:                                              ; preds = %54, %201
  %296 = getelementptr inbounds %"class.std::__1::__tree_end_node", %"class.std::__1::__tree_end_node"* %55, i64 1, i32 0
  %297 = load %"class.std::__1::__tree_node_base"*, %"class.std::__1::__tree_node_base"** %296, align 8
  %298 = icmp eq %"class.std::__1::__tree_node_base"* %297, null
  br i1 %298, label %299, label %307

299:                                              ; preds = %295
  %300 = bitcast %"class.std::__1::__tree_end_node"* %55 to %"class.std::__1::__tree_node_base"*
  %301 = getelementptr inbounds %"class.std::__1::__tree_end_node", %"class.std::__1::__tree_end_node"* %55, i64 2
  %302 = bitcast %"class.std::__1::__tree_end_node"* %301 to %"class.std::__1::__tree_end_node"**
  %303 = load %"class.std::__1::__tree_end_node"*, %"class.std::__1::__tree_end_node"** %302, align 8
  %304 = getelementptr inbounds %"class.std::__1::__tree_end_node", %"class.std::__1::__tree_end_node"* %303, i64 0, i32 0
  %305 = load %"class.std::__1::__tree_node_base"*, %"class.std::__1::__tree_node_base"** %304, align 8
  %306 = icmp eq %"class.std::__1::__tree_node_base"* %305, %300
  br i1 %306, label %323, label %314

307:                                              ; preds = %295, %307
  %308 = phi %"class.std::__1::__tree_node_base"* [ %310, %307 ], [ %297, %295 ]
  %309 = getelementptr inbounds %"class.std::__1::__tree_node_base", %"class.std::__1::__tree_node_base"* %308, i64 0, i32 0, i32 0
  %310 = load %"class.std::__1::__tree_node_base"*, %"class.std::__1::__tree_node_base"** %309, align 8
  %311 = icmp eq %"class.std::__1::__tree_node_base"* %310, null
  br i1 %311, label %312, label %307

312:                                              ; preds = %307
  %313 = getelementptr inbounds %"class.std::__1::__tree_node_base", %"class.std::__1::__tree_node_base"* %308, i64 0, i32 0
  br label %323

314:                                              ; preds = %299, %314
  %315 = phi %"class.std::__1::__tree_end_node"** [ %318, %314 ], [ %302, %299 ]
  %316 = bitcast %"class.std::__1::__tree_end_node"** %315 to %"class.std::__1::__tree_node_base"**
  %317 = load %"class.std::__1::__tree_node_base"*, %"class.std::__1::__tree_node_base"** %316, align 8
  %318 = getelementptr inbounds %"class.std::__1::__tree_node_base", %"class.std::__1::__tree_node_base"* %317, i64 0, i32 2
  %319 = load %"class.std::__1::__tree_end_node"*, %"class.std::__1::__tree_end_node"** %318, align 8
  %320 = getelementptr inbounds %"class.std::__1::__tree_end_node", %"class.std::__1::__tree_end_node"* %319, i64 0, i32 0
  %321 = load %"class.std::__1::__tree_node_base"*, %"class.std::__1::__tree_node_base"** %320, align 8
  %322 = icmp eq %"class.std::__1::__tree_node_base"* %321, %317
  br i1 %322, label %323, label %314

323:                                              ; preds = %314, %299, %312
  %324 = phi %"class.std::__1::__tree_end_node"* [ %313, %312 ], [ %303, %299 ], [ %319, %314 ]
  %325 = icmp eq %"class.std::__1::__tree_end_node"* %324, %12
  br i1 %325, label %47, label %54

326:                                              ; preds = %363
  %327 = inttoptr i64 %366 to %"struct.(anonymous namespace)::InvalidatedGalleriesInfo"*
  br label %328

328:                                              ; preds = %47, %326
  %329 = phi i64 [ %365, %326 ], [ %48, %47 ]
  %330 = phi i64 [ %366, %326 ], [ %49, %47 ]
  %331 = phi %"struct.(anonymous namespace)::InvalidatedGalleriesInfo"* [ %327, %326 ], [ %51, %47 ]
  %332 = inttoptr i64 %329 to %"struct.(anonymous namespace)::InvalidatedGalleriesInfo"*
  %333 = icmp eq i64 %330, 0
  br i1 %333, label %354, label %334

334:                                              ; preds = %328
  %335 = inttoptr i64 %330 to i8*
  %336 = icmp eq %"struct.(anonymous namespace)::InvalidatedGalleriesInfo"* %331, %332
  br i1 %336, label %352, label %337

337:                                              ; preds = %334, %337
  %338 = phi %"struct.(anonymous namespace)::InvalidatedGalleriesInfo"* [ %339, %337 ], [ %332, %334 ]
  %339 = getelementptr inbounds %"struct.(anonymous namespace)::InvalidatedGalleriesInfo", %"struct.(anonymous namespace)::InvalidatedGalleriesInfo"* %338, i64 -1
  %340 = getelementptr inbounds %"struct.(anonymous namespace)::InvalidatedGalleriesInfo", %"struct.(anonymous namespace)::InvalidatedGalleriesInfo"* %338, i64 -1, i32 1, i32 0
  %341 = getelementptr inbounds %"struct.(anonymous namespace)::InvalidatedGalleriesInfo", %"struct.(anonymous namespace)::InvalidatedGalleriesInfo"* %338, i64 -1, i32 1, i32 0, i32 1, i32 0, i32 0
  %342 = bitcast %"class.std::__1::__tree_end_node"* %341 to %"class.std::__1::__tree_node.550"**
  %343 = load %"class.std::__1::__tree_node.550"*, %"class.std::__1::__tree_node.550"** %342, align 8
  call void @_ZNSt3__16__treeImNS_4lessImEENS_9allocatorImEEE7destroyEPNS_11__tree_nodeImPvEE(%"class.std::__1::__tree.274"* %340, %"class.std::__1::__tree_node.550"* %343) #10
  %344 = getelementptr inbounds %"struct.(anonymous namespace)::InvalidatedGalleriesInfo", %"struct.(anonymous namespace)::InvalidatedGalleriesInfo"* %339, i64 0, i32 0, i32 0
  %345 = getelementptr inbounds %"struct.(anonymous namespace)::InvalidatedGalleriesInfo", %"struct.(anonymous namespace)::InvalidatedGalleriesInfo"* %338, i64 -1, i32 0, i32 0, i32 1, i32 0, i32 0
  %346 = bitcast %"class.std::__1::__tree_end_node"* %345 to %"class.std::__1::__tree_node.609"**
  %347 = load %"class.std::__1::__tree_node.609"*, %"class.std::__1::__tree_node.609"** %346, align 8
  call void @_ZNSt3__16__treeIP22ExtensionGalleriesHostNS_4lessIS2_EENS_9allocatorIS2_EEE7destroyEPNS_11__tree_nodeIS2_PvEE(%"class.std::__1::__tree.349"* %344, %"class.std::__1::__tree_node.609"* %347) #10
  %348 = icmp eq %"struct.(anonymous namespace)::InvalidatedGalleriesInfo"* %339, %331
  br i1 %348, label %349, label %337

349:                                              ; preds = %337
  %350 = bitcast %"class.std::__1::vector.346"* %3 to i8**
  %351 = load i8*, i8** %350, align 8
  br label %352

352:                                              ; preds = %349, %334
  %353 = phi i8* [ %351, %349 ], [ %335, %334 ]
  store %"struct.(anonymous namespace)::InvalidatedGalleriesInfo"* %331, %"struct.(anonymous namespace)::InvalidatedGalleriesInfo"** %8, align 8
  call void @_ZdlPv(i8* %353) #12
  br label %354

354:                                              ; preds = %2, %328, %352
  call void @llvm.lifetime.end.p0i8(i64 24, i8* nonnull %6) #10
  ret void

355:                                              ; preds = %52, %363
  %356 = phi %"struct.(anonymous namespace)::InvalidatedGalleriesInfo"* [ %370, %363 ], [ %53, %52 ]
  %357 = phi %"struct.(anonymous namespace)::InvalidatedGalleriesInfo"* [ %370, %363 ], [ %51, %52 ]
  %358 = phi i64 [ %364, %363 ], [ 0, %52 ]
  %359 = getelementptr inbounds %"struct.(anonymous namespace)::InvalidatedGalleriesInfo", %"struct.(anonymous namespace)::InvalidatedGalleriesInfo"* %357, i64 %358, i32 0, i32 0, i32 0
  %360 = load %"class.std::__1::__tree_end_node"*, %"class.std::__1::__tree_end_node"** %359, align 8
  %361 = getelementptr inbounds %"struct.(anonymous namespace)::InvalidatedGalleriesInfo", %"struct.(anonymous namespace)::InvalidatedGalleriesInfo"* %356, i64 %358, i32 0, i32 0, i32 1, i32 0, i32 0
  %362 = icmp eq %"class.std::__1::__tree_end_node"* %360, %361
  br i1 %362, label %363, label %371

363:                                              ; preds = %410, %355
  %364 = add nuw i64 %358, 1
  %365 = load i64, i64* %40, align 8
  %366 = load i64, i64* %41, align 8
  %367 = sub i64 %365, %366
  %368 = sdiv exact i64 %367, 48
  %369 = icmp ult i64 %364, %368
  %370 = inttoptr i64 %366 to %"struct.(anonymous namespace)::InvalidatedGalleriesInfo"*
  br i1 %369, label %355, label %326

371:                                              ; preds = %355, %410
  %372 = phi %"struct.(anonymous namespace)::InvalidatedGalleriesInfo"* [ %382, %410 ], [ %356, %355 ]
  %373 = phi %"class.std::__1::__tree_end_node"* [ %411, %410 ], [ %360, %355 ]
  %374 = getelementptr inbounds %"struct.(anonymous namespace)::InvalidatedGalleriesInfo", %"struct.(anonymous namespace)::InvalidatedGalleriesInfo"* %372, i64 %358, i32 1, i32 0, i32 0
  %375 = load %"class.std::__1::__tree_end_node"*, %"class.std::__1::__tree_end_node"** %374, align 8
  %376 = getelementptr inbounds %"struct.(anonymous namespace)::InvalidatedGalleriesInfo", %"struct.(anonymous namespace)::InvalidatedGalleriesInfo"* %372, i64 %358, i32 1, i32 0, i32 1, i32 0, i32 0
  %377 = icmp eq %"class.std::__1::__tree_end_node"* %375, %376
  br i1 %377, label %381, label %378

378:                                              ; preds = %371
  %379 = getelementptr inbounds %"class.std::__1::__tree_end_node", %"class.std::__1::__tree_end_node"* %373, i64 4
  %380 = bitcast %"class.std::__1::__tree_end_node"* %379 to %class.ExtensionGalleriesHost**
  br label %414

381:                                              ; preds = %496, %371
  %382 = phi %"struct.(anonymous namespace)::InvalidatedGalleriesInfo"* [ %372, %371 ], [ %498, %496 ]
  %383 = getelementptr inbounds %"class.std::__1::__tree_end_node", %"class.std::__1::__tree_end_node"* %373, i64 1, i32 0
  %384 = load %"class.std::__1::__tree_node_base"*, %"class.std::__1::__tree_node_base"** %383, align 8
  %385 = icmp eq %"class.std::__1::__tree_node_base"* %384, null
  br i1 %385, label %386, label %394

386:                                              ; preds = %381
  %387 = bitcast %"class.std::__1::__tree_end_node"* %373 to %"class.std::__1::__tree_node_base"*
  %388 = getelementptr inbounds %"class.std::__1::__tree_end_node", %"class.std::__1::__tree_end_node"* %373, i64 2
  %389 = bitcast %"class.std::__1::__tree_end_node"* %388 to %"class.std::__1::__tree_end_node"**
  %390 = load %"class.std::__1::__tree_end_node"*, %"class.std::__1::__tree_end_node"** %389, align 8
  %391 = getelementptr inbounds %"class.std::__1::__tree_end_node", %"class.std::__1::__tree_end_node"* %390, i64 0, i32 0
  %392 = load %"class.std::__1::__tree_node_base"*, %"class.std::__1::__tree_node_base"** %391, align 8
  %393 = icmp eq %"class.std::__1::__tree_node_base"* %392, %387
  br i1 %393, label %410, label %401

394:                                              ; preds = %381, %394
  %395 = phi %"class.std::__1::__tree_node_base"* [ %397, %394 ], [ %384, %381 ]
  %396 = getelementptr inbounds %"class.std::__1::__tree_node_base", %"class.std::__1::__tree_node_base"* %395, i64 0, i32 0, i32 0
  %397 = load %"class.std::__1::__tree_node_base"*, %"class.std::__1::__tree_node_base"** %396, align 8
  %398 = icmp eq %"class.std::__1::__tree_node_base"* %397, null
  br i1 %398, label %399, label %394

399:                                              ; preds = %394
  %400 = getelementptr inbounds %"class.std::__1::__tree_node_base", %"class.std::__1::__tree_node_base"* %395, i64 0, i32 0
  br label %410

401:                                              ; preds = %386, %401
  %402 = phi %"class.std::__1::__tree_end_node"** [ %405, %401 ], [ %389, %386 ]
  %403 = bitcast %"class.std::__1::__tree_end_node"** %402 to %"class.std::__1::__tree_node_base"**
  %404 = load %"class.std::__1::__tree_node_base"*, %"class.std::__1::__tree_node_base"** %403, align 8
  %405 = getelementptr inbounds %"class.std::__1::__tree_node_base", %"class.std::__1::__tree_node_base"* %404, i64 0, i32 2
  %406 = load %"class.std::__1::__tree_end_node"*, %"class.std::__1::__tree_end_node"** %405, align 8
  %407 = getelementptr inbounds %"class.std::__1::__tree_end_node", %"class.std::__1::__tree_end_node"* %406, i64 0, i32 0
  %408 = load %"class.std::__1::__tree_node_base"*, %"class.std::__1::__tree_node_base"** %407, align 8
  %409 = icmp eq %"class.std::__1::__tree_node_base"* %408, %404
  br i1 %409, label %410, label %401

410:                                              ; preds = %401, %386, %399
  %411 = phi %"class.std::__1::__tree_end_node"* [ %400, %399 ], [ %390, %386 ], [ %406, %401 ]
  %412 = getelementptr inbounds %"struct.(anonymous namespace)::InvalidatedGalleriesInfo", %"struct.(anonymous namespace)::InvalidatedGalleriesInfo"* %382, i64 %358, i32 0, i32 0, i32 1, i32 0, i32 0
  %413 = icmp eq %"class.std::__1::__tree_end_node"* %411, %412
  br i1 %413, label %363, label %371

414:                                              ; preds = %378, %496
  %415 = phi %"class.std::__1::__tree_end_node"* [ %375, %378 ], [ %497, %496 ]
  %416 = load %class.ExtensionGalleriesHost*, %class.ExtensionGalleriesHost** %380, align 8
  %417 = getelementptr inbounds %"class.std::__1::__tree_end_node", %"class.std::__1::__tree_end_node"* %415, i64 4
  %418 = bitcast %"class.std::__1::__tree_end_node"* %417 to i64*
  %419 = load i64, i64* %418, align 8
  %420 = getelementptr inbounds %class.ExtensionGalleriesHost, %class.ExtensionGalleriesHost* %416, i64 0, i32 6, i32 0, i32 1, i32 0, i32 0
  %421 = bitcast %"class.std::__1::__tree_end_node"* %420 to %"class.std::__1::__tree_node.572"**
  %422 = load %"class.std::__1::__tree_node.572"*, %"class.std::__1::__tree_node.572"** %421, align 8
  %423 = icmp eq %"class.std::__1::__tree_node.572"* %422, null
  br i1 %423, label %468, label %424

424:                                              ; preds = %414, %424
  %425 = phi %"class.std::__1::__tree_end_node"* [ %435, %424 ], [ %420, %414 ]
  %426 = phi %"class.std::__1::__tree_node.572"* [ %436, %424 ], [ %422, %414 ]
  %427 = getelementptr inbounds %"class.std::__1::__tree_node.572", %"class.std::__1::__tree_node.572"* %426, i64 0, i32 1, i32 0, i32 0
  %428 = load i64, i64* %427, align 8
  %429 = icmp ult i64 %428, %419
  %430 = getelementptr inbounds %"class.std::__1::__tree_node.572", %"class.std::__1::__tree_node.572"* %426, i64 0, i32 0, i32 1
  %431 = bitcast %"class.std::__1::__tree_node_base"** %430 to %"class.std::__1::__tree_node.572"**
  %432 = getelementptr inbounds %"class.std::__1::__tree_node.572", %"class.std::__1::__tree_node.572"* %426, i64 0, i32 0, i32 0
  %433 = bitcast %"class.std::__1::__tree_node.572"* %426 to %"class.std::__1::__tree_node.572"**
  %434 = select i1 %429, %"class.std::__1::__tree_node.572"** %431, %"class.std::__1::__tree_node.572"** %433
  %435 = select i1 %429, %"class.std::__1::__tree_end_node"* %425, %"class.std::__1::__tree_end_node"* %432
  %436 = load %"class.std::__1::__tree_node.572"*, %"class.std::__1::__tree_node.572"** %434, align 8
  %437 = icmp eq %"class.std::__1::__tree_node.572"* %436, null
  br i1 %437, label %438, label %424

438:                                              ; preds = %424
  %439 = icmp eq %"class.std::__1::__tree_end_node"* %435, %420
  br i1 %439, label %468, label %440

440:                                              ; preds = %438
  %441 = getelementptr inbounds %"class.std::__1::__tree_end_node", %"class.std::__1::__tree_end_node"* %435, i64 4
  %442 = bitcast %"class.std::__1::__tree_end_node"* %441 to i64*
  %443 = load i64, i64* %442, align 8
  %444 = icmp ugt i64 %443, %419
  br i1 %444, label %468, label %445

445:                                              ; preds = %440
  %446 = getelementptr inbounds %class.ExtensionGalleriesHost, %class.ExtensionGalleriesHost* %416, i64 0, i32 2
  %447 = load %class.MediaFileSystemContext*, %class.MediaFileSystemContext** %446, align 8
  %448 = getelementptr inbounds %"class.std::__1::__tree_end_node", %"class.std::__1::__tree_end_node"* %435, i64 11
  %449 = bitcast %"class.std::__1::__tree_end_node"* %448 to %"class.std::__1::basic_string.1"*
  %450 = bitcast %class.MediaFileSystemContext* %447 to void (%class.MediaFileSystemContext*, %"class.std::__1::basic_string.1"*)***
  %451 = load void (%class.MediaFileSystemContext*, %"class.std::__1::basic_string.1"*)**, void (%class.MediaFileSystemContext*, %"class.std::__1::basic_string.1"*)*** %450, align 8
  %452 = getelementptr inbounds void (%class.MediaFileSystemContext*, %"class.std::__1::basic_string.1"*)*, void (%class.MediaFileSystemContext*, %"class.std::__1::basic_string.1"*)** %451, i64 3
  %453 = load void (%class.MediaFileSystemContext*, %"class.std::__1::basic_string.1"*)*, void (%class.MediaFileSystemContext*, %"class.std::__1::basic_string.1"*)** %452, align 8
  call void %453(%class.MediaFileSystemContext* %447, %"class.std::__1::basic_string.1"* dereferenceable(24) %449) #10
  %454 = getelementptr inbounds %class.ExtensionGalleriesHost, %class.ExtensionGalleriesHost* %416, i64 0, i32 6, i32 0
  %455 = call %"class.std::__1::__tree_end_node"* @_ZNSt3__16__treeINS_12__value_typeIm19MediaFileSystemInfoEENS_19__map_value_compareImS3_NS_4lessImEELb1EEENS_9allocatorIS3_EEE5eraseENS_21__tree_const_iteratorIS3_PNS_11__tree_nodeIS3_PvEElEE(%"class.std::__1::__tree.290"* %454, %"class.std::__1::__tree_end_node"* %435) #10
  %456 = getelementptr inbounds %class.ExtensionGalleriesHost, %class.ExtensionGalleriesHost* %416, i64 0, i32 6, i32 0, i32 2, i32 0, i32 0
  %457 = load i64, i64* %456, align 8
  %458 = icmp eq i64 %457, 0
  br i1 %458, label %459, label %468

459:                                              ; preds = %445
  %460 = getelementptr inbounds %class.ExtensionGalleriesHost, %class.ExtensionGalleriesHost* %416, i64 0, i32 7, i32 2
  %461 = getelementptr inbounds %"class.std::__1::map.298", %"class.std::__1::map.298"* %460, i64 0, i32 0
  %462 = getelementptr inbounds %class.ExtensionGalleriesHost, %class.ExtensionGalleriesHost* %416, i64 0, i32 7, i32 2, i32 0, i32 1, i32 0, i32 0
  %463 = bitcast %"class.std::__1::__tree_end_node"* %462 to %"class.std::__1::__tree_node"**
  %464 = load %"class.std::__1::__tree_node"*, %"class.std::__1::__tree_node"** %463, align 8
  call fastcc void @_ZNSt3__16__treeINS_12__value_typeIPKN7content17RenderProcessHostENS_10unique_ptrIN12_GLOBAL__N_119RPHReferenceManager11RPHObserverENS_14default_deleteIS9_EEEEEENS_19__map_value_compareIS5_SD_NS_4lessIS5_EELb1EEENS_9allocatorISD_EEE7destroyEPNS_11__tree_nodeISD_PvEE(%"class.std::__1::__tree.299"* %461, %"class.std::__1::__tree_node"* %464) #10
  %465 = getelementptr inbounds %class.ExtensionGalleriesHost, %class.ExtensionGalleriesHost* %416, i64 0, i32 7, i32 2, i32 0, i32 2, i32 0, i32 0
  store i64 0, i64* %465, align 8
  %466 = getelementptr inbounds %"class.std::__1::map.298", %"class.std::__1::map.298"* %460, i64 0, i32 0, i32 0
  store %"class.std::__1::__tree_end_node"* %462, %"class.std::__1::__tree_end_node"** %466, align 8
  %467 = getelementptr inbounds %"class.std::__1::__tree_end_node", %"class.std::__1::__tree_end_node"* %462, i64 0, i32 0
  store %"class.std::__1::__tree_node_base"* null, %"class.std::__1::__tree_node_base"** %467, align 8
  call void @_ZN22ExtensionGalleriesHost7CleanUpEv(%class.ExtensionGalleriesHost* %416) #10
  br label %468

468:                                              ; preds = %414, %438, %440, %445, %459
  %469 = getelementptr inbounds %"class.std::__1::__tree_end_node", %"class.std::__1::__tree_end_node"* %415, i64 1, i32 0
  %470 = load %"class.std::__1::__tree_node_base"*, %"class.std::__1::__tree_node_base"** %469, align 8
  %471 = icmp eq %"class.std::__1::__tree_node_base"* %470, null
  br i1 %471, label %472, label %480

472:                                              ; preds = %468
  %473 = bitcast %"class.std::__1::__tree_end_node"* %415 to %"class.std::__1::__tree_node_base"*
  %474 = getelementptr inbounds %"class.std::__1::__tree_end_node", %"class.std::__1::__tree_end_node"* %415, i64 2
  %475 = bitcast %"class.std::__1::__tree_end_node"* %474 to %"class.std::__1::__tree_end_node"**
  %476 = load %"class.std::__1::__tree_end_node"*, %"class.std::__1::__tree_end_node"** %475, align 8
  %477 = getelementptr inbounds %"class.std::__1::__tree_end_node", %"class.std::__1::__tree_end_node"* %476, i64 0, i32 0
  %478 = load %"class.std::__1::__tree_node_base"*, %"class.std::__1::__tree_node_base"** %477, align 8
  %479 = icmp eq %"class.std::__1::__tree_node_base"* %478, %473
  br i1 %479, label %496, label %487

480:                                              ; preds = %468, %480
  %481 = phi %"class.std::__1::__tree_node_base"* [ %483, %480 ], [ %470, %468 ]
  %482 = getelementptr inbounds %"class.std::__1::__tree_node_base", %"class.std::__1::__tree_node_base"* %481, i64 0, i32 0, i32 0
  %483 = load %"class.std::__1::__tree_node_base"*, %"class.std::__1::__tree_node_base"** %482, align 8
  %484 = icmp eq %"class.std::__1::__tree_node_base"* %483, null
  br i1 %484, label %485, label %480

485:                                              ; preds = %480
  %486 = getelementptr inbounds %"class.std::__1::__tree_node_base", %"class.std::__1::__tree_node_base"* %481, i64 0, i32 0
  br label %496

487:                                              ; preds = %472, %487
  %488 = phi %"class.std::__1::__tree_end_node"** [ %491, %487 ], [ %475, %472 ]
  %489 = bitcast %"class.std::__1::__tree_end_node"** %488 to %"class.std::__1::__tree_node_base"**
  %490 = load %"class.std::__1::__tree_node_base"*, %"class.std::__1::__tree_node_base"** %489, align 8
  %491 = getelementptr inbounds %"class.std::__1::__tree_node_base", %"class.std::__1::__tree_node_base"* %490, i64 0, i32 2
  %492 = load %"class.std::__1::__tree_end_node"*, %"class.std::__1::__tree_end_node"** %491, align 8
  %493 = getelementptr inbounds %"class.std::__1::__tree_end_node", %"class.std::__1::__tree_end_node"* %492, i64 0, i32 0
  %494 = load %"class.std::__1::__tree_node_base"*, %"class.std::__1::__tree_node_base"** %493, align 8
  %495 = icmp eq %"class.std::__1::__tree_node_base"* %494, %490
  br i1 %495, label %496, label %487

496:                                              ; preds = %487, %472, %485
  %497 = phi %"class.std::__1::__tree_end_node"* [ %486, %485 ], [ %476, %472 ], [ %492, %487 ]
  %498 = load %"struct.(anonymous namespace)::InvalidatedGalleriesInfo"*, %"struct.(anonymous namespace)::InvalidatedGalleriesInfo"** %7, align 8
  %499 = getelementptr inbounds %"struct.(anonymous namespace)::InvalidatedGalleriesInfo", %"struct.(anonymous namespace)::InvalidatedGalleriesInfo"* %498, i64 %358, i32 1, i32 0, i32 1, i32 0, i32 0
  %500 = icmp eq %"class.std::__1::__tree_end_node"* %497, %499
  br i1 %500, label %381, label %414
}

declare zeroext i1 @_ZNK25MediaGalleriesPreferences13IsInitializedEv(%class.MediaGalleriesPreferences*) local_unnamed_addr #1

; Function Attrs: argmemonly nounwind
declare void @llvm.memset.p0i8.i64(i8* nocapture writeonly, i8, i64, i1 immarg) #2

declare void @_ZNK25MediaGalleriesPreferences25LookUpGalleriesByDeviceIdERKNSt3__112basic_stringIcNS0_11char_traitsIcEENS0_9allocatorIcEEEE(%"class.std::__1::set.273"* sret, %class.MediaGalleriesPreferences*, %"class.std::__1::basic_string.1"* dereferenceable(24)) local_unnamed_addr #1

; Function Attrs: nounwind ssp uwtable
define hidden void @_ZN23MediaFileSystemRegistryC2Ev(%class.MediaFileSystemRegistry*) unnamed_addr #0 align 2 {
  %2 = getelementptr inbounds %class.MediaFileSystemRegistry, %class.MediaFileSystemRegistry* %0, i64 0, i32 0
  %3 = bitcast %class.MediaFileSystemRegistry* %0 to <2 x i32 (...)**>*
  store <2 x i32 (...)**> <i32 (...)** bitcast (i8** getelementptr inbounds ({ [8 x i8*], [9 x i8*] }, { [8 x i8*], [9 x i8*] }* @_ZTV23MediaFileSystemRegistry, i64 0, inrange i32 0, i64 2) to i32 (...)**), i32 (...)** bitcast (i8** getelementptr inbounds ({ [8 x i8*], [9 x i8*] }, { [8 x i8*], [9 x i8*] }* @_ZTV23MediaFileSystemRegistry, i64 0, inrange i32 1, i64 2) to i32 (...)**)>, <2 x i32 (...)**>* %3, align 8
  %4 = getelementptr inbounds %class.MediaFileSystemRegistry, %class.MediaFileSystemRegistry* %0, i64 0, i32 2, i32 0, i32 1, i32 0, i32 0, i32 0
  %5 = getelementptr inbounds %class.MediaFileSystemRegistry, %class.MediaFileSystemRegistry* %0, i64 0, i32 2, i32 0, i32 1, i32 0, i32 0
  %6 = getelementptr inbounds %class.MediaFileSystemRegistry, %class.MediaFileSystemRegistry* %0, i64 0, i32 2, i32 0, i32 0
  %7 = bitcast %"class.std::__1::__tree_node_base"** %4 to i8*
  tail call void @llvm.memset.p0i8.i64(i8* align 8 %7, i8 0, i64 16, i1 false) #10
  store %"class.std::__1::__tree_end_node"* %5, %"class.std::__1::__tree_end_node"** %6, align 8
  %8 = getelementptr inbounds %class.MediaFileSystemRegistry, %class.MediaFileSystemRegistry* %0, i64 0, i32 3, i32 0, i32 1, i32 0, i32 0, i32 0
  %9 = getelementptr inbounds %class.MediaFileSystemRegistry, %class.MediaFileSystemRegistry* %0, i64 0, i32 3, i32 0, i32 1, i32 0, i32 0
  %10 = getelementptr inbounds %class.MediaFileSystemRegistry, %class.MediaFileSystemRegistry* %0, i64 0, i32 3, i32 0, i32 0
  %11 = bitcast %"class.std::__1::__tree_node_base"** %8 to i8*
  tail call void @llvm.memset.p0i8.i64(i8* align 8 %11, i8 0, i64 16, i1 false) #10
  store %"class.std::__1::__tree_end_node"* %9, %"class.std::__1::__tree_end_node"** %10, align 8
  %12 = getelementptr inbounds %class.MediaFileSystemRegistry, %class.MediaFileSystemRegistry* %0, i64 0, i32 4
  %13 = tail call i8* @_Znwm(i64 8) #12
  %14 = bitcast i8* %13 to i32 (...)***
  store i32 (...)** bitcast (i8** getelementptr inbounds ({ [7 x i8*] }, { [7 x i8*] }* @_ZTVN23MediaFileSystemRegistry26MediaFileSystemContextImplE, i64 0, inrange i32 0, i64 2) to i32 (...)**), i32 (...)*** %14, align 8
  %15 = ptrtoint i8* %13 to i64
  %16 = bitcast %"class.std::__1::unique_ptr"* %12 to i64*
  store i64 %15, i64* %16, align 8
  %17 = getelementptr inbounds %class.MediaFileSystemRegistry, %class.MediaFileSystemRegistry* %0, i64 0, i32 5
  %18 = bitcast %"class.std::__1::unique_ptr.30"* %17 to i64*
  store i64 0, i64* %18, align 8
  %19 = tail call %"class.storage_monitor::StorageMonitor"* @_ZN15storage_monitor14StorageMonitor11GetInstanceEv() #10
  tail call void @_ZN15storage_monitor14StorageMonitor11AddObserverEPNS_24RemovableStorageObserverE(%"class.storage_monitor::StorageMonitor"* %19, %"class.storage_monitor::RemovableStorageObserver"* %2) #10
  ret void
}

; Function Attrs: nobuiltin nofree
declare noalias nonnull i8* @_Znwm(i64) local_unnamed_addr #4

declare %"class.storage_monitor::StorageMonitor"* @_ZN15storage_monitor14StorageMonitor11GetInstanceEv() local_unnamed_addr #1

declare void @_ZN15storage_monitor14StorageMonitor11AddObserverEPNS_24RemovableStorageObserverE(%"class.storage_monitor::StorageMonitor"*, %"class.storage_monitor::RemovableStorageObserver"*) local_unnamed_addr #1

; Function Attrs: nounwind ssp uwtable
define hidden void @_ZN23MediaFileSystemRegistryD2Ev(%class.MediaFileSystemRegistry*) unnamed_addr #0 align 2 {
  %2 = getelementptr inbounds %class.MediaFileSystemRegistry, %class.MediaFileSystemRegistry* %0, i64 0, i32 1
  %3 = bitcast %class.MediaFileSystemRegistry* %0 to <2 x i32 (...)**>*
  store <2 x i32 (...)**> <i32 (...)** bitcast (i8** getelementptr inbounds ({ [8 x i8*], [9 x i8*] }, { [8 x i8*], [9 x i8*] }* @_ZTV23MediaFileSystemRegistry, i64 0, inrange i32 0, i64 2) to i32 (...)**), i32 (...)** bitcast (i8** getelementptr inbounds ({ [8 x i8*], [9 x i8*] }, { [8 x i8*], [9 x i8*] }* @_ZTV23MediaFileSystemRegistry, i64 0, inrange i32 1, i64 2) to i32 (...)**)>, <2 x i32 (...)**>* %3, align 8
  %4 = tail call %"class.storage_monitor::StorageMonitor"* @_ZN15storage_monitor14StorageMonitor11GetInstanceEv() #10
  %5 = getelementptr inbounds %class.MediaFileSystemRegistry, %class.MediaFileSystemRegistry* %0, i64 0, i32 0
  tail call void @_ZN15storage_monitor14StorageMonitor14RemoveObserverEPNS_24RemovableStorageObserverE(%"class.storage_monitor::StorageMonitor"* %4, %"class.storage_monitor::RemovableStorageObserver"* %5) #10
  %6 = getelementptr inbounds %class.MediaFileSystemRegistry, %class.MediaFileSystemRegistry* %0, i64 0, i32 5, i32 0, i32 0, i32 0
  %7 = load %class.GalleryWatchManager*, %class.GalleryWatchManager** %6, align 8
  store %class.GalleryWatchManager* null, %class.GalleryWatchManager** %6, align 8
  %8 = icmp eq %class.GalleryWatchManager* %7, null
  br i1 %8, label %14, label %9

9:                                                ; preds = %1
  %10 = bitcast %class.GalleryWatchManager* %7 to void (%class.GalleryWatchManager*)***
  %11 = load void (%class.GalleryWatchManager*)**, void (%class.GalleryWatchManager*)*** %10, align 8
  %12 = getelementptr inbounds void (%class.GalleryWatchManager*)*, void (%class.GalleryWatchManager*)** %11, i64 6
  %13 = load void (%class.GalleryWatchManager*)*, void (%class.GalleryWatchManager*)** %12, align 8
  tail call void %13(%class.GalleryWatchManager* nonnull %7) #10
  br label %14

14:                                               ; preds = %1, %9
  %15 = getelementptr inbounds %class.MediaFileSystemRegistry, %class.MediaFileSystemRegistry* %0, i64 0, i32 4, i32 0, i32 0, i32 0
  %16 = load %class.MediaFileSystemContext*, %class.MediaFileSystemContext** %15, align 8
  store %class.MediaFileSystemContext* null, %class.MediaFileSystemContext** %15, align 8
  %17 = icmp eq %class.MediaFileSystemContext* %16, null
  br i1 %17, label %23, label %18

18:                                               ; preds = %14
  %19 = bitcast %class.MediaFileSystemContext* %16 to void (%class.MediaFileSystemContext*)***
  %20 = load void (%class.MediaFileSystemContext*)**, void (%class.MediaFileSystemContext*)*** %19, align 8
  %21 = getelementptr inbounds void (%class.MediaFileSystemContext*)*, void (%class.MediaFileSystemContext*)** %20, i64 1
  %22 = load void (%class.MediaFileSystemContext*)*, void (%class.MediaFileSystemContext*)** %21, align 8
  tail call void %22(%class.MediaFileSystemContext* nonnull %16) #10
  br label %23

23:                                               ; preds = %14, %18
  %24 = getelementptr inbounds %class.MediaFileSystemRegistry, %class.MediaFileSystemRegistry* %0, i64 0, i32 3, i32 0
  %25 = getelementptr inbounds %class.MediaFileSystemRegistry, %class.MediaFileSystemRegistry* %0, i64 0, i32 3, i32 0, i32 1, i32 0, i32 0
  %26 = bitcast %"class.std::__1::__tree_end_node"* %25 to %"class.std::__1::__tree_node.653"**
  %27 = load %"class.std::__1::__tree_node.653"*, %"class.std::__1::__tree_node.653"** %26, align 8
  tail call void @_ZNSt3__16__treeINS_12__value_typeIP7ProfileN4base24CallbackListSubscriptionEEENS_19__map_value_compareIS3_S6_NS_4lessIS3_EELb1EEENS_9allocatorIS6_EEE7destroyEPNS_11__tree_nodeIS6_PvEE(%"class.std::__1::__tree.19"* %24, %"class.std::__1::__tree_node.653"* %27) #10
  %28 = getelementptr inbounds %class.MediaFileSystemRegistry, %class.MediaFileSystemRegistry* %0, i64 0, i32 2, i32 0
  %29 = getelementptr inbounds %class.MediaFileSystemRegistry, %class.MediaFileSystemRegistry* %0, i64 0, i32 2, i32 0, i32 1, i32 0, i32 0
  %30 = bitcast %"class.std::__1::__tree_end_node"* %29 to %"class.std::__1::__tree_node.602"**
  %31 = load %"class.std::__1::__tree_node.602"*, %"class.std::__1::__tree_node.602"** %30, align 8
  tail call void @_ZNSt3__16__treeINS_12__value_typeIP7ProfileNS_3mapINS_12basic_stringIcNS_11char_traitsIcEENS_9allocatorIcEEEE13scoped_refptrI22ExtensionGalleriesHostENS_4lessISA_EENS8_INS_4pairIKSA_SD_EEEEEEEENS_19__map_value_compareIS3_SL_NSE_IS3_EELb1EEENS8_ISL_EEE7destroyEPNS_11__tree_nodeISL_PvEE(%"class.std::__1::__tree"* %28, %"class.std::__1::__tree_node.602"* %31) #10
  tail call void @_ZN25MediaGalleriesPreferences21GalleryChangeObserverD2Ev(%"class.MediaGalleriesPreferences::GalleryChangeObserver"* %2) #10
  ret void
}

declare void @_ZN15storage_monitor14StorageMonitor14RemoveObserverEPNS_24RemovableStorageObserverE(%"class.storage_monitor::StorageMonitor"*, %"class.storage_monitor::RemovableStorageObserver"*) local_unnamed_addr #1

; Function Attrs: nounwind
declare void @_ZN25MediaGalleriesPreferences21GalleryChangeObserverD2Ev(%"class.MediaGalleriesPreferences::GalleryChangeObserver"*) unnamed_addr #3

; Function Attrs: nounwind ssp uwtable
define hidden void @_ZThn8_N23MediaFileSystemRegistryD1Ev(%class.MediaFileSystemRegistry*) unnamed_addr #0 align 2 {
  %2 = getelementptr inbounds %class.MediaFileSystemRegistry, %class.MediaFileSystemRegistry* %0, i64 -1, i32 5
  %3 = bitcast %"class.std::__1::unique_ptr.30"* %2 to %class.MediaFileSystemRegistry*
  tail call void @_ZN23MediaFileSystemRegistryD2Ev(%class.MediaFileSystemRegistry* %3) #10
  ret void
}

; Function Attrs: nounwind ssp uwtable
define hidden void @_ZN23MediaFileSystemRegistryD0Ev(%class.MediaFileSystemRegistry*) unnamed_addr #0 align 2 {
  tail call void @_ZN23MediaFileSystemRegistryD2Ev(%class.MediaFileSystemRegistry* %0) #10
  %2 = bitcast %class.MediaFileSystemRegistry* %0 to i8*
  tail call void @_ZdlPv(i8* %2) #12
  ret void
}

; Function Attrs: nobuiltin nounwind
declare void @_ZdlPv(i8*) local_unnamed_addr #5

; Function Attrs: nounwind ssp uwtable
define hidden void @_ZThn8_N23MediaFileSystemRegistryD0Ev(%class.MediaFileSystemRegistry*) unnamed_addr #0 align 2 {
  %2 = getelementptr inbounds %class.MediaFileSystemRegistry, %class.MediaFileSystemRegistry* %0, i64 -1, i32 5
  %3 = bitcast %"class.std::__1::unique_ptr.30"* %2 to %class.MediaFileSystemRegistry*
  tail call void @_ZN23MediaFileSystemRegistryD2Ev(%class.MediaFileSystemRegistry* %3) #10
  %4 = bitcast %"class.std::__1::unique_ptr.30"* %2 to i8*
  tail call void @_ZdlPv(i8* %4) #12
  ret void
}

; Function Attrs: nounwind ssp uwtable
define hidden void @_ZN23MediaFileSystemRegistry19OnPermissionRemovedEP25MediaGalleriesPreferencesRKNSt3__112basic_stringIcNS2_11char_traitsIcEENS2_9allocatorIcEEEEm(%class.MediaFileSystemRegistry*, %class.MediaGalleriesPreferences*, %"class.std::__1::basic_string.1"* dereferenceable(24), i64) unnamed_addr #0 align 2 {
  %5 = tail call %class.Profile* @_ZN25MediaGalleriesPreferences7profileEv(%class.MediaGalleriesPreferences* %1) #10
  %6 = getelementptr inbounds %class.MediaFileSystemRegistry, %class.MediaFileSystemRegistry* %0, i64 0, i32 2, i32 0, i32 1, i32 0, i32 0
  %7 = bitcast %"class.std::__1::__tree_end_node"* %6 to %"class.std::__1::__tree_node.602"**
  %8 = load %"class.std::__1::__tree_node.602"*, %"class.std::__1::__tree_node.602"** %7, align 8
  %9 = icmp eq %"class.std::__1::__tree_node.602"* %8, null
  br i1 %9, label %31, label %10

10:                                               ; preds = %4, %10
  %11 = phi %"class.std::__1::__tree_end_node"* [ %21, %10 ], [ %6, %4 ]
  %12 = phi %"class.std::__1::__tree_node.602"* [ %22, %10 ], [ %8, %4 ]
  %13 = getelementptr inbounds %"class.std::__1::__tree_node.602", %"class.std::__1::__tree_node.602"* %12, i64 0, i32 1, i32 0, i32 0
  %14 = load %class.Profile*, %class.Profile** %13, align 8
  %15 = icmp ult %class.Profile* %14, %5
  %16 = getelementptr inbounds %"class.std::__1::__tree_node.602", %"class.std::__1::__tree_node.602"* %12, i64 0, i32 0, i32 1
  %17 = bitcast %"class.std::__1::__tree_node_base"** %16 to %"class.std::__1::__tree_node.602"**
  %18 = getelementptr inbounds %"class.std::__1::__tree_node.602", %"class.std::__1::__tree_node.602"* %12, i64 0, i32 0, i32 0
  %19 = bitcast %"class.std::__1::__tree_node.602"* %12 to %"class.std::__1::__tree_node.602"**
  %20 = select i1 %15, %"class.std::__1::__tree_node.602"** %17, %"class.std::__1::__tree_node.602"** %19
  %21 = select i1 %15, %"class.std::__1::__tree_end_node"* %11, %"class.std::__1::__tree_end_node"* %18
  %22 = load %"class.std::__1::__tree_node.602"*, %"class.std::__1::__tree_node.602"** %20, align 8
  %23 = icmp eq %"class.std::__1::__tree_node.602"* %22, null
  br i1 %23, label %24, label %10

24:                                               ; preds = %10
  %25 = icmp eq %"class.std::__1::__tree_end_node"* %21, %6
  br i1 %25, label %31, label %26

26:                                               ; preds = %24
  %27 = getelementptr inbounds %"class.std::__1::__tree_end_node", %"class.std::__1::__tree_end_node"* %21, i64 4
  %28 = bitcast %"class.std::__1::__tree_end_node"* %27 to %class.Profile**
  %29 = load %class.Profile*, %class.Profile** %28, align 8
  %30 = icmp ult %class.Profile* %5, %29
  br i1 %30, label %31, label %32

31:                                               ; preds = %26, %24, %4
  br label %32

32:                                               ; preds = %26, %31
  %33 = phi %"class.std::__1::__tree_end_node"* [ %6, %31 ], [ %21, %26 ]
  %34 = getelementptr inbounds %"class.std::__1::__tree_end_node", %"class.std::__1::__tree_end_node"* %33, i64 5
  %35 = bitcast %"class.std::__1::__tree_end_node"* %34 to %"class.std::__1::__tree.313"*
  %36 = tail call %"class.std::__1::__tree_end_node"* @_ZNKSt3__16__treeINS_12__value_typeINS_12basic_stringIcNS_11char_traitsIcEENS_9allocatorIcEEEE13scoped_refptrI22ExtensionGalleriesHostEEENS_19__map_value_compareIS7_SB_NS_4lessIS7_EELb1EEENS5_ISB_EEE4findIS7_EENS_21__tree_const_iteratorISB_PNS_11__tree_nodeISB_PvEElEERKT_(%"class.std::__1::__tree.313"* %35, %"class.std::__1::basic_string.1"* dereferenceable(24) %2) #10
  %37 = getelementptr inbounds %"class.std::__1::__tree_end_node", %"class.std::__1::__tree_end_node"* %33, i64 6
  %38 = icmp eq %"class.std::__1::__tree_end_node"* %36, %37
  br i1 %38, label %91, label %39

39:                                               ; preds = %32
  %40 = getelementptr inbounds %"class.std::__1::__tree_end_node", %"class.std::__1::__tree_end_node"* %36, i64 7
  %41 = bitcast %"class.std::__1::__tree_end_node"* %40 to %class.ExtensionGalleriesHost**
  %42 = load %class.ExtensionGalleriesHost*, %class.ExtensionGalleriesHost** %41, align 8
  %43 = getelementptr inbounds %class.ExtensionGalleriesHost, %class.ExtensionGalleriesHost* %42, i64 0, i32 6, i32 0, i32 1, i32 0, i32 0
  %44 = bitcast %"class.std::__1::__tree_end_node"* %43 to %"class.std::__1::__tree_node.572"**
  %45 = load %"class.std::__1::__tree_node.572"*, %"class.std::__1::__tree_node.572"** %44, align 8
  %46 = icmp eq %"class.std::__1::__tree_node.572"* %45, null
  br i1 %46, label %91, label %47

47:                                               ; preds = %39, %47
  %48 = phi %"class.std::__1::__tree_end_node"* [ %58, %47 ], [ %43, %39 ]
  %49 = phi %"class.std::__1::__tree_node.572"* [ %59, %47 ], [ %45, %39 ]
  %50 = getelementptr inbounds %"class.std::__1::__tree_node.572", %"class.std::__1::__tree_node.572"* %49, i64 0, i32 1, i32 0, i32 0
  %51 = load i64, i64* %50, align 8
  %52 = icmp ult i64 %51, %3
  %53 = getelementptr inbounds %"class.std::__1::__tree_node.572", %"class.std::__1::__tree_node.572"* %49, i64 0, i32 0, i32 1
  %54 = bitcast %"class.std::__1::__tree_node_base"** %53 to %"class.std::__1::__tree_node.572"**
  %55 = getelementptr inbounds %"class.std::__1::__tree_node.572", %"class.std::__1::__tree_node.572"* %49, i64 0, i32 0, i32 0
  %56 = bitcast %"class.std::__1::__tree_node.572"* %49 to %"class.std::__1::__tree_node.572"**
  %57 = select i1 %52, %"class.std::__1::__tree_node.572"** %54, %"class.std::__1::__tree_node.572"** %56
  %58 = select i1 %52, %"class.std::__1::__tree_end_node"* %48, %"class.std::__1::__tree_end_node"* %55
  %59 = load %"class.std::__1::__tree_node.572"*, %"class.std::__1::__tree_node.572"** %57, align 8
  %60 = icmp eq %"class.std::__1::__tree_node.572"* %59, null
  br i1 %60, label %61, label %47

61:                                               ; preds = %47
  %62 = icmp eq %"class.std::__1::__tree_end_node"* %58, %43
  br i1 %62, label %91, label %63

63:                                               ; preds = %61
  %64 = getelementptr inbounds %"class.std::__1::__tree_end_node", %"class.std::__1::__tree_end_node"* %58, i64 4
  %65 = bitcast %"class.std::__1::__tree_end_node"* %64 to i64*
  %66 = load i64, i64* %65, align 8
  %67 = icmp ugt i64 %66, %3
  br i1 %67, label %91, label %68

68:                                               ; preds = %63
  %69 = getelementptr inbounds %class.ExtensionGalleriesHost, %class.ExtensionGalleriesHost* %42, i64 0, i32 2
  %70 = load %class.MediaFileSystemContext*, %class.MediaFileSystemContext** %69, align 8
  %71 = getelementptr inbounds %"class.std::__1::__tree_end_node", %"class.std::__1::__tree_end_node"* %58, i64 11
  %72 = bitcast %"class.std::__1::__tree_end_node"* %71 to %"class.std::__1::basic_string.1"*
  %73 = bitcast %class.MediaFileSystemContext* %70 to void (%class.MediaFileSystemContext*, %"class.std::__1::basic_string.1"*)***
  %74 = load void (%class.MediaFileSystemContext*, %"class.std::__1::basic_string.1"*)**, void (%class.MediaFileSystemContext*, %"class.std::__1::basic_string.1"*)*** %73, align 8
  %75 = getelementptr inbounds void (%class.MediaFileSystemContext*, %"class.std::__1::basic_string.1"*)*, void (%class.MediaFileSystemContext*, %"class.std::__1::basic_string.1"*)** %74, i64 3
  %76 = load void (%class.MediaFileSystemContext*, %"class.std::__1::basic_string.1"*)*, void (%class.MediaFileSystemContext*, %"class.std::__1::basic_string.1"*)** %75, align 8
  tail call void %76(%class.MediaFileSystemContext* %70, %"class.std::__1::basic_string.1"* dereferenceable(24) %72) #10
  %77 = getelementptr inbounds %class.ExtensionGalleriesHost, %class.ExtensionGalleriesHost* %42, i64 0, i32 6, i32 0
  %78 = tail call %"class.std::__1::__tree_end_node"* @_ZNSt3__16__treeINS_12__value_typeIm19MediaFileSystemInfoEENS_19__map_value_compareImS3_NS_4lessImEELb1EEENS_9allocatorIS3_EEE5eraseENS_21__tree_const_iteratorIS3_PNS_11__tree_nodeIS3_PvEElEE(%"class.std::__1::__tree.290"* %77, %"class.std::__1::__tree_end_node"* %58) #10
  %79 = getelementptr inbounds %class.ExtensionGalleriesHost, %class.ExtensionGalleriesHost* %42, i64 0, i32 6, i32 0, i32 2, i32 0, i32 0
  %80 = load i64, i64* %79, align 8
  %81 = icmp eq i64 %80, 0
  br i1 %81, label %82, label %91

82:                                               ; preds = %68
  %83 = getelementptr inbounds %class.ExtensionGalleriesHost, %class.ExtensionGalleriesHost* %42, i64 0, i32 7, i32 2
  %84 = getelementptr inbounds %"class.std::__1::map.298", %"class.std::__1::map.298"* %83, i64 0, i32 0
  %85 = getelementptr inbounds %class.ExtensionGalleriesHost, %class.ExtensionGalleriesHost* %42, i64 0, i32 7, i32 2, i32 0, i32 1, i32 0, i32 0
  %86 = bitcast %"class.std::__1::__tree_end_node"* %85 to %"class.std::__1::__tree_node"**
  %87 = load %"class.std::__1::__tree_node"*, %"class.std::__1::__tree_node"** %86, align 8
  tail call fastcc void @_ZNSt3__16__treeINS_12__value_typeIPKN7content17RenderProcessHostENS_10unique_ptrIN12_GLOBAL__N_119RPHReferenceManager11RPHObserverENS_14default_deleteIS9_EEEEEENS_19__map_value_compareIS5_SD_NS_4lessIS5_EELb1EEENS_9allocatorISD_EEE7destroyEPNS_11__tree_nodeISD_PvEE(%"class.std::__1::__tree.299"* %84, %"class.std::__1::__tree_node"* %87) #10
  %88 = getelementptr inbounds %class.ExtensionGalleriesHost, %class.ExtensionGalleriesHost* %42, i64 0, i32 7, i32 2, i32 0, i32 2, i32 0, i32 0
  store i64 0, i64* %88, align 8
  %89 = getelementptr inbounds %"class.std::__1::map.298", %"class.std::__1::map.298"* %83, i64 0, i32 0, i32 0
  store %"class.std::__1::__tree_end_node"* %85, %"class.std::__1::__tree_end_node"** %89, align 8
  %90 = getelementptr inbounds %"class.std::__1::__tree_end_node", %"class.std::__1::__tree_end_node"* %85, i64 0, i32 0
  store %"class.std::__1::__tree_node_base"* null, %"class.std::__1::__tree_node_base"** %90, align 8
  tail call void @_ZN22ExtensionGalleriesHost7CleanUpEv(%class.ExtensionGalleriesHost* %42) #10
  br label %91

91:                                               ; preds = %82, %68, %63, %61, %39, %32
  ret void
}

declare %class.Profile* @_ZN25MediaGalleriesPreferences7profileEv(%class.MediaGalleriesPreferences*) local_unnamed_addr #1

; Function Attrs: nounwind ssp uwtable
define hidden void @_ZThn8_N23MediaFileSystemRegistry19OnPermissionRemovedEP25MediaGalleriesPreferencesRKNSt3__112basic_stringIcNS2_11char_traitsIcEENS2_9allocatorIcEEEEm(%class.MediaFileSystemRegistry*, %class.MediaGalleriesPreferences*, %"class.std::__1::basic_string.1"* dereferenceable(24), i64) unnamed_addr #0 align 2 {
  %5 = getelementptr inbounds %class.MediaFileSystemRegistry, %class.MediaFileSystemRegistry* %0, i64 -1, i32 5
  %6 = bitcast %"class.std::__1::unique_ptr.30"* %5 to %class.MediaFileSystemRegistry*
  tail call void @_ZN23MediaFileSystemRegistry19OnPermissionRemovedEP25MediaGalleriesPreferencesRKNSt3__112basic_stringIcNS2_11char_traitsIcEENS2_9allocatorIcEEEEm(%class.MediaFileSystemRegistry* %6, %class.MediaGalleriesPreferences* %1, %"class.std::__1::basic_string.1"* dereferenceable(24) %2, i64 %3)
  ret void
}

; Function Attrs: nounwind ssp uwtable
define hidden void @_ZN23MediaFileSystemRegistry16OnGalleryRemovedEP25MediaGalleriesPreferencesm(%class.MediaFileSystemRegistry*, %class.MediaGalleriesPreferences*, i64) unnamed_addr #0 align 2 {
  %4 = alloca %"class.std::__1::vector.410", align 8
  %5 = tail call %class.Profile* @_ZN25MediaGalleriesPreferences7profileEv(%class.MediaGalleriesPreferences* %1) #10
  %6 = getelementptr inbounds %class.Profile, %class.Profile* %5, i64 0, i32 0
  %7 = tail call %"class.extensions::ExtensionRegistry"* @_ZN10extensions17ExtensionRegistry3GetEPN7content14BrowserContextE(%"class.content::BrowserContext"* %6) #10
  %8 = getelementptr inbounds %class.MediaFileSystemRegistry, %class.MediaFileSystemRegistry* %0, i64 0, i32 2, i32 0, i32 1, i32 0, i32 0
  %9 = bitcast %"class.std::__1::__tree_end_node"* %8 to %"class.std::__1::__tree_node.602"**
  %10 = load %"class.std::__1::__tree_node.602"*, %"class.std::__1::__tree_node.602"** %9, align 8
  %11 = icmp eq %"class.std::__1::__tree_node.602"* %10, null
  br i1 %11, label %33, label %12

12:                                               ; preds = %3, %12
  %13 = phi %"class.std::__1::__tree_end_node"* [ %23, %12 ], [ %8, %3 ]
  %14 = phi %"class.std::__1::__tree_node.602"* [ %24, %12 ], [ %10, %3 ]
  %15 = getelementptr inbounds %"class.std::__1::__tree_node.602", %"class.std::__1::__tree_node.602"* %14, i64 0, i32 1, i32 0, i32 0
  %16 = load %class.Profile*, %class.Profile** %15, align 8
  %17 = icmp ult %class.Profile* %16, %5
  %18 = getelementptr inbounds %"class.std::__1::__tree_node.602", %"class.std::__1::__tree_node.602"* %14, i64 0, i32 0, i32 1
  %19 = bitcast %"class.std::__1::__tree_node_base"** %18 to %"class.std::__1::__tree_node.602"**
  %20 = getelementptr inbounds %"class.std::__1::__tree_node.602", %"class.std::__1::__tree_node.602"* %14, i64 0, i32 0, i32 0
  %21 = bitcast %"class.std::__1::__tree_node.602"* %14 to %"class.std::__1::__tree_node.602"**
  %22 = select i1 %17, %"class.std::__1::__tree_node.602"** %19, %"class.std::__1::__tree_node.602"** %21
  %23 = select i1 %17, %"class.std::__1::__tree_end_node"* %13, %"class.std::__1::__tree_end_node"* %20
  %24 = load %"class.std::__1::__tree_node.602"*, %"class.std::__1::__tree_node.602"** %22, align 8
  %25 = icmp eq %"class.std::__1::__tree_node.602"* %24, null
  br i1 %25, label %26, label %12

26:                                               ; preds = %12
  %27 = icmp eq %"class.std::__1::__tree_end_node"* %23, %8
  br i1 %27, label %33, label %28

28:                                               ; preds = %26
  %29 = getelementptr inbounds %"class.std::__1::__tree_end_node", %"class.std::__1::__tree_end_node"* %23, i64 4
  %30 = bitcast %"class.std::__1::__tree_end_node"* %29 to %class.Profile**
  %31 = load %class.Profile*, %class.Profile** %30, align 8
  %32 = icmp ult %class.Profile* %5, %31
  br i1 %32, label %33, label %34

33:                                               ; preds = %28, %26, %3
  br label %34

34:                                               ; preds = %28, %33
  %35 = phi %"class.std::__1::__tree_end_node"* [ %8, %33 ], [ %23, %28 ]
  %36 = getelementptr inbounds %"class.std::__1::__tree_end_node", %"class.std::__1::__tree_end_node"* %35, i64 5
  %37 = bitcast %"class.std::__1::vector.410"* %4 to i8*
  call void @llvm.lifetime.start.p0i8(i64 24, i8* nonnull %37) #10
  %38 = getelementptr inbounds %"class.std::__1::vector.410", %"class.std::__1::vector.410"* %4, i64 0, i32 0, i32 2, i32 0, i32 0
  call void @llvm.memset.p0i8.i64(i8* nonnull align 8 %37, i8 0, i64 24, i1 false) #10
  %39 = bitcast %"class.std::__1::__tree_end_node"* %36 to %"class.std::__1::__tree_end_node"**
  %40 = load %"class.std::__1::__tree_end_node"*, %"class.std::__1::__tree_end_node"** %39, align 8
  %41 = getelementptr inbounds %"class.std::__1::__tree_end_node", %"class.std::__1::__tree_end_node"* %35, i64 6
  %42 = icmp eq %"class.std::__1::__tree_end_node"* %40, %41
  br i1 %42, label %253, label %43

43:                                               ; preds = %34
  %44 = getelementptr inbounds %"class.std::__1::vector.410", %"class.std::__1::vector.410"* %4, i64 0, i32 0, i32 1
  %45 = getelementptr inbounds %"class.extensions::ExtensionRegistry", %"class.extensions::ExtensionRegistry"* %7, i64 0, i32 1
  %46 = bitcast %"class.extensions::Extension"*** %44 to i64*
  %47 = bitcast %"class.std::__1::vector.410"* %4 to i64*
  %48 = bitcast %"class.extensions::Extension"*** %38 to i64*
  br label %56

49:                                               ; preds = %155
  %50 = icmp eq i64 %126, %125
  %51 = inttoptr i64 %125 to %"class.extensions::Extension"**
  br i1 %50, label %247, label %52

52:                                               ; preds = %49
  %53 = bitcast %"class.std::__1::__tree_end_node"* %36 to %"class.std::__1::__tree.313"*
  %54 = sub i64 %126, %125
  %55 = ashr exact i64 %54, 3
  br label %160

56:                                               ; preds = %158, %43
  %57 = phi %"class.extensions::Extension"** [ null, %43 ], [ %123, %158 ]
  %58 = phi %"class.extensions::Extension"** [ null, %43 ], [ %124, %158 ]
  %59 = phi i64 [ 0, %43 ], [ %125, %158 ]
  %60 = phi i64 [ 0, %43 ], [ %126, %158 ]
  %61 = phi %"class.extensions::Extension"** [ null, %43 ], [ %159, %158 ]
  %62 = phi %"class.extensions::Extension"** [ null, %43 ], [ %127, %158 ]
  %63 = phi %"class.std::__1::__tree_end_node"* [ %40, %43 ], [ %156, %158 ]
  %64 = getelementptr inbounds %"class.std::__1::__tree_end_node", %"class.std::__1::__tree_end_node"* %63, i64 4
  %65 = bitcast %"class.std::__1::__tree_end_node"* %64 to %"class.std::__1::basic_string.1"*
  %66 = tail call %"class.extensions::Extension"* @_ZNK10extensions12ExtensionSet7GetByIDERKNSt3__112basic_stringIcNS1_11char_traitsIcEENS1_9allocatorIcEEEE(%"class.extensions::ExtensionSet"* %45, %"class.std::__1::basic_string.1"* dereferenceable(24) %65) #10
  %67 = ptrtoint %"class.extensions::Extension"* %66 to i64
  %68 = icmp ult %"class.extensions::Extension"** %62, %61
  %69 = ptrtoint %"class.extensions::Extension"** %61 to i64
  br i1 %68, label %70, label %74

70:                                               ; preds = %56
  %71 = bitcast %"class.extensions::Extension"** %62 to i64*
  store i64 %67, i64* %71, align 8
  %72 = getelementptr inbounds %"class.extensions::Extension"*, %"class.extensions::Extension"** %62, i64 1
  %73 = ptrtoint %"class.extensions::Extension"** %72 to i64
  store i64 %73, i64* %46, align 8
  br label %122

74:                                               ; preds = %56
  %75 = ptrtoint %"class.extensions::Extension"** %62 to i64
  %76 = load i64, i64* %47, align 8
  %77 = sub i64 %75, %76
  %78 = ashr exact i64 %77, 3
  %79 = add nsw i64 %78, 1
  %80 = icmp ugt i64 %79, 2305843009213693951
  br i1 %80, label %81, label %83

81:                                               ; preds = %74
  %82 = bitcast %"class.std::__1::vector.410"* %4 to %"class.std::__1::__vector_base_common"*
  call void @_ZNKSt3__120__vector_base_commonILb1EE20__throw_length_errorEv(%"class.std::__1::__vector_base_common"* nonnull %82) #11
  unreachable

83:                                               ; preds = %74
  %84 = sub i64 %69, %76
  %85 = ashr exact i64 %84, 3
  %86 = icmp ult i64 %85, 1152921504606846975
  br i1 %86, label %87, label %95

87:                                               ; preds = %83
  %88 = ashr exact i64 %84, 2
  %89 = icmp ult i64 %88, %79
  %90 = select i1 %89, i64 %79, i64 %88
  %91 = icmp eq i64 %90, 0
  br i1 %91, label %100, label %92

92:                                               ; preds = %87
  %93 = icmp ugt i64 %90, 2305843009213693951
  br i1 %93, label %94, label %95

94:                                               ; preds = %92
  tail call void @abort() #11
  unreachable

95:                                               ; preds = %92, %83
  %96 = phi i64 [ %90, %92 ], [ 2305843009213693951, %83 ]
  %97 = shl i64 %96, 3
  %98 = tail call i8* @_Znwm(i64 %97) #12
  %99 = bitcast i8* %98 to %"class.extensions::Extension"**
  br label %100

100:                                              ; preds = %95, %87
  %101 = phi i64 [ %96, %95 ], [ 0, %87 ]
  %102 = phi %"class.extensions::Extension"** [ %99, %95 ], [ null, %87 ]
  %103 = getelementptr inbounds %"class.extensions::Extension"*, %"class.extensions::Extension"** %102, i64 %78
  %104 = getelementptr inbounds %"class.extensions::Extension"*, %"class.extensions::Extension"** %102, i64 %101
  %105 = ptrtoint %"class.extensions::Extension"** %104 to i64
  %106 = bitcast %"class.extensions::Extension"** %103 to i64*
  store i64 %67, i64* %106, align 8
  %107 = getelementptr inbounds %"class.extensions::Extension"*, %"class.extensions::Extension"** %103, i64 1
  %108 = ptrtoint %"class.extensions::Extension"** %107 to i64
  %109 = sub i64 %60, %76
  %110 = ashr exact i64 %109, 3
  %111 = sub nsw i64 0, %110
  %112 = getelementptr inbounds %"class.extensions::Extension"*, %"class.extensions::Extension"** %103, i64 %111
  %113 = ptrtoint %"class.extensions::Extension"** %112 to i64
  %114 = icmp sgt i64 %109, 0
  br i1 %114, label %115, label %118

115:                                              ; preds = %100
  %116 = bitcast %"class.extensions::Extension"** %112 to i8*
  %117 = inttoptr i64 %76 to i8*
  tail call void @llvm.memcpy.p0i8.p0i8.i64(i8* align 8 %116, i8* align 8 %117, i64 %109, i1 false) #10
  br label %118

118:                                              ; preds = %115, %100
  store i64 %113, i64* %47, align 8
  store i64 %108, i64* %46, align 8
  store i64 %105, i64* %48, align 8
  %119 = icmp eq i64 %76, 0
  br i1 %119, label %122, label %120

120:                                              ; preds = %118
  %121 = inttoptr i64 %76 to i8*
  tail call void @_ZdlPv(i8* %121) #12
  br label %122

122:                                              ; preds = %70, %118, %120
  %123 = phi %"class.extensions::Extension"** [ %57, %70 ], [ %112, %118 ], [ %112, %120 ]
  %124 = phi %"class.extensions::Extension"** [ %58, %70 ], [ %112, %118 ], [ %112, %120 ]
  %125 = phi i64 [ %59, %70 ], [ %113, %118 ], [ %113, %120 ]
  %126 = phi i64 [ %73, %70 ], [ %108, %118 ], [ %108, %120 ]
  %127 = phi %"class.extensions::Extension"** [ %72, %70 ], [ %107, %118 ], [ %107, %120 ]
  %128 = getelementptr inbounds %"class.std::__1::__tree_end_node", %"class.std::__1::__tree_end_node"* %63, i64 1, i32 0
  %129 = load %"class.std::__1::__tree_node_base"*, %"class.std::__1::__tree_node_base"** %128, align 8
  %130 = icmp eq %"class.std::__1::__tree_node_base"* %129, null
  br i1 %130, label %131, label %139

131:                                              ; preds = %122
  %132 = bitcast %"class.std::__1::__tree_end_node"* %63 to %"class.std::__1::__tree_node_base"*
  %133 = getelementptr inbounds %"class.std::__1::__tree_end_node", %"class.std::__1::__tree_end_node"* %63, i64 2
  %134 = bitcast %"class.std::__1::__tree_end_node"* %133 to %"class.std::__1::__tree_end_node"**
  %135 = load %"class.std::__1::__tree_end_node"*, %"class.std::__1::__tree_end_node"** %134, align 8
  %136 = getelementptr inbounds %"class.std::__1::__tree_end_node", %"class.std::__1::__tree_end_node"* %135, i64 0, i32 0
  %137 = load %"class.std::__1::__tree_node_base"*, %"class.std::__1::__tree_node_base"** %136, align 8
  %138 = icmp eq %"class.std::__1::__tree_node_base"* %137, %132
  br i1 %138, label %155, label %146

139:                                              ; preds = %122, %139
  %140 = phi %"class.std::__1::__tree_node_base"* [ %142, %139 ], [ %129, %122 ]
  %141 = getelementptr inbounds %"class.std::__1::__tree_node_base", %"class.std::__1::__tree_node_base"* %140, i64 0, i32 0, i32 0
  %142 = load %"class.std::__1::__tree_node_base"*, %"class.std::__1::__tree_node_base"** %141, align 8
  %143 = icmp eq %"class.std::__1::__tree_node_base"* %142, null
  br i1 %143, label %144, label %139

144:                                              ; preds = %139
  %145 = getelementptr inbounds %"class.std::__1::__tree_node_base", %"class.std::__1::__tree_node_base"* %140, i64 0, i32 0
  br label %155

146:                                              ; preds = %131, %146
  %147 = phi %"class.std::__1::__tree_end_node"** [ %150, %146 ], [ %134, %131 ]
  %148 = bitcast %"class.std::__1::__tree_end_node"** %147 to %"class.std::__1::__tree_node_base"**
  %149 = load %"class.std::__1::__tree_node_base"*, %"class.std::__1::__tree_node_base"** %148, align 8
  %150 = getelementptr inbounds %"class.std::__1::__tree_node_base", %"class.std::__1::__tree_node_base"* %149, i64 0, i32 2
  %151 = load %"class.std::__1::__tree_end_node"*, %"class.std::__1::__tree_end_node"** %150, align 8
  %152 = getelementptr inbounds %"class.std::__1::__tree_end_node", %"class.std::__1::__tree_end_node"* %151, i64 0, i32 0
  %153 = load %"class.std::__1::__tree_node_base"*, %"class.std::__1::__tree_node_base"** %152, align 8
  %154 = icmp eq %"class.std::__1::__tree_node_base"* %153, %149
  br i1 %154, label %155, label %146

155:                                              ; preds = %146, %131, %144
  %156 = phi %"class.std::__1::__tree_end_node"* [ %145, %144 ], [ %135, %131 ], [ %151, %146 ]
  %157 = icmp eq %"class.std::__1::__tree_end_node"* %156, %41
  br i1 %157, label %49, label %158

158:                                              ; preds = %155
  %159 = load %"class.extensions::Extension"**, %"class.extensions::Extension"*** %38, align 8
  br label %56

160:                                              ; preds = %52, %244
  %161 = phi %"class.extensions::Extension"** [ %124, %52 ], [ %51, %244 ]
  %162 = phi i64 [ 0, %52 ], [ %245, %244 ]
  %163 = load %"class.std::__1::__tree_node.602"*, %"class.std::__1::__tree_node.602"** %9, align 8
  %164 = icmp eq %"class.std::__1::__tree_node.602"* %163, null
  br i1 %164, label %247, label %165

165:                                              ; preds = %160, %165
  %166 = phi %"class.std::__1::__tree_end_node"* [ %176, %165 ], [ %8, %160 ]
  %167 = phi %"class.std::__1::__tree_node.602"* [ %177, %165 ], [ %163, %160 ]
  %168 = getelementptr inbounds %"class.std::__1::__tree_node.602", %"class.std::__1::__tree_node.602"* %167, i64 0, i32 1, i32 0, i32 0
  %169 = load %class.Profile*, %class.Profile** %168, align 8
  %170 = icmp ult %class.Profile* %169, %5
  %171 = getelementptr inbounds %"class.std::__1::__tree_node.602", %"class.std::__1::__tree_node.602"* %167, i64 0, i32 0, i32 1
  %172 = bitcast %"class.std::__1::__tree_node_base"** %171 to %"class.std::__1::__tree_node.602"**
  %173 = getelementptr inbounds %"class.std::__1::__tree_node.602", %"class.std::__1::__tree_node.602"* %167, i64 0, i32 0, i32 0
  %174 = bitcast %"class.std::__1::__tree_node.602"* %167 to %"class.std::__1::__tree_node.602"**
  %175 = select i1 %170, %"class.std::__1::__tree_node.602"** %172, %"class.std::__1::__tree_node.602"** %174
  %176 = select i1 %170, %"class.std::__1::__tree_end_node"* %166, %"class.std::__1::__tree_end_node"* %173
  %177 = load %"class.std::__1::__tree_node.602"*, %"class.std::__1::__tree_node.602"** %175, align 8
  %178 = icmp eq %"class.std::__1::__tree_node.602"* %177, null
  br i1 %178, label %179, label %165

179:                                              ; preds = %165
  %180 = icmp eq %"class.std::__1::__tree_end_node"* %176, %8
  br i1 %180, label %247, label %181

181:                                              ; preds = %179
  %182 = getelementptr inbounds %"class.std::__1::__tree_end_node", %"class.std::__1::__tree_end_node"* %176, i64 4
  %183 = bitcast %"class.std::__1::__tree_end_node"* %182 to %class.Profile**
  %184 = load %class.Profile*, %class.Profile** %183, align 8
  %185 = icmp ult %class.Profile* %5, %184
  br i1 %185, label %247, label %186

186:                                              ; preds = %181
  %187 = getelementptr inbounds %"class.extensions::Extension"*, %"class.extensions::Extension"** %161, i64 %162
  %188 = load %"class.extensions::Extension"*, %"class.extensions::Extension"** %187, align 8
  %189 = tail call dereferenceable(24) %"class.std::__1::basic_string.1"* @_ZNK10extensions9Extension2idEv(%"class.extensions::Extension"* %188) #10
  %190 = tail call %"class.std::__1::__tree_end_node"* @_ZNKSt3__16__treeINS_12__value_typeINS_12basic_stringIcNS_11char_traitsIcEENS_9allocatorIcEEEE13scoped_refptrI22ExtensionGalleriesHostEEENS_19__map_value_compareIS7_SB_NS_4lessIS7_EELb1EEENS5_ISB_EEE4findIS7_EENS_21__tree_const_iteratorISB_PNS_11__tree_nodeISB_PvEElEERKT_(%"class.std::__1::__tree.313"* %53, %"class.std::__1::basic_string.1"* dereferenceable(24) %189) #10
  %191 = icmp eq %"class.std::__1::__tree_end_node"* %190, %41
  br i1 %191, label %244, label %192

192:                                              ; preds = %186
  %193 = getelementptr inbounds %"class.std::__1::__tree_end_node", %"class.std::__1::__tree_end_node"* %190, i64 7
  %194 = bitcast %"class.std::__1::__tree_end_node"* %193 to %class.ExtensionGalleriesHost**
  %195 = load %class.ExtensionGalleriesHost*, %class.ExtensionGalleriesHost** %194, align 8
  %196 = getelementptr inbounds %class.ExtensionGalleriesHost, %class.ExtensionGalleriesHost* %195, i64 0, i32 6, i32 0, i32 1, i32 0, i32 0
  %197 = bitcast %"class.std::__1::__tree_end_node"* %196 to %"class.std::__1::__tree_node.572"**
  %198 = load %"class.std::__1::__tree_node.572"*, %"class.std::__1::__tree_node.572"** %197, align 8
  %199 = icmp eq %"class.std::__1::__tree_node.572"* %198, null
  br i1 %199, label %244, label %200

200:                                              ; preds = %192, %200
  %201 = phi %"class.std::__1::__tree_end_node"* [ %211, %200 ], [ %196, %192 ]
  %202 = phi %"class.std::__1::__tree_node.572"* [ %212, %200 ], [ %198, %192 ]
  %203 = getelementptr inbounds %"class.std::__1::__tree_node.572", %"class.std::__1::__tree_node.572"* %202, i64 0, i32 1, i32 0, i32 0
  %204 = load i64, i64* %203, align 8
  %205 = icmp ult i64 %204, %2
  %206 = getelementptr inbounds %"class.std::__1::__tree_node.572", %"class.std::__1::__tree_node.572"* %202, i64 0, i32 0, i32 1
  %207 = bitcast %"class.std::__1::__tree_node_base"** %206 to %"class.std::__1::__tree_node.572"**
  %208 = getelementptr inbounds %"class.std::__1::__tree_node.572", %"class.std::__1::__tree_node.572"* %202, i64 0, i32 0, i32 0
  %209 = bitcast %"class.std::__1::__tree_node.572"* %202 to %"class.std::__1::__tree_node.572"**
  %210 = select i1 %205, %"class.std::__1::__tree_node.572"** %207, %"class.std::__1::__tree_node.572"** %209
  %211 = select i1 %205, %"class.std::__1::__tree_end_node"* %201, %"class.std::__1::__tree_end_node"* %208
  %212 = load %"class.std::__1::__tree_node.572"*, %"class.std::__1::__tree_node.572"** %210, align 8
  %213 = icmp eq %"class.std::__1::__tree_node.572"* %212, null
  br i1 %213, label %214, label %200

214:                                              ; preds = %200
  %215 = icmp eq %"class.std::__1::__tree_end_node"* %211, %196
  br i1 %215, label %244, label %216

216:                                              ; preds = %214
  %217 = getelementptr inbounds %"class.std::__1::__tree_end_node", %"class.std::__1::__tree_end_node"* %211, i64 4
  %218 = bitcast %"class.std::__1::__tree_end_node"* %217 to i64*
  %219 = load i64, i64* %218, align 8
  %220 = icmp ugt i64 %219, %2
  br i1 %220, label %244, label %221

221:                                              ; preds = %216
  %222 = getelementptr inbounds %class.ExtensionGalleriesHost, %class.ExtensionGalleriesHost* %195, i64 0, i32 2
  %223 = load %class.MediaFileSystemContext*, %class.MediaFileSystemContext** %222, align 8
  %224 = getelementptr inbounds %"class.std::__1::__tree_end_node", %"class.std::__1::__tree_end_node"* %211, i64 11
  %225 = bitcast %"class.std::__1::__tree_end_node"* %224 to %"class.std::__1::basic_string.1"*
  %226 = bitcast %class.MediaFileSystemContext* %223 to void (%class.MediaFileSystemContext*, %"class.std::__1::basic_string.1"*)***
  %227 = load void (%class.MediaFileSystemContext*, %"class.std::__1::basic_string.1"*)**, void (%class.MediaFileSystemContext*, %"class.std::__1::basic_string.1"*)*** %226, align 8
  %228 = getelementptr inbounds void (%class.MediaFileSystemContext*, %"class.std::__1::basic_string.1"*)*, void (%class.MediaFileSystemContext*, %"class.std::__1::basic_string.1"*)** %227, i64 3
  %229 = load void (%class.MediaFileSystemContext*, %"class.std::__1::basic_string.1"*)*, void (%class.MediaFileSystemContext*, %"class.std::__1::basic_string.1"*)** %228, align 8
  tail call void %229(%class.MediaFileSystemContext* %223, %"class.std::__1::basic_string.1"* dereferenceable(24) %225) #10
  %230 = getelementptr inbounds %class.ExtensionGalleriesHost, %class.ExtensionGalleriesHost* %195, i64 0, i32 6, i32 0
  %231 = tail call %"class.std::__1::__tree_end_node"* @_ZNSt3__16__treeINS_12__value_typeIm19MediaFileSystemInfoEENS_19__map_value_compareImS3_NS_4lessImEELb1EEENS_9allocatorIS3_EEE5eraseENS_21__tree_const_iteratorIS3_PNS_11__tree_nodeIS3_PvEElEE(%"class.std::__1::__tree.290"* %230, %"class.std::__1::__tree_end_node"* %211) #10
  %232 = getelementptr inbounds %class.ExtensionGalleriesHost, %class.ExtensionGalleriesHost* %195, i64 0, i32 6, i32 0, i32 2, i32 0, i32 0
  %233 = load i64, i64* %232, align 8
  %234 = icmp eq i64 %233, 0
  br i1 %234, label %235, label %244

235:                                              ; preds = %221
  %236 = getelementptr inbounds %class.ExtensionGalleriesHost, %class.ExtensionGalleriesHost* %195, i64 0, i32 7, i32 2
  %237 = getelementptr inbounds %"class.std::__1::map.298", %"class.std::__1::map.298"* %236, i64 0, i32 0
  %238 = getelementptr inbounds %class.ExtensionGalleriesHost, %class.ExtensionGalleriesHost* %195, i64 0, i32 7, i32 2, i32 0, i32 1, i32 0, i32 0
  %239 = bitcast %"class.std::__1::__tree_end_node"* %238 to %"class.std::__1::__tree_node"**
  %240 = load %"class.std::__1::__tree_node"*, %"class.std::__1::__tree_node"** %239, align 8
  tail call fastcc void @_ZNSt3__16__treeINS_12__value_typeIPKN7content17RenderProcessHostENS_10unique_ptrIN12_GLOBAL__N_119RPHReferenceManager11RPHObserverENS_14default_deleteIS9_EEEEEENS_19__map_value_compareIS5_SD_NS_4lessIS5_EELb1EEENS_9allocatorISD_EEE7destroyEPNS_11__tree_nodeISD_PvEE(%"class.std::__1::__tree.299"* %237, %"class.std::__1::__tree_node"* %240) #10
  %241 = getelementptr inbounds %class.ExtensionGalleriesHost, %class.ExtensionGalleriesHost* %195, i64 0, i32 7, i32 2, i32 0, i32 2, i32 0, i32 0
  store i64 0, i64* %241, align 8
  %242 = getelementptr inbounds %"class.std::__1::map.298", %"class.std::__1::map.298"* %236, i64 0, i32 0, i32 0
  store %"class.std::__1::__tree_end_node"* %238, %"class.std::__1::__tree_end_node"** %242, align 8
  %243 = getelementptr inbounds %"class.std::__1::__tree_end_node", %"class.std::__1::__tree_end_node"* %238, i64 0, i32 0
  store %"class.std::__1::__tree_node_base"* null, %"class.std::__1::__tree_node_base"** %243, align 8
  tail call void @_ZN22ExtensionGalleriesHost7CleanUpEv(%class.ExtensionGalleriesHost* %195) #10
  br label %244

244:                                              ; preds = %235, %221, %216, %214, %192, %186
  %245 = add nuw i64 %162, 1
  %246 = icmp ult i64 %245, %55
  br i1 %246, label %160, label %247

247:                                              ; preds = %244, %160, %179, %181, %49
  %248 = phi %"class.extensions::Extension"** [ %51, %49 ], [ %51, %244 ], [ %123, %160 ], [ %123, %179 ], [ %123, %181 ]
  %249 = icmp eq %"class.extensions::Extension"** %248, null
  br i1 %249, label %253, label %250

250:                                              ; preds = %247
  %251 = ptrtoint %"class.extensions::Extension"** %248 to i64
  store i64 %251, i64* %46, align 8
  %252 = bitcast %"class.extensions::Extension"** %248 to i8*
  tail call void @_ZdlPv(i8* %252) #12
  br label %253

253:                                              ; preds = %34, %247, %250
  call void @llvm.lifetime.end.p0i8(i64 24, i8* nonnull %37) #10
  ret void
}

declare %"class.extensions::ExtensionRegistry"* @_ZN10extensions17ExtensionRegistry3GetEPN7content14BrowserContextE(%"class.content::BrowserContext"*) local_unnamed_addr #1

declare %"class.extensions::Extension"* @_ZNK10extensions12ExtensionSet7GetByIDERKNSt3__112basic_stringIcNS1_11char_traitsIcEENS1_9allocatorIcEEEE(%"class.extensions::ExtensionSet"*, %"class.std::__1::basic_string.1"* dereferenceable(24)) local_unnamed_addr #1

; Function Attrs: nounwind ssp uwtable
define hidden void @_ZThn8_N23MediaFileSystemRegistry16OnGalleryRemovedEP25MediaGalleriesPreferencesm(%class.MediaFileSystemRegistry*, %class.MediaGalleriesPreferences*, i64) unnamed_addr #0 align 2 {
  %4 = getelementptr inbounds %class.MediaFileSystemRegistry, %class.MediaFileSystemRegistry* %0, i64 -1, i32 5
  %5 = bitcast %"class.std::__1::unique_ptr.30"* %4 to %class.MediaFileSystemRegistry*
  tail call void @_ZN23MediaFileSystemRegistry16OnGalleryRemovedEP25MediaGalleriesPreferencesm(%class.MediaFileSystemRegistry* %5, %class.MediaGalleriesPreferences* %1, i64 %2)
  ret void
}

declare void @_ZN25MediaGalleriesPreferences24AddGalleryChangeObserverEPNS_21GalleryChangeObserverE(%class.MediaGalleriesPreferences*, %"class.MediaGalleriesPreferences::GalleryChangeObserver"*) local_unnamed_addr #1

; Function Attrs: nounwind ssp uwtable
define hidden void @_ZN23MediaFileSystemRegistry29OnExtensionGalleriesHostEmptyEP7ProfileRKNSt3__112basic_stringIcNS2_11char_traitsIcEENS2_9allocatorIcEEEE(%class.MediaFileSystemRegistry*, %class.Profile*, %"class.std::__1::basic_string.1"* dereferenceable(24)) #0 align 2 {
  %4 = getelementptr inbounds %class.MediaFileSystemRegistry, %class.MediaFileSystemRegistry* %0, i64 0, i32 2, i32 0, i32 1, i32 0, i32 0
  %5 = bitcast %"class.std::__1::__tree_end_node"* %4 to %"class.std::__1::__tree_node.602"**
  %6 = load %"class.std::__1::__tree_node.602"*, %"class.std::__1::__tree_node.602"** %5, align 8
  %7 = icmp eq %"class.std::__1::__tree_node.602"* %6, null
  br i1 %7, label %29, label %8

8:                                                ; preds = %3, %8
  %9 = phi %"class.std::__1::__tree_end_node"* [ %19, %8 ], [ %4, %3 ]
  %10 = phi %"class.std::__1::__tree_node.602"* [ %20, %8 ], [ %6, %3 ]
  %11 = getelementptr inbounds %"class.std::__1::__tree_node.602", %"class.std::__1::__tree_node.602"* %10, i64 0, i32 1, i32 0, i32 0
  %12 = load %class.Profile*, %class.Profile** %11, align 8
  %13 = icmp ult %class.Profile* %12, %1
  %14 = getelementptr inbounds %"class.std::__1::__tree_node.602", %"class.std::__1::__tree_node.602"* %10, i64 0, i32 0, i32 1
  %15 = bitcast %"class.std::__1::__tree_node_base"** %14 to %"class.std::__1::__tree_node.602"**
  %16 = getelementptr inbounds %"class.std::__1::__tree_node.602", %"class.std::__1::__tree_node.602"* %10, i64 0, i32 0, i32 0
  %17 = bitcast %"class.std::__1::__tree_node.602"* %10 to %"class.std::__1::__tree_node.602"**
  %18 = select i1 %13, %"class.std::__1::__tree_node.602"** %15, %"class.std::__1::__tree_node.602"** %17
  %19 = select i1 %13, %"class.std::__1::__tree_end_node"* %9, %"class.std::__1::__tree_end_node"* %16
  %20 = load %"class.std::__1::__tree_node.602"*, %"class.std::__1::__tree_node.602"** %18, align 8
  %21 = icmp eq %"class.std::__1::__tree_node.602"* %20, null
  br i1 %21, label %22, label %8

22:                                               ; preds = %8
  %23 = icmp eq %"class.std::__1::__tree_end_node"* %19, %4
  br i1 %23, label %29, label %24

24:                                               ; preds = %22
  %25 = getelementptr inbounds %"class.std::__1::__tree_end_node", %"class.std::__1::__tree_end_node"* %19, i64 4
  %26 = bitcast %"class.std::__1::__tree_end_node"* %25 to %class.Profile**
  %27 = load %class.Profile*, %class.Profile** %26, align 8
  %28 = icmp ugt %class.Profile* %27, %1
  br i1 %28, label %29, label %30

29:                                               ; preds = %24, %22, %3
  br label %30

30:                                               ; preds = %24, %29
  %31 = phi %"class.std::__1::__tree_end_node"* [ %4, %29 ], [ %19, %24 ]
  %32 = getelementptr inbounds %"class.std::__1::__tree_end_node", %"class.std::__1::__tree_end_node"* %31, i64 5
  %33 = bitcast %"class.std::__1::__tree_end_node"* %32 to %"class.std::__1::__tree.313"*
  %34 = tail call %"class.std::__1::__tree_end_node"* @_ZNSt3__16__treeINS_12__value_typeINS_12basic_stringIcNS_11char_traitsIcEENS_9allocatorIcEEEE13scoped_refptrI22ExtensionGalleriesHostEEENS_19__map_value_compareIS7_SB_NS_4lessIS7_EELb1EEENS5_ISB_EEE4findIS7_EENS_15__tree_iteratorISB_PNS_11__tree_nodeISB_PvEElEERKT_(%"class.std::__1::__tree.313"* %33, %"class.std::__1::basic_string.1"* dereferenceable(24) %2) #10
  %35 = getelementptr inbounds %"class.std::__1::__tree_end_node", %"class.std::__1::__tree_end_node"* %31, i64 6
  %36 = icmp eq %"class.std::__1::__tree_end_node"* %34, %35
  br i1 %36, label %39, label %37

37:                                               ; preds = %30
  %38 = tail call %"class.std::__1::__tree_end_node"* @_ZNSt3__16__treeINS_12__value_typeINS_12basic_stringIcNS_11char_traitsIcEENS_9allocatorIcEEEE13scoped_refptrI22ExtensionGalleriesHostEEENS_19__map_value_compareIS7_SB_NS_4lessIS7_EELb1EEENS5_ISB_EEE5eraseENS_21__tree_const_iteratorISB_PNS_11__tree_nodeISB_PvEElEE(%"class.std::__1::__tree.313"* %33, %"class.std::__1::__tree_end_node"* %34) #10
  br label %39

39:                                               ; preds = %30, %37
  %40 = getelementptr inbounds %"class.std::__1::__tree_end_node", %"class.std::__1::__tree_end_node"* %31, i64 7
  %41 = bitcast %"class.std::__1::__tree_end_node"* %40 to i64*
  %42 = load i64, i64* %41, align 8
  %43 = icmp eq i64 %42, 0
  br i1 %43, label %44, label %47

44:                                               ; preds = %39
  %45 = tail call %class.MediaGalleriesPreferences* @_ZN23MediaFileSystemRegistry14GetPreferencesEP7Profile(%class.MediaFileSystemRegistry* %0, %class.Profile* %1)
  %46 = getelementptr inbounds %class.MediaFileSystemRegistry, %class.MediaFileSystemRegistry* %0, i64 0, i32 1
  tail call void @_ZN25MediaGalleriesPreferences27RemoveGalleryChangeObserverEPNS_21GalleryChangeObserverE(%class.MediaGalleriesPreferences* %45, %"class.MediaGalleriesPreferences::GalleryChangeObserver"* %46) #10
  br label %47

47:                                               ; preds = %44, %39
  ret void
}

; Function Attrs: nounwind ssp uwtable
define linkonce_odr hidden void @_ZN22ExtensionGalleriesHostC2EP22MediaFileSystemContextRKN4base8FilePathERKNSt3__112basic_stringIcNS6_11char_traitsIcEENS6_9allocatorIcEEEENS2_12OnceCallbackIFvvEEE(%class.ExtensionGalleriesHost*, %class.MediaFileSystemContext*, %"class.base::FilePath"* dereferenceable(24), %"class.std::__1::basic_string.1"* dereferenceable(24), %"class.base::OnceCallback.235"*) unnamed_addr #0 comdat align 2 {
  %6 = alloca %"class.base::OnceCallback.235", align 8
  %7 = alloca %"class.base::RepeatingCallback", align 8
  %8 = getelementptr inbounds %class.ExtensionGalleriesHost, %class.ExtensionGalleriesHost* %0, i64 0, i32 1, i32 0, i32 0, i32 0, i32 0, i32 0, i32 0, i32 0, i32 0
  store i32 0, i32* %8, align 4
  %9 = getelementptr inbounds %class.ExtensionGalleriesHost, %class.ExtensionGalleriesHost* %0, i64 0, i32 0
  store i32 (...)** bitcast (i8** getelementptr inbounds ({ [4 x i8*] }, { [4 x i8*] }* @_ZTV22ExtensionGalleriesHost, i64 0, inrange i32 0, i64 2) to i32 (...)**), i32 (...)*** %9, align 8
  %10 = getelementptr inbounds %class.ExtensionGalleriesHost, %class.ExtensionGalleriesHost* %0, i64 0, i32 2
  store %class.MediaFileSystemContext* %1, %class.MediaFileSystemContext** %10, align 8
  %11 = getelementptr inbounds %class.ExtensionGalleriesHost, %class.ExtensionGalleriesHost* %0, i64 0, i32 3
  tail call void @_ZN4base8FilePathC1ERKS0_(%"class.base::FilePath"* %11, %"class.base::FilePath"* dereferenceable(24) %2) #10
  %12 = getelementptr inbounds %class.ExtensionGalleriesHost, %class.ExtensionGalleriesHost* %0, i64 0, i32 4
  %13 = bitcast %"class.std::__1::basic_string.1"* %3 to %"struct.std::__1::basic_string<char, std::__1::char_traits<char>, std::__1::allocator<char> >::__short"*
  %14 = getelementptr inbounds %"struct.std::__1::basic_string<char, std::__1::char_traits<char>, std::__1::allocator<char> >::__short", %"struct.std::__1::basic_string<char, std::__1::char_traits<char>, std::__1::allocator<char> >::__short"* %13, i64 0, i32 1, i32 0
  %15 = load i8, i8* %14, align 1
  %16 = icmp slt i8 %15, 0
  br i1 %16, label %20, label %17

17:                                               ; preds = %5
  %18 = bitcast %"class.std::__1::basic_string.1"* %12 to i8*
  %19 = bitcast %"class.std::__1::basic_string.1"* %3 to i8*
  tail call void @llvm.memcpy.p0i8.p0i8.i64(i8* align 8 %18, i8* align 8 %19, i64 24, i1 false) #10
  br label %25

20:                                               ; preds = %5
  %21 = getelementptr inbounds %"class.std::__1::basic_string.1", %"class.std::__1::basic_string.1"* %3, i64 0, i32 0, i32 0, i32 0, i32 0, i32 0, i32 0
  %22 = load i8*, i8** %21, align 8
  %23 = getelementptr inbounds %"class.std::__1::basic_string.1", %"class.std::__1::basic_string.1"* %3, i64 0, i32 0, i32 0, i32 0, i32 0, i32 0, i32 1
  %24 = load i64, i64* %23, align 8
  tail call void @_ZNSt3__112basic_stringIcNS_11char_traitsIcEENS_9allocatorIcEEE25__init_copy_ctor_externalEPKcm(%"class.std::__1::basic_string.1"* %12, i8* %22, i64 %24) #10
  br label %25

25:                                               ; preds = %17, %20
  %26 = getelementptr inbounds %class.ExtensionGalleriesHost, %class.ExtensionGalleriesHost* %0, i64 0, i32 5
  %27 = getelementptr inbounds %"class.base::OnceCallback.235", %"class.base::OnceCallback.235"* %4, i64 0, i32 0, i32 0, i32 0
  %28 = bitcast %"class.base::OnceCallback.235"* %4 to i64*
  %29 = load i64, i64* %28, align 8
  %30 = bitcast %"class.base::OnceCallback.235"* %26 to i64*
  store i64 %29, i64* %30, align 8
  store %"class.base::internal::BindStateBase"* null, %"class.base::internal::BindStateBase"** %27, align 8
  %31 = getelementptr inbounds %class.ExtensionGalleriesHost, %class.ExtensionGalleriesHost* %0, i64 0, i32 6, i32 0, i32 1, i32 0, i32 0, i32 0
  %32 = getelementptr inbounds %class.ExtensionGalleriesHost, %class.ExtensionGalleriesHost* %0, i64 0, i32 6, i32 0, i32 1, i32 0, i32 0
  %33 = getelementptr inbounds %class.ExtensionGalleriesHost, %class.ExtensionGalleriesHost* %0, i64 0, i32 6, i32 0, i32 0
  %34 = bitcast %"class.std::__1::__tree_node_base"** %31 to i8*
  tail call void @llvm.memset.p0i8.i64(i8* align 8 %34, i8 0, i64 16, i1 false) #10
  store %"class.std::__1::__tree_end_node"* %32, %"class.std::__1::__tree_end_node"** %33, align 8
  %35 = ptrtoint %class.ExtensionGalleriesHost* %0 to i64
  %36 = tail call i8* @_Znwm(i64 56) #12, !noalias !65
  %37 = bitcast i8* %36 to %"class.base::internal::BindStateBase"*
  tail call void @_ZN4base8internal13BindStateBaseC2EPFvvEPFvPKS1_E(%"class.base::internal::BindStateBase"* nonnull %37, void ()* bitcast (void (%"class.base::internal::BindStateBase"*)* @_ZN4base8internal7InvokerINS0_9BindStateIM22ExtensionGalleriesHostFvvEJNS0_17UnretainedWrapperIS3_EEEEEFvvEE3RunEPNS0_13BindStateBaseE to void ()*), void (%"class.base::internal::BindStateBase"*)* nonnull @_ZN4base8internal9BindStateIM22ExtensionGalleriesHostFvvEJNS0_17UnretainedWrapperIS2_EEEE7DestroyEPKNS0_13BindStateBaseE) #10, !noalias !65
  %38 = getelementptr inbounds i8, i8* %36, i64 32
  %39 = bitcast i8* %38 to <2 x i64>*
  store <2 x i64> <i64 ptrtoint (void (%class.ExtensionGalleriesHost*)* @_ZN22ExtensionGalleriesHost7CleanUpEv to i64), i64 0>, <2 x i64>* %39, align 8, !noalias !65
  %40 = getelementptr inbounds i8, i8* %36, i64 48
  %41 = bitcast i8* %40 to i64*
  store i64 %35, i64* %41, align 8, !noalias !65
  %42 = bitcast %"class.base::RepeatingCallback"* %7 to i8**
  store i8* %36, i8** %42, align 8, !alias.scope !65
  %43 = getelementptr inbounds %"class.base::OnceCallback.235", %"class.base::OnceCallback.235"* %6, i64 0, i32 0
  %44 = getelementptr inbounds %"class.base::RepeatingCallback", %"class.base::RepeatingCallback"* %7, i64 0, i32 0
  call void @_ZN4base8internal12CallbackBaseC2EONS0_20CallbackBaseCopyableE(%"class.base::internal::CallbackBase"* nonnull %43, %"class.base::internal::CallbackBaseCopyable"* nonnull dereferenceable(8) %44) #10
  %45 = getelementptr inbounds %class.ExtensionGalleriesHost, %class.ExtensionGalleriesHost* %0, i64 0, i32 7, i32 0
  store i32 (...)** bitcast (i8** getelementptr inbounds ({ [4 x i8*] }, { [4 x i8*] }* @_ZTVN12_GLOBAL__N_119RPHReferenceManagerE, i64 0, inrange i32 0, i64 2) to i32 (...)**), i32 (...)*** %45, align 8
  %46 = getelementptr inbounds %class.ExtensionGalleriesHost, %class.ExtensionGalleriesHost* %0, i64 0, i32 7, i32 1
  %47 = getelementptr inbounds %"class.base::OnceCallback.235", %"class.base::OnceCallback.235"* %6, i64 0, i32 0, i32 0, i32 0
  %48 = bitcast %"class.base::OnceCallback.235"* %6 to i64*
  %49 = load i64, i64* %48, align 8
  %50 = bitcast %"class.base::OnceCallback.235"* %46 to i64*
  store i64 %49, i64* %50, align 8
  store %"class.base::internal::BindStateBase"* null, %"class.base::internal::BindStateBase"** %47, align 8
  %51 = getelementptr inbounds %class.ExtensionGalleriesHost, %class.ExtensionGalleriesHost* %0, i64 0, i32 7, i32 2, i32 0, i32 1, i32 0, i32 0, i32 0
  %52 = getelementptr inbounds %class.ExtensionGalleriesHost, %class.ExtensionGalleriesHost* %0, i64 0, i32 7, i32 2, i32 0, i32 1, i32 0, i32 0
  %53 = getelementptr inbounds %class.ExtensionGalleriesHost, %class.ExtensionGalleriesHost* %0, i64 0, i32 7, i32 2, i32 0, i32 0
  %54 = bitcast %"class.std::__1::__tree_node_base"** %51 to i8*
  call void @llvm.memset.p0i8.i64(i8* align 8 %54, i8 0, i64 16, i1 false) #10
  store %"class.std::__1::__tree_end_node"* %52, %"class.std::__1::__tree_end_node"** %53, align 8
  call void @_ZN4base8internal12CallbackBaseD2Ev(%"class.base::internal::CallbackBase"* nonnull %43) #10
  %55 = getelementptr inbounds %"class.base::RepeatingCallback", %"class.base::RepeatingCallback"* %7, i64 0, i32 0, i32 0
  call void @_ZN4base8internal12CallbackBaseD2Ev(%"class.base::internal::CallbackBase"* nonnull %55) #10
  ret void
}

declare void @_ZN25MediaGalleriesPreferences27RemoveGalleryChangeObserverEPNS_21GalleryChangeObserverE(%class.MediaGalleriesPreferences*, %"class.MediaGalleriesPreferences::GalleryChangeObserver"*) local_unnamed_addr #1

; Function Attrs: nounwind ssp uwtable
define linkonce_odr hidden void @_ZN15storage_monitor24RemovableStorageObserver26OnRemovableStorageAttachedERKNS_11StorageInfoE(%"class.storage_monitor::RemovableStorageObserver"*, %"class.storage_monitor::StorageInfo"* dereferenceable(128)) unnamed_addr #0 comdat align 2 {
  ret void
}

; Function Attrs: nounwind ssp uwtable
define linkonce_odr hidden void @_ZN25MediaGalleriesPreferences21GalleryChangeObserver17OnPermissionAddedEPS_RKNSt3__112basic_stringIcNS2_11char_traitsIcEENS2_9allocatorIcEEEEm(%"class.MediaGalleriesPreferences::GalleryChangeObserver"*, %class.MediaGalleriesPreferences*, %"class.std::__1::basic_string.1"* dereferenceable(24), i64) unnamed_addr #0 comdat align 2 {
  ret void
}

; Function Attrs: nounwind ssp uwtable
define linkonce_odr hidden void @_ZN25MediaGalleriesPreferences21GalleryChangeObserver14OnGalleryAddedEPS_m(%"class.MediaGalleriesPreferences::GalleryChangeObserver"*, %class.MediaGalleriesPreferences*, i64) unnamed_addr #0 comdat align 2 {
  ret void
}

; Function Attrs: nounwind ssp uwtable
define linkonce_odr hidden void @_ZN25MediaGalleriesPreferences21GalleryChangeObserver20OnGalleryInfoUpdatedEPS_m(%"class.MediaGalleriesPreferences::GalleryChangeObserver"*, %class.MediaGalleriesPreferences*, i64) unnamed_addr #0 comdat align 2 {
  ret void
}

; Function Attrs: nounwind ssp uwtable
define internal void @_ZN12_GLOBAL__N_119RPHReferenceManager11RPHObserverD2Ev(%"class.(anonymous namespace)::RPHReferenceManager::RPHObserver"*) unnamed_addr #0 align 2 {
  %2 = getelementptr inbounds %"class.(anonymous namespace)::RPHReferenceManager::RPHObserver", %"class.(anonymous namespace)::RPHReferenceManager::RPHObserver"* %0, i64 0, i32 0, i32 0, i32 0
  store i32 (...)** bitcast (i8** getelementptr inbounds ({ [7 x i8*] }, { [7 x i8*] }* @_ZTVN12_GLOBAL__N_119RPHReferenceManager11RPHObserverE, i64 0, inrange i32 0, i64 2) to i32 (...)**), i32 (...)*** %2, align 8
  %3 = getelementptr inbounds %"class.(anonymous namespace)::RPHReferenceManager::RPHObserver", %"class.(anonymous namespace)::RPHReferenceManager::RPHObserver"* %0, i64 0, i32 3
  %4 = getelementptr inbounds %"class.std::__1::map.423", %"class.std::__1::map.423"* %3, i64 0, i32 0
  %5 = getelementptr inbounds %"class.(anonymous namespace)::RPHReferenceManager::RPHObserver", %"class.(anonymous namespace)::RPHReferenceManager::RPHObserver"* %0, i64 0, i32 3, i32 0, i32 1, i32 0, i32 0
  %6 = bitcast %"class.std::__1::__tree_end_node"* %5 to %"class.std::__1::__tree_node.442"**
  %7 = load %"class.std::__1::__tree_node.442"*, %"class.std::__1::__tree_node.442"** %6, align 8
  tail call fastcc void @_ZNSt3__16__treeINS_12__value_typeIPN7content11WebContentsENS_10unique_ptrIN12_GLOBAL__N_119RPHReferenceManager22RPHWebContentsObserverENS_14default_deleteIS8_EEEEEENS_19__map_value_compareIS4_SC_NS_4lessIS4_EELb1EEENS_9allocatorISC_EEE7destroyEPNS_11__tree_nodeISC_PvEE(%"class.std::__1::__tree.424"* %4, %"class.std::__1::__tree_node.442"* %7) #10
  %8 = getelementptr inbounds %"class.(anonymous namespace)::RPHReferenceManager::RPHObserver", %"class.(anonymous namespace)::RPHReferenceManager::RPHObserver"* %0, i64 0, i32 3, i32 0, i32 2, i32 0, i32 0
  store i64 0, i64* %8, align 8
  %9 = getelementptr inbounds %"class.std::__1::map.423", %"class.std::__1::map.423"* %3, i64 0, i32 0, i32 0
  store %"class.std::__1::__tree_end_node"* %5, %"class.std::__1::__tree_end_node"** %9, align 8
  %10 = getelementptr inbounds %"class.std::__1::__tree_end_node", %"class.std::__1::__tree_end_node"* %5, i64 0, i32 0
  store %"class.std::__1::__tree_node_base"* null, %"class.std::__1::__tree_node_base"** %10, align 8
  %11 = getelementptr inbounds %"class.(anonymous namespace)::RPHReferenceManager::RPHObserver", %"class.(anonymous namespace)::RPHReferenceManager::RPHObserver"* %0, i64 0, i32 2
  %12 = load %"class.content::RenderProcessHost"*, %"class.content::RenderProcessHost"** %11, align 8
  %13 = icmp eq %"class.content::RenderProcessHost"* %12, null
  br i1 %13, label %21, label %14

14:                                               ; preds = %1
  %15 = getelementptr inbounds %"class.(anonymous namespace)::RPHReferenceManager::RPHObserver", %"class.(anonymous namespace)::RPHReferenceManager::RPHObserver"* %0, i64 0, i32 0
  %16 = bitcast %"class.content::RenderProcessHost"* %12 to void (%"class.content::RenderProcessHost"*, %"class.content::RenderProcessHostObserver"*)***
  %17 = load void (%"class.content::RenderProcessHost"*, %"class.content::RenderProcessHostObserver"*)**, void (%"class.content::RenderProcessHost"*, %"class.content::RenderProcessHostObserver"*)*** %16, align 8
  %18 = getelementptr inbounds void (%"class.content::RenderProcessHost"*, %"class.content::RenderProcessHostObserver"*)*, void (%"class.content::RenderProcessHost"*, %"class.content::RenderProcessHostObserver"*)** %17, i64 9
  %19 = load void (%"class.content::RenderProcessHost"*, %"class.content::RenderProcessHostObserver"*)*, void (%"class.content::RenderProcessHost"*, %"class.content::RenderProcessHostObserver"*)** %18, align 8
  tail call void %19(%"class.content::RenderProcessHost"* nonnull %12, %"class.content::RenderProcessHostObserver"* %15) #10
  %20 = load %"class.std::__1::__tree_node.442"*, %"class.std::__1::__tree_node.442"** %6, align 8
  br label %21

21:                                               ; preds = %1, %14
  %22 = phi %"class.std::__1::__tree_node.442"* [ null, %1 ], [ %20, %14 ]
  tail call fastcc void @_ZNSt3__16__treeINS_12__value_typeIPN7content11WebContentsENS_10unique_ptrIN12_GLOBAL__N_119RPHReferenceManager22RPHWebContentsObserverENS_14default_deleteIS8_EEEEEENS_19__map_value_compareIS4_SC_NS_4lessIS4_EELb1EEENS_9allocatorISC_EEE7destroyEPNS_11__tree_nodeISC_PvEE(%"class.std::__1::__tree.424"* %4, %"class.std::__1::__tree_node.442"* %22) #10
  %23 = getelementptr inbounds %"class.(anonymous namespace)::RPHReferenceManager::RPHObserver", %"class.(anonymous namespace)::RPHReferenceManager::RPHObserver"* %0, i64 0, i32 0
  tail call void @_ZN7content25RenderProcessHostObserverD2Ev(%"class.content::RenderProcessHostObserver"* %23) #10
  ret void
}

; Function Attrs: nounwind ssp uwtable
define internal void @_ZN12_GLOBAL__N_119RPHReferenceManager11RPHObserverD0Ev(%"class.(anonymous namespace)::RPHReferenceManager::RPHObserver"*) unnamed_addr #0 align 2 {
  %2 = getelementptr inbounds %"class.(anonymous namespace)::RPHReferenceManager::RPHObserver", %"class.(anonymous namespace)::RPHReferenceManager::RPHObserver"* %0, i64 0, i32 0, i32 0, i32 0
  store i32 (...)** bitcast (i8** getelementptr inbounds ({ [7 x i8*] }, { [7 x i8*] }* @_ZTVN12_GLOBAL__N_119RPHReferenceManager11RPHObserverE, i64 0, inrange i32 0, i64 2) to i32 (...)**), i32 (...)*** %2, align 8
  %3 = getelementptr inbounds %"class.(anonymous namespace)::RPHReferenceManager::RPHObserver", %"class.(anonymous namespace)::RPHReferenceManager::RPHObserver"* %0, i64 0, i32 3
  %4 = getelementptr inbounds %"class.std::__1::map.423", %"class.std::__1::map.423"* %3, i64 0, i32 0
  %5 = getelementptr inbounds %"class.(anonymous namespace)::RPHReferenceManager::RPHObserver", %"class.(anonymous namespace)::RPHReferenceManager::RPHObserver"* %0, i64 0, i32 3, i32 0, i32 1, i32 0, i32 0
  %6 = bitcast %"class.std::__1::__tree_end_node"* %5 to %"class.std::__1::__tree_node.442"**
  %7 = load %"class.std::__1::__tree_node.442"*, %"class.std::__1::__tree_node.442"** %6, align 8
  tail call fastcc void @_ZNSt3__16__treeINS_12__value_typeIPN7content11WebContentsENS_10unique_ptrIN12_GLOBAL__N_119RPHReferenceManager22RPHWebContentsObserverENS_14default_deleteIS8_EEEEEENS_19__map_value_compareIS4_SC_NS_4lessIS4_EELb1EEENS_9allocatorISC_EEE7destroyEPNS_11__tree_nodeISC_PvEE(%"class.std::__1::__tree.424"* %4, %"class.std::__1::__tree_node.442"* %7) #10
  %8 = getelementptr inbounds %"class.(anonymous namespace)::RPHReferenceManager::RPHObserver", %"class.(anonymous namespace)::RPHReferenceManager::RPHObserver"* %0, i64 0, i32 3, i32 0, i32 2, i32 0, i32 0
  store i64 0, i64* %8, align 8
  %9 = getelementptr inbounds %"class.std::__1::map.423", %"class.std::__1::map.423"* %3, i64 0, i32 0, i32 0
  store %"class.std::__1::__tree_end_node"* %5, %"class.std::__1::__tree_end_node"** %9, align 8
  %10 = getelementptr inbounds %"class.std::__1::__tree_end_node", %"class.std::__1::__tree_end_node"* %5, i64 0, i32 0
  store %"class.std::__1::__tree_node_base"* null, %"class.std::__1::__tree_node_base"** %10, align 8
  %11 = getelementptr inbounds %"class.(anonymous namespace)::RPHReferenceManager::RPHObserver", %"class.(anonymous namespace)::RPHReferenceManager::RPHObserver"* %0, i64 0, i32 2
  %12 = load %"class.content::RenderProcessHost"*, %"class.content::RenderProcessHost"** %11, align 8
  %13 = icmp eq %"class.content::RenderProcessHost"* %12, null
  br i1 %13, label %21, label %14

14:                                               ; preds = %1
  %15 = getelementptr inbounds %"class.(anonymous namespace)::RPHReferenceManager::RPHObserver", %"class.(anonymous namespace)::RPHReferenceManager::RPHObserver"* %0, i64 0, i32 0
  %16 = bitcast %"class.content::RenderProcessHost"* %12 to void (%"class.content::RenderProcessHost"*, %"class.content::RenderProcessHostObserver"*)***
  %17 = load void (%"class.content::RenderProcessHost"*, %"class.content::RenderProcessHostObserver"*)**, void (%"class.content::RenderProcessHost"*, %"class.content::RenderProcessHostObserver"*)*** %16, align 8
  %18 = getelementptr inbounds void (%"class.content::RenderProcessHost"*, %"class.content::RenderProcessHostObserver"*)*, void (%"class.content::RenderProcessHost"*, %"class.content::RenderProcessHostObserver"*)** %17, i64 9
  %19 = load void (%"class.content::RenderProcessHost"*, %"class.content::RenderProcessHostObserver"*)*, void (%"class.content::RenderProcessHost"*, %"class.content::RenderProcessHostObserver"*)** %18, align 8
  tail call void %19(%"class.content::RenderProcessHost"* nonnull %12, %"class.content::RenderProcessHostObserver"* %15) #10
  %20 = load %"class.std::__1::__tree_node.442"*, %"class.std::__1::__tree_node.442"** %6, align 8
  br label %21

21:                                               ; preds = %1, %14
  %22 = phi %"class.std::__1::__tree_node.442"* [ null, %1 ], [ %20, %14 ]
  tail call fastcc void @_ZNSt3__16__treeINS_12__value_typeIPN7content11WebContentsENS_10unique_ptrIN12_GLOBAL__N_119RPHReferenceManager22RPHWebContentsObserverENS_14default_deleteIS8_EEEEEENS_19__map_value_compareIS4_SC_NS_4lessIS4_EELb1EEENS_9allocatorISC_EEE7destroyEPNS_11__tree_nodeISC_PvEE(%"class.std::__1::__tree.424"* %4, %"class.std::__1::__tree_node.442"* %22) #10
  %23 = getelementptr inbounds %"class.(anonymous namespace)::RPHReferenceManager::RPHObserver", %"class.(anonymous namespace)::RPHReferenceManager::RPHObserver"* %0, i64 0, i32 0
  tail call void @_ZN7content25RenderProcessHostObserverD2Ev(%"class.content::RenderProcessHostObserver"* %23) #10
  %24 = bitcast %"class.(anonymous namespace)::RPHReferenceManager::RPHObserver"* %0 to i8*
  tail call void @_ZdlPv(i8* %24) #12
  ret void
}

; Function Attrs: nounwind ssp uwtable
define linkonce_odr hidden void @_ZN7content25RenderProcessHostObserver18RenderProcessReadyEPNS_17RenderProcessHostE(%"class.content::RenderProcessHostObserver"*, %"class.content::RenderProcessHost"*) unnamed_addr #0 comdat align 2 {
  ret void
}

; Function Attrs: nounwind ssp uwtable
define linkonce_odr hidden void @_ZN7content25RenderProcessHostObserver19RenderProcessExitedEPNS_17RenderProcessHostERKNS_27ChildProcessTerminationInfoE(%"class.content::RenderProcessHostObserver"*, %"class.content::RenderProcessHost"*, %"struct.content::ChildProcessTerminationInfo"*) unnamed_addr #0 comdat align 2 {
  ret void
}

; Function Attrs: nounwind ssp uwtable
define internal void @_ZN12_GLOBAL__N_119RPHReferenceManager11RPHObserver26RenderProcessHostDestroyedEPN7content17RenderProcessHostE(%"class.(anonymous namespace)::RPHReferenceManager::RPHObserver"* nocapture, %"class.content::RenderProcessHost"*) unnamed_addr #0 align 2 {
  %3 = getelementptr inbounds %"class.(anonymous namespace)::RPHReferenceManager::RPHObserver", %"class.(anonymous namespace)::RPHReferenceManager::RPHObserver"* %0, i64 0, i32 2
  store %"class.content::RenderProcessHost"* null, %"class.content::RenderProcessHost"** %3, align 8
  %4 = getelementptr inbounds %"class.(anonymous namespace)::RPHReferenceManager::RPHObserver", %"class.(anonymous namespace)::RPHReferenceManager::RPHObserver"* %0, i64 0, i32 1
  %5 = load %"class.(anonymous namespace)::RPHReferenceManager"*, %"class.(anonymous namespace)::RPHReferenceManager"** %4, align 8
  tail call fastcc void @_ZN12_GLOBAL__N_119RPHReferenceManager28OnRenderProcessHostDestroyedEPN7content17RenderProcessHostE(%"class.(anonymous namespace)::RPHReferenceManager"* %5, %"class.content::RenderProcessHost"* %1)
  ret void
}

declare void @_ZN4base15CheckedObserverC2Ev(%"class.base::CheckedObserver"*) unnamed_addr #1

; Function Attrs: nounwind
declare void @_ZN7content25RenderProcessHostObserverD2Ev(%"class.content::RenderProcessHostObserver"*) unnamed_addr #3

; Function Attrs: nounwind ssp uwtable
define internal fastcc void @_ZNSt3__16__treeINS_12__value_typeIPN7content11WebContentsENS_10unique_ptrIN12_GLOBAL__N_119RPHReferenceManager22RPHWebContentsObserverENS_14default_deleteIS8_EEEEEENS_19__map_value_compareIS4_SC_NS_4lessIS4_EELb1EEENS_9allocatorISC_EEE7destroyEPNS_11__tree_nodeISC_PvEE(%"class.std::__1::__tree.424"* readnone, %"class.std::__1::__tree_node.442"*) unnamed_addr #0 align 2 {
  %3 = icmp eq %"class.std::__1::__tree_node.442"* %1, null
  br i1 %3, label %20, label %4

4:                                                ; preds = %2
  %5 = bitcast %"class.std::__1::__tree_node.442"* %1 to %"class.std::__1::__tree_node.442"**
  %6 = load %"class.std::__1::__tree_node.442"*, %"class.std::__1::__tree_node.442"** %5, align 8
  tail call fastcc void @_ZNSt3__16__treeINS_12__value_typeIPN7content11WebContentsENS_10unique_ptrIN12_GLOBAL__N_119RPHReferenceManager22RPHWebContentsObserverENS_14default_deleteIS8_EEEEEENS_19__map_value_compareIS4_SC_NS_4lessIS4_EELb1EEENS_9allocatorISC_EEE7destroyEPNS_11__tree_nodeISC_PvEE(%"class.std::__1::__tree.424"* %0, %"class.std::__1::__tree_node.442"* %6) #10
  %7 = getelementptr inbounds %"class.std::__1::__tree_node.442", %"class.std::__1::__tree_node.442"* %1, i64 0, i32 0, i32 1
  %8 = bitcast %"class.std::__1::__tree_node_base"** %7 to %"class.std::__1::__tree_node.442"**
  %9 = load %"class.std::__1::__tree_node.442"*, %"class.std::__1::__tree_node.442"** %8, align 8
  tail call fastcc void @_ZNSt3__16__treeINS_12__value_typeIPN7content11WebContentsENS_10unique_ptrIN12_GLOBAL__N_119RPHReferenceManager22RPHWebContentsObserverENS_14default_deleteIS8_EEEEEENS_19__map_value_compareIS4_SC_NS_4lessIS4_EELb1EEENS_9allocatorISC_EEE7destroyEPNS_11__tree_nodeISC_PvEE(%"class.std::__1::__tree.424"* %0, %"class.std::__1::__tree_node.442"* %9) #10
  %10 = getelementptr inbounds %"class.std::__1::__tree_node.442", %"class.std::__1::__tree_node.442"* %1, i64 0, i32 1, i32 0, i32 1, i32 0, i32 0, i32 0
  %11 = load %"class.(anonymous namespace)::RPHReferenceManager::RPHWebContentsObserver"*, %"class.(anonymous namespace)::RPHReferenceManager::RPHWebContentsObserver"** %10, align 8
  store %"class.(anonymous namespace)::RPHReferenceManager::RPHWebContentsObserver"* null, %"class.(anonymous namespace)::RPHReferenceManager::RPHWebContentsObserver"** %10, align 8
  %12 = icmp eq %"class.(anonymous namespace)::RPHReferenceManager::RPHWebContentsObserver"* %11, null
  br i1 %12, label %18, label %13

13:                                               ; preds = %4
  %14 = bitcast %"class.(anonymous namespace)::RPHReferenceManager::RPHWebContentsObserver"* %11 to void (%"class.(anonymous namespace)::RPHReferenceManager::RPHWebContentsObserver"*)***
  %15 = load void (%"class.(anonymous namespace)::RPHReferenceManager::RPHWebContentsObserver"*)**, void (%"class.(anonymous namespace)::RPHReferenceManager::RPHWebContentsObserver"*)*** %14, align 8
  %16 = getelementptr inbounds void (%"class.(anonymous namespace)::RPHReferenceManager::RPHWebContentsObserver"*)*, void (%"class.(anonymous namespace)::RPHReferenceManager::RPHWebContentsObserver"*)** %15, i64 8
  %17 = load void (%"class.(anonymous namespace)::RPHReferenceManager::RPHWebContentsObserver"*)*, void (%"class.(anonymous namespace)::RPHReferenceManager::RPHWebContentsObserver"*)** %16, align 8
  tail call void %17(%"class.(anonymous namespace)::RPHReferenceManager::RPHWebContentsObserver"* nonnull %11) #10
  br label %18

18:                                               ; preds = %4, %13
  %19 = bitcast %"class.std::__1::__tree_node.442"* %1 to i8*
  tail call void @_ZdlPv(i8* %19) #12
  br label %20

20:                                               ; preds = %2, %18
  ret void
}

; Function Attrs: nounwind ssp uwtable
define internal fastcc void @_ZN12_GLOBAL__N_119RPHReferenceManager28OnRenderProcessHostDestroyedEPN7content17RenderProcessHostE(%"class.(anonymous namespace)::RPHReferenceManager"*, %"class.content::RenderProcessHost"*) unnamed_addr #0 align 2 {
  %3 = alloca %"class.base::OnceCallback.235", align 8
  %4 = getelementptr inbounds %"class.(anonymous namespace)::RPHReferenceManager", %"class.(anonymous namespace)::RPHReferenceManager"* %0, i64 0, i32 2
  %5 = getelementptr inbounds %"class.(anonymous namespace)::RPHReferenceManager", %"class.(anonymous namespace)::RPHReferenceManager"* %0, i64 0, i32 2, i32 0, i32 1, i32 0, i32 0
  %6 = bitcast %"class.std::__1::__tree_end_node"* %5 to %"class.std::__1::__tree_node"**
  %7 = load %"class.std::__1::__tree_node"*, %"class.std::__1::__tree_node"** %6, align 8
  %8 = icmp eq %"class.std::__1::__tree_node"* %7, null
  %9 = bitcast %"class.std::__1::__tree_node"* %7 to %"class.std::__1::__tree_node_base"*
  br i1 %8, label %97, label %10

10:                                               ; preds = %2, %10
  %11 = phi %"class.std::__1::__tree_end_node"* [ %21, %10 ], [ %5, %2 ]
  %12 = phi %"class.std::__1::__tree_node"* [ %22, %10 ], [ %7, %2 ]
  %13 = getelementptr inbounds %"class.std::__1::__tree_node", %"class.std::__1::__tree_node"* %12, i64 0, i32 1, i32 0, i32 0
  %14 = load %"class.content::RenderProcessHost"*, %"class.content::RenderProcessHost"** %13, align 8
  %15 = icmp ult %"class.content::RenderProcessHost"* %14, %1
  %16 = getelementptr inbounds %"class.std::__1::__tree_node", %"class.std::__1::__tree_node"* %12, i64 0, i32 0, i32 1
  %17 = bitcast %"class.std::__1::__tree_node_base"** %16 to %"class.std::__1::__tree_node"**
  %18 = getelementptr inbounds %"class.std::__1::__tree_node", %"class.std::__1::__tree_node"* %12, i64 0, i32 0, i32 0
  %19 = bitcast %"class.std::__1::__tree_node"* %12 to %"class.std::__1::__tree_node"**
  %20 = select i1 %15, %"class.std::__1::__tree_node"** %17, %"class.std::__1::__tree_node"** %19
  %21 = select i1 %15, %"class.std::__1::__tree_end_node"* %11, %"class.std::__1::__tree_end_node"* %18
  %22 = load %"class.std::__1::__tree_node"*, %"class.std::__1::__tree_node"** %20, align 8
  %23 = icmp eq %"class.std::__1::__tree_node"* %22, null
  br i1 %23, label %24, label %10

24:                                               ; preds = %10
  %25 = icmp eq %"class.std::__1::__tree_end_node"* %21, %5
  br i1 %25, label %97, label %26

26:                                               ; preds = %24
  %27 = getelementptr inbounds %"class.std::__1::__tree_end_node", %"class.std::__1::__tree_end_node"* %21, i64 4
  %28 = bitcast %"class.std::__1::__tree_end_node"* %27 to %"class.content::RenderProcessHost"**
  %29 = load %"class.content::RenderProcessHost"*, %"class.content::RenderProcessHost"** %28, align 8
  %30 = icmp ugt %"class.content::RenderProcessHost"* %29, %1
  br i1 %30, label %97, label %31

31:                                               ; preds = %26
  %32 = getelementptr inbounds %"class.std::__1::__tree_end_node", %"class.std::__1::__tree_end_node"* %21, i64 1, i32 0
  %33 = load %"class.std::__1::__tree_node_base"*, %"class.std::__1::__tree_node_base"** %32, align 8
  %34 = icmp eq %"class.std::__1::__tree_node_base"* %33, null
  br i1 %34, label %35, label %43

35:                                               ; preds = %31
  %36 = bitcast %"class.std::__1::__tree_end_node"* %21 to %"class.std::__1::__tree_node_base"*
  %37 = getelementptr inbounds %"class.std::__1::__tree_end_node", %"class.std::__1::__tree_end_node"* %21, i64 2
  %38 = bitcast %"class.std::__1::__tree_end_node"* %37 to %"class.std::__1::__tree_end_node"**
  %39 = load %"class.std::__1::__tree_end_node"*, %"class.std::__1::__tree_end_node"** %38, align 8
  %40 = getelementptr inbounds %"class.std::__1::__tree_end_node", %"class.std::__1::__tree_end_node"* %39, i64 0, i32 0
  %41 = load %"class.std::__1::__tree_node_base"*, %"class.std::__1::__tree_node_base"** %40, align 8
  %42 = icmp eq %"class.std::__1::__tree_node_base"* %41, %36
  br i1 %42, label %59, label %50

43:                                               ; preds = %31, %43
  %44 = phi %"class.std::__1::__tree_node_base"* [ %46, %43 ], [ %33, %31 ]
  %45 = getelementptr inbounds %"class.std::__1::__tree_node_base", %"class.std::__1::__tree_node_base"* %44, i64 0, i32 0, i32 0
  %46 = load %"class.std::__1::__tree_node_base"*, %"class.std::__1::__tree_node_base"** %45, align 8
  %47 = icmp eq %"class.std::__1::__tree_node_base"* %46, null
  br i1 %47, label %48, label %43

48:                                               ; preds = %43
  %49 = getelementptr inbounds %"class.std::__1::__tree_node_base", %"class.std::__1::__tree_node_base"* %44, i64 0, i32 0
  br label %59

50:                                               ; preds = %35, %50
  %51 = phi %"class.std::__1::__tree_end_node"** [ %54, %50 ], [ %38, %35 ]
  %52 = bitcast %"class.std::__1::__tree_end_node"** %51 to %"class.std::__1::__tree_node_base"**
  %53 = load %"class.std::__1::__tree_node_base"*, %"class.std::__1::__tree_node_base"** %52, align 8
  %54 = getelementptr inbounds %"class.std::__1::__tree_node_base", %"class.std::__1::__tree_node_base"* %53, i64 0, i32 2
  %55 = load %"class.std::__1::__tree_end_node"*, %"class.std::__1::__tree_end_node"** %54, align 8
  %56 = getelementptr inbounds %"class.std::__1::__tree_end_node", %"class.std::__1::__tree_end_node"* %55, i64 0, i32 0
  %57 = load %"class.std::__1::__tree_node_base"*, %"class.std::__1::__tree_node_base"** %56, align 8
  %58 = icmp eq %"class.std::__1::__tree_node_base"* %57, %53
  br i1 %58, label %59, label %50

59:                                               ; preds = %50, %48, %35
  %60 = phi %"class.std::__1::__tree_end_node"* [ %49, %48 ], [ %39, %35 ], [ %55, %50 ]
  %61 = getelementptr inbounds %"class.std::__1::map.298", %"class.std::__1::map.298"* %4, i64 0, i32 0, i32 0
  %62 = load %"class.std::__1::__tree_end_node"*, %"class.std::__1::__tree_end_node"** %61, align 8
  %63 = icmp eq %"class.std::__1::__tree_end_node"* %62, %21
  br i1 %63, label %64, label %67

64:                                               ; preds = %59
  %65 = ptrtoint %"class.std::__1::__tree_end_node"* %60 to i64
  %66 = bitcast %"class.std::__1::map.298"* %4 to i64*
  store i64 %65, i64* %66, align 8
  br label %67

67:                                               ; preds = %64, %59
  %68 = getelementptr inbounds %"class.(anonymous namespace)::RPHReferenceManager", %"class.(anonymous namespace)::RPHReferenceManager"* %0, i64 0, i32 2, i32 0, i32 2, i32 0, i32 0
  %69 = load i64, i64* %68, align 8
  %70 = add i64 %69, -1
  store i64 %70, i64* %68, align 8
  %71 = bitcast %"class.std::__1::__tree_end_node"* %21 to %"class.std::__1::__tree_node_base"*
  tail call void @_ZNSt3__113__tree_removeIPNS_16__tree_node_baseIPvEEEEvT_S5_(%"class.std::__1::__tree_node_base"* nonnull %9, %"class.std::__1::__tree_node_base"* %71) #10
  %72 = getelementptr inbounds %"class.std::__1::__tree_end_node", %"class.std::__1::__tree_end_node"* %21, i64 5
  %73 = bitcast %"class.std::__1::__tree_end_node"* %72 to %"class.(anonymous namespace)::RPHReferenceManager::RPHObserver"**
  %74 = load %"class.(anonymous namespace)::RPHReferenceManager::RPHObserver"*, %"class.(anonymous namespace)::RPHReferenceManager::RPHObserver"** %73, align 8
  store %"class.(anonymous namespace)::RPHReferenceManager::RPHObserver"* null, %"class.(anonymous namespace)::RPHReferenceManager::RPHObserver"** %73, align 8
  %75 = icmp eq %"class.(anonymous namespace)::RPHReferenceManager::RPHObserver"* %74, null
  br i1 %75, label %81, label %76

76:                                               ; preds = %67
  %77 = bitcast %"class.(anonymous namespace)::RPHReferenceManager::RPHObserver"* %74 to void (%"class.(anonymous namespace)::RPHReferenceManager::RPHObserver"*)***
  %78 = load void (%"class.(anonymous namespace)::RPHReferenceManager::RPHObserver"*)**, void (%"class.(anonymous namespace)::RPHReferenceManager::RPHObserver"*)*** %77, align 8
  %79 = getelementptr inbounds void (%"class.(anonymous namespace)::RPHReferenceManager::RPHObserver"*)*, void (%"class.(anonymous namespace)::RPHReferenceManager::RPHObserver"*)** %78, i64 1
  %80 = load void (%"class.(anonymous namespace)::RPHReferenceManager::RPHObserver"*)*, void (%"class.(anonymous namespace)::RPHReferenceManager::RPHObserver"*)** %79, align 8
  tail call void %80(%"class.(anonymous namespace)::RPHReferenceManager::RPHObserver"* nonnull %74) #10
  br label %81

81:                                               ; preds = %67, %76
  %82 = bitcast %"class.std::__1::__tree_end_node"* %21 to i8*
  tail call void @_ZdlPv(i8* %82) #12
  %83 = load i64, i64* %68, align 8
  %84 = icmp eq i64 %83, 0
  br i1 %84, label %85, label %97

85:                                               ; preds = %81
  %86 = getelementptr inbounds %"class.(anonymous namespace)::RPHReferenceManager", %"class.(anonymous namespace)::RPHReferenceManager"* %0, i64 0, i32 1
  %87 = bitcast %"class.base::OnceCallback.235"* %3 to i8*
  call void @llvm.lifetime.start.p0i8(i64 8, i8* nonnull %87) #10
  %88 = getelementptr inbounds %"class.base::OnceCallback.235", %"class.base::OnceCallback.235"* %86, i64 0, i32 0, i32 0, i32 0
  %89 = bitcast %"class.base::OnceCallback.235"* %86 to i64*
  %90 = load i64, i64* %89, align 8
  %91 = bitcast %"class.base::OnceCallback.235"* %3 to i64*
  store i64 %90, i64* %91, align 8
  store %"class.base::internal::BindStateBase"* null, %"class.base::internal::BindStateBase"** %88, align 8
  %92 = getelementptr inbounds %"class.base::OnceCallback.235", %"class.base::OnceCallback.235"* %3, i64 0, i32 0
  %93 = inttoptr i64 %90 to %"class.base::internal::BindStateBase"*
  %94 = getelementptr inbounds %"class.base::internal::BindStateBase", %"class.base::internal::BindStateBase"* %93, i64 0, i32 1
  %95 = bitcast void ()** %94 to void (%"class.base::internal::BindStateBase"*)**
  %96 = load void (%"class.base::internal::BindStateBase"*)*, void (%"class.base::internal::BindStateBase"*)** %95, align 8
  tail call void %96(%"class.base::internal::BindStateBase"* %93) #10
  call void @_ZN4base8internal12CallbackBaseD2Ev(%"class.base::internal::CallbackBase"* nonnull %92) #10
  call void @llvm.lifetime.end.p0i8(i64 8, i8* nonnull %87) #10
  br label %97

97:                                               ; preds = %26, %24, %2, %81, %85
  ret void
}

; Function Attrs: nounwind ssp uwtable
define linkonce_odr hidden void @_ZNSt3__113__tree_removeIPNS_16__tree_node_baseIPvEEEEvT_S5_(%"class.std::__1::__tree_node_base"*, %"class.std::__1::__tree_node_base"*) local_unnamed_addr #0 comdat {
  %3 = getelementptr inbounds %"class.std::__1::__tree_node_base", %"class.std::__1::__tree_node_base"* %1, i64 0, i32 0, i32 0
  %4 = load %"class.std::__1::__tree_node_base"*, %"class.std::__1::__tree_node_base"** %3, align 8
  %5 = icmp eq %"class.std::__1::__tree_node_base"* %4, null
  br i1 %5, label %17, label %6

6:                                                ; preds = %2
  %7 = getelementptr inbounds %"class.std::__1::__tree_node_base", %"class.std::__1::__tree_node_base"* %1, i64 0, i32 1
  %8 = load %"class.std::__1::__tree_node_base"*, %"class.std::__1::__tree_node_base"** %7, align 8
  %9 = icmp eq %"class.std::__1::__tree_node_base"* %8, null
  br i1 %9, label %15, label %10

10:                                               ; preds = %6, %10
  %11 = phi %"class.std::__1::__tree_node_base"* [ %13, %10 ], [ %8, %6 ]
  %12 = getelementptr inbounds %"class.std::__1::__tree_node_base", %"class.std::__1::__tree_node_base"* %11, i64 0, i32 0, i32 0
  %13 = load %"class.std::__1::__tree_node_base"*, %"class.std::__1::__tree_node_base"** %12, align 8
  %14 = icmp eq %"class.std::__1::__tree_node_base"* %13, null
  br i1 %14, label %17, label %10

15:                                               ; preds = %6
  %16 = getelementptr inbounds %"class.std::__1::__tree_node_base", %"class.std::__1::__tree_node_base"* %1, i64 0, i32 0, i32 0
  br label %23

17:                                               ; preds = %10, %2
  %18 = phi %"class.std::__1::__tree_node_base"* [ %1, %2 ], [ %11, %10 ]
  %19 = getelementptr inbounds %"class.std::__1::__tree_node_base", %"class.std::__1::__tree_node_base"* %18, i64 0, i32 0, i32 0
  %20 = getelementptr inbounds %"class.std::__1::__tree_node_base", %"class.std::__1::__tree_node_base"* %18, i64 0, i32 1
  %21 = load %"class.std::__1::__tree_node_base"*, %"class.std::__1::__tree_node_base"** %20, align 8
  %22 = icmp eq %"class.std::__1::__tree_node_base"* %21, null
  br i1 %22, label %32, label %23

23:                                               ; preds = %15, %17
  %24 = phi %"class.std::__1::__tree_node_base"** [ %19, %17 ], [ %16, %15 ]
  %25 = phi %"class.std::__1::__tree_node_base"* [ %18, %17 ], [ %1, %15 ]
  %26 = phi %"class.std::__1::__tree_node_base"* [ %21, %17 ], [ %4, %15 ]
  %27 = getelementptr inbounds %"class.std::__1::__tree_node_base", %"class.std::__1::__tree_node_base"* %25, i64 0, i32 2
  %28 = bitcast %"class.std::__1::__tree_end_node"** %27 to i64*
  %29 = load i64, i64* %28, align 8
  %30 = getelementptr inbounds %"class.std::__1::__tree_node_base", %"class.std::__1::__tree_node_base"* %26, i64 0, i32 2
  %31 = bitcast %"class.std::__1::__tree_end_node"** %30 to i64*
  store i64 %29, i64* %31, align 8
  br label %32

32:                                               ; preds = %17, %23
  %33 = phi %"class.std::__1::__tree_node_base"** [ %24, %23 ], [ %19, %17 ]
  %34 = phi %"class.std::__1::__tree_node_base"* [ %25, %23 ], [ %18, %17 ]
  %35 = phi i1 [ true, %23 ], [ false, %17 ]
  %36 = phi %"class.std::__1::__tree_node_base"* [ %26, %23 ], [ null, %17 ]
  %37 = getelementptr inbounds %"class.std::__1::__tree_node_base", %"class.std::__1::__tree_node_base"* %34, i64 0, i32 2
  %38 = load %"class.std::__1::__tree_end_node"*, %"class.std::__1::__tree_end_node"** %37, align 8
  %39 = getelementptr inbounds %"class.std::__1::__tree_end_node", %"class.std::__1::__tree_end_node"* %38, i64 0, i32 0
  %40 = load %"class.std::__1::__tree_node_base"*, %"class.std::__1::__tree_node_base"** %39, align 8
  %41 = icmp eq %"class.std::__1::__tree_node_base"* %40, %34
  br i1 %41, label %42, label %48

42:                                               ; preds = %32
  store %"class.std::__1::__tree_node_base"* %36, %"class.std::__1::__tree_node_base"** %39, align 8
  %43 = icmp eq %"class.std::__1::__tree_node_base"* %34, %0
  br i1 %43, label %55, label %44

44:                                               ; preds = %42
  %45 = bitcast %"class.std::__1::__tree_end_node"** %37 to %"class.std::__1::__tree_node_base"**
  %46 = load %"class.std::__1::__tree_node_base"*, %"class.std::__1::__tree_node_base"** %45, align 8
  %47 = getelementptr inbounds %"class.std::__1::__tree_node_base", %"class.std::__1::__tree_node_base"* %46, i64 0, i32 1
  br label %52

48:                                               ; preds = %32
  %49 = getelementptr inbounds %"class.std::__1::__tree_end_node", %"class.std::__1::__tree_end_node"* %38, i64 1, i32 0
  store %"class.std::__1::__tree_node_base"* %36, %"class.std::__1::__tree_node_base"** %49, align 8
  %50 = load %"class.std::__1::__tree_end_node"*, %"class.std::__1::__tree_end_node"** %37, align 8
  %51 = getelementptr inbounds %"class.std::__1::__tree_end_node", %"class.std::__1::__tree_end_node"* %50, i64 0, i32 0
  br label %52

52:                                               ; preds = %48, %44
  %53 = phi %"class.std::__1::__tree_node_base"** [ %47, %44 ], [ %51, %48 ]
  %54 = load %"class.std::__1::__tree_node_base"*, %"class.std::__1::__tree_node_base"** %53, align 8
  br label %55

55:                                               ; preds = %52, %42
  %56 = phi %"class.std::__1::__tree_node_base"* [ %36, %42 ], [ %0, %52 ]
  %57 = phi %"class.std::__1::__tree_node_base"* [ null, %42 ], [ %54, %52 ]
  %58 = getelementptr inbounds %"class.std::__1::__tree_node_base", %"class.std::__1::__tree_node_base"* %34, i64 0, i32 3
  %59 = load i8, i8* %58, align 8, !range !70
  %60 = icmp ne i8 %59, 0
  %61 = icmp eq %"class.std::__1::__tree_node_base"* %34, %1
  br i1 %61, label %90, label %62

62:                                               ; preds = %55
  %63 = getelementptr inbounds %"class.std::__1::__tree_node_base", %"class.std::__1::__tree_node_base"* %1, i64 0, i32 2
  %64 = bitcast %"class.std::__1::__tree_end_node"** %63 to i64*
  %65 = load i64, i64* %64, align 8
  %66 = bitcast %"class.std::__1::__tree_end_node"** %37 to i64*
  store i64 %65, i64* %66, align 8
  %67 = load %"class.std::__1::__tree_end_node"*, %"class.std::__1::__tree_end_node"** %63, align 8
  %68 = getelementptr inbounds %"class.std::__1::__tree_end_node", %"class.std::__1::__tree_end_node"* %67, i64 0, i32 0
  %69 = load %"class.std::__1::__tree_node_base"*, %"class.std::__1::__tree_node_base"** %68, align 8
  %70 = icmp eq %"class.std::__1::__tree_node_base"* %69, %1
  %71 = inttoptr i64 %65 to %"class.std::__1::__tree_node_base"*
  %72 = getelementptr inbounds %"class.std::__1::__tree_node_base", %"class.std::__1::__tree_node_base"* %71, i64 0, i32 1
  %73 = inttoptr i64 %65 to %"class.std::__1::__tree_end_node"*
  %74 = getelementptr inbounds %"class.std::__1::__tree_end_node", %"class.std::__1::__tree_end_node"* %73, i64 0, i32 0
  %75 = select i1 %70, %"class.std::__1::__tree_node_base"** %74, %"class.std::__1::__tree_node_base"** %72
  store %"class.std::__1::__tree_node_base"* %34, %"class.std::__1::__tree_node_base"** %75, align 8
  %76 = load %"class.std::__1::__tree_node_base"*, %"class.std::__1::__tree_node_base"** %3, align 8
  store %"class.std::__1::__tree_node_base"* %76, %"class.std::__1::__tree_node_base"** %33, align 8
  %77 = getelementptr inbounds %"class.std::__1::__tree_node_base", %"class.std::__1::__tree_node_base"* %34, i64 0, i32 0
  %78 = getelementptr inbounds %"class.std::__1::__tree_node_base", %"class.std::__1::__tree_node_base"* %76, i64 0, i32 2
  store %"class.std::__1::__tree_end_node"* %77, %"class.std::__1::__tree_end_node"** %78, align 8
  %79 = getelementptr inbounds %"class.std::__1::__tree_node_base", %"class.std::__1::__tree_node_base"* %1, i64 0, i32 1
  %80 = load %"class.std::__1::__tree_node_base"*, %"class.std::__1::__tree_node_base"** %79, align 8
  %81 = getelementptr inbounds %"class.std::__1::__tree_node_base", %"class.std::__1::__tree_node_base"* %34, i64 0, i32 1
  store %"class.std::__1::__tree_node_base"* %80, %"class.std::__1::__tree_node_base"** %81, align 8
  %82 = icmp eq %"class.std::__1::__tree_node_base"* %80, null
  br i1 %82, label %85, label %83

83:                                               ; preds = %62
  %84 = getelementptr inbounds %"class.std::__1::__tree_node_base", %"class.std::__1::__tree_node_base"* %80, i64 0, i32 2
  store %"class.std::__1::__tree_end_node"* %77, %"class.std::__1::__tree_end_node"** %84, align 8
  br label %85

85:                                               ; preds = %62, %83
  %86 = getelementptr inbounds %"class.std::__1::__tree_node_base", %"class.std::__1::__tree_node_base"* %1, i64 0, i32 3
  %87 = load i8, i8* %86, align 8, !range !70
  store i8 %87, i8* %58, align 8
  %88 = icmp eq %"class.std::__1::__tree_node_base"* %56, %1
  %89 = select i1 %88, %"class.std::__1::__tree_node_base"* %34, %"class.std::__1::__tree_node_base"* %56
  br label %90

90:                                               ; preds = %85, %55
  %91 = phi %"class.std::__1::__tree_node_base"* [ %56, %55 ], [ %89, %85 ]
  %92 = icmp ne %"class.std::__1::__tree_node_base"* %91, null
  %93 = and i1 %60, %92
  br i1 %93, label %94, label %382

94:                                               ; preds = %90
  br i1 %35, label %95, label %97

95:                                               ; preds = %94
  %96 = getelementptr inbounds %"class.std::__1::__tree_node_base", %"class.std::__1::__tree_node_base"* %36, i64 0, i32 3
  store i8 1, i8* %96, align 8
  br label %382

97:                                               ; preds = %94, %371
  %98 = phi %"class.std::__1::__tree_node_base"* [ %373, %371 ], [ %91, %94 ]
  %99 = phi %"class.std::__1::__tree_node_base"* [ %381, %371 ], [ %57, %94 ]
  %100 = getelementptr inbounds %"class.std::__1::__tree_node_base", %"class.std::__1::__tree_node_base"* %99, i64 0, i32 2
  %101 = load %"class.std::__1::__tree_end_node"*, %"class.std::__1::__tree_end_node"** %100, align 8
  %102 = getelementptr inbounds %"class.std::__1::__tree_end_node", %"class.std::__1::__tree_end_node"* %101, i64 0, i32 0
  %103 = load %"class.std::__1::__tree_node_base"*, %"class.std::__1::__tree_node_base"** %102, align 8
  %104 = icmp eq %"class.std::__1::__tree_node_base"* %103, %99
  %105 = getelementptr inbounds %"class.std::__1::__tree_node_base", %"class.std::__1::__tree_node_base"* %99, i64 0, i32 3
  %106 = load i8, i8* %105, align 8, !range !70
  %107 = icmp ne i8 %106, 0
  br i1 %104, label %242, label %108

108:                                              ; preds = %97
  br i1 %107, label %141, label %109

109:                                              ; preds = %108
  store i8 1, i8* %105, align 8
  %110 = bitcast %"class.std::__1::__tree_end_node"** %100 to %"class.std::__1::__tree_node_base"**
  %111 = getelementptr inbounds %"class.std::__1::__tree_end_node", %"class.std::__1::__tree_end_node"* %101, i64 3
  %112 = bitcast %"class.std::__1::__tree_end_node"* %111 to i8*
  store i8 0, i8* %112, align 8
  %113 = load %"class.std::__1::__tree_node_base"*, %"class.std::__1::__tree_node_base"** %110, align 8
  %114 = getelementptr inbounds %"class.std::__1::__tree_node_base", %"class.std::__1::__tree_node_base"* %113, i64 0, i32 1
  %115 = load %"class.std::__1::__tree_node_base"*, %"class.std::__1::__tree_node_base"** %114, align 8
  %116 = getelementptr inbounds %"class.std::__1::__tree_node_base", %"class.std::__1::__tree_node_base"* %115, i64 0, i32 0, i32 0
  %117 = load %"class.std::__1::__tree_node_base"*, %"class.std::__1::__tree_node_base"** %116, align 8
  store %"class.std::__1::__tree_node_base"* %117, %"class.std::__1::__tree_node_base"** %114, align 8
  %118 = icmp eq %"class.std::__1::__tree_node_base"* %117, null
  br i1 %118, label %122, label %119

119:                                              ; preds = %109
  %120 = getelementptr inbounds %"class.std::__1::__tree_node_base", %"class.std::__1::__tree_node_base"* %113, i64 0, i32 0
  %121 = getelementptr inbounds %"class.std::__1::__tree_node_base", %"class.std::__1::__tree_node_base"* %117, i64 0, i32 2
  store %"class.std::__1::__tree_end_node"* %120, %"class.std::__1::__tree_end_node"** %121, align 8
  br label %122

122:                                              ; preds = %119, %109
  %123 = getelementptr inbounds %"class.std::__1::__tree_node_base", %"class.std::__1::__tree_node_base"* %113, i64 0, i32 2
  %124 = bitcast %"class.std::__1::__tree_end_node"** %123 to i64*
  %125 = load i64, i64* %124, align 8
  %126 = getelementptr inbounds %"class.std::__1::__tree_node_base", %"class.std::__1::__tree_node_base"* %115, i64 0, i32 2
  %127 = bitcast %"class.std::__1::__tree_end_node"** %126 to i64*
  store i64 %125, i64* %127, align 8
  %128 = load %"class.std::__1::__tree_end_node"*, %"class.std::__1::__tree_end_node"** %123, align 8
  %129 = getelementptr inbounds %"class.std::__1::__tree_end_node", %"class.std::__1::__tree_end_node"* %128, i64 0, i32 0
  %130 = load %"class.std::__1::__tree_node_base"*, %"class.std::__1::__tree_node_base"** %129, align 8
  %131 = icmp eq %"class.std::__1::__tree_node_base"* %130, %113
  %132 = getelementptr inbounds %"class.std::__1::__tree_end_node", %"class.std::__1::__tree_end_node"* %128, i64 1, i32 0
  %133 = select i1 %131, %"class.std::__1::__tree_node_base"** %129, %"class.std::__1::__tree_node_base"** %132
  store %"class.std::__1::__tree_node_base"* %115, %"class.std::__1::__tree_node_base"** %133, align 8
  store %"class.std::__1::__tree_node_base"* %113, %"class.std::__1::__tree_node_base"** %116, align 8
  %134 = getelementptr inbounds %"class.std::__1::__tree_node_base", %"class.std::__1::__tree_node_base"* %115, i64 0, i32 0
  store %"class.std::__1::__tree_end_node"* %134, %"class.std::__1::__tree_end_node"** %123, align 8
  %135 = getelementptr inbounds %"class.std::__1::__tree_node_base", %"class.std::__1::__tree_node_base"* %99, i64 0, i32 0, i32 0
  %136 = load %"class.std::__1::__tree_node_base"*, %"class.std::__1::__tree_node_base"** %135, align 8
  %137 = icmp eq %"class.std::__1::__tree_node_base"* %98, %136
  %138 = select i1 %137, %"class.std::__1::__tree_node_base"* %99, %"class.std::__1::__tree_node_base"* %98
  %139 = getelementptr inbounds %"class.std::__1::__tree_node_base", %"class.std::__1::__tree_node_base"* %136, i64 0, i32 1
  %140 = load %"class.std::__1::__tree_node_base"*, %"class.std::__1::__tree_node_base"** %139, align 8
  br label %141

141:                                              ; preds = %122, %108
  %142 = phi %"class.std::__1::__tree_node_base"* [ %98, %108 ], [ %138, %122 ]
  %143 = phi %"class.std::__1::__tree_node_base"* [ %99, %108 ], [ %140, %122 ]
  %144 = getelementptr inbounds %"class.std::__1::__tree_node_base", %"class.std::__1::__tree_node_base"* %143, i64 0, i32 0, i32 0
  %145 = load %"class.std::__1::__tree_node_base"*, %"class.std::__1::__tree_node_base"** %144, align 8
  %146 = icmp eq %"class.std::__1::__tree_node_base"* %145, null
  br i1 %146, label %151, label %147

147:                                              ; preds = %141
  %148 = getelementptr inbounds %"class.std::__1::__tree_node_base", %"class.std::__1::__tree_node_base"* %145, i64 0, i32 3
  %149 = load i8, i8* %148, align 8, !range !70
  %150 = icmp eq i8 %149, 0
  br i1 %150, label %172, label %151

151:                                              ; preds = %147, %141
  %152 = getelementptr inbounds %"class.std::__1::__tree_node_base", %"class.std::__1::__tree_node_base"* %143, i64 0, i32 1
  %153 = load %"class.std::__1::__tree_node_base"*, %"class.std::__1::__tree_node_base"** %152, align 8
  %154 = icmp eq %"class.std::__1::__tree_node_base"* %153, null
  br i1 %154, label %159, label %155

155:                                              ; preds = %151
  %156 = getelementptr inbounds %"class.std::__1::__tree_node_base", %"class.std::__1::__tree_node_base"* %153, i64 0, i32 3
  %157 = load i8, i8* %156, align 8, !range !70
  %158 = icmp eq i8 %157, 0
  br i1 %158, label %177, label %159

159:                                              ; preds = %155, %151
  %160 = getelementptr inbounds %"class.std::__1::__tree_node_base", %"class.std::__1::__tree_node_base"* %143, i64 0, i32 3
  store i8 0, i8* %160, align 8
  %161 = getelementptr inbounds %"class.std::__1::__tree_node_base", %"class.std::__1::__tree_node_base"* %143, i64 0, i32 2
  %162 = bitcast %"class.std::__1::__tree_end_node"** %161 to %"class.std::__1::__tree_node_base"**
  %163 = load %"class.std::__1::__tree_node_base"*, %"class.std::__1::__tree_node_base"** %162, align 8
  %164 = icmp eq %"class.std::__1::__tree_node_base"* %163, %142
  br i1 %164, label %169, label %165

165:                                              ; preds = %159
  %166 = getelementptr inbounds %"class.std::__1::__tree_node_base", %"class.std::__1::__tree_node_base"* %163, i64 0, i32 3
  %167 = load i8, i8* %166, align 8, !range !70
  %168 = icmp eq i8 %167, 0
  br i1 %168, label %169, label %371

169:                                              ; preds = %165, %159
  %170 = phi %"class.std::__1::__tree_node_base"* [ %163, %165 ], [ %142, %159 ]
  %171 = getelementptr inbounds %"class.std::__1::__tree_node_base", %"class.std::__1::__tree_node_base"* %170, i64 0, i32 3
  store i8 1, i8* %171, align 8
  br label %382

172:                                              ; preds = %147
  %173 = getelementptr inbounds %"class.std::__1::__tree_node_base", %"class.std::__1::__tree_node_base"* %143, i64 0, i32 0, i32 0
  %174 = getelementptr inbounds %"class.std::__1::__tree_node_base", %"class.std::__1::__tree_node_base"* %143, i64 0, i32 1
  %175 = load %"class.std::__1::__tree_node_base"*, %"class.std::__1::__tree_node_base"** %174, align 8
  %176 = icmp eq %"class.std::__1::__tree_node_base"* %175, null
  br i1 %176, label %185, label %179

177:                                              ; preds = %155
  %178 = getelementptr inbounds %"class.std::__1::__tree_node_base", %"class.std::__1::__tree_node_base"* %143, i64 0, i32 0, i32 0
  br label %179

179:                                              ; preds = %177, %172
  %180 = phi %"class.std::__1::__tree_node_base"** [ %173, %172 ], [ %178, %177 ]
  %181 = phi %"class.std::__1::__tree_node_base"* [ %175, %172 ], [ %153, %177 ]
  %182 = getelementptr inbounds %"class.std::__1::__tree_node_base", %"class.std::__1::__tree_node_base"* %181, i64 0, i32 3
  %183 = load i8, i8* %182, align 8, !range !70
  %184 = icmp eq i8 %183, 0
  br i1 %184, label %209, label %185

185:                                              ; preds = %179, %172
  %186 = phi %"class.std::__1::__tree_node_base"** [ %180, %179 ], [ %173, %172 ]
  %187 = getelementptr inbounds %"class.std::__1::__tree_node_base", %"class.std::__1::__tree_node_base"* %145, i64 0, i32 3
  store i8 1, i8* %187, align 8
  %188 = getelementptr inbounds %"class.std::__1::__tree_node_base", %"class.std::__1::__tree_node_base"* %143, i64 0, i32 3
  store i8 0, i8* %188, align 8
  %189 = load %"class.std::__1::__tree_node_base"*, %"class.std::__1::__tree_node_base"** %186, align 8
  %190 = getelementptr inbounds %"class.std::__1::__tree_node_base", %"class.std::__1::__tree_node_base"* %189, i64 0, i32 1
  %191 = load %"class.std::__1::__tree_node_base"*, %"class.std::__1::__tree_node_base"** %190, align 8
  store %"class.std::__1::__tree_node_base"* %191, %"class.std::__1::__tree_node_base"** %186, align 8
  %192 = icmp eq %"class.std::__1::__tree_node_base"* %191, null
  br i1 %192, label %196, label %193

193:                                              ; preds = %185
  %194 = getelementptr inbounds %"class.std::__1::__tree_node_base", %"class.std::__1::__tree_node_base"* %143, i64 0, i32 0
  %195 = getelementptr inbounds %"class.std::__1::__tree_node_base", %"class.std::__1::__tree_node_base"* %191, i64 0, i32 2
  store %"class.std::__1::__tree_end_node"* %194, %"class.std::__1::__tree_end_node"** %195, align 8
  br label %196

196:                                              ; preds = %193, %185
  %197 = getelementptr inbounds %"class.std::__1::__tree_node_base", %"class.std::__1::__tree_node_base"* %143, i64 0, i32 2
  %198 = bitcast %"class.std::__1::__tree_end_node"** %197 to i64*
  %199 = load i64, i64* %198, align 8
  %200 = getelementptr inbounds %"class.std::__1::__tree_node_base", %"class.std::__1::__tree_node_base"* %189, i64 0, i32 2
  %201 = bitcast %"class.std::__1::__tree_end_node"** %200 to i64*
  store i64 %199, i64* %201, align 8
  %202 = load %"class.std::__1::__tree_end_node"*, %"class.std::__1::__tree_end_node"** %197, align 8
  %203 = getelementptr inbounds %"class.std::__1::__tree_end_node", %"class.std::__1::__tree_end_node"* %202, i64 0, i32 0
  %204 = load %"class.std::__1::__tree_node_base"*, %"class.std::__1::__tree_node_base"** %203, align 8
  %205 = icmp eq %"class.std::__1::__tree_node_base"* %204, %143
  %206 = getelementptr inbounds %"class.std::__1::__tree_end_node", %"class.std::__1::__tree_end_node"* %202, i64 1, i32 0
  %207 = select i1 %205, %"class.std::__1::__tree_node_base"** %203, %"class.std::__1::__tree_node_base"** %206
  store %"class.std::__1::__tree_node_base"* %189, %"class.std::__1::__tree_node_base"** %207, align 8
  store %"class.std::__1::__tree_node_base"* %143, %"class.std::__1::__tree_node_base"** %190, align 8
  %208 = getelementptr inbounds %"class.std::__1::__tree_node_base", %"class.std::__1::__tree_node_base"* %189, i64 0, i32 0
  store %"class.std::__1::__tree_end_node"* %208, %"class.std::__1::__tree_end_node"** %197, align 8
  br label %209

209:                                              ; preds = %179, %196
  %210 = phi %"class.std::__1::__tree_node_base"* [ %189, %196 ], [ %143, %179 ]
  %211 = getelementptr inbounds %"class.std::__1::__tree_node_base", %"class.std::__1::__tree_node_base"* %210, i64 0, i32 2
  %212 = bitcast %"class.std::__1::__tree_end_node"** %211 to %"class.std::__1::__tree_node_base"**
  %213 = load %"class.std::__1::__tree_node_base"*, %"class.std::__1::__tree_node_base"** %212, align 8
  %214 = getelementptr inbounds %"class.std::__1::__tree_node_base", %"class.std::__1::__tree_node_base"* %213, i64 0, i32 3
  %215 = load i8, i8* %214, align 8, !range !70
  %216 = getelementptr inbounds %"class.std::__1::__tree_node_base", %"class.std::__1::__tree_node_base"* %210, i64 0, i32 3
  store i8 %215, i8* %216, align 8
  store i8 1, i8* %214, align 8
  %217 = getelementptr inbounds %"class.std::__1::__tree_node_base", %"class.std::__1::__tree_node_base"* %210, i64 0, i32 1
  %218 = load %"class.std::__1::__tree_node_base"*, %"class.std::__1::__tree_node_base"** %217, align 8
  %219 = getelementptr inbounds %"class.std::__1::__tree_node_base", %"class.std::__1::__tree_node_base"* %218, i64 0, i32 3
  store i8 1, i8* %219, align 8
  %220 = load %"class.std::__1::__tree_node_base"*, %"class.std::__1::__tree_node_base"** %212, align 8
  %221 = getelementptr inbounds %"class.std::__1::__tree_node_base", %"class.std::__1::__tree_node_base"* %220, i64 0, i32 1
  %222 = load %"class.std::__1::__tree_node_base"*, %"class.std::__1::__tree_node_base"** %221, align 8
  %223 = getelementptr inbounds %"class.std::__1::__tree_node_base", %"class.std::__1::__tree_node_base"* %222, i64 0, i32 0, i32 0
  %224 = load %"class.std::__1::__tree_node_base"*, %"class.std::__1::__tree_node_base"** %223, align 8
  store %"class.std::__1::__tree_node_base"* %224, %"class.std::__1::__tree_node_base"** %221, align 8
  %225 = icmp eq %"class.std::__1::__tree_node_base"* %224, null
  br i1 %225, label %229, label %226

226:                                              ; preds = %209
  %227 = getelementptr inbounds %"class.std::__1::__tree_node_base", %"class.std::__1::__tree_node_base"* %220, i64 0, i32 0
  %228 = getelementptr inbounds %"class.std::__1::__tree_node_base", %"class.std::__1::__tree_node_base"* %224, i64 0, i32 2
  store %"class.std::__1::__tree_end_node"* %227, %"class.std::__1::__tree_end_node"** %228, align 8
  br label %229

229:                                              ; preds = %226, %209
  %230 = getelementptr inbounds %"class.std::__1::__tree_node_base", %"class.std::__1::__tree_node_base"* %220, i64 0, i32 2
  %231 = bitcast %"class.std::__1::__tree_end_node"** %230 to i64*
  %232 = load i64, i64* %231, align 8
  %233 = getelementptr inbounds %"class.std::__1::__tree_node_base", %"class.std::__1::__tree_node_base"* %222, i64 0, i32 2
  %234 = bitcast %"class.std::__1::__tree_end_node"** %233 to i64*
  store i64 %232, i64* %234, align 8
  %235 = load %"class.std::__1::__tree_end_node"*, %"class.std::__1::__tree_end_node"** %230, align 8
  %236 = getelementptr inbounds %"class.std::__1::__tree_end_node", %"class.std::__1::__tree_end_node"* %235, i64 0, i32 0
  %237 = load %"class.std::__1::__tree_node_base"*, %"class.std::__1::__tree_node_base"** %236, align 8
  %238 = icmp eq %"class.std::__1::__tree_node_base"* %237, %220
  %239 = getelementptr inbounds %"class.std::__1::__tree_end_node", %"class.std::__1::__tree_end_node"* %235, i64 1, i32 0
  %240 = select i1 %238, %"class.std::__1::__tree_node_base"** %236, %"class.std::__1::__tree_node_base"** %239
  store %"class.std::__1::__tree_node_base"* %222, %"class.std::__1::__tree_node_base"** %240, align 8
  store %"class.std::__1::__tree_node_base"* %220, %"class.std::__1::__tree_node_base"** %223, align 8
  %241 = getelementptr inbounds %"class.std::__1::__tree_node_base", %"class.std::__1::__tree_node_base"* %222, i64 0, i32 0
  store %"class.std::__1::__tree_end_node"* %241, %"class.std::__1::__tree_end_node"** %230, align 8
  br label %382

242:                                              ; preds = %97
  br i1 %107, label %275, label %243

243:                                              ; preds = %242
  store i8 1, i8* %105, align 8
  %244 = bitcast %"class.std::__1::__tree_end_node"** %100 to %"class.std::__1::__tree_node_base"**
  %245 = getelementptr inbounds %"class.std::__1::__tree_end_node", %"class.std::__1::__tree_end_node"* %101, i64 3
  %246 = bitcast %"class.std::__1::__tree_end_node"* %245 to i8*
  store i8 0, i8* %246, align 8
  %247 = load %"class.std::__1::__tree_node_base"*, %"class.std::__1::__tree_node_base"** %244, align 8
  %248 = getelementptr inbounds %"class.std::__1::__tree_node_base", %"class.std::__1::__tree_node_base"* %247, i64 0, i32 0, i32 0
  %249 = load %"class.std::__1::__tree_node_base"*, %"class.std::__1::__tree_node_base"** %248, align 8
  %250 = getelementptr inbounds %"class.std::__1::__tree_node_base", %"class.std::__1::__tree_node_base"* %249, i64 0, i32 1
  %251 = load %"class.std::__1::__tree_node_base"*, %"class.std::__1::__tree_node_base"** %250, align 8
  store %"class.std::__1::__tree_node_base"* %251, %"class.std::__1::__tree_node_base"** %248, align 8
  %252 = icmp eq %"class.std::__1::__tree_node_base"* %251, null
  br i1 %252, label %256, label %253

253:                                              ; preds = %243
  %254 = getelementptr inbounds %"class.std::__1::__tree_node_base", %"class.std::__1::__tree_node_base"* %247, i64 0, i32 0
  %255 = getelementptr inbounds %"class.std::__1::__tree_node_base", %"class.std::__1::__tree_node_base"* %251, i64 0, i32 2
  store %"class.std::__1::__tree_end_node"* %254, %"class.std::__1::__tree_end_node"** %255, align 8
  br label %256

256:                                              ; preds = %253, %243
  %257 = getelementptr inbounds %"class.std::__1::__tree_node_base", %"class.std::__1::__tree_node_base"* %247, i64 0, i32 2
  %258 = bitcast %"class.std::__1::__tree_end_node"** %257 to i64*
  %259 = load i64, i64* %258, align 8
  %260 = getelementptr inbounds %"class.std::__1::__tree_node_base", %"class.std::__1::__tree_node_base"* %249, i64 0, i32 2
  %261 = bitcast %"class.std::__1::__tree_end_node"** %260 to i64*
  store i64 %259, i64* %261, align 8
  %262 = load %"class.std::__1::__tree_end_node"*, %"class.std::__1::__tree_end_node"** %257, align 8
  %263 = getelementptr inbounds %"class.std::__1::__tree_end_node", %"class.std::__1::__tree_end_node"* %262, i64 0, i32 0
  %264 = load %"class.std::__1::__tree_node_base"*, %"class.std::__1::__tree_node_base"** %263, align 8
  %265 = icmp eq %"class.std::__1::__tree_node_base"* %264, %247
  %266 = getelementptr inbounds %"class.std::__1::__tree_end_node", %"class.std::__1::__tree_end_node"* %262, i64 1, i32 0
  %267 = select i1 %265, %"class.std::__1::__tree_node_base"** %263, %"class.std::__1::__tree_node_base"** %266
  store %"class.std::__1::__tree_node_base"* %249, %"class.std::__1::__tree_node_base"** %267, align 8
  store %"class.std::__1::__tree_node_base"* %247, %"class.std::__1::__tree_node_base"** %250, align 8
  %268 = getelementptr inbounds %"class.std::__1::__tree_node_base", %"class.std::__1::__tree_node_base"* %249, i64 0, i32 0
  store %"class.std::__1::__tree_end_node"* %268, %"class.std::__1::__tree_end_node"** %257, align 8
  %269 = getelementptr inbounds %"class.std::__1::__tree_node_base", %"class.std::__1::__tree_node_base"* %99, i64 0, i32 1
  %270 = load %"class.std::__1::__tree_node_base"*, %"class.std::__1::__tree_node_base"** %269, align 8
  %271 = icmp eq %"class.std::__1::__tree_node_base"* %98, %270
  %272 = select i1 %271, %"class.std::__1::__tree_node_base"* %99, %"class.std::__1::__tree_node_base"* %98
  %273 = getelementptr inbounds %"class.std::__1::__tree_node_base", %"class.std::__1::__tree_node_base"* %270, i64 0, i32 0, i32 0
  %274 = load %"class.std::__1::__tree_node_base"*, %"class.std::__1::__tree_node_base"** %273, align 8
  br label %275

275:                                              ; preds = %256, %242
  %276 = phi %"class.std::__1::__tree_node_base"* [ %98, %242 ], [ %272, %256 ]
  %277 = phi %"class.std::__1::__tree_node_base"* [ %99, %242 ], [ %274, %256 ]
  %278 = getelementptr inbounds %"class.std::__1::__tree_node_base", %"class.std::__1::__tree_node_base"* %277, i64 0, i32 0, i32 0
  %279 = load %"class.std::__1::__tree_node_base"*, %"class.std::__1::__tree_node_base"** %278, align 8
  %280 = icmp eq %"class.std::__1::__tree_node_base"* %279, null
  br i1 %280, label %285, label %281

281:                                              ; preds = %275
  %282 = getelementptr inbounds %"class.std::__1::__tree_node_base", %"class.std::__1::__tree_node_base"* %279, i64 0, i32 3
  %283 = load i8, i8* %282, align 8, !range !70
  %284 = icmp eq i8 %283, 0
  br i1 %284, label %338, label %285

285:                                              ; preds = %281, %275
  %286 = getelementptr inbounds %"class.std::__1::__tree_node_base", %"class.std::__1::__tree_node_base"* %277, i64 0, i32 1
  %287 = load %"class.std::__1::__tree_node_base"*, %"class.std::__1::__tree_node_base"** %286, align 8
  %288 = icmp eq %"class.std::__1::__tree_node_base"* %287, null
  br i1 %288, label %293, label %289

289:                                              ; preds = %285
  %290 = getelementptr inbounds %"class.std::__1::__tree_node_base", %"class.std::__1::__tree_node_base"* %287, i64 0, i32 3
  %291 = load i8, i8* %290, align 8, !range !70
  %292 = icmp eq i8 %291, 0
  br i1 %292, label %305, label %293

293:                                              ; preds = %289, %285
  %294 = getelementptr inbounds %"class.std::__1::__tree_node_base", %"class.std::__1::__tree_node_base"* %277, i64 0, i32 3
  store i8 0, i8* %294, align 8
  %295 = getelementptr inbounds %"class.std::__1::__tree_node_base", %"class.std::__1::__tree_node_base"* %277, i64 0, i32 2
  %296 = bitcast %"class.std::__1::__tree_end_node"** %295 to %"class.std::__1::__tree_node_base"**
  %297 = load %"class.std::__1::__tree_node_base"*, %"class.std::__1::__tree_node_base"** %296, align 8
  %298 = getelementptr inbounds %"class.std::__1::__tree_node_base", %"class.std::__1::__tree_node_base"* %297, i64 0, i32 3
  %299 = load i8, i8* %298, align 8, !range !70
  %300 = icmp eq i8 %299, 0
  %301 = icmp eq %"class.std::__1::__tree_node_base"* %297, %276
  %302 = or i1 %301, %300
  br i1 %302, label %303, label %371

303:                                              ; preds = %293
  %304 = getelementptr inbounds %"class.std::__1::__tree_node_base", %"class.std::__1::__tree_node_base"* %297, i64 0, i32 3
  store i8 1, i8* %304, align 8
  br label %382

305:                                              ; preds = %289
  br i1 %280, label %313, label %306

306:                                              ; preds = %305
  %307 = getelementptr inbounds %"class.std::__1::__tree_node_base", %"class.std::__1::__tree_node_base"* %279, i64 0, i32 3
  %308 = load i8, i8* %307, align 8, !range !70
  %309 = icmp eq i8 %308, 0
  br i1 %309, label %338, label %310

310:                                              ; preds = %306
  %311 = getelementptr inbounds %"class.std::__1::__tree_node_base", %"class.std::__1::__tree_node_base"* %277, i64 0, i32 1
  %312 = load %"class.std::__1::__tree_node_base"*, %"class.std::__1::__tree_node_base"** %311, align 8
  br label %313

313:                                              ; preds = %310, %305
  %314 = phi %"class.std::__1::__tree_node_base"* [ %312, %310 ], [ %287, %305 ]
  %315 = getelementptr inbounds %"class.std::__1::__tree_node_base", %"class.std::__1::__tree_node_base"* %277, i64 0, i32 1
  %316 = getelementptr inbounds %"class.std::__1::__tree_node_base", %"class.std::__1::__tree_node_base"* %314, i64 0, i32 3
  store i8 1, i8* %316, align 8
  %317 = getelementptr inbounds %"class.std::__1::__tree_node_base", %"class.std::__1::__tree_node_base"* %277, i64 0, i32 3
  store i8 0, i8* %317, align 8
  %318 = load %"class.std::__1::__tree_node_base"*, %"class.std::__1::__tree_node_base"** %315, align 8
  %319 = getelementptr inbounds %"class.std::__1::__tree_node_base", %"class.std::__1::__tree_node_base"* %318, i64 0, i32 0, i32 0
  %320 = load %"class.std::__1::__tree_node_base"*, %"class.std::__1::__tree_node_base"** %319, align 8
  store %"class.std::__1::__tree_node_base"* %320, %"class.std::__1::__tree_node_base"** %315, align 8
  %321 = icmp eq %"class.std::__1::__tree_node_base"* %320, null
  br i1 %321, label %325, label %322

322:                                              ; preds = %313
  %323 = getelementptr inbounds %"class.std::__1::__tree_node_base", %"class.std::__1::__tree_node_base"* %277, i64 0, i32 0
  %324 = getelementptr inbounds %"class.std::__1::__tree_node_base", %"class.std::__1::__tree_node_base"* %320, i64 0, i32 2
  store %"class.std::__1::__tree_end_node"* %323, %"class.std::__1::__tree_end_node"** %324, align 8
  br label %325

325:                                              ; preds = %322, %313
  %326 = getelementptr inbounds %"class.std::__1::__tree_node_base", %"class.std::__1::__tree_node_base"* %277, i64 0, i32 2
  %327 = bitcast %"class.std::__1::__tree_end_node"** %326 to i64*
  %328 = load i64, i64* %327, align 8
  %329 = getelementptr inbounds %"class.std::__1::__tree_node_base", %"class.std::__1::__tree_node_base"* %318, i64 0, i32 2
  %330 = bitcast %"class.std::__1::__tree_end_node"** %329 to i64*
  store i64 %328, i64* %330, align 8
  %331 = load %"class.std::__1::__tree_end_node"*, %"class.std::__1::__tree_end_node"** %326, align 8
  %332 = getelementptr inbounds %"class.std::__1::__tree_end_node", %"class.std::__1::__tree_end_node"* %331, i64 0, i32 0
  %333 = load %"class.std::__1::__tree_node_base"*, %"class.std::__1::__tree_node_base"** %332, align 8
  %334 = icmp eq %"class.std::__1::__tree_node_base"* %333, %277
  %335 = getelementptr inbounds %"class.std::__1::__tree_end_node", %"class.std::__1::__tree_end_node"* %331, i64 1, i32 0
  %336 = select i1 %334, %"class.std::__1::__tree_node_base"** %332, %"class.std::__1::__tree_node_base"** %335
  store %"class.std::__1::__tree_node_base"* %318, %"class.std::__1::__tree_node_base"** %336, align 8
  store %"class.std::__1::__tree_node_base"* %277, %"class.std::__1::__tree_node_base"** %319, align 8
  %337 = getelementptr inbounds %"class.std::__1::__tree_node_base", %"class.std::__1::__tree_node_base"* %318, i64 0, i32 0
  store %"class.std::__1::__tree_end_node"* %337, %"class.std::__1::__tree_end_node"** %326, align 8
  br label %338

338:                                              ; preds = %281, %306, %325
  %339 = phi %"class.std::__1::__tree_node_base"* [ %318, %325 ], [ %277, %306 ], [ %277, %281 ]
  %340 = getelementptr inbounds %"class.std::__1::__tree_node_base", %"class.std::__1::__tree_node_base"* %339, i64 0, i32 2
  %341 = bitcast %"class.std::__1::__tree_end_node"** %340 to %"class.std::__1::__tree_node_base"**
  %342 = load %"class.std::__1::__tree_node_base"*, %"class.std::__1::__tree_node_base"** %341, align 8
  %343 = getelementptr inbounds %"class.std::__1::__tree_node_base", %"class.std::__1::__tree_node_base"* %342, i64 0, i32 3
  %344 = load i8, i8* %343, align 8, !range !70
  %345 = getelementptr inbounds %"class.std::__1::__tree_node_base", %"class.std::__1::__tree_node_base"* %339, i64 0, i32 3
  store i8 %344, i8* %345, align 8
  store i8 1, i8* %343, align 8
  %346 = getelementptr inbounds %"class.std::__1::__tree_node_base", %"class.std::__1::__tree_node_base"* %339, i64 0, i32 0, i32 0
  %347 = load %"class.std::__1::__tree_node_base"*, %"class.std::__1::__tree_node_base"** %346, align 8
  %348 = getelementptr inbounds %"class.std::__1::__tree_node_base", %"class.std::__1::__tree_node_base"* %347, i64 0, i32 3
  store i8 1, i8* %348, align 8
  %349 = load %"class.std::__1::__tree_node_base"*, %"class.std::__1::__tree_node_base"** %341, align 8
  %350 = getelementptr inbounds %"class.std::__1::__tree_node_base", %"class.std::__1::__tree_node_base"* %349, i64 0, i32 0, i32 0
  %351 = load %"class.std::__1::__tree_node_base"*, %"class.std::__1::__tree_node_base"** %350, align 8
  %352 = getelementptr inbounds %"class.std::__1::__tree_node_base", %"class.std::__1::__tree_node_base"* %351, i64 0, i32 1
  %353 = load %"class.std::__1::__tree_node_base"*, %"class.std::__1::__tree_node_base"** %352, align 8
  store %"class.std::__1::__tree_node_base"* %353, %"class.std::__1::__tree_node_base"** %350, align 8
  %354 = icmp eq %"class.std::__1::__tree_node_base"* %353, null
  br i1 %354, label %358, label %355

355:                                              ; preds = %338
  %356 = getelementptr inbounds %"class.std::__1::__tree_node_base", %"class.std::__1::__tree_node_base"* %349, i64 0, i32 0
  %357 = getelementptr inbounds %"class.std::__1::__tree_node_base", %"class.std::__1::__tree_node_base"* %353, i64 0, i32 2
  store %"class.std::__1::__tree_end_node"* %356, %"class.std::__1::__tree_end_node"** %357, align 8
  br label %358

358:                                              ; preds = %355, %338
  %359 = getelementptr inbounds %"class.std::__1::__tree_node_base", %"class.std::__1::__tree_node_base"* %349, i64 0, i32 2
  %360 = bitcast %"class.std::__1::__tree_end_node"** %359 to i64*
  %361 = load i64, i64* %360, align 8
  %362 = getelementptr inbounds %"class.std::__1::__tree_node_base", %"class.std::__1::__tree_node_base"* %351, i64 0, i32 2
  %363 = bitcast %"class.std::__1::__tree_end_node"** %362 to i64*
  store i64 %361, i64* %363, align 8
  %364 = load %"class.std::__1::__tree_end_node"*, %"class.std::__1::__tree_end_node"** %359, align 8
  %365 = getelementptr inbounds %"class.std::__1::__tree_end_node", %"class.std::__1::__tree_end_node"* %364, i64 0, i32 0
  %366 = load %"class.std::__1::__tree_node_base"*, %"class.std::__1::__tree_node_base"** %365, align 8
  %367 = icmp eq %"class.std::__1::__tree_node_base"* %366, %349
  %368 = getelementptr inbounds %"class.std::__1::__tree_end_node", %"class.std::__1::__tree_end_node"* %364, i64 1, i32 0
  %369 = select i1 %367, %"class.std::__1::__tree_node_base"** %365, %"class.std::__1::__tree_node_base"** %368
  store %"class.std::__1::__tree_node_base"* %351, %"class.std::__1::__tree_node_base"** %369, align 8
  store %"class.std::__1::__tree_node_base"* %349, %"class.std::__1::__tree_node_base"** %352, align 8
  %370 = getelementptr inbounds %"class.std::__1::__tree_node_base", %"class.std::__1::__tree_node_base"* %351, i64 0, i32 0
  store %"class.std::__1::__tree_end_node"* %370, %"class.std::__1::__tree_end_node"** %359, align 8
  br label %382

371:                                              ; preds = %293, %165
  %372 = phi %"class.std::__1::__tree_node_base"* [ %163, %165 ], [ %297, %293 ]
  %373 = phi %"class.std::__1::__tree_node_base"* [ %142, %165 ], [ %276, %293 ]
  %374 = getelementptr inbounds %"class.std::__1::__tree_node_base", %"class.std::__1::__tree_node_base"* %372, i64 0, i32 2
  %375 = load %"class.std::__1::__tree_end_node"*, %"class.std::__1::__tree_end_node"** %374, align 8
  %376 = getelementptr inbounds %"class.std::__1::__tree_end_node", %"class.std::__1::__tree_end_node"* %375, i64 0, i32 0
  %377 = load %"class.std::__1::__tree_node_base"*, %"class.std::__1::__tree_node_base"** %376, align 8
  %378 = icmp eq %"class.std::__1::__tree_node_base"* %377, %372
  %379 = getelementptr inbounds %"class.std::__1::__tree_end_node", %"class.std::__1::__tree_end_node"* %375, i64 1, i32 0
  %380 = select i1 %378, %"class.std::__1::__tree_node_base"** %379, %"class.std::__1::__tree_node_base"** %376
  %381 = load %"class.std::__1::__tree_node_base"*, %"class.std::__1::__tree_node_base"** %380, align 8
  br label %97

382:                                              ; preds = %95, %358, %303, %229, %169, %90
  ret void
}

; Function Attrs: noreturn nounwind
declare void @abort() local_unnamed_addr #6

; Function Attrs: nounwind ssp uwtable
define linkonce_odr hidden void @_ZNSt3__127__tree_balance_after_insertIPNS_16__tree_node_baseIPvEEEEvT_S5_(%"class.std::__1::__tree_node_base"*, %"class.std::__1::__tree_node_base"*) local_unnamed_addr #0 comdat {
  %3 = icmp eq %"class.std::__1::__tree_node_base"* %1, %0
  %4 = getelementptr inbounds %"class.std::__1::__tree_node_base", %"class.std::__1::__tree_node_base"* %1, i64 0, i32 3
  %5 = zext i1 %3 to i8
  store i8 %5, i8* %4, align 8
  br i1 %3, label %156, label %6

6:                                                ; preds = %2, %149
  %7 = phi %"class.std::__1::__tree_node_base"* [ %20, %149 ], [ %1, %2 ]
  %8 = getelementptr inbounds %"class.std::__1::__tree_node_base", %"class.std::__1::__tree_node_base"* %7, i64 0, i32 2
  %9 = bitcast %"class.std::__1::__tree_end_node"** %8 to %"class.std::__1::__tree_node_base"**
  %10 = load %"class.std::__1::__tree_node_base"*, %"class.std::__1::__tree_node_base"** %9, align 8
  %11 = getelementptr inbounds %"class.std::__1::__tree_node_base", %"class.std::__1::__tree_node_base"* %10, i64 0, i32 3
  %12 = load i8, i8* %11, align 8, !range !70
  %13 = icmp eq i8 %12, 0
  br i1 %13, label %14, label %156

14:                                               ; preds = %6
  %15 = getelementptr inbounds %"class.std::__1::__tree_node_base", %"class.std::__1::__tree_node_base"* %10, i64 0, i32 2
  %16 = load %"class.std::__1::__tree_end_node"*, %"class.std::__1::__tree_end_node"** %15, align 8
  %17 = getelementptr inbounds %"class.std::__1::__tree_end_node", %"class.std::__1::__tree_end_node"* %16, i64 0, i32 0
  %18 = load %"class.std::__1::__tree_node_base"*, %"class.std::__1::__tree_node_base"** %17, align 8
  %19 = icmp eq %"class.std::__1::__tree_node_base"* %18, %10
  %20 = bitcast %"class.std::__1::__tree_end_node"* %16 to %"class.std::__1::__tree_node_base"*
  br i1 %19, label %21, label %87

21:                                               ; preds = %14
  %22 = getelementptr inbounds %"class.std::__1::__tree_end_node", %"class.std::__1::__tree_end_node"* %16, i64 1, i32 0
  %23 = load %"class.std::__1::__tree_node_base"*, %"class.std::__1::__tree_node_base"** %22, align 8
  %24 = icmp eq %"class.std::__1::__tree_node_base"* %23, null
  br i1 %24, label %29, label %25

25:                                               ; preds = %21
  %26 = getelementptr inbounds %"class.std::__1::__tree_node_base", %"class.std::__1::__tree_node_base"* %23, i64 0, i32 3
  %27 = load i8, i8* %26, align 8, !range !70
  %28 = icmp eq i8 %27, 0
  br i1 %28, label %149, label %29

29:                                               ; preds = %25, %21
  %30 = getelementptr inbounds %"class.std::__1::__tree_node_base", %"class.std::__1::__tree_node_base"* %10, i64 0, i32 2
  %31 = bitcast %"class.std::__1::__tree_end_node"* %16 to %"class.std::__1::__tree_node_base"*
  %32 = getelementptr inbounds %"class.std::__1::__tree_node_base", %"class.std::__1::__tree_node_base"* %10, i64 0, i32 0, i32 0
  %33 = load %"class.std::__1::__tree_node_base"*, %"class.std::__1::__tree_node_base"** %32, align 8
  %34 = icmp eq %"class.std::__1::__tree_node_base"* %33, %7
  br i1 %34, label %61, label %35

35:                                               ; preds = %29
  %36 = ptrtoint %"class.std::__1::__tree_end_node"* %16 to i64
  %37 = getelementptr inbounds %"class.std::__1::__tree_node_base", %"class.std::__1::__tree_node_base"* %10, i64 0, i32 1
  %38 = load %"class.std::__1::__tree_node_base"*, %"class.std::__1::__tree_node_base"** %37, align 8
  %39 = getelementptr inbounds %"class.std::__1::__tree_node_base", %"class.std::__1::__tree_node_base"* %38, i64 0, i32 0, i32 0
  %40 = load %"class.std::__1::__tree_node_base"*, %"class.std::__1::__tree_node_base"** %39, align 8
  store %"class.std::__1::__tree_node_base"* %40, %"class.std::__1::__tree_node_base"** %37, align 8
  %41 = icmp eq %"class.std::__1::__tree_node_base"* %40, null
  br i1 %41, label %47, label %42

42:                                               ; preds = %35
  %43 = getelementptr inbounds %"class.std::__1::__tree_node_base", %"class.std::__1::__tree_node_base"* %10, i64 0, i32 0
  %44 = getelementptr inbounds %"class.std::__1::__tree_node_base", %"class.std::__1::__tree_node_base"* %40, i64 0, i32 2
  store %"class.std::__1::__tree_end_node"* %43, %"class.std::__1::__tree_end_node"** %44, align 8
  %45 = bitcast %"class.std::__1::__tree_end_node"** %30 to i64*
  %46 = load i64, i64* %45, align 8
  br label %47

47:                                               ; preds = %35, %42
  %48 = phi i64 [ %46, %42 ], [ %36, %35 ]
  %49 = getelementptr inbounds %"class.std::__1::__tree_node_base", %"class.std::__1::__tree_node_base"* %38, i64 0, i32 2
  %50 = bitcast %"class.std::__1::__tree_end_node"** %49 to i64*
  store i64 %48, i64* %50, align 8
  %51 = load %"class.std::__1::__tree_end_node"*, %"class.std::__1::__tree_end_node"** %30, align 8
  %52 = getelementptr inbounds %"class.std::__1::__tree_end_node", %"class.std::__1::__tree_end_node"* %51, i64 0, i32 0
  %53 = load %"class.std::__1::__tree_node_base"*, %"class.std::__1::__tree_node_base"** %52, align 8
  %54 = icmp eq %"class.std::__1::__tree_node_base"* %53, %10
  %55 = getelementptr inbounds %"class.std::__1::__tree_end_node", %"class.std::__1::__tree_end_node"* %51, i64 1, i32 0
  %56 = select i1 %54, %"class.std::__1::__tree_node_base"** %52, %"class.std::__1::__tree_node_base"** %55
  store %"class.std::__1::__tree_node_base"* %38, %"class.std::__1::__tree_node_base"** %56, align 8
  store %"class.std::__1::__tree_node_base"* %10, %"class.std::__1::__tree_node_base"** %39, align 8
  %57 = getelementptr inbounds %"class.std::__1::__tree_node_base", %"class.std::__1::__tree_node_base"* %38, i64 0, i32 0
  store %"class.std::__1::__tree_end_node"* %57, %"class.std::__1::__tree_end_node"** %30, align 8
  %58 = getelementptr inbounds %"class.std::__1::__tree_node_base", %"class.std::__1::__tree_node_base"* %38, i64 0, i32 2
  %59 = bitcast %"class.std::__1::__tree_end_node"** %58 to %"class.std::__1::__tree_node_base"**
  %60 = load %"class.std::__1::__tree_node_base"*, %"class.std::__1::__tree_node_base"** %59, align 8
  br label %61

61:                                               ; preds = %47, %29
  %62 = phi %"class.std::__1::__tree_node_base"* [ %31, %29 ], [ %60, %47 ]
  %63 = phi %"class.std::__1::__tree_node_base"* [ %10, %29 ], [ %38, %47 ]
  %64 = getelementptr inbounds %"class.std::__1::__tree_node_base", %"class.std::__1::__tree_node_base"* %63, i64 0, i32 3
  store i8 1, i8* %64, align 8
  %65 = getelementptr inbounds %"class.std::__1::__tree_node_base", %"class.std::__1::__tree_node_base"* %62, i64 0, i32 3
  store i8 0, i8* %65, align 8
  %66 = getelementptr inbounds %"class.std::__1::__tree_node_base", %"class.std::__1::__tree_node_base"* %62, i64 0, i32 0, i32 0
  %67 = load %"class.std::__1::__tree_node_base"*, %"class.std::__1::__tree_node_base"** %66, align 8
  %68 = getelementptr inbounds %"class.std::__1::__tree_node_base", %"class.std::__1::__tree_node_base"* %67, i64 0, i32 1
  %69 = load %"class.std::__1::__tree_node_base"*, %"class.std::__1::__tree_node_base"** %68, align 8
  store %"class.std::__1::__tree_node_base"* %69, %"class.std::__1::__tree_node_base"** %66, align 8
  %70 = icmp eq %"class.std::__1::__tree_node_base"* %69, null
  br i1 %70, label %74, label %71

71:                                               ; preds = %61
  %72 = getelementptr inbounds %"class.std::__1::__tree_node_base", %"class.std::__1::__tree_node_base"* %62, i64 0, i32 0
  %73 = getelementptr inbounds %"class.std::__1::__tree_node_base", %"class.std::__1::__tree_node_base"* %69, i64 0, i32 2
  store %"class.std::__1::__tree_end_node"* %72, %"class.std::__1::__tree_end_node"** %73, align 8
  br label %74

74:                                               ; preds = %71, %61
  %75 = getelementptr inbounds %"class.std::__1::__tree_node_base", %"class.std::__1::__tree_node_base"* %62, i64 0, i32 2
  %76 = bitcast %"class.std::__1::__tree_end_node"** %75 to i64*
  %77 = load i64, i64* %76, align 8
  %78 = getelementptr inbounds %"class.std::__1::__tree_node_base", %"class.std::__1::__tree_node_base"* %67, i64 0, i32 2
  %79 = bitcast %"class.std::__1::__tree_end_node"** %78 to i64*
  store i64 %77, i64* %79, align 8
  %80 = load %"class.std::__1::__tree_end_node"*, %"class.std::__1::__tree_end_node"** %75, align 8
  %81 = getelementptr inbounds %"class.std::__1::__tree_end_node", %"class.std::__1::__tree_end_node"* %80, i64 0, i32 0
  %82 = load %"class.std::__1::__tree_node_base"*, %"class.std::__1::__tree_node_base"** %81, align 8
  %83 = icmp eq %"class.std::__1::__tree_node_base"* %82, %62
  %84 = getelementptr inbounds %"class.std::__1::__tree_end_node", %"class.std::__1::__tree_end_node"* %80, i64 1, i32 0
  %85 = select i1 %83, %"class.std::__1::__tree_node_base"** %81, %"class.std::__1::__tree_node_base"** %84
  store %"class.std::__1::__tree_node_base"* %67, %"class.std::__1::__tree_node_base"** %85, align 8
  store %"class.std::__1::__tree_node_base"* %62, %"class.std::__1::__tree_node_base"** %68, align 8
  %86 = getelementptr inbounds %"class.std::__1::__tree_node_base", %"class.std::__1::__tree_node_base"* %67, i64 0, i32 0
  store %"class.std::__1::__tree_end_node"* %86, %"class.std::__1::__tree_end_node"** %75, align 8
  br label %156

87:                                               ; preds = %14
  %88 = icmp eq %"class.std::__1::__tree_node_base"* %18, null
  br i1 %88, label %93, label %89

89:                                               ; preds = %87
  %90 = getelementptr inbounds %"class.std::__1::__tree_node_base", %"class.std::__1::__tree_node_base"* %18, i64 0, i32 3
  %91 = load i8, i8* %90, align 8, !range !70
  %92 = icmp eq i8 %91, 0
  br i1 %92, label %149, label %93

93:                                               ; preds = %89, %87
  %94 = getelementptr inbounds %"class.std::__1::__tree_node_base", %"class.std::__1::__tree_node_base"* %10, i64 0, i32 2
  %95 = bitcast %"class.std::__1::__tree_end_node"* %16 to %"class.std::__1::__tree_node_base"*
  %96 = getelementptr inbounds %"class.std::__1::__tree_node_base", %"class.std::__1::__tree_node_base"* %10, i64 0, i32 0, i32 0
  %97 = load %"class.std::__1::__tree_node_base"*, %"class.std::__1::__tree_node_base"** %96, align 8
  %98 = icmp eq %"class.std::__1::__tree_node_base"* %97, %7
  br i1 %98, label %99, label %123

99:                                               ; preds = %93
  %100 = ptrtoint %"class.std::__1::__tree_end_node"* %16 to i64
  %101 = getelementptr inbounds %"class.std::__1::__tree_node_base", %"class.std::__1::__tree_node_base"* %10, i64 0, i32 0, i32 0
  %102 = getelementptr inbounds %"class.std::__1::__tree_node_base", %"class.std::__1::__tree_node_base"* %7, i64 0, i32 1
  %103 = load %"class.std::__1::__tree_node_base"*, %"class.std::__1::__tree_node_base"** %102, align 8
  store %"class.std::__1::__tree_node_base"* %103, %"class.std::__1::__tree_node_base"** %101, align 8
  %104 = icmp eq %"class.std::__1::__tree_node_base"* %103, null
  br i1 %104, label %110, label %105

105:                                              ; preds = %99
  %106 = getelementptr inbounds %"class.std::__1::__tree_node_base", %"class.std::__1::__tree_node_base"* %10, i64 0, i32 0
  %107 = getelementptr inbounds %"class.std::__1::__tree_node_base", %"class.std::__1::__tree_node_base"* %103, i64 0, i32 2
  store %"class.std::__1::__tree_end_node"* %106, %"class.std::__1::__tree_end_node"** %107, align 8
  %108 = bitcast %"class.std::__1::__tree_end_node"** %94 to i64*
  %109 = load i64, i64* %108, align 8
  br label %110

110:                                              ; preds = %99, %105
  %111 = phi i64 [ %109, %105 ], [ %100, %99 ]
  %112 = bitcast %"class.std::__1::__tree_end_node"** %8 to i64*
  store i64 %111, i64* %112, align 8
  %113 = load %"class.std::__1::__tree_end_node"*, %"class.std::__1::__tree_end_node"** %94, align 8
  %114 = getelementptr inbounds %"class.std::__1::__tree_end_node", %"class.std::__1::__tree_end_node"* %113, i64 0, i32 0
  %115 = load %"class.std::__1::__tree_node_base"*, %"class.std::__1::__tree_node_base"** %114, align 8
  %116 = icmp eq %"class.std::__1::__tree_node_base"* %115, %10
  %117 = getelementptr inbounds %"class.std::__1::__tree_end_node", %"class.std::__1::__tree_end_node"* %113, i64 1, i32 0
  %118 = select i1 %116, %"class.std::__1::__tree_node_base"** %114, %"class.std::__1::__tree_node_base"** %117
  store %"class.std::__1::__tree_node_base"* %7, %"class.std::__1::__tree_node_base"** %118, align 8
  store %"class.std::__1::__tree_node_base"* %10, %"class.std::__1::__tree_node_base"** %102, align 8
  %119 = getelementptr inbounds %"class.std::__1::__tree_node_base", %"class.std::__1::__tree_node_base"* %7, i64 0, i32 0
  store %"class.std::__1::__tree_end_node"* %119, %"class.std::__1::__tree_end_node"** %94, align 8
  %120 = getelementptr inbounds %"class.std::__1::__tree_node_base", %"class.std::__1::__tree_node_base"* %7, i64 0, i32 2
  %121 = bitcast %"class.std::__1::__tree_end_node"** %120 to %"class.std::__1::__tree_node_base"**
  %122 = load %"class.std::__1::__tree_node_base"*, %"class.std::__1::__tree_node_base"** %121, align 8
  br label %123

123:                                              ; preds = %93, %110
  %124 = phi %"class.std::__1::__tree_node_base"* [ %122, %110 ], [ %95, %93 ]
  %125 = phi %"class.std::__1::__tree_node_base"* [ %7, %110 ], [ %10, %93 ]
  %126 = getelementptr inbounds %"class.std::__1::__tree_node_base", %"class.std::__1::__tree_node_base"* %125, i64 0, i32 3
  store i8 1, i8* %126, align 8
  %127 = getelementptr inbounds %"class.std::__1::__tree_node_base", %"class.std::__1::__tree_node_base"* %124, i64 0, i32 3
  store i8 0, i8* %127, align 8
  %128 = getelementptr inbounds %"class.std::__1::__tree_node_base", %"class.std::__1::__tree_node_base"* %124, i64 0, i32 1
  %129 = load %"class.std::__1::__tree_node_base"*, %"class.std::__1::__tree_node_base"** %128, align 8
  %130 = getelementptr inbounds %"class.std::__1::__tree_node_base", %"class.std::__1::__tree_node_base"* %129, i64 0, i32 0, i32 0
  %131 = load %"class.std::__1::__tree_node_base"*, %"class.std::__1::__tree_node_base"** %130, align 8
  store %"class.std::__1::__tree_node_base"* %131, %"class.std::__1::__tree_node_base"** %128, align 8
  %132 = icmp eq %"class.std::__1::__tree_node_base"* %131, null
  br i1 %132, label %136, label %133

133:                                              ; preds = %123
  %134 = getelementptr inbounds %"class.std::__1::__tree_node_base", %"class.std::__1::__tree_node_base"* %124, i64 0, i32 0
  %135 = getelementptr inbounds %"class.std::__1::__tree_node_base", %"class.std::__1::__tree_node_base"* %131, i64 0, i32 2
  store %"class.std::__1::__tree_end_node"* %134, %"class.std::__1::__tree_end_node"** %135, align 8
  br label %136

136:                                              ; preds = %133, %123
  %137 = getelementptr inbounds %"class.std::__1::__tree_node_base", %"class.std::__1::__tree_node_base"* %124, i64 0, i32 2
  %138 = bitcast %"class.std::__1::__tree_end_node"** %137 to i64*
  %139 = load i64, i64* %138, align 8
  %140 = getelementptr inbounds %"class.std::__1::__tree_node_base", %"class.std::__1::__tree_node_base"* %129, i64 0, i32 2
  %141 = bitcast %"class.std::__1::__tree_end_node"** %140 to i64*
  store i64 %139, i64* %141, align 8
  %142 = load %"class.std::__1::__tree_end_node"*, %"class.std::__1::__tree_end_node"** %137, align 8
  %143 = getelementptr inbounds %"class.std::__1::__tree_end_node", %"class.std::__1::__tree_end_node"* %142, i64 0, i32 0
  %144 = load %"class.std::__1::__tree_node_base"*, %"class.std::__1::__tree_node_base"** %143, align 8
  %145 = icmp eq %"class.std::__1::__tree_node_base"* %144, %124
  %146 = getelementptr inbounds %"class.std::__1::__tree_end_node", %"class.std::__1::__tree_end_node"* %142, i64 1, i32 0
  %147 = select i1 %145, %"class.std::__1::__tree_node_base"** %143, %"class.std::__1::__tree_node_base"** %146
  store %"class.std::__1::__tree_node_base"* %129, %"class.std::__1::__tree_node_base"** %147, align 8
  store %"class.std::__1::__tree_node_base"* %124, %"class.std::__1::__tree_node_base"** %130, align 8
  %148 = getelementptr inbounds %"class.std::__1::__tree_node_base", %"class.std::__1::__tree_node_base"* %129, i64 0, i32 0
  store %"class.std::__1::__tree_end_node"* %148, %"class.std::__1::__tree_end_node"** %137, align 8
  br label %156

149:                                              ; preds = %89, %25
  %150 = phi i8* [ %26, %25 ], [ %90, %89 ]
  store i8 1, i8* %11, align 8
  %151 = icmp eq %"class.std::__1::__tree_node_base"* %20, %0
  %152 = getelementptr inbounds %"class.std::__1::__tree_end_node", %"class.std::__1::__tree_end_node"* %16, i64 3
  %153 = bitcast %"class.std::__1::__tree_end_node"* %152 to i8*
  %154 = zext i1 %151 to i8
  store i8 %154, i8* %153, align 8
  store i8 1, i8* %150, align 8
  %155 = icmp eq %"class.std::__1::__tree_node_base"* %20, %0
  br i1 %155, label %156, label %6

156:                                              ; preds = %6, %149, %2, %136, %74
  ret void
}

declare void @_ZN7content19WebContentsObserverC2EPNS_11WebContentsE(%"class.content::WebContentsObserver"*, %"class.content::WebContents"*) unnamed_addr #1

declare zeroext i1 @_ZN7content19WebContentsObserver17OnMessageReceivedERKN3IPC7MessageE(%"class.content::WebContentsObserver"*, %"class.IPC::Message"* dereferenceable(56)) unnamed_addr #1

; Function Attrs: nounwind ssp uwtable
define linkonce_odr hidden void @_ZN3IPC8Listener18OnChannelConnectedEi(%"class.IPC::Listener"*, i32) unnamed_addr #0 comdat align 2 {
  ret void
}

; Function Attrs: nounwind ssp uwtable
define linkonce_odr hidden void @_ZN3IPC8Listener14OnChannelErrorEv(%"class.IPC::Listener"*) unnamed_addr #0 comdat align 2 {
  ret void
}

; Function Attrs: nounwind ssp uwtable
define linkonce_odr hidden void @_ZN3IPC8Listener20OnBadMessageReceivedERKNS_7MessageE(%"class.IPC::Listener"*, %"class.IPC::Message"* dereferenceable(56)) unnamed_addr #0 comdat align 2 {
  ret void
}

; Function Attrs: nounwind ssp uwtable
define linkonce_odr hidden void @_ZN3IPC8Listener28OnAssociatedInterfaceRequestERKNSt3__112basic_stringIcNS1_11char_traitsIcEENS1_9allocatorIcEEEEN4mojo29ScopedInterfaceEndpointHandleE(%"class.IPC::Listener"*, %"class.std::__1::basic_string.1"* dereferenceable(24), %"class.mojo::ScopedInterfaceEndpointHandle"*) unnamed_addr #0 comdat align 2 {
  ret void
}

; Function Attrs: nounwind ssp uwtable
define linkonce_odr hidden void @_ZN3IPC8Listener15OnChannelDeniedEv(%"class.IPC::Listener"*) unnamed_addr #0 comdat align 2 {
  ret void
}

; Function Attrs: nounwind ssp uwtable
define linkonce_odr hidden void @_ZN3IPC8Listener20OnChannelListenErrorEv(%"class.IPC::Listener"*) unnamed_addr #0 comdat align 2 {
  ret void
}

; Function Attrs: nounwind
declare void @_ZN7content19WebContentsObserverD2Ev(%"class.content::WebContentsObserver"*) unnamed_addr #3

; Function Attrs: inlinehint nounwind ssp uwtable
define internal void @_ZN12_GLOBAL__N_119RPHReferenceManager22RPHWebContentsObserverD0Ev(%"class.(anonymous namespace)::RPHReferenceManager::RPHWebContentsObserver"*) unnamed_addr #7 align 2 {
  %2 = getelementptr inbounds %"class.(anonymous namespace)::RPHReferenceManager::RPHWebContentsObserver", %"class.(anonymous namespace)::RPHReferenceManager::RPHWebContentsObserver"* %0, i64 0, i32 0
  tail call void @_ZN7content19WebContentsObserverD2Ev(%"class.content::WebContentsObserver"* %2) #10
  %3 = bitcast %"class.(anonymous namespace)::RPHReferenceManager::RPHWebContentsObserver"* %0 to i8*
  tail call void @_ZdlPv(i8* %3) #12
  ret void
}

; Function Attrs: nounwind ssp uwtable
define linkonce_odr hidden void @_ZN7content19WebContentsObserver18RenderFrameCreatedEPNS_15RenderFrameHostE(%"class.content::WebContentsObserver"*, %"class.content::RenderFrameHost"*) unnamed_addr #0 comdat align 2 {
  ret void
}

; Function Attrs: nounwind ssp uwtable
define linkonce_odr hidden void @_ZN7content19WebContentsObserver18RenderFrameDeletedEPNS_15RenderFrameHostE(%"class.content::WebContentsObserver"*, %"class.content::RenderFrameHost"*) unnamed_addr #0 comdat align 2 {
  ret void
}

; Function Attrs: nounwind ssp uwtable
define linkonce_odr hidden void @_ZN7content19WebContentsObserver22RenderFrameHostChangedEPNS_15RenderFrameHostES2_(%"class.content::WebContentsObserver"*, %"class.content::RenderFrameHost"*, %"class.content::RenderFrameHost"*) unnamed_addr #0 comdat align 2 {
  ret void
}

; Function Attrs: nounwind ssp uwtable
define linkonce_odr hidden void @_ZN7content19WebContentsObserver12FrameDeletedEi(%"class.content::WebContentsObserver"*, i32) unnamed_addr #0 comdat align 2 {
  ret void
}

; Function Attrs: nounwind ssp uwtable
define linkonce_odr hidden void @_ZN7content19WebContentsObserver27RenderFrameHostStateChangedEPNS_15RenderFrameHostENS1_14LifecycleStateES3_(%"class.content::WebContentsObserver"*, %"class.content::RenderFrameHost"*, i32, i32) unnamed_addr #0 comdat align 2 {
  ret void
}

; Function Attrs: nounwind ssp uwtable
define linkonce_odr hidden void @_ZN7content19WebContentsObserver20CaptureTargetChangedEv(%"class.content::WebContentsObserver"*) unnamed_addr #0 comdat align 2 {
  ret void
}

; Function Attrs: nounwind ssp uwtable
define linkonce_odr hidden void @_ZN7content19WebContentsObserver27OnCaptureHandleConfigUpdateERKN5blink5mojom19CaptureHandleConfigE(%"class.content::WebContentsObserver"*, %"class.blink::mojom::CaptureHandleConfig"*) unnamed_addr #0 comdat align 2 {
  ret void
}

; Function Attrs: nounwind ssp uwtable
define linkonce_odr hidden void @_ZN7content19WebContentsObserver15RenderViewReadyEv(%"class.content::WebContentsObserver"*) unnamed_addr #0 comdat align 2 {
  ret void
}

; Function Attrs: nounwind ssp uwtable
define linkonce_odr hidden void @_ZN7content19WebContentsObserver17RenderViewDeletedEPNS_14RenderViewHostE(%"class.content::WebContentsObserver"*, %"class.content::RenderViewHost"*) unnamed_addr #0 comdat align 2 {
  ret void
}

; Function Attrs: nounwind ssp uwtable
define linkonce_odr hidden void @_ZN7content19WebContentsObserver17RenderProcessGoneEN4base17TerminationStatusE(%"class.content::WebContentsObserver"*, i32) unnamed_addr #0 comdat align 2 {
  ret void
}

; Function Attrs: nounwind ssp uwtable
define linkonce_odr hidden void @_ZN7content19WebContentsObserver21RenderViewHostChangedEPNS_14RenderViewHostES2_(%"class.content::WebContentsObserver"*, %"class.content::RenderViewHost"*, %"class.content::RenderViewHost"*) unnamed_addr #0 comdat align 2 {
  ret void
}

; Function Attrs: nounwind ssp uwtable
define linkonce_odr hidden void @_ZN7content19WebContentsObserver22OnRendererUnresponsiveEPNS_17RenderProcessHostE(%"class.content::WebContentsObserver"*, %"class.content::RenderProcessHost"*) unnamed_addr #0 comdat align 2 {
  ret void
}

; Function Attrs: nounwind ssp uwtable
define linkonce_odr hidden void @_ZN7content19WebContentsObserver20OnRendererResponsiveEPNS_17RenderProcessHostE(%"class.content::WebContentsObserver"*, %"class.content::RenderProcessHost"*) unnamed_addr #0 comdat align 2 {
  ret void
}

; Function Attrs: nounwind ssp uwtable
define linkonce_odr hidden void @_ZN7content19WebContentsObserver18DidStartNavigationEPNS_16NavigationHandleE(%"class.content::WebContentsObserver"*, %"class.content::NavigationHandle"*) unnamed_addr #0 comdat align 2 {
  ret void
}

; Function Attrs: nounwind ssp uwtable
define linkonce_odr hidden void @_ZN7content19WebContentsObserver21DidRedirectNavigationEPNS_16NavigationHandleE(%"class.content::WebContentsObserver"*, %"class.content::NavigationHandle"*) unnamed_addr #0 comdat align 2 {
  ret void
}

; Function Attrs: nounwind ssp uwtable
define linkonce_odr hidden void @_ZN7content19WebContentsObserver23ReadyToCommitNavigationEPNS_16NavigationHandleE(%"class.content::WebContentsObserver"*, %"class.content::NavigationHandle"*) unnamed_addr #0 comdat align 2 {
  ret void
}

; Function Attrs: nounwind ssp uwtable
define linkonce_odr hidden void @_ZN7content19WebContentsObserver19DidFinishNavigationEPNS_16NavigationHandleE(%"class.content::WebContentsObserver"*, %"class.content::NavigationHandle"*) unnamed_addr #0 comdat align 2 {
  ret void
}

; Function Attrs: nounwind ssp uwtable
define linkonce_odr hidden void @_ZN7content19WebContentsObserver17DidActivatePortalEPNS_11WebContentsEN4base9TimeTicksE(%"class.content::WebContentsObserver"*, %"class.content::WebContents"*, i64) unnamed_addr #0 comdat align 2 {
  ret void
}

; Function Attrs: nounwind ssp uwtable
define linkonce_odr hidden void @_ZN7content19WebContentsObserver15DidStartLoadingEv(%"class.content::WebContentsObserver"*) unnamed_addr #0 comdat align 2 {
  ret void
}

; Function Attrs: nounwind ssp uwtable
define linkonce_odr hidden void @_ZN7content19WebContentsObserver18DidReceiveResponseEv(%"class.content::WebContentsObserver"*) unnamed_addr #0 comdat align 2 {
  ret void
}

; Function Attrs: nounwind ssp uwtable
define linkonce_odr hidden void @_ZN7content19WebContentsObserver14DidStopLoadingEv(%"class.content::WebContentsObserver"*) unnamed_addr #0 comdat align 2 {
  ret void
}

; Function Attrs: nounwind ssp uwtable
define linkonce_odr hidden void @_ZN7content19WebContentsObserver19LoadProgressChangedEd(%"class.content::WebContentsObserver"*, double) unnamed_addr #0 comdat align 2 {
  ret void
}

; Function Attrs: nounwind ssp uwtable
define linkonce_odr hidden void @_ZN7content19WebContentsObserver28DocumentAvailableInMainFrameEPNS_15RenderFrameHostE(%"class.content::WebContentsObserver"*, %"class.content::RenderFrameHost"*) unnamed_addr #0 comdat align 2 {
  ret void
}

; Function Attrs: nounwind ssp uwtable
define linkonce_odr hidden void @_ZN7content19WebContentsObserver34DocumentOnLoadCompletedInMainFrameEPNS_15RenderFrameHostE(%"class.content::WebContentsObserver"*, %"class.content::RenderFrameHost"*) unnamed_addr #0 comdat align 2 {
  ret void
}

; Function Attrs: nounwind ssp uwtable
define linkonce_odr hidden void @_ZN7content19WebContentsObserver16DOMContentLoadedEPNS_15RenderFrameHostE(%"class.content::WebContentsObserver"*, %"class.content::RenderFrameHost"*) unnamed_addr #0 comdat align 2 {
  ret void
}

; Function Attrs: nounwind ssp uwtable
define linkonce_odr hidden void @_ZN7content19WebContentsObserver13DidFinishLoadEPNS_15RenderFrameHostERK4GURL(%"class.content::WebContentsObserver"*, %"class.content::RenderFrameHost"*, %class.GURL* dereferenceable(120)) unnamed_addr #0 comdat align 2 {
  ret void
}

; Function Attrs: nounwind ssp uwtable
define linkonce_odr hidden void @_ZN7content19WebContentsObserver11DidFailLoadEPNS_15RenderFrameHostERK4GURLi(%"class.content::WebContentsObserver"*, %"class.content::RenderFrameHost"*, %class.GURL* dereferenceable(120), i32) unnamed_addr #0 comdat align 2 {
  ret void
}

; Function Attrs: nounwind ssp uwtable
define linkonce_odr hidden void @_ZN7content19WebContentsObserver29DidChangeVisibleSecurityStateEv(%"class.content::WebContentsObserver"*) unnamed_addr #0 comdat align 2 {
  ret void
}

; Function Attrs: nounwind ssp uwtable
define linkonce_odr hidden void @_ZN7content19WebContentsObserver30DidLoadResourceFromMemoryCacheEPNS_15RenderFrameHostERK4GURLRKNSt3__112basic_stringIcNS6_11char_traitsIcEENS6_9allocatorIcEEEEN7network5mojom18RequestDestinationE(%"class.content::WebContentsObserver"*, %"class.content::RenderFrameHost"*, %class.GURL* dereferenceable(120), %"class.std::__1::basic_string.1"* dereferenceable(24), i32) unnamed_addr #0 comdat align 2 {
  ret void
}

; Function Attrs: nounwind ssp uwtable
