; ModuleID = 'gen/services/resource_coordinator/public/mojom/memory_instrumentation/memory_instrumentation.mojom.cc'
source_filename = "gen/services/resource_coordinator/public/mojom/memory_instrumentation/memory_instrumentation.mojom.cc"
target datalayout = "e-m:e-i64:64-f80:128-n8:16:32:64-S128"
target triple = "x86_64-unknown-linux-gnu"

module asm ".symver exp, exp@GLIBC_2.2.5"
module asm ".symver exp2, exp2@GLIBC_2.2.5"
module asm ".symver exp2f, exp2f@GLIBC_2.2.5"
module asm ".symver expf, expf@GLIBC_2.2.5"
module asm ".symver lgamma, lgamma@GLIBC_2.2.5"
module asm ".symver lgammaf, lgammaf@GLIBC_2.2.5"
module asm ".symver lgammal, lgammal@GLIBC_2.2.5"
module asm ".symver log, log@GLIBC_2.2.5"
module asm ".symver log2, log2@GLIBC_2.2.5"
module asm ".symver log2f, log2f@GLIBC_2.2.5"
module asm ".symver logf, logf@GLIBC_2.2.5"
module asm ".symver pow, pow@GLIBC_2.2.5"
module asm ".symver powf, powf@GLIBC_2.2.5"

%"struct.std::__1::pair.212" = type { i32, %"struct.mojo::internal::GenericValidationInfo" }
%"struct.mojo::internal::GenericValidationInfo" = type { i1 (i8*, %"class.mojo::internal::ValidationContext"*)*, i1 (i8*, %"class.mojo::internal::ValidationContext"*)* }
%"class.mojo::internal::ValidationContext" = type <{ %"class.mojo::Message"*, i8*, i32, [4 x i8], i64, i64, i32, i32, i32, i32, i32, [4 x i8] }>
%"class.mojo::Message" = type { %"class.mojo::ScopedHandleBase", %"class.mojo::internal::Buffer", %"class.std::__1::vector", %"class.std::__1::vector.12", %"class.mojo::ConnectionGroup::Ref"*, i8, i8, i8* }
%"class.mojo::ScopedHandleBase" = type { %"class.mojo::MessageHandle" }
%"class.mojo::MessageHandle" = type { i64 }
%"class.mojo::internal::Buffer" = type { %"class.mojo::MessageHandle", i64, i8*, i64, i64 }
%"class.std::__1::vector" = type { %"class.std::__1::__vector_base" }
%"class.std::__1::__vector_base" = type { %"class.mojo::ScopedHandleBase.6"*, %"class.mojo::ScopedHandleBase.6"*, %"class.std::__1::__compressed_pair.7" }
%"class.mojo::ScopedHandleBase.6" = type { %"class.mojo::Handle" }
%"class.mojo::Handle" = type { i32 }
%"class.std::__1::__compressed_pair.7" = type { %"struct.std::__1::__compressed_pair_elem.8" }
%"struct.std::__1::__compressed_pair_elem.8" = type { %"class.mojo::ScopedHandleBase.6"* }
%"class.std::__1::vector.12" = type { %"class.std::__1::__vector_base.13" }
%"class.std::__1::__vector_base.13" = type { %"class.mojo::ScopedInterfaceEndpointHandle"*, %"class.mojo::ScopedInterfaceEndpointHandle"*, %"class.std::__1::__compressed_pair.14" }
%"class.mojo::ScopedInterfaceEndpointHandle" = type { %class.scoped_refptr }
%class.scoped_refptr = type { %"class.mojo::ScopedInterfaceEndpointHandle::State"* }
%"class.mojo::ScopedInterfaceEndpointHandle::State" = type opaque
%"class.std::__1::__compressed_pair.14" = type { %"struct.std::__1::__compressed_pair_elem.15" }
%"struct.std::__1::__compressed_pair_elem.15" = type { %"class.mojo::ScopedInterfaceEndpointHandle"* }
%"class.mojo::ConnectionGroup::Ref" = type { i32, %class.scoped_refptr.19 }
%class.scoped_refptr.19 = type { %"class.mojo::ConnectionGroup"* }
%"class.mojo::ConnectionGroup" = type <{ i32 (...)**, %"class.base::RefCountedThreadSafe", [4 x i8], %"class.base::RepeatingCallback", %class.scoped_refptr.23, %"class.mojo::ConnectionGroup::Ref", %"struct.std::__1::atomic.25", [4 x i8] }>
%"class.base::RefCountedThreadSafe" = type { %"class.base::subtle::RefCountedThreadSafeBase" }
%"class.base::subtle::RefCountedThreadSafeBase" = type { %"class.base::AtomicRefCount" }
%"class.base::AtomicRefCount" = type { %"struct.std::__1::atomic" }
%"struct.std::__1::atomic" = type { %"struct.std::__1::__atomic_base" }
%"struct.std::__1::__atomic_base" = type { %"struct.std::__1::__atomic_base.20" }
%"struct.std::__1::__atomic_base.20" = type { %"struct.std::__1::__cxx_atomic_impl" }
%"struct.std::__1::__cxx_atomic_impl" = type { %"struct.std::__1::__cxx_atomic_base_impl" }
%"struct.std::__1::__cxx_atomic_base_impl" = type { i32 }
%"class.base::RepeatingCallback" = type { %"class.base::internal::CallbackBaseCopyable" }
%"class.base::internal::CallbackBaseCopyable" = type { %"class.base::internal::CallbackBase" }
%"class.base::internal::CallbackBase" = type { %class.scoped_refptr.21 }
%class.scoped_refptr.21 = type { %"class.base::internal::BindStateBase"* }
%"class.base::internal::BindStateBase" = type { %"class.base::RefCountedThreadSafe.22", void ()*, void (%"class.base::internal::BindStateBase"*)*, i1 (%"class.base::internal::BindStateBase"*, i32)* }
%"class.base::RefCountedThreadSafe.22" = type { %"class.base::subtle::RefCountedThreadSafeBase" }
%class.scoped_refptr.23 = type { %"class.base::SequencedTaskRunner"* }
%"class.base::SequencedTaskRunner" = type { %"class.base::TaskRunner.base", [4 x i8] }
%"class.base::TaskRunner.base" = type <{ i32 (...)**, %"class.base::RefCountedThreadSafe.24" }>
%"class.base::RefCountedThreadSafe.24" = type { %"class.base::subtle::RefCountedThreadSafeBase" }
%"struct.std::__1::atomic.25" = type { %"struct.std::__1::__atomic_base.26" }
%"struct.std::__1::__atomic_base.26" = type { %"struct.std::__1::__atomic_base.27" }
%"struct.std::__1::__atomic_base.27" = type { %"struct.std::__1::__cxx_atomic_impl.28" }
%"struct.std::__1::__cxx_atomic_impl.28" = type { %"struct.std::__1::__cxx_atomic_base_impl.29" }
%"struct.std::__1::__cxx_atomic_base_impl.29" = type { i32 }
%"class.memory_instrumentation::mojom::RequestArgs" = type <{ i64, i32, i32, i32, [4 x i8] }>
%"class.memory_instrumentation::mojom::RawAllocatorDumpEdge" = type <{ i64, i64, i32, i8, [3 x i8] }>
%"class.memory_instrumentation::mojom::RawAllocatorDumpEntry" = type { %"class.std::__1::basic_string", %"class.std::__1::basic_string", %"class.mojo::StructPtr" }
%"class.std::__1::basic_string" = type { %"class.std::__1::__compressed_pair.1" }
%"class.std::__1::__compressed_pair.1" = type { %"struct.std::__1::__compressed_pair_elem.2" }
%"struct.std::__1::__compressed_pair_elem.2" = type { %"struct.std::__1::basic_string<char, std::__1::char_traits<char>, std::__1::allocator<char> >::__rep" }
%"struct.std::__1::basic_string<char, std::__1::char_traits<char>, std::__1::allocator<char> >::__rep" = type { %union.anon }
%union.anon = type { %"struct.std::__1::basic_string<char, std::__1::char_traits<char>, std::__1::allocator<char> >::__long" }
%"struct.std::__1::basic_string<char, std::__1::char_traits<char>, std::__1::allocator<char> >::__long" = type { i8*, i64, i64 }
%"class.mojo::StructPtr" = type { %"class.std::__1::unique_ptr" }
%"class.std::__1::unique_ptr" = type { %"class.std::__1::__compressed_pair.30" }
%"class.std::__1::__compressed_pair.30" = type { %"struct.std::__1::__compressed_pair_elem.31" }
%"struct.std::__1::__compressed_pair_elem.31" = type { %"class.memory_instrumentation::mojom::RawAllocatorDumpEntryValue"* }
%"class.memory_instrumentation::mojom::RawAllocatorDumpEntryValue" = type { i32, %"union.memory_instrumentation::mojom::RawAllocatorDumpEntryValue::Union_" }
%"union.memory_instrumentation::mojom::RawAllocatorDumpEntryValue::Union_" = type { i64 }
%"class.memory_instrumentation::mojom::RawAllocatorDump" = type { i64, %"class.std::__1::basic_string", i8, i32, %"class.std::__1::vector.33" }
%"class.std::__1::vector.33" = type { %"class.std::__1::__vector_base.34" }
%"class.std::__1::__vector_base.34" = type { %"struct.base::trace_event::MemoryAllocatorDump::Entry"*, %"struct.base::trace_event::MemoryAllocatorDump::Entry"*, %"class.std::__1::__compressed_pair.35" }
%"struct.base::trace_event::MemoryAllocatorDump::Entry" = type { %"class.std::__1::basic_string", %"class.std::__1::basic_string", i32, i64, %"class.std::__1::basic_string" }
%"class.std::__1::__compressed_pair.35" = type { %"struct.std::__1::__compressed_pair_elem.36" }
%"struct.std::__1::__compressed_pair_elem.36" = type { %"struct.base::trace_event::MemoryAllocatorDump::Entry"* }
%"class.memory_instrumentation::mojom::RawProcessMemoryDump" = type { i32, %"class.std::__1::vector.40", %"class.std::__1::vector.47" }
%"class.std::__1::vector.40" = type { %"class.std::__1::__vector_base.41" }
%"class.std::__1::__vector_base.41" = type { %"struct.base::trace_event::ProcessMemoryDump::MemoryAllocatorDumpEdge"*, %"struct.base::trace_event::ProcessMemoryDump::MemoryAllocatorDumpEdge"*, %"class.std::__1::__compressed_pair.42" }
%"struct.base::trace_event::ProcessMemoryDump::MemoryAllocatorDumpEdge" = type <{ %"class.base::trace_event::MemoryAllocatorDumpGuid", %"class.base::trace_event::MemoryAllocatorDumpGuid", i32, i8, [3 x i8] }>
%"class.base::trace_event::MemoryAllocatorDumpGuid" = type { i64 }
%"class.std::__1::__compressed_pair.42" = type { %"struct.std::__1::__compressed_pair_elem.43" }
%"struct.std::__1::__compressed_pair_elem.43" = type { %"struct.base::trace_event::ProcessMemoryDump::MemoryAllocatorDumpEdge"* }
%"class.std::__1::vector.47" = type { %"class.std::__1::__vector_base.48" }
%"class.std::__1::__vector_base.48" = type { %"class.std::__1::unique_ptr.49"*, %"class.std::__1::unique_ptr.49"*, %"class.std::__1::__compressed_pair.56" }
%"class.std::__1::unique_ptr.49" = type { %"class.std::__1::__compressed_pair.50" }
%"class.std::__1::__compressed_pair.50" = type { %"struct.std::__1::__compressed_pair_elem.51" }
%"struct.std::__1::__compressed_pair_elem.51" = type { %"class.base::trace_event::MemoryAllocatorDump"* }
%"class.base::trace_event::MemoryAllocatorDump" = type { %"class.std::__1::basic_string", %"class.base::trace_event::MemoryAllocatorDumpGuid", i32, i32, %"class.absl::optional", %"class.std::__1::vector.33" }
%"class.absl::optional" = type { %"class.absl::optional_internal::optional_data" }
%"class.absl::optional_internal::optional_data" = type { %"class.absl::optional_internal::optional_data_base" }
%"class.absl::optional_internal::optional_data_base" = type { %"class.absl::optional_internal::optional_data_dtor_base" }
%"class.absl::optional_internal::optional_data_dtor_base" = type { i8, %union.anon.52 }
%union.anon.52 = type { i64 }
%"class.std::__1::__compressed_pair.56" = type { %"struct.std::__1::__compressed_pair_elem.57" }
%"struct.std::__1::__compressed_pair_elem.57" = type { %"class.std::__1::unique_ptr.49"* }
%"class.memory_instrumentation::mojom::VmRegion" = type { i64, i64, i64, %"class.std::__1::basic_string", %"class.std::__1::basic_string", i32, %"class.std::__1::basic_string", i64, i64, i64, i64, i64, i64, i64 }
%"class.memory_instrumentation::mojom::PlatformPrivateFootprint" = type { i64, i64, i64, i64, i64, i64 }
%"class.memory_instrumentation::mojom::RawOSMemDump" = type { i32, i32, i8, %"class.mojo::StructPtr.61", %"class.std::__1::vector.68", %"class.std::__1::vector.82" }
%"class.mojo::StructPtr.61" = type { %"class.std::__1::unique_ptr.62" }
%"class.std::__1::unique_ptr.62" = type { %"class.std::__1::__compressed_pair.63" }
%"class.std::__1::__compressed_pair.63" = type { %"struct.std::__1::__compressed_pair_elem.64" }
%"struct.std::__1::__compressed_pair_elem.64" = type { %"class.memory_instrumentation::mojom::PlatformPrivateFootprint"* }
%"class.std::__1::vector.68" = type { %"class.std::__1::__vector_base.69" }
%"class.std::__1::__vector_base.69" = type { %"class.mojo::StructPtr.70"*, %"class.mojo::StructPtr.70"*, %"class.std::__1::__compressed_pair.77" }
%"class.mojo::StructPtr.70" = type { %"class.std::__1::unique_ptr.71" }
%"class.std::__1::unique_ptr.71" = type { %"class.std::__1::__compressed_pair.72" }
%"class.std::__1::__compressed_pair.72" = type { %"struct.std::__1::__compressed_pair_elem.73" }
%"struct.std::__1::__compressed_pair_elem.73" = type { %"class.memory_instrumentation::mojom::VmRegion"* }
%"class.std::__1::__compressed_pair.77" = type { %"struct.std::__1::__compressed_pair_elem.78" }
%"struct.std::__1::__compressed_pair_elem.78" = type { %"class.mojo::StructPtr.70"* }
%"class.std::__1::vector.82" = type { %"class.std::__1::__vector_base.83" }
%"class.std::__1::__vector_base.83" = type { i8*, i8*, %"class.std::__1::__compressed_pair.84" }
%"class.std::__1::__compressed_pair.84" = type { %"struct.std::__1::__compressed_pair_elem.85" }
%"struct.std::__1::__compressed_pair_elem.85" = type { i8* }
%"class.memory_instrumentation::mojom::OSMemDump" = type { i32, i32, i8, i32, i32, i32 }
%"class.memory_instrumentation::mojom::AllocatorMemDump" = type { %"class.base::flat_map" }
%"class.base::flat_map" = type { %"class.base::internal::flat_tree" }
%"class.base::internal::flat_tree" = type { %"class.std::__1::vector.89" }
%"class.std::__1::vector.89" = type { %"class.std::__1::__vector_base.90" }
%"class.std::__1::__vector_base.90" = type { %"struct.std::__1::pair"*, %"struct.std::__1::pair"*, %"class.std::__1::__compressed_pair.91" }
%"struct.std::__1::pair" = type { %"class.std::__1::basic_string", i64 }
%"class.std::__1::__compressed_pair.91" = type { %"struct.std::__1::__compressed_pair_elem.92" }
%"struct.std::__1::__compressed_pair_elem.92" = type { %"struct.std::__1::pair"* }
%"class.memory_instrumentation::mojom::ProcessMemoryDump" = type { i32, %"class.mojo::StructPtr.96", %"class.base::flat_map.103", i32, %"class.absl::optional.120" }
%"class.mojo::StructPtr.96" = type { %"class.std::__1::unique_ptr.97" }
%"class.std::__1::unique_ptr.97" = type { %"class.std::__1::__compressed_pair.98" }
%"class.std::__1::__compressed_pair.98" = type { %"struct.std::__1::__compressed_pair_elem.99" }
%"struct.std::__1::__compressed_pair_elem.99" = type { %"class.memory_instrumentation::mojom::OSMemDump"* }
%"class.base::flat_map.103" = type { %"class.base::internal::flat_tree.104" }
%"class.base::internal::flat_tree.104" = type { %"class.std::__1::vector.105" }
%"class.std::__1::vector.105" = type { %"class.std::__1::__vector_base.106" }
%"class.std::__1::__vector_base.106" = type { %"struct.std::__1::pair.107"*, %"struct.std::__1::pair.107"*, %"class.std::__1::__compressed_pair.115" }
%"struct.std::__1::pair.107" = type { %"class.std::__1::basic_string", %"class.mojo::StructPtr.108" }
%"class.mojo::StructPtr.108" = type { %"class.std::__1::unique_ptr.109" }
%"class.std::__1::unique_ptr.109" = type { %"class.std::__1::__compressed_pair.110" }
%"class.std::__1::__compressed_pair.110" = type { %"struct.std::__1::__compressed_pair_elem.111" }
%"struct.std::__1::__compressed_pair_elem.111" = type { %"class.memory_instrumentation::mojom::AllocatorMemDump"* }
%"class.std::__1::__compressed_pair.115" = type { %"struct.std::__1::__compressed_pair_elem.116" }
%"struct.std::__1::__compressed_pair_elem.116" = type { %"struct.std::__1::pair.107"* }
%"class.absl::optional.120" = type { %"class.absl::optional_internal::optional_data.121" }
%"class.absl::optional_internal::optional_data.121" = type { %"class.absl::optional_internal::optional_data_base.122" }
%"class.absl::optional_internal::optional_data_base.122" = type { %"class.absl::optional_internal::optional_data_dtor_base.123" }
%"class.absl::optional_internal::optional_data_dtor_base.123" = type { i8, %union.anon.124 }
%union.anon.124 = type { %"class.std::__1::basic_string" }
%"class.memory_instrumentation::mojom::AggregatedMetrics" = type { i32, i32, i32 }
%"class.memory_instrumentation::mojom::GlobalMemoryDump" = type { %"class.base::TimeTicks", %"class.std::__1::vector.125", %"class.mojo::InlinedStructPtr" }
%"class.base::TimeTicks" = type { %"class.base::time_internal::TimeBase" }
%"class.base::time_internal::TimeBase" = type { i64 }
%"class.std::__1::vector.125" = type { %"class.std::__1::__vector_base.126" }
%"class.std::__1::__vector_base.126" = type { %"class.mojo::StructPtr.127"*, %"class.mojo::StructPtr.127"*, %"class.std::__1::__compressed_pair.134" }
%"class.mojo::StructPtr.127" = type { %"class.std::__1::unique_ptr.128" }
%"class.std::__1::unique_ptr.128" = type { %"class.std::__1::__compressed_pair.129" }
%"class.std::__1::__compressed_pair.129" = type { %"struct.std::__1::__compressed_pair_elem.130" }
%"struct.std::__1::__compressed_pair_elem.130" = type { %"class.memory_instrumentation::mojom::ProcessMemoryDump"* }
%"class.std::__1::__compressed_pair.134" = type { %"struct.std::__1::__compressed_pair_elem.135" }
%"struct.std::__1::__compressed_pair_elem.135" = type { %"class.mojo::StructPtr.127"* }
%"class.mojo::InlinedStructPtr" = type { %"class.memory_instrumentation::mojom::AggregatedMetrics", i32 }
%"class.memory_instrumentation::mojom::HeapProfileResult" = type { i32, %"class.std::__1::basic_string" }
%"class.memory_instrumentation::mojom::ClientProcessProxy" = type { %"class.memory_instrumentation::mojom::ClientProcess", %"class.mojo::MessageReceiverWithResponder"* }
%"class.memory_instrumentation::mojom::ClientProcess" = type { i32 (...)** }
%"class.mojo::MessageReceiverWithResponder" = type { %"class.mojo::MessageReceiver" }
%"class.mojo::MessageReceiver" = type { i32 (...)** }
%"class.memory_instrumentation::mojom::HeapProfilerProxy" = type { %"class.memory_instrumentation::mojom::HeapProfiler", %"class.mojo::MessageReceiverWithResponder"* }
%"class.memory_instrumentation::mojom::HeapProfiler" = type { i32 (...)** }
%"class.memory_instrumentation::mojom::HeapProfilerHelperProxy" = type { %"class.memory_instrumentation::mojom::HeapProfilerHelper", %"class.mojo::MessageReceiverWithResponder"* }
%"class.memory_instrumentation::mojom::HeapProfilerHelper" = type { i32 (...)** }
%"class.memory_instrumentation::mojom::CoordinatorProxy" = type { %"class.memory_instrumentation::mojom::Coordinator", %"class.mojo::MessageReceiverWithResponder"* }
%"class.memory_instrumentation::mojom::Coordinator" = type { i32 (...)** }
%"class.memory_instrumentation::mojom::CoordinatorConnectorProxy" = type { %"class.memory_instrumentation::mojom::CoordinatorConnector", %"class.mojo::MessageReceiverWithResponder"* }
%"class.memory_instrumentation::mojom::CoordinatorConnector" = type { i32 (...)** }
%"class.perfetto::TracedValue" = type <{ %"class.perfetto::protos::pbzero::DebugAnnotation"*, %"class.perfetto::internal::CheckedScope", [7 x i8] }>
%"class.perfetto::protos::pbzero::DebugAnnotation" = type { %"class.protozero::Message.base", [7 x i8] }
%"class.protozero::Message.base" = type <{ %"class.protozero::ScatteredStreamWriter"*, %"class.protozero::MessageArena"*, %"class.protozero::Message"*, i8*, i32, i32, i8 }>
%"class.protozero::ScatteredStreamWriter" = type { %"class.protozero::ScatteredStreamWriter::Delegate"*, %"struct.protozero::ContiguousMemoryRange", i8*, i64 }
%"class.protozero::ScatteredStreamWriter::Delegate" = type { i32 (...)** }
%"struct.protozero::ContiguousMemoryRange" = type { i8*, i8* }
%"class.protozero::MessageArena" = type { %"class.std::__1::list" }
%"class.std::__1::list" = type { %"class.std::__1::__list_imp" }
%"class.std::__1::__list_imp" = type { %"struct.std::__1::__list_node_base", %"class.std::__1::__compressed_pair" }
%"struct.std::__1::__list_node_base" = type { %"struct.std::__1::__list_node_base"*, %"struct.std::__1::__list_node_base"* }
%"class.std::__1::__compressed_pair" = type { %"struct.std::__1::__compressed_pair_elem" }
%"struct.std::__1::__compressed_pair_elem" = type { i64 }
%"class.protozero::Message" = type <{ %"class.protozero::ScatteredStreamWriter"*, %"class.protozero::MessageArena"*, %"class.protozero::Message"*, i8*, i32, i32, i8, [7 x i8] }>
%"class.perfetto::internal::CheckedScope" = type { i8 }
%"class.perfetto::TracedDictionary" = type <{ %"class.protozero::Message"*, i32, %"class.perfetto::internal::CheckedScope", [3 x i8] }>
%"struct.std::__1::basic_string<char, std::__1::char_traits<char>, std::__1::allocator<char> >::__short" = type { [23 x i8], %struct.anon }
%struct.anon = type { i8 }
%"struct.std::__1::__murmur2_or_cityhash" = type { i8 }
%"class.perfetto::TracedArray" = type <{ %"class.perfetto::protos::pbzero::DebugAnnotation"*, %"class.perfetto::internal::CheckedScope", [7 x i8] }>
%"class.std::__1::__vector_base_common" = type { i8 }
%"struct.base::trace_event::MemoryDumpRequestArgs" = type { i64, i32, i32, i32 }
%"class.base::OnceCallback" = type { %"class.base::internal::CallbackBase" }
%"class.memory_instrumentation::mojom::internal::ClientProcess_RequestChromeMemoryDump_Params_Data" = type { %"struct.mojo::internal::StructHeader", %"struct.mojo::internal::Pointer" }
%"struct.mojo::internal::StructHeader" = type { i32, i32 }
%"struct.mojo::internal::Pointer" = type { i64 }
%"class.memory_instrumentation::mojom::internal::RequestArgs_Data" = type { %"struct.mojo::internal::StructHeader", i64, i32, i32, i32, [4 x i8] }
%"class.std::__1::vector.146" = type { %"class.std::__1::__vector_base.147" }
%"class.std::__1::__vector_base.147" = type { i32*, i32*, %"class.std::__1::__compressed_pair.148" }
%"class.std::__1::__compressed_pair.148" = type { %"struct.std::__1::__compressed_pair_elem.149" }
%"struct.std::__1::__compressed_pair_elem.149" = type { i32* }
%"class.base::OnceCallback.153" = type { %"class.base::internal::CallbackBase" }
%"class.mojo::internal::MessageFragment.156" = type { %"class.mojo::Message"*, i64 }
%"class.mojo::internal::ContainerValidateParams" = type { i32, i8, %"class.mojo::internal::ContainerValidateParams"*, %"class.mojo::internal::ContainerValidateParams"*, i1 (i32, %"class.mojo::internal::ValidationContext"*)* }
%"class.memory_instrumentation::mojom::internal::ClientProcess_RequestOSMemoryDump_Params_Data" = type { %"struct.mojo::internal::StructHeader", i32, [4 x i8], %"struct.mojo::internal::Pointer.155" }
%"struct.mojo::internal::Pointer.155" = type { i64 }
%"class.mojo::internal::Array_Data" = type { %"struct.mojo::internal::ArrayHeader" }
%"struct.mojo::internal::ArrayHeader" = type { i32, i32 }
%"class.mojo_base::mojom::internal::ProcessId_Data" = type { %"struct.mojo::internal::StructHeader", i32, [4 x i8] }
%"class.memory_instrumentation::mojom::ClientProcess_RequestChromeMemoryDump_ForwardToCallback" = type { %"class.mojo::MessageReceiver", %"class.base::OnceCallback" }
%"class.std::__1::unique_ptr.158" = type { %"class.std::__1::__compressed_pair.159" }
%"class.std::__1::__compressed_pair.159" = type { %"struct.std::__1::__compressed_pair_elem.160" }
%"struct.std::__1::__compressed_pair_elem.160" = type { %"class.base::trace_event::ProcessMemoryDump"* }
%"class.base::trace_event::ProcessMemoryDump" = type { %"class.base::UnguessableToken", %"class.std::__1::map", %"class.std::__1::map.168", %"struct.base::trace_event::MemoryDumpArgs", %"class.std::__1::unique_ptr.49" }
%"class.base::UnguessableToken" = type { %"class.base::Token" }
%"class.base::Token" = type { i64, i64 }
%"class.std::__1::map" = type { %"class.std::__1::__tree" }
%"class.std::__1::__tree" = type { %"class.std::__1::__tree_end_node"*, %"class.std::__1::__compressed_pair.161", %"class.std::__1::__compressed_pair.166" }
%"class.std::__1::__tree_end_node" = type { %"class.std::__1::__tree_node_base"* }
%"class.std::__1::__tree_node_base" = type <{ %"class.std::__1::__tree_end_node", %"class.std::__1::__tree_node_base"*, %"class.std::__1::__tree_end_node"*, i8, [7 x i8] }>
%"class.std::__1::__compressed_pair.161" = type { %"struct.std::__1::__compressed_pair_elem.162" }
%"struct.std::__1::__compressed_pair_elem.162" = type { %"class.std::__1::__tree_end_node" }
%"class.std::__1::__compressed_pair.166" = type { %"struct.std::__1::__compressed_pair_elem" }
%"class.std::__1::map.168" = type { %"class.std::__1::__tree.169" }
%"class.std::__1::__tree.169" = type { %"class.std::__1::__tree_end_node"*, %"class.std::__1::__compressed_pair.170", %"class.std::__1::__compressed_pair.174" }
%"class.std::__1::__compressed_pair.170" = type { %"struct.std::__1::__compressed_pair_elem.162" }
%"class.std::__1::__compressed_pair.174" = type { %"struct.std::__1::__compressed_pair_elem" }
%"struct.base::trace_event::MemoryDumpArgs" = type { i32, i32, i64 }
%"class.memory_instrumentation::mojom::internal::RawProcessMemoryDump_Data" = type { %"struct.mojo::internal::StructHeader", i32, [4 x i8], %"struct.mojo::internal::Pointer.190", %"struct.mojo::internal::Pointer.191" }
%"struct.mojo::internal::Pointer.190" = type { i64 }
%"struct.mojo::internal::Pointer.191" = type { i64 }
%"class.memory_instrumentation::mojom::ClientProcess_RequestChromeMemoryDump_ProxyToResponder" = type { i64, i8, %"class.std::__1::unique_ptr.182" }
%"class.std::__1::unique_ptr.182" = type { %"class.std::__1::__compressed_pair.183" }
%"class.std::__1::__compressed_pair.183" = type { %"struct.std::__1::__compressed_pair_elem.184" }
%"struct.std::__1::__compressed_pair_elem.184" = type { %"class.mojo::MessageReceiverWithStatus"* }
%"class.mojo::MessageReceiverWithStatus" = type { %"class.mojo::MessageReceiver" }
%"class.mojo::internal::MessageFragment.189" = type { %"class.mojo::Message"*, i64 }
%"class.memory_instrumentation::mojom::internal::ClientProcess_RequestChromeMemoryDump_ResponseParams_Data" = type { %"struct.mojo::internal::StructHeader", i8, [7 x i8], i64, %"struct.mojo::internal::Pointer.157" }
%"struct.mojo::internal::Pointer.157" = type { i64 }
%"struct.mojo::internal::MessageHeaderV1" = type { %"struct.mojo::internal::MessageHeader", i64 }
%"struct.mojo::internal::MessageHeader" = type { %"struct.mojo::internal::StructHeader", i32, i32, i32, i32 }
%"class.memory_instrumentation::mojom::ClientProcess_RequestOSMemoryDump_ForwardToCallback" = type { %"class.mojo::MessageReceiver", %"class.base::OnceCallback.153" }
%"class.base::flat_map.193" = type { %"class.base::internal::flat_tree.194" }
%"class.base::internal::flat_tree.194" = type { %"class.std::__1::vector.195" }
%"class.std::__1::vector.195" = type { %"class.std::__1::__vector_base.196" }
%"class.std::__1::__vector_base.196" = type { %"struct.std::__1::pair.197"*, %"struct.std::__1::pair.197"*, %"class.std::__1::__compressed_pair.205" }
%"struct.std::__1::pair.197" = type { i32, %"class.mojo::StructPtr.198" }
%"class.mojo::StructPtr.198" = type { %"class.std::__1::unique_ptr.199" }
%"class.std::__1::unique_ptr.199" = type { %"class.std::__1::__compressed_pair.200" }
%"class.std::__1::__compressed_pair.200" = type { %"struct.std::__1::__compressed_pair_elem.201" }
%"struct.std::__1::__compressed_pair_elem.201" = type { %"class.memory_instrumentation::mojom::RawOSMemDump"* }
%"class.std::__1::__compressed_pair.205" = type { %"struct.std::__1::__compressed_pair_elem.206" }
%"struct.std::__1::__compressed_pair_elem.206" = type { %"struct.std::__1::pair.197"* }
%"class.mojo::internal::Map_Data" = type { %"struct.mojo::internal::StructHeader", %"struct.mojo::internal::Pointer.155", %"struct.mojo::internal::Pointer.318" }
%"struct.mojo::internal::Pointer.318" = type { i64 }
%"class.memory_instrumentation::mojom::ClientProcess_RequestOSMemoryDump_ProxyToResponder" = type { i64, i8, %"class.std::__1::unique_ptr.182" }
%"class.mojo::internal::MessageFragment.211" = type { %"class.mojo::Message"*, i64 }
%"class.memory_instrumentation::mojom::internal::ClientProcess_RequestOSMemoryDump_ResponseParams_Data" = type { %"struct.mojo::internal::StructHeader", i8, [7 x i8], %"struct.mojo::internal::Pointer.192" }
%"struct.mojo::internal::Pointer.192" = type { i64 }
%"class.base::TaskAnnotator::ScopedSetIpcHash" = type { %"class.base::TaskAnnotator::ScopedSetIpcHash"*, i32, i8* }
%"class.memory_instrumentation::mojom::ClientProcessRequestValidator" = type { %"class.mojo::MessageReceiver" }
%"class.memory_instrumentation::mojom::ClientProcessResponseValidator" = type { %"class.mojo::MessageReceiver" }
%"class.base::OnceCallback.213" = type { %"class.base::internal::CallbackBase" }
%"class.memory_instrumentation::mojom::internal::HeapProfiler_DumpProcessesForTracing_Params_Data" = type { %"struct.mojo::internal::StructHeader", i8, [7 x i8] }
%"class.memory_instrumentation::mojom::HeapProfiler_DumpProcessesForTracing_ForwardToCallback" = type { %"class.mojo::MessageReceiver", %"class.base::OnceCallback.213" }
%"class.std::__1::vector.216" = type { %"class.std::__1::__vector_base.217" }
%"class.std::__1::__vector_base.217" = type { %"class.mojo::StructPtr.218"*, %"class.mojo::StructPtr.218"*, %"class.std::__1::__compressed_pair.225" }
%"class.mojo::StructPtr.218" = type { %"class.std::__1::unique_ptr.219" }
%"class.std::__1::unique_ptr.219" = type { %"class.std::__1::__compressed_pair.220" }
%"class.std::__1::__compressed_pair.220" = type { %"struct.std::__1::__compressed_pair_elem.221" }
%"struct.std::__1::__compressed_pair_elem.221" = type { %"class.memory_instrumentation::mojom::HeapProfileResult"* }
%"class.std::__1::__compressed_pair.225" = type { %"struct.std::__1::__compressed_pair_elem.226" }
%"struct.std::__1::__compressed_pair_elem.226" = type { %"class.mojo::StructPtr.218"* }
%"class.mojo::internal::Array_Data.232" = type { %"struct.mojo::internal::ArrayHeader" }
%"class.memory_instrumentation::mojom::HeapProfiler_DumpProcessesForTracing_ProxyToResponder" = type { i64, i8, %"class.std::__1::unique_ptr.182" }
%"class.mojo::internal::MessageFragment.480" = type { %"class.mojo::Message"*, i64 }
%"class.memory_instrumentation::mojom::internal::HeapProfiler_DumpProcessesForTracing_ResponseParams_Data" = type { %"struct.mojo::internal::StructHeader", %"struct.mojo::internal::Pointer.215" }
%"struct.mojo::internal::Pointer.215" = type { i64 }
%"class.memory_instrumentation::mojom::internal::HeapProfileResult_Data" = type { %"struct.mojo::internal::StructHeader", %"struct.mojo::internal::Pointer.263", %"struct.mojo::internal::Pointer.317" }
%"struct.mojo::internal::Pointer.263" = type { i64 }
%"struct.mojo::internal::Pointer.317" = type { i64 }
%"class.memory_instrumentation::mojom::HeapProfilerRequestValidator" = type { %"class.mojo::MessageReceiver" }
%"class.memory_instrumentation::mojom::HeapProfilerResponseValidator" = type { %"class.mojo::MessageReceiver" }
%"class.base::OnceCallback.233" = type { %"class.base::internal::CallbackBase" }
%"class.memory_instrumentation::mojom::internal::HeapProfilerHelper_GetVmRegionsForHeapProfiler_Params_Data" = type { %"struct.mojo::internal::StructHeader", %"struct.mojo::internal::Pointer.155" }
%"class.memory_instrumentation::mojom::HeapProfilerHelper_GetVmRegionsForHeapProfiler_ForwardToCallback" = type { %"class.mojo::MessageReceiver", %"class.base::OnceCallback.233" }
%"class.base::flat_map.236" = type { %"class.base::internal::flat_tree.237" }
%"class.base::internal::flat_tree.237" = type { %"class.std::__1::vector.238" }
%"class.std::__1::vector.238" = type { %"class.std::__1::__vector_base.239" }
%"class.std::__1::__vector_base.239" = type { %"struct.std::__1::pair.240"*, %"struct.std::__1::pair.240"*, %"class.std::__1::__compressed_pair.241" }
%"struct.std::__1::pair.240" = type { i32, %"class.std::__1::vector.68" }
%"class.std::__1::__compressed_pair.241" = type { %"struct.std::__1::__compressed_pair_elem.242" }
%"struct.std::__1::__compressed_pair_elem.242" = type { %"struct.std::__1::pair.240"* }
%"class.mojo::internal::Map_Data.248" = type { %"struct.mojo::internal::StructHeader", %"struct.mojo::internal::Pointer.155", %"struct.mojo::internal::Pointer.319" }
%"struct.mojo::internal::Pointer.319" = type { i64 }
%"class.memory_instrumentation::mojom::HeapProfilerHelper_GetVmRegionsForHeapProfiler_ProxyToResponder" = type { i64, i8, %"class.std::__1::unique_ptr.182" }
%"class.mojo::internal::MessageFragment.247" = type { %"class.mojo::Message"*, i64 }
%"class.memory_instrumentation::mojom::internal::HeapProfilerHelper_GetVmRegionsForHeapProfiler_ResponseParams_Data" = type { %"struct.mojo::internal::StructHeader", %"struct.mojo::internal::Pointer.235" }
%"struct.mojo::internal::Pointer.235" = type { i64 }
%"class.memory_instrumentation::mojom::HeapProfilerHelperRequestValidator" = type { %"class.mojo::MessageReceiver" }
%"class.memory_instrumentation::mojom::HeapProfilerHelperResponseValidator" = type { %"class.mojo::MessageReceiver" }
%"class.std::__1::vector.249" = type { %"class.std::__1::__vector_base.250" }
%"class.std::__1::__vector_base.250" = type { %"class.std::__1::basic_string"*, %"class.std::__1::basic_string"*, %"class.std::__1::__compressed_pair.251" }
%"class.std::__1::__compressed_pair.251" = type { %"struct.std::__1::__compressed_pair_elem.252" }
%"struct.std::__1::__compressed_pair_elem.252" = type { %"class.std::__1::basic_string"* }
%"class.base::OnceCallback.256" = type { %"class.base::internal::CallbackBase" }
%"class.mojo::internal::MessageFragment.438" = type { %"class.mojo::Message"*, i64 }
%"class.memory_instrumentation::mojom::internal::Coordinator_RequestGlobalMemoryDump_Params_Data" = type { %"struct.mojo::internal::StructHeader", i32, i32, i32, [4 x i8], %"struct.mojo::internal::Pointer.258" }
%"struct.mojo::internal::Pointer.258" = type { i64 }
%"class.mojo::internal::Array_Data.260" = type { %"struct.mojo::internal::ArrayHeader" }
%"class.mojo::internal::Array_Data.439" = type { %"struct.mojo::internal::ArrayHeader" }
%"class.memory_instrumentation::mojom::internal::Coordinator_RequestGlobalMemoryDumpForPid_Params_Data" = type { %"struct.mojo::internal::StructHeader", %"struct.mojo::internal::Pointer.263", %"struct.mojo::internal::Pointer.258" }
%"class.memory_instrumentation::mojom::internal::Coordinator_RequestPrivateMemoryFootprint_Params_Data" = type { %"struct.mojo::internal::StructHeader", %"struct.mojo::internal::Pointer.263" }
%"class.base::OnceCallback.265" = type { %"class.base::internal::CallbackBase" }
%"class.memory_instrumentation::mojom::internal::Coordinator_RequestGlobalMemoryDumpAndAppendToTrace_Params_Data" = type { %"struct.mojo::internal::StructHeader", i32, i32, i32, [4 x i8] }
%"class.memory_instrumentation::mojom::Coordinator_RequestGlobalMemoryDump_ForwardToCallback" = type { %"class.mojo::MessageReceiver", %"class.base::OnceCallback.256" }
%"class.mojo::StructPtr.268" = type { %"class.std::__1::unique_ptr.269" }
%"class.std::__1::unique_ptr.269" = type { %"class.std::__1::__compressed_pair.270" }
%"class.std::__1::__compressed_pair.270" = type { %"struct.std::__1::__compressed_pair_elem.271" }
%"struct.std::__1::__compressed_pair_elem.271" = type { %"class.memory_instrumentation::mojom::GlobalMemoryDump"* }
%"class.memory_instrumentation::mojom::internal::GlobalMemoryDump_Data" = type { %"struct.mojo::internal::StructHeader", %"struct.mojo::internal::Pointer.277", %"struct.mojo::internal::Pointer.278", %"struct.mojo::internal::Pointer.279" }
%"struct.mojo::internal::Pointer.277" = type { i64 }
%"struct.mojo::internal::Pointer.278" = type { i64 }
%"struct.mojo::internal::Pointer.279" = type { i64 }
%"class.memory_instrumentation::mojom::Coordinator_RequestGlobalMemoryDump_ProxyToResponder" = type { i64, i8, %"class.std::__1::unique_ptr.182" }
%"class.mojo::internal::MessageFragment.276" = type { %"class.mojo::Message"*, i64 }
%"class.memory_instrumentation::mojom::internal::Coordinator_RequestGlobalMemoryDump_ResponseParams_Data" = type { %"struct.mojo::internal::StructHeader", i8, [7 x i8], %"struct.mojo::internal::Pointer.267" }
%"struct.mojo::internal::Pointer.267" = type { i64 }
%"class.memory_instrumentation::mojom::Coordinator_RequestGlobalMemoryDumpForPid_ForwardToCallback" = type { %"class.mojo::MessageReceiver", %"class.base::OnceCallback.256" }
%"class.memory_instrumentation::mojom::Coordinator_RequestGlobalMemoryDumpForPid_ProxyToResponder" = type { i64, i8, %"class.std::__1::unique_ptr.182" }
%"class.memory_instrumentation::mojom::internal::Coordinator_RequestGlobalMemoryDumpForPid_ResponseParams_Data" = type { %"struct.mojo::internal::StructHeader", i8, [7 x i8], %"struct.mojo::internal::Pointer.267" }
%"class.memory_instrumentation::mojom::Coordinator_RequestPrivateMemoryFootprint_ForwardToCallback" = type { %"class.mojo::MessageReceiver", %"class.base::OnceCallback.256" }
%"class.memory_instrumentation::mojom::Coordinator_RequestPrivateMemoryFootprint_ProxyToResponder" = type { i64, i8, %"class.std::__1::unique_ptr.182" }
%"class.memory_instrumentation::mojom::internal::Coordinator_RequestPrivateMemoryFootprint_ResponseParams_Data" = type { %"struct.mojo::internal::StructHeader", i8, [7 x i8], %"struct.mojo::internal::Pointer.267" }
%"class.memory_instrumentation::mojom::Coordinator_RequestGlobalMemoryDumpAndAppendToTrace_ForwardToCallback" = type { %"class.mojo::MessageReceiver", %"class.base::OnceCallback.265" }
%"class.memory_instrumentation::mojom::Coordinator_RequestGlobalMemoryDumpAndAppendToTrace_ProxyToResponder" = type { i64, i8, %"class.std::__1::unique_ptr.182" }
%"class.memory_instrumentation::mojom::internal::Coordinator_RequestGlobalMemoryDumpAndAppendToTrace_ResponseParams_Data" = type { %"struct.mojo::internal::StructHeader", i8, [7 x i8], i64 }
%"class.memory_instrumentation::mojom::CoordinatorRequestValidator" = type { %"class.mojo::MessageReceiver" }
%"class.memory_instrumentation::mojom::CoordinatorResponseValidator" = type { %"class.mojo::MessageReceiver" }
%"class.mojo::PendingReceiver" = type { %"struct.mojo::internal::PendingReceiverState" }
%"struct.mojo::internal::PendingReceiverState" = type { %"class.mojo::ScopedHandleBase.283", %"class.mojo::ConnectionGroup::Ref" }
%"class.mojo::ScopedHandleBase.283" = type { %"class.mojo::MessagePipeHandle" }
%"class.mojo::MessagePipeHandle" = type { %"class.mojo::Handle" }
%"class.mojo::PendingRemote" = type { %"struct.mojo::internal::PendingRemoteState" }
%"struct.mojo::internal::PendingRemoteState" = type { %"class.mojo::ScopedHandleBase.283", i32 }
%"class.memory_instrumentation::mojom::internal::CoordinatorConnector_RegisterCoordinatorClient_Params_Data" = type { %"struct.mojo::internal::StructHeader", %"struct.mojo::internal::Handle_Data", %"struct.mojo::internal::Interface_Data", [4 x i8] }
%"struct.mojo::internal::Handle_Data" = type { i32 }
%"struct.mojo::internal::Interface_Data" = type { %"struct.mojo::internal::Handle_Data", i32 }
%"class.memory_instrumentation::mojom::CoordinatorConnector_RegisterCoordinatorClient_ParamsDataView" = type { %"class.memory_instrumentation::mojom::internal::CoordinatorConnector_RegisterCoordinatorClient_Params_Data"*, %"class.mojo::Message"* }
%"class.memory_instrumentation::mojom::CoordinatorConnectorRequestValidator" = type { %"class.mojo::MessageReceiver" }
%"class.mojo::InlinedStructPtr.285" = type { %"class.memory_instrumentation::mojom::RequestArgs", i32, [4 x i8] }
%"class.memory_instrumentation::mojom::internal::RawAllocatorDumpEdge_Data" = type { %"struct.mojo::internal::StructHeader", i64, i64, i32, i8, [3 x i8] }
%"class.mojo::InlinedStructPtr.286" = type { %"class.memory_instrumentation::mojom::RawAllocatorDumpEdge", i32, [4 x i8] }
%"class.memory_instrumentation::mojom::internal::RawAllocatorDumpEntry_Data" = type { %"struct.mojo::internal::StructHeader", %"struct.mojo::internal::Pointer.288", %"struct.mojo::internal::Pointer.288", %"class.memory_instrumentation::mojom::internal::RawAllocatorDumpEntryValue_Data" }
%"struct.mojo::internal::Pointer.288" = type { i64 }
%"class.memory_instrumentation::mojom::internal::RawAllocatorDumpEntryValue_Data" = type { i32, i32, %"union.memory_instrumentation::mojom::internal::RawAllocatorDumpEntryValue_Data::Union_" }
%"union.memory_instrumentation::mojom::internal::RawAllocatorDumpEntryValue_Data::Union_" = type { i64 }
%"class.mojo::StructPtr.289" = type { %"class.std::__1::unique_ptr.290" }
%"class.std::__1::unique_ptr.290" = type { %"class.std::__1::__compressed_pair.291" }
%"class.std::__1::__compressed_pair.291" = type { %"struct.std::__1::__compressed_pair_elem.292" }
%"struct.std::__1::__compressed_pair_elem.292" = type { %"class.memory_instrumentation::mojom::RawAllocatorDumpEntry"* }
%"class.memory_instrumentation::mojom::internal::RawAllocatorDump_Data" = type { %"struct.mojo::internal::StructHeader", i64, %"struct.mojo::internal::Pointer.288", i8, [3 x i8], i32, %"struct.mojo::internal::Pointer.296" }
%"struct.mojo::internal::Pointer.296" = type { i64 }
%"class.mojo::StructPtr.297" = type { %"class.std::__1::unique_ptr.298" }
%"class.std::__1::unique_ptr.298" = type { %"class.std::__1::__compressed_pair.299" }
%"class.std::__1::__compressed_pair.299" = type { %"struct.std::__1::__compressed_pair_elem.300" }
%"struct.std::__1::__compressed_pair_elem.300" = type { %"class.memory_instrumentation::mojom::RawAllocatorDump"* }
%"class.mojo::internal::Array_Data.441" = type { %"struct.mojo::internal::ArrayHeader" }
%"class.mojo::StructPtr.304" = type { %"class.std::__1::unique_ptr.305" }
%"class.std::__1::unique_ptr.305" = type { %"class.std::__1::__compressed_pair.306" }
%"class.std::__1::__compressed_pair.306" = type { %"struct.std::__1::__compressed_pair_elem.307" }
%"struct.std::__1::__compressed_pair_elem.307" = type { %"class.memory_instrumentation::mojom::RawProcessMemoryDump"* }
%"class.mojo::internal::Array_Data.426" = type { %"struct.mojo::internal::ArrayHeader" }
%"class.mojo::internal::Array_Data.428" = type { %"struct.mojo::internal::ArrayHeader" }
%"struct.std::__1::default_delete.309" = type { i8 }
%"class.memory_instrumentation::mojom::internal::VmRegion_Data" = type { %"struct.mojo::internal::StructHeader", i64, i64, i64, %"struct.mojo::internal::Pointer.288", %"struct.mojo::internal::Pointer.288", i32, [4 x i8], %"struct.mojo::internal::Pointer.288", i64, i64, i64, i64, i64, i64, i64 }
%"class.memory_instrumentation::mojom::internal::PlatformPrivateFootprint_Data" = type { %"struct.mojo::internal::StructHeader", i64, i64, i64, i64, i64, i64 }
%"class.memory_instrumentation::mojom::internal::RawOSMemDump_Data" = type { %"struct.mojo::internal::StructHeader", i32, i32, i8, [7 x i8], %"struct.mojo::internal::Pointer.311", %"struct.mojo::internal::Pointer.312", %"struct.mojo::internal::Pointer.313" }
%"struct.mojo::internal::Pointer.311" = type { i64 }
%"struct.mojo::internal::Pointer.312" = type { i64 }
%"struct.mojo::internal::Pointer.313" = type { i64 }
%"class.mojo::internal::Array_Data.471" = type { %"struct.mojo::internal::ArrayHeader" }
%"class.memory_instrumentation::mojom::internal::OSMemDump_Data" = type { %"struct.mojo::internal::StructHeader", i32, i32, i8, [3 x i8], i32, i32, i32 }
%"class.memory_instrumentation::mojom::internal::AllocatorMemDump_Data" = type { %"struct.mojo::internal::StructHeader", %"struct.mojo::internal::Pointer.314" }
%"struct.mojo::internal::Pointer.314" = type { i64 }
%"class.mojo::internal::Map_Data.551" = type { %"struct.mojo::internal::StructHeader", %"struct.mojo::internal::Pointer.258", %"struct.mojo::internal::Pointer.552" }
%"struct.mojo::internal::Pointer.552" = type { i64 }
%"class.memory_instrumentation::mojom::internal::ProcessMemoryDump_Data" = type { %"struct.mojo::internal::StructHeader", i32, [4 x i8], %"struct.mojo::internal::Pointer.315", %"struct.mojo::internal::Pointer.316", %"struct.mojo::internal::Pointer.263", %"struct.mojo::internal::Pointer.288" }
%"struct.mojo::internal::Pointer.315" = type { i64 }
%"struct.mojo::internal::Pointer.316" = type { i64 }
%"class.memory_instrumentation::mojom::ProcessMemoryDumpDataView" = type { %"class.memory_instrumentation::mojom::internal::ProcessMemoryDump_Data"*, %"class.mojo::Message"* }
%"class.mojo::internal::Map_Data.540" = type { %"struct.mojo::internal::StructHeader", %"struct.mojo::internal::Pointer.258", %"struct.mojo::internal::Pointer.541" }
%"struct.mojo::internal::Pointer.541" = type { i64 }
%"class.memory_instrumentation::mojom::internal::AggregatedMetrics_Data" = type { %"struct.mojo::internal::StructHeader", i32, i32, i32, [4 x i8] }
%"class.mojo_base::mojom::internal::TimeTicks_Data" = type { %"struct.mojo::internal::StructHeader", i64 }
%"class.mojo::internal::Array_Data.533" = type { %"struct.mojo::internal::ArrayHeader" }
%"class.mojo_base::mojom::internal::BigString_Data" = type { %"struct.mojo::internal::StructHeader", %"class.mojo_base::mojom::internal::BigBuffer_Data" }
%"class.mojo_base::mojom::internal::BigBuffer_Data" = type { i32, i32, %"union.mojo_base::mojom::internal::BigBuffer_Data::Union_" }
%"union.mojo_base::mojom::internal::BigBuffer_Data::Union_" = type { %"struct.mojo::internal::Pointer.313" }
%"class.std::__1::unique_ptr.330" = type { %"class.std::__1::__compressed_pair.331" }
%"class.std::__1::__compressed_pair.331" = type { %"struct.std::__1::__compressed_pair_elem.332" }
%"struct.std::__1::__compressed_pair_elem.332" = type { %"class.memory_instrumentation::mojom::ClientProcess_RequestOSMemoryDump_ProxyToResponder"* }
%"class.std::__1::unique_ptr.341" = type { %"class.std::__1::__compressed_pair.342" }
%"class.std::__1::__compressed_pair.342" = type { %"struct.std::__1::__compressed_pair_elem.343" }
%"struct.std::__1::__compressed_pair_elem.343" = type { %"class.memory_instrumentation::mojom::HeapProfiler_DumpProcessesForTracing_ProxyToResponder"* }
%"class.mojo::internal::MessageFragment.436" = type { %"class.mojo::Message"*, i64 }
%"class.mojo::internal::ArrayIterator.429" = type { %"class.std::__1::vector.40"*, i64 }
%"class.mojo::internal::MessageFragment.425" = type { %"class.mojo::Message"*, i64 }
%"class.mojo::internal::MessageFragment.443" = type { %"class.mojo::Message"*, i64 }
%"class.std::__1::vector.446" = type { %"class.std::__1::__vector_base.447" }
%"class.std::__1::__vector_base.447" = type { %"class.mojo::StructPtr.198"*, %"class.mojo::StructPtr.198"*, %"class.std::__1::__compressed_pair.448" }
%"class.std::__1::__compressed_pair.448" = type { %"struct.std::__1::__compressed_pair_elem.449" }
%"struct.std::__1::__compressed_pair_elem.449" = type { %"class.mojo::StructPtr.198"* }
%"class.mojo::internal::Array_Data.453" = type { %"struct.mojo::internal::ArrayHeader" }
%"struct.std::__1::__split_buffer.464" = type { %"struct.std::__1::pair.197"*, %"struct.std::__1::pair.197"*, %"struct.std::__1::pair.197"*, %"class.std::__1::__compressed_pair.465" }
%"class.std::__1::__compressed_pair.465" = type { %"struct.std::__1::__compressed_pair_elem.206", %"struct.std::__1::__compressed_pair_elem.466" }
%"struct.std::__1::__compressed_pair_elem.466" = type { %"class.std::__1::allocator.208"* }
%"class.std::__1::allocator.208" = type { i8 }
%"class.mojo::internal::MessageFragment.468" = type { %"class.mojo::Message"*, i64 }
%"class.mojo::internal::MessageFragment.475" = type { %"class.mojo::Message"*, i64 }
%"class.mojo::internal::Array_Data.473" = type { %"struct.mojo::internal::ArrayHeader" }
%"class.mojo_base::BigBuffer" = type { i32, %"class.std::__1::unique_ptr.483", i64, %"class.absl::optional.488" }
%"class.std::__1::unique_ptr.483" = type { %"class.std::__1::__compressed_pair.484" }
%"class.std::__1::__compressed_pair.484" = type { %"struct.std::__1::__compressed_pair_elem.85" }
%"class.absl::optional.488" = type { %"class.absl::optional_internal::optional_data.489" }
%"class.absl::optional_internal::optional_data.489" = type { %"class.absl::optional_internal::optional_data_base.490" }
%"class.absl::optional_internal::optional_data_base.490" = type { %"class.absl::optional_internal::optional_data_dtor_base.491" }
%"class.absl::optional_internal::optional_data_dtor_base.491" = type { i8, %union.anon.492 }
%union.anon.492 = type { %"class.mojo_base::internal::BigBufferSharedMemoryRegion" }
%"class.mojo_base::internal::BigBufferSharedMemoryRegion" = type { i64, %"class.mojo::ScopedHandleBase.493", %"class.std::__1::unique_ptr.494" }
%"class.mojo::ScopedHandleBase.493" = type { %"class.mojo::SharedBufferHandle" }
%"class.mojo::SharedBufferHandle" = type { %"class.mojo::Handle" }
%"class.std::__1::unique_ptr.494" = type { %"class.std::__1::__compressed_pair.495" }
%"class.std::__1::__compressed_pair.495" = type { %"struct.std::__1::__compressed_pair_elem.496" }
%"struct.std::__1::__compressed_pair_elem.496" = type { i8* }
%"class.mojo::internal::MessageFragment.502" = type { %"class.mojo::Message"*, i64 }
%"class.mojo::internal::MessageFragment.504" = type { %"class.mojo::Message"*, i64 }
%"class.mojo_base::mojom::internal::BigBufferSharedMemoryRegion_Data" = type { %"struct.mojo::internal::StructHeader", %"struct.mojo::internal::Handle_Data", i32 }
%"class.std::__1::vector.506" = type { %"class.std::__1::__vector_base.507" }
%"class.std::__1::__vector_base.507" = type { %"class.std::__1::vector.68"*, %"class.std::__1::vector.68"*, %"class.std::__1::__compressed_pair.508" }
%"class.std::__1::__compressed_pair.508" = type { %"struct.std::__1::__compressed_pair_elem.509" }
%"struct.std::__1::__compressed_pair_elem.509" = type { %"class.std::__1::vector.68"* }
%"class.mojo::internal::Array_Data.513" = type { %"struct.mojo::internal::ArrayHeader" }
%"struct.std::__1::__temp_value.521" = type { %"struct.std::__1::aligned_storage<32, 8>::type", %"class.std::__1::allocator.244"* }
%"struct.std::__1::aligned_storage<32, 8>::type" = type { [32 x i8] }
%"class.std::__1::allocator.244" = type { i8 }
%"struct.std::__1::__split_buffer.522" = type { %"struct.std::__1::pair.240"*, %"struct.std::__1::pair.240"*, %"struct.std::__1::pair.240"*, %"class.std::__1::__compressed_pair.523" }
%"class.std::__1::__compressed_pair.523" = type { %"struct.std::__1::__compressed_pair_elem.242", %"struct.std::__1::__compressed_pair_elem.524" }
%"struct.std::__1::__compressed_pair_elem.524" = type { %"class.std::__1::allocator.244"* }
%"class.mojo::internal::MessageFragment.528" = type { %"class.mojo::Message"*, i64 }
%"class.mojo::internal::MapValueReader.529" = type { %"class.mojo::internal::MapReaderBase.527" }
%"class.mojo::internal::MapReaderBase.527" = type { %"class.base::flat_map.236"*, %"class.std::__1::__wrap_iter.517" }
%"class.std::__1::__wrap_iter.517" = type { %"struct.std::__1::pair.240"* }
%"class.mojo::internal::MessageFragment.536" = type { %"class.mojo::Message"*, i64 }
%"class.mojo::internal::MessageFragment.539" = type { %"class.mojo::Message"*, i64 }
%"class.mojo::internal::MessageFragment.548" = type { %"class.mojo::Message"*, i64 }
%"class.mojo::internal::Array_Data.547" = type { %"struct.mojo::internal::ArrayHeader" }
%"class.mojo::internal::MessageFragment.550" = type { %"class.mojo::Message"*, i64 }
%"class.mojo::internal::Array_Data.558" = type { %"struct.mojo::internal::ArrayHeader" }
%"struct.std::__1::__split_buffer.575" = type { %"struct.std::__1::pair"*, %"struct.std::__1::pair"*, %"struct.std::__1::pair"*, %"class.std::__1::__compressed_pair.576" }
%"class.std::__1::__compressed_pair.576" = type { %"struct.std::__1::__compressed_pair_elem.92", %"struct.std::__1::__compressed_pair_elem.577" }
%"struct.std::__1::__compressed_pair_elem.577" = type { %"class.std::__1::allocator.94"* }
%"class.std::__1::allocator.94" = type { i8 }
%"class.std::__1::vector.579" = type { %"class.std::__1::__vector_base.580" }
%"class.std::__1::__vector_base.580" = type { %"class.mojo::StructPtr.108"*, %"class.mojo::StructPtr.108"*, %"class.std::__1::__compressed_pair.581" }
%"class.std::__1::__compressed_pair.581" = type { %"struct.std::__1::__compressed_pair_elem.582" }
%"struct.std::__1::__compressed_pair_elem.582" = type { %"class.mojo::StructPtr.108"* }
%"struct.std::__1::__temp_value.591" = type { %"struct.std::__1::aligned_storage<32, 8>::type", %"class.std::__1::allocator.118"* }
%"class.std::__1::allocator.118" = type { i8 }
%"struct.std::__1::__split_buffer.592" = type { %"struct.std::__1::pair.107"*, %"struct.std::__1::pair.107"*, %"struct.std::__1::pair.107"*, %"class.std::__1::__compressed_pair.593" }
%"class.std::__1::__compressed_pair.593" = type { %"struct.std::__1::__compressed_pair_elem.116", %"struct.std::__1::__compressed_pair_elem.594" }
%"struct.std::__1::__compressed_pair_elem.594" = type { %"class.std::__1::allocator.118"* }

$_ZNSt3__16vectorIN4mojo9StructPtrIN22memory_instrumentation5mojom8VmRegionEEENS_9allocatorIS6_EEED2Ev = comdat any

$_ZN4mojo8internal9SerializeINS_13ArrayDataViewIN9mojo_base5mojom17ProcessIdDataViewEEERKNSt3__16vectorIiNS7_9allocatorIiEEEEJRNS0_15MessageFragmentINS0_10Array_DataINS0_7PointerINS4_8internal14ProcessId_DataEEEEEEEPKNS0_23ContainerValidateParamsEELPv0EEEvOT0_DpOT1_ = comdat any

$_ZN4mojo8internal23ContainerValidateParamsD2Ev = comdat any

$_ZN22memory_instrumentation5mojom61CoordinatorConnector_RegisterCoordinatorClient_ParamsDataView17TakeClientProcessIN4mojo13PendingRemoteINS0_13ClientProcessEEEEET_v = comdat any

$_ZN22memory_instrumentation5mojom55ClientProcess_RequestChromeMemoryDump_ForwardToCallbackD2Ev = comdat any

$_ZN22memory_instrumentation5mojom55ClientProcess_RequestChromeMemoryDump_ForwardToCallbackD0Ev = comdat any

$_ZN22memory_instrumentation5mojom51ClientProcess_RequestOSMemoryDump_ForwardToCallbackD2Ev = comdat any

$_ZN22memory_instrumentation5mojom51ClientProcess_RequestOSMemoryDump_ForwardToCallbackD0Ev = comdat any

$_ZN22memory_instrumentation5mojom13ClientProcessD2Ev = comdat any

$_ZN22memory_instrumentation5mojom18ClientProcessProxyD0Ev = comdat any

$_ZN22memory_instrumentation5mojom29ClientProcessRequestValidatorD0Ev = comdat any

$_ZN22memory_instrumentation5mojom30ClientProcessResponseValidatorD0Ev = comdat any

$_ZN22memory_instrumentation5mojom54HeapProfiler_DumpProcessesForTracing_ForwardToCallbackD2Ev = comdat any

$_ZN22memory_instrumentation5mojom54HeapProfiler_DumpProcessesForTracing_ForwardToCallbackD0Ev = comdat any

$_ZN22memory_instrumentation5mojom12HeapProfilerD2Ev = comdat any

$_ZN22memory_instrumentation5mojom17HeapProfilerProxyD0Ev = comdat any

$_ZN22memory_instrumentation5mojom28HeapProfilerRequestValidatorD0Ev = comdat any

$_ZN22memory_instrumentation5mojom29HeapProfilerResponseValidatorD0Ev = comdat any

$_ZN22memory_instrumentation5mojom64HeapProfilerHelper_GetVmRegionsForHeapProfiler_ForwardToCallbackD2Ev = comdat any

$_ZN22memory_instrumentation5mojom64HeapProfilerHelper_GetVmRegionsForHeapProfiler_ForwardToCallbackD0Ev = comdat any

$_ZN22memory_instrumentation5mojom23HeapProfilerHelperProxyD0Ev = comdat any

$_ZN22memory_instrumentation5mojom34HeapProfilerHelperRequestValidatorD0Ev = comdat any

$_ZN22memory_instrumentation5mojom35HeapProfilerHelperResponseValidatorD0Ev = comdat any

$_ZN22memory_instrumentation5mojom53Coordinator_RequestGlobalMemoryDump_ForwardToCallbackD2Ev = comdat any

$_ZN22memory_instrumentation5mojom53Coordinator_RequestGlobalMemoryDump_ForwardToCallbackD0Ev = comdat any

$_ZN22memory_instrumentation5mojom59Coordinator_RequestGlobalMemoryDumpForPid_ForwardToCallbackD2Ev = comdat any

$_ZN22memory_instrumentation5mojom59Coordinator_RequestGlobalMemoryDumpForPid_ForwardToCallbackD0Ev = comdat any

$_ZN22memory_instrumentation5mojom59Coordinator_RequestPrivateMemoryFootprint_ForwardToCallbackD2Ev = comdat any

$_ZN22memory_instrumentation5mojom59Coordinator_RequestPrivateMemoryFootprint_ForwardToCallbackD0Ev = comdat any

$_ZN22memory_instrumentation5mojom69Coordinator_RequestGlobalMemoryDumpAndAppendToTrace_ForwardToCallbackD2Ev = comdat any

$_ZN22memory_instrumentation5mojom69Coordinator_RequestGlobalMemoryDumpAndAppendToTrace_ForwardToCallbackD0Ev = comdat any

$_ZN22memory_instrumentation5mojom11CoordinatorD2Ev = comdat any

$_ZN22memory_instrumentation5mojom16CoordinatorProxyD0Ev = comdat any

$_ZN4mojo15MessageReceiverD2Ev = comdat any

$_ZN22memory_instrumentation5mojom27CoordinatorRequestValidatorD0Ev = comdat any

$_ZN22memory_instrumentation5mojom28CoordinatorResponseValidatorD0Ev = comdat any

$_ZN22memory_instrumentation5mojom25CoordinatorConnectorProxyD0Ev = comdat any

$_ZN22memory_instrumentation5mojom36CoordinatorConnectorRequestValidatorD0Ev = comdat any

$_ZNSt3__113__vector_baseINS_4pairINS_12basic_stringIcNS_11char_traitsIcEENS_9allocatorIcEEEEN4mojo9StructPtrIN22memory_instrumentation5mojom16AllocatorMemDumpEEEEENS5_ISE_EEE5clearEv = comdat any

$_ZN4base8internal7InvokerINS0_9BindStateIMN22memory_instrumentation5mojom54ClientProcess_RequestChromeMemoryDump_ProxyToResponderEFvbmNSt3__110unique_ptrINS_11trace_event17ProcessMemoryDumpENS6_14default_deleteIS9_EEEEEJNS7_IS5_NSA_IS5_EEEEEEEFvbmSC_EE7RunOnceEPNS0_13BindStateBaseEbmOSC_ = comdat any

$_ZN4base8internal9BindStateIMN22memory_instrumentation5mojom54ClientProcess_RequestChromeMemoryDump_ProxyToResponderEFvbmNSt3__110unique_ptrINS_11trace_event17ProcessMemoryDumpENS5_14default_deleteIS8_EEEEEJNS6_IS4_NS9_IS4_EEEEEE7DestroyEPKNS0_13BindStateBaseE = comdat any

$_ZN4base8internal7InvokerINS0_9BindStateIMN22memory_instrumentation5mojom50ClientProcess_RequestOSMemoryDump_ProxyToResponderEFvbNS_8flat_mapIiN4mojo9StructPtrINS4_12RawOSMemDumpEEENSt3__14lessIvEENSB_6vectorINSB_4pairIiSA_EENSB_9allocatorISG_EEEEEEEJNSB_10unique_ptrIS5_NSB_14default_deleteIS5_EEEEEEEFvbSK_EE7RunOnceEPNS0_13BindStateBaseEbOSK_ = comdat any

$_ZN4base8internal12InvokeHelperILb0EvE8MakeItSoIMN22memory_instrumentation5mojom50ClientProcess_RequestOSMemoryDump_ProxyToResponderEFvbNS_8flat_mapIiN4mojo9StructPtrINS5_12RawOSMemDumpEEENSt3__14lessIvEENSC_6vectorINSC_4pairIiSB_EENSC_9allocatorISH_EEEEEEEJNSC_10unique_ptrIS6_NSC_14default_deleteIS6_EEEEbSL_EEEvOT_DpOT0_ = comdat any

$_ZN4base8internal9BindStateIMN22memory_instrumentation5mojom50ClientProcess_RequestOSMemoryDump_ProxyToResponderEFvbNS_8flat_mapIiN4mojo9StructPtrINS3_12RawOSMemDumpEEENSt3__14lessIvEENSA_6vectorINSA_4pairIiS9_EENSA_9allocatorISF_EEEEEEEJNSA_10unique_ptrIS4_NSA_14default_deleteIS4_EEEEEE7DestroyEPKNS0_13BindStateBaseE = comdat any

$_ZN4base8internal7InvokerINS0_9BindStateIMN22memory_instrumentation5mojom53HeapProfiler_DumpProcessesForTracing_ProxyToResponderEFvNSt3__16vectorIN4mojo9StructPtrINS4_17HeapProfileResultEEENS6_9allocatorISB_EEEEEJNS6_10unique_ptrIS5_NS6_14default_deleteIS5_EEEEEEEFvSE_EE7RunOnceEPNS0_13BindStateBaseEOSE_ = comdat any

$_ZN4base8internal13FunctorTraitsIMN22memory_instrumentation5mojom53HeapProfiler_DumpProcessesForTracing_ProxyToResponderEFvNSt3__16vectorIN4mojo9StructPtrINS3_17HeapProfileResultEEENS5_9allocatorISA_EEEEEvE6InvokeISF_NS5_10unique_ptrIS4_NS5_14default_deleteIS4_EEEEJSD_EEEvT_OT0_DpOT1_ = comdat any

$_ZN4base8internal9BindStateIMN22memory_instrumentation5mojom53HeapProfiler_DumpProcessesForTracing_ProxyToResponderEFvNSt3__16vectorIN4mojo9StructPtrINS3_17HeapProfileResultEEENS5_9allocatorISA_EEEEEJNS5_10unique_ptrIS4_NS5_14default_deleteIS4_EEEEEE7DestroyEPKNS0_13BindStateBaseE = comdat any

$_ZN22memory_instrumentation5mojom18HeapProfilerHelperD2Ev = comdat any

$_ZN4base8internal7InvokerINS0_9BindStateIMN22memory_instrumentation5mojom63HeapProfilerHelper_GetVmRegionsForHeapProfiler_ProxyToResponderEFvNS_8flat_mapIiNSt3__16vectorIN4mojo9StructPtrINS4_8VmRegionEEENS7_9allocatorISC_EEEENS7_4lessIvEENS8_INS7_4pairIiSF_EENSD_ISJ_EEEEEEEJNS7_10unique_ptrIS5_NS7_14default_deleteIS5_EEEEEEEFvSM_EE7RunOnceEPNS0_13BindStateBaseEOSM_ = comdat any

$_ZN4base8internal9BindStateIMN22memory_instrumentation5mojom63HeapProfilerHelper_GetVmRegionsForHeapProfiler_ProxyToResponderEFvNS_8flat_mapIiNSt3__16vectorIN4mojo9StructPtrINS3_8VmRegionEEENS6_9allocatorISB_EEEENS6_4lessIvEENS7_INS6_4pairIiSE_EENSC_ISI_EEEEEEEJNS6_10unique_ptrIS4_NS6_14default_deleteIS4_EEEEEE7DestroyEPKNS0_13BindStateBaseE = comdat any

$_ZN4base8internal7InvokerINS0_9BindStateIMN22memory_instrumentation5mojom52Coordinator_RequestGlobalMemoryDump_ProxyToResponderEFvbN4mojo9StructPtrINS4_16GlobalMemoryDumpEEEEJNSt3__110unique_ptrIS5_NSC_14default_deleteIS5_EEEEEEEFvbS9_EE7RunOnceEPNS0_13BindStateBaseEbOS9_ = comdat any

$_ZN4base8internal9BindStateIMN22memory_instrumentation5mojom52Coordinator_RequestGlobalMemoryDump_ProxyToResponderEFvbN4mojo9StructPtrINS3_16GlobalMemoryDumpEEEEJNSt3__110unique_ptrIS4_NSB_14default_deleteIS4_EEEEEE7DestroyEPKNS0_13BindStateBaseE = comdat any

$_ZN4base8internal7InvokerINS0_9BindStateIMN22memory_instrumentation5mojom58Coordinator_RequestGlobalMemoryDumpForPid_ProxyToResponderEFvbN4mojo9StructPtrINS4_16GlobalMemoryDumpEEEEJNSt3__110unique_ptrIS5_NSC_14default_deleteIS5_EEEEEEEFvbS9_EE7RunOnceEPNS0_13BindStateBaseEbOS9_ = comdat any

$_ZN4base8internal9BindStateIMN22memory_instrumentation5mojom58Coordinator_RequestGlobalMemoryDumpForPid_ProxyToResponderEFvbN4mojo9StructPtrINS3_16GlobalMemoryDumpEEEEJNSt3__110unique_ptrIS4_NSB_14default_deleteIS4_EEEEEE7DestroyEPKNS0_13BindStateBaseE = comdat any

$_ZN4base8internal7InvokerINS0_9BindStateIMN22memory_instrumentation5mojom58Coordinator_RequestPrivateMemoryFootprint_ProxyToResponderEFvbN4mojo9StructPtrINS4_16GlobalMemoryDumpEEEEJNSt3__110unique_ptrIS5_NSC_14default_deleteIS5_EEEEEEEFvbS9_EE7RunOnceEPNS0_13BindStateBaseEbOS9_ = comdat any

$_ZN4base8internal9BindStateIMN22memory_instrumentation5mojom58Coordinator_RequestPrivateMemoryFootprint_ProxyToResponderEFvbN4mojo9StructPtrINS3_16GlobalMemoryDumpEEEEJNSt3__110unique_ptrIS4_NSB_14default_deleteIS4_EEEEEE7DestroyEPKNS0_13BindStateBaseE = comdat any

$_ZN4base8internal7InvokerINS0_9BindStateIMN22memory_instrumentation5mojom68Coordinator_RequestGlobalMemoryDumpAndAppendToTrace_ProxyToResponderEFvbmEJNSt3__110unique_ptrIS5_NS8_14default_deleteIS5_EEEEEEEFvbmEE7RunOnceEPNS0_13BindStateBaseEbm = comdat any

$_ZN4base8internal9BindStateIMN22memory_instrumentation5mojom68Coordinator_RequestGlobalMemoryDumpAndAppendToTrace_ProxyToResponderEFvbmEJNSt3__110unique_ptrIS4_NS7_14default_deleteIS4_EEEEEE7DestroyEPKNS0_13BindStateBaseE = comdat any

$_ZN22memory_instrumentation5mojom20CoordinatorConnectorD2Ev = comdat any

$_ZNKSt3__114default_deleteIN22memory_instrumentation5mojom20RawProcessMemoryDumpEEclEPS3_ = comdat any

$_ZNSt3__121__murmur2_or_cityhashImLm64EEclEPKvm = comdat any

$_ZNSt3__121__murmur2_or_cityhashImLm64EE18__hash_len_0_to_16EPKcm = comdat any

$_ZNSt3__113__vector_baseIN4mojo9StructPtrIN22memory_instrumentation5mojom17ProcessMemoryDumpEEENS_9allocatorIS6_EEE5clearEv = comdat any

$_ZN4mojo8internal10SerializerIN22memory_instrumentation5mojom28RawProcessMemoryDumpDataViewENSt3__110unique_ptrIN4base11trace_event17ProcessMemoryDumpENS5_14default_deleteIS9_EEEEE9SerializeERSC_RNS0_15MessageFragmentINS3_8internal25RawProcessMemoryDump_DataEEE = comdat any

$_ZN4mojo8internal15ArraySerializerINS_13ArrayDataViewIN22memory_instrumentation5mojom28RawAllocatorDumpEdgeDataViewEEENSt3__16vectorIN4base11trace_event17ProcessMemoryDump23MemoryAllocatorDumpEdgeENS7_9allocatorISC_EEEENS0_13ArrayIteratorINS_11ArrayTraitsISF_EESF_Lb0EEEvE17SerializeElementsEPSJ_RNS0_15MessageFragmentINS0_10Array_DataINS0_7PointerINS4_8internal25RawAllocatorDumpEdge_DataEEEEEEEPKNS0_23ContainerValidateParamsE = comdat any

$_ZNSt3__16vectorINS_10unique_ptrIN4base11trace_event19MemoryAllocatorDumpENS_14default_deleteIS4_EEEENS_9allocatorIS7_EEE7reserveEm = comdat any

$_ZNSt3__16vectorINS_10unique_ptrIN4base11trace_event19MemoryAllocatorDumpENS_14default_deleteIS4_EEEENS_9allocatorIS7_EEE21__push_back_slow_pathIS7_EEvOT_ = comdat any

$_ZN4mojo8internal10SerializerIN22memory_instrumentation5mojom24RawAllocatorDumpDataViewENSt3__110unique_ptrIN4base11trace_event19MemoryAllocatorDumpENS5_14default_deleteIS9_EEEEE9SerializeERSC_RNS0_15MessageFragmentINS3_8internal21RawAllocatorDump_DataEEE = comdat any

$_ZN4mojo8internal10SerializerINS_14StringDataViewEKNSt3__112basic_stringIcNS3_11char_traitsIcEENS3_9allocatorIcEEEEE9SerializeERSA_RNS0_15MessageFragmentINS0_10Array_DataIcEEEE = comdat any

$_ZN4mojo8internal10SerializerIN22memory_instrumentation5mojom29RawAllocatorDumpEntryDataViewEKN4base11trace_event19MemoryAllocatorDump5EntryEE9SerializeERS9_RNS0_15MessageFragmentINS3_8internal26RawAllocatorDumpEntry_DataEEE = comdat any

$_ZN4mojo8internal10SerializerINS_11MapDataViewIN9mojo_base5mojom17ProcessIdDataViewEN22memory_instrumentation5mojom20RawOSMemDumpDataViewEEEN4base8flat_mapIiNS_9StructPtrINS7_12RawOSMemDumpEEENSt3__14lessIvEENSF_6vectorINSF_4pairIiSE_EENSF_9allocatorISK_EEEEEEE11DeserializeEPNS0_8Map_DataINS0_7PointerINS4_8internal14ProcessId_DataEEENSR_INS7_8internal17RawOSMemDump_DataEEEEEPSO_PNS_7MessageE = comdat any

$_ZN4mojo8internal15ArraySerializerINS_13ArrayDataViewIN22memory_instrumentation5mojom20RawOSMemDumpDataViewEEENSt3__16vectorINS_9StructPtrINS4_12RawOSMemDumpEEENS7_9allocatorISB_EEEENS0_14MapValueReaderIN4base8flat_mapIiSB_NS7_4lessIvEENS8_INS7_4pairIiSB_EENSC_ISL_EEEEEEEEvE19DeserializeElementsEPNS0_10Array_DataINS0_7PointerINS4_8internal17RawOSMemDump_DataEEEEEPSE_PNS_7MessageE = comdat any

$_ZN4mojo11ArrayTraitsINSt3__16vectorINS_9StructPtrIN22memory_instrumentation5mojom12RawOSMemDumpEEENS1_9allocatorIS7_EEEEE6ResizeERSA_m = comdat any

$_ZN4base8internal9flat_treeIiNS0_8GetFirstENSt3__14lessIvEENS3_6vectorINS3_4pairIiN4mojo9StructPtrIN22memory_instrumentation5mojom12RawOSMemDumpEEEEENS3_9allocatorISE_EEEEE7emplaceIJiSD_EEENS7_INS3_11__wrap_iterIPSE_EEbEEDpOT_ = comdat any

$_ZNSt3__16vectorINS_4pairIiN4mojo9StructPtrIN22memory_instrumentation5mojom12RawOSMemDumpEEEEENS_9allocatorIS8_EEE7emplaceIJS8_EEENS_11__wrap_iterIPS8_EENSD_IPKS8_EEDpOT_ = comdat any

$_ZNSt3__114__split_bufferINS_4pairIiN4mojo9StructPtrIN22memory_instrumentation5mojom12RawOSMemDumpEEEEERNS_9allocatorIS8_EEE12emplace_backIJS8_EEEvDpOT_ = comdat any

$_ZNSt3__114__split_bufferINS_4pairIiN4mojo9StructPtrIN22memory_instrumentation5mojom12RawOSMemDumpEEEEERNS_9allocatorIS8_EEED2Ev = comdat any

$_ZN4mojo8internal10SerializerINS_11MapDataViewIN9mojo_base5mojom17ProcessIdDataViewEN22memory_instrumentation5mojom20RawOSMemDumpDataViewEEEN4base8flat_mapIiNS_9StructPtrINS7_12RawOSMemDumpEEENSt3__14lessIvEENSF_6vectorINSF_4pairIiSE_EENSF_9allocatorISK_EEEEEEE9SerializeERSO_RNS0_15MessageFragmentINS0_8Map_DataINS0_7PointerINS4_8internal14ProcessId_DataEEENST_INS7_8internal17RawOSMemDump_DataEEEEEEEPKNS0_23ContainerValidateParamsE = comdat any

$_ZN4mojo8internal10SerializerIN22memory_instrumentation5mojom20RawOSMemDumpDataViewENS_9StructPtrINS3_12RawOSMemDumpEEEE9SerializeERS7_RNS0_15MessageFragmentINS3_8internal17RawOSMemDump_DataEEE = comdat any

$_ZN4mojo8internal10SerializerIN22memory_instrumentation5mojom16VmRegionDataViewEKNS_9StructPtrINS3_8VmRegionEEEE9SerializeERS8_RNS0_15MessageFragmentINS3_8internal13VmRegion_DataEEE = comdat any

$_ZN4mojo8internal15ArraySerializerINS_13ArrayDataViewIN22memory_instrumentation5mojom25HeapProfileResultDataViewEEENSt3__16vectorINS_9StructPtrINS4_17HeapProfileResultEEENS7_9allocatorISB_EEEENS0_13ArrayIteratorINS_11ArrayTraitsISE_EESE_Lb0EEEvE19DeserializeElementsEPNS0_10Array_DataINS0_7PointerINS4_8internal22HeapProfileResult_DataEEEEEPSE_PNS_7MessageE = comdat any

$_ZN4mojo11ArrayTraitsINSt3__16vectorINS_9StructPtrIN22memory_instrumentation5mojom17HeapProfileResultEEENS1_9allocatorIS7_EEEEE6ResizeERSA_m = comdat any

$_ZN4mojo8internal10SerializerIN22memory_instrumentation5mojom25HeapProfileResultDataViewENS_9StructPtrINS3_17HeapProfileResultEEEE9SerializeERS7_RNS0_15MessageFragmentINS3_8internal22HeapProfileResult_DataEEE = comdat any

$_ZN4mojo8internal10SerializerIN9mojo_base5mojom17BigBufferDataViewENS2_9BigBufferEE9SerializeERS5_RNS0_15MessageFragmentINS3_8internal14BigBuffer_DataEEEb = comdat any

$_ZN4mojo8internal10SerializerIN9mojo_base5mojom35BigBufferSharedMemoryRegionDataViewENS2_8internal27BigBufferSharedMemoryRegionEE9SerializeERS6_RNS0_15MessageFragmentINS3_8internal32BigBufferSharedMemoryRegion_DataEEE = comdat any

$_ZN4mojo8internal10SerializerINS_11MapDataViewIN9mojo_base5mojom17ProcessIdDataViewENS_13ArrayDataViewIN22memory_instrumentation5mojom16VmRegionDataViewEEEEEN4base8flat_mapIiNSt3__16vectorINS_9StructPtrINS8_8VmRegionEEENSE_9allocatorISI_EEEENSE_4lessIvEENSF_INSE_4pairIiSL_EENSJ_ISP_EEEEEEE11DeserializeEPNS0_8Map_DataINS0_7PointerINS4_8internal14ProcessId_DataEEENSV_INS0_10Array_DataINSV_INS8_8internal13VmRegion_DataEEEEEEEEEPSS_PNS_7MessageE = comdat any

$_ZN4mojo8internal15ArraySerializerINS_13ArrayDataViewINS2_IN22memory_instrumentation5mojom16VmRegionDataViewEEEEENSt3__16vectorINS9_INS_9StructPtrINS4_8VmRegionEEENS8_9allocatorISC_EEEENSD_ISF_EEEENS0_14MapValueReaderIN4base8flat_mapIiSF_NS8_4lessIvEENS9_INS8_4pairIiSF_EENSD_ISO_EEEEEEEEvE19DeserializeElementsEPNS0_10Array_DataINS0_7PointerINSU_INSV_INS4_8internal13VmRegion_DataEEEEEEEEEPSH_PNS_7MessageE = comdat any

$_ZN4mojo8internal15ArraySerializerINS_13ArrayDataViewIN22memory_instrumentation5mojom16VmRegionDataViewEEENSt3__16vectorINS_9StructPtrINS4_8VmRegionEEENS7_9allocatorISB_EEEENS0_13ArrayIteratorINS_11ArrayTraitsISE_EESE_Lb0EEEvE19DeserializeElementsEPNS0_10Array_DataINS0_7PointerINS4_8internal13VmRegion_DataEEEEEPSE_PNS_7MessageE = comdat any

$_ZNSt3__16vectorINS_4pairIiNS0_IN4mojo9StructPtrIN22memory_instrumentation5mojom8VmRegionEEENS_9allocatorIS7_EEEEEENS8_ISB_EEE7emplaceIJSB_EEENS_11__wrap_iterIPSB_EENSF_IPKSB_EEDpOT_ = comdat any

$_ZNSt3__14pairIiNS_6vectorIN4mojo9StructPtrIN22memory_instrumentation5mojom8VmRegionEEENS_9allocatorIS7_EEEEEaSEOSB_ = comdat any

$_ZNSt3__114__split_bufferINS_4pairIiNS_6vectorIN4mojo9StructPtrIN22memory_instrumentation5mojom8VmRegionEEENS_9allocatorIS8_EEEEEERNS9_ISC_EEE12emplace_backIJSC_EEEvDpOT_ = comdat any

$_ZN4mojo8internal10SerializerINS_11MapDataViewIN9mojo_base5mojom17ProcessIdDataViewENS_13ArrayDataViewIN22memory_instrumentation5mojom16VmRegionDataViewEEEEEN4base8flat_mapIiNSt3__16vectorINS_9StructPtrINS8_8VmRegionEEENSE_9allocatorISI_EEEENSE_4lessIvEENSF_INSE_4pairIiSL_EENSJ_ISP_EEEEEEE9SerializeERSS_RNS0_15MessageFragmentINS0_8Map_DataINS0_7PointerINS4_8internal14ProcessId_DataEEENSX_INS0_10Array_DataINSX_INS8_8internal13VmRegion_DataEEEEEEEEEEEPKNS0_23ContainerValidateParamsE = comdat any

$_ZN4mojo8internal15ArraySerializerINS_13ArrayDataViewINS2_IN22memory_instrumentation5mojom16VmRegionDataViewEEEEENSt3__16vectorINS9_INS_9StructPtrINS4_8VmRegionEEENS8_9allocatorISC_EEEENSD_ISF_EEEENS0_14MapValueReaderIN4base8flat_mapIiSF_NS8_4lessIvEENS9_INS8_4pairIiSF_EENSD_ISO_EEEEEEEEvE17SerializeElementsEPSS_RNS0_15MessageFragmentINS0_10Array_DataINS0_7PointerINSW_INSX_INS4_8internal13VmRegion_DataEEEEEEEEEEEPKNS0_23ContainerValidateParamsE = comdat any

$_ZN4mojo8internal10SerializerIN22memory_instrumentation5mojom16VmRegionDataViewENS_9StructPtrINS3_8VmRegionEEEE9SerializeERS7_RNS0_15MessageFragmentINS3_8internal13VmRegion_DataEEE = comdat any

$_ZN4mojo8internal10SerializerIN22memory_instrumentation5mojom24GlobalMemoryDumpDataViewENS_9StructPtrINS3_16GlobalMemoryDumpEEEE9SerializeERS7_RNS0_15MessageFragmentINS3_8internal21GlobalMemoryDump_DataEEE = comdat any

$_ZN4mojo8internal10SerializerIN22memory_instrumentation5mojom25ProcessMemoryDumpDataViewEKNS_9StructPtrINS3_17ProcessMemoryDumpEEEE9SerializeERS8_RNS0_15MessageFragmentINS3_8internal22ProcessMemoryDump_DataEEE = comdat any

$_ZN4mojo8internal10SerializerINS_11MapDataViewINS_14StringDataViewEN22memory_instrumentation5mojom24AllocatorMemDumpDataViewEEEKN4base8flat_mapINSt3__112basic_stringIcNSA_11char_traitsIcEENSA_9allocatorIcEEEENS_9StructPtrINS5_16AllocatorMemDumpEEENSA_4lessIvEENSA_6vectorINSA_4pairISG_SJ_EENSE_ISO_EEEEEEE9SerializeERSS_RNS0_15MessageFragmentINS0_8Map_DataINS0_7PointerINS0_10Array_DataIcEEEENSX_INS5_8internal21AllocatorMemDump_DataEEEEEEEPKNS0_23ContainerValidateParamsE = comdat any

$_ZN4mojo8internal10SerializerIN22memory_instrumentation5mojom24AllocatorMemDumpDataViewEKNS_9StructPtrINS3_16AllocatorMemDumpEEEE9SerializeERS8_RNS0_15MessageFragmentINS3_8internal21AllocatorMemDump_DataEEE = comdat any

$_ZN4mojo8internal10SerializerINS_11MapDataViewINS_14StringDataViewEmEEKN4base8flat_mapINSt3__112basic_stringIcNS7_11char_traitsIcEENS7_9allocatorIcEEEEmNS7_4lessIvEENS7_6vectorINS7_4pairISD_mEENSB_ISI_EEEEEEE9SerializeERSM_RNS0_15MessageFragmentINS0_8Map_DataINS0_7PointerINS0_10Array_DataIcEEEEmEEEEPKNS0_23ContainerValidateParamsE = comdat any

$_ZN4mojo8internal15ArraySerializerINS_13ArrayDataViewINS_14StringDataViewEEENSt3__16vectorINS5_12basic_stringIcNS5_11char_traitsIcEENS5_9allocatorIcEEEENSA_ISC_EEEENS0_13ArrayIteratorINS_11ArrayTraitsISE_EESE_Lb0EEEvE19DeserializeElementsEPNS0_10Array_DataINS0_7PointerINSK_IcEEEEEEPSE_PNS_7MessageE = comdat any

$_ZN4mojo8internal10SerializerINS_13ArrayDataViewIN22memory_instrumentation5mojom29RawAllocatorDumpEntryDataViewEEENSt3__16vectorIN4base11trace_event19MemoryAllocatorDump5EntryENS7_9allocatorISC_EEEEE11DeserializeEPNS0_10Array_DataINS0_7PointerINS4_8internal26RawAllocatorDumpEntry_DataEEEEEPSF_PNS_7MessageE = comdat any

$_ZN4mojo11ArrayTraitsINSt3__16vectorIN4base11trace_event19MemoryAllocatorDump5EntryENS1_9allocatorIS6_EEEEE6ResizeERS9_m = comdat any

$_ZN4mojo8internal15ArraySerializerINS_13ArrayDataViewIN22memory_instrumentation5mojom28RawAllocatorDumpEdgeDataViewEEENSt3__16vectorIN4base11trace_event17ProcessMemoryDump23MemoryAllocatorDumpEdgeENS7_9allocatorISC_EEEENS0_13ArrayIteratorINS_11ArrayTraitsISF_EESF_Lb0EEEvE19DeserializeElementsEPNS0_10Array_DataINS0_7PointerINS4_8internal25RawAllocatorDumpEdge_DataEEEEEPSF_PNS_7MessageE = comdat any

$_ZN4mojo8internal10SerializerINS_13ArrayDataViewIN22memory_instrumentation5mojom24RawAllocatorDumpDataViewEEENSt3__16vectorINS7_10unique_ptrIN4base11trace_event19MemoryAllocatorDumpENS7_14default_deleteISC_EEEENS7_9allocatorISF_EEEEE11DeserializeEPNS0_10Array_DataINS0_7PointerINS4_8internal21RawAllocatorDump_DataEEEEEPSI_PNS_7MessageE = comdat any

$_ZN4mojo11ArrayTraitsINSt3__16vectorINS1_10unique_ptrIN4base11trace_event19MemoryAllocatorDumpENS1_14default_deleteIS6_EEEENS1_9allocatorIS9_EEEEE6ResizeERSC_m = comdat any

$_ZN4mojo8internal10SerializerINS_11MapDataViewINS_14StringDataViewEmEEN4base8flat_mapINSt3__112basic_stringIcNS7_11char_traitsIcEENS7_9allocatorIcEEEEmNS7_4lessIvEENS7_6vectorINS7_4pairISD_mEENSB_ISI_EEEEEEE11DeserializeEPNS0_8Map_DataINS0_7PointerINS0_10Array_DataIcEEEEmEEPSL_PNS_7MessageE = comdat any

$_ZN4mojo8internal15ArraySerializerINS_13ArrayDataViewINS_14StringDataViewEEENSt3__16vectorINS5_12basic_stringIcNS5_11char_traitsIcEENS5_9allocatorIcEEEENSA_ISC_EEEENS0_12MapKeyReaderIN4base8flat_mapISC_mNS5_4lessIvEENS6_INS5_4pairISC_mEENSA_ISL_EEEEEEEEvE19DeserializeElementsEPNS0_10Array_DataINS0_7PointerINSR_IcEEEEEEPSE_PNS_7MessageE = comdat any

$_ZN4base8internal9flat_treeINSt3__112basic_stringIcNS2_11char_traitsIcEENS2_9allocatorIcEEEENS0_8GetFirstENS2_4lessIvEENS2_6vectorINS2_4pairIS8_mEENS6_ISE_EEEEE16emplace_key_argsIS8_JSE_EEENSD_INS2_11__wrap_iterIPSE_EEbEERKT_DpOT0_ = comdat any

$_ZNSt3__16vectorINS_4pairINS_12basic_stringIcNS_11char_traitsIcEENS_9allocatorIcEEEEmEENS5_IS8_EEE7emplaceIJS8_EEENS_11__wrap_iterIPS8_EENSC_IPKS8_EEDpOT_ = comdat any

$_ZNSt3__114__split_bufferINS_4pairINS_12basic_stringIcNS_11char_traitsIcEENS_9allocatorIcEEEEmEERNS5_IS8_EEE12emplace_backIJS8_EEEvDpOT_ = comdat any

$_ZN4mojo8internal10SerializerINS_11MapDataViewINS_14StringDataViewEN22memory_instrumentation5mojom24AllocatorMemDumpDataViewEEEN4base8flat_mapINSt3__112basic_stringIcNSA_11char_traitsIcEENSA_9allocatorIcEEEENS_9StructPtrINS5_16AllocatorMemDumpEEENSA_4lessIvEENSA_6vectorINSA_4pairISG_SJ_EENSE_ISO_EEEEEEE11DeserializeEPNS0_8Map_DataINS0_7PointerINS0_10Array_DataIcEEEENSU_INS5_8internal21AllocatorMemDump_DataEEEEEPSR_PNS_7MessageE = comdat any

$_ZN4mojo8internal15ArraySerializerINS_13ArrayDataViewINS_14StringDataViewEEENSt3__16vectorINS5_12basic_stringIcNS5_11char_traitsIcEENS5_9allocatorIcEEEENSA_ISC_EEEENS0_12MapKeyReaderIN4base8flat_mapISC_NS_9StructPtrIN22memory_instrumentation5mojom16AllocatorMemDumpEEENS5_4lessIvEENS6_INS5_4pairISC_SM_EENSA_ISQ_EEEEEEEEvE19DeserializeElementsEPNS0_10Array_DataINS0_7PointerINSW_IcEEEEEEPSE_PNS_7MessageE = comdat any

$_ZN4mojo8internal15ArraySerializerINS_13ArrayDataViewIN22memory_instrumentation5mojom24AllocatorMemDumpDataViewEEENSt3__16vectorINS_9StructPtrINS4_16AllocatorMemDumpEEENS7_9allocatorISB_EEEENS0_14MapValueReaderIN4base8flat_mapINS7_12basic_stringIcNS7_11char_traitsIcEENSC_IcEEEESB_NS7_4lessIvEENS8_INS7_4pairISM_SB_EENSC_ISQ_EEEEEEEEvE19DeserializeElementsEPNS0_10Array_DataINS0_7PointerINS4_8internal21AllocatorMemDump_DataEEEEEPSE_PNS_7MessageE = comdat any

$_ZN4mojo11ArrayTraitsINSt3__16vectorINS_9StructPtrIN22memory_instrumentation5mojom16AllocatorMemDumpEEENS1_9allocatorIS7_EEEEE6ResizeERSA_m = comdat any

$_ZN4base8internal9flat_treeINSt3__112basic_stringIcNS2_11char_traitsIcEENS2_9allocatorIcEEEENS0_8GetFirstENS2_4lessIvEENS2_6vectorINS2_4pairIS8_N4mojo9StructPtrIN22memory_instrumentation5mojom16AllocatorMemDumpEEEEENS6_ISK_EEEEE7emplaceIJS8_SJ_EEENSD_INS2_11__wrap_iterIPSK_EEbEEDpOT_ = comdat any

$_ZN4base8internal9flat_treeINSt3__112basic_stringIcNS2_11char_traitsIcEENS2_9allocatorIcEEEENS0_8GetFirstENS2_4lessIvEENS2_6vectorINS2_4pairIS8_N4mojo9StructPtrIN22memory_instrumentation5mojom16AllocatorMemDumpEEEEENS6_ISK_EEEEE16emplace_key_argsIS8_JSK_EEENSD_INS2_11__wrap_iterIPSK_EEbEERKT_DpOT0_ = comdat any

$_ZNSt3__16vectorINS_4pairINS_12basic_stringIcNS_11char_traitsIcEENS_9allocatorIcEEEEN4mojo9StructPtrIN22memory_instrumentation5mojom16AllocatorMemDumpEEEEENS5_ISE_EEE7emplaceIJSE_EEENS_11__wrap_iterIPSE_EENSI_IPKSE_EEDpOT_ = comdat any

$_ZNSt3__14pairINS_12basic_stringIcNS_11char_traitsIcEENS_9allocatorIcEEEEN4mojo9StructPtrIN22memory_instrumentation5mojom16AllocatorMemDumpEEEEaSEOSD_ = comdat any

$_ZNSt3__114__split_bufferINS_4pairINS_12basic_stringIcNS_11char_traitsIcEENS_9allocatorIcEEEEN4mojo9StructPtrIN22memory_instrumentation5mojom16AllocatorMemDumpEEEEERNS5_ISE_EEE12emplace_backIJSE_EEEvDpOT_ = comdat any

$_ZNSt3__114__split_bufferINS_4pairINS_12basic_stringIcNS_11char_traitsIcEENS_9allocatorIcEEEEN4mojo9StructPtrIN22memory_instrumentation5mojom16AllocatorMemDumpEEEEERNS5_ISE_EEE17__destruct_at_endEPSE_ = comdat any

$_ZN4mojo8internal11DeserializeINS_14StringDataViewERPNS0_10Array_DataIcEEN4absl8optionalINSt3__112basic_stringIcNS9_11char_traitsIcEENS9_9allocatorIcEEEEEEJRPNS_7MessageEELPv0EEEbOT0_PT1_DpOT2_ = comdat any

$_ZN4mojo8internal15ArraySerializerINS_13ArrayDataViewIN22memory_instrumentation5mojom25ProcessMemoryDumpDataViewEEENSt3__16vectorINS_9StructPtrINS4_17ProcessMemoryDumpEEENS7_9allocatorISB_EEEENS0_13ArrayIteratorINS_11ArrayTraitsISE_EESE_Lb0EEEvE19DeserializeElementsEPNS0_10Array_DataINS0_7PointerINS4_8internal22ProcessMemoryDump_DataEEEEEPSE_PNS_7MessageE = comdat any

@_ZN22memory_instrumentation5mojom8VmRegion20kProtectionFlagsReadE = hidden local_unnamed_addr constant i32 4, align 4
@_ZN22memory_instrumentation5mojom8VmRegion21kProtectionFlagsWriteE = hidden local_unnamed_addr constant i32 2, align 4
@_ZN22memory_instrumentation5mojom8VmRegion20kProtectionFlagsExecE = hidden local_unnamed_addr constant i32 1, align 4
@_ZN22memory_instrumentation5mojom8VmRegion24kProtectionFlagsMayshareE = hidden local_unnamed_addr constant i32 128, align 4
@.str = private unnamed_addr constant [10 x i8] c"dump_guid\00", align 1
@.str.1 = private unnamed_addr constant [8 x i8] c"<value>\00", align 1
@.str.2 = private unnamed_addr constant [10 x i8] c"dump_type\00", align 1
@.str.3 = private unnamed_addr constant [16 x i8] c"level_of_detail\00", align 1
@.str.4 = private unnamed_addr constant [12 x i8] c"determinism\00", align 1
@.str.5 = private unnamed_addr constant [10 x i8] c"source_id\00", align 1
@.str.6 = private unnamed_addr constant [10 x i8] c"target_id\00", align 1
@.str.7 = private unnamed_addr constant [11 x i8] c"importance\00", align 1
@.str.8 = private unnamed_addr constant [12 x i8] c"overridable\00", align 1
@.str.9 = private unnamed_addr constant [5 x i8] c"name\00", align 1
@.str.10 = private unnamed_addr constant [6 x i8] c"units\00", align 1
@.str.11 = private unnamed_addr constant [6 x i8] c"value\00", align 1
@.str.12 = private unnamed_addr constant [3 x i8] c"id\00", align 1
@.str.13 = private unnamed_addr constant [14 x i8] c"absolute_name\00", align 1
@.str.14 = private unnamed_addr constant [5 x i8] c"weak\00", align 1
@.str.15 = private unnamed_addr constant [8 x i8] c"entries\00", align 1
@.str.16 = private unnamed_addr constant [21 x i8] c"allocator_dump_edges\00", align 1
@.str.17 = private unnamed_addr constant [16 x i8] c"allocator_dumps\00", align 1
@.str.18 = private unnamed_addr constant [14 x i8] c"start_address\00", align 1
@.str.19 = private unnamed_addr constant [14 x i8] c"size_in_bytes\00", align 1
@.str.20 = private unnamed_addr constant [17 x i8] c"module_timestamp\00", align 1
@.str.21 = private unnamed_addr constant [15 x i8] c"module_debugid\00", align 1
@.str.22 = private unnamed_addr constant [18 x i8] c"module_debug_path\00", align 1
@.str.23 = private unnamed_addr constant [17 x i8] c"protection_flags\00", align 1
@.str.24 = private unnamed_addr constant [12 x i8] c"mapped_file\00", align 1
@.str.25 = private unnamed_addr constant [34 x i8] c"byte_stats_private_dirty_resident\00", align 1
@.str.26 = private unnamed_addr constant [34 x i8] c"byte_stats_private_clean_resident\00", align 1
@.str.27 = private unnamed_addr constant [33 x i8] c"byte_stats_shared_dirty_resident\00", align 1
@.str.28 = private unnamed_addr constant [33 x i8] c"byte_stats_shared_clean_resident\00", align 1
@.str.29 = private unnamed_addr constant [19 x i8] c"byte_stats_swapped\00", align 1
@.str.30 = private unnamed_addr constant [12 x i8] c"byte_locked\00", align 1
@.str.31 = private unnamed_addr constant [33 x i8] c"byte_stats_proportional_resident\00", align 1
@.str.32 = private unnamed_addr constant [21 x i8] c"phys_footprint_bytes\00", align 1
@.str.33 = private unnamed_addr constant [15 x i8] c"internal_bytes\00", align 1
@.str.34 = private unnamed_addr constant [17 x i8] c"compressed_bytes\00", align 1
@.str.35 = private unnamed_addr constant [15 x i8] c"rss_anon_bytes\00", align 1
@.str.36 = private unnamed_addr constant [14 x i8] c"vm_swap_bytes\00", align 1
@.str.37 = private unnamed_addr constant [14 x i8] c"private_bytes\00", align 1
@.str.38 = private unnamed_addr constant [16 x i8] c"resident_set_kb\00", align 1
@.str.39 = private unnamed_addr constant [21 x i8] c"peak_resident_set_kb\00", align 1
@.str.40 = private unnamed_addr constant [23 x i8] c"is_peak_rss_resettable\00", align 1
@.str.41 = private unnamed_addr constant [27 x i8] c"platform_private_footprint\00", align 1
@.str.42 = private unnamed_addr constant [12 x i8] c"memory_maps\00", align 1
@.str.43 = private unnamed_addr constant [28 x i8] c"native_library_pages_bitmap\00", align 1
@.str.44 = private unnamed_addr constant [21 x i8] c"private_footprint_kb\00", align 1
@.str.45 = private unnamed_addr constant [20 x i8] c"shared_footprint_kb\00", align 1
@.str.46 = private unnamed_addr constant [26 x i8] c"private_footprint_swap_kb\00", align 1
@.str.47 = private unnamed_addr constant [16 x i8] c"numeric_entries\00", align 1
@.str.48 = private unnamed_addr constant [13 x i8] c"process_type\00", align 1
@.str.49 = private unnamed_addr constant [8 x i8] c"os_dump\00", align 1
@.str.50 = private unnamed_addr constant [23 x i8] c"chrome_allocator_dumps\00", align 1
@.str.51 = private unnamed_addr constant [4 x i8] c"pid\00", align 1
@.str.52 = private unnamed_addr constant [13 x i8] c"service_name\00", align 1
@.str.53 = private unnamed_addr constant [27 x i8] c"native_library_resident_kb\00", align 1
@.str.54 = private unnamed_addr constant [39 x i8] c"native_library_resident_not_ordered_kb\00", align 1
@.str.55 = private unnamed_addr constant [39 x i8] c"native_library_not_resident_ordered_kb\00", align 1
@.str.56 = private unnamed_addr constant [11 x i8] c"start_time\00", align 1
@.str.57 = private unnamed_addr constant [14 x i8] c"process_dumps\00", align 1
@.str.58 = private unnamed_addr constant [19 x i8] c"aggregated_metrics\00", align 1
@.str.59 = private unnamed_addr constant [5 x i8] c"json\00", align 1
@_ZN22memory_instrumentation5mojom13ClientProcess5Name_E = hidden constant [43 x i8] c"memory_instrumentation.mojom.ClientProcess\00", align 16
@_ZTVN22memory_instrumentation5mojom18ClientProcessProxyE = hidden unnamed_addr constant { [6 x i8*] } { [6 x i8*] [i8* null, i8* null, i8* bitcast (void (%"class.memory_instrumentation::mojom::ClientProcess"*)* @_ZN22memory_instrumentation5mojom13ClientProcessD2Ev to i8*), i8* bitcast (void (%"class.memory_instrumentation::mojom::ClientProcessProxy"*)* @_ZN22memory_instrumentation5mojom18ClientProcessProxyD0Ev to i8*), i8* bitcast (void (%"class.memory_instrumentation::mojom::ClientProcessProxy"*, %"struct.base::trace_event::MemoryDumpRequestArgs"*, %"class.base::OnceCallback"*)* @_ZN22memory_instrumentation5mojom18ClientProcessProxy23RequestChromeMemoryDumpERKN4base11trace_event21MemoryDumpRequestArgsENS2_12OnceCallbackIFvbmNSt3__110unique_ptrINS3_17ProcessMemoryDumpENS8_14default_deleteISA_EEEEEEE to i8*), i8* bitcast (void (%"class.memory_instrumentation::mojom::ClientProcessProxy"*, i32, %"class.std::__1::vector.146"*, %"class.base::OnceCallback.153"*)* @_ZN22memory_instrumentation5mojom18ClientProcessProxy19RequestOSMemoryDumpENS0_15MemoryMapOptionERKNSt3__16vectorIiNS3_9allocatorIiEEEEN4base12OnceCallbackIFvbNSA_8flat_mapIiN4mojo9StructPtrINS0_12RawOSMemDumpEEENS3_4lessIvEENS4_INS3_4pairIiSG_EENS5_ISK_EEEEEEEEE to i8*)] }, align 8
@_ZN22memory_instrumentation5mojomL28kClientProcessValidationInfoE = internal constant [2 x %"struct.std::__1::pair.212"] [%"struct.std::__1::pair.212" { i32 440579497, %"struct.mojo::internal::GenericValidationInfo" { i1 (i8*, %"class.mojo::internal::ValidationContext"*)* @_ZN22memory_instrumentation5mojom8internal49ClientProcess_RequestChromeMemoryDump_Params_Data8ValidateEPKvPN4mojo8internal17ValidationContextE, i1 (i8*, %"class.mojo::internal::ValidationContext"*)* @_ZN22memory_instrumentation5mojom8internal57ClientProcess_RequestChromeMemoryDump_ResponseParams_Data8ValidateEPKvPN4mojo8internal17ValidationContextE } }, %"struct.std::__1::pair.212" { i32 335459342, %"struct.mojo::internal::GenericValidationInfo" { i1 (i8*, %"class.mojo::internal::ValidationContext"*)* @_ZN22memory_instrumentation5mojom8internal45ClientProcess_RequestOSMemoryDump_Params_Data8ValidateEPKvPN4mojo8internal17ValidationContextE, i1 (i8*, %"class.mojo::internal::ValidationContext"*)* @_ZN22memory_instrumentation5mojom8internal53ClientProcess_RequestOSMemoryDump_ResponseParams_Data8ValidateEPKvPN4mojo8internal17ValidationContextE } }], align 16
@_ZN22memory_instrumentation5mojom12HeapProfiler5Name_E = hidden constant [42 x i8] c"memory_instrumentation.mojom.HeapProfiler\00", align 16
@_ZTVN22memory_instrumentation5mojom17HeapProfilerProxyE = hidden unnamed_addr constant { [5 x i8*] } { [5 x i8*] [i8* null, i8* null, i8* bitcast (void (%"class.memory_instrumentation::mojom::HeapProfiler"*)* @_ZN22memory_instrumentation5mojom12HeapProfilerD2Ev to i8*), i8* bitcast (void (%"class.memory_instrumentation::mojom::HeapProfilerProxy"*)* @_ZN22memory_instrumentation5mojom17HeapProfilerProxyD0Ev to i8*), i8* bitcast (void (%"class.memory_instrumentation::mojom::HeapProfilerProxy"*, i1, %"class.base::OnceCallback.213"*)* @_ZN22memory_instrumentation5mojom17HeapProfilerProxy23DumpProcessesForTracingEbN4base12OnceCallbackIFvNSt3__16vectorIN4mojo9StructPtrINS0_17HeapProfileResultEEENS4_9allocatorIS9_EEEEEEE to i8*)] }, align 8
@_ZN22memory_instrumentation5mojomL27kHeapProfilerValidationInfoE = internal constant [1 x %"struct.std::__1::pair.212"] [%"struct.std::__1::pair.212" { i32 1327924655, %"struct.mojo::internal::GenericValidationInfo" { i1 (i8*, %"class.mojo::internal::ValidationContext"*)* @_ZN22memory_instrumentation5mojom8internal48HeapProfiler_DumpProcessesForTracing_Params_Data8ValidateEPKvPN4mojo8internal17ValidationContextE, i1 (i8*, %"class.mojo::internal::ValidationContext"*)* @_ZN22memory_instrumentation5mojom8internal56HeapProfiler_DumpProcessesForTracing_ResponseParams_Data8ValidateEPKvPN4mojo8internal17ValidationContextE } }], align 16
@_ZN22memory_instrumentation5mojom18HeapProfilerHelper5Name_E = hidden constant [48 x i8] c"memory_instrumentation.mojom.HeapProfilerHelper\00", align 16
@_ZTVN22memory_instrumentation5mojom23HeapProfilerHelperProxyE = hidden unnamed_addr constant { [5 x i8*] } { [5 x i8*] [i8* null, i8* null, i8* bitcast (void (%"class.memory_instrumentation::mojom::HeapProfilerHelper"*)* @_ZN22memory_instrumentation5mojom18HeapProfilerHelperD2Ev to i8*), i8* bitcast (void (%"class.memory_instrumentation::mojom::HeapProfilerHelperProxy"*)* @_ZN22memory_instrumentation5mojom23HeapProfilerHelperProxyD0Ev to i8*), i8* bitcast (void (%"class.memory_instrumentation::mojom::HeapProfilerHelperProxy"*, %"class.std::__1::vector.146"*, %"class.base::OnceCallback.233"*)* @_ZN22memory_instrumentation5mojom23HeapProfilerHelperProxy27GetVmRegionsForHeapProfilerERKNSt3__16vectorIiNS2_9allocatorIiEEEEN4base12OnceCallbackIFvNS9_8flat_mapIiNS3_IN4mojo9StructPtrINS0_8VmRegionEEENS4_ISF_EEEENS2_4lessIvEENS3_INS2_4pairIiSH_EENS4_ISL_EEEEEEEEE to i8*)] }, align 8
@_ZN22memory_instrumentation5mojomL33kHeapProfilerHelperValidationInfoE = internal constant [1 x %"struct.std::__1::pair.212"] [%"struct.std::__1::pair.212" { i32 1115257854, %"struct.mojo::internal::GenericValidationInfo" { i1 (i8*, %"class.mojo::internal::ValidationContext"*)* @_ZN22memory_instrumentation5mojom8internal58HeapProfilerHelper_GetVmRegionsForHeapProfiler_Params_Data8ValidateEPKvPN4mojo8internal17ValidationContextE, i1 (i8*, %"class.mojo::internal::ValidationContext"*)* @_ZN22memory_instrumentation5mojom8internal66HeapProfilerHelper_GetVmRegionsForHeapProfiler_ResponseParams_Data8ValidateEPKvPN4mojo8internal17ValidationContextE } }], align 16
@_ZN22memory_instrumentation5mojom11Coordinator5Name_E = hidden constant [41 x i8] c"memory_instrumentation.mojom.Coordinator\00", align 16
@_ZTVN22memory_instrumentation5mojom16CoordinatorProxyE = hidden unnamed_addr constant { [8 x i8*] } { [8 x i8*] [i8* null, i8* null, i8* bitcast (void (%"class.memory_instrumentation::mojom::Coordinator"*)* @_ZN22memory_instrumentation5mojom11CoordinatorD2Ev to i8*), i8* bitcast (void (%"class.memory_instrumentation::mojom::CoordinatorProxy"*)* @_ZN22memory_instrumentation5mojom16CoordinatorProxyD0Ev to i8*), i8* bitcast (void (%"class.memory_instrumentation::mojom::CoordinatorProxy"*, i32, i32, i32, %"class.std::__1::vector.249"*, %"class.base::OnceCallback.256"*)* @_ZN22memory_instrumentation5mojom16CoordinatorProxy23RequestGlobalMemoryDumpEN4base11trace_event14MemoryDumpTypeENS3_23MemoryDumpLevelOfDetailENS3_21MemoryDumpDeterminismERKNSt3__16vectorINS7_12basic_stringIcNS7_11char_traitsIcEENS7_9allocatorIcEEEENSC_ISE_EEEENS2_12OnceCallbackIFvbN4mojo9StructPtrINS0_16GlobalMemoryDumpEEEEEE to i8*), i8* bitcast (void (%"class.memory_instrumentation::mojom::CoordinatorProxy"*, i32, %"class.std::__1::vector.249"*, %"class.base::OnceCallback.256"*)* @_ZN22memory_instrumentation5mojom16CoordinatorProxy29RequestGlobalMemoryDumpForPidEiRKNSt3__16vectorINS2_12basic_stringIcNS2_11char_traitsIcEENS2_9allocatorIcEEEENS7_IS9_EEEEN4base12OnceCallbackIFvbN4mojo9StructPtrINS0_16GlobalMemoryDumpEEEEEE to i8*), i8* bitcast (void (%"class.memory_instrumentation::mojom::CoordinatorProxy"*, i32, %"class.base::OnceCallback.256"*)* @_ZN22memory_instrumentation5mojom16CoordinatorProxy29RequestPrivateMemoryFootprintEiN4base12OnceCallbackIFvbN4mojo9StructPtrINS0_16GlobalMemoryDumpEEEEEE to i8*), i8* bitcast (void (%"class.memory_instrumentation::mojom::CoordinatorProxy"*, i32, i32, i32, %"class.base::OnceCallback.265"*)* @_ZN22memory_instrumentation5mojom16CoordinatorProxy39RequestGlobalMemoryDumpAndAppendToTraceEN4base11trace_event14MemoryDumpTypeENS3_23MemoryDumpLevelOfDetailENS3_21MemoryDumpDeterminismENS2_12OnceCallbackIFvbmEEE to i8*)] }, align 8
@_ZN22memory_instrumentation5mojomL26kCoordinatorValidationInfoE = internal constant [4 x %"struct.std::__1::pair.212"] [%"struct.std::__1::pair.212" { i32 374117976, %"struct.mojo::internal::GenericValidationInfo" { i1 (i8*, %"class.mojo::internal::ValidationContext"*)* @_ZN22memory_instrumentation5mojom8internal47Coordinator_RequestGlobalMemoryDump_Params_Data8ValidateEPKvPN4mojo8internal17ValidationContextE, i1 (i8*, %"class.mojo::internal::ValidationContext"*)* @_ZN22memory_instrumentation5mojom8internal55Coordinator_RequestGlobalMemoryDump_ResponseParams_Data8ValidateEPKvPN4mojo8internal17ValidationContextE } }, %"struct.std::__1::pair.212" { i32 460413920, %"struct.mojo::internal::GenericValidationInfo" { i1 (i8*, %"class.mojo::internal::ValidationContext"*)* @_ZN22memory_instrumentation5mojom8internal53Coordinator_RequestGlobalMemoryDumpForPid_Params_Data8ValidateEPKvPN4mojo8internal17ValidationContextE, i1 (i8*, %"class.mojo::internal::ValidationContext"*)* @_ZN22memory_instrumentation5mojom8internal61Coordinator_RequestGlobalMemoryDumpForPid_ResponseParams_Data8ValidateEPKvPN4mojo8internal17ValidationContextE } }, %"struct.std::__1::pair.212" { i32 813415775, %"struct.mojo::internal::GenericValidationInfo" { i1 (i8*, %"class.mojo::internal::ValidationContext"*)* @_ZN22memory_instrumentation5mojom8internal53Coordinator_RequestPrivateMemoryFootprint_Params_Data8ValidateEPKvPN4mojo8internal17ValidationContextE, i1 (i8*, %"class.mojo::internal::ValidationContext"*)* @_ZN22memory_instrumentation5mojom8internal61Coordinator_RequestPrivateMemoryFootprint_ResponseParams_Data8ValidateEPKvPN4mojo8internal17ValidationContextE } }, %"struct.std::__1::pair.212" { i32 688923625, %"struct.mojo::internal::GenericValidationInfo" { i1 (i8*, %"class.mojo::internal::ValidationContext"*)* @_ZN22memory_instrumentation5mojom8internal63Coordinator_RequestGlobalMemoryDumpAndAppendToTrace_Params_Data8ValidateEPKvPN4mojo8internal17ValidationContextE, i1 (i8*, %"class.mojo::internal::ValidationContext"*)* @_ZN22memory_instrumentation5mojom8internal71Coordinator_RequestGlobalMemoryDumpAndAppendToTrace_ResponseParams_Data8ValidateEPKvPN4mojo8internal17ValidationContextE } }], align 16
@_ZN22memory_instrumentation5mojom20CoordinatorConnector5Name_E = hidden constant [50 x i8] c"memory_instrumentation.mojom.CoordinatorConnector\00", align 16
@_ZTVN22memory_instrumentation5mojom25CoordinatorConnectorProxyE = hidden unnamed_addr constant { [5 x i8*] } { [5 x i8*] [i8* null, i8* null, i8* bitcast (void (%"class.memory_instrumentation::mojom::CoordinatorConnector"*)* @_ZN22memory_instrumentation5mojom20CoordinatorConnectorD2Ev to i8*), i8* bitcast (void (%"class.memory_instrumentation::mojom::CoordinatorConnectorProxy"*)* @_ZN22memory_instrumentation5mojom25CoordinatorConnectorProxyD0Ev to i8*), i8* bitcast (void (%"class.memory_instrumentation::mojom::CoordinatorConnectorProxy"*, %"class.mojo::PendingReceiver"*, %"class.mojo::PendingRemote"*)* @_ZN22memory_instrumentation5mojom25CoordinatorConnectorProxy25RegisterCoordinatorClientEN4mojo15PendingReceiverINS0_11CoordinatorEEENS2_13PendingRemoteINS0_13ClientProcessEEE to i8*)] }, align 8
@_ZN22memory_instrumentation5mojomL35kCoordinatorConnectorValidationInfoE = internal constant [1 x %"struct.std::__1::pair.212"] [%"struct.std::__1::pair.212" { i32 523071618, %"struct.mojo::internal::GenericValidationInfo" { i1 (i8*, %"class.mojo::internal::ValidationContext"*)* @_ZN22memory_instrumentation5mojom8internal58CoordinatorConnector_RegisterCoordinatorClient_Params_Data8ValidateEPKvPN4mojo8internal17ValidationContextE, i1 (i8*, %"class.mojo::internal::ValidationContext"*)* null } }], align 16
@_ZTVN22memory_instrumentation5mojom55ClientProcess_RequestChromeMemoryDump_ForwardToCallbackE = hidden unnamed_addr constant { [6 x i8*] } { [6 x i8*] [i8* null, i8* null, i8* bitcast (void (%"class.memory_instrumentation::mojom::ClientProcess_RequestChromeMemoryDump_ForwardToCallback"*)* @_ZN22memory_instrumentation5mojom55ClientProcess_RequestChromeMemoryDump_ForwardToCallbackD2Ev to i8*), i8* bitcast (void (%"class.memory_instrumentation::mojom::ClientProcess_RequestChromeMemoryDump_ForwardToCallback"*)* @_ZN22memory_instrumentation5mojom55ClientProcess_RequestChromeMemoryDump_ForwardToCallbackD0Ev to i8*), i8* bitcast (i1 (%"class.mojo::MessageReceiver"*)* @_ZN4mojo15MessageReceiver25PrefersSerializedMessagesEv to i8*), i8* bitcast (i1 (%"class.memory_instrumentation::mojom::ClientProcess_RequestChromeMemoryDump_ForwardToCallback"*, %"class.mojo::Message"*)* @_ZN22memory_instrumentation5mojom55ClientProcess_RequestChromeMemoryDump_ForwardToCallback6AcceptEPN4mojo7MessageE to i8*)] }, align 8
@_ZTVN22memory_instrumentation5mojom51ClientProcess_RequestOSMemoryDump_ForwardToCallbackE = hidden unnamed_addr constant { [6 x i8*] } { [6 x i8*] [i8* null, i8* null, i8* bitcast (void (%"class.memory_instrumentation::mojom::ClientProcess_RequestOSMemoryDump_ForwardToCallback"*)* @_ZN22memory_instrumentation5mojom51ClientProcess_RequestOSMemoryDump_ForwardToCallbackD2Ev to i8*), i8* bitcast (void (%"class.memory_instrumentation::mojom::ClientProcess_RequestOSMemoryDump_ForwardToCallback"*)* @_ZN22memory_instrumentation5mojom51ClientProcess_RequestOSMemoryDump_ForwardToCallbackD0Ev to i8*), i8* bitcast (i1 (%"class.mojo::MessageReceiver"*)* @_ZN4mojo15MessageReceiver25PrefersSerializedMessagesEv to i8*), i8* bitcast (i1 (%"class.memory_instrumentation::mojom::ClientProcess_RequestOSMemoryDump_ForwardToCallback"*, %"class.mojo::Message"*)* @_ZN22memory_instrumentation5mojom51ClientProcess_RequestOSMemoryDump_ForwardToCallback6AcceptEPN4mojo7MessageE to i8*)] }, align 8
@_ZTVN22memory_instrumentation5mojom29ClientProcessRequestValidatorE = hidden unnamed_addr constant { [6 x i8*] } { [6 x i8*] [i8* null, i8* null, i8* bitcast (void (%"class.mojo::MessageReceiver"*)* @_ZN4mojo15MessageReceiverD2Ev to i8*), i8* bitcast (void (%"class.memory_instrumentation::mojom::ClientProcessRequestValidator"*)* @_ZN22memory_instrumentation5mojom29ClientProcessRequestValidatorD0Ev to i8*), i8* bitcast (i1 (%"class.mojo::MessageReceiver"*)* @_ZN4mojo15MessageReceiver25PrefersSerializedMessagesEv to i8*), i8* bitcast (i1 (%"class.memory_instrumentation::mojom::ClientProcessRequestValidator"*, %"class.mojo::Message"*)* @_ZN22memory_instrumentation5mojom29ClientProcessRequestValidator6AcceptEPN4mojo7MessageE to i8*)] }, align 8
@_ZTVN22memory_instrumentation5mojom30ClientProcessResponseValidatorE = hidden unnamed_addr constant { [6 x i8*] } { [6 x i8*] [i8* null, i8* null, i8* bitcast (void (%"class.mojo::MessageReceiver"*)* @_ZN4mojo15MessageReceiverD2Ev to i8*), i8* bitcast (void (%"class.memory_instrumentation::mojom::ClientProcessResponseValidator"*)* @_ZN22memory_instrumentation5mojom30ClientProcessResponseValidatorD0Ev to i8*), i8* bitcast (i1 (%"class.mojo::MessageReceiver"*)* @_ZN4mojo15MessageReceiver25PrefersSerializedMessagesEv to i8*), i8* bitcast (i1 (%"class.memory_instrumentation::mojom::ClientProcessResponseValidator"*, %"class.mojo::Message"*)* @_ZN22memory_instrumentation5mojom30ClientProcessResponseValidator6AcceptEPN4mojo7MessageE to i8*)] }, align 8
@_ZTVN22memory_instrumentation5mojom54HeapProfiler_DumpProcessesForTracing_ForwardToCallbackE = hidden unnamed_addr constant { [6 x i8*] } { [6 x i8*] [i8* null, i8* null, i8* bitcast (void (%"class.memory_instrumentation::mojom::HeapProfiler_DumpProcessesForTracing_ForwardToCallback"*)* @_ZN22memory_instrumentation5mojom54HeapProfiler_DumpProcessesForTracing_ForwardToCallbackD2Ev to i8*), i8* bitcast (void (%"class.memory_instrumentation::mojom::HeapProfiler_DumpProcessesForTracing_ForwardToCallback"*)* @_ZN22memory_instrumentation5mojom54HeapProfiler_DumpProcessesForTracing_ForwardToCallbackD0Ev to i8*), i8* bitcast (i1 (%"class.mojo::MessageReceiver"*)* @_ZN4mojo15MessageReceiver25PrefersSerializedMessagesEv to i8*), i8* bitcast (i1 (%"class.memory_instrumentation::mojom::HeapProfiler_DumpProcessesForTracing_ForwardToCallback"*, %"class.mojo::Message"*)* @_ZN22memory_instrumentation5mojom54HeapProfiler_DumpProcessesForTracing_ForwardToCallback6AcceptEPN4mojo7MessageE to i8*)] }, align 8
@_ZTVN22memory_instrumentation5mojom28HeapProfilerRequestValidatorE = hidden unnamed_addr constant { [6 x i8*] } { [6 x i8*] [i8* null, i8* null, i8* bitcast (void (%"class.mojo::MessageReceiver"*)* @_ZN4mojo15MessageReceiverD2Ev to i8*), i8* bitcast (void (%"class.memory_instrumentation::mojom::HeapProfilerRequestValidator"*)* @_ZN22memory_instrumentation5mojom28HeapProfilerRequestValidatorD0Ev to i8*), i8* bitcast (i1 (%"class.mojo::MessageReceiver"*)* @_ZN4mojo15MessageReceiver25PrefersSerializedMessagesEv to i8*), i8* bitcast (i1 (%"class.memory_instrumentation::mojom::HeapProfilerRequestValidator"*, %"class.mojo::Message"*)* @_ZN22memory_instrumentation5mojom28HeapProfilerRequestValidator6AcceptEPN4mojo7MessageE to i8*)] }, align 8
@_ZTVN22memory_instrumentation5mojom29HeapProfilerResponseValidatorE = hidden unnamed_addr constant { [6 x i8*] } { [6 x i8*] [i8* null, i8* null, i8* bitcast (void (%"class.mojo::MessageReceiver"*)* @_ZN4mojo15MessageReceiverD2Ev to i8*), i8* bitcast (void (%"class.memory_instrumentation::mojom::HeapProfilerResponseValidator"*)* @_ZN22memory_instrumentation5mojom29HeapProfilerResponseValidatorD0Ev to i8*), i8* bitcast (i1 (%"class.mojo::MessageReceiver"*)* @_ZN4mojo15MessageReceiver25PrefersSerializedMessagesEv to i8*), i8* bitcast (i1 (%"class.memory_instrumentation::mojom::HeapProfilerResponseValidator"*, %"class.mojo::Message"*)* @_ZN22memory_instrumentation5mojom29HeapProfilerResponseValidator6AcceptEPN4mojo7MessageE to i8*)] }, align 8
@_ZTVN22memory_instrumentation5mojom64HeapProfilerHelper_GetVmRegionsForHeapProfiler_ForwardToCallbackE = hidden unnamed_addr constant { [6 x i8*] } { [6 x i8*] [i8* null, i8* null, i8* bitcast (void (%"class.memory_instrumentation::mojom::HeapProfilerHelper_GetVmRegionsForHeapProfiler_ForwardToCallback"*)* @_ZN22memory_instrumentation5mojom64HeapProfilerHelper_GetVmRegionsForHeapProfiler_ForwardToCallbackD2Ev to i8*), i8* bitcast (void (%"class.memory_instrumentation::mojom::HeapProfilerHelper_GetVmRegionsForHeapProfiler_ForwardToCallback"*)* @_ZN22memory_instrumentation5mojom64HeapProfilerHelper_GetVmRegionsForHeapProfiler_ForwardToCallbackD0Ev to i8*), i8* bitcast (i1 (%"class.mojo::MessageReceiver"*)* @_ZN4mojo15MessageReceiver25PrefersSerializedMessagesEv to i8*), i8* bitcast (i1 (%"class.memory_instrumentation::mojom::HeapProfilerHelper_GetVmRegionsForHeapProfiler_ForwardToCallback"*, %"class.mojo::Message"*)* @_ZN22memory_instrumentation5mojom64HeapProfilerHelper_GetVmRegionsForHeapProfiler_ForwardToCallback6AcceptEPN4mojo7MessageE to i8*)] }, align 8
@_ZTVN22memory_instrumentation5mojom34HeapProfilerHelperRequestValidatorE = hidden unnamed_addr constant { [6 x i8*] } { [6 x i8*] [i8* null, i8* null, i8* bitcast (void (%"class.mojo::MessageReceiver"*)* @_ZN4mojo15MessageReceiverD2Ev to i8*), i8* bitcast (void (%"class.memory_instrumentation::mojom::HeapProfilerHelperRequestValidator"*)* @_ZN22memory_instrumentation5mojom34HeapProfilerHelperRequestValidatorD0Ev to i8*), i8* bitcast (i1 (%"class.mojo::MessageReceiver"*)* @_ZN4mojo15MessageReceiver25PrefersSerializedMessagesEv to i8*), i8* bitcast (i1 (%"class.memory_instrumentation::mojom::HeapProfilerHelperRequestValidator"*, %"class.mojo::Message"*)* @_ZN22memory_instrumentation5mojom34HeapProfilerHelperRequestValidator6AcceptEPN4mojo7MessageE to i8*)] }, align 8
@_ZTVN22memory_instrumentation5mojom35HeapProfilerHelperResponseValidatorE = hidden unnamed_addr constant { [6 x i8*] } { [6 x i8*] [i8* null, i8* null, i8* bitcast (void (%"class.mojo::MessageReceiver"*)* @_ZN4mojo15MessageReceiverD2Ev to i8*), i8* bitcast (void (%"class.memory_instrumentation::mojom::HeapProfilerHelperResponseValidator"*)* @_ZN22memory_instrumentation5mojom35HeapProfilerHelperResponseValidatorD0Ev to i8*), i8* bitcast (i1 (%"class.mojo::MessageReceiver"*)* @_ZN4mojo15MessageReceiver25PrefersSerializedMessagesEv to i8*), i8* bitcast (i1 (%"class.memory_instrumentation::mojom::HeapProfilerHelperResponseValidator"*, %"class.mojo::Message"*)* @_ZN22memory_instrumentation5mojom35HeapProfilerHelperResponseValidator6AcceptEPN4mojo7MessageE to i8*)] }, align 8
@_ZTVN22memory_instrumentation5mojom53Coordinator_RequestGlobalMemoryDump_ForwardToCallbackE = hidden unnamed_addr constant { [6 x i8*] } { [6 x i8*] [i8* null, i8* null, i8* bitcast (void (%"class.memory_instrumentation::mojom::Coordinator_RequestGlobalMemoryDump_ForwardToCallback"*)* @_ZN22memory_instrumentation5mojom53Coordinator_RequestGlobalMemoryDump_ForwardToCallbackD2Ev to i8*), i8* bitcast (void (%"class.memory_instrumentation::mojom::Coordinator_RequestGlobalMemoryDump_ForwardToCallback"*)* @_ZN22memory_instrumentation5mojom53Coordinator_RequestGlobalMemoryDump_ForwardToCallbackD0Ev to i8*), i8* bitcast (i1 (%"class.mojo::MessageReceiver"*)* @_ZN4mojo15MessageReceiver25PrefersSerializedMessagesEv to i8*), i8* bitcast (i1 (%"class.memory_instrumentation::mojom::Coordinator_RequestGlobalMemoryDump_ForwardToCallback"*, %"class.mojo::Message"*)* @_ZN22memory_instrumentation5mojom53Coordinator_RequestGlobalMemoryDump_ForwardToCallback6AcceptEPN4mojo7MessageE to i8*)] }, align 8
@_ZTVN22memory_instrumentation5mojom59Coordinator_RequestGlobalMemoryDumpForPid_ForwardToCallbackE = hidden unnamed_addr constant { [6 x i8*] } { [6 x i8*] [i8* null, i8* null, i8* bitcast (void (%"class.memory_instrumentation::mojom::Coordinator_RequestGlobalMemoryDumpForPid_ForwardToCallback"*)* @_ZN22memory_instrumentation5mojom59Coordinator_RequestGlobalMemoryDumpForPid_ForwardToCallbackD2Ev to i8*), i8* bitcast (void (%"class.memory_instrumentation::mojom::Coordinator_RequestGlobalMemoryDumpForPid_ForwardToCallback"*)* @_ZN22memory_instrumentation5mojom59Coordinator_RequestGlobalMemoryDumpForPid_ForwardToCallbackD0Ev to i8*), i8* bitcast (i1 (%"class.mojo::MessageReceiver"*)* @_ZN4mojo15MessageReceiver25PrefersSerializedMessagesEv to i8*), i8* bitcast (i1 (%"class.memory_instrumentation::mojom::Coordinator_RequestGlobalMemoryDumpForPid_ForwardToCallback"*, %"class.mojo::Message"*)* @_ZN22memory_instrumentation5mojom59Coordinator_RequestGlobalMemoryDumpForPid_ForwardToCallback6AcceptEPN4mojo7MessageE to i8*)] }, align 8
@_ZTVN22memory_instrumentation5mojom59Coordinator_RequestPrivateMemoryFootprint_ForwardToCallbackE = hidden unnamed_addr constant { [6 x i8*] } { [6 x i8*] [i8* null, i8* null, i8* bitcast (void (%"class.memory_instrumentation::mojom::Coordinator_RequestPrivateMemoryFootprint_ForwardToCallback"*)* @_ZN22memory_instrumentation5mojom59Coordinator_RequestPrivateMemoryFootprint_ForwardToCallbackD2Ev to i8*), i8* bitcast (void (%"class.memory_instrumentation::mojom::Coordinator_RequestPrivateMemoryFootprint_ForwardToCallback"*)* @_ZN22memory_instrumentation5mojom59Coordinator_RequestPrivateMemoryFootprint_ForwardToCallbackD0Ev to i8*), i8* bitcast (i1 (%"class.mojo::MessageReceiver"*)* @_ZN4mojo15MessageReceiver25PrefersSerializedMessagesEv to i8*), i8* bitcast (i1 (%"class.memory_instrumentation::mojom::Coordinator_RequestPrivateMemoryFootprint_ForwardToCallback"*, %"class.mojo::Message"*)* @_ZN22memory_instrumentation5mojom59Coordinator_RequestPrivateMemoryFootprint_ForwardToCallback6AcceptEPN4mojo7MessageE to i8*)] }, align 8
@_ZTVN22memory_instrumentation5mojom69Coordinator_RequestGlobalMemoryDumpAndAppendToTrace_ForwardToCallbackE = hidden unnamed_addr constant { [6 x i8*] } { [6 x i8*] [i8* null, i8* null, i8* bitcast (void (%"class.memory_instrumentation::mojom::Coordinator_RequestGlobalMemoryDumpAndAppendToTrace_ForwardToCallback"*)* @_ZN22memory_instrumentation5mojom69Coordinator_RequestGlobalMemoryDumpAndAppendToTrace_ForwardToCallbackD2Ev to i8*), i8* bitcast (void (%"class.memory_instrumentation::mojom::Coordinator_RequestGlobalMemoryDumpAndAppendToTrace_ForwardToCallback"*)* @_ZN22memory_instrumentation5mojom69Coordinator_RequestGlobalMemoryDumpAndAppendToTrace_ForwardToCallbackD0Ev to i8*), i8* bitcast (i1 (%"class.mojo::MessageReceiver"*)* @_ZN4mojo15MessageReceiver25PrefersSerializedMessagesEv to i8*), i8* bitcast (i1 (%"class.memory_instrumentation::mojom::Coordinator_RequestGlobalMemoryDumpAndAppendToTrace_ForwardToCallback"*, %"class.mojo::Message"*)* @_ZN22memory_instrumentation5mojom69Coordinator_RequestGlobalMemoryDumpAndAppendToTrace_ForwardToCallback6AcceptEPN4mojo7MessageE to i8*)] }, align 8
@_ZTVN22memory_instrumentation5mojom27CoordinatorRequestValidatorE = hidden unnamed_addr constant { [6 x i8*] } { [6 x i8*] [i8* null, i8* null, i8* bitcast (void (%"class.mojo::MessageReceiver"*)* @_ZN4mojo15MessageReceiverD2Ev to i8*), i8* bitcast (void (%"class.memory_instrumentation::mojom::CoordinatorRequestValidator"*)* @_ZN22memory_instrumentation5mojom27CoordinatorRequestValidatorD0Ev to i8*), i8* bitcast (i1 (%"class.mojo::MessageReceiver"*)* @_ZN4mojo15MessageReceiver25PrefersSerializedMessagesEv to i8*), i8* bitcast (i1 (%"class.memory_instrumentation::mojom::CoordinatorRequestValidator"*, %"class.mojo::Message"*)* @_ZN22memory_instrumentation5mojom27CoordinatorRequestValidator6AcceptEPN4mojo7MessageE to i8*)] }, align 8
@_ZTVN22memory_instrumentation5mojom28CoordinatorResponseValidatorE = hidden unnamed_addr constant { [6 x i8*] } { [6 x i8*] [i8* null, i8* null, i8* bitcast (void (%"class.mojo::MessageReceiver"*)* @_ZN4mojo15MessageReceiverD2Ev to i8*), i8* bitcast (void (%"class.memory_instrumentation::mojom::CoordinatorResponseValidator"*)* @_ZN22memory_instrumentation5mojom28CoordinatorResponseValidatorD0Ev to i8*), i8* bitcast (i1 (%"class.mojo::MessageReceiver"*)* @_ZN4mojo15MessageReceiver25PrefersSerializedMessagesEv to i8*), i8* bitcast (i1 (%"class.memory_instrumentation::mojom::CoordinatorResponseValidator"*, %"class.mojo::Message"*)* @_ZN22memory_instrumentation5mojom28CoordinatorResponseValidator6AcceptEPN4mojo7MessageE to i8*)] }, align 8
@_ZTVN22memory_instrumentation5mojom36CoordinatorConnectorRequestValidatorE = hidden unnamed_addr constant { [6 x i8*] } { [6 x i8*] [i8* null, i8* null, i8* bitcast (void (%"class.mojo::MessageReceiver"*)* @_ZN4mojo15MessageReceiverD2Ev to i8*), i8* bitcast (void (%"class.memory_instrumentation::mojom::CoordinatorConnectorRequestValidator"*)* @_ZN22memory_instrumentation5mojom36CoordinatorConnectorRequestValidatorD0Ev to i8*), i8* bitcast (i1 (%"class.mojo::MessageReceiver"*)* @_ZN4mojo15MessageReceiver25PrefersSerializedMessagesEv to i8*), i8* bitcast (i1 (%"class.memory_instrumentation::mojom::CoordinatorConnectorRequestValidator"*, %"class.mojo::Message"*)* @_ZN22memory_instrumentation5mojom36CoordinatorConnectorRequestValidator6AcceptEPN4mojo7MessageE to i8*)] }, align 8

@_ZN22memory_instrumentation5mojom11RequestArgsC1Ev = hidden unnamed_addr alias void (%"class.memory_instrumentation::mojom::RequestArgs"*), void (%"class.memory_instrumentation::mojom::RequestArgs"*)* @_ZN22memory_instrumentation5mojom11RequestArgsC2Ev
@_ZN22memory_instrumentation5mojom11RequestArgsC1EmN4base11trace_event14MemoryDumpTypeENS3_23MemoryDumpLevelOfDetailENS3_21MemoryDumpDeterminismE = hidden unnamed_addr alias void (%"class.memory_instrumentation::mojom::RequestArgs"*, i64, i32, i32, i32), void (%"class.memory_instrumentation::mojom::RequestArgs"*, i64, i32, i32, i32)* @_ZN22memory_instrumentation5mojom11RequestArgsC2EmN4base11trace_event14MemoryDumpTypeENS3_23MemoryDumpLevelOfDetailENS3_21MemoryDumpDeterminismE
@_ZN22memory_instrumentation5mojom11RequestArgsD1Ev = hidden unnamed_addr alias void (%"class.memory_instrumentation::mojom::RequestArgs"*), void (%"class.memory_instrumentation::mojom::RequestArgs"*)* @_ZN22memory_instrumentation5mojom11RequestArgsD2Ev
@_ZN22memory_instrumentation5mojom20RawAllocatorDumpEdgeC1Ev = hidden unnamed_addr alias void (%"class.memory_instrumentation::mojom::RawAllocatorDumpEdge"*), void (%"class.memory_instrumentation::mojom::RawAllocatorDumpEdge"*)* @_ZN22memory_instrumentation5mojom20RawAllocatorDumpEdgeC2Ev
@_ZN22memory_instrumentation5mojom20RawAllocatorDumpEdgeC1Emmib = hidden unnamed_addr alias void (%"class.memory_instrumentation::mojom::RawAllocatorDumpEdge"*, i64, i64, i32, i1), void (%"class.memory_instrumentation::mojom::RawAllocatorDumpEdge"*, i64, i64, i32, i1)* @_ZN22memory_instrumentation5mojom20RawAllocatorDumpEdgeC2Emmib
@_ZN22memory_instrumentation5mojom20RawAllocatorDumpEdgeD1Ev = hidden unnamed_addr alias void (%"class.memory_instrumentation::mojom::RawAllocatorDumpEdge"*), void (%"class.memory_instrumentation::mojom::RawAllocatorDumpEdge"*)* @_ZN22memory_instrumentation5mojom20RawAllocatorDumpEdgeD2Ev
@_ZN22memory_instrumentation5mojom21RawAllocatorDumpEntryC1Ev = hidden unnamed_addr alias void (%"class.memory_instrumentation::mojom::RawAllocatorDumpEntry"*), void (%"class.memory_instrumentation::mojom::RawAllocatorDumpEntry"*)* @_ZN22memory_instrumentation5mojom21RawAllocatorDumpEntryC2Ev
@_ZN22memory_instrumentation5mojom21RawAllocatorDumpEntryC1ERKNSt3__112basic_stringIcNS2_11char_traitsIcEENS2_9allocatorIcEEEESA_N4mojo9StructPtrINS0_26RawAllocatorDumpEntryValueEEE = hidden unnamed_addr alias void (%"class.memory_instrumentation::mojom::RawAllocatorDumpEntry"*, %"class.std::__1::basic_string"*, %"class.std::__1::basic_string"*, %"class.mojo::StructPtr"*), void (%"class.memory_instrumentation::mojom::RawAllocatorDumpEntry"*, %"class.std::__1::basic_string"*, %"class.std::__1::basic_string"*, %"class.mojo::StructPtr"*)* @_ZN22memory_instrumentation5mojom21RawAllocatorDumpEntryC2ERKNSt3__112basic_stringIcNS2_11char_traitsIcEENS2_9allocatorIcEEEESA_N4mojo9StructPtrINS0_26RawAllocatorDumpEntryValueEEE
@_ZN22memory_instrumentation5mojom21RawAllocatorDumpEntryD1Ev = hidden unnamed_addr alias void (%"class.memory_instrumentation::mojom::RawAllocatorDumpEntry"*), void (%"class.memory_instrumentation::mojom::RawAllocatorDumpEntry"*)* @_ZN22memory_instrumentation5mojom21RawAllocatorDumpEntryD2Ev
@_ZN22memory_instrumentation5mojom16RawAllocatorDumpC1Ev = hidden unnamed_addr alias void (%"class.memory_instrumentation::mojom::RawAllocatorDump"*), void (%"class.memory_instrumentation::mojom::RawAllocatorDump"*)* @_ZN22memory_instrumentation5mojom16RawAllocatorDumpC2Ev
@_ZN22memory_instrumentation5mojom16RawAllocatorDumpC1EmRKNSt3__112basic_stringIcNS2_11char_traitsIcEENS2_9allocatorIcEEEEbN4base11trace_event23MemoryDumpLevelOfDetailENS2_6vectorINSC_19MemoryAllocatorDump5EntryENS6_ISG_EEEE = hidden unnamed_addr alias void (%"class.memory_instrumentation::mojom::RawAllocatorDump"*, i64, %"class.std::__1::basic_string"*, i1, i32, %"class.std::__1::vector.33"*), void (%"class.memory_instrumentation::mojom::RawAllocatorDump"*, i64, %"class.std::__1::basic_string"*, i1, i32, %"class.std::__1::vector.33"*)* @_ZN22memory_instrumentation5mojom16RawAllocatorDumpC2EmRKNSt3__112basic_stringIcNS2_11char_traitsIcEENS2_9allocatorIcEEEEbN4base11trace_event23MemoryDumpLevelOfDetailENS2_6vectorINSC_19MemoryAllocatorDump5EntryENS6_ISG_EEEE
@_ZN22memory_instrumentation5mojom16RawAllocatorDumpD1Ev = hidden unnamed_addr alias void (%"class.memory_instrumentation::mojom::RawAllocatorDump"*), void (%"class.memory_instrumentation::mojom::RawAllocatorDump"*)* @_ZN22memory_instrumentation5mojom16RawAllocatorDumpD2Ev
@_ZN22memory_instrumentation5mojom20RawProcessMemoryDumpC1Ev = hidden unnamed_addr alias void (%"class.memory_instrumentation::mojom::RawProcessMemoryDump"*), void (%"class.memory_instrumentation::mojom::RawProcessMemoryDump"*)* @_ZN22memory_instrumentation5mojom20RawProcessMemoryDumpC2Ev
@_ZN22memory_instrumentation5mojom20RawProcessMemoryDumpC1EN4base11trace_event23MemoryDumpLevelOfDetailENSt3__16vectorINS3_17ProcessMemoryDump23MemoryAllocatorDumpEdgeENS5_9allocatorIS8_EEEENS6_INS5_10unique_ptrINS3_19MemoryAllocatorDumpENS5_14default_deleteISD_EEEENS9_ISG_EEEE = hidden unnamed_addr alias void (%"class.memory_instrumentation::mojom::RawProcessMemoryDump"*, i32, %"class.std::__1::vector.40"*, %"class.std::__1::vector.47"*), void (%"class.memory_instrumentation::mojom::RawProcessMemoryDump"*, i32, %"class.std::__1::vector.40"*, %"class.std::__1::vector.47"*)* @_ZN22memory_instrumentation5mojom20RawProcessMemoryDumpC2EN4base11trace_event23MemoryDumpLevelOfDetailENSt3__16vectorINS3_17ProcessMemoryDump23MemoryAllocatorDumpEdgeENS5_9allocatorIS8_EEEENS6_INS5_10unique_ptrINS3_19MemoryAllocatorDumpENS5_14default_deleteISD_EEEENS9_ISG_EEEE
@_ZN22memory_instrumentation5mojom20RawProcessMemoryDumpD1Ev = hidden unnamed_addr alias void (%"class.memory_instrumentation::mojom::RawProcessMemoryDump"*), void (%"class.memory_instrumentation::mojom::RawProcessMemoryDump"*)* @_ZN22memory_instrumentation5mojom20RawProcessMemoryDumpD2Ev
@_ZN22memory_instrumentation5mojom8VmRegionC1Ev = hidden unnamed_addr alias void (%"class.memory_instrumentation::mojom::VmRegion"*), void (%"class.memory_instrumentation::mojom::VmRegion"*)* @_ZN22memory_instrumentation5mojom8VmRegionC2Ev
@_ZN22memory_instrumentation5mojom8VmRegionC1EmmmRKNSt3__112basic_stringIcNS2_11char_traitsIcEENS2_9allocatorIcEEEESA_jSA_mmmmmmm = hidden unnamed_addr alias void (%"class.memory_instrumentation::mojom::VmRegion"*, i64, i64, i64, %"class.std::__1::basic_string"*, %"class.std::__1::basic_string"*, i32, %"class.std::__1::basic_string"*, i64, i64, i64, i64, i64, i64, i64), void (%"class.memory_instrumentation::mojom::VmRegion"*, i64, i64, i64, %"class.std::__1::basic_string"*, %"class.std::__1::basic_string"*, i32, %"class.std::__1::basic_string"*, i64, i64, i64, i64, i64, i64, i64)* @_ZN22memory_instrumentation5mojom8VmRegionC2EmmmRKNSt3__112basic_stringIcNS2_11char_traitsIcEENS2_9allocatorIcEEEESA_jSA_mmmmmmm
@_ZN22memory_instrumentation5mojom8VmRegionD1Ev = hidden unnamed_addr alias void (%"class.memory_instrumentation::mojom::VmRegion"*), void (%"class.memory_instrumentation::mojom::VmRegion"*)* @_ZN22memory_instrumentation5mojom8VmRegionD2Ev
@_ZN22memory_instrumentation5mojom24PlatformPrivateFootprintC1Ev = hidden unnamed_addr alias void (%"class.memory_instrumentation::mojom::PlatformPrivateFootprint"*), void (%"class.memory_instrumentation::mojom::PlatformPrivateFootprint"*)* @_ZN22memory_instrumentation5mojom24PlatformPrivateFootprintC2Ev
@_ZN22memory_instrumentation5mojom24PlatformPrivateFootprintC1Emmmmmm = hidden unnamed_addr alias void (%"class.memory_instrumentation::mojom::PlatformPrivateFootprint"*, i64, i64, i64, i64, i64, i64), void (%"class.memory_instrumentation::mojom::PlatformPrivateFootprint"*, i64, i64, i64, i64, i64, i64)* @_ZN22memory_instrumentation5mojom24PlatformPrivateFootprintC2Emmmmmm
@_ZN22memory_instrumentation5mojom24PlatformPrivateFootprintD1Ev = hidden unnamed_addr alias void (%"class.memory_instrumentation::mojom::PlatformPrivateFootprint"*), void (%"class.memory_instrumentation::mojom::PlatformPrivateFootprint"*)* @_ZN22memory_instrumentation5mojom24PlatformPrivateFootprintD2Ev
@_ZN22memory_instrumentation5mojom12RawOSMemDumpC1Ev = hidden unnamed_addr alias void (%"class.memory_instrumentation::mojom::RawOSMemDump"*), void (%"class.memory_instrumentation::mojom::RawOSMemDump"*)* @_ZN22memory_instrumentation5mojom12RawOSMemDumpC2Ev
@_ZN22memory_instrumentation5mojom12RawOSMemDumpC1EjjbN4mojo9StructPtrINS0_24PlatformPrivateFootprintEEENSt3__16vectorINS3_INS0_8VmRegionEEENS6_9allocatorIS9_EEEENS7_IhNSA_IhEEEE = hidden unnamed_addr alias void (%"class.memory_instrumentation::mojom::RawOSMemDump"*, i32, i32, i1, %"class.mojo::StructPtr.61"*, %"class.std::__1::vector.68"*, %"class.std::__1::vector.82"*), void (%"class.memory_instrumentation::mojom::RawOSMemDump"*, i32, i32, i1, %"class.mojo::StructPtr.61"*, %"class.std::__1::vector.68"*, %"class.std::__1::vector.82"*)* @_ZN22memory_instrumentation5mojom12RawOSMemDumpC2EjjbN4mojo9StructPtrINS0_24PlatformPrivateFootprintEEENSt3__16vectorINS3_INS0_8VmRegionEEENS6_9allocatorIS9_EEEENS7_IhNSA_IhEEEE
@_ZN22memory_instrumentation5mojom12RawOSMemDumpD1Ev = hidden unnamed_addr alias void (%"class.memory_instrumentation::mojom::RawOSMemDump"*), void (%"class.memory_instrumentation::mojom::RawOSMemDump"*)* @_ZN22memory_instrumentation5mojom12RawOSMemDumpD2Ev
@_ZN22memory_instrumentation5mojom9OSMemDumpC1Ev = hidden unnamed_addr alias void (%"class.memory_instrumentation::mojom::OSMemDump"*), void (%"class.memory_instrumentation::mojom::OSMemDump"*)* @_ZN22memory_instrumentation5mojom9OSMemDumpC2Ev
@_ZN22memory_instrumentation5mojom9OSMemDumpC1Ejjbjjj = hidden unnamed_addr alias void (%"class.memory_instrumentation::mojom::OSMemDump"*, i32, i32, i1, i32, i32, i32), void (%"class.memory_instrumentation::mojom::OSMemDump"*, i32, i32, i1, i32, i32, i32)* @_ZN22memory_instrumentation5mojom9OSMemDumpC2Ejjbjjj
@_ZN22memory_instrumentation5mojom9OSMemDumpD1Ev = hidden unnamed_addr alias void (%"class.memory_instrumentation::mojom::OSMemDump"*), void (%"class.memory_instrumentation::mojom::OSMemDump"*)* @_ZN22memory_instrumentation5mojom9OSMemDumpD2Ev
@_ZN22memory_instrumentation5mojom16AllocatorMemDumpC1Ev = hidden unnamed_addr alias void (%"class.memory_instrumentation::mojom::AllocatorMemDump"*), void (%"class.memory_instrumentation::mojom::AllocatorMemDump"*)* @_ZN22memory_instrumentation5mojom16AllocatorMemDumpC2Ev
@_ZN22memory_instrumentation5mojom16AllocatorMemDumpC1ERKN4base8flat_mapINSt3__112basic_stringIcNS4_11char_traitsIcEENS4_9allocatorIcEEEEmNS4_4lessIvEENS4_6vectorINS4_4pairISA_mEENS8_ISF_EEEEEE = hidden unnamed_addr alias void (%"class.memory_instrumentation::mojom::AllocatorMemDump"*, %"class.base::flat_map"*), void (%"class.memory_instrumentation::mojom::AllocatorMemDump"*, %"class.base::flat_map"*)* @_ZN22memory_instrumentation5mojom16AllocatorMemDumpC2ERKN4base8flat_mapINSt3__112basic_stringIcNS4_11char_traitsIcEENS4_9allocatorIcEEEEmNS4_4lessIvEENS4_6vectorINS4_4pairISA_mEENS8_ISF_EEEEEE
@_ZN22memory_instrumentation5mojom16AllocatorMemDumpD1Ev = hidden unnamed_addr alias void (%"class.memory_instrumentation::mojom::AllocatorMemDump"*), void (%"class.memory_instrumentation::mojom::AllocatorMemDump"*)* @_ZN22memory_instrumentation5mojom16AllocatorMemDumpD2Ev
@_ZN22memory_instrumentation5mojom17ProcessMemoryDumpC1Ev = hidden unnamed_addr alias void (%"class.memory_instrumentation::mojom::ProcessMemoryDump"*), void (%"class.memory_instrumentation::mojom::ProcessMemoryDump"*)* @_ZN22memory_instrumentation5mojom17ProcessMemoryDumpC2Ev
@_ZN22memory_instrumentation5mojom17ProcessMemoryDumpC1ENS0_11ProcessTypeEN4mojo9StructPtrINS0_9OSMemDumpEEEN4base8flat_mapINSt3__112basic_stringIcNS9_11char_traitsIcEENS9_9allocatorIcEEEENS4_INS0_16AllocatorMemDumpEEENS9_4lessIvEENS9_6vectorINS9_4pairISF_SH_EENSD_ISM_EEEEEEiRKN4absl8optionalISF_EE = hidden unnamed_addr alias void (%"class.memory_instrumentation::mojom::ProcessMemoryDump"*, i32, %"class.mojo::StructPtr.96"*, %"class.base::flat_map.103"*, i32, %"class.absl::optional.120"*), void (%"class.memory_instrumentation::mojom::ProcessMemoryDump"*, i32, %"class.mojo::StructPtr.96"*, %"class.base::flat_map.103"*, i32, %"class.absl::optional.120"*)* @_ZN22memory_instrumentation5mojom17ProcessMemoryDumpC2ENS0_11ProcessTypeEN4mojo9StructPtrINS0_9OSMemDumpEEEN4base8flat_mapINSt3__112basic_stringIcNS9_11char_traitsIcEENS9_9allocatorIcEEEENS4_INS0_16AllocatorMemDumpEEENS9_4lessIvEENS9_6vectorINS9_4pairISF_SH_EENSD_ISM_EEEEEEiRKN4absl8optionalISF_EE
@_ZN22memory_instrumentation5mojom17ProcessMemoryDumpD1Ev = hidden unnamed_addr alias void (%"class.memory_instrumentation::mojom::ProcessMemoryDump"*), void (%"class.memory_instrumentation::mojom::ProcessMemoryDump"*)* @_ZN22memory_instrumentation5mojom17ProcessMemoryDumpD2Ev
@_ZN22memory_instrumentation5mojom17AggregatedMetricsC1Ev = hidden unnamed_addr alias void (%"class.memory_instrumentation::mojom::AggregatedMetrics"*), void (%"class.memory_instrumentation::mojom::AggregatedMetrics"*)* @_ZN22memory_instrumentation5mojom17AggregatedMetricsC2Ev
@_ZN22memory_instrumentation5mojom17AggregatedMetricsC1Eiii = hidden unnamed_addr alias void (%"class.memory_instrumentation::mojom::AggregatedMetrics"*, i32, i32, i32), void (%"class.memory_instrumentation::mojom::AggregatedMetrics"*, i32, i32, i32)* @_ZN22memory_instrumentation5mojom17AggregatedMetricsC2Eiii
@_ZN22memory_instrumentation5mojom17AggregatedMetricsD1Ev = hidden unnamed_addr alias void (%"class.memory_instrumentation::mojom::AggregatedMetrics"*), void (%"class.memory_instrumentation::mojom::AggregatedMetrics"*)* @_ZN22memory_instrumentation5mojom17AggregatedMetricsD2Ev
@_ZN22memory_instrumentation5mojom16GlobalMemoryDumpC1Ev = hidden unnamed_addr alias void (%"class.memory_instrumentation::mojom::GlobalMemoryDump"*), void (%"class.memory_instrumentation::mojom::GlobalMemoryDump"*)* @_ZN22memory_instrumentation5mojom16GlobalMemoryDumpC2Ev
@_ZN22memory_instrumentation5mojom16GlobalMemoryDumpC1EN4base9TimeTicksENSt3__16vectorIN4mojo9StructPtrINS0_17ProcessMemoryDumpEEENS4_9allocatorIS9_EEEENS6_16InlinedStructPtrINS0_17AggregatedMetricsEEE = hidden unnamed_addr alias void (%"class.memory_instrumentation::mojom::GlobalMemoryDump"*, i64, %"class.std::__1::vector.125"*, %"class.mojo::InlinedStructPtr"*), void (%"class.memory_instrumentation::mojom::GlobalMemoryDump"*, i64, %"class.std::__1::vector.125"*, %"class.mojo::InlinedStructPtr"*)* @_ZN22memory_instrumentation5mojom16GlobalMemoryDumpC2EN4base9TimeTicksENSt3__16vectorIN4mojo9StructPtrINS0_17ProcessMemoryDumpEEENS4_9allocatorIS9_EEEENS6_16InlinedStructPtrINS0_17AggregatedMetricsEEE
@_ZN22memory_instrumentation5mojom16GlobalMemoryDumpD1Ev = hidden unnamed_addr alias void (%"class.memory_instrumentation::mojom::GlobalMemoryDump"*), void (%"class.memory_instrumentation::mojom::GlobalMemoryDump"*)* @_ZN22memory_instrumentation5mojom16GlobalMemoryDumpD2Ev
@_ZN22memory_instrumentation5mojom17HeapProfileResultC1Ev = hidden unnamed_addr alias void (%"class.memory_instrumentation::mojom::HeapProfileResult"*), void (%"class.memory_instrumentation::mojom::HeapProfileResult"*)* @_ZN22memory_instrumentation5mojom17HeapProfileResultC2Ev
@_ZN22memory_instrumentation5mojom17HeapProfileResultC1EiRKNSt3__112basic_stringIcNS2_11char_traitsIcEENS2_9allocatorIcEEEE = hidden unnamed_addr alias void (%"class.memory_instrumentation::mojom::HeapProfileResult"*, i32, %"class.std::__1::basic_string"*), void (%"class.memory_instrumentation::mojom::HeapProfileResult"*, i32, %"class.std::__1::basic_string"*)* @_ZN22memory_instrumentation5mojom17HeapProfileResultC2EiRKNSt3__112basic_stringIcNS2_11char_traitsIcEENS2_9allocatorIcEEEE
@_ZN22memory_instrumentation5mojom17HeapProfileResultD1Ev = hidden unnamed_addr alias void (%"class.memory_instrumentation::mojom::HeapProfileResult"*), void (%"class.memory_instrumentation::mojom::HeapProfileResult"*)* @_ZN22memory_instrumentation5mojom17HeapProfileResultD2Ev
@_ZN22memory_instrumentation5mojom26RawAllocatorDumpEntryValueC1Ev = hidden unnamed_addr alias void (%"class.memory_instrumentation::mojom::RawAllocatorDumpEntryValue"*), void (%"class.memory_instrumentation::mojom::RawAllocatorDumpEntryValue"*)* @_ZN22memory_instrumentation5mojom26RawAllocatorDumpEntryValueC2Ev
@_ZN22memory_instrumentation5mojom26RawAllocatorDumpEntryValueD1Ev = hidden unnamed_addr alias void (%"class.memory_instrumentation::mojom::RawAllocatorDumpEntryValue"*), void (%"class.memory_instrumentation::mojom::RawAllocatorDumpEntryValue"*)* @_ZN22memory_instrumentation5mojom26RawAllocatorDumpEntryValueD2Ev
@_ZN22memory_instrumentation5mojom18ClientProcessProxyC1EPN4mojo28MessageReceiverWithResponderE = hidden unnamed_addr alias void (%"class.memory_instrumentation::mojom::ClientProcessProxy"*, %"class.mojo::MessageReceiverWithResponder"*), void (%"class.memory_instrumentation::mojom::ClientProcessProxy"*, %"class.mojo::MessageReceiverWithResponder"*)* @_ZN22memory_instrumentation5mojom18ClientProcessProxyC2EPN4mojo28MessageReceiverWithResponderE
@_ZN22memory_instrumentation5mojom17HeapProfilerProxyC1EPN4mojo28MessageReceiverWithResponderE = hidden unnamed_addr alias void (%"class.memory_instrumentation::mojom::HeapProfilerProxy"*, %"class.mojo::MessageReceiverWithResponder"*), void (%"class.memory_instrumentation::mojom::HeapProfilerProxy"*, %"class.mojo::MessageReceiverWithResponder"*)* @_ZN22memory_instrumentation5mojom17HeapProfilerProxyC2EPN4mojo28MessageReceiverWithResponderE
@_ZN22memory_instrumentation5mojom23HeapProfilerHelperProxyC1EPN4mojo28MessageReceiverWithResponderE = hidden unnamed_addr alias void (%"class.memory_instrumentation::mojom::HeapProfilerHelperProxy"*, %"class.mojo::MessageReceiverWithResponder"*), void (%"class.memory_instrumentation::mojom::HeapProfilerHelperProxy"*, %"class.mojo::MessageReceiverWithResponder"*)* @_ZN22memory_instrumentation5mojom23HeapProfilerHelperProxyC2EPN4mojo28MessageReceiverWithResponderE
@_ZN22memory_instrumentation5mojom16CoordinatorProxyC1EPN4mojo28MessageReceiverWithResponderE = hidden unnamed_addr alias void (%"class.memory_instrumentation::mojom::CoordinatorProxy"*, %"class.mojo::MessageReceiverWithResponder"*), void (%"class.memory_instrumentation::mojom::CoordinatorProxy"*, %"class.mojo::MessageReceiverWithResponder"*)* @_ZN22memory_instrumentation5mojom16CoordinatorProxyC2EPN4mojo28MessageReceiverWithResponderE
@_ZN22memory_instrumentation5mojom25CoordinatorConnectorProxyC1EPN4mojo28MessageReceiverWithResponderE = hidden unnamed_addr alias void (%"class.memory_instrumentation::mojom::CoordinatorConnectorProxy"*, %"class.mojo::MessageReceiverWithResponder"*), void (%"class.memory_instrumentation::mojom::CoordinatorConnectorProxy"*, %"class.mojo::MessageReceiverWithResponder"*)* @_ZN22memory_instrumentation5mojom25CoordinatorConnectorProxyC2EPN4mojo28MessageReceiverWithResponderE

; Function Attrs: nofree norecurse nounwind ssp uwtable writeonly
define hidden void @_ZN22memory_instrumentation5mojom11RequestArgsC2Ev(%"class.memory_instrumentation::mojom::RequestArgs"* nocapture) unnamed_addr #0 align 2 {
  %2 = bitcast %"class.memory_instrumentation::mojom::RequestArgs"* %0 to i8*
  call void @llvm.memset.p0i8.i64(i8* align 8 %2, i8 0, i64 20, i1 false)
  ret void
}

; Function Attrs: nofree norecurse nounwind ssp uwtable writeonly
define hidden void @_ZN22memory_instrumentation5mojom11RequestArgsC2EmN4base11trace_event14MemoryDumpTypeENS3_23MemoryDumpLevelOfDetailENS3_21MemoryDumpDeterminismE(%"class.memory_instrumentation::mojom::RequestArgs"* nocapture, i64, i32, i32, i32) unnamed_addr #0 align 2 {
  %6 = getelementptr inbounds %"class.memory_instrumentation::mojom::RequestArgs", %"class.memory_instrumentation::mojom::RequestArgs"* %0, i64 0, i32 0
  store i64 %1, i64* %6, align 8
  %7 = getelementptr inbounds %"class.memory_instrumentation::mojom::RequestArgs", %"class.memory_instrumentation::mojom::RequestArgs"* %0, i64 0, i32 1
  store i32 %2, i32* %7, align 8
  %8 = getelementptr inbounds %"class.memory_instrumentation::mojom::RequestArgs", %"class.memory_instrumentation::mojom::RequestArgs"* %0, i64 0, i32 2
  store i32 %3, i32* %8, align 4
  %9 = getelementptr inbounds %"class.memory_instrumentation::mojom::RequestArgs", %"class.memory_instrumentation::mojom::RequestArgs"* %0, i64 0, i32 3
  store i32 %4, i32* %9, align 8
  ret void
}

; Function Attrs: norecurse nounwind readnone ssp uwtable
define hidden void @_ZN22memory_instrumentation5mojom11RequestArgsD2Ev(%"class.memory_instrumentation::mojom::RequestArgs"* nocapture) unnamed_addr #1 align 2 {
  ret void
}

; Function Attrs: nounwind ssp uwtable
define hidden void @_ZNK22memory_instrumentation5mojom11RequestArgs14WriteIntoTraceEN8perfetto11TracedValueE(%"class.memory_instrumentation::mojom::RequestArgs"* nocapture readonly, %"class.perfetto::TracedValue"*) local_unnamed_addr #2 align 2 {
  %3 = alloca %"class.perfetto::TracedValue", align 8
  %4 = alloca %"class.perfetto::TracedValue", align 8
  %5 = alloca %"class.perfetto::TracedValue", align 8
  %6 = alloca %"class.perfetto::TracedValue", align 8
  %7 = alloca %"class.perfetto::TracedDictionary", align 8
  %8 = alloca %"class.perfetto::TracedValue", align 8
  %9 = alloca %"class.perfetto::TracedValue", align 8
  %10 = alloca %"class.perfetto::TracedValue", align 8
  %11 = alloca %"class.perfetto::TracedValue", align 8
  %12 = bitcast %"class.perfetto::TracedDictionary"* %7 to i8*
  call void @llvm.lifetime.start.p0i8(i64 16, i8* nonnull %12) #15
  %13 = bitcast %"class.perfetto::TracedDictionary"* %7 to i8*
  call void @llvm.memset.p0i8.i64(i8* nonnull align 8 %13, i8 -86, i64 16, i1 false)
  call void @_ZNO8perfetto11TracedValue15WriteDictionaryEv(%"class.perfetto::TracedDictionary"* nonnull sret %7, %"class.perfetto::TracedValue"* %1) #15
  call void @_ZN8perfetto16TracedDictionary7AddItemENS_12StaticStringE(%"class.perfetto::TracedValue"* nonnull sret %8, %"class.perfetto::TracedDictionary"* nonnull %7, i8* getelementptr inbounds ([10 x i8], [10 x i8]* @.str, i64 0, i64 0)) #15
  %14 = getelementptr inbounds %"class.memory_instrumentation::mojom::RequestArgs", %"class.memory_instrumentation::mojom::RequestArgs"* %0, i64 0, i32 0
  %15 = bitcast %"class.perfetto::TracedValue"* %8 to i8*
  %16 = bitcast %"class.perfetto::TracedValue"* %5 to i8*
  call void @llvm.lifetime.start.p0i8(i64 16, i8* nonnull %16) #15
  call void @llvm.memcpy.p0i8.p0i8.i64(i8* nonnull align 8 %16, i8* nonnull align 8 %15, i64 16, i1 false) #15
  %17 = load i64, i64* %14, align 8
  call void @_ZNO8perfetto11TracedValue11WriteUInt64Em(%"class.perfetto::TracedValue"* nonnull %5, i64 %17) #15
  call void @llvm.lifetime.end.p0i8(i64 16, i8* nonnull %16) #15
  call void @_ZN8perfetto16TracedDictionary7AddItemENS_12StaticStringE(%"class.perfetto::TracedValue"* nonnull sret %9, %"class.perfetto::TracedDictionary"* nonnull %7, i8* getelementptr inbounds ([10 x i8], [10 x i8]* @.str.2, i64 0, i64 0)) #15
  %18 = getelementptr inbounds %"class.memory_instrumentation::mojom::RequestArgs", %"class.memory_instrumentation::mojom::RequestArgs"* %0, i64 0, i32 1
  %19 = bitcast %"class.perfetto::TracedValue"* %9 to i8*
  %20 = bitcast %"class.perfetto::TracedValue"* %4 to i8*
  call void @llvm.lifetime.start.p0i8(i64 16, i8* nonnull %20) #15
  call void @llvm.memcpy.p0i8.p0i8.i64(i8* nonnull align 8 %20, i8* nonnull align 8 %19, i64 16, i1 false) #15
  %21 = load i32, i32* %18, align 4
  %22 = sext i32 %21 to i64
  call void @_ZNO8perfetto11TracedValue10WriteInt64El(%"class.perfetto::TracedValue"* nonnull %4, i64 %22) #15
  call void @llvm.lifetime.end.p0i8(i64 16, i8* nonnull %20) #15
  call void @_ZN8perfetto16TracedDictionary7AddItemENS_12StaticStringE(%"class.perfetto::TracedValue"* nonnull sret %10, %"class.perfetto::TracedDictionary"* nonnull %7, i8* getelementptr inbounds ([16 x i8], [16 x i8]* @.str.3, i64 0, i64 0)) #15
  %23 = getelementptr inbounds %"class.memory_instrumentation::mojom::RequestArgs", %"class.memory_instrumentation::mojom::RequestArgs"* %0, i64 0, i32 2
  %24 = bitcast %"class.perfetto::TracedValue"* %10 to i8*
  %25 = bitcast %"class.perfetto::TracedValue"* %3 to i8*
  call void @llvm.lifetime.start.p0i8(i64 16, i8* nonnull %25) #15
  call void @llvm.memcpy.p0i8.p0i8.i64(i8* nonnull align 8 %25, i8* nonnull align 8 %24, i64 16, i1 false) #15
  %26 = load i32, i32* %23, align 4
  %27 = zext i32 %26 to i64
  call void @_ZNO8perfetto11TracedValue11WriteUInt64Em(%"class.perfetto::TracedValue"* nonnull %3, i64 %27) #15
  call void @llvm.lifetime.end.p0i8(i64 16, i8* nonnull %25) #15
  call void @_ZN8perfetto16TracedDictionary7AddItemENS_12StaticStringE(%"class.perfetto::TracedValue"* nonnull sret %11, %"class.perfetto::TracedDictionary"* nonnull %7, i8* getelementptr inbounds ([12 x i8], [12 x i8]* @.str.4, i64 0, i64 0)) #15
  %28 = getelementptr inbounds %"class.memory_instrumentation::mojom::RequestArgs", %"class.memory_instrumentation::mojom::RequestArgs"* %0, i64 0, i32 3
  %29 = bitcast %"class.perfetto::TracedValue"* %11 to i8*
  %30 = bitcast %"class.perfetto::TracedValue"* %6 to i8*
  call void @llvm.lifetime.start.p0i8(i64 16, i8* nonnull %30) #15
  call void @llvm.memcpy.p0i8.p0i8.i64(i8* nonnull align 8 %30, i8* nonnull align 8 %29, i64 16, i1 false) #15
  %31 = load i32, i32* %28, align 4
  %32 = zext i32 %31 to i64
  call void @_ZNO8perfetto11TracedValue11WriteUInt64Em(%"class.perfetto::TracedValue"* nonnull %6, i64 %32) #15
  call void @llvm.lifetime.end.p0i8(i64 16, i8* nonnull %30) #15
  call void @llvm.lifetime.end.p0i8(i64 16, i8* nonnull %12) #15
  ret void
}

; Function Attrs: argmemonly nounwind
declare void @llvm.lifetime.start.p0i8(i64 immarg, i8* nocapture) #3

declare void @_ZNO8perfetto11TracedValue15WriteDictionaryEv(%"class.perfetto::TracedDictionary"* sret, %"class.perfetto::TracedValue"*) local_unnamed_addr #4

declare void @_ZN8perfetto16TracedDictionary7AddItemENS_12StaticStringE(%"class.perfetto::TracedValue"* sret, %"class.perfetto::TracedDictionary"*, i8*) local_unnamed_addr #4

; Function Attrs: argmemonly nounwind
declare void @llvm.lifetime.end.p0i8(i64 immarg, i8* nocapture) #3

; Function Attrs: nounwind ssp uwtable
define hidden zeroext i1 @_ZN22memory_instrumentation5mojom11RequestArgs8ValidateEPKvPN4mojo8internal17ValidationContextE(i8*, %"class.mojo::internal::ValidationContext"*) local_unnamed_addr #2 align 2 {
  %3 = tail call zeroext i1 @_ZN22memory_instrumentation5mojom8internal16RequestArgs_Data8ValidateEPKvPN4mojo8internal17ValidationContextE(i8* %0, %"class.mojo::internal::ValidationContext"* %1) #15
  ret i1 %3
}

declare zeroext i1 @_ZN22memory_instrumentation5mojom8internal16RequestArgs_Data8ValidateEPKvPN4mojo8internal17ValidationContextE(i8*, %"class.mojo::internal::ValidationContext"*) local_unnamed_addr #4

; Function Attrs: nofree norecurse nounwind ssp uwtable writeonly
define hidden void @_ZN22memory_instrumentation5mojom20RawAllocatorDumpEdgeC2Ev(%"class.memory_instrumentation::mojom::RawAllocatorDumpEdge"* nocapture) unnamed_addr #0 align 2 {
  %2 = bitcast %"class.memory_instrumentation::mojom::RawAllocatorDumpEdge"* %0 to i8*
  call void @llvm.memset.p0i8.i64(i8* align 8 %2, i8 0, i64 21, i1 false)
  ret void
}

; Function Attrs: nofree norecurse nounwind ssp uwtable writeonly
define hidden void @_ZN22memory_instrumentation5mojom20RawAllocatorDumpEdgeC2Emmib(%"class.memory_instrumentation::mojom::RawAllocatorDumpEdge"* nocapture, i64, i64, i32, i1 zeroext) unnamed_addr #0 align 2 {
  %6 = zext i1 %4 to i8
  %7 = getelementptr inbounds %"class.memory_instrumentation::mojom::RawAllocatorDumpEdge", %"class.memory_instrumentation::mojom::RawAllocatorDumpEdge"* %0, i64 0, i32 0
  store i64 %1, i64* %7, align 8
  %8 = getelementptr inbounds %"class.memory_instrumentation::mojom::RawAllocatorDumpEdge", %"class.memory_instrumentation::mojom::RawAllocatorDumpEdge"* %0, i64 0, i32 1
  store i64 %2, i64* %8, align 8
  %9 = getelementptr inbounds %"class.memory_instrumentation::mojom::RawAllocatorDumpEdge", %"class.memory_instrumentation::mojom::RawAllocatorDumpEdge"* %0, i64 0, i32 2
  store i32 %3, i32* %9, align 8
  %10 = getelementptr inbounds %"class.memory_instrumentation::mojom::RawAllocatorDumpEdge", %"class.memory_instrumentation::mojom::RawAllocatorDumpEdge"* %0, i64 0, i32 3
  store i8 %6, i8* %10, align 4
  ret void
}

; Function Attrs: norecurse nounwind readnone ssp uwtable
define hidden void @_ZN22memory_instrumentation5mojom20RawAllocatorDumpEdgeD2Ev(%"class.memory_instrumentation::mojom::RawAllocatorDumpEdge"* nocapture) unnamed_addr #1 align 2 {
  ret void
}

; Function Attrs: nounwind ssp uwtable
define hidden void @_ZNK22memory_instrumentation5mojom20RawAllocatorDumpEdge14WriteIntoTraceEN8perfetto11TracedValueE(%"class.memory_instrumentation::mojom::RawAllocatorDumpEdge"* nocapture readonly, %"class.perfetto::TracedValue"*) local_unnamed_addr #2 align 2 {
  %3 = alloca %"class.perfetto::TracedValue", align 8
  %4 = alloca %"class.perfetto::TracedValue", align 8
  %5 = alloca %"class.perfetto::TracedValue", align 8
  %6 = alloca %"class.perfetto::TracedValue", align 8
  %7 = alloca %"class.perfetto::TracedDictionary", align 8
  %8 = alloca %"class.perfetto::TracedValue", align 8
  %9 = alloca %"class.perfetto::TracedValue", align 8
  %10 = alloca %"class.perfetto::TracedValue", align 8
  %11 = alloca %"class.perfetto::TracedValue", align 8
  %12 = bitcast %"class.perfetto::TracedDictionary"* %7 to i8*
  call void @llvm.lifetime.start.p0i8(i64 16, i8* nonnull %12) #15
  %13 = bitcast %"class.perfetto::TracedDictionary"* %7 to i8*
  call void @llvm.memset.p0i8.i64(i8* nonnull align 8 %13, i8 -86, i64 16, i1 false)
  call void @_ZNO8perfetto11TracedValue15WriteDictionaryEv(%"class.perfetto::TracedDictionary"* nonnull sret %7, %"class.perfetto::TracedValue"* %1) #15
  call void @_ZN8perfetto16TracedDictionary7AddItemENS_12StaticStringE(%"class.perfetto::TracedValue"* nonnull sret %8, %"class.perfetto::TracedDictionary"* nonnull %7, i8* getelementptr inbounds ([10 x i8], [10 x i8]* @.str.5, i64 0, i64 0)) #15
  %14 = getelementptr inbounds %"class.memory_instrumentation::mojom::RawAllocatorDumpEdge", %"class.memory_instrumentation::mojom::RawAllocatorDumpEdge"* %0, i64 0, i32 0
  %15 = bitcast %"class.perfetto::TracedValue"* %8 to i8*
  %16 = bitcast %"class.perfetto::TracedValue"* %5 to i8*
  call void @llvm.lifetime.start.p0i8(i64 16, i8* nonnull %16) #15
  call void @llvm.memcpy.p0i8.p0i8.i64(i8* nonnull align 8 %16, i8* nonnull align 8 %15, i64 16, i1 false) #15
  %17 = load i64, i64* %14, align 8
  call void @_ZNO8perfetto11TracedValue11WriteUInt64Em(%"class.perfetto::TracedValue"* nonnull %5, i64 %17) #15
  call void @llvm.lifetime.end.p0i8(i64 16, i8* nonnull %16) #15
  call void @_ZN8perfetto16TracedDictionary7AddItemENS_12StaticStringE(%"class.perfetto::TracedValue"* nonnull sret %9, %"class.perfetto::TracedDictionary"* nonnull %7, i8* getelementptr inbounds ([10 x i8], [10 x i8]* @.str.6, i64 0, i64 0)) #15
  %18 = getelementptr inbounds %"class.memory_instrumentation::mojom::RawAllocatorDumpEdge", %"class.memory_instrumentation::mojom::RawAllocatorDumpEdge"* %0, i64 0, i32 1
  %19 = bitcast %"class.perfetto::TracedValue"* %9 to i8*
  %20 = bitcast %"class.perfetto::TracedValue"* %4 to i8*
  call void @llvm.lifetime.start.p0i8(i64 16, i8* nonnull %20) #15
  call void @llvm.memcpy.p0i8.p0i8.i64(i8* nonnull align 8 %20, i8* nonnull align 8 %19, i64 16, i1 false) #15
  %21 = load i64, i64* %18, align 8
  call void @_ZNO8perfetto11TracedValue11WriteUInt64Em(%"class.perfetto::TracedValue"* nonnull %4, i64 %21) #15
  call void @llvm.lifetime.end.p0i8(i64 16, i8* nonnull %20) #15
  call void @_ZN8perfetto16TracedDictionary7AddItemENS_12StaticStringE(%"class.perfetto::TracedValue"* nonnull sret %10, %"class.perfetto::TracedDictionary"* nonnull %7, i8* getelementptr inbounds ([11 x i8], [11 x i8]* @.str.7, i64 0, i64 0)) #15
  %22 = getelementptr inbounds %"class.memory_instrumentation::mojom::RawAllocatorDumpEdge", %"class.memory_instrumentation::mojom::RawAllocatorDumpEdge"* %0, i64 0, i32 2
  %23 = bitcast %"class.perfetto::TracedValue"* %10 to i8*
  %24 = bitcast %"class.perfetto::TracedValue"* %3 to i8*
  call void @llvm.lifetime.start.p0i8(i64 16, i8* nonnull %24) #15
  call void @llvm.memcpy.p0i8.p0i8.i64(i8* nonnull align 8 %24, i8* nonnull align 8 %23, i64 16, i1 false) #15
  %25 = load i32, i32* %22, align 4
  %26 = sext i32 %25 to i64
  call void @_ZNO8perfetto11TracedValue10WriteInt64El(%"class.perfetto::TracedValue"* nonnull %3, i64 %26) #15
  call void @llvm.lifetime.end.p0i8(i64 16, i8* nonnull %24) #15
  call void @_ZN8perfetto16TracedDictionary7AddItemENS_12StaticStringE(%"class.perfetto::TracedValue"* nonnull sret %11, %"class.perfetto::TracedDictionary"* nonnull %7, i8* getelementptr inbounds ([12 x i8], [12 x i8]* @.str.8, i64 0, i64 0)) #15
  %27 = getelementptr inbounds %"class.memory_instrumentation::mojom::RawAllocatorDumpEdge", %"class.memory_instrumentation::mojom::RawAllocatorDumpEdge"* %0, i64 0, i32 3
  %28 = bitcast %"class.perfetto::TracedValue"* %11 to i8*
  %29 = bitcast %"class.perfetto::TracedValue"* %6 to i8*
  call void @llvm.lifetime.start.p0i8(i64 16, i8* nonnull %29) #15
  call void @llvm.memcpy.p0i8.p0i8.i64(i8* nonnull align 8 %29, i8* nonnull align 8 %28, i64 16, i1 false) #15
  %30 = load i8, i8* %27, align 1, !range !2
  %31 = icmp ne i8 %30, 0
  call void @_ZNO8perfetto11TracedValue12WriteBooleanEb(%"class.perfetto::TracedValue"* nonnull %6, i1 zeroext %31) #15
  call void @llvm.lifetime.end.p0i8(i64 16, i8* nonnull %29) #15
  call void @llvm.lifetime.end.p0i8(i64 16, i8* nonnull %12) #15
  ret void
}

; Function Attrs: nounwind ssp uwtable
define hidden zeroext i1 @_ZN22memory_instrumentation5mojom20RawAllocatorDumpEdge8ValidateEPKvPN4mojo8internal17ValidationContextE(i8*, %"class.mojo::internal::ValidationContext"*) local_unnamed_addr #2 align 2 {
  %3 = tail call zeroext i1 @_ZN22memory_instrumentation5mojom8internal25RawAllocatorDumpEdge_Data8ValidateEPKvPN4mojo8internal17ValidationContextE(i8* %0, %"class.mojo::internal::ValidationContext"* %1) #15
  ret i1 %3
}

declare zeroext i1 @_ZN22memory_instrumentation5mojom8internal25RawAllocatorDumpEdge_Data8ValidateEPKvPN4mojo8internal17ValidationContextE(i8*, %"class.mojo::internal::ValidationContext"*) local_unnamed_addr #4

; Function Attrs: nounwind ssp uwtable
define hidden void @_ZN22memory_instrumentation5mojom21RawAllocatorDumpEntryC2Ev(%"class.memory_instrumentation::mojom::RawAllocatorDumpEntry"* nocapture) unnamed_addr #2 align 2 {
  %2 = bitcast %"class.memory_instrumentation::mojom::RawAllocatorDumpEntry"* %0 to i8*
  call void @llvm.memset.p0i8.i64(i8* align 8 %2, i8 0, i64 56, i1 false)
  ret void
}

; Function Attrs: argmemonly nounwind
declare void @llvm.memset.p0i8.i64(i8* nocapture writeonly, i8, i64, i1 immarg) #3

; Function Attrs: nounwind ssp uwtable
define hidden void @_ZN22memory_instrumentation5mojom21RawAllocatorDumpEntryC2ERKNSt3__112basic_stringIcNS2_11char_traitsIcEENS2_9allocatorIcEEEESA_N4mojo9StructPtrINS0_26RawAllocatorDumpEntryValueEEE(%"class.memory_instrumentation::mojom::RawAllocatorDumpEntry"*, %"class.std::__1::basic_string"* nocapture readonly dereferenceable(24), %"class.std::__1::basic_string"* nocapture readonly dereferenceable(24), %"class.mojo::StructPtr"* nocapture) unnamed_addr #2 align 2 {
  %5 = bitcast %"class.std::__1::basic_string"* %1 to %"struct.std::__1::basic_string<char, std::__1::char_traits<char>, std::__1::allocator<char> >::__short"*
  %6 = getelementptr inbounds %"struct.std::__1::basic_string<char, std::__1::char_traits<char>, std::__1::allocator<char> >::__short", %"struct.std::__1::basic_string<char, std::__1::char_traits<char>, std::__1::allocator<char> >::__short"* %5, i64 0, i32 1, i32 0
  %7 = load i8, i8* %6, align 1
  %8 = icmp slt i8 %7, 0
  br i1 %8, label %12, label %9

9:                                                ; preds = %4
  %10 = bitcast %"class.memory_instrumentation::mojom::RawAllocatorDumpEntry"* %0 to i8*
  %11 = bitcast %"class.std::__1::basic_string"* %1 to i8*
  tail call void @llvm.memcpy.p0i8.p0i8.i64(i8* align 8 %10, i8* align 8 %11, i64 24, i1 false) #15
  br label %18

12:                                               ; preds = %4
  %13 = getelementptr inbounds %"class.memory_instrumentation::mojom::RawAllocatorDumpEntry", %"class.memory_instrumentation::mojom::RawAllocatorDumpEntry"* %0, i64 0, i32 0
  %14 = getelementptr inbounds %"class.std::__1::basic_string", %"class.std::__1::basic_string"* %1, i64 0, i32 0, i32 0, i32 0, i32 0, i32 0, i32 0
  %15 = load i8*, i8** %14, align 8
  %16 = getelementptr inbounds %"class.std::__1::basic_string", %"class.std::__1::basic_string"* %1, i64 0, i32 0, i32 0, i32 0, i32 0, i32 0, i32 1
  %17 = load i64, i64* %16, align 8
  tail call void @_ZNSt3__112basic_stringIcNS_11char_traitsIcEENS_9allocatorIcEEE25__init_copy_ctor_externalEPKcm(%"class.std::__1::basic_string"* %13, i8* %15, i64 %17) #15
  br label %18

18:                                               ; preds = %9, %12
  %19 = getelementptr inbounds %"class.memory_instrumentation::mojom::RawAllocatorDumpEntry", %"class.memory_instrumentation::mojom::RawAllocatorDumpEntry"* %0, i64 0, i32 1
  %20 = bitcast %"class.std::__1::basic_string"* %2 to %"struct.std::__1::basic_string<char, std::__1::char_traits<char>, std::__1::allocator<char> >::__short"*
  %21 = getelementptr inbounds %"struct.std::__1::basic_string<char, std::__1::char_traits<char>, std::__1::allocator<char> >::__short", %"struct.std::__1::basic_string<char, std::__1::char_traits<char>, std::__1::allocator<char> >::__short"* %20, i64 0, i32 1, i32 0
  %22 = load i8, i8* %21, align 1
  %23 = icmp slt i8 %22, 0
  br i1 %23, label %27, label %24

24:                                               ; preds = %18
  %25 = bitcast %"class.std::__1::basic_string"* %19 to i8*
  %26 = bitcast %"class.std::__1::basic_string"* %2 to i8*
  tail call void @llvm.memcpy.p0i8.p0i8.i64(i8* align 8 %25, i8* align 8 %26, i64 24, i1 false) #15
  br label %32

27:                                               ; preds = %18
  %28 = getelementptr inbounds %"class.std::__1::basic_string", %"class.std::__1::basic_string"* %2, i64 0, i32 0, i32 0, i32 0, i32 0, i32 0, i32 0
  %29 = load i8*, i8** %28, align 8
  %30 = getelementptr inbounds %"class.std::__1::basic_string", %"class.std::__1::basic_string"* %2, i64 0, i32 0, i32 0, i32 0, i32 0, i32 0, i32 1
  %31 = load i64, i64* %30, align 8
  tail call void @_ZNSt3__112basic_stringIcNS_11char_traitsIcEENS_9allocatorIcEEE25__init_copy_ctor_externalEPKcm(%"class.std::__1::basic_string"* %19, i8* %29, i64 %31) #15
  br label %32

32:                                               ; preds = %24, %27
  %33 = getelementptr inbounds %"class.memory_instrumentation::mojom::RawAllocatorDumpEntry", %"class.memory_instrumentation::mojom::RawAllocatorDumpEntry"* %0, i64 0, i32 2
  %34 = bitcast %"class.mojo::StructPtr"* %33 to i64*
  %35 = getelementptr inbounds %"class.mojo::StructPtr", %"class.mojo::StructPtr"* %33, i64 0, i32 0, i32 0, i32 0, i32 0
  store %"class.memory_instrumentation::mojom::RawAllocatorDumpEntryValue"* null, %"class.memory_instrumentation::mojom::RawAllocatorDumpEntryValue"** %35, align 8
  %36 = bitcast %"class.mojo::StructPtr"* %3 to i64*
  %37 = load i64, i64* %36, align 8
  store i64 %37, i64* %34, align 8
  store i64 0, i64* %36, align 8
  ret void
}

; Function Attrs: nounwind ssp uwtable
define hidden void @_ZN22memory_instrumentation5mojom21RawAllocatorDumpEntryD2Ev(%"class.memory_instrumentation::mojom::RawAllocatorDumpEntry"* nocapture) unnamed_addr #2 align 2 {
  %2 = getelementptr inbounds %"class.memory_instrumentation::mojom::RawAllocatorDumpEntry", %"class.memory_instrumentation::mojom::RawAllocatorDumpEntry"* %0, i64 0, i32 2, i32 0, i32 0, i32 0, i32 0
  %3 = load %"class.memory_instrumentation::mojom::RawAllocatorDumpEntryValue"*, %"class.memory_instrumentation::mojom::RawAllocatorDumpEntryValue"** %2, align 8
  store %"class.memory_instrumentation::mojom::RawAllocatorDumpEntryValue"* null, %"class.memory_instrumentation::mojom::RawAllocatorDumpEntryValue"** %2, align 8
  %4 = icmp eq %"class.memory_instrumentation::mojom::RawAllocatorDumpEntryValue"* %3, null
  br i1 %4, label %26, label %5

5:                                                ; preds = %1
  %6 = getelementptr inbounds %"class.memory_instrumentation::mojom::RawAllocatorDumpEntryValue", %"class.memory_instrumentation::mojom::RawAllocatorDumpEntryValue"* %3, i64 0, i32 0
  %7 = load i32, i32* %6, align 8
  %8 = icmp eq i32 %7, 1
  br i1 %8, label %9, label %24

9:                                                ; preds = %5
  %10 = getelementptr inbounds %"class.memory_instrumentation::mojom::RawAllocatorDumpEntryValue", %"class.memory_instrumentation::mojom::RawAllocatorDumpEntryValue"* %3, i64 0, i32 1
  %11 = bitcast %"union.memory_instrumentation::mojom::RawAllocatorDumpEntryValue::Union_"* %10 to %"class.std::__1::basic_string"**
  %12 = load %"class.std::__1::basic_string"*, %"class.std::__1::basic_string"** %11, align 8
  %13 = icmp eq %"class.std::__1::basic_string"* %12, null
  br i1 %13, label %24, label %14

14:                                               ; preds = %9
  %15 = bitcast %"class.std::__1::basic_string"* %12 to %"struct.std::__1::basic_string<char, std::__1::char_traits<char>, std::__1::allocator<char> >::__short"*
  %16 = getelementptr inbounds %"struct.std::__1::basic_string<char, std::__1::char_traits<char>, std::__1::allocator<char> >::__short", %"struct.std::__1::basic_string<char, std::__1::char_traits<char>, std::__1::allocator<char> >::__short"* %15, i64 0, i32 1, i32 0
  %17 = load i8, i8* %16, align 1
  %18 = icmp slt i8 %17, 0
  br i1 %18, label %19, label %22

19:                                               ; preds = %14
  %20 = getelementptr inbounds %"class.std::__1::basic_string", %"class.std::__1::basic_string"* %12, i64 0, i32 0, i32 0, i32 0, i32 0, i32 0, i32 0
  %21 = load i8*, i8** %20, align 8
  tail call void @_ZdlPv(i8* %21) #16
  br label %22

22:                                               ; preds = %19, %14
  %23 = bitcast %"class.std::__1::basic_string"* %12 to i8*
  tail call void @_ZdlPv(i8* %23) #16
  br label %24

24:                                               ; preds = %22, %9, %5
  %25 = bitcast %"class.memory_instrumentation::mojom::RawAllocatorDumpEntryValue"* %3 to i8*
  tail call void @_ZdlPv(i8* %25) #16
  br label %26

26:                                               ; preds = %1, %24
  %27 = getelementptr inbounds %"class.memory_instrumentation::mojom::RawAllocatorDumpEntry", %"class.memory_instrumentation::mojom::RawAllocatorDumpEntry"* %0, i64 0, i32 1
  %28 = bitcast %"class.std::__1::basic_string"* %27 to %"struct.std::__1::basic_string<char, std::__1::char_traits<char>, std::__1::allocator<char> >::__short"*
  %29 = getelementptr inbounds %"struct.std::__1::basic_string<char, std::__1::char_traits<char>, std::__1::allocator<char> >::__short", %"struct.std::__1::basic_string<char, std::__1::char_traits<char>, std::__1::allocator<char> >::__short"* %28, i64 0, i32 1, i32 0
  %30 = load i8, i8* %29, align 1
  %31 = icmp slt i8 %30, 0
  br i1 %31, label %32, label %35

32:                                               ; preds = %26
  %33 = getelementptr inbounds %"class.std::__1::basic_string", %"class.std::__1::basic_string"* %27, i64 0, i32 0, i32 0, i32 0, i32 0, i32 0, i32 0
  %34 = load i8*, i8** %33, align 8
  tail call void @_ZdlPv(i8* %34) #16
  br label %35

35:                                               ; preds = %26, %32
  %36 = bitcast %"class.memory_instrumentation::mojom::RawAllocatorDumpEntry"* %0 to %"struct.std::__1::basic_string<char, std::__1::char_traits<char>, std::__1::allocator<char> >::__short"*
  %37 = getelementptr inbounds %"struct.std::__1::basic_string<char, std::__1::char_traits<char>, std::__1::allocator<char> >::__short", %"struct.std::__1::basic_string<char, std::__1::char_traits<char>, std::__1::allocator<char> >::__short"* %36, i64 0, i32 1, i32 0
  %38 = load i8, i8* %37, align 1
  %39 = icmp slt i8 %38, 0
  br i1 %39, label %40, label %43

40:                                               ; preds = %35
  %41 = getelementptr inbounds %"class.memory_instrumentation::mojom::RawAllocatorDumpEntry", %"class.memory_instrumentation::mojom::RawAllocatorDumpEntry"* %0, i64 0, i32 0, i32 0, i32 0, i32 0, i32 0, i32 0, i32 0
  %42 = load i8*, i8** %41, align 8
  tail call void @_ZdlPv(i8* %42) #16
  br label %43

43:                                               ; preds = %35, %40
  ret void
}

; Function Attrs: nounwind ssp uwtable
define hidden void @_ZNK22memory_instrumentation5mojom21RawAllocatorDumpEntry14WriteIntoTraceEN8perfetto11TracedValueE(%"class.memory_instrumentation::mojom::RawAllocatorDumpEntry"*, %"class.perfetto::TracedValue"*) local_unnamed_addr #2 align 2 {
  %3 = alloca %"class.perfetto::TracedValue", align 8
  %4 = alloca %"class.perfetto::TracedValue", align 8
  %5 = alloca %"class.perfetto::TracedDictionary", align 8
  %6 = alloca %"class.perfetto::TracedValue", align 8
  %7 = alloca %"class.perfetto::TracedValue", align 8
  %8 = alloca %"class.perfetto::TracedValue", align 8
  %9 = alloca %"class.std::__1::basic_string", align 8
  %10 = bitcast %"class.perfetto::TracedDictionary"* %5 to i8*
  call void @llvm.lifetime.start.p0i8(i64 16, i8* nonnull %10) #15
  %11 = bitcast %"class.perfetto::TracedDictionary"* %5 to i8*
  call void @llvm.memset.p0i8.i64(i8* nonnull align 8 %11, i8 -86, i64 16, i1 false)
  call void @_ZNO8perfetto11TracedValue15WriteDictionaryEv(%"class.perfetto::TracedDictionary"* nonnull sret %5, %"class.perfetto::TracedValue"* %1) #15
  call void @_ZN8perfetto16TracedDictionary7AddItemENS_12StaticStringE(%"class.perfetto::TracedValue"* nonnull sret %6, %"class.perfetto::TracedDictionary"* nonnull %5, i8* getelementptr inbounds ([5 x i8], [5 x i8]* @.str.9, i64 0, i64 0)) #15
  %12 = getelementptr inbounds %"class.memory_instrumentation::mojom::RawAllocatorDumpEntry", %"class.memory_instrumentation::mojom::RawAllocatorDumpEntry"* %0, i64 0, i32 0
  %13 = bitcast %"class.perfetto::TracedValue"* %6 to i8*
  %14 = bitcast %"class.perfetto::TracedValue"* %4 to i8*
  call void @llvm.lifetime.start.p0i8(i64 16, i8* nonnull %14) #15
  call void @llvm.memcpy.p0i8.p0i8.i64(i8* nonnull align 8 %14, i8* nonnull align 8 %13, i64 16, i1 false) #15
  call void @_ZNO8perfetto11TracedValue11WriteStringERKNSt3__112basic_stringIcNS1_11char_traitsIcEENS1_9allocatorIcEEEE(%"class.perfetto::TracedValue"* nonnull %4, %"class.std::__1::basic_string"* dereferenceable(24) %12) #15
  call void @llvm.lifetime.end.p0i8(i64 16, i8* nonnull %14) #15
  call void @_ZN8perfetto16TracedDictionary7AddItemENS_12StaticStringE(%"class.perfetto::TracedValue"* nonnull sret %7, %"class.perfetto::TracedDictionary"* nonnull %5, i8* getelementptr inbounds ([6 x i8], [6 x i8]* @.str.10, i64 0, i64 0)) #15
  %15 = getelementptr inbounds %"class.memory_instrumentation::mojom::RawAllocatorDumpEntry", %"class.memory_instrumentation::mojom::RawAllocatorDumpEntry"* %0, i64 0, i32 1
  %16 = bitcast %"class.perfetto::TracedValue"* %7 to i8*
  %17 = bitcast %"class.perfetto::TracedValue"* %3 to i8*
  call void @llvm.lifetime.start.p0i8(i64 16, i8* nonnull %17) #15
  call void @llvm.memcpy.p0i8.p0i8.i64(i8* nonnull align 8 %17, i8* nonnull align 8 %16, i64 16, i1 false) #15
  call void @_ZNO8perfetto11TracedValue11WriteStringERKNSt3__112basic_stringIcNS1_11char_traitsIcEENS1_9allocatorIcEEEE(%"class.perfetto::TracedValue"* nonnull %3, %"class.std::__1::basic_string"* dereferenceable(24) %15) #15
  call void @llvm.lifetime.end.p0i8(i64 16, i8* nonnull %17) #15
  call void @_ZN8perfetto16TracedDictionary7AddItemENS_12StaticStringE(%"class.perfetto::TracedValue"* nonnull sret %8, %"class.perfetto::TracedDictionary"* nonnull %5, i8* getelementptr inbounds ([6 x i8], [6 x i8]* @.str.11, i64 0, i64 0)) #15
  %18 = bitcast %"class.std::__1::basic_string"* %9 to i8*
  call void @llvm.lifetime.start.p0i8(i64 24, i8* nonnull %18) #15
  %19 = bitcast %"class.std::__1::basic_string"* %9 to %"struct.std::__1::basic_string<char, std::__1::char_traits<char>, std::__1::allocator<char> >::__short"*
  %20 = getelementptr inbounds %"struct.std::__1::basic_string<char, std::__1::char_traits<char>, std::__1::allocator<char> >::__short", %"struct.std::__1::basic_string<char, std::__1::char_traits<char>, std::__1::allocator<char> >::__short"* %19, i64 0, i32 1, i32 0
  store i8 7, i8* %20, align 1
  call void @llvm.memcpy.p0i8.p0i8.i64(i8* nonnull align 8 %18, i8* align 1 getelementptr inbounds ([8 x i8], [8 x i8]* @.str.1, i64 0, i64 0), i64 7, i1 false) #15
  %21 = getelementptr inbounds i8, i8* %18, i64 7
  store i8 0, i8* %21, align 1
  call void @_ZNO8perfetto11TracedValue11WriteStringERKNSt3__112basic_stringIcNS1_11char_traitsIcEENS1_9allocatorIcEEEE(%"class.perfetto::TracedValue"* nonnull %8, %"class.std::__1::basic_string"* nonnull dereferenceable(24) %9) #15
  %22 = load i8, i8* %20, align 1
  %23 = icmp slt i8 %22, 0
  br i1 %23, label %24, label %27

24:                                               ; preds = %2
  %25 = getelementptr inbounds %"class.std::__1::basic_string", %"class.std::__1::basic_string"* %9, i64 0, i32 0, i32 0, i32 0, i32 0, i32 0, i32 0
  %26 = load i8*, i8** %25, align 8
  call void @_ZdlPv(i8* %26) #16
  br label %27

27:                                               ; preds = %2, %24
  call void @llvm.lifetime.end.p0i8(i64 24, i8* nonnull %18) #15
  call void @llvm.lifetime.end.p0i8(i64 16, i8* nonnull %10) #15
  ret void
}

; Function Attrs: nounwind ssp uwtable
define hidden zeroext i1 @_ZN22memory_instrumentation5mojom21RawAllocatorDumpEntry8ValidateEPKvPN4mojo8internal17ValidationContextE(i8*, %"class.mojo::internal::ValidationContext"*) local_unnamed_addr #2 align 2 {
  %3 = tail call zeroext i1 @_ZN22memory_instrumentation5mojom8internal26RawAllocatorDumpEntry_Data8ValidateEPKvPN4mojo8internal17ValidationContextE(i8* %0, %"class.mojo::internal::ValidationContext"* %1) #15
  ret i1 %3
}

declare zeroext i1 @_ZN22memory_instrumentation5mojom8internal26RawAllocatorDumpEntry_Data8ValidateEPKvPN4mojo8internal17ValidationContextE(i8*, %"class.mojo::internal::ValidationContext"*) local_unnamed_addr #4

; Function Attrs: nounwind ssp uwtable
define hidden void @_ZN22memory_instrumentation5mojom16RawAllocatorDumpC2Ev(%"class.memory_instrumentation::mojom::RawAllocatorDump"* nocapture) unnamed_addr #2 align 2 {
  %2 = getelementptr inbounds %"class.memory_instrumentation::mojom::RawAllocatorDump", %"class.memory_instrumentation::mojom::RawAllocatorDump"* %0, i64 0, i32 3
  %3 = bitcast %"class.memory_instrumentation::mojom::RawAllocatorDump"* %0 to i8*
  call void @llvm.memset.p0i8.i64(i8* align 8 %3, i8 0, i64 33, i1 false)
  %4 = bitcast i32* %2 to i8*
  call void @llvm.memset.p0i8.i64(i8* align 4 %4, i8 0, i64 28, i1 false)
  ret void
}

; Function Attrs: nounwind ssp uwtable
define hidden void @_ZN22memory_instrumentation5mojom16RawAllocatorDumpC2EmRKNSt3__112basic_stringIcNS2_11char_traitsIcEENS2_9allocatorIcEEEEbN4base11trace_event23MemoryDumpLevelOfDetailENS2_6vectorINSC_19MemoryAllocatorDump5EntryENS6_ISG_EEEE(%"class.memory_instrumentation::mojom::RawAllocatorDump"*, i64, %"class.std::__1::basic_string"* nocapture readonly dereferenceable(24), i1 zeroext, i32, %"class.std::__1::vector.33"* nocapture) unnamed_addr #2 align 2 {
  %7 = zext i1 %3 to i8
  %8 = getelementptr inbounds %"class.memory_instrumentation::mojom::RawAllocatorDump", %"class.memory_instrumentation::mojom::RawAllocatorDump"* %0, i64 0, i32 0
  store i64 %1, i64* %8, align 8
  %9 = getelementptr inbounds %"class.memory_instrumentation::mojom::RawAllocatorDump", %"class.memory_instrumentation::mojom::RawAllocatorDump"* %0, i64 0, i32 1
  %10 = bitcast %"class.std::__1::basic_string"* %2 to %"struct.std::__1::basic_string<char, std::__1::char_traits<char>, std::__1::allocator<char> >::__short"*
  %11 = getelementptr inbounds %"struct.std::__1::basic_string<char, std::__1::char_traits<char>, std::__1::allocator<char> >::__short", %"struct.std::__1::basic_string<char, std::__1::char_traits<char>, std::__1::allocator<char> >::__short"* %10, i64 0, i32 1, i32 0
  %12 = load i8, i8* %11, align 1
  %13 = icmp slt i8 %12, 0
  br i1 %13, label %17, label %14

14:                                               ; preds = %6
  %15 = bitcast %"class.std::__1::basic_string"* %9 to i8*
  %16 = bitcast %"class.std::__1::basic_string"* %2 to i8*
  tail call void @llvm.memcpy.p0i8.p0i8.i64(i8* align 8 %15, i8* align 8 %16, i64 24, i1 false) #15
  br label %22

17:                                               ; preds = %6
  %18 = getelementptr inbounds %"class.std::__1::basic_string", %"class.std::__1::basic_string"* %2, i64 0, i32 0, i32 0, i32 0, i32 0, i32 0, i32 0
  %19 = load i8*, i8** %18, align 8
  %20 = getelementptr inbounds %"class.std::__1::basic_string", %"class.std::__1::basic_string"* %2, i64 0, i32 0, i32 0, i32 0, i32 0, i32 0, i32 1
  %21 = load i64, i64* %20, align 8
  tail call void @_ZNSt3__112basic_stringIcNS_11char_traitsIcEENS_9allocatorIcEEE25__init_copy_ctor_externalEPKcm(%"class.std::__1::basic_string"* %9, i8* %19, i64 %21) #15
  br label %22

22:                                               ; preds = %14, %17
  %23 = getelementptr inbounds %"class.memory_instrumentation::mojom::RawAllocatorDump", %"class.memory_instrumentation::mojom::RawAllocatorDump"* %0, i64 0, i32 2
  store i8 %7, i8* %23, align 8
  %24 = getelementptr inbounds %"class.memory_instrumentation::mojom::RawAllocatorDump", %"class.memory_instrumentation::mojom::RawAllocatorDump"* %0, i64 0, i32 3
  store i32 %4, i32* %24, align 4
  %25 = getelementptr inbounds %"class.memory_instrumentation::mojom::RawAllocatorDump", %"class.memory_instrumentation::mojom::RawAllocatorDump"* %0, i64 0, i32 4
  %26 = bitcast %"class.std::__1::vector.33"* %25 to i8*
  tail call void @llvm.memset.p0i8.i64(i8* align 8 %26, i8 0, i64 24, i1 false) #15
  %27 = bitcast %"class.std::__1::vector.33"* %5 to i64*
  %28 = load i64, i64* %27, align 8
  %29 = bitcast %"class.std::__1::vector.33"* %25 to i64*
  store i64 %28, i64* %29, align 8
  %30 = getelementptr inbounds %"class.std::__1::vector.33", %"class.std::__1::vector.33"* %5, i64 0, i32 0, i32 1
  %31 = bitcast %"struct.base::trace_event::MemoryAllocatorDump::Entry"** %30 to i64*
  %32 = load i64, i64* %31, align 8
  %33 = getelementptr inbounds %"class.memory_instrumentation::mojom::RawAllocatorDump", %"class.memory_instrumentation::mojom::RawAllocatorDump"* %0, i64 0, i32 4, i32 0, i32 1
  %34 = bitcast %"struct.base::trace_event::MemoryAllocatorDump::Entry"** %33 to i64*
  store i64 %32, i64* %34, align 8
  %35 = getelementptr inbounds %"class.std::__1::vector.33", %"class.std::__1::vector.33"* %5, i64 0, i32 0, i32 2, i32 0, i32 0
  %36 = bitcast %"struct.base::trace_event::MemoryAllocatorDump::Entry"** %35 to i64*
  %37 = load i64, i64* %36, align 8
  %38 = getelementptr inbounds %"class.memory_instrumentation::mojom::RawAllocatorDump", %"class.memory_instrumentation::mojom::RawAllocatorDump"* %0, i64 0, i32 4, i32 0, i32 2, i32 0, i32 0
  %39 = bitcast %"struct.base::trace_event::MemoryAllocatorDump::Entry"** %38 to i64*
  store i64 %37, i64* %39, align 8
  %40 = bitcast %"class.std::__1::vector.33"* %5 to i8*
  tail call void @llvm.memset.p0i8.i64(i8* align 8 %40, i8 0, i64 24, i1 false) #15
  ret void
}

; Function Attrs: nounwind ssp uwtable
define hidden void @_ZN22memory_instrumentation5mojom16RawAllocatorDumpD2Ev(%"class.memory_instrumentation::mojom::RawAllocatorDump"* nocapture) unnamed_addr #2 align 2 {
  %2 = getelementptr inbounds %"class.memory_instrumentation::mojom::RawAllocatorDump", %"class.memory_instrumentation::mojom::RawAllocatorDump"* %0, i64 0, i32 4
  %3 = getelementptr inbounds %"class.std::__1::vector.33", %"class.std::__1::vector.33"* %2, i64 0, i32 0, i32 0
  %4 = load %"struct.base::trace_event::MemoryAllocatorDump::Entry"*, %"struct.base::trace_event::MemoryAllocatorDump::Entry"** %3, align 8
  %5 = icmp eq %"struct.base::trace_event::MemoryAllocatorDump::Entry"* %4, null
  br i1 %5, label %46, label %6

6:                                                ; preds = %1
  %7 = bitcast %"struct.base::trace_event::MemoryAllocatorDump::Entry"* %4 to i8*
  %8 = getelementptr inbounds %"class.memory_instrumentation::mojom::RawAllocatorDump", %"class.memory_instrumentation::mojom::RawAllocatorDump"* %0, i64 0, i32 4, i32 0, i32 1
  %9 = load %"struct.base::trace_event::MemoryAllocatorDump::Entry"*, %"struct.base::trace_event::MemoryAllocatorDump::Entry"** %8, align 8
  %10 = icmp eq %"struct.base::trace_event::MemoryAllocatorDump::Entry"* %9, %4
  br i1 %10, label %44, label %11

11:                                               ; preds = %6, %39
  %12 = phi %"struct.base::trace_event::MemoryAllocatorDump::Entry"* [ %13, %39 ], [ %9, %6 ]
  %13 = getelementptr inbounds %"struct.base::trace_event::MemoryAllocatorDump::Entry", %"struct.base::trace_event::MemoryAllocatorDump::Entry"* %12, i64 -1
  %14 = getelementptr inbounds %"struct.base::trace_event::MemoryAllocatorDump::Entry", %"struct.base::trace_event::MemoryAllocatorDump::Entry"* %12, i64 -1, i32 4
  %15 = bitcast %"class.std::__1::basic_string"* %14 to %"struct.std::__1::basic_string<char, std::__1::char_traits<char>, std::__1::allocator<char> >::__short"*
  %16 = getelementptr inbounds %"struct.std::__1::basic_string<char, std::__1::char_traits<char>, std::__1::allocator<char> >::__short", %"struct.std::__1::basic_string<char, std::__1::char_traits<char>, std::__1::allocator<char> >::__short"* %15, i64 0, i32 1, i32 0
  %17 = load i8, i8* %16, align 1
  %18 = icmp slt i8 %17, 0
  br i1 %18, label %19, label %22

19:                                               ; preds = %11
  %20 = getelementptr inbounds %"class.std::__1::basic_string", %"class.std::__1::basic_string"* %14, i64 0, i32 0, i32 0, i32 0, i32 0, i32 0, i32 0
  %21 = load i8*, i8** %20, align 8
  tail call void @_ZdlPv(i8* %21) #16
  br label %22

22:                                               ; preds = %19, %11
  %23 = getelementptr inbounds %"struct.base::trace_event::MemoryAllocatorDump::Entry", %"struct.base::trace_event::MemoryAllocatorDump::Entry"* %12, i64 -1, i32 1
  %24 = bitcast %"class.std::__1::basic_string"* %23 to %"struct.std::__1::basic_string<char, std::__1::char_traits<char>, std::__1::allocator<char> >::__short"*
  %25 = getelementptr inbounds %"struct.std::__1::basic_string<char, std::__1::char_traits<char>, std::__1::allocator<char> >::__short", %"struct.std::__1::basic_string<char, std::__1::char_traits<char>, std::__1::allocator<char> >::__short"* %24, i64 0, i32 1, i32 0
  %26 = load i8, i8* %25, align 1
  %27 = icmp slt i8 %26, 0
  br i1 %27, label %28, label %31

28:                                               ; preds = %22
  %29 = getelementptr inbounds %"class.std::__1::basic_string", %"class.std::__1::basic_string"* %23, i64 0, i32 0, i32 0, i32 0, i32 0, i32 0, i32 0
  %30 = load i8*, i8** %29, align 8
  tail call void @_ZdlPv(i8* %30) #16
  br label %31

31:                                               ; preds = %28, %22
  %32 = bitcast %"struct.base::trace_event::MemoryAllocatorDump::Entry"* %13 to %"struct.std::__1::basic_string<char, std::__1::char_traits<char>, std::__1::allocator<char> >::__short"*
  %33 = getelementptr inbounds %"struct.std::__1::basic_string<char, std::__1::char_traits<char>, std::__1::allocator<char> >::__short", %"struct.std::__1::basic_string<char, std::__1::char_traits<char>, std::__1::allocator<char> >::__short"* %32, i64 0, i32 1, i32 0
  %34 = load i8, i8* %33, align 1
  %35 = icmp slt i8 %34, 0
  br i1 %35, label %36, label %39

36:                                               ; preds = %31
  %37 = getelementptr inbounds %"struct.base::trace_event::MemoryAllocatorDump::Entry", %"struct.base::trace_event::MemoryAllocatorDump::Entry"* %13, i64 0, i32 0, i32 0, i32 0, i32 0, i32 0, i32 0, i32 0
  %38 = load i8*, i8** %37, align 8
  tail call void @_ZdlPv(i8* %38) #16
  br label %39

39:                                               ; preds = %36, %31
  %40 = icmp eq %"struct.base::trace_event::MemoryAllocatorDump::Entry"* %13, %4
  br i1 %40, label %41, label %11

41:                                               ; preds = %39
  %42 = bitcast %"class.std::__1::vector.33"* %2 to i8**
  %43 = load i8*, i8** %42, align 8
  br label %44

44:                                               ; preds = %41, %6
  %45 = phi i8* [ %43, %41 ], [ %7, %6 ]
  store %"struct.base::trace_event::MemoryAllocatorDump::Entry"* %4, %"struct.base::trace_event::MemoryAllocatorDump::Entry"** %8, align 8
  tail call void @_ZdlPv(i8* %45) #16
  br label %46

46:                                               ; preds = %1, %44
  %47 = getelementptr inbounds %"class.memory_instrumentation::mojom::RawAllocatorDump", %"class.memory_instrumentation::mojom::RawAllocatorDump"* %0, i64 0, i32 1
  %48 = bitcast %"class.std::__1::basic_string"* %47 to %"struct.std::__1::basic_string<char, std::__1::char_traits<char>, std::__1::allocator<char> >::__short"*
  %49 = getelementptr inbounds %"struct.std::__1::basic_string<char, std::__1::char_traits<char>, std::__1::allocator<char> >::__short", %"struct.std::__1::basic_string<char, std::__1::char_traits<char>, std::__1::allocator<char> >::__short"* %48, i64 0, i32 1, i32 0
  %50 = load i8, i8* %49, align 1
  %51 = icmp slt i8 %50, 0
  br i1 %51, label %52, label %55

52:                                               ; preds = %46
  %53 = getelementptr inbounds %"class.std::__1::basic_string", %"class.std::__1::basic_string"* %47, i64 0, i32 0, i32 0, i32 0, i32 0, i32 0, i32 0
  %54 = load i8*, i8** %53, align 8
  tail call void @_ZdlPv(i8* %54) #16
  br label %55

55:                                               ; preds = %46, %52
  ret void
}

; Function Attrs: nounwind ssp uwtable
define hidden void @_ZNK22memory_instrumentation5mojom16RawAllocatorDump14WriteIntoTraceEN8perfetto11TracedValueE(%"class.memory_instrumentation::mojom::RawAllocatorDump"*, %"class.perfetto::TracedValue"*) local_unnamed_addr #2 align 2 {
  %3 = alloca %"class.perfetto::TracedValue", align 8
  %4 = alloca %"class.perfetto::TracedValue", align 8
  %5 = alloca %"class.perfetto::TracedValue", align 8
  %6 = alloca %"class.perfetto::TracedValue", align 8
  %7 = alloca %"class.perfetto::TracedDictionary", align 8
  %8 = alloca %"class.perfetto::TracedValue", align 8
  %9 = alloca %"class.perfetto::TracedValue", align 8
  %10 = alloca %"class.perfetto::TracedValue", align 8
  %11 = alloca %"class.perfetto::TracedValue", align 8
  %12 = alloca %"class.perfetto::TracedValue", align 8
  %13 = alloca %"class.std::__1::basic_string", align 8
  %14 = bitcast %"class.perfetto::TracedDictionary"* %7 to i8*
  call void @llvm.lifetime.start.p0i8(i64 16, i8* nonnull %14) #15
  %15 = bitcast %"class.perfetto::TracedDictionary"* %7 to i8*
  call void @llvm.memset.p0i8.i64(i8* nonnull align 8 %15, i8 -86, i64 16, i1 false)
  call void @_ZNO8perfetto11TracedValue15WriteDictionaryEv(%"class.perfetto::TracedDictionary"* nonnull sret %7, %"class.perfetto::TracedValue"* %1) #15
  call void @_ZN8perfetto16TracedDictionary7AddItemENS_12StaticStringE(%"class.perfetto::TracedValue"* nonnull sret %8, %"class.perfetto::TracedDictionary"* nonnull %7, i8* getelementptr inbounds ([3 x i8], [3 x i8]* @.str.12, i64 0, i64 0)) #15
  %16 = getelementptr inbounds %"class.memory_instrumentation::mojom::RawAllocatorDump", %"class.memory_instrumentation::mojom::RawAllocatorDump"* %0, i64 0, i32 0
  %17 = bitcast %"class.perfetto::TracedValue"* %8 to i8*
  %18 = bitcast %"class.perfetto::TracedValue"* %6 to i8*
  call void @llvm.lifetime.start.p0i8(i64 16, i8* nonnull %18) #15
  call void @llvm.memcpy.p0i8.p0i8.i64(i8* nonnull align 8 %18, i8* nonnull align 8 %17, i64 16, i1 false) #15
  %19 = load i64, i64* %16, align 8
  call void @_ZNO8perfetto11TracedValue11WriteUInt64Em(%"class.perfetto::TracedValue"* nonnull %6, i64 %19) #15
  call void @llvm.lifetime.end.p0i8(i64 16, i8* nonnull %18) #15
  call void @_ZN8perfetto16TracedDictionary7AddItemENS_12StaticStringE(%"class.perfetto::TracedValue"* nonnull sret %9, %"class.perfetto::TracedDictionary"* nonnull %7, i8* getelementptr inbounds ([14 x i8], [14 x i8]* @.str.13, i64 0, i64 0)) #15
  %20 = getelementptr inbounds %"class.memory_instrumentation::mojom::RawAllocatorDump", %"class.memory_instrumentation::mojom::RawAllocatorDump"* %0, i64 0, i32 1
  %21 = bitcast %"class.perfetto::TracedValue"* %9 to i8*
  %22 = bitcast %"class.perfetto::TracedValue"* %5 to i8*
  call void @llvm.lifetime.start.p0i8(i64 16, i8* nonnull %22) #15
  call void @llvm.memcpy.p0i8.p0i8.i64(i8* nonnull align 8 %22, i8* nonnull align 8 %21, i64 16, i1 false) #15
  call void @_ZNO8perfetto11TracedValue11WriteStringERKNSt3__112basic_stringIcNS1_11char_traitsIcEENS1_9allocatorIcEEEE(%"class.perfetto::TracedValue"* nonnull %5, %"class.std::__1::basic_string"* dereferenceable(24) %20) #15
  call void @llvm.lifetime.end.p0i8(i64 16, i8* nonnull %22) #15
  call void @_ZN8perfetto16TracedDictionary7AddItemENS_12StaticStringE(%"class.perfetto::TracedValue"* nonnull sret %10, %"class.perfetto::TracedDictionary"* nonnull %7, i8* getelementptr inbounds ([5 x i8], [5 x i8]* @.str.14, i64 0, i64 0)) #15
  %23 = getelementptr inbounds %"class.memory_instrumentation::mojom::RawAllocatorDump", %"class.memory_instrumentation::mojom::RawAllocatorDump"* %0, i64 0, i32 2
  %24 = bitcast %"class.perfetto::TracedValue"* %10 to i8*
  %25 = bitcast %"class.perfetto::TracedValue"* %4 to i8*
  call void @llvm.lifetime.start.p0i8(i64 16, i8* nonnull %25) #15
  call void @llvm.memcpy.p0i8.p0i8.i64(i8* nonnull align 8 %25, i8* nonnull align 8 %24, i64 16, i1 false) #15
  %26 = load i8, i8* %23, align 1, !range !2
  %27 = icmp ne i8 %26, 0
  call void @_ZNO8perfetto11TracedValue12WriteBooleanEb(%"class.perfetto::TracedValue"* nonnull %4, i1 zeroext %27) #15
  call void @llvm.lifetime.end.p0i8(i64 16, i8* nonnull %25) #15
  call void @_ZN8perfetto16TracedDictionary7AddItemENS_12StaticStringE(%"class.perfetto::TracedValue"* nonnull sret %11, %"class.perfetto::TracedDictionary"* nonnull %7, i8* getelementptr inbounds ([16 x i8], [16 x i8]* @.str.3, i64 0, i64 0)) #15
  %28 = getelementptr inbounds %"class.memory_instrumentation::mojom::RawAllocatorDump", %"class.memory_instrumentation::mojom::RawAllocatorDump"* %0, i64 0, i32 3
  %29 = bitcast %"class.perfetto::TracedValue"* %11 to i8*
  %30 = bitcast %"class.perfetto::TracedValue"* %3 to i8*
  call void @llvm.lifetime.start.p0i8(i64 16, i8* nonnull %30) #15
  call void @llvm.memcpy.p0i8.p0i8.i64(i8* nonnull align 8 %30, i8* nonnull align 8 %29, i64 16, i1 false) #15
  %31 = load i32, i32* %28, align 4
  %32 = zext i32 %31 to i64
  call void @_ZNO8perfetto11TracedValue11WriteUInt64Em(%"class.perfetto::TracedValue"* nonnull %3, i64 %32) #15
  call void @llvm.lifetime.end.p0i8(i64 16, i8* nonnull %30) #15
  call void @_ZN8perfetto16TracedDictionary7AddItemENS_12StaticStringE(%"class.perfetto::TracedValue"* nonnull sret %12, %"class.perfetto::TracedDictionary"* nonnull %7, i8* getelementptr inbounds ([8 x i8], [8 x i8]* @.str.15, i64 0, i64 0)) #15
  %33 = bitcast %"class.std::__1::basic_string"* %13 to i8*
  call void @llvm.lifetime.start.p0i8(i64 24, i8* nonnull %33) #15
  %34 = bitcast %"class.std::__1::basic_string"* %13 to %"struct.std::__1::basic_string<char, std::__1::char_traits<char>, std::__1::allocator<char> >::__short"*
  %35 = getelementptr inbounds %"struct.std::__1::basic_string<char, std::__1::char_traits<char>, std::__1::allocator<char> >::__short", %"struct.std::__1::basic_string<char, std::__1::char_traits<char>, std::__1::allocator<char> >::__short"* %34, i64 0, i32 1, i32 0
  store i8 7, i8* %35, align 1
  call void @llvm.memcpy.p0i8.p0i8.i64(i8* nonnull align 8 %33, i8* align 1 getelementptr inbounds ([8 x i8], [8 x i8]* @.str.1, i64 0, i64 0), i64 7, i1 false) #15
  %36 = getelementptr inbounds i8, i8* %33, i64 7
  store i8 0, i8* %36, align 1
  call void @_ZNO8perfetto11TracedValue11WriteStringERKNSt3__112basic_stringIcNS1_11char_traitsIcEENS1_9allocatorIcEEEE(%"class.perfetto::TracedValue"* nonnull %12, %"class.std::__1::basic_string"* nonnull dereferenceable(24) %13) #15
  %37 = load i8, i8* %35, align 1
  %38 = icmp slt i8 %37, 0
  br i1 %38, label %39, label %42

39:                                               ; preds = %2
  %40 = getelementptr inbounds %"class.std::__1::basic_string", %"class.std::__1::basic_string"* %13, i64 0, i32 0, i32 0, i32 0, i32 0, i32 0, i32 0
  %41 = load i8*, i8** %40, align 8
  call void @_ZdlPv(i8* %41) #16
  br label %42

42:                                               ; preds = %2, %39
  call void @llvm.lifetime.end.p0i8(i64 24, i8* nonnull %33) #15
  call void @llvm.lifetime.end.p0i8(i64 16, i8* nonnull %14) #15
  ret void
}

; Function Attrs: nounwind ssp uwtable
define hidden zeroext i1 @_ZN22memory_instrumentation5mojom16RawAllocatorDump8ValidateEPKvPN4mojo8internal17ValidationContextE(i8*, %"class.mojo::internal::ValidationContext"*) local_unnamed_addr #2 align 2 {
  %3 = tail call zeroext i1 @_ZN22memory_instrumentation5mojom8internal21RawAllocatorDump_Data8ValidateEPKvPN4mojo8internal17ValidationContextE(i8* %0, %"class.mojo::internal::ValidationContext"* %1) #15
  ret i1 %3
}

declare zeroext i1 @_ZN22memory_instrumentation5mojom8internal21RawAllocatorDump_Data8ValidateEPKvPN4mojo8internal17ValidationContextE(i8*, %"class.mojo::internal::ValidationContext"*) local_unnamed_addr #4

; Function Attrs: nounwind ssp uwtable
define hidden void @_ZN22memory_instrumentation5mojom20RawProcessMemoryDumpC2Ev(%"class.memory_instrumentation::mojom::RawProcessMemoryDump"* nocapture) unnamed_addr #2 align 2 {
  %2 = getelementptr inbounds %"class.memory_instrumentation::mojom::RawProcessMemoryDump", %"class.memory_instrumentation::mojom::RawProcessMemoryDump"* %0, i64 0, i32 0
  store i32 0, i32* %2, align 8
  %3 = getelementptr inbounds %"class.memory_instrumentation::mojom::RawProcessMemoryDump", %"class.memory_instrumentation::mojom::RawProcessMemoryDump"* %0, i64 0, i32 1
  %4 = bitcast %"class.std::__1::vector.40"* %3 to i8*
  call void @llvm.memset.p0i8.i64(i8* align 8 %4, i8 0, i64 48, i1 false)
  ret void
}

; Function Attrs: nounwind ssp uwtable
define hidden void @_ZN22memory_instrumentation5mojom20RawProcessMemoryDumpC2EN4base11trace_event23MemoryDumpLevelOfDetailENSt3__16vectorINS3_17ProcessMemoryDump23MemoryAllocatorDumpEdgeENS5_9allocatorIS8_EEEENS6_INS5_10unique_ptrINS3_19MemoryAllocatorDumpENS5_14default_deleteISD_EEEENS9_ISG_EEEE(%"class.memory_instrumentation::mojom::RawProcessMemoryDump"* nocapture, i32, %"class.std::__1::vector.40"* nocapture, %"class.std::__1::vector.47"* nocapture) unnamed_addr #2 align 2 {
  %5 = getelementptr inbounds %"class.memory_instrumentation::mojom::RawProcessMemoryDump", %"class.memory_instrumentation::mojom::RawProcessMemoryDump"* %0, i64 0, i32 0
  store i32 %1, i32* %5, align 8
  %6 = getelementptr inbounds %"class.memory_instrumentation::mojom::RawProcessMemoryDump", %"class.memory_instrumentation::mojom::RawProcessMemoryDump"* %0, i64 0, i32 1
  %7 = bitcast %"class.std::__1::vector.40"* %6 to i8*
  tail call void @llvm.memset.p0i8.i64(i8* align 8 %7, i8 0, i64 24, i1 false) #15
  %8 = bitcast %"class.std::__1::vector.40"* %2 to i64*
  %9 = load i64, i64* %8, align 8
  %10 = bitcast %"class.std::__1::vector.40"* %6 to i64*
  store i64 %9, i64* %10, align 8
  %11 = getelementptr inbounds %"class.std::__1::vector.40", %"class.std::__1::vector.40"* %2, i64 0, i32 0, i32 1
  %12 = bitcast %"struct.base::trace_event::ProcessMemoryDump::MemoryAllocatorDumpEdge"** %11 to i64*
  %13 = load i64, i64* %12, align 8
  %14 = getelementptr inbounds %"class.memory_instrumentation::mojom::RawProcessMemoryDump", %"class.memory_instrumentation::mojom::RawProcessMemoryDump"* %0, i64 0, i32 1, i32 0, i32 1
  %15 = bitcast %"struct.base::trace_event::ProcessMemoryDump::MemoryAllocatorDumpEdge"** %14 to i64*
  store i64 %13, i64* %15, align 8
  %16 = getelementptr inbounds %"class.std::__1::vector.40", %"class.std::__1::vector.40"* %2, i64 0, i32 0, i32 2, i32 0, i32 0
  %17 = bitcast %"struct.base::trace_event::ProcessMemoryDump::MemoryAllocatorDumpEdge"** %16 to i64*
  %18 = load i64, i64* %17, align 8
  %19 = getelementptr inbounds %"class.memory_instrumentation::mojom::RawProcessMemoryDump", %"class.memory_instrumentation::mojom::RawProcessMemoryDump"* %0, i64 0, i32 1, i32 0, i32 2, i32 0, i32 0
  %20 = bitcast %"struct.base::trace_event::ProcessMemoryDump::MemoryAllocatorDumpEdge"** %19 to i64*
  store i64 %18, i64* %20, align 8
  %21 = bitcast %"class.std::__1::vector.40"* %2 to i8*
  tail call void @llvm.memset.p0i8.i64(i8* align 8 %21, i8 0, i64 24, i1 false) #15
  %22 = getelementptr inbounds %"class.memory_instrumentation::mojom::RawProcessMemoryDump", %"class.memory_instrumentation::mojom::RawProcessMemoryDump"* %0, i64 0, i32 2
  %23 = bitcast %"class.std::__1::vector.47"* %22 to i8*
  tail call void @llvm.memset.p0i8.i64(i8* align 8 %23, i8 0, i64 24, i1 false) #15
  %24 = bitcast %"class.std::__1::vector.47"* %3 to i64*
  %25 = load i64, i64* %24, align 8
  %26 = bitcast %"class.std::__1::vector.47"* %22 to i64*
  store i64 %25, i64* %26, align 8
  %27 = getelementptr inbounds %"class.std::__1::vector.47", %"class.std::__1::vector.47"* %3, i64 0, i32 0, i32 1
  %28 = bitcast %"class.std::__1::unique_ptr.49"** %27 to i64*
  %29 = load i64, i64* %28, align 8
  %30 = getelementptr inbounds %"class.memory_instrumentation::mojom::RawProcessMemoryDump", %"class.memory_instrumentation::mojom::RawProcessMemoryDump"* %0, i64 0, i32 2, i32 0, i32 1
  %31 = bitcast %"class.std::__1::unique_ptr.49"** %30 to i64*
  store i64 %29, i64* %31, align 8
  %32 = getelementptr inbounds %"class.std::__1::vector.47", %"class.std::__1::vector.47"* %3, i64 0, i32 0, i32 2, i32 0, i32 0
  %33 = bitcast %"class.std::__1::unique_ptr.49"** %32 to i64*
  %34 = load i64, i64* %33, align 8
  %35 = getelementptr inbounds %"class.memory_instrumentation::mojom::RawProcessMemoryDump", %"class.memory_instrumentation::mojom::RawProcessMemoryDump"* %0, i64 0, i32 2, i32 0, i32 2, i32 0, i32 0
  %36 = bitcast %"class.std::__1::unique_ptr.49"** %35 to i64*
  store i64 %34, i64* %36, align 8
  %37 = bitcast %"class.std::__1::vector.47"* %3 to i8*
  tail call void @llvm.memset.p0i8.i64(i8* align 8 %37, i8 0, i64 24, i1 false) #15
  ret void
}

; Function Attrs: nounwind ssp uwtable
define hidden void @_ZN22memory_instrumentation5mojom20RawProcessMemoryDumpD2Ev(%"class.memory_instrumentation::mojom::RawProcessMemoryDump"* nocapture) unnamed_addr #2 align 2 {
  %2 = getelementptr inbounds %"class.memory_instrumentation::mojom::RawProcessMemoryDump", %"class.memory_instrumentation::mojom::RawProcessMemoryDump"* %0, i64 0, i32 2
  %3 = getelementptr inbounds %"class.std::__1::vector.47", %"class.std::__1::vector.47"* %2, i64 0, i32 0, i32 0
  %4 = load %"class.std::__1::unique_ptr.49"*, %"class.std::__1::unique_ptr.49"** %3, align 8
  %5 = icmp eq %"class.std::__1::unique_ptr.49"* %4, null
  br i1 %5, label %26, label %6

6:                                                ; preds = %1
  %7 = bitcast %"class.std::__1::unique_ptr.49"* %4 to i8*
  %8 = getelementptr inbounds %"class.memory_instrumentation::mojom::RawProcessMemoryDump", %"class.memory_instrumentation::mojom::RawProcessMemoryDump"* %0, i64 0, i32 2, i32 0, i32 1
  %9 = load %"class.std::__1::unique_ptr.49"*, %"class.std::__1::unique_ptr.49"** %8, align 8
  %10 = icmp eq %"class.std::__1::unique_ptr.49"* %9, %4
  br i1 %10, label %24, label %11

11:                                               ; preds = %6, %19
  %12 = phi %"class.std::__1::unique_ptr.49"* [ %13, %19 ], [ %9, %6 ]
  %13 = getelementptr inbounds %"class.std::__1::unique_ptr.49", %"class.std::__1::unique_ptr.49"* %12, i64 -1
  %14 = getelementptr inbounds %"class.std::__1::unique_ptr.49", %"class.std::__1::unique_ptr.49"* %13, i64 0, i32 0, i32 0, i32 0
  %15 = load %"class.base::trace_event::MemoryAllocatorDump"*, %"class.base::trace_event::MemoryAllocatorDump"** %14, align 8
  store %"class.base::trace_event::MemoryAllocatorDump"* null, %"class.base::trace_event::MemoryAllocatorDump"** %14, align 8
  %16 = icmp eq %"class.base::trace_event::MemoryAllocatorDump"* %15, null
  br i1 %16, label %19, label %17

17:                                               ; preds = %11
  tail call void @_ZN4base11trace_event19MemoryAllocatorDumpD1Ev(%"class.base::trace_event::MemoryAllocatorDump"* nonnull %15) #15
  %18 = bitcast %"class.base::trace_event::MemoryAllocatorDump"* %15 to i8*
  tail call void @_ZdlPv(i8* %18) #16
  br label %19

19:                                               ; preds = %17, %11
  %20 = icmp eq %"class.std::__1::unique_ptr.49"* %13, %4
  br i1 %20, label %21, label %11

21:                                               ; preds = %19
  %22 = bitcast %"class.std::__1::vector.47"* %2 to i8**
  %23 = load i8*, i8** %22, align 8
  br label %24

24:                                               ; preds = %21, %6
  %25 = phi i8* [ %23, %21 ], [ %7, %6 ]
  store %"class.std::__1::unique_ptr.49"* %4, %"class.std::__1::unique_ptr.49"** %8, align 8
  tail call void @_ZdlPv(i8* %25) #16
  br label %26

26:                                               ; preds = %1, %24
  %27 = getelementptr inbounds %"class.memory_instrumentation::mojom::RawProcessMemoryDump", %"class.memory_instrumentation::mojom::RawProcessMemoryDump"* %0, i64 0, i32 1, i32 0, i32 0
  %28 = load %"struct.base::trace_event::ProcessMemoryDump::MemoryAllocatorDumpEdge"*, %"struct.base::trace_event::ProcessMemoryDump::MemoryAllocatorDumpEdge"** %27, align 8
  %29 = icmp eq %"struct.base::trace_event::ProcessMemoryDump::MemoryAllocatorDumpEdge"* %28, null
  br i1 %29, label %35, label %30

30:                                               ; preds = %26
  %31 = ptrtoint %"struct.base::trace_event::ProcessMemoryDump::MemoryAllocatorDumpEdge"* %28 to i64
  %32 = getelementptr inbounds %"class.memory_instrumentation::mojom::RawProcessMemoryDump", %"class.memory_instrumentation::mojom::RawProcessMemoryDump"* %0, i64 0, i32 1, i32 0, i32 1
  %33 = bitcast %"struct.base::trace_event::ProcessMemoryDump::MemoryAllocatorDumpEdge"** %32 to i64*
  store i64 %31, i64* %33, align 8
  %34 = bitcast %"struct.base::trace_event::ProcessMemoryDump::MemoryAllocatorDumpEdge"* %28 to i8*
  tail call void @_ZdlPv(i8* %34) #16
  br label %35

35:                                               ; preds = %26, %30
  ret void
}

; Function Attrs: nounwind ssp uwtable
define hidden void @_ZNK22memory_instrumentation5mojom20RawProcessMemoryDump14WriteIntoTraceEN8perfetto11TracedValueE(%"class.memory_instrumentation::mojom::RawProcessMemoryDump"* nocapture readonly, %"class.perfetto::TracedValue"*) local_unnamed_addr #2 align 2 {
  %3 = alloca %"class.perfetto::TracedValue", align 8
  %4 = alloca %"class.perfetto::TracedDictionary", align 8
  %5 = alloca %"class.perfetto::TracedValue", align 8
  %6 = alloca %"class.perfetto::TracedValue", align 8
  %7 = alloca %"class.std::__1::basic_string", align 8
  %8 = alloca %"class.perfetto::TracedValue", align 8
  %9 = alloca %"class.std::__1::basic_string", align 8
  %10 = bitcast %"class.perfetto::TracedDictionary"* %4 to i8*
  call void @llvm.lifetime.start.p0i8(i64 16, i8* nonnull %10) #15
  %11 = bitcast %"class.perfetto::TracedDictionary"* %4 to i8*
  call void @llvm.memset.p0i8.i64(i8* nonnull align 8 %11, i8 -86, i64 16, i1 false)
  call void @_ZNO8perfetto11TracedValue15WriteDictionaryEv(%"class.perfetto::TracedDictionary"* nonnull sret %4, %"class.perfetto::TracedValue"* %1) #15
  call void @_ZN8perfetto16TracedDictionary7AddItemENS_12StaticStringE(%"class.perfetto::TracedValue"* nonnull sret %5, %"class.perfetto::TracedDictionary"* nonnull %4, i8* getelementptr inbounds ([16 x i8], [16 x i8]* @.str.3, i64 0, i64 0)) #15
  %12 = getelementptr inbounds %"class.memory_instrumentation::mojom::RawProcessMemoryDump", %"class.memory_instrumentation::mojom::RawProcessMemoryDump"* %0, i64 0, i32 0
  %13 = bitcast %"class.perfetto::TracedValue"* %5 to i8*
  %14 = bitcast %"class.perfetto::TracedValue"* %3 to i8*
  call void @llvm.lifetime.start.p0i8(i64 16, i8* nonnull %14) #15
  call void @llvm.memcpy.p0i8.p0i8.i64(i8* nonnull align 8 %14, i8* nonnull align 8 %13, i64 16, i1 false) #15
  %15 = load i32, i32* %12, align 4
  %16 = zext i32 %15 to i64
  call void @_ZNO8perfetto11TracedValue11WriteUInt64Em(%"class.perfetto::TracedValue"* nonnull %3, i64 %16) #15
  call void @llvm.lifetime.end.p0i8(i64 16, i8* nonnull %14) #15
  call void @_ZN8perfetto16TracedDictionary7AddItemENS_12StaticStringE(%"class.perfetto::TracedValue"* nonnull sret %6, %"class.perfetto::TracedDictionary"* nonnull %4, i8* getelementptr inbounds ([21 x i8], [21 x i8]* @.str.16, i64 0, i64 0)) #15
  %17 = bitcast %"class.std::__1::basic_string"* %7 to i8*
  call void @llvm.lifetime.start.p0i8(i64 24, i8* nonnull %17) #15
  %18 = bitcast %"class.std::__1::basic_string"* %7 to %"struct.std::__1::basic_string<char, std::__1::char_traits<char>, std::__1::allocator<char> >::__short"*
  %19 = getelementptr inbounds %"struct.std::__1::basic_string<char, std::__1::char_traits<char>, std::__1::allocator<char> >::__short", %"struct.std::__1::basic_string<char, std::__1::char_traits<char>, std::__1::allocator<char> >::__short"* %18, i64 0, i32 1, i32 0
  store i8 7, i8* %19, align 1
  call void @llvm.memcpy.p0i8.p0i8.i64(i8* nonnull align 8 %17, i8* align 1 getelementptr inbounds ([8 x i8], [8 x i8]* @.str.1, i64 0, i64 0), i64 7, i1 false) #15
  %20 = getelementptr inbounds i8, i8* %17, i64 7
  store i8 0, i8* %20, align 1
  call void @_ZNO8perfetto11TracedValue11WriteStringERKNSt3__112basic_stringIcNS1_11char_traitsIcEENS1_9allocatorIcEEEE(%"class.perfetto::TracedValue"* nonnull %6, %"class.std::__1::basic_string"* nonnull dereferenceable(24) %7) #15
  %21 = load i8, i8* %19, align 1
  %22 = icmp slt i8 %21, 0
  br i1 %22, label %23, label %26

23:                                               ; preds = %2
  %24 = getelementptr inbounds %"class.std::__1::basic_string", %"class.std::__1::basic_string"* %7, i64 0, i32 0, i32 0, i32 0, i32 0, i32 0, i32 0
  %25 = load i8*, i8** %24, align 8
  call void @_ZdlPv(i8* %25) #16
  br label %26

26:                                               ; preds = %2, %23
  call void @llvm.lifetime.end.p0i8(i64 24, i8* nonnull %17) #15
  call void @_ZN8perfetto16TracedDictionary7AddItemENS_12StaticStringE(%"class.perfetto::TracedValue"* nonnull sret %8, %"class.perfetto::TracedDictionary"* nonnull %4, i8* getelementptr inbounds ([16 x i8], [16 x i8]* @.str.17, i64 0, i64 0)) #15
  %27 = bitcast %"class.std::__1::basic_string"* %9 to i8*
  call void @llvm.lifetime.start.p0i8(i64 24, i8* nonnull %27) #15
  %28 = bitcast %"class.std::__1::basic_string"* %9 to %"struct.std::__1::basic_string<char, std::__1::char_traits<char>, std::__1::allocator<char> >::__short"*
  %29 = getelementptr inbounds %"struct.std::__1::basic_string<char, std::__1::char_traits<char>, std::__1::allocator<char> >::__short", %"struct.std::__1::basic_string<char, std::__1::char_traits<char>, std::__1::allocator<char> >::__short"* %28, i64 0, i32 1, i32 0
  store i8 7, i8* %29, align 1
  call void @llvm.memcpy.p0i8.p0i8.i64(i8* nonnull align 8 %27, i8* align 1 getelementptr inbounds ([8 x i8], [8 x i8]* @.str.1, i64 0, i64 0), i64 7, i1 false) #15
  %30 = getelementptr inbounds i8, i8* %27, i64 7
  store i8 0, i8* %30, align 1
  call void @_ZNO8perfetto11TracedValue11WriteStringERKNSt3__112basic_stringIcNS1_11char_traitsIcEENS1_9allocatorIcEEEE(%"class.perfetto::TracedValue"* nonnull %8, %"class.std::__1::basic_string"* nonnull dereferenceable(24) %9) #15
  %31 = load i8, i8* %29, align 1
  %32 = icmp slt i8 %31, 0
  br i1 %32, label %33, label %36

33:                                               ; preds = %26
  %34 = getelementptr inbounds %"class.std::__1::basic_string", %"class.std::__1::basic_string"* %9, i64 0, i32 0, i32 0, i32 0, i32 0, i32 0, i32 0
  %35 = load i8*, i8** %34, align 8
  call void @_ZdlPv(i8* %35) #16
  br label %36

36:                                               ; preds = %26, %33
  call void @llvm.lifetime.end.p0i8(i64 24, i8* nonnull %27) #15
  call void @llvm.lifetime.end.p0i8(i64 16, i8* nonnull %10) #15
  ret void
}

; Function Attrs: nounwind ssp uwtable
define hidden zeroext i1 @_ZN22memory_instrumentation5mojom20RawProcessMemoryDump8ValidateEPKvPN4mojo8internal17ValidationContextE(i8*, %"class.mojo::internal::ValidationContext"*) local_unnamed_addr #2 align 2 {
  %3 = tail call zeroext i1 @_ZN22memory_instrumentation5mojom8internal25RawProcessMemoryDump_Data8ValidateEPKvPN4mojo8internal17ValidationContextE(i8* %0, %"class.mojo::internal::ValidationContext"* %1) #15
  ret i1 %3
}

declare zeroext i1 @_ZN22memory_instrumentation5mojom8internal25RawProcessMemoryDump_Data8ValidateEPKvPN4mojo8internal17ValidationContextE(i8*, %"class.mojo::internal::ValidationContext"*) local_unnamed_addr #4

; Function Attrs: nounwind ssp uwtable
define hidden void @_ZN22memory_instrumentation5mojom8VmRegionC2Ev(%"class.memory_instrumentation::mojom::VmRegion"* nocapture) unnamed_addr #2 align 2 {
  %2 = getelementptr inbounds %"class.memory_instrumentation::mojom::VmRegion", %"class.memory_instrumentation::mojom::VmRegion"* %0, i64 0, i32 6
  %3 = bitcast %"class.memory_instrumentation::mojom::VmRegion"* %0 to i8*
  call void @llvm.memset.p0i8.i64(i8* align 8 %3, i8 0, i64 76, i1 false)
  %4 = bitcast %"class.std::__1::basic_string"* %2 to i8*
  call void @llvm.memset.p0i8.i64(i8* align 8 %4, i8 0, i64 80, i1 false)
  ret void
}

; Function Attrs: nounwind ssp uwtable
define hidden void @_ZN22memory_instrumentation5mojom8VmRegionC2EmmmRKNSt3__112basic_stringIcNS2_11char_traitsIcEENS2_9allocatorIcEEEESA_jSA_mmmmmmm(%"class.memory_instrumentation::mojom::VmRegion"*, i64, i64, i64, %"class.std::__1::basic_string"* nocapture readonly dereferenceable(24), %"class.std::__1::basic_string"* nocapture readonly dereferenceable(24), i32, %"class.std::__1::basic_string"* nocapture readonly dereferenceable(24), i64, i64, i64, i64, i64, i64, i64) unnamed_addr #2 align 2 {
  %16 = getelementptr inbounds %"class.memory_instrumentation::mojom::VmRegion", %"class.memory_instrumentation::mojom::VmRegion"* %0, i64 0, i32 0
  store i64 %1, i64* %16, align 8
  %17 = getelementptr inbounds %"class.memory_instrumentation::mojom::VmRegion", %"class.memory_instrumentation::mojom::VmRegion"* %0, i64 0, i32 1
  store i64 %2, i64* %17, align 8
  %18 = getelementptr inbounds %"class.memory_instrumentation::mojom::VmRegion", %"class.memory_instrumentation::mojom::VmRegion"* %0, i64 0, i32 2
  store i64 %3, i64* %18, align 8
  %19 = getelementptr inbounds %"class.memory_instrumentation::mojom::VmRegion", %"class.memory_instrumentation::mojom::VmRegion"* %0, i64 0, i32 3
  %20 = bitcast %"class.std::__1::basic_string"* %4 to %"struct.std::__1::basic_string<char, std::__1::char_traits<char>, std::__1::allocator<char> >::__short"*
  %21 = getelementptr inbounds %"struct.std::__1::basic_string<char, std::__1::char_traits<char>, std::__1::allocator<char> >::__short", %"struct.std::__1::basic_string<char, std::__1::char_traits<char>, std::__1::allocator<char> >::__short"* %20, i64 0, i32 1, i32 0
  %22 = load i8, i8* %21, align 1
  %23 = icmp slt i8 %22, 0
  br i1 %23, label %27, label %24

24:                                               ; preds = %15
  %25 = bitcast %"class.std::__1::basic_string"* %19 to i8*
  %26 = bitcast %"class.std::__1::basic_string"* %4 to i8*
  tail call void @llvm.memcpy.p0i8.p0i8.i64(i8* align 8 %25, i8* align 8 %26, i64 24, i1 false) #15
  br label %32

27:                                               ; preds = %15
  %28 = getelementptr inbounds %"class.std::__1::basic_string", %"class.std::__1::basic_string"* %4, i64 0, i32 0, i32 0, i32 0, i32 0, i32 0, i32 0
  %29 = load i8*, i8** %28, align 8
  %30 = getelementptr inbounds %"class.std::__1::basic_string", %"class.std::__1::basic_string"* %4, i64 0, i32 0, i32 0, i32 0, i32 0, i32 0, i32 1
  %31 = load i64, i64* %30, align 8
  tail call void @_ZNSt3__112basic_stringIcNS_11char_traitsIcEENS_9allocatorIcEEE25__init_copy_ctor_externalEPKcm(%"class.std::__1::basic_string"* %19, i8* %29, i64 %31) #15
  br label %32

32:                                               ; preds = %24, %27
  %33 = getelementptr inbounds %"class.memory_instrumentation::mojom::VmRegion", %"class.memory_instrumentation::mojom::VmRegion"* %0, i64 0, i32 4
  %34 = bitcast %"class.std::__1::basic_string"* %5 to %"struct.std::__1::basic_string<char, std::__1::char_traits<char>, std::__1::allocator<char> >::__short"*
  %35 = getelementptr inbounds %"struct.std::__1::basic_string<char, std::__1::char_traits<char>, std::__1::allocator<char> >::__short", %"struct.std::__1::basic_string<char, std::__1::char_traits<char>, std::__1::allocator<char> >::__short"* %34, i64 0, i32 1, i32 0
  %36 = load i8, i8* %35, align 1
  %37 = icmp slt i8 %36, 0
  br i1 %37, label %41, label %38

38:                                               ; preds = %32
  %39 = bitcast %"class.std::__1::basic_string"* %33 to i8*
  %40 = bitcast %"class.std::__1::basic_string"* %5 to i8*
  tail call void @llvm.memcpy.p0i8.p0i8.i64(i8* align 8 %39, i8* align 8 %40, i64 24, i1 false) #15
  br label %46

41:                                               ; preds = %32
  %42 = getelementptr inbounds %"class.std::__1::basic_string", %"class.std::__1::basic_string"* %5, i64 0, i32 0, i32 0, i32 0, i32 0, i32 0, i32 0
  %43 = load i8*, i8** %42, align 8
  %44 = getelementptr inbounds %"class.std::__1::basic_string", %"class.std::__1::basic_string"* %5, i64 0, i32 0, i32 0, i32 0, i32 0, i32 0, i32 1
  %45 = load i64, i64* %44, align 8
  tail call void @_ZNSt3__112basic_stringIcNS_11char_traitsIcEENS_9allocatorIcEEE25__init_copy_ctor_externalEPKcm(%"class.std::__1::basic_string"* %33, i8* %43, i64 %45) #15
  br label %46

46:                                               ; preds = %38, %41
  %47 = getelementptr inbounds %"class.memory_instrumentation::mojom::VmRegion", %"class.memory_instrumentation::mojom::VmRegion"* %0, i64 0, i32 5
  store i32 %6, i32* %47, align 8
  %48 = getelementptr inbounds %"class.memory_instrumentation::mojom::VmRegion", %"class.memory_instrumentation::mojom::VmRegion"* %0, i64 0, i32 6
  %49 = bitcast %"class.std::__1::basic_string"* %7 to %"struct.std::__1::basic_string<char, std::__1::char_traits<char>, std::__1::allocator<char> >::__short"*
  %50 = getelementptr inbounds %"struct.std::__1::basic_string<char, std::__1::char_traits<char>, std::__1::allocator<char> >::__short", %"struct.std::__1::basic_string<char, std::__1::char_traits<char>, std::__1::allocator<char> >::__short"* %49, i64 0, i32 1, i32 0
  %51 = load i8, i8* %50, align 1
  %52 = icmp slt i8 %51, 0
  br i1 %52, label %56, label %53

53:                                               ; preds = %46
  %54 = bitcast %"class.std::__1::basic_string"* %48 to i8*
  %55 = bitcast %"class.std::__1::basic_string"* %7 to i8*
  tail call void @llvm.memcpy.p0i8.p0i8.i64(i8* align 8 %54, i8* align 8 %55, i64 24, i1 false) #15
  br label %61

56:                                               ; preds = %46
  %57 = getelementptr inbounds %"class.std::__1::basic_string", %"class.std::__1::basic_string"* %7, i64 0, i32 0, i32 0, i32 0, i32 0, i32 0, i32 0
  %58 = load i8*, i8** %57, align 8
  %59 = getelementptr inbounds %"class.std::__1::basic_string", %"class.std::__1::basic_string"* %7, i64 0, i32 0, i32 0, i32 0, i32 0, i32 0, i32 1
  %60 = load i64, i64* %59, align 8
  tail call void @_ZNSt3__112basic_stringIcNS_11char_traitsIcEENS_9allocatorIcEEE25__init_copy_ctor_externalEPKcm(%"class.std::__1::basic_string"* %48, i8* %58, i64 %60) #15
  br label %61

61:                                               ; preds = %53, %56
  %62 = getelementptr inbounds %"class.memory_instrumentation::mojom::VmRegion", %"class.memory_instrumentation::mojom::VmRegion"* %0, i64 0, i32 7
  store i64 %8, i64* %62, align 8
  %63 = getelementptr inbounds %"class.memory_instrumentation::mojom::VmRegion", %"class.memory_instrumentation::mojom::VmRegion"* %0, i64 0, i32 8
  store i64 %9, i64* %63, align 8
  %64 = getelementptr inbounds %"class.memory_instrumentation::mojom::VmRegion", %"class.memory_instrumentation::mojom::VmRegion"* %0, i64 0, i32 9
  store i64 %10, i64* %64, align 8
  %65 = getelementptr inbounds %"class.memory_instrumentation::mojom::VmRegion", %"class.memory_instrumentation::mojom::VmRegion"* %0, i64 0, i32 10
  store i64 %11, i64* %65, align 8
  %66 = getelementptr inbounds %"class.memory_instrumentation::mojom::VmRegion", %"class.memory_instrumentation::mojom::VmRegion"* %0, i64 0, i32 11
  store i64 %12, i64* %66, align 8
  %67 = getelementptr inbounds %"class.memory_instrumentation::mojom::VmRegion", %"class.memory_instrumentation::mojom::VmRegion"* %0, i64 0, i32 12
  store i64 %13, i64* %67, align 8
  %68 = getelementptr inbounds %"class.memory_instrumentation::mojom::VmRegion", %"class.memory_instrumentation::mojom::VmRegion"* %0, i64 0, i32 13
  store i64 %14, i64* %68, align 8
  ret void
}

; Function Attrs: nounwind ssp uwtable
define hidden void @_ZN22memory_instrumentation5mojom8VmRegionD2Ev(%"class.memory_instrumentation::mojom::VmRegion"* nocapture readonly) unnamed_addr #2 align 2 {
  %2 = getelementptr inbounds %"class.memory_instrumentation::mojom::VmRegion", %"class.memory_instrumentation::mojom::VmRegion"* %0, i64 0, i32 6
  %3 = bitcast %"class.std::__1::basic_string"* %2 to %"struct.std::__1::basic_string<char, std::__1::char_traits<char>, std::__1::allocator<char> >::__short"*
  %4 = getelementptr inbounds %"struct.std::__1::basic_string<char, std::__1::char_traits<char>, std::__1::allocator<char> >::__short", %"struct.std::__1::basic_string<char, std::__1::char_traits<char>, std::__1::allocator<char> >::__short"* %3, i64 0, i32 1, i32 0
  %5 = load i8, i8* %4, align 1
  %6 = icmp slt i8 %5, 0
  br i1 %6, label %7, label %10

7:                                                ; preds = %1
  %8 = getelementptr inbounds %"class.std::__1::basic_string", %"class.std::__1::basic_string"* %2, i64 0, i32 0, i32 0, i32 0, i32 0, i32 0, i32 0
  %9 = load i8*, i8** %8, align 8
  tail call void @_ZdlPv(i8* %9) #16
  br label %10

10:                                               ; preds = %1, %7
  %11 = getelementptr inbounds %"class.memory_instrumentation::mojom::VmRegion", %"class.memory_instrumentation::mojom::VmRegion"* %0, i64 0, i32 4
  %12 = bitcast %"class.std::__1::basic_string"* %11 to %"struct.std::__1::basic_string<char, std::__1::char_traits<char>, std::__1::allocator<char> >::__short"*
  %13 = getelementptr inbounds %"struct.std::__1::basic_string<char, std::__1::char_traits<char>, std::__1::allocator<char> >::__short", %"struct.std::__1::basic_string<char, std::__1::char_traits<char>, std::__1::allocator<char> >::__short"* %12, i64 0, i32 1, i32 0
  %14 = load i8, i8* %13, align 1
  %15 = icmp slt i8 %14, 0
  br i1 %15, label %16, label %19

16:                                               ; preds = %10
  %17 = getelementptr inbounds %"class.std::__1::basic_string", %"class.std::__1::basic_string"* %11, i64 0, i32 0, i32 0, i32 0, i32 0, i32 0, i32 0
  %18 = load i8*, i8** %17, align 8
  tail call void @_ZdlPv(i8* %18) #16
  br label %19

19:                                               ; preds = %10, %16
  %20 = getelementptr inbounds %"class.memory_instrumentation::mojom::VmRegion", %"class.memory_instrumentation::mojom::VmRegion"* %0, i64 0, i32 3
  %21 = bitcast %"class.std::__1::basic_string"* %20 to %"struct.std::__1::basic_string<char, std::__1::char_traits<char>, std::__1::allocator<char> >::__short"*
  %22 = getelementptr inbounds %"struct.std::__1::basic_string<char, std::__1::char_traits<char>, std::__1::allocator<char> >::__short", %"struct.std::__1::basic_string<char, std::__1::char_traits<char>, std::__1::allocator<char> >::__short"* %21, i64 0, i32 1, i32 0
  %23 = load i8, i8* %22, align 1
  %24 = icmp slt i8 %23, 0
  br i1 %24, label %25, label %28

25:                                               ; preds = %19
  %26 = getelementptr inbounds %"class.std::__1::basic_string", %"class.std::__1::basic_string"* %20, i64 0, i32 0, i32 0, i32 0, i32 0, i32 0, i32 0
  %27 = load i8*, i8** %26, align 8
  tail call void @_ZdlPv(i8* %27) #16
  br label %28

28:                                               ; preds = %19, %25
  ret void
}

; Function Attrs: nounwind ssp uwtable
define hidden i64 @_ZNK22memory_instrumentation5mojom8VmRegion4HashEm(%"class.memory_instrumentation::mojom::VmRegion"*, i64) local_unnamed_addr #2 align 2 {
  %3 = alloca %"struct.std::__1::__murmur2_or_cityhash", align 1
  %4 = alloca %"struct.std::__1::__murmur2_or_cityhash", align 1
  %5 = alloca %"struct.std::__1::__murmur2_or_cityhash", align 1
  %6 = getelementptr inbounds %"class.memory_instrumentation::mojom::VmRegion", %"class.memory_instrumentation::mojom::VmRegion"* %0, i64 0, i32 0
  %7 = load i64, i64* %6, align 8
  %8 = shl i64 %1, 6
  %9 = lshr i64 %1, 2
  %10 = add i64 %9, %8
  %11 = add i64 %10, %7
  %12 = xor i64 %11, %1
  %13 = getelementptr inbounds %"class.memory_instrumentation::mojom::VmRegion", %"class.memory_instrumentation::mojom::VmRegion"* %0, i64 0, i32 1
  %14 = load i64, i64* %13, align 8
  %15 = shl i64 %12, 6
  %16 = lshr i64 %12, 2
  %17 = add i64 %15, %14
  %18 = add i64 %17, %16
  %19 = xor i64 %18, %12
  %20 = getelementptr inbounds %"class.memory_instrumentation::mojom::VmRegion", %"class.memory_instrumentation::mojom::VmRegion"* %0, i64 0, i32 2
  %21 = load i64, i64* %20, align 8
  %22 = shl i64 %19, 6
  %23 = lshr i64 %19, 2
  %24 = add i64 %22, %21
  %25 = add i64 %24, %23
  %26 = xor i64 %25, %19
  %27 = getelementptr inbounds %"class.memory_instrumentation::mojom::VmRegion", %"class.memory_instrumentation::mojom::VmRegion"* %0, i64 0, i32 3
  %28 = bitcast %"class.std::__1::basic_string"* %27 to %"struct.std::__1::basic_string<char, std::__1::char_traits<char>, std::__1::allocator<char> >::__short"*
  %29 = getelementptr inbounds %"struct.std::__1::basic_string<char, std::__1::char_traits<char>, std::__1::allocator<char> >::__short", %"struct.std::__1::basic_string<char, std::__1::char_traits<char>, std::__1::allocator<char> >::__short"* %28, i64 0, i32 1, i32 0
  %30 = load i8, i8* %29, align 1
  %31 = icmp slt i8 %30, 0
  %32 = getelementptr inbounds %"class.std::__1::basic_string", %"class.std::__1::basic_string"* %27, i64 0, i32 0, i32 0, i32 0, i32 0, i32 0, i32 0
  %33 = load i8*, i8** %32, align 8
  %34 = getelementptr inbounds %"class.memory_instrumentation::mojom::VmRegion", %"class.memory_instrumentation::mojom::VmRegion"* %0, i64 0, i32 3, i32 0, i32 0, i32 0, i32 0, i32 0, i32 1
  %35 = load i64, i64* %34, align 8
  %36 = bitcast %"class.std::__1::basic_string"* %27 to i8*
  %37 = zext i8 %30 to i64
  %38 = select i1 %31, i8* %33, i8* %36
  %39 = select i1 %31, i64 %35, i64 %37
  %40 = getelementptr inbounds %"struct.std::__1::__murmur2_or_cityhash", %"struct.std::__1::__murmur2_or_cityhash"* %3, i64 0, i32 0
  call void @llvm.lifetime.start.p0i8(i64 1, i8* nonnull %40) #15
  %41 = call i64 @_ZNSt3__121__murmur2_or_cityhashImLm64EEclEPKvm(%"struct.std::__1::__murmur2_or_cityhash"* nonnull %3, i8* %38, i64 %39) #15
  call void @llvm.lifetime.end.p0i8(i64 1, i8* nonnull %40) #15
  %42 = shl i64 %26, 6
  %43 = lshr i64 %26, 2
  %44 = add i64 %42, %41
  %45 = add i64 %44, %43
  %46 = xor i64 %45, %26
  %47 = getelementptr inbounds %"class.memory_instrumentation::mojom::VmRegion", %"class.memory_instrumentation::mojom::VmRegion"* %0, i64 0, i32 4
  %48 = bitcast %"class.std::__1::basic_string"* %47 to %"struct.std::__1::basic_string<char, std::__1::char_traits<char>, std::__1::allocator<char> >::__short"*
  %49 = getelementptr inbounds %"struct.std::__1::basic_string<char, std::__1::char_traits<char>, std::__1::allocator<char> >::__short", %"struct.std::__1::basic_string<char, std::__1::char_traits<char>, std::__1::allocator<char> >::__short"* %48, i64 0, i32 1, i32 0
  %50 = load i8, i8* %49, align 1
  %51 = icmp slt i8 %50, 0
  %52 = getelementptr inbounds %"class.std::__1::basic_string", %"class.std::__1::basic_string"* %47, i64 0, i32 0, i32 0, i32 0, i32 0, i32 0, i32 0
  %53 = load i8*, i8** %52, align 8
  %54 = getelementptr inbounds %"class.memory_instrumentation::mojom::VmRegion", %"class.memory_instrumentation::mojom::VmRegion"* %0, i64 0, i32 4, i32 0, i32 0, i32 0, i32 0, i32 0, i32 1
  %55 = load i64, i64* %54, align 8
  %56 = bitcast %"class.std::__1::basic_string"* %47 to i8*
  %57 = zext i8 %50 to i64
  %58 = select i1 %51, i8* %53, i8* %56
  %59 = select i1 %51, i64 %55, i64 %57
  %60 = getelementptr inbounds %"struct.std::__1::__murmur2_or_cityhash", %"struct.std::__1::__murmur2_or_cityhash"* %4, i64 0, i32 0
  call void @llvm.lifetime.start.p0i8(i64 1, i8* nonnull %60) #15
  %61 = call i64 @_ZNSt3__121__murmur2_or_cityhashImLm64EEclEPKvm(%"struct.std::__1::__murmur2_or_cityhash"* nonnull %4, i8* %58, i64 %59) #15
  call void @llvm.lifetime.end.p0i8(i64 1, i8* nonnull %60) #15
  %62 = shl i64 %46, 6
  %63 = lshr i64 %46, 2
  %64 = add i64 %62, %61
  %65 = add i64 %64, %63
  %66 = xor i64 %65, %46
  %67 = getelementptr inbounds %"class.memory_instrumentation::mojom::VmRegion", %"class.memory_instrumentation::mojom::VmRegion"* %0, i64 0, i32 5
  %68 = load i32, i32* %67, align 4
  %69 = zext i32 %68 to i64
  %70 = shl i64 %66, 6
  %71 = lshr i64 %66, 2
  %72 = add i64 %70, %69
  %73 = add i64 %72, %71
  %74 = xor i64 %73, %66
  %75 = getelementptr inbounds %"class.memory_instrumentation::mojom::VmRegion", %"class.memory_instrumentation::mojom::VmRegion"* %0, i64 0, i32 6
  %76 = bitcast %"class.std::__1::basic_string"* %75 to %"struct.std::__1::basic_string<char, std::__1::char_traits<char>, std::__1::allocator<char> >::__short"*
  %77 = getelementptr inbounds %"struct.std::__1::basic_string<char, std::__1::char_traits<char>, std::__1::allocator<char> >::__short", %"struct.std::__1::basic_string<char, std::__1::char_traits<char>, std::__1::allocator<char> >::__short"* %76, i64 0, i32 1, i32 0
  %78 = load i8, i8* %77, align 1
  %79 = icmp slt i8 %78, 0
  %80 = getelementptr inbounds %"class.std::__1::basic_string", %"class.std::__1::basic_string"* %75, i64 0, i32 0, i32 0, i32 0, i32 0, i32 0, i32 0
  %81 = load i8*, i8** %80, align 8
  %82 = getelementptr inbounds %"class.memory_instrumentation::mojom::VmRegion", %"class.memory_instrumentation::mojom::VmRegion"* %0, i64 0, i32 6, i32 0, i32 0, i32 0, i32 0, i32 0, i32 1
  %83 = load i64, i64* %82, align 8
  %84 = bitcast %"class.std::__1::basic_string"* %75 to i8*
  %85 = zext i8 %78 to i64
  %86 = select i1 %79, i8* %81, i8* %84
  %87 = select i1 %79, i64 %83, i64 %85
  %88 = getelementptr inbounds %"struct.std::__1::__murmur2_or_cityhash", %"struct.std::__1::__murmur2_or_cityhash"* %5, i64 0, i32 0
  call void @llvm.lifetime.start.p0i8(i64 1, i8* nonnull %88) #15
  %89 = call i64 @_ZNSt3__121__murmur2_or_cityhashImLm64EEclEPKvm(%"struct.std::__1::__murmur2_or_cityhash"* nonnull %5, i8* %86, i64 %87) #15
  call void @llvm.lifetime.end.p0i8(i64 1, i8* nonnull %88) #15
  %90 = shl i64 %74, 6
  %91 = lshr i64 %74, 2
  %92 = add i64 %90, %89
  %93 = add i64 %92, %91
  %94 = xor i64 %93, %74
  %95 = getelementptr inbounds %"class.memory_instrumentation::mojom::VmRegion", %"class.memory_instrumentation::mojom::VmRegion"* %0, i64 0, i32 7
  %96 = load i64, i64* %95, align 8
  %97 = shl i64 %94, 6
  %98 = lshr i64 %94, 2
  %99 = add i64 %97, %96
  %100 = add i64 %99, %98
  %101 = xor i64 %100, %94
  %102 = getelementptr inbounds %"class.memory_instrumentation::mojom::VmRegion", %"class.memory_instrumentation::mojom::VmRegion"* %0, i64 0, i32 8
  %103 = load i64, i64* %102, align 8
  %104 = shl i64 %101, 6
  %105 = lshr i64 %101, 2
  %106 = add i64 %104, %103
  %107 = add i64 %106, %105
  %108 = xor i64 %107, %101
  %109 = getelementptr inbounds %"class.memory_instrumentation::mojom::VmRegion", %"class.memory_instrumentation::mojom::VmRegion"* %0, i64 0, i32 9
  %110 = load i64, i64* %109, align 8
  %111 = shl i64 %108, 6
  %112 = lshr i64 %108, 2
  %113 = add i64 %111, %110
  %114 = add i64 %113, %112
  %115 = xor i64 %114, %108
  %116 = getelementptr inbounds %"class.memory_instrumentation::mojom::VmRegion", %"class.memory_instrumentation::mojom::VmRegion"* %0, i64 0, i32 10
  %117 = load i64, i64* %116, align 8
  %118 = shl i64 %115, 6
  %119 = lshr i64 %115, 2
  %120 = add i64 %118, %117
  %121 = add i64 %120, %119
  %122 = xor i64 %121, %115
  %123 = getelementptr inbounds %"class.memory_instrumentation::mojom::VmRegion", %"class.memory_instrumentation::mojom::VmRegion"* %0, i64 0, i32 11
  %124 = load i64, i64* %123, align 8
  %125 = shl i64 %122, 6
  %126 = lshr i64 %122, 2
  %127 = add i64 %125, %124
  %128 = add i64 %127, %126
  %129 = xor i64 %128, %122
  %130 = getelementptr inbounds %"class.memory_instrumentation::mojom::VmRegion", %"class.memory_instrumentation::mojom::VmRegion"* %0, i64 0, i32 12
  %131 = load i64, i64* %130, align 8
  %132 = shl i64 %129, 6
  %133 = lshr i64 %129, 2
  %134 = add i64 %132, %131
  %135 = add i64 %134, %133
  %136 = xor i64 %135, %129
  %137 = getelementptr inbounds %"class.memory_instrumentation::mojom::VmRegion", %"class.memory_instrumentation::mojom::VmRegion"* %0, i64 0, i32 13
  %138 = load i64, i64* %137, align 8
  %139 = shl i64 %136, 6
  %140 = lshr i64 %136, 2
  %141 = add i64 %139, %138
  %142 = add i64 %141, %140
  %143 = xor i64 %142, %136
  ret i64 %143
}

; Function Attrs: nounwind ssp uwtable
define hidden void @_ZNK22memory_instrumentation5mojom8VmRegion14WriteIntoTraceEN8perfetto11TracedValueE(%"class.memory_instrumentation::mojom::VmRegion"*, %"class.perfetto::TracedValue"*) local_unnamed_addr #2 align 2 {
  %3 = alloca %"class.perfetto::TracedValue", align 8
  %4 = alloca %"class.perfetto::TracedValue", align 8
  %5 = alloca %"class.perfetto::TracedValue", align 8
  %6 = alloca %"class.perfetto::TracedValue", align 8
  %7 = alloca %"class.perfetto::TracedValue", align 8
  %8 = alloca %"class.perfetto::TracedValue", align 8
  %9 = alloca %"class.perfetto::TracedValue", align 8
  %10 = alloca %"class.perfetto::TracedValue", align 8
  %11 = alloca %"class.perfetto::TracedValue", align 8
  %12 = alloca %"class.perfetto::TracedValue", align 8
  %13 = alloca %"class.perfetto::TracedValue", align 8
  %14 = alloca %"class.perfetto::TracedValue", align 8
  %15 = alloca %"class.perfetto::TracedValue", align 8
  %16 = alloca %"class.perfetto::TracedValue", align 8
  %17 = alloca %"class.perfetto::TracedDictionary", align 8
  %18 = alloca %"class.perfetto::TracedValue", align 8
  %19 = alloca %"class.perfetto::TracedValue", align 8
  %20 = alloca %"class.perfetto::TracedValue", align 8
  %21 = alloca %"class.perfetto::TracedValue", align 8
  %22 = alloca %"class.perfetto::TracedValue", align 8
  %23 = alloca %"class.perfetto::TracedValue", align 8
  %24 = alloca %"class.perfetto::TracedValue", align 8
  %25 = alloca %"class.perfetto::TracedValue", align 8
  %26 = alloca %"class.perfetto::TracedValue", align 8
  %27 = alloca %"class.perfetto::TracedValue", align 8
  %28 = alloca %"class.perfetto::TracedValue", align 8
  %29 = alloca %"class.perfetto::TracedValue", align 8
  %30 = alloca %"class.perfetto::TracedValue", align 8
  %31 = alloca %"class.perfetto::TracedValue", align 8
  %32 = bitcast %"class.perfetto::TracedDictionary"* %17 to i8*
  call void @llvm.lifetime.start.p0i8(i64 16, i8* nonnull %32) #15
  %33 = bitcast %"class.perfetto::TracedDictionary"* %17 to i8*
  call void @llvm.memset.p0i8.i64(i8* nonnull align 8 %33, i8 -86, i64 16, i1 false)
  call void @_ZNO8perfetto11TracedValue15WriteDictionaryEv(%"class.perfetto::TracedDictionary"* nonnull sret %17, %"class.perfetto::TracedValue"* %1) #15
  call void @_ZN8perfetto16TracedDictionary7AddItemENS_12StaticStringE(%"class.perfetto::TracedValue"* nonnull sret %18, %"class.perfetto::TracedDictionary"* nonnull %17, i8* getelementptr inbounds ([14 x i8], [14 x i8]* @.str.18, i64 0, i64 0)) #15
  %34 = getelementptr inbounds %"class.memory_instrumentation::mojom::VmRegion", %"class.memory_instrumentation::mojom::VmRegion"* %0, i64 0, i32 0
  %35 = bitcast %"class.perfetto::TracedValue"* %18 to i8*
  %36 = bitcast %"class.perfetto::TracedValue"* %15 to i8*
  call void @llvm.lifetime.start.p0i8(i64 16, i8* nonnull %36) #15
  call void @llvm.memcpy.p0i8.p0i8.i64(i8* nonnull align 8 %36, i8* nonnull align 8 %35, i64 16, i1 false) #15
  %37 = load i64, i64* %34, align 8
  call void @_ZNO8perfetto11TracedValue11WriteUInt64Em(%"class.perfetto::TracedValue"* nonnull %15, i64 %37) #15
  call void @llvm.lifetime.end.p0i8(i64 16, i8* nonnull %36) #15
  call void @_ZN8perfetto16TracedDictionary7AddItemENS_12StaticStringE(%"class.perfetto::TracedValue"* nonnull sret %19, %"class.perfetto::TracedDictionary"* nonnull %17, i8* getelementptr inbounds ([14 x i8], [14 x i8]* @.str.19, i64 0, i64 0)) #15
  %38 = getelementptr inbounds %"class.memory_instrumentation::mojom::VmRegion", %"class.memory_instrumentation::mojom::VmRegion"* %0, i64 0, i32 1
  %39 = bitcast %"class.perfetto::TracedValue"* %19 to i8*
  %40 = bitcast %"class.perfetto::TracedValue"* %14 to i8*
  call void @llvm.lifetime.start.p0i8(i64 16, i8* nonnull %40) #15
  call void @llvm.memcpy.p0i8.p0i8.i64(i8* nonnull align 8 %40, i8* nonnull align 8 %39, i64 16, i1 false) #15
  %41 = load i64, i64* %38, align 8
  call void @_ZNO8perfetto11TracedValue11WriteUInt64Em(%"class.perfetto::TracedValue"* nonnull %14, i64 %41) #15
  call void @llvm.lifetime.end.p0i8(i64 16, i8* nonnull %40) #15
  call void @_ZN8perfetto16TracedDictionary7AddItemENS_12StaticStringE(%"class.perfetto::TracedValue"* nonnull sret %20, %"class.perfetto::TracedDictionary"* nonnull %17, i8* getelementptr inbounds ([17 x i8], [17 x i8]* @.str.20, i64 0, i64 0)) #15
  %42 = getelementptr inbounds %"class.memory_instrumentation::mojom::VmRegion", %"class.memory_instrumentation::mojom::VmRegion"* %0, i64 0, i32 2
  %43 = bitcast %"class.perfetto::TracedValue"* %20 to i8*
  %44 = bitcast %"class.perfetto::TracedValue"* %13 to i8*
  call void @llvm.lifetime.start.p0i8(i64 16, i8* nonnull %44) #15
  call void @llvm.memcpy.p0i8.p0i8.i64(i8* nonnull align 8 %44, i8* nonnull align 8 %43, i64 16, i1 false) #15
  %45 = load i64, i64* %42, align 8
  call void @_ZNO8perfetto11TracedValue11WriteUInt64Em(%"class.perfetto::TracedValue"* nonnull %13, i64 %45) #15
  call void @llvm.lifetime.end.p0i8(i64 16, i8* nonnull %44) #15
  call void @_ZN8perfetto16TracedDictionary7AddItemENS_12StaticStringE(%"class.perfetto::TracedValue"* nonnull sret %21, %"class.perfetto::TracedDictionary"* nonnull %17, i8* getelementptr inbounds ([15 x i8], [15 x i8]* @.str.21, i64 0, i64 0)) #15
  %46 = getelementptr inbounds %"class.memory_instrumentation::mojom::VmRegion", %"class.memory_instrumentation::mojom::VmRegion"* %0, i64 0, i32 3
  %47 = bitcast %"class.perfetto::TracedValue"* %21 to i8*
  %48 = bitcast %"class.perfetto::TracedValue"* %12 to i8*
  call void @llvm.lifetime.start.p0i8(i64 16, i8* nonnull %48) #15
  call void @llvm.memcpy.p0i8.p0i8.i64(i8* nonnull align 8 %48, i8* nonnull align 8 %47, i64 16, i1 false) #15
  call void @_ZNO8perfetto11TracedValue11WriteStringERKNSt3__112basic_stringIcNS1_11char_traitsIcEENS1_9allocatorIcEEEE(%"class.perfetto::TracedValue"* nonnull %12, %"class.std::__1::basic_string"* dereferenceable(24) %46) #15
  call void @llvm.lifetime.end.p0i8(i64 16, i8* nonnull %48) #15
  call void @_ZN8perfetto16TracedDictionary7AddItemENS_12StaticStringE(%"class.perfetto::TracedValue"* nonnull sret %22, %"class.perfetto::TracedDictionary"* nonnull %17, i8* getelementptr inbounds ([18 x i8], [18 x i8]* @.str.22, i64 0, i64 0)) #15
  %49 = getelementptr inbounds %"class.memory_instrumentation::mojom::VmRegion", %"class.memory_instrumentation::mojom::VmRegion"* %0, i64 0, i32 4
  %50 = bitcast %"class.perfetto::TracedValue"* %22 to i8*
  %51 = bitcast %"class.perfetto::TracedValue"* %11 to i8*
  call void @llvm.lifetime.start.p0i8(i64 16, i8* nonnull %51) #15
  call void @llvm.memcpy.p0i8.p0i8.i64(i8* nonnull align 8 %51, i8* nonnull align 8 %50, i64 16, i1 false) #15
  call void @_ZNO8perfetto11TracedValue11WriteStringERKNSt3__112basic_stringIcNS1_11char_traitsIcEENS1_9allocatorIcEEEE(%"class.perfetto::TracedValue"* nonnull %11, %"class.std::__1::basic_string"* dereferenceable(24) %49) #15
  call void @llvm.lifetime.end.p0i8(i64 16, i8* nonnull %51) #15
  call void @_ZN8perfetto16TracedDictionary7AddItemENS_12StaticStringE(%"class.perfetto::TracedValue"* nonnull sret %23, %"class.perfetto::TracedDictionary"* nonnull %17, i8* getelementptr inbounds ([17 x i8], [17 x i8]* @.str.23, i64 0, i64 0)) #15
  %52 = getelementptr inbounds %"class.memory_instrumentation::mojom::VmRegion", %"class.memory_instrumentation::mojom::VmRegion"* %0, i64 0, i32 5
  %53 = bitcast %"class.perfetto::TracedValue"* %23 to i8*
  %54 = bitcast %"class.perfetto::TracedValue"* %10 to i8*
  call void @llvm.lifetime.start.p0i8(i64 16, i8* nonnull %54) #15
  call void @llvm.memcpy.p0i8.p0i8.i64(i8* nonnull align 8 %54, i8* nonnull align 8 %53, i64 16, i1 false) #15
  %55 = load i32, i32* %52, align 4
  %56 = zext i32 %55 to i64
  call void @_ZNO8perfetto11TracedValue11WriteUInt64Em(%"class.perfetto::TracedValue"* nonnull %10, i64 %56) #15
  call void @llvm.lifetime.end.p0i8(i64 16, i8* nonnull %54) #15
  call void @_ZN8perfetto16TracedDictionary7AddItemENS_12StaticStringE(%"class.perfetto::TracedValue"* nonnull sret %24, %"class.perfetto::TracedDictionary"* nonnull %17, i8* getelementptr inbounds ([12 x i8], [12 x i8]* @.str.24, i64 0, i64 0)) #15
  %57 = getelementptr inbounds %"class.memory_instrumentation::mojom::VmRegion", %"class.memory_instrumentation::mojom::VmRegion"* %0, i64 0, i32 6
  %58 = bitcast %"class.perfetto::TracedValue"* %24 to i8*
  %59 = bitcast %"class.perfetto::TracedValue"* %9 to i8*
  call void @llvm.lifetime.start.p0i8(i64 16, i8* nonnull %59) #15
  call void @llvm.memcpy.p0i8.p0i8.i64(i8* nonnull align 8 %59, i8* nonnull align 8 %58, i64 16, i1 false) #15
  call void @_ZNO8perfetto11TracedValue11WriteStringERKNSt3__112basic_stringIcNS1_11char_traitsIcEENS1_9allocatorIcEEEE(%"class.perfetto::TracedValue"* nonnull %9, %"class.std::__1::basic_string"* dereferenceable(24) %57) #15
  call void @llvm.lifetime.end.p0i8(i64 16, i8* nonnull %59) #15
  call void @_ZN8perfetto16TracedDictionary7AddItemENS_12StaticStringE(%"class.perfetto::TracedValue"* nonnull sret %25, %"class.perfetto::TracedDictionary"* nonnull %17, i8* getelementptr inbounds ([34 x i8], [34 x i8]* @.str.25, i64 0, i64 0)) #15
  %60 = getelementptr inbounds %"class.memory_instrumentation::mojom::VmRegion", %"class.memory_instrumentation::mojom::VmRegion"* %0, i64 0, i32 7
  %61 = bitcast %"class.perfetto::TracedValue"* %25 to i8*
  %62 = bitcast %"class.perfetto::TracedValue"* %8 to i8*
  call void @llvm.lifetime.start.p0i8(i64 16, i8* nonnull %62) #15
  call void @llvm.memcpy.p0i8.p0i8.i64(i8* nonnull align 8 %62, i8* nonnull align 8 %61, i64 16, i1 false) #15
  %63 = load i64, i64* %60, align 8
  call void @_ZNO8perfetto11TracedValue11WriteUInt64Em(%"class.perfetto::TracedValue"* nonnull %8, i64 %63) #15
  call void @llvm.lifetime.end.p0i8(i64 16, i8* nonnull %62) #15
  call void @_ZN8perfetto16TracedDictionary7AddItemENS_12StaticStringE(%"class.perfetto::TracedValue"* nonnull sret %26, %"class.perfetto::TracedDictionary"* nonnull %17, i8* getelementptr inbounds ([34 x i8], [34 x i8]* @.str.26, i64 0, i64 0)) #15
  %64 = getelementptr inbounds %"class.memory_instrumentation::mojom::VmRegion", %"class.memory_instrumentation::mojom::VmRegion"* %0, i64 0, i32 8
  %65 = bitcast %"class.perfetto::TracedValue"* %26 to i8*
  %66 = bitcast %"class.perfetto::TracedValue"* %7 to i8*
  call void @llvm.lifetime.start.p0i8(i64 16, i8* nonnull %66) #15
  call void @llvm.memcpy.p0i8.p0i8.i64(i8* nonnull align 8 %66, i8* nonnull align 8 %65, i64 16, i1 false) #15
  %67 = load i64, i64* %64, align 8
  call void @_ZNO8perfetto11TracedValue11WriteUInt64Em(%"class.perfetto::TracedValue"* nonnull %7, i64 %67) #15
  call void @llvm.lifetime.end.p0i8(i64 16, i8* nonnull %66) #15
  call void @_ZN8perfetto16TracedDictionary7AddItemENS_12StaticStringE(%"class.perfetto::TracedValue"* nonnull sret %27, %"class.perfetto::TracedDictionary"* nonnull %17, i8* getelementptr inbounds ([33 x i8], [33 x i8]* @.str.27, i64 0, i64 0)) #15
  %68 = getelementptr inbounds %"class.memory_instrumentation::mojom::VmRegion", %"class.memory_instrumentation::mojom::VmRegion"* %0, i64 0, i32 9
  %69 = bitcast %"class.perfetto::TracedValue"* %27 to i8*
  %70 = bitcast %"class.perfetto::TracedValue"* %6 to i8*
  call void @llvm.lifetime.start.p0i8(i64 16, i8* nonnull %70) #15
  call void @llvm.memcpy.p0i8.p0i8.i64(i8* nonnull align 8 %70, i8* nonnull align 8 %69, i64 16, i1 false) #15
  %71 = load i64, i64* %68, align 8
  call void @_ZNO8perfetto11TracedValue11WriteUInt64Em(%"class.perfetto::TracedValue"* nonnull %6, i64 %71) #15
  call void @llvm.lifetime.end.p0i8(i64 16, i8* nonnull %70) #15
  call void @_ZN8perfetto16TracedDictionary7AddItemENS_12StaticStringE(%"class.perfetto::TracedValue"* nonnull sret %28, %"class.perfetto::TracedDictionary"* nonnull %17, i8* getelementptr inbounds ([33 x i8], [33 x i8]* @.str.28, i64 0, i64 0)) #15
  %72 = getelementptr inbounds %"class.memory_instrumentation::mojom::VmRegion", %"class.memory_instrumentation::mojom::VmRegion"* %0, i64 0, i32 10
  %73 = bitcast %"class.perfetto::TracedValue"* %28 to i8*
  %74 = bitcast %"class.perfetto::TracedValue"* %5 to i8*
  call void @llvm.lifetime.start.p0i8(i64 16, i8* nonnull %74) #15
  call void @llvm.memcpy.p0i8.p0i8.i64(i8* nonnull align 8 %74, i8* nonnull align 8 %73, i64 16, i1 false) #15
  %75 = load i64, i64* %72, align 8
  call void @_ZNO8perfetto11TracedValue11WriteUInt64Em(%"class.perfetto::TracedValue"* nonnull %5, i64 %75) #15
  call void @llvm.lifetime.end.p0i8(i64 16, i8* nonnull %74) #15
  call void @_ZN8perfetto16TracedDictionary7AddItemENS_12StaticStringE(%"class.perfetto::TracedValue"* nonnull sret %29, %"class.perfetto::TracedDictionary"* nonnull %17, i8* getelementptr inbounds ([19 x i8], [19 x i8]* @.str.29, i64 0, i64 0)) #15
  %76 = getelementptr inbounds %"class.memory_instrumentation::mojom::VmRegion", %"class.memory_instrumentation::mojom::VmRegion"* %0, i64 0, i32 11
  %77 = bitcast %"class.perfetto::TracedValue"* %29 to i8*
  %78 = bitcast %"class.perfetto::TracedValue"* %4 to i8*
  call void @llvm.lifetime.start.p0i8(i64 16, i8* nonnull %78) #15
  call void @llvm.memcpy.p0i8.p0i8.i64(i8* nonnull align 8 %78, i8* nonnull align 8 %77, i64 16, i1 false) #15
  %79 = load i64, i64* %76, align 8
  call void @_ZNO8perfetto11TracedValue11WriteUInt64Em(%"class.perfetto::TracedValue"* nonnull %4, i64 %79) #15
  call void @llvm.lifetime.end.p0i8(i64 16, i8* nonnull %78) #15
  call void @_ZN8perfetto16TracedDictionary7AddItemENS_12StaticStringE(%"class.perfetto::TracedValue"* nonnull sret %30, %"class.perfetto::TracedDictionary"* nonnull %17, i8* getelementptr inbounds ([12 x i8], [12 x i8]* @.str.30, i64 0, i64 0)) #15
  %80 = getelementptr inbounds %"class.memory_instrumentation::mojom::VmRegion", %"class.memory_instrumentation::mojom::VmRegion"* %0, i64 0, i32 12
  %81 = bitcast %"class.perfetto::TracedValue"* %30 to i8*
  %82 = bitcast %"class.perfetto::TracedValue"* %3 to i8*
  call void @llvm.lifetime.start.p0i8(i64 16, i8* nonnull %82) #15
  call void @llvm.memcpy.p0i8.p0i8.i64(i8* nonnull align 8 %82, i8* nonnull align 8 %81, i64 16, i1 false) #15
  %83 = load i64, i64* %80, align 8
  call void @_ZNO8perfetto11TracedValue11WriteUInt64Em(%"class.perfetto::TracedValue"* nonnull %3, i64 %83) #15
  call void @llvm.lifetime.end.p0i8(i64 16, i8* nonnull %82) #15
  call void @_ZN8perfetto16TracedDictionary7AddItemENS_12StaticStringE(%"class.perfetto::TracedValue"* nonnull sret %31, %"class.perfetto::TracedDictionary"* nonnull %17, i8* getelementptr inbounds ([33 x i8], [33 x i8]* @.str.31, i64 0, i64 0)) #15
  %84 = getelementptr inbounds %"class.memory_instrumentation::mojom::VmRegion", %"class.memory_instrumentation::mojom::VmRegion"* %0, i64 0, i32 13
  %85 = bitcast %"class.perfetto::TracedValue"* %31 to i8*
  %86 = bitcast %"class.perfetto::TracedValue"* %16 to i8*
  call void @llvm.lifetime.start.p0i8(i64 16, i8* nonnull %86) #15
  call void @llvm.memcpy.p0i8.p0i8.i64(i8* nonnull align 8 %86, i8* nonnull align 8 %85, i64 16, i1 false) #15
  %87 = load i64, i64* %84, align 8
  call void @_ZNO8perfetto11TracedValue11WriteUInt64Em(%"class.perfetto::TracedValue"* nonnull %16, i64 %87) #15
  call void @llvm.lifetime.end.p0i8(i64 16, i8* nonnull %86) #15
  call void @llvm.lifetime.end.p0i8(i64 16, i8* nonnull %32) #15
  ret void
}

; Function Attrs: nounwind ssp uwtable
define hidden zeroext i1 @_ZN22memory_instrumentation5mojom8VmRegion8ValidateEPKvPN4mojo8internal17ValidationContextE(i8*, %"class.mojo::internal::ValidationContext"*) local_unnamed_addr #2 align 2 {
  %3 = tail call zeroext i1 @_ZN22memory_instrumentation5mojom8internal13VmRegion_Data8ValidateEPKvPN4mojo8internal17ValidationContextE(i8* %0, %"class.mojo::internal::ValidationContext"* %1) #15
  ret i1 %3
}

declare zeroext i1 @_ZN22memory_instrumentation5mojom8internal13VmRegion_Data8ValidateEPKvPN4mojo8internal17ValidationContextE(i8*, %"class.mojo::internal::ValidationContext"*) local_unnamed_addr #4

; Function Attrs: nofree norecurse nounwind ssp uwtable writeonly
define hidden void @_ZN22memory_instrumentation5mojom24PlatformPrivateFootprintC2Ev(%"class.memory_instrumentation::mojom::PlatformPrivateFootprint"* nocapture) unnamed_addr #0 align 2 {
  %2 = bitcast %"class.memory_instrumentation::mojom::PlatformPrivateFootprint"* %0 to i8*
  call void @llvm.memset.p0i8.i64(i8* align 8 %2, i8 0, i64 48, i1 false)
  ret void
}

; Function Attrs: nofree norecurse nounwind ssp uwtable writeonly
define hidden void @_ZN22memory_instrumentation5mojom24PlatformPrivateFootprintC2Emmmmmm(%"class.memory_instrumentation::mojom::PlatformPrivateFootprint"* nocapture, i64, i64, i64, i64, i64, i64) unnamed_addr #0 align 2 {
  %8 = getelementptr inbounds %"class.memory_instrumentation::mojom::PlatformPrivateFootprint", %"class.memory_instrumentation::mojom::PlatformPrivateFootprint"* %0, i64 0, i32 0
  store i64 %1, i64* %8, align 8
  %9 = getelementptr inbounds %"class.memory_instrumentation::mojom::PlatformPrivateFootprint", %"class.memory_instrumentation::mojom::PlatformPrivateFootprint"* %0, i64 0, i32 1
  store i64 %2, i64* %9, align 8
  %10 = getelementptr inbounds %"class.memory_instrumentation::mojom::PlatformPrivateFootprint", %"class.memory_instrumentation::mojom::PlatformPrivateFootprint"* %0, i64 0, i32 2
  store i64 %3, i64* %10, align 8
  %11 = getelementptr inbounds %"class.memory_instrumentation::mojom::PlatformPrivateFootprint", %"class.memory_instrumentation::mojom::PlatformPrivateFootprint"* %0, i64 0, i32 3
  store i64 %4, i64* %11, align 8
  %12 = getelementptr inbounds %"class.memory_instrumentation::mojom::PlatformPrivateFootprint", %"class.memory_instrumentation::mojom::PlatformPrivateFootprint"* %0, i64 0, i32 4
  store i64 %5, i64* %12, align 8
  %13 = getelementptr inbounds %"class.memory_instrumentation::mojom::PlatformPrivateFootprint", %"class.memory_instrumentation::mojom::PlatformPrivateFootprint"* %0, i64 0, i32 5
  store i64 %6, i64* %13, align 8
  ret void
}

; Function Attrs: norecurse nounwind readnone ssp uwtable
define hidden void @_ZN22memory_instrumentation5mojom24PlatformPrivateFootprintD2Ev(%"class.memory_instrumentation::mojom::PlatformPrivateFootprint"* nocapture) unnamed_addr #1 align 2 {
  ret void
}

; Function Attrs: norecurse nounwind readonly ssp uwtable
define hidden i64 @_ZNK22memory_instrumentation5mojom24PlatformPrivateFootprint4HashEm(%"class.memory_instrumentation::mojom::PlatformPrivateFootprint"* nocapture readonly, i64) local_unnamed_addr #5 align 2 {
  %3 = getelementptr inbounds %"class.memory_instrumentation::mojom::PlatformPrivateFootprint", %"class.memory_instrumentation::mojom::PlatformPrivateFootprint"* %0, i64 0, i32 0
  %4 = load i64, i64* %3, align 8
  %5 = shl i64 %1, 6
  %6 = lshr i64 %1, 2
  %7 = add i64 %6, %5
  %8 = add i64 %7, %4
  %9 = xor i64 %8, %1
  %10 = getelementptr inbounds %"class.memory_instrumentation::mojom::PlatformPrivateFootprint", %"class.memory_instrumentation::mojom::PlatformPrivateFootprint"* %0, i64 0, i32 1
  %11 = load i64, i64* %10, align 8
  %12 = shl i64 %9, 6
  %13 = lshr i64 %9, 2
  %14 = add i64 %12, %11
  %15 = add i64 %14, %13
  %16 = xor i64 %15, %9
  %17 = getelementptr inbounds %"class.memory_instrumentation::mojom::PlatformPrivateFootprint", %"class.memory_instrumentation::mojom::PlatformPrivateFootprint"* %0, i64 0, i32 2
  %18 = load i64, i64* %17, align 8
  %19 = shl i64 %16, 6
  %20 = lshr i64 %16, 2
  %21 = add i64 %19, %18
  %22 = add i64 %21, %20
  %23 = xor i64 %22, %16
  %24 = getelementptr inbounds %"class.memory_instrumentation::mojom::PlatformPrivateFootprint", %"class.memory_instrumentation::mojom::PlatformPrivateFootprint"* %0, i64 0, i32 3
  %25 = load i64, i64* %24, align 8
  %26 = shl i64 %23, 6
  %27 = lshr i64 %23, 2
  %28 = add i64 %26, %25
  %29 = add i64 %28, %27
  %30 = xor i64 %29, %23
  %31 = getelementptr inbounds %"class.memory_instrumentation::mojom::PlatformPrivateFootprint", %"class.memory_instrumentation::mojom::PlatformPrivateFootprint"* %0, i64 0, i32 4
  %32 = load i64, i64* %31, align 8
  %33 = shl i64 %30, 6
  %34 = lshr i64 %30, 2
  %35 = add i64 %33, %32
  %36 = add i64 %35, %34
  %37 = xor i64 %36, %30
  %38 = getelementptr inbounds %"class.memory_instrumentation::mojom::PlatformPrivateFootprint", %"class.memory_instrumentation::mojom::PlatformPrivateFootprint"* %0, i64 0, i32 5
  %39 = load i64, i64* %38, align 8
  %40 = shl i64 %37, 6
  %41 = lshr i64 %37, 2
  %42 = add i64 %40, %39
  %43 = add i64 %42, %41
  %44 = xor i64 %43, %37
  ret i64 %44
}

; Function Attrs: nounwind ssp uwtable
define hidden void @_ZNK22memory_instrumentation5mojom24PlatformPrivateFootprint14WriteIntoTraceEN8perfetto11TracedValueE(%"class.memory_instrumentation::mojom::PlatformPrivateFootprint"* nocapture readonly, %"class.perfetto::TracedValue"*) local_unnamed_addr #2 align 2 {
  %3 = alloca %"class.perfetto::TracedValue", align 8
  %4 = alloca %"class.perfetto::TracedValue", align 8
  %5 = alloca %"class.perfetto::TracedValue", align 8
  %6 = alloca %"class.perfetto::TracedValue", align 8
  %7 = alloca %"class.perfetto::TracedValue", align 8
  %8 = alloca %"class.perfetto::TracedValue", align 8
  %9 = alloca %"class.perfetto::TracedDictionary", align 8
  %10 = alloca %"class.perfetto::TracedValue", align 8
  %11 = alloca %"class.perfetto::TracedValue", align 8
  %12 = alloca %"class.perfetto::TracedValue", align 8
  %13 = alloca %"class.perfetto::TracedValue", align 8
  %14 = alloca %"class.perfetto::TracedValue", align 8
  %15 = alloca %"class.perfetto::TracedValue", align 8
  %16 = bitcast %"class.perfetto::TracedDictionary"* %9 to i8*
  call void @llvm.lifetime.start.p0i8(i64 16, i8* nonnull %16) #15
  %17 = bitcast %"class.perfetto::TracedDictionary"* %9 to i8*
  call void @llvm.memset.p0i8.i64(i8* nonnull align 8 %17, i8 -86, i64 16, i1 false)
  call void @_ZNO8perfetto11TracedValue15WriteDictionaryEv(%"class.perfetto::TracedDictionary"* nonnull sret %9, %"class.perfetto::TracedValue"* %1) #15
  call void @_ZN8perfetto16TracedDictionary7AddItemENS_12StaticStringE(%"class.perfetto::TracedValue"* nonnull sret %10, %"class.perfetto::TracedDictionary"* nonnull %9, i8* getelementptr inbounds ([21 x i8], [21 x i8]* @.str.32, i64 0, i64 0)) #15
  %18 = getelementptr inbounds %"class.memory_instrumentation::mojom::PlatformPrivateFootprint", %"class.memory_instrumentation::mojom::PlatformPrivateFootprint"* %0, i64 0, i32 0
  %19 = bitcast %"class.perfetto::TracedValue"* %10 to i8*
  %20 = bitcast %"class.perfetto::TracedValue"* %7 to i8*
  call void @llvm.lifetime.start.p0i8(i64 16, i8* nonnull %20) #15
  call void @llvm.memcpy.p0i8.p0i8.i64(i8* nonnull align 8 %20, i8* nonnull align 8 %19, i64 16, i1 false) #15
  %21 = load i64, i64* %18, align 8
  call void @_ZNO8perfetto11TracedValue11WriteUInt64Em(%"class.perfetto::TracedValue"* nonnull %7, i64 %21) #15
  call void @llvm.lifetime.end.p0i8(i64 16, i8* nonnull %20) #15
  call void @_ZN8perfetto16TracedDictionary7AddItemENS_12StaticStringE(%"class.perfetto::TracedValue"* nonnull sret %11, %"class.perfetto::TracedDictionary"* nonnull %9, i8* getelementptr inbounds ([15 x i8], [15 x i8]* @.str.33, i64 0, i64 0)) #15
  %22 = getelementptr inbounds %"class.memory_instrumentation::mojom::PlatformPrivateFootprint", %"class.memory_instrumentation::mojom::PlatformPrivateFootprint"* %0, i64 0, i32 1
  %23 = bitcast %"class.perfetto::TracedValue"* %11 to i8*
  %24 = bitcast %"class.perfetto::TracedValue"* %6 to i8*
  call void @llvm.lifetime.start.p0i8(i64 16, i8* nonnull %24) #15
  call void @llvm.memcpy.p0i8.p0i8.i64(i8* nonnull align 8 %24, i8* nonnull align 8 %23, i64 16, i1 false) #15
  %25 = load i64, i64* %22, align 8
  call void @_ZNO8perfetto11TracedValue11WriteUInt64Em(%"class.perfetto::TracedValue"* nonnull %6, i64 %25) #15
  call void @llvm.lifetime.end.p0i8(i64 16, i8* nonnull %24) #15
  call void @_ZN8perfetto16TracedDictionary7AddItemENS_12StaticStringE(%"class.perfetto::TracedValue"* nonnull sret %12, %"class.perfetto::TracedDictionary"* nonnull %9, i8* getelementptr inbounds ([17 x i8], [17 x i8]* @.str.34, i64 0, i64 0)) #15
  %26 = getelementptr inbounds %"class.memory_instrumentation::mojom::PlatformPrivateFootprint", %"class.memory_instrumentation::mojom::PlatformPrivateFootprint"* %0, i64 0, i32 2
  %27 = bitcast %"class.perfetto::TracedValue"* %12 to i8*
  %28 = bitcast %"class.perfetto::TracedValue"* %5 to i8*
  call void @llvm.lifetime.start.p0i8(i64 16, i8* nonnull %28) #15
  call void @llvm.memcpy.p0i8.p0i8.i64(i8* nonnull align 8 %28, i8* nonnull align 8 %27, i64 16, i1 false) #15
  %29 = load i64, i64* %26, align 8
  call void @_ZNO8perfetto11TracedValue11WriteUInt64Em(%"class.perfetto::TracedValue"* nonnull %5, i64 %29) #15
  call void @llvm.lifetime.end.p0i8(i64 16, i8* nonnull %28) #15
  call void @_ZN8perfetto16TracedDictionary7AddItemENS_12StaticStringE(%"class.perfetto::TracedValue"* nonnull sret %13, %"class.perfetto::TracedDictionary"* nonnull %9, i8* getelementptr inbounds ([15 x i8], [15 x i8]* @.str.35, i64 0, i64 0)) #15
  %30 = getelementptr inbounds %"class.memory_instrumentation::mojom::PlatformPrivateFootprint", %"class.memory_instrumentation::mojom::PlatformPrivateFootprint"* %0, i64 0, i32 3
  %31 = bitcast %"class.perfetto::TracedValue"* %13 to i8*
  %32 = bitcast %"class.perfetto::TracedValue"* %4 to i8*
  call void @llvm.lifetime.start.p0i8(i64 16, i8* nonnull %32) #15
  call void @llvm.memcpy.p0i8.p0i8.i64(i8* nonnull align 8 %32, i8* nonnull align 8 %31, i64 16, i1 false) #15
  %33 = load i64, i64* %30, align 8
  call void @_ZNO8perfetto11TracedValue11WriteUInt64Em(%"class.perfetto::TracedValue"* nonnull %4, i64 %33) #15
  call void @llvm.lifetime.end.p0i8(i64 16, i8* nonnull %32) #15
  call void @_ZN8perfetto16TracedDictionary7AddItemENS_12StaticStringE(%"class.perfetto::TracedValue"* nonnull sret %14, %"class.perfetto::TracedDictionary"* nonnull %9, i8* getelementptr inbounds ([14 x i8], [14 x i8]* @.str.36, i64 0, i64 0)) #15
  %34 = getelementptr inbounds %"class.memory_instrumentation::mojom::PlatformPrivateFootprint", %"class.memory_instrumentation::mojom::PlatformPrivateFootprint"* %0, i64 0, i32 4
  %35 = bitcast %"class.perfetto::TracedValue"* %14 to i8*
  %36 = bitcast %"class.perfetto::TracedValue"* %3 to i8*
  call void @llvm.lifetime.start.p0i8(i64 16, i8* nonnull %36) #15
  call void @llvm.memcpy.p0i8.p0i8.i64(i8* nonnull align 8 %36, i8* nonnull align 8 %35, i64 16, i1 false) #15
  %37 = load i64, i64* %34, align 8
  call void @_ZNO8perfetto11TracedValue11WriteUInt64Em(%"class.perfetto::TracedValue"* nonnull %3, i64 %37) #15
  call void @llvm.lifetime.end.p0i8(i64 16, i8* nonnull %36) #15
  call void @_ZN8perfetto16TracedDictionary7AddItemENS_12StaticStringE(%"class.perfetto::TracedValue"* nonnull sret %15, %"class.perfetto::TracedDictionary"* nonnull %9, i8* getelementptr inbounds ([14 x i8], [14 x i8]* @.str.37, i64 0, i64 0)) #15
  %38 = getelementptr inbounds %"class.memory_instrumentation::mojom::PlatformPrivateFootprint", %"class.memory_instrumentation::mojom::PlatformPrivateFootprint"* %0, i64 0, i32 5
  %39 = bitcast %"class.perfetto::TracedValue"* %15 to i8*
  %40 = bitcast %"class.perfetto::TracedValue"* %8 to i8*
  call void @llvm.lifetime.start.p0i8(i64 16, i8* nonnull %40) #15
  call void @llvm.memcpy.p0i8.p0i8.i64(i8* nonnull align 8 %40, i8* nonnull align 8 %39, i64 16, i1 false) #15
  %41 = load i64, i64* %38, align 8
  call void @_ZNO8perfetto11TracedValue11WriteUInt64Em(%"class.perfetto::TracedValue"* nonnull %8, i64 %41) #15
  call void @llvm.lifetime.end.p0i8(i64 16, i8* nonnull %40) #15
  call void @llvm.lifetime.end.p0i8(i64 16, i8* nonnull %16) #15
  ret void
}

; Function Attrs: nounwind ssp uwtable
define hidden zeroext i1 @_ZN22memory_instrumentation5mojom24PlatformPrivateFootprint8ValidateEPKvPN4mojo8internal17ValidationContextE(i8*, %"class.mojo::internal::ValidationContext"*) local_unnamed_addr #2 align 2 {
  %3 = tail call zeroext i1 @_ZN22memory_instrumentation5mojom8internal29PlatformPrivateFootprint_Data8ValidateEPKvPN4mojo8internal17ValidationContextE(i8* %0, %"class.mojo::internal::ValidationContext"* %1) #15
  ret i1 %3
}

declare zeroext i1 @_ZN22memory_instrumentation5mojom8internal29PlatformPrivateFootprint_Data8ValidateEPKvPN4mojo8internal17ValidationContextE(i8*, %"class.mojo::internal::ValidationContext"*) local_unnamed_addr #4

; Function Attrs: nounwind ssp uwtable
define hidden void @_ZN22memory_instrumentation5mojom12RawOSMemDumpC2Ev(%"class.memory_instrumentation::mojom::RawOSMemDump"* nocapture) unnamed_addr #2 align 2 {
  %2 = getelementptr inbounds %"class.memory_instrumentation::mojom::RawOSMemDump", %"class.memory_instrumentation::mojom::RawOSMemDump"* %0, i64 0, i32 3
  %3 = bitcast %"class.memory_instrumentation::mojom::RawOSMemDump"* %0 to i8*
  call void @llvm.memset.p0i8.i64(i8* align 8 %3, i8 0, i64 9, i1 false)
  %4 = bitcast %"class.mojo::StructPtr.61"* %2 to i8*
  call void @llvm.memset.p0i8.i64(i8* align 8 %4, i8 0, i64 56, i1 false)
  ret void
}

; Function Attrs: nounwind ssp uwtable
define hidden void @_ZN22memory_instrumentation5mojom12RawOSMemDumpC2EjjbN4mojo9StructPtrINS0_24PlatformPrivateFootprintEEENSt3__16vectorINS3_INS0_8VmRegionEEENS6_9allocatorIS9_EEEENS7_IhNSA_IhEEEE(%"class.memory_instrumentation::mojom::RawOSMemDump"* nocapture, i32, i32, i1 zeroext, %"class.mojo::StructPtr.61"* nocapture, %"class.std::__1::vector.68"* nocapture, %"class.std::__1::vector.82"* nocapture) unnamed_addr #2 align 2 {
  %8 = zext i1 %3 to i8
  %9 = getelementptr inbounds %"class.memory_instrumentation::mojom::RawOSMemDump", %"class.memory_instrumentation::mojom::RawOSMemDump"* %0, i64 0, i32 0
  store i32 %1, i32* %9, align 8
  %10 = getelementptr inbounds %"class.memory_instrumentation::mojom::RawOSMemDump", %"class.memory_instrumentation::mojom::RawOSMemDump"* %0, i64 0, i32 1
  store i32 %2, i32* %10, align 4
  %11 = getelementptr inbounds %"class.memory_instrumentation::mojom::RawOSMemDump", %"class.memory_instrumentation::mojom::RawOSMemDump"* %0, i64 0, i32 2
  store i8 %8, i8* %11, align 8
  %12 = getelementptr inbounds %"class.memory_instrumentation::mojom::RawOSMemDump", %"class.memory_instrumentation::mojom::RawOSMemDump"* %0, i64 0, i32 3
  %13 = bitcast %"class.mojo::StructPtr.61"* %12 to i64*
  %14 = getelementptr inbounds %"class.mojo::StructPtr.61", %"class.mojo::StructPtr.61"* %12, i64 0, i32 0, i32 0, i32 0, i32 0
  store %"class.memory_instrumentation::mojom::PlatformPrivateFootprint"* null, %"class.memory_instrumentation::mojom::PlatformPrivateFootprint"** %14, align 8
  %15 = bitcast %"class.mojo::StructPtr.61"* %4 to i64*
  %16 = load i64, i64* %15, align 8
  store i64 %16, i64* %13, align 8
  store i64 0, i64* %15, align 8
  %17 = getelementptr inbounds %"class.memory_instrumentation::mojom::RawOSMemDump", %"class.memory_instrumentation::mojom::RawOSMemDump"* %0, i64 0, i32 4
  %18 = bitcast %"class.std::__1::vector.68"* %17 to i8*
  tail call void @llvm.memset.p0i8.i64(i8* align 8 %18, i8 0, i64 24, i1 false) #15
  %19 = bitcast %"class.std::__1::vector.68"* %5 to i64*
  %20 = load i64, i64* %19, align 8
  %21 = bitcast %"class.std::__1::vector.68"* %17 to i64*
  store i64 %20, i64* %21, align 8
  %22 = getelementptr inbounds %"class.std::__1::vector.68", %"class.std::__1::vector.68"* %5, i64 0, i32 0, i32 1
  %23 = bitcast %"class.mojo::StructPtr.70"** %22 to i64*
  %24 = load i64, i64* %23, align 8
  %25 = getelementptr inbounds %"class.memory_instrumentation::mojom::RawOSMemDump", %"class.memory_instrumentation::mojom::RawOSMemDump"* %0, i64 0, i32 4, i32 0, i32 1
  %26 = bitcast %"class.mojo::StructPtr.70"** %25 to i64*
  store i64 %24, i64* %26, align 8
  %27 = getelementptr inbounds %"class.std::__1::vector.68", %"class.std::__1::vector.68"* %5, i64 0, i32 0, i32 2, i32 0, i32 0
  %28 = bitcast %"class.mojo::StructPtr.70"** %27 to i64*
  %29 = load i64, i64* %28, align 8
  %30 = getelementptr inbounds %"class.memory_instrumentation::mojom::RawOSMemDump", %"class.memory_instrumentation::mojom::RawOSMemDump"* %0, i64 0, i32 4, i32 0, i32 2, i32 0, i32 0
  %31 = bitcast %"class.mojo::StructPtr.70"** %30 to i64*
  store i64 %29, i64* %31, align 8
  %32 = bitcast %"class.std::__1::vector.68"* %5 to i8*
  tail call void @llvm.memset.p0i8.i64(i8* align 8 %32, i8 0, i64 24, i1 false) #15
  %33 = getelementptr inbounds %"class.memory_instrumentation::mojom::RawOSMemDump", %"class.memory_instrumentation::mojom::RawOSMemDump"* %0, i64 0, i32 5
  %34 = bitcast %"class.std::__1::vector.82"* %33 to i8*
  tail call void @llvm.memset.p0i8.i64(i8* align 8 %34, i8 0, i64 24, i1 false) #15
  %35 = bitcast %"class.std::__1::vector.82"* %6 to i64*
  %36 = load i64, i64* %35, align 8
  %37 = bitcast %"class.std::__1::vector.82"* %33 to i64*
  store i64 %36, i64* %37, align 8
  %38 = getelementptr inbounds %"class.std::__1::vector.82", %"class.std::__1::vector.82"* %6, i64 0, i32 0, i32 1
  %39 = bitcast i8** %38 to i64*
  %40 = load i64, i64* %39, align 8
  %41 = getelementptr inbounds %"class.memory_instrumentation::mojom::RawOSMemDump", %"class.memory_instrumentation::mojom::RawOSMemDump"* %0, i64 0, i32 5, i32 0, i32 1
  %42 = bitcast i8** %41 to i64*
  store i64 %40, i64* %42, align 8
  %43 = getelementptr inbounds %"class.std::__1::vector.82", %"class.std::__1::vector.82"* %6, i64 0, i32 0, i32 2, i32 0, i32 0
  %44 = bitcast i8** %43 to i64*
  %45 = load i64, i64* %44, align 8
  %46 = getelementptr inbounds %"class.memory_instrumentation::mojom::RawOSMemDump", %"class.memory_instrumentation::mojom::RawOSMemDump"* %0, i64 0, i32 5, i32 0, i32 2, i32 0, i32 0
  %47 = bitcast i8** %46 to i64*
  store i64 %45, i64* %47, align 8
  %48 = bitcast %"class.std::__1::vector.82"* %6 to i8*
  tail call void @llvm.memset.p0i8.i64(i8* align 8 %48, i8 0, i64 24, i1 false) #15
  ret void
}

; Function Attrs: nounwind ssp uwtable
define hidden void @_ZN22memory_instrumentation5mojom12RawOSMemDumpD2Ev(%"class.memory_instrumentation::mojom::RawOSMemDump"*) unnamed_addr #2 align 2 {
  %2 = getelementptr inbounds %"class.memory_instrumentation::mojom::RawOSMemDump", %"class.memory_instrumentation::mojom::RawOSMemDump"* %0, i64 0, i32 5, i32 0, i32 0
  %3 = load i8*, i8** %2, align 8
  %4 = icmp eq i8* %3, null
  br i1 %4, label %9, label %5

5:                                                ; preds = %1
  %6 = ptrtoint i8* %3 to i64
  %7 = getelementptr inbounds %"class.memory_instrumentation::mojom::RawOSMemDump", %"class.memory_instrumentation::mojom::RawOSMemDump"* %0, i64 0, i32 5, i32 0, i32 1
  %8 = bitcast i8** %7 to i64*
  store i64 %6, i64* %8, align 8
  tail call void @_ZdlPv(i8* nonnull %3) #16
  br label %9

9:                                                ; preds = %1, %5
  %10 = getelementptr inbounds %"class.memory_instrumentation::mojom::RawOSMemDump", %"class.memory_instrumentation::mojom::RawOSMemDump"* %0, i64 0, i32 4
  tail call void @_ZNSt3__16vectorIN4mojo9StructPtrIN22memory_instrumentation5mojom8VmRegionEEENS_9allocatorIS6_EEED2Ev(%"class.std::__1::vector.68"* %10) #15
  %11 = getelementptr inbounds %"class.memory_instrumentation::mojom::RawOSMemDump", %"class.memory_instrumentation::mojom::RawOSMemDump"* %0, i64 0, i32 3, i32 0, i32 0, i32 0, i32 0
  %12 = load %"class.memory_instrumentation::mojom::PlatformPrivateFootprint"*, %"class.memory_instrumentation::mojom::PlatformPrivateFootprint"** %11, align 8
  store %"class.memory_instrumentation::mojom::PlatformPrivateFootprint"* null, %"class.memory_instrumentation::mojom::PlatformPrivateFootprint"** %11, align 8
  %13 = icmp eq %"class.memory_instrumentation::mojom::PlatformPrivateFootprint"* %12, null
  br i1 %13, label %16, label %14

14:                                               ; preds = %9
  %15 = bitcast %"class.memory_instrumentation::mojom::PlatformPrivateFootprint"* %12 to i8*
  tail call void @_ZdlPv(i8* %15) #16
  br label %16

16:                                               ; preds = %9, %14
  ret void
}

; Function Attrs: nounwind ssp uwtable
define linkonce_odr hidden void @_ZNSt3__16vectorIN4mojo9StructPtrIN22memory_instrumentation5mojom8VmRegionEEENS_9allocatorIS6_EEED2Ev(%"class.std::__1::vector.68"*) unnamed_addr #2 comdat align 2 {
  %2 = getelementptr inbounds %"class.std::__1::vector.68", %"class.std::__1::vector.68"* %0, i64 0, i32 0, i32 0
  %3 = load %"class.mojo::StructPtr.70"*, %"class.mojo::StructPtr.70"** %2, align 8
  %4 = icmp eq %"class.mojo::StructPtr.70"* %3, null
  br i1 %4, label %52, label %5

5:                                                ; preds = %1
  %6 = bitcast %"class.mojo::StructPtr.70"* %3 to i8*
  %7 = getelementptr inbounds %"class.std::__1::vector.68", %"class.std::__1::vector.68"* %0, i64 0, i32 0, i32 1
  %8 = load %"class.mojo::StructPtr.70"*, %"class.mojo::StructPtr.70"** %7, align 8
  %9 = icmp eq %"class.mojo::StructPtr.70"* %8, %3
  br i1 %9, label %50, label %10

10:                                               ; preds = %5, %45
  %11 = phi %"class.mojo::StructPtr.70"* [ %12, %45 ], [ %8, %5 ]
  %12 = getelementptr inbounds %"class.mojo::StructPtr.70", %"class.mojo::StructPtr.70"* %11, i64 -1
  %13 = getelementptr inbounds %"class.mojo::StructPtr.70", %"class.mojo::StructPtr.70"* %12, i64 0, i32 0, i32 0, i32 0, i32 0
  %14 = load %"class.memory_instrumentation::mojom::VmRegion"*, %"class.memory_instrumentation::mojom::VmRegion"** %13, align 8
  store %"class.memory_instrumentation::mojom::VmRegion"* null, %"class.memory_instrumentation::mojom::VmRegion"** %13, align 8
  %15 = icmp eq %"class.memory_instrumentation::mojom::VmRegion"* %14, null
  br i1 %15, label %45, label %16

16:                                               ; preds = %10
  %17 = getelementptr inbounds %"class.memory_instrumentation::mojom::VmRegion", %"class.memory_instrumentation::mojom::VmRegion"* %14, i64 0, i32 6
  %18 = bitcast %"class.std::__1::basic_string"* %17 to %"struct.std::__1::basic_string<char, std::__1::char_traits<char>, std::__1::allocator<char> >::__short"*
  %19 = getelementptr inbounds %"struct.std::__1::basic_string<char, std::__1::char_traits<char>, std::__1::allocator<char> >::__short", %"struct.std::__1::basic_string<char, std::__1::char_traits<char>, std::__1::allocator<char> >::__short"* %18, i64 0, i32 1, i32 0
  %20 = load i8, i8* %19, align 1
  %21 = icmp slt i8 %20, 0
  br i1 %21, label %22, label %25

22:                                               ; preds = %16
  %23 = getelementptr inbounds %"class.std::__1::basic_string", %"class.std::__1::basic_string"* %17, i64 0, i32 0, i32 0, i32 0, i32 0, i32 0, i32 0
  %24 = load i8*, i8** %23, align 8
  tail call void @_ZdlPv(i8* %24) #16
  br label %25

25:                                               ; preds = %22, %16
  %26 = getelementptr inbounds %"class.memory_instrumentation::mojom::VmRegion", %"class.memory_instrumentation::mojom::VmRegion"* %14, i64 0, i32 4
  %27 = bitcast %"class.std::__1::basic_string"* %26 to %"struct.std::__1::basic_string<char, std::__1::char_traits<char>, std::__1::allocator<char> >::__short"*
  %28 = getelementptr inbounds %"struct.std::__1::basic_string<char, std::__1::char_traits<char>, std::__1::allocator<char> >::__short", %"struct.std::__1::basic_string<char, std::__1::char_traits<char>, std::__1::allocator<char> >::__short"* %27, i64 0, i32 1, i32 0
  %29 = load i8, i8* %28, align 1
  %30 = icmp slt i8 %29, 0
  br i1 %30, label %31, label %34

31:                                               ; preds = %25
  %32 = getelementptr inbounds %"class.std::__1::basic_string", %"class.std::__1::basic_string"* %26, i64 0, i32 0, i32 0, i32 0, i32 0, i32 0, i32 0
  %33 = load i8*, i8** %32, align 8
  tail call void @_ZdlPv(i8* %33) #16
  br label %34

34:                                               ; preds = %31, %25
  %35 = getelementptr inbounds %"class.memory_instrumentation::mojom::VmRegion", %"class.memory_instrumentation::mojom::VmRegion"* %14, i64 0, i32 3
  %36 = bitcast %"class.std::__1::basic_string"* %35 to %"struct.std::__1::basic_string<char, std::__1::char_traits<char>, std::__1::allocator<char> >::__short"*
  %37 = getelementptr inbounds %"struct.std::__1::basic_string<char, std::__1::char_traits<char>, std::__1::allocator<char> >::__short", %"struct.std::__1::basic_string<char, std::__1::char_traits<char>, std::__1::allocator<char> >::__short"* %36, i64 0, i32 1, i32 0
  %38 = load i8, i8* %37, align 1
  %39 = icmp slt i8 %38, 0
  br i1 %39, label %40, label %43

40:                                               ; preds = %34
  %41 = getelementptr inbounds %"class.std::__1::basic_string", %"class.std::__1::basic_string"* %35, i64 0, i32 0, i32 0, i32 0, i32 0, i32 0, i32 0
  %42 = load i8*, i8** %41, align 8
  tail call void @_ZdlPv(i8* %42) #16
  br label %43

43:                                               ; preds = %40, %34
  %44 = bitcast %"class.memory_instrumentation::mojom::VmRegion"* %14 to i8*
  tail call void @_ZdlPv(i8* %44) #16
  br label %45

45:                                               ; preds = %43, %10
  %46 = icmp eq %"class.mojo::StructPtr.70"* %12, %3
  br i1 %46, label %47, label %10

47:                                               ; preds = %45
  %48 = bitcast %"class.std::__1::vector.68"* %0 to i8**
  %49 = load i8*, i8** %48, align 8
  br label %50

50:                                               ; preds = %5, %47
  %51 = phi i8* [ %49, %47 ], [ %6, %5 ]
  store %"class.mojo::StructPtr.70"* %3, %"class.mojo::StructPtr.70"** %7, align 8
  tail call void @_ZdlPv(i8* %51) #16
  br label %52

52:                                               ; preds = %1, %50
  ret void
}

; Function Attrs: nounwind ssp uwtable
define hidden void @_ZNK22memory_instrumentation5mojom12RawOSMemDump14WriteIntoTraceEN8perfetto11TracedValueE(%"class.memory_instrumentation::mojom::RawOSMemDump"* nocapture readonly, %"class.perfetto::TracedValue"*) local_unnamed_addr #2 align 2 {
  %3 = alloca %"class.perfetto::TracedValue", align 8
  %4 = alloca %"class.perfetto::TracedValue", align 8
  %5 = alloca %"class.perfetto::TracedValue", align 8
  %6 = alloca %"class.perfetto::TracedArray", align 8
  %7 = alloca %"class.perfetto::TracedValue", align 8
  %8 = alloca %"class.perfetto::TracedValue", align 8
  %9 = alloca %"class.perfetto::TracedValue", align 8
  %10 = alloca %"class.perfetto::TracedValue", align 8
  %11 = alloca %"class.perfetto::TracedValue", align 8
  %12 = alloca %"class.perfetto::TracedValue", align 8
  %13 = alloca %"class.perfetto::TracedValue", align 8
  %14 = alloca %"class.perfetto::TracedValue", align 8
  %15 = alloca %"class.perfetto::TracedArray", align 8
  %16 = alloca %"class.perfetto::TracedValue", align 8
  %17 = alloca %"class.perfetto::TracedDictionary", align 8
  %18 = alloca %"class.perfetto::TracedValue", align 8
  %19 = alloca %"class.perfetto::TracedValue", align 8
  %20 = alloca %"class.perfetto::TracedValue", align 8
  %21 = alloca %"class.perfetto::TracedValue", align 8
  %22 = alloca %"class.perfetto::TracedValue", align 8
  %23 = alloca %"class.perfetto::TracedValue", align 8
  %24 = bitcast %"class.perfetto::TracedDictionary"* %17 to i8*
  call void @llvm.lifetime.start.p0i8(i64 16, i8* nonnull %24) #15
  %25 = bitcast %"class.perfetto::TracedDictionary"* %17 to i8*
  call void @llvm.memset.p0i8.i64(i8* nonnull align 8 %25, i8 -86, i64 16, i1 false)
  call void @_ZNO8perfetto11TracedValue15WriteDictionaryEv(%"class.perfetto::TracedDictionary"* nonnull sret %17, %"class.perfetto::TracedValue"* %1) #15
  call void @_ZN8perfetto16TracedDictionary7AddItemENS_12StaticStringE(%"class.perfetto::TracedValue"* nonnull sret %18, %"class.perfetto::TracedDictionary"* nonnull %17, i8* getelementptr inbounds ([16 x i8], [16 x i8]* @.str.38, i64 0, i64 0)) #15
  %26 = getelementptr inbounds %"class.memory_instrumentation::mojom::RawOSMemDump", %"class.memory_instrumentation::mojom::RawOSMemDump"* %0, i64 0, i32 0
  %27 = bitcast %"class.perfetto::TracedValue"* %18 to i8*
  %28 = bitcast %"class.perfetto::TracedValue"* %12 to i8*
  call void @llvm.lifetime.start.p0i8(i64 16, i8* nonnull %28) #15
  call void @llvm.memcpy.p0i8.p0i8.i64(i8* nonnull align 8 %28, i8* nonnull align 8 %27, i64 16, i1 false) #15
  %29 = load i32, i32* %26, align 4
  %30 = zext i32 %29 to i64
  call void @_ZNO8perfetto11TracedValue11WriteUInt64Em(%"class.perfetto::TracedValue"* nonnull %12, i64 %30) #15
  call void @llvm.lifetime.end.p0i8(i64 16, i8* nonnull %28) #15
  call void @_ZN8perfetto16TracedDictionary7AddItemENS_12StaticStringE(%"class.perfetto::TracedValue"* nonnull sret %19, %"class.perfetto::TracedDictionary"* nonnull %17, i8* getelementptr inbounds ([21 x i8], [21 x i8]* @.str.39, i64 0, i64 0)) #15
  %31 = getelementptr inbounds %"class.memory_instrumentation::mojom::RawOSMemDump", %"class.memory_instrumentation::mojom::RawOSMemDump"* %0, i64 0, i32 1
  %32 = bitcast %"class.perfetto::TracedValue"* %19 to i8*
  %33 = bitcast %"class.perfetto::TracedValue"* %11 to i8*
  call void @llvm.lifetime.start.p0i8(i64 16, i8* nonnull %33) #15
  call void @llvm.memcpy.p0i8.p0i8.i64(i8* nonnull align 8 %33, i8* nonnull align 8 %32, i64 16, i1 false) #15
  %34 = load i32, i32* %31, align 4
  %35 = zext i32 %34 to i64
  call void @_ZNO8perfetto11TracedValue11WriteUInt64Em(%"class.perfetto::TracedValue"* nonnull %11, i64 %35) #15
  call void @llvm.lifetime.end.p0i8(i64 16, i8* nonnull %33) #15
  call void @_ZN8perfetto16TracedDictionary7AddItemENS_12StaticStringE(%"class.perfetto::TracedValue"* nonnull sret %20, %"class.perfetto::TracedDictionary"* nonnull %17, i8* getelementptr inbounds ([23 x i8], [23 x i8]* @.str.40, i64 0, i64 0)) #15
  %36 = getelementptr inbounds %"class.memory_instrumentation::mojom::RawOSMemDump", %"class.memory_instrumentation::mojom::RawOSMemDump"* %0, i64 0, i32 2
  %37 = bitcast %"class.perfetto::TracedValue"* %20 to i8*
  %38 = bitcast %"class.perfetto::TracedValue"* %10 to i8*
  call void @llvm.lifetime.start.p0i8(i64 16, i8* nonnull %38) #15
  call void @llvm.memcpy.p0i8.p0i8.i64(i8* nonnull align 8 %38, i8* nonnull align 8 %37, i64 16, i1 false) #15
  %39 = load i8, i8* %36, align 1, !range !2
  %40 = icmp ne i8 %39, 0
  call void @_ZNO8perfetto11TracedValue12WriteBooleanEb(%"class.perfetto::TracedValue"* nonnull %10, i1 zeroext %40) #15
  call void @llvm.lifetime.end.p0i8(i64 16, i8* nonnull %38) #15
  call void @_ZN8perfetto16TracedDictionary7AddItemENS_12StaticStringE(%"class.perfetto::TracedValue"* nonnull sret %21, %"class.perfetto::TracedDictionary"* nonnull %17, i8* getelementptr inbounds ([27 x i8], [27 x i8]* @.str.41, i64 0, i64 0)) #15
  %41 = bitcast %"class.perfetto::TracedValue"* %21 to i8*
  %42 = getelementptr inbounds %"class.memory_instrumentation::mojom::RawOSMemDump", %"class.memory_instrumentation::mojom::RawOSMemDump"* %0, i64 0, i32 3, i32 0, i32 0, i32 0, i32 0
  %43 = load %"class.memory_instrumentation::mojom::PlatformPrivateFootprint"*, %"class.memory_instrumentation::mojom::PlatformPrivateFootprint"** %42, align 8
  %44 = bitcast %"class.perfetto::TracedValue"* %9 to i8*
  call void @llvm.lifetime.start.p0i8(i64 16, i8* nonnull %44) #15
  call void @llvm.memcpy.p0i8.p0i8.i64(i8* nonnull align 8 %44, i8* nonnull align 8 %41, i64 16, i1 false)
  %45 = icmp eq %"class.memory_instrumentation::mojom::PlatformPrivateFootprint"* %43, null
  br i1 %45, label %46, label %47

46:                                               ; preds = %2
  call void @_ZNO8perfetto11TracedValue12WritePointerEPKv(%"class.perfetto::TracedValue"* nonnull %9, i8* null) #15
  br label %49

47:                                               ; preds = %2
  %48 = bitcast %"class.perfetto::TracedValue"* %8 to i8*
  call void @llvm.lifetime.start.p0i8(i64 16, i8* nonnull %48) #15
  call void @llvm.memcpy.p0i8.p0i8.i64(i8* nonnull align 8 %48, i8* nonnull align 8 %44, i64 16, i1 false) #15
  call void @_ZNK22memory_instrumentation5mojom24PlatformPrivateFootprint14WriteIntoTraceEN8perfetto11TracedValueE(%"class.memory_instrumentation::mojom::PlatformPrivateFootprint"* nonnull %43, %"class.perfetto::TracedValue"* nonnull %8) #15
  call void @llvm.lifetime.end.p0i8(i64 16, i8* nonnull %48) #15
  br label %49

49:                                               ; preds = %47, %46
  call void @llvm.lifetime.end.p0i8(i64 16, i8* nonnull %44) #15
  call void @_ZN8perfetto16TracedDictionary7AddItemENS_12StaticStringE(%"class.perfetto::TracedValue"* nonnull sret %22, %"class.perfetto::TracedDictionary"* nonnull %17, i8* getelementptr inbounds ([12 x i8], [12 x i8]* @.str.42, i64 0, i64 0)) #15
  %50 = bitcast %"class.perfetto::TracedValue"* %22 to i8*
  %51 = bitcast %"class.perfetto::TracedValue"* %7 to i8*
  call void @llvm.lifetime.start.p0i8(i64 16, i8* nonnull %51) #15
  call void @llvm.memcpy.p0i8.p0i8.i64(i8* nonnull align 8 %51, i8* nonnull align 8 %50, i64 16, i1 false) #15
  %52 = bitcast %"class.perfetto::TracedArray"* %6 to i8*
  call void @llvm.lifetime.start.p0i8(i64 16, i8* nonnull %52) #15
  call void @llvm.memset.p0i8.i64(i8* nonnull align 8 %52, i8 -86, i64 16, i1 false) #15
  call void @_ZNO8perfetto11TracedValue10WriteArrayEv(%"class.perfetto::TracedArray"* nonnull sret %6, %"class.perfetto::TracedValue"* nonnull %7) #15
  %53 = getelementptr inbounds %"class.memory_instrumentation::mojom::RawOSMemDump", %"class.memory_instrumentation::mojom::RawOSMemDump"* %0, i64 0, i32 4, i32 0, i32 0
  %54 = load %"class.mojo::StructPtr.70"*, %"class.mojo::StructPtr.70"** %53, align 8
  %55 = getelementptr inbounds %"class.memory_instrumentation::mojom::RawOSMemDump", %"class.memory_instrumentation::mojom::RawOSMemDump"* %0, i64 0, i32 4, i32 0, i32 1
  %56 = load %"class.mojo::StructPtr.70"*, %"class.mojo::StructPtr.70"** %55, align 8
  %57 = icmp eq %"class.mojo::StructPtr.70"* %54, %56
  br i1 %57, label %72, label %58

58:                                               ; preds = %49
  %59 = bitcast %"class.perfetto::TracedValue"* %5 to i8*
  %60 = bitcast %"class.perfetto::TracedValue"* %4 to i8*
  %61 = bitcast %"class.perfetto::TracedValue"* %3 to i8*
  br label %62

62:                                               ; preds = %69, %58
  %63 = phi %"class.mojo::StructPtr.70"* [ %54, %58 ], [ %70, %69 ]
  call void @llvm.lifetime.start.p0i8(i64 16, i8* nonnull %59) #15
  call void @_ZN8perfetto11TracedArray10AppendItemEv(%"class.perfetto::TracedValue"* nonnull sret %5, %"class.perfetto::TracedArray"* nonnull %6) #15
  %64 = getelementptr inbounds %"class.mojo::StructPtr.70", %"class.mojo::StructPtr.70"* %63, i64 0, i32 0, i32 0, i32 0, i32 0
  %65 = load %"class.memory_instrumentation::mojom::VmRegion"*, %"class.memory_instrumentation::mojom::VmRegion"** %64, align 8
  call void @llvm.lifetime.start.p0i8(i64 16, i8* nonnull %60) #15
  call void @llvm.memcpy.p0i8.p0i8.i64(i8* nonnull align 8 %60, i8* nonnull align 8 %59, i64 16, i1 false) #15
  %66 = icmp eq %"class.memory_instrumentation::mojom::VmRegion"* %65, null
  br i1 %66, label %67, label %68

67:                                               ; preds = %62
  call void @_ZNO8perfetto11TracedValue12WritePointerEPKv(%"class.perfetto::TracedValue"* nonnull %4, i8* null) #15
  br label %69

68:                                               ; preds = %62
  call void @llvm.lifetime.start.p0i8(i64 16, i8* nonnull %61) #15
  call void @llvm.memcpy.p0i8.p0i8.i64(i8* nonnull align 8 %61, i8* nonnull align 8 %60, i64 16, i1 false) #15
  call void @_ZNK22memory_instrumentation5mojom8VmRegion14WriteIntoTraceEN8perfetto11TracedValueE(%"class.memory_instrumentation::mojom::VmRegion"* nonnull %65, %"class.perfetto::TracedValue"* nonnull %3) #15
  call void @llvm.lifetime.end.p0i8(i64 16, i8* nonnull %61) #15
  br label %69

69:                                               ; preds = %68, %67
  call void @llvm.lifetime.end.p0i8(i64 16, i8* nonnull %60) #15
  call void @llvm.lifetime.end.p0i8(i64 16, i8* nonnull %59) #15
  %70 = getelementptr inbounds %"class.mojo::StructPtr.70", %"class.mojo::StructPtr.70"* %63, i64 1
  %71 = icmp eq %"class.mojo::StructPtr.70"* %70, %56
  br i1 %71, label %72, label %62

72:                                               ; preds = %69, %49
  call void @llvm.lifetime.end.p0i8(i64 16, i8* nonnull %52) #15
  call void @llvm.lifetime.end.p0i8(i64 16, i8* nonnull %51) #15
  call void @_ZN8perfetto16TracedDictionary7AddItemENS_12StaticStringE(%"class.perfetto::TracedValue"* nonnull sret %23, %"class.perfetto::TracedDictionary"* nonnull %17, i8* getelementptr inbounds ([28 x i8], [28 x i8]* @.str.43, i64 0, i64 0)) #15
  %73 = bitcast %"class.perfetto::TracedValue"* %23 to i8*
  %74 = bitcast %"class.perfetto::TracedValue"* %16 to i8*
  call void @llvm.lifetime.start.p0i8(i64 16, i8* nonnull %74) #15
  call void @llvm.memcpy.p0i8.p0i8.i64(i8* nonnull align 8 %74, i8* nonnull align 8 %73, i64 16, i1 false) #15
  %75 = bitcast %"class.perfetto::TracedArray"* %15 to i8*
  call void @llvm.lifetime.start.p0i8(i64 16, i8* nonnull %75) #15
  call void @llvm.memset.p0i8.i64(i8* nonnull align 8 %75, i8 -86, i64 16, i1 false) #15
  call void @_ZNO8perfetto11TracedValue10WriteArrayEv(%"class.perfetto::TracedArray"* nonnull sret %15, %"class.perfetto::TracedValue"* nonnull %16) #15
  %76 = getelementptr inbounds %"class.memory_instrumentation::mojom::RawOSMemDump", %"class.memory_instrumentation::mojom::RawOSMemDump"* %0, i64 0, i32 5, i32 0, i32 0
  %77 = load i8*, i8** %76, align 8
  %78 = getelementptr inbounds %"class.memory_instrumentation::mojom::RawOSMemDump", %"class.memory_instrumentation::mojom::RawOSMemDump"* %0, i64 0, i32 5, i32 0, i32 1
  %79 = load i8*, i8** %78, align 8
  %80 = icmp eq i8* %77, %79
  br i1 %80, label %90, label %81

81:                                               ; preds = %72
  %82 = bitcast %"class.perfetto::TracedValue"* %14 to i8*
  %83 = bitcast %"class.perfetto::TracedValue"* %13 to i8*
  br label %84

84:                                               ; preds = %84, %81
  %85 = phi i8* [ %77, %81 ], [ %88, %84 ]
  call void @llvm.lifetime.start.p0i8(i64 16, i8* nonnull %82) #15
  call void @_ZN8perfetto11TracedArray10AppendItemEv(%"class.perfetto::TracedValue"* nonnull sret %14, %"class.perfetto::TracedArray"* nonnull %15) #15
  call void @llvm.lifetime.start.p0i8(i64 16, i8* nonnull %83) #15
  call void @llvm.memcpy.p0i8.p0i8.i64(i8* nonnull align 8 %83, i8* nonnull align 8 %82, i64 16, i1 false) #15
  %86 = load i8, i8* %85, align 1
  %87 = zext i8 %86 to i64
  call void @_ZNO8perfetto11TracedValue11WriteUInt64Em(%"class.perfetto::TracedValue"* nonnull %13, i64 %87) #15
  call void @llvm.lifetime.end.p0i8(i64 16, i8* nonnull %83) #15
  call void @llvm.lifetime.end.p0i8(i64 16, i8* nonnull %82) #15
  %88 = getelementptr inbounds i8, i8* %85, i64 1
  %89 = icmp eq i8* %88, %79
  br i1 %89, label %90, label %84

90:                                               ; preds = %84, %72
  call void @llvm.lifetime.end.p0i8(i64 16, i8* nonnull %75) #15
  call void @llvm.lifetime.end.p0i8(i64 16, i8* nonnull %74) #15
  call void @llvm.lifetime.end.p0i8(i64 16, i8* nonnull %24) #15
  ret void
}

; Function Attrs: nounwind ssp uwtable
define hidden zeroext i1 @_ZN22memory_instrumentation5mojom12RawOSMemDump8ValidateEPKvPN4mojo8internal17ValidationContextE(i8*, %"class.mojo::internal::ValidationContext"*) local_unnamed_addr #2 align 2 {
  %3 = tail call zeroext i1 @_ZN22memory_instrumentation5mojom8internal17RawOSMemDump_Data8ValidateEPKvPN4mojo8internal17ValidationContextE(i8* %0, %"class.mojo::internal::ValidationContext"* %1) #15
  ret i1 %3
}

declare zeroext i1 @_ZN22memory_instrumentation5mojom8internal17RawOSMemDump_Data8ValidateEPKvPN4mojo8internal17ValidationContextE(i8*, %"class.mojo::internal::ValidationContext"*) local_unnamed_addr #4

; Function Attrs: nofree norecurse nounwind ssp uwtable writeonly
define hidden void @_ZN22memory_instrumentation5mojom9OSMemDumpC2Ev(%"class.memory_instrumentation::mojom::OSMemDump"* nocapture) unnamed_addr #0 align 2 {
  %2 = getelementptr inbounds %"class.memory_instrumentation::mojom::OSMemDump", %"class.memory_instrumentation::mojom::OSMemDump"* %0, i64 0, i32 3
  store i32 0, i32* %2, align 4
  %3 = getelementptr inbounds %"class.memory_instrumentation::mojom::OSMemDump", %"class.memory_instrumentation::mojom::OSMemDump"* %0, i64 0, i32 4
  store i32 0, i32* %3, align 4
  %4 = getelementptr inbounds %"class.memory_instrumentation::mojom::OSMemDump", %"class.memory_instrumentation::mojom::OSMemDump"* %0, i64 0, i32 5
  store i32 0, i32* %4, align 4
  %5 = bitcast %"class.memory_instrumentation::mojom::OSMemDump"* %0 to i8*
  call void @llvm.memset.p0i8.i64(i8* align 4 %5, i8 0, i64 9, i1 false)
  ret void
}

; Function Attrs: nofree norecurse nounwind ssp uwtable writeonly
define hidden void @_ZN22memory_instrumentation5mojom9OSMemDumpC2Ejjbjjj(%"class.memory_instrumentation::mojom::OSMemDump"* nocapture, i32, i32, i1 zeroext, i32, i32, i32) unnamed_addr #0 align 2 {
  %8 = zext i1 %3 to i8
  %9 = getelementptr inbounds %"class.memory_instrumentation::mojom::OSMemDump", %"class.memory_instrumentation::mojom::OSMemDump"* %0, i64 0, i32 0
  store i32 %1, i32* %9, align 4
  %10 = getelementptr inbounds %"class.memory_instrumentation::mojom::OSMemDump", %"class.memory_instrumentation::mojom::OSMemDump"* %0, i64 0, i32 1
  store i32 %2, i32* %10, align 4
  %11 = getelementptr inbounds %"class.memory_instrumentation::mojom::OSMemDump", %"class.memory_instrumentation::mojom::OSMemDump"* %0, i64 0, i32 2
  store i8 %8, i8* %11, align 4
  %12 = getelementptr inbounds %"class.memory_instrumentation::mojom::OSMemDump", %"class.memory_instrumentation::mojom::OSMemDump"* %0, i64 0, i32 3
  store i32 %4, i32* %12, align 4
  %13 = getelementptr inbounds %"class.memory_instrumentation::mojom::OSMemDump", %"class.memory_instrumentation::mojom::OSMemDump"* %0, i64 0, i32 4
  store i32 %5, i32* %13, align 4
  %14 = getelementptr inbounds %"class.memory_instrumentation::mojom::OSMemDump", %"class.memory_instrumentation::mojom::OSMemDump"* %0, i64 0, i32 5
  store i32 %6, i32* %14, align 4
  ret void
}

; Function Attrs: norecurse nounwind readnone ssp uwtable
define hidden void @_ZN22memory_instrumentation5mojom9OSMemDumpD2Ev(%"class.memory_instrumentation::mojom::OSMemDump"* nocapture) unnamed_addr #1 align 2 {
  ret void
}

; Function Attrs: norecurse nounwind readonly ssp uwtable
define hidden i64 @_ZNK22memory_instrumentation5mojom9OSMemDump4HashEm(%"class.memory_instrumentation::mojom::OSMemDump"* nocapture readonly, i64) local_unnamed_addr #5 align 2 {
  %3 = getelementptr inbounds %"class.memory_instrumentation::mojom::OSMemDump", %"class.memory_instrumentation::mojom::OSMemDump"* %0, i64 0, i32 0
  %4 = load i32, i32* %3, align 4
  %5 = zext i32 %4 to i64
  %6 = shl i64 %1, 6
  %7 = lshr i64 %1, 2
  %8 = add i64 %7, %6
  %9 = add i64 %8, %5
  %10 = xor i64 %9, %1
  %11 = getelementptr inbounds %"class.memory_instrumentation::mojom::OSMemDump", %"class.memory_instrumentation::mojom::OSMemDump"* %0, i64 0, i32 1
  %12 = load i32, i32* %11, align 4
  %13 = zext i32 %12 to i64
  %14 = shl i64 %10, 6
  %15 = lshr i64 %10, 2
  %16 = add i64 %14, %13
  %17 = add i64 %16, %15
  %18 = xor i64 %17, %10
  %19 = getelementptr inbounds %"class.memory_instrumentation::mojom::OSMemDump", %"class.memory_instrumentation::mojom::OSMemDump"* %0, i64 0, i32 2
  %20 = load i8, i8* %19, align 1, !range !2
  %21 = zext i8 %20 to i64
  %22 = shl i64 %18, 6
  %23 = or i64 %22, %21
  %24 = lshr i64 %18, 2
  %25 = add i64 %23, %24
  %26 = xor i64 %25, %18
  %27 = getelementptr inbounds %"class.memory_instrumentation::mojom::OSMemDump", %"class.memory_instrumentation::mojom::OSMemDump"* %0, i64 0, i32 3
  %28 = load i32, i32* %27, align 4
  %29 = zext i32 %28 to i64
  %30 = shl i64 %26, 6
  %31 = lshr i64 %26, 2
  %32 = add i64 %30, %29
  %33 = add i64 %32, %31
  %34 = xor i64 %33, %26
  %35 = getelementptr inbounds %"class.memory_instrumentation::mojom::OSMemDump", %"class.memory_instrumentation::mojom::OSMemDump"* %0, i64 0, i32 4
  %36 = load i32, i32* %35, align 4
  %37 = zext i32 %36 to i64
  %38 = shl i64 %34, 6
  %39 = lshr i64 %34, 2
  %40 = add i64 %38, %37
  %41 = add i64 %40, %39
  %42 = xor i64 %41, %34
  %43 = getelementptr inbounds %"class.memory_instrumentation::mojom::OSMemDump", %"class.memory_instrumentation::mojom::OSMemDump"* %0, i64 0, i32 5
  %44 = load i32, i32* %43, align 4
  %45 = zext i32 %44 to i64
  %46 = shl i64 %42, 6
  %47 = lshr i64 %42, 2
  %48 = add i64 %46, %45
  %49 = add i64 %48, %47
  %50 = xor i64 %49, %42
  ret i64 %50
}

; Function Attrs: nounwind ssp uwtable
define hidden void @_ZNK22memory_instrumentation5mojom9OSMemDump14WriteIntoTraceEN8perfetto11TracedValueE(%"class.memory_instrumentation::mojom::OSMemDump"* nocapture readonly, %"class.perfetto::TracedValue"*) local_unnamed_addr #2 align 2 {
  %3 = alloca %"class.perfetto::TracedValue", align 8
  %4 = alloca %"class.perfetto::TracedValue", align 8
  %5 = alloca %"class.perfetto::TracedValue", align 8
  %6 = alloca %"class.perfetto::TracedValue", align 8
  %7 = alloca %"class.perfetto::TracedValue", align 8
  %8 = alloca %"class.perfetto::TracedValue", align 8
  %9 = alloca %"class.perfetto::TracedDictionary", align 8
  %10 = alloca %"class.perfetto::TracedValue", align 8
  %11 = alloca %"class.perfetto::TracedValue", align 8
  %12 = alloca %"class.perfetto::TracedValue", align 8
  %13 = alloca %"class.perfetto::TracedValue", align 8
  %14 = alloca %"class.perfetto::TracedValue", align 8
  %15 = alloca %"class.perfetto::TracedValue", align 8
  %16 = bitcast %"class.perfetto::TracedDictionary"* %9 to i8*
  call void @llvm.lifetime.start.p0i8(i64 16, i8* nonnull %16) #15
  %17 = bitcast %"class.perfetto::TracedDictionary"* %9 to i8*
  call void @llvm.memset.p0i8.i64(i8* nonnull align 8 %17, i8 -86, i64 16, i1 false)
  call void @_ZNO8perfetto11TracedValue15WriteDictionaryEv(%"class.perfetto::TracedDictionary"* nonnull sret %9, %"class.perfetto::TracedValue"* %1) #15
  call void @_ZN8perfetto16TracedDictionary7AddItemENS_12StaticStringE(%"class.perfetto::TracedValue"* nonnull sret %10, %"class.perfetto::TracedDictionary"* nonnull %9, i8* getelementptr inbounds ([16 x i8], [16 x i8]* @.str.38, i64 0, i64 0)) #15
  %18 = getelementptr inbounds %"class.memory_instrumentation::mojom::OSMemDump", %"class.memory_instrumentation::mojom::OSMemDump"* %0, i64 0, i32 0
  %19 = bitcast %"class.perfetto::TracedValue"* %10 to i8*
  %20 = bitcast %"class.perfetto::TracedValue"* %7 to i8*
  call void @llvm.lifetime.start.p0i8(i64 16, i8* nonnull %20) #15
  call void @llvm.memcpy.p0i8.p0i8.i64(i8* nonnull align 8 %20, i8* nonnull align 8 %19, i64 16, i1 false) #15
  %21 = load i32, i32* %18, align 4
  %22 = zext i32 %21 to i64
  call void @_ZNO8perfetto11TracedValue11WriteUInt64Em(%"class.perfetto::TracedValue"* nonnull %7, i64 %22) #15
  call void @llvm.lifetime.end.p0i8(i64 16, i8* nonnull %20) #15
  call void @_ZN8perfetto16TracedDictionary7AddItemENS_12StaticStringE(%"class.perfetto::TracedValue"* nonnull sret %11, %"class.perfetto::TracedDictionary"* nonnull %9, i8* getelementptr inbounds ([21 x i8], [21 x i8]* @.str.39, i64 0, i64 0)) #15
  %23 = getelementptr inbounds %"class.memory_instrumentation::mojom::OSMemDump", %"class.memory_instrumentation::mojom::OSMemDump"* %0, i64 0, i32 1
  %24 = bitcast %"class.perfetto::TracedValue"* %11 to i8*
  %25 = bitcast %"class.perfetto::TracedValue"* %6 to i8*
  call void @llvm.lifetime.start.p0i8(i64 16, i8* nonnull %25) #15
  call void @llvm.memcpy.p0i8.p0i8.i64(i8* nonnull align 8 %25, i8* nonnull align 8 %24, i64 16, i1 false) #15
  %26 = load i32, i32* %23, align 4
  %27 = zext i32 %26 to i64
  call void @_ZNO8perfetto11TracedValue11WriteUInt64Em(%"class.perfetto::TracedValue"* nonnull %6, i64 %27) #15
  call void @llvm.lifetime.end.p0i8(i64 16, i8* nonnull %25) #15
  call void @_ZN8perfetto16TracedDictionary7AddItemENS_12StaticStringE(%"class.perfetto::TracedValue"* nonnull sret %12, %"class.perfetto::TracedDictionary"* nonnull %9, i8* getelementptr inbounds ([23 x i8], [23 x i8]* @.str.40, i64 0, i64 0)) #15
  %28 = getelementptr inbounds %"class.memory_instrumentation::mojom::OSMemDump", %"class.memory_instrumentation::mojom::OSMemDump"* %0, i64 0, i32 2
  %29 = bitcast %"class.perfetto::TracedValue"* %12 to i8*
  %30 = bitcast %"class.perfetto::TracedValue"* %5 to i8*
  call void @llvm.lifetime.start.p0i8(i64 16, i8* nonnull %30) #15
  call void @llvm.memcpy.p0i8.p0i8.i64(i8* nonnull align 8 %30, i8* nonnull align 8 %29, i64 16, i1 false) #15
  %31 = load i8, i8* %28, align 1, !range !2
  %32 = icmp ne i8 %31, 0
  call void @_ZNO8perfetto11TracedValue12WriteBooleanEb(%"class.perfetto::TracedValue"* nonnull %5, i1 zeroext %32) #15
  call void @llvm.lifetime.end.p0i8(i64 16, i8* nonnull %30) #15
  call void @_ZN8perfetto16TracedDictionary7AddItemENS_12StaticStringE(%"class.perfetto::TracedValue"* nonnull sret %13, %"class.perfetto::TracedDictionary"* nonnull %9, i8* getelementptr inbounds ([21 x i8], [21 x i8]* @.str.44, i64 0, i64 0)) #15
  %33 = getelementptr inbounds %"class.memory_instrumentation::mojom::OSMemDump", %"class.memory_instrumentation::mojom::OSMemDump"* %0, i64 0, i32 3
  %34 = bitcast %"class.perfetto::TracedValue"* %13 to i8*
  %35 = bitcast %"class.perfetto::TracedValue"* %4 to i8*
  call void @llvm.lifetime.start.p0i8(i64 16, i8* nonnull %35) #15
  call void @llvm.memcpy.p0i8.p0i8.i64(i8* nonnull align 8 %35, i8* nonnull align 8 %34, i64 16, i1 false) #15
  %36 = load i32, i32* %33, align 4
  %37 = zext i32 %36 to i64
  call void @_ZNO8perfetto11TracedValue11WriteUInt64Em(%"class.perfetto::TracedValue"* nonnull %4, i64 %37) #15
  call void @llvm.lifetime.end.p0i8(i64 16, i8* nonnull %35) #15
  call void @_ZN8perfetto16TracedDictionary7AddItemENS_12StaticStringE(%"class.perfetto::TracedValue"* nonnull sret %14, %"class.perfetto::TracedDictionary"* nonnull %9, i8* getelementptr inbounds ([20 x i8], [20 x i8]* @.str.45, i64 0, i64 0)) #15
  %38 = getelementptr inbounds %"class.memory_instrumentation::mojom::OSMemDump", %"class.memory_instrumentation::mojom::OSMemDump"* %0, i64 0, i32 4
  %39 = bitcast %"class.perfetto::TracedValue"* %14 to i8*
  %40 = bitcast %"class.perfetto::TracedValue"* %3 to i8*
  call void @llvm.lifetime.start.p0i8(i64 16, i8* nonnull %40) #15
  call void @llvm.memcpy.p0i8.p0i8.i64(i8* nonnull align 8 %40, i8* nonnull align 8 %39, i64 16, i1 false) #15
  %41 = load i32, i32* %38, align 4
  %42 = zext i32 %41 to i64
  call void @_ZNO8perfetto11TracedValue11WriteUInt64Em(%"class.perfetto::TracedValue"* nonnull %3, i64 %42) #15
  call void @llvm.lifetime.end.p0i8(i64 16, i8* nonnull %40) #15
  call void @_ZN8perfetto16TracedDictionary7AddItemENS_12StaticStringE(%"class.perfetto::TracedValue"* nonnull sret %15, %"class.perfetto::TracedDictionary"* nonnull %9, i8* getelementptr inbounds ([26 x i8], [26 x i8]* @.str.46, i64 0, i64 0)) #15
  %43 = getelementptr inbounds %"class.memory_instrumentation::mojom::OSMemDump", %"class.memory_instrumentation::mojom::OSMemDump"* %0, i64 0, i32 5
  %44 = bitcast %"class.perfetto::TracedValue"* %15 to i8*
  %45 = bitcast %"class.perfetto::TracedValue"* %8 to i8*
  call void @llvm.lifetime.start.p0i8(i64 16, i8* nonnull %45) #15
  call void @llvm.memcpy.p0i8.p0i8.i64(i8* nonnull align 8 %45, i8* nonnull align 8 %44, i64 16, i1 false) #15
  %46 = load i32, i32* %43, align 4
  %47 = zext i32 %46 to i64
  call void @_ZNO8perfetto11TracedValue11WriteUInt64Em(%"class.perfetto::TracedValue"* nonnull %8, i64 %47) #15
  call void @llvm.lifetime.end.p0i8(i64 16, i8* nonnull %45) #15
  call void @llvm.lifetime.end.p0i8(i64 16, i8* nonnull %16) #15
  ret void
}

; Function Attrs: nounwind ssp uwtable
define hidden zeroext i1 @_ZN22memory_instrumentation5mojom9OSMemDump8ValidateEPKvPN4mojo8internal17ValidationContextE(i8*, %"class.mojo::internal::ValidationContext"*) local_unnamed_addr #2 align 2 {
  %3 = tail call zeroext i1 @_ZN22memory_instrumentation5mojom8internal14OSMemDump_Data8ValidateEPKvPN4mojo8internal17ValidationContextE(i8* %0, %"class.mojo::internal::ValidationContext"* %1) #15
  ret i1 %3
}

declare zeroext i1 @_ZN22memory_instrumentation5mojom8internal14OSMemDump_Data8ValidateEPKvPN4mojo8internal17ValidationContextE(i8*, %"class.mojo::internal::ValidationContext"*) local_unnamed_addr #4

; Function Attrs: nounwind ssp uwtable
define hidden void @_ZN22memory_instrumentation5mojom16AllocatorMemDumpC2Ev(%"class.memory_instrumentation::mojom::AllocatorMemDump"* nocapture) unnamed_addr #2 align 2 {
  %2 = bitcast %"class.memory_instrumentation::mojom::AllocatorMemDump"* %0 to i8*
  call void @llvm.memset.p0i8.i64(i8* align 8 %2, i8 0, i64 24, i1 false)
  ret void
}

; Function Attrs: nounwind ssp uwtable
define hidden void @_ZN22memory_instrumentation5mojom16AllocatorMemDumpC2ERKN4base8flat_mapINSt3__112basic_stringIcNS4_11char_traitsIcEENS4_9allocatorIcEEEEmNS4_4lessIvEENS4_6vectorINS4_4pairISA_mEENS8_ISF_EEEEEE(%"class.memory_instrumentation::mojom::AllocatorMemDump"*, %"class.base::flat_map"* nocapture readonly dereferenceable(24)) unnamed_addr #2 align 2 {
  %3 = bitcast %"class.memory_instrumentation::mojom::AllocatorMemDump"* %0 to i8*
  tail call void @llvm.memset.p0i8.i64(i8* align 8 %3, i8 0, i64 24, i1 false) #15
  %4 = getelementptr inbounds %"class.base::flat_map", %"class.base::flat_map"* %1, i64 0, i32 0, i32 0, i32 0, i32 1
  %5 = bitcast %"struct.std::__1::pair"** %4 to i64*
  %6 = load i64, i64* %5, align 8
  %7 = bitcast %"class.base::flat_map"* %1 to i64*
  %8 = load i64, i64* %7, align 8
  %9 = sub i64 %6, %8
  %10 = ashr exact i64 %9, 5
  %11 = icmp eq i64 %9, 0
  br i1 %11, label %57, label %12

12:                                               ; preds = %2
  %13 = icmp ugt i64 %10, 576460752303423487
  br i1 %13, label %14, label %16

14:                                               ; preds = %12
  %15 = bitcast %"class.memory_instrumentation::mojom::AllocatorMemDump"* %0 to %"class.std::__1::__vector_base_common"*
  tail call void @_ZNKSt3__120__vector_base_commonILb1EE20__throw_length_errorEv(%"class.std::__1::__vector_base_common"* %15) #17
  unreachable

16:                                               ; preds = %12
  %17 = tail call i8* @_Znwm(i64 %9) #16
  %18 = bitcast i8* %17 to %"struct.std::__1::pair"*
  %19 = getelementptr inbounds %"class.memory_instrumentation::mojom::AllocatorMemDump", %"class.memory_instrumentation::mojom::AllocatorMemDump"* %0, i64 0, i32 0, i32 0, i32 0, i32 0, i32 1
  %20 = bitcast %"struct.std::__1::pair"** %19 to i8**
  store i8* %17, i8** %20, align 8
  %21 = bitcast %"class.memory_instrumentation::mojom::AllocatorMemDump"* %0 to i8**
  store i8* %17, i8** %21, align 8
  %22 = getelementptr inbounds %"struct.std::__1::pair", %"struct.std::__1::pair"* %18, i64 %10
  %23 = getelementptr inbounds %"class.memory_instrumentation::mojom::AllocatorMemDump", %"class.memory_instrumentation::mojom::AllocatorMemDump"* %0, i64 0, i32 0, i32 0, i32 0, i32 0, i32 2, i32 0, i32 0
  store %"struct.std::__1::pair"* %22, %"struct.std::__1::pair"** %23, align 8
  %24 = getelementptr inbounds %"class.base::flat_map", %"class.base::flat_map"* %1, i64 0, i32 0, i32 0, i32 0, i32 0
  %25 = load %"struct.std::__1::pair"*, %"struct.std::__1::pair"** %24, align 8
  %26 = load %"struct.std::__1::pair"*, %"struct.std::__1::pair"** %4, align 8
  %27 = bitcast %"struct.std::__1::pair"** %19 to i64*
  %28 = ptrtoint i8* %17 to i64
  %29 = icmp eq %"struct.std::__1::pair"* %25, %26
  br i1 %29, label %55, label %30

30:                                               ; preds = %16, %46
  %31 = phi %"struct.std::__1::pair"* [ %51, %46 ], [ %18, %16 ]
  %32 = phi %"struct.std::__1::pair"* [ %50, %46 ], [ %25, %16 ]
  %33 = bitcast %"struct.std::__1::pair"* %32 to %"struct.std::__1::basic_string<char, std::__1::char_traits<char>, std::__1::allocator<char> >::__short"*
  %34 = getelementptr inbounds %"struct.std::__1::basic_string<char, std::__1::char_traits<char>, std::__1::allocator<char> >::__short", %"struct.std::__1::basic_string<char, std::__1::char_traits<char>, std::__1::allocator<char> >::__short"* %33, i64 0, i32 1, i32 0
  %35 = load i8, i8* %34, align 1
  %36 = icmp slt i8 %35, 0
  br i1 %36, label %40, label %37

37:                                               ; preds = %30
  %38 = bitcast %"struct.std::__1::pair"* %31 to i8*
  %39 = bitcast %"struct.std::__1::pair"* %32 to i8*
  tail call void @llvm.memcpy.p0i8.p0i8.i64(i8* align 8 %38, i8* align 8 %39, i64 24, i1 false) #15
  br label %46

40:                                               ; preds = %30
  %41 = getelementptr inbounds %"struct.std::__1::pair", %"struct.std::__1::pair"* %31, i64 0, i32 0
  %42 = getelementptr inbounds %"struct.std::__1::pair", %"struct.std::__1::pair"* %32, i64 0, i32 0, i32 0, i32 0, i32 0, i32 0, i32 0, i32 0
  %43 = load i8*, i8** %42, align 8
  %44 = getelementptr inbounds %"struct.std::__1::pair", %"struct.std::__1::pair"* %32, i64 0, i32 0, i32 0, i32 0, i32 0, i32 0, i32 0, i32 1
  %45 = load i64, i64* %44, align 8
  tail call void @_ZNSt3__112basic_stringIcNS_11char_traitsIcEENS_9allocatorIcEEE25__init_copy_ctor_externalEPKcm(%"class.std::__1::basic_string"* %41, i8* %43, i64 %45) #15
  br label %46

46:                                               ; preds = %40, %37
  %47 = getelementptr inbounds %"struct.std::__1::pair", %"struct.std::__1::pair"* %31, i64 0, i32 1
  %48 = getelementptr inbounds %"struct.std::__1::pair", %"struct.std::__1::pair"* %32, i64 0, i32 1
  %49 = load i64, i64* %48, align 8
  store i64 %49, i64* %47, align 8
  %50 = getelementptr inbounds %"struct.std::__1::pair", %"struct.std::__1::pair"* %32, i64 1
  %51 = getelementptr inbounds %"struct.std::__1::pair", %"struct.std::__1::pair"* %31, i64 1
  %52 = icmp eq %"struct.std::__1::pair"* %50, %26
  br i1 %52, label %53, label %30

53:                                               ; preds = %46
  %54 = ptrtoint %"struct.std::__1::pair"* %51 to i64
  br label %55

55:                                               ; preds = %53, %16
  %56 = phi i64 [ %28, %16 ], [ %54, %53 ]
  store i64 %56, i64* %27, align 8
  br label %57

57:                                               ; preds = %2, %55
  ret void
}

; Function Attrs: nounwind ssp uwtable
define hidden void @_ZN22memory_instrumentation5mojom16AllocatorMemDumpD2Ev(%"class.memory_instrumentation::mojom::AllocatorMemDump"* nocapture) unnamed_addr #2 align 2 {
  %2 = getelementptr inbounds %"class.memory_instrumentation::mojom::AllocatorMemDump", %"class.memory_instrumentation::mojom::AllocatorMemDump"* %0, i64 0, i32 0, i32 0, i32 0, i32 0, i32 0
  %3 = load %"struct.std::__1::pair"*, %"struct.std::__1::pair"** %2, align 8
  %4 = icmp eq %"struct.std::__1::pair"* %3, null
  br i1 %4, label %27, label %5

5:                                                ; preds = %1
  %6 = bitcast %"struct.std::__1::pair"* %3 to i8*
  %7 = getelementptr inbounds %"class.memory_instrumentation::mojom::AllocatorMemDump", %"class.memory_instrumentation::mojom::AllocatorMemDump"* %0, i64 0, i32 0, i32 0, i32 0, i32 0, i32 1
  %8 = load %"struct.std::__1::pair"*, %"struct.std::__1::pair"** %7, align 8
  %9 = icmp eq %"struct.std::__1::pair"* %8, %3
  br i1 %9, label %25, label %10

10:                                               ; preds = %5, %20
  %11 = phi %"struct.std::__1::pair"* [ %12, %20 ], [ %8, %5 ]
  %12 = getelementptr inbounds %"struct.std::__1::pair", %"struct.std::__1::pair"* %11, i64 -1
  %13 = bitcast %"struct.std::__1::pair"* %12 to %"struct.std::__1::basic_string<char, std::__1::char_traits<char>, std::__1::allocator<char> >::__short"*
  %14 = getelementptr inbounds %"struct.std::__1::basic_string<char, std::__1::char_traits<char>, std::__1::allocator<char> >::__short", %"struct.std::__1::basic_string<char, std::__1::char_traits<char>, std::__1::allocator<char> >::__short"* %13, i64 0, i32 1, i32 0
  %15 = load i8, i8* %14, align 1
  %16 = icmp slt i8 %15, 0
  br i1 %16, label %17, label %20

17:                                               ; preds = %10
  %18 = getelementptr inbounds %"struct.std::__1::pair", %"struct.std::__1::pair"* %12, i64 0, i32 0, i32 0, i32 0, i32 0, i32 0, i32 0, i32 0
  %19 = load i8*, i8** %18, align 8
  tail call void @_ZdlPv(i8* %19) #16
  br label %20

20:                                               ; preds = %17, %10
  %21 = icmp eq %"struct.std::__1::pair"* %12, %3
  br i1 %21, label %22, label %10

22:                                               ; preds = %20
  %23 = bitcast %"class.memory_instrumentation::mojom::AllocatorMemDump"* %0 to i8**
  %24 = load i8*, i8** %23, align 8
  br label %25

25:                                               ; preds = %22, %5
  %26 = phi i8* [ %24, %22 ], [ %6, %5 ]
  store %"struct.std::__1::pair"* %3, %"struct.std::__1::pair"** %7, align 8
  tail call void @_ZdlPv(i8* %26) #16
  br label %27

27:                                               ; preds = %1, %25
  ret void
}

; Function Attrs: nounwind ssp uwtable
define hidden void @_ZNK22memory_instrumentation5mojom16AllocatorMemDump14WriteIntoTraceEN8perfetto11TracedValueE(%"class.memory_instrumentation::mojom::AllocatorMemDump"* nocapture readnone, %"class.perfetto::TracedValue"*) local_unnamed_addr #2 align 2 {
  %3 = alloca %"class.perfetto::TracedDictionary", align 8
  %4 = alloca %"class.perfetto::TracedValue", align 8
  %5 = alloca %"class.std::__1::basic_string", align 8
  %6 = bitcast %"class.perfetto::TracedDictionary"* %3 to i8*
  call void @llvm.lifetime.start.p0i8(i64 16, i8* nonnull %6) #15
  %7 = bitcast %"class.perfetto::TracedDictionary"* %3 to i8*
  call void @llvm.memset.p0i8.i64(i8* nonnull align 8 %7, i8 -86, i64 16, i1 false)
  call void @_ZNO8perfetto11TracedValue15WriteDictionaryEv(%"class.perfetto::TracedDictionary"* nonnull sret %3, %"class.perfetto::TracedValue"* %1) #15
  call void @_ZN8perfetto16TracedDictionary7AddItemENS_12StaticStringE(%"class.perfetto::TracedValue"* nonnull sret %4, %"class.perfetto::TracedDictionary"* nonnull %3, i8* getelementptr inbounds ([16 x i8], [16 x i8]* @.str.47, i64 0, i64 0)) #15
  %8 = bitcast %"class.std::__1::basic_string"* %5 to i8*
  call void @llvm.lifetime.start.p0i8(i64 24, i8* nonnull %8) #15
  %9 = bitcast %"class.std::__1::basic_string"* %5 to %"struct.std::__1::basic_string<char, std::__1::char_traits<char>, std::__1::allocator<char> >::__short"*
  %10 = getelementptr inbounds %"struct.std::__1::basic_string<char, std::__1::char_traits<char>, std::__1::allocator<char> >::__short", %"struct.std::__1::basic_string<char, std::__1::char_traits<char>, std::__1::allocator<char> >::__short"* %9, i64 0, i32 1, i32 0
  store i8 7, i8* %10, align 1
  call void @llvm.memcpy.p0i8.p0i8.i64(i8* nonnull align 8 %8, i8* align 1 getelementptr inbounds ([8 x i8], [8 x i8]* @.str.1, i64 0, i64 0), i64 7, i1 false) #15
  %11 = getelementptr inbounds i8, i8* %8, i64 7
  store i8 0, i8* %11, align 1
  call void @_ZNO8perfetto11TracedValue11WriteStringERKNSt3__112basic_stringIcNS1_11char_traitsIcEENS1_9allocatorIcEEEE(%"class.perfetto::TracedValue"* nonnull %4, %"class.std::__1::basic_string"* nonnull dereferenceable(24) %5) #15
  %12 = load i8, i8* %10, align 1
  %13 = icmp slt i8 %12, 0
  br i1 %13, label %14, label %17

14:                                               ; preds = %2
  %15 = getelementptr inbounds %"class.std::__1::basic_string", %"class.std::__1::basic_string"* %5, i64 0, i32 0, i32 0, i32 0, i32 0, i32 0, i32 0
  %16 = load i8*, i8** %15, align 8
  call void @_ZdlPv(i8* %16) #16
  br label %17

17:                                               ; preds = %2, %14
  call void @llvm.lifetime.end.p0i8(i64 24, i8* nonnull %8) #15
  call void @llvm.lifetime.end.p0i8(i64 16, i8* nonnull %6) #15
  ret void
}

; Function Attrs: nounwind ssp uwtable
define hidden zeroext i1 @_ZN22memory_instrumentation5mojom16AllocatorMemDump8ValidateEPKvPN4mojo8internal17ValidationContextE(i8*, %"class.mojo::internal::ValidationContext"*) local_unnamed_addr #2 align 2 {
  %3 = tail call zeroext i1 @_ZN22memory_instrumentation5mojom8internal21AllocatorMemDump_Data8ValidateEPKvPN4mojo8internal17ValidationContextE(i8* %0, %"class.mojo::internal::ValidationContext"* %1) #15
  ret i1 %3
}

declare zeroext i1 @_ZN22memory_instrumentation5mojom8internal21AllocatorMemDump_Data8ValidateEPKvPN4mojo8internal17ValidationContextE(i8*, %"class.mojo::internal::ValidationContext"*) local_unnamed_addr #4

; Function Attrs: nounwind ssp uwtable
define hidden void @_ZN22memory_instrumentation5mojom17ProcessMemoryDumpC2Ev(%"class.memory_instrumentation::mojom::ProcessMemoryDump"* nocapture) unnamed_addr #2 align 2 {
  %2 = getelementptr inbounds %"class.memory_instrumentation::mojom::ProcessMemoryDump", %"class.memory_instrumentation::mojom::ProcessMemoryDump"* %0, i64 0, i32 0
  store i32 0, i32* %2, align 8
  %3 = getelementptr inbounds %"class.memory_instrumentation::mojom::ProcessMemoryDump", %"class.memory_instrumentation::mojom::ProcessMemoryDump"* %0, i64 0, i32 1
  %4 = getelementptr inbounds %"class.memory_instrumentation::mojom::ProcessMemoryDump", %"class.memory_instrumentation::mojom::ProcessMemoryDump"* %0, i64 0, i32 4, i32 0, i32 0, i32 0, i32 0
  store i8 0, i8* %4, align 8
  %5 = getelementptr inbounds %"class.memory_instrumentation::mojom::ProcessMemoryDump", %"class.memory_instrumentation::mojom::ProcessMemoryDump"* %0, i64 0, i32 4, i32 0, i32 0, i32 0, i32 1
  %6 = bitcast %union.anon.124* %5 to i8*
  tail call void @llvm.memset.p0i8.i64(i8* align 8 %6, i8 0, i64 24, i1 false) #15
  %7 = bitcast %"class.mojo::StructPtr.96"* %3 to i8*
  call void @llvm.memset.p0i8.i64(i8* align 8 %7, i8 0, i64 36, i1 false)
  ret void
}

; Function Attrs: nounwind ssp uwtable
define hidden void @_ZN22memory_instrumentation5mojom17ProcessMemoryDumpC2ENS0_11ProcessTypeEN4mojo9StructPtrINS0_9OSMemDumpEEEN4base8flat_mapINSt3__112basic_stringIcNS9_11char_traitsIcEENS9_9allocatorIcEEEENS4_INS0_16AllocatorMemDumpEEENS9_4lessIvEENS9_6vectorINS9_4pairISF_SH_EENSD_ISM_EEEEEEiRKN4absl8optionalISF_EE(%"class.memory_instrumentation::mojom::ProcessMemoryDump"*, i32, %"class.mojo::StructPtr.96"* nocapture, %"class.base::flat_map.103"* nocapture, i32, %"class.absl::optional.120"* nocapture readonly dereferenceable(32)) unnamed_addr #2 align 2 {
  %7 = getelementptr inbounds %"class.memory_instrumentation::mojom::ProcessMemoryDump", %"class.memory_instrumentation::mojom::ProcessMemoryDump"* %0, i64 0, i32 0
  store i32 %1, i32* %7, align 8
  %8 = getelementptr inbounds %"class.memory_instrumentation::mojom::ProcessMemoryDump", %"class.memory_instrumentation::mojom::ProcessMemoryDump"* %0, i64 0, i32 1
  %9 = bitcast %"class.mojo::StructPtr.96"* %8 to i64*
  %10 = getelementptr inbounds %"class.mojo::StructPtr.96", %"class.mojo::StructPtr.96"* %8, i64 0, i32 0, i32 0, i32 0, i32 0
  store %"class.memory_instrumentation::mojom::OSMemDump"* null, %"class.memory_instrumentation::mojom::OSMemDump"** %10, align 8
  %11 = bitcast %"class.mojo::StructPtr.96"* %2 to i64*
  %12 = load i64, i64* %11, align 8
  store i64 %12, i64* %9, align 8
  store i64 0, i64* %11, align 8
  %13 = getelementptr inbounds %"class.memory_instrumentation::mojom::ProcessMemoryDump", %"class.memory_instrumentation::mojom::ProcessMemoryDump"* %0, i64 0, i32 2
  %14 = bitcast %"class.base::flat_map.103"* %13 to i8*
  tail call void @llvm.memset.p0i8.i64(i8* align 8 %14, i8 0, i64 24, i1 false) #15
  %15 = bitcast %"class.base::flat_map.103"* %3 to i64*
  %16 = load i64, i64* %15, align 8
  %17 = bitcast %"class.base::flat_map.103"* %13 to i64*
  store i64 %16, i64* %17, align 8
  %18 = getelementptr inbounds %"class.base::flat_map.103", %"class.base::flat_map.103"* %3, i64 0, i32 0, i32 0, i32 0, i32 1
  %19 = bitcast %"struct.std::__1::pair.107"** %18 to i64*
  %20 = load i64, i64* %19, align 8
  %21 = getelementptr inbounds %"class.memory_instrumentation::mojom::ProcessMemoryDump", %"class.memory_instrumentation::mojom::ProcessMemoryDump"* %0, i64 0, i32 2, i32 0, i32 0, i32 0, i32 1
  %22 = bitcast %"struct.std::__1::pair.107"** %21 to i64*
  store i64 %20, i64* %22, align 8
  %23 = getelementptr inbounds %"class.base::flat_map.103", %"class.base::flat_map.103"* %3, i64 0, i32 0, i32 0, i32 0, i32 2, i32 0, i32 0
  %24 = bitcast %"struct.std::__1::pair.107"** %23 to i64*
  %25 = load i64, i64* %24, align 8
  %26 = getelementptr inbounds %"class.memory_instrumentation::mojom::ProcessMemoryDump", %"class.memory_instrumentation::mojom::ProcessMemoryDump"* %0, i64 0, i32 2, i32 0, i32 0, i32 0, i32 2, i32 0, i32 0
  %27 = bitcast %"struct.std::__1::pair.107"** %26 to i64*
  store i64 %25, i64* %27, align 8
  %28 = bitcast %"class.base::flat_map.103"* %3 to i8*
  tail call void @llvm.memset.p0i8.i64(i8* align 8 %28, i8 0, i64 24, i1 false) #15
  %29 = getelementptr inbounds %"class.memory_instrumentation::mojom::ProcessMemoryDump", %"class.memory_instrumentation::mojom::ProcessMemoryDump"* %0, i64 0, i32 3
  store i32 %4, i32* %29, align 8
  %30 = getelementptr inbounds %"class.memory_instrumentation::mojom::ProcessMemoryDump", %"class.memory_instrumentation::mojom::ProcessMemoryDump"* %0, i64 0, i32 4, i32 0, i32 0, i32 0, i32 0
  %31 = getelementptr inbounds %"class.absl::optional.120", %"class.absl::optional.120"* %5, i64 0, i32 0, i32 0, i32 0, i32 0
  tail call void @llvm.memset.p0i8.i64(i8* align 8 %30, i8 0, i64 32, i1 false) #15
  %32 = load i8, i8* %31, align 8, !range !2
  %33 = icmp eq i8 %32, 0
  br i1 %33, label %50, label %34

34:                                               ; preds = %6
  %35 = getelementptr inbounds %"class.absl::optional.120", %"class.absl::optional.120"* %5, i64 0, i32 0, i32 0, i32 0, i32 1, i32 0
  %36 = getelementptr inbounds %"class.memory_instrumentation::mojom::ProcessMemoryDump", %"class.memory_instrumentation::mojom::ProcessMemoryDump"* %0, i64 0, i32 4, i32 0, i32 0, i32 0, i32 1, i32 0
  %37 = bitcast %"class.std::__1::basic_string"* %35 to %"struct.std::__1::basic_string<char, std::__1::char_traits<char>, std::__1::allocator<char> >::__short"*
  %38 = getelementptr inbounds %"struct.std::__1::basic_string<char, std::__1::char_traits<char>, std::__1::allocator<char> >::__short", %"struct.std::__1::basic_string<char, std::__1::char_traits<char>, std::__1::allocator<char> >::__short"* %37, i64 0, i32 1, i32 0
  %39 = load i8, i8* %38, align 1
  %40 = icmp slt i8 %39, 0
  br i1 %40, label %44, label %41

41:                                               ; preds = %34
  %42 = bitcast %"class.std::__1::basic_string"* %36 to i8*
  %43 = bitcast %"class.std::__1::basic_string"* %35 to i8*
  tail call void @llvm.memcpy.p0i8.p0i8.i64(i8* align 8 %42, i8* align 8 %43, i64 24, i1 false) #15
  br label %49

44:                                               ; preds = %34
  %45 = getelementptr inbounds %"class.std::__1::basic_string", %"class.std::__1::basic_string"* %35, i64 0, i32 0, i32 0, i32 0, i32 0, i32 0, i32 0
  %46 = load i8*, i8** %45, align 8
  %47 = getelementptr inbounds %"class.absl::optional.120", %"class.absl::optional.120"* %5, i64 0, i32 0, i32 0, i32 0, i32 1, i32 0, i32 0, i32 0, i32 0, i32 0, i32 0, i32 1
  %48 = load i64, i64* %47, align 8
  tail call void @_ZNSt3__112basic_stringIcNS_11char_traitsIcEENS_9allocatorIcEEE25__init_copy_ctor_externalEPKcm(%"class.std::__1::basic_string"* %36, i8* %46, i64 %48) #15
  br label %49

49:                                               ; preds = %44, %41
  store i8 1, i8* %30, align 8
  br label %50

50:                                               ; preds = %6, %49
  ret void
}

; Function Attrs: nounwind ssp uwtable
define hidden void @_ZN22memory_instrumentation5mojom17ProcessMemoryDumpD2Ev(%"class.memory_instrumentation::mojom::ProcessMemoryDump"*) unnamed_addr #2 align 2 {
  %2 = getelementptr inbounds %"class.memory_instrumentation::mojom::ProcessMemoryDump", %"class.memory_instrumentation::mojom::ProcessMemoryDump"* %0, i64 0, i32 4, i32 0, i32 0, i32 0, i32 0
  %3 = load i8, i8* %2, align 8, !range !2
  %4 = icmp eq i8 %3, 0
  br i1 %4, label %15, label %5

5:                                                ; preds = %1
  %6 = getelementptr inbounds %"class.memory_instrumentation::mojom::ProcessMemoryDump", %"class.memory_instrumentation::mojom::ProcessMemoryDump"* %0, i64 0, i32 4, i32 0, i32 0, i32 0, i32 1, i32 0
  %7 = bitcast %"class.std::__1::basic_string"* %6 to %"struct.std::__1::basic_string<char, std::__1::char_traits<char>, std::__1::allocator<char> >::__short"*
  %8 = getelementptr inbounds %"struct.std::__1::basic_string<char, std::__1::char_traits<char>, std::__1::allocator<char> >::__short", %"struct.std::__1::basic_string<char, std::__1::char_traits<char>, std::__1::allocator<char> >::__short"* %7, i64 0, i32 1, i32 0
  %9 = load i8, i8* %8, align 1
  %10 = icmp slt i8 %9, 0
  br i1 %10, label %11, label %14

11:                                               ; preds = %5
  %12 = getelementptr inbounds %"class.std::__1::basic_string", %"class.std::__1::basic_string"* %6, i64 0, i32 0, i32 0, i32 0, i32 0, i32 0, i32 0
  %13 = load i8*, i8** %12, align 8
  tail call void @_ZdlPv(i8* %13) #16
  br label %14

14:                                               ; preds = %11, %5
  store i8 0, i8* %2, align 8
  br label %15

15:                                               ; preds = %1, %14
  %16 = getelementptr inbounds %"class.memory_instrumentation::mojom::ProcessMemoryDump", %"class.memory_instrumentation::mojom::ProcessMemoryDump"* %0, i64 0, i32 2, i32 0
  %17 = getelementptr inbounds %"class.base::internal::flat_tree.104", %"class.base::internal::flat_tree.104"* %16, i64 0, i32 0, i32 0, i32 0
  %18 = load %"struct.std::__1::pair.107"*, %"struct.std::__1::pair.107"** %17, align 8
  %19 = icmp eq %"struct.std::__1::pair.107"* %18, null
  br i1 %19, label %24, label %20

20:                                               ; preds = %15
  %21 = getelementptr inbounds %"class.base::internal::flat_tree.104", %"class.base::internal::flat_tree.104"* %16, i64 0, i32 0, i32 0
  tail call void @_ZNSt3__113__vector_baseINS_4pairINS_12basic_stringIcNS_11char_traitsIcEENS_9allocatorIcEEEEN4mojo9StructPtrIN22memory_instrumentation5mojom16AllocatorMemDumpEEEEENS5_ISE_EEE5clearEv(%"class.std::__1::__vector_base.106"* %21) #15
  %22 = bitcast %"class.base::internal::flat_tree.104"* %16 to i8**
  %23 = load i8*, i8** %22, align 8
  tail call void @_ZdlPv(i8* %23) #16
  br label %24

24:                                               ; preds = %15, %20
  %25 = getelementptr inbounds %"class.memory_instrumentation::mojom::ProcessMemoryDump", %"class.memory_instrumentation::mojom::ProcessMemoryDump"* %0, i64 0, i32 1, i32 0, i32 0, i32 0, i32 0
  %26 = load %"class.memory_instrumentation::mojom::OSMemDump"*, %"class.memory_instrumentation::mojom::OSMemDump"** %25, align 8
  store %"class.memory_instrumentation::mojom::OSMemDump"* null, %"class.memory_instrumentation::mojom::OSMemDump"** %25, align 8
  %27 = icmp eq %"class.memory_instrumentation::mojom::OSMemDump"* %26, null
  br i1 %27, label %30, label %28

28:                                               ; preds = %24
  %29 = bitcast %"class.memory_instrumentation::mojom::OSMemDump"* %26 to i8*
  tail call void @_ZdlPv(i8* %29) #16
  br label %30

30:                                               ; preds = %24, %28
  ret void
}

; Function Attrs: nounwind ssp uwtable
define hidden void @_ZNK22memory_instrumentation5mojom17ProcessMemoryDump14WriteIntoTraceEN8perfetto11TracedValueE(%"class.memory_instrumentation::mojom::ProcessMemoryDump"*, %"class.perfetto::TracedValue"*) local_unnamed_addr #2 align 2 {
  %3 = alloca %"class.perfetto::TracedValue", align 8
  %4 = alloca %"class.perfetto::TracedValue", align 8
  %5 = alloca %"class.perfetto::TracedValue", align 8
  %6 = alloca %"class.perfetto::TracedValue", align 8
  %7 = alloca %"class.perfetto::TracedValue", align 8
  %8 = alloca %"class.perfetto::TracedValue", align 8
  %9 = alloca %"class.perfetto::TracedDictionary", align 8
  %10 = alloca %"class.perfetto::TracedValue", align 8
  %11 = alloca %"class.perfetto::TracedValue", align 8
  %12 = alloca %"class.perfetto::TracedValue", align 8
  %13 = alloca %"class.std::__1::basic_string", align 8
  %14 = alloca %"class.perfetto::TracedValue", align 8
  %15 = alloca %"class.perfetto::TracedValue", align 8
  %16 = bitcast %"class.perfetto::TracedDictionary"* %9 to i8*
  call void @llvm.lifetime.start.p0i8(i64 16, i8* nonnull %16) #15
  %17 = bitcast %"class.perfetto::TracedDictionary"* %9 to i8*
  call void @llvm.memset.p0i8.i64(i8* nonnull align 8 %17, i8 -86, i64 16, i1 false)
  call void @_ZNO8perfetto11TracedValue15WriteDictionaryEv(%"class.perfetto::TracedDictionary"* nonnull sret %9, %"class.perfetto::TracedValue"* %1) #15
  call void @_ZN8perfetto16TracedDictionary7AddItemENS_12StaticStringE(%"class.perfetto::TracedValue"* nonnull sret %10, %"class.perfetto::TracedDictionary"* nonnull %9, i8* getelementptr inbounds ([13 x i8], [13 x i8]* @.str.48, i64 0, i64 0)) #15
  %18 = getelementptr inbounds %"class.memory_instrumentation::mojom::ProcessMemoryDump", %"class.memory_instrumentation::mojom::ProcessMemoryDump"* %0, i64 0, i32 0
  %19 = bitcast %"class.perfetto::TracedValue"* %10 to i8*
  %20 = bitcast %"class.perfetto::TracedValue"* %6 to i8*
  call void @llvm.lifetime.start.p0i8(i64 16, i8* nonnull %20) #15
  call void @llvm.memcpy.p0i8.p0i8.i64(i8* nonnull align 8 %20, i8* nonnull align 8 %19, i64 16, i1 false) #15
  %21 = load i32, i32* %18, align 4
  call void @_ZN8perfetto17TraceFormatTraitsIN22memory_instrumentation5mojom11ProcessTypeEvE14WriteIntoTraceENS_11TracedValueES3_(%"class.perfetto::TracedValue"* nonnull %6, i32 %21) #15
  call void @llvm.lifetime.end.p0i8(i64 16, i8* nonnull %20) #15
  call void @_ZN8perfetto16TracedDictionary7AddItemENS_12StaticStringE(%"class.perfetto::TracedValue"* nonnull sret %11, %"class.perfetto::TracedDictionary"* nonnull %9, i8* getelementptr inbounds ([8 x i8], [8 x i8]* @.str.49, i64 0, i64 0)) #15
  %22 = bitcast %"class.perfetto::TracedValue"* %11 to i8*
  %23 = getelementptr inbounds %"class.memory_instrumentation::mojom::ProcessMemoryDump", %"class.memory_instrumentation::mojom::ProcessMemoryDump"* %0, i64 0, i32 1, i32 0, i32 0, i32 0, i32 0
  %24 = load %"class.memory_instrumentation::mojom::OSMemDump"*, %"class.memory_instrumentation::mojom::OSMemDump"** %23, align 8
  %25 = bitcast %"class.perfetto::TracedValue"* %5 to i8*
  call void @llvm.lifetime.start.p0i8(i64 16, i8* nonnull %25) #15
  call void @llvm.memcpy.p0i8.p0i8.i64(i8* nonnull align 8 %25, i8* nonnull align 8 %22, i64 16, i1 false)
  %26 = icmp eq %"class.memory_instrumentation::mojom::OSMemDump"* %24, null
  br i1 %26, label %27, label %28

27:                                               ; preds = %2
  call void @_ZNO8perfetto11TracedValue12WritePointerEPKv(%"class.perfetto::TracedValue"* nonnull %5, i8* null) #15
  br label %30

28:                                               ; preds = %2
  %29 = bitcast %"class.perfetto::TracedValue"* %4 to i8*
  call void @llvm.lifetime.start.p0i8(i64 16, i8* nonnull %29) #15
  call void @llvm.memcpy.p0i8.p0i8.i64(i8* nonnull align 8 %29, i8* nonnull align 8 %25, i64 16, i1 false) #15
  call void @_ZNK22memory_instrumentation5mojom9OSMemDump14WriteIntoTraceEN8perfetto11TracedValueE(%"class.memory_instrumentation::mojom::OSMemDump"* nonnull %24, %"class.perfetto::TracedValue"* nonnull %4) #15
  call void @llvm.lifetime.end.p0i8(i64 16, i8* nonnull %29) #15
  br label %30

30:                                               ; preds = %28, %27
  call void @llvm.lifetime.end.p0i8(i64 16, i8* nonnull %25) #15
  call void @_ZN8perfetto16TracedDictionary7AddItemENS_12StaticStringE(%"class.perfetto::TracedValue"* nonnull sret %12, %"class.perfetto::TracedDictionary"* nonnull %9, i8* getelementptr inbounds ([23 x i8], [23 x i8]* @.str.50, i64 0, i64 0)) #15
  %31 = bitcast %"class.std::__1::basic_string"* %13 to i8*
  call void @llvm.lifetime.start.p0i8(i64 24, i8* nonnull %31) #15
  %32 = bitcast %"class.std::__1::basic_string"* %13 to %"struct.std::__1::basic_string<char, std::__1::char_traits<char>, std::__1::allocator<char> >::__short"*
  %33 = getelementptr inbounds %"struct.std::__1::basic_string<char, std::__1::char_traits<char>, std::__1::allocator<char> >::__short", %"struct.std::__1::basic_string<char, std::__1::char_traits<char>, std::__1::allocator<char> >::__short"* %32, i64 0, i32 1, i32 0
  store i8 7, i8* %33, align 1
  call void @llvm.memcpy.p0i8.p0i8.i64(i8* nonnull align 8 %31, i8* align 1 getelementptr inbounds ([8 x i8], [8 x i8]* @.str.1, i64 0, i64 0), i64 7, i1 false) #15
  %34 = getelementptr inbounds i8, i8* %31, i64 7
  store i8 0, i8* %34, align 1
  call void @_ZNO8perfetto11TracedValue11WriteStringERKNSt3__112basic_stringIcNS1_11char_traitsIcEENS1_9allocatorIcEEEE(%"class.perfetto::TracedValue"* nonnull %12, %"class.std::__1::basic_string"* nonnull dereferenceable(24) %13) #15
  %35 = load i8, i8* %33, align 1
  %36 = icmp slt i8 %35, 0
  br i1 %36, label %37, label %40

37:                                               ; preds = %30
  %38 = getelementptr inbounds %"class.std::__1::basic_string", %"class.std::__1::basic_string"* %13, i64 0, i32 0, i32 0, i32 0, i32 0, i32 0, i32 0
  %39 = load i8*, i8** %38, align 8
  call void @_ZdlPv(i8* %39) #16
  br label %40

40:                                               ; preds = %37, %30
  call void @llvm.lifetime.end.p0i8(i64 24, i8* nonnull %31) #15
  call void @_ZN8perfetto16TracedDictionary7AddItemENS_12StaticStringE(%"class.perfetto::TracedValue"* nonnull sret %14, %"class.perfetto::TracedDictionary"* nonnull %9, i8* getelementptr inbounds ([4 x i8], [4 x i8]* @.str.51, i64 0, i64 0)) #15
  %41 = getelementptr inbounds %"class.memory_instrumentation::mojom::ProcessMemoryDump", %"class.memory_instrumentation::mojom::ProcessMemoryDump"* %0, i64 0, i32 3
  %42 = bitcast %"class.perfetto::TracedValue"* %14 to i8*
  %43 = bitcast %"class.perfetto::TracedValue"* %3 to i8*
  call void @llvm.lifetime.start.p0i8(i64 16, i8* nonnull %43) #15
  call void @llvm.memcpy.p0i8.p0i8.i64(i8* nonnull align 8 %43, i8* nonnull align 8 %42, i64 16, i1 false) #15
  %44 = load i32, i32* %41, align 4
  %45 = sext i32 %44 to i64
  call void @_ZNO8perfetto11TracedValue10WriteInt64El(%"class.perfetto::TracedValue"* nonnull %3, i64 %45) #15
  call void @llvm.lifetime.end.p0i8(i64 16, i8* nonnull %43) #15
  call void @_ZN8perfetto16TracedDictionary7AddItemENS_12StaticStringE(%"class.perfetto::TracedValue"* nonnull sret %15, %"class.perfetto::TracedDictionary"* nonnull %9, i8* getelementptr inbounds ([13 x i8], [13 x i8]* @.str.52, i64 0, i64 0)) #15
  %46 = bitcast %"class.perfetto::TracedValue"* %15 to i8*
  %47 = bitcast %"class.perfetto::TracedValue"* %8 to i8*
  call void @llvm.lifetime.start.p0i8(i64 16, i8* nonnull %47) #15
  call void @llvm.memcpy.p0i8.p0i8.i64(i8* nonnull align 8 %47, i8* nonnull align 8 %46, i64 16, i1 false) #15
  %48 = getelementptr inbounds %"class.memory_instrumentation::mojom::ProcessMemoryDump", %"class.memory_instrumentation::mojom::ProcessMemoryDump"* %0, i64 0, i32 4, i32 0, i32 0, i32 0, i32 0
  %49 = load i8, i8* %48, align 8, !range !2
  %50 = icmp eq i8 %49, 0
  br i1 %50, label %51, label %52

51:                                               ; preds = %40
  call void @_ZNO8perfetto11TracedValue12WritePointerEPKv(%"class.perfetto::TracedValue"* nonnull %8, i8* null) #15
  br label %55

52:                                               ; preds = %40
  %53 = getelementptr inbounds %"class.memory_instrumentation::mojom::ProcessMemoryDump", %"class.memory_instrumentation::mojom::ProcessMemoryDump"* %0, i64 0, i32 4, i32 0, i32 0, i32 0, i32 1, i32 0
  %54 = bitcast %"class.perfetto::TracedValue"* %7 to i8*
  call void @llvm.lifetime.start.p0i8(i64 16, i8* nonnull %54) #15
  call void @llvm.memcpy.p0i8.p0i8.i64(i8* nonnull align 8 %54, i8* nonnull align 8 %47, i64 16, i1 false) #15
  call void @_ZNO8perfetto11TracedValue11WriteStringERKNSt3__112basic_stringIcNS1_11char_traitsIcEENS1_9allocatorIcEEEE(%"class.perfetto::TracedValue"* nonnull %7, %"class.std::__1::basic_string"* dereferenceable(24) %53) #15
  call void @llvm.lifetime.end.p0i8(i64 16, i8* nonnull %54) #15
  br label %55

55:                                               ; preds = %52, %51
  call void @llvm.lifetime.end.p0i8(i64 16, i8* nonnull %47) #15
  call void @llvm.lifetime.end.p0i8(i64 16, i8* nonnull %16) #15
  ret void
}

; Function Attrs: nounwind ssp uwtable
define hidden zeroext i1 @_ZN22memory_instrumentation5mojom17ProcessMemoryDump8ValidateEPKvPN4mojo8internal17ValidationContextE(i8*, %"class.mojo::internal::ValidationContext"*) local_unnamed_addr #2 align 2 {
  %3 = tail call zeroext i1 @_ZN22memory_instrumentation5mojom8internal22ProcessMemoryDump_Data8ValidateEPKvPN4mojo8internal17ValidationContextE(i8* %0, %"class.mojo::internal::ValidationContext"* %1) #15
  ret i1 %3
}

declare zeroext i1 @_ZN22memory_instrumentation5mojom8internal22ProcessMemoryDump_Data8ValidateEPKvPN4mojo8internal17ValidationContextE(i8*, %"class.mojo::internal::ValidationContext"*) local_unnamed_addr #4

; Function Attrs: nofree norecurse nounwind ssp uwtable writeonly
define hidden void @_ZN22memory_instrumentation5mojom17AggregatedMetricsC2Ev(%"class.memory_instrumentation::mojom::AggregatedMetrics"* nocapture) unnamed_addr #0 align 2 {
  %2 = getelementptr inbounds %"class.memory_instrumentation::mojom::AggregatedMetrics", %"class.memory_instrumentation::mojom::AggregatedMetrics"* %0, i64 0, i32 0
  store i32 0, i32* %2, align 4
  %3 = getelementptr inbounds %"class.memory_instrumentation::mojom::AggregatedMetrics", %"class.memory_instrumentation::mojom::AggregatedMetrics"* %0, i64 0, i32 1
  store i32 0, i32* %3, align 4
  %4 = getelementptr inbounds %"class.memory_instrumentation::mojom::AggregatedMetrics", %"class.memory_instrumentation::mojom::AggregatedMetrics"* %0, i64 0, i32 2
  store i32 0, i32* %4, align 4
  ret void
}

; Function Attrs: nofree norecurse nounwind ssp uwtable writeonly
define hidden void @_ZN22memory_instrumentation5mojom17AggregatedMetricsC2Eiii(%"class.memory_instrumentation::mojom::AggregatedMetrics"* nocapture, i32, i32, i32) unnamed_addr #0 align 2 {
  %5 = getelementptr inbounds %"class.memory_instrumentation::mojom::AggregatedMetrics", %"class.memory_instrumentation::mojom::AggregatedMetrics"* %0, i64 0, i32 0
  store i32 %1, i32* %5, align 4
  %6 = getelementptr inbounds %"class.memory_instrumentation::mojom::AggregatedMetrics", %"class.memory_instrumentation::mojom::AggregatedMetrics"* %0, i64 0, i32 1
  store i32 %2, i32* %6, align 4
  %7 = getelementptr inbounds %"class.memory_instrumentation::mojom::AggregatedMetrics", %"class.memory_instrumentation::mojom::AggregatedMetrics"* %0, i64 0, i32 2
  store i32 %3, i32* %7, align 4
  ret void
}

; Function Attrs: norecurse nounwind readnone ssp uwtable
define hidden void @_ZN22memory_instrumentation5mojom17AggregatedMetricsD2Ev(%"class.memory_instrumentation::mojom::AggregatedMetrics"* nocapture) unnamed_addr #1 align 2 {
  ret void
}

; Function Attrs: norecurse nounwind readonly ssp uwtable
define hidden i64 @_ZNK22memory_instrumentation5mojom17AggregatedMetrics4HashEm(%"class.memory_instrumentation::mojom::AggregatedMetrics"* nocapture readonly, i64) local_unnamed_addr #5 align 2 {
  %3 = getelementptr inbounds %"class.memory_instrumentation::mojom::AggregatedMetrics", %"class.memory_instrumentation::mojom::AggregatedMetrics"* %0, i64 0, i32 0
  %4 = load i32, i32* %3, align 4
  %5 = sext i32 %4 to i64
  %6 = shl i64 %1, 6
  %7 = lshr i64 %1, 2
  %8 = add i64 %7, %6
  %9 = add i64 %8, %5
  %10 = xor i64 %9, %1
  %11 = getelementptr inbounds %"class.memory_instrumentation::mojom::AggregatedMetrics", %"class.memory_instrumentation::mojom::AggregatedMetrics"* %0, i64 0, i32 1
  %12 = load i32, i32* %11, align 4
  %13 = sext i32 %12 to i64
  %14 = shl i64 %10, 6
  %15 = lshr i64 %10, 2
  %16 = add i64 %14, %13
  %17 = add i64 %16, %15
  %18 = xor i64 %17, %10
  %19 = getelementptr inbounds %"class.memory_instrumentation::mojom::AggregatedMetrics", %"class.memory_instrumentation::mojom::AggregatedMetrics"* %0, i64 0, i32 2
  %20 = load i32, i32* %19, align 4
  %21 = sext i32 %20 to i64
  %22 = shl i64 %18, 6
  %23 = lshr i64 %18, 2
  %24 = add i64 %22, %21
  %25 = add i64 %24, %23
  %26 = xor i64 %25, %18
  ret i64 %26
}

; Function Attrs: nounwind ssp uwtable
define hidden void @_ZNK22memory_instrumentation5mojom17AggregatedMetrics14WriteIntoTraceEN8perfetto11TracedValueE(%"class.memory_instrumentation::mojom::AggregatedMetrics"* nocapture readonly, %"class.perfetto::TracedValue"*) local_unnamed_addr #2 align 2 {
  %3 = alloca %"class.perfetto::TracedValue", align 8
  %4 = alloca %"class.perfetto::TracedValue", align 8
  %5 = alloca %"class.perfetto::TracedValue", align 8
  %6 = alloca %"class.perfetto::TracedDictionary", align 8
  %7 = alloca %"class.perfetto::TracedValue", align 8
  %8 = alloca %"class.perfetto::TracedValue", align 8
  %9 = alloca %"class.perfetto::TracedValue", align 8
  %10 = bitcast %"class.perfetto::TracedDictionary"* %6 to i8*
  call void @llvm.lifetime.start.p0i8(i64 16, i8* nonnull %10) #15
  %11 = bitcast %"class.perfetto::TracedDictionary"* %6 to i8*
  call void @llvm.memset.p0i8.i64(i8* nonnull align 8 %11, i8 -86, i64 16, i1 false)
  call void @_ZNO8perfetto11TracedValue15WriteDictionaryEv(%"class.perfetto::TracedDictionary"* nonnull sret %6, %"class.perfetto::TracedValue"* %1) #15
  call void @_ZN8perfetto16TracedDictionary7AddItemENS_12StaticStringE(%"class.perfetto::TracedValue"* nonnull sret %7, %"class.perfetto::TracedDictionary"* nonnull %6, i8* getelementptr inbounds ([27 x i8], [27 x i8]* @.str.53, i64 0, i64 0)) #15
  %12 = getelementptr inbounds %"class.memory_instrumentation::mojom::AggregatedMetrics", %"class.memory_instrumentation::mojom::AggregatedMetrics"* %0, i64 0, i32 0
  %13 = bitcast %"class.perfetto::TracedValue"* %7 to i8*
  %14 = bitcast %"class.perfetto::TracedValue"* %4 to i8*
  call void @llvm.lifetime.start.p0i8(i64 16, i8* nonnull %14) #15
  call void @llvm.memcpy.p0i8.p0i8.i64(i8* nonnull align 8 %14, i8* nonnull align 8 %13, i64 16, i1 false) #15
  %15 = load i32, i32* %12, align 4
  %16 = sext i32 %15 to i64
  call void @_ZNO8perfetto11TracedValue10WriteInt64El(%"class.perfetto::TracedValue"* nonnull %4, i64 %16) #15
  call void @llvm.lifetime.end.p0i8(i64 16, i8* nonnull %14) #15
  call void @_ZN8perfetto16TracedDictionary7AddItemENS_12StaticStringE(%"class.perfetto::TracedValue"* nonnull sret %8, %"class.perfetto::TracedDictionary"* nonnull %6, i8* getelementptr inbounds ([39 x i8], [39 x i8]* @.str.54, i64 0, i64 0)) #15
  %17 = getelementptr inbounds %"class.memory_instrumentation::mojom::AggregatedMetrics", %"class.memory_instrumentation::mojom::AggregatedMetrics"* %0, i64 0, i32 1
  %18 = bitcast %"class.perfetto::TracedValue"* %8 to i8*
  %19 = bitcast %"class.perfetto::TracedValue"* %3 to i8*
  call void @llvm.lifetime.start.p0i8(i64 16, i8* nonnull %19) #15
  call void @llvm.memcpy.p0i8.p0i8.i64(i8* nonnull align 8 %19, i8* nonnull align 8 %18, i64 16, i1 false) #15
  %20 = load i32, i32* %17, align 4
  %21 = sext i32 %20 to i64
  call void @_ZNO8perfetto11TracedValue10WriteInt64El(%"class.perfetto::TracedValue"* nonnull %3, i64 %21) #15
  call void @llvm.lifetime.end.p0i8(i64 16, i8* nonnull %19) #15
  call void @_ZN8perfetto16TracedDictionary7AddItemENS_12StaticStringE(%"class.perfetto::TracedValue"* nonnull sret %9, %"class.perfetto::TracedDictionary"* nonnull %6, i8* getelementptr inbounds ([39 x i8], [39 x i8]* @.str.55, i64 0, i64 0)) #15
  %22 = getelementptr inbounds %"class.memory_instrumentation::mojom::AggregatedMetrics", %"class.memory_instrumentation::mojom::AggregatedMetrics"* %0, i64 0, i32 2
  %23 = bitcast %"class.perfetto::TracedValue"* %9 to i8*
  %24 = bitcast %"class.perfetto::TracedValue"* %5 to i8*
  call void @llvm.lifetime.start.p0i8(i64 16, i8* nonnull %24) #15
  call void @llvm.memcpy.p0i8.p0i8.i64(i8* nonnull align 8 %24, i8* nonnull align 8 %23, i64 16, i1 false) #15
  %25 = load i32, i32* %22, align 4
  %26 = sext i32 %25 to i64
  call void @_ZNO8perfetto11TracedValue10WriteInt64El(%"class.perfetto::TracedValue"* nonnull %5, i64 %26) #15
  call void @llvm.lifetime.end.p0i8(i64 16, i8* nonnull %24) #15
  call void @llvm.lifetime.end.p0i8(i64 16, i8* nonnull %10) #15
  ret void
}

; Function Attrs: nounwind ssp uwtable
define hidden zeroext i1 @_ZN22memory_instrumentation5mojom17AggregatedMetrics8ValidateEPKvPN4mojo8internal17ValidationContextE(i8*, %"class.mojo::internal::ValidationContext"*) local_unnamed_addr #2 align 2 {
  %3 = tail call zeroext i1 @_ZN22memory_instrumentation5mojom8internal22AggregatedMetrics_Data8ValidateEPKvPN4mojo8internal17ValidationContextE(i8* %0, %"class.mojo::internal::ValidationContext"* %1) #15
  ret i1 %3
}

declare zeroext i1 @_ZN22memory_instrumentation5mojom8internal22AggregatedMetrics_Data8ValidateEPKvPN4mojo8internal17ValidationContextE(i8*, %"class.mojo::internal::ValidationContext"*) local_unnamed_addr #4

; Function Attrs: nounwind ssp uwtable
define hidden void @_ZN22memory_instrumentation5mojom16GlobalMemoryDumpC2Ev(%"class.memory_instrumentation::mojom::GlobalMemoryDump"* nocapture) unnamed_addr #2 align 2 {
  %2 = bitcast %"class.memory_instrumentation::mojom::GlobalMemoryDump"* %0 to i8*
  call void @llvm.memset.p0i8.i64(i8* align 8 %2, i8 0, i64 48, i1 false)
  ret void
}

; Function Attrs: nounwind ssp uwtable
define hidden void @_ZN22memory_instrumentation5mojom16GlobalMemoryDumpC2EN4base9TimeTicksENSt3__16vectorIN4mojo9StructPtrINS0_17ProcessMemoryDumpEEENS4_9allocatorIS9_EEEENS6_16InlinedStructPtrINS0_17AggregatedMetricsEEE(%"class.memory_instrumentation::mojom::GlobalMemoryDump"* nocapture, i64, %"class.std::__1::vector.125"* nocapture, %"class.mojo::InlinedStructPtr"* nocapture) unnamed_addr #2 align 2 {
  %5 = getelementptr inbounds %"class.memory_instrumentation::mojom::GlobalMemoryDump", %"class.memory_instrumentation::mojom::GlobalMemoryDump"* %0, i64 0, i32 0, i32 0, i32 0
  store i64 %1, i64* %5, align 8
  %6 = getelementptr inbounds %"class.memory_instrumentation::mojom::GlobalMemoryDump", %"class.memory_instrumentation::mojom::GlobalMemoryDump"* %0, i64 0, i32 1
  %7 = bitcast %"class.std::__1::vector.125"* %6 to i8*
  tail call void @llvm.memset.p0i8.i64(i8* align 8 %7, i8 0, i64 24, i1 false) #15
  %8 = bitcast %"class.std::__1::vector.125"* %2 to i64*
  %9 = load i64, i64* %8, align 8
  %10 = bitcast %"class.std::__1::vector.125"* %6 to i64*
  store i64 %9, i64* %10, align 8
  %11 = getelementptr inbounds %"class.std::__1::vector.125", %"class.std::__1::vector.125"* %2, i64 0, i32 0, i32 1
  %12 = bitcast %"class.mojo::StructPtr.127"** %11 to i64*
  %13 = load i64, i64* %12, align 8
  %14 = getelementptr inbounds %"class.memory_instrumentation::mojom::GlobalMemoryDump", %"class.memory_instrumentation::mojom::GlobalMemoryDump"* %0, i64 0, i32 1, i32 0, i32 1
  %15 = bitcast %"class.mojo::StructPtr.127"** %14 to i64*
  store i64 %13, i64* %15, align 8
  %16 = getelementptr inbounds %"class.std::__1::vector.125", %"class.std::__1::vector.125"* %2, i64 0, i32 0, i32 2, i32 0, i32 0
  %17 = bitcast %"class.mojo::StructPtr.127"** %16 to i64*
  %18 = load i64, i64* %17, align 8
  %19 = getelementptr inbounds %"class.memory_instrumentation::mojom::GlobalMemoryDump", %"class.memory_instrumentation::mojom::GlobalMemoryDump"* %0, i64 0, i32 1, i32 0, i32 2, i32 0, i32 0
  %20 = bitcast %"class.mojo::StructPtr.127"** %19 to i64*
  store i64 %18, i64* %20, align 8
  %21 = bitcast %"class.std::__1::vector.125"* %2 to i8*
  tail call void @llvm.memset.p0i8.i64(i8* align 8 %21, i8 0, i64 24, i1 false) #15
  %22 = getelementptr inbounds %"class.memory_instrumentation::mojom::GlobalMemoryDump", %"class.memory_instrumentation::mojom::GlobalMemoryDump"* %0, i64 0, i32 2
  %23 = getelementptr %"class.memory_instrumentation::mojom::GlobalMemoryDump", %"class.memory_instrumentation::mojom::GlobalMemoryDump"* %0, i64 0, i32 2, i32 1
  %24 = bitcast %"class.mojo::InlinedStructPtr"* %22 to i8*
  %25 = bitcast %"class.mojo::InlinedStructPtr"* %3 to i8*
  store i32 0, i32* %23, align 4
  tail call void @llvm.memcpy.p0i8.p0i8.i64(i8* align 4 %24, i8* align 4 %25, i64 12, i1 false) #15
  %26 = getelementptr inbounds %"class.mojo::InlinedStructPtr", %"class.mojo::InlinedStructPtr"* %3, i64 0, i32 0, i32 0
  store i32 0, i32* %26, align 4
  %27 = getelementptr inbounds %"class.mojo::InlinedStructPtr", %"class.mojo::InlinedStructPtr"* %3, i64 0, i32 0, i32 1
  store i32 0, i32* %27, align 4
  %28 = getelementptr inbounds %"class.mojo::InlinedStructPtr", %"class.mojo::InlinedStructPtr"* %3, i64 0, i32 0, i32 2
  store i32 0, i32* %28, align 4
  %29 = getelementptr inbounds %"class.mojo::InlinedStructPtr", %"class.mojo::InlinedStructPtr"* %3, i64 0, i32 1
  %30 = load i32, i32* %23, align 4
  %31 = load i32, i32* %29, align 4
  store i32 %31, i32* %23, align 4
  store i32 %30, i32* %29, align 4
  ret void
}

; Function Attrs: argmemonly nounwind
declare void @llvm.memcpy.p0i8.p0i8.i64(i8* nocapture writeonly, i8* nocapture readonly, i64, i1 immarg) #3

; Function Attrs: nounwind ssp uwtable
define hidden void @_ZN22memory_instrumentation5mojom16GlobalMemoryDumpD2Ev(%"class.memory_instrumentation::mojom::GlobalMemoryDump"*) unnamed_addr #2 align 2 {
  %2 = getelementptr inbounds %"class.memory_instrumentation::mojom::GlobalMemoryDump", %"class.memory_instrumentation::mojom::GlobalMemoryDump"* %0, i64 0, i32 1
  %3 = getelementptr inbounds %"class.std::__1::vector.125", %"class.std::__1::vector.125"* %2, i64 0, i32 0, i32 0
  %4 = load %"class.mojo::StructPtr.127"*, %"class.mojo::StructPtr.127"** %3, align 8
  %5 = icmp eq %"class.mojo::StructPtr.127"* %4, null
  br i1 %5, label %10, label %6

6:                                                ; preds = %1
  %7 = getelementptr inbounds %"class.std::__1::vector.125", %"class.std::__1::vector.125"* %2, i64 0, i32 0
  tail call void @_ZNSt3__113__vector_baseIN4mojo9StructPtrIN22memory_instrumentation5mojom17ProcessMemoryDumpEEENS_9allocatorIS6_EEE5clearEv(%"class.std::__1::__vector_base.126"* %7) #15
  %8 = bitcast %"class.std::__1::vector.125"* %2 to i8**
  %9 = load i8*, i8** %8, align 8
  tail call void @_ZdlPv(i8* %9) #16
  br label %10

10:                                               ; preds = %1, %6
  ret void
}

; Function Attrs: nounwind ssp uwtable
define hidden void @_ZNK22memory_instrumentation5mojom16GlobalMemoryDump14WriteIntoTraceEN8perfetto11TracedValueE(%"class.memory_instrumentation::mojom::GlobalMemoryDump"* readonly, %"class.perfetto::TracedValue"*) local_unnamed_addr #2 align 2 {
  %3 = alloca %"class.perfetto::TracedValue", align 8
  %4 = alloca %"class.perfetto::TracedValue", align 8
  %5 = alloca %"class.perfetto::TracedValue", align 8
  %6 = alloca %"class.perfetto::TracedDictionary", align 8
  %7 = alloca %"class.perfetto::TracedValue", align 8
  %8 = alloca %"class.perfetto::TracedValue", align 8
  %9 = alloca %"class.perfetto::TracedValue", align 8
  %10 = alloca %"class.perfetto::TracedValue", align 8
  %11 = alloca %"class.perfetto::TracedValue", align 8
  %12 = alloca %"class.perfetto::TracedValue", align 8
  %13 = alloca %"class.perfetto::TracedValue", align 8
  %14 = alloca %"class.perfetto::TracedArray", align 8
  %15 = alloca %"class.perfetto::TracedValue", align 8
  %16 = alloca %"class.perfetto::TracedValue", align 8
  %17 = alloca %"class.perfetto::TracedValue", align 8
  %18 = alloca %"class.perfetto::TracedDictionary", align 8
  %19 = alloca %"class.perfetto::TracedValue", align 8
  %20 = alloca %"class.perfetto::TracedValue", align 8
  %21 = alloca %"class.perfetto::TracedValue", align 8
  %22 = bitcast %"class.perfetto::TracedDictionary"* %18 to i8*
  call void @llvm.lifetime.start.p0i8(i64 16, i8* nonnull %22) #15
  %23 = bitcast %"class.perfetto::TracedDictionary"* %18 to i8*
  call void @llvm.memset.p0i8.i64(i8* nonnull align 8 %23, i8 -86, i64 16, i1 false)
  call void @_ZNO8perfetto11TracedValue15WriteDictionaryEv(%"class.perfetto::TracedDictionary"* nonnull sret %18, %"class.perfetto::TracedValue"* %1) #15
  call void @_ZN8perfetto16TracedDictionary7AddItemENS_12StaticStringE(%"class.perfetto::TracedValue"* nonnull sret %19, %"class.perfetto::TracedDictionary"* nonnull %18, i8* getelementptr inbounds ([11 x i8], [11 x i8]* @.str.56, i64 0, i64 0)) #15
  %24 = bitcast %"class.perfetto::TracedValue"* %19 to i8*
  %25 = getelementptr inbounds %"class.memory_instrumentation::mojom::GlobalMemoryDump", %"class.memory_instrumentation::mojom::GlobalMemoryDump"* %0, i64 0, i32 0, i32 0, i32 0
  %26 = load i64, i64* %25, align 8
  %27 = bitcast %"class.perfetto::TracedValue"* %16 to i8*
  call void @llvm.lifetime.start.p0i8(i64 16, i8* nonnull %27) #15
  call void @llvm.memcpy.p0i8.p0i8.i64(i8* nonnull align 8 %27, i8* nonnull align 8 %24, i64 16, i1 false)
  call void @_ZNO8perfetto11TracedValue11WriteUInt64Em(%"class.perfetto::TracedValue"* nonnull %16, i64 %26) #15
  call void @llvm.lifetime.end.p0i8(i64 16, i8* nonnull %27) #15
  call void @_ZN8perfetto16TracedDictionary7AddItemENS_12StaticStringE(%"class.perfetto::TracedValue"* nonnull sret %20, %"class.perfetto::TracedDictionary"* nonnull %18, i8* getelementptr inbounds ([14 x i8], [14 x i8]* @.str.57, i64 0, i64 0)) #15
  %28 = bitcast %"class.perfetto::TracedValue"* %20 to i8*
  %29 = bitcast %"class.perfetto::TracedValue"* %15 to i8*
  call void @llvm.lifetime.start.p0i8(i64 16, i8* nonnull %29) #15
  call void @llvm.memcpy.p0i8.p0i8.i64(i8* nonnull align 8 %29, i8* nonnull align 8 %28, i64 16, i1 false) #15
  %30 = bitcast %"class.perfetto::TracedArray"* %14 to i8*
  call void @llvm.lifetime.start.p0i8(i64 16, i8* nonnull %30) #15
  call void @llvm.memset.p0i8.i64(i8* nonnull align 8 %30, i8 -86, i64 16, i1 false) #15
  call void @_ZNO8perfetto11TracedValue10WriteArrayEv(%"class.perfetto::TracedArray"* nonnull sret %14, %"class.perfetto::TracedValue"* nonnull %15) #15
  %31 = getelementptr inbounds %"class.memory_instrumentation::mojom::GlobalMemoryDump", %"class.memory_instrumentation::mojom::GlobalMemoryDump"* %0, i64 0, i32 1, i32 0, i32 0
  %32 = load %"class.mojo::StructPtr.127"*, %"class.mojo::StructPtr.127"** %31, align 8
  %33 = getelementptr inbounds %"class.memory_instrumentation::mojom::GlobalMemoryDump", %"class.memory_instrumentation::mojom::GlobalMemoryDump"* %0, i64 0, i32 1, i32 0, i32 1
  %34 = load %"class.mojo::StructPtr.127"*, %"class.mojo::StructPtr.127"** %33, align 8
  %35 = icmp eq %"class.mojo::StructPtr.127"* %32, %34
  br i1 %35, label %50, label %36

36:                                               ; preds = %2
  %37 = bitcast %"class.perfetto::TracedValue"* %13 to i8*
  %38 = bitcast %"class.perfetto::TracedValue"* %12 to i8*
  %39 = bitcast %"class.perfetto::TracedValue"* %11 to i8*
  br label %40

40:                                               ; preds = %47, %36
  %41 = phi %"class.mojo::StructPtr.127"* [ %32, %36 ], [ %48, %47 ]
  call void @llvm.lifetime.start.p0i8(i64 16, i8* nonnull %37) #15
  call void @_ZN8perfetto11TracedArray10AppendItemEv(%"class.perfetto::TracedValue"* nonnull sret %13, %"class.perfetto::TracedArray"* nonnull %14) #15
  %42 = getelementptr inbounds %"class.mojo::StructPtr.127", %"class.mojo::StructPtr.127"* %41, i64 0, i32 0, i32 0, i32 0, i32 0
  %43 = load %"class.memory_instrumentation::mojom::ProcessMemoryDump"*, %"class.memory_instrumentation::mojom::ProcessMemoryDump"** %42, align 8
  call void @llvm.lifetime.start.p0i8(i64 16, i8* nonnull %38) #15
  call void @llvm.memcpy.p0i8.p0i8.i64(i8* nonnull align 8 %38, i8* nonnull align 8 %37, i64 16, i1 false) #15
  %44 = icmp eq %"class.memory_instrumentation::mojom::ProcessMemoryDump"* %43, null
  br i1 %44, label %45, label %46

45:                                               ; preds = %40
  call void @_ZNO8perfetto11TracedValue12WritePointerEPKv(%"class.perfetto::TracedValue"* nonnull %12, i8* null) #15
  br label %47

46:                                               ; preds = %40
  call void @llvm.lifetime.start.p0i8(i64 16, i8* nonnull %39) #15
  call void @llvm.memcpy.p0i8.p0i8.i64(i8* nonnull align 8 %39, i8* nonnull align 8 %38, i64 16, i1 false) #15
  call void @_ZNK22memory_instrumentation5mojom17ProcessMemoryDump14WriteIntoTraceEN8perfetto11TracedValueE(%"class.memory_instrumentation::mojom::ProcessMemoryDump"* nonnull %43, %"class.perfetto::TracedValue"* nonnull %11) #15
  call void @llvm.lifetime.end.p0i8(i64 16, i8* nonnull %39) #15
  br label %47

47:                                               ; preds = %46, %45
  call void @llvm.lifetime.end.p0i8(i64 16, i8* nonnull %38) #15
  call void @llvm.lifetime.end.p0i8(i64 16, i8* nonnull %37) #15
  %48 = getelementptr inbounds %"class.mojo::StructPtr.127", %"class.mojo::StructPtr.127"* %41, i64 1
  %49 = icmp eq %"class.mojo::StructPtr.127"* %48, %34
  br i1 %49, label %50, label %40

50:                                               ; preds = %47, %2
  call void @llvm.lifetime.end.p0i8(i64 16, i8* nonnull %30) #15
  call void @llvm.lifetime.end.p0i8(i64 16, i8* nonnull %29) #15
  call void @_ZN8perfetto16TracedDictionary7AddItemENS_12StaticStringE(%"class.perfetto::TracedValue"* nonnull sret %21, %"class.perfetto::TracedDictionary"* nonnull %18, i8* getelementptr inbounds ([19 x i8], [19 x i8]* @.str.58, i64 0, i64 0)) #15
  %51 = getelementptr inbounds %"class.memory_instrumentation::mojom::GlobalMemoryDump", %"class.memory_instrumentation::mojom::GlobalMemoryDump"* %0, i64 0, i32 2
  %52 = bitcast %"class.perfetto::TracedValue"* %21 to i8*
  %53 = getelementptr inbounds %"class.memory_instrumentation::mojom::GlobalMemoryDump", %"class.memory_instrumentation::mojom::GlobalMemoryDump"* %0, i64 0, i32 2, i32 1
  %54 = load i32, i32* %53, align 4
  %55 = icmp eq i32 %54, 0
  %56 = bitcast %"class.perfetto::TracedValue"* %17 to i8*
  call void @llvm.lifetime.start.p0i8(i64 16, i8* nonnull %56) #15
  call void @llvm.memcpy.p0i8.p0i8.i64(i8* nonnull align 8 %56, i8* nonnull align 8 %52, i64 16, i1 false)
  %57 = icmp eq %"class.mojo::InlinedStructPtr"* %51, null
  %58 = or i1 %57, %55
  br i1 %58, label %59, label %60

59:                                               ; preds = %50
  call void @_ZNO8perfetto11TracedValue12WritePointerEPKv(%"class.perfetto::TracedValue"* nonnull %17, i8* null) #15
  br label %78

60:                                               ; preds = %50
  %61 = bitcast %"class.perfetto::TracedValue"* %10 to i8*
  call void @llvm.lifetime.start.p0i8(i64 16, i8* nonnull %61)
  call void @llvm.memcpy.p0i8.p0i8.i64(i8* nonnull align 8 %61, i8* nonnull align 8 %56, i64 16, i1 false)
  %62 = bitcast %"class.perfetto::TracedValue"* %7 to i8*
  call void @llvm.lifetime.start.p0i8(i64 16, i8* nonnull %62) #15
  %63 = bitcast %"class.perfetto::TracedValue"* %8 to i8*
  call void @llvm.lifetime.start.p0i8(i64 16, i8* nonnull %63) #15
  %64 = bitcast %"class.perfetto::TracedValue"* %9 to i8*
  call void @llvm.lifetime.start.p0i8(i64 16, i8* nonnull %64) #15
  %65 = bitcast %"class.perfetto::TracedDictionary"* %6 to i8*
  call void @llvm.lifetime.start.p0i8(i64 16, i8* nonnull %65) #15
  call void @llvm.memset.p0i8.i64(i8* nonnull align 8 %65, i8 -86, i64 16, i1 false) #15
  call void @_ZNO8perfetto11TracedValue15WriteDictionaryEv(%"class.perfetto::TracedDictionary"* nonnull sret %6, %"class.perfetto::TracedValue"* nonnull %10) #15
  call void @_ZN8perfetto16TracedDictionary7AddItemENS_12StaticStringE(%"class.perfetto::TracedValue"* nonnull sret %7, %"class.perfetto::TracedDictionary"* nonnull %6, i8* getelementptr inbounds ([27 x i8], [27 x i8]* @.str.53, i64 0, i64 0)) #15
  %66 = getelementptr inbounds %"class.mojo::InlinedStructPtr", %"class.mojo::InlinedStructPtr"* %51, i64 0, i32 0, i32 0
  %67 = bitcast %"class.perfetto::TracedValue"* %4 to i8*
  call void @llvm.lifetime.start.p0i8(i64 16, i8* nonnull %67) #15
  call void @llvm.memcpy.p0i8.p0i8.i64(i8* nonnull align 8 %67, i8* nonnull align 8 %62, i64 16, i1 false) #15
  %68 = load i32, i32* %66, align 4
  %69 = sext i32 %68 to i64
  call void @_ZNO8perfetto11TracedValue10WriteInt64El(%"class.perfetto::TracedValue"* nonnull %4, i64 %69) #15
  call void @llvm.lifetime.end.p0i8(i64 16, i8* nonnull %67) #15
  call void @_ZN8perfetto16TracedDictionary7AddItemENS_12StaticStringE(%"class.perfetto::TracedValue"* nonnull sret %8, %"class.perfetto::TracedDictionary"* nonnull %6, i8* getelementptr inbounds ([39 x i8], [39 x i8]* @.str.54, i64 0, i64 0)) #15
  %70 = getelementptr inbounds %"class.memory_instrumentation::mojom::GlobalMemoryDump", %"class.memory_instrumentation::mojom::GlobalMemoryDump"* %0, i64 0, i32 2, i32 0, i32 1
  %71 = bitcast %"class.perfetto::TracedValue"* %3 to i8*
  call void @llvm.lifetime.start.p0i8(i64 16, i8* nonnull %71) #15
  call void @llvm.memcpy.p0i8.p0i8.i64(i8* nonnull align 8 %71, i8* nonnull align 8 %63, i64 16, i1 false) #15
  %72 = load i32, i32* %70, align 4
  %73 = sext i32 %72 to i64
  call void @_ZNO8perfetto11TracedValue10WriteInt64El(%"class.perfetto::TracedValue"* nonnull %3, i64 %73) #15
  call void @llvm.lifetime.end.p0i8(i64 16, i8* nonnull %71) #15
  call void @_ZN8perfetto16TracedDictionary7AddItemENS_12StaticStringE(%"class.perfetto::TracedValue"* nonnull sret %9, %"class.perfetto::TracedDictionary"* nonnull %6, i8* getelementptr inbounds ([39 x i8], [39 x i8]* @.str.55, i64 0, i64 0)) #15
  %74 = getelementptr inbounds %"class.memory_instrumentation::mojom::GlobalMemoryDump", %"class.memory_instrumentation::mojom::GlobalMemoryDump"* %0, i64 0, i32 2, i32 0, i32 2
  %75 = bitcast %"class.perfetto::TracedValue"* %5 to i8*
  call void @llvm.lifetime.start.p0i8(i64 16, i8* nonnull %75) #15
  call void @llvm.memcpy.p0i8.p0i8.i64(i8* nonnull align 8 %75, i8* nonnull align 8 %64, i64 16, i1 false) #15
  %76 = load i32, i32* %74, align 4
  %77 = sext i32 %76 to i64
  call void @_ZNO8perfetto11TracedValue10WriteInt64El(%"class.perfetto::TracedValue"* nonnull %5, i64 %77) #15
  call void @llvm.lifetime.end.p0i8(i64 16, i8* nonnull %75) #15
  call void @llvm.lifetime.end.p0i8(i64 16, i8* nonnull %65) #15
  call void @llvm.lifetime.end.p0i8(i64 16, i8* nonnull %62) #15
  call void @llvm.lifetime.end.p0i8(i64 16, i8* nonnull %63) #15
  call void @llvm.lifetime.end.p0i8(i64 16, i8* nonnull %64) #15
  call void @llvm.lifetime.end.p0i8(i64 16, i8* nonnull %61)
  br label %78

78:                                               ; preds = %60, %59
  call void @llvm.lifetime.end.p0i8(i64 16, i8* nonnull %56) #15
  call void @llvm.lifetime.end.p0i8(i64 16, i8* nonnull %22) #15
  ret void
}

; Function Attrs: nounwind ssp uwtable
define hidden zeroext i1 @_ZN22memory_instrumentation5mojom16GlobalMemoryDump8ValidateEPKvPN4mojo8internal17ValidationContextE(i8*, %"class.mojo::internal::ValidationContext"*) local_unnamed_addr #2 align 2 {
  %3 = tail call zeroext i1 @_ZN22memory_instrumentation5mojom8internal21GlobalMemoryDump_Data8ValidateEPKvPN4mojo8internal17ValidationContextE(i8* %0, %"class.mojo::internal::ValidationContext"* %1) #15
  ret i1 %3
}

declare zeroext i1 @_ZN22memory_instrumentation5mojom8internal21GlobalMemoryDump_Data8ValidateEPKvPN4mojo8internal17ValidationContextE(i8*, %"class.mojo::internal::ValidationContext"*) local_unnamed_addr #4

; Function Attrs: nounwind ssp uwtable
define hidden void @_ZN22memory_instrumentation5mojom17HeapProfileResultC2Ev(%"class.memory_instrumentation::mojom::HeapProfileResult"* nocapture) unnamed_addr #2 align 2 {
  %2 = getelementptr inbounds %"class.memory_instrumentation::mojom::HeapProfileResult", %"class.memory_instrumentation::mojom::HeapProfileResult"* %0, i64 0, i32 0
  store i32 0, i32* %2, align 8
  %3 = getelementptr inbounds %"class.memory_instrumentation::mojom::HeapProfileResult", %"class.memory_instrumentation::mojom::HeapProfileResult"* %0, i64 0, i32 1
  %4 = bitcast %"class.std::__1::basic_string"* %3 to i8*
  tail call void @llvm.memset.p0i8.i64(i8* align 8 %4, i8 0, i64 24, i1 false) #15
  ret void
}

; Function Attrs: nounwind ssp uwtable
define hidden void @_ZN22memory_instrumentation5mojom17HeapProfileResultC2EiRKNSt3__112basic_stringIcNS2_11char_traitsIcEENS2_9allocatorIcEEEE(%"class.memory_instrumentation::mojom::HeapProfileResult"*, i32, %"class.std::__1::basic_string"* nocapture readonly dereferenceable(24)) unnamed_addr #2 align 2 {
  %4 = getelementptr inbounds %"class.memory_instrumentation::mojom::HeapProfileResult", %"class.memory_instrumentation::mojom::HeapProfileResult"* %0, i64 0, i32 0
  store i32 %1, i32* %4, align 8
  %5 = getelementptr inbounds %"class.memory_instrumentation::mojom::HeapProfileResult", %"class.memory_instrumentation::mojom::HeapProfileResult"* %0, i64 0, i32 1
  %6 = bitcast %"class.std::__1::basic_string"* %2 to %"struct.std::__1::basic_string<char, std::__1::char_traits<char>, std::__1::allocator<char> >::__short"*
  %7 = getelementptr inbounds %"struct.std::__1::basic_string<char, std::__1::char_traits<char>, std::__1::allocator<char> >::__short", %"struct.std::__1::basic_string<char, std::__1::char_traits<char>, std::__1::allocator<char> >::__short"* %6, i64 0, i32 1, i32 0
  %8 = load i8, i8* %7, align 1
  %9 = icmp slt i8 %8, 0
  br i1 %9, label %13, label %10

10:                                               ; preds = %3
  %11 = bitcast %"class.std::__1::basic_string"* %5 to i8*
  %12 = bitcast %"class.std::__1::basic_string"* %2 to i8*
  tail call void @llvm.memcpy.p0i8.p0i8.i64(i8* align 8 %11, i8* align 8 %12, i64 24, i1 false) #15
  br label %18

13:                                               ; preds = %3
  %14 = getelementptr inbounds %"class.std::__1::basic_string", %"class.std::__1::basic_string"* %2, i64 0, i32 0, i32 0, i32 0, i32 0, i32 0, i32 0
  %15 = load i8*, i8** %14, align 8
  %16 = getelementptr inbounds %"class.std::__1::basic_string", %"class.std::__1::basic_string"* %2, i64 0, i32 0, i32 0, i32 0, i32 0, i32 0, i32 1
  %17 = load i64, i64* %16, align 8
  tail call void @_ZNSt3__112basic_stringIcNS_11char_traitsIcEENS_9allocatorIcEEE25__init_copy_ctor_externalEPKcm(%"class.std::__1::basic_string"* %5, i8* %15, i64 %17) #15
  br label %18

18:                                               ; preds = %10, %13
  ret void
}

; Function Attrs: nounwind ssp uwtable
define hidden void @_ZN22memory_instrumentation5mojom17HeapProfileResultD2Ev(%"class.memory_instrumentation::mojom::HeapProfileResult"* nocapture readonly) unnamed_addr #2 align 2 {
  %2 = getelementptr inbounds %"class.memory_instrumentation::mojom::HeapProfileResult", %"class.memory_instrumentation::mojom::HeapProfileResult"* %0, i64 0, i32 1
  %3 = bitcast %"class.std::__1::basic_string"* %2 to %"struct.std::__1::basic_string<char, std::__1::char_traits<char>, std::__1::allocator<char> >::__short"*
  %4 = getelementptr inbounds %"struct.std::__1::basic_string<char, std::__1::char_traits<char>, std::__1::allocator<char> >::__short", %"struct.std::__1::basic_string<char, std::__1::char_traits<char>, std::__1::allocator<char> >::__short"* %3, i64 0, i32 1, i32 0
  %5 = load i8, i8* %4, align 1
  %6 = icmp slt i8 %5, 0
  br i1 %6, label %7, label %10

7:                                                ; preds = %1
  %8 = getelementptr inbounds %"class.std::__1::basic_string", %"class.std::__1::basic_string"* %2, i64 0, i32 0, i32 0, i32 0, i32 0, i32 0, i32 0
  %9 = load i8*, i8** %8, align 8
  tail call void @_ZdlPv(i8* %9) #16
  br label %10

10:                                               ; preds = %1, %7
  ret void
}

; Function Attrs: nounwind ssp uwtable
define hidden void @_ZNK22memory_instrumentation5mojom17HeapProfileResult14WriteIntoTraceEN8perfetto11TracedValueE(%"class.memory_instrumentation::mojom::HeapProfileResult"*, %"class.perfetto::TracedValue"*) local_unnamed_addr #2 align 2 {
  %3 = alloca %"class.perfetto::TracedValue", align 8
  %4 = alloca %"class.perfetto::TracedValue", align 8
  %5 = alloca %"class.perfetto::TracedDictionary", align 8
  %6 = alloca %"class.perfetto::TracedValue", align 8
  %7 = alloca %"class.perfetto::TracedValue", align 8
  %8 = bitcast %"class.perfetto::TracedDictionary"* %5 to i8*
  call void @llvm.lifetime.start.p0i8(i64 16, i8* nonnull %8) #15
  %9 = bitcast %"class.perfetto::TracedDictionary"* %5 to i8*
  call void @llvm.memset.p0i8.i64(i8* nonnull align 8 %9, i8 -86, i64 16, i1 false)
  call void @_ZNO8perfetto11TracedValue15WriteDictionaryEv(%"class.perfetto::TracedDictionary"* nonnull sret %5, %"class.perfetto::TracedValue"* %1) #15
  call void @_ZN8perfetto16TracedDictionary7AddItemENS_12StaticStringE(%"class.perfetto::TracedValue"* nonnull sret %6, %"class.perfetto::TracedDictionary"* nonnull %5, i8* getelementptr inbounds ([4 x i8], [4 x i8]* @.str.51, i64 0, i64 0)) #15
  %10 = getelementptr inbounds %"class.memory_instrumentation::mojom::HeapProfileResult", %"class.memory_instrumentation::mojom::HeapProfileResult"* %0, i64 0, i32 0
  %11 = bitcast %"class.perfetto::TracedValue"* %6 to i8*
  %12 = bitcast %"class.perfetto::TracedValue"* %3 to i8*
  call void @llvm.lifetime.start.p0i8(i64 16, i8* nonnull %12) #15
  call void @llvm.memcpy.p0i8.p0i8.i64(i8* nonnull align 8 %12, i8* nonnull align 8 %11, i64 16, i1 false) #15
  %13 = load i32, i32* %10, align 4
  %14 = sext i32 %13 to i64
  call void @_ZNO8perfetto11TracedValue10WriteInt64El(%"class.perfetto::TracedValue"* nonnull %3, i64 %14) #15
  call void @llvm.lifetime.end.p0i8(i64 16, i8* nonnull %12) #15
  call void @_ZN8perfetto16TracedDictionary7AddItemENS_12StaticStringE(%"class.perfetto::TracedValue"* nonnull sret %7, %"class.perfetto::TracedDictionary"* nonnull %5, i8* getelementptr inbounds ([5 x i8], [5 x i8]* @.str.59, i64 0, i64 0)) #15
  %15 = getelementptr inbounds %"class.memory_instrumentation::mojom::HeapProfileResult", %"class.memory_instrumentation::mojom::HeapProfileResult"* %0, i64 0, i32 1
  %16 = bitcast %"class.perfetto::TracedValue"* %7 to i8*
  %17 = bitcast %"class.perfetto::TracedValue"* %4 to i8*
  call void @llvm.lifetime.start.p0i8(i64 16, i8* nonnull %17) #15
  call void @llvm.memcpy.p0i8.p0i8.i64(i8* nonnull align 8 %17, i8* nonnull align 8 %16, i64 16, i1 false) #15
  call void @_ZNO8perfetto11TracedValue11WriteStringERKNSt3__112basic_stringIcNS1_11char_traitsIcEENS1_9allocatorIcEEEE(%"class.perfetto::TracedValue"* nonnull %4, %"class.std::__1::basic_string"* dereferenceable(24) %15) #15
  call void @llvm.lifetime.end.p0i8(i64 16, i8* nonnull %17) #15
  call void @llvm.lifetime.end.p0i8(i64 16, i8* nonnull %8) #15
  ret void
}

; Function Attrs: nounwind ssp uwtable
define hidden zeroext i1 @_ZN22memory_instrumentation5mojom17HeapProfileResult8ValidateEPKvPN4mojo8internal17ValidationContextE(i8*, %"class.mojo::internal::ValidationContext"*) local_unnamed_addr #2 align 2 {
  %3 = tail call zeroext i1 @_ZN22memory_instrumentation5mojom8internal22HeapProfileResult_Data8ValidateEPKvPN4mojo8internal17ValidationContextE(i8* %0, %"class.mojo::internal::ValidationContext"* %1) #15
  ret i1 %3
}

declare zeroext i1 @_ZN22memory_instrumentation5mojom8internal22HeapProfileResult_Data8ValidateEPKvPN4mojo8internal17ValidationContextE(i8*, %"class.mojo::internal::ValidationContext"*) local_unnamed_addr #4

; Function Attrs: nofree norecurse nounwind ssp uwtable writeonly
define hidden void @_ZN22memory_instrumentation5mojom26RawAllocatorDumpEntryValueC2Ev(%"class.memory_instrumentation::mojom::RawAllocatorDumpEntryValue"* nocapture) unnamed_addr #0 align 2 {
  %2 = getelementptr inbounds %"class.memory_instrumentation::mojom::RawAllocatorDumpEntryValue", %"class.memory_instrumentation::mojom::RawAllocatorDumpEntryValue"* %0, i64 0, i32 0
  store i32 0, i32* %2, align 8
  %3 = getelementptr inbounds %"class.memory_instrumentation::mojom::RawAllocatorDumpEntryValue", %"class.memory_instrumentation::mojom::RawAllocatorDumpEntryValue"* %0, i64 0, i32 1, i32 0
  store i64 0, i64* %3, align 8
  ret void
}

; Function Attrs: nounwind ssp uwtable
define hidden void @_ZN22memory_instrumentation5mojom26RawAllocatorDumpEntryValueD2Ev(%"class.memory_instrumentation::mojom::RawAllocatorDumpEntryValue"* nocapture readonly) unnamed_addr #2 align 2 {
  %2 = getelementptr inbounds %"class.memory_instrumentation::mojom::RawAllocatorDumpEntryValue", %"class.memory_instrumentation::mojom::RawAllocatorDumpEntryValue"* %0, i64 0, i32 0
  %3 = load i32, i32* %2, align 8
  %4 = icmp eq i32 %3, 1
  br i1 %4, label %5, label %20

5:                                                ; preds = %1
  %6 = getelementptr inbounds %"class.memory_instrumentation::mojom::RawAllocatorDumpEntryValue", %"class.memory_instrumentation::mojom::RawAllocatorDumpEntryValue"* %0, i64 0, i32 1
  %7 = bitcast %"union.memory_instrumentation::mojom::RawAllocatorDumpEntryValue::Union_"* %6 to %"class.std::__1::basic_string"**
  %8 = load %"class.std::__1::basic_string"*, %"class.std::__1::basic_string"** %7, align 8
  %9 = icmp eq %"class.std::__1::basic_string"* %8, null
  br i1 %9, label %20, label %10

10:                                               ; preds = %5
  %11 = bitcast %"class.std::__1::basic_string"* %8 to %"struct.std::__1::basic_string<char, std::__1::char_traits<char>, std::__1::allocator<char> >::__short"*
  %12 = getelementptr inbounds %"struct.std::__1::basic_string<char, std::__1::char_traits<char>, std::__1::allocator<char> >::__short", %"struct.std::__1::basic_string<char, std::__1::char_traits<char>, std::__1::allocator<char> >::__short"* %11, i64 0, i32 1, i32 0
  %13 = load i8, i8* %12, align 1
  %14 = icmp slt i8 %13, 0
  br i1 %14, label %15, label %18

15:                                               ; preds = %10
  %16 = getelementptr inbounds %"class.std::__1::basic_string", %"class.std::__1::basic_string"* %8, i64 0, i32 0, i32 0, i32 0, i32 0, i32 0, i32 0
  %17 = load i8*, i8** %16, align 8
  tail call void @_ZdlPv(i8* %17) #16
  br label %18

18:                                               ; preds = %15, %10
  %19 = bitcast %"class.std::__1::basic_string"* %8 to i8*
  tail call void @_ZdlPv(i8* %19) #16
  br label %20

20:                                               ; preds = %1, %5, %18
  ret void
}

; Function Attrs: nounwind ssp uwtable
define hidden void @_ZN22memory_instrumentation5mojom26RawAllocatorDumpEntryValue13DestroyActiveEv(%"class.memory_instrumentation::mojom::RawAllocatorDumpEntryValue"* nocapture readonly) local_unnamed_addr #2 align 2 {
  %2 = getelementptr inbounds %"class.memory_instrumentation::mojom::RawAllocatorDumpEntryValue", %"class.memory_instrumentation::mojom::RawAllocatorDumpEntryValue"* %0, i64 0, i32 0
  %3 = load i32, i32* %2, align 8
  %4 = icmp eq i32 %3, 1
  br i1 %4, label %5, label %20

5:                                                ; preds = %1
  %6 = getelementptr inbounds %"class.memory_instrumentation::mojom::RawAllocatorDumpEntryValue", %"class.memory_instrumentation::mojom::RawAllocatorDumpEntryValue"* %0, i64 0, i32 1
  %7 = bitcast %"union.memory_instrumentation::mojom::RawAllocatorDumpEntryValue::Union_"* %6 to %"class.std::__1::basic_string"**
  %8 = load %"class.std::__1::basic_string"*, %"class.std::__1::basic_string"** %7, align 8
  %9 = icmp eq %"class.std::__1::basic_string"* %8, null
  br i1 %9, label %20, label %10

10:                                               ; preds = %5
  %11 = bitcast %"class.std::__1::basic_string"* %8 to %"struct.std::__1::basic_string<char, std::__1::char_traits<char>, std::__1::allocator<char> >::__short"*
  %12 = getelementptr inbounds %"struct.std::__1::basic_string<char, std::__1::char_traits<char>, std::__1::allocator<char> >::__short", %"struct.std::__1::basic_string<char, std::__1::char_traits<char>, std::__1::allocator<char> >::__short"* %11, i64 0, i32 1, i32 0
  %13 = load i8, i8* %12, align 1
  %14 = icmp slt i8 %13, 0
  br i1 %14, label %15, label %18

15:                                               ; preds = %10
  %16 = getelementptr inbounds %"class.std::__1::basic_string", %"class.std::__1::basic_string"* %8, i64 0, i32 0, i32 0, i32 0, i32 0, i32 0, i32 0
  %17 = load i8*, i8** %16, align 8
  tail call void @_ZdlPv(i8* %17) #16
  br label %18

18:                                               ; preds = %10, %15
  %19 = bitcast %"class.std::__1::basic_string"* %8 to i8*
  tail call void @_ZdlPv(i8* %19) #16
  br label %20

20:                                               ; preds = %5, %18, %1
  ret void
}

; Function Attrs: nounwind ssp uwtable
define hidden void @_ZN22memory_instrumentation5mojom26RawAllocatorDumpEntryValue16set_value_uint64Em(%"class.memory_instrumentation::mojom::RawAllocatorDumpEntryValue"* nocapture, i64) local_unnamed_addr #2 align 2 {
  %3 = getelementptr inbounds %"class.memory_instrumentation::mojom::RawAllocatorDumpEntryValue", %"class.memory_instrumentation::mojom::RawAllocatorDumpEntryValue"* %0, i64 0, i32 0
  %4 = load i32, i32* %3, align 8
  switch i32 %4, label %20 [
    i32 0, label %21
    i32 1, label %5
  ]

5:                                                ; preds = %2
  %6 = getelementptr inbounds %"class.memory_instrumentation::mojom::RawAllocatorDumpEntryValue", %"class.memory_instrumentation::mojom::RawAllocatorDumpEntryValue"* %0, i64 0, i32 1
  %7 = bitcast %"union.memory_instrumentation::mojom::RawAllocatorDumpEntryValue::Union_"* %6 to %"class.std::__1::basic_string"**
  %8 = load %"class.std::__1::basic_string"*, %"class.std::__1::basic_string"** %7, align 8
  %9 = icmp eq %"class.std::__1::basic_string"* %8, null
  br i1 %9, label %20, label %10

10:                                               ; preds = %5
  %11 = bitcast %"class.std::__1::basic_string"* %8 to %"struct.std::__1::basic_string<char, std::__1::char_traits<char>, std::__1::allocator<char> >::__short"*
  %12 = getelementptr inbounds %"struct.std::__1::basic_string<char, std::__1::char_traits<char>, std::__1::allocator<char> >::__short", %"struct.std::__1::basic_string<char, std::__1::char_traits<char>, std::__1::allocator<char> >::__short"* %11, i64 0, i32 1, i32 0
  %13 = load i8, i8* %12, align 1
  %14 = icmp slt i8 %13, 0
  br i1 %14, label %15, label %18

15:                                               ; preds = %10
  %16 = getelementptr inbounds %"class.std::__1::basic_string", %"class.std::__1::basic_string"* %8, i64 0, i32 0, i32 0, i32 0, i32 0, i32 0, i32 0
  %17 = load i8*, i8** %16, align 8
  tail call void @_ZdlPv(i8* %17) #16
  br label %18

18:                                               ; preds = %15, %10
  %19 = bitcast %"class.std::__1::basic_string"* %8 to i8*
  tail call void @_ZdlPv(i8* %19) #16
  br label %20

20:                                               ; preds = %2, %5, %18
  store i32 0, i32* %3, align 8
  br label %21

21:                                               ; preds = %2, %20
  %22 = getelementptr inbounds %"class.memory_instrumentation::mojom::RawAllocatorDumpEntryValue", %"class.memory_instrumentation::mojom::RawAllocatorDumpEntryValue"* %0, i64 0, i32 1, i32 0
  store i64 %1, i64* %22, align 8
  ret void
}

; Function Attrs: nounwind ssp uwtable
define hidden void @_ZN22memory_instrumentation5mojom26RawAllocatorDumpEntryValue16set_value_stringERKNSt3__112basic_stringIcNS2_11char_traitsIcEENS2_9allocatorIcEEEE(%"class.memory_instrumentation::mojom::RawAllocatorDumpEntryValue"* nocapture, %"class.std::__1::basic_string"* dereferenceable(24)) local_unnamed_addr #2 align 2 {
  %3 = getelementptr inbounds %"class.memory_instrumentation::mojom::RawAllocatorDumpEntryValue", %"class.memory_instrumentation::mojom::RawAllocatorDumpEntryValue"* %0, i64 0, i32 0
  %4 = load i32, i32* %3, align 8
  %5 = icmp eq i32 %4, 1
  br i1 %5, label %6, label %40

6:                                                ; preds = %2
  %7 = getelementptr inbounds %"class.memory_instrumentation::mojom::RawAllocatorDumpEntryValue", %"class.memory_instrumentation::mojom::RawAllocatorDumpEntryValue"* %0, i64 0, i32 1
  %8 = bitcast %"union.memory_instrumentation::mojom::RawAllocatorDumpEntryValue::Union_"* %7 to %"class.std::__1::basic_string"**
  %9 = load %"class.std::__1::basic_string"*, %"class.std::__1::basic_string"** %8, align 8
  %10 = icmp eq %"class.std::__1::basic_string"* %9, %1
  br i1 %10, label %57, label %11

11:                                               ; preds = %6
  %12 = bitcast %"class.std::__1::basic_string"* %9 to %"struct.std::__1::basic_string<char, std::__1::char_traits<char>, std::__1::allocator<char> >::__short"*
  %13 = getelementptr inbounds %"struct.std::__1::basic_string<char, std::__1::char_traits<char>, std::__1::allocator<char> >::__short", %"struct.std::__1::basic_string<char, std::__1::char_traits<char>, std::__1::allocator<char> >::__short"* %12, i64 0, i32 1, i32 0
  %14 = load i8, i8* %13, align 1
  %15 = icmp slt i8 %14, 0
  %16 = bitcast %"class.std::__1::basic_string"* %1 to %"struct.std::__1::basic_string<char, std::__1::char_traits<char>, std::__1::allocator<char> >::__short"*
  %17 = getelementptr inbounds %"struct.std::__1::basic_string<char, std::__1::char_traits<char>, std::__1::allocator<char> >::__short", %"struct.std::__1::basic_string<char, std::__1::char_traits<char>, std::__1::allocator<char> >::__short"* %16, i64 0, i32 1, i32 0
  %18 = load i8, i8* %17, align 1
  %19 = icmp slt i8 %18, 0
  br i1 %15, label %30, label %20

20:                                               ; preds = %11
  br i1 %19, label %24, label %21

21:                                               ; preds = %20
  %22 = bitcast %"class.std::__1::basic_string"* %9 to i8*
  %23 = bitcast %"class.std::__1::basic_string"* %1 to i8*
  tail call void @llvm.memcpy.p0i8.p0i8.i64(i8* align 8 %22, i8* align 8 %23, i64 24, i1 false) #15
  br label %57

24:                                               ; preds = %20
  %25 = getelementptr inbounds %"class.std::__1::basic_string", %"class.std::__1::basic_string"* %1, i64 0, i32 0, i32 0, i32 0, i32 0, i32 0, i32 0
  %26 = load i8*, i8** %25, align 8
  %27 = getelementptr inbounds %"class.std::__1::basic_string", %"class.std::__1::basic_string"* %1, i64 0, i32 0, i32 0, i32 0, i32 0, i32 0, i32 1
  %28 = load i64, i64* %27, align 8
  %29 = tail call dereferenceable(24) %"class.std::__1::basic_string"* @_ZNSt3__112basic_stringIcNS_11char_traitsIcEENS_9allocatorIcEEE17__assign_no_aliasILb1EEERS5_PKcm(%"class.std::__1::basic_string"* %9, i8* %26, i64 %28) #15
  br label %57

30:                                               ; preds = %11
  %31 = getelementptr inbounds %"class.std::__1::basic_string", %"class.std::__1::basic_string"* %1, i64 0, i32 0, i32 0, i32 0, i32 0, i32 0, i32 0
  %32 = load i8*, i8** %31, align 8
  %33 = getelementptr inbounds %"class.std::__1::basic_string", %"class.std::__1::basic_string"* %1, i64 0, i32 0, i32 0, i32 0, i32 0, i32 0, i32 1
  %34 = load i64, i64* %33, align 8
  %35 = bitcast %"class.std::__1::basic_string"* %1 to i8*
  %36 = zext i8 %18 to i64
  %37 = select i1 %19, i8* %32, i8* %35
  %38 = select i1 %19, i64 %34, i64 %36
  %39 = tail call dereferenceable(24) %"class.std::__1::basic_string"* @_ZNSt3__112basic_stringIcNS_11char_traitsIcEENS_9allocatorIcEEE17__assign_no_aliasILb0EEERS5_PKcm(%"class.std::__1::basic_string"* %9, i8* %37, i64 %38) #15
  br label %57

40:                                               ; preds = %2
  store i32 1, i32* %3, align 8
  %41 = tail call i8* @_Znwm(i64 24) #16
  %42 = bitcast %"class.std::__1::basic_string"* %1 to %"struct.std::__1::basic_string<char, std::__1::char_traits<char>, std::__1::allocator<char> >::__short"*
  %43 = getelementptr inbounds %"struct.std::__1::basic_string<char, std::__1::char_traits<char>, std::__1::allocator<char> >::__short", %"struct.std::__1::basic_string<char, std::__1::char_traits<char>, std::__1::allocator<char> >::__short"* %42, i64 0, i32 1, i32 0
  %44 = load i8, i8* %43, align 1
  %45 = icmp slt i8 %44, 0
  br i1 %45, label %48, label %46

46:                                               ; preds = %40
  %47 = bitcast %"class.std::__1::basic_string"* %1 to i8*
  tail call void @llvm.memcpy.p0i8.p0i8.i64(i8* nonnull align 8 %41, i8* align 8 %47, i64 24, i1 false) #15
  br label %54

48:                                               ; preds = %40
  %49 = bitcast i8* %41 to %"class.std::__1::basic_string"*
  %50 = getelementptr inbounds %"class.std::__1::basic_string", %"class.std::__1::basic_string"* %1, i64 0, i32 0, i32 0, i32 0, i32 0, i32 0, i32 0
  %51 = load i8*, i8** %50, align 8
  %52 = getelementptr inbounds %"class.std::__1::basic_string", %"class.std::__1::basic_string"* %1, i64 0, i32 0, i32 0, i32 0, i32 0, i32 0, i32 1
  %53 = load i64, i64* %52, align 8
  tail call void @_ZNSt3__112basic_stringIcNS_11char_traitsIcEENS_9allocatorIcEEE25__init_copy_ctor_externalEPKcm(%"class.std::__1::basic_string"* nonnull %49, i8* %51, i64 %53) #15
  br label %54

54:                                               ; preds = %46, %48
  %55 = getelementptr inbounds %"class.memory_instrumentation::mojom::RawAllocatorDumpEntryValue", %"class.memory_instrumentation::mojom::RawAllocatorDumpEntryValue"* %0, i64 0, i32 1
  %56 = bitcast %"union.memory_instrumentation::mojom::RawAllocatorDumpEntryValue::Union_"* %55 to i8**
  store i8* %41, i8** %56, align 8
  br label %57

57:                                               ; preds = %30, %24, %21, %6, %54
  ret void
}

; Function Attrs: nobuiltin nofree
declare noalias nonnull i8* @_Znwm(i64) local_unnamed_addr #6

; Function Attrs: nobuiltin nounwind
declare void @_ZdlPv(i8*) local_unnamed_addr #7

; Function Attrs: nounwind readonly ssp uwtable
define hidden i64 @_ZNK22memory_instrumentation5mojom26RawAllocatorDumpEntryValue4HashEm(%"class.memory_instrumentation::mojom::RawAllocatorDumpEntryValue"* nocapture readonly, i64) local_unnamed_addr #8 align 2 {
  %3 = getelementptr inbounds %"class.memory_instrumentation::mojom::RawAllocatorDumpEntryValue", %"class.memory_instrumentation::mojom::RawAllocatorDumpEntryValue"* %0, i64 0, i32 0
  %4 = load i32, i32* %3, align 8
  %5 = zext i32 %4 to i64
  %6 = shl i64 %1, 6
  %7 = lshr i64 %1, 2
  %8 = add i64 %7, %6
  %9 = add i64 %8, %5
  %10 = xor i64 %9, %1
  switch i32 %4, label %40 [
    i32 0, label %11
    i32 1, label %19
  ]

11:                                               ; preds = %2
  %12 = getelementptr inbounds %"class.memory_instrumentation::mojom::RawAllocatorDumpEntryValue", %"class.memory_instrumentation::mojom::RawAllocatorDumpEntryValue"* %0, i64 0, i32 1, i32 0
  %13 = load i64, i64* %12, align 8
  %14 = shl i64 %10, 6
  %15 = lshr i64 %10, 2
  %16 = add i64 %15, %14
  %17 = add i64 %16, %13
  %18 = xor i64 %17, %10
  br label %40

19:                                               ; preds = %2
  %20 = getelementptr inbounds %"class.memory_instrumentation::mojom::RawAllocatorDumpEntryValue", %"class.memory_instrumentation::mojom::RawAllocatorDumpEntryValue"* %0, i64 0, i32 1, i32 0
  %21 = load i64, i64* %20, align 8
  %22 = lshr i64 %21, 32
  %23 = shl i64 %21, 3
  %24 = and i64 %23, 4294967288
  %25 = add nuw nsw i64 %24, 8
  %26 = xor i64 %25, %22
  %27 = mul i64 %26, -7070675565921424023
  %28 = lshr i64 %27, 47
  %29 = xor i64 %27, %22
  %30 = xor i64 %29, %28
  %31 = mul i64 %30, -7070675565921424023
  %32 = lshr i64 %31, 47
  %33 = xor i64 %32, %31
  %34 = mul i64 %33, -7070675565921424023
  %35 = shl i64 %10, 6
  %36 = lshr i64 %10, 2
  %37 = add i64 %36, %35
  %38 = add i64 %37, %34
  %39 = xor i64 %38, %10
  br label %40

40:                                               ; preds = %2, %19, %11
  %41 = phi i64 [ %39, %19 ], [ %18, %11 ], [ %10, %2 ]
  ret i64 %41
}

; Function Attrs: nounwind ssp uwtable
define hidden zeroext i1 @_ZN22memory_instrumentation5mojom26RawAllocatorDumpEntryValue8ValidateEPKvPN4mojo8internal17ValidationContextE(i8*, %"class.mojo::internal::ValidationContext"*) local_unnamed_addr #2 align 2 {
  %3 = tail call zeroext i1 @_ZN22memory_instrumentation5mojom8internal31RawAllocatorDumpEntryValue_Data8ValidateEPKvPN4mojo8internal17ValidationContextEb(i8* %0, %"class.mojo::internal::ValidationContext"* %1, i1 zeroext false) #15
  ret i1 %3
}

declare zeroext i1 @_ZN22memory_instrumentation5mojom8internal31RawAllocatorDumpEntryValue_Data8ValidateEPKvPN4mojo8internal17ValidationContextEb(i8*, %"class.mojo::internal::ValidationContext"*, i1 zeroext) local_unnamed_addr #4

; Function Attrs: nofree norecurse nounwind ssp uwtable writeonly
define hidden void @_ZN22memory_instrumentation5mojom18ClientProcessProxyC2EPN4mojo28MessageReceiverWithResponderE(%"class.memory_instrumentation::mojom::ClientProcessProxy"* nocapture, %"class.mojo::MessageReceiverWithResponder"*) unnamed_addr #0 align 2 {
  %3 = getelementptr inbounds %"class.memory_instrumentation::mojom::ClientProcessProxy", %"class.memory_instrumentation::mojom::ClientProcessProxy"* %0, i64 0, i32 0, i32 0
  store i32 (...)** bitcast (i8** getelementptr inbounds ({ [6 x i8*] }, { [6 x i8*] }* @_ZTVN22memory_instrumentation5mojom18ClientProcessProxyE, i64 0, inrange i32 0, i64 2) to i32 (...)**), i32 (...)*** %3, align 8
  %4 = getelementptr inbounds %"class.memory_instrumentation::mojom::ClientProcessProxy", %"class.memory_instrumentation::mojom::ClientProcessProxy"* %0, i64 0, i32 1
  store %"class.mojo::MessageReceiverWithResponder"* %1, %"class.mojo::MessageReceiverWithResponder"** %4, align 8
  ret void
}

; Function Attrs: nounwind ssp uwtable
define hidden void @_ZN22memory_instrumentation5mojom18ClientProcessProxy23RequestChromeMemoryDumpERKN4base11trace_event21MemoryDumpRequestArgsENS2_12OnceCallbackIFvbmNSt3__110unique_ptrINS3_17ProcessMemoryDumpENS8_14default_deleteISA_EEEEEEE(%"class.memory_instrumentation::mojom::ClientProcessProxy"* nocapture readonly, %"struct.base::trace_event::MemoryDumpRequestArgs"* nocapture readonly dereferenceable(24), %"class.base::OnceCallback"* nocapture) unnamed_addr #2 align 2 {
  %4 = alloca %"class.mojo::Message", align 8
  %5 = alloca %"class.base::OnceCallback", align 8
  %6 = bitcast %"class.mojo::Message"* %4 to i8*
  call void @llvm.lifetime.start.p0i8(i64 120, i8* nonnull %6) #15
  call void @llvm.memset.p0i8.i64(i8* nonnull align 8 %6, i8 -86, i64 120, i1 false)
  call void @_ZN4mojo7MessageC1EjjmmPNSt3__16vectorINS_16ScopedHandleBaseINS_6HandleEEENS1_9allocatorIS5_EEEE(%"class.mojo::Message"* nonnull %4, i32 440579497, i32 1, i64 0, i64 0, %"class.std::__1::vector"* null) #15
  %7 = getelementptr inbounds %"class.mojo::Message", %"class.mojo::Message"* %4, i64 0, i32 1
  %8 = call i64 @_ZN4mojo8internal6Buffer8AllocateEm(%"class.mojo::internal::Buffer"* %7, i64 16) #15
  %9 = getelementptr inbounds %"class.mojo::Message", %"class.mojo::Message"* %4, i64 0, i32 1, i32 2
  %10 = load i8*, i8** %9, align 8
  %11 = getelementptr inbounds i8, i8* %10, i64 %8
  %12 = bitcast i8* %11 to %"class.memory_instrumentation::mojom::internal::ClientProcess_RequestChromeMemoryDump_Params_Data"*
  call void @_ZN22memory_instrumentation5mojom8internal49ClientProcess_RequestChromeMemoryDump_Params_DataC1Ev(%"class.memory_instrumentation::mojom::internal::ClientProcess_RequestChromeMemoryDump_Params_Data"* %12) #15
  %13 = call i64 @_ZN4mojo8internal6Buffer8AllocateEm(%"class.mojo::internal::Buffer"* %7, i64 32) #15
  %14 = load i8*, i8** %9, align 8
  %15 = getelementptr inbounds i8, i8* %14, i64 %13
  %16 = bitcast i8* %15 to %"class.memory_instrumentation::mojom::internal::RequestArgs_Data"*
  call void @_ZN22memory_instrumentation5mojom8internal16RequestArgs_DataC1Ev(%"class.memory_instrumentation::mojom::internal::RequestArgs_Data"* %16) #15
  %17 = getelementptr inbounds %"struct.base::trace_event::MemoryDumpRequestArgs", %"struct.base::trace_event::MemoryDumpRequestArgs"* %1, i64 0, i32 0
  %18 = load i64, i64* %17, align 8
  %19 = load i8*, i8** %9, align 8
  %20 = getelementptr inbounds i8, i8* %19, i64 %13
  %21 = getelementptr inbounds i8, i8* %20, i64 8
  %22 = bitcast i8* %21 to i64*
  store i64 %18, i64* %22, align 1
  %23 = getelementptr inbounds %"struct.base::trace_event::MemoryDumpRequestArgs", %"struct.base::trace_event::MemoryDumpRequestArgs"* %1, i64 0, i32 1
  %24 = load i32, i32* %23, align 8
  %25 = load i8*, i8** %9, align 8
  %26 = getelementptr inbounds i8, i8* %25, i64 %13
  %27 = getelementptr inbounds i8, i8* %26, i64 16
  %28 = bitcast i8* %27 to i32*
  %29 = call i32 @_ZN4mojo10EnumTraitsIN22memory_instrumentation5mojom8DumpTypeEN4base11trace_event14MemoryDumpTypeEE7ToMojomES6_(i32 %24) #15
  store i32 %29, i32* %28, align 4
  %30 = getelementptr inbounds %"struct.base::trace_event::MemoryDumpRequestArgs", %"struct.base::trace_event::MemoryDumpRequestArgs"* %1, i64 0, i32 2
  %31 = load i32, i32* %30, align 4
  %32 = load i8*, i8** %9, align 8
  %33 = getelementptr inbounds i8, i8* %32, i64 %13
  %34 = getelementptr inbounds i8, i8* %33, i64 20
  %35 = bitcast i8* %34 to i32*
  %36 = call i32 @_ZN4mojo10EnumTraitsIN22memory_instrumentation5mojom13LevelOfDetailEN4base11trace_event23MemoryDumpLevelOfDetailEE7ToMojomES6_(i32 %31) #15
  store i32 %36, i32* %35, align 4
  %37 = getelementptr inbounds %"struct.base::trace_event::MemoryDumpRequestArgs", %"struct.base::trace_event::MemoryDumpRequestArgs"* %1, i64 0, i32 3
  %38 = load i32, i32* %37, align 8
  %39 = load i8*, i8** %9, align 8
  %40 = getelementptr inbounds i8, i8* %39, i64 %13
  %41 = getelementptr inbounds i8, i8* %40, i64 24
  %42 = bitcast i8* %41 to i32*
  %43 = call i32 @_ZN4mojo10EnumTraitsIN22memory_instrumentation5mojom11DeterminismEN4base11trace_event21MemoryDumpDeterminismEE7ToMojomES6_(i32 %38) #15
  store i32 %43, i32* %42, align 4
  %44 = load i8*, i8** %9, align 8
  %45 = getelementptr inbounds i8, i8* %44, i64 %8
  %46 = getelementptr inbounds i8, i8* %45, i64 8
  %47 = icmp eq i64 %13, -1
  %48 = getelementptr inbounds i8, i8* %44, i64 %13
  %49 = bitcast i8* %48 to %"class.memory_instrumentation::mojom::internal::RequestArgs_Data"*
  %50 = select i1 %47, %"class.memory_instrumentation::mojom::internal::RequestArgs_Data"* null, %"class.memory_instrumentation::mojom::internal::RequestArgs_Data"* %49
  %51 = bitcast i8* %46 to i64*
  %52 = icmp eq %"class.memory_instrumentation::mojom::internal::RequestArgs_Data"* %50, null
  %53 = ptrtoint %"class.memory_instrumentation::mojom::internal::RequestArgs_Data"* %50 to i64
  %54 = ptrtoint i8* %46 to i64
  %55 = sub i64 %53, %54
  %56 = select i1 %52, i64 0, i64 %55
  store i64 %56, i64* %51, align 8
  %57 = call i8* @_Znwm(i64 16) #16
  %58 = getelementptr inbounds %"class.base::OnceCallback", %"class.base::OnceCallback"* %2, i64 0, i32 0, i32 0, i32 0
  %59 = bitcast %"class.base::OnceCallback"* %2 to i64*
  %60 = load i64, i64* %59, align 8
  store %"class.base::internal::BindStateBase"* null, %"class.base::internal::BindStateBase"** %58, align 8
  %61 = bitcast i8* %57 to i32 (...)***
  store i32 (...)** bitcast (i8** getelementptr inbounds ({ [6 x i8*] }, { [6 x i8*] }* @_ZTVN22memory_instrumentation5mojom55ClientProcess_RequestChromeMemoryDump_ForwardToCallbackE, i64 0, inrange i32 0, i64 2) to i32 (...)**), i32 (...)*** %61, align 8
  %62 = getelementptr inbounds i8, i8* %57, i64 8
  %63 = getelementptr inbounds %"class.base::OnceCallback", %"class.base::OnceCallback"* %5, i64 0, i32 0, i32 0, i32 0
  %64 = bitcast i8* %62 to i64*
  store i64 %60, i64* %64, align 8
  store %"class.base::internal::BindStateBase"* null, %"class.base::internal::BindStateBase"** %63, align 8
  %65 = bitcast i8* %57 to %"class.mojo::MessageReceiver"*
  %66 = getelementptr inbounds %"class.base::OnceCallback", %"class.base::OnceCallback"* %5, i64 0, i32 0
  call void @_ZN4base8internal12CallbackBaseD2Ev(%"class.base::internal::CallbackBase"* nonnull %66) #15
  %67 = getelementptr inbounds %"class.memory_instrumentation::mojom::ClientProcessProxy", %"class.memory_instrumentation::mojom::ClientProcessProxy"* %0, i64 0, i32 1
  %68 = load %"class.mojo::MessageReceiverWithResponder"*, %"class.mojo::MessageReceiverWithResponder"** %67, align 8
  %69 = bitcast %"class.mojo::MessageReceiverWithResponder"* %68 to i1 (%"class.mojo::MessageReceiverWithResponder"*, %"class.mojo::Message"*, %"class.mojo::MessageReceiver"*)***
  %70 = load i1 (%"class.mojo::MessageReceiverWithResponder"*, %"class.mojo::Message"*, %"class.mojo::MessageReceiver"*)**, i1 (%"class.mojo::MessageReceiverWithResponder"*, %"class.mojo::Message"*, %"class.mojo::MessageReceiver"*)*** %69, align 8
  %71 = getelementptr inbounds i1 (%"class.mojo::MessageReceiverWithResponder"*, %"class.mojo::Message"*, %"class.mojo::MessageReceiver"*)*, i1 (%"class.mojo::MessageReceiverWithResponder"*, %"class.mojo::Message"*, %"class.mojo::MessageReceiver"*)** %70, i64 4
  %72 = load i1 (%"class.mojo::MessageReceiverWithResponder"*, %"class.mojo::Message"*, %"class.mojo::MessageReceiver"*)*, i1 (%"class.mojo::MessageReceiverWithResponder"*, %"class.mojo::Message"*, %"class.mojo::MessageReceiver"*)** %71, align 8
  %73 = call zeroext i1 %72(%"class.mojo::MessageReceiverWithResponder"* %68, %"class.mojo::Message"* nonnull %4, %"class.mojo::MessageReceiver"* nonnull %65) #15
  call void @_ZN4mojo7MessageD1Ev(%"class.mojo::Message"* nonnull %4) #15
  call void @llvm.lifetime.end.p0i8(i64 120, i8* nonnull %6) #15
  ret void
}

declare void @_ZN4mojo7MessageC1EjjmmPNSt3__16vectorINS_16ScopedHandleBaseINS_6HandleEEENS1_9allocatorIS5_EEEE(%"class.mojo::Message"*, i32, i32, i64, i64, %"class.std::__1::vector"*) unnamed_addr #4

; Function Attrs: nounwind
declare void @_ZN4mojo7MessageD1Ev(%"class.mojo::Message"*) unnamed_addr #9

; Function Attrs: nounwind ssp uwtable
define hidden void @_ZN22memory_instrumentation5mojom18ClientProcessProxy19RequestOSMemoryDumpENS0_15MemoryMapOptionERKNSt3__16vectorIiNS3_9allocatorIiEEEEN4base12OnceCallbackIFvbNSA_8flat_mapIiN4mojo9StructPtrINS0_12RawOSMemDumpEEENS3_4lessIvEENS4_INS3_4pairIiSG_EENS5_ISK_EEEEEEEEE(%"class.memory_instrumentation::mojom::ClientProcessProxy"* nocapture readonly, i32, %"class.std::__1::vector.146"* dereferenceable(24), %"class.base::OnceCallback.153"* nocapture) unnamed_addr #2 align 2 {
  %5 = alloca %"class.mojo::Message", align 8
  %6 = alloca %"class.mojo::internal::MessageFragment.156", align 8
  %7 = alloca %"class.mojo::internal::ContainerValidateParams", align 8
  %8 = alloca %"class.mojo::internal::ContainerValidateParams"*, align 8
  %9 = alloca %"class.base::OnceCallback.153", align 8
  %10 = bitcast %"class.mojo::Message"* %5 to i8*
  call void @llvm.lifetime.start.p0i8(i64 120, i8* nonnull %10) #15
  call void @llvm.memset.p0i8.i64(i8* nonnull align 8 %10, i8 -86, i64 120, i1 false)
  call void @_ZN4mojo7MessageC1EjjmmPNSt3__16vectorINS_16ScopedHandleBaseINS_6HandleEEENS1_9allocatorIS5_EEEE(%"class.mojo::Message"* nonnull %5, i32 335459342, i32 1, i64 0, i64 0, %"class.std::__1::vector"* null) #15
  %11 = getelementptr inbounds %"class.mojo::Message", %"class.mojo::Message"* %5, i64 0, i32 1
  %12 = call i64 @_ZN4mojo8internal6Buffer8AllocateEm(%"class.mojo::internal::Buffer"* %11, i64 24) #15
  %13 = getelementptr inbounds %"class.mojo::Message", %"class.mojo::Message"* %5, i64 0, i32 1, i32 2
  %14 = load i8*, i8** %13, align 8
  %15 = getelementptr inbounds i8, i8* %14, i64 %12
  %16 = bitcast i8* %15 to %"class.memory_instrumentation::mojom::internal::ClientProcess_RequestOSMemoryDump_Params_Data"*
  call void @_ZN22memory_instrumentation5mojom8internal45ClientProcess_RequestOSMemoryDump_Params_DataC1Ev(%"class.memory_instrumentation::mojom::internal::ClientProcess_RequestOSMemoryDump_Params_Data"* %16) #15
  %17 = load i8*, i8** %13, align 8
  %18 = getelementptr inbounds i8, i8* %17, i64 %12
  %19 = getelementptr inbounds i8, i8* %18, i64 8
  %20 = bitcast i8* %19 to i32*
  store i32 %1, i32* %20, align 4
  %21 = bitcast %"class.mojo::internal::MessageFragment.156"* %6 to i8*
  call void @llvm.lifetime.start.p0i8(i64 16, i8* nonnull %21) #15
  %22 = getelementptr inbounds %"class.mojo::internal::MessageFragment.156", %"class.mojo::internal::MessageFragment.156"* %6, i64 0, i32 0
  %23 = getelementptr inbounds %"class.mojo::internal::MessageFragment.156", %"class.mojo::internal::MessageFragment.156"* %6, i64 0, i32 1
  store %"class.mojo::Message"* %5, %"class.mojo::Message"** %22, align 8
  store i64 -1, i64* %23, align 8
  %24 = bitcast %"class.mojo::internal::ContainerValidateParams"* %7 to i8*
  call void @llvm.lifetime.start.p0i8(i64 32, i8* nonnull %24) #15
  %25 = bitcast %"class.mojo::internal::ContainerValidateParams"* %7 to i64*
  store i64 -6148914691236517206, i64* %25, align 8
  %26 = getelementptr inbounds %"class.mojo::internal::ContainerValidateParams", %"class.mojo::internal::ContainerValidateParams"* %7, i64 0, i32 0
  store i32 0, i32* %26, align 8
  %27 = getelementptr inbounds %"class.mojo::internal::ContainerValidateParams", %"class.mojo::internal::ContainerValidateParams"* %7, i64 0, i32 1
  store i8 0, i8* %27, align 4
  %28 = getelementptr inbounds %"class.mojo::internal::ContainerValidateParams", %"class.mojo::internal::ContainerValidateParams"* %7, i64 0, i32 2
  %29 = bitcast %"class.mojo::internal::ContainerValidateParams"** %8 to i8*
  %30 = bitcast %"class.mojo::internal::ContainerValidateParams"** %28 to i8*
  call void @llvm.memset.p0i8.i64(i8* align 8 %30, i8 0, i64 24, i1 false)
  call void @llvm.lifetime.start.p0i8(i64 8, i8* nonnull %29) #15
  store %"class.mojo::internal::ContainerValidateParams"* %7, %"class.mojo::internal::ContainerValidateParams"** %8, align 8
  call void @_ZN4mojo8internal9SerializeINS_13ArrayDataViewIN9mojo_base5mojom17ProcessIdDataViewEEERKNSt3__16vectorIiNS7_9allocatorIiEEEEJRNS0_15MessageFragmentINS0_10Array_DataINS0_7PointerINS4_8internal14ProcessId_DataEEEEEEEPKNS0_23ContainerValidateParamsEELPv0EEEvOT0_DpOT1_(%"class.std::__1::vector.146"* dereferenceable(24) %2, %"class.mojo::internal::MessageFragment.156"* nonnull dereferenceable(16) %6, %"class.mojo::internal::ContainerValidateParams"** nonnull dereferenceable(8) %8)
  call void @llvm.lifetime.end.p0i8(i64 8, i8* nonnull %29) #15
  %31 = load i8*, i8** %13, align 8
  %32 = getelementptr inbounds i8, i8* %31, i64 %12
  %33 = getelementptr inbounds i8, i8* %32, i64 16
  %34 = load i64, i64* %23, align 8
  %35 = icmp eq i64 %34, -1
  br i1 %35, label %42, label %36

36:                                               ; preds = %4
  %37 = load %"class.mojo::Message"*, %"class.mojo::Message"** %22, align 8
  %38 = getelementptr inbounds %"class.mojo::Message", %"class.mojo::Message"* %37, i64 0, i32 1, i32 2
  %39 = load i8*, i8** %38, align 8
  %40 = getelementptr inbounds i8, i8* %39, i64 %34
  %41 = bitcast i8* %40 to %"class.mojo::internal::Array_Data"*
  br label %42

42:                                               ; preds = %36, %4
  %43 = phi %"class.mojo::internal::Array_Data"* [ %41, %36 ], [ null, %4 ]
  %44 = bitcast i8* %33 to i64*
  %45 = icmp eq %"class.mojo::internal::Array_Data"* %43, null
  %46 = ptrtoint %"class.mojo::internal::Array_Data"* %43 to i64
  %47 = ptrtoint i8* %33 to i64
  %48 = sub i64 %46, %47
  %49 = select i1 %45, i64 0, i64 %48
  store i64 %49, i64* %44, align 8
  %50 = call i8* @_Znwm(i64 16) #16
  %51 = getelementptr inbounds %"class.base::OnceCallback.153", %"class.base::OnceCallback.153"* %3, i64 0, i32 0, i32 0, i32 0
  %52 = bitcast %"class.base::OnceCallback.153"* %3 to i64*
  %53 = load i64, i64* %52, align 8
  store %"class.base::internal::BindStateBase"* null, %"class.base::internal::BindStateBase"** %51, align 8
  %54 = bitcast i8* %50 to i32 (...)***
  store i32 (...)** bitcast (i8** getelementptr inbounds ({ [6 x i8*] }, { [6 x i8*] }* @_ZTVN22memory_instrumentation5mojom51ClientProcess_RequestOSMemoryDump_ForwardToCallbackE, i64 0, inrange i32 0, i64 2) to i32 (...)**), i32 (...)*** %54, align 8
  %55 = getelementptr inbounds i8, i8* %50, i64 8
  %56 = getelementptr inbounds %"class.base::OnceCallback.153", %"class.base::OnceCallback.153"* %9, i64 0, i32 0, i32 0, i32 0
  %57 = bitcast i8* %55 to i64*
  store i64 %53, i64* %57, align 8
  store %"class.base::internal::BindStateBase"* null, %"class.base::internal::BindStateBase"** %56, align 8
  %58 = bitcast i8* %50 to %"class.mojo::MessageReceiver"*
  %59 = getelementptr inbounds %"class.base::OnceCallback.153", %"class.base::OnceCallback.153"* %9, i64 0, i32 0
  call void @_ZN4base8internal12CallbackBaseD2Ev(%"class.base::internal::CallbackBase"* nonnull %59) #15
  %60 = getelementptr inbounds %"class.memory_instrumentation::mojom::ClientProcessProxy", %"class.memory_instrumentation::mojom::ClientProcessProxy"* %0, i64 0, i32 1
  %61 = load %"class.mojo::MessageReceiverWithResponder"*, %"class.mojo::MessageReceiverWithResponder"** %60, align 8
  %62 = bitcast %"class.mojo::MessageReceiverWithResponder"* %61 to i1 (%"class.mojo::MessageReceiverWithResponder"*, %"class.mojo::Message"*, %"class.mojo::MessageReceiver"*)***
  %63 = load i1 (%"class.mojo::MessageReceiverWithResponder"*, %"class.mojo::Message"*, %"class.mojo::MessageReceiver"*)**, i1 (%"class.mojo::MessageReceiverWithResponder"*, %"class.mojo::Message"*, %"class.mojo::MessageReceiver"*)*** %62, align 8
  %64 = getelementptr inbounds i1 (%"class.mojo::MessageReceiverWithResponder"*, %"class.mojo::Message"*, %"class.mojo::MessageReceiver"*)*, i1 (%"class.mojo::MessageReceiverWithResponder"*, %"class.mojo::Message"*, %"class.mojo::MessageReceiver"*)** %63, i64 4
  %65 = load i1 (%"class.mojo::MessageReceiverWithResponder"*, %"class.mojo::Message"*, %"class.mojo::MessageReceiver"*)*, i1 (%"class.mojo::MessageReceiverWithResponder"*, %"class.mojo::Message"*, %"class.mojo::MessageReceiver"*)** %64, align 8
  %66 = call zeroext i1 %65(%"class.mojo::MessageReceiverWithResponder"* %61, %"class.mojo::Message"* nonnull %5, %"class.mojo::MessageReceiver"* nonnull %58) #15
  call void @_ZN4mojo8internal23ContainerValidateParamsD2Ev(%"class.mojo::internal::ContainerValidateParams"* nonnull %7) #15
  call void @llvm.lifetime.end.p0i8(i64 32, i8* nonnull %24) #15
  call void @llvm.lifetime.end.p0i8(i64 16, i8* nonnull %21) #15
  call void @_ZN4mojo7MessageD1Ev(%"class.mojo::Message"* nonnull %5) #15
  call void @llvm.lifetime.end.p0i8(i64 120, i8* nonnull %10) #15
  ret void
}

; Function Attrs: nounwind ssp uwtable
define linkonce_odr hidden void @_ZN4mojo8internal9SerializeINS_13ArrayDataViewIN9mojo_base5mojom17ProcessIdDataViewEEERKNSt3__16vectorIiNS7_9allocatorIiEEEEJRNS0_15MessageFragmentINS0_10Array_DataINS0_7PointerINS4_8internal14ProcessId_DataEEEEEEEPKNS0_23ContainerValidateParamsEELPv0EEEvOT0_DpOT1_(%"class.std::__1::vector.146"* dereferenceable(24), %"class.mojo::internal::MessageFragment.156"* dereferenceable(16), %"class.mojo::internal::ContainerValidateParams"** dereferenceable(8)) local_unnamed_addr #2 comdat {
  %4 = getelementptr inbounds %"class.std::__1::vector.146", %"class.std::__1::vector.146"* %0, i64 0, i32 0, i32 1
  %5 = bitcast i32** %4 to i64*
  %6 = load i64, i64* %5, align 8
  %7 = bitcast %"class.std::__1::vector.146"* %0 to i64*
  %8 = load i64, i64* %7, align 8
  %9 = sub i64 %6, %8
  %10 = ashr exact i64 %9, 2
  %11 = icmp ugt i64 %10, 536870910
  br i1 %11, label %34, label %12

12:                                               ; preds = %3
  %13 = trunc i64 %10 to i32
  %14 = trunc i64 %9 to i32
  %15 = shl i32 %14, 1
  %16 = add nuw i32 %15, 8
  %17 = getelementptr inbounds %"class.mojo::internal::MessageFragment.156", %"class.mojo::internal::MessageFragment.156"* %1, i64 0, i32 0
  %18 = load %"class.mojo::Message"*, %"class.mojo::Message"** %17, align 8
  %19 = getelementptr inbounds %"class.mojo::Message", %"class.mojo::Message"* %18, i64 0, i32 1
  %20 = zext i32 %16 to i64
  %21 = tail call i64 @_ZN4mojo8internal6Buffer8AllocateEm(%"class.mojo::internal::Buffer"* %19, i64 %20) #15
  %22 = getelementptr inbounds %"class.mojo::internal::MessageFragment.156", %"class.mojo::internal::MessageFragment.156"* %1, i64 0, i32 1
  store i64 %21, i64* %22, align 8
  %23 = load %"class.mojo::Message"*, %"class.mojo::Message"** %17, align 8
  %24 = getelementptr inbounds %"class.mojo::Message", %"class.mojo::Message"* %23, i64 0, i32 1, i32 2
  %25 = load i8*, i8** %24, align 8
  %26 = getelementptr inbounds i8, i8* %25, i64 %21
  %27 = bitcast i8* %26 to i32*
  store i32 %16, i32* %27, align 1
  %28 = getelementptr inbounds i8, i8* %26, i64 4
  %29 = bitcast i8* %28 to i32*
  store i32 %13, i32* %29, align 1
  %30 = load i64, i64* %5, align 8
  %31 = load i64, i64* %7, align 8
  %32 = sub i64 %30, %31
  %33 = ashr exact i64 %32, 2
  br label %34

34:                                               ; preds = %3, %12
  %35 = phi i64 [ %10, %3 ], [ %33, %12 ]
  %36 = phi i64 [ %9, %3 ], [ %32, %12 ]
  %37 = phi i64 [ %8, %3 ], [ %31, %12 ]
  %38 = icmp eq i64 %36, 0
  br i1 %38, label %85, label %39

39:                                               ; preds = %34
  %40 = inttoptr i64 %37 to i32*
  %41 = getelementptr inbounds %"class.mojo::internal::MessageFragment.156", %"class.mojo::internal::MessageFragment.156"* %1, i64 0, i32 0
  %42 = getelementptr inbounds %"class.mojo::internal::MessageFragment.156", %"class.mojo::internal::MessageFragment.156"* %1, i64 0, i32 1
  %43 = getelementptr inbounds %"class.std::__1::vector.146", %"class.std::__1::vector.146"* %0, i64 0, i32 0, i32 0
  br label %44

44:                                               ; preds = %83, %39
  %45 = phi i32* [ %40, %39 ], [ %84, %83 ]
  %46 = phi i64 [ 0, %39 ], [ %48, %83 ]
  %47 = load %"class.mojo::Message"*, %"class.mojo::Message"** %41, align 8
  %48 = add nuw i64 %46, 1
  %49 = getelementptr inbounds i32, i32* %45, i64 %46
  %50 = getelementptr inbounds %"class.mojo::Message", %"class.mojo::Message"* %47, i64 0, i32 1
  %51 = tail call i64 @_ZN4mojo8internal6Buffer8AllocateEm(%"class.mojo::internal::Buffer"* %50, i64 16) #15
  %52 = getelementptr inbounds %"class.mojo::Message", %"class.mojo::Message"* %47, i64 0, i32 1, i32 2
  %53 = load i8*, i8** %52, align 8
  %54 = getelementptr inbounds i8, i8* %53, i64 %51
  %55 = bitcast i8* %54 to %"class.mojo_base::mojom::internal::ProcessId_Data"*
  tail call void @_ZN9mojo_base5mojom8internal14ProcessId_DataC1Ev(%"class.mojo_base::mojom::internal::ProcessId_Data"* %55) #15
  %56 = load i32, i32* %49, align 4
  %57 = load i8*, i8** %52, align 8
  %58 = getelementptr inbounds i8, i8* %57, i64 8
  %59 = getelementptr inbounds i8, i8* %58, i64 %51
  %60 = bitcast i8* %59 to i32*
  store i32 %56, i32* %60, align 1
  %61 = load %"class.mojo::Message"*, %"class.mojo::Message"** %41, align 8
  %62 = load i64, i64* %42, align 8
  %63 = getelementptr inbounds %"class.mojo::Message", %"class.mojo::Message"* %61, i64 0, i32 1, i32 2
  %64 = load i8*, i8** %63, align 8
  %65 = getelementptr inbounds i8, i8* %64, i64 8
  %66 = getelementptr inbounds i8, i8* %65, i64 %62
  %67 = bitcast i8* %66 to %"class.mojo::internal::Array_Data"*
  %68 = getelementptr inbounds %"class.mojo::internal::Array_Data", %"class.mojo::internal::Array_Data"* %67, i64 %46
  %69 = icmp eq i64 %51, -1
  br i1 %69, label %74, label %70

70:                                               ; preds = %44
  %71 = load i8*, i8** %52, align 8
  %72 = getelementptr inbounds i8, i8* %71, i64 %51
  %73 = bitcast i8* %72 to %"class.mojo_base::mojom::internal::ProcessId_Data"*
  br label %74

74:                                               ; preds = %70, %44
  %75 = phi %"class.mojo_base::mojom::internal::ProcessId_Data"* [ %73, %70 ], [ null, %44 ]
  %76 = bitcast %"class.mojo::internal::Array_Data"* %68 to i64*
  %77 = icmp eq %"class.mojo_base::mojom::internal::ProcessId_Data"* %75, null
  %78 = ptrtoint %"class.mojo_base::mojom::internal::ProcessId_Data"* %75 to i64
  %79 = ptrtoint %"class.mojo::internal::Array_Data"* %68 to i64
  %80 = sub i64 %78, %79
  %81 = select i1 %77, i64 0, i64 %80
  store i64 %81, i64* %76, align 8
  %82 = icmp ult i64 %48, %35
  br i1 %82, label %83, label %85

83:                                               ; preds = %74
  %84 = load i32*, i32** %43, align 8
  br label %44

85:                                               ; preds = %74, %34
  ret void
}

; Function Attrs: nounwind ssp uwtable
define linkonce_odr hidden void @_ZN4mojo8internal23ContainerValidateParamsD2Ev(%"class.mojo::internal::ContainerValidateParams"*) unnamed_addr #2 comdat align 2 {
  %2 = getelementptr inbounds %"class.mojo::internal::ContainerValidateParams", %"class.mojo::internal::ContainerValidateParams"* %0, i64 0, i32 3
  %3 = load %"class.mojo::internal::ContainerValidateParams"*, %"class.mojo::internal::ContainerValidateParams"** %2, align 8
  %4 = icmp eq %"class.mojo::internal::ContainerValidateParams"* %3, null
  br i1 %4, label %7, label %5

5:                                                ; preds = %1
  tail call void @_ZN4mojo8internal23ContainerValidateParamsD2Ev(%"class.mojo::internal::ContainerValidateParams"* nonnull %3) #15
  %6 = bitcast %"class.mojo::internal::ContainerValidateParams"* %3 to i8*
  tail call void @_ZdlPv(i8* %6) #16
  br label %7

7:                                                ; preds = %1, %5
  %8 = getelementptr inbounds %"class.mojo::internal::ContainerValidateParams", %"class.mojo::internal::ContainerValidateParams"* %0, i64 0, i32 2
  %9 = load %"class.mojo::internal::ContainerValidateParams"*, %"class.mojo::internal::ContainerValidateParams"** %8, align 8
  %10 = icmp eq %"class.mojo::internal::ContainerValidateParams"* %9, null
  br i1 %10, label %13, label %11

11:                                               ; preds = %7
  tail call void @_ZN4mojo8internal23ContainerValidateParamsD2Ev(%"class.mojo::internal::ContainerValidateParams"* nonnull %9) #15
  %12 = bitcast %"class.mojo::internal::ContainerValidateParams"* %9 to i8*
  tail call void @_ZdlPv(i8* %12) #16
  ret void

13:                                               ; preds = %7
  ret void
}

; Function Attrs: nounwind ssp uwtable
define hidden zeroext i1 @_ZN22memory_instrumentation5mojom55ClientProcess_RequestChromeMemoryDump_ForwardToCallback6AcceptEPN4mojo7MessageE(%"class.memory_instrumentation::mojom::ClientProcess_RequestChromeMemoryDump_ForwardToCallback"* nocapture, %"class.mojo::Message"*) unnamed_addr #2 align 2 {
  %3 = alloca %"class.std::__1::unique_ptr.158", align 8
  %4 = alloca %"class.base::OnceCallback", align 8
  %5 = alloca %"class.std::__1::unique_ptr.158", align 8
  %6 = tail call i8* @_ZNK4mojo7Message7payloadEv(%"class.mojo::Message"* %1) #15
  %7 = bitcast %"class.std::__1::unique_ptr.158"* %5 to i8*
  call void @llvm.lifetime.start.p0i8(i64 8, i8* nonnull %7) #15
  %8 = getelementptr inbounds %"class.std::__1::unique_ptr.158", %"class.std::__1::unique_ptr.158"* %5, i64 0, i32 0, i32 0, i32 0
  %9 = bitcast %"class.std::__1::unique_ptr.158"* %5 to i64*
  store i64 0, i64* %9, align 8
  %10 = getelementptr inbounds i8, i8* %6, i64 8
  %11 = load i8, i8* %10, align 8
  %12 = and i8 %11, 1
  %13 = icmp ne i8 %12, 0
  %14 = getelementptr inbounds i8, i8* %6, i64 16
  %15 = bitcast i8* %14 to i64*
  %16 = load i64, i64* %15, align 8
  %17 = getelementptr inbounds i8, i8* %6, i64 24
  %18 = bitcast i8* %17 to i64*
  %19 = load i64, i64* %18, align 8
  %20 = icmp eq i64 %19, 0
  br i1 %20, label %21, label %22

21:                                               ; preds = %2
  store %"class.base::trace_event::ProcessMemoryDump"* null, %"class.base::trace_event::ProcessMemoryDump"** %8, align 8
  br label %27

22:                                               ; preds = %2
  %23 = getelementptr inbounds i8, i8* %17, i64 %19
  %24 = bitcast i8* %23 to %"class.memory_instrumentation::mojom::internal::RawProcessMemoryDump_Data"*
  %25 = call zeroext i1 @_ZN4mojo12StructTraitsIN22memory_instrumentation5mojom28RawProcessMemoryDumpDataViewENSt3__110unique_ptrIN4base11trace_event17ProcessMemoryDumpENS4_14default_deleteIS8_EEEEE4ReadES3_PSB_(%"class.memory_instrumentation::mojom::internal::RawProcessMemoryDump_Data"* nonnull %24, %"class.mojo::Message"* %1, %"class.std::__1::unique_ptr.158"* nonnull %5) #15
  br i1 %25, label %27, label %26

26:                                               ; preds = %22
  call void @_ZN4mojo8internal31ReportValidationErrorForMessageEPNS_7MessageENS0_15ValidationErrorEPKcjb(%"class.mojo::Message"* %1, i32 17, i8* getelementptr inbounds ([43 x i8], [43 x i8]* @_ZN22memory_instrumentation5mojom13ClientProcess5Name_E, i64 0, i64 0), i32 0, i1 zeroext true) #15
  br label %48

27:                                               ; preds = %21, %22
  %28 = getelementptr inbounds %"class.memory_instrumentation::mojom::ClientProcess_RequestChromeMemoryDump_ForwardToCallback", %"class.memory_instrumentation::mojom::ClientProcess_RequestChromeMemoryDump_ForwardToCallback"* %0, i64 0, i32 1, i32 0, i32 0, i32 0
  %29 = load %"class.base::internal::BindStateBase"*, %"class.base::internal::BindStateBase"** %28, align 8
  %30 = icmp eq %"class.base::internal::BindStateBase"* %29, null
  br i1 %30, label %48, label %31

31:                                               ; preds = %27
  %32 = ptrtoint %"class.base::internal::BindStateBase"* %29 to i64
  %33 = load i64, i64* %9, align 8
  store %"class.base::trace_event::ProcessMemoryDump"* null, %"class.base::trace_event::ProcessMemoryDump"** %8, align 8
  %34 = bitcast %"class.std::__1::unique_ptr.158"* %3 to i8*
  call void @llvm.lifetime.start.p0i8(i64 8, i8* nonnull %34)
  %35 = getelementptr inbounds %"class.std::__1::unique_ptr.158", %"class.std::__1::unique_ptr.158"* %3, i64 0, i32 0, i32 0, i32 0
  %36 = bitcast %"class.std::__1::unique_ptr.158"* %3 to i64*
  store i64 %33, i64* %36, align 8
  %37 = bitcast %"class.base::OnceCallback"* %4 to i8*
  call void @llvm.lifetime.start.p0i8(i64 8, i8* nonnull %37) #15
  %38 = bitcast %"class.base::OnceCallback"* %4 to i64*
  store i64 %32, i64* %38, align 8
  store %"class.base::internal::BindStateBase"* null, %"class.base::internal::BindStateBase"** %28, align 8
  %39 = getelementptr inbounds %"class.base::OnceCallback", %"class.base::OnceCallback"* %4, i64 0, i32 0
  %40 = getelementptr inbounds %"class.base::internal::BindStateBase", %"class.base::internal::BindStateBase"* %29, i64 0, i32 1
  %41 = bitcast void ()** %40 to void (%"class.base::internal::BindStateBase"*, i1, i64, %"class.std::__1::unique_ptr.158"*)**
  %42 = load void (%"class.base::internal::BindStateBase"*, i1, i64, %"class.std::__1::unique_ptr.158"*)*, void (%"class.base::internal::BindStateBase"*, i1, i64, %"class.std::__1::unique_ptr.158"*)** %41, align 8
  call void %42(%"class.base::internal::BindStateBase"* nonnull %29, i1 zeroext %13, i64 %16, %"class.std::__1::unique_ptr.158"* nonnull dereferenceable(8) %3) #15
  call void @_ZN4base8internal12CallbackBaseD2Ev(%"class.base::internal::CallbackBase"* nonnull %39) #15
  call void @llvm.lifetime.end.p0i8(i64 8, i8* nonnull %37) #15
  %43 = load %"class.base::trace_event::ProcessMemoryDump"*, %"class.base::trace_event::ProcessMemoryDump"** %35, align 8
  store %"class.base::trace_event::ProcessMemoryDump"* null, %"class.base::trace_event::ProcessMemoryDump"** %35, align 8
  %44 = icmp eq %"class.base::trace_event::ProcessMemoryDump"* %43, null
  br i1 %44, label %47, label %45

45:                                               ; preds = %31
  call void @_ZN4base11trace_event17ProcessMemoryDumpD1Ev(%"class.base::trace_event::ProcessMemoryDump"* nonnull %43) #15
  %46 = bitcast %"class.base::trace_event::ProcessMemoryDump"* %43 to i8*
  call void @_ZdlPv(i8* %46) #16
  br label %47

47:                                               ; preds = %31, %45
  call void @llvm.lifetime.end.p0i8(i64 8, i8* nonnull %34)
  br label %48

48:                                               ; preds = %27, %47, %26
  %49 = phi i1 [ false, %26 ], [ true, %47 ], [ true, %27 ]
  %50 = load %"class.base::trace_event::ProcessMemoryDump"*, %"class.base::trace_event::ProcessMemoryDump"** %8, align 8
  store %"class.base::trace_event::ProcessMemoryDump"* null, %"class.base::trace_event::ProcessMemoryDump"** %8, align 8
  %51 = icmp eq %"class.base::trace_event::ProcessMemoryDump"* %50, null
  br i1 %51, label %54, label %52

52:                                               ; preds = %48
  call void @_ZN4base11trace_event17ProcessMemoryDumpD1Ev(%"class.base::trace_event::ProcessMemoryDump"* nonnull %50) #15
  %53 = bitcast %"class.base::trace_event::ProcessMemoryDump"* %50 to i8*
  call void @_ZdlPv(i8* %53) #16
  br label %54

54:                                               ; preds = %48, %52
  call void @llvm.lifetime.end.p0i8(i64 8, i8* nonnull %7) #15
  ret i1 %49
}

declare void @_ZN4mojo8internal31ReportValidationErrorForMessageEPNS_7MessageENS0_15ValidationErrorEPKcjb(%"class.mojo::Message"*, i32, i8*, i32, i1 zeroext) local_unnamed_addr #4

; Function Attrs: nounwind ssp uwtable
define hidden void @_ZN22memory_instrumentation5mojom54ClientProcess_RequestChromeMemoryDump_ProxyToResponder3RunEbmNSt3__110unique_ptrIN4base11trace_event17ProcessMemoryDumpENS2_14default_deleteIS6_EEEE(%"class.memory_instrumentation::mojom::ClientProcess_RequestChromeMemoryDump_ProxyToResponder"* nocapture, i1 zeroext, i64, %"class.base::trace_event::ProcessMemoryDump"*) #2 align 2 {
  %5 = alloca %"class.std::__1::unique_ptr.158", align 8
  %6 = alloca %"class.mojo::Message", align 8
  %7 = alloca %"class.mojo::internal::MessageFragment.189", align 8
  %8 = getelementptr inbounds %"class.std::__1::unique_ptr.158", %"class.std::__1::unique_ptr.158"* %5, i64 0, i32 0, i32 0, i32 0
  store %"class.base::trace_event::ProcessMemoryDump"* %3, %"class.base::trace_event::ProcessMemoryDump"** %8, align 8
  %9 = zext i1 %1 to i8
  %10 = getelementptr inbounds %"class.memory_instrumentation::mojom::ClientProcess_RequestChromeMemoryDump_ProxyToResponder", %"class.memory_instrumentation::mojom::ClientProcess_RequestChromeMemoryDump_ProxyToResponder"* %0, i64 0, i32 1
  %11 = load i8, i8* %10, align 8, !range !2
  %12 = icmp eq i8 %11, 0
  %13 = select i1 %12, i32 2, i32 6
  %14 = bitcast %"class.mojo::Message"* %6 to i8*
  call void @llvm.lifetime.start.p0i8(i64 120, i8* nonnull %14) #15
  call void @llvm.memset.p0i8.i64(i8* nonnull align 8 %14, i8 -86, i64 120, i1 false)
  call void @_ZN4mojo7MessageC1EjjmmPNSt3__16vectorINS_16ScopedHandleBaseINS_6HandleEEENS1_9allocatorIS5_EEEE(%"class.mojo::Message"* nonnull %6, i32 440579497, i32 %13, i64 0, i64 0, %"class.std::__1::vector"* null) #15
  %15 = getelementptr inbounds %"class.mojo::Message", %"class.mojo::Message"* %6, i64 0, i32 1
  %16 = call i64 @_ZN4mojo8internal6Buffer8AllocateEm(%"class.mojo::internal::Buffer"* %15, i64 32) #15
  %17 = getelementptr inbounds %"class.mojo::Message", %"class.mojo::Message"* %6, i64 0, i32 1, i32 2
  %18 = load i8*, i8** %17, align 8
  %19 = getelementptr inbounds i8, i8* %18, i64 %16
  %20 = bitcast i8* %19 to %"class.memory_instrumentation::mojom::internal::ClientProcess_RequestChromeMemoryDump_ResponseParams_Data"*
  call void @_ZN22memory_instrumentation5mojom8internal57ClientProcess_RequestChromeMemoryDump_ResponseParams_DataC1Ev(%"class.memory_instrumentation::mojom::internal::ClientProcess_RequestChromeMemoryDump_ResponseParams_Data"* %20) #15
  %21 = load i8*, i8** %17, align 8
  %22 = getelementptr inbounds i8, i8* %21, i64 %16
  %23 = getelementptr inbounds i8, i8* %22, i64 8
  %24 = load i8, i8* %23, align 8
  %25 = and i8 %24, -2
  %26 = or i8 %25, %9
  store i8 %26, i8* %23, align 8
  %27 = load i8*, i8** %17, align 8
  %28 = getelementptr inbounds i8, i8* %27, i64 %16
  %29 = getelementptr inbounds i8, i8* %28, i64 16
  %30 = bitcast i8* %29 to i64*
  store i64 %2, i64* %30, align 8
  %31 = bitcast %"class.mojo::internal::MessageFragment.189"* %7 to i8*
  call void @llvm.lifetime.start.p0i8(i64 16, i8* nonnull %31) #15
  %32 = getelementptr inbounds %"class.mojo::internal::MessageFragment.189", %"class.mojo::internal::MessageFragment.189"* %7, i64 0, i32 0
  %33 = getelementptr inbounds %"class.mojo::internal::MessageFragment.189", %"class.mojo::internal::MessageFragment.189"* %7, i64 0, i32 1
  store %"class.mojo::Message"* %6, %"class.mojo::Message"** %32, align 8
  store i64 -1, i64* %33, align 8
  call void @_ZN4mojo8internal10SerializerIN22memory_instrumentation5mojom28RawProcessMemoryDumpDataViewENSt3__110unique_ptrIN4base11trace_event17ProcessMemoryDumpENS5_14default_deleteIS9_EEEEE9SerializeERSC_RNS0_15MessageFragmentINS3_8internal25RawProcessMemoryDump_DataEEE(%"class.std::__1::unique_ptr.158"* nonnull dereferenceable(8) %5, %"class.mojo::internal::MessageFragment.189"* nonnull dereferenceable(16) %7) #15
  %34 = load i8*, i8** %17, align 8
  %35 = getelementptr inbounds i8, i8* %34, i64 %16
  %36 = getelementptr inbounds i8, i8* %35, i64 24
  %37 = load i64, i64* %33, align 8
  %38 = icmp eq i64 %37, -1
  br i1 %38, label %45, label %39

39:                                               ; preds = %4
  %40 = load %"class.mojo::Message"*, %"class.mojo::Message"** %32, align 8
  %41 = getelementptr inbounds %"class.mojo::Message", %"class.mojo::Message"* %40, i64 0, i32 1, i32 2
  %42 = load i8*, i8** %41, align 8
  %43 = getelementptr inbounds i8, i8* %42, i64 %37
  %44 = bitcast i8* %43 to %"class.memory_instrumentation::mojom::internal::RawProcessMemoryDump_Data"*
  br label %45

45:                                               ; preds = %4, %39
  %46 = phi %"class.memory_instrumentation::mojom::internal::RawProcessMemoryDump_Data"* [ %44, %39 ], [ null, %4 ]
  %47 = bitcast i8* %36 to i64*
  %48 = icmp eq %"class.memory_instrumentation::mojom::internal::RawProcessMemoryDump_Data"* %46, null
  %49 = ptrtoint %"class.memory_instrumentation::mojom::internal::RawProcessMemoryDump_Data"* %46 to i64
  %50 = ptrtoint i8* %36 to i64
  %51 = sub i64 %49, %50
  %52 = select i1 %48, i64 0, i64 %51
  store i64 %52, i64* %47, align 8
  %53 = getelementptr inbounds %"class.memory_instrumentation::mojom::ClientProcess_RequestChromeMemoryDump_ProxyToResponder", %"class.memory_instrumentation::mojom::ClientProcess_RequestChromeMemoryDump_ProxyToResponder"* %0, i64 0, i32 0
  %54 = load i64, i64* %53, align 8
  %55 = bitcast i8** %17 to %"struct.mojo::internal::MessageHeaderV1"**
  %56 = load %"struct.mojo::internal::MessageHeaderV1"*, %"struct.mojo::internal::MessageHeaderV1"** %55, align 8
  %57 = getelementptr inbounds %"struct.mojo::internal::MessageHeaderV1", %"struct.mojo::internal::MessageHeaderV1"* %56, i64 0, i32 1
  store i64 %54, i64* %57, align 1
  %58 = getelementptr inbounds %"class.memory_instrumentation::mojom::ClientProcess_RequestChromeMemoryDump_ProxyToResponder", %"class.memory_instrumentation::mojom::ClientProcess_RequestChromeMemoryDump_ProxyToResponder"* %0, i64 0, i32 2, i32 0, i32 0, i32 0
  %59 = load %"class.mojo::MessageReceiverWithStatus"*, %"class.mojo::MessageReceiverWithStatus"** %58, align 8
  %60 = getelementptr inbounds %"class.mojo::MessageReceiverWithStatus", %"class.mojo::MessageReceiverWithStatus"* %59, i64 0, i32 0
  %61 = bitcast %"class.mojo::MessageReceiverWithStatus"* %59 to i1 (%"class.mojo::MessageReceiver"*, %"class.mojo::Message"*)***
  %62 = load i1 (%"class.mojo::MessageReceiver"*, %"class.mojo::Message"*)**, i1 (%"class.mojo::MessageReceiver"*, %"class.mojo::Message"*)*** %61, align 8
  %63 = getelementptr inbounds i1 (%"class.mojo::MessageReceiver"*, %"class.mojo::Message"*)*, i1 (%"class.mojo::MessageReceiver"*, %"class.mojo::Message"*)** %62, i64 3
  %64 = load i1 (%"class.mojo::MessageReceiver"*, %"class.mojo::Message"*)*, i1 (%"class.mojo::MessageReceiver"*, %"class.mojo::Message"*)** %63, align 8
  %65 = call zeroext i1 %64(%"class.mojo::MessageReceiver"* %60, %"class.mojo::Message"* nonnull %6) #15
  %66 = load %"class.mojo::MessageReceiverWithStatus"*, %"class.mojo::MessageReceiverWithStatus"** %58, align 8
  store %"class.mojo::MessageReceiverWithStatus"* null, %"class.mojo::MessageReceiverWithStatus"** %58, align 8
  %67 = icmp eq %"class.mojo::MessageReceiverWithStatus"* %66, null
  br i1 %67, label %73, label %68

68:                                               ; preds = %45
  %69 = bitcast %"class.mojo::MessageReceiverWithStatus"* %66 to void (%"class.mojo::MessageReceiverWithStatus"*)***
  %70 = load void (%"class.mojo::MessageReceiverWithStatus"*)**, void (%"class.mojo::MessageReceiverWithStatus"*)*** %69, align 8
  %71 = getelementptr inbounds void (%"class.mojo::MessageReceiverWithStatus"*)*, void (%"class.mojo::MessageReceiverWithStatus"*)** %70, i64 1
  %72 = load void (%"class.mojo::MessageReceiverWithStatus"*)*, void (%"class.mojo::MessageReceiverWithStatus"*)** %71, align 8
  call void %72(%"class.mojo::MessageReceiverWithStatus"* nonnull %66) #15
  br label %73

73:                                               ; preds = %45, %68
  call void @llvm.lifetime.end.p0i8(i64 16, i8* nonnull %31) #15
  call void @_ZN4mojo7MessageD1Ev(%"class.mojo::Message"* nonnull %6) #15
  call void @llvm.lifetime.end.p0i8(i64 120, i8* nonnull %14) #15
  %74 = load %"class.base::trace_event::ProcessMemoryDump"*, %"class.base::trace_event::ProcessMemoryDump"** %8, align 8
  store %"class.base::trace_event::ProcessMemoryDump"* null, %"class.base::trace_event::ProcessMemoryDump"** %8, align 8
  %75 = icmp eq %"class.base::trace_event::ProcessMemoryDump"* %74, null
  br i1 %75, label %78, label %76

76:                                               ; preds = %73
  call void @_ZN4base11trace_event17ProcessMemoryDumpD1Ev(%"class.base::trace_event::ProcessMemoryDump"* nonnull %74) #15
  %77 = bitcast %"class.base::trace_event::ProcessMemoryDump"* %74 to i8*
  call void @_ZdlPv(i8* %77) #16
  br label %78

78:                                               ; preds = %73, %76
  ret void
}

; Function Attrs: nounwind ssp uwtable
define hidden zeroext i1 @_ZN22memory_instrumentation5mojom51ClientProcess_RequestOSMemoryDump_ForwardToCallback6AcceptEPN4mojo7MessageE(%"class.memory_instrumentation::mojom::ClientProcess_RequestOSMemoryDump_ForwardToCallback"* nocapture, %"class.mojo::Message"*) unnamed_addr #2 align 2 {
  %3 = alloca %"class.base::OnceCallback.153", align 8
  %4 = alloca %"class.base::flat_map.193", align 16
  %5 = alloca %"class.base::flat_map.193", align 16
  %6 = tail call i8* @_ZNK4mojo7Message7payloadEv(%"class.mojo::Message"* %1) #15
  %7 = bitcast %"class.base::flat_map.193"* %4 to i8*
  call void @llvm.lifetime.start.p0i8(i64 24, i8* nonnull %7) #15
  %8 = getelementptr inbounds %"class.base::flat_map.193", %"class.base::flat_map.193"* %4, i64 0, i32 0, i32 0, i32 0, i32 0
  %9 = getelementptr inbounds %"class.base::flat_map.193", %"class.base::flat_map.193"* %4, i64 0, i32 0, i32 0, i32 0, i32 1
  %10 = getelementptr inbounds %"class.base::flat_map.193", %"class.base::flat_map.193"* %4, i64 0, i32 0, i32 0, i32 0, i32 2, i32 0, i32 0
  %11 = getelementptr inbounds i8, i8* %6, i64 8
  %12 = bitcast %"class.base::flat_map.193"* %4 to i8*
  call void @llvm.memset.p0i8.i64(i8* nonnull align 16 %12, i8 0, i64 24, i1 false)
  %13 = load i8, i8* %11, align 1
  %14 = and i8 %13, 1
  %15 = icmp ne i8 %14, 0
  %16 = getelementptr inbounds i8, i8* %6, i64 16
  %17 = bitcast i8* %16 to i64*
  %18 = load i64, i64* %17, align 8
  %19 = icmp eq i64 %18, 0
  %20 = getelementptr inbounds i8, i8* %16, i64 %18
  %21 = bitcast i8* %20 to %"class.mojo::internal::Map_Data"*
  %22 = select i1 %19, %"class.mojo::internal::Map_Data"* null, %"class.mojo::internal::Map_Data"* %21
  %23 = call zeroext i1 @_ZN4mojo8internal10SerializerINS_11MapDataViewIN9mojo_base5mojom17ProcessIdDataViewEN22memory_instrumentation5mojom20RawOSMemDumpDataViewEEEN4base8flat_mapIiNS_9StructPtrINS7_12RawOSMemDumpEEENSt3__14lessIvEENSF_6vectorINSF_4pairIiSE_EENSF_9allocatorISK_EEEEEEE11DeserializeEPNS0_8Map_DataINS0_7PointerINS4_8internal14ProcessId_DataEEENSR_INS7_8internal17RawOSMemDump_DataEEEEEPSO_PNS_7MessageE(%"class.mojo::internal::Map_Data"* %22, %"class.base::flat_map.193"* nonnull %4, %"class.mojo::Message"* %1) #15
  br i1 %23, label %25, label %24

24:                                               ; preds = %2
  call void @_ZN4mojo8internal31ReportValidationErrorForMessageEPNS_7MessageENS0_15ValidationErrorEPKcjb(%"class.mojo::Message"* %1, i32 17, i8* getelementptr inbounds ([43 x i8], [43 x i8]* @_ZN22memory_instrumentation5mojom13ClientProcess5Name_E, i64 0, i64 0), i32 1, i1 zeroext true) #15
  br label %82

25:                                               ; preds = %2
  %26 = getelementptr inbounds %"class.memory_instrumentation::mojom::ClientProcess_RequestOSMemoryDump_ForwardToCallback", %"class.memory_instrumentation::mojom::ClientProcess_RequestOSMemoryDump_ForwardToCallback"* %0, i64 0, i32 1, i32 0, i32 0, i32 0
  %27 = load %"class.base::internal::BindStateBase"*, %"class.base::internal::BindStateBase"** %26, align 8
  %28 = icmp eq %"class.base::internal::BindStateBase"* %27, null
  br i1 %28, label %82, label %29

29:                                               ; preds = %25
  %30 = ptrtoint %"class.base::internal::BindStateBase"* %27 to i64
  %31 = bitcast %"class.base::flat_map.193"* %4 to <2 x i64>*
  %32 = load <2 x i64>, <2 x i64>* %31, align 16
  %33 = getelementptr inbounds %"class.base::flat_map.193", %"class.base::flat_map.193"* %5, i64 0, i32 0, i32 0, i32 0, i32 1
  %34 = bitcast %"class.base::flat_map.193"* %5 to <2 x i64>*
  store <2 x i64> %32, <2 x i64>* %34, align 16
  %35 = bitcast %"struct.std::__1::pair.197"** %10 to i64*
  %36 = load i64, i64* %35, align 16
  %37 = getelementptr inbounds %"class.base::flat_map.193", %"class.base::flat_map.193"* %5, i64 0, i32 0, i32 0, i32 0, i32 2, i32 0, i32 0
  %38 = bitcast %"struct.std::__1::pair.197"** %37 to i64*
  store i64 %36, i64* %38, align 16
  call void @llvm.memset.p0i8.i64(i8* nonnull align 16 %7, i8 0, i64 24, i1 false) #15
  %39 = bitcast %"class.base::OnceCallback.153"* %3 to i8*
  call void @llvm.lifetime.start.p0i8(i64 8, i8* nonnull %39) #15
  %40 = bitcast %"class.base::OnceCallback.153"* %3 to i64*
  store i64 %30, i64* %40, align 8
  store %"class.base::internal::BindStateBase"* null, %"class.base::internal::BindStateBase"** %26, align 8
  %41 = getelementptr inbounds %"class.base::OnceCallback.153", %"class.base::OnceCallback.153"* %3, i64 0, i32 0
  %42 = getelementptr inbounds %"class.base::internal::BindStateBase", %"class.base::internal::BindStateBase"* %27, i64 0, i32 1
  %43 = bitcast void ()** %42 to void (%"class.base::internal::BindStateBase"*, i1, %"class.base::flat_map.193"*)**
  %44 = load void (%"class.base::internal::BindStateBase"*, i1, %"class.base::flat_map.193"*)*, void (%"class.base::internal::BindStateBase"*, i1, %"class.base::flat_map.193"*)** %43, align 8
  call void %44(%"class.base::internal::BindStateBase"* nonnull %27, i1 zeroext %15, %"class.base::flat_map.193"* nonnull dereferenceable(24) %5) #15
  call void @_ZN4base8internal12CallbackBaseD2Ev(%"class.base::internal::CallbackBase"* nonnull %41) #15
  call void @llvm.lifetime.end.p0i8(i64 8, i8* nonnull %39) #15
  %45 = getelementptr inbounds %"class.base::flat_map.193", %"class.base::flat_map.193"* %5, i64 0, i32 0, i32 0, i32 0, i32 0
  %46 = load %"struct.std::__1::pair.197"*, %"struct.std::__1::pair.197"** %45, align 16
  %47 = icmp eq %"struct.std::__1::pair.197"* %46, null
  br i1 %47, label %82, label %48

48:                                               ; preds = %29
  %49 = bitcast %"struct.std::__1::pair.197"* %46 to i8*
  %50 = load %"struct.std::__1::pair.197"*, %"struct.std::__1::pair.197"** %33, align 8
  %51 = icmp eq %"struct.std::__1::pair.197"* %50, %46
  br i1 %51, label %80, label %52

52:                                               ; preds = %48, %75
  %53 = phi %"struct.std::__1::pair.197"* [ %54, %75 ], [ %50, %48 ]
  %54 = getelementptr inbounds %"struct.std::__1::pair.197", %"struct.std::__1::pair.197"* %53, i64 -1
  %55 = getelementptr inbounds %"struct.std::__1::pair.197", %"struct.std::__1::pair.197"* %53, i64 -1, i32 1, i32 0, i32 0, i32 0, i32 0
  %56 = load %"class.memory_instrumentation::mojom::RawOSMemDump"*, %"class.memory_instrumentation::mojom::RawOSMemDump"** %55, align 8
  store %"class.memory_instrumentation::mojom::RawOSMemDump"* null, %"class.memory_instrumentation::mojom::RawOSMemDump"** %55, align 8
  %57 = icmp eq %"class.memory_instrumentation::mojom::RawOSMemDump"* %56, null
  br i1 %57, label %75, label %58

58:                                               ; preds = %52
  %59 = getelementptr inbounds %"class.memory_instrumentation::mojom::RawOSMemDump", %"class.memory_instrumentation::mojom::RawOSMemDump"* %56, i64 0, i32 5, i32 0, i32 0
  %60 = load i8*, i8** %59, align 8
  %61 = icmp eq i8* %60, null
  br i1 %61, label %66, label %62

62:                                               ; preds = %58
  %63 = ptrtoint i8* %60 to i64
  %64 = getelementptr inbounds %"class.memory_instrumentation::mojom::RawOSMemDump", %"class.memory_instrumentation::mojom::RawOSMemDump"* %56, i64 0, i32 5, i32 0, i32 1
  %65 = bitcast i8** %64 to i64*
  store i64 %63, i64* %65, align 8
  call void @_ZdlPv(i8* nonnull %60) #16
  br label %66

66:                                               ; preds = %62, %58
  %67 = getelementptr inbounds %"class.memory_instrumentation::mojom::RawOSMemDump", %"class.memory_instrumentation::mojom::RawOSMemDump"* %56, i64 0, i32 4
  call void @_ZNSt3__16vectorIN4mojo9StructPtrIN22memory_instrumentation5mojom8VmRegionEEENS_9allocatorIS6_EEED2Ev(%"class.std::__1::vector.68"* %67) #15
  %68 = getelementptr inbounds %"class.memory_instrumentation::mojom::RawOSMemDump", %"class.memory_instrumentation::mojom::RawOSMemDump"* %56, i64 0, i32 3, i32 0, i32 0, i32 0, i32 0
  %69 = load %"class.memory_instrumentation::mojom::PlatformPrivateFootprint"*, %"class.memory_instrumentation::mojom::PlatformPrivateFootprint"** %68, align 8
  store %"class.memory_instrumentation::mojom::PlatformPrivateFootprint"* null, %"class.memory_instrumentation::mojom::PlatformPrivateFootprint"** %68, align 8
  %70 = icmp eq %"class.memory_instrumentation::mojom::PlatformPrivateFootprint"* %69, null
  br i1 %70, label %73, label %71

71:                                               ; preds = %66
  %72 = bitcast %"class.memory_instrumentation::mojom::PlatformPrivateFootprint"* %69 to i8*
  call void @_ZdlPv(i8* %72) #16
  br label %73

73:                                               ; preds = %71, %66
  %74 = bitcast %"class.memory_instrumentation::mojom::RawOSMemDump"* %56 to i8*
  call void @_ZdlPv(i8* %74) #16
  br label %75

75:                                               ; preds = %73, %52
  %76 = icmp eq %"struct.std::__1::pair.197"* %54, %46
  br i1 %76, label %77, label %52

77:                                               ; preds = %75
  %78 = bitcast %"class.base::flat_map.193"* %5 to i8**
  %79 = load i8*, i8** %78, align 16
  br label %80

80:                                               ; preds = %48, %77
  %81 = phi i8* [ %79, %77 ], [ %49, %48 ]
  store %"struct.std::__1::pair.197"* %46, %"struct.std::__1::pair.197"** %33, align 8
  call void @_ZdlPv(i8* %81) #16
  br label %82

82:                                               ; preds = %80, %29, %25, %24
  %83 = phi i1 [ false, %24 ], [ true, %25 ], [ true, %29 ], [ true, %80 ]
  %84 = load %"struct.std::__1::pair.197"*, %"struct.std::__1::pair.197"** %8, align 16
  %85 = icmp eq %"struct.std::__1::pair.197"* %84, null
  br i1 %85, label %120, label %86

86:                                               ; preds = %82
  %87 = bitcast %"struct.std::__1::pair.197"* %84 to i8*
  %88 = load %"struct.std::__1::pair.197"*, %"struct.std::__1::pair.197"** %9, align 8
  %89 = icmp eq %"struct.std::__1::pair.197"* %88, %84
  br i1 %89, label %118, label %90

90:                                               ; preds = %86, %113
  %91 = phi %"struct.std::__1::pair.197"* [ %92, %113 ], [ %88, %86 ]
  %92 = getelementptr inbounds %"struct.std::__1::pair.197", %"struct.std::__1::pair.197"* %91, i64 -1
  %93 = getelementptr inbounds %"struct.std::__1::pair.197", %"struct.std::__1::pair.197"* %91, i64 -1, i32 1, i32 0, i32 0, i32 0, i32 0
  %94 = load %"class.memory_instrumentation::mojom::RawOSMemDump"*, %"class.memory_instrumentation::mojom::RawOSMemDump"** %93, align 8
  store %"class.memory_instrumentation::mojom::RawOSMemDump"* null, %"class.memory_instrumentation::mojom::RawOSMemDump"** %93, align 8
  %95 = icmp eq %"class.memory_instrumentation::mojom::RawOSMemDump"* %94, null
  br i1 %95, label %113, label %96

96:                                               ; preds = %90
  %97 = getelementptr inbounds %"class.memory_instrumentation::mojom::RawOSMemDump", %"class.memory_instrumentation::mojom::RawOSMemDump"* %94, i64 0, i32 5, i32 0, i32 0
  %98 = load i8*, i8** %97, align 8
  %99 = icmp eq i8* %98, null
  br i1 %99, label %104, label %100

100:                                              ; preds = %96
  %101 = ptrtoint i8* %98 to i64
  %102 = getelementptr inbounds %"class.memory_instrumentation::mojom::RawOSMemDump", %"class.memory_instrumentation::mojom::RawOSMemDump"* %94, i64 0, i32 5, i32 0, i32 1
  %103 = bitcast i8** %102 to i64*
  store i64 %101, i64* %103, align 8
  call void @_ZdlPv(i8* nonnull %98) #16
  br label %104

104:                                              ; preds = %100, %96
  %105 = getelementptr inbounds %"class.memory_instrumentation::mojom::RawOSMemDump", %"class.memory_instrumentation::mojom::RawOSMemDump"* %94, i64 0, i32 4
  call void @_ZNSt3__16vectorIN4mojo9StructPtrIN22memory_instrumentation5mojom8VmRegionEEENS_9allocatorIS6_EEED2Ev(%"class.std::__1::vector.68"* %105) #15
  %106 = getelementptr inbounds %"class.memory_instrumentation::mojom::RawOSMemDump", %"class.memory_instrumentation::mojom::RawOSMemDump"* %94, i64 0, i32 3, i32 0, i32 0, i32 0, i32 0
  %107 = load %"class.memory_instrumentation::mojom::PlatformPrivateFootprint"*, %"class.memory_instrumentation::mojom::PlatformPrivateFootprint"** %106, align 8
  store %"class.memory_instrumentation::mojom::PlatformPrivateFootprint"* null, %"class.memory_instrumentation::mojom::PlatformPrivateFootprint"** %106, align 8
  %108 = icmp eq %"class.memory_instrumentation::mojom::PlatformPrivateFootprint"* %107, null
  br i1 %108, label %111, label %109

109:                                              ; preds = %104
  %110 = bitcast %"class.memory_instrumentation::mojom::PlatformPrivateFootprint"* %107 to i8*
  call void @_ZdlPv(i8* %110) #16
  br label %111

111:                                              ; preds = %109, %104
  %112 = bitcast %"class.memory_instrumentation::mojom::RawOSMemDump"* %94 to i8*
  call void @_ZdlPv(i8* %112) #16
  br label %113

113:                                              ; preds = %111, %90
  %114 = icmp eq %"struct.std::__1::pair.197"* %92, %84
  br i1 %114, label %115, label %90

115:                                              ; preds = %113
  %116 = bitcast %"class.base::flat_map.193"* %4 to i8**
  %117 = load i8*, i8** %116, align 16
  br label %118

118:                                              ; preds = %86, %115
  %119 = phi i8* [ %117, %115 ], [ %87, %86 ]
  store %"struct.std::__1::pair.197"* %84, %"struct.std::__1::pair.197"** %9, align 8
  call void @_ZdlPv(i8* %119) #16
  br label %120

120:                                              ; preds = %82, %118
  call void @llvm.lifetime.end.p0i8(i64 24, i8* nonnull %7) #15
  ret i1 %83
}

; Function Attrs: nounwind ssp uwtable
define hidden void @_ZN22memory_instrumentation5mojom50ClientProcess_RequestOSMemoryDump_ProxyToResponder3RunEbN4base8flat_mapIiN4mojo9StructPtrINS0_12RawOSMemDumpEEENSt3__14lessIvEENS8_6vectorINS8_4pairIiS7_EENS8_9allocatorISD_EEEEEE(%"class.memory_instrumentation::mojom::ClientProcess_RequestOSMemoryDump_ProxyToResponder"* nocapture, i1 zeroext, %"class.base::flat_map.193"*) #2 align 2 {
  %4 = alloca %"class.mojo::Message", align 8
  %5 = alloca %"class.mojo::internal::MessageFragment.211", align 8
  %6 = alloca %"class.mojo::internal::ContainerValidateParams", align 8
  %7 = zext i1 %1 to i8
  %8 = getelementptr inbounds %"class.memory_instrumentation::mojom::ClientProcess_RequestOSMemoryDump_ProxyToResponder", %"class.memory_instrumentation::mojom::ClientProcess_RequestOSMemoryDump_ProxyToResponder"* %0, i64 0, i32 1
  %9 = load i8, i8* %8, align 8, !range !2
  %10 = icmp eq i8 %9, 0
  %11 = select i1 %10, i32 2, i32 6
  %12 = bitcast %"class.mojo::Message"* %4 to i8*
  call void @llvm.lifetime.start.p0i8(i64 120, i8* nonnull %12) #15
  call void @llvm.memset.p0i8.i64(i8* nonnull align 8 %12, i8 -86, i64 120, i1 false)
  call void @_ZN4mojo7MessageC1EjjmmPNSt3__16vectorINS_16ScopedHandleBaseINS_6HandleEEENS1_9allocatorIS5_EEEE(%"class.mojo::Message"* nonnull %4, i32 335459342, i32 %11, i64 0, i64 0, %"class.std::__1::vector"* null) #15
  %13 = getelementptr inbounds %"class.mojo::Message", %"class.mojo::Message"* %4, i64 0, i32 1
  %14 = call i64 @_ZN4mojo8internal6Buffer8AllocateEm(%"class.mojo::internal::Buffer"* %13, i64 24) #15
  %15 = getelementptr inbounds %"class.mojo::Message", %"class.mojo::Message"* %4, i64 0, i32 1, i32 2
  %16 = load i8*, i8** %15, align 8
  %17 = getelementptr inbounds i8, i8* %16, i64 %14
  %18 = bitcast i8* %17 to %"class.memory_instrumentation::mojom::internal::ClientProcess_RequestOSMemoryDump_ResponseParams_Data"*
  call void @_ZN22memory_instrumentation5mojom8internal53ClientProcess_RequestOSMemoryDump_ResponseParams_DataC1Ev(%"class.memory_instrumentation::mojom::internal::ClientProcess_RequestOSMemoryDump_ResponseParams_Data"* %18) #15
  %19 = load i8*, i8** %15, align 8
  %20 = getelementptr inbounds i8, i8* %19, i64 %14
  %21 = getelementptr inbounds i8, i8* %20, i64 8
  %22 = load i8, i8* %21, align 1
  %23 = and i8 %22, -2
  %24 = or i8 %23, %7
  store i8 %24, i8* %21, align 1
  %25 = bitcast %"class.mojo::internal::MessageFragment.211"* %5 to i8*
  call void @llvm.lifetime.start.p0i8(i64 16, i8* nonnull %25) #15
  %26 = getelementptr inbounds %"class.mojo::internal::MessageFragment.211", %"class.mojo::internal::MessageFragment.211"* %5, i64 0, i32 0
  %27 = getelementptr inbounds %"class.mojo::internal::MessageFragment.211", %"class.mojo::internal::MessageFragment.211"* %5, i64 0, i32 1
  store %"class.mojo::Message"* %4, %"class.mojo::Message"** %26, align 8
  store i64 -1, i64* %27, align 8
  %28 = bitcast %"class.mojo::internal::ContainerValidateParams"* %6 to i8*
  call void @llvm.lifetime.start.p0i8(i64 32, i8* nonnull %28) #15
  %29 = bitcast %"class.mojo::internal::ContainerValidateParams"* %6 to i64*
  store i64 -6148914691236517206, i64* %29, align 8
  %30 = call i8* @_Znwm(i64 32) #16
  %31 = bitcast i8* %30 to i32*
  store i32 0, i32* %31, align 8
  %32 = getelementptr inbounds i8, i8* %30, i64 4
  store i8 0, i8* %32, align 4
  %33 = getelementptr inbounds i8, i8* %30, i64 8
  call void @llvm.memset.p0i8.i64(i8* align 8 %33, i8 0, i64 24, i1 false)
  %34 = call i8* @_Znwm(i64 32) #16
  %35 = bitcast i8* %34 to i32*
  store i32 0, i32* %35, align 8
  %36 = getelementptr inbounds i8, i8* %34, i64 4
  store i8 0, i8* %36, align 4
  %37 = getelementptr inbounds i8, i8* %34, i64 8
  %38 = getelementptr inbounds %"class.mojo::internal::ContainerValidateParams", %"class.mojo::internal::ContainerValidateParams"* %6, i64 0, i32 0
  call void @llvm.memset.p0i8.i64(i8* align 8 %37, i8 0, i64 24, i1 false)
  store i32 0, i32* %38, align 8
  %39 = getelementptr inbounds %"class.mojo::internal::ContainerValidateParams", %"class.mojo::internal::ContainerValidateParams"* %6, i64 0, i32 1
  store i8 0, i8* %39, align 4
  %40 = getelementptr inbounds %"class.mojo::internal::ContainerValidateParams", %"class.mojo::internal::ContainerValidateParams"* %6, i64 0, i32 2
  %41 = bitcast %"class.mojo::internal::ContainerValidateParams"** %40 to i8**
  store i8* %30, i8** %41, align 8
  %42 = getelementptr inbounds %"class.mojo::internal::ContainerValidateParams", %"class.mojo::internal::ContainerValidateParams"* %6, i64 0, i32 3
  %43 = bitcast %"class.mojo::internal::ContainerValidateParams"** %42 to i8**
  store i8* %34, i8** %43, align 8
  %44 = getelementptr inbounds %"class.mojo::internal::ContainerValidateParams", %"class.mojo::internal::ContainerValidateParams"* %6, i64 0, i32 4
  store i1 (i32, %"class.mojo::internal::ValidationContext"*)* null, i1 (i32, %"class.mojo::internal::ValidationContext"*)** %44, align 8
  call void @_ZN4mojo8internal10SerializerINS_11MapDataViewIN9mojo_base5mojom17ProcessIdDataViewEN22memory_instrumentation5mojom20RawOSMemDumpDataViewEEEN4base8flat_mapIiNS_9StructPtrINS7_12RawOSMemDumpEEENSt3__14lessIvEENSF_6vectorINSF_4pairIiSE_EENSF_9allocatorISK_EEEEEEE9SerializeERSO_RNS0_15MessageFragmentINS0_8Map_DataINS0_7PointerINS4_8internal14ProcessId_DataEEENST_INS7_8internal17RawOSMemDump_DataEEEEEEEPKNS0_23ContainerValidateParamsE(%"class.base::flat_map.193"* dereferenceable(24) %2, %"class.mojo::internal::MessageFragment.211"* nonnull dereferenceable(16) %5, %"class.mojo::internal::ContainerValidateParams"* nonnull %6) #15
  %45 = load i8*, i8** %15, align 8
  %46 = getelementptr inbounds i8, i8* %45, i64 %14
  %47 = getelementptr inbounds i8, i8* %46, i64 16
  %48 = load i64, i64* %27, align 8
  %49 = icmp eq i64 %48, -1
  br i1 %49, label %56, label %50

50:                                               ; preds = %3
  %51 = load %"class.mojo::Message"*, %"class.mojo::Message"** %26, align 8
  %52 = getelementptr inbounds %"class.mojo::Message", %"class.mojo::Message"* %51, i64 0, i32 1, i32 2
  %53 = load i8*, i8** %52, align 8
  %54 = getelementptr inbounds i8, i8* %53, i64 %48
  %55 = bitcast i8* %54 to %"class.mojo::internal::Map_Data"*
  br label %56

56:                                               ; preds = %3, %50
  %57 = phi %"class.mojo::internal::Map_Data"* [ %55, %50 ], [ null, %3 ]
  %58 = bitcast i8* %47 to i64*
  %59 = icmp eq %"class.mojo::internal::Map_Data"* %57, null
  %60 = ptrtoint %"class.mojo::internal::Map_Data"* %57 to i64
  %61 = ptrtoint i8* %47 to i64
  %62 = sub i64 %60, %61
  %63 = select i1 %59, i64 0, i64 %62
  store i64 %63, i64* %58, align 8
  %64 = getelementptr inbounds %"class.memory_instrumentation::mojom::ClientProcess_RequestOSMemoryDump_ProxyToResponder", %"class.memory_instrumentation::mojom::ClientProcess_RequestOSMemoryDump_ProxyToResponder"* %0, i64 0, i32 0
  %65 = load i64, i64* %64, align 8
  %66 = bitcast i8** %15 to %"struct.mojo::internal::MessageHeaderV1"**
  %67 = load %"struct.mojo::internal::MessageHeaderV1"*, %"struct.mojo::internal::MessageHeaderV1"** %66, align 8
  %68 = getelementptr inbounds %"struct.mojo::internal::MessageHeaderV1", %"struct.mojo::internal::MessageHeaderV1"* %67, i64 0, i32 1
  store i64 %65, i64* %68, align 1
  %69 = getelementptr inbounds %"class.memory_instrumentation::mojom::ClientProcess_RequestOSMemoryDump_ProxyToResponder", %"class.memory_instrumentation::mojom::ClientProcess_RequestOSMemoryDump_ProxyToResponder"* %0, i64 0, i32 2, i32 0, i32 0, i32 0
  %70 = load %"class.mojo::MessageReceiverWithStatus"*, %"class.mojo::MessageReceiverWithStatus"** %69, align 8
  %71 = getelementptr inbounds %"class.mojo::MessageReceiverWithStatus", %"class.mojo::MessageReceiverWithStatus"* %70, i64 0, i32 0
  %72 = bitcast %"class.mojo::MessageReceiverWithStatus"* %70 to i1 (%"class.mojo::MessageReceiver"*, %"class.mojo::Message"*)***
  %73 = load i1 (%"class.mojo::MessageReceiver"*, %"class.mojo::Message"*)**, i1 (%"class.mojo::MessageReceiver"*, %"class.mojo::Message"*)*** %72, align 8
  %74 = getelementptr inbounds i1 (%"class.mojo::MessageReceiver"*, %"class.mojo::Message"*)*, i1 (%"class.mojo::MessageReceiver"*, %"class.mojo::Message"*)** %73, i64 3
  %75 = load i1 (%"class.mojo::MessageReceiver"*, %"class.mojo::Message"*)*, i1 (%"class.mojo::MessageReceiver"*, %"class.mojo::Message"*)** %74, align 8
  %76 = call zeroext i1 %75(%"class.mojo::MessageReceiver"* %71, %"class.mojo::Message"* nonnull %4) #15
  %77 = load %"class.mojo::MessageReceiverWithStatus"*, %"class.mojo::MessageReceiverWithStatus"** %69, align 8
  store %"class.mojo::MessageReceiverWithStatus"* null, %"class.mojo::MessageReceiverWithStatus"** %69, align 8
  %78 = icmp eq %"class.mojo::MessageReceiverWithStatus"* %77, null
  br i1 %78, label %84, label %79

79:                                               ; preds = %56
  %80 = bitcast %"class.mojo::MessageReceiverWithStatus"* %77 to void (%"class.mojo::MessageReceiverWithStatus"*)***
  %81 = load void (%"class.mojo::MessageReceiverWithStatus"*)**, void (%"class.mojo::MessageReceiverWithStatus"*)*** %80, align 8
  %82 = getelementptr inbounds void (%"class.mojo::MessageReceiverWithStatus"*)*, void (%"class.mojo::MessageReceiverWithStatus"*)** %81, i64 1
  %83 = load void (%"class.mojo::MessageReceiverWithStatus"*)*, void (%"class.mojo::MessageReceiverWithStatus"*)** %82, align 8
  call void %83(%"class.mojo::MessageReceiverWithStatus"* nonnull %77) #15
  br label %84

84:                                               ; preds = %56, %79
  call void @_ZN4mojo8internal23ContainerValidateParamsD2Ev(%"class.mojo::internal::ContainerValidateParams"* nonnull %6) #15
  call void @llvm.lifetime.end.p0i8(i64 32, i8* nonnull %28) #15
  call void @llvm.lifetime.end.p0i8(i64 16, i8* nonnull %25) #15
  call void @_ZN4mojo7MessageD1Ev(%"class.mojo::Message"* nonnull %4) #15
  call void @llvm.lifetime.end.p0i8(i64 120, i8* nonnull %12) #15
  ret void
}

; Function Attrs: norecurse nounwind readonly ssp uwtable
define hidden zeroext i1 @_ZN22memory_instrumentation5mojom25ClientProcessStubDispatch6AcceptEPNS0_13ClientProcessEPN4mojo7MessageE(%"class.memory_instrumentation::mojom::ClientProcess"* nocapture readnone, %"class.mojo::Message"* nocapture readonly) local_unnamed_addr #5 align 2 {
  ret i1 false
}

; Function Attrs: nounwind ssp uwtable
define hidden zeroext i1 @_ZN22memory_instrumentation5mojom25ClientProcessStubDispatch19AcceptWithResponderEPNS0_13ClientProcessEPN4mojo7MessageENSt3__110unique_ptrINS4_25MessageReceiverWithStatusENS7_14default_deleteIS9_EEEE(%"class.memory_instrumentation::mojom::ClientProcess"*, %"class.mojo::Message"*, %"class.mojo::MessageReceiverWithStatus"*) local_unnamed_addr #2 align 2 {
  %4 = alloca %"class.base::TaskAnnotator::ScopedSetIpcHash", align 8
  %5 = alloca %"struct.base::trace_event::MemoryDumpRequestArgs", align 8
  %6 = alloca %"class.base::OnceCallback", align 8
  %7 = alloca %"class.base::OnceCallback", align 8
  %8 = alloca %"class.base::TaskAnnotator::ScopedSetIpcHash", align 8
  %9 = alloca %"class.std::__1::vector.146", align 8
  %10 = alloca %"class.base::OnceCallback.153", align 8
  %11 = alloca %"class.base::OnceCallback.153", align 8
  %12 = ptrtoint %"class.mojo::MessageReceiverWithStatus"* %2 to i64
  %13 = getelementptr inbounds %"class.mojo::Message", %"class.mojo::Message"* %1, i64 0, i32 1, i32 2
  %14 = bitcast i8** %13 to %"struct.mojo::internal::MessageHeader"**
  %15 = load %"struct.mojo::internal::MessageHeader"*, %"struct.mojo::internal::MessageHeader"** %14, align 8
  %16 = getelementptr inbounds %"struct.mojo::internal::MessageHeader", %"struct.mojo::internal::MessageHeader"* %15, i64 0, i32 3
  %17 = load i32, i32* %16, align 1
  %18 = and i32 %17, 4
  %19 = bitcast i8** %13 to %"struct.mojo::internal::MessageHeaderV1"**
  %20 = getelementptr inbounds %"struct.mojo::internal::MessageHeader", %"struct.mojo::internal::MessageHeader"* %15, i64 0, i32 2
  %21 = load i32, i32* %20, align 1
  switch i32 %21, label %172 [
    i32 440579497, label %22
    i32 335459342, label %63
  ]

22:                                               ; preds = %3
  %23 = bitcast %"class.base::TaskAnnotator::ScopedSetIpcHash"* %4 to i8*
  call void @llvm.lifetime.start.p0i8(i64 24, i8* nonnull %23) #15
  call void @llvm.memset.p0i8.i64(i8* nonnull align 8 %23, i8 -86, i64 24, i1 false)
  call void @_ZN4base13TaskAnnotator16ScopedSetIpcHashC1Ej(%"class.base::TaskAnnotator::ScopedSetIpcHash"* nonnull %4, i32 -145993311) #15
  %24 = call i8* @_ZNK4mojo7Message7payloadEv(%"class.mojo::Message"* %1) #15
  %25 = bitcast %"struct.base::trace_event::MemoryDumpRequestArgs"* %5 to i8*
  call void @llvm.lifetime.start.p0i8(i64 24, i8* nonnull %25) #15
  call void @llvm.memset.p0i8.i64(i8* nonnull align 8 %25, i8 0, i64 24, i1 false)
  %26 = getelementptr inbounds i8, i8* %24, i64 8
  %27 = bitcast i8* %26 to i64*
  %28 = load i64, i64* %27, align 8
  %29 = icmp eq i64 %28, 0
  br i1 %29, label %35, label %30

30:                                               ; preds = %22
  %31 = getelementptr inbounds i8, i8* %26, i64 %28
  %32 = bitcast i8* %31 to %"class.memory_instrumentation::mojom::internal::RequestArgs_Data"*
  %33 = call zeroext i1 @_ZN4mojo12StructTraitsIN22memory_instrumentation5mojom19RequestArgsDataViewEN4base11trace_event21MemoryDumpRequestArgsEE4ReadES3_PS6_(%"class.memory_instrumentation::mojom::internal::RequestArgs_Data"* nonnull %32, %"struct.base::trace_event::MemoryDumpRequestArgs"* nonnull %5) #15
  br i1 %33, label %35, label %34

34:                                               ; preds = %30
  call void @_ZN4mojo8internal31ReportValidationErrorForMessageEPNS_7MessageENS0_15ValidationErrorEPKcjb(%"class.mojo::Message"* %1, i32 17, i8* getelementptr inbounds ([43 x i8], [43 x i8]* @_ZN22memory_instrumentation5mojom13ClientProcess5Name_E, i64 0, i64 0), i32 0, i1 zeroext false) #15
  br label %166

35:                                               ; preds = %22, %30
  %36 = bitcast %"class.base::OnceCallback"* %6 to i8*
  call void @llvm.lifetime.start.p0i8(i64 8, i8* nonnull %36) #15
  %37 = getelementptr inbounds %"class.base::OnceCallback", %"class.base::OnceCallback"* %6, i64 0, i32 0, i32 0, i32 0
  %38 = load %"struct.mojo::internal::MessageHeaderV1"*, %"struct.mojo::internal::MessageHeaderV1"** %19, align 8
  %39 = getelementptr inbounds %"struct.mojo::internal::MessageHeaderV1", %"struct.mojo::internal::MessageHeaderV1"* %38, i64 0, i32 1
  %40 = load i64, i64* %39, align 1
  %41 = call i8* @_Znwm(i64 24) #16, !noalias !3
  %42 = lshr exact i32 %18, 2
  %43 = trunc i32 %42 to i8
  %44 = bitcast i8* %41 to i64*
  store i64 %40, i64* %44, align 8, !noalias !3
  %45 = getelementptr inbounds i8, i8* %41, i64 8
  store i8 %43, i8* %45, align 8, !noalias !3
  %46 = getelementptr inbounds i8, i8* %41, i64 16
  %47 = bitcast i8* %46 to i64*
  store i64 %12, i64* %47, align 8, !noalias !3
  %48 = ptrtoint i8* %41 to i64
  %49 = call i8* @_Znwm(i64 56) #16, !noalias !6
  %50 = bitcast i8* %49 to %"class.base::internal::BindStateBase"*
  call void @_ZN4base8internal13BindStateBaseC2EPFvvEPFvPKS1_E(%"class.base::internal::BindStateBase"* nonnull %50, void ()* bitcast (void (%"class.base::internal::BindStateBase"*, i1, i64, %"class.std::__1::unique_ptr.158"*)* @_ZN4base8internal7InvokerINS0_9BindStateIMN22memory_instrumentation5mojom54ClientProcess_RequestChromeMemoryDump_ProxyToResponderEFvbmNSt3__110unique_ptrINS_11trace_event17ProcessMemoryDumpENS6_14default_deleteIS9_EEEEEJNS7_IS5_NSA_IS5_EEEEEEEFvbmSC_EE7RunOnceEPNS0_13BindStateBaseEbmOSC_ to void ()*), void (%"class.base::internal::BindStateBase"*)* nonnull @_ZN4base8internal9BindStateIMN22memory_instrumentation5mojom54ClientProcess_RequestChromeMemoryDump_ProxyToResponderEFvbmNSt3__110unique_ptrINS_11trace_event17ProcessMemoryDumpENS5_14default_deleteIS8_EEEEEJNS6_IS4_NS9_IS4_EEEEEE7DestroyEPKNS0_13BindStateBaseE) #15, !noalias !6
  %51 = getelementptr inbounds i8, i8* %49, i64 32
  %52 = bitcast i8* %51 to <2 x i64>*
  store <2 x i64> <i64 ptrtoint (void (%"class.memory_instrumentation::mojom::ClientProcess_RequestChromeMemoryDump_ProxyToResponder"*, i1, i64, %"class.base::trace_event::ProcessMemoryDump"*)* @_ZN22memory_instrumentation5mojom54ClientProcess_RequestChromeMemoryDump_ProxyToResponder3RunEbmNSt3__110unique_ptrIN4base11trace_event17ProcessMemoryDumpENS2_14default_deleteIS6_EEEE to i64), i64 0>, <2 x i64>* %52, align 8, !noalias !6
  %53 = getelementptr inbounds i8, i8* %49, i64 48
  %54 = bitcast i8* %53 to i64*
  store i64 %48, i64* %54, align 8, !noalias !6
  %55 = ptrtoint i8* %49 to i64
  %56 = bitcast %"class.base::OnceCallback"* %7 to i64*
  store i64 %55, i64* %56, align 8
  store %"class.base::internal::BindStateBase"* null, %"class.base::internal::BindStateBase"** %37, align 8
  %57 = bitcast %"class.memory_instrumentation::mojom::ClientProcess"* %0 to void (%"class.memory_instrumentation::mojom::ClientProcess"*, %"struct.base::trace_event::MemoryDumpRequestArgs"*, %"class.base::OnceCallback"*)***
  %58 = load void (%"class.memory_instrumentation::mojom::ClientProcess"*, %"struct.base::trace_event::MemoryDumpRequestArgs"*, %"class.base::OnceCallback"*)**, void (%"class.memory_instrumentation::mojom::ClientProcess"*, %"struct.base::trace_event::MemoryDumpRequestArgs"*, %"class.base::OnceCallback"*)*** %57, align 8
  %59 = getelementptr inbounds void (%"class.memory_instrumentation::mojom::ClientProcess"*, %"struct.base::trace_event::MemoryDumpRequestArgs"*, %"class.base::OnceCallback"*)*, void (%"class.memory_instrumentation::mojom::ClientProcess"*, %"struct.base::trace_event::MemoryDumpRequestArgs"*, %"class.base::OnceCallback"*)** %58, i64 2
  %60 = load void (%"class.memory_instrumentation::mojom::ClientProcess"*, %"struct.base::trace_event::MemoryDumpRequestArgs"*, %"class.base::OnceCallback"*)*, void (%"class.memory_instrumentation::mojom::ClientProcess"*, %"struct.base::trace_event::MemoryDumpRequestArgs"*, %"class.base::OnceCallback"*)** %59, align 8
  call void %60(%"class.memory_instrumentation::mojom::ClientProcess"* %0, %"struct.base::trace_event::MemoryDumpRequestArgs"* nonnull dereferenceable(24) %5, %"class.base::OnceCallback"* nonnull %7) #15
  %61 = getelementptr inbounds %"class.base::OnceCallback", %"class.base::OnceCallback"* %7, i64 0, i32 0
  call void @_ZN4base8internal12CallbackBaseD2Ev(%"class.base::internal::CallbackBase"* nonnull %61) #15
  %62 = getelementptr inbounds %"class.base::OnceCallback", %"class.base::OnceCallback"* %6, i64 0, i32 0
  call void @_ZN4base8internal12CallbackBaseD2Ev(%"class.base::internal::CallbackBase"* nonnull %62) #15
  call void @llvm.lifetime.end.p0i8(i64 8, i8* nonnull %36) #15
  br label %166

63:                                               ; preds = %3
  %64 = bitcast %"class.base::TaskAnnotator::ScopedSetIpcHash"* %8 to i8*
  call void @llvm.lifetime.start.p0i8(i64 24, i8* nonnull %64) #15
  call void @llvm.memset.p0i8.i64(i8* nonnull align 8 %64, i8 -86, i64 24, i1 false)
  call void @_ZN4base13TaskAnnotator16ScopedSetIpcHashC1Ej(%"class.base::TaskAnnotator::ScopedSetIpcHash"* nonnull %8, i32 2083992172) #15
  %65 = call i8* @_ZNK4mojo7Message7payloadEv(%"class.mojo::Message"* %1) #15
  %66 = bitcast %"class.std::__1::vector.146"* %9 to i8*
  call void @llvm.lifetime.start.p0i8(i64 24, i8* nonnull %66) #15
  %67 = getelementptr inbounds %"class.std::__1::vector.146", %"class.std::__1::vector.146"* %9, i64 0, i32 0, i32 0
  %68 = getelementptr inbounds %"class.std::__1::vector.146", %"class.std::__1::vector.146"* %9, i64 0, i32 0, i32 1
  %69 = getelementptr inbounds %"class.std::__1::vector.146", %"class.std::__1::vector.146"* %9, i64 0, i32 0, i32 2, i32 0, i32 0
  call void @llvm.memset.p0i8.i64(i8* nonnull align 8 %66, i8 0, i64 24, i1 false) #15
  %70 = getelementptr inbounds i8, i8* %65, i64 8
  %71 = bitcast i8* %70 to i32*
  %72 = load i32, i32* %71, align 4
  %73 = getelementptr inbounds i8, i8* %65, i64 16
  %74 = bitcast i8* %73 to i64*
  %75 = load i64, i64* %74, align 8
  %76 = icmp eq i64 %75, 0
  br i1 %76, label %77, label %79

77:                                               ; preds = %63
  %78 = bitcast i32** %68 to i64*
  store i64 0, i64* %78, align 8
  br label %129

79:                                               ; preds = %63
  %80 = getelementptr inbounds i8, i8* %73, i64 %75
  %81 = getelementptr inbounds i8, i8* %80, i64 4
  %82 = bitcast i8* %81 to i32*
  %83 = load i32, i32* %82, align 1
  %84 = zext i32 %83 to i64
  %85 = icmp eq i32 %83, 0
  br i1 %85, label %129, label %86

86:                                               ; preds = %79
  %87 = bitcast %"class.std::__1::vector.146"* %9 to i64*
  %88 = bitcast i32** %68 to i64*
  %89 = shl nuw nsw i64 %84, 2
  %90 = call i8* @_Znwm(i64 %89) #16
  %91 = bitcast i8* %90 to i32*
  %92 = getelementptr inbounds i32, i32* %91, i64 %84
  %93 = ptrtoint i8* %90 to i64
  %94 = add nsw i64 %84, -1
  %95 = getelementptr i32, i32* %91, i64 %94
  %96 = ptrtoint i32* %95 to i64
  %97 = sub i64 4, %93
  %98 = add i64 %97, %96
  %99 = and i64 %98, -4
  call void @llvm.memset.p0i8.i64(i8* nonnull align 4 %90, i8 0, i64 %99, i1 false) #15
  %100 = ptrtoint i32* %92 to i64
  store i64 %93, i64* %87, align 8
  store i64 %100, i64* %88, align 8
  %101 = bitcast i32** %69 to i64*
  store i64 %100, i64* %101, align 8
  %102 = load i32, i32* %82, align 1
  %103 = icmp eq i32 %102, 0
  br i1 %103, label %129, label %104

104:                                              ; preds = %86
  %105 = getelementptr inbounds i8, i8* %80, i64 8
  %106 = bitcast i8* %105 to %"class.mojo::internal::Array_Data"*
  br label %107

107:                                              ; preds = %124, %104
  %108 = phi i32 [ %102, %104 ], [ %125, %124 ]
  %109 = phi i64 [ 0, %104 ], [ %114, %124 ]
  %110 = getelementptr inbounds %"class.mojo::internal::Array_Data", %"class.mojo::internal::Array_Data"* %106, i64 %109
  %111 = bitcast %"class.mojo::internal::Array_Data"* %110 to i64*
  %112 = load i64, i64* %111, align 8
  %113 = icmp eq i64 %112, 0
  %114 = add nuw nsw i64 %109, 1
  br i1 %113, label %124, label %115

115:                                              ; preds = %107
  %116 = bitcast %"class.mojo::internal::Array_Data"* %110 to i8*
  %117 = getelementptr inbounds i8, i8* %116, i64 %112
  %118 = bitcast i8* %117 to %"class.mojo_base::mojom::internal::ProcessId_Data"*
  %119 = load i32*, i32** %67, align 8
  %120 = getelementptr inbounds i32, i32* %119, i64 %109
  %121 = call zeroext i1 @_ZN4mojo12StructTraitsIN9mojo_base5mojom17ProcessIdDataViewEiE4ReadES3_Pi(%"class.mojo_base::mojom::internal::ProcessId_Data"* nonnull %118, i32* %120) #15
  br i1 %121, label %122, label %128

122:                                              ; preds = %115
  %123 = load i32, i32* %82, align 1
  br label %124

124:                                              ; preds = %122, %107
  %125 = phi i32 [ %123, %122 ], [ %108, %107 ]
  %126 = zext i32 %125 to i64
  %127 = icmp ult i64 %114, %126
  br i1 %127, label %107, label %129

128:                                              ; preds = %115
  call void @_ZN4mojo8internal31ReportValidationErrorForMessageEPNS_7MessageENS0_15ValidationErrorEPKcjb(%"class.mojo::Message"* %1, i32 17, i8* getelementptr inbounds ([43 x i8], [43 x i8]* @_ZN22memory_instrumentation5mojom13ClientProcess5Name_E, i64 0, i64 0), i32 1, i1 zeroext false) #15
  br label %157

129:                                              ; preds = %124, %79, %77, %86
  %130 = bitcast %"class.base::OnceCallback.153"* %10 to i8*
  call void @llvm.lifetime.start.p0i8(i64 8, i8* nonnull %130) #15
  %131 = getelementptr inbounds %"class.base::OnceCallback.153", %"class.base::OnceCallback.153"* %10, i64 0, i32 0, i32 0, i32 0
  %132 = load %"struct.mojo::internal::MessageHeaderV1"*, %"struct.mojo::internal::MessageHeaderV1"** %19, align 8
  %133 = getelementptr inbounds %"struct.mojo::internal::MessageHeaderV1", %"struct.mojo::internal::MessageHeaderV1"* %132, i64 0, i32 1
  %134 = load i64, i64* %133, align 1
  %135 = call i8* @_Znwm(i64 24) #16, !noalias !11
  %136 = lshr exact i32 %18, 2
  %137 = trunc i32 %136 to i8
  %138 = bitcast i8* %135 to i64*
  store i64 %134, i64* %138, align 8, !noalias !11
  %139 = getelementptr inbounds i8, i8* %135, i64 8
  store i8 %137, i8* %139, align 8, !noalias !11
  %140 = getelementptr inbounds i8, i8* %135, i64 16
  %141 = bitcast i8* %140 to i64*
  store i64 %12, i64* %141, align 8, !noalias !11
  %142 = ptrtoint i8* %135 to i64
  %143 = call i8* @_Znwm(i64 56) #16, !noalias !14
  %144 = bitcast i8* %143 to %"class.base::internal::BindStateBase"*
  call void @_ZN4base8internal13BindStateBaseC2EPFvvEPFvPKS1_E(%"class.base::internal::BindStateBase"* nonnull %144, void ()* bitcast (void (%"class.base::internal::BindStateBase"*, i1, %"class.base::flat_map.193"*)* @_ZN4base8internal7InvokerINS0_9BindStateIMN22memory_instrumentation5mojom50ClientProcess_RequestOSMemoryDump_ProxyToResponderEFvbNS_8flat_mapIiN4mojo9StructPtrINS4_12RawOSMemDumpEEENSt3__14lessIvEENSB_6vectorINSB_4pairIiSA_EENSB_9allocatorISG_EEEEEEEJNSB_10unique_ptrIS5_NSB_14default_deleteIS5_EEEEEEEFvbSK_EE7RunOnceEPNS0_13BindStateBaseEbOSK_ to void ()*), void (%"class.base::internal::BindStateBase"*)* nonnull @_ZN4base8internal9BindStateIMN22memory_instrumentation5mojom50ClientProcess_RequestOSMemoryDump_ProxyToResponderEFvbNS_8flat_mapIiN4mojo9StructPtrINS3_12RawOSMemDumpEEENSt3__14lessIvEENSA_6vectorINSA_4pairIiS9_EENSA_9allocatorISF_EEEEEEEJNSA_10unique_ptrIS4_NSA_14default_deleteIS4_EEEEEE7DestroyEPKNS0_13BindStateBaseE) #15, !noalias !14
  %145 = getelementptr inbounds i8, i8* %143, i64 32
  %146 = bitcast i8* %145 to <2 x i64>*
  store <2 x i64> <i64 ptrtoint (void (%"class.memory_instrumentation::mojom::ClientProcess_RequestOSMemoryDump_ProxyToResponder"*, i1, %"class.base::flat_map.193"*)* @_ZN22memory_instrumentation5mojom50ClientProcess_RequestOSMemoryDump_ProxyToResponder3RunEbN4base8flat_mapIiN4mojo9StructPtrINS0_12RawOSMemDumpEEENSt3__14lessIvEENS8_6vectorINS8_4pairIiS7_EENS8_9allocatorISD_EEEEEE to i64), i64 0>, <2 x i64>* %146, align 8, !noalias !14
  %147 = getelementptr inbounds i8, i8* %143, i64 48
  %148 = bitcast i8* %147 to i64*
  store i64 %142, i64* %148, align 8, !noalias !14
  %149 = ptrtoint i8* %143 to i64
  %150 = bitcast %"class.base::OnceCallback.153"* %11 to i64*
  store i64 %149, i64* %150, align 8
  store %"class.base::internal::BindStateBase"* null, %"class.base::internal::BindStateBase"** %131, align 8
  %151 = bitcast %"class.memory_instrumentation::mojom::ClientProcess"* %0 to void (%"class.memory_instrumentation::mojom::ClientProcess"*, i32, %"class.std::__1::vector.146"*, %"class.base::OnceCallback.153"*)***
  %152 = load void (%"class.memory_instrumentation::mojom::ClientProcess"*, i32, %"class.std::__1::vector.146"*, %"class.base::OnceCallback.153"*)**, void (%"class.memory_instrumentation::mojom::ClientProcess"*, i32, %"class.std::__1::vector.146"*, %"class.base::OnceCallback.153"*)*** %151, align 8
  %153 = getelementptr inbounds void (%"class.memory_instrumentation::mojom::ClientProcess"*, i32, %"class.std::__1::vector.146"*, %"class.base::OnceCallback.153"*)*, void (%"class.memory_instrumentation::mojom::ClientProcess"*, i32, %"class.std::__1::vector.146"*, %"class.base::OnceCallback.153"*)** %152, i64 3
  %154 = load void (%"class.memory_instrumentation::mojom::ClientProcess"*, i32, %"class.std::__1::vector.146"*, %"class.base::OnceCallback.153"*)*, void (%"class.memory_instrumentation::mojom::ClientProcess"*, i32, %"class.std::__1::vector.146"*, %"class.base::OnceCallback.153"*)** %153, align 8
  call void %154(%"class.memory_instrumentation::mojom::ClientProcess"* %0, i32 %72, %"class.std::__1::vector.146"* nonnull dereferenceable(24) %9, %"class.base::OnceCallback.153"* nonnull %11) #15
  %155 = getelementptr inbounds %"class.base::OnceCallback.153", %"class.base::OnceCallback.153"* %11, i64 0, i32 0
  call void @_ZN4base8internal12CallbackBaseD2Ev(%"class.base::internal::CallbackBase"* nonnull %155) #15
  %156 = getelementptr inbounds %"class.base::OnceCallback.153", %"class.base::OnceCallback.153"* %10, i64 0, i32 0
  call void @_ZN4base8internal12CallbackBaseD2Ev(%"class.base::internal::CallbackBase"* nonnull %156) #15
  call void @llvm.lifetime.end.p0i8(i64 8, i8* nonnull %130) #15
  br label %157

157:                                              ; preds = %129, %128
  %158 = phi i64 [ %12, %128 ], [ 0, %129 ]
  %159 = phi i1 [ false, %128 ], [ true, %129 ]
  %160 = load i32*, i32** %67, align 8
  %161 = icmp eq i32* %160, null
  br i1 %161, label %166, label %162

162:                                              ; preds = %157
  %163 = ptrtoint i32* %160 to i64
  %164 = bitcast i32** %68 to i64*
  store i64 %163, i64* %164, align 8
  %165 = bitcast i32* %160 to i8*
  call void @_ZdlPv(i8* %165) #16
  br label %166

166:                                              ; preds = %162, %157, %34, %35
  %167 = phi i8* [ %25, %35 ], [ %25, %34 ], [ %66, %157 ], [ %66, %162 ]
  %168 = phi %"class.base::TaskAnnotator::ScopedSetIpcHash"* [ %4, %35 ], [ %4, %34 ], [ %8, %157 ], [ %8, %162 ]
  %169 = phi i8* [ %23, %35 ], [ %23, %34 ], [ %64, %157 ], [ %64, %162 ]
  %170 = phi i64 [ 0, %35 ], [ %12, %34 ], [ %158, %157 ], [ %158, %162 ]
  %171 = phi i1 [ true, %35 ], [ false, %34 ], [ %159, %157 ], [ %159, %162 ]
  call void @llvm.lifetime.end.p0i8(i64 24, i8* nonnull %167) #15
  call void @_ZN4base13TaskAnnotator16ScopedSetIpcHashD1Ev(%"class.base::TaskAnnotator::ScopedSetIpcHash"* nonnull %168) #15
  call void @llvm.lifetime.end.p0i8(i64 24, i8* nonnull %169) #15
  br label %172

172:                                              ; preds = %166, %3
  %173 = phi i64 [ %12, %3 ], [ %170, %166 ]
  %174 = phi i1 [ false, %3 ], [ %171, %166 ]
  %175 = icmp eq i64 %173, 0
  br i1 %175, label %182, label %176

176:                                              ; preds = %172
  %177 = inttoptr i64 %173 to %"class.mojo::MessageReceiverWithStatus"*
  %178 = inttoptr i64 %173 to void (%"class.mojo::MessageReceiverWithStatus"*)***
  %179 = load void (%"class.mojo::MessageReceiverWithStatus"*)**, void (%"class.mojo::MessageReceiverWithStatus"*)*** %178, align 8
  %180 = getelementptr inbounds void (%"class.mojo::MessageReceiverWithStatus"*)*, void (%"class.mojo::MessageReceiverWithStatus"*)** %179, i64 1
  %181 = load void (%"class.mojo::MessageReceiverWithStatus"*)*, void (%"class.mojo::MessageReceiverWithStatus"*)** %180, align 8
  call void %181(%"class.mojo::MessageReceiverWithStatus"* nonnull %177) #15
  br label %182

182:                                              ; preds = %172, %176
  ret i1 %174
}

declare void @_ZN4base13TaskAnnotator16ScopedSetIpcHashC1Ej(%"class.base::TaskAnnotator::ScopedSetIpcHash"*, i32) unnamed_addr #4

; Function Attrs: nounwind
declare void @_ZN4base13TaskAnnotator16ScopedSetIpcHashD1Ev(%"class.base::TaskAnnotator::ScopedSetIpcHash"*) unnamed_addr #9

; Function Attrs: nounwind ssp uwtable
define hidden zeroext i1 @_ZN22memory_instrumentation5mojom29ClientProcessRequestValidator6AcceptEPN4mojo7MessageE(%"class.memory_instrumentation::mojom::ClientProcessRequestValidator"* nocapture readnone, %"class.mojo::Message"*) unnamed_addr #2 align 2 {
  %3 = tail call zeroext i1 @_ZN4mojo8internal22ValidateRequestGenericEPNS_7MessageEPKcN4base4spanIKNSt3__14pairIjNS0_21GenericValidationInfoEEELm18446744073709551615EEE(%"class.mojo::Message"* %1, i8* getelementptr inbounds ([43 x i8], [43 x i8]* @_ZN22memory_instrumentation5mojom13ClientProcess5Name_E, i64 0, i64 0), i64 2, %"struct.std::__1::pair.212"* getelementptr inbounds ([2 x %"struct.std::__1::pair.212"], [2 x %"struct.std::__1::pair.212"]* @_ZN22memory_instrumentation5mojomL28kClientProcessValidationInfoE, i64 0, i64 0)) #15
  ret i1 %3
}

declare zeroext i1 @_ZN4mojo8internal22ValidateRequestGenericEPNS_7MessageEPKcN4base4spanIKNSt3__14pairIjNS0_21GenericValidationInfoEEELm18446744073709551615EEE(%"class.mojo::Message"*, i8*, i64, %"struct.std::__1::pair.212"*) local_unnamed_addr #4

; Function Attrs: nounwind ssp uwtable
define hidden zeroext i1 @_ZN22memory_instrumentation5mojom30ClientProcessResponseValidator6AcceptEPN4mojo7MessageE(%"class.memory_instrumentation::mojom::ClientProcessResponseValidator"* nocapture readnone, %"class.mojo::Message"*) unnamed_addr #2 align 2 {
  %3 = tail call zeroext i1 @_ZN4mojo8internal23ValidateResponseGenericEPNS_7MessageEPKcN4base4spanIKNSt3__14pairIjNS0_21GenericValidationInfoEEELm18446744073709551615EEE(%"class.mojo::Message"* %1, i8* getelementptr inbounds ([43 x i8], [43 x i8]* @_ZN22memory_instrumentation5mojom13ClientProcess5Name_E, i64 0, i64 0), i64 2, %"struct.std::__1::pair.212"* getelementptr inbounds ([2 x %"struct.std::__1::pair.212"], [2 x %"struct.std::__1::pair.212"]* @_ZN22memory_instrumentation5mojomL28kClientProcessValidationInfoE, i64 0, i64 0)) #15
  ret i1 %3
}

declare zeroext i1 @_ZN4mojo8internal23ValidateResponseGenericEPNS_7MessageEPKcN4base4spanIKNSt3__14pairIjNS0_21GenericValidationInfoEEELm18446744073709551615EEE(%"class.mojo::Message"*, i8*, i64, %"struct.std::__1::pair.212"*) local_unnamed_addr #4

; Function Attrs: nofree norecurse nounwind ssp uwtable writeonly
define hidden void @_ZN22memory_instrumentation5mojom17HeapProfilerProxyC2EPN4mojo28MessageReceiverWithResponderE(%"class.memory_instrumentation::mojom::HeapProfilerProxy"* nocapture, %"class.mojo::MessageReceiverWithResponder"*) unnamed_addr #0 align 2 {
  %3 = getelementptr inbounds %"class.memory_instrumentation::mojom::HeapProfilerProxy", %"class.memory_instrumentation::mojom::HeapProfilerProxy"* %0, i64 0, i32 0, i32 0
  store i32 (...)** bitcast (i8** getelementptr inbounds ({ [5 x i8*] }, { [5 x i8*] }* @_ZTVN22memory_instrumentation5mojom17HeapProfilerProxyE, i64 0, inrange i32 0, i64 2) to i32 (...)**), i32 (...)*** %3, align 8
  %4 = getelementptr inbounds %"class.memory_instrumentation::mojom::HeapProfilerProxy", %"class.memory_instrumentation::mojom::HeapProfilerProxy"* %0, i64 0, i32 1
  store %"class.mojo::MessageReceiverWithResponder"* %1, %"class.mojo::MessageReceiverWithResponder"** %4, align 8
  ret void
}

; Function Attrs: nounwind ssp uwtable
define hidden void @_ZN22memory_instrumentation5mojom17HeapProfilerProxy23DumpProcessesForTracingEbN4base12OnceCallbackIFvNSt3__16vectorIN4mojo9StructPtrINS0_17HeapProfileResultEEENS4_9allocatorIS9_EEEEEEE(%"class.memory_instrumentation::mojom::HeapProfilerProxy"* nocapture readonly, i1 zeroext, %"class.base::OnceCallback.213"* nocapture) unnamed_addr #2 align 2 {
  %4 = alloca %"class.mojo::Message", align 8
  %5 = alloca %"class.base::OnceCallback.213", align 8
  %6 = zext i1 %1 to i8
  %7 = bitcast %"class.mojo::Message"* %4 to i8*
  call void @llvm.lifetime.start.p0i8(i64 120, i8* nonnull %7) #15
  call void @llvm.memset.p0i8.i64(i8* nonnull align 8 %7, i8 -86, i64 120, i1 false)
  call void @_ZN4mojo7MessageC1EjjmmPNSt3__16vectorINS_16ScopedHandleBaseINS_6HandleEEENS1_9allocatorIS5_EEEE(%"class.mojo::Message"* nonnull %4, i32 1327924655, i32 1, i64 0, i64 0, %"class.std::__1::vector"* null) #15
  %8 = getelementptr inbounds %"class.mojo::Message", %"class.mojo::Message"* %4, i64 0, i32 1
  %9 = call i64 @_ZN4mojo8internal6Buffer8AllocateEm(%"class.mojo::internal::Buffer"* %8, i64 16) #15
  %10 = getelementptr inbounds %"class.mojo::Message", %"class.mojo::Message"* %4, i64 0, i32 1, i32 2
  %11 = load i8*, i8** %10, align 8
  %12 = getelementptr inbounds i8, i8* %11, i64 %9
  %13 = bitcast i8* %12 to %"class.memory_instrumentation::mojom::internal::HeapProfiler_DumpProcessesForTracing_Params_Data"*
  call void @_ZN22memory_instrumentation5mojom8internal48HeapProfiler_DumpProcessesForTracing_Params_DataC1Ev(%"class.memory_instrumentation::mojom::internal::HeapProfiler_DumpProcessesForTracing_Params_Data"* %13) #15
  %14 = load i8*, i8** %10, align 8
  %15 = getelementptr inbounds i8, i8* %14, i64 %9
  %16 = getelementptr inbounds i8, i8* %15, i64 8
  %17 = load i8, i8* %16, align 1
  %18 = and i8 %17, -2
  %19 = or i8 %18, %6
  store i8 %19, i8* %16, align 1
  %20 = call i8* @_Znwm(i64 16) #16
  %21 = getelementptr inbounds %"class.base::OnceCallback.213", %"class.base::OnceCallback.213"* %2, i64 0, i32 0, i32 0, i32 0
  %22 = bitcast %"class.base::OnceCallback.213"* %2 to i64*
  %23 = load i64, i64* %22, align 8
  store %"class.base::internal::BindStateBase"* null, %"class.base::internal::BindStateBase"** %21, align 8
  %24 = bitcast i8* %20 to i32 (...)***
  store i32 (...)** bitcast (i8** getelementptr inbounds ({ [6 x i8*] }, { [6 x i8*] }* @_ZTVN22memory_instrumentation5mojom54HeapProfiler_DumpProcessesForTracing_ForwardToCallbackE, i64 0, inrange i32 0, i64 2) to i32 (...)**), i32 (...)*** %24, align 8
  %25 = getelementptr inbounds i8, i8* %20, i64 8
  %26 = getelementptr inbounds %"class.base::OnceCallback.213", %"class.base::OnceCallback.213"* %5, i64 0, i32 0, i32 0, i32 0
  %27 = bitcast i8* %25 to i64*
  store i64 %23, i64* %27, align 8
  store %"class.base::internal::BindStateBase"* null, %"class.base::internal::BindStateBase"** %26, align 8
  %28 = bitcast i8* %20 to %"class.mojo::MessageReceiver"*
  %29 = getelementptr inbounds %"class.base::OnceCallback.213", %"class.base::OnceCallback.213"* %5, i64 0, i32 0
  call void @_ZN4base8internal12CallbackBaseD2Ev(%"class.base::internal::CallbackBase"* nonnull %29) #15
  %30 = getelementptr inbounds %"class.memory_instrumentation::mojom::HeapProfilerProxy", %"class.memory_instrumentation::mojom::HeapProfilerProxy"* %0, i64 0, i32 1
  %31 = load %"class.mojo::MessageReceiverWithResponder"*, %"class.mojo::MessageReceiverWithResponder"** %30, align 8
  %32 = bitcast %"class.mojo::MessageReceiverWithResponder"* %31 to i1 (%"class.mojo::MessageReceiverWithResponder"*, %"class.mojo::Message"*, %"class.mojo::MessageReceiver"*)***
  %33 = load i1 (%"class.mojo::MessageReceiverWithResponder"*, %"class.mojo::Message"*, %"class.mojo::MessageReceiver"*)**, i1 (%"class.mojo::MessageReceiverWithResponder"*, %"class.mojo::Message"*, %"class.mojo::MessageReceiver"*)*** %32, align 8
  %34 = getelementptr inbounds i1 (%"class.mojo::MessageReceiverWithResponder"*, %"class.mojo::Message"*, %"class.mojo::MessageReceiver"*)*, i1 (%"class.mojo::MessageReceiverWithResponder"*, %"class.mojo::Message"*, %"class.mojo::MessageReceiver"*)** %33, i64 4
  %35 = load i1 (%"class.mojo::MessageReceiverWithResponder"*, %"class.mojo::Message"*, %"class.mojo::MessageReceiver"*)*, i1 (%"class.mojo::MessageReceiverWithResponder"*, %"class.mojo::Message"*, %"class.mojo::MessageReceiver"*)** %34, align 8
  %36 = call zeroext i1 %35(%"class.mojo::MessageReceiverWithResponder"* %31, %"class.mojo::Message"* nonnull %4, %"class.mojo::MessageReceiver"* nonnull %28) #15
  call void @_ZN4mojo7MessageD1Ev(%"class.mojo::Message"* nonnull %4) #15
  call void @llvm.lifetime.end.p0i8(i64 120, i8* nonnull %7) #15
  ret void
}

; Function Attrs: nounwind ssp uwtable
define hidden zeroext i1 @_ZN22memory_instrumentation5mojom54HeapProfiler_DumpProcessesForTracing_ForwardToCallback6AcceptEPN4mojo7MessageE(%"class.memory_instrumentation::mojom::HeapProfiler_DumpProcessesForTracing_ForwardToCallback"* nocapture, %"class.mojo::Message"*) unnamed_addr #2 align 2 {
  %3 = alloca %"class.base::OnceCallback.213", align 8
  %4 = alloca %"class.std::__1::vector.216", align 16
  %5 = alloca %"class.std::__1::vector.216", align 16
  %6 = tail call i8* @_ZNK4mojo7Message7payloadEv(%"class.mojo::Message"* %1) #15
  %7 = bitcast %"class.std::__1::vector.216"* %4 to i8*
  call void @llvm.lifetime.start.p0i8(i64 24, i8* nonnull %7) #15
  %8 = getelementptr inbounds %"class.std::__1::vector.216", %"class.std::__1::vector.216"* %4, i64 0, i32 0, i32 0
  %9 = getelementptr inbounds %"class.std::__1::vector.216", %"class.std::__1::vector.216"* %4, i64 0, i32 0, i32 1
  %10 = getelementptr inbounds %"class.std::__1::vector.216", %"class.std::__1::vector.216"* %4, i64 0, i32 0, i32 2, i32 0, i32 0
  call void @llvm.memset.p0i8.i64(i8* nonnull align 16 %7, i8 0, i64 24, i1 false) #15
  %11 = getelementptr inbounds i8, i8* %6, i64 8
  %12 = bitcast i8* %11 to i64*
  %13 = load i64, i64* %12, align 8
  %14 = icmp eq i64 %13, 0
  br i1 %14, label %15, label %16

15:                                               ; preds = %2
  store %"class.mojo::StructPtr.218"* null, %"class.mojo::StructPtr.218"** %9, align 8
  br label %21

16:                                               ; preds = %2
  %17 = getelementptr inbounds i8, i8* %11, i64 %13
  %18 = bitcast i8* %17 to %"class.mojo::internal::Array_Data.232"*
  %19 = call zeroext i1 @_ZN4mojo8internal15ArraySerializerINS_13ArrayDataViewIN22memory_instrumentation5mojom25HeapProfileResultDataViewEEENSt3__16vectorINS_9StructPtrINS4_17HeapProfileResultEEENS7_9allocatorISB_EEEENS0_13ArrayIteratorINS_11ArrayTraitsISE_EESE_Lb0EEEvE19DeserializeElementsEPNS0_10Array_DataINS0_7PointerINS4_8internal22HeapProfileResult_DataEEEEEPSE_PNS_7MessageE(%"class.mojo::internal::Array_Data.232"* nonnull %18, %"class.std::__1::vector.216"* nonnull %4, %"class.mojo::Message"* %1) #15
  br i1 %19, label %21, label %20

20:                                               ; preds = %16
  call void @_ZN4mojo8internal31ReportValidationErrorForMessageEPNS_7MessageENS0_15ValidationErrorEPKcjb(%"class.mojo::Message"* %1, i32 17, i8* getelementptr inbounds ([42 x i8], [42 x i8]* @_ZN22memory_instrumentation5mojom12HeapProfiler5Name_E, i64 0, i64 0), i32 0, i1 zeroext true) #15
  br label %72

21:                                               ; preds = %16, %15
  %22 = getelementptr inbounds %"class.memory_instrumentation::mojom::HeapProfiler_DumpProcessesForTracing_ForwardToCallback", %"class.memory_instrumentation::mojom::HeapProfiler_DumpProcessesForTracing_ForwardToCallback"* %0, i64 0, i32 1, i32 0, i32 0, i32 0
  %23 = load %"class.base::internal::BindStateBase"*, %"class.base::internal::BindStateBase"** %22, align 8
  %24 = icmp eq %"class.base::internal::BindStateBase"* %23, null
  br i1 %24, label %72, label %25

25:                                               ; preds = %21
  %26 = ptrtoint %"class.base::internal::BindStateBase"* %23 to i64
  %27 = bitcast %"class.std::__1::vector.216"* %4 to <2 x i64>*
  %28 = load <2 x i64>, <2 x i64>* %27, align 16
  %29 = getelementptr inbounds %"class.std::__1::vector.216", %"class.std::__1::vector.216"* %5, i64 0, i32 0, i32 1
  %30 = bitcast %"class.std::__1::vector.216"* %5 to <2 x i64>*
  store <2 x i64> %28, <2 x i64>* %30, align 16
  %31 = bitcast %"class.mojo::StructPtr.218"** %10 to i64*
  %32 = load i64, i64* %31, align 16
  %33 = getelementptr inbounds %"class.std::__1::vector.216", %"class.std::__1::vector.216"* %5, i64 0, i32 0, i32 2, i32 0, i32 0
  %34 = bitcast %"class.mojo::StructPtr.218"** %33 to i64*
  store i64 %32, i64* %34, align 16
  call void @llvm.memset.p0i8.i64(i8* nonnull align 16 %7, i8 0, i64 24, i1 false) #15
  %35 = bitcast %"class.base::OnceCallback.213"* %3 to i8*
  call void @llvm.lifetime.start.p0i8(i64 8, i8* nonnull %35) #15
  %36 = bitcast %"class.base::OnceCallback.213"* %3 to i64*
  store i64 %26, i64* %36, align 8
  store %"class.base::internal::BindStateBase"* null, %"class.base::internal::BindStateBase"** %22, align 8
  %37 = getelementptr inbounds %"class.base::OnceCallback.213", %"class.base::OnceCallback.213"* %3, i64 0, i32 0
  %38 = getelementptr inbounds %"class.base::internal::BindStateBase", %"class.base::internal::BindStateBase"* %23, i64 0, i32 1
  %39 = bitcast void ()** %38 to void (%"class.base::internal::BindStateBase"*, %"class.std::__1::vector.216"*)**
  %40 = load void (%"class.base::internal::BindStateBase"*, %"class.std::__1::vector.216"*)*, void (%"class.base::internal::BindStateBase"*, %"class.std::__1::vector.216"*)** %39, align 8
  call void %40(%"class.base::internal::BindStateBase"* nonnull %23, %"class.std::__1::vector.216"* nonnull dereferenceable(24) %5) #15
  call void @_ZN4base8internal12CallbackBaseD2Ev(%"class.base::internal::CallbackBase"* nonnull %37) #15
  call void @llvm.lifetime.end.p0i8(i64 8, i8* nonnull %35) #15
  %41 = getelementptr inbounds %"class.std::__1::vector.216", %"class.std::__1::vector.216"* %5, i64 0, i32 0, i32 0
  %42 = load %"class.mojo::StructPtr.218"*, %"class.mojo::StructPtr.218"** %41, align 16
  %43 = icmp eq %"class.mojo::StructPtr.218"* %42, null
  br i1 %43, label %72, label %44

44:                                               ; preds = %25
  %45 = bitcast %"class.mojo::StructPtr.218"* %42 to i8*
  %46 = load %"class.mojo::StructPtr.218"*, %"class.mojo::StructPtr.218"** %29, align 8
  %47 = icmp eq %"class.mojo::StructPtr.218"* %46, %42
  br i1 %47, label %70, label %48

48:                                               ; preds = %44, %65
  %49 = phi %"class.mojo::StructPtr.218"* [ %50, %65 ], [ %46, %44 ]
  %50 = getelementptr inbounds %"class.mojo::StructPtr.218", %"class.mojo::StructPtr.218"* %49, i64 -1
  %51 = getelementptr inbounds %"class.mojo::StructPtr.218", %"class.mojo::StructPtr.218"* %50, i64 0, i32 0, i32 0, i32 0, i32 0
  %52 = load %"class.memory_instrumentation::mojom::HeapProfileResult"*, %"class.memory_instrumentation::mojom::HeapProfileResult"** %51, align 8
  store %"class.memory_instrumentation::mojom::HeapProfileResult"* null, %"class.memory_instrumentation::mojom::HeapProfileResult"** %51, align 8
  %53 = icmp eq %"class.memory_instrumentation::mojom::HeapProfileResult"* %52, null
  br i1 %53, label %65, label %54

54:                                               ; preds = %48
  %55 = getelementptr inbounds %"class.memory_instrumentation::mojom::HeapProfileResult", %"class.memory_instrumentation::mojom::HeapProfileResult"* %52, i64 0, i32 1
  %56 = bitcast %"class.std::__1::basic_string"* %55 to %"struct.std::__1::basic_string<char, std::__1::char_traits<char>, std::__1::allocator<char> >::__short"*
  %57 = getelementptr inbounds %"struct.std::__1::basic_string<char, std::__1::char_traits<char>, std::__1::allocator<char> >::__short", %"struct.std::__1::basic_string<char, std::__1::char_traits<char>, std::__1::allocator<char> >::__short"* %56, i64 0, i32 1, i32 0
  %58 = load i8, i8* %57, align 1
  %59 = icmp slt i8 %58, 0
  br i1 %59, label %60, label %63

60:                                               ; preds = %54
  %61 = getelementptr inbounds %"class.std::__1::basic_string", %"class.std::__1::basic_string"* %55, i64 0, i32 0, i32 0, i32 0, i32 0, i32 0, i32 0
  %62 = load i8*, i8** %61, align 8
  call void @_ZdlPv(i8* %62) #16
  br label %63

63:                                               ; preds = %60, %54
  %64 = bitcast %"class.memory_instrumentation::mojom::HeapProfileResult"* %52 to i8*
  call void @_ZdlPv(i8* %64) #16
  br label %65

65:                                               ; preds = %63, %48
  %66 = icmp eq %"class.mojo::StructPtr.218"* %50, %42
  br i1 %66, label %67, label %48

67:                                               ; preds = %65
  %68 = bitcast %"class.std::__1::vector.216"* %5 to i8**
  %69 = load i8*, i8** %68, align 16
  br label %70

70:                                               ; preds = %67, %44
  %71 = phi i8* [ %69, %67 ], [ %45, %44 ]
  store %"class.mojo::StructPtr.218"* %42, %"class.mojo::StructPtr.218"** %29, align 8
  call void @_ZdlPv(i8* %71) #16
  br label %72

72:                                               ; preds = %70, %25, %21, %20
  %73 = phi i1 [ false, %20 ], [ true, %21 ], [ true, %25 ], [ true, %70 ]
  %74 = load %"class.mojo::StructPtr.218"*, %"class.mojo::StructPtr.218"** %8, align 16
  %75 = icmp eq %"class.mojo::StructPtr.218"* %74, null
  br i1 %75, label %104, label %76

76:                                               ; preds = %72
  %77 = bitcast %"class.mojo::StructPtr.218"* %74 to i8*
  %78 = load %"class.mojo::StructPtr.218"*, %"class.mojo::StructPtr.218"** %9, align 8
  %79 = icmp eq %"class.mojo::StructPtr.218"* %78, %74
  br i1 %79, label %102, label %80

80:                                               ; preds = %76, %97
  %81 = phi %"class.mojo::StructPtr.218"* [ %82, %97 ], [ %78, %76 ]
  %82 = getelementptr inbounds %"class.mojo::StructPtr.218", %"class.mojo::StructPtr.218"* %81, i64 -1
  %83 = getelementptr inbounds %"class.mojo::StructPtr.218", %"class.mojo::StructPtr.218"* %82, i64 0, i32 0, i32 0, i32 0, i32 0
  %84 = load %"class.memory_instrumentation::mojom::HeapProfileResult"*, %"class.memory_instrumentation::mojom::HeapProfileResult"** %83, align 8
  store %"class.memory_instrumentation::mojom::HeapProfileResult"* null, %"class.memory_instrumentation::mojom::HeapProfileResult"** %83, align 8
  %85 = icmp eq %"class.memory_instrumentation::mojom::HeapProfileResult"* %84, null
  br i1 %85, label %97, label %86

86:                                               ; preds = %80
  %87 = getelementptr inbounds %"class.memory_instrumentation::mojom::HeapProfileResult", %"class.memory_instrumentation::mojom::HeapProfileResult"* %84, i64 0, i32 1
  %88 = bitcast %"class.std::__1::basic_string"* %87 to %"struct.std::__1::basic_string<char, std::__1::char_traits<char>, std::__1::allocator<char> >::__short"*
  %89 = getelementptr inbounds %"struct.std::__1::basic_string<char, std::__1::char_traits<char>, std::__1::allocator<char> >::__short", %"struct.std::__1::basic_string<char, std::__1::char_traits<char>, std::__1::allocator<char> >::__short"* %88, i64 0, i32 1, i32 0
  %90 = load i8, i8* %89, align 1
  %91 = icmp slt i8 %90, 0
  br i1 %91, label %92, label %95

92:                                               ; preds = %86
  %93 = getelementptr inbounds %"class.std::__1::basic_string", %"class.std::__1::basic_string"* %87, i64 0, i32 0, i32 0, i32 0, i32 0, i32 0, i32 0
  %94 = load i8*, i8** %93, align 8
  call void @_ZdlPv(i8* %94) #16
  br label %95

95:                                               ; preds = %92, %86
  %96 = bitcast %"class.memory_instrumentation::mojom::HeapProfileResult"* %84 to i8*
  call void @_ZdlPv(i8* %96) #16
  br label %97

97:                                               ; preds = %95, %80
  %98 = icmp eq %"class.mojo::StructPtr.218"* %82, %74
  br i1 %98, label %99, label %80

99:                                               ; preds = %97
  %100 = bitcast %"class.std::__1::vector.216"* %4 to i8**
  %101 = load i8*, i8** %100, align 16
  br label %102

102:                                              ; preds = %99, %76
  %103 = phi i8* [ %101, %99 ], [ %77, %76 ]
  store %"class.mojo::StructPtr.218"* %74, %"class.mojo::StructPtr.218"** %9, align 8
  call void @_ZdlPv(i8* %103) #16
  br label %104

104:                                              ; preds = %72, %102
  call void @llvm.lifetime.end.p0i8(i64 24, i8* nonnull %7) #15
  ret i1 %73
}

; Function Attrs: nounwind ssp uwtable
define hidden void @_ZN22memory_instrumentation5mojom53HeapProfiler_DumpProcessesForTracing_ProxyToResponder3RunENSt3__16vectorIN4mojo9StructPtrINS0_17HeapProfileResultEEENS2_9allocatorIS7_EEEE(%"class.memory_instrumentation::mojom::HeapProfiler_DumpProcessesForTracing_ProxyToResponder"* nocapture, %"class.std::__1::vector.216"* nocapture readonly) #2 align 2 {
  %3 = alloca %"class.mojo::internal::MessageFragment.480", align 8
  %4 = alloca %"class.mojo::Message", align 8
  %5 = alloca %"class.mojo::internal::ContainerValidateParams", align 8
  %6 = getelementptr inbounds %"class.memory_instrumentation::mojom::HeapProfiler_DumpProcessesForTracing_ProxyToResponder", %"class.memory_instrumentation::mojom::HeapProfiler_DumpProcessesForTracing_ProxyToResponder"* %0, i64 0, i32 1
  %7 = load i8, i8* %6, align 8, !range !2
  %8 = icmp eq i8 %7, 0
  %9 = select i1 %8, i32 2, i32 6
  %10 = bitcast %"class.mojo::Message"* %4 to i8*
  call void @llvm.lifetime.start.p0i8(i64 120, i8* nonnull %10) #15
  call void @llvm.memset.p0i8.i64(i8* nonnull align 8 %10, i8 -86, i64 120, i1 false)
  call void @_ZN4mojo7MessageC1EjjmmPNSt3__16vectorINS_16ScopedHandleBaseINS_6HandleEEENS1_9allocatorIS5_EEEE(%"class.mojo::Message"* nonnull %4, i32 1327924655, i32 %9, i64 0, i64 0, %"class.std::__1::vector"* null) #15
  %11 = getelementptr inbounds %"class.mojo::Message", %"class.mojo::Message"* %4, i64 0, i32 1
  %12 = call i64 @_ZN4mojo8internal6Buffer8AllocateEm(%"class.mojo::internal::Buffer"* %11, i64 16) #15
  %13 = getelementptr inbounds %"class.mojo::Message", %"class.mojo::Message"* %4, i64 0, i32 1, i32 2
  %14 = load i8*, i8** %13, align 8
  %15 = getelementptr inbounds i8, i8* %14, i64 %12
  %16 = bitcast i8* %15 to %"class.memory_instrumentation::mojom::internal::HeapProfiler_DumpProcessesForTracing_ResponseParams_Data"*
  call void @_ZN22memory_instrumentation5mojom8internal56HeapProfiler_DumpProcessesForTracing_ResponseParams_DataC1Ev(%"class.memory_instrumentation::mojom::internal::HeapProfiler_DumpProcessesForTracing_ResponseParams_Data"* %16) #15
  %17 = ptrtoint %"class.mojo::Message"* %4 to i64
  %18 = bitcast %"class.mojo::internal::ContainerValidateParams"* %5 to i8*
  call void @llvm.lifetime.start.p0i8(i64 32, i8* nonnull %18) #15
  %19 = bitcast %"class.mojo::internal::ContainerValidateParams"* %5 to i64*
  store i64 -6148914691236517206, i64* %19, align 8
  %20 = getelementptr inbounds %"class.mojo::internal::ContainerValidateParams", %"class.mojo::internal::ContainerValidateParams"* %5, i64 0, i32 0
  store i32 0, i32* %20, align 8
  %21 = getelementptr inbounds %"class.mojo::internal::ContainerValidateParams", %"class.mojo::internal::ContainerValidateParams"* %5, i64 0, i32 1
  store i8 0, i8* %21, align 4
  %22 = getelementptr inbounds %"class.mojo::internal::ContainerValidateParams", %"class.mojo::internal::ContainerValidateParams"* %5, i64 0, i32 2
  %23 = getelementptr inbounds %"class.std::__1::vector.216", %"class.std::__1::vector.216"* %1, i64 0, i32 0, i32 1
  %24 = bitcast %"class.mojo::StructPtr.218"** %23 to i64*
  %25 = bitcast %"class.mojo::internal::ContainerValidateParams"** %22 to i8*
  call void @llvm.memset.p0i8.i64(i8* align 8 %25, i8 0, i64 24, i1 false)
  %26 = load i64, i64* %24, align 8
  %27 = bitcast %"class.std::__1::vector.216"* %1 to i64*
  %28 = load i64, i64* %27, align 8
  %29 = sub i64 %26, %28
  %30 = ashr exact i64 %29, 3
  %31 = icmp ugt i64 %30, 536870910
  br i1 %31, label %48, label %32

32:                                               ; preds = %2
  %33 = trunc i64 %30 to i32
  %34 = trunc i64 %29 to i32
  %35 = add i32 %34, 8
  %36 = and i32 %35, -8
  %37 = zext i32 %36 to i64
  %38 = call i64 @_ZN4mojo8internal6Buffer8AllocateEm(%"class.mojo::internal::Buffer"* %11, i64 %37) #15
  %39 = load i8*, i8** %13, align 8
  %40 = getelementptr inbounds i8, i8* %39, i64 %38
  %41 = bitcast i8* %40 to i32*
  store i32 %36, i32* %41, align 1
  %42 = getelementptr inbounds i8, i8* %40, i64 4
  %43 = bitcast i8* %42 to i32*
  store i32 %33, i32* %43, align 1
  %44 = load i64, i64* %24, align 8
  %45 = load i64, i64* %27, align 8
  %46 = sub i64 %44, %45
  %47 = ashr exact i64 %46, 3
  br label %48

48:                                               ; preds = %32, %2
  %49 = phi i64 [ -1, %2 ], [ %38, %32 ]
  %50 = phi i64 [ %30, %2 ], [ %47, %32 ]
  %51 = phi i64 [ %29, %2 ], [ %46, %32 ]
  %52 = phi i64 [ %28, %2 ], [ %45, %32 ]
  %53 = icmp eq i64 %51, 0
  br i1 %53, label %90, label %54

54:                                               ; preds = %48
  %55 = inttoptr i64 %52 to %"class.mojo::StructPtr.218"*
  %56 = bitcast %"class.mojo::internal::MessageFragment.480"* %3 to i8*
  %57 = getelementptr inbounds %"class.mojo::internal::MessageFragment.480", %"class.mojo::internal::MessageFragment.480"* %3, i64 0, i32 0
  %58 = getelementptr inbounds %"class.mojo::internal::MessageFragment.480", %"class.mojo::internal::MessageFragment.480"* %3, i64 0, i32 1
  %59 = bitcast %"class.mojo::internal::MessageFragment.480"* %3 to i64*
  %60 = getelementptr inbounds %"class.std::__1::vector.216", %"class.std::__1::vector.216"* %1, i64 0, i32 0, i32 0
  br label %61

61:                                               ; preds = %88, %54
  %62 = phi %"class.mojo::StructPtr.218"* [ %55, %54 ], [ %89, %88 ]
  %63 = phi i64 [ 0, %54 ], [ %64, %88 ]
  call void @llvm.lifetime.start.p0i8(i64 16, i8* nonnull %56) #15
  store i64 %17, i64* %59, align 8
  store i64 -1, i64* %58, align 8
  %64 = add nuw i64 %63, 1
  %65 = getelementptr inbounds %"class.mojo::StructPtr.218", %"class.mojo::StructPtr.218"* %62, i64 %63
  call void @_ZN4mojo8internal10SerializerIN22memory_instrumentation5mojom25HeapProfileResultDataViewENS_9StructPtrINS3_17HeapProfileResultEEEE9SerializeERS7_RNS0_15MessageFragmentINS3_8internal22HeapProfileResult_DataEEE(%"class.mojo::StructPtr.218"* dereferenceable(8) %65, %"class.mojo::internal::MessageFragment.480"* nonnull dereferenceable(16) %3) #15
  %66 = load i8*, i8** %13, align 8
  %67 = getelementptr inbounds i8, i8* %66, i64 8
  %68 = getelementptr inbounds i8, i8* %67, i64 %49
  %69 = bitcast i8* %68 to %"class.mojo::internal::Array_Data.232"*
  %70 = getelementptr inbounds %"class.mojo::internal::Array_Data.232", %"class.mojo::internal::Array_Data.232"* %69, i64 %63
  %71 = load i64, i64* %58, align 8
  %72 = icmp eq i64 %71, -1
  br i1 %72, label %79, label %73

73:                                               ; preds = %61
  %74 = load %"class.mojo::Message"*, %"class.mojo::Message"** %57, align 8
  %75 = getelementptr inbounds %"class.mojo::Message", %"class.mojo::Message"* %74, i64 0, i32 1, i32 2
  %76 = load i8*, i8** %75, align 8
  %77 = getelementptr inbounds i8, i8* %76, i64 %71
  %78 = bitcast i8* %77 to %"class.memory_instrumentation::mojom::internal::HeapProfileResult_Data"*
  br label %79

79:                                               ; preds = %73, %61
  %80 = phi %"class.memory_instrumentation::mojom::internal::HeapProfileResult_Data"* [ %78, %73 ], [ null, %61 ]
  %81 = bitcast %"class.mojo::internal::Array_Data.232"* %70 to i64*
  %82 = icmp eq %"class.memory_instrumentation::mojom::internal::HeapProfileResult_Data"* %80, null
  %83 = ptrtoint %"class.memory_instrumentation::mojom::internal::HeapProfileResult_Data"* %80 to i64
  %84 = ptrtoint %"class.mojo::internal::Array_Data.232"* %70 to i64
  %85 = sub i64 %83, %84
  %86 = select i1 %82, i64 0, i64 %85
  store i64 %86, i64* %81, align 8
  call void @llvm.lifetime.end.p0i8(i64 16, i8* nonnull %56) #15
  %87 = icmp ult i64 %64, %50
  br i1 %87, label %88, label %90

88:                                               ; preds = %79
  %89 = load %"class.mojo::StructPtr.218"*, %"class.mojo::StructPtr.218"** %60, align 8
  br label %61

90:                                               ; preds = %79, %48
  %91 = load i8*, i8** %13, align 8
  %92 = getelementptr inbounds i8, i8* %91, i64 %12
  %93 = getelementptr inbounds i8, i8* %92, i64 8
  %94 = icmp eq i64 %49, -1
  %95 = getelementptr inbounds i8, i8* %91, i64 %49
  %96 = bitcast i8* %95 to %"class.mojo::internal::Array_Data.232"*
  %97 = select i1 %94, %"class.mojo::internal::Array_Data.232"* null, %"class.mojo::internal::Array_Data.232"* %96
  %98 = bitcast i8* %93 to i64*
  %99 = icmp eq %"class.mojo::internal::Array_Data.232"* %97, null
  %100 = ptrtoint %"class.mojo::internal::Array_Data.232"* %97 to i64
  %101 = ptrtoint i8* %93 to i64
  %102 = sub i64 %100, %101
  %103 = select i1 %99, i64 0, i64 %102
  store i64 %103, i64* %98, align 8
  %104 = getelementptr inbounds %"class.memory_instrumentation::mojom::HeapProfiler_DumpProcessesForTracing_ProxyToResponder", %"class.memory_instrumentation::mojom::HeapProfiler_DumpProcessesForTracing_ProxyToResponder"* %0, i64 0, i32 0
  %105 = load i64, i64* %104, align 8
  %106 = bitcast i8** %13 to %"struct.mojo::internal::MessageHeaderV1"**
  %107 = load %"struct.mojo::internal::MessageHeaderV1"*, %"struct.mojo::internal::MessageHeaderV1"** %106, align 8
  %108 = getelementptr inbounds %"struct.mojo::internal::MessageHeaderV1", %"struct.mojo::internal::MessageHeaderV1"* %107, i64 0, i32 1
  store i64 %105, i64* %108, align 1
  %109 = getelementptr inbounds %"class.memory_instrumentation::mojom::HeapProfiler_DumpProcessesForTracing_ProxyToResponder", %"class.memory_instrumentation::mojom::HeapProfiler_DumpProcessesForTracing_ProxyToResponder"* %0, i64 0, i32 2, i32 0, i32 0, i32 0
  %110 = load %"class.mojo::MessageReceiverWithStatus"*, %"class.mojo::MessageReceiverWithStatus"** %109, align 8
  %111 = getelementptr inbounds %"class.mojo::MessageReceiverWithStatus", %"class.mojo::MessageReceiverWithStatus"* %110, i64 0, i32 0
  %112 = bitcast %"class.mojo::MessageReceiverWithStatus"* %110 to i1 (%"class.mojo::MessageReceiver"*, %"class.mojo::Message"*)***
  %113 = load i1 (%"class.mojo::MessageReceiver"*, %"class.mojo::Message"*)**, i1 (%"class.mojo::MessageReceiver"*, %"class.mojo::Message"*)*** %112, align 8
  %114 = getelementptr inbounds i1 (%"class.mojo::MessageReceiver"*, %"class.mojo::Message"*)*, i1 (%"class.mojo::MessageReceiver"*, %"class.mojo::Message"*)** %113, i64 3
  %115 = load i1 (%"class.mojo::MessageReceiver"*, %"class.mojo::Message"*)*, i1 (%"class.mojo::MessageReceiver"*, %"class.mojo::Message"*)** %114, align 8
  %116 = call zeroext i1 %115(%"class.mojo::MessageReceiver"* %111, %"class.mojo::Message"* nonnull %4) #15
  %117 = load %"class.mojo::MessageReceiverWithStatus"*, %"class.mojo::MessageReceiverWithStatus"** %109, align 8
  store %"class.mojo::MessageReceiverWithStatus"* null, %"class.mojo::MessageReceiverWithStatus"** %109, align 8
  %118 = icmp eq %"class.mojo::MessageReceiverWithStatus"* %117, null
  br i1 %118, label %124, label %119

119:                                              ; preds = %90
  %120 = bitcast %"class.mojo::MessageReceiverWithStatus"* %117 to void (%"class.mojo::MessageReceiverWithStatus"*)***
  %121 = load void (%"class.mojo::MessageReceiverWithStatus"*)**, void (%"class.mojo::MessageReceiverWithStatus"*)*** %120, align 8
  %122 = getelementptr inbounds void (%"class.mojo::MessageReceiverWithStatus"*)*, void (%"class.mojo::MessageReceiverWithStatus"*)** %121, i64 1
  %123 = load void (%"class.mojo::MessageReceiverWithStatus"*)*, void (%"class.mojo::MessageReceiverWithStatus"*)** %122, align 8
  call void %123(%"class.mojo::MessageReceiverWithStatus"* nonnull %117) #15
  br label %124

124:                                              ; preds = %90, %119
  call void @_ZN4mojo8internal23ContainerValidateParamsD2Ev(%"class.mojo::internal::ContainerValidateParams"* nonnull %5) #15
  call void @llvm.lifetime.end.p0i8(i64 32, i8* nonnull %18) #15
  call void @_ZN4mojo7MessageD1Ev(%"class.mojo::Message"* nonnull %4) #15
  call void @llvm.lifetime.end.p0i8(i64 120, i8* nonnull %10) #15
  ret void
}

; Function Attrs: norecurse nounwind readonly ssp uwtable
define hidden zeroext i1 @_ZN22memory_instrumentation5mojom24HeapProfilerStubDispatch6AcceptEPNS0_12HeapProfilerEPN4mojo7MessageE(%"class.memory_instrumentation::mojom::HeapProfiler"* nocapture readnone, %"class.mojo::Message"* nocapture readonly) local_unnamed_addr #5 align 2 {
  ret i1 false
}

; Function Attrs: nounwind ssp uwtable
define hidden zeroext i1 @_ZN22memory_instrumentation5mojom24HeapProfilerStubDispatch19AcceptWithResponderEPNS0_12HeapProfilerEPN4mojo7MessageENSt3__110unique_ptrINS4_25MessageReceiverWithStatusENS7_14default_deleteIS9_EEEE(%"class.memory_instrumentation::mojom::HeapProfiler"*, %"class.mojo::Message"*, %"class.mojo::MessageReceiverWithStatus"*) local_unnamed_addr #2 align 2 {
  %4 = alloca %"class.base::TaskAnnotator::ScopedSetIpcHash", align 8
  %5 = alloca %"class.base::OnceCallback.213", align 8
  %6 = alloca %"class.base::OnceCallback.213", align 8
  %7 = getelementptr inbounds %"class.mojo::Message", %"class.mojo::Message"* %1, i64 0, i32 1, i32 2
  %8 = bitcast i8** %7 to %"struct.mojo::internal::MessageHeader"**
  %9 = load %"struct.mojo::internal::MessageHeader"*, %"struct.mojo::internal::MessageHeader"** %8, align 8
  %10 = getelementptr inbounds %"struct.mojo::internal::MessageHeader", %"struct.mojo::internal::MessageHeader"* %9, i64 0, i32 2
  %11 = load i32, i32* %10, align 1
  %12 = icmp eq i32 %11, 1327924655
  br i1 %12, label %13, label %52

13:                                               ; preds = %3
  %14 = ptrtoint %"class.mojo::MessageReceiverWithStatus"* %2 to i64
  %15 = bitcast i8** %7 to %"struct.mojo::internal::MessageHeaderV1"**
  %16 = getelementptr inbounds %"struct.mojo::internal::MessageHeader", %"struct.mojo::internal::MessageHeader"* %9, i64 0, i32 3
  %17 = load i32, i32* %16, align 1
  %18 = bitcast %"class.base::TaskAnnotator::ScopedSetIpcHash"* %4 to i8*
  call void @llvm.lifetime.start.p0i8(i64 24, i8* nonnull %18) #15
  call void @llvm.memset.p0i8.i64(i8* nonnull align 8 %18, i8 -86, i64 24, i1 false)
  call void @_ZN4base13TaskAnnotator16ScopedSetIpcHashC1Ej(%"class.base::TaskAnnotator::ScopedSetIpcHash"* nonnull %4, i32 1455993618) #15
  %19 = call i8* @_ZNK4mojo7Message7payloadEv(%"class.mojo::Message"* %1) #15
  %20 = getelementptr inbounds i8, i8* %19, i64 8
  %21 = load i8, i8* %20, align 1
  %22 = and i8 %21, 1
  %23 = icmp ne i8 %22, 0
  %24 = bitcast %"class.base::OnceCallback.213"* %5 to i8*
  call void @llvm.lifetime.start.p0i8(i64 8, i8* nonnull %24) #15
  %25 = getelementptr inbounds %"class.base::OnceCallback.213", %"class.base::OnceCallback.213"* %5, i64 0, i32 0, i32 0, i32 0
  %26 = load %"struct.mojo::internal::MessageHeaderV1"*, %"struct.mojo::internal::MessageHeaderV1"** %15, align 8
  %27 = getelementptr inbounds %"struct.mojo::internal::MessageHeaderV1", %"struct.mojo::internal::MessageHeaderV1"* %26, i64 0, i32 1
  %28 = load i64, i64* %27, align 1
  %29 = call i8* @_Znwm(i64 24) #16, !noalias !19
  %30 = lshr i32 %17, 2
  %31 = trunc i32 %30 to i8
  %32 = and i8 %31, 1
  %33 = bitcast i8* %29 to i64*
  store i64 %28, i64* %33, align 8, !noalias !19
  %34 = getelementptr inbounds i8, i8* %29, i64 8
  store i8 %32, i8* %34, align 8, !noalias !19
  %35 = getelementptr inbounds i8, i8* %29, i64 16
  %36 = bitcast i8* %35 to i64*
  store i64 %14, i64* %36, align 8, !noalias !19
  %37 = ptrtoint i8* %29 to i64
  %38 = call i8* @_Znwm(i64 56) #16, !noalias !22
  %39 = bitcast i8* %38 to %"class.base::internal::BindStateBase"*
  call void @_ZN4base8internal13BindStateBaseC2EPFvvEPFvPKS1_E(%"class.base::internal::BindStateBase"* nonnull %39, void ()* bitcast (void (%"class.base::internal::BindStateBase"*, %"class.std::__1::vector.216"*)* @_ZN4base8internal7InvokerINS0_9BindStateIMN22memory_instrumentation5mojom53HeapProfiler_DumpProcessesForTracing_ProxyToResponderEFvNSt3__16vectorIN4mojo9StructPtrINS4_17HeapProfileResultEEENS6_9allocatorISB_EEEEEJNS6_10unique_ptrIS5_NS6_14default_deleteIS5_EEEEEEEFvSE_EE7RunOnceEPNS0_13BindStateBaseEOSE_ to void ()*), void (%"class.base::internal::BindStateBase"*)* nonnull @_ZN4base8internal9BindStateIMN22memory_instrumentation5mojom53HeapProfiler_DumpProcessesForTracing_ProxyToResponderEFvNSt3__16vectorIN4mojo9StructPtrINS3_17HeapProfileResultEEENS5_9allocatorISA_EEEEEJNS5_10unique_ptrIS4_NS5_14default_deleteIS4_EEEEEE7DestroyEPKNS0_13BindStateBaseE) #15, !noalias !22
  %40 = getelementptr inbounds i8, i8* %38, i64 32
  %41 = bitcast i8* %40 to <2 x i64>*
  store <2 x i64> <i64 ptrtoint (void (%"class.memory_instrumentation::mojom::HeapProfiler_DumpProcessesForTracing_ProxyToResponder"*, %"class.std::__1::vector.216"*)* @_ZN22memory_instrumentation5mojom53HeapProfiler_DumpProcessesForTracing_ProxyToResponder3RunENSt3__16vectorIN4mojo9StructPtrINS0_17HeapProfileResultEEENS2_9allocatorIS7_EEEE to i64), i64 0>, <2 x i64>* %41, align 8, !noalias !22
  %42 = getelementptr inbounds i8, i8* %38, i64 48
  %43 = bitcast i8* %42 to i64*
  store i64 %37, i64* %43, align 8, !noalias !22
  %44 = ptrtoint i8* %38 to i64
  %45 = bitcast %"class.base::OnceCallback.213"* %6 to i64*
  store i64 %44, i64* %45, align 8
  store %"class.base::internal::BindStateBase"* null, %"class.base::internal::BindStateBase"** %25, align 8
  %46 = bitcast %"class.memory_instrumentation::mojom::HeapProfiler"* %0 to void (%"class.memory_instrumentation::mojom::HeapProfiler"*, i1, %"class.base::OnceCallback.213"*)***
  %47 = load void (%"class.memory_instrumentation::mojom::HeapProfiler"*, i1, %"class.base::OnceCallback.213"*)**, void (%"class.memory_instrumentation::mojom::HeapProfiler"*, i1, %"class.base::OnceCallback.213"*)*** %46, align 8
  %48 = getelementptr inbounds void (%"class.memory_instrumentation::mojom::HeapProfiler"*, i1, %"class.base::OnceCallback.213"*)*, void (%"class.memory_instrumentation::mojom::HeapProfiler"*, i1, %"class.base::OnceCallback.213"*)** %47, i64 2
  %49 = load void (%"class.memory_instrumentation::mojom::HeapProfiler"*, i1, %"class.base::OnceCallback.213"*)*, void (%"class.memory_instrumentation::mojom::HeapProfiler"*, i1, %"class.base::OnceCallback.213"*)** %48, align 8
  call void %49(%"class.memory_instrumentation::mojom::HeapProfiler"* %0, i1 zeroext %23, %"class.base::OnceCallback.213"* nonnull %6) #15
  %50 = getelementptr inbounds %"class.base::OnceCallback.213", %"class.base::OnceCallback.213"* %6, i64 0, i32 0
  call void @_ZN4base8internal12CallbackBaseD2Ev(%"class.base::internal::CallbackBase"* nonnull %50) #15
  %51 = getelementptr inbounds %"class.base::OnceCallback.213", %"class.base::OnceCallback.213"* %5, i64 0, i32 0
  call void @_ZN4base8internal12CallbackBaseD2Ev(%"class.base::internal::CallbackBase"* nonnull %51) #15
  call void @llvm.lifetime.end.p0i8(i64 8, i8* nonnull %24) #15
  call void @_ZN4base13TaskAnnotator16ScopedSetIpcHashD1Ev(%"class.base::TaskAnnotator::ScopedSetIpcHash"* nonnull %4) #15
  call void @llvm.lifetime.end.p0i8(i64 24, i8* nonnull %18) #15
  br label %59

52:                                               ; preds = %3
  %53 = icmp eq %"class.mojo::MessageReceiverWithStatus"* %2, null
  br i1 %53, label %59, label %54

54:                                               ; preds = %52
  %55 = bitcast %"class.mojo::MessageReceiverWithStatus"* %2 to void (%"class.mojo::MessageReceiverWithStatus"*)***
  %56 = load void (%"class.mojo::MessageReceiverWithStatus"*)**, void (%"class.mojo::MessageReceiverWithStatus"*)*** %55, align 8
  %57 = getelementptr inbounds void (%"class.mojo::MessageReceiverWithStatus"*)*, void (%"class.mojo::MessageReceiverWithStatus"*)** %56, i64 1
  %58 = load void (%"class.mojo::MessageReceiverWithStatus"*)*, void (%"class.mojo::MessageReceiverWithStatus"*)** %57, align 8
  tail call void %58(%"class.mojo::MessageReceiverWithStatus"* nonnull %2) #15
  br label %59

59:                                               ; preds = %13, %52, %54
  %60 = phi i1 [ true, %13 ], [ false, %52 ], [ false, %54 ]
  ret i1 %60
}

; Function Attrs: nounwind ssp uwtable
define hidden zeroext i1 @_ZN22memory_instrumentation5mojom28HeapProfilerRequestValidator6AcceptEPN4mojo7MessageE(%"class.memory_instrumentation::mojom::HeapProfilerRequestValidator"* nocapture readnone, %"class.mojo::Message"*) unnamed_addr #2 align 2 {
  %3 = tail call zeroext i1 @_ZN4mojo8internal22ValidateRequestGenericEPNS_7MessageEPKcN4base4spanIKNSt3__14pairIjNS0_21GenericValidationInfoEEELm18446744073709551615EEE(%"class.mojo::Message"* %1, i8* getelementptr inbounds ([42 x i8], [42 x i8]* @_ZN22memory_instrumentation5mojom12HeapProfiler5Name_E, i64 0, i64 0), i64 1, %"struct.std::__1::pair.212"* getelementptr inbounds ([1 x %"struct.std::__1::pair.212"], [1 x %"struct.std::__1::pair.212"]* @_ZN22memory_instrumentation5mojomL27kHeapProfilerValidationInfoE, i64 0, i64 0)) #15
  ret i1 %3
}

; Function Attrs: nounwind ssp uwtable
define hidden zeroext i1 @_ZN22memory_instrumentation5mojom29HeapProfilerResponseValidator6AcceptEPN4mojo7MessageE(%"class.memory_instrumentation::mojom::HeapProfilerResponseValidator"* nocapture readnone, %"class.mojo::Message"*) unnamed_addr #2 align 2 {
  %3 = tail call zeroext i1 @_ZN4mojo8internal23ValidateResponseGenericEPNS_7MessageEPKcN4base4spanIKNSt3__14pairIjNS0_21GenericValidationInfoEEELm18446744073709551615EEE(%"class.mojo::Message"* %1, i8* getelementptr inbounds ([42 x i8], [42 x i8]* @_ZN22memory_instrumentation5mojom12HeapProfiler5Name_E, i64 0, i64 0), i64 1, %"struct.std::__1::pair.212"* getelementptr inbounds ([1 x %"struct.std::__1::pair.212"], [1 x %"struct.std::__1::pair.212"]* @_ZN22memory_instrumentation5mojomL27kHeapProfilerValidationInfoE, i64 0, i64 0)) #15
  ret i1 %3
}

; Function Attrs: nofree norecurse nounwind ssp uwtable writeonly
define hidden void @_ZN22memory_instrumentation5mojom23HeapProfilerHelperProxyC2EPN4mojo28MessageReceiverWithResponderE(%"class.memory_instrumentation::mojom::HeapProfilerHelperProxy"* nocapture, %"class.mojo::MessageReceiverWithResponder"*) unnamed_addr #0 align 2 {
  %3 = getelementptr inbounds %"class.memory_instrumentation::mojom::HeapProfilerHelperProxy", %"class.memory_instrumentation::mojom::HeapProfilerHelperProxy"* %0, i64 0, i32 0, i32 0
  store i32 (...)** bitcast (i8** getelementptr inbounds ({ [5 x i8*] }, { [5 x i8*] }* @_ZTVN22memory_instrumentation5mojom23HeapProfilerHelperProxyE, i64 0, inrange i32 0, i64 2) to i32 (...)**), i32 (...)*** %3, align 8
  %4 = getelementptr inbounds %"class.memory_instrumentation::mojom::HeapProfilerHelperProxy", %"class.memory_instrumentation::mojom::HeapProfilerHelperProxy"* %0, i64 0, i32 1
  store %"class.mojo::MessageReceiverWithResponder"* %1, %"class.mojo::MessageReceiverWithResponder"** %4, align 8
  ret void
}

; Function Attrs: nounwind ssp uwtable
define hidden void @_ZN22memory_instrumentation5mojom23HeapProfilerHelperProxy27GetVmRegionsForHeapProfilerERKNSt3__16vectorIiNS2_9allocatorIiEEEEN4base12OnceCallbackIFvNS9_8flat_mapIiNS3_IN4mojo9StructPtrINS0_8VmRegionEEENS4_ISF_EEEENS2_4lessIvEENS3_INS2_4pairIiSH_EENS4_ISL_EEEEEEEEE(%"class.memory_instrumentation::mojom::HeapProfilerHelperProxy"* nocapture readonly, %"class.std::__1::vector.146"* dereferenceable(24), %"class.base::OnceCallback.233"* nocapture) unnamed_addr #2 align 2 {
  %4 = alloca %"class.mojo::Message", align 8
  %5 = alloca %"class.mojo::internal::MessageFragment.156", align 8
  %6 = alloca %"class.mojo::internal::ContainerValidateParams", align 8
  %7 = alloca %"class.mojo::internal::ContainerValidateParams"*, align 8
  %8 = alloca %"class.base::OnceCallback.233", align 8
  %9 = bitcast %"class.mojo::Message"* %4 to i8*
  call void @llvm.lifetime.start.p0i8(i64 120, i8* nonnull %9) #15
  call void @llvm.memset.p0i8.i64(i8* nonnull align 8 %9, i8 -86, i64 120, i1 false)
  call void @_ZN4mojo7MessageC1EjjmmPNSt3__16vectorINS_16ScopedHandleBaseINS_6HandleEEENS1_9allocatorIS5_EEEE(%"class.mojo::Message"* nonnull %4, i32 1115257854, i32 1, i64 0, i64 0, %"class.std::__1::vector"* null) #15
  %10 = getelementptr inbounds %"class.mojo::Message", %"class.mojo::Message"* %4, i64 0, i32 1
  %11 = call i64 @_ZN4mojo8internal6Buffer8AllocateEm(%"class.mojo::internal::Buffer"* %10, i64 16) #15
  %12 = getelementptr inbounds %"class.mojo::Message", %"class.mojo::Message"* %4, i64 0, i32 1, i32 2
  %13 = load i8*, i8** %12, align 8
  %14 = getelementptr inbounds i8, i8* %13, i64 %11
  %15 = bitcast i8* %14 to %"class.memory_instrumentation::mojom::internal::HeapProfilerHelper_GetVmRegionsForHeapProfiler_Params_Data"*
  call void @_ZN22memory_instrumentation5mojom8internal58HeapProfilerHelper_GetVmRegionsForHeapProfiler_Params_DataC1Ev(%"class.memory_instrumentation::mojom::internal::HeapProfilerHelper_GetVmRegionsForHeapProfiler_Params_Data"* %15) #15
  %16 = bitcast %"class.mojo::internal::MessageFragment.156"* %5 to i8*
  call void @llvm.lifetime.start.p0i8(i64 16, i8* nonnull %16) #15
  %17 = getelementptr inbounds %"class.mojo::internal::MessageFragment.156", %"class.mojo::internal::MessageFragment.156"* %5, i64 0, i32 0
  %18 = getelementptr inbounds %"class.mojo::internal::MessageFragment.156", %"class.mojo::internal::MessageFragment.156"* %5, i64 0, i32 1
  store %"class.mojo::Message"* %4, %"class.mojo::Message"** %17, align 8
  store i64 -1, i64* %18, align 8
  %19 = bitcast %"class.mojo::internal::ContainerValidateParams"* %6 to i8*
  call void @llvm.lifetime.start.p0i8(i64 32, i8* nonnull %19) #15
