; ModuleID = 'gen/services/resource_coordinator/public/mojom/memory_instrumentation/memory_instrumentation.mojom-blink.cc'
source_filename = "gen/services/resource_coordinator/public/mojom/memory_instrumentation/memory_instrumentation.mojom-blink.cc"
target datalayout = "e-m:e-i64:64-f80:128-n8:16:32:64-S128"
target triple = "x86_64-unknown-linux-gnu"

module asm ".symver exp, exp@GLIBC_2.2.5"
module asm ".symver exp2, exp2@GLIBC_2.2.5"
module asm ".symver exp2f, exp2f@GLIBC_2.2.5"
module asm ".symver expf, expf@GLIBC_2.2.5"
module asm ".symver lgamma, lgamma@GLIBC_2.2.5"
module asm ".symver lgammaf, lgammaf@GLIBC_2.2.5"
module asm ".symver lgammal, lgammal@GLIBC_2.2.5"
module asm ".symver log, log@GLIBC_2.2.5"
module asm ".symver log2, log2@GLIBC_2.2.5"
module asm ".symver log2f, log2f@GLIBC_2.2.5"
module asm ".symver logf, logf@GLIBC_2.2.5"
module asm ".symver pow, pow@GLIBC_2.2.5"
module asm ".symver powf, powf@GLIBC_2.2.5"

%"struct.std::__1::pair" = type { i32, %"struct.mojo::internal::GenericValidationInfo" }
%"struct.mojo::internal::GenericValidationInfo" = type { i1 (i8*, %"class.mojo::internal::ValidationContext"*)*, i1 (i8*, %"class.mojo::internal::ValidationContext"*)* }
%"class.mojo::internal::ValidationContext" = type <{ %"class.mojo::Message"*, i8*, i32, [4 x i8], i64, i64, i32, i32, i32, i32, i32, [4 x i8] }>
%"class.mojo::Message" = type { %"class.mojo::ScopedHandleBase", %"class.mojo::internal::Buffer", %"class.std::__1::vector", %"class.std::__1::vector.12", %"class.mojo::ConnectionGroup::Ref"*, i8, i8, i8* }
%"class.mojo::ScopedHandleBase" = type { %"class.mojo::MessageHandle" }
%"class.mojo::MessageHandle" = type { i64 }
%"class.mojo::internal::Buffer" = type { %"class.mojo::MessageHandle", i64, i8*, i64, i64 }
%"class.std::__1::vector" = type { %"class.std::__1::__vector_base" }
%"class.std::__1::__vector_base" = type { %"class.mojo::ScopedHandleBase.6"*, %"class.mojo::ScopedHandleBase.6"*, %"class.std::__1::__compressed_pair.7" }
%"class.mojo::ScopedHandleBase.6" = type { %"class.mojo::Handle" }
%"class.mojo::Handle" = type { i32 }
%"class.std::__1::__compressed_pair.7" = type { %"struct.std::__1::__compressed_pair_elem.8" }
%"struct.std::__1::__compressed_pair_elem.8" = type { %"class.mojo::ScopedHandleBase.6"* }
%"class.std::__1::vector.12" = type { %"class.std::__1::__vector_base.13" }
%"class.std::__1::__vector_base.13" = type { %"class.mojo::ScopedInterfaceEndpointHandle"*, %"class.mojo::ScopedInterfaceEndpointHandle"*, %"class.std::__1::__compressed_pair.14" }
%"class.mojo::ScopedInterfaceEndpointHandle" = type { %class.scoped_refptr }
%class.scoped_refptr = type { %"class.mojo::ScopedInterfaceEndpointHandle::State"* }
%"class.mojo::ScopedInterfaceEndpointHandle::State" = type opaque
%"class.std::__1::__compressed_pair.14" = type { %"struct.std::__1::__compressed_pair_elem.15" }
%"struct.std::__1::__compressed_pair_elem.15" = type { %"class.mojo::ScopedInterfaceEndpointHandle"* }
%"class.mojo::ConnectionGroup::Ref" = type { i32, %class.scoped_refptr.19 }
%class.scoped_refptr.19 = type { %"class.mojo::ConnectionGroup"* }
%"class.mojo::ConnectionGroup" = type <{ i32 (...)**, %"class.base::RefCountedThreadSafe", [4 x i8], %"class.base::RepeatingCallback", %class.scoped_refptr.23, %"class.mojo::ConnectionGroup::Ref", %"struct.std::__1::atomic.25", [4 x i8] }>
%"class.base::RefCountedThreadSafe" = type { %"class.base::subtle::RefCountedThreadSafeBase" }
%"class.base::subtle::RefCountedThreadSafeBase" = type { %"class.base::AtomicRefCount" }
%"class.base::AtomicRefCount" = type { %"struct.std::__1::atomic" }
%"struct.std::__1::atomic" = type { %"struct.std::__1::__atomic_base" }
%"struct.std::__1::__atomic_base" = type { %"struct.std::__1::__atomic_base.20" }
%"struct.std::__1::__atomic_base.20" = type { %"struct.std::__1::__cxx_atomic_impl" }
%"struct.std::__1::__cxx_atomic_impl" = type { %"struct.std::__1::__cxx_atomic_base_impl" }
%"struct.std::__1::__cxx_atomic_base_impl" = type { i32 }
%"class.base::RepeatingCallback" = type { %"class.base::internal::CallbackBaseCopyable" }
%"class.base::internal::CallbackBaseCopyable" = type { %"class.base::internal::CallbackBase" }
%"class.base::internal::CallbackBase" = type { %class.scoped_refptr.21 }
%class.scoped_refptr.21 = type { %"class.base::internal::BindStateBase"* }
%"class.base::internal::BindStateBase" = type { %"class.base::RefCountedThreadSafe.22", void ()*, void (%"class.base::internal::BindStateBase"*)*, i1 (%"class.base::internal::BindStateBase"*, i32)* }
%"class.base::RefCountedThreadSafe.22" = type { %"class.base::subtle::RefCountedThreadSafeBase" }
%class.scoped_refptr.23 = type { %"class.base::SequencedTaskRunner"* }
%"class.base::SequencedTaskRunner" = type { %"class.base::TaskRunner.base", [4 x i8] }
%"class.base::TaskRunner.base" = type <{ i32 (...)**, %"class.base::RefCountedThreadSafe.24" }>
%"class.base::RefCountedThreadSafe.24" = type { %"class.base::subtle::RefCountedThreadSafeBase" }
%"struct.std::__1::atomic.25" = type { %"struct.std::__1::__atomic_base.26" }
%"struct.std::__1::__atomic_base.26" = type { %"struct.std::__1::__atomic_base.27" }
%"struct.std::__1::__atomic_base.27" = type { %"struct.std::__1::__cxx_atomic_impl.28" }
%"struct.std::__1::__cxx_atomic_impl.28" = type { %"struct.std::__1::__cxx_atomic_base_impl.29" }
%"struct.std::__1::__cxx_atomic_base_impl.29" = type { i32 }
%"class.std::__1::locale::id" = type <{ %"struct.std::__1::once_flag", i32, [4 x i8] }>
%"struct.std::__1::once_flag" = type { i64 }
%"class.WTF::String" = type { %class.scoped_refptr.30 }
%class.scoped_refptr.30 = type { %"class.WTF::StringImpl"* }
%"class.WTF::StringImpl" = type { i32, i32, %"struct.std::__1::atomic.25" }
%"class.memory_instrumentation::mojom::blink::RequestArgs" = type <{ i64, i32, i32, i32, [4 x i8] }>
%"class.memory_instrumentation::mojom::blink::RawAllocatorDumpEdge" = type <{ i64, i64, i32, i8, [3 x i8] }>
%"class.memory_instrumentation::mojom::blink::RawAllocatorDumpEntry" = type { %"class.WTF::String", %"class.WTF::String", %"class.mojo::StructPtr" }
%"class.mojo::StructPtr" = type { %"class.std::__1::unique_ptr" }
%"class.std::__1::unique_ptr" = type { %"class.std::__1::__compressed_pair.31" }
%"class.std::__1::__compressed_pair.31" = type { %"struct.std::__1::__compressed_pair_elem.32" }
%"struct.std::__1::__compressed_pair_elem.32" = type { %"class.memory_instrumentation::mojom::blink::RawAllocatorDumpEntryValue"* }
%"class.memory_instrumentation::mojom::blink::RawAllocatorDumpEntryValue" = type { i32, %"union.memory_instrumentation::mojom::blink::RawAllocatorDumpEntryValue::Union_" }
%"union.memory_instrumentation::mojom::blink::RawAllocatorDumpEntryValue::Union_" = type { i64 }
%"class.memory_instrumentation::mojom::blink::RawAllocatorDump" = type { i64, %"class.WTF::String", i8, i32, %"class.WTF::Vector" }
%"class.WTF::Vector" = type { %"class.WTF::VectorBuffer" }
%"class.WTF::VectorBuffer" = type { %"class.WTF::VectorBufferBase" }
%"class.WTF::VectorBufferBase" = type { %"class.mojo::StructPtr.34"*, i32, i32 }
%"class.mojo::StructPtr.34" = type { %"class.std::__1::unique_ptr.35" }
%"class.std::__1::unique_ptr.35" = type { %"class.std::__1::__compressed_pair.36" }
%"class.std::__1::__compressed_pair.36" = type { %"struct.std::__1::__compressed_pair_elem.37" }
%"struct.std::__1::__compressed_pair_elem.37" = type { %"class.memory_instrumentation::mojom::blink::RawAllocatorDumpEntry"* }
%"class.memory_instrumentation::mojom::blink::RawProcessMemoryDump" = type { i32, %"class.WTF::Vector.41", %"class.WTF::Vector.46" }
%"class.WTF::Vector.41" = type { %"class.WTF::VectorBuffer.42" }
%"class.WTF::VectorBuffer.42" = type { %"class.WTF::VectorBufferBase.43" }
%"class.WTF::VectorBufferBase.43" = type { %"class.mojo::InlinedStructPtr"*, i32, i32 }
%"class.mojo::InlinedStructPtr" = type { %"class.memory_instrumentation::mojom::blink::RawAllocatorDumpEdge", i32, [4 x i8] }
%"class.WTF::Vector.46" = type { %"class.WTF::VectorBuffer.47" }
%"class.WTF::VectorBuffer.47" = type { %"class.WTF::VectorBufferBase.48" }
%"class.WTF::VectorBufferBase.48" = type { %"class.mojo::StructPtr.49"*, i32, i32 }
%"class.mojo::StructPtr.49" = type { %"class.std::__1::unique_ptr.50" }
%"class.std::__1::unique_ptr.50" = type { %"class.std::__1::__compressed_pair.51" }
%"class.std::__1::__compressed_pair.51" = type { %"struct.std::__1::__compressed_pair_elem.52" }
%"struct.std::__1::__compressed_pair_elem.52" = type { %"class.memory_instrumentation::mojom::blink::RawAllocatorDump"* }
%"class.memory_instrumentation::mojom::blink::VmRegion" = type { i64, i64, i64, %"class.WTF::String", %"class.WTF::String", i32, %"class.WTF::String", i64, i64, i64, i64, i64, i64, i64 }
%"class.memory_instrumentation::mojom::blink::PlatformPrivateFootprint" = type { i64, i64, i64, i64, i64, i64 }
%"class.memory_instrumentation::mojom::blink::RawOSMemDump" = type { i32, i32, i8, %"class.mojo::StructPtr.58", %"class.WTF::Vector.65", %"class.WTF::Vector.77" }
%"class.mojo::StructPtr.58" = type { %"class.std::__1::unique_ptr.59" }
%"class.std::__1::unique_ptr.59" = type { %"class.std::__1::__compressed_pair.60" }
%"class.std::__1::__compressed_pair.60" = type { %"struct.std::__1::__compressed_pair_elem.61" }
%"struct.std::__1::__compressed_pair_elem.61" = type { %"class.memory_instrumentation::mojom::blink::PlatformPrivateFootprint"* }
%"class.WTF::Vector.65" = type { %"class.WTF::VectorBuffer.66" }
%"class.WTF::VectorBuffer.66" = type { %"class.WTF::VectorBufferBase.67" }
%"class.WTF::VectorBufferBase.67" = type { %"class.mojo::StructPtr.68"*, i32, i32 }
%"class.mojo::StructPtr.68" = type { %"class.std::__1::unique_ptr.69" }
%"class.std::__1::unique_ptr.69" = type { %"class.std::__1::__compressed_pair.70" }
%"class.std::__1::__compressed_pair.70" = type { %"struct.std::__1::__compressed_pair_elem.71" }
%"struct.std::__1::__compressed_pair_elem.71" = type { %"class.memory_instrumentation::mojom::blink::VmRegion"* }
%"class.WTF::Vector.77" = type { %"class.WTF::VectorBuffer.78" }
%"class.WTF::VectorBuffer.78" = type { %"class.WTF::VectorBufferBase.79" }
%"class.WTF::VectorBufferBase.79" = type { i8*, i32, i32 }
%"class.memory_instrumentation::mojom::blink::OSMemDump" = type { i32, i32, i8, i32, i32, i32 }
%"class.memory_instrumentation::mojom::blink::AllocatorMemDump" = type { %"class.WTF::HashMap" }
%"class.WTF::HashMap" = type { %"class.WTF::HashTable" }
%"class.WTF::HashTable" = type <{ %"struct.WTF::KeyValuePair"*, i32, i32, i32, [4 x i8] }>
%"struct.WTF::KeyValuePair" = type { %"class.WTF::String", i64 }
%"class.memory_instrumentation::mojom::blink::ProcessMemoryDump" = type { i32, %"class.mojo::StructPtr.84", %"class.WTF::HashMap.91", %"class.mojo::InlinedStructPtr.103", %"class.WTF::String" }
%"class.mojo::StructPtr.84" = type { %"class.std::__1::unique_ptr.85" }
%"class.std::__1::unique_ptr.85" = type { %"class.std::__1::__compressed_pair.86" }
%"class.std::__1::__compressed_pair.86" = type { %"struct.std::__1::__compressed_pair_elem.87" }
%"struct.std::__1::__compressed_pair_elem.87" = type { %"class.memory_instrumentation::mojom::blink::OSMemDump"* }
%"class.WTF::HashMap.91" = type { %"class.WTF::HashTable.92" }
%"class.WTF::HashTable.92" = type <{ %"struct.WTF::KeyValuePair.95"*, i32, i32, i32, [4 x i8] }>
%"struct.WTF::KeyValuePair.95" = type { %"class.WTF::String", %"class.mojo::StructPtr.96" }
%"class.mojo::StructPtr.96" = type { %"class.std::__1::unique_ptr.97" }
%"class.std::__1::unique_ptr.97" = type { %"class.std::__1::__compressed_pair.98" }
%"class.std::__1::__compressed_pair.98" = type { %"struct.std::__1::__compressed_pair_elem.99" }
%"struct.std::__1::__compressed_pair_elem.99" = type { %"class.memory_instrumentation::mojom::blink::AllocatorMemDump"* }
%"class.mojo::InlinedStructPtr.103" = type { %"class.mojo_base::mojom::blink::ProcessId", i32 }
%"class.mojo_base::mojom::blink::ProcessId" = type { i32 }
%"class.memory_instrumentation::mojom::blink::AggregatedMetrics" = type { i32, i32, i32 }
%"class.memory_instrumentation::mojom::blink::GlobalMemoryDump" = type { %"class.base::TimeTicks", %"class.WTF::Vector.104", %"class.mojo::InlinedStructPtr.116" }
%"class.base::TimeTicks" = type { %"class.base::time_internal::TimeBase" }
%"class.base::time_internal::TimeBase" = type { i64 }
%"class.WTF::Vector.104" = type { %"class.WTF::VectorBuffer.105" }
%"class.WTF::VectorBuffer.105" = type { %"class.WTF::VectorBufferBase.106" }
%"class.WTF::VectorBufferBase.106" = type { %"class.mojo::StructPtr.107"*, i32, i32 }
%"class.mojo::StructPtr.107" = type { %"class.std::__1::unique_ptr.108" }
%"class.std::__1::unique_ptr.108" = type { %"class.std::__1::__compressed_pair.109" }
%"class.std::__1::__compressed_pair.109" = type { %"struct.std::__1::__compressed_pair_elem.110" }
%"struct.std::__1::__compressed_pair_elem.110" = type { %"class.memory_instrumentation::mojom::blink::ProcessMemoryDump"* }
%"class.mojo::InlinedStructPtr.116" = type { %"class.memory_instrumentation::mojom::blink::AggregatedMetrics", i32 }
%"class.memory_instrumentation::mojom::blink::HeapProfileResult" = type { %"class.mojo::InlinedStructPtr.103", %"class.WTF::String" }
%"class.memory_instrumentation::mojom::blink::ClientProcessProxy" = type { %"class.memory_instrumentation::mojom::blink::ClientProcess", %"class.mojo::MessageReceiverWithResponder"* }
%"class.memory_instrumentation::mojom::blink::ClientProcess" = type { i32 (...)** }
%"class.mojo::MessageReceiverWithResponder" = type { %"class.mojo::MessageReceiver" }
%"class.mojo::MessageReceiver" = type { i32 (...)** }
%"class.memory_instrumentation::mojom::blink::HeapProfilerProxy" = type { %"class.memory_instrumentation::mojom::blink::HeapProfiler", %"class.mojo::MessageReceiverWithResponder"* }
%"class.memory_instrumentation::mojom::blink::HeapProfiler" = type { i32 (...)** }
%"class.memory_instrumentation::mojom::blink::HeapProfilerHelperProxy" = type { %"class.memory_instrumentation::mojom::blink::HeapProfilerHelper", %"class.mojo::MessageReceiverWithResponder"* }
%"class.memory_instrumentation::mojom::blink::HeapProfilerHelper" = type { i32 (...)** }
%"class.memory_instrumentation::mojom::blink::CoordinatorProxy" = type { %"class.memory_instrumentation::mojom::blink::Coordinator", %"class.mojo::MessageReceiverWithResponder"* }
%"class.memory_instrumentation::mojom::blink::Coordinator" = type { i32 (...)** }
%"class.memory_instrumentation::mojom::blink::CoordinatorConnectorProxy" = type { %"class.memory_instrumentation::mojom::blink::CoordinatorConnector", %"class.mojo::MessageReceiverWithResponder"* }
%"class.memory_instrumentation::mojom::blink::CoordinatorConnector" = type { i32 (...)** }
%"class.perfetto::TracedValue" = type <{ %"class.perfetto::protos::pbzero::DebugAnnotation"*, %"class.perfetto::internal::CheckedScope", [7 x i8] }>
%"class.perfetto::protos::pbzero::DebugAnnotation" = type { %"class.protozero::Message.base", [7 x i8] }
%"class.protozero::Message.base" = type <{ %"class.protozero::ScatteredStreamWriter"*, %"class.protozero::MessageArena"*, %"class.protozero::Message"*, i8*, i32, i32, i8 }>
%"class.protozero::ScatteredStreamWriter" = type { %"class.protozero::ScatteredStreamWriter::Delegate"*, %"struct.protozero::ContiguousMemoryRange", i8*, i64 }
%"class.protozero::ScatteredStreamWriter::Delegate" = type { i32 (...)** }
%"struct.protozero::ContiguousMemoryRange" = type { i8*, i8* }
%"class.protozero::MessageArena" = type { %"class.std::__1::list" }
%"class.std::__1::list" = type { %"class.std::__1::__list_imp" }
%"class.std::__1::__list_imp" = type { %"struct.std::__1::__list_node_base", %"class.std::__1::__compressed_pair" }
%"struct.std::__1::__list_node_base" = type { %"struct.std::__1::__list_node_base"*, %"struct.std::__1::__list_node_base"* }
%"class.std::__1::__compressed_pair" = type { %"struct.std::__1::__compressed_pair_elem" }
%"struct.std::__1::__compressed_pair_elem" = type { i64 }
%"class.protozero::Message" = type <{ %"class.protozero::ScatteredStreamWriter"*, %"class.protozero::MessageArena"*, %"class.protozero::Message"*, i8*, i32, i32, i8, [7 x i8] }>
%"class.perfetto::internal::CheckedScope" = type { i8 }
%"class.perfetto::TracedDictionary" = type <{ %"class.protozero::Message"*, i32, %"class.perfetto::internal::CheckedScope", [3 x i8] }>
%"class.std::__1::basic_string" = type { %"class.std::__1::__compressed_pair.1" }
%"class.std::__1::__compressed_pair.1" = type { %"struct.std::__1::__compressed_pair_elem.2" }
%"struct.std::__1::__compressed_pair_elem.2" = type { %"struct.std::__1::basic_string<char, std::__1::char_traits<char>, std::__1::allocator<char> >::__rep" }
%"struct.std::__1::basic_string<char, std::__1::char_traits<char>, std::__1::allocator<char> >::__rep" = type { %union.anon }
%union.anon = type { %"struct.std::__1::basic_string<char, std::__1::char_traits<char>, std::__1::allocator<char> >::__long" }
%"struct.std::__1::basic_string<char, std::__1::char_traits<char>, std::__1::allocator<char> >::__long" = type { i8*, i64, i64 }
%"struct.std::__1::basic_string<char, std::__1::char_traits<char>, std::__1::allocator<char> >::__short" = type { [23 x i8], %struct.anon }
%struct.anon = type { i8 }
%"class.perfetto::TracedArray" = type <{ %"class.perfetto::protos::pbzero::DebugAnnotation"*, %"class.perfetto::internal::CheckedScope", [7 x i8] }>
%"class.mojo::InlinedStructPtr.117" = type { %"class.memory_instrumentation::mojom::blink::RequestArgs", i32, [4 x i8] }
%"class.base::OnceCallback" = type { %"class.base::internal::CallbackBase" }
%"class.memory_instrumentation::mojom::internal::ClientProcess_RequestChromeMemoryDump_Params_Data" = type { %"struct.mojo::internal::StructHeader", %"struct.mojo::internal::Pointer" }
%"struct.mojo::internal::StructHeader" = type { i32, i32 }
%"struct.mojo::internal::Pointer" = type { i64 }
%"class.memory_instrumentation::mojom::internal::RequestArgs_Data" = type { %"struct.mojo::internal::StructHeader", i64, i32, i32, i32, [4 x i8] }
%"class.WTF::Vector.126" = type { %"class.WTF::VectorBuffer.127" }
%"class.WTF::VectorBuffer.127" = type { %"class.WTF::VectorBufferBase.128" }
%"class.WTF::VectorBufferBase.128" = type { %"class.mojo::InlinedStructPtr.103"*, i32, i32 }
%"class.base::OnceCallback.131" = type { %"class.base::internal::CallbackBase" }
%"class.mojo::internal::MessageFragment.134" = type { %"class.mojo::Message"*, i64 }
%"class.mojo::internal::ContainerValidateParams" = type { i32, i8, %"class.mojo::internal::ContainerValidateParams"*, %"class.mojo::internal::ContainerValidateParams"*, i1 (i32, %"class.mojo::internal::ValidationContext"*)* }
%"class.memory_instrumentation::mojom::internal::ClientProcess_RequestOSMemoryDump_Params_Data" = type { %"struct.mojo::internal::StructHeader", i32, [4 x i8], %"struct.mojo::internal::Pointer.133" }
%"struct.mojo::internal::Pointer.133" = type { i64 }
%"class.mojo::internal::Array_Data" = type { %"struct.mojo::internal::ArrayHeader" }
%"struct.mojo::internal::ArrayHeader" = type { i32, i32 }
%"class.mojo_base::mojom::internal::ProcessId_Data" = type { %"struct.mojo::internal::StructHeader", i32, [4 x i8] }
%"class.memory_instrumentation::mojom::blink::ClientProcess_RequestChromeMemoryDump_ForwardToCallback" = type { %"class.mojo::MessageReceiver", %"class.base::OnceCallback" }
%"class.mojo::StructPtr.136" = type { %"class.std::__1::unique_ptr.137" }
%"class.std::__1::unique_ptr.137" = type { %"class.std::__1::__compressed_pair.138" }
%"class.std::__1::__compressed_pair.138" = type { %"struct.std::__1::__compressed_pair_elem.139" }
%"struct.std::__1::__compressed_pair_elem.139" = type { %"class.memory_instrumentation::mojom::blink::RawProcessMemoryDump"* }
%"class.memory_instrumentation::mojom::internal::RawProcessMemoryDump_Data" = type { %"struct.mojo::internal::StructHeader", i32, [4 x i8], %"struct.mojo::internal::Pointer.151", %"struct.mojo::internal::Pointer.152" }
%"struct.mojo::internal::Pointer.151" = type { i64 }
%"struct.mojo::internal::Pointer.152" = type { i64 }
%"struct.std::__1::default_delete.141" = type { i8 }
%"class.memory_instrumentation::mojom::blink::ClientProcess_RequestChromeMemoryDump_ProxyToResponder" = type { i64, i8, %"class.std::__1::unique_ptr.143" }
%"class.std::__1::unique_ptr.143" = type { %"class.std::__1::__compressed_pair.144" }
%"class.std::__1::__compressed_pair.144" = type { %"struct.std::__1::__compressed_pair_elem.145" }
%"struct.std::__1::__compressed_pair_elem.145" = type { %"class.mojo::MessageReceiverWithStatus"* }
%"class.mojo::MessageReceiverWithStatus" = type { %"class.mojo::MessageReceiver" }
%"class.mojo::internal::MessageFragment.150" = type { %"class.mojo::Message"*, i64 }
%"class.memory_instrumentation::mojom::internal::ClientProcess_RequestChromeMemoryDump_ResponseParams_Data" = type { %"struct.mojo::internal::StructHeader", i8, [7 x i8], i64, %"struct.mojo::internal::Pointer.135" }
%"struct.mojo::internal::Pointer.135" = type { i64 }
%"struct.mojo::internal::MessageHeaderV1" = type { %"struct.mojo::internal::MessageHeader", i64 }
%"struct.mojo::internal::MessageHeader" = type { %"struct.mojo::internal::StructHeader", i32, i32, i32, i32 }
%"class.memory_instrumentation::mojom::blink::ClientProcess_RequestOSMemoryDump_ForwardToCallback" = type { %"class.mojo::MessageReceiver", %"class.base::OnceCallback.131" }
%"class.WTF::HashMap.154" = type { %"class.WTF::HashTable.155" }
%"class.WTF::HashTable.155" = type <{ %"struct.WTF::KeyValuePair.158"*, i32, i32, i32, [4 x i8] }>
%"struct.WTF::KeyValuePair.158" = type { %"class.mojo::InlinedStructPtr.103", %"class.mojo::StructPtr.229" }
%"class.mojo::StructPtr.229" = type { %"class.std::__1::unique_ptr.230" }
%"class.std::__1::unique_ptr.230" = type { %"class.std::__1::__compressed_pair.231" }
%"class.std::__1::__compressed_pair.231" = type { %"struct.std::__1::__compressed_pair_elem.232" }
%"struct.std::__1::__compressed_pair_elem.232" = type { %"class.memory_instrumentation::mojom::blink::RawOSMemDump"* }
%"class.mojo::internal::Map_Data" = type { %"struct.mojo::internal::StructHeader", %"struct.mojo::internal::Pointer.133", %"struct.mojo::internal::Pointer.240" }
%"struct.mojo::internal::Pointer.240" = type { i64 }
%"class.memory_instrumentation::mojom::blink::ClientProcess_RequestOSMemoryDump_ProxyToResponder" = type { i64, i8, %"class.std::__1::unique_ptr.143" }
%"class.mojo::internal::MessageFragment.160" = type { %"class.mojo::Message"*, i64 }
%"class.memory_instrumentation::mojom::internal::ClientProcess_RequestOSMemoryDump_ResponseParams_Data" = type { %"struct.mojo::internal::StructHeader", i8, [7 x i8], %"struct.mojo::internal::Pointer.153" }
%"struct.mojo::internal::Pointer.153" = type { i64 }
%"class.base::TaskAnnotator::ScopedSetIpcHash" = type { %"class.base::TaskAnnotator::ScopedSetIpcHash"*, i32, i8* }
%"class.memory_instrumentation::mojom::blink::ClientProcessRequestValidator" = type { %"class.mojo::MessageReceiver" }
%"class.memory_instrumentation::mojom::blink::ClientProcessResponseValidator" = type { %"class.mojo::MessageReceiver" }
%"class.base::OnceCallback.161" = type { %"class.base::internal::CallbackBase" }
%"class.memory_instrumentation::mojom::internal::HeapProfiler_DumpProcessesForTracing_Params_Data" = type { %"struct.mojo::internal::StructHeader", i8, [7 x i8] }
%"class.memory_instrumentation::mojom::blink::HeapProfiler_DumpProcessesForTracing_ForwardToCallback" = type { %"class.mojo::MessageReceiver", %"class.base::OnceCallback.161" }
%"class.WTF::Vector.164" = type { %"class.WTF::VectorBuffer.165" }
%"class.WTF::VectorBuffer.165" = type { %"class.WTF::VectorBufferBase.166" }
%"class.WTF::VectorBufferBase.166" = type { %"class.mojo::StructPtr.167"*, i32, i32 }
%"class.mojo::StructPtr.167" = type { %"class.std::__1::unique_ptr.168" }
%"class.std::__1::unique_ptr.168" = type { %"class.std::__1::__compressed_pair.169" }
%"class.std::__1::__compressed_pair.169" = type { %"struct.std::__1::__compressed_pair_elem.170" }
%"struct.std::__1::__compressed_pair_elem.170" = type { %"class.memory_instrumentation::mojom::blink::HeapProfileResult"* }
%"class.mojo::internal::Array_Data.178" = type { %"struct.mojo::internal::ArrayHeader" }
%"class.memory_instrumentation::mojom::blink::HeapProfiler_DumpProcessesForTracing_ProxyToResponder" = type { i64, i8, %"class.std::__1::unique_ptr.143" }
%"class.mojo::internal::MessageFragment.453" = type { %"class.mojo::Message"*, i64 }
%"class.memory_instrumentation::mojom::internal::HeapProfiler_DumpProcessesForTracing_ResponseParams_Data" = type { %"struct.mojo::internal::StructHeader", %"struct.mojo::internal::Pointer.163" }
%"struct.mojo::internal::Pointer.163" = type { i64 }
%"class.memory_instrumentation::mojom::internal::HeapProfileResult_Data" = type { %"struct.mojo::internal::StructHeader", %"struct.mojo::internal::Pointer.202", %"struct.mojo::internal::Pointer.239" }
%"struct.mojo::internal::Pointer.202" = type { i64 }
%"struct.mojo::internal::Pointer.239" = type { i64 }
%"class.memory_instrumentation::mojom::blink::HeapProfilerRequestValidator" = type { %"class.mojo::MessageReceiver" }
%"class.memory_instrumentation::mojom::blink::HeapProfilerResponseValidator" = type { %"class.mojo::MessageReceiver" }
%"class.base::OnceCallback.179" = type { %"class.base::internal::CallbackBase" }
%"class.memory_instrumentation::mojom::internal::HeapProfilerHelper_GetVmRegionsForHeapProfiler_Params_Data" = type { %"struct.mojo::internal::StructHeader", %"struct.mojo::internal::Pointer.133" }
%"class.memory_instrumentation::mojom::blink::HeapProfilerHelper_GetVmRegionsForHeapProfiler_ForwardToCallback" = type { %"class.mojo::MessageReceiver", %"class.base::OnceCallback.179" }
%"class.WTF::HashMap.182" = type { %"class.WTF::HashTable.183" }
%"class.WTF::HashTable.183" = type <{ %"struct.WTF::KeyValuePair.186"*, i32, i32, i32, [4 x i8] }>
%"struct.WTF::KeyValuePair.186" = type { %"class.mojo::InlinedStructPtr.103", %"class.WTF::Vector.65" }
%"class.mojo::internal::Map_Data.189" = type { %"struct.mojo::internal::StructHeader", %"struct.mojo::internal::Pointer.133", %"struct.mojo::internal::Pointer.241" }
%"struct.mojo::internal::Pointer.241" = type { i64 }
%"class.WTF::ConditionalDestructor.184" = type { i8 }
%"class.memory_instrumentation::mojom::blink::HeapProfilerHelper_GetVmRegionsForHeapProfiler_ProxyToResponder" = type { i64, i8, %"class.std::__1::unique_ptr.143" }
%"class.mojo::internal::MessageFragment.188" = type { %"class.mojo::Message"*, i64 }
%"class.memory_instrumentation::mojom::internal::HeapProfilerHelper_GetVmRegionsForHeapProfiler_ResponseParams_Data" = type { %"struct.mojo::internal::StructHeader", %"struct.mojo::internal::Pointer.181" }
%"struct.mojo::internal::Pointer.181" = type { i64 }
%"class.memory_instrumentation::mojom::blink::HeapProfilerHelperRequestValidator" = type { %"class.mojo::MessageReceiver" }
%"class.memory_instrumentation::mojom::blink::HeapProfilerHelperResponseValidator" = type { %"class.mojo::MessageReceiver" }
%"class.WTF::Vector.190" = type { %"class.WTF::VectorBuffer.191" }
%"class.WTF::VectorBuffer.191" = type { %"class.WTF::VectorBufferBase.192" }
%"class.WTF::VectorBufferBase.192" = type { %"class.WTF::String"*, i32, i32 }
%"class.base::OnceCallback.195" = type { %"class.base::internal::CallbackBase" }
%"class.mojo::internal::ArrayIterator.493" = type { %"class.WTF::Vector.190"*, i64 }
%"class.mojo::internal::MessageFragment.198" = type { %"class.mojo::Message"*, i64 }
%"class.memory_instrumentation::mojom::internal::Coordinator_RequestGlobalMemoryDump_Params_Data" = type { %"struct.mojo::internal::StructHeader", i32, i32, i32, [4 x i8], %"struct.mojo::internal::Pointer.197" }
%"struct.mojo::internal::Pointer.197" = type { i64 }
%"class.mojo::internal::Array_Data.199" = type { %"struct.mojo::internal::ArrayHeader" }
%"class.memory_instrumentation::mojom::internal::Coordinator_RequestGlobalMemoryDumpForPid_Params_Data" = type { %"struct.mojo::internal::StructHeader", %"struct.mojo::internal::Pointer.202", %"struct.mojo::internal::Pointer.197" }
%"class.memory_instrumentation::mojom::internal::Coordinator_RequestPrivateMemoryFootprint_Params_Data" = type { %"struct.mojo::internal::StructHeader", %"struct.mojo::internal::Pointer.202" }
%"class.base::OnceCallback.204" = type { %"class.base::internal::CallbackBase" }
%"class.memory_instrumentation::mojom::internal::Coordinator_RequestGlobalMemoryDumpAndAppendToTrace_Params_Data" = type { %"struct.mojo::internal::StructHeader", i32, i32, i32, [4 x i8] }
%"class.memory_instrumentation::mojom::blink::Coordinator_RequestGlobalMemoryDump_ForwardToCallback" = type { %"class.mojo::MessageReceiver", %"class.base::OnceCallback.195" }
%"class.mojo::StructPtr.207" = type { %"class.std::__1::unique_ptr.208" }
%"class.std::__1::unique_ptr.208" = type { %"class.std::__1::__compressed_pair.209" }
%"class.std::__1::__compressed_pair.209" = type { %"struct.std::__1::__compressed_pair_elem.210" }
%"struct.std::__1::__compressed_pair_elem.210" = type { %"class.memory_instrumentation::mojom::blink::GlobalMemoryDump"* }
%"class.memory_instrumentation::mojom::internal::GlobalMemoryDump_Data" = type { %"struct.mojo::internal::StructHeader", %"struct.mojo::internal::Pointer.216", %"struct.mojo::internal::Pointer.217", %"struct.mojo::internal::Pointer.218" }
%"struct.mojo::internal::Pointer.216" = type { i64 }
%"struct.mojo::internal::Pointer.217" = type { i64 }
%"struct.mojo::internal::Pointer.218" = type { i64 }
%"class.memory_instrumentation::mojom::blink::Coordinator_RequestGlobalMemoryDump_ProxyToResponder" = type { i64, i8, %"class.std::__1::unique_ptr.143" }
%"class.mojo::internal::MessageFragment.215" = type { %"class.mojo::Message"*, i64 }
%"class.memory_instrumentation::mojom::internal::Coordinator_RequestGlobalMemoryDump_ResponseParams_Data" = type { %"struct.mojo::internal::StructHeader", i8, [7 x i8], %"struct.mojo::internal::Pointer.206" }
%"struct.mojo::internal::Pointer.206" = type { i64 }
%"class.memory_instrumentation::mojom::blink::Coordinator_RequestGlobalMemoryDumpForPid_ForwardToCallback" = type { %"class.mojo::MessageReceiver", %"class.base::OnceCallback.195" }
%"class.memory_instrumentation::mojom::blink::Coordinator_RequestGlobalMemoryDumpForPid_ProxyToResponder" = type { i64, i8, %"class.std::__1::unique_ptr.143" }
%"class.memory_instrumentation::mojom::internal::Coordinator_RequestGlobalMemoryDumpForPid_ResponseParams_Data" = type { %"struct.mojo::internal::StructHeader", i8, [7 x i8], %"struct.mojo::internal::Pointer.206" }
%"class.memory_instrumentation::mojom::blink::Coordinator_RequestPrivateMemoryFootprint_ForwardToCallback" = type { %"class.mojo::MessageReceiver", %"class.base::OnceCallback.195" }
%"class.memory_instrumentation::mojom::blink::Coordinator_RequestPrivateMemoryFootprint_ProxyToResponder" = type { i64, i8, %"class.std::__1::unique_ptr.143" }
%"class.memory_instrumentation::mojom::internal::Coordinator_RequestPrivateMemoryFootprint_ResponseParams_Data" = type { %"struct.mojo::internal::StructHeader", i8, [7 x i8], %"struct.mojo::internal::Pointer.206" }
%"class.memory_instrumentation::mojom::blink::Coordinator_RequestGlobalMemoryDumpAndAppendToTrace_ForwardToCallback" = type { %"class.mojo::MessageReceiver", %"class.base::OnceCallback.204" }
%"class.memory_instrumentation::mojom::blink::Coordinator_RequestGlobalMemoryDumpAndAppendToTrace_ProxyToResponder" = type { i64, i8, %"class.std::__1::unique_ptr.143" }
%"class.memory_instrumentation::mojom::internal::Coordinator_RequestGlobalMemoryDumpAndAppendToTrace_ResponseParams_Data" = type { %"struct.mojo::internal::StructHeader", i8, [7 x i8], i64 }
%"class.memory_instrumentation::mojom::Coordinator_RequestGlobalMemoryDump_ParamsDataView" = type { %"class.memory_instrumentation::mojom::internal::Coordinator_RequestGlobalMemoryDump_Params_Data"*, %"class.mojo::Message"* }
%"class.memory_instrumentation::mojom::Coordinator_RequestGlobalMemoryDumpForPid_ParamsDataView" = type { %"class.memory_instrumentation::mojom::internal::Coordinator_RequestGlobalMemoryDumpForPid_Params_Data"*, %"class.mojo::Message"* }
%"class.memory_instrumentation::mojom::blink::CoordinatorRequestValidator" = type { %"class.mojo::MessageReceiver" }
%"class.memory_instrumentation::mojom::blink::CoordinatorResponseValidator" = type { %"class.mojo::MessageReceiver" }
%"class.mojo::PendingReceiver" = type { %"struct.mojo::internal::PendingReceiverState" }
%"struct.mojo::internal::PendingReceiverState" = type { %"class.mojo::ScopedHandleBase.222", %"class.mojo::ConnectionGroup::Ref" }
%"class.mojo::ScopedHandleBase.222" = type { %"class.mojo::MessagePipeHandle" }
%"class.mojo::MessagePipeHandle" = type { %"class.mojo::Handle" }
%"class.mojo::PendingRemote" = type { %"struct.mojo::internal::PendingRemoteState" }
%"struct.mojo::internal::PendingRemoteState" = type { %"class.mojo::ScopedHandleBase.222", i32 }
%"class.memory_instrumentation::mojom::internal::CoordinatorConnector_RegisterCoordinatorClient_Params_Data" = type { %"struct.mojo::internal::StructHeader", %"struct.mojo::internal::Handle_Data", %"struct.mojo::internal::Interface_Data", [4 x i8] }
%"struct.mojo::internal::Handle_Data" = type { i32 }
%"struct.mojo::internal::Interface_Data" = type { %"struct.mojo::internal::Handle_Data", i32 }
%"class.memory_instrumentation::mojom::CoordinatorConnector_RegisterCoordinatorClient_ParamsDataView" = type { %"class.memory_instrumentation::mojom::internal::CoordinatorConnector_RegisterCoordinatorClient_Params_Data"*, %"class.mojo::Message"* }
%"class.memory_instrumentation::mojom::blink::CoordinatorConnectorRequestValidator" = type { %"class.mojo::MessageReceiver" }
%"class.memory_instrumentation::mojom::internal::RawAllocatorDumpEdge_Data" = type { %"struct.mojo::internal::StructHeader", i64, i64, i32, i8, [3 x i8] }
%"class.memory_instrumentation::mojom::internal::RawAllocatorDumpEntry_Data" = type { %"struct.mojo::internal::StructHeader", %"struct.mojo::internal::Pointer.224", %"struct.mojo::internal::Pointer.224", %"class.memory_instrumentation::mojom::internal::RawAllocatorDumpEntryValue_Data" }
%"struct.mojo::internal::Pointer.224" = type { i64 }
%"class.memory_instrumentation::mojom::internal::RawAllocatorDumpEntryValue_Data" = type { i32, i32, %"union.memory_instrumentation::mojom::internal::RawAllocatorDumpEntryValue_Data::Union_" }
%"union.memory_instrumentation::mojom::internal::RawAllocatorDumpEntryValue_Data::Union_" = type { i64 }
%"class.mojo::internal::Array_Data.402" = type { %"struct.mojo::internal::ArrayHeader" }
%"class.memory_instrumentation::mojom::internal::RawAllocatorDump_Data" = type { %"struct.mojo::internal::StructHeader", i64, %"struct.mojo::internal::Pointer.224", i8, [3 x i8], i32, %"struct.mojo::internal::Pointer.225" }
%"struct.mojo::internal::Pointer.225" = type { i64 }
%"class.mojo::internal::Array_Data.404" = type { %"struct.mojo::internal::ArrayHeader" }
%"class.mojo::internal::Array_Data.392" = type { %"struct.mojo::internal::ArrayHeader" }
%"class.mojo::internal::Array_Data.394" = type { %"struct.mojo::internal::ArrayHeader" }
%"class.memory_instrumentation::mojom::internal::VmRegion_Data" = type { %"struct.mojo::internal::StructHeader", i64, i64, i64, %"struct.mojo::internal::Pointer.224", %"struct.mojo::internal::Pointer.224", i32, [4 x i8], %"struct.mojo::internal::Pointer.224", i64, i64, i64, i64, i64, i64, i64 }
%"class.memory_instrumentation::mojom::internal::PlatformPrivateFootprint_Data" = type { %"struct.mojo::internal::StructHeader", i64, i64, i64, i64, i64, i64 }
%"class.memory_instrumentation::mojom::internal::RawOSMemDump_Data" = type { %"struct.mojo::internal::StructHeader", i32, i32, i8, [7 x i8], %"struct.mojo::internal::Pointer.226", %"struct.mojo::internal::Pointer.227", %"struct.mojo::internal::Pointer.228" }
%"struct.mojo::internal::Pointer.226" = type { i64 }
%"struct.mojo::internal::Pointer.227" = type { i64 }
%"struct.mojo::internal::Pointer.228" = type { i64 }
%"class.mojo::internal::Array_Data.435" = type { %"struct.mojo::internal::ArrayHeader" }
%"class.mojo::internal::Array_Data.437" = type { %"struct.mojo::internal::ArrayHeader" }
%"class.memory_instrumentation::mojom::internal::OSMemDump_Data" = type { %"struct.mojo::internal::StructHeader", i32, i32, i8, [3 x i8], i32, i32, i32 }
%"class.memory_instrumentation::mojom::internal::AllocatorMemDump_Data" = type { %"struct.mojo::internal::StructHeader", %"struct.mojo::internal::Pointer.236" }
%"struct.mojo::internal::Pointer.236" = type { i64 }
%"class.mojo::internal::Map_Data.514" = type { %"struct.mojo::internal::StructHeader", %"struct.mojo::internal::Pointer.197", %"struct.mojo::internal::Pointer.515" }
%"struct.mojo::internal::Pointer.515" = type { i64 }
%"class.memory_instrumentation::mojom::internal::ProcessMemoryDump_Data" = type { %"struct.mojo::internal::StructHeader", i32, [4 x i8], %"struct.mojo::internal::Pointer.237", %"struct.mojo::internal::Pointer.238", %"struct.mojo::internal::Pointer.202", %"struct.mojo::internal::Pointer.224" }
%"struct.mojo::internal::Pointer.237" = type { i64 }
%"struct.mojo::internal::Pointer.238" = type { i64 }
%"class.mojo::internal::Map_Data.503" = type { %"struct.mojo::internal::StructHeader", %"struct.mojo::internal::Pointer.197", %"struct.mojo::internal::Pointer.504" }
%"struct.mojo::internal::Pointer.504" = type { i64 }
%"class.memory_instrumentation::mojom::internal::AggregatedMetrics_Data" = type { %"struct.mojo::internal::StructHeader", i32, i32, i32, [4 x i8] }
%"class.mojo_base::mojom::internal::TimeTicks_Data" = type { %"struct.mojo::internal::StructHeader", i64 }
%"class.mojo::internal::Array_Data.496" = type { %"struct.mojo::internal::ArrayHeader" }
%"class.mojo_base::mojom::internal::BigString_Data" = type { %"struct.mojo::internal::StructHeader", %"class.mojo_base::mojom::internal::BigBuffer_Data" }
%"class.mojo_base::mojom::internal::BigBuffer_Data" = type { i32, i32, %"union.mojo_base::mojom::internal::BigBuffer_Data::Union_" }
%"union.mojo_base::mojom::internal::BigBuffer_Data::Union_" = type { %"struct.mojo::internal::Pointer.228" }
%"class.logging::CheckError" = type { %"class.logging::LogMessage"* }
%"class.logging::LogMessage" = type { i32 (...)**, i32, %"class.std::__1::basic_ostringstream", i64, i8*, i32, %"class.base::ScopedClearLastErrorBase" }
%"class.std::__1::basic_ostringstream" = type { %"class.std::__1::basic_ostream.base", %"class.std::__1::basic_stringbuf", %"class.std::__1::basic_ios.base" }
%"class.std::__1::basic_ostream.base" = type { i32 (...)** }
%"class.std::__1::basic_stringbuf" = type <{ %"class.std::__1::basic_streambuf", %"class.std::__1::basic_string", i8*, i32, [4 x i8] }>
%"class.std::__1::basic_streambuf" = type { i32 (...)**, %"class.std::__1::locale", i8*, i8*, i8*, i8*, i8*, i8* }
%"class.std::__1::locale" = type { %"class.std::__1::locale::__imp"* }
%"class.std::__1::locale::__imp" = type opaque
%"class.std::__1::basic_ios.base" = type <{ %"class.std::__1::ios_base", %"class.std::__1::basic_ostream"*, i32 }>
%"class.std::__1::ios_base" = type { i32 (...)**, i32, i64, i64, i32, i32, i8*, i8*, void (i32, %"class.std::__1::ios_base"*, i32)**, i32*, i64, i64, i64*, i64, i64, i8**, i64, i64 }
%"class.std::__1::basic_ostream" = type { i32 (...)**, %"class.std::__1::basic_ios.base" }
%"class.base::ScopedClearLastErrorBase" = type { i32 }
%"class.logging::CheckOpResult" = type { i8* }
%"class.std::__1::unique_ptr.267" = type { %"class.std::__1::__compressed_pair.268" }
%"class.std::__1::__compressed_pair.268" = type { %"struct.std::__1::__compressed_pair_elem.269" }
%"struct.std::__1::__compressed_pair_elem.269" = type { %"class.memory_instrumentation::mojom::blink::ClientProcess_RequestOSMemoryDump_ProxyToResponder"* }
%"class.std::__1::unique_ptr.278" = type { %"class.std::__1::__compressed_pair.279" }
%"class.std::__1::__compressed_pair.279" = type { %"struct.std::__1::__compressed_pair_elem.280" }
%"struct.std::__1::__compressed_pair_elem.280" = type { %"class.memory_instrumentation::mojom::blink::HeapProfiler_DumpProcessesForTracing_ProxyToResponder"* }
%"class.mojo::internal::ArrayIterator.395" = type { %"class.WTF::Vector.41"*, i64 }
%"class.mojo::internal::MessageFragment.399" = type { %"class.mojo::Message"*, i64 }
%"class.mojo::internal::MessageFragment.391" = type { %"class.mojo::Message"*, i64 }
%"class.WTF::StringUTF8Adaptor" = type <{ %"class.std::__1::basic_string", i8*, i32, [4 x i8] }>
%"class.mojo::internal::MessageFragment.406" = type { %"class.mojo::Message"*, i64 }
%"class.mojo::internal::MessageFragment.408" = type { %"class.mojo::Message"*, i64 }
%"class.mojo::internal::Array_Data.423" = type { %"struct.mojo::internal::ArrayHeader" }
%"class.std::__1::__vector_base_common" = type { i8 }
%"class.std::__1::basic_ostream<char, std::__1::char_traits<char> >::sentry" = type { i8, %"class.std::__1::basic_ostream"* }
%"class.std::__1::locale::facet" = type { %"class.std::__1::__shared_count" }
%"class.std::__1::__shared_count" = type { i32 (...)**, i64 }
%"class.std::__1::ctype" = type <{ %"class.std::__1::locale::facet", i16*, i8, [7 x i8] }>
%"class.mojo::internal::MessageFragment.432" = type { %"class.mojo::Message"*, i64 }
%"class.mojo::internal::MessageFragment.439" = type { %"class.mojo::Message"*, i64 }
%"class.mojo::internal::MessageFragment.454" = type { %"class.mojo::Message"*, i64 }
%"class.mojo_base::BigBuffer" = type { i32, %"class.std::__1::unique_ptr.456", i64, %"class.absl::optional" }
%"class.std::__1::unique_ptr.456" = type { %"class.std::__1::__compressed_pair.457" }
%"class.std::__1::__compressed_pair.457" = type { %"struct.std::__1::__compressed_pair_elem.458" }
%"struct.std::__1::__compressed_pair_elem.458" = type { i8* }
%"class.absl::optional" = type { %"class.absl::optional_internal::optional_data" }
%"class.absl::optional_internal::optional_data" = type { %"class.absl::optional_internal::optional_data_base" }
%"class.absl::optional_internal::optional_data_base" = type { %"class.absl::optional_internal::optional_data_dtor_base" }
%"class.absl::optional_internal::optional_data_dtor_base" = type { i8, %union.anon.462 }
%union.anon.462 = type { %"class.mojo_base::internal::BigBufferSharedMemoryRegion" }
%"class.mojo_base::internal::BigBufferSharedMemoryRegion" = type { i64, %"class.mojo::ScopedHandleBase.463", %"class.std::__1::unique_ptr.464" }
%"class.mojo::ScopedHandleBase.463" = type { %"class.mojo::SharedBufferHandle" }
%"class.mojo::SharedBufferHandle" = type { %"class.mojo::Handle" }
%"class.std::__1::unique_ptr.464" = type { %"class.std::__1::__compressed_pair.465" }
%"class.std::__1::__compressed_pair.465" = type { %"struct.std::__1::__compressed_pair_elem.466" }
%"struct.std::__1::__compressed_pair_elem.466" = type { i8* }
%"class.mojo::internal::MessageFragment.468" = type { %"class.mojo::Message"*, i64 }
%"class.mojo::internal::MessageFragment.471" = type { %"class.mojo::Message"*, i64 }
%"class.mojo_base::mojom::internal::BigBufferSharedMemoryRegion_Data" = type { %"struct.mojo::internal::StructHeader", %"struct.mojo::internal::Handle_Data", i32 }
%"class.std::__1::vector.473" = type { %"class.std::__1::__vector_base.474" }
%"class.std::__1::__vector_base.474" = type { %"class.WTF::Vector.65"*, %"class.WTF::Vector.65"*, %"class.std::__1::__compressed_pair.475" }
%"class.std::__1::__compressed_pair.475" = type { %"struct.std::__1::__compressed_pair_elem.476" }
%"struct.std::__1::__compressed_pair_elem.476" = type { %"class.WTF::Vector.65"* }
%"class.mojo::internal::Array_Data.480" = type { %"struct.mojo::internal::ArrayHeader" }
%"class.mojo::internal::MessageFragment.491" = type { %"class.mojo::Message"*, i64 }
%"class.mojo::internal::MapValueReader.492" = type { %"class.mojo::internal::MapReaderBase.487" }
%"class.mojo::internal::MapReaderBase.487" = type { %"class.WTF::HashMap.182"*, %"struct.WTF::HashTableIteratorAdapter.488" }
%"struct.WTF::HashTableIteratorAdapter.488" = type { %"class.WTF::HashTableIterator.489" }
%"class.WTF::HashTableIterator.489" = type { %"class.WTF::HashTableConstIterator.490" }
%"class.WTF::HashTableConstIterator.490" = type { %"struct.WTF::KeyValuePair.186"*, %"struct.WTF::KeyValuePair.186"* }
%"class.mojo::internal::MessageFragment.499" = type { %"class.mojo::Message"*, i64 }
%"class.mojo::internal::MessageFragment.502" = type { %"class.mojo::Message"*, i64 }
%"class.mojo::internal::MessageFragment.511" = type { %"class.mojo::Message"*, i64 }
%"class.mojo::internal::MapKeyReader.505" = type { %"class.mojo::internal::MapReaderBase.506" }
%"class.mojo::internal::MapReaderBase.506" = type { %"class.WTF::HashMap.91"*, %"struct.WTF::HashTableConstIteratorAdapter" }
%"struct.WTF::HashTableConstIteratorAdapter" = type { %"class.WTF::HashTableConstIterator.507" }
%"class.WTF::HashTableConstIterator.507" = type { %"struct.WTF::KeyValuePair.95"*, %"struct.WTF::KeyValuePair.95"* }
%"class.mojo::internal::Array_Data.510" = type { %"struct.mojo::internal::ArrayHeader" }
%"class.mojo::internal::MessageFragment.513" = type { %"class.mojo::Message"*, i64 }
%"class.mojo::internal::MapKeyReader.516" = type { %"class.mojo::internal::MapReaderBase.517" }
%"class.mojo::internal::MapReaderBase.517" = type { %"class.WTF::HashMap"*, %"struct.WTF::HashTableConstIteratorAdapter.518" }
%"struct.WTF::HashTableConstIteratorAdapter.518" = type { %"class.WTF::HashTableConstIterator" }
%"class.WTF::HashTableConstIterator" = type { %"struct.WTF::KeyValuePair"*, %"struct.WTF::KeyValuePair"* }
%"class.mojo::internal::Array_Data.521" = type { %"struct.mojo::internal::ArrayHeader" }
%"class.std::__1::vector.547" = type { %"class.std::__1::__vector_base.548" }
%"class.std::__1::__vector_base.548" = type { %"class.mojo::StructPtr.96"*, %"class.mojo::StructPtr.96"*, %"class.std::__1::__compressed_pair.549" }
%"class.std::__1::__compressed_pair.549" = type { %"struct.std::__1::__compressed_pair_elem.550" }
%"struct.std::__1::__compressed_pair_elem.550" = type { %"class.mojo::StructPtr.96"* }

$_ZN4mojo8internal9SerializeINS_13ArrayDataViewIN9mojo_base5mojom17ProcessIdDataViewEEERN3WTF6VectorINS_16InlinedStructPtrINS4_5blink9ProcessIdEEELj0ENS7_18PartitionAllocatorEEEJRNS0_15MessageFragmentINS0_10Array_DataINS0_7PointerINS4_8internal14ProcessId_DataEEEEEEEPKNS0_23ContainerValidateParamsEELPv0EEEvOT0_DpOT1_ = comdat any

$_ZN4mojo8internal23ContainerValidateParamsD2Ev = comdat any

$_ZN22memory_instrumentation5mojom50Coordinator_RequestGlobalMemoryDump_ParamsDataView22ReadAllocatorDumpNamesIN3WTF6VectorINS3_6StringELj0ENS3_18PartitionAllocatorEEEEEbPT_ = comdat any

$_ZN22memory_instrumentation5mojom56Coordinator_RequestGlobalMemoryDumpForPid_ParamsDataView22ReadAllocatorDumpNamesIN3WTF6VectorINS3_6StringELj0ENS3_18PartitionAllocatorEEEEEbPT_ = comdat any

$_ZN22memory_instrumentation5mojom61CoordinatorConnector_RegisterCoordinatorClient_ParamsDataView17TakeClientProcessIN4mojo13PendingRemoteINS0_5blink13ClientProcessEEEEET_v = comdat any

$_ZN22memory_instrumentation5mojom5blink55ClientProcess_RequestChromeMemoryDump_ForwardToCallbackD2Ev = comdat any

$_ZN22memory_instrumentation5mojom5blink55ClientProcess_RequestChromeMemoryDump_ForwardToCallbackD0Ev = comdat any

$_ZN22memory_instrumentation5mojom5blink51ClientProcess_RequestOSMemoryDump_ForwardToCallbackD2Ev = comdat any

$_ZN22memory_instrumentation5mojom5blink51ClientProcess_RequestOSMemoryDump_ForwardToCallbackD0Ev = comdat any

$_ZN22memory_instrumentation5mojom5blink13ClientProcessD2Ev = comdat any

$_ZN22memory_instrumentation5mojom5blink18ClientProcessProxyD0Ev = comdat any

$_ZN22memory_instrumentation5mojom5blink29ClientProcessRequestValidatorD0Ev = comdat any

$_ZN22memory_instrumentation5mojom5blink30ClientProcessResponseValidatorD0Ev = comdat any

$_ZN22memory_instrumentation5mojom5blink54HeapProfiler_DumpProcessesForTracing_ForwardToCallbackD2Ev = comdat any

$_ZN22memory_instrumentation5mojom5blink54HeapProfiler_DumpProcessesForTracing_ForwardToCallbackD0Ev = comdat any

$_ZN22memory_instrumentation5mojom5blink12HeapProfilerD2Ev = comdat any

$_ZN22memory_instrumentation5mojom5blink17HeapProfilerProxyD0Ev = comdat any

$_ZN22memory_instrumentation5mojom5blink28HeapProfilerRequestValidatorD0Ev = comdat any

$_ZN22memory_instrumentation5mojom5blink29HeapProfilerResponseValidatorD0Ev = comdat any

$_ZN22memory_instrumentation5mojom5blink64HeapProfilerHelper_GetVmRegionsForHeapProfiler_ForwardToCallbackD2Ev = comdat any

$_ZN22memory_instrumentation5mojom5blink64HeapProfilerHelper_GetVmRegionsForHeapProfiler_ForwardToCallbackD0Ev = comdat any

$_ZN22memory_instrumentation5mojom5blink18HeapProfilerHelperD2Ev = comdat any

$_ZN22memory_instrumentation5mojom5blink23HeapProfilerHelperProxyD0Ev = comdat any

$_ZN22memory_instrumentation5mojom5blink34HeapProfilerHelperRequestValidatorD0Ev = comdat any

$_ZN22memory_instrumentation5mojom5blink35HeapProfilerHelperResponseValidatorD0Ev = comdat any

$_ZN22memory_instrumentation5mojom5blink53Coordinator_RequestGlobalMemoryDump_ForwardToCallbackD2Ev = comdat any

$_ZN22memory_instrumentation5mojom5blink53Coordinator_RequestGlobalMemoryDump_ForwardToCallbackD0Ev = comdat any

$_ZN22memory_instrumentation5mojom5blink59Coordinator_RequestGlobalMemoryDumpForPid_ForwardToCallbackD2Ev = comdat any

$_ZN22memory_instrumentation5mojom5blink59Coordinator_RequestGlobalMemoryDumpForPid_ForwardToCallbackD0Ev = comdat any

$_ZN22memory_instrumentation5mojom5blink59Coordinator_RequestPrivateMemoryFootprint_ForwardToCallbackD2Ev = comdat any

$_ZN22memory_instrumentation5mojom5blink59Coordinator_RequestPrivateMemoryFootprint_ForwardToCallbackD0Ev = comdat any

$_ZN22memory_instrumentation5mojom5blink69Coordinator_RequestGlobalMemoryDumpAndAppendToTrace_ForwardToCallbackD2Ev = comdat any

$_ZN22memory_instrumentation5mojom5blink69Coordinator_RequestGlobalMemoryDumpAndAppendToTrace_ForwardToCallbackD0Ev = comdat any

$_ZN22memory_instrumentation5mojom5blink11CoordinatorD2Ev = comdat any

$_ZN22memory_instrumentation5mojom5blink16CoordinatorProxyD0Ev = comdat any

$_ZN22memory_instrumentation5mojom5blink27CoordinatorRequestValidatorD0Ev = comdat any

$_ZN4mojo15MessageReceiverD2Ev = comdat any

$_ZN22memory_instrumentation5mojom5blink28CoordinatorResponseValidatorD0Ev = comdat any

$_ZN22memory_instrumentation5mojom5blink20CoordinatorConnectorD2Ev = comdat any

$_ZN22memory_instrumentation5mojom5blink25CoordinatorConnectorProxyD0Ev = comdat any

$_ZN22memory_instrumentation5mojom5blink36CoordinatorConnectorRequestValidatorD0Ev = comdat any

$_ZN3WTF9HashTableINS_6StringENS_12KeyValuePairIS1_mEENS_24KeyValuePairKeyExtractorENS_10StringHashENS_18HashMapValueTraitsINS_10HashTraitsIS1_EENS7_ImEEEES8_NS_18PartitionAllocatorEE22ReserveCapacityForSizeEj = comdat any

$_ZN3WTF9HashTableINS_6StringENS_12KeyValuePairIS1_mEENS_24KeyValuePairKeyExtractorENS_10StringHashENS_18HashMapValueTraitsINS_10HashTraitsIS1_EENS7_ImEEEES8_NS_18PartitionAllocatorEE8RehashToEPS3_jSD_ = comdat any

$_ZN3WTF9HashTableINS_6StringENS_12KeyValuePairIS1_mEENS_24KeyValuePairKeyExtractorENS_10StringHashENS_18HashMapValueTraitsINS_10HashTraitsIS1_EENS7_ImEEEES8_NS_18PartitionAllocatorEE16LookupForWritingERKS1_ = comdat any

$_ZN3WTF9HashTableINS_6StringENS_12KeyValuePairIS1_mEENS_24KeyValuePairKeyExtractorENS_10StringHashENS_18HashMapValueTraitsINS_10HashTraitsIS1_EENS7_ImEEEES8_NS_18PartitionAllocatorEE6insertINS_22IdentityHashTranslatorIS5_SA_SB_EERKS1_RKS3_EENS_18HashTableAddResultISC_S3_EEOT0_OT1_ = comdat any

$_ZN3WTF9HashTableINS_6StringENS_12KeyValuePairIS1_mEENS_24KeyValuePairKeyExtractorENS_10StringHashENS_18HashMapValueTraitsINS_10HashTraitsIS1_EENS7_ImEEEES8_NS_18PartitionAllocatorEE6ExpandEPS3_ = comdat any

$_ZNKSt3__114default_deleteIN22memory_instrumentation5mojom5blink20RawProcessMemoryDumpEEclEPS4_ = comdat any

$_ZN4base8internal7InvokerINS0_9BindStateIMN22memory_instrumentation5mojom5blink54ClientProcess_RequestChromeMemoryDump_ProxyToResponderEFvbmN4mojo9StructPtrINS5_20RawProcessMemoryDumpEEEEJNSt3__110unique_ptrIS6_NSD_14default_deleteIS6_EEEEEEEFvbmSA_EE7RunOnceEPNS0_13BindStateBaseEbmOSA_ = comdat any

$_ZN4base8internal9BindStateIMN22memory_instrumentation5mojom5blink54ClientProcess_RequestChromeMemoryDump_ProxyToResponderEFvbmN4mojo9StructPtrINS4_20RawProcessMemoryDumpEEEEJNSt3__110unique_ptrIS5_NSC_14default_deleteIS5_EEEEEE7DestroyEPKNS0_13BindStateBaseE = comdat any

$_ZN4base8internal7InvokerINS0_9BindStateIMN22memory_instrumentation5mojom5blink50ClientProcess_RequestOSMemoryDump_ProxyToResponderEFvbN3WTF7HashMapIN4mojo16InlinedStructPtrIN9mojo_base5mojom5blink9ProcessIdEEENS9_9StructPtrINS5_12RawOSMemDumpEEENS9_8internal22InlinedStructPtrHashFnISE_EENS7_10HashTraitsISF_EENSM_ISI_EENS7_18PartitionAllocatorEEEEJNSt3__110unique_ptrIS6_NST_14default_deleteIS6_EEEEEEEFvbSQ_EE7RunOnceEPNS0_13BindStateBaseEbOSQ_ = comdat any

$_ZN4base8internal12InvokeHelperILb0EvE8MakeItSoIMN22memory_instrumentation5mojom5blink50ClientProcess_RequestOSMemoryDump_ProxyToResponderEFvbN3WTF7HashMapIN4mojo16InlinedStructPtrIN9mojo_base5mojom5blink9ProcessIdEEENSA_9StructPtrINS6_12RawOSMemDumpEEENSA_8internal22InlinedStructPtrHashFnISF_EENS8_10HashTraitsISG_EENSN_ISJ_EENS8_18PartitionAllocatorEEEEJNSt3__110unique_ptrIS7_NSU_14default_deleteIS7_EEEEbSR_EEEvOT_DpOT0_ = comdat any

$_ZN4base8internal9BindStateIMN22memory_instrumentation5mojom5blink50ClientProcess_RequestOSMemoryDump_ProxyToResponderEFvbN3WTF7HashMapIN4mojo16InlinedStructPtrIN9mojo_base5mojom5blink9ProcessIdEEENS8_9StructPtrINS4_12RawOSMemDumpEEENS8_8internal22InlinedStructPtrHashFnISD_EENS6_10HashTraitsISE_EENSL_ISH_EENS6_18PartitionAllocatorEEEEJNSt3__110unique_ptrIS5_NSS_14default_deleteIS5_EEEEEE7DestroyEPKNS0_13BindStateBaseE = comdat any

$_ZN4base8internal7InvokerINS0_9BindStateIMN22memory_instrumentation5mojom5blink53HeapProfiler_DumpProcessesForTracing_ProxyToResponderEFvN3WTF6VectorIN4mojo9StructPtrINS5_17HeapProfileResultEEELj0ENS7_18PartitionAllocatorEEEEJNSt3__110unique_ptrIS6_NSH_14default_deleteIS6_EEEEEEEFvSE_EE7RunOnceEPNS0_13BindStateBaseEOSE_ = comdat any

$_ZN4base8internal12InvokeHelperILb0EvE8MakeItSoIMN22memory_instrumentation5mojom5blink53HeapProfiler_DumpProcessesForTracing_ProxyToResponderEFvN3WTF6VectorIN4mojo9StructPtrINS6_17HeapProfileResultEEELj0ENS8_18PartitionAllocatorEEEEJNSt3__110unique_ptrIS7_NSI_14default_deleteIS7_EEEESF_EEEvOT_DpOT0_ = comdat any

$_ZN4base8internal9BindStateIMN22memory_instrumentation5mojom5blink53HeapProfiler_DumpProcessesForTracing_ProxyToResponderEFvN3WTF6VectorIN4mojo9StructPtrINS4_17HeapProfileResultEEELj0ENS6_18PartitionAllocatorEEEEJNSt3__110unique_ptrIS5_NSG_14default_deleteIS5_EEEEEE7DestroyEPKNS0_13BindStateBaseE = comdat any

$_ZN3WTF21ConditionalDestructorINS_9HashTableIN4mojo16InlinedStructPtrIN9mojo_base5mojom5blink9ProcessIdEEENS_12KeyValuePairIS8_NS_6VectorINS2_9StructPtrIN22memory_instrumentation5mojom5blink8VmRegionEEELj0ENS_18PartitionAllocatorEEEEENS_24KeyValuePairKeyExtractorENS2_8internal22InlinedStructPtrHashFnIS7_EENS_18HashMapValueTraitsINS_10HashTraitsIS8_EENSP_ISI_EEEESQ_SH_EELb0EED2Ev = comdat any

$_ZN4base8internal7InvokerINS0_9BindStateIMN22memory_instrumentation5mojom5blink63HeapProfilerHelper_GetVmRegionsForHeapProfiler_ProxyToResponderEFvN3WTF7HashMapIN4mojo16InlinedStructPtrIN9mojo_base5mojom5blink9ProcessIdEEENS7_6VectorINS9_9StructPtrINS5_8VmRegionEEELj0ENS7_18PartitionAllocatorEEENS9_8internal22InlinedStructPtrHashFnISE_EENS7_10HashTraitsISF_EENSP_ISL_EESK_EEEJNSt3__110unique_ptrIS6_NSV_14default_deleteIS6_EEEEEEEFvSS_EE7RunOnceEPNS0_13BindStateBaseEOSS_ = comdat any

$_ZN4base8internal9BindStateIMN22memory_instrumentation5mojom5blink63HeapProfilerHelper_GetVmRegionsForHeapProfiler_ProxyToResponderEFvN3WTF7HashMapIN4mojo16InlinedStructPtrIN9mojo_base5mojom5blink9ProcessIdEEENS6_6VectorINS8_9StructPtrINS4_8VmRegionEEELj0ENS6_18PartitionAllocatorEEENS8_8internal22InlinedStructPtrHashFnISD_EENS6_10HashTraitsISE_EENSO_ISK_EESJ_EEEJNSt3__110unique_ptrIS5_NSU_14default_deleteIS5_EEEEEE7DestroyEPKNS0_13BindStateBaseE = comdat any

$_ZN4base8internal7InvokerINS0_9BindStateIMN22memory_instrumentation5mojom5blink52Coordinator_RequestGlobalMemoryDump_ProxyToResponderEFvbN4mojo9StructPtrINS5_16GlobalMemoryDumpEEEEJNSt3__110unique_ptrIS6_NSD_14default_deleteIS6_EEEEEEEFvbSA_EE7RunOnceEPNS0_13BindStateBaseEbOSA_ = comdat any

$_ZN4base8internal9BindStateIMN22memory_instrumentation5mojom5blink52Coordinator_RequestGlobalMemoryDump_ProxyToResponderEFvbN4mojo9StructPtrINS4_16GlobalMemoryDumpEEEEJNSt3__110unique_ptrIS5_NSC_14default_deleteIS5_EEEEEE7DestroyEPKNS0_13BindStateBaseE = comdat any

$_ZN4base8internal7InvokerINS0_9BindStateIMN22memory_instrumentation5mojom5blink58Coordinator_RequestGlobalMemoryDumpForPid_ProxyToResponderEFvbN4mojo9StructPtrINS5_16GlobalMemoryDumpEEEEJNSt3__110unique_ptrIS6_NSD_14default_deleteIS6_EEEEEEEFvbSA_EE7RunOnceEPNS0_13BindStateBaseEbOSA_ = comdat any

$_ZN4base8internal9BindStateIMN22memory_instrumentation5mojom5blink58Coordinator_RequestGlobalMemoryDumpForPid_ProxyToResponderEFvbN4mojo9StructPtrINS4_16GlobalMemoryDumpEEEEJNSt3__110unique_ptrIS5_NSC_14default_deleteIS5_EEEEEE7DestroyEPKNS0_13BindStateBaseE = comdat any

$_ZN4base8internal7InvokerINS0_9BindStateIMN22memory_instrumentation5mojom5blink58Coordinator_RequestPrivateMemoryFootprint_ProxyToResponderEFvbN4mojo9StructPtrINS5_16GlobalMemoryDumpEEEEJNSt3__110unique_ptrIS6_NSD_14default_deleteIS6_EEEEEEEFvbSA_EE7RunOnceEPNS0_13BindStateBaseEbOSA_ = comdat any

$_ZN4base8internal9BindStateIMN22memory_instrumentation5mojom5blink58Coordinator_RequestPrivateMemoryFootprint_ProxyToResponderEFvbN4mojo9StructPtrINS4_16GlobalMemoryDumpEEEEJNSt3__110unique_ptrIS5_NSC_14default_deleteIS5_EEEEEE7DestroyEPKNS0_13BindStateBaseE = comdat any

$_ZN4base8internal7InvokerINS0_9BindStateIMN22memory_instrumentation5mojom5blink68Coordinator_RequestGlobalMemoryDumpAndAppendToTrace_ProxyToResponderEFvbmEJNSt3__110unique_ptrIS6_NS9_14default_deleteIS6_EEEEEEEFvbmEE7RunOnceEPNS0_13BindStateBaseEbm = comdat any

$_ZN4base8internal9BindStateIMN22memory_instrumentation5mojom5blink68Coordinator_RequestGlobalMemoryDumpAndAppendToTrace_ProxyToResponderEFvbmEJNSt3__110unique_ptrIS5_NS8_14default_deleteIS5_EEEEEE7DestroyEPKNS0_13BindStateBaseE = comdat any

$_ZN8perfetto20WriteIntoTracedValueIRKN3WTF6VectorIN4mojo16InlinedStructPtrIN22memory_instrumentation5mojom5blink20RawAllocatorDumpEdgeEEELj0ENS1_18PartitionAllocatorEEEEEvNS_11TracedValueEOT_ = comdat any

$_ZN3WTF6VectorIN4mojo16InlinedStructPtrIN9mojo_base5mojom5blink9ProcessIdEEELj0ENS_18PartitionAllocatorEE2atEj = comdat any

$_ZN4mojo8internal10SerializerIN22memory_instrumentation5mojom28RawProcessMemoryDumpDataViewENS_9StructPtrINS3_5blink20RawProcessMemoryDumpEEEE9SerializeERS8_RNS0_15MessageFragmentINS3_8internal25RawProcessMemoryDump_DataEEE = comdat any

$_ZN4mojo8internal15ArraySerializerINS_13ArrayDataViewIN22memory_instrumentation5mojom28RawAllocatorDumpEdgeDataViewEEEKN3WTF6VectorINS_16InlinedStructPtrINS4_5blink20RawAllocatorDumpEdgeEEELj0ENS7_18PartitionAllocatorEEENS0_13ArrayIteratorINS_11ArrayTraitsISE_EESF_Lb0EEEvE17SerializeElementsEPSJ_RNS0_15MessageFragmentINS0_10Array_DataINS0_7PointerINS4_8internal25RawAllocatorDumpEdge_DataEEEEEEEPKNS0_23ContainerValidateParamsE = comdat any

$_ZNK3WTF6VectorIN4mojo16InlinedStructPtrIN22memory_instrumentation5mojom5blink20RawAllocatorDumpEdgeEEELj0ENS_18PartitionAllocatorEE2atEj = comdat any

$_ZNK3WTF6VectorIN4mojo9StructPtrIN22memory_instrumentation5mojom5blink16RawAllocatorDumpEEELj0ENS_18PartitionAllocatorEE2atEj = comdat any

$_ZN4mojo8internal10SerializerIN22memory_instrumentation5mojom24RawAllocatorDumpDataViewEKNS_9StructPtrINS3_5blink16RawAllocatorDumpEEEE9SerializeERS9_RNS0_15MessageFragmentINS3_8internal21RawAllocatorDump_DataEEE = comdat any

$_ZNK3WTF6VectorIN4mojo9StructPtrIN22memory_instrumentation5mojom5blink21RawAllocatorDumpEntryEEELj0ENS_18PartitionAllocatorEE2atEj = comdat any

$_ZN4mojo8internal10SerializerIN22memory_instrumentation5mojom29RawAllocatorDumpEntryDataViewEKNS_9StructPtrINS3_5blink21RawAllocatorDumpEntryEEEE9SerializeERS9_RNS0_15MessageFragmentINS3_8internal26RawAllocatorDumpEntry_DataEEE = comdat any

$_ZN4mojo8internal10SerializerIN22memory_instrumentation5mojom34RawAllocatorDumpEntryValueDataViewEKNS_9StructPtrINS3_5blink26RawAllocatorDumpEntryValueEEEE9SerializeERS9_RNS0_15MessageFragmentINS3_8internal31RawAllocatorDumpEntryValue_DataEEEb = comdat any

$_ZN4mojo8internal10SerializerINS_11MapDataViewIN9mojo_base5mojom17ProcessIdDataViewEN22memory_instrumentation5mojom20RawOSMemDumpDataViewEEEN3WTF7HashMapINS_16InlinedStructPtrINS4_5blink9ProcessIdEEENS_9StructPtrINS7_5blink12RawOSMemDumpEEENS0_22InlinedStructPtrHashFnISE_EENSA_10HashTraitsISF_EENSM_ISJ_EENSA_18PartitionAllocatorEEEE11DeserializeEPNS0_8Map_DataINS0_7PointerINS4_8internal14ProcessId_DataEEENST_INS7_8internal17RawOSMemDump_DataEEEEEPSQ_PNS_7MessageE = comdat any

$_ZNSt3__124__put_character_sequenceIcNS_11char_traitsIcEEEERNS_13basic_ostreamIT_T0_EES7_PKS4_m = comdat any

$_ZNSt3__116__pad_and_outputIcNS_11char_traitsIcEEEENS_19ostreambuf_iteratorIT_T0_EES6_PKS4_S8_S8_RNS_8ios_baseES4_ = comdat any

$_ZN3WTF9HashTableIN4mojo16InlinedStructPtrIN9mojo_base5mojom5blink9ProcessIdEEENS_12KeyValuePairIS7_NS1_9StructPtrIN22memory_instrumentation5mojom5blink12RawOSMemDumpEEEEENS_24KeyValuePairKeyExtractorENS1_8internal22InlinedStructPtrHashFnIS6_EENS_18HashMapValueTraitsINS_10HashTraitsIS7_EENSL_ISE_EEEESM_NS_18PartitionAllocatorEE6insertINS_17HashMapTranslatorISO_SJ_SP_EES7_SE_EENS_18HashTableAddResultISQ_SF_EEOT0_OT1_ = comdat any

$_ZN3WTF9HashTableIN4mojo16InlinedStructPtrIN9mojo_base5mojom5blink9ProcessIdEEENS_12KeyValuePairIS7_NS1_9StructPtrIN22memory_instrumentation5mojom5blink12RawOSMemDumpEEEEENS_24KeyValuePairKeyExtractorENS1_8internal22InlinedStructPtrHashFnIS6_EENS_18HashMapValueTraitsINS_10HashTraitsIS7_EENSL_ISE_EEEESM_NS_18PartitionAllocatorEE6ExpandEPSF_ = comdat any

$_ZN3WTF17HashMapTranslatorINS_18HashMapValueTraitsINS_10HashTraitsIN4mojo16InlinedStructPtrIN9mojo_base5mojom5blink9ProcessIdEEEEENS2_INS3_9StructPtrIN22memory_instrumentation5mojom5blink12RawOSMemDumpEEEEEEENS3_8internal22InlinedStructPtrHashFnIS8_EENS_18PartitionAllocatorEE9TranslateINS_12KeyValuePairIS9_SG_EES9_SG_EEvRT_OT0_OT1_ = comdat any

$_ZN3WTF9HashTableIN4mojo16InlinedStructPtrIN9mojo_base5mojom5blink9ProcessIdEEENS_12KeyValuePairIS7_NS1_9StructPtrIN22memory_instrumentation5mojom5blink12RawOSMemDumpEEEEENS_24KeyValuePairKeyExtractorENS1_8internal22InlinedStructPtrHashFnIS6_EENS_18HashMapValueTraitsINS_10HashTraitsIS7_EENSL_ISE_EEEESM_NS_18PartitionAllocatorEE8RehashToEPSF_jSR_ = comdat any

$_ZN3WTF26HashTableBucketInitializerILb0EE10InitializeINS_18HashMapValueTraitsINS_10HashTraitsIN4mojo16InlinedStructPtrIN9mojo_base5mojom5blink9ProcessIdEEEEENS4_INS5_9StructPtrIN22memory_instrumentation5mojom5blink12RawOSMemDumpEEEEEEENS_18PartitionAllocatorENS_12KeyValuePairISB_SI_EEEEvRT1_ = comdat any

$_ZN3WTF9HashTableIN4mojo16InlinedStructPtrIN9mojo_base5mojom5blink9ProcessIdEEENS_12KeyValuePairIS7_NS1_9StructPtrIN22memory_instrumentation5mojom5blink12RawOSMemDumpEEEEENS_24KeyValuePairKeyExtractorENS1_8internal22InlinedStructPtrHashFnIS6_EENS_18HashMapValueTraitsINS_10HashTraitsIS7_EENSL_ISE_EEEESM_NS_18PartitionAllocatorEE16LookupForWritingERKS7_ = comdat any

$_ZN3WTF5MoverINS_12KeyValuePairIN4mojo16InlinedStructPtrIN9mojo_base5mojom5blink9ProcessIdEEENS2_9StructPtrIN22memory_instrumentation5mojom5blink12RawOSMemDumpEEEEENS_18PartitionAllocatorENS_18HashMapValueTraitsINS_10HashTraitsIS8_EENSI_ISE_EEEELb1EE4MoveEOSF_RSF_ = comdat any

$_ZN4mojo8internal10SerializerINS_11MapDataViewIN9mojo_base5mojom17ProcessIdDataViewEN22memory_instrumentation5mojom20RawOSMemDumpDataViewEEEN3WTF7HashMapINS_16InlinedStructPtrINS4_5blink9ProcessIdEEENS_9StructPtrINS7_5blink12RawOSMemDumpEEENS0_22InlinedStructPtrHashFnISE_EENSA_10HashTraitsISF_EENSM_ISJ_EENSA_18PartitionAllocatorEEEE9SerializeERSQ_RNS0_15MessageFragmentINS0_8Map_DataINS0_7PointerINS4_8internal14ProcessId_DataEEENSV_INS7_8internal17RawOSMemDump_DataEEEEEEEPKNS0_23ContainerValidateParamsE = comdat any

$_ZN4mojo8internal10SerializerIN22memory_instrumentation5mojom20RawOSMemDumpDataViewENS_9StructPtrINS3_5blink12RawOSMemDumpEEEE9SerializeERS8_RNS0_15MessageFragmentINS3_8internal17RawOSMemDump_DataEEE = comdat any

$_ZNK3WTF6VectorIN4mojo9StructPtrIN22memory_instrumentation5mojom5blink8VmRegionEEELj0ENS_18PartitionAllocatorEE2atEj = comdat any

$_ZN4mojo8internal10SerializerIN22memory_instrumentation5mojom16VmRegionDataViewEKNS_9StructPtrINS3_5blink8VmRegionEEEE9SerializeERS9_RNS0_15MessageFragmentINS3_8internal13VmRegion_DataEEE = comdat any

$_ZNK3WTF6VectorIhLj0ENS_18PartitionAllocatorEE2atEj = comdat any

$_ZN4mojo8internal15ArraySerializerINS_13ArrayDataViewIN9mojo_base5mojom17ProcessIdDataViewEEEN3WTF6VectorINS_16InlinedStructPtrINS4_5blink9ProcessIdEEELj0ENS7_18PartitionAllocatorEEENS0_13ArrayIteratorINS_11ArrayTraitsISE_EESE_Lb0EEEvE19DeserializeElementsEPNS0_10Array_DataINS0_7PointerINS4_8internal14ProcessId_DataEEEEEPSE_PNS_7MessageE = comdat any

$_ZN3WTF6VectorIN4mojo16InlinedStructPtrIN9mojo_base5mojom5blink9ProcessIdEEELj0ENS_18PartitionAllocatorEE16ReallocateBufferEj = comdat any

$_ZN3WTF18PartitionAllocator13QuantizedSizeIN4mojo16InlinedStructPtrIN9mojo_base5mojom5blink9ProcessIdEEEEEmm = comdat any

$_ZN4mojo8internal15ArraySerializerINS_13ArrayDataViewIN22memory_instrumentation5mojom25HeapProfileResultDataViewEEEN3WTF6VectorINS_9StructPtrINS4_5blink17HeapProfileResultEEELj0ENS7_18PartitionAllocatorEEENS0_13ArrayIteratorINS_11ArrayTraitsISE_EESE_Lb0EEEvE19DeserializeElementsEPNS0_10Array_DataINS0_7PointerINS4_8internal22HeapProfileResult_DataEEEEEPSE_PNS_7MessageE = comdat any

$_ZN3WTF6VectorIN4mojo9StructPtrIN22memory_instrumentation5mojom5blink17HeapProfileResultEEELj0ENS_18PartitionAllocatorEE16ReallocateBufferEj = comdat any

$_ZN3WTF18PartitionAllocator13QuantizedSizeIN4mojo9StructPtrIN22memory_instrumentation5mojom5blink17HeapProfileResultEEEEEmm = comdat any

$_ZN3WTF6VectorIN4mojo9StructPtrIN22memory_instrumentation5mojom5blink17HeapProfileResultEEELj0ENS_18PartitionAllocatorEE6resizeEj = comdat any

$_ZN3WTF6VectorIN4mojo9StructPtrIN22memory_instrumentation5mojom5blink17HeapProfileResultEEELj0ENS_18PartitionAllocatorEE2atEj = comdat any

$_ZN4mojo8internal10SerializerIN22memory_instrumentation5mojom25HeapProfileResultDataViewENS_9StructPtrINS3_5blink17HeapProfileResultEEEE9SerializeERS8_RNS0_15MessageFragmentINS3_8internal22HeapProfileResult_DataEEE = comdat any

$_ZN4mojo8internal10SerializerIN9mojo_base5mojom17BigStringDataViewEN3WTF6StringEE9SerializeERS6_RNS0_15MessageFragmentINS3_8internal14BigString_DataEEE = comdat any

$_ZN4mojo8internal10SerializerIN9mojo_base5mojom17BigBufferDataViewENS2_9BigBufferEE9SerializeERS5_RNS0_15MessageFragmentINS3_8internal14BigBuffer_DataEEEb = comdat any

$_ZN4mojo8internal10SerializerIN9mojo_base5mojom35BigBufferSharedMemoryRegionDataViewENS2_8internal27BigBufferSharedMemoryRegionEE9SerializeERS6_RNS0_15MessageFragmentINS3_8internal32BigBufferSharedMemoryRegion_DataEEE = comdat any

$_ZN4mojo8internal10SerializerINS_11MapDataViewIN9mojo_base5mojom17ProcessIdDataViewENS_13ArrayDataViewIN22memory_instrumentation5mojom16VmRegionDataViewEEEEEN3WTF7HashMapINS_16InlinedStructPtrINS4_5blink9ProcessIdEEENSC_6VectorINS_9StructPtrINS8_5blink8VmRegionEEELj0ENSC_18PartitionAllocatorEEENS0_22InlinedStructPtrHashFnISG_EENSC_10HashTraitsISH_EENSR_ISO_EESN_EEE11DeserializeEPNS0_8Map_DataINS0_7PointerINS4_8internal14ProcessId_DataEEENSX_INS0_10Array_DataINSX_INS8_8internal13VmRegion_DataEEEEEEEEEPSU_PNS_7MessageE = comdat any

$_ZN4mojo8internal15ArraySerializerINS_13ArrayDataViewINS2_IN22memory_instrumentation5mojom16VmRegionDataViewEEEEENSt3__16vectorIN3WTF6VectorINS_9StructPtrINS4_5blink8VmRegionEEELj0ENSA_18PartitionAllocatorEEENS8_9allocatorISH_EEEENS0_14MapValueReaderINSA_7HashMapINS_16InlinedStructPtrIN9mojo_base5mojom5blink9ProcessIdEEESH_NS0_22InlinedStructPtrHashFnISR_EENSA_10HashTraitsISS_EENSV_ISH_EESG_EEEEvE19DeserializeElementsEPNS0_10Array_DataINS0_7PointerINS11_INS12_INS4_8internal13VmRegion_DataEEEEEEEEEPSK_PNS_7MessageE = comdat any

$_ZN3WTF9HashTableIN4mojo16InlinedStructPtrIN9mojo_base5mojom5blink9ProcessIdEEENS_12KeyValuePairIS7_NS_6VectorINS1_9StructPtrIN22memory_instrumentation5mojom5blink8VmRegionEEELj0ENS_18PartitionAllocatorEEEEENS_24KeyValuePairKeyExtractorENS1_8internal22InlinedStructPtrHashFnIS6_EENS_18HashMapValueTraitsINS_10HashTraitsIS7_EENSO_ISH_EEEESP_SG_E5clearEv = comdat any

$_ZN4mojo11ArrayTraitsINSt3__16vectorIN3WTF6VectorINS_9StructPtrIN22memory_instrumentation5mojom5blink8VmRegionEEELj0ENS3_18PartitionAllocatorEEENS1_9allocatorISC_EEEEE6ResizeERSF_m = comdat any

$_ZN4mojo8internal15ArraySerializerINS_13ArrayDataViewIN22memory_instrumentation5mojom16VmRegionDataViewEEEN3WTF6VectorINS_9StructPtrINS4_5blink8VmRegionEEELj0ENS7_18PartitionAllocatorEEENS0_13ArrayIteratorINS_11ArrayTraitsISE_EESE_Lb0EEEvE19DeserializeElementsEPNS0_10Array_DataINS0_7PointerINS4_8internal13VmRegion_DataEEEEEPSE_PNS_7MessageE = comdat any

$_ZN3WTF6VectorIN4mojo9StructPtrIN22memory_instrumentation5mojom5blink8VmRegionEEELj0ENS_18PartitionAllocatorEE16ReallocateBufferEj = comdat any

$_ZN3WTF18PartitionAllocator13QuantizedSizeIN4mojo9StructPtrIN22memory_instrumentation5mojom5blink8VmRegionEEEEEmm = comdat any

$_ZN3WTF6VectorIN4mojo9StructPtrIN22memory_instrumentation5mojom5blink8VmRegionEEELj0ENS_18PartitionAllocatorEE6resizeEj = comdat any

$_ZN3WTF6VectorIN4mojo9StructPtrIN22memory_instrumentation5mojom5blink8VmRegionEEELj0ENS_18PartitionAllocatorEE2atEj = comdat any

$_ZN3WTF9HashTableIN4mojo16InlinedStructPtrIN9mojo_base5mojom5blink9ProcessIdEEENS_12KeyValuePairIS7_NS_6VectorINS1_9StructPtrIN22memory_instrumentation5mojom5blink8VmRegionEEELj0ENS_18PartitionAllocatorEEEEENS_24KeyValuePairKeyExtractorENS1_8internal22InlinedStructPtrHashFnIS6_EENS_18HashMapValueTraitsINS_10HashTraitsIS7_EENSO_ISH_EEEESP_SG_E6insertINS_17HashMapTranslatorISR_SM_SG_EES7_SH_EENS_18HashTableAddResultISS_SI_EEOT0_OT1_ = comdat any

$_ZN3WTF9HashTableIN4mojo16InlinedStructPtrIN9mojo_base5mojom5blink9ProcessIdEEENS_12KeyValuePairIS7_NS_6VectorINS1_9StructPtrIN22memory_instrumentation5mojom5blink8VmRegionEEELj0ENS_18PartitionAllocatorEEEEENS_24KeyValuePairKeyExtractorENS1_8internal22InlinedStructPtrHashFnIS6_EENS_18HashMapValueTraitsINS_10HashTraitsIS7_EENSO_ISH_EEEESP_SG_E6ExpandEPSI_ = comdat any

$_ZN3WTF9HashTableIN4mojo16InlinedStructPtrIN9mojo_base5mojom5blink9ProcessIdEEENS_12KeyValuePairIS7_NS_6VectorINS1_9StructPtrIN22memory_instrumentation5mojom5blink8VmRegionEEELj0ENS_18PartitionAllocatorEEEEENS_24KeyValuePairKeyExtractorENS1_8internal22InlinedStructPtrHashFnIS6_EENS_18HashMapValueTraitsINS_10HashTraitsIS7_EENSO_ISH_EEEESP_SG_E8RehashToEPSI_jST_ = comdat any

$_ZN3WTF26HashTableBucketInitializerILb0EE10InitializeINS_18HashMapValueTraitsINS_10HashTraitsIN4mojo16InlinedStructPtrIN9mojo_base5mojom5blink9ProcessIdEEEEENS4_INS_6VectorINS5_9StructPtrIN22memory_instrumentation5mojom5blink8VmRegionEEELj0ENS_18PartitionAllocatorEEEEEEESK_NS_12KeyValuePairISB_SL_EEEEvRT1_ = comdat any

$_ZN3WTF9HashTableIN4mojo16InlinedStructPtrIN9mojo_base5mojom5blink9ProcessIdEEENS_12KeyValuePairIS7_NS_6VectorINS1_9StructPtrIN22memory_instrumentation5mojom5blink8VmRegionEEELj0ENS_18PartitionAllocatorEEEEENS_24KeyValuePairKeyExtractorENS1_8internal22InlinedStructPtrHashFnIS6_EENS_18HashMapValueTraitsINS_10HashTraitsIS7_EENSO_ISH_EEEESP_SG_E16LookupForWritingERKS7_ = comdat any

$_ZN3WTF5MoverINS_12KeyValuePairIN4mojo16InlinedStructPtrIN9mojo_base5mojom5blink9ProcessIdEEENS_6VectorINS2_9StructPtrIN22memory_instrumentation5mojom5blink8VmRegionEEELj0ENS_18PartitionAllocatorEEEEESG_NS_18HashMapValueTraitsINS_10HashTraitsIS8_EENSK_ISH_EEEELb1EE4MoveEOSI_RSI_ = comdat any

$_ZN4mojo8internal10SerializerINS_11MapDataViewIN9mojo_base5mojom17ProcessIdDataViewENS_13ArrayDataViewIN22memory_instrumentation5mojom16VmRegionDataViewEEEEEN3WTF7HashMapINS_16InlinedStructPtrINS4_5blink9ProcessIdEEENSC_6VectorINS_9StructPtrINS8_5blink8VmRegionEEELj0ENSC_18PartitionAllocatorEEENS0_22InlinedStructPtrHashFnISG_EENSC_10HashTraitsISH_EENSR_ISO_EESN_EEE9SerializeERSU_RNS0_15MessageFragmentINS0_8Map_DataINS0_7PointerINS4_8internal14ProcessId_DataEEENSZ_INS0_10Array_DataINSZ_INS8_8internal13VmRegion_DataEEEEEEEEEEEPKNS0_23ContainerValidateParamsE = comdat any

$_ZN4mojo8internal15ArraySerializerINS_13ArrayDataViewINS2_IN22memory_instrumentation5mojom16VmRegionDataViewEEEEENSt3__16vectorIN3WTF6VectorINS_9StructPtrINS4_5blink8VmRegionEEELj0ENSA_18PartitionAllocatorEEENS8_9allocatorISH_EEEENS0_14MapValueReaderINSA_7HashMapINS_16InlinedStructPtrIN9mojo_base5mojom5blink9ProcessIdEEESH_NS0_22InlinedStructPtrHashFnISR_EENSA_10HashTraitsISS_EENSV_ISH_EESG_EEEEvE17SerializeElementsEPSZ_RNS0_15MessageFragmentINS0_10Array_DataINS0_7PointerINS13_INS14_INS4_8internal13VmRegion_DataEEEEEEEEEEEPKNS0_23ContainerValidateParamsE = comdat any

$_ZN4mojo8internal10SerializerIN22memory_instrumentation5mojom16VmRegionDataViewENS_9StructPtrINS3_5blink8VmRegionEEEE9SerializeERS8_RNS0_15MessageFragmentINS3_8internal13VmRegion_DataEEE = comdat any

$_ZN4mojo8internal15ArraySerializerINS_13ArrayDataViewINS_14StringDataViewEEEKN3WTF6VectorINS5_6StringELj0ENS5_18PartitionAllocatorEEENS0_13ArrayIteratorINS_11ArrayTraitsIS9_EESA_Lb0EEEvE17SerializeElementsEPSE_RNS0_15MessageFragmentINS0_10Array_DataINS0_7PointerINSI_IcEEEEEEEEPKNS0_23ContainerValidateParamsE = comdat any

$_ZNK3WTF6VectorINS_6StringELj0ENS_18PartitionAllocatorEE2atEj = comdat any

$_ZN4mojo8internal10SerializerIN22memory_instrumentation5mojom24GlobalMemoryDumpDataViewENS_9StructPtrINS3_5blink16GlobalMemoryDumpEEEE9SerializeERS8_RNS0_15MessageFragmentINS3_8internal21GlobalMemoryDump_DataEEE = comdat any

$_ZNK3WTF6VectorIN4mojo9StructPtrIN22memory_instrumentation5mojom5blink17ProcessMemoryDumpEEELj0ENS_18PartitionAllocatorEE2atEj = comdat any

$_ZN4mojo8internal10SerializerIN22memory_instrumentation5mojom25ProcessMemoryDumpDataViewEKNS_9StructPtrINS3_5blink17ProcessMemoryDumpEEEE9SerializeERS9_RNS0_15MessageFragmentINS3_8internal22ProcessMemoryDump_DataEEE = comdat any

$_ZN4mojo8internal10SerializerINS_11MapDataViewINS_14StringDataViewEN22memory_instrumentation5mojom24AllocatorMemDumpDataViewEEEKN3WTF7HashMapINS8_6StringENS_9StructPtrINS5_5blink16AllocatorMemDumpEEENS8_10StringHashENS8_10HashTraitsISA_EENSG_ISE_EENS8_18PartitionAllocatorEEEE9SerializeERSL_RNS0_15MessageFragmentINS0_8Map_DataINS0_7PointerINS0_10Array_DataIcEEEENSQ_INS5_8internal21AllocatorMemDump_DataEEEEEEEPKNS0_23ContainerValidateParamsE = comdat any

$_ZN4mojo8internal15ArraySerializerINS_13ArrayDataViewINS_14StringDataViewEEENSt3__16vectorIN3WTF6StringENS5_9allocatorIS8_EEEENS0_12MapKeyReaderIKNS7_7HashMapIS8_NS_9StructPtrIN22memory_instrumentation5mojom5blink16AllocatorMemDumpEEENS7_10StringHashENS7_10HashTraitsIS8_EENSL_ISJ_EENS7_18PartitionAllocatorEEEEEvE17SerializeElementsEPSR_RNS0_15MessageFragmentINS0_10Array_DataINS0_7PointerINSV_IcEEEEEEEEPKNS0_23ContainerValidateParamsE = comdat any

$_ZN4mojo8internal10SerializerIN22memory_instrumentation5mojom24AllocatorMemDumpDataViewEKNS_9StructPtrINS3_5blink16AllocatorMemDumpEEEE9SerializeERS9_RNS0_15MessageFragmentINS3_8internal21AllocatorMemDump_DataEEE = comdat any

$_ZN4mojo8internal10SerializerINS_11MapDataViewINS_14StringDataViewEmEEKN3WTF7HashMapINS5_6StringEmNS5_10StringHashENS5_10HashTraitsIS7_EENS9_ImEENS5_18PartitionAllocatorEEEE9SerializeERSE_RNS0_15MessageFragmentINS0_8Map_DataINS0_7PointerINS0_10Array_DataIcEEEEmEEEEPKNS0_23ContainerValidateParamsE = comdat any

$_ZN4mojo8internal15ArraySerializerINS_13ArrayDataViewINS_14StringDataViewEEENSt3__16vectorIN3WTF6StringENS5_9allocatorIS8_EEEENS0_12MapKeyReaderIKNS7_7HashMapIS8_mNS7_10StringHashENS7_10HashTraitsIS8_EENSF_ImEENS7_18PartitionAllocatorEEEEEvE17SerializeElementsEPSL_RNS0_15MessageFragmentINS0_10Array_DataINS0_7PointerINSP_IcEEEEEEEEPKNS0_23ContainerValidateParamsE = comdat any

$_ZN4mojo8internal15ArraySerializerINS_13ArrayDataViewINS_14StringDataViewEEEN3WTF6VectorINS5_6StringELj0ENS5_18PartitionAllocatorEEENS0_13ArrayIteratorINS_11ArrayTraitsIS9_EES9_Lb0EEEvE19DeserializeElementsEPNS0_10Array_DataINS0_7PointerINSF_IcEEEEEEPS9_PNS_7MessageE = comdat any

$_ZN3WTF18PartitionAllocator13QuantizedSizeINS_6StringEEEmm = comdat any

$_ZN3WTF6VectorINS_6StringELj0ENS_18PartitionAllocatorEE6resizeEj = comdat any

$_ZN3WTF6VectorINS_6StringELj0ENS_18PartitionAllocatorEE2atEj = comdat any

$_ZN4mojo8internal15ArraySerializerINS_13ArrayDataViewIN22memory_instrumentation5mojom29RawAllocatorDumpEntryDataViewEEEN3WTF6VectorINS_9StructPtrINS4_5blink21RawAllocatorDumpEntryEEELj0ENS7_18PartitionAllocatorEEENS0_13ArrayIteratorINS_11ArrayTraitsISE_EESE_Lb0EEEvE19DeserializeElementsEPNS0_10Array_DataINS0_7PointerINS4_8internal26RawAllocatorDumpEntry_DataEEEEEPSE_PNS_7MessageE = comdat any

$_ZN3WTF6VectorIN4mojo9StructPtrIN22memory_instrumentation5mojom5blink21RawAllocatorDumpEntryEEELj0ENS_18PartitionAllocatorEE16ReallocateBufferEj = comdat any

$_ZN3WTF18PartitionAllocator13QuantizedSizeIN4mojo9StructPtrIN22memory_instrumentation5mojom5blink21RawAllocatorDumpEntryEEEEEmm = comdat any

$_ZN3WTF6VectorIN4mojo9StructPtrIN22memory_instrumentation5mojom5blink21RawAllocatorDumpEntryEEELj0ENS_18PartitionAllocatorEE6resizeEj = comdat any

$_ZN3WTF6VectorIN4mojo9StructPtrIN22memory_instrumentation5mojom5blink21RawAllocatorDumpEntryEEELj0ENS_18PartitionAllocatorEE2atEj = comdat any

$_ZN4mojo8internal15ArraySerializerINS_13ArrayDataViewIN22memory_instrumentation5mojom28RawAllocatorDumpEdgeDataViewEEEN3WTF6VectorINS_16InlinedStructPtrINS4_5blink20RawAllocatorDumpEdgeEEELj0ENS7_18PartitionAllocatorEEENS0_13ArrayIteratorINS_11ArrayTraitsISE_EESE_Lb0EEEvE19DeserializeElementsEPNS0_10Array_DataINS0_7PointerINS4_8internal25RawAllocatorDumpEdge_DataEEEEEPSE_PNS_7MessageE = comdat any

$_ZN3WTF6VectorIN4mojo16InlinedStructPtrIN22memory_instrumentation5mojom5blink20RawAllocatorDumpEdgeEEELj0ENS_18PartitionAllocatorEE16ReallocateBufferEj = comdat any

$_ZN3WTF18PartitionAllocator13QuantizedSizeIN4mojo16InlinedStructPtrIN22memory_instrumentation5mojom5blink20RawAllocatorDumpEdgeEEEEEmm = comdat any

$_ZN3WTF6VectorIN4mojo16InlinedStructPtrIN22memory_instrumentation5mojom5blink20RawAllocatorDumpEdgeEEELj0ENS_18PartitionAllocatorEE2atEj = comdat any

$_ZN4mojo8internal15ArraySerializerINS_13ArrayDataViewIN22memory_instrumentation5mojom24RawAllocatorDumpDataViewEEEN3WTF6VectorINS_9StructPtrINS4_5blink16RawAllocatorDumpEEELj0ENS7_18PartitionAllocatorEEENS0_13ArrayIteratorINS_11ArrayTraitsISE_EESE_Lb0EEEvE19DeserializeElementsEPNS0_10Array_DataINS0_7PointerINS4_8internal21RawAllocatorDump_DataEEEEEPSE_PNS_7MessageE = comdat any

$_ZN3WTF6VectorIN4mojo9StructPtrIN22memory_instrumentation5mojom5blink16RawAllocatorDumpEEELj0ENS_18PartitionAllocatorEE16ReallocateBufferEj = comdat any

$_ZN3WTF18PartitionAllocator13QuantizedSizeIN4mojo9StructPtrIN22memory_instrumentation5mojom5blink16RawAllocatorDumpEEEEEmm = comdat any

$_ZN3WTF6VectorIN4mojo9StructPtrIN22memory_instrumentation5mojom5blink16RawAllocatorDumpEEELj0ENS_18PartitionAllocatorEE6resizeEj = comdat any

$_ZN3WTF6VectorIN4mojo9StructPtrIN22memory_instrumentation5mojom5blink16RawAllocatorDumpEEELj0ENS_18PartitionAllocatorEE2atEj = comdat any

$_ZN4mojo8internal15ArraySerializerINS_13ArrayDataViewIhEEN3WTF6VectorIhLj0ENS4_18PartitionAllocatorEEENS0_13ArrayIteratorINS_11ArrayTraitsIS7_EES7_Lb0EEEvE19DeserializeElementsEPNS0_10Array_DataIhEEPS7_PNS_7MessageE = comdat any

$_ZN3WTF18PartitionAllocator13QuantizedSizeIhEEmm = comdat any

$_ZN3WTF6VectorIhLj0ENS_18PartitionAllocatorEE2atEj = comdat any

$_ZN4mojo8internal10SerializerINS_11MapDataViewINS_14StringDataViewEmEEN3WTF7HashMapINS5_6StringEmNS5_10StringHashENS5_10HashTraitsIS7_EENS9_ImEENS5_18PartitionAllocatorEEEE11DeserializeEPNS0_8Map_DataINS0_7PointerINS0_10Array_DataIcEEEEmEEPSD_PNS_7MessageE = comdat any

$_ZN3WTF9HashTableINS_6StringENS_12KeyValuePairIS1_mEENS_24KeyValuePairKeyExtractorENS_10StringHashENS_18HashMapValueTraitsINS_10HashTraitsIS1_EENS7_ImEEEES8_NS_18PartitionAllocatorEE6insertINS_17HashMapTranslatorISA_S5_SB_EES1_mEENS_18HashTableAddResultISC_S3_EEOT0_OT1_ = comdat any

$_ZN4mojo9StructPtrIN22memory_instrumentation5mojom5blink16AllocatorMemDumpEE4TakeEPS5_ = comdat any

$_ZN4mojo8internal10SerializerINS_11MapDataViewINS_14StringDataViewEN22memory_instrumentation5mojom24AllocatorMemDumpDataViewEEEN3WTF7HashMapINS8_6StringENS_9StructPtrINS5_5blink16AllocatorMemDumpEEENS8_10StringHashENS8_10HashTraitsISA_EENSG_ISE_EENS8_18PartitionAllocatorEEEE11DeserializeEPNS0_8Map_DataINS0_7PointerINS0_10Array_DataIcEEEENSN_INS5_8internal21AllocatorMemDump_DataEEEEEPSK_PNS_7MessageE = comdat any

$_ZN4mojo8internal15ArraySerializerINS_13ArrayDataViewIN22memory_instrumentation5mojom24AllocatorMemDumpDataViewEEENSt3__16vectorINS_9StructPtrINS4_5blink16AllocatorMemDumpEEENS7_9allocatorISC_EEEENS0_14MapValueReaderIN3WTF7HashMapINSH_6StringESC_NSH_10StringHashENSH_10HashTraitsISJ_EENSL_ISC_EENSH_18PartitionAllocatorEEEEEvE19DeserializeElementsEPNS0_10Array_DataINS0_7PointerINS4_8internal21AllocatorMemDump_DataEEEEEPSF_PNS_7MessageE = comdat any

$_ZN3WTF9HashTableINS_6StringENS_12KeyValuePairIS1_N4mojo9StructPtrIN22memory_instrumentation5mojom5blink16AllocatorMemDumpEEEEENS_24KeyValuePairKeyExtractorENS_10StringHashENS_18HashMapValueTraitsINS_10HashTraitsIS1_EENSE_IS9_EEEESF_NS_18PartitionAllocatorEE5clearEv = comdat any

$_ZN3WTF9HashTableINS_6StringENS_12KeyValuePairIS1_N4mojo9StructPtrIN22memory_instrumentation5mojom5blink16AllocatorMemDumpEEEEENS_24KeyValuePairKeyExtractorENS_10StringHashENS_18HashMapValueTraitsINS_10HashTraitsIS1_EENSE_IS9_EEEESF_NS_18PartitionAllocatorEE6insertINS_17HashMapTranslatorISH_SC_SI_EES1_S9_EENS_18HashTableAddResultISJ_SA_EEOT0_OT1_ = comdat any

$_ZN3WTF9HashTableINS_6StringENS_12KeyValuePairIS1_N4mojo9StructPtrIN22memory_instrumentation5mojom5blink16AllocatorMemDumpEEEEENS_24KeyValuePairKeyExtractorENS_10StringHashENS_18HashMapValueTraitsINS_10HashTraitsIS1_EENSE_IS9_EEEESF_NS_18PartitionAllocatorEE6ExpandEPSA_ = comdat any

$_ZN3WTF9HashTableINS_6StringENS_12KeyValuePairIS1_N4mojo9StructPtrIN22memory_instrumentation5mojom5blink16AllocatorMemDumpEEEEENS_24KeyValuePairKeyExtractorENS_10StringHashENS_18HashMapValueTraitsINS_10HashTraitsIS1_EENSE_IS9_EEEESF_NS_18PartitionAllocatorEE8RehashToEPSA_jSK_ = comdat any

$_ZN3WTF9HashTableINS_6StringENS_12KeyValuePairIS1_N4mojo9StructPtrIN22memory_instrumentation5mojom5blink16AllocatorMemDumpEEEEENS_24KeyValuePairKeyExtractorENS_10StringHashENS_18HashMapValueTraitsINS_10HashTraitsIS1_EENSE_IS9_EEEESF_NS_18PartitionAllocatorEE16LookupForWritingERKS1_ = comdat any

$_ZNSt3__113__vector_baseIN4mojo9StructPtrIN22memory_instrumentation5mojom5blink16AllocatorMemDumpEEENS_9allocatorIS7_EEE5clearEv = comdat any

$_ZN4mojo8internal15ArraySerializerINS_13ArrayDataViewIN22memory_instrumentation5mojom25ProcessMemoryDumpDataViewEEEN3WTF6VectorINS_9StructPtrINS4_5blink17ProcessMemoryDumpEEELj0ENS7_18PartitionAllocatorEEENS0_13ArrayIteratorINS_11ArrayTraitsISE_EESE_Lb0EEEvE19DeserializeElementsEPNS0_10Array_DataINS0_7PointerINS4_8internal22ProcessMemoryDump_DataEEEEEPSE_PNS_7MessageE = comdat any

$_ZN3WTF6VectorIN4mojo9StructPtrIN22memory_instrumentation5mojom5blink17ProcessMemoryDumpEEELj0ENS_18PartitionAllocatorEE16ReallocateBufferEj = comdat any

$_ZN3WTF18PartitionAllocator13QuantizedSizeIN4mojo9StructPtrIN22memory_instrumentation5mojom5blink17ProcessMemoryDumpEEEEEmm = comdat any

$_ZN3WTF6VectorIN4mojo9StructPtrIN22memory_instrumentation5mojom5blink17ProcessMemoryDumpEEELj0ENS_18PartitionAllocatorEE6resizeEj = comdat any

$_ZN3WTF6VectorIN4mojo9StructPtrIN22memory_instrumentation5mojom5blink17ProcessMemoryDumpEEELj0ENS_18PartitionAllocatorEE2atEj = comdat any

$_ZN4mojo12StructTraitsIN9mojo_base5mojom17BigStringDataViewEN3WTF6StringEE4ReadES3_PS5_ = comdat any

@_ZN22memory_instrumentation5mojom5blink8VmRegion20kProtectionFlagsReadE = hidden local_unnamed_addr constant i32 4, align 4
@_ZN22memory_instrumentation5mojom5blink8VmRegion21kProtectionFlagsWriteE = hidden local_unnamed_addr constant i32 2, align 4
@_ZN22memory_instrumentation5mojom5blink8VmRegion20kProtectionFlagsExecE = hidden local_unnamed_addr constant i32 1, align 4
@_ZN22memory_instrumentation5mojom5blink8VmRegion24kProtectionFlagsMayshareE = hidden local_unnamed_addr constant i32 128, align 4
@.str = private unnamed_addr constant [10 x i8] c"dump_guid\00", align 1
@.str.1 = private unnamed_addr constant [8 x i8] c"<value>\00", align 1
@.str.2 = private unnamed_addr constant [10 x i8] c"dump_type\00", align 1
@.str.3 = private unnamed_addr constant [16 x i8] c"level_of_detail\00", align 1
@.str.4 = private unnamed_addr constant [12 x i8] c"determinism\00", align 1
@.str.5 = private unnamed_addr constant [10 x i8] c"source_id\00", align 1
@.str.6 = private unnamed_addr constant [10 x i8] c"target_id\00", align 1
@.str.7 = private unnamed_addr constant [11 x i8] c"importance\00", align 1
@.str.8 = private unnamed_addr constant [12 x i8] c"overridable\00", align 1
@.str.9 = private unnamed_addr constant [5 x i8] c"name\00", align 1
@.str.10 = private unnamed_addr constant [6 x i8] c"units\00", align 1
@.str.11 = private unnamed_addr constant [6 x i8] c"value\00", align 1
@.str.12 = private unnamed_addr constant [3 x i8] c"id\00", align 1
@.str.13 = private unnamed_addr constant [14 x i8] c"absolute_name\00", align 1
@.str.14 = private unnamed_addr constant [5 x i8] c"weak\00", align 1
@.str.15 = private unnamed_addr constant [8 x i8] c"entries\00", align 1
@.str.16 = private unnamed_addr constant [21 x i8] c"allocator_dump_edges\00", align 1
@.str.17 = private unnamed_addr constant [16 x i8] c"allocator_dumps\00", align 1
@.str.18 = private unnamed_addr constant [14 x i8] c"start_address\00", align 1
@.str.19 = private unnamed_addr constant [14 x i8] c"size_in_bytes\00", align 1
@.str.20 = private unnamed_addr constant [17 x i8] c"module_timestamp\00", align 1
@.str.21 = private unnamed_addr constant [15 x i8] c"module_debugid\00", align 1
@.str.22 = private unnamed_addr constant [18 x i8] c"module_debug_path\00", align 1
@.str.23 = private unnamed_addr constant [17 x i8] c"protection_flags\00", align 1
@.str.24 = private unnamed_addr constant [12 x i8] c"mapped_file\00", align 1
@.str.25 = private unnamed_addr constant [34 x i8] c"byte_stats_private_dirty_resident\00", align 1
@.str.26 = private unnamed_addr constant [34 x i8] c"byte_stats_private_clean_resident\00", align 1
@.str.27 = private unnamed_addr constant [33 x i8] c"byte_stats_shared_dirty_resident\00", align 1
@.str.28 = private unnamed_addr constant [33 x i8] c"byte_stats_shared_clean_resident\00", align 1
@.str.29 = private unnamed_addr constant [19 x i8] c"byte_stats_swapped\00", align 1
@.str.30 = private unnamed_addr constant [12 x i8] c"byte_locked\00", align 1
@.str.31 = private unnamed_addr constant [33 x i8] c"byte_stats_proportional_resident\00", align 1
@.str.32 = private unnamed_addr constant [21 x i8] c"phys_footprint_bytes\00", align 1
@.str.33 = private unnamed_addr constant [15 x i8] c"internal_bytes\00", align 1
@.str.34 = private unnamed_addr constant [17 x i8] c"compressed_bytes\00", align 1
@.str.35 = private unnamed_addr constant [15 x i8] c"rss_anon_bytes\00", align 1
@.str.36 = private unnamed_addr constant [14 x i8] c"vm_swap_bytes\00", align 1
@.str.37 = private unnamed_addr constant [14 x i8] c"private_bytes\00", align 1
@.str.38 = private unnamed_addr constant [16 x i8] c"resident_set_kb\00", align 1
@.str.39 = private unnamed_addr constant [21 x i8] c"peak_resident_set_kb\00", align 1
@.str.40 = private unnamed_addr constant [23 x i8] c"is_peak_rss_resettable\00", align 1
@.str.41 = private unnamed_addr constant [27 x i8] c"platform_private_footprint\00", align 1
@.str.42 = private unnamed_addr constant [12 x i8] c"memory_maps\00", align 1
@.str.43 = private unnamed_addr constant [28 x i8] c"native_library_pages_bitmap\00", align 1
@.str.44 = private unnamed_addr constant [21 x i8] c"private_footprint_kb\00", align 1
@.str.45 = private unnamed_addr constant [20 x i8] c"shared_footprint_kb\00", align 1
@.str.46 = private unnamed_addr constant [26 x i8] c"private_footprint_swap_kb\00", align 1
@.str.47 = private unnamed_addr constant [16 x i8] c"numeric_entries\00", align 1
@.str.48 = private unnamed_addr constant [13 x i8] c"process_type\00", align 1
@.str.49 = private unnamed_addr constant [8 x i8] c"os_dump\00", align 1
@.str.50 = private unnamed_addr constant [23 x i8] c"chrome_allocator_dumps\00", align 1
@.str.51 = private unnamed_addr constant [4 x i8] c"pid\00", align 1
@.str.52 = private unnamed_addr constant [13 x i8] c"service_name\00", align 1
@.str.53 = private unnamed_addr constant [27 x i8] c"native_library_resident_kb\00", align 1
@.str.54 = private unnamed_addr constant [39 x i8] c"native_library_resident_not_ordered_kb\00", align 1
@.str.55 = private unnamed_addr constant [39 x i8] c"native_library_not_resident_ordered_kb\00", align 1
@.str.56 = private unnamed_addr constant [11 x i8] c"start_time\00", align 1
@.str.57 = private unnamed_addr constant [14 x i8] c"process_dumps\00", align 1
@.str.58 = private unnamed_addr constant [19 x i8] c"aggregated_metrics\00", align 1
@.str.59 = private unnamed_addr constant [5 x i8] c"json\00", align 1
@_ZN22memory_instrumentation5mojom5blink13ClientProcess5Name_E = hidden constant [43 x i8] c"memory_instrumentation.mojom.ClientProcess\00", align 16
@_ZTVN22memory_instrumentation5mojom5blink18ClientProcessProxyE = hidden unnamed_addr constant { [6 x i8*] } { [6 x i8*] [i8* null, i8* null, i8* bitcast (void (%"class.memory_instrumentation::mojom::blink::ClientProcess"*)* @_ZN22memory_instrumentation5mojom5blink13ClientProcessD2Ev to i8*), i8* bitcast (void (%"class.memory_instrumentation::mojom::blink::ClientProcessProxy"*)* @_ZN22memory_instrumentation5mojom5blink18ClientProcessProxyD0Ev to i8*), i8* bitcast (void (%"class.memory_instrumentation::mojom::blink::ClientProcessProxy"*, %"class.mojo::InlinedStructPtr.117"*, %"class.base::OnceCallback"*)* @_ZN22memory_instrumentation5mojom5blink18ClientProcessProxy23RequestChromeMemoryDumpEN4mojo16InlinedStructPtrINS1_11RequestArgsEEEN4base12OnceCallbackIFvbmNS3_9StructPtrINS1_20RawProcessMemoryDumpEEEEEE to i8*), i8* bitcast (void (%"class.memory_instrumentation::mojom::blink::ClientProcessProxy"*, i32, %"class.WTF::Vector.126"*, %"class.base::OnceCallback.131"*)* @_ZN22memory_instrumentation5mojom5blink18ClientProcessProxy19RequestOSMemoryDumpENS0_15MemoryMapOptionEN3WTF6VectorIN4mojo16InlinedStructPtrIN9mojo_base5mojom5blink9ProcessIdEEELj0ENS4_18PartitionAllocatorEEEN4base12OnceCallbackIFvbNS4_7HashMapISC_NS6_9StructPtrINS1_12RawOSMemDumpEEENS6_8internal22InlinedStructPtrHashFnISB_EENS4_10HashTraitsISC_EENSO_ISK_EESD_EEEEE to i8*)] }, align 8
@_ZN22memory_instrumentation5mojom5blinkL28kClientProcessValidationInfoE = internal constant [2 x %"struct.std::__1::pair"] [%"struct.std::__1::pair" { i32 440579497, %"struct.mojo::internal::GenericValidationInfo" { i1 (i8*, %"class.mojo::internal::ValidationContext"*)* @_ZN22memory_instrumentation5mojom8internal49ClientProcess_RequestChromeMemoryDump_Params_Data8ValidateEPKvPN4mojo8internal17ValidationContextE, i1 (i8*, %"class.mojo::internal::ValidationContext"*)* @_ZN22memory_instrumentation5mojom8internal57ClientProcess_RequestChromeMemoryDump_ResponseParams_Data8ValidateEPKvPN4mojo8internal17ValidationContextE } }, %"struct.std::__1::pair" { i32 335459342, %"struct.mojo::internal::GenericValidationInfo" { i1 (i8*, %"class.mojo::internal::ValidationContext"*)* @_ZN22memory_instrumentation5mojom8internal45ClientProcess_RequestOSMemoryDump_Params_Data8ValidateEPKvPN4mojo8internal17ValidationContextE, i1 (i8*, %"class.mojo::internal::ValidationContext"*)* @_ZN22memory_instrumentation5mojom8internal53ClientProcess_RequestOSMemoryDump_ResponseParams_Data8ValidateEPKvPN4mojo8internal17ValidationContextE } }], align 16
@_ZN22memory_instrumentation5mojom5blink12HeapProfiler5Name_E = hidden constant [42 x i8] c"memory_instrumentation.mojom.HeapProfiler\00", align 16
@_ZTVN22memory_instrumentation5mojom5blink17HeapProfilerProxyE = hidden unnamed_addr constant { [5 x i8*] } { [5 x i8*] [i8* null, i8* null, i8* bitcast (void (%"class.memory_instrumentation::mojom::blink::HeapProfiler"*)* @_ZN22memory_instrumentation5mojom5blink12HeapProfilerD2Ev to i8*), i8* bitcast (void (%"class.memory_instrumentation::mojom::blink::HeapProfilerProxy"*)* @_ZN22memory_instrumentation5mojom5blink17HeapProfilerProxyD0Ev to i8*), i8* bitcast (void (%"class.memory_instrumentation::mojom::blink::HeapProfilerProxy"*, i1, %"class.base::OnceCallback.161"*)* @_ZN22memory_instrumentation5mojom5blink17HeapProfilerProxy23DumpProcessesForTracingEbN4base12OnceCallbackIFvN3WTF6VectorIN4mojo9StructPtrINS1_17HeapProfileResultEEELj0ENS5_18PartitionAllocatorEEEEEE to i8*)] }, align 8
@_ZN22memory_instrumentation5mojom5blinkL27kHeapProfilerValidationInfoE = internal constant [1 x %"struct.std::__1::pair"] [%"struct.std::__1::pair" { i32 1327924655, %"struct.mojo::internal::GenericValidationInfo" { i1 (i8*, %"class.mojo::internal::ValidationContext"*)* @_ZN22memory_instrumentation5mojom8internal48HeapProfiler_DumpProcessesForTracing_Params_Data8ValidateEPKvPN4mojo8internal17ValidationContextE, i1 (i8*, %"class.mojo::internal::ValidationContext"*)* @_ZN22memory_instrumentation5mojom8internal56HeapProfiler_DumpProcessesForTracing_ResponseParams_Data8ValidateEPKvPN4mojo8internal17ValidationContextE } }], align 16
@_ZN22memory_instrumentation5mojom5blink18HeapProfilerHelper5Name_E = hidden constant [48 x i8] c"memory_instrumentation.mojom.HeapProfilerHelper\00", align 16
@_ZTVN22memory_instrumentation5mojom5blink23HeapProfilerHelperProxyE = hidden unnamed_addr constant { [5 x i8*] } { [5 x i8*] [i8* null, i8* null, i8* bitcast (void (%"class.memory_instrumentation::mojom::blink::HeapProfilerHelper"*)* @_ZN22memory_instrumentation5mojom5blink18HeapProfilerHelperD2Ev to i8*), i8* bitcast (void (%"class.memory_instrumentation::mojom::blink::HeapProfilerHelperProxy"*)* @_ZN22memory_instrumentation5mojom5blink23HeapProfilerHelperProxyD0Ev to i8*), i8* bitcast (void (%"class.memory_instrumentation::mojom::blink::HeapProfilerHelperProxy"*, %"class.WTF::Vector.126"*, %"class.base::OnceCallback.179"*)* @_ZN22memory_instrumentation5mojom5blink23HeapProfilerHelperProxy27GetVmRegionsForHeapProfilerEN3WTF6VectorIN4mojo16InlinedStructPtrIN9mojo_base5mojom5blink9ProcessIdEEELj0ENS3_18PartitionAllocatorEEEN4base12OnceCallbackIFvNS3_7HashMapISB_NS4_INS5_9StructPtrINS1_8VmRegionEEELj0ESC_EENS5_8internal22InlinedStructPtrHashFnISA_EENS3_10HashTraitsISB_EENSO_ISK_EESC_EEEEE to i8*)] }, align 8
@_ZN22memory_instrumentation5mojom5blinkL33kHeapProfilerHelperValidationInfoE = internal constant [1 x %"struct.std::__1::pair"] [%"struct.std::__1::pair" { i32 1115257854, %"struct.mojo::internal::GenericValidationInfo" { i1 (i8*, %"class.mojo::internal::ValidationContext"*)* @_ZN22memory_instrumentation5mojom8internal58HeapProfilerHelper_GetVmRegionsForHeapProfiler_Params_Data8ValidateEPKvPN4mojo8internal17ValidationContextE, i1 (i8*, %"class.mojo::internal::ValidationContext"*)* @_ZN22memory_instrumentation5mojom8internal66HeapProfilerHelper_GetVmRegionsForHeapProfiler_ResponseParams_Data8ValidateEPKvPN4mojo8internal17ValidationContextE } }], align 16
@_ZN22memory_instrumentation5mojom5blink11Coordinator5Name_E = hidden constant [41 x i8] c"memory_instrumentation.mojom.Coordinator\00", align 16
@_ZTVN22memory_instrumentation5mojom5blink16CoordinatorProxyE = hidden unnamed_addr constant { [8 x i8*] } { [8 x i8*] [i8* null, i8* null, i8* bitcast (void (%"class.memory_instrumentation::mojom::blink::Coordinator"*)* @_ZN22memory_instrumentation5mojom5blink11CoordinatorD2Ev to i8*), i8* bitcast (void (%"class.memory_instrumentation::mojom::blink::CoordinatorProxy"*)* @_ZN22memory_instrumentation5mojom5blink16CoordinatorProxyD0Ev to i8*), i8* bitcast (void (%"class.memory_instrumentation::mojom::blink::CoordinatorProxy"*, i32, i32, i32, %"class.WTF::Vector.190"*, %"class.base::OnceCallback.195"*)* @_ZN22memory_instrumentation5mojom5blink16CoordinatorProxy23RequestGlobalMemoryDumpENS0_8DumpTypeENS0_13LevelOfDetailENS0_11DeterminismERKN3WTF6VectorINS6_6StringELj0ENS6_18PartitionAllocatorEEEN4base12OnceCallbackIFvbN4mojo9StructPtrINS1_16GlobalMemoryDumpEEEEEE to i8*), i8* bitcast (void (%"class.memory_instrumentation::mojom::blink::CoordinatorProxy"*, %"class.mojo::InlinedStructPtr.103"*, %"class.WTF::Vector.190"*, %"class.base::OnceCallback.195"*)* @_ZN22memory_instrumentation5mojom5blink16CoordinatorProxy29RequestGlobalMemoryDumpForPidEN4mojo16InlinedStructPtrIN9mojo_base5mojom5blink9ProcessIdEEERKN3WTF6VectorINSA_6StringELj0ENSA_18PartitionAllocatorEEEN4base12OnceCallbackIFvbNS3_9StructPtrINS1_16GlobalMemoryDumpEEEEEE to i8*), i8* bitcast (void (%"class.memory_instrumentation::mojom::blink::CoordinatorProxy"*, %"class.mojo::InlinedStructPtr.103"*, %"class.base::OnceCallback.195"*)* @_ZN22memory_instrumentation5mojom5blink16CoordinatorProxy29RequestPrivateMemoryFootprintEN4mojo16InlinedStructPtrIN9mojo_base5mojom5blink9ProcessIdEEEN4base12OnceCallbackIFvbNS3_9StructPtrINS1_16GlobalMemoryDumpEEEEEE to i8*), i8* bitcast (void (%"class.memory_instrumentation::mojom::blink::CoordinatorProxy"*, i32, i32, i32, %"class.base::OnceCallback.204"*)* @_ZN22memory_instrumentation5mojom5blink16CoordinatorProxy39RequestGlobalMemoryDumpAndAppendToTraceENS0_8DumpTypeENS0_13LevelOfDetailENS0_11DeterminismEN4base12OnceCallbackIFvbmEEE to i8*)] }, align 8
@_ZN22memory_instrumentation5mojom5blinkL26kCoordinatorValidationInfoE = internal constant [4 x %"struct.std::__1::pair"] [%"struct.std::__1::pair" { i32 374117976, %"struct.mojo::internal::GenericValidationInfo" { i1 (i8*, %"class.mojo::internal::ValidationContext"*)* @_ZN22memory_instrumentation5mojom8internal47Coordinator_RequestGlobalMemoryDump_Params_Data8ValidateEPKvPN4mojo8internal17ValidationContextE, i1 (i8*, %"class.mojo::internal::ValidationContext"*)* @_ZN22memory_instrumentation5mojom8internal55Coordinator_RequestGlobalMemoryDump_ResponseParams_Data8ValidateEPKvPN4mojo8internal17ValidationContextE } }, %"struct.std::__1::pair" { i32 460413920, %"struct.mojo::internal::GenericValidationInfo" { i1 (i8*, %"class.mojo::internal::ValidationContext"*)* @_ZN22memory_instrumentation5mojom8internal53Coordinator_RequestGlobalMemoryDumpForPid_Params_Data8ValidateEPKvPN4mojo8internal17ValidationContextE, i1 (i8*, %"class.mojo::internal::ValidationContext"*)* @_ZN22memory_instrumentation5mojom8internal61Coordinator_RequestGlobalMemoryDumpForPid_ResponseParams_Data8ValidateEPKvPN4mojo8internal17ValidationContextE } }, %"struct.std::__1::pair" { i32 813415775, %"struct.mojo::internal::GenericValidationInfo" { i1 (i8*, %"class.mojo::internal::ValidationContext"*)* @_ZN22memory_instrumentation5mojom8internal53Coordinator_RequestPrivateMemoryFootprint_Params_Data8ValidateEPKvPN4mojo8internal17ValidationContextE, i1 (i8*, %"class.mojo::internal::ValidationContext"*)* @_ZN22memory_instrumentation5mojom8internal61Coordinator_RequestPrivateMemoryFootprint_ResponseParams_Data8ValidateEPKvPN4mojo8internal17ValidationContextE } }, %"struct.std::__1::pair" { i32 688923625, %"struct.mojo::internal::GenericValidationInfo" { i1 (i8*, %"class.mojo::internal::ValidationContext"*)* @_ZN22memory_instrumentation5mojom8internal63Coordinator_RequestGlobalMemoryDumpAndAppendToTrace_Params_Data8ValidateEPKvPN4mojo8internal17ValidationContextE, i1 (i8*, %"class.mojo::internal::ValidationContext"*)* @_ZN22memory_instrumentation5mojom8internal71Coordinator_RequestGlobalMemoryDumpAndAppendToTrace_ResponseParams_Data8ValidateEPKvPN4mojo8internal17ValidationContextE } }], align 16
@_ZN22memory_instrumentation5mojom5blink20CoordinatorConnector5Name_E = hidden constant [50 x i8] c"memory_instrumentation.mojom.CoordinatorConnector\00", align 16
@_ZTVN22memory_instrumentation5mojom5blink25CoordinatorConnectorProxyE = hidden unnamed_addr constant { [5 x i8*] } { [5 x i8*] [i8* null, i8* null, i8* bitcast (void (%"class.memory_instrumentation::mojom::blink::CoordinatorConnector"*)* @_ZN22memory_instrumentation5mojom5blink20CoordinatorConnectorD2Ev to i8*), i8* bitcast (void (%"class.memory_instrumentation::mojom::blink::CoordinatorConnectorProxy"*)* @_ZN22memory_instrumentation5mojom5blink25CoordinatorConnectorProxyD0Ev to i8*), i8* bitcast (void (%"class.memory_instrumentation::mojom::blink::CoordinatorConnectorProxy"*, %"class.mojo::PendingReceiver"*, %"class.mojo::PendingRemote"*)* @_ZN22memory_instrumentation5mojom5blink25CoordinatorConnectorProxy25RegisterCoordinatorClientEN4mojo15PendingReceiverINS1_11CoordinatorEEENS3_13PendingRemoteINS1_13ClientProcessEEE to i8*)] }, align 8
@_ZN22memory_instrumentation5mojom5blinkL35kCoordinatorConnectorValidationInfoE = internal constant [1 x %"struct.std::__1::pair"] [%"struct.std::__1::pair" { i32 523071618, %"struct.mojo::internal::GenericValidationInfo" { i1 (i8*, %"class.mojo::internal::ValidationContext"*)* @_ZN22memory_instrumentation5mojom8internal58CoordinatorConnector_RegisterCoordinatorClient_Params_Data8ValidateEPKvPN4mojo8internal17ValidationContextE, i1 (i8*, %"class.mojo::internal::ValidationContext"*)* null } }], align 16
@_ZTVN22memory_instrumentation5mojom5blink55ClientProcess_RequestChromeMemoryDump_ForwardToCallbackE = hidden unnamed_addr constant { [6 x i8*] } { [6 x i8*] [i8* null, i8* null, i8* bitcast (void (%"class.memory_instrumentation::mojom::blink::ClientProcess_RequestChromeMemoryDump_ForwardToCallback"*)* @_ZN22memory_instrumentation5mojom5blink55ClientProcess_RequestChromeMemoryDump_ForwardToCallbackD2Ev to i8*), i8* bitcast (void (%"class.memory_instrumentation::mojom::blink::ClientProcess_RequestChromeMemoryDump_ForwardToCallback"*)* @_ZN22memory_instrumentation5mojom5blink55ClientProcess_RequestChromeMemoryDump_ForwardToCallbackD0Ev to i8*), i8* bitcast (i1 (%"class.mojo::MessageReceiver"*)* @_ZN4mojo15MessageReceiver25PrefersSerializedMessagesEv to i8*), i8* bitcast (i1 (%"class.memory_instrumentation::mojom::blink::ClientProcess_RequestChromeMemoryDump_ForwardToCallback"*, %"class.mojo::Message"*)* @_ZN22memory_instrumentation5mojom5blink55ClientProcess_RequestChromeMemoryDump_ForwardToCallback6AcceptEPN4mojo7MessageE to i8*)] }, align 8
@_ZTVN22memory_instrumentation5mojom5blink51ClientProcess_RequestOSMemoryDump_ForwardToCallbackE = hidden unnamed_addr constant { [6 x i8*] } { [6 x i8*] [i8* null, i8* null, i8* bitcast (void (%"class.memory_instrumentation::mojom::blink::ClientProcess_RequestOSMemoryDump_ForwardToCallback"*)* @_ZN22memory_instrumentation5mojom5blink51ClientProcess_RequestOSMemoryDump_ForwardToCallbackD2Ev to i8*), i8* bitcast (void (%"class.memory_instrumentation::mojom::blink::ClientProcess_RequestOSMemoryDump_ForwardToCallback"*)* @_ZN22memory_instrumentation5mojom5blink51ClientProcess_RequestOSMemoryDump_ForwardToCallbackD0Ev to i8*), i8* bitcast (i1 (%"class.mojo::MessageReceiver"*)* @_ZN4mojo15MessageReceiver25PrefersSerializedMessagesEv to i8*), i8* bitcast (i1 (%"class.memory_instrumentation::mojom::blink::ClientProcess_RequestOSMemoryDump_ForwardToCallback"*, %"class.mojo::Message"*)* @_ZN22memory_instrumentation5mojom5blink51ClientProcess_RequestOSMemoryDump_ForwardToCallback6AcceptEPN4mojo7MessageE to i8*)] }, align 8
@_ZTVN22memory_instrumentation5mojom5blink29ClientProcessRequestValidatorE = hidden unnamed_addr constant { [6 x i8*] } { [6 x i8*] [i8* null, i8* null, i8* bitcast (void (%"class.mojo::MessageReceiver"*)* @_ZN4mojo15MessageReceiverD2Ev to i8*), i8* bitcast (void (%"class.memory_instrumentation::mojom::blink::ClientProcessRequestValidator"*)* @_ZN22memory_instrumentation5mojom5blink29ClientProcessRequestValidatorD0Ev to i8*), i8* bitcast (i1 (%"class.mojo::MessageReceiver"*)* @_ZN4mojo15MessageReceiver25PrefersSerializedMessagesEv to i8*), i8* bitcast (i1 (%"class.memory_instrumentation::mojom::blink::ClientProcessRequestValidator"*, %"class.mojo::Message"*)* @_ZN22memory_instrumentation5mojom5blink29ClientProcessRequestValidator6AcceptEPN4mojo7MessageE to i8*)] }, align 8
@_ZTVN22memory_instrumentation5mojom5blink30ClientProcessResponseValidatorE = hidden unnamed_addr constant { [6 x i8*] } { [6 x i8*] [i8* null, i8* null, i8* bitcast (void (%"class.mojo::MessageReceiver"*)* @_ZN4mojo15MessageReceiverD2Ev to i8*), i8* bitcast (void (%"class.memory_instrumentation::mojom::blink::ClientProcessResponseValidator"*)* @_ZN22memory_instrumentation5mojom5blink30ClientProcessResponseValidatorD0Ev to i8*), i8* bitcast (i1 (%"class.mojo::MessageReceiver"*)* @_ZN4mojo15MessageReceiver25PrefersSerializedMessagesEv to i8*), i8* bitcast (i1 (%"class.memory_instrumentation::mojom::blink::ClientProcessResponseValidator"*, %"class.mojo::Message"*)* @_ZN22memory_instrumentation5mojom5blink30ClientProcessResponseValidator6AcceptEPN4mojo7MessageE to i8*)] }, align 8
@_ZTVN22memory_instrumentation5mojom5blink54HeapProfiler_DumpProcessesForTracing_ForwardToCallbackE = hidden unnamed_addr constant { [6 x i8*] } { [6 x i8*] [i8* null, i8* null, i8* bitcast (void (%"class.memory_instrumentation::mojom::blink::HeapProfiler_DumpProcessesForTracing_ForwardToCallback"*)* @_ZN22memory_instrumentation5mojom5blink54HeapProfiler_DumpProcessesForTracing_ForwardToCallbackD2Ev to i8*), i8* bitcast (void (%"class.memory_instrumentation::mojom::blink::HeapProfiler_DumpProcessesForTracing_ForwardToCallback"*)* @_ZN22memory_instrumentation5mojom5blink54HeapProfiler_DumpProcessesForTracing_ForwardToCallbackD0Ev to i8*), i8* bitcast (i1 (%"class.mojo::MessageReceiver"*)* @_ZN4mojo15MessageReceiver25PrefersSerializedMessagesEv to i8*), i8* bitcast (i1 (%"class.memory_instrumentation::mojom::blink::HeapProfiler_DumpProcessesForTracing_ForwardToCallback"*, %"class.mojo::Message"*)* @_ZN22memory_instrumentation5mojom5blink54HeapProfiler_DumpProcessesForTracing_ForwardToCallback6AcceptEPN4mojo7MessageE to i8*)] }, align 8
@_ZTVN22memory_instrumentation5mojom5blink28HeapProfilerRequestValidatorE = hidden unnamed_addr constant { [6 x i8*] } { [6 x i8*] [i8* null, i8* null, i8* bitcast (void (%"class.mojo::MessageReceiver"*)* @_ZN4mojo15MessageReceiverD2Ev to i8*), i8* bitcast (void (%"class.memory_instrumentation::mojom::blink::HeapProfilerRequestValidator"*)* @_ZN22memory_instrumentation5mojom5blink28HeapProfilerRequestValidatorD0Ev to i8*), i8* bitcast (i1 (%"class.mojo::MessageReceiver"*)* @_ZN4mojo15MessageReceiver25PrefersSerializedMessagesEv to i8*), i8* bitcast (i1 (%"class.memory_instrumentation::mojom::blink::HeapProfilerRequestValidator"*, %"class.mojo::Message"*)* @_ZN22memory_instrumentation5mojom5blink28HeapProfilerRequestValidator6AcceptEPN4mojo7MessageE to i8*)] }, align 8
@_ZTVN22memory_instrumentation5mojom5blink29HeapProfilerResponseValidatorE = hidden unnamed_addr constant { [6 x i8*] } { [6 x i8*] [i8* null, i8* null, i8* bitcast (void (%"class.mojo::MessageReceiver"*)* @_ZN4mojo15MessageReceiverD2Ev to i8*), i8* bitcast (void (%"class.memory_instrumentation::mojom::blink::HeapProfilerResponseValidator"*)* @_ZN22memory_instrumentation5mojom5blink29HeapProfilerResponseValidatorD0Ev to i8*), i8* bitcast (i1 (%"class.mojo::MessageReceiver"*)* @_ZN4mojo15MessageReceiver25PrefersSerializedMessagesEv to i8*), i8* bitcast (i1 (%"class.memory_instrumentation::mojom::blink::HeapProfilerResponseValidator"*, %"class.mojo::Message"*)* @_ZN22memory_instrumentation5mojom5blink29HeapProfilerResponseValidator6AcceptEPN4mojo7MessageE to i8*)] }, align 8
@_ZTVN22memory_instrumentation5mojom5blink64HeapProfilerHelper_GetVmRegionsForHeapProfiler_ForwardToCallbackE = hidden unnamed_addr constant { [6 x i8*] } { [6 x i8*] [i8* null, i8* null, i8* bitcast (void (%"class.memory_instrumentation::mojom::blink::HeapProfilerHelper_GetVmRegionsForHeapProfiler_ForwardToCallback"*)* @_ZN22memory_instrumentation5mojom5blink64HeapProfilerHelper_GetVmRegionsForHeapProfiler_ForwardToCallbackD2Ev to i8*), i8* bitcast (void (%"class.memory_instrumentation::mojom::blink::HeapProfilerHelper_GetVmRegionsForHeapProfiler_ForwardToCallback"*)* @_ZN22memory_instrumentation5mojom5blink64HeapProfilerHelper_GetVmRegionsForHeapProfiler_ForwardToCallbackD0Ev to i8*), i8* bitcast (i1 (%"class.mojo::MessageReceiver"*)* @_ZN4mojo15MessageReceiver25PrefersSerializedMessagesEv to i8*), i8* bitcast (i1 (%"class.memory_instrumentation::mojom::blink::HeapProfilerHelper_GetVmRegionsForHeapProfiler_ForwardToCallback"*, %"class.mojo::Message"*)* @_ZN22memory_instrumentation5mojom5blink64HeapProfilerHelper_GetVmRegionsForHeapProfiler_ForwardToCallback6AcceptEPN4mojo7MessageE to i8*)] }, align 8
@_ZTVN22memory_instrumentation5mojom5blink34HeapProfilerHelperRequestValidatorE = hidden unnamed_addr constant { [6 x i8*] } { [6 x i8*] [i8* null, i8* null, i8* bitcast (void (%"class.mojo::MessageReceiver"*)* @_ZN4mojo15MessageReceiverD2Ev to i8*), i8* bitcast (void (%"class.memory_instrumentation::mojom::blink::HeapProfilerHelperRequestValidator"*)* @_ZN22memory_instrumentation5mojom5blink34HeapProfilerHelperRequestValidatorD0Ev to i8*), i8* bitcast (i1 (%"class.mojo::MessageReceiver"*)* @_ZN4mojo15MessageReceiver25PrefersSerializedMessagesEv to i8*), i8* bitcast (i1 (%"class.memory_instrumentation::mojom::blink::HeapProfilerHelperRequestValidator"*, %"class.mojo::Message"*)* @_ZN22memory_instrumentation5mojom5blink34HeapProfilerHelperRequestValidator6AcceptEPN4mojo7MessageE to i8*)] }, align 8
@_ZTVN22memory_instrumentation5mojom5blink35HeapProfilerHelperResponseValidatorE = hidden unnamed_addr constant { [6 x i8*] } { [6 x i8*] [i8* null, i8* null, i8* bitcast (void (%"class.mojo::MessageReceiver"*)* @_ZN4mojo15MessageReceiverD2Ev to i8*), i8* bitcast (void (%"class.memory_instrumentation::mojom::blink::HeapProfilerHelperResponseValidator"*)* @_ZN22memory_instrumentation5mojom5blink35HeapProfilerHelperResponseValidatorD0Ev to i8*), i8* bitcast (i1 (%"class.mojo::MessageReceiver"*)* @_ZN4mojo15MessageReceiver25PrefersSerializedMessagesEv to i8*), i8* bitcast (i1 (%"class.memory_instrumentation::mojom::blink::HeapProfilerHelperResponseValidator"*, %"class.mojo::Message"*)* @_ZN22memory_instrumentation5mojom5blink35HeapProfilerHelperResponseValidator6AcceptEPN4mojo7MessageE to i8*)] }, align 8
@_ZTVN22memory_instrumentation5mojom5blink53Coordinator_RequestGlobalMemoryDump_ForwardToCallbackE = hidden unnamed_addr constant { [6 x i8*] } { [6 x i8*] [i8* null, i8* null, i8* bitcast (void (%"class.memory_instrumentation::mojom::blink::Coordinator_RequestGlobalMemoryDump_ForwardToCallback"*)* @_ZN22memory_instrumentation5mojom5blink53Coordinator_RequestGlobalMemoryDump_ForwardToCallbackD2Ev to i8*), i8* bitcast (void (%"class.memory_instrumentation::mojom::blink::Coordinator_RequestGlobalMemoryDump_ForwardToCallback"*)* @_ZN22memory_instrumentation5mojom5blink53Coordinator_RequestGlobalMemoryDump_ForwardToCallbackD0Ev to i8*), i8* bitcast (i1 (%"class.mojo::MessageReceiver"*)* @_ZN4mojo15MessageReceiver25PrefersSerializedMessagesEv to i8*), i8* bitcast (i1 (%"class.memory_instrumentation::mojom::blink::Coordinator_RequestGlobalMemoryDump_ForwardToCallback"*, %"class.mojo::Message"*)* @_ZN22memory_instrumentation5mojom5blink53Coordinator_RequestGlobalMemoryDump_ForwardToCallback6AcceptEPN4mojo7MessageE to i8*)] }, align 8
@_ZTVN22memory_instrumentation5mojom5blink59Coordinator_RequestGlobalMemoryDumpForPid_ForwardToCallbackE = hidden unnamed_addr constant { [6 x i8*] } { [6 x i8*] [i8* null, i8* null, i8* bitcast (void (%"class.memory_instrumentation::mojom::blink::Coordinator_RequestGlobalMemoryDumpForPid_ForwardToCallback"*)* @_ZN22memory_instrumentation5mojom5blink59Coordinator_RequestGlobalMemoryDumpForPid_ForwardToCallbackD2Ev to i8*), i8* bitcast (void (%"class.memory_instrumentation::mojom::blink::Coordinator_RequestGlobalMemoryDumpForPid_ForwardToCallback"*)* @_ZN22memory_instrumentation5mojom5blink59Coordinator_RequestGlobalMemoryDumpForPid_ForwardToCallbackD0Ev to i8*), i8* bitcast (i1 (%"class.mojo::MessageReceiver"*)* @_ZN4mojo15MessageReceiver25PrefersSerializedMessagesEv to i8*), i8* bitcast (i1 (%"class.memory_instrumentation::mojom::blink::Coordinator_RequestGlobalMemoryDumpForPid_ForwardToCallback"*, %"class.mojo::Message"*)* @_ZN22memory_instrumentation5mojom5blink59Coordinator_RequestGlobalMemoryDumpForPid_ForwardToCallback6AcceptEPN4mojo7MessageE to i8*)] }, align 8
@_ZTVN22memory_instrumentation5mojom5blink59Coordinator_RequestPrivateMemoryFootprint_ForwardToCallbackE = hidden unnamed_addr constant { [6 x i8*] } { [6 x i8*] [i8* null, i8* null, i8* bitcast (void (%"class.memory_instrumentation::mojom::blink::Coordinator_RequestPrivateMemoryFootprint_ForwardToCallback"*)* @_ZN22memory_instrumentation5mojom5blink59Coordinator_RequestPrivateMemoryFootprint_ForwardToCallbackD2Ev to i8*), i8* bitcast (void (%"class.memory_instrumentation::mojom::blink::Coordinator_RequestPrivateMemoryFootprint_ForwardToCallback"*)* @_ZN22memory_instrumentation5mojom5blink59Coordinator_RequestPrivateMemoryFootprint_ForwardToCallbackD0Ev to i8*), i8* bitcast (i1 (%"class.mojo::MessageReceiver"*)* @_ZN4mojo15MessageReceiver25PrefersSerializedMessagesEv to i8*), i8* bitcast (i1 (%"class.memory_instrumentation::mojom::blink::Coordinator_RequestPrivateMemoryFootprint_ForwardToCallback"*, %"class.mojo::Message"*)* @_ZN22memory_instrumentation5mojom5blink59Coordinator_RequestPrivateMemoryFootprint_ForwardToCallback6AcceptEPN4mojo7MessageE to i8*)] }, align 8
@_ZTVN22memory_instrumentation5mojom5blink69Coordinator_RequestGlobalMemoryDumpAndAppendToTrace_ForwardToCallbackE = hidden unnamed_addr constant { [6 x i8*] } { [6 x i8*] [i8* null, i8* null, i8* bitcast (void (%"class.memory_instrumentation::mojom::blink::Coordinator_RequestGlobalMemoryDumpAndAppendToTrace_ForwardToCallback"*)* @_ZN22memory_instrumentation5mojom5blink69Coordinator_RequestGlobalMemoryDumpAndAppendToTrace_ForwardToCallbackD2Ev to i8*), i8* bitcast (void (%"class.memory_instrumentation::mojom::blink::Coordinator_RequestGlobalMemoryDumpAndAppendToTrace_ForwardToCallback"*)* @_ZN22memory_instrumentation5mojom5blink69Coordinator_RequestGlobalMemoryDumpAndAppendToTrace_ForwardToCallbackD0Ev to i8*), i8* bitcast (i1 (%"class.mojo::MessageReceiver"*)* @_ZN4mojo15MessageReceiver25PrefersSerializedMessagesEv to i8*), i8* bitcast (i1 (%"class.memory_instrumentation::mojom::blink::Coordinator_RequestGlobalMemoryDumpAndAppendToTrace_ForwardToCallback"*, %"class.mojo::Message"*)* @_ZN22memory_instrumentation5mojom5blink69Coordinator_RequestGlobalMemoryDumpAndAppendToTrace_ForwardToCallback6AcceptEPN4mojo7MessageE to i8*)] }, align 8
@_ZTVN22memory_instrumentation5mojom5blink27CoordinatorRequestValidatorE = hidden unnamed_addr constant { [6 x i8*] } { [6 x i8*] [i8* null, i8* null, i8* bitcast (void (%"class.mojo::MessageReceiver"*)* @_ZN4mojo15MessageReceiverD2Ev to i8*), i8* bitcast (void (%"class.memory_instrumentation::mojom::blink::CoordinatorRequestValidator"*)* @_ZN22memory_instrumentation5mojom5blink27CoordinatorRequestValidatorD0Ev to i8*), i8* bitcast (i1 (%"class.mojo::MessageReceiver"*)* @_ZN4mojo15MessageReceiver25PrefersSerializedMessagesEv to i8*), i8* bitcast (i1 (%"class.memory_instrumentation::mojom::blink::CoordinatorRequestValidator"*, %"class.mojo::Message"*)* @_ZN22memory_instrumentation5mojom5blink27CoordinatorRequestValidator6AcceptEPN4mojo7MessageE to i8*)] }, align 8
@_ZTVN22memory_instrumentation5mojom5blink28CoordinatorResponseValidatorE = hidden unnamed_addr constant { [6 x i8*] } { [6 x i8*] [i8* null, i8* null, i8* bitcast (void (%"class.mojo::MessageReceiver"*)* @_ZN4mojo15MessageReceiverD2Ev to i8*), i8* bitcast (void (%"class.memory_instrumentation::mojom::blink::CoordinatorResponseValidator"*)* @_ZN22memory_instrumentation5mojom5blink28CoordinatorResponseValidatorD0Ev to i8*), i8* bitcast (i1 (%"class.mojo::MessageReceiver"*)* @_ZN4mojo15MessageReceiver25PrefersSerializedMessagesEv to i8*), i8* bitcast (i1 (%"class.memory_instrumentation::mojom::blink::CoordinatorResponseValidator"*, %"class.mojo::Message"*)* @_ZN22memory_instrumentation5mojom5blink28CoordinatorResponseValidator6AcceptEPN4mojo7MessageE to i8*)] }, align 8
@_ZTVN22memory_instrumentation5mojom5blink36CoordinatorConnectorRequestValidatorE = hidden unnamed_addr constant { [6 x i8*] } { [6 x i8*] [i8* null, i8* null, i8* bitcast (void (%"class.mojo::MessageReceiver"*)* @_ZN4mojo15MessageReceiverD2Ev to i8*), i8* bitcast (void (%"class.memory_instrumentation::mojom::blink::CoordinatorConnectorRequestValidator"*)* @_ZN22memory_instrumentation5mojom5blink36CoordinatorConnectorRequestValidatorD0Ev to i8*), i8* bitcast (i1 (%"class.mojo::MessageReceiver"*)* @_ZN4mojo15MessageReceiver25PrefersSerializedMessagesEv to i8*), i8* bitcast (i1 (%"class.memory_instrumentation::mojom::blink::CoordinatorConnectorRequestValidator"*, %"class.mojo::Message"*)* @_ZN22memory_instrumentation5mojom5blink36CoordinatorConnectorRequestValidator6AcceptEPN4mojo7MessageE to i8*)] }, align 8
@.str.64 = private unnamed_addr constant [59 x i8] c"../../third_party/blink/renderer/platform/wtf/hash_table.h\00", align 1
@.str.65 = private unnamed_addr constant [39 x i8] c"!static_cast<int>( new_capacity >> 31)\00", align 1
@__PRETTY_FUNCTION__._ZN3WTF21GetStringWithTypeNameINS_12KeyValuePairINS_6StringEmEEEEPKcv = private unnamed_addr constant [93 x i8] c"const char *WTF::GetStringWithTypeName() [T = WTF::KeyValuePair<WTF::String, unsigned long>]\00", align 1
@.str.66 = private unnamed_addr constant [23 x i8] c"new_size > table_size_\00", align 1
@.str.68 = private unnamed_addr constant [11 x i8] c"i < size()\00", align 1
@.str.69 = private unnamed_addr constant [55 x i8] c"../../third_party/blink/renderer/platform/wtf/vector.h\00", align 1
@.str.70 = private unnamed_addr constant [57 x i8] c"../../mojo/public/cpp/bindings/map_traits_wtf_hash_map.h\00", align 1
@.str.71 = private unnamed_addr constant [44 x i8] c"The key value is disallowed by WTF::HashMap\00", align 1
@_ZNSt3__15ctypeIcE2idE = external global %"class.std::__1::locale::id", align 8
@__PRETTY_FUNCTION__._ZN3WTF21GetStringWithTypeNameINS_12KeyValuePairIN4mojo16InlinedStructPtrIN9mojo_base5mojom5blink9ProcessIdEEENS2_9StructPtrIN22memory_instrumentation5mojom5blink12RawOSMemDumpEEEEEEEPKcv = private unnamed_addr constant [195 x i8] c"const char *WTF::GetStringWithTypeName() [T = WTF::KeyValuePair<mojo::InlinedStructPtr<mojo_base::mojom::blink::ProcessId>, mojo::StructPtr<memory_instrumentation::mojom::blink::RawOSMemDump> >]\00", align 1
@.str.72 = private unnamed_addr constant [44 x i8] c"count <= MaxElementCountInBackingStore<T>()\00", align 1
@.str.73 = private unnamed_addr constant [78 x i8] c"../../third_party/blink/renderer/platform/wtf/allocator/partition_allocator.h\00", align 1
@__PRETTY_FUNCTION__._ZN3WTF21GetStringWithTypeNameIN4mojo16InlinedStructPtrIN9mojo_base5mojom5blink9ProcessIdEEEEEPKcv = private unnamed_addr constant [106 x i8] c"const char *WTF::GetStringWithTypeName() [T = mojo::InlinedStructPtr<mojo_base::mojom::blink::ProcessId>]\00", align 1
@__PRETTY_FUNCTION__._ZN3WTF21GetStringWithTypeNameIN4mojo9StructPtrIN22memory_instrumentation5mojom5blink17HeapProfileResultEEEEEPKcv = private unnamed_addr constant [120 x i8] c"const char *WTF::GetStringWithTypeName() [T = mojo::StructPtr<memory_instrumentation::mojom::blink::HeapProfileResult>]\00", align 1
@__PRETTY_FUNCTION__._ZN3WTF21GetStringWithTypeNameIN4mojo9StructPtrIN22memory_instrumentation5mojom5blink8VmRegionEEEEEPKcv = private unnamed_addr constant [111 x i8] c"const char *WTF::GetStringWithTypeName() [T = mojo::StructPtr<memory_instrumentation::mojom::blink::VmRegion>]\00", align 1
@__PRETTY_FUNCTION__._ZN3WTF21GetStringWithTypeNameINS_12KeyValuePairIN4mojo16InlinedStructPtrIN9mojo_base5mojom5blink9ProcessIdEEENS_6VectorINS2_9StructPtrIN22memory_instrumentation5mojom5blink8VmRegionEEELj0ENS_18PartitionAllocatorEEEEEEEPKcv = private unnamed_addr constant [232 x i8] c"const char *WTF::GetStringWithTypeName() [T = WTF::KeyValuePair<mojo::InlinedStructPtr<mojo_base::mojom::blink::ProcessId>, WTF::Vector<mojo::StructPtr<memory_instrumentation::mojom::blink::VmRegion>, 0, WTF::PartitionAllocator> >]\00", align 1
@__PRETTY_FUNCTION__._ZN3WTF21GetStringWithTypeNameINS_6StringEEEPKcv = private unnamed_addr constant [59 x i8] c"const char *WTF::GetStringWithTypeName() [T = WTF::String]\00", align 1
@__PRETTY_FUNCTION__._ZN3WTF21GetStringWithTypeNameIN4mojo9StructPtrIN22memory_instrumentation5mojom5blink21RawAllocatorDumpEntryEEEEEPKcv = private unnamed_addr constant [124 x i8] c"const char *WTF::GetStringWithTypeName() [T = mojo::StructPtr<memory_instrumentation::mojom::blink::RawAllocatorDumpEntry>]\00", align 1
@__PRETTY_FUNCTION__._ZN3WTF21GetStringWithTypeNameIN4mojo16InlinedStructPtrIN22memory_instrumentation5mojom5blink20RawAllocatorDumpEdgeEEEEEPKcv = private unnamed_addr constant [130 x i8] c"const char *WTF::GetStringWithTypeName() [T = mojo::InlinedStructPtr<memory_instrumentation::mojom::blink::RawAllocatorDumpEdge>]\00", align 1
@__PRETTY_FUNCTION__._ZN3WTF21GetStringWithTypeNameIN4mojo9StructPtrIN22memory_instrumentation5mojom5blink16RawAllocatorDumpEEEEEPKcv = private unnamed_addr constant [119 x i8] c"const char *WTF::GetStringWithTypeName() [T = mojo::StructPtr<memory_instrumentation::mojom::blink::RawAllocatorDump>]\00", align 1
@__PRETTY_FUNCTION__._ZN3WTF21GetStringWithTypeNameIhEEPKcv = private unnamed_addr constant [61 x i8] c"const char *WTF::GetStringWithTypeName() [T = unsigned char]\00", align 1
@__PRETTY_FUNCTION__._ZN3WTF21GetStringWithTypeNameINS_12KeyValuePairINS_6StringEN4mojo9StructPtrIN22memory_instrumentation5mojom5blink16AllocatorMemDumpEEEEEEEPKcv = private unnamed_addr constant [152 x i8] c"const char *WTF::GetStringWithTypeName() [T = WTF::KeyValuePair<WTF::String, mojo::StructPtr<memory_instrumentation::mojom::blink::AllocatorMemDump> >]\00", align 1
@__PRETTY_FUNCTION__._ZN3WTF21GetStringWithTypeNameIN4mojo9StructPtrIN22memory_instrumentation5mojom5blink17ProcessMemoryDumpEEEEEPKcv = private unnamed_addr constant [120 x i8] c"const char *WTF::GetStringWithTypeName() [T = mojo::StructPtr<memory_instrumentation::mojom::blink::ProcessMemoryDump>]\00", align 1
@_ZN3WTF14g_empty_stringE = external local_unnamed_addr constant %"class.WTF::String"*, align 8

@_ZN22memory_instrumentation5mojom5blink11RequestArgsC1Ev = hidden unnamed_addr alias void (%"class.memory_instrumentation::mojom::blink::RequestArgs"*), void (%"class.memory_instrumentation::mojom::blink::RequestArgs"*)* @_ZN22memory_instrumentation5mojom5blink11RequestArgsC2Ev
@_ZN22memory_instrumentation5mojom5blink11RequestArgsC1EmNS0_8DumpTypeENS0_13LevelOfDetailENS0_11DeterminismE = hidden unnamed_addr alias void (%"class.memory_instrumentation::mojom::blink::RequestArgs"*, i64, i32, i32, i32), void (%"class.memory_instrumentation::mojom::blink::RequestArgs"*, i64, i32, i32, i32)* @_ZN22memory_instrumentation5mojom5blink11RequestArgsC2EmNS0_8DumpTypeENS0_13LevelOfDetailENS0_11DeterminismE
@_ZN22memory_instrumentation5mojom5blink11RequestArgsD1Ev = hidden unnamed_addr alias void (%"class.memory_instrumentation::mojom::blink::RequestArgs"*), void (%"class.memory_instrumentation::mojom::blink::RequestArgs"*)* @_ZN22memory_instrumentation5mojom5blink11RequestArgsD2Ev
@_ZN22memory_instrumentation5mojom5blink20RawAllocatorDumpEdgeC1Ev = hidden unnamed_addr alias void (%"class.memory_instrumentation::mojom::blink::RawAllocatorDumpEdge"*), void (%"class.memory_instrumentation::mojom::blink::RawAllocatorDumpEdge"*)* @_ZN22memory_instrumentation5mojom5blink20RawAllocatorDumpEdgeC2Ev
@_ZN22memory_instrumentation5mojom5blink20RawAllocatorDumpEdgeC1Emmib = hidden unnamed_addr alias void (%"class.memory_instrumentation::mojom::blink::RawAllocatorDumpEdge"*, i64, i64, i32, i1), void (%"class.memory_instrumentation::mojom::blink::RawAllocatorDumpEdge"*, i64, i64, i32, i1)* @_ZN22memory_instrumentation5mojom5blink20RawAllocatorDumpEdgeC2Emmib
@_ZN22memory_instrumentation5mojom5blink20RawAllocatorDumpEdgeD1Ev = hidden unnamed_addr alias void (%"class.memory_instrumentation::mojom::blink::RawAllocatorDumpEdge"*), void (%"class.memory_instrumentation::mojom::blink::RawAllocatorDumpEdge"*)* @_ZN22memory_instrumentation5mojom5blink20RawAllocatorDumpEdgeD2Ev
@_ZN22memory_instrumentation5mojom5blink21RawAllocatorDumpEntryC1Ev = hidden unnamed_addr alias void (%"class.memory_instrumentation::mojom::blink::RawAllocatorDumpEntry"*), void (%"class.memory_instrumentation::mojom::blink::RawAllocatorDumpEntry"*)* @_ZN22memory_instrumentation5mojom5blink21RawAllocatorDumpEntryC2Ev
@_ZN22memory_instrumentation5mojom5blink21RawAllocatorDumpEntryC1ERKN3WTF6StringES6_N4mojo9StructPtrINS1_26RawAllocatorDumpEntryValueEEE = hidden unnamed_addr alias void (%"class.memory_instrumentation::mojom::blink::RawAllocatorDumpEntry"*, %"class.WTF::String"*, %"class.WTF::String"*, %"class.mojo::StructPtr"*), void (%"class.memory_instrumentation::mojom::blink::RawAllocatorDumpEntry"*, %"class.WTF::String"*, %"class.WTF::String"*, %"class.mojo::StructPtr"*)* @_ZN22memory_instrumentation5mojom5blink21RawAllocatorDumpEntryC2ERKN3WTF6StringES6_N4mojo9StructPtrINS1_26RawAllocatorDumpEntryValueEEE
@_ZN22memory_instrumentation5mojom5blink21RawAllocatorDumpEntryD1Ev = hidden unnamed_addr alias void (%"class.memory_instrumentation::mojom::blink::RawAllocatorDumpEntry"*), void (%"class.memory_instrumentation::mojom::blink::RawAllocatorDumpEntry"*)* @_ZN22memory_instrumentation5mojom5blink21RawAllocatorDumpEntryD2Ev
@_ZN22memory_instrumentation5mojom5blink16RawAllocatorDumpC1Ev = hidden unnamed_addr alias void (%"class.memory_instrumentation::mojom::blink::RawAllocatorDump"*), void (%"class.memory_instrumentation::mojom::blink::RawAllocatorDump"*)* @_ZN22memory_instrumentation5mojom5blink16RawAllocatorDumpC2Ev
@_ZN22memory_instrumentation5mojom5blink16RawAllocatorDumpC1EmRKN3WTF6StringEbNS0_13LevelOfDetailENS3_6VectorIN4mojo9StructPtrINS1_21RawAllocatorDumpEntryEEELj0ENS3_18PartitionAllocatorEEE = hidden unnamed_addr alias void (%"class.memory_instrumentation::mojom::blink::RawAllocatorDump"*, i64, %"class.WTF::String"*, i1, i32, %"class.WTF::Vector"*), void (%"class.memory_instrumentation::mojom::blink::RawAllocatorDump"*, i64, %"class.WTF::String"*, i1, i32, %"class.WTF::Vector"*)* @_ZN22memory_instrumentation5mojom5blink16RawAllocatorDumpC2EmRKN3WTF6StringEbNS0_13LevelOfDetailENS3_6VectorIN4mojo9StructPtrINS1_21RawAllocatorDumpEntryEEELj0ENS3_18PartitionAllocatorEEE
@_ZN22memory_instrumentation5mojom5blink16RawAllocatorDumpD1Ev = hidden unnamed_addr alias void (%"class.memory_instrumentation::mojom::blink::RawAllocatorDump"*), void (%"class.memory_instrumentation::mojom::blink::RawAllocatorDump"*)* @_ZN22memory_instrumentation5mojom5blink16RawAllocatorDumpD2Ev
@_ZN22memory_instrumentation5mojom5blink20RawProcessMemoryDumpC1Ev = hidden unnamed_addr alias void (%"class.memory_instrumentation::mojom::blink::RawProcessMemoryDump"*), void (%"class.memory_instrumentation::mojom::blink::RawProcessMemoryDump"*)* @_ZN22memory_instrumentation5mojom5blink20RawProcessMemoryDumpC2Ev
@_ZN22memory_instrumentation5mojom5blink20RawProcessMemoryDumpC1ENS0_13LevelOfDetailEN3WTF6VectorIN4mojo16InlinedStructPtrINS1_20RawAllocatorDumpEdgeEEELj0ENS4_18PartitionAllocatorEEENS5_INS6_9StructPtrINS1_16RawAllocatorDumpEEELj0ESA_EE = hidden unnamed_addr alias void (%"class.memory_instrumentation::mojom::blink::RawProcessMemoryDump"*, i32, %"class.WTF::Vector.41"*, %"class.WTF::Vector.46"*), void (%"class.memory_instrumentation::mojom::blink::RawProcessMemoryDump"*, i32, %"class.WTF::Vector.41"*, %"class.WTF::Vector.46"*)* @_ZN22memory_instrumentation5mojom5blink20RawProcessMemoryDumpC2ENS0_13LevelOfDetailEN3WTF6VectorIN4mojo16InlinedStructPtrINS1_20RawAllocatorDumpEdgeEEELj0ENS4_18PartitionAllocatorEEENS5_INS6_9StructPtrINS1_16RawAllocatorDumpEEELj0ESA_EE
@_ZN22memory_instrumentation5mojom5blink20RawProcessMemoryDumpD1Ev = hidden unnamed_addr alias void (%"class.memory_instrumentation::mojom::blink::RawProcessMemoryDump"*), void (%"class.memory_instrumentation::mojom::blink::RawProcessMemoryDump"*)* @_ZN22memory_instrumentation5mojom5blink20RawProcessMemoryDumpD2Ev
@_ZN22memory_instrumentation5mojom5blink8VmRegionC1Ev = hidden unnamed_addr alias void (%"class.memory_instrumentation::mojom::blink::VmRegion"*), void (%"class.memory_instrumentation::mojom::blink::VmRegion"*)* @_ZN22memory_instrumentation5mojom5blink8VmRegionC2Ev
@_ZN22memory_instrumentation5mojom5blink8VmRegionC1EmmmRKN3WTF6StringES6_jS6_mmmmmmm = hidden unnamed_addr alias void (%"class.memory_instrumentation::mojom::blink::VmRegion"*, i64, i64, i64, %"class.WTF::String"*, %"class.WTF::String"*, i32, %"class.WTF::String"*, i64, i64, i64, i64, i64, i64, i64), void (%"class.memory_instrumentation::mojom::blink::VmRegion"*, i64, i64, i64, %"class.WTF::String"*, %"class.WTF::String"*, i32, %"class.WTF::String"*, i64, i64, i64, i64, i64, i64, i64)* @_ZN22memory_instrumentation5mojom5blink8VmRegionC2EmmmRKN3WTF6StringES6_jS6_mmmmmmm
@_ZN22memory_instrumentation5mojom5blink8VmRegionD1Ev = hidden unnamed_addr alias void (%"class.memory_instrumentation::mojom::blink::VmRegion"*), void (%"class.memory_instrumentation::mojom::blink::VmRegion"*)* @_ZN22memory_instrumentation5mojom5blink8VmRegionD2Ev
@_ZN22memory_instrumentation5mojom5blink24PlatformPrivateFootprintC1Ev = hidden unnamed_addr alias void (%"class.memory_instrumentation::mojom::blink::PlatformPrivateFootprint"*), void (%"class.memory_instrumentation::mojom::blink::PlatformPrivateFootprint"*)* @_ZN22memory_instrumentation5mojom5blink24PlatformPrivateFootprintC2Ev
@_ZN22memory_instrumentation5mojom5blink24PlatformPrivateFootprintC1Emmmmmm = hidden unnamed_addr alias void (%"class.memory_instrumentation::mojom::blink::PlatformPrivateFootprint"*, i64, i64, i64, i64, i64, i64), void (%"class.memory_instrumentation::mojom::blink::PlatformPrivateFootprint"*, i64, i64, i64, i64, i64, i64)* @_ZN22memory_instrumentation5mojom5blink24PlatformPrivateFootprintC2Emmmmmm
@_ZN22memory_instrumentation5mojom5blink24PlatformPrivateFootprintD1Ev = hidden unnamed_addr alias void (%"class.memory_instrumentation::mojom::blink::PlatformPrivateFootprint"*), void (%"class.memory_instrumentation::mojom::blink::PlatformPrivateFootprint"*)* @_ZN22memory_instrumentation5mojom5blink24PlatformPrivateFootprintD2Ev
@_ZN22memory_instrumentation5mojom5blink12RawOSMemDumpC1Ev = hidden unnamed_addr alias void (%"class.memory_instrumentation::mojom::blink::RawOSMemDump"*), void (%"class.memory_instrumentation::mojom::blink::RawOSMemDump"*)* @_ZN22memory_instrumentation5mojom5blink12RawOSMemDumpC2Ev
@_ZN22memory_instrumentation5mojom5blink12RawOSMemDumpC1EjjbN4mojo9StructPtrINS1_24PlatformPrivateFootprintEEEN3WTF6VectorINS4_INS1_8VmRegionEEELj0ENS7_18PartitionAllocatorEEENS8_IhLj0ESB_EE = hidden unnamed_addr alias void (%"class.memory_instrumentation::mojom::blink::RawOSMemDump"*, i32, i32, i1, %"class.mojo::StructPtr.58"*, %"class.WTF::Vector.65"*, %"class.WTF::Vector.77"*), void (%"class.memory_instrumentation::mojom::blink::RawOSMemDump"*, i32, i32, i1, %"class.mojo::StructPtr.58"*, %"class.WTF::Vector.65"*, %"class.WTF::Vector.77"*)* @_ZN22memory_instrumentation5mojom5blink12RawOSMemDumpC2EjjbN4mojo9StructPtrINS1_24PlatformPrivateFootprintEEEN3WTF6VectorINS4_INS1_8VmRegionEEELj0ENS7_18PartitionAllocatorEEENS8_IhLj0ESB_EE
@_ZN22memory_instrumentation5mojom5blink12RawOSMemDumpD1Ev = hidden unnamed_addr alias void (%"class.memory_instrumentation::mojom::blink::RawOSMemDump"*), void (%"class.memory_instrumentation::mojom::blink::RawOSMemDump"*)* @_ZN22memory_instrumentation5mojom5blink12RawOSMemDumpD2Ev
@_ZN22memory_instrumentation5mojom5blink9OSMemDumpC1Ev = hidden unnamed_addr alias void (%"class.memory_instrumentation::mojom::blink::OSMemDump"*), void (%"class.memory_instrumentation::mojom::blink::OSMemDump"*)* @_ZN22memory_instrumentation5mojom5blink9OSMemDumpC2Ev
@_ZN22memory_instrumentation5mojom5blink9OSMemDumpC1Ejjbjjj = hidden unnamed_addr alias void (%"class.memory_instrumentation::mojom::blink::OSMemDump"*, i32, i32, i1, i32, i32, i32), void (%"class.memory_instrumentation::mojom::blink::OSMemDump"*, i32, i32, i1, i32, i32, i32)* @_ZN22memory_instrumentation5mojom5blink9OSMemDumpC2Ejjbjjj
@_ZN22memory_instrumentation5mojom5blink9OSMemDumpD1Ev = hidden unnamed_addr alias void (%"class.memory_instrumentation::mojom::blink::OSMemDump"*), void (%"class.memory_instrumentation::mojom::blink::OSMemDump"*)* @_ZN22memory_instrumentation5mojom5blink9OSMemDumpD2Ev
@_ZN22memory_instrumentation5mojom5blink16AllocatorMemDumpC1Ev = hidden unnamed_addr alias void (%"class.memory_instrumentation::mojom::blink::AllocatorMemDump"*), void (%"class.memory_instrumentation::mojom::blink::AllocatorMemDump"*)* @_ZN22memory_instrumentation5mojom5blink16AllocatorMemDumpC2Ev
@_ZN22memory_instrumentation5mojom5blink16AllocatorMemDumpC1ERKN3WTF7HashMapINS3_6StringEmNS3_10StringHashENS3_10HashTraitsIS5_EENS7_ImEENS3_18PartitionAllocatorEEE = hidden unnamed_addr alias void (%"class.memory_instrumentation::mojom::blink::AllocatorMemDump"*, %"class.WTF::HashMap"*), void (%"class.memory_instrumentation::mojom::blink::AllocatorMemDump"*, %"class.WTF::HashMap"*)* @_ZN22memory_instrumentation5mojom5blink16AllocatorMemDumpC2ERKN3WTF7HashMapINS3_6StringEmNS3_10StringHashENS3_10HashTraitsIS5_EENS7_ImEENS3_18PartitionAllocatorEEE
@_ZN22memory_instrumentation5mojom5blink16AllocatorMemDumpD1Ev = hidden unnamed_addr alias void (%"class.memory_instrumentation::mojom::blink::AllocatorMemDump"*), void (%"class.memory_instrumentation::mojom::blink::AllocatorMemDump"*)* @_ZN22memory_instrumentation5mojom5blink16AllocatorMemDumpD2Ev
@_ZN22memory_instrumentation5mojom5blink17ProcessMemoryDumpC1Ev = hidden unnamed_addr alias void (%"class.memory_instrumentation::mojom::blink::ProcessMemoryDump"*), void (%"class.memory_instrumentation::mojom::blink::ProcessMemoryDump"*)* @_ZN22memory_instrumentation5mojom5blink17ProcessMemoryDumpC2Ev
@_ZN22memory_instrumentation5mojom5blink17ProcessMemoryDumpC1ENS0_11ProcessTypeEN4mojo9StructPtrINS1_9OSMemDumpEEEN3WTF7HashMapINS8_6StringENS5_INS1_16AllocatorMemDumpEEENS8_10StringHashENS8_10HashTraitsISA_EENSE_ISC_EENS8_18PartitionAllocatorEEENS4_16InlinedStructPtrIN9mojo_base5mojom5blink9ProcessIdEEERKSA_ = hidden unnamed_addr alias void (%"class.memory_instrumentation::mojom::blink::ProcessMemoryDump"*, i32, %"class.mojo::StructPtr.84"*, %"class.WTF::HashMap.91"*, %"class.mojo::InlinedStructPtr.103"*, %"class.WTF::String"*), void (%"class.memory_instrumentation::mojom::blink::ProcessMemoryDump"*, i32, %"class.mojo::StructPtr.84"*, %"class.WTF::HashMap.91"*, %"class.mojo::InlinedStructPtr.103"*, %"class.WTF::String"*)* @_ZN22memory_instrumentation5mojom5blink17ProcessMemoryDumpC2ENS0_11ProcessTypeEN4mojo9StructPtrINS1_9OSMemDumpEEEN3WTF7HashMapINS8_6StringENS5_INS1_16AllocatorMemDumpEEENS8_10StringHashENS8_10HashTraitsISA_EENSE_ISC_EENS8_18PartitionAllocatorEEENS4_16InlinedStructPtrIN9mojo_base5mojom5blink9ProcessIdEEERKSA_
@_ZN22memory_instrumentation5mojom5blink17ProcessMemoryDumpD1Ev = hidden unnamed_addr alias void (%"class.memory_instrumentation::mojom::blink::ProcessMemoryDump"*), void (%"class.memory_instrumentation::mojom::blink::ProcessMemoryDump"*)* @_ZN22memory_instrumentation5mojom5blink17ProcessMemoryDumpD2Ev
@_ZN22memory_instrumentation5mojom5blink17AggregatedMetricsC1Ev = hidden unnamed_addr alias void (%"class.memory_instrumentation::mojom::blink::AggregatedMetrics"*), void (%"class.memory_instrumentation::mojom::blink::AggregatedMetrics"*)* @_ZN22memory_instrumentation5mojom5blink17AggregatedMetricsC2Ev
@_ZN22memory_instrumentation5mojom5blink17AggregatedMetricsC1Eiii = hidden unnamed_addr alias void (%"class.memory_instrumentation::mojom::blink::AggregatedMetrics"*, i32, i32, i32), void (%"class.memory_instrumentation::mojom::blink::AggregatedMetrics"*, i32, i32, i32)* @_ZN22memory_instrumentation5mojom5blink17AggregatedMetricsC2Eiii
@_ZN22memory_instrumentation5mojom5blink17AggregatedMetricsD1Ev = hidden unnamed_addr alias void (%"class.memory_instrumentation::mojom::blink::AggregatedMetrics"*), void (%"class.memory_instrumentation::mojom::blink::AggregatedMetrics"*)* @_ZN22memory_instrumentation5mojom5blink17AggregatedMetricsD2Ev
@_ZN22memory_instrumentation5mojom5blink16GlobalMemoryDumpC1Ev = hidden unnamed_addr alias void (%"class.memory_instrumentation::mojom::blink::GlobalMemoryDump"*), void (%"class.memory_instrumentation::mojom::blink::GlobalMemoryDump"*)* @_ZN22memory_instrumentation5mojom5blink16GlobalMemoryDumpC2Ev
@_ZN22memory_instrumentation5mojom5blink16GlobalMemoryDumpC1EN4base9TimeTicksEN3WTF6VectorIN4mojo9StructPtrINS1_17ProcessMemoryDumpEEELj0ENS5_18PartitionAllocatorEEENS7_16InlinedStructPtrINS1_17AggregatedMetricsEEE = hidden unnamed_addr alias void (%"class.memory_instrumentation::mojom::blink::GlobalMemoryDump"*, i64, %"class.WTF::Vector.104"*, %"class.mojo::InlinedStructPtr.116"*), void (%"class.memory_instrumentation::mojom::blink::GlobalMemoryDump"*, i64, %"class.WTF::Vector.104"*, %"class.mojo::InlinedStructPtr.116"*)* @_ZN22memory_instrumentation5mojom5blink16GlobalMemoryDumpC2EN4base9TimeTicksEN3WTF6VectorIN4mojo9StructPtrINS1_17ProcessMemoryDumpEEELj0ENS5_18PartitionAllocatorEEENS7_16InlinedStructPtrINS1_17AggregatedMetricsEEE
@_ZN22memory_instrumentation5mojom5blink16GlobalMemoryDumpD1Ev = hidden unnamed_addr alias void (%"class.memory_instrumentation::mojom::blink::GlobalMemoryDump"*), void (%"class.memory_instrumentation::mojom::blink::GlobalMemoryDump"*)* @_ZN22memory_instrumentation5mojom5blink16GlobalMemoryDumpD2Ev
@_ZN22memory_instrumentation5mojom5blink17HeapProfileResultC1Ev = hidden unnamed_addr alias void (%"class.memory_instrumentation::mojom::blink::HeapProfileResult"*), void (%"class.memory_instrumentation::mojom::blink::HeapProfileResult"*)* @_ZN22memory_instrumentation5mojom5blink17HeapProfileResultC2Ev
@_ZN22memory_instrumentation5mojom5blink17HeapProfileResultC1EN4mojo16InlinedStructPtrIN9mojo_base5mojom5blink9ProcessIdEEERKN3WTF6StringE = hidden unnamed_addr alias void (%"class.memory_instrumentation::mojom::blink::HeapProfileResult"*, %"class.mojo::InlinedStructPtr.103"*, %"class.WTF::String"*), void (%"class.memory_instrumentation::mojom::blink::HeapProfileResult"*, %"class.mojo::InlinedStructPtr.103"*, %"class.WTF::String"*)* @_ZN22memory_instrumentation5mojom5blink17HeapProfileResultC2EN4mojo16InlinedStructPtrIN9mojo_base5mojom5blink9ProcessIdEEERKN3WTF6StringE
@_ZN22memory_instrumentation5mojom5blink17HeapProfileResultD1Ev = hidden unnamed_addr alias void (%"class.memory_instrumentation::mojom::blink::HeapProfileResult"*), void (%"class.memory_instrumentation::mojom::blink::HeapProfileResult"*)* @_ZN22memory_instrumentation5mojom5blink17HeapProfileResultD2Ev
@_ZN22memory_instrumentation5mojom5blink26RawAllocatorDumpEntryValueC1Ev = hidden unnamed_addr alias void (%"class.memory_instrumentation::mojom::blink::RawAllocatorDumpEntryValue"*), void (%"class.memory_instrumentation::mojom::blink::RawAllocatorDumpEntryValue"*)* @_ZN22memory_instrumentation5mojom5blink26RawAllocatorDumpEntryValueC2Ev
@_ZN22memory_instrumentation5mojom5blink26RawAllocatorDumpEntryValueD1Ev = hidden unnamed_addr alias void (%"class.memory_instrumentation::mojom::blink::RawAllocatorDumpEntryValue"*), void (%"class.memory_instrumentation::mojom::blink::RawAllocatorDumpEntryValue"*)* @_ZN22memory_instrumentation5mojom5blink26RawAllocatorDumpEntryValueD2Ev
@_ZN22memory_instrumentation5mojom5blink18ClientProcessProxyC1EPN4mojo28MessageReceiverWithResponderE = hidden unnamed_addr alias void (%"class.memory_instrumentation::mojom::blink::ClientProcessProxy"*, %"class.mojo::MessageReceiverWithResponder"*), void (%"class.memory_instrumentation::mojom::blink::ClientProcessProxy"*, %"class.mojo::MessageReceiverWithResponder"*)* @_ZN22memory_instrumentation5mojom5blink18ClientProcessProxyC2EPN4mojo28MessageReceiverWithResponderE
@_ZN22memory_instrumentation5mojom5blink17HeapProfilerProxyC1EPN4mojo28MessageReceiverWithResponderE = hidden unnamed_addr alias void (%"class.memory_instrumentation::mojom::blink::HeapProfilerProxy"*, %"class.mojo::MessageReceiverWithResponder"*), void (%"class.memory_instrumentation::mojom::blink::HeapProfilerProxy"*, %"class.mojo::MessageReceiverWithResponder"*)* @_ZN22memory_instrumentation5mojom5blink17HeapProfilerProxyC2EPN4mojo28MessageReceiverWithResponderE
@_ZN22memory_instrumentation5mojom5blink23HeapProfilerHelperProxyC1EPN4mojo28MessageReceiverWithResponderE = hidden unnamed_addr alias void (%"class.memory_instrumentation::mojom::blink::HeapProfilerHelperProxy"*, %"class.mojo::MessageReceiverWithResponder"*), void (%"class.memory_instrumentation::mojom::blink::HeapProfilerHelperProxy"*, %"class.mojo::MessageReceiverWithResponder"*)* @_ZN22memory_instrumentation5mojom5blink23HeapProfilerHelperProxyC2EPN4mojo28MessageReceiverWithResponderE
@_ZN22memory_instrumentation5mojom5blink16CoordinatorProxyC1EPN4mojo28MessageReceiverWithResponderE = hidden unnamed_addr alias void (%"class.memory_instrumentation::mojom::blink::CoordinatorProxy"*, %"class.mojo::MessageReceiverWithResponder"*), void (%"class.memory_instrumentation::mojom::blink::CoordinatorProxy"*, %"class.mojo::MessageReceiverWithResponder"*)* @_ZN22memory_instrumentation5mojom5blink16CoordinatorProxyC2EPN4mojo28MessageReceiverWithResponderE
@_ZN22memory_instrumentation5mojom5blink25CoordinatorConnectorProxyC1EPN4mojo28MessageReceiverWithResponderE = hidden unnamed_addr alias void (%"class.memory_instrumentation::mojom::blink::CoordinatorConnectorProxy"*, %"class.mojo::MessageReceiverWithResponder"*), void (%"class.memory_instrumentation::mojom::blink::CoordinatorConnectorProxy"*, %"class.mojo::MessageReceiverWithResponder"*)* @_ZN22memory_instrumentation5mojom5blink25CoordinatorConnectorProxyC2EPN4mojo28MessageReceiverWithResponderE

; Function Attrs: nofree norecurse nounwind ssp uwtable writeonly
define hidden void @_ZN22memory_instrumentation5mojom5blink11RequestArgsC2Ev(%"class.memory_instrumentation::mojom::blink::RequestArgs"* nocapture) unnamed_addr #0 align 2 {
  %2 = bitcast %"class.memory_instrumentation::mojom::blink::RequestArgs"* %0 to i8*
  call void @llvm.memset.p0i8.i64(i8* align 8 %2, i8 0, i64 20, i1 false)
  ret void
}

; Function Attrs: nofree norecurse nounwind ssp uwtable writeonly
define hidden void @_ZN22memory_instrumentation5mojom5blink11RequestArgsC2EmNS0_8DumpTypeENS0_13LevelOfDetailENS0_11DeterminismE(%"class.memory_instrumentation::mojom::blink::RequestArgs"* nocapture, i64, i32, i32, i32) unnamed_addr #0 align 2 {
  %6 = getelementptr inbounds %"class.memory_instrumentation::mojom::blink::RequestArgs", %"class.memory_instrumentation::mojom::blink::RequestArgs"* %0, i64 0, i32 0
  store i64 %1, i64* %6, align 8
  %7 = getelementptr inbounds %"class.memory_instrumentation::mojom::blink::RequestArgs", %"class.memory_instrumentation::mojom::blink::RequestArgs"* %0, i64 0, i32 1
  store i32 %2, i32* %7, align 8
  %8 = getelementptr inbounds %"class.memory_instrumentation::mojom::blink::RequestArgs", %"class.memory_instrumentation::mojom::blink::RequestArgs"* %0, i64 0, i32 2
  store i32 %3, i32* %8, align 4
  %9 = getelementptr inbounds %"class.memory_instrumentation::mojom::blink::RequestArgs", %"class.memory_instrumentation::mojom::blink::RequestArgs"* %0, i64 0, i32 3
  store i32 %4, i32* %9, align 8
  ret void
}

; Function Attrs: norecurse nounwind readnone ssp uwtable
define hidden void @_ZN22memory_instrumentation5mojom5blink11RequestArgsD2Ev(%"class.memory_instrumentation::mojom::blink::RequestArgs"* nocapture) unnamed_addr #1 align 2 {
  ret void
}

; Function Attrs: norecurse nounwind readonly ssp uwtable
define hidden i64 @_ZNK22memory_instrumentation5mojom5blink11RequestArgs4HashEm(%"class.memory_instrumentation::mojom::blink::RequestArgs"* nocapture readonly, i64) local_unnamed_addr #2 align 2 {
  %3 = getelementptr inbounds %"class.memory_instrumentation::mojom::blink::RequestArgs", %"class.memory_instrumentation::mojom::blink::RequestArgs"* %0, i64 0, i32 0
  %4 = load i64, i64* %3, align 8
  %5 = shl i64 %1, 6
  %6 = lshr i64 %1, 2
  %7 = add i64 %6, %5
  %8 = add i64 %7, %4
  %9 = xor i64 %8, %1
  %10 = getelementptr inbounds %"class.memory_instrumentation::mojom::blink::RequestArgs", %"class.memory_instrumentation::mojom::blink::RequestArgs"* %0, i64 0, i32 1
  %11 = load i32, i32* %10, align 4
  %12 = sext i32 %11 to i64
  %13 = shl i64 %9, 6
  %14 = lshr i64 %9, 2
  %15 = add i64 %13, %12
  %16 = add i64 %15, %14
  %17 = xor i64 %16, %9
  %18 = getelementptr inbounds %"class.memory_instrumentation::mojom::blink::RequestArgs", %"class.memory_instrumentation::mojom::blink::RequestArgs"* %0, i64 0, i32 2
  %19 = load i32, i32* %18, align 4
  %20 = sext i32 %19 to i64
  %21 = shl i64 %17, 6
  %22 = lshr i64 %17, 2
  %23 = add i64 %21, %20
  %24 = add i64 %23, %22
  %25 = xor i64 %24, %17
  %26 = getelementptr inbounds %"class.memory_instrumentation::mojom::blink::RequestArgs", %"class.memory_instrumentation::mojom::blink::RequestArgs"* %0, i64 0, i32 3
  %27 = load i32, i32* %26, align 4
  %28 = sext i32 %27 to i64
  %29 = shl i64 %25, 6
  %30 = lshr i64 %25, 2
  %31 = add i64 %29, %28
  %32 = add i64 %31, %30
  %33 = xor i64 %32, %25
  ret i64 %33
}

; Function Attrs: nounwind ssp uwtable
define hidden void @_ZNK22memory_instrumentation5mojom5blink11RequestArgs14WriteIntoTraceEN8perfetto11TracedValueE(%"class.memory_instrumentation::mojom::blink::RequestArgs"* nocapture readonly, %"class.perfetto::TracedValue"*) local_unnamed_addr #3 align 2 {
  %3 = alloca %"class.perfetto::TracedValue", align 8
  %4 = alloca %"class.perfetto::TracedValue", align 8
  %5 = alloca %"class.perfetto::TracedValue", align 8
  %6 = alloca %"class.perfetto::TracedValue", align 8
  %7 = alloca %"class.perfetto::TracedDictionary", align 8
  %8 = alloca %"class.perfetto::TracedValue", align 8
  %9 = alloca %"class.perfetto::TracedValue", align 8
  %10 = alloca %"class.perfetto::TracedValue", align 8
  %11 = alloca %"class.perfetto::TracedValue", align 8
  %12 = bitcast %"class.perfetto::TracedDictionary"* %7 to i8*
  call void @llvm.lifetime.start.p0i8(i64 16, i8* nonnull %12) #15
  %13 = bitcast %"class.perfetto::TracedDictionary"* %7 to i8*
  call void @llvm.memset.p0i8.i64(i8* nonnull align 8 %13, i8 -86, i64 16, i1 false)
  call void @_ZNO8perfetto11TracedValue15WriteDictionaryEv(%"class.perfetto::TracedDictionary"* nonnull sret %7, %"class.perfetto::TracedValue"* %1) #15
  call void @_ZN8perfetto16TracedDictionary7AddItemENS_12StaticStringE(%"class.perfetto::TracedValue"* nonnull sret %8, %"class.perfetto::TracedDictionary"* nonnull %7, i8* getelementptr inbounds ([10 x i8], [10 x i8]* @.str, i64 0, i64 0)) #15
  %14 = getelementptr inbounds %"class.memory_instrumentation::mojom::blink::RequestArgs", %"class.memory_instrumentation::mojom::blink::RequestArgs"* %0, i64 0, i32 0
  %15 = bitcast %"class.perfetto::TracedValue"* %8 to i8*
  %16 = bitcast %"class.perfetto::TracedValue"* %5 to i8*
  call void @llvm.lifetime.start.p0i8(i64 16, i8* nonnull %16) #15
  call void @llvm.memcpy.p0i8.p0i8.i64(i8* nonnull align 8 %16, i8* nonnull align 8 %15, i64 16, i1 false) #15
  %17 = load i64, i64* %14, align 8
  call void @_ZNO8perfetto11TracedValue11WriteUInt64Em(%"class.perfetto::TracedValue"* nonnull %5, i64 %17) #15
  call void @llvm.lifetime.end.p0i8(i64 16, i8* nonnull %16) #15
  call void @_ZN8perfetto16TracedDictionary7AddItemENS_12StaticStringE(%"class.perfetto::TracedValue"* nonnull sret %9, %"class.perfetto::TracedDictionary"* nonnull %7, i8* getelementptr inbounds ([10 x i8], [10 x i8]* @.str.2, i64 0, i64 0)) #15
  %18 = getelementptr inbounds %"class.memory_instrumentation::mojom::blink::RequestArgs", %"class.memory_instrumentation::mojom::blink::RequestArgs"* %0, i64 0, i32 1
  %19 = bitcast %"class.perfetto::TracedValue"* %9 to i8*
  %20 = bitcast %"class.perfetto::TracedValue"* %4 to i8*
  call void @llvm.lifetime.start.p0i8(i64 16, i8* nonnull %20) #15
  call void @llvm.memcpy.p0i8.p0i8.i64(i8* nonnull align 8 %20, i8* nonnull align 8 %19, i64 16, i1 false) #15
  %21 = load i32, i32* %18, align 4
  call void @_ZN8perfetto17TraceFormatTraitsIN22memory_instrumentation5mojom8DumpTypeEvE14WriteIntoTraceENS_11TracedValueES3_(%"class.perfetto::TracedValue"* nonnull %4, i32 %21) #15
  call void @llvm.lifetime.end.p0i8(i64 16, i8* nonnull %20) #15
  call void @_ZN8perfetto16TracedDictionary7AddItemENS_12StaticStringE(%"class.perfetto::TracedValue"* nonnull sret %10, %"class.perfetto::TracedDictionary"* nonnull %7, i8* getelementptr inbounds ([16 x i8], [16 x i8]* @.str.3, i64 0, i64 0)) #15
  %22 = getelementptr inbounds %"class.memory_instrumentation::mojom::blink::RequestArgs", %"class.memory_instrumentation::mojom::blink::RequestArgs"* %0, i64 0, i32 2
  %23 = bitcast %"class.perfetto::TracedValue"* %10 to i8*
  %24 = bitcast %"class.perfetto::TracedValue"* %3 to i8*
  call void @llvm.lifetime.start.p0i8(i64 16, i8* nonnull %24) #15
  call void @llvm.memcpy.p0i8.p0i8.i64(i8* nonnull align 8 %24, i8* nonnull align 8 %23, i64 16, i1 false) #15
  %25 = load i32, i32* %22, align 4
  call void @_ZN8perfetto17TraceFormatTraitsIN22memory_instrumentation5mojom13LevelOfDetailEvE14WriteIntoTraceENS_11TracedValueES3_(%"class.perfetto::TracedValue"* nonnull %3, i32 %25) #15
  call void @llvm.lifetime.end.p0i8(i64 16, i8* nonnull %24) #15
  call void @_ZN8perfetto16TracedDictionary7AddItemENS_12StaticStringE(%"class.perfetto::TracedValue"* nonnull sret %11, %"class.perfetto::TracedDictionary"* nonnull %7, i8* getelementptr inbounds ([12 x i8], [12 x i8]* @.str.4, i64 0, i64 0)) #15
  %26 = getelementptr inbounds %"class.memory_instrumentation::mojom::blink::RequestArgs", %"class.memory_instrumentation::mojom::blink::RequestArgs"* %0, i64 0, i32 3
  %27 = bitcast %"class.perfetto::TracedValue"* %11 to i8*
  %28 = bitcast %"class.perfetto::TracedValue"* %6 to i8*
  call void @llvm.lifetime.start.p0i8(i64 16, i8* nonnull %28) #15
  call void @llvm.memcpy.p0i8.p0i8.i64(i8* nonnull align 8 %28, i8* nonnull align 8 %27, i64 16, i1 false) #15
  %29 = load i32, i32* %26, align 4
  call void @_ZN8perfetto17TraceFormatTraitsIN22memory_instrumentation5mojom11DeterminismEvE14WriteIntoTraceENS_11TracedValueES3_(%"class.perfetto::TracedValue"* nonnull %6, i32 %29) #15
  call void @llvm.lifetime.end.p0i8(i64 16, i8* nonnull %28) #15
  call void @llvm.lifetime.end.p0i8(i64 16, i8* nonnull %12) #15
  ret void
}

; Function Attrs: argmemonly nounwind
declare void @llvm.lifetime.start.p0i8(i64 immarg, i8* nocapture) #4

declare void @_ZNO8perfetto11TracedValue15WriteDictionaryEv(%"class.perfetto::TracedDictionary"* sret, %"class.perfetto::TracedValue"*) local_unnamed_addr #5

declare void @_ZN8perfetto16TracedDictionary7AddItemENS_12StaticStringE(%"class.perfetto::TracedValue"* sret, %"class.perfetto::TracedDictionary"*, i8*) local_unnamed_addr #5

; Function Attrs: argmemonly nounwind
declare void @llvm.lifetime.end.p0i8(i64 immarg, i8* nocapture) #4

; Function Attrs: nounwind ssp uwtable
define hidden zeroext i1 @_ZN22memory_instrumentation5mojom5blink11RequestArgs8ValidateEPKvPN4mojo8internal17ValidationContextE(i8*, %"class.mojo::internal::ValidationContext"*) local_unnamed_addr #3 align 2 {
  %3 = tail call zeroext i1 @_ZN22memory_instrumentation5mojom8internal16RequestArgs_Data8ValidateEPKvPN4mojo8internal17ValidationContextE(i8* %0, %"class.mojo::internal::ValidationContext"* %1) #15
  ret i1 %3
}

declare zeroext i1 @_ZN22memory_instrumentation5mojom8internal16RequestArgs_Data8ValidateEPKvPN4mojo8internal17ValidationContextE(i8*, %"class.mojo::internal::ValidationContext"*) local_unnamed_addr #5

; Function Attrs: nofree norecurse nounwind ssp uwtable writeonly
define hidden void @_ZN22memory_instrumentation5mojom5blink20RawAllocatorDumpEdgeC2Ev(%"class.memory_instrumentation::mojom::blink::RawAllocatorDumpEdge"* nocapture) unnamed_addr #0 align 2 {
  %2 = bitcast %"class.memory_instrumentation::mojom::blink::RawAllocatorDumpEdge"* %0 to i8*
  call void @llvm.memset.p0i8.i64(i8* align 8 %2, i8 0, i64 21, i1 false)
  ret void
}

; Function Attrs: nofree norecurse nounwind ssp uwtable writeonly
define hidden void @_ZN22memory_instrumentation5mojom5blink20RawAllocatorDumpEdgeC2Emmib(%"class.memory_instrumentation::mojom::blink::RawAllocatorDumpEdge"* nocapture, i64, i64, i32, i1 zeroext) unnamed_addr #0 align 2 {
  %6 = zext i1 %4 to i8
  %7 = getelementptr inbounds %"class.memory_instrumentation::mojom::blink::RawAllocatorDumpEdge", %"class.memory_instrumentation::mojom::blink::RawAllocatorDumpEdge"* %0, i64 0, i32 0
  store i64 %1, i64* %7, align 8
  %8 = getelementptr inbounds %"class.memory_instrumentation::mojom::blink::RawAllocatorDumpEdge", %"class.memory_instrumentation::mojom::blink::RawAllocatorDumpEdge"* %0, i64 0, i32 1
  store i64 %2, i64* %8, align 8
  %9 = getelementptr inbounds %"class.memory_instrumentation::mojom::blink::RawAllocatorDumpEdge", %"class.memory_instrumentation::mojom::blink::RawAllocatorDumpEdge"* %0, i64 0, i32 2
  store i32 %3, i32* %9, align 8
  %10 = getelementptr inbounds %"class.memory_instrumentation::mojom::blink::RawAllocatorDumpEdge", %"class.memory_instrumentation::mojom::blink::RawAllocatorDumpEdge"* %0, i64 0, i32 3
  store i8 %6, i8* %10, align 4
  ret void
}

; Function Attrs: norecurse nounwind readnone ssp uwtable
define hidden void @_ZN22memory_instrumentation5mojom5blink20RawAllocatorDumpEdgeD2Ev(%"class.memory_instrumentation::mojom::blink::RawAllocatorDumpEdge"* nocapture) unnamed_addr #1 align 2 {
  ret void
}

; Function Attrs: norecurse nounwind readonly ssp uwtable
define hidden i64 @_ZNK22memory_instrumentation5mojom5blink20RawAllocatorDumpEdge4HashEm(%"class.memory_instrumentation::mojom::blink::RawAllocatorDumpEdge"* nocapture readonly, i64) local_unnamed_addr #2 align 2 {
  %3 = getelementptr inbounds %"class.memory_instrumentation::mojom::blink::RawAllocatorDumpEdge", %"class.memory_instrumentation::mojom::blink::RawAllocatorDumpEdge"* %0, i64 0, i32 0
  %4 = load i64, i64* %3, align 8
  %5 = shl i64 %1, 6
  %6 = lshr i64 %1, 2
  %7 = add i64 %6, %5
  %8 = add i64 %7, %4
  %9 = xor i64 %8, %1
  %10 = getelementptr inbounds %"class.memory_instrumentation::mojom::blink::RawAllocatorDumpEdge", %"class.memory_instrumentation::mojom::blink::RawAllocatorDumpEdge"* %0, i64 0, i32 1
  %11 = load i64, i64* %10, align 8
  %12 = shl i64 %9, 6
  %13 = lshr i64 %9, 2
  %14 = add i64 %12, %11
  %15 = add i64 %14, %13
  %16 = xor i64 %15, %9
  %17 = getelementptr inbounds %"class.memory_instrumentation::mojom::blink::RawAllocatorDumpEdge", %"class.memory_instrumentation::mojom::blink::RawAllocatorDumpEdge"* %0, i64 0, i32 2
  %18 = load i32, i32* %17, align 4
  %19 = sext i32 %18 to i64
  %20 = shl i64 %16, 6
  %21 = lshr i64 %16, 2
  %22 = add i64 %20, %19
  %23 = add i64 %22, %21
  %24 = xor i64 %23, %16
  %25 = getelementptr inbounds %"class.memory_instrumentation::mojom::blink::RawAllocatorDumpEdge", %"class.memory_instrumentation::mojom::blink::RawAllocatorDumpEdge"* %0, i64 0, i32 3
  %26 = load i8, i8* %25, align 1, !range !2
  %27 = zext i8 %26 to i64
  %28 = shl i64 %24, 6
  %29 = or i64 %28, %27
  %30 = lshr i64 %24, 2
  %31 = add i64 %29, %30
  %32 = xor i64 %31, %24
  ret i64 %32
}

; Function Attrs: nounwind ssp uwtable
define hidden void @_ZNK22memory_instrumentation5mojom5blink20RawAllocatorDumpEdge14WriteIntoTraceEN8perfetto11TracedValueE(%"class.memory_instrumentation::mojom::blink::RawAllocatorDumpEdge"* nocapture readonly, %"class.perfetto::TracedValue"*) local_unnamed_addr #3 align 2 {
  %3 = alloca %"class.perfetto::TracedValue", align 8
  %4 = alloca %"class.perfetto::TracedValue", align 8
  %5 = alloca %"class.perfetto::TracedValue", align 8
  %6 = alloca %"class.perfetto::TracedValue", align 8
  %7 = alloca %"class.perfetto::TracedDictionary", align 8
  %8 = alloca %"class.perfetto::TracedValue", align 8
  %9 = alloca %"class.perfetto::TracedValue", align 8
  %10 = alloca %"class.perfetto::TracedValue", align 8
  %11 = alloca %"class.perfetto::TracedValue", align 8
  %12 = bitcast %"class.perfetto::TracedDictionary"* %7 to i8*
  call void @llvm.lifetime.start.p0i8(i64 16, i8* nonnull %12) #15
  %13 = bitcast %"class.perfetto::TracedDictionary"* %7 to i8*
  call void @llvm.memset.p0i8.i64(i8* nonnull align 8 %13, i8 -86, i64 16, i1 false)
  call void @_ZNO8perfetto11TracedValue15WriteDictionaryEv(%"class.perfetto::TracedDictionary"* nonnull sret %7, %"class.perfetto::TracedValue"* %1) #15
  call void @_ZN8perfetto16TracedDictionary7AddItemENS_12StaticStringE(%"class.perfetto::TracedValue"* nonnull sret %8, %"class.perfetto::TracedDictionary"* nonnull %7, i8* getelementptr inbounds ([10 x i8], [10 x i8]* @.str.5, i64 0, i64 0)) #15
  %14 = getelementptr inbounds %"class.memory_instrumentation::mojom::blink::RawAllocatorDumpEdge", %"class.memory_instrumentation::mojom::blink::RawAllocatorDumpEdge"* %0, i64 0, i32 0
  %15 = bitcast %"class.perfetto::TracedValue"* %8 to i8*
  %16 = bitcast %"class.perfetto::TracedValue"* %5 to i8*
  call void @llvm.lifetime.start.p0i8(i64 16, i8* nonnull %16) #15
  call void @llvm.memcpy.p0i8.p0i8.i64(i8* nonnull align 8 %16, i8* nonnull align 8 %15, i64 16, i1 false) #15
  %17 = load i64, i64* %14, align 8
  call void @_ZNO8perfetto11TracedValue11WriteUInt64Em(%"class.perfetto::TracedValue"* nonnull %5, i64 %17) #15
  call void @llvm.lifetime.end.p0i8(i64 16, i8* nonnull %16) #15
  call void @_ZN8perfetto16TracedDictionary7AddItemENS_12StaticStringE(%"class.perfetto::TracedValue"* nonnull sret %9, %"class.perfetto::TracedDictionary"* nonnull %7, i8* getelementptr inbounds ([10 x i8], [10 x i8]* @.str.6, i64 0, i64 0)) #15
  %18 = getelementptr inbounds %"class.memory_instrumentation::mojom::blink::RawAllocatorDumpEdge", %"class.memory_instrumentation::mojom::blink::RawAllocatorDumpEdge"* %0, i64 0, i32 1
  %19 = bitcast %"class.perfetto::TracedValue"* %9 to i8*
  %20 = bitcast %"class.perfetto::TracedValue"* %4 to i8*
  call void @llvm.lifetime.start.p0i8(i64 16, i8* nonnull %20) #15
  call void @llvm.memcpy.p0i8.p0i8.i64(i8* nonnull align 8 %20, i8* nonnull align 8 %19, i64 16, i1 false) #15
  %21 = load i64, i64* %18, align 8
  call void @_ZNO8perfetto11TracedValue11WriteUInt64Em(%"class.perfetto::TracedValue"* nonnull %4, i64 %21) #15
  call void @llvm.lifetime.end.p0i8(i64 16, i8* nonnull %20) #15
  call void @_ZN8perfetto16TracedDictionary7AddItemENS_12StaticStringE(%"class.perfetto::TracedValue"* nonnull sret %10, %"class.perfetto::TracedDictionary"* nonnull %7, i8* getelementptr inbounds ([11 x i8], [11 x i8]* @.str.7, i64 0, i64 0)) #15
  %22 = getelementptr inbounds %"class.memory_instrumentation::mojom::blink::RawAllocatorDumpEdge", %"class.memory_instrumentation::mojom::blink::RawAllocatorDumpEdge"* %0, i64 0, i32 2
  %23 = bitcast %"class.perfetto::TracedValue"* %10 to i8*
  %24 = bitcast %"class.perfetto::TracedValue"* %3 to i8*
  call void @llvm.lifetime.start.p0i8(i64 16, i8* nonnull %24) #15
  call void @llvm.memcpy.p0i8.p0i8.i64(i8* nonnull align 8 %24, i8* nonnull align 8 %23, i64 16, i1 false) #15
  %25 = load i32, i32* %22, align 4
  %26 = sext i32 %25 to i64
  call void @_ZNO8perfetto11TracedValue10WriteInt64El(%"class.perfetto::TracedValue"* nonnull %3, i64 %26) #15
  call void @llvm.lifetime.end.p0i8(i64 16, i8* nonnull %24) #15
  call void @_ZN8perfetto16TracedDictionary7AddItemENS_12StaticStringE(%"class.perfetto::TracedValue"* nonnull sret %11, %"class.perfetto::TracedDictionary"* nonnull %7, i8* getelementptr inbounds ([12 x i8], [12 x i8]* @.str.8, i64 0, i64 0)) #15
  %27 = getelementptr inbounds %"class.memory_instrumentation::mojom::blink::RawAllocatorDumpEdge", %"class.memory_instrumentation::mojom::blink::RawAllocatorDumpEdge"* %0, i64 0, i32 3
  %28 = bitcast %"class.perfetto::TracedValue"* %11 to i8*
  %29 = bitcast %"class.perfetto::TracedValue"* %6 to i8*
  call void @llvm.lifetime.start.p0i8(i64 16, i8* nonnull %29) #15
  call void @llvm.memcpy.p0i8.p0i8.i64(i8* nonnull align 8 %29, i8* nonnull align 8 %28, i64 16, i1 false) #15
  %30 = load i8, i8* %27, align 1, !range !2
  %31 = icmp ne i8 %30, 0
  call void @_ZNO8perfetto11TracedValue12WriteBooleanEb(%"class.perfetto::TracedValue"* nonnull %6, i1 zeroext %31) #15
  call void @llvm.lifetime.end.p0i8(i64 16, i8* nonnull %29) #15
  call void @llvm.lifetime.end.p0i8(i64 16, i8* nonnull %12) #15
  ret void
}

; Function Attrs: nounwind ssp uwtable
define hidden zeroext i1 @_ZN22memory_instrumentation5mojom5blink20RawAllocatorDumpEdge8ValidateEPKvPN4mojo8internal17ValidationContextE(i8*, %"class.mojo::internal::ValidationContext"*) local_unnamed_addr #3 align 2 {
  %3 = tail call zeroext i1 @_ZN22memory_instrumentation5mojom8internal25RawAllocatorDumpEdge_Data8ValidateEPKvPN4mojo8internal17ValidationContextE(i8* %0, %"class.mojo::internal::ValidationContext"* %1) #15
  ret i1 %3
}

declare zeroext i1 @_ZN22memory_instrumentation5mojom8internal25RawAllocatorDumpEdge_Data8ValidateEPKvPN4mojo8internal17ValidationContextE(i8*, %"class.mojo::internal::ValidationContext"*) local_unnamed_addr #5

; Function Attrs: nofree norecurse nounwind ssp uwtable writeonly
define hidden void @_ZN22memory_instrumentation5mojom5blink21RawAllocatorDumpEntryC2Ev(%"class.memory_instrumentation::mojom::blink::RawAllocatorDumpEntry"* nocapture) unnamed_addr #0 align 2 {
  %2 = bitcast %"class.memory_instrumentation::mojom::blink::RawAllocatorDumpEntry"* %0 to i8*
  call void @llvm.memset.p0i8.i64(i8* align 8 %2, i8 0, i64 24, i1 false)
  ret void
}

; Function Attrs: argmemonly nounwind
declare void @llvm.memset.p0i8.i64(i8* nocapture writeonly, i8, i64, i1 immarg) #4

; Function Attrs: nounwind ssp uwtable
define hidden void @_ZN22memory_instrumentation5mojom5blink21RawAllocatorDumpEntryC2ERKN3WTF6StringES6_N4mojo9StructPtrINS1_26RawAllocatorDumpEntryValueEEE(%"class.memory_instrumentation::mojom::blink::RawAllocatorDumpEntry"* nocapture, %"class.WTF::String"* nocapture readonly dereferenceable(8), %"class.WTF::String"* nocapture readonly dereferenceable(8), %"class.mojo::StructPtr"* nocapture) unnamed_addr #3 align 2 {
  %5 = getelementptr inbounds %"class.WTF::String", %"class.WTF::String"* %1, i64 0, i32 0, i32 0
  %6 = load %"class.WTF::StringImpl"*, %"class.WTF::StringImpl"** %5, align 8
  %7 = getelementptr inbounds %"class.memory_instrumentation::mojom::blink::RawAllocatorDumpEntry", %"class.memory_instrumentation::mojom::blink::RawAllocatorDumpEntry"* %0, i64 0, i32 0, i32 0, i32 0
  store %"class.WTF::StringImpl"* %6, %"class.WTF::StringImpl"** %7, align 8
  %8 = icmp eq %"class.WTF::StringImpl"* %6, null
  br i1 %8, label %26, label %9

9:                                                ; preds = %4
  %10 = getelementptr inbounds %"class.WTF::StringImpl", %"class.WTF::StringImpl"* %6, i64 0, i32 2, i32 0, i32 0, i32 0, i32 0, i32 0
  %11 = load atomic i32, i32* %10 monotonic, align 4
  %12 = and i32 %11, 2
  %13 = icmp eq i32 %12, 0
  br i1 %13, label %14, label %26

14:                                               ; preds = %9
  %15 = getelementptr inbounds %"class.WTF::StringImpl", %"class.WTF::StringImpl"* %6, i64 0, i32 0
  %16 = load i32, i32* %15, align 4
  %17 = zext i32 %16 to i33
  %18 = tail call { i33, i1 } @llvm.sadd.with.overflow.i33(i33 %17, i33 1) #15
  %19 = extractvalue { i33, i1 } %18, 1
  %20 = extractvalue { i33, i1 } %18, 0
  %21 = icmp slt i33 %20, 0
  %22 = or i1 %19, %21
  br i1 %22, label %23, label %24, !prof !3

23:                                               ; preds = %14
  tail call void @llvm.trap() #15
  unreachable

24:                                               ; preds = %14
  %25 = trunc i33 %20 to i32
  store i32 %25, i32* %15, align 4
  br label %26

26:                                               ; preds = %4, %9, %24
  %27 = getelementptr inbounds %"class.WTF::String", %"class.WTF::String"* %2, i64 0, i32 0, i32 0
  %28 = load %"class.WTF::StringImpl"*, %"class.WTF::StringImpl"** %27, align 8
  %29 = getelementptr inbounds %"class.memory_instrumentation::mojom::blink::RawAllocatorDumpEntry", %"class.memory_instrumentation::mojom::blink::RawAllocatorDumpEntry"* %0, i64 0, i32 1, i32 0, i32 0
  store %"class.WTF::StringImpl"* %28, %"class.WTF::StringImpl"** %29, align 8
  %30 = icmp eq %"class.WTF::StringImpl"* %28, null
  br i1 %30, label %48, label %31

31:                                               ; preds = %26
  %32 = getelementptr inbounds %"class.WTF::StringImpl", %"class.WTF::StringImpl"* %28, i64 0, i32 2, i32 0, i32 0, i32 0, i32 0, i32 0
  %33 = load atomic i32, i32* %32 monotonic, align 4
  %34 = and i32 %33, 2
  %35 = icmp eq i32 %34, 0
  br i1 %35, label %36, label %48

36:                                               ; preds = %31
  %37 = getelementptr inbounds %"class.WTF::StringImpl", %"class.WTF::StringImpl"* %28, i64 0, i32 0
  %38 = load i32, i32* %37, align 4
  %39 = zext i32 %38 to i33
  %40 = tail call { i33, i1 } @llvm.sadd.with.overflow.i33(i33 %39, i33 1) #15
  %41 = extractvalue { i33, i1 } %40, 1
  %42 = extractvalue { i33, i1 } %40, 0
  %43 = icmp slt i33 %42, 0
  %44 = or i1 %41, %43
  br i1 %44, label %45, label %46, !prof !3

45:                                               ; preds = %36
  tail call void @llvm.trap() #15
  unreachable

46:                                               ; preds = %36
  %47 = trunc i33 %42 to i32
  store i32 %47, i32* %37, align 4
  br label %48

48:                                               ; preds = %26, %31, %46
  %49 = getelementptr inbounds %"class.memory_instrumentation::mojom::blink::RawAllocatorDumpEntry", %"class.memory_instrumentation::mojom::blink::RawAllocatorDumpEntry"* %0, i64 0, i32 2
  %50 = bitcast %"class.mojo::StructPtr"* %49 to i64*
  %51 = getelementptr inbounds %"class.mojo::StructPtr", %"class.mojo::StructPtr"* %49, i64 0, i32 0, i32 0, i32 0, i32 0
  store %"class.memory_instrumentation::mojom::blink::RawAllocatorDumpEntryValue"* null, %"class.memory_instrumentation::mojom::blink::RawAllocatorDumpEntryValue"** %51, align 8
  %52 = bitcast %"class.mojo::StructPtr"* %3 to i64*
  %53 = load i64, i64* %52, align 8
  store i64 %53, i64* %50, align 8
  store i64 0, i64* %52, align 8
  ret void
}

; Function Attrs: nounwind ssp uwtable
define hidden void @_ZN22memory_instrumentation5mojom5blink21RawAllocatorDumpEntryD2Ev(%"class.memory_instrumentation::mojom::blink::RawAllocatorDumpEntry"* nocapture) unnamed_addr #3 align 2 {
  %2 = getelementptr inbounds %"class.memory_instrumentation::mojom::blink::RawAllocatorDumpEntry", %"class.memory_instrumentation::mojom::blink::RawAllocatorDumpEntry"* %0, i64 0, i32 2, i32 0, i32 0, i32 0, i32 0
  %3 = load %"class.memory_instrumentation::mojom::blink::RawAllocatorDumpEntryValue"*, %"class.memory_instrumentation::mojom::blink::RawAllocatorDumpEntryValue"** %2, align 8
  store %"class.memory_instrumentation::mojom::blink::RawAllocatorDumpEntryValue"* null, %"class.memory_instrumentation::mojom::blink::RawAllocatorDumpEntryValue"** %2, align 8
  %4 = icmp eq %"class.memory_instrumentation::mojom::blink::RawAllocatorDumpEntryValue"* %3, null
  br i1 %4, label %35, label %5

5:                                                ; preds = %1
  %6 = getelementptr inbounds %"class.memory_instrumentation::mojom::blink::RawAllocatorDumpEntryValue", %"class.memory_instrumentation::mojom::blink::RawAllocatorDumpEntryValue"* %3, i64 0, i32 0
  %7 = load i32, i32* %6, align 8
  %8 = icmp eq i32 %7, 1
  br i1 %8, label %9, label %33

9:                                                ; preds = %5
  %10 = getelementptr inbounds %"class.memory_instrumentation::mojom::blink::RawAllocatorDumpEntryValue", %"class.memory_instrumentation::mojom::blink::RawAllocatorDumpEntryValue"* %3, i64 0, i32 1
  %11 = bitcast %"union.memory_instrumentation::mojom::blink::RawAllocatorDumpEntryValue::Union_"* %10 to %"class.WTF::String"**
  %12 = load %"class.WTF::String"*, %"class.WTF::String"** %11, align 8
  %13 = icmp eq %"class.WTF::String"* %12, null
  br i1 %13, label %33, label %14

14:                                               ; preds = %9
  %15 = getelementptr inbounds %"class.WTF::String", %"class.WTF::String"* %12, i64 0, i32 0, i32 0
  %16 = load %"class.WTF::StringImpl"*, %"class.WTF::StringImpl"** %15, align 8
  %17 = icmp eq %"class.WTF::StringImpl"* %16, null
  br i1 %17, label %31, label %18

18:                                               ; preds = %14
  %19 = getelementptr inbounds %"class.WTF::StringImpl", %"class.WTF::StringImpl"* %16, i64 0, i32 2, i32 0, i32 0, i32 0, i32 0, i32 0
  %20 = load atomic i32, i32* %19 monotonic, align 4
  %21 = and i32 %20, 2
  %22 = icmp eq i32 %21, 0
  %23 = getelementptr inbounds %"class.WTF::StringImpl", %"class.WTF::StringImpl"* %16, i64 0, i32 0
  %24 = load i32, i32* %23, align 4
  br i1 %22, label %25, label %27

25:                                               ; preds = %18
  %26 = add i32 %24, -1
  store i32 %26, i32* %23, align 4
  br label %27

27:                                               ; preds = %25, %18
  %28 = phi i32 [ %26, %25 ], [ %24, %18 ]
  %29 = icmp eq i32 %28, 0
  br i1 %29, label %30, label %31

30:                                               ; preds = %27
  tail call void @_ZNK3WTF10StringImpl18DestroyIfNotStaticEv(%"class.WTF::StringImpl"* nonnull %16) #15
  br label %31

31:                                               ; preds = %30, %27, %14
  %32 = bitcast %"class.WTF::String"* %12 to i8*
  tail call void @free(i8* %32) #15
  br label %33

33:                                               ; preds = %31, %9, %5
  %34 = bitcast %"class.memory_instrumentation::mojom::blink::RawAllocatorDumpEntryValue"* %3 to i8*
  tail call void @_ZdlPv(i8* %34) #16
  br label %35

35:                                               ; preds = %1, %33
  %36 = getelementptr inbounds %"class.memory_instrumentation::mojom::blink::RawAllocatorDumpEntry", %"class.memory_instrumentation::mojom::blink::RawAllocatorDumpEntry"* %0, i64 0, i32 1, i32 0, i32 0
  %37 = load %"class.WTF::StringImpl"*, %"class.WTF::StringImpl"** %36, align 8
  %38 = icmp eq %"class.WTF::StringImpl"* %37, null
  br i1 %38, label %52, label %39

39:                                               ; preds = %35
  %40 = getelementptr inbounds %"class.WTF::StringImpl", %"class.WTF::StringImpl"* %37, i64 0, i32 2, i32 0, i32 0, i32 0, i32 0, i32 0
  %41 = load atomic i32, i32* %40 monotonic, align 4
  %42 = and i32 %41, 2
  %43 = icmp eq i32 %42, 0
  %44 = getelementptr inbounds %"class.WTF::StringImpl", %"class.WTF::StringImpl"* %37, i64 0, i32 0
  %45 = load i32, i32* %44, align 4
  br i1 %43, label %46, label %48

46:                                               ; preds = %39
  %47 = add i32 %45, -1
  store i32 %47, i32* %44, align 4
  br label %48

48:                                               ; preds = %46, %39
  %49 = phi i32 [ %47, %46 ], [ %45, %39 ]
  %50 = icmp eq i32 %49, 0
  br i1 %50, label %51, label %52

51:                                               ; preds = %48
  tail call void @_ZNK3WTF10StringImpl18DestroyIfNotStaticEv(%"class.WTF::StringImpl"* nonnull %37) #15
  br label %52

52:                                               ; preds = %35, %48, %51
  %53 = getelementptr inbounds %"class.memory_instrumentation::mojom::blink::RawAllocatorDumpEntry", %"class.memory_instrumentation::mojom::blink::RawAllocatorDumpEntry"* %0, i64 0, i32 0, i32 0, i32 0
  %54 = load %"class.WTF::StringImpl"*, %"class.WTF::StringImpl"** %53, align 8
  %55 = icmp eq %"class.WTF::StringImpl"* %54, null
  br i1 %55, label %69, label %56

56:                                               ; preds = %52
  %57 = getelementptr inbounds %"class.WTF::StringImpl", %"class.WTF::StringImpl"* %54, i64 0, i32 2, i32 0, i32 0, i32 0, i32 0, i32 0
  %58 = load atomic i32, i32* %57 monotonic, align 4
  %59 = and i32 %58, 2
  %60 = icmp eq i32 %59, 0
  %61 = getelementptr inbounds %"class.WTF::StringImpl", %"class.WTF::StringImpl"* %54, i64 0, i32 0
  %62 = load i32, i32* %61, align 4
  br i1 %60, label %63, label %65

63:                                               ; preds = %56
  %64 = add i32 %62, -1
  store i32 %64, i32* %61, align 4
  br label %65

65:                                               ; preds = %63, %56
  %66 = phi i32 [ %64, %63 ], [ %62, %56 ]
  %67 = icmp eq i32 %66, 0
  br i1 %67, label %68, label %69

68:                                               ; preds = %65
  tail call void @_ZNK3WTF10StringImpl18DestroyIfNotStaticEv(%"class.WTF::StringImpl"* nonnull %54) #15
  br label %69

69:                                               ; preds = %52, %65, %68
  ret void
}

; Function Attrs: nounwind ssp uwtable
define hidden i64 @_ZNK22memory_instrumentation5mojom5blink21RawAllocatorDumpEntry4HashEm(%"class.memory_instrumentation::mojom::blink::RawAllocatorDumpEntry"* nocapture readonly, i64) local_unnamed_addr #3 align 2 {
  %3 = getelementptr inbounds %"class.memory_instrumentation::mojom::blink::RawAllocatorDumpEntry", %"class.memory_instrumentation::mojom::blink::RawAllocatorDumpEntry"* %0, i64 0, i32 0, i32 0, i32 0
  %4 = load %"class.WTF::StringImpl"*, %"class.WTF::StringImpl"** %3, align 8
  %5 = getelementptr inbounds %"class.WTF::StringImpl", %"class.WTF::StringImpl"* %4, i64 0, i32 2, i32 0, i32 0, i32 0, i32 0, i32 0
  %6 = load atomic i32, i32* %5 monotonic, align 4
  %7 = lshr i32 %6, 8
  %8 = icmp eq i32 %7, 0
  br i1 %8, label %9, label %11

9:                                                ; preds = %2
  %10 = tail call i32 @_ZNK3WTF10StringImpl12HashSlowCaseEv(%"class.WTF::StringImpl"* %4) #15
  br label %11

11:                                               ; preds = %2, %9
  %12 = phi i32 [ %10, %9 ], [ %7, %2 ]
  %13 = zext i32 %12 to i64
  %14 = shl i64 %1, 6
  %15 = lshr i64 %1, 2
  %16 = add i64 %15, %14
  %17 = add i64 %16, %13
  %18 = xor i64 %17, %1
  %19 = getelementptr inbounds %"class.memory_instrumentation::mojom::blink::RawAllocatorDumpEntry", %"class.memory_instrumentation::mojom::blink::RawAllocatorDumpEntry"* %0, i64 0, i32 1, i32 0, i32 0
  %20 = load %"class.WTF::StringImpl"*, %"class.WTF::StringImpl"** %19, align 8
  %21 = getelementptr inbounds %"class.WTF::StringImpl", %"class.WTF::StringImpl"* %20, i64 0, i32 2, i32 0, i32 0, i32 0, i32 0, i32 0
  %22 = load atomic i32, i32* %21 monotonic, align 4
  %23 = lshr i32 %22, 8
  %24 = icmp eq i32 %23, 0
  br i1 %24, label %25, label %27

25:                                               ; preds = %11
  %26 = tail call i32 @_ZNK3WTF10StringImpl12HashSlowCaseEv(%"class.WTF::StringImpl"* %20) #15
  br label %27

27:                                               ; preds = %11, %25
  %28 = phi i32 [ %26, %25 ], [ %23, %11 ]
  %29 = zext i32 %28 to i64
  %30 = shl i64 %18, 6
  %31 = lshr i64 %18, 2
  %32 = add i64 %31, %30
  %33 = add i64 %32, %29
  %34 = xor i64 %33, %18
  %35 = getelementptr inbounds %"class.memory_instrumentation::mojom::blink::RawAllocatorDumpEntry", %"class.memory_instrumentation::mojom::blink::RawAllocatorDumpEntry"* %0, i64 0, i32 2, i32 0, i32 0, i32 0, i32 0
  %36 = load %"class.memory_instrumentation::mojom::blink::RawAllocatorDumpEntryValue"*, %"class.memory_instrumentation::mojom::blink::RawAllocatorDumpEntryValue"** %35, align 8
  %37 = icmp eq %"class.memory_instrumentation::mojom::blink::RawAllocatorDumpEntryValue"* %36, null
  br i1 %37, label %38, label %43

38:                                               ; preds = %27
  %39 = shl i64 %34, 6
  %40 = lshr i64 %34, 2
  %41 = add i64 %40, %39
  %42 = xor i64 %41, %34
  br label %81

43:                                               ; preds = %27
  %44 = getelementptr inbounds %"class.memory_instrumentation::mojom::blink::RawAllocatorDumpEntryValue", %"class.memory_instrumentation::mojom::blink::RawAllocatorDumpEntryValue"* %36, i64 0, i32 0
  %45 = load i32, i32* %44, align 8
  %46 = zext i32 %45 to i64
  %47 = shl i64 %34, 6
  %48 = lshr i64 %34, 2
  %49 = add i64 %48, %47
  %50 = add i64 %49, %46
  %51 = xor i64 %50, %34
  switch i32 %45, label %81 [
    i32 0, label %52
    i32 1, label %60
  ]

52:                                               ; preds = %43
  %53 = getelementptr inbounds %"class.memory_instrumentation::mojom::blink::RawAllocatorDumpEntryValue", %"class.memory_instrumentation::mojom::blink::RawAllocatorDumpEntryValue"* %36, i64 0, i32 1, i32 0
  %54 = load i64, i64* %53, align 8
  %55 = shl i64 %51, 6
  %56 = lshr i64 %51, 2
  %57 = add i64 %56, %55
  %58 = add i64 %57, %54
  %59 = xor i64 %58, %51
  br label %81

60:                                               ; preds = %43
  %61 = getelementptr inbounds %"class.memory_instrumentation::mojom::blink::RawAllocatorDumpEntryValue", %"class.memory_instrumentation::mojom::blink::RawAllocatorDumpEntryValue"* %36, i64 0, i32 1, i32 0
  %62 = load i64, i64* %61, align 8
  %63 = lshr i64 %62, 32
  %64 = shl i64 %62, 3
  %65 = and i64 %64, 4294967288
  %66 = add nuw nsw i64 %65, 8
  %67 = xor i64 %66, %63
  %68 = mul i64 %67, -7070675565921424023
  %69 = lshr i64 %68, 47
  %70 = xor i64 %68, %63
  %71 = xor i64 %70, %69
  %72 = mul i64 %71, -7070675565921424023
  %73 = lshr i64 %72, 47
  %74 = xor i64 %73, %72
  %75 = mul i64 %74, -7070675565921424023
  %76 = shl i64 %51, 6
  %77 = lshr i64 %51, 2
  %78 = add i64 %77, %76
  %79 = add i64 %78, %75
  %80 = xor i64 %79, %51
  br label %81

81:                                               ; preds = %38, %43, %52, %60
  %82 = phi i64 [ %42, %38 ], [ %80, %60 ], [ %59, %52 ], [ %51, %43 ]
  ret i64 %82
}

; Function Attrs: nounwind ssp uwtable
define hidden void @_ZNK22memory_instrumentation5mojom5blink21RawAllocatorDumpEntry14WriteIntoTraceEN8perfetto11TracedValueE(%"class.memory_instrumentation::mojom::blink::RawAllocatorDumpEntry"*, %"class.perfetto::TracedValue"*) local_unnamed_addr #3 align 2 {
  %3 = alloca %"class.perfetto::TracedValue", align 8
  %4 = alloca %"class.perfetto::TracedValue", align 8
  %5 = alloca %"class.perfetto::TracedDictionary", align 8
  %6 = alloca %"class.perfetto::TracedValue", align 8
  %7 = alloca %"class.perfetto::TracedValue", align 8
  %8 = alloca %"class.perfetto::TracedValue", align 8
  %9 = alloca %"class.std::__1::basic_string", align 8
  %10 = bitcast %"class.perfetto::TracedDictionary"* %5 to i8*
  call void @llvm.lifetime.start.p0i8(i64 16, i8* nonnull %10) #15
  %11 = bitcast %"class.perfetto::TracedDictionary"* %5 to i8*
  call void @llvm.memset.p0i8.i64(i8* nonnull align 8 %11, i8 -86, i64 16, i1 false)
  call void @_ZNO8perfetto11TracedValue15WriteDictionaryEv(%"class.perfetto::TracedDictionary"* nonnull sret %5, %"class.perfetto::TracedValue"* %1) #15
  call void @_ZN8perfetto16TracedDictionary7AddItemENS_12StaticStringE(%"class.perfetto::TracedValue"* nonnull sret %6, %"class.perfetto::TracedDictionary"* nonnull %5, i8* getelementptr inbounds ([5 x i8], [5 x i8]* @.str.9, i64 0, i64 0)) #15
  %12 = getelementptr inbounds %"class.memory_instrumentation::mojom::blink::RawAllocatorDumpEntry", %"class.memory_instrumentation::mojom::blink::RawAllocatorDumpEntry"* %0, i64 0, i32 0
  %13 = bitcast %"class.perfetto::TracedValue"* %6 to i8*
  %14 = bitcast %"class.perfetto::TracedValue"* %4 to i8*
  call void @llvm.lifetime.start.p0i8(i64 16, i8* nonnull %14) #15
  call void @llvm.memcpy.p0i8.p0i8.i64(i8* nonnull align 8 %14, i8* nonnull align 8 %13, i64 16, i1 false) #15
  call void @_ZNK3WTF6String14WriteIntoTraceEN8perfetto11TracedValueE(%"class.WTF::String"* %12, %"class.perfetto::TracedValue"* nonnull %4) #15
  call void @llvm.lifetime.end.p0i8(i64 16, i8* nonnull %14) #15
  call void @_ZN8perfetto16TracedDictionary7AddItemENS_12StaticStringE(%"class.perfetto::TracedValue"* nonnull sret %7, %"class.perfetto::TracedDictionary"* nonnull %5, i8* getelementptr inbounds ([6 x i8], [6 x i8]* @.str.10, i64 0, i64 0)) #15
  %15 = getelementptr inbounds %"class.memory_instrumentation::mojom::blink::RawAllocatorDumpEntry", %"class.memory_instrumentation::mojom::blink::RawAllocatorDumpEntry"* %0, i64 0, i32 1
  %16 = bitcast %"class.perfetto::TracedValue"* %7 to i8*
  %17 = bitcast %"class.perfetto::TracedValue"* %3 to i8*
  call void @llvm.lifetime.start.p0i8(i64 16, i8* nonnull %17) #15
  call void @llvm.memcpy.p0i8.p0i8.i64(i8* nonnull align 8 %17, i8* nonnull align 8 %16, i64 16, i1 false) #15
  call void @_ZNK3WTF6String14WriteIntoTraceEN8perfetto11TracedValueE(%"class.WTF::String"* %15, %"class.perfetto::TracedValue"* nonnull %3) #15
  call void @llvm.lifetime.end.p0i8(i64 16, i8* nonnull %17) #15
  call void @_ZN8perfetto16TracedDictionary7AddItemENS_12StaticStringE(%"class.perfetto::TracedValue"* nonnull sret %8, %"class.perfetto::TracedDictionary"* nonnull %5, i8* getelementptr inbounds ([6 x i8], [6 x i8]* @.str.11, i64 0, i64 0)) #15
  %18 = bitcast %"class.std::__1::basic_string"* %9 to i8*
  call void @llvm.lifetime.start.p0i8(i64 24, i8* nonnull %18) #15
  %19 = bitcast %"class.std::__1::basic_string"* %9 to %"struct.std::__1::basic_string<char, std::__1::char_traits<char>, std::__1::allocator<char> >::__short"*
  %20 = getelementptr inbounds %"struct.std::__1::basic_string<char, std::__1::char_traits<char>, std::__1::allocator<char> >::__short", %"struct.std::__1::basic_string<char, std::__1::char_traits<char>, std::__1::allocator<char> >::__short"* %19, i64 0, i32 1, i32 0
  store i8 7, i8* %20, align 1
  call void @llvm.memcpy.p0i8.p0i8.i64(i8* nonnull align 8 %18, i8* align 1 getelementptr inbounds ([8 x i8], [8 x i8]* @.str.1, i64 0, i64 0), i64 7, i1 false) #15
  %21 = getelementptr inbounds i8, i8* %18, i64 7
  store i8 0, i8* %21, align 1
  call void @_ZNO8perfetto11TracedValue11WriteStringERKNSt3__112basic_stringIcNS1_11char_traitsIcEENS1_9allocatorIcEEEE(%"class.perfetto::TracedValue"* nonnull %8, %"class.std::__1::basic_string"* nonnull dereferenceable(24) %9) #15
  %22 = load i8, i8* %20, align 1
  %23 = icmp slt i8 %22, 0
  br i1 %23, label %24, label %27

24:                                               ; preds = %2
  %25 = getelementptr inbounds %"class.std::__1::basic_string", %"class.std::__1::basic_string"* %9, i64 0, i32 0, i32 0, i32 0, i32 0, i32 0, i32 0
  %26 = load i8*, i8** %25, align 8
  call void @_ZdlPv(i8* %26) #16
  br label %27

27:                                               ; preds = %2, %24
  call void @llvm.lifetime.end.p0i8(i64 24, i8* nonnull %18) #15
  call void @llvm.lifetime.end.p0i8(i64 16, i8* nonnull %10) #15
  ret void
}

; Function Attrs: nounwind ssp uwtable
define hidden zeroext i1 @_ZN22memory_instrumentation5mojom5blink21RawAllocatorDumpEntry8ValidateEPKvPN4mojo8internal17ValidationContextE(i8*, %"class.mojo::internal::ValidationContext"*) local_unnamed_addr #3 align 2 {
  %3 = tail call zeroext i1 @_ZN22memory_instrumentation5mojom8internal26RawAllocatorDumpEntry_Data8ValidateEPKvPN4mojo8internal17ValidationContextE(i8* %0, %"class.mojo::internal::ValidationContext"* %1) #15
  ret i1 %3
}

declare zeroext i1 @_ZN22memory_instrumentation5mojom8internal26RawAllocatorDumpEntry_Data8ValidateEPKvPN4mojo8internal17ValidationContextE(i8*, %"class.mojo::internal::ValidationContext"*) local_unnamed_addr #5

; Function Attrs: nounwind ssp uwtable
define hidden void @_ZN22memory_instrumentation5mojom5blink16RawAllocatorDumpC2Ev(%"class.memory_instrumentation::mojom::blink::RawAllocatorDump"* nocapture) unnamed_addr #3 align 2 {
  %2 = getelementptr inbounds %"class.memory_instrumentation::mojom::blink::RawAllocatorDump", %"class.memory_instrumentation::mojom::blink::RawAllocatorDump"* %0, i64 0, i32 3
  %3 = bitcast %"class.memory_instrumentation::mojom::blink::RawAllocatorDump"* %0 to i8*
  call void @llvm.memset.p0i8.i64(i8* align 8 %3, i8 0, i64 17, i1 false)
  %4 = bitcast i32* %2 to i8*
  call void @llvm.memset.p0i8.i64(i8* align 4 %4, i8 0, i64 20, i1 false)
  ret void
}

; Function Attrs: nounwind ssp uwtable
define hidden void @_ZN22memory_instrumentation5mojom5blink16RawAllocatorDumpC2EmRKN3WTF6StringEbNS0_13LevelOfDetailENS3_6VectorIN4mojo9StructPtrINS1_21RawAllocatorDumpEntryEEELj0ENS3_18PartitionAllocatorEEE(%"class.memory_instrumentation::mojom::blink::RawAllocatorDump"* nocapture, i64, %"class.WTF::String"* nocapture readonly dereferenceable(8), i1 zeroext, i32, %"class.WTF::Vector"* nocapture) unnamed_addr #3 align 2 {
  %7 = zext i1 %3 to i8
  %8 = getelementptr inbounds %"class.memory_instrumentation::mojom::blink::RawAllocatorDump", %"class.memory_instrumentation::mojom::blink::RawAllocatorDump"* %0, i64 0, i32 0
  store i64 %1, i64* %8, align 8
  %9 = getelementptr inbounds %"class.WTF::String", %"class.WTF::String"* %2, i64 0, i32 0, i32 0
  %10 = load %"class.WTF::StringImpl"*, %"class.WTF::StringImpl"** %9, align 8
  %11 = getelementptr inbounds %"class.memory_instrumentation::mojom::blink::RawAllocatorDump", %"class.memory_instrumentation::mojom::blink::RawAllocatorDump"* %0, i64 0, i32 1, i32 0, i32 0
  store %"class.WTF::StringImpl"* %10, %"class.WTF::StringImpl"** %11, align 8
  %12 = icmp eq %"class.WTF::StringImpl"* %10, null
  br i1 %12, label %30, label %13

13:                                               ; preds = %6
  %14 = getelementptr inbounds %"class.WTF::StringImpl", %"class.WTF::StringImpl"* %10, i64 0, i32 2, i32 0, i32 0, i32 0, i32 0, i32 0
  %15 = load atomic i32, i32* %14 monotonic, align 4
  %16 = and i32 %15, 2
  %17 = icmp eq i32 %16, 0
  br i1 %17, label %18, label %30

18:                                               ; preds = %13
  %19 = getelementptr inbounds %"class.WTF::StringImpl", %"class.WTF::StringImpl"* %10, i64 0, i32 0
  %20 = load i32, i32* %19, align 4
  %21 = zext i32 %20 to i33
  %22 = tail call { i33, i1 } @llvm.sadd.with.overflow.i33(i33 %21, i33 1) #15
  %23 = extractvalue { i33, i1 } %22, 1
  %24 = extractvalue { i33, i1 } %22, 0
  %25 = icmp slt i33 %24, 0
  %26 = or i1 %23, %25
  br i1 %26, label %27, label %28, !prof !3

27:                                               ; preds = %18
  tail call void @llvm.trap() #15
  unreachable

28:                                               ; preds = %18
  %29 = trunc i33 %24 to i32
  store i32 %29, i32* %19, align 4
  br label %30

30:                                               ; preds = %6, %13, %28
  %31 = getelementptr inbounds %"class.memory_instrumentation::mojom::blink::RawAllocatorDump", %"class.memory_instrumentation::mojom::blink::RawAllocatorDump"* %0, i64 0, i32 2
  store i8 %7, i8* %31, align 8
  %32 = getelementptr inbounds %"class.memory_instrumentation::mojom::blink::RawAllocatorDump", %"class.memory_instrumentation::mojom::blink::RawAllocatorDump"* %0, i64 0, i32 3
  store i32 %4, i32* %32, align 4
  %33 = getelementptr inbounds %"class.memory_instrumentation::mojom::blink::RawAllocatorDump", %"class.memory_instrumentation::mojom::blink::RawAllocatorDump"* %0, i64 0, i32 4
  %34 = getelementptr inbounds %"class.memory_instrumentation::mojom::blink::RawAllocatorDump", %"class.memory_instrumentation::mojom::blink::RawAllocatorDump"* %0, i64 0, i32 4, i32 0, i32 0, i32 1
  %35 = getelementptr inbounds %"class.memory_instrumentation::mojom::blink::RawAllocatorDump", %"class.memory_instrumentation::mojom::blink::RawAllocatorDump"* %0, i64 0, i32 4, i32 0, i32 0, i32 2
  %36 = bitcast %"class.WTF::Vector"* %5 to i64*
  %37 = bitcast %"class.WTF::Vector"* %33 to i8*
  tail call void @llvm.memset.p0i8.i64(i8* align 8 %37, i8 0, i64 16, i1 false) #15
  %38 = load i64, i64* %36, align 8
  %39 = bitcast %"class.WTF::Vector"* %33 to i64*
  store atomic i64 0, i64* %36 monotonic, align 8
  store atomic i64 %38, i64* %39 monotonic, align 8
  %40 = getelementptr inbounds %"class.WTF::Vector", %"class.WTF::Vector"* %5, i64 0, i32 0, i32 0, i32 1
  %41 = load i32, i32* %34, align 4
  %42 = load i32, i32* %40, align 4
  store i32 %42, i32* %34, align 4
  store i32 %41, i32* %40, align 4
  %43 = getelementptr inbounds %"class.WTF::Vector", %"class.WTF::Vector"* %5, i64 0, i32 0, i32 0, i32 2
  %44 = load i32, i32* %35, align 4
  %45 = load i32, i32* %43, align 4
  store i32 %45, i32* %35, align 4
  store i32 %44, i32* %43, align 4
  ret void
}

; Function Attrs: nounwind ssp uwtable
define hidden void @_ZN22memory_instrumentation5mojom5blink16RawAllocatorDumpD2Ev(%"class.memory_instrumentation::mojom::blink::RawAllocatorDump"* nocapture) unnamed_addr #3 align 2 {
  %2 = getelementptr inbounds %"class.memory_instrumentation::mojom::blink::RawAllocatorDump", %"class.memory_instrumentation::mojom::blink::RawAllocatorDump"* %0, i64 0, i32 4
  %3 = getelementptr inbounds %"class.WTF::Vector", %"class.WTF::Vector"* %2, i64 0, i32 0, i32 0, i32 0
  %4 = load %"class.mojo::StructPtr.34"*, %"class.mojo::StructPtr.34"** %3, align 8
  %5 = icmp eq %"class.mojo::StructPtr.34"* %4, null
  br i1 %5, label %29, label %6, !prof !4

6:                                                ; preds = %1
  %7 = bitcast %"class.mojo::StructPtr.34"* %4 to i8*
  %8 = getelementptr inbounds %"class.memory_instrumentation::mojom::blink::RawAllocatorDump", %"class.memory_instrumentation::mojom::blink::RawAllocatorDump"* %0, i64 0, i32 4, i32 0, i32 0, i32 2
  %9 = load i32, i32* %8, align 4
  %10 = icmp eq i32 %9, 0
  br i1 %10, label %27, label %11, !prof !3

11:                                               ; preds = %6
  %12 = zext i32 %9 to i64
  %13 = getelementptr inbounds %"class.mojo::StructPtr.34", %"class.mojo::StructPtr.34"* %4, i64 %12
  br label %14

14:                                               ; preds = %21, %11
  %15 = phi %"class.mojo::StructPtr.34"* [ %22, %21 ], [ %4, %11 ]
  %16 = getelementptr inbounds %"class.mojo::StructPtr.34", %"class.mojo::StructPtr.34"* %15, i64 0, i32 0, i32 0, i32 0, i32 0
  %17 = load %"class.memory_instrumentation::mojom::blink::RawAllocatorDumpEntry"*, %"class.memory_instrumentation::mojom::blink::RawAllocatorDumpEntry"** %16, align 8
  store %"class.memory_instrumentation::mojom::blink::RawAllocatorDumpEntry"* null, %"class.memory_instrumentation::mojom::blink::RawAllocatorDumpEntry"** %16, align 8
  %18 = icmp eq %"class.memory_instrumentation::mojom::blink::RawAllocatorDumpEntry"* %17, null
  br i1 %18, label %21, label %19

19:                                               ; preds = %14
  tail call void @_ZN22memory_instrumentation5mojom5blink21RawAllocatorDumpEntryD2Ev(%"class.memory_instrumentation::mojom::blink::RawAllocatorDumpEntry"* nonnull %17) #15
  %20 = bitcast %"class.memory_instrumentation::mojom::blink::RawAllocatorDumpEntry"* %17 to i8*
  tail call void @_ZdlPv(i8* %20) #16
  br label %21

21:                                               ; preds = %19, %14
  %22 = getelementptr inbounds %"class.mojo::StructPtr.34", %"class.mojo::StructPtr.34"* %15, i64 1
  %23 = icmp eq %"class.mojo::StructPtr.34"* %22, %13
  br i1 %23, label %24, label %14

24:                                               ; preds = %21
  store i32 0, i32* %8, align 4
  %25 = bitcast %"class.WTF::Vector"* %2 to i8**
  %26 = load i8*, i8** %25, align 8
  br label %27

27:                                               ; preds = %24, %6
  %28 = phi i8* [ %26, %24 ], [ %7, %6 ]
  tail call void @_ZN3WTF18PartitionAllocator11FreeBackingEPv(i8* %28) #15
  store %"class.mojo::StructPtr.34"* null, %"class.mojo::StructPtr.34"** %3, align 8
  br label %29

29:                                               ; preds = %1, %27
  %30 = getelementptr inbounds %"class.memory_instrumentation::mojom::blink::RawAllocatorDump", %"class.memory_instrumentation::mojom::blink::RawAllocatorDump"* %0, i64 0, i32 1, i32 0, i32 0
  %31 = load %"class.WTF::StringImpl"*, %"class.WTF::StringImpl"** %30, align 8
  %32 = icmp eq %"class.WTF::StringImpl"* %31, null
  br i1 %32, label %46, label %33

33:                                               ; preds = %29
  %34 = getelementptr inbounds %"class.WTF::StringImpl", %"class.WTF::StringImpl"* %31, i64 0, i32 2, i32 0, i32 0, i32 0, i32 0, i32 0
  %35 = load atomic i32, i32* %34 monotonic, align 4
  %36 = and i32 %35, 2
  %37 = icmp eq i32 %36, 0
  %38 = getelementptr inbounds %"class.WTF::StringImpl", %"class.WTF::StringImpl"* %31, i64 0, i32 0
  %39 = load i32, i32* %38, align 4
  br i1 %37, label %40, label %42

40:                                               ; preds = %33
  %41 = add i32 %39, -1
  store i32 %41, i32* %38, align 4
  br label %42

42:                                               ; preds = %40, %33
  %43 = phi i32 [ %41, %40 ], [ %39, %33 ]
  %44 = icmp eq i32 %43, 0
  br i1 %44, label %45, label %46

45:                                               ; preds = %42
  tail call void @_ZNK3WTF10StringImpl18DestroyIfNotStaticEv(%"class.WTF::StringImpl"* nonnull %31) #15
  br label %46

46:                                               ; preds = %29, %42, %45
  ret void
}

; Function Attrs: nounwind ssp uwtable
define hidden void @_ZNK22memory_instrumentation5mojom5blink16RawAllocatorDump14WriteIntoTraceEN8perfetto11TracedValueE(%"class.memory_instrumentation::mojom::blink::RawAllocatorDump"*, %"class.perfetto::TracedValue"*) local_unnamed_addr #3 align 2 {
  %3 = alloca %"class.perfetto::TracedValue", align 8
  %4 = alloca %"class.perfetto::TracedValue", align 8
  %5 = alloca %"class.perfetto::TracedValue", align 8
  %6 = alloca %"class.perfetto::TracedValue", align 8
  %7 = alloca %"class.perfetto::TracedValue", align 8
  %8 = alloca %"class.perfetto::TracedValue", align 8
  %9 = alloca %"class.perfetto::TracedValue", align 8
  %10 = alloca %"class.perfetto::TracedArray", align 8
  %11 = alloca %"class.perfetto::TracedValue", align 8
  %12 = alloca %"class.perfetto::TracedDictionary", align 8
  %13 = alloca %"class.perfetto::TracedValue", align 8
  %14 = alloca %"class.perfetto::TracedValue", align 8
  %15 = alloca %"class.perfetto::TracedValue", align 8
  %16 = alloca %"class.perfetto::TracedValue", align 8
  %17 = alloca %"class.perfetto::TracedValue", align 8
  %18 = bitcast %"class.perfetto::TracedDictionary"* %12 to i8*
  call void @llvm.lifetime.start.p0i8(i64 16, i8* nonnull %18) #15
  %19 = bitcast %"class.perfetto::TracedDictionary"* %12 to i8*
  call void @llvm.memset.p0i8.i64(i8* nonnull align 8 %19, i8 -86, i64 16, i1 false)
  call void @_ZNO8perfetto11TracedValue15WriteDictionaryEv(%"class.perfetto::TracedDictionary"* nonnull sret %12, %"class.perfetto::TracedValue"* %1) #15
  call void @_ZN8perfetto16TracedDictionary7AddItemENS_12StaticStringE(%"class.perfetto::TracedValue"* nonnull sret %13, %"class.perfetto::TracedDictionary"* nonnull %12, i8* getelementptr inbounds ([3 x i8], [3 x i8]* @.str.12, i64 0, i64 0)) #15
  %20 = getelementptr inbounds %"class.memory_instrumentation::mojom::blink::RawAllocatorDump", %"class.memory_instrumentation::mojom::blink::RawAllocatorDump"* %0, i64 0, i32 0
  %21 = bitcast %"class.perfetto::TracedValue"* %13 to i8*
  %22 = bitcast %"class.perfetto::TracedValue"* %6 to i8*
  call void @llvm.lifetime.start.p0i8(i64 16, i8* nonnull %22) #15
  call void @llvm.memcpy.p0i8.p0i8.i64(i8* nonnull align 8 %22, i8* nonnull align 8 %21, i64 16, i1 false) #15
  %23 = load i64, i64* %20, align 8
  call void @_ZNO8perfetto11TracedValue11WriteUInt64Em(%"class.perfetto::TracedValue"* nonnull %6, i64 %23) #15
  call void @llvm.lifetime.end.p0i8(i64 16, i8* nonnull %22) #15
  call void @_ZN8perfetto16TracedDictionary7AddItemENS_12StaticStringE(%"class.perfetto::TracedValue"* nonnull sret %14, %"class.perfetto::TracedDictionary"* nonnull %12, i8* getelementptr inbounds ([14 x i8], [14 x i8]* @.str.13, i64 0, i64 0)) #15
  %24 = getelementptr inbounds %"class.memory_instrumentation::mojom::blink::RawAllocatorDump", %"class.memory_instrumentation::mojom::blink::RawAllocatorDump"* %0, i64 0, i32 1
  %25 = bitcast %"class.perfetto::TracedValue"* %14 to i8*
  %26 = bitcast %"class.perfetto::TracedValue"* %5 to i8*
  call void @llvm.lifetime.start.p0i8(i64 16, i8* nonnull %26) #15
  call void @llvm.memcpy.p0i8.p0i8.i64(i8* nonnull align 8 %26, i8* nonnull align 8 %25, i64 16, i1 false) #15
  call void @_ZNK3WTF6String14WriteIntoTraceEN8perfetto11TracedValueE(%"class.WTF::String"* %24, %"class.perfetto::TracedValue"* nonnull %5) #15
  call void @llvm.lifetime.end.p0i8(i64 16, i8* nonnull %26) #15
  call void @_ZN8perfetto16TracedDictionary7AddItemENS_12StaticStringE(%"class.perfetto::TracedValue"* nonnull sret %15, %"class.perfetto::TracedDictionary"* nonnull %12, i8* getelementptr inbounds ([5 x i8], [5 x i8]* @.str.14, i64 0, i64 0)) #15
  %27 = getelementptr inbounds %"class.memory_instrumentation::mojom::blink::RawAllocatorDump", %"class.memory_instrumentation::mojom::blink::RawAllocatorDump"* %0, i64 0, i32 2
  %28 = bitcast %"class.perfetto::TracedValue"* %15 to i8*
  %29 = bitcast %"class.perfetto::TracedValue"* %4 to i8*
  call void @llvm.lifetime.start.p0i8(i64 16, i8* nonnull %29) #15
  call void @llvm.memcpy.p0i8.p0i8.i64(i8* nonnull align 8 %29, i8* nonnull align 8 %28, i64 16, i1 false) #15
  %30 = load i8, i8* %27, align 1, !range !2
  %31 = icmp ne i8 %30, 0
  call void @_ZNO8perfetto11TracedValue12WriteBooleanEb(%"class.perfetto::TracedValue"* nonnull %4, i1 zeroext %31) #15
  call void @llvm.lifetime.end.p0i8(i64 16, i8* nonnull %29) #15
  call void @_ZN8perfetto16TracedDictionary7AddItemENS_12StaticStringE(%"class.perfetto::TracedValue"* nonnull sret %16, %"class.perfetto::TracedDictionary"* nonnull %12, i8* getelementptr inbounds ([16 x i8], [16 x i8]* @.str.3, i64 0, i64 0)) #15
  %32 = getelementptr inbounds %"class.memory_instrumentation::mojom::blink::RawAllocatorDump", %"class.memory_instrumentation::mojom::blink::RawAllocatorDump"* %0, i64 0, i32 3
  %33 = bitcast %"class.perfetto::TracedValue"* %16 to i8*
  %34 = bitcast %"class.perfetto::TracedValue"* %3 to i8*
  call void @llvm.lifetime.start.p0i8(i64 16, i8* nonnull %34) #15
  call void @llvm.memcpy.p0i8.p0i8.i64(i8* nonnull align 8 %34, i8* nonnull align 8 %33, i64 16, i1 false) #15
  %35 = load i32, i32* %32, align 4
  call void @_ZN8perfetto17TraceFormatTraitsIN22memory_instrumentation5mojom13LevelOfDetailEvE14WriteIntoTraceENS_11TracedValueES3_(%"class.perfetto::TracedValue"* nonnull %3, i32 %35) #15
  call void @llvm.lifetime.end.p0i8(i64 16, i8* nonnull %34) #15
  call void @_ZN8perfetto16TracedDictionary7AddItemENS_12StaticStringE(%"class.perfetto::TracedValue"* nonnull sret %17, %"class.perfetto::TracedDictionary"* nonnull %12, i8* getelementptr inbounds ([8 x i8], [8 x i8]* @.str.15, i64 0, i64 0)) #15
  %36 = bitcast %"class.perfetto::TracedValue"* %17 to i8*
  %37 = bitcast %"class.perfetto::TracedValue"* %11 to i8*
  call void @llvm.lifetime.start.p0i8(i64 16, i8* nonnull %37) #15
  call void @llvm.memcpy.p0i8.p0i8.i64(i8* nonnull align 8 %37, i8* nonnull align 8 %36, i64 16, i1 false) #15
  %38 = bitcast %"class.perfetto::TracedArray"* %10 to i8*
  call void @llvm.lifetime.start.p0i8(i64 16, i8* nonnull %38) #15
  call void @llvm.memset.p0i8.i64(i8* nonnull align 8 %38, i8 -86, i64 16, i1 false) #15
  call void @_ZNO8perfetto11TracedValue10WriteArrayEv(%"class.perfetto::TracedArray"* nonnull sret %10, %"class.perfetto::TracedValue"* nonnull %11) #15
  %39 = getelementptr inbounds %"class.memory_instrumentation::mojom::blink::RawAllocatorDump", %"class.memory_instrumentation::mojom::blink::RawAllocatorDump"* %0, i64 0, i32 4, i32 0, i32 0, i32 0
  %40 = load %"class.mojo::StructPtr.34"*, %"class.mojo::StructPtr.34"** %39, align 8
  %41 = getelementptr inbounds %"class.memory_instrumentation::mojom::blink::RawAllocatorDump", %"class.memory_instrumentation::mojom::blink::RawAllocatorDump"* %0, i64 0, i32 4, i32 0, i32 0, i32 2
  %42 = load i32, i32* %41, align 4
  %43 = zext i32 %42 to i64
  %44 = getelementptr inbounds %"class.mojo::StructPtr.34", %"class.mojo::StructPtr.34"* %40, i64 %43
  %45 = icmp eq i32 %42, 0
  br i1 %45, label %60, label %46

46:                                               ; preds = %2
  %47 = bitcast %"class.perfetto::TracedValue"* %9 to i8*
  %48 = bitcast %"class.perfetto::TracedValue"* %8 to i8*
  %49 = bitcast %"class.perfetto::TracedValue"* %7 to i8*
  br label %50

50:                                               ; preds = %57, %46
  %51 = phi %"class.mojo::StructPtr.34"* [ %40, %46 ], [ %58, %57 ]
  call void @llvm.lifetime.start.p0i8(i64 16, i8* nonnull %47) #15
  call void @_ZN8perfetto11TracedArray10AppendItemEv(%"class.perfetto::TracedValue"* nonnull sret %9, %"class.perfetto::TracedArray"* nonnull %10) #15
  %52 = getelementptr inbounds %"class.mojo::StructPtr.34", %"class.mojo::StructPtr.34"* %51, i64 0, i32 0, i32 0, i32 0, i32 0
  %53 = load %"class.memory_instrumentation::mojom::blink::RawAllocatorDumpEntry"*, %"class.memory_instrumentation::mojom::blink::RawAllocatorDumpEntry"** %52, align 8
  call void @llvm.lifetime.start.p0i8(i64 16, i8* nonnull %48) #15
  call void @llvm.memcpy.p0i8.p0i8.i64(i8* nonnull align 8 %48, i8* nonnull align 8 %47, i64 16, i1 false) #15
  %54 = icmp eq %"class.memory_instrumentation::mojom::blink::RawAllocatorDumpEntry"* %53, null
  br i1 %54, label %55, label %56

55:                                               ; preds = %50
  call void @_ZNO8perfetto11TracedValue12WritePointerEPKv(%"class.perfetto::TracedValue"* nonnull %8, i8* null) #15
  br label %57

56:                                               ; preds = %50
  call void @llvm.lifetime.start.p0i8(i64 16, i8* nonnull %49) #15
  call void @llvm.memcpy.p0i8.p0i8.i64(i8* nonnull align 8 %49, i8* nonnull align 8 %48, i64 16, i1 false) #15
  call void @_ZNK22memory_instrumentation5mojom5blink21RawAllocatorDumpEntry14WriteIntoTraceEN8perfetto11TracedValueE(%"class.memory_instrumentation::mojom::blink::RawAllocatorDumpEntry"* nonnull %53, %"class.perfetto::TracedValue"* nonnull %7) #15
  call void @llvm.lifetime.end.p0i8(i64 16, i8* nonnull %49) #15
  br label %57

57:                                               ; preds = %56, %55
  call void @llvm.lifetime.end.p0i8(i64 16, i8* nonnull %48) #15
  call void @llvm.lifetime.end.p0i8(i64 16, i8* nonnull %47) #15
  %58 = getelementptr inbounds %"class.mojo::StructPtr.34", %"class.mojo::StructPtr.34"* %51, i64 1
  %59 = icmp eq %"class.mojo::StructPtr.34"* %58, %44
  br i1 %59, label %60, label %50

60:                                               ; preds = %57, %2
  call void @llvm.lifetime.end.p0i8(i64 16, i8* nonnull %38) #15
  call void @llvm.lifetime.end.p0i8(i64 16, i8* nonnull %37) #15
  call void @llvm.lifetime.end.p0i8(i64 16, i8* nonnull %18) #15
  ret void
}

; Function Attrs: nounwind ssp uwtable
define hidden zeroext i1 @_ZN22memory_instrumentation5mojom5blink16RawAllocatorDump8ValidateEPKvPN4mojo8internal17ValidationContextE(i8*, %"class.mojo::internal::ValidationContext"*) local_unnamed_addr #3 align 2 {
  %3 = tail call zeroext i1 @_ZN22memory_instrumentation5mojom8internal21RawAllocatorDump_Data8ValidateEPKvPN4mojo8internal17ValidationContextE(i8* %0, %"class.mojo::internal::ValidationContext"* %1) #15
  ret i1 %3
}

declare zeroext i1 @_ZN22memory_instrumentation5mojom8internal21RawAllocatorDump_Data8ValidateEPKvPN4mojo8internal17ValidationContextE(i8*, %"class.mojo::internal::ValidationContext"*) local_unnamed_addr #5

; Function Attrs: nounwind ssp uwtable
define hidden void @_ZN22memory_instrumentation5mojom5blink20RawProcessMemoryDumpC2Ev(%"class.memory_instrumentation::mojom::blink::RawProcessMemoryDump"* nocapture) unnamed_addr #3 align 2 {
  %2 = getelementptr inbounds %"class.memory_instrumentation::mojom::blink::RawProcessMemoryDump", %"class.memory_instrumentation::mojom::blink::RawProcessMemoryDump"* %0, i64 0, i32 0
  store i32 0, i32* %2, align 8
  %3 = getelementptr inbounds %"class.memory_instrumentation::mojom::blink::RawProcessMemoryDump", %"class.memory_instrumentation::mojom::blink::RawProcessMemoryDump"* %0, i64 0, i32 1
  %4 = bitcast %"class.WTF::Vector.41"* %3 to i8*
  call void @llvm.memset.p0i8.i64(i8* align 8 %4, i8 0, i64 32, i1 false)
  ret void
}

; Function Attrs: nounwind ssp uwtable
define hidden void @_ZN22memory_instrumentation5mojom5blink20RawProcessMemoryDumpC2ENS0_13LevelOfDetailEN3WTF6VectorIN4mojo16InlinedStructPtrINS1_20RawAllocatorDumpEdgeEEELj0ENS4_18PartitionAllocatorEEENS5_INS6_9StructPtrINS1_16RawAllocatorDumpEEELj0ESA_EE(%"class.memory_instrumentation::mojom::blink::RawProcessMemoryDump"* nocapture, i32, %"class.WTF::Vector.41"* nocapture, %"class.WTF::Vector.46"* nocapture) unnamed_addr #3 align 2 {
  %5 = getelementptr inbounds %"class.memory_instrumentation::mojom::blink::RawProcessMemoryDump", %"class.memory_instrumentation::mojom::blink::RawProcessMemoryDump"* %0, i64 0, i32 0
  store i32 %1, i32* %5, align 8
  %6 = getelementptr inbounds %"class.memory_instrumentation::mojom::blink::RawProcessMemoryDump", %"class.memory_instrumentation::mojom::blink::RawProcessMemoryDump"* %0, i64 0, i32 1
  %7 = getelementptr inbounds %"class.memory_instrumentation::mojom::blink::RawProcessMemoryDump", %"class.memory_instrumentation::mojom::blink::RawProcessMemoryDump"* %0, i64 0, i32 1, i32 0, i32 0, i32 1
  %8 = getelementptr inbounds %"class.memory_instrumentation::mojom::blink::RawProcessMemoryDump", %"class.memory_instrumentation::mojom::blink::RawProcessMemoryDump"* %0, i64 0, i32 1, i32 0, i32 0, i32 2
  %9 = bitcast %"class.WTF::Vector.41"* %2 to i64*
  %10 = bitcast %"class.WTF::Vector.41"* %6 to i8*
  tail call void @llvm.memset.p0i8.i64(i8* align 8 %10, i8 0, i64 16, i1 false) #15
  %11 = load i64, i64* %9, align 8
  %12 = bitcast %"class.WTF::Vector.41"* %6 to i64*
  store atomic i64 0, i64* %9 monotonic, align 8
  store atomic i64 %11, i64* %12 monotonic, align 8
  %13 = getelementptr inbounds %"class.WTF::Vector.41", %"class.WTF::Vector.41"* %2, i64 0, i32 0, i32 0, i32 1
  %14 = load i32, i32* %7, align 4
  %15 = load i32, i32* %13, align 4
  store i32 %15, i32* %7, align 4
  store i32 %14, i32* %13, align 4
  %16 = getelementptr inbounds %"class.WTF::Vector.41", %"class.WTF::Vector.41"* %2, i64 0, i32 0, i32 0, i32 2
  %17 = load i32, i32* %8, align 4
  %18 = load i32, i32* %16, align 4
  store i32 %18, i32* %8, align 4
  store i32 %17, i32* %16, align 4
  %19 = getelementptr inbounds %"class.memory_instrumentation::mojom::blink::RawProcessMemoryDump", %"class.memory_instrumentation::mojom::blink::RawProcessMemoryDump"* %0, i64 0, i32 2
  %20 = getelementptr inbounds %"class.memory_instrumentation::mojom::blink::RawProcessMemoryDump", %"class.memory_instrumentation::mojom::blink::RawProcessMemoryDump"* %0, i64 0, i32 2, i32 0, i32 0, i32 1
  %21 = getelementptr inbounds %"class.memory_instrumentation::mojom::blink::RawProcessMemoryDump", %"class.memory_instrumentation::mojom::blink::RawProcessMemoryDump"* %0, i64 0, i32 2, i32 0, i32 0, i32 2
  %22 = bitcast %"class.WTF::Vector.46"* %3 to i64*
  %23 = bitcast %"class.WTF::Vector.46"* %19 to i8*
  tail call void @llvm.memset.p0i8.i64(i8* align 8 %23, i8 0, i64 16, i1 false) #15
  %24 = load i64, i64* %22, align 8
  %25 = bitcast %"class.WTF::Vector.46"* %19 to i64*
  store atomic i64 0, i64* %22 monotonic, align 8
  store atomic i64 %24, i64* %25 monotonic, align 8
  %26 = getelementptr inbounds %"class.WTF::Vector.46", %"class.WTF::Vector.46"* %3, i64 0, i32 0, i32 0, i32 1
  %27 = load i32, i32* %20, align 4
  %28 = load i32, i32* %26, align 4
  store i32 %28, i32* %20, align 4
  store i32 %27, i32* %26, align 4
  %29 = getelementptr inbounds %"class.WTF::Vector.46", %"class.WTF::Vector.46"* %3, i64 0, i32 0, i32 0, i32 2
  %30 = load i32, i32* %21, align 4
  %31 = load i32, i32* %29, align 4
  store i32 %31, i32* %21, align 4
  store i32 %30, i32* %29, align 4
  ret void
}

; Function Attrs: nounwind ssp uwtable
define hidden void @_ZN22memory_instrumentation5mojom5blink20RawProcessMemoryDumpD2Ev(%"class.memory_instrumentation::mojom::blink::RawProcessMemoryDump"* nocapture) unnamed_addr #3 align 2 {
  %2 = getelementptr inbounds %"class.memory_instrumentation::mojom::blink::RawProcessMemoryDump", %"class.memory_instrumentation::mojom::blink::RawProcessMemoryDump"* %0, i64 0, i32 2
  %3 = getelementptr inbounds %"class.WTF::Vector.46", %"class.WTF::Vector.46"* %2, i64 0, i32 0, i32 0, i32 0
  %4 = load %"class.mojo::StructPtr.49"*, %"class.mojo::StructPtr.49"** %3, align 8
  %5 = icmp eq %"class.mojo::StructPtr.49"* %4, null
  br i1 %5, label %29, label %6, !prof !4

6:                                                ; preds = %1
  %7 = bitcast %"class.mojo::StructPtr.49"* %4 to i8*
  %8 = getelementptr inbounds %"class.memory_instrumentation::mojom::blink::RawProcessMemoryDump", %"class.memory_instrumentation::mojom::blink::RawProcessMemoryDump"* %0, i64 0, i32 2, i32 0, i32 0, i32 2
  %9 = load i32, i32* %8, align 4
  %10 = icmp eq i32 %9, 0
  br i1 %10, label %27, label %11, !prof !3

11:                                               ; preds = %6
  %12 = zext i32 %9 to i64
  %13 = getelementptr inbounds %"class.mojo::StructPtr.49", %"class.mojo::StructPtr.49"* %4, i64 %12
  br label %14

14:                                               ; preds = %21, %11
  %15 = phi %"class.mojo::StructPtr.49"* [ %22, %21 ], [ %4, %11 ]
  %16 = getelementptr inbounds %"class.mojo::StructPtr.49", %"class.mojo::StructPtr.49"* %15, i64 0, i32 0, i32 0, i32 0, i32 0
  %17 = load %"class.memory_instrumentation::mojom::blink::RawAllocatorDump"*, %"class.memory_instrumentation::mojom::blink::RawAllocatorDump"** %16, align 8
  store %"class.memory_instrumentation::mojom::blink::RawAllocatorDump"* null, %"class.memory_instrumentation::mojom::blink::RawAllocatorDump"** %16, align 8
  %18 = icmp eq %"class.memory_instrumentation::mojom::blink::RawAllocatorDump"* %17, null
  br i1 %18, label %21, label %19

19:                                               ; preds = %14
  tail call void @_ZN22memory_instrumentation5mojom5blink16RawAllocatorDumpD2Ev(%"class.memory_instrumentation::mojom::blink::RawAllocatorDump"* nonnull %17) #15
  %20 = bitcast %"class.memory_instrumentation::mojom::blink::RawAllocatorDump"* %17 to i8*
  tail call void @_ZdlPv(i8* %20) #16
  br label %21

21:                                               ; preds = %19, %14
  %22 = getelementptr inbounds %"class.mojo::StructPtr.49", %"class.mojo::StructPtr.49"* %15, i64 1
  %23 = icmp eq %"class.mojo::StructPtr.49"* %22, %13
  br i1 %23, label %24, label %14

24:                                               ; preds = %21
  store i32 0, i32* %8, align 4
  %25 = bitcast %"class.WTF::Vector.46"* %2 to i8**
  %26 = load i8*, i8** %25, align 8
  br label %27

27:                                               ; preds = %24, %6
  %28 = phi i8* [ %26, %24 ], [ %7, %6 ]
  tail call void @_ZN3WTF18PartitionAllocator11FreeBackingEPv(i8* %28) #15
  store %"class.mojo::StructPtr.49"* null, %"class.mojo::StructPtr.49"** %3, align 8
  br label %29

29:                                               ; preds = %1, %27
  %30 = getelementptr inbounds %"class.memory_instrumentation::mojom::blink::RawProcessMemoryDump", %"class.memory_instrumentation::mojom::blink::RawProcessMemoryDump"* %0, i64 0, i32 1, i32 0, i32 0, i32 0
  %31 = load %"class.mojo::InlinedStructPtr"*, %"class.mojo::InlinedStructPtr"** %30, align 8
  %32 = icmp eq %"class.mojo::InlinedStructPtr"* %31, null
  %33 = bitcast %"class.mojo::InlinedStructPtr"* %31 to i8*
  br i1 %32, label %40, label %34, !prof !4

34:                                               ; preds = %29
  %35 = getelementptr inbounds %"class.memory_instrumentation::mojom::blink::RawProcessMemoryDump", %"class.memory_instrumentation::mojom::blink::RawProcessMemoryDump"* %0, i64 0, i32 1, i32 0, i32 0, i32 2
  %36 = load i32, i32* %35, align 4
  %37 = icmp eq i32 %36, 0
  br i1 %37, label %39, label %38, !prof !3

38:                                               ; preds = %34
  store i32 0, i32* %35, align 4
  br label %39

39:                                               ; preds = %38, %34
  tail call void @_ZN3WTF18PartitionAllocator11FreeBackingEPv(i8* nonnull %33) #15
  store %"class.mojo::InlinedStructPtr"* null, %"class.mojo::InlinedStructPtr"** %30, align 8
  br label %40

40:                                               ; preds = %29, %39
  ret void
}

; Function Attrs: nounwind ssp uwtable
define hidden void @_ZNK22memory_instrumentation5mojom5blink20RawProcessMemoryDump14WriteIntoTraceEN8perfetto11TracedValueE(%"class.memory_instrumentation::mojom::blink::RawProcessMemoryDump"*, %"class.perfetto::TracedValue"*) local_unnamed_addr #3 align 2 {
  %3 = alloca %"class.perfetto::TracedValue", align 8
  %4 = alloca %"class.perfetto::TracedValue", align 8
  %5 = alloca %"class.perfetto::TracedValue", align 8
  %6 = alloca %"class.perfetto::TracedValue", align 8
  %7 = alloca %"class.perfetto::TracedValue", align 8
  %8 = alloca %"class.perfetto::TracedArray", align 8
  %9 = alloca %"class.perfetto::TracedValue", align 8
  %10 = alloca %"class.perfetto::TracedDictionary", align 8
  %11 = alloca %"class.perfetto::TracedValue", align 8
  %12 = alloca %"class.perfetto::TracedValue", align 8
  %13 = alloca %"class.perfetto::TracedValue", align 8
  %14 = bitcast %"class.perfetto::TracedDictionary"* %10 to i8*
  call void @llvm.lifetime.start.p0i8(i64 16, i8* nonnull %14) #15
  %15 = bitcast %"class.perfetto::TracedDictionary"* %10 to i8*
  call void @llvm.memset.p0i8.i64(i8* nonnull align 8 %15, i8 -86, i64 16, i1 false)
  call void @_ZNO8perfetto11TracedValue15WriteDictionaryEv(%"class.perfetto::TracedDictionary"* nonnull sret %10, %"class.perfetto::TracedValue"* %1) #15
  call void @_ZN8perfetto16TracedDictionary7AddItemENS_12StaticStringE(%"class.perfetto::TracedValue"* nonnull sret %11, %"class.perfetto::TracedDictionary"* nonnull %10, i8* getelementptr inbounds ([16 x i8], [16 x i8]* @.str.3, i64 0, i64 0)) #15
  %16 = getelementptr inbounds %"class.memory_instrumentation::mojom::blink::RawProcessMemoryDump", %"class.memory_instrumentation::mojom::blink::RawProcessMemoryDump"* %0, i64 0, i32 0
  %17 = bitcast %"class.perfetto::TracedValue"* %11 to i8*
  %18 = bitcast %"class.perfetto::TracedValue"* %4 to i8*
  call void @llvm.lifetime.start.p0i8(i64 16, i8* nonnull %18) #15
  call void @llvm.memcpy.p0i8.p0i8.i64(i8* nonnull align 8 %18, i8* nonnull align 8 %17, i64 16, i1 false) #15
  %19 = load i32, i32* %16, align 4
  call void @_ZN8perfetto17TraceFormatTraitsIN22memory_instrumentation5mojom13LevelOfDetailEvE14WriteIntoTraceENS_11TracedValueES3_(%"class.perfetto::TracedValue"* nonnull %4, i32 %19) #15
  call void @llvm.lifetime.end.p0i8(i64 16, i8* nonnull %18) #15
  call void @_ZN8perfetto16TracedDictionary7AddItemENS_12StaticStringE(%"class.perfetto::TracedValue"* nonnull sret %12, %"class.perfetto::TracedDictionary"* nonnull %10, i8* getelementptr inbounds ([21 x i8], [21 x i8]* @.str.16, i64 0, i64 0)) #15
  %20 = getelementptr inbounds %"class.memory_instrumentation::mojom::blink::RawProcessMemoryDump", %"class.memory_instrumentation::mojom::blink::RawProcessMemoryDump"* %0, i64 0, i32 1
  %21 = bitcast %"class.perfetto::TracedValue"* %3 to i8*
  call void @llvm.lifetime.start.p0i8(i64 16, i8* nonnull %21)
  %22 = bitcast %"class.perfetto::TracedValue"* %12 to i8*
  call void @llvm.memcpy.p0i8.p0i8.i64(i8* nonnull align 8 %21, i8* nonnull align 8 %22, i64 16, i1 false) #15
  call void @_ZN8perfetto20WriteIntoTracedValueIRKN3WTF6VectorIN4mojo16InlinedStructPtrIN22memory_instrumentation5mojom5blink20RawAllocatorDumpEdgeEEELj0ENS1_18PartitionAllocatorEEEEEvNS_11TracedValueEOT_(%"class.perfetto::TracedValue"* nonnull %3, %"class.WTF::Vector.41"* dereferenceable(16) %20) #15
  call void @llvm.lifetime.end.p0i8(i64 16, i8* nonnull %21)
  call void @_ZN8perfetto16TracedDictionary7AddItemENS_12StaticStringE(%"class.perfetto::TracedValue"* nonnull sret %13, %"class.perfetto::TracedDictionary"* nonnull %10, i8* getelementptr inbounds ([16 x i8], [16 x i8]* @.str.17, i64 0, i64 0)) #15
  %23 = bitcast %"class.perfetto::TracedValue"* %13 to i8*
  %24 = bitcast %"class.perfetto::TracedValue"* %9 to i8*
  call void @llvm.lifetime.start.p0i8(i64 16, i8* nonnull %24) #15
  call void @llvm.memcpy.p0i8.p0i8.i64(i8* nonnull align 8 %24, i8* nonnull align 8 %23, i64 16, i1 false) #15
  %25 = bitcast %"class.perfetto::TracedArray"* %8 to i8*
  call void @llvm.lifetime.start.p0i8(i64 16, i8* nonnull %25) #15
  call void @llvm.memset.p0i8.i64(i8* nonnull align 8 %25, i8 -86, i64 16, i1 false) #15
  call void @_ZNO8perfetto11TracedValue10WriteArrayEv(%"class.perfetto::TracedArray"* nonnull sret %8, %"class.perfetto::TracedValue"* nonnull %9) #15
  %26 = getelementptr inbounds %"class.memory_instrumentation::mojom::blink::RawProcessMemoryDump", %"class.memory_instrumentation::mojom::blink::RawProcessMemoryDump"* %0, i64 0, i32 2, i32 0, i32 0, i32 0
  %27 = load %"class.mojo::StructPtr.49"*, %"class.mojo::StructPtr.49"** %26, align 8
  %28 = getelementptr inbounds %"class.memory_instrumentation::mojom::blink::RawProcessMemoryDump", %"class.memory_instrumentation::mojom::blink::RawProcessMemoryDump"* %0, i64 0, i32 2, i32 0, i32 0, i32 2
  %29 = load i32, i32* %28, align 4
  %30 = zext i32 %29 to i64
  %31 = getelementptr inbounds %"class.mojo::StructPtr.49", %"class.mojo::StructPtr.49"* %27, i64 %30
  %32 = icmp eq i32 %29, 0
  br i1 %32, label %47, label %33

33:                                               ; preds = %2
  %34 = bitcast %"class.perfetto::TracedValue"* %7 to i8*
  %35 = bitcast %"class.perfetto::TracedValue"* %6 to i8*
  %36 = bitcast %"class.perfetto::TracedValue"* %5 to i8*
  br label %37

37:                                               ; preds = %44, %33
  %38 = phi %"class.mojo::StructPtr.49"* [ %27, %33 ], [ %45, %44 ]
  call void @llvm.lifetime.start.p0i8(i64 16, i8* nonnull %34) #15
  call void @_ZN8perfetto11TracedArray10AppendItemEv(%"class.perfetto::TracedValue"* nonnull sret %7, %"class.perfetto::TracedArray"* nonnull %8) #15
  %39 = getelementptr inbounds %"class.mojo::StructPtr.49", %"class.mojo::StructPtr.49"* %38, i64 0, i32 0, i32 0, i32 0, i32 0
  %40 = load %"class.memory_instrumentation::mojom::blink::RawAllocatorDump"*, %"class.memory_instrumentation::mojom::blink::RawAllocatorDump"** %39, align 8
  call void @llvm.lifetime.start.p0i8(i64 16, i8* nonnull %35) #15
  call void @llvm.memcpy.p0i8.p0i8.i64(i8* nonnull align 8 %35, i8* nonnull align 8 %34, i64 16, i1 false) #15
  %41 = icmp eq %"class.memory_instrumentation::mojom::blink::RawAllocatorDump"* %40, null
  br i1 %41, label %42, label %43

42:                                               ; preds = %37
  call void @_ZNO8perfetto11TracedValue12WritePointerEPKv(%"class.perfetto::TracedValue"* nonnull %6, i8* null) #15
  br label %44

43:                                               ; preds = %37
  call void @llvm.lifetime.start.p0i8(i64 16, i8* nonnull %36) #15
  call void @llvm.memcpy.p0i8.p0i8.i64(i8* nonnull align 8 %36, i8* nonnull align 8 %35, i64 16, i1 false) #15
  call void @_ZNK22memory_instrumentation5mojom5blink16RawAllocatorDump14WriteIntoTraceEN8perfetto11TracedValueE(%"class.memory_instrumentation::mojom::blink::RawAllocatorDump"* nonnull %40, %"class.perfetto::TracedValue"* nonnull %5) #15
  call void @llvm.lifetime.end.p0i8(i64 16, i8* nonnull %36) #15
  br label %44

44:                                               ; preds = %43, %42
  call void @llvm.lifetime.end.p0i8(i64 16, i8* nonnull %35) #15
  call void @llvm.lifetime.end.p0i8(i64 16, i8* nonnull %34) #15
  %45 = getelementptr inbounds %"class.mojo::StructPtr.49", %"class.mojo::StructPtr.49"* %38, i64 1
  %46 = icmp eq %"class.mojo::StructPtr.49"* %45, %31
  br i1 %46, label %47, label %37

47:                                               ; preds = %44, %2
  call void @llvm.lifetime.end.p0i8(i64 16, i8* nonnull %25) #15
  call void @llvm.lifetime.end.p0i8(i64 16, i8* nonnull %24) #15
  call void @llvm.lifetime.end.p0i8(i64 16, i8* nonnull %14) #15
  ret void
}

; Function Attrs: nounwind ssp uwtable
define hidden zeroext i1 @_ZN22memory_instrumentation5mojom5blink20RawProcessMemoryDump8ValidateEPKvPN4mojo8internal17ValidationContextE(i8*, %"class.mojo::internal::ValidationContext"*) local_unnamed_addr #3 align 2 {
  %3 = tail call zeroext i1 @_ZN22memory_instrumentation5mojom8internal25RawProcessMemoryDump_Data8ValidateEPKvPN4mojo8internal17ValidationContextE(i8* %0, %"class.mojo::internal::ValidationContext"* %1) #15
  ret i1 %3
}

declare zeroext i1 @_ZN22memory_instrumentation5mojom8internal25RawProcessMemoryDump_Data8ValidateEPKvPN4mojo8internal17ValidationContextE(i8*, %"class.mojo::internal::ValidationContext"*) local_unnamed_addr #5

; Function Attrs: nofree norecurse nounwind ssp uwtable writeonly
define hidden void @_ZN22memory_instrumentation5mojom5blink8VmRegionC2Ev(%"class.memory_instrumentation::mojom::blink::VmRegion"* nocapture) unnamed_addr #0 align 2 {
  %2 = getelementptr inbounds %"class.memory_instrumentation::mojom::blink::VmRegion", %"class.memory_instrumentation::mojom::blink::VmRegion"* %0, i64 0, i32 6
  %3 = bitcast %"class.memory_instrumentation::mojom::blink::VmRegion"* %0 to i8*
  call void @llvm.memset.p0i8.i64(i8* align 8 %3, i8 0, i64 44, i1 false)
  %4 = bitcast %"class.WTF::String"* %2 to i8*
  call void @llvm.memset.p0i8.i64(i8* align 8 %4, i8 0, i64 64, i1 false)
  ret void
}

; Function Attrs: nounwind ssp uwtable
define hidden void @_ZN22memory_instrumentation5mojom5blink8VmRegionC2EmmmRKN3WTF6StringES6_jS6_mmmmmmm(%"class.memory_instrumentation::mojom::blink::VmRegion"* nocapture, i64, i64, i64, %"class.WTF::String"* nocapture readonly dereferenceable(8), %"class.WTF::String"* nocapture readonly dereferenceable(8), i32, %"class.WTF::String"* nocapture readonly dereferenceable(8), i64, i64, i64, i64, i64, i64, i64) unnamed_addr #3 align 2 {
  %16 = getelementptr inbounds %"class.memory_instrumentation::mojom::blink::VmRegion", %"class.memory_instrumentation::mojom::blink::VmRegion"* %0, i64 0, i32 0
  store i64 %1, i64* %16, align 8
  %17 = getelementptr inbounds %"class.memory_instrumentation::mojom::blink::VmRegion", %"class.memory_instrumentation::mojom::blink::VmRegion"* %0, i64 0, i32 1
  store i64 %2, i64* %17, align 8
  %18 = getelementptr inbounds %"class.memory_instrumentation::mojom::blink::VmRegion", %"class.memory_instrumentation::mojom::blink::VmRegion"* %0, i64 0, i32 2
  store i64 %3, i64* %18, align 8
  %19 = getelementptr inbounds %"class.WTF::String", %"class.WTF::String"* %4, i64 0, i32 0, i32 0
  %20 = load %"class.WTF::StringImpl"*, %"class.WTF::StringImpl"** %19, align 8
  %21 = getelementptr inbounds %"class.memory_instrumentation::mojom::blink::VmRegion", %"class.memory_instrumentation::mojom::blink::VmRegion"* %0, i64 0, i32 3, i32 0, i32 0
  store %"class.WTF::StringImpl"* %20, %"class.WTF::StringImpl"** %21, align 8
  %22 = icmp eq %"class.WTF::StringImpl"* %20, null
  br i1 %22, label %40, label %23

23:                                               ; preds = %15
  %24 = getelementptr inbounds %"class.WTF::StringImpl", %"class.WTF::StringImpl"* %20, i64 0, i32 2, i32 0, i32 0, i32 0, i32 0, i32 0
  %25 = load atomic i32, i32* %24 monotonic, align 4
  %26 = and i32 %25, 2
  %27 = icmp eq i32 %26, 0
  br i1 %27, label %28, label %40

28:                                               ; preds = %23
  %29 = getelementptr inbounds %"class.WTF::StringImpl", %"class.WTF::StringImpl"* %20, i64 0, i32 0
  %30 = load i32, i32* %29, align 4
  %31 = zext i32 %30 to i33
  %32 = tail call { i33, i1 } @llvm.sadd.with.overflow.i33(i33 %31, i33 1) #15
  %33 = extractvalue { i33, i1 } %32, 1
  %34 = extractvalue { i33, i1 } %32, 0
  %35 = icmp slt i33 %34, 0
  %36 = or i1 %33, %35
  br i1 %36, label %37, label %38, !prof !3

37:                                               ; preds = %28
  tail call void @llvm.trap() #15
  unreachable

38:                                               ; preds = %28
  %39 = trunc i33 %34 to i32
  store i32 %39, i32* %29, align 4
  br label %40

40:                                               ; preds = %15, %23, %38
  %41 = getelementptr inbounds %"class.WTF::String", %"class.WTF::String"* %5, i64 0, i32 0, i32 0
  %42 = load %"class.WTF::StringImpl"*, %"class.WTF::StringImpl"** %41, align 8
  %43 = getelementptr inbounds %"class.memory_instrumentation::mojom::blink::VmRegion", %"class.memory_instrumentation::mojom::blink::VmRegion"* %0, i64 0, i32 4, i32 0, i32 0
  store %"class.WTF::StringImpl"* %42, %"class.WTF::StringImpl"** %43, align 8
  %44 = icmp eq %"class.WTF::StringImpl"* %42, null
  br i1 %44, label %62, label %45

45:                                               ; preds = %40
  %46 = getelementptr inbounds %"class.WTF::StringImpl", %"class.WTF::StringImpl"* %42, i64 0, i32 2, i32 0, i32 0, i32 0, i32 0, i32 0
  %47 = load atomic i32, i32* %46 monotonic, align 4
  %48 = and i32 %47, 2
  %49 = icmp eq i32 %48, 0
  br i1 %49, label %50, label %62

50:                                               ; preds = %45
  %51 = getelementptr inbounds %"class.WTF::StringImpl", %"class.WTF::StringImpl"* %42, i64 0, i32 0
  %52 = load i32, i32* %51, align 4
  %53 = zext i32 %52 to i33
  %54 = tail call { i33, i1 } @llvm.sadd.with.overflow.i33(i33 %53, i33 1) #15
  %55 = extractvalue { i33, i1 } %54, 1
  %56 = extractvalue { i33, i1 } %54, 0
  %57 = icmp slt i33 %56, 0
  %58 = or i1 %55, %57
  br i1 %58, label %59, label %60, !prof !3

59:                                               ; preds = %50
  tail call void @llvm.trap() #15
  unreachable

60:                                               ; preds = %50
  %61 = trunc i33 %56 to i32
  store i32 %61, i32* %51, align 4
  br label %62

62:                                               ; preds = %40, %45, %60
  %63 = getelementptr inbounds %"class.memory_instrumentation::mojom::blink::VmRegion", %"class.memory_instrumentation::mojom::blink::VmRegion"* %0, i64 0, i32 5
  store i32 %6, i32* %63, align 8
  %64 = getelementptr inbounds %"class.WTF::String", %"class.WTF::String"* %7, i64 0, i32 0, i32 0
  %65 = load %"class.WTF::StringImpl"*, %"class.WTF::StringImpl"** %64, align 8
  %66 = getelementptr inbounds %"class.memory_instrumentation::mojom::blink::VmRegion", %"class.memory_instrumentation::mojom::blink::VmRegion"* %0, i64 0, i32 6, i32 0, i32 0
  store %"class.WTF::StringImpl"* %65, %"class.WTF::StringImpl"** %66, align 8
  %67 = icmp eq %"class.WTF::StringImpl"* %65, null
  br i1 %67, label %85, label %68

68:                                               ; preds = %62
  %69 = getelementptr inbounds %"class.WTF::StringImpl", %"class.WTF::StringImpl"* %65, i64 0, i32 2, i32 0, i32 0, i32 0, i32 0, i32 0
  %70 = load atomic i32, i32* %69 monotonic, align 4
  %71 = and i32 %70, 2
  %72 = icmp eq i32 %71, 0
  br i1 %72, label %73, label %85

73:                                               ; preds = %68
  %74 = getelementptr inbounds %"class.WTF::StringImpl", %"class.WTF::StringImpl"* %65, i64 0, i32 0
  %75 = load i32, i32* %74, align 4
  %76 = zext i32 %75 to i33
  %77 = tail call { i33, i1 } @llvm.sadd.with.overflow.i33(i33 %76, i33 1) #15
  %78 = extractvalue { i33, i1 } %77, 1
  %79 = extractvalue { i33, i1 } %77, 0
  %80 = icmp slt i33 %79, 0
  %81 = or i1 %78, %80
  br i1 %81, label %82, label %83, !prof !3

82:                                               ; preds = %73
  tail call void @llvm.trap() #15
  unreachable

83:                                               ; preds = %73
  %84 = trunc i33 %79 to i32
  store i32 %84, i32* %74, align 4
  br label %85

85:                                               ; preds = %62, %68, %83
  %86 = getelementptr inbounds %"class.memory_instrumentation::mojom::blink::VmRegion", %"class.memory_instrumentation::mojom::blink::VmRegion"* %0, i64 0, i32 7
  store i64 %8, i64* %86, align 8
  %87 = getelementptr inbounds %"class.memory_instrumentation::mojom::blink::VmRegion", %"class.memory_instrumentation::mojom::blink::VmRegion"* %0, i64 0, i32 8
  store i64 %9, i64* %87, align 8
  %88 = getelementptr inbounds %"class.memory_instrumentation::mojom::blink::VmRegion", %"class.memory_instrumentation::mojom::blink::VmRegion"* %0, i64 0, i32 9
  store i64 %10, i64* %88, align 8
  %89 = getelementptr inbounds %"class.memory_instrumentation::mojom::blink::VmRegion", %"class.memory_instrumentation::mojom::blink::VmRegion"* %0, i64 0, i32 10
  store i64 %11, i64* %89, align 8
  %90 = getelementptr inbounds %"class.memory_instrumentation::mojom::blink::VmRegion", %"class.memory_instrumentation::mojom::blink::VmRegion"* %0, i64 0, i32 11
  store i64 %12, i64* %90, align 8
  %91 = getelementptr inbounds %"class.memory_instrumentation::mojom::blink::VmRegion", %"class.memory_instrumentation::mojom::blink::VmRegion"* %0, i64 0, i32 12
  store i64 %13, i64* %91, align 8
  %92 = getelementptr inbounds %"class.memory_instrumentation::mojom::blink::VmRegion", %"class.memory_instrumentation::mojom::blink::VmRegion"* %0, i64 0, i32 13
  store i64 %14, i64* %92, align 8
  ret void
}

; Function Attrs: nounwind ssp uwtable
define hidden void @_ZN22memory_instrumentation5mojom5blink8VmRegionD2Ev(%"class.memory_instrumentation::mojom::blink::VmRegion"* nocapture readonly) unnamed_addr #3 align 2 {
  %2 = getelementptr inbounds %"class.memory_instrumentation::mojom::blink::VmRegion", %"class.memory_instrumentation::mojom::blink::VmRegion"* %0, i64 0, i32 6, i32 0, i32 0
  %3 = load %"class.WTF::StringImpl"*, %"class.WTF::StringImpl"** %2, align 8
  %4 = icmp eq %"class.WTF::StringImpl"* %3, null
  br i1 %4, label %18, label %5

5:                                                ; preds = %1
  %6 = getelementptr inbounds %"class.WTF::StringImpl", %"class.WTF::StringImpl"* %3, i64 0, i32 2, i32 0, i32 0, i32 0, i32 0, i32 0
  %7 = load atomic i32, i32* %6 monotonic, align 4
  %8 = and i32 %7, 2
  %9 = icmp eq i32 %8, 0
  %10 = getelementptr inbounds %"class.WTF::StringImpl", %"class.WTF::StringImpl"* %3, i64 0, i32 0
  %11 = load i32, i32* %10, align 4
  br i1 %9, label %12, label %14

12:                                               ; preds = %5
  %13 = add i32 %11, -1
  store i32 %13, i32* %10, align 4
  br label %14

14:                                               ; preds = %12, %5
  %15 = phi i32 [ %13, %12 ], [ %11, %5 ]
  %16 = icmp eq i32 %15, 0
  br i1 %16, label %17, label %18

17:                                               ; preds = %14
  tail call void @_ZNK3WTF10StringImpl18DestroyIfNotStaticEv(%"class.WTF::StringImpl"* nonnull %3) #15
  br label %18

18:                                               ; preds = %1, %14, %17
  %19 = getelementptr inbounds %"class.memory_instrumentation::mojom::blink::VmRegion", %"class.memory_instrumentation::mojom::blink::VmRegion"* %0, i64 0, i32 4, i32 0, i32 0
  %20 = load %"class.WTF::StringImpl"*, %"class.WTF::StringImpl"** %19, align 8
  %21 = icmp eq %"class.WTF::StringImpl"* %20, null
  br i1 %21, label %35, label %22

22:                                               ; preds = %18
  %23 = getelementptr inbounds %"class.WTF::StringImpl", %"class.WTF::StringImpl"* %20, i64 0, i32 2, i32 0, i32 0, i32 0, i32 0, i32 0
  %24 = load atomic i32, i32* %23 monotonic, align 4
  %25 = and i32 %24, 2
  %26 = icmp eq i32 %25, 0
  %27 = getelementptr inbounds %"class.WTF::StringImpl", %"class.WTF::StringImpl"* %20, i64 0, i32 0
  %28 = load i32, i32* %27, align 4
  br i1 %26, label %29, label %31

29:                                               ; preds = %22
  %30 = add i32 %28, -1
  store i32 %30, i32* %27, align 4
  br label %31

31:                                               ; preds = %29, %22
  %32 = phi i32 [ %30, %29 ], [ %28, %22 ]
  %33 = icmp eq i32 %32, 0
  br i1 %33, label %34, label %35

34:                                               ; preds = %31
  tail call void @_ZNK3WTF10StringImpl18DestroyIfNotStaticEv(%"class.WTF::StringImpl"* nonnull %20) #15
  br label %35

35:                                               ; preds = %18, %31, %34
  %36 = getelementptr inbounds %"class.memory_instrumentation::mojom::blink::VmRegion", %"class.memory_instrumentation::mojom::blink::VmRegion"* %0, i64 0, i32 3, i32 0, i32 0
  %37 = load %"class.WTF::StringImpl"*, %"class.WTF::StringImpl"** %36, align 8
  %38 = icmp eq %"class.WTF::StringImpl"* %37, null
  br i1 %38, label %52, label %39

39:                                               ; preds = %35
  %40 = getelementptr inbounds %"class.WTF::StringImpl", %"class.WTF::StringImpl"* %37, i64 0, i32 2, i32 0, i32 0, i32 0, i32 0, i32 0
  %41 = load atomic i32, i32* %40 monotonic, align 4
  %42 = and i32 %41, 2
  %43 = icmp eq i32 %42, 0
  %44 = getelementptr inbounds %"class.WTF::StringImpl", %"class.WTF::StringImpl"* %37, i64 0, i32 0
  %45 = load i32, i32* %44, align 4
  br i1 %43, label %46, label %48

46:                                               ; preds = %39
  %47 = add i32 %45, -1
  store i32 %47, i32* %44, align 4
  br label %48

48:                                               ; preds = %46, %39
  %49 = phi i32 [ %47, %46 ], [ %45, %39 ]
  %50 = icmp eq i32 %49, 0
  br i1 %50, label %51, label %52

51:                                               ; preds = %48
  tail call void @_ZNK3WTF10StringImpl18DestroyIfNotStaticEv(%"class.WTF::StringImpl"* nonnull %37) #15
  br label %52

52:                                               ; preds = %35, %48, %51
  ret void
}

; Function Attrs: nounwind ssp uwtable
define hidden i64 @_ZNK22memory_instrumentation5mojom5blink8VmRegion4HashEm(%"class.memory_instrumentation::mojom::blink::VmRegion"* nocapture readonly, i64) local_unnamed_addr #3 align 2 {
  %3 = getelementptr inbounds %"class.memory_instrumentation::mojom::blink::VmRegion", %"class.memory_instrumentation::mojom::blink::VmRegion"* %0, i64 0, i32 0
  %4 = load i64, i64* %3, align 8
  %5 = shl i64 %1, 6
  %6 = lshr i64 %1, 2
  %7 = add i64 %6, %5
  %8 = add i64 %7, %4
  %9 = xor i64 %8, %1
  %10 = getelementptr inbounds %"class.memory_instrumentation::mojom::blink::VmRegion", %"class.memory_instrumentation::mojom::blink::VmRegion"* %0, i64 0, i32 1
  %11 = load i64, i64* %10, align 8
  %12 = shl i64 %9, 6
  %13 = lshr i64 %9, 2
  %14 = add i64 %12, %11
  %15 = add i64 %14, %13
  %16 = xor i64 %15, %9
  %17 = getelementptr inbounds %"class.memory_instrumentation::mojom::blink::VmRegion", %"class.memory_instrumentation::mojom::blink::VmRegion"* %0, i64 0, i32 2
  %18 = load i64, i64* %17, align 8
  %19 = shl i64 %16, 6
  %20 = lshr i64 %16, 2
  %21 = add i64 %19, %18
  %22 = add i64 %21, %20
  %23 = xor i64 %22, %16
  %24 = getelementptr inbounds %"class.memory_instrumentation::mojom::blink::VmRegion", %"class.memory_instrumentation::mojom::blink::VmRegion"* %0, i64 0, i32 3, i32 0, i32 0
  %25 = load %"class.WTF::StringImpl"*, %"class.WTF::StringImpl"** %24, align 8
  %26 = getelementptr inbounds %"class.WTF::StringImpl", %"class.WTF::StringImpl"* %25, i64 0, i32 2, i32 0, i32 0, i32 0, i32 0, i32 0
  %27 = load atomic i32, i32* %26 monotonic, align 4
  %28 = lshr i32 %27, 8
  %29 = icmp eq i32 %28, 0
  br i1 %29, label %30, label %32

30:                                               ; preds = %2
  %31 = tail call i32 @_ZNK3WTF10StringImpl12HashSlowCaseEv(%"class.WTF::StringImpl"* %25) #15
  br label %32

32:                                               ; preds = %2, %30
  %33 = phi i32 [ %31, %30 ], [ %28, %2 ]
  %34 = zext i32 %33 to i64
  %35 = shl i64 %23, 6
  %36 = lshr i64 %23, 2
  %37 = add i64 %36, %35
  %38 = add i64 %37, %34
  %39 = xor i64 %38, %23
  %40 = getelementptr inbounds %"class.memory_instrumentation::mojom::blink::VmRegion", %"class.memory_instrumentation::mojom::blink::VmRegion"* %0, i64 0, i32 4, i32 0, i32 0
  %41 = load %"class.WTF::StringImpl"*, %"class.WTF::StringImpl"** %40, align 8
  %42 = getelementptr inbounds %"class.WTF::StringImpl", %"class.WTF::StringImpl"* %41, i64 0, i32 2, i32 0, i32 0, i32 0, i32 0, i32 0
  %43 = load atomic i32, i32* %42 monotonic, align 4
  %44 = lshr i32 %43, 8
  %45 = icmp eq i32 %44, 0
  br i1 %45, label %46, label %48

46:                                               ; preds = %32
  %47 = tail call i32 @_ZNK3WTF10StringImpl12HashSlowCaseEv(%"class.WTF::StringImpl"* %41) #15
  br label %48

48:                                               ; preds = %32, %46
  %49 = phi i32 [ %47, %46 ], [ %44, %32 ]
  %50 = zext i32 %49 to i64
  %51 = shl i64 %39, 6
  %52 = lshr i64 %39, 2
  %53 = add i64 %52, %51
  %54 = add i64 %53, %50
  %55 = xor i64 %54, %39
  %56 = getelementptr inbounds %"class.memory_instrumentation::mojom::blink::VmRegion", %"class.memory_instrumentation::mojom::blink::VmRegion"* %0, i64 0, i32 5
  %57 = load i32, i32* %56, align 4
  %58 = zext i32 %57 to i64
  %59 = shl i64 %55, 6
  %60 = lshr i64 %55, 2
  %61 = add i64 %59, %58
  %62 = add i64 %61, %60
  %63 = xor i64 %62, %55
  %64 = getelementptr inbounds %"class.memory_instrumentation::mojom::blink::VmRegion", %"class.memory_instrumentation::mojom::blink::VmRegion"* %0, i64 0, i32 6, i32 0, i32 0
  %65 = load %"class.WTF::StringImpl"*, %"class.WTF::StringImpl"** %64, align 8
  %66 = getelementptr inbounds %"class.WTF::StringImpl", %"class.WTF::StringImpl"* %65, i64 0, i32 2, i32 0, i32 0, i32 0, i32 0, i32 0
  %67 = load atomic i32, i32* %66 monotonic, align 4
  %68 = lshr i32 %67, 8
  %69 = icmp eq i32 %68, 0
  br i1 %69, label %70, label %72

70:                                               ; preds = %48
  %71 = tail call i32 @_ZNK3WTF10StringImpl12HashSlowCaseEv(%"class.WTF::StringImpl"* %65) #15
  br label %72

72:                                               ; preds = %48, %70
  %73 = phi i32 [ %71, %70 ], [ %68, %48 ]
  %74 = zext i32 %73 to i64
  %75 = shl i64 %63, 6
  %76 = lshr i64 %63, 2
  %77 = add i64 %76, %75
  %78 = add i64 %77, %74
  %79 = xor i64 %78, %63
  %80 = getelementptr inbounds %"class.memory_instrumentation::mojom::blink::VmRegion", %"class.memory_instrumentation::mojom::blink::VmRegion"* %0, i64 0, i32 7
  %81 = load i64, i64* %80, align 8
  %82 = shl i64 %79, 6
  %83 = lshr i64 %79, 2
  %84 = add i64 %82, %81
  %85 = add i64 %84, %83
  %86 = xor i64 %85, %79
  %87 = getelementptr inbounds %"class.memory_instrumentation::mojom::blink::VmRegion", %"class.memory_instrumentation::mojom::blink::VmRegion"* %0, i64 0, i32 8
  %88 = load i64, i64* %87, align 8
  %89 = shl i64 %86, 6
  %90 = lshr i64 %86, 2
  %91 = add i64 %89, %88
  %92 = add i64 %91, %90
  %93 = xor i64 %92, %86
  %94 = getelementptr inbounds %"class.memory_instrumentation::mojom::blink::VmRegion", %"class.memory_instrumentation::mojom::blink::VmRegion"* %0, i64 0, i32 9
  %95 = load i64, i64* %94, align 8
  %96 = shl i64 %93, 6
  %97 = lshr i64 %93, 2
  %98 = add i64 %96, %95
  %99 = add i64 %98, %97
  %100 = xor i64 %99, %93
  %101 = getelementptr inbounds %"class.memory_instrumentation::mojom::blink::VmRegion", %"class.memory_instrumentation::mojom::blink::VmRegion"* %0, i64 0, i32 10
  %102 = load i64, i64* %101, align 8
  %103 = shl i64 %100, 6
  %104 = lshr i64 %100, 2
  %105 = add i64 %103, %102
  %106 = add i64 %105, %104
  %107 = xor i64 %106, %100
  %108 = getelementptr inbounds %"class.memory_instrumentation::mojom::blink::VmRegion", %"class.memory_instrumentation::mojom::blink::VmRegion"* %0, i64 0, i32 11
  %109 = load i64, i64* %108, align 8
  %110 = shl i64 %107, 6
  %111 = lshr i64 %107, 2
  %112 = add i64 %110, %109
  %113 = add i64 %112, %111
  %114 = xor i64 %113, %107
  %115 = getelementptr inbounds %"class.memory_instrumentation::mojom::blink::VmRegion", %"class.memory_instrumentation::mojom::blink::VmRegion"* %0, i64 0, i32 12
  %116 = load i64, i64* %115, align 8
  %117 = shl i64 %114, 6
  %118 = lshr i64 %114, 2
  %119 = add i64 %117, %116
  %120 = add i64 %119, %118
  %121 = xor i64 %120, %114
  %122 = getelementptr inbounds %"class.memory_instrumentation::mojom::blink::VmRegion", %"class.memory_instrumentation::mojom::blink::VmRegion"* %0, i64 0, i32 13
  %123 = load i64, i64* %122, align 8
  %124 = shl i64 %121, 6
  %125 = lshr i64 %121, 2
  %126 = add i64 %124, %123
  %127 = add i64 %126, %125
  %128 = xor i64 %127, %121
  ret i64 %128
}

; Function Attrs: nounwind ssp uwtable
define hidden void @_ZNK22memory_instrumentation5mojom5blink8VmRegion14WriteIntoTraceEN8perfetto11TracedValueE(%"class.memory_instrumentation::mojom::blink::VmRegion"*, %"class.perfetto::TracedValue"*) local_unnamed_addr #3 align 2 {
  %3 = alloca %"class.perfetto::TracedValue", align 8
  %4 = alloca %"class.perfetto::TracedValue", align 8
  %5 = alloca %"class.perfetto::TracedValue", align 8
  %6 = alloca %"class.perfetto::TracedValue", align 8
  %7 = alloca %"class.perfetto::TracedValue", align 8
  %8 = alloca %"class.perfetto::TracedValue", align 8
  %9 = alloca %"class.perfetto::TracedValue", align 8
  %10 = alloca %"class.perfetto::TracedValue", align 8
  %11 = alloca %"class.perfetto::TracedValue", align 8
  %12 = alloca %"class.perfetto::TracedValue", align 8
  %13 = alloca %"class.perfetto::TracedValue", align 8
  %14 = alloca %"class.perfetto::TracedValue", align 8
  %15 = alloca %"class.perfetto::TracedValue", align 8
  %16 = alloca %"class.perfetto::TracedValue", align 8
  %17 = alloca %"class.perfetto::TracedDictionary", align 8
  %18 = alloca %"class.perfetto::TracedValue", align 8
  %19 = alloca %"class.perfetto::TracedValue", align 8
  %20 = alloca %"class.perfetto::TracedValue", align 8
  %21 = alloca %"class.perfetto::TracedValue", align 8
  %22 = alloca %"class.perfetto::TracedValue", align 8
  %23 = alloca %"class.perfetto::TracedValue", align 8
  %24 = alloca %"class.perfetto::TracedValue", align 8
  %25 = alloca %"class.perfetto::TracedValue", align 8
  %26 = alloca %"class.perfetto::TracedValue", align 8
  %27 = alloca %"class.perfetto::TracedValue", align 8
  %28 = alloca %"class.perfetto::TracedValue", align 8
  %29 = alloca %"class.perfetto::TracedValue", align 8
  %30 = alloca %"class.perfetto::TracedValue", align 8
  %31 = alloca %"class.perfetto::TracedValue", align 8
  %32 = bitcast %"class.perfetto::TracedDictionary"* %17 to i8*
  call void @llvm.lifetime.start.p0i8(i64 16, i8* nonnull %32) #15
  %33 = bitcast %"class.perfetto::TracedDictionary"* %17 to i8*
  call void @llvm.memset.p0i8.i64(i8* nonnull align 8 %33, i8 -86, i64 16, i1 false)
  call void @_ZNO8perfetto11TracedValue15WriteDictionaryEv(%"class.perfetto::TracedDictionary"* nonnull sret %17, %"class.perfetto::TracedValue"* %1) #15
  call void @_ZN8perfetto16TracedDictionary7AddItemENS_12StaticStringE(%"class.perfetto::TracedValue"* nonnull sret %18, %"class.perfetto::TracedDictionary"* nonnull %17, i8* getelementptr inbounds ([14 x i8], [14 x i8]* @.str.18, i64 0, i64 0)) #15
  %34 = getelementptr inbounds %"class.memory_instrumentation::mojom::blink::VmRegion", %"class.memory_instrumentation::mojom::blink::VmRegion"* %0, i64 0, i32 0
  %35 = bitcast %"class.perfetto::TracedValue"* %18 to i8*
  %36 = bitcast %"class.perfetto::TracedValue"* %15 to i8*
  call void @llvm.lifetime.start.p0i8(i64 16, i8* nonnull %36) #15
  call void @llvm.memcpy.p0i8.p0i8.i64(i8* nonnull align 8 %36, i8* nonnull align 8 %35, i64 16, i1 false) #15
  %37 = load i64, i64* %34, align 8
  call void @_ZNO8perfetto11TracedValue11WriteUInt64Em(%"class.perfetto::TracedValue"* nonnull %15, i64 %37) #15
  call void @llvm.lifetime.end.p0i8(i64 16, i8* nonnull %36) #15
  call void @_ZN8perfetto16TracedDictionary7AddItemENS_12StaticStringE(%"class.perfetto::TracedValue"* nonnull sret %19, %"class.perfetto::TracedDictionary"* nonnull %17, i8* getelementptr inbounds ([14 x i8], [14 x i8]* @.str.19, i64 0, i64 0)) #15
  %38 = getelementptr inbounds %"class.memory_instrumentation::mojom::blink::VmRegion", %"class.memory_instrumentation::mojom::blink::VmRegion"* %0, i64 0, i32 1
  %39 = bitcast %"class.perfetto::TracedValue"* %19 to i8*
  %40 = bitcast %"class.perfetto::TracedValue"* %14 to i8*
  call void @llvm.lifetime.start.p0i8(i64 16, i8* nonnull %40) #15
  call void @llvm.memcpy.p0i8.p0i8.i64(i8* nonnull align 8 %40, i8* nonnull align 8 %39, i64 16, i1 false) #15
  %41 = load i64, i64* %38, align 8
  call void @_ZNO8perfetto11TracedValue11WriteUInt64Em(%"class.perfetto::TracedValue"* nonnull %14, i64 %41) #15
  call void @llvm.lifetime.end.p0i8(i64 16, i8* nonnull %40) #15
  call void @_ZN8perfetto16TracedDictionary7AddItemENS_12StaticStringE(%"class.perfetto::TracedValue"* nonnull sret %20, %"class.perfetto::TracedDictionary"* nonnull %17, i8* getelementptr inbounds ([17 x i8], [17 x i8]* @.str.20, i64 0, i64 0)) #15
  %42 = getelementptr inbounds %"class.memory_instrumentation::mojom::blink::VmRegion", %"class.memory_instrumentation::mojom::blink::VmRegion"* %0, i64 0, i32 2
  %43 = bitcast %"class.perfetto::TracedValue"* %20 to i8*
  %44 = bitcast %"class.perfetto::TracedValue"* %13 to i8*
  call void @llvm.lifetime.start.p0i8(i64 16, i8* nonnull %44) #15
  call void @llvm.memcpy.p0i8.p0i8.i64(i8* nonnull align 8 %44, i8* nonnull align 8 %43, i64 16, i1 false) #15
  %45 = load i64, i64* %42, align 8
  call void @_ZNO8perfetto11TracedValue11WriteUInt64Em(%"class.perfetto::TracedValue"* nonnull %13, i64 %45) #15
  call void @llvm.lifetime.end.p0i8(i64 16, i8* nonnull %44) #15
  call void @_ZN8perfetto16TracedDictionary7AddItemENS_12StaticStringE(%"class.perfetto::TracedValue"* nonnull sret %21, %"class.perfetto::TracedDictionary"* nonnull %17, i8* getelementptr inbounds ([15 x i8], [15 x i8]* @.str.21, i64 0, i64 0)) #15
  %46 = getelementptr inbounds %"class.memory_instrumentation::mojom::blink::VmRegion", %"class.memory_instrumentation::mojom::blink::VmRegion"* %0, i64 0, i32 3
  %47 = bitcast %"class.perfetto::TracedValue"* %21 to i8*
  %48 = bitcast %"class.perfetto::TracedValue"* %12 to i8*
  call void @llvm.lifetime.start.p0i8(i64 16, i8* nonnull %48) #15
  call void @llvm.memcpy.p0i8.p0i8.i64(i8* nonnull align 8 %48, i8* nonnull align 8 %47, i64 16, i1 false) #15
  call void @_ZNK3WTF6String14WriteIntoTraceEN8perfetto11TracedValueE(%"class.WTF::String"* %46, %"class.perfetto::TracedValue"* nonnull %12) #15
  call void @llvm.lifetime.end.p0i8(i64 16, i8* nonnull %48) #15
  call void @_ZN8perfetto16TracedDictionary7AddItemENS_12StaticStringE(%"class.perfetto::TracedValue"* nonnull sret %22, %"class.perfetto::TracedDictionary"* nonnull %17, i8* getelementptr inbounds ([18 x i8], [18 x i8]* @.str.22, i64 0, i64 0)) #15
  %49 = getelementptr inbounds %"class.memory_instrumentation::mojom::blink::VmRegion", %"class.memory_instrumentation::mojom::blink::VmRegion"* %0, i64 0, i32 4
  %50 = bitcast %"class.perfetto::TracedValue"* %22 to i8*
  %51 = bitcast %"class.perfetto::TracedValue"* %11 to i8*
  call void @llvm.lifetime.start.p0i8(i64 16, i8* nonnull %51) #15
  call void @llvm.memcpy.p0i8.p0i8.i64(i8* nonnull align 8 %51, i8* nonnull align 8 %50, i64 16, i1 false) #15
  call void @_ZNK3WTF6String14WriteIntoTraceEN8perfetto11TracedValueE(%"class.WTF::String"* %49, %"class.perfetto::TracedValue"* nonnull %11) #15
  call void @llvm.lifetime.end.p0i8(i64 16, i8* nonnull %51) #15
  call void @_ZN8perfetto16TracedDictionary7AddItemENS_12StaticStringE(%"class.perfetto::TracedValue"* nonnull sret %23, %"class.perfetto::TracedDictionary"* nonnull %17, i8* getelementptr inbounds ([17 x i8], [17 x i8]* @.str.23, i64 0, i64 0)) #15
  %52 = getelementptr inbounds %"class.memory_instrumentation::mojom::blink::VmRegion", %"class.memory_instrumentation::mojom::blink::VmRegion"* %0, i64 0, i32 5
  %53 = bitcast %"class.perfetto::TracedValue"* %23 to i8*
  %54 = bitcast %"class.perfetto::TracedValue"* %10 to i8*
  call void @llvm.lifetime.start.p0i8(i64 16, i8* nonnull %54) #15
  call void @llvm.memcpy.p0i8.p0i8.i64(i8* nonnull align 8 %54, i8* nonnull align 8 %53, i64 16, i1 false) #15
  %55 = load i32, i32* %52, align 4
  %56 = zext i32 %55 to i64
  call void @_ZNO8perfetto11TracedValue11WriteUInt64Em(%"class.perfetto::TracedValue"* nonnull %10, i64 %56) #15
  call void @llvm.lifetime.end.p0i8(i64 16, i8* nonnull %54) #15
  call void @_ZN8perfetto16TracedDictionary7AddItemENS_12StaticStringE(%"class.perfetto::TracedValue"* nonnull sret %24, %"class.perfetto::TracedDictionary"* nonnull %17, i8* getelementptr inbounds ([12 x i8], [12 x i8]* @.str.24, i64 0, i64 0)) #15
  %57 = getelementptr inbounds %"class.memory_instrumentation::mojom::blink::VmRegion", %"class.memory_instrumentation::mojom::blink::VmRegion"* %0, i64 0, i32 6
  %58 = bitcast %"class.perfetto::TracedValue"* %24 to i8*
  %59 = bitcast %"class.perfetto::TracedValue"* %9 to i8*
  call void @llvm.lifetime.start.p0i8(i64 16, i8* nonnull %59) #15
  call void @llvm.memcpy.p0i8.p0i8.i64(i8* nonnull align 8 %59, i8* nonnull align 8 %58, i64 16, i1 false) #15
  call void @_ZNK3WTF6String14WriteIntoTraceEN8perfetto11TracedValueE(%"class.WTF::String"* %57, %"class.perfetto::TracedValue"* nonnull %9) #15
  call void @llvm.lifetime.end.p0i8(i64 16, i8* nonnull %59) #15
  call void @_ZN8perfetto16TracedDictionary7AddItemENS_12StaticStringE(%"class.perfetto::TracedValue"* nonnull sret %25, %"class.perfetto::TracedDictionary"* nonnull %17, i8* getelementptr inbounds ([34 x i8], [34 x i8]* @.str.25, i64 0, i64 0)) #15
  %60 = getelementptr inbounds %"class.memory_instrumentation::mojom::blink::VmRegion", %"class.memory_instrumentation::mojom::blink::VmRegion"* %0, i64 0, i32 7
  %61 = bitcast %"class.perfetto::TracedValue"* %25 to i8*
  %62 = bitcast %"class.perfetto::TracedValue"* %8 to i8*
  call void @llvm.lifetime.start.p0i8(i64 16, i8* nonnull %62) #15
  call void @llvm.memcpy.p0i8.p0i8.i64(i8* nonnull align 8 %62, i8* nonnull align 8 %61, i64 16, i1 false) #15
  %63 = load i64, i64* %60, align 8
  call void @_ZNO8perfetto11TracedValue11WriteUInt64Em(%"class.perfetto::TracedValue"* nonnull %8, i64 %63) #15
  call void @llvm.lifetime.end.p0i8(i64 16, i8* nonnull %62) #15
  call void @_ZN8perfetto16TracedDictionary7AddItemENS_12StaticStringE(%"class.perfetto::TracedValue"* nonnull sret %26, %"class.perfetto::TracedDictionary"* nonnull %17, i8* getelementptr inbounds ([34 x i8], [34 x i8]* @.str.26, i64 0, i64 0)) #15
  %64 = getelementptr inbounds %"class.memory_instrumentation::mojom::blink::VmRegion", %"class.memory_instrumentation::mojom::blink::VmRegion"* %0, i64 0, i32 8
  %65 = bitcast %"class.perfetto::TracedValue"* %26 to i8*
  %66 = bitcast %"class.perfetto::TracedValue"* %7 to i8*
  call void @llvm.lifetime.start.p0i8(i64 16, i8* nonnull %66) #15
  call void @llvm.memcpy.p0i8.p0i8.i64(i8* nonnull align 8 %66, i8* nonnull align 8 %65, i64 16, i1 false) #15
  %67 = load i64, i64* %64, align 8
  call void @_ZNO8perfetto11TracedValue11WriteUInt64Em(%"class.perfetto::TracedValue"* nonnull %7, i64 %67) #15
  call void @llvm.lifetime.end.p0i8(i64 16, i8* nonnull %66) #15
  call void @_ZN8perfetto16TracedDictionary7AddItemENS_12StaticStringE(%"class.perfetto::TracedValue"* nonnull sret %27, %"class.perfetto::TracedDictionary"* nonnull %17, i8* getelementptr inbounds ([33 x i8], [33 x i8]* @.str.27, i64 0, i64 0)) #15
  %68 = getelementptr inbounds %"class.memory_instrumentation::mojom::blink::VmRegion", %"class.memory_instrumentation::mojom::blink::VmRegion"* %0, i64 0, i32 9
  %69 = bitcast %"class.perfetto::TracedValue"* %27 to i8*
  %70 = bitcast %"class.perfetto::TracedValue"* %6 to i8*
  call void @llvm.lifetime.start.p0i8(i64 16, i8* nonnull %70) #15
  call void @llvm.memcpy.p0i8.p0i8.i64(i8* nonnull align 8 %70, i8* nonnull align 8 %69, i64 16, i1 false) #15
  %71 = load i64, i64* %68, align 8
  call void @_ZNO8perfetto11TracedValue11WriteUInt64Em(%"class.perfetto::TracedValue"* nonnull %6, i64 %71) #15
  call void @llvm.lifetime.end.p0i8(i64 16, i8* nonnull %70) #15
  call void @_ZN8perfetto16TracedDictionary7AddItemENS_12StaticStringE(%"class.perfetto::TracedValue"* nonnull sret %28, %"class.perfetto::TracedDictionary"* nonnull %17, i8* getelementptr inbounds ([33 x i8], [33 x i8]* @.str.28, i64 0, i64 0)) #15
  %72 = getelementptr inbounds %"class.memory_instrumentation::mojom::blink::VmRegion", %"class.memory_instrumentation::mojom::blink::VmRegion"* %0, i64 0, i32 10
  %73 = bitcast %"class.perfetto::TracedValue"* %28 to i8*
  %74 = bitcast %"class.perfetto::TracedValue"* %5 to i8*
  call void @llvm.lifetime.start.p0i8(i64 16, i8* nonnull %74) #15
  call void @llvm.memcpy.p0i8.p0i8.i64(i8* nonnull align 8 %74, i8* nonnull align 8 %73, i64 16, i1 false) #15
  %75 = load i64, i64* %72, align 8
  call void @_ZNO8perfetto11TracedValue11WriteUInt64Em(%"class.perfetto::TracedValue"* nonnull %5, i64 %75) #15
  call void @llvm.lifetime.end.p0i8(i64 16, i8* nonnull %74) #15
  call void @_ZN8perfetto16TracedDictionary7AddItemENS_12StaticStringE(%"class.perfetto::TracedValue"* nonnull sret %29, %"class.perfetto::TracedDictionary"* nonnull %17, i8* getelementptr inbounds ([19 x i8], [19 x i8]* @.str.29, i64 0, i64 0)) #15
  %76 = getelementptr inbounds %"class.memory_instrumentation::mojom::blink::VmRegion", %"class.memory_instrumentation::mojom::blink::VmRegion"* %0, i64 0, i32 11
  %77 = bitcast %"class.perfetto::TracedValue"* %29 to i8*
  %78 = bitcast %"class.perfetto::TracedValue"* %4 to i8*
  call void @llvm.lifetime.start.p0i8(i64 16, i8* nonnull %78) #15
  call void @llvm.memcpy.p0i8.p0i8.i64(i8* nonnull align 8 %78, i8* nonnull align 8 %77, i64 16, i1 false) #15
  %79 = load i64, i64* %76, align 8
  call void @_ZNO8perfetto11TracedValue11WriteUInt64Em(%"class.perfetto::TracedValue"* nonnull %4, i64 %79) #15
  call void @llvm.lifetime.end.p0i8(i64 16, i8* nonnull %78) #15
  call void @_ZN8perfetto16TracedDictionary7AddItemENS_12StaticStringE(%"class.perfetto::TracedValue"* nonnull sret %30, %"class.perfetto::TracedDictionary"* nonnull %17, i8* getelementptr inbounds ([12 x i8], [12 x i8]* @.str.30, i64 0, i64 0)) #15
  %80 = getelementptr inbounds %"class.memory_instrumentation::mojom::blink::VmRegion", %"class.memory_instrumentation::mojom::blink::VmRegion"* %0, i64 0, i32 12
  %81 = bitcast %"class.perfetto::TracedValue"* %30 to i8*
  %82 = bitcast %"class.perfetto::TracedValue"* %3 to i8*
  call void @llvm.lifetime.start.p0i8(i64 16, i8* nonnull %82) #15
  call void @llvm.memcpy.p0i8.p0i8.i64(i8* nonnull align 8 %82, i8* nonnull align 8 %81, i64 16, i1 false) #15
  %83 = load i64, i64* %80, align 8
  call void @_ZNO8perfetto11TracedValue11WriteUInt64Em(%"class.perfetto::TracedValue"* nonnull %3, i64 %83) #15
  call void @llvm.lifetime.end.p0i8(i64 16, i8* nonnull %82) #15
  call void @_ZN8perfetto16TracedDictionary7AddItemENS_12StaticStringE(%"class.perfetto::TracedValue"* nonnull sret %31, %"class.perfetto::TracedDictionary"* nonnull %17, i8* getelementptr inbounds ([33 x i8], [33 x i8]* @.str.31, i64 0, i64 0)) #15
  %84 = getelementptr inbounds %"class.memory_instrumentation::mojom::blink::VmRegion", %"class.memory_instrumentation::mojom::blink::VmRegion"* %0, i64 0, i32 13
  %85 = bitcast %"class.perfetto::TracedValue"* %31 to i8*
  %86 = bitcast %"class.perfetto::TracedValue"* %16 to i8*
  call void @llvm.lifetime.start.p0i8(i64 16, i8* nonnull %86) #15
  call void @llvm.memcpy.p0i8.p0i8.i64(i8* nonnull align 8 %86, i8* nonnull align 8 %85, i64 16, i1 false) #15
  %87 = load i64, i64* %84, align 8
  call void @_ZNO8perfetto11TracedValue11WriteUInt64Em(%"class.perfetto::TracedValue"* nonnull %16, i64 %87) #15
  call void @llvm.lifetime.end.p0i8(i64 16, i8* nonnull %86) #15
  call void @llvm.lifetime.end.p0i8(i64 16, i8* nonnull %32) #15
  ret void
}

; Function Attrs: nounwind ssp uwtable
define hidden zeroext i1 @_ZN22memory_instrumentation5mojom5blink8VmRegion8ValidateEPKvPN4mojo8internal17ValidationContextE(i8*, %"class.mojo::internal::ValidationContext"*) local_unnamed_addr #3 align 2 {
  %3 = tail call zeroext i1 @_ZN22memory_instrumentation5mojom8internal13VmRegion_Data8ValidateEPKvPN4mojo8internal17ValidationContextE(i8* %0, %"class.mojo::internal::ValidationContext"* %1) #15
  ret i1 %3
}

declare zeroext i1 @_ZN22memory_instrumentation5mojom8internal13VmRegion_Data8ValidateEPKvPN4mojo8internal17ValidationContextE(i8*, %"class.mojo::internal::ValidationContext"*) local_unnamed_addr #5

; Function Attrs: nofree norecurse nounwind ssp uwtable writeonly
define hidden void @_ZN22memory_instrumentation5mojom5blink24PlatformPrivateFootprintC2Ev(%"class.memory_instrumentation::mojom::blink::PlatformPrivateFootprint"* nocapture) unnamed_addr #0 align 2 {
  %2 = bitcast %"class.memory_instrumentation::mojom::blink::PlatformPrivateFootprint"* %0 to i8*
  call void @llvm.memset.p0i8.i64(i8* align 8 %2, i8 0, i64 48, i1 false)
  ret void
}

; Function Attrs: nofree norecurse nounwind ssp uwtable writeonly
define hidden void @_ZN22memory_instrumentation5mojom5blink24PlatformPrivateFootprintC2Emmmmmm(%"class.memory_instrumentation::mojom::blink::PlatformPrivateFootprint"* nocapture, i64, i64, i64, i64, i64, i64) unnamed_addr #0 align 2 {
  %8 = getelementptr inbounds %"class.memory_instrumentation::mojom::blink::PlatformPrivateFootprint", %"class.memory_instrumentation::mojom::blink::PlatformPrivateFootprint"* %0, i64 0, i32 0
  store i64 %1, i64* %8, align 8
  %9 = getelementptr inbounds %"class.memory_instrumentation::mojom::blink::PlatformPrivateFootprint", %"class.memory_instrumentation::mojom::blink::PlatformPrivateFootprint"* %0, i64 0, i32 1
  store i64 %2, i64* %9, align 8
  %10 = getelementptr inbounds %"class.memory_instrumentation::mojom::blink::PlatformPrivateFootprint", %"class.memory_instrumentation::mojom::blink::PlatformPrivateFootprint"* %0, i64 0, i32 2
  store i64 %3, i64* %10, align 8
  %11 = getelementptr inbounds %"class.memory_instrumentation::mojom::blink::PlatformPrivateFootprint", %"class.memory_instrumentation::mojom::blink::PlatformPrivateFootprint"* %0, i64 0, i32 3
  store i64 %4, i64* %11, align 8
  %12 = getelementptr inbounds %"class.memory_instrumentation::mojom::blink::PlatformPrivateFootprint", %"class.memory_instrumentation::mojom::blink::PlatformPrivateFootprint"* %0, i64 0, i32 4
  store i64 %5, i64* %12, align 8
  %13 = getelementptr inbounds %"class.memory_instrumentation::mojom::blink::PlatformPrivateFootprint", %"class.memory_instrumentation::mojom::blink::PlatformPrivateFootprint"* %0, i64 0, i32 5
  store i64 %6, i64* %13, align 8
  ret void
}

; Function Attrs: norecurse nounwind readnone ssp uwtable
define hidden void @_ZN22memory_instrumentation5mojom5blink24PlatformPrivateFootprintD2Ev(%"class.memory_instrumentation::mojom::blink::PlatformPrivateFootprint"* nocapture) unnamed_addr #1 align 2 {
  ret void
}

; Function Attrs: norecurse nounwind readonly ssp uwtable
define hidden i64 @_ZNK22memory_instrumentation5mojom5blink24PlatformPrivateFootprint4HashEm(%"class.memory_instrumentation::mojom::blink::PlatformPrivateFootprint"* nocapture readonly, i64) local_unnamed_addr #2 align 2 {
  %3 = getelementptr inbounds %"class.memory_instrumentation::mojom::blink::PlatformPrivateFootprint", %"class.memory_instrumentation::mojom::blink::PlatformPrivateFootprint"* %0, i64 0, i32 0
  %4 = load i64, i64* %3, align 8
  %5 = shl i64 %1, 6
  %6 = lshr i64 %1, 2
  %7 = add i64 %6, %5
  %8 = add i64 %7, %4
  %9 = xor i64 %8, %1
  %10 = getelementptr inbounds %"class.memory_instrumentation::mojom::blink::PlatformPrivateFootprint", %"class.memory_instrumentation::mojom::blink::PlatformPrivateFootprint"* %0, i64 0, i32 1
  %11 = load i64, i64* %10, align 8
  %12 = shl i64 %9, 6
  %13 = lshr i64 %9, 2
  %14 = add i64 %12, %11
  %15 = add i64 %14, %13
  %16 = xor i64 %15, %9
  %17 = getelementptr inbounds %"class.memory_instrumentation::mojom::blink::PlatformPrivateFootprint", %"class.memory_instrumentation::mojom::blink::PlatformPrivateFootprint"* %0, i64 0, i32 2
  %18 = load i64, i64* %17, align 8
  %19 = shl i64 %16, 6
  %20 = lshr i64 %16, 2
  %21 = add i64 %19, %18
  %22 = add i64 %21, %20
  %23 = xor i64 %22, %16
  %24 = getelementptr inbounds %"class.memory_instrumentation::mojom::blink::PlatformPrivateFootprint", %"class.memory_instrumentation::mojom::blink::PlatformPrivateFootprint"* %0, i64 0, i32 3
  %25 = load i64, i64* %24, align 8
  %26 = shl i64 %23, 6
  %27 = lshr i64 %23, 2
  %28 = add i64 %26, %25
  %29 = add i64 %28, %27
  %30 = xor i64 %29, %23
  %31 = getelementptr inbounds %"class.memory_instrumentation::mojom::blink::PlatformPrivateFootprint", %"class.memory_instrumentation::mojom::blink::PlatformPrivateFootprint"* %0, i64 0, i32 4
  %32 = load i64, i64* %31, align 8
  %33 = shl i64 %30, 6
  %34 = lshr i64 %30, 2
  %35 = add i64 %33, %32
  %36 = add i64 %35, %34
  %37 = xor i64 %36, %30
  %38 = getelementptr inbounds %"class.memory_instrumentation::mojom::blink::PlatformPrivateFootprint", %"class.memory_instrumentation::mojom::blink::PlatformPrivateFootprint"* %0, i64 0, i32 5
  %39 = load i64, i64* %38, align 8
  %40 = shl i64 %37, 6
  %41 = lshr i64 %37, 2
  %42 = add i64 %40, %39
  %43 = add i64 %42, %41
  %44 = xor i64 %43, %37
  ret i64 %44
}

; Function Attrs: nounwind ssp uwtable
define hidden void @_ZNK22memory_instrumentation5mojom5blink24PlatformPrivateFootprint14WriteIntoTraceEN8perfetto11TracedValueE(%"class.memory_instrumentation::mojom::blink::PlatformPrivateFootprint"* nocapture readonly, %"class.perfetto::TracedValue"*) local_unnamed_addr #3 align 2 {
  %3 = alloca %"class.perfetto::TracedValue", align 8
  %4 = alloca %"class.perfetto::TracedValue", align 8
  %5 = alloca %"class.perfetto::TracedValue", align 8
  %6 = alloca %"class.perfetto::TracedValue", align 8
  %7 = alloca %"class.perfetto::TracedValue", align 8
  %8 = alloca %"class.perfetto::TracedValue", align 8
  %9 = alloca %"class.perfetto::TracedDictionary", align 8
  %10 = alloca %"class.perfetto::TracedValue", align 8
  %11 = alloca %"class.perfetto::TracedValue", align 8
  %12 = alloca %"class.perfetto::TracedValue", align 8
  %13 = alloca %"class.perfetto::TracedValue", align 8
  %14 = alloca %"class.perfetto::TracedValue", align 8
  %15 = alloca %"class.perfetto::TracedValue", align 8
  %16 = bitcast %"class.perfetto::TracedDictionary"* %9 to i8*
  call void @llvm.lifetime.start.p0i8(i64 16, i8* nonnull %16) #15
  %17 = bitcast %"class.perfetto::TracedDictionary"* %9 to i8*
  call void @llvm.memset.p0i8.i64(i8* nonnull align 8 %17, i8 -86, i64 16, i1 false)
  call void @_ZNO8perfetto11TracedValue15WriteDictionaryEv(%"class.perfetto::TracedDictionary"* nonnull sret %9, %"class.perfetto::TracedValue"* %1) #15
  call void @_ZN8perfetto16TracedDictionary7AddItemENS_12StaticStringE(%"class.perfetto::TracedValue"* nonnull sret %10, %"class.perfetto::TracedDictionary"* nonnull %9, i8* getelementptr inbounds ([21 x i8], [21 x i8]* @.str.32, i64 0, i64 0)) #15
  %18 = getelementptr inbounds %"class.memory_instrumentation::mojom::blink::PlatformPrivateFootprint", %"class.memory_instrumentation::mojom::blink::PlatformPrivateFootprint"* %0, i64 0, i32 0
  %19 = bitcast %"class.perfetto::TracedValue"* %10 to i8*
  %20 = bitcast %"class.perfetto::TracedValue"* %7 to i8*
  call void @llvm.lifetime.start.p0i8(i64 16, i8* nonnull %20) #15
  call void @llvm.memcpy.p0i8.p0i8.i64(i8* nonnull align 8 %20, i8* nonnull align 8 %19, i64 16, i1 false) #15
  %21 = load i64, i64* %18, align 8
  call void @_ZNO8perfetto11TracedValue11WriteUInt64Em(%"class.perfetto::TracedValue"* nonnull %7, i64 %21) #15
  call void @llvm.lifetime.end.p0i8(i64 16, i8* nonnull %20) #15
  call void @_ZN8perfetto16TracedDictionary7AddItemENS_12StaticStringE(%"class.perfetto::TracedValue"* nonnull sret %11, %"class.perfetto::TracedDictionary"* nonnull %9, i8* getelementptr inbounds ([15 x i8], [15 x i8]* @.str.33, i64 0, i64 0)) #15
  %22 = getelementptr inbounds %"class.memory_instrumentation::mojom::blink::PlatformPrivateFootprint", %"class.memory_instrumentation::mojom::blink::PlatformPrivateFootprint"* %0, i64 0, i32 1
  %23 = bitcast %"class.perfetto::TracedValue"* %11 to i8*
  %24 = bitcast %"class.perfetto::TracedValue"* %6 to i8*
  call void @llvm.lifetime.start.p0i8(i64 16, i8* nonnull %24) #15
  call void @llvm.memcpy.p0i8.p0i8.i64(i8* nonnull align 8 %24, i8* nonnull align 8 %23, i64 16, i1 false) #15
  %25 = load i64, i64* %22, align 8
  call void @_ZNO8perfetto11TracedValue11WriteUInt64Em(%"class.perfetto::TracedValue"* nonnull %6, i64 %25) #15
  call void @llvm.lifetime.end.p0i8(i64 16, i8* nonnull %24) #15
  call void @_ZN8perfetto16TracedDictionary7AddItemENS_12StaticStringE(%"class.perfetto::TracedValue"* nonnull sret %12, %"class.perfetto::TracedDictionary"* nonnull %9, i8* getelementptr inbounds ([17 x i8], [17 x i8]* @.str.34, i64 0, i64 0)) #15
  %26 = getelementptr inbounds %"class.memory_instrumentation::mojom::blink::PlatformPrivateFootprint", %"class.memory_instrumentation::mojom::blink::PlatformPrivateFootprint"* %0, i64 0, i32 2
  %27 = bitcast %"class.perfetto::TracedValue"* %12 to i8*
  %28 = bitcast %"class.perfetto::TracedValue"* %5 to i8*
  call void @llvm.lifetime.start.p0i8(i64 16, i8* nonnull %28) #15
  call void @llvm.memcpy.p0i8.p0i8.i64(i8* nonnull align 8 %28, i8* nonnull align 8 %27, i64 16, i1 false) #15
  %29 = load i64, i64* %26, align 8
  call void @_ZNO8perfetto11TracedValue11WriteUInt64Em(%"class.perfetto::TracedValue"* nonnull %5, i64 %29) #15
  call void @llvm.lifetime.end.p0i8(i64 16, i8* nonnull %28) #15
  call void @_ZN8perfetto16TracedDictionary7AddItemENS_12StaticStringE(%"class.perfetto::TracedValue"* nonnull sret %13, %"class.perfetto::TracedDictionary"* nonnull %9, i8* getelementptr inbounds ([15 x i8], [15 x i8]* @.str.35, i64 0, i64 0)) #15
  %30 = getelementptr inbounds %"class.memory_instrumentation::mojom::blink::PlatformPrivateFootprint", %"class.memory_instrumentation::mojom::blink::PlatformPrivateFootprint"* %0, i64 0, i32 3
  %31 = bitcast %"class.perfetto::TracedValue"* %13 to i8*
  %32 = bitcast %"class.perfetto::TracedValue"* %4 to i8*
  call void @llvm.lifetime.start.p0i8(i64 16, i8* nonnull %32) #15
  call void @llvm.memcpy.p0i8.p0i8.i64(i8* nonnull align 8 %32, i8* nonnull align 8 %31, i64 16, i1 false) #15
  %33 = load i64, i64* %30, align 8
  call void @_ZNO8perfetto11TracedValue11WriteUInt64Em(%"class.perfetto::TracedValue"* nonnull %4, i64 %33) #15
  call void @llvm.lifetime.end.p0i8(i64 16, i8* nonnull %32) #15
  call void @_ZN8perfetto16TracedDictionary7AddItemENS_12StaticStringE(%"class.perfetto::TracedValue"* nonnull sret %14, %"class.perfetto::TracedDictionary"* nonnull %9, i8* getelementptr inbounds ([14 x i8], [14 x i8]* @.str.36, i64 0, i64 0)) #15
  %34 = getelementptr inbounds %"class.memory_instrumentation::mojom::blink::PlatformPrivateFootprint", %"class.memory_instrumentation::mojom::blink::PlatformPrivateFootprint"* %0, i64 0, i32 4
  %35 = bitcast %"class.perfetto::TracedValue"* %14 to i8*
  %36 = bitcast %"class.perfetto::TracedValue"* %3 to i8*
  call void @llvm.lifetime.start.p0i8(i64 16, i8* nonnull %36) #15
  call void @llvm.memcpy.p0i8.p0i8.i64(i8* nonnull align 8 %36, i8* nonnull align 8 %35, i64 16, i1 false) #15
  %37 = load i64, i64* %34, align 8
  call void @_ZNO8perfetto11TracedValue11WriteUInt64Em(%"class.perfetto::TracedValue"* nonnull %3, i64 %37) #15
  call void @llvm.lifetime.end.p0i8(i64 16, i8* nonnull %36) #15
  call void @_ZN8perfetto16TracedDictionary7AddItemENS_12StaticStringE(%"class.perfetto::TracedValue"* nonnull sret %15, %"class.perfetto::TracedDictionary"* nonnull %9, i8* getelementptr inbounds ([14 x i8], [14 x i8]* @.str.37, i64 0, i64 0)) #15
  %38 = getelementptr inbounds %"class.memory_instrumentation::mojom::blink::PlatformPrivateFootprint", %"class.memory_instrumentation::mojom::blink::PlatformPrivateFootprint"* %0, i64 0, i32 5
  %39 = bitcast %"class.perfetto::TracedValue"* %15 to i8*
  %40 = bitcast %"class.perfetto::TracedValue"* %8 to i8*
  call void @llvm.lifetime.start.p0i8(i64 16, i8* nonnull %40) #15
  call void @llvm.memcpy.p0i8.p0i8.i64(i8* nonnull align 8 %40, i8* nonnull align 8 %39, i64 16, i1 false) #15
  %41 = load i64, i64* %38, align 8
  call void @_ZNO8perfetto11TracedValue11WriteUInt64Em(%"class.perfetto::TracedValue"* nonnull %8, i64 %41) #15
  call void @llvm.lifetime.end.p0i8(i64 16, i8* nonnull %40) #15
  call void @llvm.lifetime.end.p0i8(i64 16, i8* nonnull %16) #15
  ret void
}

; Function Attrs: nounwind ssp uwtable
define hidden zeroext i1 @_ZN22memory_instrumentation5mojom5blink24PlatformPrivateFootprint8ValidateEPKvPN4mojo8internal17ValidationContextE(i8*, %"class.mojo::internal::ValidationContext"*) local_unnamed_addr #3 align 2 {
  %3 = tail call zeroext i1 @_ZN22memory_instrumentation5mojom8internal29PlatformPrivateFootprint_Data8ValidateEPKvPN4mojo8internal17ValidationContextE(i8* %0, %"class.mojo::internal::ValidationContext"* %1) #15
  ret i1 %3
}

declare zeroext i1 @_ZN22memory_instrumentation5mojom8internal29PlatformPrivateFootprint_Data8ValidateEPKvPN4mojo8internal17ValidationContextE(i8*, %"class.mojo::internal::ValidationContext"*) local_unnamed_addr #5

; Function Attrs: nounwind ssp uwtable
define hidden void @_ZN22memory_instrumentation5mojom5blink12RawOSMemDumpC2Ev(%"class.memory_instrumentation::mojom::blink::RawOSMemDump"* nocapture) unnamed_addr #3 align 2 {
  %2 = getelementptr inbounds %"class.memory_instrumentation::mojom::blink::RawOSMemDump", %"class.memory_instrumentation::mojom::blink::RawOSMemDump"* %0, i64 0, i32 3
  %3 = bitcast %"class.memory_instrumentation::mojom::blink::RawOSMemDump"* %0 to i8*
  call void @llvm.memset.p0i8.i64(i8* align 8 %3, i8 0, i64 9, i1 false)
  %4 = bitcast %"class.mojo::StructPtr.58"* %2 to i8*
  call void @llvm.memset.p0i8.i64(i8* align 8 %4, i8 0, i64 40, i1 false)
  ret void
}

; Function Attrs: nounwind ssp uwtable
define hidden void @_ZN22memory_instrumentation5mojom5blink12RawOSMemDumpC2EjjbN4mojo9StructPtrINS1_24PlatformPrivateFootprintEEEN3WTF6VectorINS4_INS1_8VmRegionEEELj0ENS7_18PartitionAllocatorEEENS8_IhLj0ESB_EE(%"class.memory_instrumentation::mojom::blink::RawOSMemDump"* nocapture, i32, i32, i1 zeroext, %"class.mojo::StructPtr.58"* nocapture, %"class.WTF::Vector.65"* nocapture, %"class.WTF::Vector.77"* nocapture) unnamed_addr #3 align 2 {
  %8 = zext i1 %3 to i8
  %9 = getelementptr inbounds %"class.memory_instrumentation::mojom::blink::RawOSMemDump", %"class.memory_instrumentation::mojom::blink::RawOSMemDump"* %0, i64 0, i32 0
  store i32 %1, i32* %9, align 8
  %10 = getelementptr inbounds %"class.memory_instrumentation::mojom::blink::RawOSMemDump", %"class.memory_instrumentation::mojom::blink::RawOSMemDump"* %0, i64 0, i32 1
  store i32 %2, i32* %10, align 4
  %11 = getelementptr inbounds %"class.memory_instrumentation::mojom::blink::RawOSMemDump", %"class.memory_instrumentation::mojom::blink::RawOSMemDump"* %0, i64 0, i32 2
  store i8 %8, i8* %11, align 8
  %12 = getelementptr inbounds %"class.memory_instrumentation::mojom::blink::RawOSMemDump", %"class.memory_instrumentation::mojom::blink::RawOSMemDump"* %0, i64 0, i32 3
  %13 = bitcast %"class.mojo::StructPtr.58"* %12 to i64*
  %14 = getelementptr inbounds %"class.mojo::StructPtr.58", %"class.mojo::StructPtr.58"* %12, i64 0, i32 0, i32 0, i32 0, i32 0
  store %"class.memory_instrumentation::mojom::blink::PlatformPrivateFootprint"* null, %"class.memory_instrumentation::mojom::blink::PlatformPrivateFootprint"** %14, align 8
  %15 = bitcast %"class.mojo::StructPtr.58"* %4 to i64*
  %16 = load i64, i64* %15, align 8
  store i64 %16, i64* %13, align 8
  store i64 0, i64* %15, align 8
  %17 = getelementptr inbounds %"class.memory_instrumentation::mojom::blink::RawOSMemDump", %"class.memory_instrumentation::mojom::blink::RawOSMemDump"* %0, i64 0, i32 4
  %18 = getelementptr inbounds %"class.memory_instrumentation::mojom::blink::RawOSMemDump", %"class.memory_instrumentation::mojom::blink::RawOSMemDump"* %0, i64 0, i32 4, i32 0, i32 0, i32 1
  %19 = getelementptr inbounds %"class.memory_instrumentation::mojom::blink::RawOSMemDump", %"class.memory_instrumentation::mojom::blink::RawOSMemDump"* %0, i64 0, i32 4, i32 0, i32 0, i32 2
  %20 = bitcast %"class.WTF::Vector.65"* %5 to i64*
  %21 = bitcast %"class.WTF::Vector.65"* %17 to i8*
  tail call void @llvm.memset.p0i8.i64(i8* align 8 %21, i8 0, i64 16, i1 false) #15
  %22 = load i64, i64* %20, align 8
  %23 = bitcast %"class.WTF::Vector.65"* %17 to i64*
  store atomic i64 0, i64* %20 monotonic, align 8
  store atomic i64 %22, i64* %23 monotonic, align 8
  %24 = getelementptr inbounds %"class.WTF::Vector.65", %"class.WTF::Vector.65"* %5, i64 0, i32 0, i32 0, i32 1
  %25 = load i32, i32* %18, align 4
  %26 = load i32, i32* %24, align 4
  store i32 %26, i32* %18, align 4
  store i32 %25, i32* %24, align 4
  %27 = getelementptr inbounds %"class.WTF::Vector.65", %"class.WTF::Vector.65"* %5, i64 0, i32 0, i32 0, i32 2
  %28 = load i32, i32* %19, align 4
  %29 = load i32, i32* %27, align 4
  store i32 %29, i32* %19, align 4
  store i32 %28, i32* %27, align 4
  %30 = getelementptr inbounds %"class.memory_instrumentation::mojom::blink::RawOSMemDump", %"class.memory_instrumentation::mojom::blink::RawOSMemDump"* %0, i64 0, i32 5
  %31 = getelementptr inbounds %"class.memory_instrumentation::mojom::blink::RawOSMemDump", %"class.memory_instrumentation::mojom::blink::RawOSMemDump"* %0, i64 0, i32 5, i32 0, i32 0, i32 1
  %32 = getelementptr inbounds %"class.memory_instrumentation::mojom::blink::RawOSMemDump", %"class.memory_instrumentation::mojom::blink::RawOSMemDump"* %0, i64 0, i32 5, i32 0, i32 0, i32 2
  %33 = bitcast %"class.WTF::Vector.77"* %6 to i64*
  %34 = bitcast %"class.WTF::Vector.77"* %30 to i8*
  tail call void @llvm.memset.p0i8.i64(i8* align 8 %34, i8 0, i64 16, i1 false) #15
  %35 = load i64, i64* %33, align 8
  %36 = bitcast %"class.WTF::Vector.77"* %30 to i64*
  store atomic i64 0, i64* %33 monotonic, align 8
  store atomic i64 %35, i64* %36 monotonic, align 8
  %37 = getelementptr inbounds %"class.WTF::Vector.77", %"class.WTF::Vector.77"* %6, i64 0, i32 0, i32 0, i32 1
  %38 = load i32, i32* %31, align 4
  %39 = load i32, i32* %37, align 4
  store i32 %39, i32* %31, align 4
  store i32 %38, i32* %37, align 4
  %40 = getelementptr inbounds %"class.WTF::Vector.77", %"class.WTF::Vector.77"* %6, i64 0, i32 0, i32 0, i32 2
  %41 = load i32, i32* %32, align 4
  %42 = load i32, i32* %40, align 4
  store i32 %42, i32* %32, align 4
  store i32 %41, i32* %40, align 4
  ret void
}

; Function Attrs: nounwind ssp uwtable
define hidden void @_ZN22memory_instrumentation5mojom5blink12RawOSMemDumpD2Ev(%"class.memory_instrumentation::mojom::blink::RawOSMemDump"* nocapture) unnamed_addr #3 align 2 {
  %2 = getelementptr inbounds %"class.memory_instrumentation::mojom::blink::RawOSMemDump", %"class.memory_instrumentation::mojom::blink::RawOSMemDump"* %0, i64 0, i32 5, i32 0, i32 0, i32 0
  %3 = load i8*, i8** %2, align 8
  %4 = icmp eq i8* %3, null
  br i1 %4, label %11, label %5, !prof !4

5:                                                ; preds = %1
  %6 = getelementptr inbounds %"class.memory_instrumentation::mojom::blink::RawOSMemDump", %"class.memory_instrumentation::mojom::blink::RawOSMemDump"* %0, i64 0, i32 5, i32 0, i32 0, i32 2
  %7 = load i32, i32* %6, align 4
  %8 = icmp eq i32 %7, 0
  br i1 %8, label %10, label %9, !prof !3

9:                                                ; preds = %5
  store i32 0, i32* %6, align 4
  br label %10

10:                                               ; preds = %9, %5
  tail call void @_ZN3WTF18PartitionAllocator11FreeBackingEPv(i8* nonnull %3) #15
  store i8* null, i8** %2, align 8
  br label %11

11:                                               ; preds = %1, %10
  %12 = getelementptr inbounds %"class.memory_instrumentation::mojom::blink::RawOSMemDump", %"class.memory_instrumentation::mojom::blink::RawOSMemDump"* %0, i64 0, i32 4
  %13 = getelementptr inbounds %"class.WTF::Vector.65", %"class.WTF::Vector.65"* %12, i64 0, i32 0, i32 0, i32 0
  %14 = load %"class.mojo::StructPtr.68"*, %"class.mojo::StructPtr.68"** %13, align 8
  %15 = icmp eq %"class.mojo::StructPtr.68"* %14, null
  br i1 %15, label %39, label %16, !prof !4

16:                                               ; preds = %11
  %17 = bitcast %"class.mojo::StructPtr.68"* %14 to i8*
  %18 = getelementptr inbounds %"class.memory_instrumentation::mojom::blink::RawOSMemDump", %"class.memory_instrumentation::mojom::blink::RawOSMemDump"* %0, i64 0, i32 4, i32 0, i32 0, i32 2
  %19 = load i32, i32* %18, align 4
  %20 = icmp eq i32 %19, 0
  br i1 %20, label %37, label %21, !prof !3

21:                                               ; preds = %16
  %22 = zext i32 %19 to i64
  %23 = getelementptr inbounds %"class.mojo::StructPtr.68", %"class.mojo::StructPtr.68"* %14, i64 %22
  br label %24

24:                                               ; preds = %31, %21
  %25 = phi %"class.mojo::StructPtr.68"* [ %32, %31 ], [ %14, %21 ]
  %26 = getelementptr inbounds %"class.mojo::StructPtr.68", %"class.mojo::StructPtr.68"* %25, i64 0, i32 0, i32 0, i32 0, i32 0
  %27 = load %"class.memory_instrumentation::mojom::blink::VmRegion"*, %"class.memory_instrumentation::mojom::blink::VmRegion"** %26, align 8
  store %"class.memory_instrumentation::mojom::blink::VmRegion"* null, %"class.memory_instrumentation::mojom::blink::VmRegion"** %26, align 8
  %28 = icmp eq %"class.memory_instrumentation::mojom::blink::VmRegion"* %27, null
  br i1 %28, label %31, label %29

29:                                               ; preds = %24
  tail call void @_ZN22memory_instrumentation5mojom5blink8VmRegionD2Ev(%"class.memory_instrumentation::mojom::blink::VmRegion"* nonnull %27) #15
  %30 = bitcast %"class.memory_instrumentation::mojom::blink::VmRegion"* %27 to i8*
  tail call void @_ZdlPv(i8* %30) #16
  br label %31

31:                                               ; preds = %29, %24
  %32 = getelementptr inbounds %"class.mojo::StructPtr.68", %"class.mojo::StructPtr.68"* %25, i64 1
  %33 = icmp eq %"class.mojo::StructPtr.68"* %32, %23
  br i1 %33, label %34, label %24

34:                                               ; preds = %31
  store i32 0, i32* %18, align 4
  %35 = bitcast %"class.WTF::Vector.65"* %12 to i8**
  %36 = load i8*, i8** %35, align 8
  br label %37

37:                                               ; preds = %34, %16
  %38 = phi i8* [ %36, %34 ], [ %17, %16 ]
  tail call void @_ZN3WTF18PartitionAllocator11FreeBackingEPv(i8* %38) #15
  store %"class.mojo::StructPtr.68"* null, %"class.mojo::StructPtr.68"** %13, align 8
  br label %39

39:                                               ; preds = %11, %37
  %40 = getelementptr inbounds %"class.memory_instrumentation::mojom::blink::RawOSMemDump", %"class.memory_instrumentation::mojom::blink::RawOSMemDump"* %0, i64 0, i32 3, i32 0, i32 0, i32 0, i32 0
  %41 = load %"class.memory_instrumentation::mojom::blink::PlatformPrivateFootprint"*, %"class.memory_instrumentation::mojom::blink::PlatformPrivateFootprint"** %40, align 8
  store %"class.memory_instrumentation::mojom::blink::PlatformPrivateFootprint"* null, %"class.memory_instrumentation::mojom::blink::PlatformPrivateFootprint"** %40, align 8
  %42 = icmp eq %"class.memory_instrumentation::mojom::blink::PlatformPrivateFootprint"* %41, null
  br i1 %42, label %45, label %43

43:                                               ; preds = %39
  %44 = bitcast %"class.memory_instrumentation::mojom::blink::PlatformPrivateFootprint"* %41 to i8*
  tail call void @_ZdlPv(i8* %44) #16
  br label %45

45:                                               ; preds = %39, %43
  ret void
}

; Function Attrs: nounwind ssp uwtable
define hidden void @_ZNK22memory_instrumentation5mojom5blink12RawOSMemDump14WriteIntoTraceEN8perfetto11TracedValueE(%"class.memory_instrumentation::mojom::blink::RawOSMemDump"* nocapture readonly, %"class.perfetto::TracedValue"*) local_unnamed_addr #3 align 2 {
  %3 = alloca %"class.perfetto::TracedValue", align 8
  %4 = alloca %"class.perfetto::TracedValue", align 8
  %5 = alloca %"class.perfetto::TracedValue", align 8
  %6 = alloca %"class.perfetto::TracedArray", align 8
  %7 = alloca %"class.perfetto::TracedValue", align 8
  %8 = alloca %"class.perfetto::TracedValue", align 8
  %9 = alloca %"class.perfetto::TracedValue", align 8
  %10 = alloca %"class.perfetto::TracedValue", align 8
  %11 = alloca %"class.perfetto::TracedValue", align 8
  %12 = alloca %"class.perfetto::TracedValue", align 8
  %13 = alloca %"class.perfetto::TracedValue", align 8
  %14 = alloca %"class.perfetto::TracedValue", align 8
  %15 = alloca %"class.perfetto::TracedArray", align 8
  %16 = alloca %"class.perfetto::TracedValue", align 8
  %17 = alloca %"class.perfetto::TracedDictionary", align 8
  %18 = alloca %"class.perfetto::TracedValue", align 8
  %19 = alloca %"class.perfetto::TracedValue", align 8
  %20 = alloca %"class.perfetto::TracedValue", align 8
  %21 = alloca %"class.perfetto::TracedValue", align 8
  %22 = alloca %"class.perfetto::TracedValue", align 8
  %23 = alloca %"class.perfetto::TracedValue", align 8
  %24 = bitcast %"class.perfetto::TracedDictionary"* %17 to i8*
  call void @llvm.lifetime.start.p0i8(i64 16, i8* nonnull %24) #15
  %25 = bitcast %"class.perfetto::TracedDictionary"* %17 to i8*
  call void @llvm.memset.p0i8.i64(i8* nonnull align 8 %25, i8 -86, i64 16, i1 false)
  call void @_ZNO8perfetto11TracedValue15WriteDictionaryEv(%"class.perfetto::TracedDictionary"* nonnull sret %17, %"class.perfetto::TracedValue"* %1) #15
  call void @_ZN8perfetto16TracedDictionary7AddItemENS_12StaticStringE(%"class.perfetto::TracedValue"* nonnull sret %18, %"class.perfetto::TracedDictionary"* nonnull %17, i8* getelementptr inbounds ([16 x i8], [16 x i8]* @.str.38, i64 0, i64 0)) #15
  %26 = getelementptr inbounds %"class.memory_instrumentation::mojom::blink::RawOSMemDump", %"class.memory_instrumentation::mojom::blink::RawOSMemDump"* %0, i64 0, i32 0
  %27 = bitcast %"class.perfetto::TracedValue"* %18 to i8*
  %28 = bitcast %"class.perfetto::TracedValue"* %12 to i8*
  call void @llvm.lifetime.start.p0i8(i64 16, i8* nonnull %28) #15
  call void @llvm.memcpy.p0i8.p0i8.i64(i8* nonnull align 8 %28, i8* nonnull align 8 %27, i64 16, i1 false) #15
  %29 = load i32, i32* %26, align 4
  %30 = zext i32 %29 to i64
  call void @_ZNO8perfetto11TracedValue11WriteUInt64Em(%"class.perfetto::TracedValue"* nonnull %12, i64 %30) #15
  call void @llvm.lifetime.end.p0i8(i64 16, i8* nonnull %28) #15
  call void @_ZN8perfetto16TracedDictionary7AddItemENS_12StaticStringE(%"class.perfetto::TracedValue"* nonnull sret %19, %"class.perfetto::TracedDictionary"* nonnull %17, i8* getelementptr inbounds ([21 x i8], [21 x i8]* @.str.39, i64 0, i64 0)) #15
  %31 = getelementptr inbounds %"class.memory_instrumentation::mojom::blink::RawOSMemDump", %"class.memory_instrumentation::mojom::blink::RawOSMemDump"* %0, i64 0, i32 1
  %32 = bitcast %"class.perfetto::TracedValue"* %19 to i8*
  %33 = bitcast %"class.perfetto::TracedValue"* %11 to i8*
  call void @llvm.lifetime.start.p0i8(i64 16, i8* nonnull %33) #15
  call void @llvm.memcpy.p0i8.p0i8.i64(i8* nonnull align 8 %33, i8* nonnull align 8 %32, i64 16, i1 false) #15
  %34 = load i32, i32* %31, align 4
  %35 = zext i32 %34 to i64
  call void @_ZNO8perfetto11TracedValue11WriteUInt64Em(%"class.perfetto::TracedValue"* nonnull %11, i64 %35) #15
  call void @llvm.lifetime.end.p0i8(i64 16, i8* nonnull %33) #15
  call void @_ZN8perfetto16TracedDictionary7AddItemENS_12StaticStringE(%"class.perfetto::TracedValue"* nonnull sret %20, %"class.perfetto::TracedDictionary"* nonnull %17, i8* getelementptr inbounds ([23 x i8], [23 x i8]* @.str.40, i64 0, i64 0)) #15
  %36 = getelementptr inbounds %"class.memory_instrumentation::mojom::blink::RawOSMemDump", %"class.memory_instrumentation::mojom::blink::RawOSMemDump"* %0, i64 0, i32 2
  %37 = bitcast %"class.perfetto::TracedValue"* %20 to i8*
  %38 = bitcast %"class.perfetto::TracedValue"* %10 to i8*
  call void @llvm.lifetime.start.p0i8(i64 16, i8* nonnull %38) #15
  call void @llvm.memcpy.p0i8.p0i8.i64(i8* nonnull align 8 %38, i8* nonnull align 8 %37, i64 16, i1 false) #15
  %39 = load i8, i8* %36, align 1, !range !2
  %40 = icmp ne i8 %39, 0
  call void @_ZNO8perfetto11TracedValue12WriteBooleanEb(%"class.perfetto::TracedValue"* nonnull %10, i1 zeroext %40) #15
  call void @llvm.lifetime.end.p0i8(i64 16, i8* nonnull %38) #15
  call void @_ZN8perfetto16TracedDictionary7AddItemENS_12StaticStringE(%"class.perfetto::TracedValue"* nonnull sret %21, %"class.perfetto::TracedDictionary"* nonnull %17, i8* getelementptr inbounds ([27 x i8], [27 x i8]* @.str.41, i64 0, i64 0)) #15
  %41 = bitcast %"class.perfetto::TracedValue"* %21 to i8*
  %42 = getelementptr inbounds %"class.memory_instrumentation::mojom::blink::RawOSMemDump", %"class.memory_instrumentation::mojom::blink::RawOSMemDump"* %0, i64 0, i32 3, i32 0, i32 0, i32 0, i32 0
  %43 = load %"class.memory_instrumentation::mojom::blink::PlatformPrivateFootprint"*, %"class.memory_instrumentation::mojom::blink::PlatformPrivateFootprint"** %42, align 8
  %44 = bitcast %"class.perfetto::TracedValue"* %9 to i8*
  call void @llvm.lifetime.start.p0i8(i64 16, i8* nonnull %44) #15
  call void @llvm.memcpy.p0i8.p0i8.i64(i8* nonnull align 8 %44, i8* nonnull align 8 %41, i64 16, i1 false)
  %45 = icmp eq %"class.memory_instrumentation::mojom::blink::PlatformPrivateFootprint"* %43, null
  br i1 %45, label %46, label %47

46:                                               ; preds = %2
  call void @_ZNO8perfetto11TracedValue12WritePointerEPKv(%"class.perfetto::TracedValue"* nonnull %9, i8* null) #15
  br label %49

47:                                               ; preds = %2
  %48 = bitcast %"class.perfetto::TracedValue"* %8 to i8*
  call void @llvm.lifetime.start.p0i8(i64 16, i8* nonnull %48) #15
  call void @llvm.memcpy.p0i8.p0i8.i64(i8* nonnull align 8 %48, i8* nonnull align 8 %44, i64 16, i1 false) #15
  call void @_ZNK22memory_instrumentation5mojom5blink24PlatformPrivateFootprint14WriteIntoTraceEN8perfetto11TracedValueE(%"class.memory_instrumentation::mojom::blink::PlatformPrivateFootprint"* nonnull %43, %"class.perfetto::TracedValue"* nonnull %8) #15
  call void @llvm.lifetime.end.p0i8(i64 16, i8* nonnull %48) #15
  br label %49

49:                                               ; preds = %47, %46
  call void @llvm.lifetime.end.p0i8(i64 16, i8* nonnull %44) #15
  call void @_ZN8perfetto16TracedDictionary7AddItemENS_12StaticStringE(%"class.perfetto::TracedValue"* nonnull sret %22, %"class.perfetto::TracedDictionary"* nonnull %17, i8* getelementptr inbounds ([12 x i8], [12 x i8]* @.str.42, i64 0, i64 0)) #15
  %50 = bitcast %"class.perfetto::TracedValue"* %22 to i8*
  %51 = bitcast %"class.perfetto::TracedValue"* %7 to i8*
  call void @llvm.lifetime.start.p0i8(i64 16, i8* nonnull %51) #15
  call void @llvm.memcpy.p0i8.p0i8.i64(i8* nonnull align 8 %51, i8* nonnull align 8 %50, i64 16, i1 false) #15
  %52 = bitcast %"class.perfetto::TracedArray"* %6 to i8*
  call void @llvm.lifetime.start.p0i8(i64 16, i8* nonnull %52) #15
  call void @llvm.memset.p0i8.i64(i8* nonnull align 8 %52, i8 -86, i64 16, i1 false) #15
  call void @_ZNO8perfetto11TracedValue10WriteArrayEv(%"class.perfetto::TracedArray"* nonnull sret %6, %"class.perfetto::TracedValue"* nonnull %7) #15
  %53 = getelementptr inbounds %"class.memory_instrumentation::mojom::blink::RawOSMemDump", %"class.memory_instrumentation::mojom::blink::RawOSMemDump"* %0, i64 0, i32 4, i32 0, i32 0, i32 0
  %54 = load %"class.mojo::StructPtr.68"*, %"class.mojo::StructPtr.68"** %53, align 8
  %55 = getelementptr inbounds %"class.memory_instrumentation::mojom::blink::RawOSMemDump", %"class.memory_instrumentation::mojom::blink::RawOSMemDump"* %0, i64 0, i32 4, i32 0, i32 0, i32 2
  %56 = load i32, i32* %55, align 4
  %57 = zext i32 %56 to i64
  %58 = getelementptr inbounds %"class.mojo::StructPtr.68", %"class.mojo::StructPtr.68"* %54, i64 %57
  %59 = icmp eq i32 %56, 0
  br i1 %59, label %74, label %60

60:                                               ; preds = %49
  %61 = bitcast %"class.perfetto::TracedValue"* %5 to i8*
  %62 = bitcast %"class.perfetto::TracedValue"* %4 to i8*
  %63 = bitcast %"class.perfetto::TracedValue"* %3 to i8*
  br label %64

64:                                               ; preds = %71, %60
  %65 = phi %"class.mojo::StructPtr.68"* [ %54, %60 ], [ %72, %71 ]
  call void @llvm.lifetime.start.p0i8(i64 16, i8* nonnull %61) #15
  call void @_ZN8perfetto11TracedArray10AppendItemEv(%"class.perfetto::TracedValue"* nonnull sret %5, %"class.perfetto::TracedArray"* nonnull %6) #15
  %66 = getelementptr inbounds %"class.mojo::StructPtr.68", %"class.mojo::StructPtr.68"* %65, i64 0, i32 0, i32 0, i32 0, i32 0
  %67 = load %"class.memory_instrumentation::mojom::blink::VmRegion"*, %"class.memory_instrumentation::mojom::blink::VmRegion"** %66, align 8
  call void @llvm.lifetime.start.p0i8(i64 16, i8* nonnull %62) #15
  call void @llvm.memcpy.p0i8.p0i8.i64(i8* nonnull align 8 %62, i8* nonnull align 8 %61, i64 16, i1 false) #15
  %68 = icmp eq %"class.memory_instrumentation::mojom::blink::VmRegion"* %67, null
  br i1 %68, label %69, label %70

69:                                               ; preds = %64
  call void @_ZNO8perfetto11TracedValue12WritePointerEPKv(%"class.perfetto::TracedValue"* nonnull %4, i8* null) #15
  br label %71

70:                                               ; preds = %64
  call void @llvm.lifetime.start.p0i8(i64 16, i8* nonnull %63) #15
  call void @llvm.memcpy.p0i8.p0i8.i64(i8* nonnull align 8 %63, i8* nonnull align 8 %62, i64 16, i1 false) #15
  call void @_ZNK22memory_instrumentation5mojom5blink8VmRegion14WriteIntoTraceEN8perfetto11TracedValueE(%"class.memory_instrumentation::mojom::blink::VmRegion"* nonnull %67, %"class.perfetto::TracedValue"* nonnull %3) #15
  call void @llvm.lifetime.end.p0i8(i64 16, i8* nonnull %63) #15
  br label %71

71:                                               ; preds = %70, %69
  call void @llvm.lifetime.end.p0i8(i64 16, i8* nonnull %62) #15
  call void @llvm.lifetime.end.p0i8(i64 16, i8* nonnull %61) #15
  %72 = getelementptr inbounds %"class.mojo::StructPtr.68", %"class.mojo::StructPtr.68"* %65, i64 1
  %73 = icmp eq %"class.mojo::StructPtr.68"* %72, %58
  br i1 %73, label %74, label %64

74:                                               ; preds = %71, %49
  call void @llvm.lifetime.end.p0i8(i64 16, i8* nonnull %52) #15
  call void @llvm.lifetime.end.p0i8(i64 16, i8* nonnull %51) #15
  call void @_ZN8perfetto16TracedDictionary7AddItemENS_12StaticStringE(%"class.perfetto::TracedValue"* nonnull sret %23, %"class.perfetto::TracedDictionary"* nonnull %17, i8* getelementptr inbounds ([28 x i8], [28 x i8]* @.str.43, i64 0, i64 0)) #15
  %75 = bitcast %"class.perfetto::TracedValue"* %23 to i8*
  %76 = bitcast %"class.perfetto::TracedValue"* %16 to i8*
  call void @llvm.lifetime.start.p0i8(i64 16, i8* nonnull %76) #15
  call void @llvm.memcpy.p0i8.p0i8.i64(i8* nonnull align 8 %76, i8* nonnull align 8 %75, i64 16, i1 false) #15
  %77 = bitcast %"class.perfetto::TracedArray"* %15 to i8*
  call void @llvm.lifetime.start.p0i8(i64 16, i8* nonnull %77) #15
  call void @llvm.memset.p0i8.i64(i8* nonnull align 8 %77, i8 -86, i64 16, i1 false) #15
  call void @_ZNO8perfetto11TracedValue10WriteArrayEv(%"class.perfetto::TracedArray"* nonnull sret %15, %"class.perfetto::TracedValue"* nonnull %16) #15
  %78 = getelementptr inbounds %"class.memory_instrumentation::mojom::blink::RawOSMemDump", %"class.memory_instrumentation::mojom::blink::RawOSMemDump"* %0, i64 0, i32 5, i32 0, i32 0, i32 0
  %79 = load i8*, i8** %78, align 8
  %80 = getelementptr inbounds %"class.memory_instrumentation::mojom::blink::RawOSMemDump", %"class.memory_instrumentation::mojom::blink::RawOSMemDump"* %0, i64 0, i32 5, i32 0, i32 0, i32 2
  %81 = load i32, i32* %80, align 4
  %82 = zext i32 %81 to i64
  %83 = getelementptr inbounds i8, i8* %79, i64 %82
  %84 = icmp eq i32 %81, 0
  br i1 %84, label %94, label %85

85:                                               ; preds = %74
  %86 = bitcast %"class.perfetto::TracedValue"* %14 to i8*
  %87 = bitcast %"class.perfetto::TracedValue"* %13 to i8*
  br label %88

88:                                               ; preds = %88, %85
  %89 = phi i8* [ %79, %85 ], [ %92, %88 ]
  call void @llvm.lifetime.start.p0i8(i64 16, i8* nonnull %86) #15
  call void @_ZN8perfetto11TracedArray10AppendItemEv(%"class.perfetto::TracedValue"* nonnull sret %14, %"class.perfetto::TracedArray"* nonnull %15) #15
  call void @llvm.lifetime.start.p0i8(i64 16, i8* nonnull %87) #15
  call void @llvm.memcpy.p0i8.p0i8.i64(i8* nonnull align 8 %87, i8* nonnull align 8 %86, i64 16, i1 false) #15
  %90 = load i8, i8* %89, align 1
  %91 = zext i8 %90 to i64
  call void @_ZNO8perfetto11TracedValue11WriteUInt64Em(%"class.perfetto::TracedValue"* nonnull %13, i64 %91) #15
  call void @llvm.lifetime.end.p0i8(i64 16, i8* nonnull %87) #15
  call void @llvm.lifetime.end.p0i8(i64 16, i8* nonnull %86) #15
  %92 = getelementptr inbounds i8, i8* %89, i64 1
  %93 = icmp eq i8* %92, %83
  br i1 %93, label %94, label %88

94:                                               ; preds = %88, %74
  call void @llvm.lifetime.end.p0i8(i64 16, i8* nonnull %77) #15
  call void @llvm.lifetime.end.p0i8(i64 16, i8* nonnull %76) #15
  call void @llvm.lifetime.end.p0i8(i64 16, i8* nonnull %24) #15
  ret void
}

; Function Attrs: nounwind ssp uwtable
define hidden zeroext i1 @_ZN22memory_instrumentation5mojom5blink12RawOSMemDump8ValidateEPKvPN4mojo8internal17ValidationContextE(i8*, %"class.mojo::internal::ValidationContext"*) local_unnamed_addr #3 align 2 {
  %3 = tail call zeroext i1 @_ZN22memory_instrumentation5mojom8internal17RawOSMemDump_Data8ValidateEPKvPN4mojo8internal17ValidationContextE(i8* %0, %"class.mojo::internal::ValidationContext"* %1) #15
  ret i1 %3
}

declare zeroext i1 @_ZN22memory_instrumentation5mojom8internal17RawOSMemDump_Data8ValidateEPKvPN4mojo8internal17ValidationContextE(i8*, %"class.mojo::internal::ValidationContext"*) local_unnamed_addr #5

; Function Attrs: nofree norecurse nounwind ssp uwtable writeonly
define hidden void @_ZN22memory_instrumentation5mojom5blink9OSMemDumpC2Ev(%"class.memory_instrumentation::mojom::blink::OSMemDump"* nocapture) unnamed_addr #0 align 2 {
  %2 = getelementptr inbounds %"class.memory_instrumentation::mojom::blink::OSMemDump", %"class.memory_instrumentation::mojom::blink::OSMemDump"* %0, i64 0, i32 3
  store i32 0, i32* %2, align 4
  %3 = getelementptr inbounds %"class.memory_instrumentation::mojom::blink::OSMemDump", %"class.memory_instrumentation::mojom::blink::OSMemDump"* %0, i64 0, i32 4
  store i32 0, i32* %3, align 4
  %4 = getelementptr inbounds %"class.memory_instrumentation::mojom::blink::OSMemDump", %"class.memory_instrumentation::mojom::blink::OSMemDump"* %0, i64 0, i32 5
  store i32 0, i32* %4, align 4
  %5 = bitcast %"class.memory_instrumentation::mojom::blink::OSMemDump"* %0 to i8*
  call void @llvm.memset.p0i8.i64(i8* align 4 %5, i8 0, i64 9, i1 false)
  ret void
}

; Function Attrs: nofree norecurse nounwind ssp uwtable writeonly
define hidden void @_ZN22memory_instrumentation5mojom5blink9OSMemDumpC2Ejjbjjj(%"class.memory_instrumentation::mojom::blink::OSMemDump"* nocapture, i32, i32, i1 zeroext, i32, i32, i32) unnamed_addr #0 align 2 {
  %8 = zext i1 %3 to i8
  %9 = getelementptr inbounds %"class.memory_instrumentation::mojom::blink::OSMemDump", %"class.memory_instrumentation::mojom::blink::OSMemDump"* %0, i64 0, i32 0
  store i32 %1, i32* %9, align 4
  %10 = getelementptr inbounds %"class.memory_instrumentation::mojom::blink::OSMemDump", %"class.memory_instrumentation::mojom::blink::OSMemDump"* %0, i64 0, i32 1
  store i32 %2, i32* %10, align 4
  %11 = getelementptr inbounds %"class.memory_instrumentation::mojom::blink::OSMemDump", %"class.memory_instrumentation::mojom::blink::OSMemDump"* %0, i64 0, i32 2
  store i8 %8, i8* %11, align 4
  %12 = getelementptr inbounds %"class.memory_instrumentation::mojom::blink::OSMemDump", %"class.memory_instrumentation::mojom::blink::OSMemDump"* %0, i64 0, i32 3
  store i32 %4, i32* %12, align 4
  %13 = getelementptr inbounds %"class.memory_instrumentation::mojom::blink::OSMemDump", %"class.memory_instrumentation::mojom::blink::OSMemDump"* %0, i64 0, i32 4
  store i32 %5, i32* %13, align 4
  %14 = getelementptr inbounds %"class.memory_instrumentation::mojom::blink::OSMemDump", %"class.memory_instrumentation::mojom::blink::OSMemDump"* %0, i64 0, i32 5
  store i32 %6, i32* %14, align 4
  ret void
}

; Function Attrs: norecurse nounwind readnone ssp uwtable
define hidden void @_ZN22memory_instrumentation5mojom5blink9OSMemDumpD2Ev(%"class.memory_instrumentation::mojom::blink::OSMemDump"* nocapture) unnamed_addr #1 align 2 {
  ret void
}

; Function Attrs: norecurse nounwind readonly ssp uwtable
define hidden i64 @_ZNK22memory_instrumentation5mojom5blink9OSMemDump4HashEm(%"class.memory_instrumentation::mojom::blink::OSMemDump"* nocapture readonly, i64) local_unnamed_addr #2 align 2 {
  %3 = getelementptr inbounds %"class.memory_instrumentation::mojom::blink::OSMemDump", %"class.memory_instrumentation::mojom::blink::OSMemDump"* %0, i64 0, i32 0
  %4 = load i32, i32* %3, align 4
  %5 = zext i32 %4 to i64
  %6 = shl i64 %1, 6
  %7 = lshr i64 %1, 2
  %8 = add i64 %7, %6
  %9 = add i64 %8, %5
  %10 = xor i64 %9, %1
  %11 = getelementptr inbounds %"class.memory_instrumentation::mojom::blink::OSMemDump", %"class.memory_instrumentation::mojom::blink::OSMemDump"* %0, i64 0, i32 1
  %12 = load i32, i32* %11, align 4
  %13 = zext i32 %12 to i64
  %14 = shl i64 %10, 6
  %15 = lshr i64 %10, 2
  %16 = add i64 %14, %13
  %17 = add i64 %16, %15
  %18 = xor i64 %17, %10
  %19 = getelementptr inbounds %"class.memory_instrumentation::mojom::blink::OSMemDump", %"class.memory_instrumentation::mojom::blink::OSMemDump"* %0, i64 0, i32 2
  %20 = load i8, i8* %19, align 1, !range !2
  %21 = zext i8 %20 to i64
  %22 = shl i64 %18, 6
  %23 = or i64 %22, %21
  %24 = lshr i64 %18, 2
  %25 = add i64 %23, %24
  %26 = xor i64 %25, %18
  %27 = getelementptr inbounds %"class.memory_instrumentation::mojom::blink::OSMemDump", %"class.memory_instrumentation::mojom::blink::OSMemDump"* %0, i64 0, i32 3
  %28 = load i32, i32* %27, align 4
  %29 = zext i32 %28 to i64
  %30 = shl i64 %26, 6
  %31 = lshr i64 %26, 2
  %32 = add i64 %30, %29
  %33 = add i64 %32, %31
  %34 = xor i64 %33, %26
  %35 = getelementptr inbounds %"class.memory_instrumentation::mojom::blink::OSMemDump", %"class.memory_instrumentation::mojom::blink::OSMemDump"* %0, i64 0, i32 4
  %36 = load i32, i32* %35, align 4
  %37 = zext i32 %36 to i64
  %38 = shl i64 %34, 6
  %39 = lshr i64 %34, 2
  %40 = add i64 %38, %37
  %41 = add i64 %40, %39
  %42 = xor i64 %41, %34
  %43 = getelementptr inbounds %"class.memory_instrumentation::mojom::blink::OSMemDump", %"class.memory_instrumentation::mojom::blink::OSMemDump"* %0, i64 0, i32 5
  %44 = load i32, i32* %43, align 4
  %45 = zext i32 %44 to i64
  %46 = shl i64 %42, 6
  %47 = lshr i64 %42, 2
  %48 = add i64 %46, %45
  %49 = add i64 %48, %47
  %50 = xor i64 %49, %42
  ret i64 %50
}

; Function Attrs: nounwind ssp uwtable
define hidden void @_ZNK22memory_instrumentation5mojom5blink9OSMemDump14WriteIntoTraceEN8perfetto11TracedValueE(%"class.memory_instrumentation::mojom::blink::OSMemDump"* nocapture readonly, %"class.perfetto::TracedValue"*) local_unnamed_addr #3 align 2 {
  %3 = alloca %"class.perfetto::TracedValue", align 8
  %4 = alloca %"class.perfetto::TracedValue", align 8
  %5 = alloca %"class.perfetto::TracedValue", align 8
  %6 = alloca %"class.perfetto::TracedValue", align 8
  %7 = alloca %"class.perfetto::TracedValue", align 8
  %8 = alloca %"class.perfetto::TracedValue", align 8
  %9 = alloca %"class.perfetto::TracedDictionary", align 8
  %10 = alloca %"class.perfetto::TracedValue", align 8
  %11 = alloca %"class.perfetto::TracedValue", align 8
  %12 = alloca %"class.perfetto::TracedValue", align 8
  %13 = alloca %"class.perfetto::TracedValue", align 8
  %14 = alloca %"class.perfetto::TracedValue", align 8
  %15 = alloca %"class.perfetto::TracedValue", align 8
  %16 = bitcast %"class.perfetto::TracedDictionary"* %9 to i8*
  call void @llvm.lifetime.start.p0i8(i64 16, i8* nonnull %16) #15
  %17 = bitcast %"class.perfetto::TracedDictionary"* %9 to i8*
  call void @llvm.memset.p0i8.i64(i8* nonnull align 8 %17, i8 -86, i64 16, i1 false)
  call void @_ZNO8perfetto11TracedValue15WriteDictionaryEv(%"class.perfetto::TracedDictionary"* nonnull sret %9, %"class.perfetto::TracedValue"* %1) #15
  call void @_ZN8perfetto16TracedDictionary7AddItemENS_12StaticStringE(%"class.perfetto::TracedValue"* nonnull sret %10, %"class.perfetto::TracedDictionary"* nonnull %9, i8* getelementptr inbounds ([16 x i8], [16 x i8]* @.str.38, i64 0, i64 0)) #15
  %18 = getelementptr inbounds %"class.memory_instrumentation::mojom::blink::OSMemDump", %"class.memory_instrumentation::mojom::blink::OSMemDump"* %0, i64 0, i32 0
  %19 = bitcast %"class.perfetto::TracedValue"* %10 to i8*
  %20 = bitcast %"class.perfetto::TracedValue"* %7 to i8*
  call void @llvm.lifetime.start.p0i8(i64 16, i8* nonnull %20) #15
  call void @llvm.memcpy.p0i8.p0i8.i64(i8* nonnull align 8 %20, i8* nonnull align 8 %19, i64 16, i1 false) #15
  %21 = load i32, i32* %18, align 4
  %22 = zext i32 %21 to i64
  call void @_ZNO8perfetto11TracedValue11WriteUInt64Em(%"class.perfetto::TracedValue"* nonnull %7, i64 %22) #15
  call void @llvm.lifetime.end.p0i8(i64 16, i8* nonnull %20) #15
  call void @_ZN8perfetto16TracedDictionary7AddItemENS_12StaticStringE(%"class.perfetto::TracedValue"* nonnull sret %11, %"class.perfetto::TracedDictionary"* nonnull %9, i8* getelementptr inbounds ([21 x i8], [21 x i8]* @.str.39, i64 0, i64 0)) #15
  %23 = getelementptr inbounds %"class.memory_instrumentation::mojom::blink::OSMemDump", %"class.memory_instrumentation::mojom::blink::OSMemDump"* %0, i64 0, i32 1
  %24 = bitcast %"class.perfetto::TracedValue"* %11 to i8*
  %25 = bitcast %"class.perfetto::TracedValue"* %6 to i8*
  call void @llvm.lifetime.start.p0i8(i64 16, i8* nonnull %25) #15
  call void @llvm.memcpy.p0i8.p0i8.i64(i8* nonnull align 8 %25, i8* nonnull align 8 %24, i64 16, i1 false) #15
  %26 = load i32, i32* %23, align 4
  %27 = zext i32 %26 to i64
  call void @_ZNO8perfetto11TracedValue11WriteUInt64Em(%"class.perfetto::TracedValue"* nonnull %6, i64 %27) #15
  call void @llvm.lifetime.end.p0i8(i64 16, i8* nonnull %25) #15
  call void @_ZN8perfetto16TracedDictionary7AddItemENS_12StaticStringE(%"class.perfetto::TracedValue"* nonnull sret %12, %"class.perfetto::TracedDictionary"* nonnull %9, i8* getelementptr inbounds ([23 x i8], [23 x i8]* @.str.40, i64 0, i64 0)) #15
  %28 = getelementptr inbounds %"class.memory_instrumentation::mojom::blink::OSMemDump", %"class.memory_instrumentation::mojom::blink::OSMemDump"* %0, i64 0, i32 2
  %29 = bitcast %"class.perfetto::TracedValue"* %12 to i8*
  %30 = bitcast %"class.perfetto::TracedValue"* %5 to i8*
  call void @llvm.lifetime.start.p0i8(i64 16, i8* nonnull %30) #15
  call void @llvm.memcpy.p0i8.p0i8.i64(i8* nonnull align 8 %30, i8* nonnull align 8 %29, i64 16, i1 false) #15
  %31 = load i8, i8* %28, align 1, !range !2
  %32 = icmp ne i8 %31, 0
  call void @_ZNO8perfetto11TracedValue12WriteBooleanEb(%"class.perfetto::TracedValue"* nonnull %5, i1 zeroext %32) #15
  call void @llvm.lifetime.end.p0i8(i64 16, i8* nonnull %30) #15
  call void @_ZN8perfetto16TracedDictionary7AddItemENS_12StaticStringE(%"class.perfetto::TracedValue"* nonnull sret %13, %"class.perfetto::TracedDictionary"* nonnull %9, i8* getelementptr inbounds ([21 x i8], [21 x i8]* @.str.44, i64 0, i64 0)) #15
  %33 = getelementptr inbounds %"class.memory_instrumentation::mojom::blink::OSMemDump", %"class.memory_instrumentation::mojom::blink::OSMemDump"* %0, i64 0, i32 3
  %34 = bitcast %"class.perfetto::TracedValue"* %13 to i8*
  %35 = bitcast %"class.perfetto::TracedValue"* %4 to i8*
  call void @llvm.lifetime.start.p0i8(i64 16, i8* nonnull %35) #15
  call void @llvm.memcpy.p0i8.p0i8.i64(i8* nonnull align 8 %35, i8* nonnull align 8 %34, i64 16, i1 false) #15
  %36 = load i32, i32* %33, align 4
  %37 = zext i32 %36 to i64
  call void @_ZNO8perfetto11TracedValue11WriteUInt64Em(%"class.perfetto::TracedValue"* nonnull %4, i64 %37) #15
  call void @llvm.lifetime.end.p0i8(i64 16, i8* nonnull %35) #15
  call void @_ZN8perfetto16TracedDictionary7AddItemENS_12StaticStringE(%"class.perfetto::TracedValue"* nonnull sret %14, %"class.perfetto::TracedDictionary"* nonnull %9, i8* getelementptr inbounds ([20 x i8], [20 x i8]* @.str.45, i64 0, i64 0)) #15
  %38 = getelementptr inbounds %"class.memory_instrumentation::mojom::blink::OSMemDump", %"class.memory_instrumentation::mojom::blink::OSMemDump"* %0, i64 0, i32 4
  %39 = bitcast %"class.perfetto::TracedValue"* %14 to i8*
  %40 = bitcast %"class.perfetto::TracedValue"* %3 to i8*
  call void @llvm.lifetime.start.p0i8(i64 16, i8* nonnull %40) #15
  call void @llvm.memcpy.p0i8.p0i8.i64(i8* nonnull align 8 %40, i8* nonnull align 8 %39, i64 16, i1 false) #15
  %41 = load i32, i32* %38, align 4
  %42 = zext i32 %41 to i64
  call void @_ZNO8perfetto11TracedValue11WriteUInt64Em(%"class.perfetto::TracedValue"* nonnull %3, i64 %42) #15
  call void @llvm.lifetime.end.p0i8(i64 16, i8* nonnull %40) #15
  call void @_ZN8perfetto16TracedDictionary7AddItemENS_12StaticStringE(%"class.perfetto::TracedValue"* nonnull sret %15, %"class.perfetto::TracedDictionary"* nonnull %9, i8* getelementptr inbounds ([26 x i8], [26 x i8]* @.str.46, i64 0, i64 0)) #15
  %43 = getelementptr inbounds %"class.memory_instrumentation::mojom::blink::OSMemDump", %"class.memory_instrumentation::mojom::blink::OSMemDump"* %0, i64 0, i32 5
  %44 = bitcast %"class.perfetto::TracedValue"* %15 to i8*
  %45 = bitcast %"class.perfetto::TracedValue"* %8 to i8*
  call void @llvm.lifetime.start.p0i8(i64 16, i8* nonnull %45) #15
  call void @llvm.memcpy.p0i8.p0i8.i64(i8* nonnull align 8 %45, i8* nonnull align 8 %44, i64 16, i1 false) #15
  %46 = load i32, i32* %43, align 4
  %47 = zext i32 %46 to i64
  call void @_ZNO8perfetto11TracedValue11WriteUInt64Em(%"class.perfetto::TracedValue"* nonnull %8, i64 %47) #15
  call void @llvm.lifetime.end.p0i8(i64 16, i8* nonnull %45) #15
  call void @llvm.lifetime.end.p0i8(i64 16, i8* nonnull %16) #15
  ret void
}

; Function Attrs: nounwind ssp uwtable
define hidden zeroext i1 @_ZN22memory_instrumentation5mojom5blink9OSMemDump8ValidateEPKvPN4mojo8internal17ValidationContextE(i8*, %"class.mojo::internal::ValidationContext"*) local_unnamed_addr #3 align 2 {
  %3 = tail call zeroext i1 @_ZN22memory_instrumentation5mojom8internal14OSMemDump_Data8ValidateEPKvPN4mojo8internal17ValidationContextE(i8* %0, %"class.mojo::internal::ValidationContext"* %1) #15
  ret i1 %3
}

declare zeroext i1 @_ZN22memory_instrumentation5mojom8internal14OSMemDump_Data8ValidateEPKvPN4mojo8internal17ValidationContextE(i8*, %"class.mojo::internal::ValidationContext"*) local_unnamed_addr #5

; Function Attrs: nounwind ssp uwtable
define hidden void @_ZN22memory_instrumentation5mojom5blink16AllocatorMemDumpC2Ev(%"class.memory_instrumentation::mojom::blink::AllocatorMemDump"* nocapture) unnamed_addr #3 align 2 {
  %2 = bitcast %"class.memory_instrumentation::mojom::blink::AllocatorMemDump"* %0 to i8*
  tail call void @llvm.memset.p0i8.i64(i8* align 8 %2, i8 0, i64 20, i1 false) #15
  ret void
}

; Function Attrs: nounwind ssp uwtable
define hidden void @_ZN22memory_instrumentation5mojom5blink16AllocatorMemDumpC2ERKN3WTF7HashMapINS3_6StringEmNS3_10StringHashENS3_10HashTraitsIS5_EENS7_ImEENS3_18PartitionAllocatorEEE(%"class.memory_instrumentation::mojom::blink::AllocatorMemDump"*, %"class.WTF::HashMap"* nocapture readonly dereferenceable(24)) unnamed_addr #3 align 2 {
  %3 = getelementptr inbounds %"class.memory_instrumentation::mojom::blink::AllocatorMemDump", %"class.memory_instrumentation::mojom::blink::AllocatorMemDump"* %0, i64 0, i32 0, i32 0
  %4 = getelementptr inbounds %"class.WTF::HashMap", %"class.WTF::HashMap"* %1, i64 0, i32 0, i32 2
  %5 = bitcast %"class.memory_instrumentation::mojom::blink::AllocatorMemDump"* %0 to i8*
  tail call void @llvm.memset.p0i8.i64(i8* align 8 %5, i8 0, i64 20, i1 false) #15
  %6 = load i32, i32* %4, align 4
  %7 = icmp eq i32 %6, 0
  br i1 %7, label %44, label %8

8:                                                ; preds = %2
  tail call void @_ZN3WTF9HashTableINS_6StringENS_12KeyValuePairIS1_mEENS_24KeyValuePairKeyExtractorENS_10StringHashENS_18HashMapValueTraitsINS_10HashTraitsIS1_EENS7_ImEEEES8_NS_18PartitionAllocatorEE22ReserveCapacityForSizeEj(%"class.WTF::HashTable"* %3, i32 %6) #15
  %9 = load i32, i32* %4, align 4
  %10 = icmp eq i32 %9, 0
  %11 = getelementptr inbounds %"class.WTF::HashMap", %"class.WTF::HashMap"* %1, i64 0, i32 0, i32 0
  %12 = load %"struct.WTF::KeyValuePair"*, %"struct.WTF::KeyValuePair"** %11, align 8
  %13 = getelementptr inbounds %"class.WTF::HashMap", %"class.WTF::HashMap"* %1, i64 0, i32 0, i32 1
  %14 = load i32, i32* %13, align 8
  %15 = zext i32 %14 to i64
  %16 = getelementptr inbounds %"struct.WTF::KeyValuePair", %"struct.WTF::KeyValuePair"* %12, i64 %15
  br i1 %10, label %44, label %17

17:                                               ; preds = %8
  %18 = icmp eq i32 %14, 0
  br i1 %18, label %26, label %19

19:                                               ; preds = %17, %23
  %20 = phi %"struct.WTF::KeyValuePair"* [ %24, %23 ], [ %12, %17 ]
  %21 = bitcast %"struct.WTF::KeyValuePair"* %20 to i64*
  %22 = load i64, i64* %21, align 8
  switch i64 %22, label %26 [
    i64 -1, label %23
    i64 0, label %23
  ]

23:                                               ; preds = %19, %19
  %24 = getelementptr inbounds %"struct.WTF::KeyValuePair", %"struct.WTF::KeyValuePair"* %20, i64 1
  %25 = icmp eq %"struct.WTF::KeyValuePair"* %24, %16
  br i1 %25, label %44, label %19

26:                                               ; preds = %19, %17
  %27 = phi %"struct.WTF::KeyValuePair"* [ %12, %17 ], [ %20, %19 ]
  %28 = icmp eq %"struct.WTF::KeyValuePair"* %27, %16
  br i1 %28, label %44, label %29

29:                                               ; preds = %26, %42
  %30 = phi %"struct.WTF::KeyValuePair"* [ %36, %42 ], [ %27, %26 ]
  %31 = getelementptr inbounds %"struct.WTF::KeyValuePair", %"struct.WTF::KeyValuePair"* %30, i64 0, i32 0
  %32 = tail call { %"struct.WTF::KeyValuePair"*, i8 } @_ZN3WTF9HashTableINS_6StringENS_12KeyValuePairIS1_mEENS_24KeyValuePairKeyExtractorENS_10StringHashENS_18HashMapValueTraitsINS_10HashTraitsIS1_EENS7_ImEEEES8_NS_18PartitionAllocatorEE6insertINS_22IdentityHashTranslatorIS5_SA_SB_EERKS1_RKS3_EENS_18HashTableAddResultISC_S3_EEOT0_OT1_(%"class.WTF::HashTable"* %3, %"class.WTF::String"* dereferenceable(8) %31, %"struct.WTF::KeyValuePair"* dereferenceable(16) %30) #15
  %33 = getelementptr inbounds %"struct.WTF::KeyValuePair", %"struct.WTF::KeyValuePair"* %30, i64 1
  %34 = icmp eq %"struct.WTF::KeyValuePair"* %33, %16
  br i1 %34, label %44, label %35

35:                                               ; preds = %29, %39
  %36 = phi %"struct.WTF::KeyValuePair"* [ %40, %39 ], [ %33, %29 ]
  %37 = bitcast %"struct.WTF::KeyValuePair"* %36 to i64*
  %38 = load i64, i64* %37, align 8
  switch i64 %38, label %42 [
    i64 -1, label %39
    i64 0, label %39
  ]

39:                                               ; preds = %35, %35
  %40 = getelementptr inbounds %"struct.WTF::KeyValuePair", %"struct.WTF::KeyValuePair"* %36, i64 1
  %41 = icmp eq %"struct.WTF::KeyValuePair"* %40, %16
  br i1 %41, label %44, label %35

42:                                               ; preds = %35
  %43 = icmp eq %"struct.WTF::KeyValuePair"* %36, %16
  br i1 %43, label %44, label %29

44:                                               ; preds = %23, %29, %42, %39, %2, %8, %26
  ret void
}

; Function Attrs: nounwind ssp uwtable
define hidden void @_ZN22memory_instrumentation5mojom5blink16AllocatorMemDumpD2Ev(%"class.memory_instrumentation::mojom::blink::AllocatorMemDump"* nocapture) unnamed_addr #3 align 2 {
  %2 = getelementptr inbounds %"class.memory_instrumentation::mojom::blink::AllocatorMemDump", %"class.memory_instrumentation::mojom::blink::AllocatorMemDump"* %0, i64 0, i32 0, i32 0, i32 0
  %3 = load %"struct.WTF::KeyValuePair"*, %"struct.WTF::KeyValuePair"** %2, align 8
  %4 = icmp eq %"struct.WTF::KeyValuePair"* %3, null
  br i1 %4, label %37, label %5, !prof !4

5:                                                ; preds = %1
  %6 = getelementptr inbounds %"class.memory_instrumentation::mojom::blink::AllocatorMemDump", %"class.memory_instrumentation::mojom::blink::AllocatorMemDump"* %0, i64 0, i32 0, i32 0, i32 1
  %7 = load i32, i32* %6, align 8
  %8 = icmp eq i32 %7, 0
  br i1 %8, label %35, label %9

9:                                                ; preds = %5
  %10 = zext i32 %7 to i64
  br label %11

11:                                               ; preds = %32, %9
  %12 = phi i64 [ 0, %9 ], [ %33, %32 ]
  %13 = getelementptr inbounds %"struct.WTF::KeyValuePair", %"struct.WTF::KeyValuePair"* %3, i64 %12
  %14 = bitcast %"struct.WTF::KeyValuePair"* %13 to i8**
  %15 = load i8*, i8** %14, align 8
  %16 = bitcast i8* %15 to %"class.WTF::StringImpl"*
  %17 = ptrtoint i8* %15 to i64
  switch i64 %17, label %18 [
    i64 -1, label %32
    i64 0, label %32
  ]

18:                                               ; preds = %11
  %19 = getelementptr inbounds i8, i8* %15, i64 8
  %20 = bitcast i8* %19 to i32*
  %21 = load atomic i32, i32* %20 monotonic, align 4
  %22 = and i32 %21, 2
  %23 = icmp eq i32 %22, 0
  %24 = bitcast i8* %15 to i32*
  %25 = load i32, i32* %24, align 4
  br i1 %23, label %26, label %28

26:                                               ; preds = %18
  %27 = add i32 %25, -1
  store i32 %27, i32* %24, align 4
  br label %28

28:                                               ; preds = %26, %18
  %29 = phi i32 [ %27, %26 ], [ %25, %18 ]
  %30 = icmp eq i32 %29, 0
  br i1 %30, label %31, label %32

31:                                               ; preds = %28
  tail call void @_ZNK3WTF10StringImpl18DestroyIfNotStaticEv(%"class.WTF::StringImpl"* nonnull %16) #15
  br label %32

32:                                               ; preds = %31, %28, %11, %11
  %33 = add nuw nsw i64 %12, 1
  %34 = icmp eq i64 %33, %10
  br i1 %34, label %35, label %11

35:                                               ; preds = %32, %5
  %36 = bitcast %"struct.WTF::KeyValuePair"* %3 to i8*
  tail call void @_ZN3WTF18PartitionAllocator11FreeBackingEPv(i8* nonnull %36) #15
  store %"struct.WTF::KeyValuePair"* null, %"struct.WTF::KeyValuePair"** %2, align 8
  br label %37

37:                                               ; preds = %1, %35
  ret void
}

; Function Attrs: nounwind ssp uwtable
define hidden void @_ZNK22memory_instrumentation5mojom5blink16AllocatorMemDump14WriteIntoTraceEN8perfetto11TracedValueE(%"class.memory_instrumentation::mojom::blink::AllocatorMemDump"* nocapture readnone, %"class.perfetto::TracedValue"*) local_unnamed_addr #3 align 2 {
  %3 = alloca %"class.perfetto::TracedDictionary", align 8
  %4 = alloca %"class.perfetto::TracedValue", align 8
  %5 = alloca %"class.std::__1::basic_string", align 8
  %6 = bitcast %"class.perfetto::TracedDictionary"* %3 to i8*
  call void @llvm.lifetime.start.p0i8(i64 16, i8* nonnull %6) #15
  %7 = bitcast %"class.perfetto::TracedDictionary"* %3 to i8*
  call void @llvm.memset.p0i8.i64(i8* nonnull align 8 %7, i8 -86, i64 16, i1 false)
  call void @_ZNO8perfetto11TracedValue15WriteDictionaryEv(%"class.perfetto::TracedDictionary"* nonnull sret %3, %"class.perfetto::TracedValue"* %1) #15
  call void @_ZN8perfetto16TracedDictionary7AddItemENS_12StaticStringE(%"class.perfetto::TracedValue"* nonnull sret %4, %"class.perfetto::TracedDictionary"* nonnull %3, i8* getelementptr inbounds ([16 x i8], [16 x i8]* @.str.47, i64 0, i64 0)) #15
  %8 = bitcast %"class.std::__1::basic_string"* %5 to i8*
  call void @llvm.lifetime.start.p0i8(i64 24, i8* nonnull %8) #15
  %9 = bitcast %"class.std::__1::basic_string"* %5 to %"struct.std::__1::basic_string<char, std::__1::char_traits<char>, std::__1::allocator<char> >::__short"*
  %10 = getelementptr inbounds %"struct.std::__1::basic_string<char, std::__1::char_traits<char>, std::__1::allocator<char> >::__short", %"struct.std::__1::basic_string<char, std::__1::char_traits<char>, std::__1::allocator<char> >::__short"* %9, i64 0, i32 1, i32 0
  store i8 7, i8* %10, align 1
  call void @llvm.memcpy.p0i8.p0i8.i64(i8* nonnull align 8 %8, i8* align 1 getelementptr inbounds ([8 x i8], [8 x i8]* @.str.1, i64 0, i64 0), i64 7, i1 false) #15
  %11 = getelementptr inbounds i8, i8* %8, i64 7
  store i8 0, i8* %11, align 1
  call void @_ZNO8perfetto11TracedValue11WriteStringERKNSt3__112basic_stringIcNS1_11char_traitsIcEENS1_9allocatorIcEEEE(%"class.perfetto::TracedValue"* nonnull %4, %"class.std::__1::basic_string"* nonnull dereferenceable(24) %5) #15
  %12 = load i8, i8* %10, align 1
  %13 = icmp slt i8 %12, 0
  br i1 %13, label %14, label %17

14:                                               ; preds = %2
  %15 = getelementptr inbounds %"class.std::__1::basic_string", %"class.std::__1::basic_string"* %5, i64 0, i32 0, i32 0, i32 0, i32 0, i32 0, i32 0
  %16 = load i8*, i8** %15, align 8
  call void @_ZdlPv(i8* %16) #16
  br label %17

17:                                               ; preds = %2, %14
  call void @llvm.lifetime.end.p0i8(i64 24, i8* nonnull %8) #15
  call void @llvm.lifetime.end.p0i8(i64 16, i8* nonnull %6) #15
  ret void
}

; Function Attrs: nounwind ssp uwtable
define hidden zeroext i1 @_ZN22memory_instrumentation5mojom5blink16AllocatorMemDump8ValidateEPKvPN4mojo8internal17ValidationContextE(i8*, %"class.mojo::internal::ValidationContext"*) local_unnamed_addr #3 align 2 {
  %3 = tail call zeroext i1 @_ZN22memory_instrumentation5mojom8internal21AllocatorMemDump_Data8ValidateEPKvPN4mojo8internal17ValidationContextE(i8* %0, %"class.mojo::internal::ValidationContext"* %1) #15
  ret i1 %3
}

declare zeroext i1 @_ZN22memory_instrumentation5mojom8internal21AllocatorMemDump_Data8ValidateEPKvPN4mojo8internal17ValidationContextE(i8*, %"class.mojo::internal::ValidationContext"*) local_unnamed_addr #5

; Function Attrs: nounwind ssp uwtable
define hidden void @_ZN22memory_instrumentation5mojom5blink17ProcessMemoryDumpC2Ev(%"class.memory_instrumentation::mojom::blink::ProcessMemoryDump"*) unnamed_addr #3 align 2 {
  %2 = getelementptr inbounds %"class.memory_instrumentation::mojom::blink::ProcessMemoryDump", %"class.memory_instrumentation::mojom::blink::ProcessMemoryDump"* %0, i64 0, i32 0
  store i32 0, i32* %2, align 8
  %3 = getelementptr inbounds %"class.memory_instrumentation::mojom::blink::ProcessMemoryDump", %"class.memory_instrumentation::mojom::blink::ProcessMemoryDump"* %0, i64 0, i32 1
  %4 = getelementptr inbounds %"class.memory_instrumentation::mojom::blink::ProcessMemoryDump", %"class.memory_instrumentation::mojom::blink::ProcessMemoryDump"* %0, i64 0, i32 3
  %5 = bitcast %"class.mojo::InlinedStructPtr.103"* %4 to i64*
  store i64 0, i64* %5, align 8
  %6 = getelementptr inbounds %"class.mojo::InlinedStructPtr.103", %"class.mojo::InlinedStructPtr.103"* %4, i64 0, i32 0
  %7 = bitcast %"class.mojo::StructPtr.84"* %3 to i8*
  call void @llvm.memset.p0i8.i64(i8* align 8 %7, i8 0, i64 28, i1 false)
  tail call void @_ZN9mojo_base5mojom5blink9ProcessIdC1Ev(%"class.mojo_base::mojom::blink::ProcessId"* %6) #15
  %8 = getelementptr inbounds %"class.memory_instrumentation::mojom::blink::ProcessMemoryDump", %"class.memory_instrumentation::mojom::blink::ProcessMemoryDump"* %0, i64 0, i32 3, i32 1
  store i32 0, i32* %8, align 4
  %9 = getelementptr inbounds %"class.memory_instrumentation::mojom::blink::ProcessMemoryDump", %"class.memory_instrumentation::mojom::blink::ProcessMemoryDump"* %0, i64 0, i32 4, i32 0, i32 0
  store %"class.WTF::StringImpl"* null, %"class.WTF::StringImpl"** %9, align 8
  ret void
}

; Function Attrs: nounwind ssp uwtable
define hidden void @_ZN22memory_instrumentation5mojom5blink17ProcessMemoryDumpC2ENS0_11ProcessTypeEN4mojo9StructPtrINS1_9OSMemDumpEEEN3WTF7HashMapINS8_6StringENS5_INS1_16AllocatorMemDumpEEENS8_10StringHashENS8_10HashTraitsISA_EENSE_ISC_EENS8_18PartitionAllocatorEEENS4_16InlinedStructPtrIN9mojo_base5mojom5blink9ProcessIdEEERKSA_(%"class.memory_instrumentation::mojom::blink::ProcessMemoryDump"*, i32, %"class.mojo::StructPtr.84"* nocapture, %"class.WTF::HashMap.91"* nocapture, %"class.mojo::InlinedStructPtr.103"* nocapture, %"class.WTF::String"* nocapture readonly dereferenceable(8)) unnamed_addr #3 align 2 {
  %7 = alloca %"class.mojo_base::mojom::blink::ProcessId", align 4
  %8 = getelementptr inbounds %"class.memory_instrumentation::mojom::blink::ProcessMemoryDump", %"class.memory_instrumentation::mojom::blink::ProcessMemoryDump"* %0, i64 0, i32 0
  store i32 %1, i32* %8, align 8
  %9 = getelementptr inbounds %"class.memory_instrumentation::mojom::blink::ProcessMemoryDump", %"class.memory_instrumentation::mojom::blink::ProcessMemoryDump"* %0, i64 0, i32 1
  %10 = bitcast %"class.mojo::StructPtr.84"* %9 to i64*
  %11 = getelementptr inbounds %"class.mojo::StructPtr.84", %"class.mojo::StructPtr.84"* %9, i64 0, i32 0, i32 0, i32 0, i32 0
  store %"class.memory_instrumentation::mojom::blink::OSMemDump"* null, %"class.memory_instrumentation::mojom::blink::OSMemDump"** %11, align 8
  %12 = bitcast %"class.mojo::StructPtr.84"* %2 to i64*
  %13 = load i64, i64* %12, align 8
  store i64 %13, i64* %10, align 8
  store i64 0, i64* %12, align 8
  %14 = getelementptr inbounds %"class.memory_instrumentation::mojom::blink::ProcessMemoryDump", %"class.memory_instrumentation::mojom::blink::ProcessMemoryDump"* %0, i64 0, i32 2
  %15 = getelementptr inbounds %"class.memory_instrumentation::mojom::blink::ProcessMemoryDump", %"class.memory_instrumentation::mojom::blink::ProcessMemoryDump"* %0, i64 0, i32 2, i32 0, i32 1
  %16 = getelementptr inbounds %"class.memory_instrumentation::mojom::blink::ProcessMemoryDump", %"class.memory_instrumentation::mojom::blink::ProcessMemoryDump"* %0, i64 0, i32 2, i32 0, i32 2
  %17 = getelementptr inbounds %"class.memory_instrumentation::mojom::blink::ProcessMemoryDump", %"class.memory_instrumentation::mojom::blink::ProcessMemoryDump"* %0, i64 0, i32 2, i32 0, i32 3
  %18 = bitcast %"class.WTF::HashMap.91"* %3 to i64*
  %19 = bitcast %"class.WTF::HashMap.91"* %14 to i8*
  tail call void @llvm.memset.p0i8.i64(i8* align 8 %19, i8 0, i64 20, i1 false) #15
  %20 = load i64, i64* %18, align 8
  %21 = bitcast %"class.WTF::HashMap.91"* %14 to i64*
  store atomic i64 0, i64* %18 monotonic, align 8
  store atomic i64 %20, i64* %21 monotonic, align 8
  %22 = getelementptr inbounds %"class.WTF::HashMap.91", %"class.WTF::HashMap.91"* %3, i64 0, i32 0, i32 1
  %23 = load i32, i32* %15, align 4
  %24 = load i32, i32* %22, align 4
  store i32 %24, i32* %15, align 4
  store i32 %23, i32* %22, align 4
  %25 = getelementptr inbounds %"class.WTF::HashMap.91", %"class.WTF::HashMap.91"* %3, i64 0, i32 0, i32 2
  %26 = load i32, i32* %16, align 4
  %27 = load i32, i32* %25, align 4
  store i32 %27, i32* %16, align 4
  store i32 %26, i32* %25, align 4
  %28 = load i32, i32* %17, align 8
  %29 = and i32 %28, 2147483647
  %30 = getelementptr inbounds %"class.WTF::HashMap.91", %"class.WTF::HashMap.91"* %3, i64 0, i32 0, i32 3
  %31 = load i32, i32* %30, align 8
  %32 = and i32 %31, 2147483647
  %33 = and i32 %28, -2147483648
  %34 = or i32 %32, %33
  store i32 %34, i32* %17, align 8
  %35 = load i32, i32* %30, align 8
  %36 = and i32 %35, -2147483648
  %37 = or i32 %36, %29
  store i32 %37, i32* %30, align 8
  %38 = getelementptr inbounds %"class.memory_instrumentation::mojom::blink::ProcessMemoryDump", %"class.memory_instrumentation::mojom::blink::ProcessMemoryDump"* %0, i64 0, i32 3
  %39 = getelementptr inbounds %"class.mojo::InlinedStructPtr.103", %"class.mojo::InlinedStructPtr.103"* %38, i64 0, i32 0
  tail call void @_ZN9mojo_base5mojom5blink9ProcessIdC1Ev(%"class.mojo_base::mojom::blink::ProcessId"* %39) #15
  %40 = getelementptr inbounds %"class.memory_instrumentation::mojom::blink::ProcessMemoryDump", %"class.memory_instrumentation::mojom::blink::ProcessMemoryDump"* %0, i64 0, i32 3, i32 1
  store i32 0, i32* %40, align 4
  tail call void @_ZN9mojo_base5mojom5blink9ProcessIdD1Ev(%"class.mojo_base::mojom::blink::ProcessId"* %39) #15
  tail call void @_ZN9mojo_base5mojom5blink9ProcessIdC1Ev(%"class.mojo_base::mojom::blink::ProcessId"* %39) #15
  %41 = bitcast %"class.mojo_base::mojom::blink::ProcessId"* %7 to i8*
  call void @llvm.lifetime.start.p0i8(i64 4, i8* nonnull %41) #15
  %42 = getelementptr inbounds %"class.mojo_base::mojom::blink::ProcessId", %"class.mojo_base::mojom::blink::ProcessId"* %7, i64 0, i32 0
  %43 = getelementptr inbounds %"class.mojo::InlinedStructPtr.103", %"class.mojo::InlinedStructPtr.103"* %38, i64 0, i32 0, i32 0
  %44 = load i32, i32* %43, align 4
  store i32 %44, i32* %42, align 4
  %45 = getelementptr inbounds %"class.mojo::InlinedStructPtr.103", %"class.mojo::InlinedStructPtr.103"* %4, i64 0, i32 0, i32 0
  %46 = load i32, i32* %45, align 4
  store i32 %46, i32* %43, align 4
  store i32 %44, i32* %45, align 4
  call void @_ZN9mojo_base5mojom5blink9ProcessIdD1Ev(%"class.mojo_base::mojom::blink::ProcessId"* nonnull %7) #15
  call void @llvm.lifetime.end.p0i8(i64 4, i8* nonnull %41) #15
  %47 = getelementptr inbounds %"class.mojo::InlinedStructPtr.103", %"class.mojo::InlinedStructPtr.103"* %4, i64 0, i32 1
  %48 = load i32, i32* %40, align 4
  %49 = load i32, i32* %47, align 4
  store i32 %49, i32* %40, align 4
  store i32 %48, i32* %47, align 4
  %50 = getelementptr inbounds %"class.WTF::String", %"class.WTF::String"* %5, i64 0, i32 0, i32 0
  %51 = load %"class.WTF::StringImpl"*, %"class.WTF::StringImpl"** %50, align 8
  %52 = getelementptr inbounds %"class.memory_instrumentation::mojom::blink::ProcessMemoryDump", %"class.memory_instrumentation::mojom::blink::ProcessMemoryDump"* %0, i64 0, i32 4, i32 0, i32 0
  store %"class.WTF::StringImpl"* %51, %"class.WTF::StringImpl"** %52, align 8
  %53 = icmp eq %"class.WTF::StringImpl"* %51, null
  br i1 %53, label %71, label %54

54:                                               ; preds = %6
  %55 = getelementptr inbounds %"class.WTF::StringImpl", %"class.WTF::StringImpl"* %51, i64 0, i32 2, i32 0, i32 0, i32 0, i32 0, i32 0
  %56 = load atomic i32, i32* %55 monotonic, align 4
  %57 = and i32 %56, 2
  %58 = icmp eq i32 %57, 0
  br i1 %58, label %59, label %71

59:                                               ; preds = %54
  %60 = getelementptr inbounds %"class.WTF::StringImpl", %"class.WTF::StringImpl"* %51, i64 0, i32 0
  %61 = load i32, i32* %60, align 4
  %62 = zext i32 %61 to i33
  %63 = call { i33, i1 } @llvm.sadd.with.overflow.i33(i33 %62, i33 1) #15
  %64 = extractvalue { i33, i1 } %63, 1
  %65 = extractvalue { i33, i1 } %63, 0
  %66 = icmp slt i33 %65, 0
  %67 = or i1 %64, %66
  br i1 %67, label %68, label %69, !prof !3

68:                                               ; preds = %59
  call void @llvm.trap() #15
  unreachable

69:                                               ; preds = %59
  %70 = trunc i33 %65 to i32
  store i32 %70, i32* %60, align 4
  br label %71

71:                                               ; preds = %6, %54, %69
  ret void
}

; Function Attrs: nounwind ssp uwtable
define hidden void @_ZN22memory_instrumentation5mojom5blink17ProcessMemoryDumpD2Ev(%"class.memory_instrumentation::mojom::blink::ProcessMemoryDump"*) unnamed_addr #3 align 2 {
  %2 = getelementptr inbounds %"class.memory_instrumentation::mojom::blink::ProcessMemoryDump", %"class.memory_instrumentation::mojom::blink::ProcessMemoryDump"* %0, i64 0, i32 4, i32 0, i32 0
  %3 = load %"class.WTF::StringImpl"*, %"class.WTF::StringImpl"** %2, align 8
  %4 = icmp eq %"class.WTF::StringImpl"* %3, null
  br i1 %4, label %18, label %5

5:                                                ; preds = %1
  %6 = getelementptr inbounds %"class.WTF::StringImpl", %"class.WTF::StringImpl"* %3, i64 0, i32 2, i32 0, i32 0, i32 0, i32 0, i32 0
  %7 = load atomic i32, i32* %6 monotonic, align 4
  %8 = and i32 %7, 2
  %9 = icmp eq i32 %8, 0
  %10 = getelementptr inbounds %"class.WTF::StringImpl", %"class.WTF::StringImpl"* %3, i64 0, i32 0
  %11 = load i32, i32* %10, align 4
  br i1 %9, label %12, label %14

12:                                               ; preds = %5
  %13 = add i32 %11, -1
  store i32 %13, i32* %10, align 4
  br label %14

14:                                               ; preds = %12, %5
  %15 = phi i32 [ %13, %12 ], [ %11, %5 ]
  %16 = icmp eq i32 %15, 0
  br i1 %16, label %17, label %18

17:                                               ; preds = %14
  tail call void @_ZNK3WTF10StringImpl18DestroyIfNotStaticEv(%"class.WTF::StringImpl"* nonnull %3) #15
  br label %18

18:                                               ; preds = %1, %14, %17
  %19 = getelementptr inbounds %"class.memory_instrumentation::mojom::blink::ProcessMemoryDump", %"class.memory_instrumentation::mojom::blink::ProcessMemoryDump"* %0, i64 0, i32 3, i32 0
  tail call void @_ZN9mojo_base5mojom5blink9ProcessIdD1Ev(%"class.mojo_base::mojom::blink::ProcessId"* %19) #15
  %20 = getelementptr inbounds %"class.memory_instrumentation::mojom::blink::ProcessMemoryDump", %"class.memory_instrumentation::mojom::blink::ProcessMemoryDump"* %0, i64 0, i32 2, i32 0, i32 0
  %21 = load %"struct.WTF::KeyValuePair.95"*, %"struct.WTF::KeyValuePair.95"** %20, align 8
  %22 = icmp eq %"struct.WTF::KeyValuePair.95"* %21, null
  br i1 %22, label %101, label %23, !prof !4

23:                                               ; preds = %18
  %24 = getelementptr inbounds %"class.memory_instrumentation::mojom::blink::ProcessMemoryDump", %"class.memory_instrumentation::mojom::blink::ProcessMemoryDump"* %0, i64 0, i32 2, i32 0, i32 1
  %25 = load i32, i32* %24, align 8
  %26 = icmp eq i32 %25, 0
  br i1 %26, label %99, label %27

27:                                               ; preds = %23
  %28 = zext i32 %25 to i64
  br label %29

29:                                               ; preds = %96, %27
  %30 = phi i64 [ 0, %27 ], [ %97, %96 ]
  %31 = getelementptr inbounds %"struct.WTF::KeyValuePair.95", %"struct.WTF::KeyValuePair.95"* %21, i64 %30
  %32 = bitcast %"struct.WTF::KeyValuePair.95"* %31 to i8**
  %33 = load i8*, i8** %32, align 8
  %34 = icmp eq i8* %33, inttoptr (i64 -1 to i8*)
  br i1 %34, label %96, label %35

35:                                               ; preds = %29
  %36 = bitcast i8* %33 to %"class.WTF::StringImpl"*
  %37 = getelementptr inbounds %"struct.WTF::KeyValuePair.95", %"struct.WTF::KeyValuePair.95"* %21, i64 %30, i32 1, i32 0, i32 0, i32 0, i32 0
  %38 = load %"class.memory_instrumentation::mojom::blink::AllocatorMemDump"*, %"class.memory_instrumentation::mojom::blink::AllocatorMemDump"** %37, align 8
  store %"class.memory_instrumentation::mojom::blink::AllocatorMemDump"* null, %"class.memory_instrumentation::mojom::blink::AllocatorMemDump"** %37, align 8
  %39 = icmp eq %"class.memory_instrumentation::mojom::blink::AllocatorMemDump"* %38, null
  br i1 %39, label %80, label %40

40:                                               ; preds = %35
  %41 = getelementptr inbounds %"class.memory_instrumentation::mojom::blink::AllocatorMemDump", %"class.memory_instrumentation::mojom::blink::AllocatorMemDump"* %38, i64 0, i32 0, i32 0, i32 0
  %42 = load %"struct.WTF::KeyValuePair"*, %"struct.WTF::KeyValuePair"** %41, align 8
  %43 = icmp eq %"struct.WTF::KeyValuePair"* %42, null
  br i1 %43, label %76, label %44, !prof !4

44:                                               ; preds = %40
  %45 = getelementptr inbounds %"class.memory_instrumentation::mojom::blink::AllocatorMemDump", %"class.memory_instrumentation::mojom::blink::AllocatorMemDump"* %38, i64 0, i32 0, i32 0, i32 1
  %46 = load i32, i32* %45, align 8
  %47 = icmp eq i32 %46, 0
  br i1 %47, label %74, label %48

48:                                               ; preds = %44
  %49 = zext i32 %46 to i64
  br label %50

50:                                               ; preds = %71, %48
  %51 = phi i64 [ 0, %48 ], [ %72, %71 ]
  %52 = getelementptr inbounds %"struct.WTF::KeyValuePair", %"struct.WTF::KeyValuePair"* %42, i64 %51
  %53 = bitcast %"struct.WTF::KeyValuePair"* %52 to i8**
  %54 = load i8*, i8** %53, align 8
  %55 = bitcast i8* %54 to %"class.WTF::StringImpl"*
  %56 = ptrtoint i8* %54 to i64
  switch i64 %56, label %57 [
    i64 -1, label %71
    i64 0, label %71
  ]

57:                                               ; preds = %50
  %58 = getelementptr inbounds i8, i8* %54, i64 8
  %59 = bitcast i8* %58 to i32*
  %60 = load atomic i32, i32* %59 monotonic, align 4
  %61 = and i32 %60, 2
  %62 = icmp eq i32 %61, 0
  %63 = bitcast i8* %54 to i32*
  %64 = load i32, i32* %63, align 4
  br i1 %62, label %65, label %67

65:                                               ; preds = %57
  %66 = add i32 %64, -1
  store i32 %66, i32* %63, align 4
  br label %67

67:                                               ; preds = %65, %57
  %68 = phi i32 [ %66, %65 ], [ %64, %57 ]
  %69 = icmp eq i32 %68, 0
  br i1 %69, label %70, label %71

70:                                               ; preds = %67
  tail call void @_ZNK3WTF10StringImpl18DestroyIfNotStaticEv(%"class.WTF::StringImpl"* nonnull %55) #15
  br label %71

71:                                               ; preds = %70, %67, %50, %50
  %72 = add nuw nsw i64 %51, 1
  %73 = icmp eq i64 %72, %49
  br i1 %73, label %74, label %50

74:                                               ; preds = %71, %44
  %75 = bitcast %"struct.WTF::KeyValuePair"* %42 to i8*
  tail call void @_ZN3WTF18PartitionAllocator11FreeBackingEPv(i8* nonnull %75) #15
  br label %76

76:                                               ; preds = %74, %40
  %77 = bitcast %"class.memory_instrumentation::mojom::blink::AllocatorMemDump"* %38 to i8*
  tail call void @_ZdlPv(i8* %77) #16
  %78 = getelementptr inbounds %"struct.WTF::KeyValuePair.95", %"struct.WTF::KeyValuePair.95"* %31, i64 0, i32 0, i32 0, i32 0
  %79 = load %"class.WTF::StringImpl"*, %"class.WTF::StringImpl"** %78, align 8
  br label %80

80:                                               ; preds = %76, %35
  %81 = phi %"class.WTF::StringImpl"* [ %79, %76 ], [ %36, %35 ]
  %82 = icmp eq %"class.WTF::StringImpl"* %81, null
  br i1 %82, label %96, label %83

83:                                               ; preds = %80
  %84 = getelementptr inbounds %"class.WTF::StringImpl", %"class.WTF::StringImpl"* %81, i64 0, i32 2, i32 0, i32 0, i32 0, i32 0, i32 0
  %85 = load atomic i32, i32* %84 monotonic, align 4
  %86 = and i32 %85, 2
  %87 = icmp eq i32 %86, 0
  %88 = getelementptr inbounds %"class.WTF::StringImpl", %"class.WTF::StringImpl"* %81, i64 0, i32 0
  %89 = load i32, i32* %88, align 4
  br i1 %87, label %90, label %92

90:                                               ; preds = %83
  %91 = add i32 %89, -1
  store i32 %91, i32* %88, align 4
  br label %92

92:                                               ; preds = %90, %83
  %93 = phi i32 [ %91, %90 ], [ %89, %83 ]
  %94 = icmp eq i32 %93, 0
  br i1 %94, label %95, label %96

95:                                               ; preds = %92
  tail call void @_ZNK3WTF10StringImpl18DestroyIfNotStaticEv(%"class.WTF::StringImpl"* nonnull %81) #15
  br label %96

96:                                               ; preds = %95, %92, %80, %29
  %97 = add nuw nsw i64 %30, 1
  %98 = icmp eq i64 %97, %28
  br i1 %98, label %99, label %29

99:                                               ; preds = %96, %23
  %100 = bitcast %"struct.WTF::KeyValuePair.95"* %21 to i8*
  tail call void @_ZN3WTF18PartitionAllocator11FreeBackingEPv(i8* nonnull %100) #15
  store %"struct.WTF::KeyValuePair.95"* null, %"struct.WTF::KeyValuePair.95"** %20, align 8
  br label %101

101:                                              ; preds = %18, %99
  %102 = getelementptr inbounds %"class.memory_instrumentation::mojom::blink::ProcessMemoryDump", %"class.memory_instrumentation::mojom::blink::ProcessMemoryDump"* %0, i64 0, i32 1, i32 0, i32 0, i32 0, i32 0
  %103 = load %"class.memory_instrumentation::mojom::blink::OSMemDump"*, %"class.memory_instrumentation::mojom::blink::OSMemDump"** %102, align 8
  store %"class.memory_instrumentation::mojom::blink::OSMemDump"* null, %"class.memory_instrumentation::mojom::blink::OSMemDump"** %102, align 8
  %104 = icmp eq %"class.memory_instrumentation::mojom::blink::OSMemDump"* %103, null
  br i1 %104, label %107, label %105

105:                                              ; preds = %101
  %106 = bitcast %"class.memory_instrumentation::mojom::blink::OSMemDump"* %103 to i8*
  tail call void @_ZdlPv(i8* %106) #16
  br label %107

107:                                              ; preds = %101, %105
  ret void
}

; Function Attrs: nounwind ssp uwtable
define hidden void @_ZNK22memory_instrumentation5mojom5blink17ProcessMemoryDump14WriteIntoTraceEN8perfetto11TracedValueE(%"class.memory_instrumentation::mojom::blink::ProcessMemoryDump"*, %"class.perfetto::TracedValue"*) local_unnamed_addr #3 align 2 {
  %3 = alloca %"class.perfetto::TracedValue", align 8
  %4 = alloca %"class.perfetto::TracedValue", align 8
  %5 = alloca %"class.perfetto::TracedValue", align 8
  %6 = alloca %"class.perfetto::TracedValue", align 8
  %7 = alloca %"class.perfetto::TracedValue", align 8
  %8 = alloca %"class.perfetto::TracedValue", align 8
  %9 = alloca %"class.perfetto::TracedDictionary", align 8
  %10 = alloca %"class.perfetto::TracedValue", align 8
  %11 = alloca %"class.perfetto::TracedValue", align 8
  %12 = alloca %"class.perfetto::TracedValue", align 8
  %13 = alloca %"class.std::__1::basic_string", align 8
  %14 = alloca %"class.perfetto::TracedValue", align 8
  %15 = alloca %"class.perfetto::TracedValue", align 8
  %16 = bitcast %"class.perfetto::TracedDictionary"* %9 to i8*
  call void @llvm.lifetime.start.p0i8(i64 16, i8* nonnull %16) #15
  %17 = bitcast %"class.perfetto::TracedDictionary"* %9 to i8*
  call void @llvm.memset.p0i8.i64(i8* nonnull align 8 %17, i8 -86, i64 16, i1 false)
  call void @_ZNO8perfetto11TracedValue15WriteDictionaryEv(%"class.perfetto::TracedDictionary"* nonnull sret %9, %"class.perfetto::TracedValue"* %1) #15
  call void @_ZN8perfetto16TracedDictionary7AddItemENS_12StaticStringE(%"class.perfetto::TracedValue"* nonnull sret %10, %"class.perfetto::TracedDictionary"* nonnull %9, i8* getelementptr inbounds ([13 x i8], [13 x i8]* @.str.48, i64 0, i64 0)) #15
  %18 = getelementptr inbounds %"class.memory_instrumentation::mojom::blink::ProcessMemoryDump", %"class.memory_instrumentation::mojom::blink::ProcessMemoryDump"* %0, i64 0, i32 0
  %19 = bitcast %"class.perfetto::TracedValue"* %10 to i8*
  %20 = bitcast %"class.perfetto::TracedValue"* %7 to i8*
  call void @llvm.lifetime.start.p0i8(i64 16, i8* nonnull %20) #15
  call void @llvm.memcpy.p0i8.p0i8.i64(i8* nonnull align 8 %20, i8* nonnull align 8 %19, i64 16, i1 false) #15
  %21 = load i32, i32* %18, align 4
  call void @_ZN8perfetto17TraceFormatTraitsIN22memory_instrumentation5mojom11ProcessTypeEvE14WriteIntoTraceENS_11TracedValueES3_(%"class.perfetto::TracedValue"* nonnull %7, i32 %21) #15
  call void @llvm.lifetime.end.p0i8(i64 16, i8* nonnull %20) #15
  call void @_ZN8perfetto16TracedDictionary7AddItemENS_12StaticStringE(%"class.perfetto::TracedValue"* nonnull sret %11, %"class.perfetto::TracedDictionary"* nonnull %9, i8* getelementptr inbounds ([8 x i8], [8 x i8]* @.str.49, i64 0, i64 0)) #15
  %22 = bitcast %"class.perfetto::TracedValue"* %11 to i8*
  %23 = getelementptr inbounds %"class.memory_instrumentation::mojom::blink::ProcessMemoryDump", %"class.memory_instrumentation::mojom::blink::ProcessMemoryDump"* %0, i64 0, i32 1, i32 0, i32 0, i32 0, i32 0
  %24 = load %"class.memory_instrumentation::mojom::blink::OSMemDump"*, %"class.memory_instrumentation::mojom::blink::OSMemDump"** %23, align 8
  %25 = bitcast %"class.perfetto::TracedValue"* %6 to i8*
  call void @llvm.lifetime.start.p0i8(i64 16, i8* nonnull %25) #15
  call void @llvm.memcpy.p0i8.p0i8.i64(i8* nonnull align 8 %25, i8* nonnull align 8 %22, i64 16, i1 false)
  %26 = icmp eq %"class.memory_instrumentation::mojom::blink::OSMemDump"* %24, null
  br i1 %26, label %27, label %28

27:                                               ; preds = %2
  call void @_ZNO8perfetto11TracedValue12WritePointerEPKv(%"class.perfetto::TracedValue"* nonnull %6, i8* null) #15
  br label %30

28:                                               ; preds = %2
  %29 = bitcast %"class.perfetto::TracedValue"* %5 to i8*
  call void @llvm.lifetime.start.p0i8(i64 16, i8* nonnull %29) #15
  call void @llvm.memcpy.p0i8.p0i8.i64(i8* nonnull align 8 %29, i8* nonnull align 8 %25, i64 16, i1 false) #15
  call void @_ZNK22memory_instrumentation5mojom5blink9OSMemDump14WriteIntoTraceEN8perfetto11TracedValueE(%"class.memory_instrumentation::mojom::blink::OSMemDump"* nonnull %24, %"class.perfetto::TracedValue"* nonnull %5) #15
  call void @llvm.lifetime.end.p0i8(i64 16, i8* nonnull %29) #15
  br label %30

30:                                               ; preds = %28, %27
  call void @llvm.lifetime.end.p0i8(i64 16, i8* nonnull %25) #15
  call void @_ZN8perfetto16TracedDictionary7AddItemENS_12StaticStringE(%"class.perfetto::TracedValue"* nonnull sret %12, %"class.perfetto::TracedDictionary"* nonnull %9, i8* getelementptr inbounds ([23 x i8], [23 x i8]* @.str.50, i64 0, i64 0)) #15
  %31 = bitcast %"class.std::__1::basic_string"* %13 to i8*
  call void @llvm.lifetime.start.p0i8(i64 24, i8* nonnull %31) #15
  %32 = bitcast %"class.std::__1::basic_string"* %13 to %"struct.std::__1::basic_string<char, std::__1::char_traits<char>, std::__1::allocator<char> >::__short"*
  %33 = getelementptr inbounds %"struct.std::__1::basic_string<char, std::__1::char_traits<char>, std::__1::allocator<char> >::__short", %"struct.std::__1::basic_string<char, std::__1::char_traits<char>, std::__1::allocator<char> >::__short"* %32, i64 0, i32 1, i32 0
  store i8 7, i8* %33, align 1
  call void @llvm.memcpy.p0i8.p0i8.i64(i8* nonnull align 8 %31, i8* align 1 getelementptr inbounds ([8 x i8], [8 x i8]* @.str.1, i64 0, i64 0), i64 7, i1 false) #15
  %34 = getelementptr inbounds i8, i8* %31, i64 7
  store i8 0, i8* %34, align 1
  call void @_ZNO8perfetto11TracedValue11WriteStringERKNSt3__112basic_stringIcNS1_11char_traitsIcEENS1_9allocatorIcEEEE(%"class.perfetto::TracedValue"* nonnull %12, %"class.std::__1::basic_string"* nonnull dereferenceable(24) %13) #15
  %35 = load i8, i8* %33, align 1
  %36 = icmp slt i8 %35, 0
  br i1 %36, label %37, label %40

37:                                               ; preds = %30
  %38 = getelementptr inbounds %"class.std::__1::basic_string", %"class.std::__1::basic_string"* %13, i64 0, i32 0, i32 0, i32 0, i32 0, i32 0, i32 0
  %39 = load i8*, i8** %38, align 8
  call void @_ZdlPv(i8* %39) #16
  br label %40

40:                                               ; preds = %30, %37
  call void @llvm.lifetime.end.p0i8(i64 24, i8* nonnull %31) #15
  call void @_ZN8perfetto16TracedDictionary7AddItemENS_12StaticStringE(%"class.perfetto::TracedValue"* nonnull sret %14, %"class.perfetto::TracedDictionary"* nonnull %9, i8* getelementptr inbounds ([4 x i8], [4 x i8]* @.str.51, i64 0, i64 0)) #15
  %41 = getelementptr inbounds %"class.memory_instrumentation::mojom::blink::ProcessMemoryDump", %"class.memory_instrumentation::mojom::blink::ProcessMemoryDump"* %0, i64 0, i32 3
  %42 = bitcast %"class.perfetto::TracedValue"* %14 to i8*
  %43 = getelementptr inbounds %"class.memory_instrumentation::mojom::blink::ProcessMemoryDump", %"class.memory_instrumentation::mojom::blink::ProcessMemoryDump"* %0, i64 0, i32 3, i32 1
  %44 = load i32, i32* %43, align 4
  %45 = icmp eq i32 %44, 0
  %46 = bitcast %"class.perfetto::TracedValue"* %4 to i8*
  call void @llvm.lifetime.start.p0i8(i64 16, i8* nonnull %46) #15
  call void @llvm.memcpy.p0i8.p0i8.i64(i8* nonnull align 8 %46, i8* nonnull align 8 %42, i64 16, i1 false)
  %47 = icmp eq %"class.mojo::InlinedStructPtr.103"* %41, null
  %48 = or i1 %47, %45
  br i1 %48, label %49, label %50

49:                                               ; preds = %40
  call void @_ZNO8perfetto11TracedValue12WritePointerEPKv(%"class.perfetto::TracedValue"* nonnull %4, i8* null) #15
  br label %53

50:                                               ; preds = %40
  %51 = getelementptr inbounds %"class.mojo::InlinedStructPtr.103", %"class.mojo::InlinedStructPtr.103"* %41, i64 0, i32 0
  %52 = bitcast %"class.perfetto::TracedValue"* %3 to i8*
  call void @llvm.lifetime.start.p0i8(i64 16, i8* nonnull %52) #15
  call void @llvm.memcpy.p0i8.p0i8.i64(i8* nonnull align 8 %52, i8* nonnull align 8 %46, i64 16, i1 false) #15
  call void @_ZNK9mojo_base5mojom5blink9ProcessId14WriteIntoTraceEN8perfetto11TracedValueE(%"class.mojo_base::mojom::blink::ProcessId"* nonnull %51, %"class.perfetto::TracedValue"* nonnull %3) #15
  call void @llvm.lifetime.end.p0i8(i64 16, i8* nonnull %52) #15
  br label %53

53:                                               ; preds = %49, %50
  call void @llvm.lifetime.end.p0i8(i64 16, i8* nonnull %46) #15
  call void @_ZN8perfetto16TracedDictionary7AddItemENS_12StaticStringE(%"class.perfetto::TracedValue"* nonnull sret %15, %"class.perfetto::TracedDictionary"* nonnull %9, i8* getelementptr inbounds ([13 x i8], [13 x i8]* @.str.52, i64 0, i64 0)) #15
  %54 = getelementptr inbounds %"class.memory_instrumentation::mojom::blink::ProcessMemoryDump", %"class.memory_instrumentation::mojom::blink::ProcessMemoryDump"* %0, i64 0, i32 4
  %55 = bitcast %"class.perfetto::TracedValue"* %15 to i8*
  %56 = bitcast %"class.perfetto::TracedValue"* %8 to i8*
  call void @llvm.lifetime.start.p0i8(i64 16, i8* nonnull %56) #15
  call void @llvm.memcpy.p0i8.p0i8.i64(i8* nonnull align 8 %56, i8* nonnull align 8 %55, i64 16, i1 false) #15
  call void @_ZNK3WTF6String14WriteIntoTraceEN8perfetto11TracedValueE(%"class.WTF::String"* %54, %"class.perfetto::TracedValue"* nonnull %8) #15
  call void @llvm.lifetime.end.p0i8(i64 16, i8* nonnull %56) #15
  call void @llvm.lifetime.end.p0i8(i64 16, i8* nonnull %16) #15
  ret void
}

; Function Attrs: nounwind ssp uwtable
define hidden zeroext i1 @_ZN22memory_instrumentation5mojom5blink17ProcessMemoryDump8ValidateEPKvPN4mojo8internal17ValidationContextE(i8*, %"class.mojo::internal::ValidationContext"*) local_unnamed_addr #3 align 2 {
  %3 = tail call zeroext i1 @_ZN22memory_instrumentation5mojom8internal22ProcessMemoryDump_Data8ValidateEPKvPN4mojo8internal17ValidationContextE(i8* %0, %"class.mojo::internal::ValidationContext"* %1) #15
  ret i1 %3
}

declare zeroext i1 @_ZN22memory_instrumentation5mojom8internal22ProcessMemoryDump_Data8ValidateEPKvPN4mojo8internal17ValidationContextE(i8*, %"class.mojo::internal::ValidationContext"*) local_unnamed_addr #5

; Function Attrs: nofree norecurse nounwind ssp uwtable writeonly
define hidden void @_ZN22memory_instrumentation5mojom5blink17AggregatedMetricsC2Ev(%"class.memory_instrumentation::mojom::blink::AggregatedMetrics"* nocapture) unnamed_addr #0 align 2 {
  %2 = getelementptr inbounds %"class.memory_instrumentation::mojom::blink::AggregatedMetrics", %"class.memory_instrumentation::mojom::blink::AggregatedMetrics"* %0, i64 0, i32 0
  store i32 0, i32* %2, align 4
  %3 = getelementptr inbounds %"class.memory_instrumentation::mojom::blink::AggregatedMetrics", %"class.memory_instrumentation::mojom::blink::AggregatedMetrics"* %0, i64 0, i32 1
  store i32 0, i32* %3, align 4
  %4 = getelementptr inbounds %"class.memory_instrumentation::mojom::blink::AggregatedMetrics", %"class.memory_instrumentation::mojom::blink::AggregatedMetrics"* %0, i64 0, i32 2
  store i32 0, i32* %4, align 4
  ret void
}

; Function Attrs: nofree norecurse nounwind ssp uwtable writeonly
define hidden void @_ZN22memory_instrumentation5mojom5blink17AggregatedMetricsC2Eiii(%"class.memory_instrumentation::mojom::blink::AggregatedMetrics"* nocapture, i32, i32, i32) unnamed_addr #0 align 2 {
  %5 = getelementptr inbounds %"class.memory_instrumentation::mojom::blink::AggregatedMetrics", %"class.memory_instrumentation::mojom::blink::AggregatedMetrics"* %0, i64 0, i32 0
  store i32 %1, i32* %5, align 4
  %6 = getelementptr inbounds %"class.memory_instrumentation::mojom::blink::AggregatedMetrics", %"class.memory_instrumentation::mojom::blink::AggregatedMetrics"* %0, i64 0, i32 1
  store i32 %2, i32* %6, align 4
  %7 = getelementptr inbounds %"class.memory_instrumentation::mojom::blink::AggregatedMetrics", %"class.memory_instrumentation::mojom::blink::AggregatedMetrics"* %0, i64 0, i32 2
  store i32 %3, i32* %7, align 4
  ret void
}

; Function Attrs: norecurse nounwind readnone ssp uwtable
define hidden void @_ZN22memory_instrumentation5mojom5blink17AggregatedMetricsD2Ev(%"class.memory_instrumentation::mojom::blink::AggregatedMetrics"* nocapture) unnamed_addr #1 align 2 {
  ret void
}

; Function Attrs: norecurse nounwind readonly ssp uwtable
define hidden i64 @_ZNK22memory_instrumentation5mojom5blink17AggregatedMetrics4HashEm(%"class.memory_instrumentation::mojom::blink::AggregatedMetrics"* nocapture readonly, i64) local_unnamed_addr #2 align 2 {
  %3 = getelementptr inbounds %"class.memory_instrumentation::mojom::blink::AggregatedMetrics", %"class.memory_instrumentation::mojom::blink::AggregatedMetrics"* %0, i64 0, i32 0
  %4 = load i32, i32* %3, align 4
  %5 = sext i32 %4 to i64
  %6 = shl i64 %1, 6
  %7 = lshr i64 %1, 2
  %8 = add i64 %7, %6
  %9 = add i64 %8, %5
  %10 = xor i64 %9, %1
  %11 = getelementptr inbounds %"class.memory_instrumentation::mojom::blink::AggregatedMetrics", %"class.memory_instrumentation::mojom::blink::AggregatedMetrics"* %0, i64 0, i32 1
  %12 = load i32, i32* %11, align 4
  %13 = sext i32 %12 to i64
  %14 = shl i64 %10, 6
  %15 = lshr i64 %10, 2
  %16 = add i64 %14, %13
  %17 = add i64 %16, %15
  %18 = xor i64 %17, %10
  %19 = getelementptr inbounds %"class.memory_instrumentation::mojom::blink::AggregatedMetrics", %"class.memory_instrumentation::mojom::blink::AggregatedMetrics"* %0, i64 0, i32 2
  %20 = load i32, i32* %19, align 4
  %21 = sext i32 %20 to i64
  %22 = shl i64 %18, 6
  %23 = lshr i64 %18, 2
  %24 = add i64 %22, %21
  %25 = add i64 %24, %23
  %26 = xor i64 %25, %18
  ret i64 %26
}

; Function Attrs: nounwind ssp uwtable
define hidden void @_ZNK22memory_instrumentation5mojom5blink17AggregatedMetrics14WriteIntoTraceEN8perfetto11TracedValueE(%"class.memory_instrumentation::mojom::blink::AggregatedMetrics"* nocapture readonly, %"class.perfetto::TracedValue"*) local_unnamed_addr #3 align 2 {
  %3 = alloca %"class.perfetto::TracedValue", align 8
  %4 = alloca %"class.perfetto::TracedValue", align 8
  %5 = alloca %"class.perfetto::TracedValue", align 8
  %6 = alloca %"class.perfetto::TracedDictionary", align 8
  %7 = alloca %"class.perfetto::TracedValue", align 8
  %8 = alloca %"class.perfetto::TracedValue", align 8
  %9 = alloca %"class.perfetto::TracedValue", align 8
  %10 = bitcast %"class.perfetto::TracedDictionary"* %6 to i8*
  call void @llvm.lifetime.start.p0i8(i64 16, i8* nonnull %10) #15
  %11 = bitcast %"class.perfetto::TracedDictionary"* %6 to i8*
  call void @llvm.memset.p0i8.i64(i8* nonnull align 8 %11, i8 -86, i64 16, i1 false)
  call void @_ZNO8perfetto11TracedValue15WriteDictionaryEv(%"class.perfetto::TracedDictionary"* nonnull sret %6, %"class.perfetto::TracedValue"* %1) #15
  call void @_ZN8perfetto16TracedDictionary7AddItemENS_12StaticStringE(%"class.perfetto::TracedValue"* nonnull sret %7, %"class.perfetto::TracedDictionary"* nonnull %6, i8* getelementptr inbounds ([27 x i8], [27 x i8]* @.str.53, i64 0, i64 0)) #15
  %12 = getelementptr inbounds %"class.memory_instrumentation::mojom::blink::AggregatedMetrics", %"class.memory_instrumentation::mojom::blink::AggregatedMetrics"* %0, i64 0, i32 0
  %13 = bitcast %"class.perfetto::TracedValue"* %7 to i8*
  %14 = bitcast %"class.perfetto::TracedValue"* %4 to i8*
  call void @llvm.lifetime.start.p0i8(i64 16, i8* nonnull %14) #15
  call void @llvm.memcpy.p0i8.p0i8.i64(i8* nonnull align 8 %14, i8* nonnull align 8 %13, i64 16, i1 false) #15
  %15 = load i32, i32* %12, align 4
  %16 = sext i32 %15 to i64
  call void @_ZNO8perfetto11TracedValue10WriteInt64El(%"class.perfetto::TracedValue"* nonnull %4, i64 %16) #15
  call void @llvm.lifetime.end.p0i8(i64 16, i8* nonnull %14) #15
  call void @_ZN8perfetto16TracedDictionary7AddItemENS_12StaticStringE(%"class.perfetto::TracedValue"* nonnull sret %8, %"class.perfetto::TracedDictionary"* nonnull %6, i8* getelementptr inbounds ([39 x i8], [39 x i8]* @.str.54, i64 0, i64 0)) #15
  %17 = getelementptr inbounds %"class.memory_instrumentation::mojom::blink::AggregatedMetrics", %"class.memory_instrumentation::mojom::blink::AggregatedMetrics"* %0, i64 0, i32 1
  %18 = bitcast %"class.perfetto::TracedValue"* %8 to i8*
  %19 = bitcast %"class.perfetto::TracedValue"* %3 to i8*
  call void @llvm.lifetime.start.p0i8(i64 16, i8* nonnull %19) #15
  call void @llvm.memcpy.p0i8.p0i8.i64(i8* nonnull align 8 %19, i8* nonnull align 8 %18, i64 16, i1 false) #15
  %20 = load i32, i32* %17, align 4
  %21 = sext i32 %20 to i64
  call void @_ZNO8perfetto11TracedValue10WriteInt64El(%"class.perfetto::TracedValue"* nonnull %3, i64 %21) #15
  call void @llvm.lifetime.end.p0i8(i64 16, i8* nonnull %19) #15
  call void @_ZN8perfetto16TracedDictionary7AddItemENS_12StaticStringE(%"class.perfetto::TracedValue"* nonnull sret %9, %"class.perfetto::TracedDictionary"* nonnull %6, i8* getelementptr inbounds ([39 x i8], [39 x i8]* @.str.55, i64 0, i64 0)) #15
  %22 = getelementptr inbounds %"class.memory_instrumentation::mojom::blink::AggregatedMetrics", %"class.memory_instrumentation::mojom::blink::AggregatedMetrics"* %0, i64 0, i32 2
  %23 = bitcast %"class.perfetto::TracedValue"* %9 to i8*
  %24 = bitcast %"class.perfetto::TracedValue"* %5 to i8*
  call void @llvm.lifetime.start.p0i8(i64 16, i8* nonnull %24) #15
  call void @llvm.memcpy.p0i8.p0i8.i64(i8* nonnull align 8 %24, i8* nonnull align 8 %23, i64 16, i1 false) #15
  %25 = load i32, i32* %22, align 4
  %26 = sext i32 %25 to i64
  call void @_ZNO8perfetto11TracedValue10WriteInt64El(%"class.perfetto::TracedValue"* nonnull %5, i64 %26) #15
  call void @llvm.lifetime.end.p0i8(i64 16, i8* nonnull %24) #15
  call void @llvm.lifetime.end.p0i8(i64 16, i8* nonnull %10) #15
  ret void
}

; Function Attrs: nounwind ssp uwtable
define hidden zeroext i1 @_ZN22memory_instrumentation5mojom5blink17AggregatedMetrics8ValidateEPKvPN4mojo8internal17ValidationContextE(i8*, %"class.mojo::internal::ValidationContext"*) local_unnamed_addr #3 align 2 {
  %3 = tail call zeroext i1 @_ZN22memory_instrumentation5mojom8internal22AggregatedMetrics_Data8ValidateEPKvPN4mojo8internal17ValidationContextE(i8* %0, %"class.mojo::internal::ValidationContext"* %1) #15
  ret i1 %3
}

declare zeroext i1 @_ZN22memory_instrumentation5mojom8internal22AggregatedMetrics_Data8ValidateEPKvPN4mojo8internal17ValidationContextE(i8*, %"class.mojo::internal::ValidationContext"*) local_unnamed_addr #5

; Function Attrs: nounwind ssp uwtable
define hidden void @_ZN22memory_instrumentation5mojom5blink16GlobalMemoryDumpC2Ev(%"class.memory_instrumentation::mojom::blink::GlobalMemoryDump"* nocapture) unnamed_addr #3 align 2 {
  %2 = bitcast %"class.memory_instrumentation::mojom::blink::GlobalMemoryDump"* %0 to i8*
  call void @llvm.memset.p0i8.i64(i8* align 8 %2, i8 0, i64 40, i1 false)
  ret void
}

; Function Attrs: nounwind ssp uwtable
define hidden void @_ZN22memory_instrumentation5mojom5blink16GlobalMemoryDumpC2EN4base9TimeTicksEN3WTF6VectorIN4mojo9StructPtrINS1_17ProcessMemoryDumpEEELj0ENS5_18PartitionAllocatorEEENS7_16InlinedStructPtrINS1_17AggregatedMetricsEEE(%"class.memory_instrumentation::mojom::blink::GlobalMemoryDump"* nocapture, i64, %"class.WTF::Vector.104"* nocapture, %"class.mojo::InlinedStructPtr.116"* nocapture) unnamed_addr #3 align 2 {
  %5 = getelementptr inbounds %"class.memory_instrumentation::mojom::blink::GlobalMemoryDump", %"class.memory_instrumentation::mojom::blink::GlobalMemoryDump"* %0, i64 0, i32 0, i32 0, i32 0
  store i64 %1, i64* %5, align 8
  %6 = getelementptr inbounds %"class.memory_instrumentation::mojom::blink::GlobalMemoryDump", %"class.memory_instrumentation::mojom::blink::GlobalMemoryDump"* %0, i64 0, i32 1
  %7 = getelementptr inbounds %"class.memory_instrumentation::mojom::blink::GlobalMemoryDump", %"class.memory_instrumentation::mojom::blink::GlobalMemoryDump"* %0, i64 0, i32 1, i32 0, i32 0, i32 1
  %8 = getelementptr inbounds %"class.memory_instrumentation::mojom::blink::GlobalMemoryDump", %"class.memory_instrumentation::mojom::blink::GlobalMemoryDump"* %0, i64 0, i32 1, i32 0, i32 0, i32 2
  %9 = bitcast %"class.WTF::Vector.104"* %2 to i64*
  %10 = bitcast %"class.WTF::Vector.104"* %6 to i8*
  tail call void @llvm.memset.p0i8.i64(i8* align 8 %10, i8 0, i64 16, i1 false) #15
  %11 = load i64, i64* %9, align 8
  %12 = bitcast %"class.WTF::Vector.104"* %6 to i64*
  store atomic i64 0, i64* %9 monotonic, align 8
  store atomic i64 %11, i64* %12 monotonic, align 8
  %13 = getelementptr inbounds %"class.WTF::Vector.104", %"class.WTF::Vector.104"* %2, i64 0, i32 0, i32 0, i32 1
  %14 = load i32, i32* %7, align 4
  %15 = load i32, i32* %13, align 4
  store i32 %15, i32* %7, align 4
  store i32 %14, i32* %13, align 4
  %16 = getelementptr inbounds %"class.WTF::Vector.104", %"class.WTF::Vector.104"* %2, i64 0, i32 0, i32 0, i32 2
  %17 = load i32, i32* %8, align 4
  %18 = load i32, i32* %16, align 4
  store i32 %18, i32* %8, align 4
  store i32 %17, i32* %16, align 4
  %19 = getelementptr inbounds %"class.memory_instrumentation::mojom::blink::GlobalMemoryDump", %"class.memory_instrumentation::mojom::blink::GlobalMemoryDump"* %0, i64 0, i32 2
  %20 = getelementptr %"class.memory_instrumentation::mojom::blink::GlobalMemoryDump", %"class.memory_instrumentation::mojom::blink::GlobalMemoryDump"* %0, i64 0, i32 2, i32 1
  %21 = bitcast %"class.mojo::InlinedStructPtr.116"* %19 to i8*
  %22 = bitcast %"class.mojo::InlinedStructPtr.116"* %3 to i8*
  store i32 0, i32* %20, align 4
  tail call void @llvm.memcpy.p0i8.p0i8.i64(i8* align 4 %21, i8* align 4 %22, i64 12, i1 false) #15
  %23 = getelementptr inbounds %"class.mojo::InlinedStructPtr.116", %"class.mojo::InlinedStructPtr.116"* %3, i64 0, i32 0, i32 0
  store i32 0, i32* %23, align 4
  %24 = getelementptr inbounds %"class.mojo::InlinedStructPtr.116", %"class.mojo::InlinedStructPtr.116"* %3, i64 0, i32 0, i32 1
  store i32 0, i32* %24, align 4
  %25 = getelementptr inbounds %"class.mojo::InlinedStructPtr.116", %"class.mojo::InlinedStructPtr.116"* %3, i64 0, i32 0, i32 2
  store i32 0, i32* %25, align 4
  %26 = getelementptr inbounds %"class.mojo::InlinedStructPtr.116", %"class.mojo::InlinedStructPtr.116"* %3, i64 0, i32 1
  %27 = load i32, i32* %20, align 4
  %28 = load i32, i32* %26, align 4
  store i32 %28, i32* %20, align 4
  store i32 %27, i32* %26, align 4
  ret void
}

; Function Attrs: argmemonly nounwind
declare void @llvm.memcpy.p0i8.p0i8.i64(i8* nocapture writeonly, i8* nocapture readonly, i64, i1 immarg) #4

; Function Attrs: nounwind ssp uwtable
define hidden void @_ZN22memory_instrumentation5mojom5blink16GlobalMemoryDumpD2Ev(%"class.memory_instrumentation::mojom::blink::GlobalMemoryDump"* nocapture) unnamed_addr #3 align 2 {
  %2 = getelementptr inbounds %"class.memory_instrumentation::mojom::blink::GlobalMemoryDump", %"class.memory_instrumentation::mojom::blink::GlobalMemoryDump"* %0, i64 0, i32 1
  %3 = getelementptr inbounds %"class.WTF::Vector.104", %"class.WTF::Vector.104"* %2, i64 0, i32 0, i32 0, i32 0
  %4 = load %"class.mojo::StructPtr.107"*, %"class.mojo::StructPtr.107"** %3, align 8
  %5 = icmp eq %"class.mojo::StructPtr.107"* %4, null
  br i1 %5, label %29, label %6, !prof !4

6:                                                ; preds = %1
  %7 = bitcast %"class.mojo::StructPtr.107"* %4 to i8*
  %8 = getelementptr inbounds %"class.memory_instrumentation::mojom::blink::GlobalMemoryDump", %"class.memory_instrumentation::mojom::blink::GlobalMemoryDump"* %0, i64 0, i32 1, i32 0, i32 0, i32 2
  %9 = load i32, i32* %8, align 4
  %10 = icmp eq i32 %9, 0
  br i1 %10, label %27, label %11, !prof !3

11:                                               ; preds = %6
  %12 = zext i32 %9 to i64
  %13 = getelementptr inbounds %"class.mojo::StructPtr.107", %"class.mojo::StructPtr.107"* %4, i64 %12
  br label %14

14:                                               ; preds = %21, %11
  %15 = phi %"class.mojo::StructPtr.107"* [ %22, %21 ], [ %4, %11 ]
  %16 = getelementptr inbounds %"class.mojo::StructPtr.107", %"class.mojo::StructPtr.107"* %15, i64 0, i32 0, i32 0, i32 0, i32 0
  %17 = load %"class.memory_instrumentation::mojom::blink::ProcessMemoryDump"*, %"class.memory_instrumentation::mojom::blink::ProcessMemoryDump"** %16, align 8
  store %"class.memory_instrumentation::mojom::blink::ProcessMemoryDump"* null, %"class.memory_instrumentation::mojom::blink::ProcessMemoryDump"** %16, align 8
  %18 = icmp eq %"class.memory_instrumentation::mojom::blink::ProcessMemoryDump"* %17, null
  br i1 %18, label %21, label %19

19:                                               ; preds = %14
  tail call void @_ZN22memory_instrumentation5mojom5blink17ProcessMemoryDumpD2Ev(%"class.memory_instrumentation::mojom::blink::ProcessMemoryDump"* nonnull %17) #15
  %20 = bitcast %"class.memory_instrumentation::mojom::blink::ProcessMemoryDump"* %17 to i8*
  tail call void @_ZdlPv(i8* %20) #16
  br label %21

21:                                               ; preds = %19, %14
  %22 = getelementptr inbounds %"class.mojo::StructPtr.107", %"class.mojo::StructPtr.107"* %15, i64 1
  %23 = icmp eq %"class.mojo::StructPtr.107"* %22, %13
  br i1 %23, label %24, label %14

24:                                               ; preds = %21
  store i32 0, i32* %8, align 4
  %25 = bitcast %"class.WTF::Vector.104"* %2 to i8**
  %26 = load i8*, i8** %25, align 8
  br label %27

27:                                               ; preds = %24, %6
  %28 = phi i8* [ %26, %24 ], [ %7, %6 ]
  tail call void @_ZN3WTF18PartitionAllocator11FreeBackingEPv(i8* %28) #15
  store %"class.mojo::StructPtr.107"* null, %"class.mojo::StructPtr.107"** %3, align 8
  br label %29

29:                                               ; preds = %1, %27
  ret void
}

; Function Attrs: nounwind ssp uwtable
define hidden void @_ZNK22memory_instrumentation5mojom5blink16GlobalMemoryDump14WriteIntoTraceEN8perfetto11TracedValueE(%"class.memory_instrumentation::mojom::blink::GlobalMemoryDump"* readonly, %"class.perfetto::TracedValue"*) local_unnamed_addr #3 align 2 {
  %3 = alloca %"class.perfetto::TracedValue", align 8
  %4 = alloca %"class.perfetto::TracedValue", align 8
  %5 = alloca %"class.perfetto::TracedValue", align 8
  %6 = alloca %"class.perfetto::TracedDictionary", align 8
  %7 = alloca %"class.perfetto::TracedValue", align 8
  %8 = alloca %"class.perfetto::TracedValue", align 8
  %9 = alloca %"class.perfetto::TracedValue", align 8
  %10 = alloca %"class.perfetto::TracedValue", align 8
  %11 = alloca %"class.perfetto::TracedValue", align 8
  %12 = alloca %"class.perfetto::TracedValue", align 8
  %13 = alloca %"class.perfetto::TracedValue", align 8
  %14 = alloca %"class.perfetto::TracedArray", align 8
  %15 = alloca %"class.perfetto::TracedValue", align 8
  %16 = alloca %"class.perfetto::TracedValue", align 8
  %17 = alloca %"class.perfetto::TracedValue", align 8
  %18 = alloca %"class.perfetto::TracedDictionary", align 8
  %19 = alloca %"class.perfetto::TracedValue", align 8
  %20 = alloca %"class.perfetto::TracedValue", align 8
  %21 = alloca %"class.perfetto::TracedValue", align 8
  %22 = bitcast %"class.perfetto::TracedDictionary"* %18 to i8*
  call void @llvm.lifetime.start.p0i8(i64 16, i8* nonnull %22) #15
  %23 = bitcast %"class.perfetto::TracedDictionary"* %18 to i8*
  call void @llvm.memset.p0i8.i64(i8* nonnull align 8 %23, i8 -86, i64 16, i1 false)
  call void @_ZNO8perfetto11TracedValue15WriteDictionaryEv(%"class.perfetto::TracedDictionary"* nonnull sret %18, %"class.perfetto::TracedValue"* %1) #15
  call void @_ZN8perfetto16TracedDictionary7AddItemENS_12StaticStringE(%"class.perfetto::TracedValue"* nonnull sret %19, %"class.perfetto::TracedDictionary"* nonnull %18, i8* getelementptr inbounds ([11 x i8], [11 x i8]* @.str.56, i64 0, i64 0)) #15
  %24 = bitcast %"class.perfetto::TracedValue"* %19 to i8*
  %25 = getelementptr inbounds %"class.memory_instrumentation::mojom::blink::GlobalMemoryDump", %"class.memory_instrumentation::mojom::blink::GlobalMemoryDump"* %0, i64 0, i32 0, i32 0, i32 0
  %26 = load i64, i64* %25, align 8
  %27 = bitcast %"class.perfetto::TracedValue"* %16 to i8*
  call void @llvm.lifetime.start.p0i8(i64 16, i8* nonnull %27) #15
  call void @llvm.memcpy.p0i8.p0i8.i64(i8* nonnull align 8 %27, i8* nonnull align 8 %24, i64 16, i1 false)
  call void @_ZNO8perfetto11TracedValue11WriteUInt64Em(%"class.perfetto::TracedValue"* nonnull %16, i64 %26) #15
  call void @llvm.lifetime.end.p0i8(i64 16, i8* nonnull %27) #15
  call void @_ZN8perfetto16TracedDictionary7AddItemENS_12StaticStringE(%"class.perfetto::TracedValue"* nonnull sret %20, %"class.perfetto::TracedDictionary"* nonnull %18, i8* getelementptr inbounds ([14 x i8], [14 x i8]* @.str.57, i64 0, i64 0)) #15
  %28 = bitcast %"class.perfetto::TracedValue"* %20 to i8*
  %29 = bitcast %"class.perfetto::TracedValue"* %15 to i8*
  call void @llvm.lifetime.start.p0i8(i64 16, i8* nonnull %29) #15
  call void @llvm.memcpy.p0i8.p0i8.i64(i8* nonnull align 8 %29, i8* nonnull align 8 %28, i64 16, i1 false) #15
  %30 = bitcast %"class.perfetto::TracedArray"* %14 to i8*
  call void @llvm.lifetime.start.p0i8(i64 16, i8* nonnull %30) #15
  call void @llvm.memset.p0i8.i64(i8* nonnull align 8 %30, i8 -86, i64 16, i1 false) #15
  call void @_ZNO8perfetto11TracedValue10WriteArrayEv(%"class.perfetto::TracedArray"* nonnull sret %14, %"class.perfetto::TracedValue"* nonnull %15) #15
  %31 = getelementptr inbounds %"class.memory_instrumentation::mojom::blink::GlobalMemoryDump", %"class.memory_instrumentation::mojom::blink::GlobalMemoryDump"* %0, i64 0, i32 1, i32 0, i32 0, i32 0
  %32 = load %"class.mojo::StructPtr.107"*, %"class.mojo::StructPtr.107"** %31, align 8
  %33 = getelementptr inbounds %"class.memory_instrumentation::mojom::blink::GlobalMemoryDump", %"class.memory_instrumentation::mojom::blink::GlobalMemoryDump"* %0, i64 0, i32 1, i32 0, i32 0, i32 2
  %34 = load i32, i32* %33, align 4
  %35 = zext i32 %34 to i64
  %36 = getelementptr inbounds %"class.mojo::StructPtr.107", %"class.mojo::StructPtr.107"* %32, i64 %35
  %37 = icmp eq i32 %34, 0
  br i1 %37, label %52, label %38

38:                                               ; preds = %2
  %39 = bitcast %"class.perfetto::TracedValue"* %13 to i8*
  %40 = bitcast %"class.perfetto::TracedValue"* %12 to i8*
  %41 = bitcast %"class.perfetto::TracedValue"* %11 to i8*
  br label %42

42:                                               ; preds = %49, %38
  %43 = phi %"class.mojo::StructPtr.107"* [ %32, %38 ], [ %50, %49 ]
  call void @llvm.lifetime.start.p0i8(i64 16, i8* nonnull %39) #15
  call void @_ZN8perfetto11TracedArray10AppendItemEv(%"class.perfetto::TracedValue"* nonnull sret %13, %"class.perfetto::TracedArray"* nonnull %14) #15
  %44 = getelementptr inbounds %"class.mojo::StructPtr.107", %"class.mojo::StructPtr.107"* %43, i64 0, i32 0, i32 0, i32 0, i32 0
  %45 = load %"class.memory_instrumentation::mojom::blink::ProcessMemoryDump"*, %"class.memory_instrumentation::mojom::blink::ProcessMemoryDump"** %44, align 8
  call void @llvm.lifetime.start.p0i8(i64 16, i8* nonnull %40) #15
  call void @llvm.memcpy.p0i8.p0i8.i64(i8* nonnull align 8 %40, i8* nonnull align 8 %39, i64 16, i1 false) #15
  %46 = icmp eq %"class.memory_instrumentation::mojom::blink::ProcessMemoryDump"* %45, null
  br i1 %46, label %47, label %48

47:                                               ; preds = %42
  call void @_ZNO8perfetto11TracedValue12WritePointerEPKv(%"class.perfetto::TracedValue"* nonnull %12, i8* null) #15
  br label %49

48:                                               ; preds = %42
  call void @llvm.lifetime.start.p0i8(i64 16, i8* nonnull %41) #15
  call void @llvm.memcpy.p0i8.p0i8.i64(i8* nonnull align 8 %41, i8* nonnull align 8 %40, i64 16, i1 false) #15
  call void @_ZNK22memory_instrumentation5mojom5blink17ProcessMemoryDump14WriteIntoTraceEN8perfetto11TracedValueE(%"class.memory_instrumentation::mojom::blink::ProcessMemoryDump"* nonnull %45, %"class.perfetto::TracedValue"* nonnull %11) #15
  call void @llvm.lifetime.end.p0i8(i64 16, i8* nonnull %41) #15
  br label %49

49:                                               ; preds = %48, %47
  call void @llvm.lifetime.end.p0i8(i64 16, i8* nonnull %40) #15
  call void @llvm.lifetime.end.p0i8(i64 16, i8* nonnull %39) #15
  %50 = getelementptr inbounds %"class.mojo::StructPtr.107", %"class.mojo::StructPtr.107"* %43, i64 1
  %51 = icmp eq %"class.mojo::StructPtr.107"* %50, %36
  br i1 %51, label %52, label %42

52:                                               ; preds = %49, %2
  call void @llvm.lifetime.end.p0i8(i64 16, i8* nonnull %30) #15
  call void @llvm.lifetime.end.p0i8(i64 16, i8* nonnull %29) #15
  call void @_ZN8perfetto16TracedDictionary7AddItemENS_12StaticStringE(%"class.perfetto::TracedValue"* nonnull sret %21, %"class.perfetto::TracedDictionary"* nonnull %18, i8* getelementptr inbounds ([19 x i8], [19 x i8]* @.str.58, i64 0, i64 0)) #15
  %53 = getelementptr inbounds %"class.memory_instrumentation::mojom::blink::GlobalMemoryDump", %"class.memory_instrumentation::mojom::blink::GlobalMemoryDump"* %0, i64 0, i32 2
  %54 = bitcast %"class.perfetto::TracedValue"* %21 to i8*
  %55 = getelementptr inbounds %"class.memory_instrumentation::mojom::blink::GlobalMemoryDump", %"class.memory_instrumentation::mojom::blink::GlobalMemoryDump"* %0, i64 0, i32 2, i32 1
  %56 = load i32, i32* %55, align 4
  %57 = icmp eq i32 %56, 0
  %58 = bitcast %"class.perfetto::TracedValue"* %17 to i8*
  call void @llvm.lifetime.start.p0i8(i64 16, i8* nonnull %58) #15
  call void @llvm.memcpy.p0i8.p0i8.i64(i8* nonnull align 8 %58, i8* nonnull align 8 %54, i64 16, i1 false)
  %59 = icmp eq %"class.mojo::InlinedStructPtr.116"* %53, null
  %60 = or i1 %59, %57
  br i1 %60, label %61, label %62

61:                                               ; preds = %52
  call void @_ZNO8perfetto11TracedValue12WritePointerEPKv(%"class.perfetto::TracedValue"* nonnull %17, i8* null) #15
  br label %80

62:                                               ; preds = %52
  %63 = bitcast %"class.perfetto::TracedValue"* %10 to i8*
  call void @llvm.lifetime.start.p0i8(i64 16, i8* nonnull %63)
  call void @llvm.memcpy.p0i8.p0i8.i64(i8* nonnull align 8 %63, i8* nonnull align 8 %58, i64 16, i1 false)
  %64 = bitcast %"class.perfetto::TracedValue"* %7 to i8*
  call void @llvm.lifetime.start.p0i8(i64 16, i8* nonnull %64) #15
  %65 = bitcast %"class.perfetto::TracedValue"* %8 to i8*
  call void @llvm.lifetime.start.p0i8(i64 16, i8* nonnull %65) #15
  %66 = bitcast %"class.perfetto::TracedValue"* %9 to i8*
  call void @llvm.lifetime.start.p0i8(i64 16, i8* nonnull %66) #15
  %67 = bitcast %"class.perfetto::TracedDictionary"* %6 to i8*
  call void @llvm.lifetime.start.p0i8(i64 16, i8* nonnull %67) #15
  call void @llvm.memset.p0i8.i64(i8* nonnull align 8 %67, i8 -86, i64 16, i1 false) #15
  call void @_ZNO8perfetto11TracedValue15WriteDictionaryEv(%"class.perfetto::TracedDictionary"* nonnull sret %6, %"class.perfetto::TracedValue"* nonnull %10) #15
  call void @_ZN8perfetto16TracedDictionary7AddItemENS_12StaticStringE(%"class.perfetto::TracedValue"* nonnull sret %7, %"class.perfetto::TracedDictionary"* nonnull %6, i8* getelementptr inbounds ([27 x i8], [27 x i8]* @.str.53, i64 0, i64 0)) #15
  %68 = getelementptr inbounds %"class.mojo::InlinedStructPtr.116", %"class.mojo::InlinedStructPtr.116"* %53, i64 0, i32 0, i32 0
  %69 = bitcast %"class.perfetto::TracedValue"* %4 to i8*
  call void @llvm.lifetime.start.p0i8(i64 16, i8* nonnull %69) #15
  call void @llvm.memcpy.p0i8.p0i8.i64(i8* nonnull align 8 %69, i8* nonnull align 8 %64, i64 16, i1 false) #15
  %70 = load i32, i32* %68, align 4
  %71 = sext i32 %70 to i64
  call void @_ZNO8perfetto11TracedValue10WriteInt64El(%"class.perfetto::TracedValue"* nonnull %4, i64 %71) #15
  call void @llvm.lifetime.end.p0i8(i64 16, i8* nonnull %69) #15
  call void @_ZN8perfetto16TracedDictionary7AddItemENS_12StaticStringE(%"class.perfetto::TracedValue"* nonnull sret %8, %"class.perfetto::TracedDictionary"* nonnull %6, i8* getelementptr inbounds ([39 x i8], [39 x i8]* @.str.54, i64 0, i64 0)) #15
  %72 = getelementptr inbounds %"class.memory_instrumentation::mojom::blink::GlobalMemoryDump", %"class.memory_instrumentation::mojom::blink::GlobalMemoryDump"* %0, i64 0, i32 2, i32 0, i32 1
  %73 = bitcast %"class.perfetto::TracedValue"* %3 to i8*
  call void @llvm.lifetime.start.p0i8(i64 16, i8* nonnull %73) #15
  call void @llvm.memcpy.p0i8.p0i8.i64(i8* nonnull align 8 %73, i8* nonnull align 8 %65, i64 16, i1 false) #15
  %74 = load i32, i32* %72, align 4
  %75 = sext i32 %74 to i64
  call void @_ZNO8perfetto11TracedValue10WriteInt64El(%"class.perfetto::TracedValue"* nonnull %3, i64 %75) #15
  call void @llvm.lifetime.end.p0i8(i64 16, i8* nonnull %73) #15
  call void @_ZN8perfetto16TracedDictionary7AddItemENS_12StaticStringE(%"class.perfetto::TracedValue"* nonnull sret %9, %"class.perfetto::TracedDictionary"* nonnull %6, i8* getelementptr inbounds ([39 x i8], [39 x i8]* @.str.55, i64 0, i64 0)) #15
  %76 = getelementptr inbounds %"class.memory_instrumentation::mojom::blink::GlobalMemoryDump", %"class.memory_instrumentation::mojom::blink::GlobalMemoryDump"* %0, i64 0, i32 2, i32 0, i32 2
  %77 = bitcast %"class.perfetto::TracedValue"* %5 to i8*
  call void @llvm.lifetime.start.p0i8(i64 16, i8* nonnull %77) #15
  call void @llvm.memcpy.p0i8.p0i8.i64(i8* nonnull align 8 %77, i8* nonnull align 8 %66, i64 16, i1 false) #15
  %78 = load i32, i32* %76, align 4
  %79 = sext i32 %78 to i64
  call void @_ZNO8perfetto11TracedValue10WriteInt64El(%"class.perfetto::TracedValue"* nonnull %5, i64 %79) #15
  call void @llvm.lifetime.end.p0i8(i64 16, i8* nonnull %77) #15
  call void @llvm.lifetime.end.p0i8(i64 16, i8* nonnull %67) #15
  call void @llvm.lifetime.end.p0i8(i64 16, i8* nonnull %64) #15
  call void @llvm.lifetime.end.p0i8(i64 16, i8* nonnull %65) #15
  call void @llvm.lifetime.end.p0i8(i64 16, i8* nonnull %66) #15
  call void @llvm.lifetime.end.p0i8(i64 16, i8* nonnull %63)
  br label %80

80:                                               ; preds = %62, %61
  call void @llvm.lifetime.end.p0i8(i64 16, i8* nonnull %58) #15
  call void @llvm.lifetime.end.p0i8(i64 16, i8* nonnull %22) #15
  ret void
}

; Function Attrs: nounwind ssp uwtable
define hidden zeroext i1 @_ZN22memory_instrumentation5mojom5blink16GlobalMemoryDump8ValidateEPKvPN4mojo8internal17ValidationContextE(i8*, %"class.mojo::internal::ValidationContext"*) local_unnamed_addr #3 align 2 {
  %3 = tail call zeroext i1 @_ZN22memory_instrumentation5mojom8internal21GlobalMemoryDump_Data8ValidateEPKvPN4mojo8internal17ValidationContextE(i8* %0, %"class.mojo::internal::ValidationContext"* %1) #15
  ret i1 %3
}

declare zeroext i1 @_ZN22memory_instrumentation5mojom8internal21GlobalMemoryDump_Data8ValidateEPKvPN4mojo8internal17ValidationContextE(i8*, %"class.mojo::internal::ValidationContext"*) local_unnamed_addr #5

; Function Attrs: nounwind ssp uwtable
define hidden void @_ZN22memory_instrumentation5mojom5blink17HeapProfileResultC2Ev(%"class.memory_instrumentation::mojom::blink::HeapProfileResult"*) unnamed_addr #3 align 2 {
  %2 = bitcast %"class.memory_instrumentation::mojom::blink::HeapProfileResult"* %0 to i64*
  store i64 0, i64* %2, align 8
  %3 = getelementptr inbounds %"class.memory_instrumentation::mojom::blink::HeapProfileResult", %"class.memory_instrumentation::mojom::blink::HeapProfileResult"* %0, i64 0, i32 0, i32 0
  tail call void @_ZN9mojo_base5mojom5blink9ProcessIdC1Ev(%"class.mojo_base::mojom::blink::ProcessId"* %3) #15
  %4 = getelementptr inbounds %"class.memory_instrumentation::mojom::blink::HeapProfileResult", %"class.memory_instrumentation::mojom::blink::HeapProfileResult"* %0, i64 0, i32 0, i32 1
  store i32 0, i32* %4, align 4
  %5 = getelementptr inbounds %"class.memory_instrumentation::mojom::blink::HeapProfileResult", %"class.memory_instrumentation::mojom::blink::HeapProfileResult"* %0, i64 0, i32 1, i32 0, i32 0
  store %"class.WTF::StringImpl"* null, %"class.WTF::StringImpl"** %5, align 8
  ret void
}

; Function Attrs: nounwind ssp uwtable
define hidden void @_ZN22memory_instrumentation5mojom5blink17HeapProfileResultC2EN4mojo16InlinedStructPtrIN9mojo_base5mojom5blink9ProcessIdEEERKN3WTF6StringE(%"class.memory_instrumentation::mojom::blink::HeapProfileResult"*, %"class.mojo::InlinedStructPtr.103"* nocapture, %"class.WTF::String"* nocapture readonly dereferenceable(8)) unnamed_addr #3 align 2 {
  %4 = alloca %"class.mojo_base::mojom::blink::ProcessId", align 4
  %5 = getelementptr inbounds %"class.memory_instrumentation::mojom::blink::HeapProfileResult", %"class.memory_instrumentation::mojom::blink::HeapProfileResult"* %0, i64 0, i32 0, i32 0
  tail call void @_ZN9mojo_base5mojom5blink9ProcessIdC1Ev(%"class.mojo_base::mojom::blink::ProcessId"* %5) #15
  %6 = getelementptr inbounds %"class.memory_instrumentation::mojom::blink::HeapProfileResult", %"class.memory_instrumentation::mojom::blink::HeapProfileResult"* %0, i64 0, i32 0, i32 1
  store i32 0, i32* %6, align 4
  tail call void @_ZN9mojo_base5mojom5blink9ProcessIdD1Ev(%"class.mojo_base::mojom::blink::ProcessId"* %5) #15
  tail call void @_ZN9mojo_base5mojom5blink9ProcessIdC1Ev(%"class.mojo_base::mojom::blink::ProcessId"* %5) #15
  %7 = bitcast %"class.mojo_base::mojom::blink::ProcessId"* %4 to i8*
  call void @llvm.lifetime.start.p0i8(i64 4, i8* nonnull %7) #15
  %8 = getelementptr inbounds %"class.mojo_base::mojom::blink::ProcessId", %"class.mojo_base::mojom::blink::ProcessId"* %4, i64 0, i32 0
  %9 = getelementptr inbounds %"class.memory_instrumentation::mojom::blink::HeapProfileResult", %"class.memory_instrumentation::mojom::blink::HeapProfileResult"* %0, i64 0, i32 0, i32 0, i32 0
  %10 = load i32, i32* %9, align 4
  store i32 %10, i32* %8, align 4
  %11 = getelementptr inbounds %"class.mojo::InlinedStructPtr.103", %"class.mojo::InlinedStructPtr.103"* %1, i64 0, i32 0, i32 0
  %12 = load i32, i32* %11, align 4
  store i32 %12, i32* %9, align 4
  store i32 %10, i32* %11, align 4
  call void @_ZN9mojo_base5mojom5blink9ProcessIdD1Ev(%"class.mojo_base::mojom::blink::ProcessId"* nonnull %4) #15
  call void @llvm.lifetime.end.p0i8(i64 4, i8* nonnull %7) #15
  %13 = getelementptr inbounds %"class.mojo::InlinedStructPtr.103", %"class.mojo::InlinedStructPtr.103"* %1, i64 0, i32 1
  %14 = load i32, i32* %6, align 4
  %15 = load i32, i32* %13, align 4
  store i32 %15, i32* %6, align 4
  store i32 %14, i32* %13, align 4
  %16 = getelementptr inbounds %"class.WTF::String", %"class.WTF::String"* %2, i64 0, i32 0, i32 0
  %17 = load %"class.WTF::StringImpl"*, %"class.WTF::StringImpl"** %16, align 8
  %18 = getelementptr inbounds %"class.memory_instrumentation::mojom::blink::HeapProfileResult", %"class.memory_instrumentation::mojom::blink::HeapProfileResult"* %0, i64 0, i32 1, i32 0, i32 0
  store %"class.WTF::StringImpl"* %17, %"class.WTF::StringImpl"** %18, align 8
  %19 = icmp eq %"class.WTF::StringImpl"* %17, null
  br i1 %19, label %37, label %20

20:                                               ; preds = %3
  %21 = getelementptr inbounds %"class.WTF::StringImpl", %"class.WTF::StringImpl"* %17, i64 0, i32 2, i32 0, i32 0, i32 0, i32 0, i32 0
  %22 = load atomic i32, i32* %21 monotonic, align 4
  %23 = and i32 %22, 2
  %24 = icmp eq i32 %23, 0
  br i1 %24, label %25, label %37

25:                                               ; preds = %20
  %26 = getelementptr inbounds %"class.WTF::StringImpl", %"class.WTF::StringImpl"* %17, i64 0, i32 0
  %27 = load i32, i32* %26, align 4
  %28 = zext i32 %27 to i33
  %29 = call { i33, i1 } @llvm.sadd.with.overflow.i33(i33 %28, i33 1) #15
  %30 = extractvalue { i33, i1 } %29, 1
  %31 = extractvalue { i33, i1 } %29, 0
  %32 = icmp slt i33 %31, 0
  %33 = or i1 %30, %32
  br i1 %33, label %34, label %35, !prof !3

34:                                               ; preds = %25
  call void @llvm.trap() #15
  unreachable

35:                                               ; preds = %25
  %36 = trunc i33 %31 to i32
  store i32 %36, i32* %26, align 4
  br label %37

37:                                               ; preds = %3, %20, %35
  ret void
}

; Function Attrs: nounwind ssp uwtable
define hidden void @_ZN22memory_instrumentation5mojom5blink17HeapProfileResultD2Ev(%"class.memory_instrumentation::mojom::blink::HeapProfileResult"*) unnamed_addr #3 align 2 {
  %2 = getelementptr inbounds %"class.memory_instrumentation::mojom::blink::HeapProfileResult", %"class.memory_instrumentation::mojom::blink::HeapProfileResult"* %0, i64 0, i32 1, i32 0, i32 0
  %3 = load %"class.WTF::StringImpl"*, %"class.WTF::StringImpl"** %2, align 8
  %4 = icmp eq %"class.WTF::StringImpl"* %3, null
  br i1 %4, label %18, label %5

5:                                                ; preds = %1
  %6 = getelementptr inbounds %"class.WTF::StringImpl", %"class.WTF::StringImpl"* %3, i64 0, i32 2, i32 0, i32 0, i32 0, i32 0, i32 0
  %7 = load atomic i32, i32* %6 monotonic, align 4
  %8 = and i32 %7, 2
  %9 = icmp eq i32 %8, 0
  %10 = getelementptr inbounds %"class.WTF::StringImpl", %"class.WTF::StringImpl"* %3, i64 0, i32 0
  %11 = load i32, i32* %10, align 4
  br i1 %9, label %12, label %14

12:                                               ; preds = %5
  %13 = add i32 %11, -1
  store i32 %13, i32* %10, align 4
  br label %14

14:                                               ; preds = %12, %5
  %15 = phi i32 [ %13, %12 ], [ %11, %5 ]
  %16 = icmp eq i32 %15, 0
  br i1 %16, label %17, label %18

17:                                               ; preds = %14
  tail call void @_ZNK3WTF10StringImpl18DestroyIfNotStaticEv(%"class.WTF::StringImpl"* nonnull %3) #15
  br label %18

18:                                               ; preds = %1, %14, %17
  %19 = getelementptr inbounds %"class.memory_instrumentation::mojom::blink::HeapProfileResult", %"class.memory_instrumentation::mojom::blink::HeapProfileResult"* %0, i64 0, i32 0, i32 0
  tail call void @_ZN9mojo_base5mojom5blink9ProcessIdD1Ev(%"class.mojo_base::mojom::blink::ProcessId"* %19) #15
  ret void
}

; Function Attrs: nounwind ssp uwtable
define hidden void @_ZNK22memory_instrumentation5mojom5blink17HeapProfileResult14WriteIntoTraceEN8perfetto11TracedValueE(%"class.memory_instrumentation::mojom::blink::HeapProfileResult"*, %"class.perfetto::TracedValue"*) local_unnamed_addr #3 align 2 {
  %3 = alloca %"class.perfetto::TracedValue", align 8
  %4 = alloca %"class.perfetto::TracedValue", align 8
  %5 = alloca %"class.perfetto::TracedValue", align 8
  %6 = alloca %"class.perfetto::TracedDictionary", align 8
  %7 = alloca %"class.perfetto::TracedValue", align 8
  %8 = alloca %"class.perfetto::TracedValue", align 8
  %9 = bitcast %"class.perfetto::TracedDictionary"* %6 to i8*
  call void @llvm.lifetime.start.p0i8(i64 16, i8* nonnull %9) #15
  %10 = bitcast %"class.perfetto::TracedDictionary"* %6 to i8*
  call void @llvm.memset.p0i8.i64(i8* nonnull align 8 %10, i8 -86, i64 16, i1 false)
  call void @_ZNO8perfetto11TracedValue15WriteDictionaryEv(%"class.perfetto::TracedDictionary"* nonnull sret %6, %"class.perfetto::TracedValue"* %1) #15
  call void @_ZN8perfetto16TracedDictionary7AddItemENS_12StaticStringE(%"class.perfetto::TracedValue"* nonnull sret %7, %"class.perfetto::TracedDictionary"* nonnull %6, i8* getelementptr inbounds ([4 x i8], [4 x i8]* @.str.51, i64 0, i64 0)) #15
  %11 = bitcast %"class.perfetto::TracedValue"* %7 to i8*
  %12 = getelementptr inbounds %"class.memory_instrumentation::mojom::blink::HeapProfileResult", %"class.memory_instrumentation::mojom::blink::HeapProfileResult"* %0, i64 0, i32 0, i32 1
  %13 = load i32, i32* %12, align 4
  %14 = icmp eq i32 %13, 0
  %15 = bitcast %"class.perfetto::TracedValue"* %4 to i8*
  call void @llvm.lifetime.start.p0i8(i64 16, i8* nonnull %15) #15
  call void @llvm.memcpy.p0i8.p0i8.i64(i8* nonnull align 8 %15, i8* nonnull align 8 %11, i64 16, i1 false)
  %16 = icmp eq %"class.memory_instrumentation::mojom::blink::HeapProfileResult"* %0, null
  %17 = or i1 %16, %14
  br i1 %17, label %18, label %19

18:                                               ; preds = %2
  call void @_ZNO8perfetto11TracedValue12WritePointerEPKv(%"class.perfetto::TracedValue"* nonnull %4, i8* null) #15
  br label %22

19:                                               ; preds = %2
  %20 = getelementptr inbounds %"class.memory_instrumentation::mojom::blink::HeapProfileResult", %"class.memory_instrumentation::mojom::blink::HeapProfileResult"* %0, i64 0, i32 0, i32 0
  %21 = bitcast %"class.perfetto::TracedValue"* %3 to i8*
  call void @llvm.lifetime.start.p0i8(i64 16, i8* nonnull %21) #15
  call void @llvm.memcpy.p0i8.p0i8.i64(i8* nonnull align 8 %21, i8* nonnull align 8 %15, i64 16, i1 false) #15
  call void @_ZNK9mojo_base5mojom5blink9ProcessId14WriteIntoTraceEN8perfetto11TracedValueE(%"class.mojo_base::mojom::blink::ProcessId"* nonnull %20, %"class.perfetto::TracedValue"* nonnull %3) #15
  call void @llvm.lifetime.end.p0i8(i64 16, i8* nonnull %21) #15
  br label %22

22:                                               ; preds = %18, %19
  call void @llvm.lifetime.end.p0i8(i64 16, i8* nonnull %15) #15
  call void @_ZN8perfetto16TracedDictionary7AddItemENS_12StaticStringE(%"class.perfetto::TracedValue"* nonnull sret %8, %"class.perfetto::TracedDictionary"* nonnull %6, i8* getelementptr inbounds ([5 x i8], [5 x i8]* @.str.59, i64 0, i64 0)) #15
  %23 = getelementptr inbounds %"class.memory_instrumentation::mojom::blink::HeapProfileResult", %"class.memory_instrumentation::mojom::blink::HeapProfileResult"* %0, i64 0, i32 1
  %24 = bitcast %"class.perfetto::TracedValue"* %8 to i8*
  %25 = bitcast %"class.perfetto::TracedValue"* %5 to i8*
  call void @llvm.lifetime.start.p0i8(i64 16, i8* nonnull %25) #15
  call void @llvm.memcpy.p0i8.p0i8.i64(i8* nonnull align 8 %25, i8* nonnull align 8 %24, i64 16, i1 false) #15
  call void @_ZNK3WTF6String14WriteIntoTraceEN8perfetto11TracedValueE(%"class.WTF::String"* %23, %"class.perfetto::TracedValue"* nonnull %5) #15
  call void @llvm.lifetime.end.p0i8(i64 16, i8* nonnull %25) #15
  call void @llvm.lifetime.end.p0i8(i64 16, i8* nonnull %9) #15
  ret void
}

; Function Attrs: nounwind ssp uwtable
define hidden zeroext i1 @_ZN22memory_instrumentation5mojom5blink17HeapProfileResult8ValidateEPKvPN4mojo8internal17ValidationContextE(i8*, %"class.mojo::internal::ValidationContext"*) local_unnamed_addr #3 align 2 {
  %3 = tail call zeroext i1 @_ZN22memory_instrumentation5mojom8internal22HeapProfileResult_Data8ValidateEPKvPN4mojo8internal17ValidationContextE(i8* %0, %"class.mojo::internal::ValidationContext"* %1) #15
  ret i1 %3
}

declare zeroext i1 @_ZN22memory_instrumentation5mojom8internal22HeapProfileResult_Data8ValidateEPKvPN4mojo8internal17ValidationContextE(i8*, %"class.mojo::internal::ValidationContext"*) local_unnamed_addr #5

; Function Attrs: nofree norecurse nounwind ssp uwtable writeonly
define hidden void @_ZN22memory_instrumentation5mojom5blink26RawAllocatorDumpEntryValueC2Ev(%"class.memory_instrumentation::mojom::blink::RawAllocatorDumpEntryValue"* nocapture) unnamed_addr #0 align 2 {
  %2 = getelementptr inbounds %"class.memory_instrumentation::mojom::blink::RawAllocatorDumpEntryValue", %"class.memory_instrumentation::mojom::blink::RawAllocatorDumpEntryValue"* %0, i64 0, i32 0
  store i32 0, i32* %2, align 8
  %3 = getelementptr inbounds %"class.memory_instrumentation::mojom::blink::RawAllocatorDumpEntryValue", %"class.memory_instrumentation::mojom::blink::RawAllocatorDumpEntryValue"* %0, i64 0, i32 1, i32 0
  store i64 0, i64* %3, align 8
  ret void
}

; Function Attrs: nounwind ssp uwtable
define hidden void @_ZN22memory_instrumentation5mojom5blink26RawAllocatorDumpEntryValueD2Ev(%"class.memory_instrumentation::mojom::blink::RawAllocatorDumpEntryValue"* nocapture readonly) unnamed_addr #3 align 2 {
  %2 = getelementptr inbounds %"class.memory_instrumentation::mojom::blink::RawAllocatorDumpEntryValue", %"class.memory_instrumentation::mojom::blink::RawAllocatorDumpEntryValue"* %0, i64 0, i32 0
  %3 = load i32, i32* %2, align 8
  %4 = icmp eq i32 %3, 1
  br i1 %4, label %5, label %29

5:                                                ; preds = %1
  %6 = getelementptr inbounds %"class.memory_instrumentation::mojom::blink::RawAllocatorDumpEntryValue", %"class.memory_instrumentation::mojom::blink::RawAllocatorDumpEntryValue"* %0, i64 0, i32 1
  %7 = bitcast %"union.memory_instrumentation::mojom::blink::RawAllocatorDumpEntryValue::Union_"* %6 to %"class.WTF::String"**
  %8 = load %"class.WTF::String"*, %"class.WTF::String"** %7, align 8
  %9 = icmp eq %"class.WTF::String"* %8, null
  br i1 %9, label %29, label %10

10:                                               ; preds = %5
  %11 = getelementptr inbounds %"class.WTF::String", %"class.WTF::String"* %8, i64 0, i32 0, i32 0
  %12 = load %"class.WTF::StringImpl"*, %"class.WTF::StringImpl"** %11, align 8
  %13 = icmp eq %"class.WTF::StringImpl"* %12, null
  br i1 %13, label %27, label %14

14:                                               ; preds = %10
  %15 = getelementptr inbounds %"class.WTF::StringImpl", %"class.WTF::StringImpl"* %12, i64 0, i32 2, i32 0, i32 0, i32 0, i32 0, i32 0
  %16 = load atomic i32, i32* %15 monotonic, align 4
  %17 = and i32 %16, 2
  %18 = icmp eq i32 %17, 0
  %19 = getelementptr inbounds %"class.WTF::StringImpl", %"class.WTF::StringImpl"* %12, i64 0, i32 0
  %20 = load i32, i32* %19, align 4
  br i1 %18, label %21, label %23

21:                                               ; preds = %14
  %22 = add i32 %20, -1
  store i32 %22, i32* %19, align 4
  br label %23

23:                                               ; preds = %21, %14
  %24 = phi i32 [ %22, %21 ], [ %20, %14 ]
  %25 = icmp eq i32 %24, 0
  br i1 %25, label %26, label %27

26:                                               ; preds = %23
  tail call void @_ZNK3WTF10StringImpl18DestroyIfNotStaticEv(%"class.WTF::StringImpl"* nonnull %12) #15
  br label %27

27:                                               ; preds = %26, %23, %10
  %28 = bitcast %"class.WTF::String"* %8 to i8*
  tail call void @free(i8* %28) #15
  br label %29

29:                                               ; preds = %1, %5, %27
  ret void
}

; Function Attrs: nounwind ssp uwtable
define hidden void @_ZN22memory_instrumentation5mojom5blink26RawAllocatorDumpEntryValue13DestroyActiveEv(%"class.memory_instrumentation::mojom::blink::RawAllocatorDumpEntryValue"* nocapture readonly) local_unnamed_addr #3 align 2 {
  %2 = getelementptr inbounds %"class.memory_instrumentation::mojom::blink::RawAllocatorDumpEntryValue", %"class.memory_instrumentation::mojom::blink::RawAllocatorDumpEntryValue"* %0, i64 0, i32 0
  %3 = load i32, i32* %2, align 8
  %4 = icmp eq i32 %3, 1
  br i1 %4, label %5, label %29

5:                                                ; preds = %1
  %6 = getelementptr inbounds %"class.memory_instrumentation::mojom::blink::RawAllocatorDumpEntryValue", %"class.memory_instrumentation::mojom::blink::RawAllocatorDumpEntryValue"* %0, i64 0, i32 1
  %7 = bitcast %"union.memory_instrumentation::mojom::blink::RawAllocatorDumpEntryValue::Union_"* %6 to %"class.WTF::String"**
  %8 = load %"class.WTF::String"*, %"class.WTF::String"** %7, align 8
  %9 = icmp eq %"class.WTF::String"* %8, null
  br i1 %9, label %29, label %10

10:                                               ; preds = %5
  %11 = getelementptr inbounds %"class.WTF::String", %"class.WTF::String"* %8, i64 0, i32 0, i32 0
  %12 = load %"class.WTF::StringImpl"*, %"class.WTF::StringImpl"** %11, align 8
  %13 = icmp eq %"class.WTF::StringImpl"* %12, null
  br i1 %13, label %27, label %14

14:                                               ; preds = %10
  %15 = getelementptr inbounds %"class.WTF::StringImpl", %"class.WTF::StringImpl"* %12, i64 0, i32 2, i32 0, i32 0, i32 0, i32 0, i32 0
  %16 = load atomic i32, i32* %15 monotonic, align 4
  %17 = and i32 %16, 2
  %18 = icmp eq i32 %17, 0
  %19 = getelementptr inbounds %"class.WTF::StringImpl", %"class.WTF::StringImpl"* %12, i64 0, i32 0
  %20 = load i32, i32* %19, align 4
  br i1 %18, label %21, label %23

21:                                               ; preds = %14
  %22 = add i32 %20, -1
  store i32 %22, i32* %19, align 4
  br label %23

23:                                               ; preds = %21, %14
  %24 = phi i32 [ %22, %21 ], [ %20, %14 ]
  %25 = icmp eq i32 %24, 0
  br i1 %25, label %26, label %27

26:                                               ; preds = %23
  tail call void @_ZNK3WTF10StringImpl18DestroyIfNotStaticEv(%"class.WTF::StringImpl"* nonnull %12) #15
  br label %27

27:                                               ; preds = %10, %23, %26
  %28 = bitcast %"class.WTF::String"* %8 to i8*
  tail call void @free(i8* %28) #15
  br label %29

29:                                               ; preds = %5, %27, %1
  ret void
}

; Function Attrs: nounwind ssp uwtable
define hidden void @_ZN22memory_instrumentation5mojom5blink26RawAllocatorDumpEntryValue16set_value_uint64Em(%"class.memory_instrumentation::mojom::blink::RawAllocatorDumpEntryValue"* nocapture, i64) local_unnamed_addr #3 align 2 {
  %3 = getelementptr inbounds %"class.memory_instrumentation::mojom::blink::RawAllocatorDumpEntryValue", %"class.memory_instrumentation::mojom::blink::RawAllocatorDumpEntryValue"* %0, i64 0, i32 0
  %4 = load i32, i32* %3, align 8
  switch i32 %4, label %29 [
    i32 0, label %30
    i32 1, label %5
  ]

5:                                                ; preds = %2
  %6 = getelementptr inbounds %"class.memory_instrumentation::mojom::blink::RawAllocatorDumpEntryValue", %"class.memory_instrumentation::mojom::blink::RawAllocatorDumpEntryValue"* %0, i64 0, i32 1
  %7 = bitcast %"union.memory_instrumentation::mojom::blink::RawAllocatorDumpEntryValue::Union_"* %6 to %"class.WTF::String"**
  %8 = load %"class.WTF::String"*, %"class.WTF::String"** %7, align 8
  %9 = icmp eq %"class.WTF::String"* %8, null
  br i1 %9, label %29, label %10

10:                                               ; preds = %5
  %11 = getelementptr inbounds %"class.WTF::String", %"class.WTF::String"* %8, i64 0, i32 0, i32 0
  %12 = load %"class.WTF::StringImpl"*, %"class.WTF::StringImpl"** %11, align 8
  %13 = icmp eq %"class.WTF::StringImpl"* %12, null
  br i1 %13, label %27, label %14

14:                                               ; preds = %10
  %15 = getelementptr inbounds %"class.WTF::StringImpl", %"class.WTF::StringImpl"* %12, i64 0, i32 2, i32 0, i32 0, i32 0, i32 0, i32 0
  %16 = load atomic i32, i32* %15 monotonic, align 4
  %17 = and i32 %16, 2
  %18 = icmp eq i32 %17, 0
  %19 = getelementptr inbounds %"class.WTF::StringImpl", %"class.WTF::StringImpl"* %12, i64 0, i32 0
  %20 = load i32, i32* %19, align 4
  br i1 %18, label %21, label %23

21:                                               ; preds = %14
  %22 = add i32 %20, -1
  store i32 %22, i32* %19, align 4
  br label %23

23:                                               ; preds = %21, %14
  %24 = phi i32 [ %22, %21 ], [ %20, %14 ]
  %25 = icmp eq i32 %24, 0
  br i1 %25, label %26, label %27

26:                                               ; preds = %23
  tail call void @_ZNK3WTF10StringImpl18DestroyIfNotStaticEv(%"class.WTF::StringImpl"* nonnull %12) #15
  br label %27

27:                                               ; preds = %26, %23, %10
  %28 = bitcast %"class.WTF::String"* %8 to i8*
  tail call void @free(i8* %28) #15
  br label %29

29:                                               ; preds = %2, %5, %27
  store i32 0, i32* %3, align 8
  br label %30

30:                                               ; preds = %2, %29
  %31 = getelementptr inbounds %"class.memory_instrumentation::mojom::blink::RawAllocatorDumpEntryValue", %"class.memory_instrumentation::mojom::blink::RawAllocatorDumpEntryValue"* %0, i64 0, i32 1, i32 0
  store i64 %1, i64* %31, align 8
  ret void
}

; Function Attrs: nounwind ssp uwtable
define hidden void @_ZN22memory_instrumentation5mojom5blink26RawAllocatorDumpEntryValue16set_value_stringERKN3WTF6StringE(%"class.memory_instrumentation::mojom::blink::RawAllocatorDumpEntryValue"* nocapture, %"class.WTF::String"* nocapture readonly dereferenceable(8)) local_unnamed_addr #3 align 2 {
  %3 = getelementptr inbounds %"class.memory_instrumentation::mojom::blink::RawAllocatorDumpEntryValue", %"class.memory_instrumentation::mojom::blink::RawAllocatorDumpEntryValue"* %0, i64 0, i32 0
  %4 = load i32, i32* %3, align 8
  %5 = icmp eq i32 %4, 1
  br i1 %5, label %6, label %49

6:                                                ; preds = %2
  %7 = getelementptr inbounds %"class.memory_instrumentation::mojom::blink::RawAllocatorDumpEntryValue", %"class.memory_instrumentation::mojom::blink::RawAllocatorDumpEntryValue"* %0, i64 0, i32 1
  %8 = bitcast %"union.memory_instrumentation::mojom::blink::RawAllocatorDumpEntryValue::Union_"* %7 to %"class.WTF::String"**
  %9 = load %"class.WTF::String"*, %"class.WTF::String"** %8, align 8
  %10 = getelementptr inbounds %"class.WTF::String", %"class.WTF::String"* %1, i64 0, i32 0, i32 0
  %11 = load %"class.WTF::StringImpl"*, %"class.WTF::StringImpl"** %10, align 8
  %12 = icmp eq %"class.WTF::StringImpl"* %11, null
  br i1 %12, label %30, label %13

13:                                               ; preds = %6
  %14 = getelementptr inbounds %"class.WTF::StringImpl", %"class.WTF::StringImpl"* %11, i64 0, i32 2, i32 0, i32 0, i32 0, i32 0, i32 0
  %15 = load atomic i32, i32* %14 monotonic, align 4
  %16 = and i32 %15, 2
  %17 = icmp eq i32 %16, 0
  br i1 %17, label %18, label %30

18:                                               ; preds = %13
  %19 = getelementptr inbounds %"class.WTF::StringImpl", %"class.WTF::StringImpl"* %11, i64 0, i32 0
  %20 = load i32, i32* %19, align 4
  %21 = zext i32 %20 to i33
  %22 = tail call { i33, i1 } @llvm.sadd.with.overflow.i33(i33 %21, i33 1) #15
  %23 = extractvalue { i33, i1 } %22, 1
  %24 = extractvalue { i33, i1 } %22, 0
  %25 = icmp slt i33 %24, 0
  %26 = or i1 %23, %25
  br i1 %26, label %27, label %28, !prof !3

27:                                               ; preds = %18
  tail call void @llvm.trap() #15
  unreachable

28:                                               ; preds = %18
  %29 = trunc i33 %24 to i32
  store i32 %29, i32* %19, align 4
  br label %30

30:                                               ; preds = %28, %13, %6
  %31 = ptrtoint %"class.WTF::StringImpl"* %11 to i64
  %32 = bitcast %"class.WTF::String"* %9 to i64*
  %33 = getelementptr inbounds %"class.WTF::String", %"class.WTF::String"* %9, i64 0, i32 0, i32 0
  %34 = load %"class.WTF::StringImpl"*, %"class.WTF::StringImpl"** %33, align 8
  store i64 %31, i64* %32, align 8
  %35 = icmp eq %"class.WTF::StringImpl"* %34, null
  br i1 %35, label %75, label %36

36:                                               ; preds = %30
  %37 = getelementptr inbounds %"class.WTF::StringImpl", %"class.WTF::StringImpl"* %34, i64 0, i32 2, i32 0, i32 0, i32 0, i32 0, i32 0
  %38 = load atomic i32, i32* %37 monotonic, align 4
  %39 = and i32 %38, 2
  %40 = icmp eq i32 %39, 0
  %41 = getelementptr inbounds %"class.WTF::StringImpl", %"class.WTF::StringImpl"* %34, i64 0, i32 0
  %42 = load i32, i32* %41, align 4
  br i1 %40, label %43, label %45

43:                                               ; preds = %36
  %44 = add i32 %42, -1
  store i32 %44, i32* %41, align 4
  br label %45

45:                                               ; preds = %43, %36
  %46 = phi i32 [ %44, %43 ], [ %42, %36 ]
  %47 = icmp eq i32 %46, 0
  br i1 %47, label %48, label %75

48:                                               ; preds = %45
  tail call void @_ZNK3WTF10StringImpl18DestroyIfNotStaticEv(%"class.WTF::StringImpl"* nonnull %34) #15
  br label %75

49:                                               ; preds = %2
  store i32 1, i32* %3, align 8
  %50 = tail call noalias i8* @malloc(i64 8) #15
  %51 = getelementptr inbounds %"class.WTF::String", %"class.WTF::String"* %1, i64 0, i32 0, i32 0
  %52 = load %"class.WTF::StringImpl"*, %"class.WTF::StringImpl"** %51, align 8
  %53 = bitcast i8* %50 to %"class.WTF::StringImpl"**
  store %"class.WTF::StringImpl"* %52, %"class.WTF::StringImpl"** %53, align 8
  %54 = icmp eq %"class.WTF::StringImpl"* %52, null
  br i1 %54, label %72, label %55

55:                                               ; preds = %49
  %56 = getelementptr inbounds %"class.WTF::StringImpl", %"class.WTF::StringImpl"* %52, i64 0, i32 2, i32 0, i32 0, i32 0, i32 0, i32 0
  %57 = load atomic i32, i32* %56 monotonic, align 4
  %58 = and i32 %57, 2
  %59 = icmp eq i32 %58, 0
  br i1 %59, label %60, label %72

60:                                               ; preds = %55
  %61 = getelementptr inbounds %"class.WTF::StringImpl", %"class.WTF::StringImpl"* %52, i64 0, i32 0
  %62 = load i32, i32* %61, align 4
  %63 = zext i32 %62 to i33
  %64 = tail call { i33, i1 } @llvm.sadd.with.overflow.i33(i33 %63, i33 1) #15
  %65 = extractvalue { i33, i1 } %64, 1
  %66 = extractvalue { i33, i1 } %64, 0
  %67 = icmp slt i33 %66, 0
  %68 = or i1 %65, %67
  br i1 %68, label %69, label %70, !prof !3

69:                                               ; preds = %60
  tail call void @llvm.trap() #15
  unreachable

70:                                               ; preds = %60
  %71 = trunc i33 %66 to i32
  store i32 %71, i32* %61, align 4
  br label %72

72:                                               ; preds = %49, %55, %70
  %73 = getelementptr inbounds %"class.memory_instrumentation::mojom::blink::RawAllocatorDumpEntryValue", %"class.memory_instrumentation::mojom::blink::RawAllocatorDumpEntryValue"* %0, i64 0, i32 1
  %74 = bitcast %"union.memory_instrumentation::mojom::blink::RawAllocatorDumpEntryValue::Union_"* %73 to i8**
  store i8* %50, i8** %74, align 8
  br label %75

75:                                               ; preds = %48, %45, %30, %72
  ret void
}

; Function Attrs: nounwind readonly ssp uwtable
define hidden i64 @_ZNK22memory_instrumentation5mojom5blink26RawAllocatorDumpEntryValue4HashEm(%"class.memory_instrumentation::mojom::blink::RawAllocatorDumpEntryValue"* nocapture readonly, i64) local_unnamed_addr #6 align 2 {
  %3 = getelementptr inbounds %"class.memory_instrumentation::mojom::blink::RawAllocatorDumpEntryValue", %"class.memory_instrumentation::mojom::blink::RawAllocatorDumpEntryValue"* %0, i64 0, i32 0
  %4 = load i32, i32* %3, align 8
  %5 = zext i32 %4 to i64
  %6 = shl i64 %1, 6
  %7 = lshr i64 %1, 2
  %8 = add i64 %7, %6
  %9 = add i64 %8, %5
  %10 = xor i64 %9, %1
  switch i32 %4, label %40 [
    i32 0, label %11
    i32 1, label %19
  ]

11:                                               ; preds = %2
  %12 = getelementptr inbounds %"class.memory_instrumentation::mojom::blink::RawAllocatorDumpEntryValue", %"class.memory_instrumentation::mojom::blink::RawAllocatorDumpEntryValue"* %0, i64 0, i32 1, i32 0
  %13 = load i64, i64* %12, align 8
  %14 = shl i64 %10, 6
  %15 = lshr i64 %10, 2
  %16 = add i64 %15, %14
  %17 = add i64 %16, %13
  %18 = xor i64 %17, %10
  br label %40

19:                                               ; preds = %2
  %20 = getelementptr inbounds %"class.memory_instrumentation::mojom::blink::RawAllocatorDumpEntryValue", %"class.memory_instrumentation::mojom::blink::RawAllocatorDumpEntryValue"* %0, i64 0, i32 1, i32 0
  %21 = load i64, i64* %20, align 8
  %22 = lshr i64 %21, 32
  %23 = shl i64 %21, 3
  %24 = and i64 %23, 4294967288
  %25 = add nuw nsw i64 %24, 8
  %26 = xor i64 %25, %22
  %27 = mul i64 %26, -7070675565921424023
  %28 = lshr i64 %27, 47
  %29 = xor i64 %27, %22
  %30 = xor i64 %29, %28
  %31 = mul i64 %30, -7070675565921424023
  %32 = lshr i64 %31, 47
  %33 = xor i64 %32, %31
  %34 = mul i64 %33, -7070675565921424023
  %35 = shl i64 %10, 6
  %36 = lshr i64 %10, 2
  %37 = add i64 %36, %35
  %38 = add i64 %37, %34
  %39 = xor i64 %38, %10
  br label %40

40:                                               ; preds = %2, %19, %11
  %41 = phi i64 [ %39, %19 ], [ %18, %11 ], [ %10, %2 ]
  ret i64 %41
}

; Function Attrs: nounwind ssp uwtable
define hidden zeroext i1 @_ZN22memory_instrumentation5mojom5blink26RawAllocatorDumpEntryValue8ValidateEPKvPN4mojo8internal17ValidationContextE(i8*, %"class.mojo::internal::ValidationContext"*) local_unnamed_addr #3 align 2 {
  %3 = tail call zeroext i1 @_ZN22memory_instrumentation5mojom8internal31RawAllocatorDumpEntryValue_Data8ValidateEPKvPN4mojo8internal17ValidationContextEb(i8* %0, %"class.mojo::internal::ValidationContext"* %1, i1 zeroext false) #15
  ret i1 %3
}

declare zeroext i1 @_ZN22memory_instrumentation5mojom8internal31RawAllocatorDumpEntryValue_Data8ValidateEPKvPN4mojo8internal17ValidationContextEb(i8*, %"class.mojo::internal::ValidationContext"*, i1 zeroext) local_unnamed_addr #5

; Function Attrs: nofree norecurse nounwind ssp uwtable writeonly
define hidden void @_ZN22memory_instrumentation5mojom5blink18ClientProcessProxyC2EPN4mojo28MessageReceiverWithResponderE(%"class.memory_instrumentation::mojom::blink::ClientProcessProxy"* nocapture, %"class.mojo::MessageReceiverWithResponder"*) unnamed_addr #0 align 2 {
  %3 = getelementptr inbounds %"class.memory_instrumentation::mojom::blink::ClientProcessProxy", %"class.memory_instrumentation::mojom::blink::ClientProcessProxy"* %0, i64 0, i32 0, i32 0
  store i32 (...)** bitcast (i8** getelementptr inbounds ({ [6 x i8*] }, { [6 x i8*] }* @_ZTVN22memory_instrumentation5mojom5blink18ClientProcessProxyE, i64 0, inrange i32 0, i64 2) to i32 (...)**), i32 (...)*** %3, align 8
  %4 = getelementptr inbounds %"class.memory_instrumentation::mojom::blink::ClientProcessProxy", %"class.memory_instrumentation::mojom::blink::ClientProcessProxy"* %0, i64 0, i32 1
  store %"class.mojo::MessageReceiverWithResponder"* %1, %"class.mojo::MessageReceiverWithResponder"** %4, align 8
  ret void
}

; Function Attrs: nounwind ssp uwtable
define hidden void @_ZN22memory_instrumentation5mojom5blink18ClientProcessProxy23RequestChromeMemoryDumpEN4mojo16InlinedStructPtrINS1_11RequestArgsEEEN4base12OnceCallbackIFvbmNS3_9StructPtrINS1_20RawProcessMemoryDumpEEEEEE(%"class.memory_instrumentation::mojom::blink::ClientProcessProxy"* nocapture readonly, %"class.mojo::InlinedStructPtr.117"* nocapture readonly, %"class.base::OnceCallback"* nocapture) unnamed_addr #3 align 2 {
  %4 = alloca %"class.mojo::Message", align 8
  %5 = alloca %"class.base::OnceCallback", align 8
  %6 = bitcast %"class.mojo::Message"* %4 to i8*
  call void @llvm.lifetime.start.p0i8(i64 120, i8* nonnull %6) #15
  call void @llvm.memset.p0i8.i64(i8* nonnull align 8 %6, i8 -86, i64 120, i1 false)
  call void @_ZN4mojo7MessageC1EjjmmPNSt3__16vectorINS_16ScopedHandleBaseINS_6HandleEEENS1_9allocatorIS5_EEEE(%"class.mojo::Message"* nonnull %4, i32 440579497, i32 1, i64 0, i64 0, %"class.std::__1::vector"* null) #15
  %7 = getelementptr inbounds %"class.mojo::Message", %"class.mojo::Message"* %4, i64 0, i32 1
  %8 = call i64 @_ZN4mojo8internal6Buffer8AllocateEm(%"class.mojo::internal::Buffer"* %7, i64 16) #15
  %9 = getelementptr inbounds %"class.mojo::Message", %"class.mojo::Message"* %4, i64 0, i32 1, i32 2
  %10 = load i8*, i8** %9, align 8
  %11 = getelementptr inbounds i8, i8* %10, i64 %8
  %12 = bitcast i8* %11 to %"class.memory_instrumentation::mojom::internal::ClientProcess_RequestChromeMemoryDump_Params_Data"*
  call void @_ZN22memory_instrumentation5mojom8internal49ClientProcess_RequestChromeMemoryDump_Params_DataC1Ev(%"class.memory_instrumentation::mojom::internal::ClientProcess_RequestChromeMemoryDump_Params_Data"* %12) #15
  %13 = getelementptr inbounds %"class.mojo::InlinedStructPtr.117", %"class.mojo::InlinedStructPtr.117"* %1, i64 0, i32 1
  %14 = load i32, i32* %13, align 8
  %15 = icmp eq i32 %14, 0
  br i1 %15, label %16, label %21

16:                                               ; preds = %3
  %17 = load i8*, i8** %9, align 8
  %18 = getelementptr inbounds i8, i8* %17, i64 %8
  %19 = getelementptr inbounds i8, i8* %18, i64 8
  %20 = bitcast i8* %19 to %"struct.mojo::internal::Pointer"*
  br label %58

21:                                               ; preds = %3
  %22 = call i64 @_ZN4mojo8internal6Buffer8AllocateEm(%"class.mojo::internal::Buffer"* %7, i64 32) #15
  %23 = load i8*, i8** %9, align 8
  %24 = getelementptr inbounds i8, i8* %23, i64 %22
  %25 = bitcast i8* %24 to %"class.memory_instrumentation::mojom::internal::RequestArgs_Data"*
  call void @_ZN22memory_instrumentation5mojom8internal16RequestArgs_DataC1Ev(%"class.memory_instrumentation::mojom::internal::RequestArgs_Data"* %25) #15
  %26 = getelementptr inbounds %"class.mojo::InlinedStructPtr.117", %"class.mojo::InlinedStructPtr.117"* %1, i64 0, i32 0, i32 0
  %27 = load i64, i64* %26, align 8
  %28 = load i8*, i8** %9, align 8
  %29 = getelementptr inbounds i8, i8* %28, i64 %22
  %30 = getelementptr inbounds i8, i8* %29, i64 8
  %31 = bitcast i8* %30 to i64*
  store i64 %27, i64* %31, align 1
  %32 = getelementptr inbounds %"class.mojo::InlinedStructPtr.117", %"class.mojo::InlinedStructPtr.117"* %1, i64 0, i32 0, i32 1
  %33 = load i32, i32* %32, align 8
  %34 = load i8*, i8** %9, align 8
  %35 = getelementptr inbounds i8, i8* %34, i64 %22
  %36 = getelementptr inbounds i8, i8* %35, i64 16
  %37 = bitcast i8* %36 to i32*
  store i32 %33, i32* %37, align 4
  %38 = getelementptr inbounds %"class.mojo::InlinedStructPtr.117", %"class.mojo::InlinedStructPtr.117"* %1, i64 0, i32 0, i32 2
  %39 = load i32, i32* %38, align 4
  %40 = load i8*, i8** %9, align 8
  %41 = getelementptr inbounds i8, i8* %40, i64 %22
  %42 = getelementptr inbounds i8, i8* %41, i64 20
  %43 = bitcast i8* %42 to i32*
  store i32 %39, i32* %43, align 4
  %44 = getelementptr inbounds %"class.mojo::InlinedStructPtr.117", %"class.mojo::InlinedStructPtr.117"* %1, i64 0, i32 0, i32 3
  %45 = load i32, i32* %44, align 8
  %46 = load i8*, i8** %9, align 8
  %47 = getelementptr inbounds i8, i8* %46, i64 %22
  %48 = getelementptr inbounds i8, i8* %47, i64 24
  %49 = bitcast i8* %48 to i32*
  store i32 %45, i32* %49, align 4
  %50 = load i8*, i8** %9, align 8
  %51 = getelementptr inbounds i8, i8* %50, i64 %8
  %52 = getelementptr inbounds i8, i8* %51, i64 8
  %53 = bitcast i8* %52 to %"struct.mojo::internal::Pointer"*
  %54 = icmp eq i64 %22, -1
  br i1 %54, label %58, label %55

55:                                               ; preds = %21
  %56 = getelementptr inbounds i8, i8* %50, i64 %22
  %57 = bitcast i8* %56 to %"class.memory_instrumentation::mojom::internal::RequestArgs_Data"*
  br label %58

58:                                               ; preds = %55, %21, %16
  %59 = phi %"struct.mojo::internal::Pointer"* [ %53, %55 ], [ %53, %21 ], [ %20, %16 ]
  %60 = phi %"class.memory_instrumentation::mojom::internal::RequestArgs_Data"* [ %57, %55 ], [ null, %21 ], [ null, %16 ]
  %61 = getelementptr inbounds %"struct.mojo::internal::Pointer", %"struct.mojo::internal::Pointer"* %59, i64 0, i32 0
  %62 = icmp eq %"class.memory_instrumentation::mojom::internal::RequestArgs_Data"* %60, null
  %63 = ptrtoint %"class.memory_instrumentation::mojom::internal::RequestArgs_Data"* %60 to i64
  %64 = ptrtoint %"struct.mojo::internal::Pointer"* %59 to i64
  %65 = sub i64 %63, %64
  %66 = select i1 %62, i64 0, i64 %65
  store i64 %66, i64* %61, align 8
  %67 = call i8* @_Znwm(i64 16) #16
  %68 = getelementptr inbounds %"class.base::OnceCallback", %"class.base::OnceCallback"* %2, i64 0, i32 0, i32 0, i32 0
  %69 = bitcast %"class.base::OnceCallback"* %2 to i64*
  %70 = load i64, i64* %69, align 8
  store %"class.base::internal::BindStateBase"* null, %"class.base::internal::BindStateBase"** %68, align 8
  %71 = bitcast i8* %67 to i32 (...)***
  store i32 (...)** bitcast (i8** getelementptr inbounds ({ [6 x i8*] }, { [6 x i8*] }* @_ZTVN22memory_instrumentation5mojom5blink55ClientProcess_RequestChromeMemoryDump_ForwardToCallbackE, i64 0, inrange i32 0, i64 2) to i32 (...)**), i32 (...)*** %71, align 8
  %72 = getelementptr inbounds i8, i8* %67, i64 8
  %73 = getelementptr inbounds %"class.base::OnceCallback", %"class.base::OnceCallback"* %5, i64 0, i32 0, i32 0, i32 0
  %74 = bitcast i8* %72 to i64*
  store i64 %70, i64* %74, align 8
  store %"class.base::internal::BindStateBase"* null, %"class.base::internal::BindStateBase"** %73, align 8
  %75 = bitcast i8* %67 to %"class.mojo::MessageReceiver"*
  %76 = getelementptr inbounds %"class.base::OnceCallback", %"class.base::OnceCallback"* %5, i64 0, i32 0
  call void @_ZN4base8internal12CallbackBaseD2Ev(%"class.base::internal::CallbackBase"* nonnull %76) #15
  %77 = getelementptr inbounds %"class.memory_instrumentation::mojom::blink::ClientProcessProxy", %"class.memory_instrumentation::mojom::blink::ClientProcessProxy"* %0, i64 0, i32 1
  %78 = load %"class.mojo::MessageReceiverWithResponder"*, %"class.mojo::MessageReceiverWithResponder"** %77, align 8
  %79 = bitcast %"class.mojo::MessageReceiverWithResponder"* %78 to i1 (%"class.mojo::MessageReceiverWithResponder"*, %"class.mojo::Message"*, %"class.mojo::MessageReceiver"*)***
  %80 = load i1 (%"class.mojo::MessageReceiverWithResponder"*, %"class.mojo::Message"*, %"class.mojo::MessageReceiver"*)**, i1 (%"class.mojo::MessageReceiverWithResponder"*, %"class.mojo::Message"*, %"class.mojo::MessageReceiver"*)*** %79, align 8
  %81 = getelementptr inbounds i1 (%"class.mojo::MessageReceiverWithResponder"*, %"class.mojo::Message"*, %"class.mojo::MessageReceiver"*)*, i1 (%"class.mojo::MessageReceiverWithResponder"*, %"class.mojo::Message"*, %"class.mojo::MessageReceiver"*)** %80, i64 4
  %82 = load i1 (%"class.mojo::MessageReceiverWithResponder"*, %"class.mojo::Message"*, %"class.mojo::MessageReceiver"*)*, i1 (%"class.mojo::MessageReceiverWithResponder"*, %"class.mojo::Message"*, %"class.mojo::MessageReceiver"*)** %81, align 8
  %83 = call zeroext i1 %82(%"class.mojo::MessageReceiverWithResponder"* %78, %"class.mojo::Message"* nonnull %4, %"class.mojo::MessageReceiver"* nonnull %75) #15
  call void @_ZN4mojo7MessageD1Ev(%"class.mojo::Message"* nonnull %4) #15
  call void @llvm.lifetime.end.p0i8(i64 120, i8* nonnull %6) #15
  ret void
}

declare void @_ZN4mojo7MessageC1EjjmmPNSt3__16vectorINS_16ScopedHandleBaseINS_6HandleEEENS1_9allocatorIS5_EEEE(%"class.mojo::Message"*, i32, i32, i64, i64, %"class.std::__1::vector"*) unnamed_addr #5

; Function Attrs: nobuiltin nofree
declare noalias nonnull i8* @_Znwm(i64) local_unnamed_addr #7

; Function Attrs: nounwind
declare void @_ZN4mojo7MessageD1Ev(%"class.mojo::Message"*) unnamed_addr #8

; Function Attrs: nounwind ssp uwtable
define hidden void @_ZN22memory_instrumentation5mojom5blink18ClientProcessProxy19RequestOSMemoryDumpENS0_15MemoryMapOptionEN3WTF6VectorIN4mojo16InlinedStructPtrIN9mojo_base5mojom5blink9ProcessIdEEELj0ENS4_18PartitionAllocatorEEEN4base12OnceCallbackIFvbNS4_7HashMapISC_NS6_9StructPtrINS1_12RawOSMemDumpEEENS6_8internal22InlinedStructPtrHashFnISB_EENS4_10HashTraitsISC_EENSO_ISK_EESD_EEEEE(%"class.memory_instrumentation::mojom::blink::ClientProcessProxy"* nocapture readonly, i32, %"class.WTF::Vector.126"*, %"class.base::OnceCallback.131"* nocapture) unnamed_addr #3 align 2 {
  %5 = alloca %"class.mojo::Message", align 8
  %6 = alloca %"class.mojo::internal::MessageFragment.134", align 8
  %7 = alloca %"class.mojo::internal::ContainerValidateParams", align 8
  %8 = alloca %"class.mojo::internal::ContainerValidateParams"*, align 8
  %9 = alloca %"class.base::OnceCallback.131", align 8
  %10 = bitcast %"class.mojo::Message"* %5 to i8*
  call void @llvm.lifetime.start.p0i8(i64 120, i8* nonnull %10) #15
  call void @llvm.memset.p0i8.i64(i8* nonnull align 8 %10, i8 -86, i64 120, i1 false)
  call void @_ZN4mojo7MessageC1EjjmmPNSt3__16vectorINS_16ScopedHandleBaseINS_6HandleEEENS1_9allocatorIS5_EEEE(%"class.mojo::Message"* nonnull %5, i32 335459342, i32 1, i64 0, i64 0, %"class.std::__1::vector"* null) #15
  %11 = getelementptr inbounds %"class.mojo::Message", %"class.mojo::Message"* %5, i64 0, i32 1
  %12 = call i64 @_ZN4mojo8internal6Buffer8AllocateEm(%"class.mojo::internal::Buffer"* %11, i64 24) #15
  %13 = getelementptr inbounds %"class.mojo::Message", %"class.mojo::Message"* %5, i64 0, i32 1, i32 2
  %14 = load i8*, i8** %13, align 8
  %15 = getelementptr inbounds i8, i8* %14, i64 %12
  %16 = bitcast i8* %15 to %"class.memory_instrumentation::mojom::internal::ClientProcess_RequestOSMemoryDump_Params_Data"*
  call void @_ZN22memory_instrumentation5mojom8internal45ClientProcess_RequestOSMemoryDump_Params_DataC1Ev(%"class.memory_instrumentation::mojom::internal::ClientProcess_RequestOSMemoryDump_Params_Data"* %16) #15
  %17 = load i8*, i8** %13, align 8
  %18 = getelementptr inbounds i8, i8* %17, i64 %12
  %19 = getelementptr inbounds i8, i8* %18, i64 8
  %20 = bitcast i8* %19 to i32*
  store i32 %1, i32* %20, align 4
  %21 = bitcast %"class.mojo::internal::MessageFragment.134"* %6 to i8*
  call void @llvm.lifetime.start.p0i8(i64 16, i8* nonnull %21) #15
  %22 = getelementptr inbounds %"class.mojo::internal::MessageFragment.134", %"class.mojo::internal::MessageFragment.134"* %6, i64 0, i32 0
  %23 = getelementptr inbounds %"class.mojo::internal::MessageFragment.134", %"class.mojo::internal::MessageFragment.134"* %6, i64 0, i32 1
  store %"class.mojo::Message"* %5, %"class.mojo::Message"** %22, align 8
  store i64 -1, i64* %23, align 8
  %24 = bitcast %"class.mojo::internal::ContainerValidateParams"* %7 to i8*
  call void @llvm.lifetime.start.p0i8(i64 32, i8* nonnull %24) #15
  %25 = bitcast %"class.mojo::internal::ContainerValidateParams"* %7 to i64*
  store i64 -6148914691236517206, i64* %25, align 8
  %26 = getelementptr inbounds %"class.mojo::internal::ContainerValidateParams", %"class.mojo::internal::ContainerValidateParams"* %7, i64 0, i32 0
  store i32 0, i32* %26, align 8
  %27 = getelementptr inbounds %"class.mojo::internal::ContainerValidateParams", %"class.mojo::internal::ContainerValidateParams"* %7, i64 0, i32 1
  store i8 0, i8* %27, align 4
  %28 = getelementptr inbounds %"class.mojo::internal::ContainerValidateParams", %"class.mojo::internal::ContainerValidateParams"* %7, i64 0, i32 2
  %29 = bitcast %"class.mojo::internal::ContainerValidateParams"** %8 to i8*
  %30 = bitcast %"class.mojo::internal::ContainerValidateParams"** %28 to i8*
  call void @llvm.memset.p0i8.i64(i8* align 8 %30, i8 0, i64 24, i1 false)
  call void @llvm.lifetime.start.p0i8(i64 8, i8* nonnull %29) #15
  store %"class.mojo::internal::ContainerValidateParams"* %7, %"class.mojo::internal::ContainerValidateParams"** %8, align 8
  call void @_ZN4mojo8internal9SerializeINS_13ArrayDataViewIN9mojo_base5mojom17ProcessIdDataViewEEERN3WTF6VectorINS_16InlinedStructPtrINS4_5blink9ProcessIdEEELj0ENS7_18PartitionAllocatorEEEJRNS0_15MessageFragmentINS0_10Array_DataINS0_7PointerINS4_8internal14ProcessId_DataEEEEEEEPKNS0_23ContainerValidateParamsEELPv0EEEvOT0_DpOT1_(%"class.WTF::Vector.126"* dereferenceable(16) %2, %"class.mojo::internal::MessageFragment.134"* nonnull dereferenceable(16) %6, %"class.mojo::internal::ContainerValidateParams"** nonnull dereferenceable(8) %8)
  call void @llvm.lifetime.end.p0i8(i64 8, i8* nonnull %29) #15
  %31 = load i8*, i8** %13, align 8
  %32 = getelementptr inbounds i8, i8* %31, i64 %12
  %33 = getelementptr inbounds i8, i8* %32, i64 16
  %34 = load i64, i64* %23, align 8
  %35 = icmp eq i64 %34, -1
  br i1 %35, label %42, label %36

36:                                               ; preds = %4
  %37 = load %"class.mojo::Message"*, %"class.mojo::Message"** %22, align 8
  %38 = getelementptr inbounds %"class.mojo::Message", %"class.mojo::Message"* %37, i64 0, i32 1, i32 2
  %39 = load i8*, i8** %38, align 8
  %40 = getelementptr inbounds i8, i8* %39, i64 %34
  %41 = bitcast i8* %40 to %"class.mojo::internal::Array_Data"*
  br label %42

42:                                               ; preds = %36, %4
  %43 = phi %"class.mojo::internal::Array_Data"* [ %41, %36 ], [ null, %4 ]
  %44 = bitcast i8* %33 to i64*
  %45 = icmp eq %"class.mojo::internal::Array_Data"* %43, null
  %46 = ptrtoint %"class.mojo::internal::Array_Data"* %43 to i64
  %47 = ptrtoint i8* %33 to i64
  %48 = sub i64 %46, %47
  %49 = select i1 %45, i64 0, i64 %48
  store i64 %49, i64* %44, align 8
  %50 = call i8* @_Znwm(i64 16) #16
  %51 = getelementptr inbounds %"class.base::OnceCallback.131", %"class.base::OnceCallback.131"* %3, i64 0, i32 0, i32 0, i32 0
  %52 = bitcast %"class.base::OnceCallback.131"* %3 to i64*
  %53 = load i64, i64* %52, align 8
  store %"class.base::internal::BindStateBase"* null, %"class.base::internal::BindStateBase"** %51, align 8
  %54 = bitcast i8* %50 to i32 (...)***
  store i32 (...)** bitcast (i8** getelementptr inbounds ({ [6 x i8*] }, { [6 x i8*] }* @_ZTVN22memory_instrumentation5mojom5blink51ClientProcess_RequestOSMemoryDump_ForwardToCallbackE, i64 0, inrange i32 0, i64 2) to i32 (...)**), i32 (...)*** %54, align 8
  %55 = getelementptr inbounds i8, i8* %50, i64 8
  %56 = getelementptr inbounds %"class.base::OnceCallback.131", %"class.base::OnceCallback.131"* %9, i64 0, i32 0, i32 0, i32 0
  %57 = bitcast i8* %55 to i64*
  store i64 %53, i64* %57, align 8
  store %"class.base::internal::BindStateBase"* null, %"class.base::internal::BindStateBase"** %56, align 8
  %58 = bitcast i8* %50 to %"class.mojo::MessageReceiver"*
  %59 = getelementptr inbounds %"class.base::OnceCallback.131", %"class.base::OnceCallback.131"* %9, i64 0, i32 0
  call void @_ZN4base8internal12CallbackBaseD2Ev(%"class.base::internal::CallbackBase"* nonnull %59) #15
  %60 = getelementptr inbounds %"class.memory_instrumentation::mojom::blink::ClientProcessProxy", %"class.memory_instrumentation::mojom::blink::ClientProcessProxy"* %0, i64 0, i32 1
  %61 = load %"class.mojo::MessageReceiverWithResponder"*, %"class.mojo::MessageReceiverWithResponder"** %60, align 8
  %62 = bitcast %"class.mojo::MessageReceiverWithResponder"* %61 to i1 (%"class.mojo::MessageReceiverWithResponder"*, %"class.mojo::Message"*, %"class.mojo::MessageReceiver"*)***
  %63 = load i1 (%"class.mojo::MessageReceiverWithResponder"*, %"class.mojo::Message"*, %"class.mojo::MessageReceiver"*)**, i1 (%"class.mojo::MessageReceiverWithResponder"*, %"class.mojo::Message"*, %"class.mojo::MessageReceiver"*)*** %62, align 8
  %64 = getelementptr inbounds i1 (%"class.mojo::MessageReceiverWithResponder"*, %"class.mojo::Message"*, %"class.mojo::MessageReceiver"*)*, i1 (%"class.mojo::MessageReceiverWithResponder"*, %"class.mojo::Message"*, %"class.mojo::MessageReceiver"*)** %63, i64 4
  %65 = load i1 (%"class.mojo::MessageReceiverWithResponder"*, %"class.mojo::Message"*, %"class.mojo::MessageReceiver"*)*, i1 (%"class.mojo::MessageReceiverWithResponder"*, %"class.mojo::Message"*, %"class.mojo::MessageReceiver"*)** %64, align 8
  %66 = call zeroext i1 %65(%"class.mojo::MessageReceiverWithResponder"* %61, %"class.mojo::Message"* nonnull %5, %"class.mojo::MessageReceiver"* nonnull %58) #15
  call void @_ZN4mojo8internal23ContainerValidateParamsD2Ev(%"class.mojo::internal::ContainerValidateParams"* nonnull %7) #15
  call void @llvm.lifetime.end.p0i8(i64 32, i8* nonnull %24) #15
  call void @llvm.lifetime.end.p0i8(i64 16, i8* nonnull %21) #15
  call void @_ZN4mojo7MessageD1Ev(%"class.mojo::Message"* nonnull %5) #15
  call void @llvm.lifetime.end.p0i8(i64 120, i8* nonnull %10) #15
  ret void
}

; Function Attrs: nounwind ssp uwtable
define linkonce_odr hidden void @_ZN4mojo8internal9SerializeINS_13ArrayDataViewIN9mojo_base5mojom17ProcessIdDataViewEEERN3WTF6VectorINS_16InlinedStructPtrINS4_5blink9ProcessIdEEELj0ENS7_18PartitionAllocatorEEEJRNS0_15MessageFragmentINS0_10Array_DataINS0_7PointerINS4_8internal14ProcessId_DataEEEEEEEPKNS0_23ContainerValidateParamsEELPv0EEEvOT0_DpOT1_(%"class.WTF::Vector.126"* dereferenceable(16), %"class.mojo::internal::MessageFragment.134"* dereferenceable(16), %"class.mojo::internal::ContainerValidateParams"** dereferenceable(8)) local_unnamed_addr #3 comdat {
  %4 = getelementptr inbounds %"class.WTF::Vector.126", %"class.WTF::Vector.126"* %0, i64 0, i32 0, i32 0, i32 2
  %5 = load i32, i32* %4, align 4
  %6 = icmp ugt i32 %5, 536870910
  br i1 %6, label %25, label %7

7:                                                ; preds = %3
  %8 = shl i32 %5, 3
  %9 = add nuw i32 %8, 8
  %10 = getelementptr inbounds %"class.mojo::internal::MessageFragment.134", %"class.mojo::internal::MessageFragment.134"* %1, i64 0, i32 0
  %11 = load %"class.mojo::Message"*, %"class.mojo::Message"** %10, align 8
  %12 = getelementptr inbounds %"class.mojo::Message", %"class.mojo::Message"* %11, i64 0, i32 1
  %13 = zext i32 %9 to i64
  %14 = tail call i64 @_ZN4mojo8internal6Buffer8AllocateEm(%"class.mojo::internal::Buffer"* %12, i64 %13) #15
  %15 = getelementptr inbounds %"class.mojo::internal::MessageFragment.134", %"class.mojo::internal::MessageFragment.134"* %1, i64 0, i32 1
  store i64 %14, i64* %15, align 8
  %16 = load %"class.mojo::Message"*, %"class.mojo::Message"** %10, align 8
  %17 = getelementptr inbounds %"class.mojo::Message", %"class.mojo::Message"* %16, i64 0, i32 1, i32 2
  %18 = load i8*, i8** %17, align 8
  %19 = getelementptr inbounds i8, i8* %18, i64 %14
  %20 = bitcast i8* %19 to i32*
  store i32 %9, i32* %20, align 1
  %21 = getelementptr inbounds i8, i8* %19, i64 4
  %22 = bitcast i8* %21 to i32*
  store i32 %5, i32* %22, align 1
  %23 = load i32, i32* %4, align 4
  %24 = icmp eq i32 %23, 0
  br i1 %24, label %77, label %25

25:                                               ; preds = %3, %7
  %26 = phi i32 [ %23, %7 ], [ %5, %3 ]
  %27 = zext i32 %26 to i64
  %28 = getelementptr inbounds %"class.mojo::internal::MessageFragment.134", %"class.mojo::internal::MessageFragment.134"* %1, i64 0, i32 0
  %29 = getelementptr inbounds %"class.mojo::internal::MessageFragment.134", %"class.mojo::internal::MessageFragment.134"* %1, i64 0, i32 1
  br label %30

30:                                               ; preds = %68, %25
  %31 = phi i64 [ 0, %25 ], [ %33, %68 ]
  %32 = load %"class.mojo::Message"*, %"class.mojo::Message"** %28, align 8
  %33 = add nuw i64 %31, 1
  %34 = trunc i64 %31 to i32
  %35 = tail call dereferenceable(8) %"class.mojo::InlinedStructPtr.103"* @_ZN3WTF6VectorIN4mojo16InlinedStructPtrIN9mojo_base5mojom5blink9ProcessIdEEELj0ENS_18PartitionAllocatorEE2atEj(%"class.WTF::Vector.126"* %0, i32 %34) #15
  %36 = getelementptr inbounds %"class.mojo::InlinedStructPtr.103", %"class.mojo::InlinedStructPtr.103"* %35, i64 0, i32 1
  %37 = load i32, i32* %36, align 4
  %38 = icmp eq i32 %37, 0
  br i1 %38, label %52, label %39

39:                                               ; preds = %30
  %40 = getelementptr inbounds %"class.mojo::Message", %"class.mojo::Message"* %32, i64 0, i32 1
  %41 = tail call i64 @_ZN4mojo8internal6Buffer8AllocateEm(%"class.mojo::internal::Buffer"* %40, i64 16) #15
  %42 = getelementptr inbounds %"class.mojo::Message", %"class.mojo::Message"* %32, i64 0, i32 1, i32 2
  %43 = load i8*, i8** %42, align 8
  %44 = getelementptr inbounds i8, i8* %43, i64 %41
  %45 = bitcast i8* %44 to %"class.mojo_base::mojom::internal::ProcessId_Data"*
  tail call void @_ZN9mojo_base5mojom8internal14ProcessId_DataC1Ev(%"class.mojo_base::mojom::internal::ProcessId_Data"* %45) #15
  %46 = getelementptr inbounds %"class.mojo::InlinedStructPtr.103", %"class.mojo::InlinedStructPtr.103"* %35, i64 0, i32 0, i32 0
  %47 = load i32, i32* %46, align 4
  %48 = load i8*, i8** %42, align 8
  %49 = getelementptr inbounds i8, i8* %48, i64 8
  %50 = getelementptr inbounds i8, i8* %49, i64 %41
  %51 = bitcast i8* %50 to i32*
  store i32 %47, i32* %51, align 1
  br label %52

52:                                               ; preds = %39, %30
  %53 = phi i64 [ -1, %30 ], [ %41, %39 ]
  %54 = load %"class.mojo::Message"*, %"class.mojo::Message"** %28, align 8
  %55 = load i64, i64* %29, align 8
  %56 = getelementptr inbounds %"class.mojo::Message", %"class.mojo::Message"* %54, i64 0, i32 1, i32 2
  %57 = load i8*, i8** %56, align 8
  %58 = getelementptr inbounds i8, i8* %57, i64 8
  %59 = getelementptr inbounds i8, i8* %58, i64 %55
  %60 = bitcast i8* %59 to %"class.mojo::internal::Array_Data"*
  %61 = getelementptr inbounds %"class.mojo::internal::Array_Data", %"class.mojo::internal::Array_Data"* %60, i64 %31
  %62 = icmp eq i64 %53, -1
  br i1 %62, label %68, label %63

63:                                               ; preds = %52
  %64 = getelementptr inbounds %"class.mojo::Message", %"class.mojo::Message"* %32, i64 0, i32 1, i32 2
  %65 = load i8*, i8** %64, align 8
  %66 = getelementptr inbounds i8, i8* %65, i64 %53
  %67 = bitcast i8* %66 to %"class.mojo_base::mojom::internal::ProcessId_Data"*
  br label %68

68:                                               ; preds = %63, %52
  %69 = phi %"class.mojo_base::mojom::internal::ProcessId_Data"* [ %67, %63 ], [ null, %52 ]
  %70 = bitcast %"class.mojo::internal::Array_Data"* %61 to i64*
  %71 = icmp eq %"class.mojo_base::mojom::internal::ProcessId_Data"* %69, null
  %72 = ptrtoint %"class.mojo_base::mojom::internal::ProcessId_Data"* %69 to i64
  %73 = ptrtoint %"class.mojo::internal::Array_Data"* %61 to i64
  %74 = sub i64 %72, %73
  %75 = select i1 %71, i64 0, i64 %74
  store i64 %75, i64* %70, align 8
  %76 = icmp eq i64 %33, %27
  br i1 %76, label %77, label %30

77:                                               ; preds = %68, %7
  ret void
}

; Function Attrs: nounwind ssp uwtable
define linkonce_odr hidden void @_ZN4mojo8internal23ContainerValidateParamsD2Ev(%"class.mojo::internal::ContainerValidateParams"*) unnamed_addr #3 comdat align 2 {
  %2 = getelementptr inbounds %"class.mojo::internal::ContainerValidateParams", %"class.mojo::internal::ContainerValidateParams"* %0, i64 0, i32 3
  %3 = load %"class.mojo::internal::ContainerValidateParams"*, %"class.mojo::internal::ContainerValidateParams"** %2, align 8
  %4 = icmp eq %"class.mojo::internal::ContainerValidateParams"* %3, null
  br i1 %4, label %7, label %5

5:                                                ; preds = %1
  tail call void @_ZN4mojo8internal23ContainerValidateParamsD2Ev(%"class.mojo::internal::ContainerValidateParams"* nonnull %3) #15
  %6 = bitcast %"class.mojo::internal::ContainerValidateParams"* %3 to i8*
  tail call void @_ZdlPv(i8* %6) #16
  br label %7

7:                                                ; preds = %1, %5
  %8 = getelementptr inbounds %"class.mojo::internal::ContainerValidateParams", %"class.mojo::internal::ContainerValidateParams"* %0, i64 0, i32 2
  %9 = load %"class.mojo::internal::ContainerValidateParams"*, %"class.mojo::internal::ContainerValidateParams"** %8, align 8
  %10 = icmp eq %"class.mojo::internal::ContainerValidateParams"* %9, null
  br i1 %10, label %13, label %11

11:                                               ; preds = %7
  tail call void @_ZN4mojo8internal23ContainerValidateParamsD2Ev(%"class.mojo::internal::ContainerValidateParams"* nonnull %9) #15
  %12 = bitcast %"class.mojo::internal::ContainerValidateParams"* %9 to i8*
  tail call void @_ZdlPv(i8* %12) #16
  ret void

13:                                               ; preds = %7
  ret void
}

; Function Attrs: nounwind ssp uwtable
define hidden zeroext i1 @_ZN22memory_instrumentation5mojom5blink55ClientProcess_RequestChromeMemoryDump_ForwardToCallback6AcceptEPN4mojo7MessageE(%"class.memory_instrumentation::mojom::blink::ClientProcess_RequestChromeMemoryDump_ForwardToCallback"* nocapture, %"class.mojo::Message"*) unnamed_addr #3 align 2 {
  %3 = alloca %"class.base::OnceCallback", align 8
  %4 = alloca %"class.mojo::StructPtr.136", align 8
  %5 = alloca %"class.mojo::StructPtr.136", align 8
  %6 = tail call i8* @_ZNK4mojo7Message7payloadEv(%"class.mojo::Message"* %1) #15
  %7 = bitcast %"class.mojo::StructPtr.136"* %4 to i8*
  call void @llvm.lifetime.start.p0i8(i64 8, i8* nonnull %7) #15
  %8 = getelementptr inbounds %"class.mojo::StructPtr.136", %"class.mojo::StructPtr.136"* %4, i64 0, i32 0, i32 0, i32 0, i32 0
  %9 = bitcast %"class.mojo::StructPtr.136"* %4 to i64*
  store i64 0, i64* %9, align 8
  %10 = getelementptr inbounds i8, i8* %6, i64 8
  %11 = load i8, i8* %10, align 8
  %12 = and i8 %11, 1
  %13 = icmp ne i8 %12, 0
  %14 = getelementptr inbounds i8, i8* %6, i64 16
  %15 = bitcast i8* %14 to i64*
  %16 = load i64, i64* %15, align 8
  %17 = getelementptr inbounds i8, i8* %6, i64 24
  %18 = bitcast i8* %17 to i64*
  %19 = load i64, i64* %18, align 8
  %20 = icmp eq i64 %19, 0
  br i1 %20, label %21, label %22

21:                                               ; preds = %2
  store %"class.memory_instrumentation::mojom::blink::RawProcessMemoryDump"* null, %"class.memory_instrumentation::mojom::blink::RawProcessMemoryDump"** %8, align 8
  br label %27

22:                                               ; preds = %2
  %23 = getelementptr inbounds i8, i8* %17, i64 %19
  %24 = bitcast i8* %23 to %"class.memory_instrumentation::mojom::internal::RawProcessMemoryDump_Data"*
  %25 = call zeroext i1 @_ZN4mojo12StructTraitsIN22memory_instrumentation5mojom28RawProcessMemoryDumpDataViewENS_9StructPtrINS2_5blink20RawProcessMemoryDumpEEEE4ReadES3_PS7_(%"class.memory_instrumentation::mojom::internal::RawProcessMemoryDump_Data"* nonnull %24, %"class.mojo::Message"* %1, %"class.mojo::StructPtr.136"* nonnull %4) #15
  br i1 %25, label %27, label %26

26:                                               ; preds = %22
  call void @_ZN4mojo8internal31ReportValidationErrorForMessageEPNS_7MessageENS0_15ValidationErrorEPKcjb(%"class.mojo::Message"* %1, i32 17, i8* getelementptr inbounds ([43 x i8], [43 x i8]* @_ZN22memory_instrumentation5mojom5blink13ClientProcess5Name_E, i64 0, i64 0), i32 0, i1 zeroext true) #15
  br label %46

27:                                               ; preds = %21, %22
  %28 = getelementptr inbounds %"class.memory_instrumentation::mojom::blink::ClientProcess_RequestChromeMemoryDump_ForwardToCallback", %"class.memory_instrumentation::mojom::blink::ClientProcess_RequestChromeMemoryDump_ForwardToCallback"* %0, i64 0, i32 1, i32 0, i32 0, i32 0
  %29 = load %"class.base::internal::BindStateBase"*, %"class.base::internal::BindStateBase"** %28, align 8
  %30 = icmp eq %"class.base::internal::BindStateBase"* %29, null
  br i1 %30, label %46, label %31

31:                                               ; preds = %27
  %32 = ptrtoint %"class.base::internal::BindStateBase"* %29 to i64
  %33 = bitcast %"class.mojo::StructPtr.136"* %5 to i64*
  %34 = getelementptr inbounds %"class.mojo::StructPtr.136", %"class.mojo::StructPtr.136"* %5, i64 0, i32 0, i32 0, i32 0, i32 0
  %35 = load i64, i64* %9, align 8
  store i64 %35, i64* %33, align 8
  store i64 0, i64* %9, align 8
  %36 = bitcast %"class.base::OnceCallback"* %3 to i8*
  call void @llvm.lifetime.start.p0i8(i64 8, i8* nonnull %36) #15
  %37 = bitcast %"class.base::OnceCallback"* %3 to i64*
  store i64 %32, i64* %37, align 8
  store %"class.base::internal::BindStateBase"* null, %"class.base::internal::BindStateBase"** %28, align 8
  %38 = getelementptr inbounds %"class.base::OnceCallback", %"class.base::OnceCallback"* %3, i64 0, i32 0
  %39 = getelementptr inbounds %"class.base::internal::BindStateBase", %"class.base::internal::BindStateBase"* %29, i64 0, i32 1
  %40 = bitcast void ()** %39 to void (%"class.base::internal::BindStateBase"*, i1, i64, %"class.mojo::StructPtr.136"*)**
  %41 = load void (%"class.base::internal::BindStateBase"*, i1, i64, %"class.mojo::StructPtr.136"*)*, void (%"class.base::internal::BindStateBase"*, i1, i64, %"class.mojo::StructPtr.136"*)** %40, align 8
  call void %41(%"class.base::internal::BindStateBase"* nonnull %29, i1 zeroext %13, i64 %16, %"class.mojo::StructPtr.136"* nonnull dereferenceable(8) %5) #15
  call void @_ZN4base8internal12CallbackBaseD2Ev(%"class.base::internal::CallbackBase"* nonnull %38) #15
  call void @llvm.lifetime.end.p0i8(i64 8, i8* nonnull %36) #15
  %42 = load %"class.memory_instrumentation::mojom::blink::RawProcessMemoryDump"*, %"class.memory_instrumentation::mojom::blink::RawProcessMemoryDump"** %34, align 8
  store %"class.memory_instrumentation::mojom::blink::RawProcessMemoryDump"* null, %"class.memory_instrumentation::mojom::blink::RawProcessMemoryDump"** %34, align 8
  %43 = icmp eq %"class.memory_instrumentation::mojom::blink::RawProcessMemoryDump"* %42, null
  br i1 %43, label %46, label %44

44:                                               ; preds = %31
  %45 = bitcast %"class.mojo::StructPtr.136"* %5 to %"struct.std::__1::default_delete.141"*
  call void @_ZNKSt3__114default_deleteIN22memory_instrumentation5mojom5blink20RawProcessMemoryDumpEEclEPS4_(%"struct.std::__1::default_delete.141"* nonnull %45, %"class.memory_instrumentation::mojom::blink::RawProcessMemoryDump"* nonnull %42) #15
  br label %46

46:                                               ; preds = %44, %31, %27, %26
  %47 = phi i1 [ false, %26 ], [ true, %27 ], [ true, %31 ], [ true, %44 ]
  %48 = load %"class.memory_instrumentation::mojom::blink::RawProcessMemoryDump"*, %"class.memory_instrumentation::mojom::blink::RawProcessMemoryDump"** %8, align 8
  store %"class.memory_instrumentation::mojom::blink::RawProcessMemoryDump"* null, %"class.memory_instrumentation::mojom::blink::RawProcessMemoryDump"** %8, align 8
  %49 = icmp eq %"class.memory_instrumentation::mojom::blink::RawProcessMemoryDump"* %48, null
  br i1 %49, label %52, label %50

50:                                               ; preds = %46
  %51 = bitcast %"class.mojo::StructPtr.136"* %4 to %"struct.std::__1::default_delete.141"*
  call void @_ZNKSt3__114default_deleteIN22memory_instrumentation5mojom5blink20RawProcessMemoryDumpEEclEPS4_(%"struct.std::__1::default_delete.141"* nonnull %51, %"class.memory_instrumentation::mojom::blink::RawProcessMemoryDump"* nonnull %48) #15
  br label %52

52:                                               ; preds = %46, %50
  call void @llvm.lifetime.end.p0i8(i64 8, i8* nonnull %7) #15
  ret i1 %47
}

declare void @_ZN4mojo8internal31ReportValidationErrorForMessageEPNS_7MessageENS0_15ValidationErrorEPKcjb(%"class.mojo::Message"*, i32, i8*, i32, i1 zeroext) local_unnamed_addr #5

; Function Attrs: nounwind ssp uwtable
define hidden void @_ZN22memory_instrumentation5mojom5blink54ClientProcess_RequestChromeMemoryDump_ProxyToResponder3RunEbmN4mojo9StructPtrINS1_20RawProcessMemoryDumpEEE(%"class.memory_instrumentation::mojom::blink::ClientProcess_RequestChromeMemoryDump_ProxyToResponder"* nocapture, i1 zeroext, i64, %"class.mojo::StructPtr.136"*) #3 align 2 {
  %5 = alloca %"class.mojo::Message", align 8
  %6 = alloca %"class.mojo::internal::MessageFragment.150", align 8
  %7 = zext i1 %1 to i8
  %8 = getelementptr inbounds %"class.memory_instrumentation::mojom::blink::ClientProcess_RequestChromeMemoryDump_ProxyToResponder", %"class.memory_instrumentation::mojom::blink::ClientProcess_RequestChromeMemoryDump_ProxyToResponder"* %0, i64 0, i32 1
  %9 = load i8, i8* %8, align 8, !range !2
  %10 = icmp eq i8 %9, 0
  %11 = select i1 %10, i32 2, i32 6
  %12 = bitcast %"class.mojo::Message"* %5 to i8*
  call void @llvm.lifetime.start.p0i8(i64 120, i8* nonnull %12) #15
  call void @llvm.memset.p0i8.i64(i8* nonnull align 8 %12, i8 -86, i64 120, i1 false)
  call void @_ZN4mojo7MessageC1EjjmmPNSt3__16vectorINS_16ScopedHandleBaseINS_6HandleEEENS1_9allocatorIS5_EEEE(%"class.mojo::Message"* nonnull %5, i32 440579497, i32 %11, i64 0, i64 0, %"class.std::__1::vector"* null) #15
  %13 = getelementptr inbounds %"class.mojo::Message", %"class.mojo::Message"* %5, i64 0, i32 1
  %14 = call i64 @_ZN4mojo8internal6Buffer8AllocateEm(%"class.mojo::internal::Buffer"* %13, i64 32) #15
  %15 = getelementptr inbounds %"class.mojo::Message", %"class.mojo::Message"* %5, i64 0, i32 1, i32 2
  %16 = load i8*, i8** %15, align 8
  %17 = getelementptr inbounds i8, i8* %16, i64 %14
  %18 = bitcast i8* %17 to %"class.memory_instrumentation::mojom::internal::ClientProcess_RequestChromeMemoryDump_ResponseParams_Data"*
  call void @_ZN22memory_instrumentation5mojom8internal57ClientProcess_RequestChromeMemoryDump_ResponseParams_DataC1Ev(%"class.memory_instrumentation::mojom::internal::ClientProcess_RequestChromeMemoryDump_ResponseParams_Data"* %18) #15
  %19 = load i8*, i8** %15, align 8
  %20 = getelementptr inbounds i8, i8* %19, i64 %14
  %21 = getelementptr inbounds i8, i8* %20, i64 8
  %22 = load i8, i8* %21, align 8
  %23 = and i8 %22, -2
  %24 = or i8 %23, %7
  store i8 %24, i8* %21, align 8
  %25 = load i8*, i8** %15, align 8
  %26 = getelementptr inbounds i8, i8* %25, i64 %14
  %27 = getelementptr inbounds i8, i8* %26, i64 16
  %28 = bitcast i8* %27 to i64*
  store i64 %2, i64* %28, align 8
  %29 = bitcast %"class.mojo::internal::MessageFragment.150"* %6 to i8*
  call void @llvm.lifetime.start.p0i8(i64 16, i8* nonnull %29) #15
  %30 = getelementptr inbounds %"class.mojo::internal::MessageFragment.150", %"class.mojo::internal::MessageFragment.150"* %6, i64 0, i32 0
  %31 = getelementptr inbounds %"class.mojo::internal::MessageFragment.150", %"class.mojo::internal::MessageFragment.150"* %6, i64 0, i32 1
  store %"class.mojo::Message"* %5, %"class.mojo::Message"** %30, align 8
  store i64 -1, i64* %31, align 8
  call void @_ZN4mojo8internal10SerializerIN22memory_instrumentation5mojom28RawProcessMemoryDumpDataViewENS_9StructPtrINS3_5blink20RawProcessMemoryDumpEEEE9SerializeERS8_RNS0_15MessageFragmentINS3_8internal25RawProcessMemoryDump_DataEEE(%"class.mojo::StructPtr.136"* dereferenceable(8) %3, %"class.mojo::internal::MessageFragment.150"* nonnull dereferenceable(16) %6) #15
  %32 = load i8*, i8** %15, align 8
  %33 = getelementptr inbounds i8, i8* %32, i64 %14
  %34 = getelementptr inbounds i8, i8* %33, i64 24
  %35 = load i64, i64* %31, align 8
  %36 = icmp eq i64 %35, -1
  br i1 %36, label %43, label %37

37:                                               ; preds = %4
  %38 = load %"class.mojo::Message"*, %"class.mojo::Message"** %30, align 8
  %39 = getelementptr inbounds %"class.mojo::Message", %"class.mojo::Message"* %38, i64 0, i32 1, i32 2
  %40 = load i8*, i8** %39, align 8
  %41 = getelementptr inbounds i8, i8* %40, i64 %35
  %42 = bitcast i8* %41 to %"class.memory_instrumentation::mojom::internal::RawProcessMemoryDump_Data"*
  br label %43

43:                                               ; preds = %4, %37
  %44 = phi %"class.memory_instrumentation::mojom::internal::RawProcessMemoryDump_Data"* [ %42, %37 ], [ null, %4 ]
  %45 = bitcast i8* %34 to i64*
  %46 = icmp eq %"class.memory_instrumentation::mojom::internal::RawProcessMemoryDump_Data"* %44, null
  %47 = ptrtoint %"class.memory_instrumentation::mojom::internal::RawProcessMemoryDump_Data"* %44 to i64
  %48 = ptrtoint i8* %34 to i64
  %49 = sub i64 %47, %48
  %50 = select i1 %46, i64 0, i64 %49
  store i64 %50, i64* %45, align 8
  %51 = getelementptr inbounds %"class.memory_instrumentation::mojom::blink::ClientProcess_RequestChromeMemoryDump_ProxyToResponder", %"class.memory_instrumentation::mojom::blink::ClientProcess_RequestChromeMemoryDump_ProxyToResponder"* %0, i64 0, i32 0
  %52 = load i64, i64* %51, align 8
  %53 = bitcast i8** %15 to %"struct.mojo::internal::MessageHeaderV1"**
  %54 = load %"struct.mojo::internal::MessageHeaderV1"*, %"struct.mojo::internal::MessageHeaderV1"** %53, align 8
  %55 = getelementptr inbounds %"struct.mojo::internal::MessageHeaderV1", %"struct.mojo::internal::MessageHeaderV1"* %54, i64 0, i32 1
  store i64 %52, i64* %55, align 1
  %56 = getelementptr inbounds %"class.memory_instrumentation::mojom::blink::ClientProcess_RequestChromeMemoryDump_ProxyToResponder", %"class.memory_instrumentation::mojom::blink::ClientProcess_RequestChromeMemoryDump_ProxyToResponder"* %0, i64 0, i32 2, i32 0, i32 0, i32 0
  %57 = load %"class.mojo::MessageReceiverWithStatus"*, %"class.mojo::MessageReceiverWithStatus"** %56, align 8
  %58 = getelementptr inbounds %"class.mojo::MessageReceiverWithStatus", %"class.mojo::MessageReceiverWithStatus"* %57, i64 0, i32 0
  %59 = bitcast %"class.mojo::MessageReceiverWithStatus"* %57 to i1 (%"class.mojo::MessageReceiver"*, %"class.mojo::Message"*)***
  %60 = load i1 (%"class.mojo::MessageReceiver"*, %"class.mojo::Message"*)**, i1 (%"class.mojo::MessageReceiver"*, %"class.mojo::Message"*)*** %59, align 8
  %61 = getelementptr inbounds i1 (%"class.mojo::MessageReceiver"*, %"class.mojo::Message"*)*, i1 (%"class.mojo::MessageReceiver"*, %"class.mojo::Message"*)** %60, i64 3
  %62 = load i1 (%"class.mojo::MessageReceiver"*, %"class.mojo::Message"*)*, i1 (%"class.mojo::MessageReceiver"*, %"class.mojo::Message"*)** %61, align 8
  %63 = call zeroext i1 %62(%"class.mojo::MessageReceiver"* %58, %"class.mojo::Message"* nonnull %5) #15
  %64 = load %"class.mojo::MessageReceiverWithStatus"*, %"class.mojo::MessageReceiverWithStatus"** %56, align 8
  store %"class.mojo::MessageReceiverWithStatus"* null, %"class.mojo::MessageReceiverWithStatus"** %56, align 8
  %65 = icmp eq %"class.mojo::MessageReceiverWithStatus"* %64, null
  br i1 %65, label %71, label %66

66:                                               ; preds = %43
  %67 = bitcast %"class.mojo::MessageReceiverWithStatus"* %64 to void (%"class.mojo::MessageReceiverWithStatus"*)***
  %68 = load void (%"class.mojo::MessageReceiverWithStatus"*)**, void (%"class.mojo::MessageReceiverWithStatus"*)*** %67, align 8
  %69 = getelementptr inbounds void (%"class.mojo::MessageReceiverWithStatus"*)*, void (%"class.mojo::MessageReceiverWithStatus"*)** %68, i64 1
  %70 = load void (%"class.mojo::MessageReceiverWithStatus"*)*, void (%"class.mojo::MessageReceiverWithStatus"*)** %69, align 8
  call void %70(%"class.mojo::MessageReceiverWithStatus"* nonnull %64) #15
  br label %71

71:                                               ; preds = %43, %66
  call void @llvm.lifetime.end.p0i8(i64 16, i8* nonnull %29) #15
  call void @_ZN4mojo7MessageD1Ev(%"class.mojo::Message"* nonnull %5) #15
  call void @llvm.lifetime.end.p0i8(i64 120, i8* nonnull %12) #15
  ret void
}

; Function Attrs: nounwind ssp uwtable
define hidden zeroext i1 @_ZN22memory_instrumentation5mojom5blink51ClientProcess_RequestOSMemoryDump_ForwardToCallback6AcceptEPN4mojo7MessageE(%"class.memory_instrumentation::mojom::blink::ClientProcess_RequestOSMemoryDump_ForwardToCallback"* nocapture, %"class.mojo::Message"*) unnamed_addr #3 align 2 {
  %3 = alloca %"class.base::OnceCallback.131", align 8
  %4 = alloca %"class.WTF::HashMap.154", align 8
  %5 = alloca %"class.WTF::HashMap.154", align 8
  %6 = tail call i8* @_ZNK4mojo7Message7payloadEv(%"class.mojo::Message"* %1) #15
  %7 = bitcast %"class.WTF::HashMap.154"* %4 to i8*
  call void @llvm.lifetime.start.p0i8(i64 24, i8* nonnull %7) #15
  %8 = getelementptr inbounds %"class.WTF::HashMap.154", %"class.WTF::HashMap.154"* %4, i64 0, i32 0, i32 0
  %9 = getelementptr inbounds %"class.WTF::HashMap.154", %"class.WTF::HashMap.154"* %4, i64 0, i32 0, i32 1
  %10 = getelementptr inbounds %"class.WTF::HashMap.154", %"class.WTF::HashMap.154"* %4, i64 0, i32 0, i32 2
  %11 = getelementptr inbounds %"class.WTF::HashMap.154", %"class.WTF::HashMap.154"* %4, i64 0, i32 0, i32 3
  %12 = bitcast %"class.WTF::HashMap.154"* %4 to i8*
  call void @llvm.memset.p0i8.i64(i8* nonnull align 8 %12, i8 -86, i64 24, i1 false)
  call void @llvm.memset.p0i8.i64(i8* nonnull align 8 %7, i8 0, i64 20, i1 false) #15
  %13 = getelementptr inbounds i8, i8* %6, i64 8
  %14 = load i8, i8* %13, align 1
  %15 = and i8 %14, 1
  %16 = icmp ne i8 %15, 0
  %17 = getelementptr inbounds i8, i8* %6, i64 16
  %18 = bitcast i8* %17 to i64*
  %19 = load i64, i64* %18, align 8
  %20 = icmp eq i64 %19, 0
  %21 = getelementptr inbounds i8, i8* %17, i64 %19
  %22 = bitcast i8* %21 to %"class.mojo::internal::Map_Data"*
  %23 = select i1 %20, %"class.mojo::internal::Map_Data"* null, %"class.mojo::internal::Map_Data"* %22
  %24 = call zeroext i1 @_ZN4mojo8internal10SerializerINS_11MapDataViewIN9mojo_base5mojom17ProcessIdDataViewEN22memory_instrumentation5mojom20RawOSMemDumpDataViewEEEN3WTF7HashMapINS_16InlinedStructPtrINS4_5blink9ProcessIdEEENS_9StructPtrINS7_5blink12RawOSMemDumpEEENS0_22InlinedStructPtrHashFnISE_EENSA_10HashTraitsISF_EENSM_ISJ_EENSA_18PartitionAllocatorEEEE11DeserializeEPNS0_8Map_DataINS0_7PointerINS4_8internal14ProcessId_DataEEENST_INS7_8internal17RawOSMemDump_DataEEEEEPSQ_PNS_7MessageE(%"class.mojo::internal::Map_Data"* %23, %"class.WTF::HashMap.154"* nonnull %4, %"class.mojo::Message"* %1) #15
  br i1 %24, label %26, label %25

25:                                               ; preds = %2
  call void @_ZN4mojo8internal31ReportValidationErrorForMessageEPNS_7MessageENS0_15ValidationErrorEPKcjb(%"class.mojo::Message"* %1, i32 17, i8* getelementptr inbounds ([43 x i8], [43 x i8]* @_ZN22memory_instrumentation5mojom5blink13ClientProcess5Name_E, i64 0, i64 0), i32 1, i1 zeroext true) #15
  br label %76

26:                                               ; preds = %2
  %27 = getelementptr inbounds %"class.memory_instrumentation::mojom::blink::ClientProcess_RequestOSMemoryDump_ForwardToCallback", %"class.memory_instrumentation::mojom::blink::ClientProcess_RequestOSMemoryDump_ForwardToCallback"* %0, i64 0, i32 1, i32 0, i32 0, i32 0
  %28 = load %"class.base::internal::BindStateBase"*, %"class.base::internal::BindStateBase"** %27, align 8
  %29 = icmp eq %"class.base::internal::BindStateBase"* %28, null
  br i1 %29, label %76, label %30

30:                                               ; preds = %26
  %31 = ptrtoint %"class.base::internal::BindStateBase"* %28 to i64
  %32 = getelementptr inbounds %"class.WTF::HashMap.154", %"class.WTF::HashMap.154"* %5, i64 0, i32 0, i32 1
  %33 = getelementptr inbounds %"class.WTF::HashMap.154", %"class.WTF::HashMap.154"* %5, i64 0, i32 0, i32 2
  %34 = getelementptr inbounds %"class.WTF::HashMap.154", %"class.WTF::HashMap.154"* %5, i64 0, i32 0, i32 3
  %35 = bitcast %"class.WTF::HashMap.154"* %4 to i64*
  %36 = bitcast %"class.WTF::HashMap.154"* %5 to i64*
  store i64 0, i64* %36, align 8
  %37 = load i64, i64* %35, align 8
  %38 = bitcast %"class.WTF::HashMap.154"* %5 to i64*
  store atomic i64 0, i64* %35 monotonic, align 8
  store atomic i64 %37, i64* %38 monotonic, align 8
  %39 = load i32, i32* %9, align 8
  store i32 %39, i32* %32, align 8
  store i32 0, i32* %9, align 8
  %40 = load i32, i32* %10, align 4
  store i32 %40, i32* %33, align 4
  store i32 0, i32* %10, align 4
  %41 = load i32, i32* %11, align 8
  %42 = and i32 %41, 2147483647
  store i32 %42, i32* %34, align 8
  %43 = and i32 %41, -2147483648
  store i32 %43, i32* %11, align 8
  %44 = bitcast %"class.base::OnceCallback.131"* %3 to i8*
  call void @llvm.lifetime.start.p0i8(i64 8, i8* nonnull %44) #15
  %45 = bitcast %"class.base::OnceCallback.131"* %3 to i64*
  store i64 %31, i64* %45, align 8
  store %"class.base::internal::BindStateBase"* null, %"class.base::internal::BindStateBase"** %27, align 8
  %46 = getelementptr inbounds %"class.base::OnceCallback.131", %"class.base::OnceCallback.131"* %3, i64 0, i32 0
  %47 = getelementptr inbounds %"class.base::internal::BindStateBase", %"class.base::internal::BindStateBase"* %28, i64 0, i32 1
  %48 = bitcast void ()** %47 to void (%"class.base::internal::BindStateBase"*, i1, %"class.WTF::HashMap.154"*)**
  %49 = load void (%"class.base::internal::BindStateBase"*, i1, %"class.WTF::HashMap.154"*)*, void (%"class.base::internal::BindStateBase"*, i1, %"class.WTF::HashMap.154"*)** %48, align 8
  call void %49(%"class.base::internal::BindStateBase"* nonnull %28, i1 zeroext %16, %"class.WTF::HashMap.154"* nonnull dereferenceable(24) %5) #15
  call void @_ZN4base8internal12CallbackBaseD2Ev(%"class.base::internal::CallbackBase"* nonnull %46) #15
  call void @llvm.lifetime.end.p0i8(i64 8, i8* nonnull %44) #15
  %50 = getelementptr inbounds %"class.WTF::HashMap.154", %"class.WTF::HashMap.154"* %5, i64 0, i32 0, i32 0
  %51 = load %"struct.WTF::KeyValuePair.158"*, %"struct.WTF::KeyValuePair.158"** %50, align 8
  %52 = icmp eq %"struct.WTF::KeyValuePair.158"* %51, null
  br i1 %52, label %76, label %53, !prof !4

53:                                               ; preds = %30
  %54 = load i32, i32* %32, align 8
  %55 = icmp eq i32 %54, 0
  br i1 %55, label %74, label %56

56:                                               ; preds = %53
  %57 = zext i32 %54 to i64
  br label %58

58:                                               ; preds = %71, %56
  %59 = phi i64 [ 0, %56 ], [ %72, %71 ]
  %60 = getelementptr inbounds %"struct.WTF::KeyValuePair.158", %"struct.WTF::KeyValuePair.158"* %51, i64 %59, i32 0, i32 1
  %61 = load i32, i32* %60, align 4
  %62 = icmp eq i32 %61, 2
  br i1 %62, label %71, label %63

63:                                               ; preds = %58
  %64 = getelementptr inbounds %"struct.WTF::KeyValuePair.158", %"struct.WTF::KeyValuePair.158"* %51, i64 %59, i32 1, i32 0, i32 0, i32 0, i32 0
  %65 = load %"class.memory_instrumentation::mojom::blink::RawOSMemDump"*, %"class.memory_instrumentation::mojom::blink::RawOSMemDump"** %64, align 8
  store %"class.memory_instrumentation::mojom::blink::RawOSMemDump"* null, %"class.memory_instrumentation::mojom::blink::RawOSMemDump"** %64, align 8
  %66 = icmp eq %"class.memory_instrumentation::mojom::blink::RawOSMemDump"* %65, null
  br i1 %66, label %69, label %67

67:                                               ; preds = %63
  call void @_ZN22memory_instrumentation5mojom5blink12RawOSMemDumpD2Ev(%"class.memory_instrumentation::mojom::blink::RawOSMemDump"* nonnull %65) #15
  %68 = bitcast %"class.memory_instrumentation::mojom::blink::RawOSMemDump"* %65 to i8*
  call void @_ZdlPv(i8* %68) #16
  br label %69

69:                                               ; preds = %67, %63
  %70 = getelementptr inbounds %"struct.WTF::KeyValuePair.158", %"struct.WTF::KeyValuePair.158"* %51, i64 %59, i32 0, i32 0
  call void @_ZN9mojo_base5mojom5blink9ProcessIdD1Ev(%"class.mojo_base::mojom::blink::ProcessId"* %70) #15
  br label %71

71:                                               ; preds = %69, %58
  %72 = add nuw nsw i64 %59, 1
  %73 = icmp eq i64 %72, %57
  br i1 %73, label %74, label %58

74:                                               ; preds = %71, %53
  %75 = bitcast %"struct.WTF::KeyValuePair.158"* %51 to i8*
  call void @_ZN3WTF18PartitionAllocator11FreeBackingEPv(i8* nonnull %75) #15
  store %"struct.WTF::KeyValuePair.158"* null, %"struct.WTF::KeyValuePair.158"** %50, align 8
  br label %76

76:                                               ; preds = %74, %30, %26, %25
  %77 = phi i1 [ false, %25 ], [ true, %26 ], [ true, %30 ], [ true, %74 ]
  %78 = load %"struct.WTF::KeyValuePair.158"*, %"struct.WTF::KeyValuePair.158"** %8, align 8
  %79 = icmp eq %"struct.WTF::KeyValuePair.158"* %78, null
  br i1 %79, label %103, label %80, !prof !4

80:                                               ; preds = %76
  %81 = load i32, i32* %9, align 8
  %82 = icmp eq i32 %81, 0
  br i1 %82, label %101, label %83

83:                                               ; preds = %80
  %84 = zext i32 %81 to i64
  br label %85

85:                                               ; preds = %98, %83
  %86 = phi i64 [ 0, %83 ], [ %99, %98 ]
  %87 = getelementptr inbounds %"struct.WTF::KeyValuePair.158", %"struct.WTF::KeyValuePair.158"* %78, i64 %86, i32 0, i32 1
  %88 = load i32, i32* %87, align 4
  %89 = icmp eq i32 %88, 2
  br i1 %89, label %98, label %90

90:                                               ; preds = %85
  %91 = getelementptr inbounds %"struct.WTF::KeyValuePair.158", %"struct.WTF::KeyValuePair.158"* %78, i64 %86, i32 1, i32 0, i32 0, i32 0, i32 0
  %92 = load %"class.memory_instrumentation::mojom::blink::RawOSMemDump"*, %"class.memory_instrumentation::mojom::blink::RawOSMemDump"** %91, align 8
  store %"class.memory_instrumentation::mojom::blink::RawOSMemDump"* null, %"class.memory_instrumentation::mojom::blink::RawOSMemDump"** %91, align 8
  %93 = icmp eq %"class.memory_instrumentation::mojom::blink::RawOSMemDump"* %92, null
  br i1 %93, label %96, label %94

94:                                               ; preds = %90
  call void @_ZN22memory_instrumentation5mojom5blink12RawOSMemDumpD2Ev(%"class.memory_instrumentation::mojom::blink::RawOSMemDump"* nonnull %92) #15
  %95 = bitcast %"class.memory_instrumentation::mojom::blink::RawOSMemDump"* %92 to i8*
  call void @_ZdlPv(i8* %95) #16
  br label %96

96:                                               ; preds = %94, %90
  %97 = getelementptr inbounds %"struct.WTF::KeyValuePair.158", %"struct.WTF::KeyValuePair.158"* %78, i64 %86, i32 0, i32 0
  call void @_ZN9mojo_base5mojom5blink9ProcessIdD1Ev(%"class.mojo_base::mojom::blink::ProcessId"* %97) #15
  br label %98

98:                                               ; preds = %96, %85
  %99 = add nuw nsw i64 %86, 1
  %100 = icmp eq i64 %99, %84
  br i1 %100, label %101, label %85

101:                                              ; preds = %98, %80
  %102 = bitcast %"struct.WTF::KeyValuePair.158"* %78 to i8*
  call void @_ZN3WTF18PartitionAllocator11FreeBackingEPv(i8* nonnull %102) #15
  store %"struct.WTF::KeyValuePair.158"* null, %"struct.WTF::KeyValuePair.158"** %8, align 8
  br label %103

103:                                              ; preds = %76, %101
  call void @llvm.lifetime.end.p0i8(i64 24, i8* nonnull %7) #15
  ret i1 %77
}

; Function Attrs: nounwind ssp uwtable
define hidden void @_ZN22memory_instrumentation5mojom5blink50ClientProcess_RequestOSMemoryDump_ProxyToResponder3RunEbN3WTF7HashMapIN4mojo16InlinedStructPtrIN9mojo_base5mojom5blink9ProcessIdEEENS5_9StructPtrINS1_12RawOSMemDumpEEENS5_8internal22InlinedStructPtrHashFnISA_EENS3_10HashTraitsISB_EENSI_ISE_EENS3_18PartitionAllocatorEEE(%"class.memory_instrumentation::mojom::blink::ClientProcess_RequestOSMemoryDump_ProxyToResponder"* nocapture, i1 zeroext, %"class.WTF::HashMap.154"*) #3 align 2 {
  %4 = alloca %"class.mojo::Message", align 8
  %5 = alloca %"class.mojo::internal::MessageFragment.160", align 8
  %6 = alloca %"class.mojo::internal::ContainerValidateParams", align 8
  %7 = zext i1 %1 to i8
  %8 = getelementptr inbounds %"class.memory_instrumentation::mojom::blink::ClientProcess_RequestOSMemoryDump_ProxyToResponder", %"class.memory_instrumentation::mojom::blink::ClientProcess_RequestOSMemoryDump_ProxyToResponder"* %0, i64 0, i32 1
  %9 = load i8, i8* %8, align 8, !range !2
  %10 = icmp eq i8 %9, 0
  %11 = select i1 %10, i32 2, i32 6
  %12 = bitcast %"class.mojo::Message"* %4 to i8*
  call void @llvm.lifetime.start.p0i8(i64 120, i8* nonnull %12) #15
  call void @llvm.memset.p0i8.i64(i8* nonnull align 8 %12, i8 -86, i64 120, i1 false)
  call void @_ZN4mojo7MessageC1EjjmmPNSt3__16vectorINS_16ScopedHandleBaseINS_6HandleEEENS1_9allocatorIS5_EEEE(%"class.mojo::Message"* nonnull %4, i32 335459342, i32 %11, i64 0, i64 0, %"class.std::__1::vector"* null) #15
  %13 = getelementptr inbounds %"class.mojo::Message", %"class.mojo::Message"* %4, i64 0, i32 1
  %14 = call i64 @_ZN4mojo8internal6Buffer8AllocateEm(%"class.mojo::internal::Buffer"* %13, i64 24) #15
  %15 = getelementptr inbounds %"class.mojo::Message", %"class.mojo::Message"* %4, i64 0, i32 1, i32 2
  %16 = load i8*, i8** %15, align 8
  %17 = getelementptr inbounds i8, i8* %16, i64 %14
  %18 = bitcast i8* %17 to %"class.memory_instrumentation::mojom::internal::ClientProcess_RequestOSMemoryDump_ResponseParams_Data"*
  call void @_ZN22memory_instrumentation5mojom8internal53ClientProcess_RequestOSMemoryDump_ResponseParams_DataC1Ev(%"class.memory_instrumentation::mojom::internal::ClientProcess_RequestOSMemoryDump_ResponseParams_Data"* %18) #15
  %19 = load i8*, i8** %15, align 8
  %20 = getelementptr inbounds i8, i8* %19, i64 %14
  %21 = getelementptr inbounds i8, i8* %20, i64 8
  %22 = load i8, i8* %21, align 1
  %23 = and i8 %22, -2
  %24 = or i8 %23, %7
  store i8 %24, i8* %21, align 1
  %25 = bitcast %"class.mojo::internal::MessageFragment.160"* %5 to i8*
  call void @llvm.lifetime.start.p0i8(i64 16, i8* nonnull %25) #15
  %26 = getelementptr inbounds %"class.mojo::internal::MessageFragment.160", %"class.mojo::internal::MessageFragment.160"* %5, i64 0, i32 0
  %27 = getelementptr inbounds %"class.mojo::internal::MessageFragment.160", %"class.mojo::internal::MessageFragment.160"* %5, i64 0, i32 1
  store %"class.mojo::Message"* %4, %"class.mojo::Message"** %26, align 8
  store i64 -1, i64* %27, align 8
  %28 = bitcast %"class.mojo::internal::ContainerValidateParams"* %6 to i8*
  call void @llvm.lifetime.start.p0i8(i64 32, i8* nonnull %28) #15
  %29 = bitcast %"class.mojo::internal::ContainerValidateParams"* %6 to i64*
  store i64 -6148914691236517206, i64* %29, align 8
  %30 = call i8* @_Znwm(i64 32) #16
  %31 = bitcast i8* %30 to i32*
  store i32 0, i32* %31, align 8
  %32 = getelementptr inbounds i8, i8* %30, i64 4
  store i8 0, i8* %32, align 4
  %33 = getelementptr inbounds i8, i8* %30, i64 8
  call void @llvm.memset.p0i8.i64(i8* align 8 %33, i8 0, i64 24, i1 false)
  %34 = call i8* @_Znwm(i64 32) #16
  %35 = bitcast i8* %34 to i32*
  store i32 0, i32* %35, align 8
  %36 = getelementptr inbounds i8, i8* %34, i64 4
  store i8 0, i8* %36, align 4
  %37 = getelementptr inbounds i8, i8* %34, i64 8
  %38 = getelementptr inbounds %"class.mojo::internal::ContainerValidateParams", %"class.mojo::internal::ContainerValidateParams"* %6, i64 0, i32 0
  call void @llvm.memset.p0i8.i64(i8* align 8 %37, i8 0, i64 24, i1 false)
  store i32 0, i32* %38, align 8
  %39 = getelementptr inbounds %"class.mojo::internal::ContainerValidateParams", %"class.mojo::internal::ContainerValidateParams"* %6, i64 0, i32 1
  store i8 0, i8* %39, align 4
  %40 = getelementptr inbounds %"class.mojo::internal::ContainerValidateParams", %"class.mojo::internal::ContainerValidateParams"* %6, i64 0, i32 2
  %41 = bitcast %"class.mojo::internal::ContainerValidateParams"** %40 to i8**
  store i8* %30, i8** %41, align 8
  %42 = getelementptr inbounds %"class.mojo::internal::ContainerValidateParams", %"class.mojo::internal::ContainerValidateParams"* %6, i64 0, i32 3
  %43 = bitcast %"class.mojo::internal::ContainerValidateParams"** %42 to i8**
  store i8* %34, i8** %43, align 8
  %44 = getelementptr inbounds %"class.mojo::internal::ContainerValidateParams", %"class.mojo::internal::ContainerValidateParams"* %6, i64 0, i32 4
  store i1 (i32, %"class.mojo::internal::ValidationContext"*)* null, i1 (i32, %"class.mojo::internal::ValidationContext"*)** %44, align 8
  call void @_ZN4mojo8internal10SerializerINS_11MapDataViewIN9mojo_base5mojom17ProcessIdDataViewEN22memory_instrumentation5mojom20RawOSMemDumpDataViewEEEN3WTF7HashMapINS_16InlinedStructPtrINS4_5blink9ProcessIdEEENS_9StructPtrINS7_5blink12RawOSMemDumpEEENS0_22InlinedStructPtrHashFnISE_EENSA_10HashTraitsISF_EENSM_ISJ_EENSA_18PartitionAllocatorEEEE9SerializeERSQ_RNS0_15MessageFragmentINS0_8Map_DataINS0_7PointerINS4_8internal14ProcessId_DataEEENSV_INS7_8internal17RawOSMemDump_DataEEEEEEEPKNS0_23ContainerValidateParamsE(%"class.WTF::HashMap.154"* dereferenceable(24) %2, %"class.mojo::internal::MessageFragment.160"* nonnull dereferenceable(16) %5, %"class.mojo::internal::ContainerValidateParams"* nonnull %6) #15
  %45 = load i8*, i8** %15, align 8
  %46 = getelementptr inbounds i8, i8* %45, i64 %14
  %47 = getelementptr inbounds i8, i8* %46, i64 16
  %48 = load i64, i64* %27, align 8
  %49 = icmp eq i64 %48, -1
  br i1 %49, label %56, label %50

50:                                               ; preds = %3
  %51 = load %"class.mojo::Message"*, %"class.mojo::Message"** %26, align 8
  %52 = getelementptr inbounds %"class.mojo::Message", %"class.mojo::Message"* %51, i64 0, i32 1, i32 2
  %53 = load i8*, i8** %52, align 8
  %54 = getelementptr inbounds i8, i8* %53, i64 %48
  %55 = bitcast i8* %54 to %"class.mojo::internal::Map_Data"*
  br label %56

56:                                               ; preds = %3, %50
  %57 = phi %"class.mojo::internal::Map_Data"* [ %55, %50 ], [ null, %3 ]
  %58 = bitcast i8* %47 to i64*
  %59 = icmp eq %"class.mojo::internal::Map_Data"* %57, null
  %60 = ptrtoint %"class.mojo::internal::Map_Data"* %57 to i64
  %61 = ptrtoint i8* %47 to i64
  %62 = sub i64 %60, %61
  %63 = select i1 %59, i64 0, i64 %62
  store i64 %63, i64* %58, align 8
  %64 = getelementptr inbounds %"class.memory_instrumentation::mojom::blink::ClientProcess_RequestOSMemoryDump_ProxyToResponder", %"class.memory_instrumentation::mojom::blink::ClientProcess_RequestOSMemoryDump_ProxyToResponder"* %0, i64 0, i32 0
  %65 = load i64, i64* %64, align 8
  %66 = bitcast i8** %15 to %"struct.mojo::internal::MessageHeaderV1"**
  %67 = load %"struct.mojo::internal::MessageHeaderV1"*, %"struct.mojo::internal::MessageHeaderV1"** %66, align 8
  %68 = getelementptr inbounds %"struct.mojo::internal::MessageHeaderV1", %"struct.mojo::internal::MessageHeaderV1"* %67, i64 0, i32 1
  store i64 %65, i64* %68, align 1
  %69 = getelementptr inbounds %"class.memory_instrumentation::mojom::blink::ClientProcess_RequestOSMemoryDump_ProxyToResponder", %"class.memory_instrumentation::mojom::blink::ClientProcess_RequestOSMemoryDump_ProxyToResponder"* %0, i64 0, i32 2, i32 0, i32 0, i32 0
  %70 = load %"class.mojo::MessageReceiverWithStatus"*, %"class.mojo::MessageReceiverWithStatus"** %69, align 8
  %71 = getelementptr inbounds %"class.mojo::MessageReceiverWithStatus", %"class.mojo::MessageReceiverWithStatus"* %70, i64 0, i32 0
  %72 = bitcast %"class.mojo::MessageReceiverWithStatus"* %70 to i1 (%"class.mojo::MessageReceiver"*, %"class.mojo::Message"*)***
  %73 = load i1 (%"class.mojo::MessageReceiver"*, %"class.mojo::Message"*)**, i1 (%"class.mojo::MessageReceiver"*, %"class.mojo::Message"*)*** %72, align 8
  %74 = getelementptr inbounds i1 (%"class.mojo::MessageReceiver"*, %"class.mojo::Message"*)*, i1 (%"class.mojo::MessageReceiver"*, %"class.mojo::Message"*)** %73, i64 3
  %75 = load i1 (%"class.mojo::MessageReceiver"*, %"class.mojo::Message"*)*, i1 (%"class.mojo::MessageReceiver"*, %"class.mojo::Message"*)** %74, align 8
  %76 = call zeroext i1 %75(%"class.mojo::MessageReceiver"* %71, %"class.mojo::Message"* nonnull %4) #15
  %77 = load %"class.mojo::MessageReceiverWithStatus"*, %"class.mojo::MessageReceiverWithStatus"** %69, align 8
  store %"class.mojo::MessageReceiverWithStatus"* null, %"class.mojo::MessageReceiverWithStatus"** %69, align 8
  %78 = icmp eq %"class.mojo::MessageReceiverWithStatus"* %77, null
  br i1 %78, label %84, label %79

79:                                               ; preds = %56
  %80 = bitcast %"class.mojo::MessageReceiverWithStatus"* %77 to void (%"class.mojo::MessageReceiverWithStatus"*)***
  %81 = load void (%"class.mojo::MessageReceiverWithStatus"*)**, void (%"class.mojo::MessageReceiverWithStatus"*)*** %80, align 8
  %82 = getelementptr inbounds void (%"class.mojo::MessageReceiverWithStatus"*)*, void (%"class.mojo::MessageReceiverWithStatus"*)** %81, i64 1
  %83 = load void (%"class.mojo::MessageReceiverWithStatus"*)*, void (%"class.mojo::MessageReceiverWithStatus"*)** %82, align 8
  call void %83(%"class.mojo::MessageReceiverWithStatus"* nonnull %77) #15
  br label %84

84:                                               ; preds = %56, %79
  call void @_ZN4mojo8internal23ContainerValidateParamsD2Ev(%"class.mojo::internal::ContainerValidateParams"* nonnull %6) #15
  call void @llvm.lifetime.end.p0i8(i64 32, i8* nonnull %28) #15
  call void @llvm.lifetime.end.p0i8(i64 16, i8* nonnull %25) #15
  call void @_ZN4mojo7MessageD1Ev(%"class.mojo::Message"* nonnull %4) #15
  call void @llvm.lifetime.end.p0i8(i64 120, i8* nonnull %12) #15
  ret void
}

; Function Attrs: norecurse nounwind readonly ssp uwtable
define hidden zeroext i1 @_ZN22memory_instrumentation5mojom5blink25ClientProcessStubDispatch6AcceptEPNS1_13ClientProcessEPN4mojo7MessageE(%"class.memory_instrumentation::mojom::blink::ClientProcess"* nocapture readnone, %"class.mojo::Message"* nocapture readonly) local_unnamed_addr #2 align 2 {
  ret i1 false
}

; Function Attrs: nounwind ssp uwtable
define hidden zeroext i1 @_ZN22memory_instrumentation5mojom5blink25ClientProcessStubDispatch19AcceptWithResponderEPNS1_13ClientProcessEPN4mojo7MessageENSt3__110unique_ptrINS5_25MessageReceiverWithStatusENS8_14default_deleteISA_EEEE(%"class.memory_instrumentation::mojom::blink::ClientProcess"*, %"class.mojo::Message"*, %"class.mojo::MessageReceiverWithStatus"*) local_unnamed_addr #3 align 2 {
  %4 = alloca %"class.base::TaskAnnotator::ScopedSetIpcHash", align 8
  %5 = alloca %"class.base::OnceCallback", align 8
  %6 = alloca %"class.mojo::InlinedStructPtr.117", align 8
  %7 = alloca %"class.base::OnceCallback", align 8
  %8 = alloca %"class.base::TaskAnnotator::ScopedSetIpcHash", align 8
  %9 = alloca %"class.WTF::Vector.126", align 8
  %10 = alloca %"class.base::OnceCallback.131", align 8
  %11 = alloca %"class.WTF::Vector.126", align 8
  %12 = alloca %"class.base::OnceCallback.131", align 8
  %13 = ptrtoint %"class.mojo::MessageReceiverWithStatus"* %2 to i64
  %14 = getelementptr inbounds %"class.mojo::Message", %"class.mojo::Message"* %1, i64 0, i32 1, i32 2
  %15 = bitcast i8** %14 to %"struct.mojo::internal::MessageHeader"**
  %16 = load %"struct.mojo::internal::MessageHeader"*, %"struct.mojo::internal::MessageHeader"** %15, align 8
  %17 = getelementptr inbounds %"struct.mojo::internal::MessageHeader", %"struct.mojo::internal::MessageHeader"* %16, i64 0, i32 3
  %18 = load i32, i32* %17, align 1
  %19 = and i32 %18, 4
  %20 = bitcast i8** %14 to %"struct.mojo::internal::MessageHeaderV1"**
  %21 = getelementptr inbounds %"struct.mojo::internal::MessageHeader", %"struct.mojo::internal::MessageHeader"* %16, i64 0, i32 2
  %22 = load i32, i32* %21, align 1
  switch i32 %22, label %181 [
    i32 440579497, label %23
    i32 335459342, label %82
  ]

23:                                               ; preds = %3
  %24 = bitcast %"class.base::TaskAnnotator::ScopedSetIpcHash"* %4 to i8*
  call void @llvm.lifetime.start.p0i8(i64 24, i8* nonnull %24) #15
  call void @llvm.memset.p0i8.i64(i8* nonnull align 8 %24, i8 -86, i64 24, i1 false)
  call void @_ZN4base13TaskAnnotator16ScopedSetIpcHashC1Ej(%"class.base::TaskAnnotator::ScopedSetIpcHash"* nonnull %4, i32 -145993311) #15
  %25 = call i8* @_ZNK4mojo7Message7payloadEv(%"class.mojo::Message"* %1) #15
  %26 = getelementptr inbounds i8, i8* %25, i64 8
  %27 = bitcast i8* %26 to i64*
  %28 = load i64, i64* %27, align 8
  %29 = icmp eq i64 %28, 0
  %30 = getelementptr inbounds i8, i8* %26, i64 %28
  br i1 %29, label %44, label %31

31:                                               ; preds = %23
  %32 = getelementptr inbounds i8, i8* %30, i64 8
  %33 = bitcast i8* %32 to i64*
  %34 = load i64, i64* %33, align 1
  %35 = getelementptr inbounds i8, i8* %30, i64 16
  %36 = bitcast i8* %35 to i32*
  %37 = load i32, i32* %36, align 1
  %38 = getelementptr inbounds i8, i8* %30, i64 20
  %39 = bitcast i8* %38 to i32*
  %40 = load i32, i32* %39, align 1
  %41 = getelementptr inbounds i8, i8* %30, i64 24
  %42 = bitcast i8* %41 to i32*
  %43 = load i32, i32* %42, align 1
  br label %44

44:                                               ; preds = %31, %23
  %45 = phi i32 [ 1, %31 ], [ 0, %23 ]
  %46 = phi i32 [ %43, %31 ], [ 0, %23 ]
  %47 = phi i32 [ %40, %31 ], [ 0, %23 ]
  %48 = phi i32 [ %37, %31 ], [ 0, %23 ]
  %49 = phi i64 [ %34, %31 ], [ 0, %23 ]
  %50 = bitcast %"class.base::OnceCallback"* %5 to i8*
  call void @llvm.lifetime.start.p0i8(i64 8, i8* nonnull %50) #15
  %51 = getelementptr inbounds %"class.base::OnceCallback", %"class.base::OnceCallback"* %5, i64 0, i32 0, i32 0, i32 0
  %52 = load %"struct.mojo::internal::MessageHeaderV1"*, %"struct.mojo::internal::MessageHeaderV1"** %20, align 8
  %53 = getelementptr inbounds %"struct.mojo::internal::MessageHeaderV1", %"struct.mojo::internal::MessageHeaderV1"* %52, i64 0, i32 1
  %54 = load i64, i64* %53, align 1
  %55 = call i8* @_Znwm(i64 24) #16, !noalias !5
  %56 = lshr exact i32 %19, 2
  %57 = trunc i32 %56 to i8
  %58 = bitcast i8* %55 to i64*
  store i64 %54, i64* %58, align 8, !noalias !5
  %59 = getelementptr inbounds i8, i8* %55, i64 8
  store i8 %57, i8* %59, align 8, !noalias !5
  %60 = getelementptr inbounds i8, i8* %55, i64 16
  %61 = bitcast i8* %60 to i64*
  store i64 %13, i64* %61, align 8, !noalias !5
  %62 = ptrtoint i8* %55 to i64
  %63 = call i8* @_Znwm(i64 56) #16, !noalias !8
  %64 = bitcast i8* %63 to %"class.base::internal::BindStateBase"*
  call void @_ZN4base8internal13BindStateBaseC2EPFvvEPFvPKS1_E(%"class.base::internal::BindStateBase"* nonnull %64, void ()* bitcast (void (%"class.base::internal::BindStateBase"*, i1, i64, %"class.mojo::StructPtr.136"*)* @_ZN4base8internal7InvokerINS0_9BindStateIMN22memory_instrumentation5mojom5blink54ClientProcess_RequestChromeMemoryDump_ProxyToResponderEFvbmN4mojo9StructPtrINS5_20RawProcessMemoryDumpEEEEJNSt3__110unique_ptrIS6_NSD_14default_deleteIS6_EEEEEEEFvbmSA_EE7RunOnceEPNS0_13BindStateBaseEbmOSA_ to void ()*), void (%"class.base::internal::BindStateBase"*)* nonnull @_ZN4base8internal9BindStateIMN22memory_instrumentation5mojom5blink54ClientProcess_RequestChromeMemoryDump_ProxyToResponderEFvbmN4mojo9StructPtrINS4_20RawProcessMemoryDumpEEEEJNSt3__110unique_ptrIS5_NSC_14default_deleteIS5_EEEEEE7DestroyEPKNS0_13BindStateBaseE) #15, !noalias !8
  %65 = getelementptr inbounds i8, i8* %63, i64 32
  %66 = bitcast i8* %65 to <2 x i64>*
  store <2 x i64> <i64 ptrtoint (void (%"class.memory_instrumentation::mojom::blink::ClientProcess_RequestChromeMemoryDump_ProxyToResponder"*, i1, i64, %"class.mojo::StructPtr.136"*)* @_ZN22memory_instrumentation5mojom5blink54ClientProcess_RequestChromeMemoryDump_ProxyToResponder3RunEbmN4mojo9StructPtrINS1_20RawProcessMemoryDumpEEE to i64), i64 0>, <2 x i64>* %66, align 8, !noalias !8
  %67 = getelementptr inbounds i8, i8* %63, i64 48
  %68 = bitcast i8* %67 to i64*
  store i64 %62, i64* %68, align 8, !noalias !8
  %69 = getelementptr inbounds %"class.mojo::InlinedStructPtr.117", %"class.mojo::InlinedStructPtr.117"* %6, i64 0, i32 1
  %70 = getelementptr inbounds %"class.mojo::InlinedStructPtr.117", %"class.mojo::InlinedStructPtr.117"* %6, i64 0, i32 0, i32 0
  store i64 %49, i64* %70, align 8
  %71 = getelementptr inbounds %"class.mojo::InlinedStructPtr.117", %"class.mojo::InlinedStructPtr.117"* %6, i64 0, i32 0, i32 1
  store i32 %48, i32* %71, align 8
  %72 = getelementptr inbounds %"class.mojo::InlinedStructPtr.117", %"class.mojo::InlinedStructPtr.117"* %6, i64 0, i32 0, i32 2
  store i32 %47, i32* %72, align 4
  %73 = getelementptr inbounds %"class.mojo::InlinedStructPtr.117", %"class.mojo::InlinedStructPtr.117"* %6, i64 0, i32 0, i32 3
  store i32 %46, i32* %73, align 8
  store i32 %45, i32* %69, align 8
  %74 = ptrtoint i8* %63 to i64
  %75 = bitcast %"class.base::OnceCallback"* %7 to i64*
  store i64 %74, i64* %75, align 8
  store %"class.base::internal::BindStateBase"* null, %"class.base::internal::BindStateBase"** %51, align 8
  %76 = bitcast %"class.memory_instrumentation::mojom::blink::ClientProcess"* %0 to void (%"class.memory_instrumentation::mojom::blink::ClientProcess"*, %"class.mojo::InlinedStructPtr.117"*, %"class.base::OnceCallback"*)***
  %77 = load void (%"class.memory_instrumentation::mojom::blink::ClientProcess"*, %"class.mojo::InlinedStructPtr.117"*, %"class.base::OnceCallback"*)**, void (%"class.memory_instrumentation::mojom::blink::ClientProcess"*, %"class.mojo::InlinedStructPtr.117"*, %"class.base::OnceCallback"*)*** %76, align 8
  %78 = getelementptr inbounds void (%"class.memory_instrumentation::mojom::blink::ClientProcess"*, %"class.mojo::InlinedStructPtr.117"*, %"class.base::OnceCallback"*)*, void (%"class.memory_instrumentation::mojom::blink::ClientProcess"*, %"class.mojo::InlinedStructPtr.117"*, %"class.base::OnceCallback"*)** %77, i64 2
  %79 = load void (%"class.memory_instrumentation::mojom::blink::ClientProcess"*, %"class.mojo::InlinedStructPtr.117"*, %"class.base::OnceCallback"*)*, void (%"class.memory_instrumentation::mojom::blink::ClientProcess"*, %"class.mojo::InlinedStructPtr.117"*, %"class.base::OnceCallback"*)** %78, align 8
  call void %79(%"class.memory_instrumentation::mojom::blink::ClientProcess"* %0, %"class.mojo::InlinedStructPtr.117"* nonnull %6, %"class.base::OnceCallback"* nonnull %7) #15
  %80 = getelementptr inbounds %"class.base::OnceCallback", %"class.base::OnceCallback"* %7, i64 0, i32 0
  call void @_ZN4base8internal12CallbackBaseD2Ev(%"class.base::internal::CallbackBase"* nonnull %80) #15
  %81 = getelementptr inbounds %"class.base::OnceCallback", %"class.base::OnceCallback"* %5, i64 0, i32 0
  call void @_ZN4base8internal12CallbackBaseD2Ev(%"class.base::internal::CallbackBase"* nonnull %81) #15
  call void @llvm.lifetime.end.p0i8(i64 8, i8* nonnull %50) #15
  call void @_ZN4base13TaskAnnotator16ScopedSetIpcHashD1Ev(%"class.base::TaskAnnotator::ScopedSetIpcHash"* nonnull %4) #15
  call void @llvm.lifetime.end.p0i8(i64 24, i8* nonnull %24) #15
  br label %191

82:                                               ; preds = %3
  %83 = bitcast %"class.base::TaskAnnotator::ScopedSetIpcHash"* %8 to i8*
  call void @llvm.lifetime.start.p0i8(i64 24, i8* nonnull %83) #15
  call void @llvm.memset.p0i8.i64(i8* nonnull align 8 %83, i8 -86, i64 24, i1 false)
  call void @_ZN4base13TaskAnnotator16ScopedSetIpcHashC1Ej(%"class.base::TaskAnnotator::ScopedSetIpcHash"* nonnull %8, i32 2083992172) #15
  %84 = call i8* @_ZNK4mojo7Message7payloadEv(%"class.mojo::Message"* %1) #15
  %85 = bitcast %"class.WTF::Vector.126"* %9 to i8*
  call void @llvm.lifetime.start.p0i8(i64 16, i8* nonnull %85) #15
  %86 = getelementptr inbounds %"class.WTF::Vector.126", %"class.WTF::Vector.126"* %9, i64 0, i32 0, i32 0, i32 0
  %87 = getelementptr inbounds %"class.WTF::Vector.126", %"class.WTF::Vector.126"* %9, i64 0, i32 0, i32 0, i32 1
  %88 = getelementptr inbounds %"class.WTF::Vector.126", %"class.WTF::Vector.126"* %9, i64 0, i32 0, i32 0, i32 2
  call void @llvm.memset.p0i8.i64(i8* nonnull align 8 %85, i8 0, i64 16, i1 false) #15
  %89 = getelementptr inbounds i8, i8* %84, i64 8
  %90 = bitcast i8* %89 to i32*
  %91 = load i32, i32* %90, align 4
  %92 = getelementptr inbounds i8, i8* %84, i64 16
  %93 = bitcast i8* %92 to i64*
  %94 = load i64, i64* %93, align 8
  %95 = icmp eq i64 %94, 0
  br i1 %95, label %101, label %96

96:                                               ; preds = %82
  %97 = getelementptr inbounds i8, i8* %92, i64 %94
  %98 = bitcast i8* %97 to %"class.mojo::internal::Array_Data"*
  %99 = call zeroext i1 @_ZN4mojo8internal15ArraySerializerINS_13ArrayDataViewIN9mojo_base5mojom17ProcessIdDataViewEEEN3WTF6VectorINS_16InlinedStructPtrINS4_5blink9ProcessIdEEELj0ENS7_18PartitionAllocatorEEENS0_13ArrayIteratorINS_11ArrayTraitsISE_EESE_Lb0EEEvE19DeserializeElementsEPNS0_10Array_DataINS0_7PointerINS4_8internal14ProcessId_DataEEEEEPSE_PNS_7MessageE(%"class.mojo::internal::Array_Data"* nonnull %98, %"class.WTF::Vector.126"* nonnull %9, %"class.mojo::Message"* %1) #15
  br i1 %99, label %101, label %100

100:                                              ; preds = %96
  call void @_ZN4mojo8internal31ReportValidationErrorForMessageEPNS_7MessageENS0_15ValidationErrorEPKcjb(%"class.mojo::Message"* %1, i32 17, i8* getelementptr inbounds ([43 x i8], [43 x i8]* @_ZN22memory_instrumentation5mojom5blink13ClientProcess5Name_E, i64 0, i64 0), i32 1, i1 zeroext false) #15
  br label %158

101:                                              ; preds = %82, %96
  %102 = bitcast %"class.base::OnceCallback.131"* %10 to i8*
  call void @llvm.lifetime.start.p0i8(i64 8, i8* nonnull %102) #15
  %103 = getelementptr inbounds %"class.base::OnceCallback.131", %"class.base::OnceCallback.131"* %10, i64 0, i32 0, i32 0, i32 0
  %104 = load %"struct.mojo::internal::MessageHeaderV1"*, %"struct.mojo::internal::MessageHeaderV1"** %20, align 8
  %105 = getelementptr inbounds %"struct.mojo::internal::MessageHeaderV1", %"struct.mojo::internal::MessageHeaderV1"* %104, i64 0, i32 1
  %106 = load i64, i64* %105, align 1
  %107 = call i8* @_Znwm(i64 24) #16, !noalias !13
  %108 = lshr exact i32 %19, 2
  %109 = trunc i32 %108 to i8
  %110 = bitcast i8* %107 to i64*
  store i64 %106, i64* %110, align 8, !noalias !13
  %111 = getelementptr inbounds i8, i8* %107, i64 8
  store i8 %109, i8* %111, align 8, !noalias !13
  %112 = getelementptr inbounds i8, i8* %107, i64 16
  %113 = bitcast i8* %112 to i64*
  store i64 %13, i64* %113, align 8, !noalias !13
  %114 = ptrtoint i8* %107 to i64
  %115 = call i8* @_Znwm(i64 56) #16, !noalias !16
  %116 = bitcast i8* %115 to %"class.base::internal::BindStateBase"*
  call void @_ZN4base8internal13BindStateBaseC2EPFvvEPFvPKS1_E(%"class.base::internal::BindStateBase"* nonnull %116, void ()* bitcast (void (%"class.base::internal::BindStateBase"*, i1, %"class.WTF::HashMap.154"*)* @_ZN4base8internal7InvokerINS0_9BindStateIMN22memory_instrumentation5mojom5blink50ClientProcess_RequestOSMemoryDump_ProxyToResponderEFvbN3WTF7HashMapIN4mojo16InlinedStructPtrIN9mojo_base5mojom5blink9ProcessIdEEENS9_9StructPtrINS5_12RawOSMemDumpEEENS9_8internal22InlinedStructPtrHashFnISE_EENS7_10HashTraitsISF_EENSM_ISI_EENS7_18PartitionAllocatorEEEEJNSt3__110unique_ptrIS6_NST_14default_deleteIS6_EEEEEEEFvbSQ_EE7RunOnceEPNS0_13BindStateBaseEbOSQ_ to void ()*), void (%"class.base::internal::BindStateBase"*)* nonnull @_ZN4base8internal9BindStateIMN22memory_instrumentation5mojom5blink50ClientProcess_RequestOSMemoryDump_ProxyToResponderEFvbN3WTF7HashMapIN4mojo16InlinedStructPtrIN9mojo_base5mojom5blink9ProcessIdEEENS8_9StructPtrINS4_12RawOSMemDumpEEENS8_8internal22InlinedStructPtrHashFnISD_EENS6_10HashTraitsISE_EENSL_ISH_EENS6_18PartitionAllocatorEEEEJNSt3__110unique_ptrIS5_NSS_14default_deleteIS5_EEEEEE7DestroyEPKNS0_13BindStateBaseE) #15, !noalias !16
  %117 = getelementptr inbounds i8, i8* %115, i64 32
  %118 = bitcast i8* %117 to <2 x i64>*
  store <2 x i64> <i64 ptrtoint (void (%"class.memory_instrumentation::mojom::blink::ClientProcess_RequestOSMemoryDump_ProxyToResponder"*, i1, %"class.WTF::HashMap.154"*)* @_ZN22memory_instrumentation5mojom5blink50ClientProcess_RequestOSMemoryDump_ProxyToResponder3RunEbN3WTF7HashMapIN4mojo16InlinedStructPtrIN9mojo_base5mojom5blink9ProcessIdEEENS5_9StructPtrINS1_12RawOSMemDumpEEENS5_8internal22InlinedStructPtrHashFnISA_EENS3_10HashTraitsISB_EENSI_ISE_EENS3_18PartitionAllocatorEEE to i64), i64 0>, <2 x i64>* %118, align 8, !noalias !16
  %119 = getelementptr inbounds i8, i8* %115, i64 48
  %120 = bitcast i8* %119 to i64*
  store i64 %114, i64* %120, align 8, !noalias !16
  %121 = getelementptr inbounds %"class.WTF::Vector.126", %"class.WTF::Vector.126"* %11, i64 0, i32 0, i32 0, i32 1
  %122 = getelementptr inbounds %"class.WTF::Vector.126", %"class.WTF::Vector.126"* %11, i64 0, i32 0, i32 0, i32 2
  %123 = bitcast %"class.WTF::Vector.126"* %9 to i64*
  %124 = bitcast %"class.WTF::Vector.126"* %11 to i64*
  store i64 0, i64* %124, align 8
  %125 = load i64, i64* %123, align 8
  %126 = bitcast %"class.WTF::Vector.126"* %11 to i64*
  store atomic i64 0, i64* %123 monotonic, align 8
  store atomic i64 %125, i64* %126 monotonic, align 8
  %127 = load i32, i32* %87, align 8
  store i32 %127, i32* %121, align 8
  store i32 0, i32* %87, align 8
  %128 = load i32, i32* %88, align 4
  store i32 %128, i32* %122, align 4
  store i32 0, i32* %88, align 4
  %129 = ptrtoint i8* %115 to i64
  %130 = bitcast %"class.base::OnceCallback.131"* %12 to i64*
  store i64 %129, i64* %130, align 8
  store %"class.base::internal::BindStateBase"* null, %"class.base::internal::BindStateBase"** %103, align 8
  %131 = bitcast %"class.memory_instrumentation::mojom::blink::ClientProcess"* %0 to void (%"class.memory_instrumentation::mojom::blink::ClientProcess"*, i32, %"class.WTF::Vector.126"*, %"class.base::OnceCallback.131"*)***
  %132 = load void (%"class.memory_instrumentation::mojom::blink::ClientProcess"*, i32, %"class.WTF::Vector.126"*, %"class.base::OnceCallback.131"*)**, void (%"class.memory_instrumentation::mojom::blink::ClientProcess"*, i32, %"class.WTF::Vector.126"*, %"class.base::OnceCallback.131"*)*** %131, align 8
  %133 = getelementptr inbounds void (%"class.memory_instrumentation::mojom::blink::ClientProcess"*, i32, %"class.WTF::Vector.126"*, %"class.base::OnceCallback.131"*)*, void (%"class.memory_instrumentation::mojom::blink::ClientProcess"*, i32, %"class.WTF::Vector.126"*, %"class.base::OnceCallback.131"*)** %132, i64 3
  %134 = load void (%"class.memory_instrumentation::mojom::blink::ClientProcess"*, i32, %"class.WTF::Vector.126"*, %"class.base::OnceCallback.131"*)*, void (%"class.memory_instrumentation::mojom::blink::ClientProcess"*, i32, %"class.WTF::Vector.126"*, %"class.base::OnceCallback.131"*)** %133, align 8
  call void %134(%"class.memory_instrumentation::mojom::blink::ClientProcess"* %0, i32 %91, %"class.WTF::Vector.126"* nonnull %11, %"class.base::OnceCallback.131"* nonnull %12) #15
  %135 = getelementptr inbounds %"class.base::OnceCallback.131", %"class.base::OnceCallback.131"* %12, i64 0, i32 0
  call void @_ZN4base8internal12CallbackBaseD2Ev(%"class.base::internal::CallbackBase"* nonnull %135) #15
  %136 = getelementptr inbounds %"class.WTF::Vector.126", %"class.WTF::Vector.126"* %11, i64 0, i32 0, i32 0, i32 0
  %137 = load %"class.mojo::InlinedStructPtr.103"*, %"class.mojo::InlinedStructPtr.103"** %136, align 8
  %138 = icmp eq %"class.mojo::InlinedStructPtr.103"* %137, null
  br i1 %138, label %156, label %139, !prof !4

139:                                              ; preds = %101
  %140 = bitcast %"class.mojo::InlinedStructPtr.103"* %137 to i8*
  %141 = load i32, i32* %122, align 4
  %142 = icmp eq i32 %141, 0
  br i1 %142, label %154, label %143, !prof !3

143:                                              ; preds = %139
  %144 = zext i32 %141 to i64
  %145 = getelementptr inbounds %"class.mojo::InlinedStructPtr.103", %"class.mojo::InlinedStructPtr.103"* %137, i64 %144
  br label %146

146:                                              ; preds = %146, %143
  %147 = phi %"class.mojo::InlinedStructPtr.103"* [ %149, %146 ], [ %137, %143 ]
  %148 = getelementptr inbounds %"class.mojo::InlinedStructPtr.103", %"class.mojo::InlinedStructPtr.103"* %147, i64 0, i32 0
  call void @_ZN9mojo_base5mojom5blink9ProcessIdD1Ev(%"class.mojo_base::mojom::blink::ProcessId"* %148) #15
  %149 = getelementptr inbounds %"class.mojo::InlinedStructPtr.103", %"class.mojo::InlinedStructPtr.103"* %147, i64 1
  %150 = icmp eq %"class.mojo::InlinedStructPtr.103"* %149, %145
  br i1 %150, label %151, label %146

151:                                              ; preds = %146
  store i32 0, i32* %122, align 4
  %152 = bitcast %"class.WTF::Vector.126"* %11 to i8**
  %153 = load i8*, i8** %152, align 8
  br label %154

154:                                              ; preds = %151, %139
  %155 = phi i8* [ %153, %151 ], [ %140, %139 ]
  call void @_ZN3WTF18PartitionAllocator11FreeBackingEPv(i8* %155) #15
  store %"class.mojo::InlinedStructPtr.103"* null, %"class.mojo::InlinedStructPtr.103"** %136, align 8
  br label %156

156:                                              ; preds = %101, %154
  %157 = getelementptr inbounds %"class.base::OnceCallback.131", %"class.base::OnceCallback.131"* %10, i64 0, i32 0
  call void @_ZN4base8internal12CallbackBaseD2Ev(%"class.base::internal::CallbackBase"* nonnull %157) #15
  call void @llvm.lifetime.end.p0i8(i64 8, i8* nonnull %102) #15
  br label %158

158:                                              ; preds = %156, %100
  %159 = phi i64 [ %13, %100 ], [ 0, %156 ]
  %160 = phi i1 [ false, %100 ], [ true, %156 ]
  %161 = load %"class.mojo::InlinedStructPtr.103"*, %"class.mojo::InlinedStructPtr.103"** %86, align 8
  %162 = icmp eq %"class.mojo::InlinedStructPtr.103"* %161, null
  br i1 %162, label %180, label %163, !prof !4

163:                                              ; preds = %158
  %164 = bitcast %"class.mojo::InlinedStructPtr.103"* %161 to i8*
  %165 = load i32, i32* %88, align 4
  %166 = icmp eq i32 %165, 0
  br i1 %166, label %178, label %167, !prof !3

167:                                              ; preds = %163
  %168 = zext i32 %165 to i64
  %169 = getelementptr inbounds %"class.mojo::InlinedStructPtr.103", %"class.mojo::InlinedStructPtr.103"* %161, i64 %168
  br label %170

170:                                              ; preds = %170, %167
  %171 = phi %"class.mojo::InlinedStructPtr.103"* [ %173, %170 ], [ %161, %167 ]
  %172 = getelementptr inbounds %"class.mojo::InlinedStructPtr.103", %"class.mojo::InlinedStructPtr.103"* %171, i64 0, i32 0
  call void @_ZN9mojo_base5mojom5blink9ProcessIdD1Ev(%"class.mojo_base::mojom::blink::ProcessId"* %172) #15
  %173 = getelementptr inbounds %"class.mojo::InlinedStructPtr.103", %"class.mojo::InlinedStructPtr.103"* %171, i64 1
  %174 = icmp eq %"class.mojo::InlinedStructPtr.103"* %173, %169
  br i1 %174, label %175, label %170

175:                                              ; preds = %170
  store i32 0, i32* %88, align 4
  %176 = bitcast %"class.WTF::Vector.126"* %9 to i8**
  %177 = load i8*, i8** %176, align 8
  br label %178

178:                                              ; preds = %175, %163
  %179 = phi i8* [ %177, %175 ], [ %164, %163 ]
  call void @_ZN3WTF18PartitionAllocator11FreeBackingEPv(i8* %179) #15
  store %"class.mojo::InlinedStructPtr.103"* null, %"class.mojo::InlinedStructPtr.103"** %86, align 8
  br label %180

180:                                              ; preds = %158, %178
  call void @llvm.lifetime.end.p0i8(i64 16, i8* nonnull %85) #15
  call void @_ZN4base13TaskAnnotator16ScopedSetIpcHashD1Ev(%"class.base::TaskAnnotator::ScopedSetIpcHash"* nonnull %8) #15
  call void @llvm.lifetime.end.p0i8(i64 24, i8* nonnull %83) #15
  br label %181

181:                                              ; preds = %3, %180
  %182 = phi i64 [ %13, %3 ], [ %159, %180 ]
  %183 = phi i1 [ false, %3 ], [ %160, %180 ]
  %184 = icmp eq i64 %182, 0
  br i1 %184, label %191, label %185

185:                                              ; preds = %181
  %186 = inttoptr i64 %182 to %"class.mojo::MessageReceiverWithStatus"*
  %187 = inttoptr i64 %182 to void (%"class.mojo::MessageReceiverWithStatus"*)***
  %188 = load void (%"class.mojo::MessageReceiverWithStatus"*)**, void (%"class.mojo::MessageReceiverWithStatus"*)*** %187, align 8
  %189 = getelementptr inbounds void (%"class.mojo::MessageReceiverWithStatus"*)*, void (%"class.mojo::MessageReceiverWithStatus"*)** %188, i64 1
  %190 = load void (%"class.mojo::MessageReceiverWithStatus"*)*, void (%"class.mojo::MessageReceiverWithStatus"*)** %189, align 8
  call void %190(%"class.mojo::MessageReceiverWithStatus"* nonnull %186) #15
  br label %191

191:                                              ; preds = %44, %181, %185
  %192 = phi i1 [ true, %44 ], [ %183, %181 ], [ %183, %185 ]
  ret i1 %192
}

declare void @_ZN4base13TaskAnnotator16ScopedSetIpcHashC1Ej(%"class.base::TaskAnnotator::ScopedSetIpcHash"*, i32) unnamed_addr #5

; Function Attrs: nounwind
declare void @_ZN4base13TaskAnnotator16ScopedSetIpcHashD1Ev(%"class.base::TaskAnnotator::ScopedSetIpcHash"*) unnamed_addr #8

; Function Attrs: nounwind ssp uwtable
define hidden zeroext i1 @_ZN22memory_instrumentation5mojom5blink29ClientProcessRequestValidator6AcceptEPN4mojo7MessageE(%"class.memory_instrumentation::mojom::blink::ClientProcessRequestValidator"* nocapture readnone, %"class.mojo::Message"*) unnamed_addr #3 align 2 {
  %3 = tail call zeroext i1 @_ZN4mojo8internal22ValidateRequestGenericEPNS_7MessageEPKcN4base4spanIKNSt3__14pairIjNS0_21GenericValidationInfoEEELm18446744073709551615EEE(%"class.mojo::Message"* %1, i8* getelementptr inbounds ([43 x i8], [43 x i8]* @_ZN22memory_instrumentation5mojom5blink13ClientProcess5Name_E, i64 0, i64 0), i64 2, %"struct.std::__1::pair"* getelementptr inbounds ([2 x %"struct.std::__1::pair"], [2 x %"struct.std::__1::pair"]* @_ZN22memory_instrumentation5mojom5blinkL28kClientProcessValidationInfoE, i64 0, i64 0)) #15
  ret i1 %3
}

declare zeroext i1 @_ZN4mojo8internal22ValidateRequestGenericEPNS_7MessageEPKcN4base4spanIKNSt3__14pairIjNS0_21GenericValidationInfoEEELm18446744073709551615EEE(%"class.mojo::Message"*, i8*, i64, %"struct.std::__1::pair"*) local_unnamed_addr #5

; Function Attrs: nounwind ssp uwtable
define hidden zeroext i1 @_ZN22memory_instrumentation5mojom5blink30ClientProcessResponseValidator6AcceptEPN4mojo7MessageE(%"class.memory_instrumentation::mojom::blink::ClientProcessResponseValidator"* nocapture readnone, %"class.mojo::Message"*) unnamed_addr #3 align 2 {
  %3 = tail call zeroext i1 @_ZN4mojo8internal23ValidateResponseGenericEPNS_7MessageEPKcN4base4spanIKNSt3__14pairIjNS0_21GenericValidationInfoEEELm18446744073709551615EEE(%"class.mojo::Message"* %1, i8* getelementptr inbounds ([43 x i8], [43 x i8]* @_ZN22memory_instrumentation5mojom5blink13ClientProcess5Name_E, i64 0, i64 0), i64 2, %"struct.std::__1::pair"* getelementptr inbounds ([2 x %"struct.std::__1::pair"], [2 x %"struct.std::__1::pair"]* @_ZN22memory_instrumentation5mojom5blinkL28kClientProcessValidationInfoE, i64 0, i64 0)) #15
  ret i1 %3
}

declare zeroext i1 @_ZN4mojo8internal23ValidateResponseGenericEPNS_7MessageEPKcN4base4spanIKNSt3__14pairIjNS0_21GenericValidationInfoEEELm18446744073709551615EEE(%"class.mojo::Message"*, i8*, i64, %"struct.std::__1::pair"*) local_unnamed_addr #5

; Function Attrs: nofree norecurse nounwind ssp uwtable writeonly
define hidden void @_ZN22memory_instrumentation5mojom5blink17HeapProfilerProxyC2EPN4mojo28MessageReceiverWithResponderE(%"class.memory_instrumentation::mojom::blink::HeapProfilerProxy"* nocapture, %"class.mojo::MessageReceiverWithResponder"*) unnamed_addr #0 align 2 {
  %3 = getelementptr inbounds %"class.memory_instrumentation::mojom::blink::HeapProfilerProxy", %"class.memory_instrumentation::mojom::blink::HeapProfilerProxy"* %0, i64 0, i32 0, i32 0
  store i32 (...)** bitcast (i8** getelementptr inbounds ({ [5 x i8*] }, { [5 x i8*] }* @_ZTVN22memory_instrumentation5mojom5blink17HeapProfilerProxyE, i64 0, inrange i32 0, i64 2) to i32 (...)**), i32 (...)*** %3, align 8
  %4 = getelementptr inbounds %"class.memory_instrumentation::mojom::blink::HeapProfilerProxy", %"class.memory_instrumentation::mojom::blink::HeapProfilerProxy"* %0, i64 0, i32 1
  store %"class.mojo::MessageReceiverWithResponder"* %1, %"class.mojo::MessageReceiverWithResponder"** %4, align 8
  ret void
}

; Function Attrs: nounwind ssp uwtable
define hidden void @_ZN22memory_instrumentation5mojom5blink17HeapProfilerProxy23DumpProcessesForTracingEbN4base12OnceCallbackIFvN3WTF6VectorIN4mojo9StructPtrINS1_17HeapProfileResultEEELj0ENS5_18PartitionAllocatorEEEEEE(%"class.memory_instrumentation::mojom::blink::HeapProfilerProxy"* nocapture readonly, i1 zeroext, %"class.base::OnceCallback.161"* nocapture) unnamed_addr #3 align 2 {
  %4 = alloca %"class.mojo::Message", align 8
  %5 = alloca %"class.base::OnceCallback.161", align 8
  %6 = zext i1 %1 to i8
  %7 = bitcast %"class.mojo::Message"* %4 to i8*
  call void @llvm.lifetime.start.p0i8(i64 120, i8* nonnull %7) #15
  call void @llvm.memset.p0i8.i64(i8* nonnull align 8 %7, i8 -86, i64 120, i1 false)
  call void @_ZN4mojo7MessageC1EjjmmPNSt3__16vectorINS_16ScopedHandleBaseINS_6HandleEEENS1_9allocatorIS5_EEEE(%"class.mojo::Message"* nonnull %4, i32 1327924655, i32 1, i64 0, i64 0, %"class.std::__1::vector"* null) #15
  %8 = getelementptr inbounds %"class.mojo::Message", %"class.mojo::Message"* %4, i64 0, i32 1
  %9 = call i64 @_ZN4mojo8internal6Buffer8AllocateEm(%"class.mojo::internal::Buffer"* %8, i64 16) #15
  %10 = getelementptr inbounds %"class.mojo::Message", %"class.mojo::Message"* %4, i64 0, i32 1, i32 2
  %11 = load i8*, i8** %10, align 8
  %12 = getelementptr inbounds i8, i8* %11, i64 %9
  %13 = bitcast i8* %12 to %"class.memory_instrumentation::mojom::internal::HeapProfiler_DumpProcessesForTracing_Params_Data"*
  call void @_ZN22memory_instrumentation5mojom8internal48HeapProfiler_DumpProcessesForTracing_Params_DataC1Ev(%"class.memory_instrumentation::mojom::internal::HeapProfiler_DumpProcessesForTracing_Params_Data"* %13) #15
  %14 = load i8*, i8** %10, align 8
  %15 = getelementptr inbounds i8, i8* %14, i64 %9
  %16 = getelementptr inbounds i8, i8* %15, i64 8
  %17 = load i8, i8* %16, align 1
  %18 = and i8 %17, -2
  %19 = or i8 %18, %6
  store i8 %19, i8* %16, align 1
  %20 = call i8* @_Znwm(i64 16) #16
  %21 = getelementptr inbounds %"class.base::OnceCallback.161", %"class.base::OnceCallback.161"* %2, i64 0, i32 0, i32 0, i32 0
  %22 = bitcast %"class.base::OnceCallback.161"* %2 to i64*
  %23 = load i64, i64* %22, align 8
  store %"class.base::internal::BindStateBase"* null, %"class.base::internal::BindStateBase"** %21, align 8
  %24 = bitcast i8* %20 to i32 (...)***
  store i32 (...)** bitcast (i8** getelementptr inbounds ({ [6 x i8*] }, { [6 x i8*] }* @_ZTVN22memory_instrumentation5mojom5blink54HeapProfiler_DumpProcessesForTracing_ForwardToCallbackE, i64 0, inrange i32 0, i64 2) to i32 (...)**), i32 (...)*** %24, align 8
  %25 = getelementptr inbounds i8, i8* %20, i64 8
  %26 = getelementptr inbounds %"class.base::OnceCallback.161", %"class.base::OnceCallback.161"* %5, i64 0, i32 0, i32 0, i32 0
  %27 = bitcast i8* %25 to i64*
  store i64 %23, i64* %27, align 8
  store %"class.base::internal::BindStateBase"* null, %"class.base::internal::BindStateBase"** %26, align 8
  %28 = bitcast i8* %20 to %"class.mojo::MessageReceiver"*
  %29 = getelementptr inbounds %"class.base::OnceCallback.161", %"class.base::OnceCallback.161"* %5, i64 0, i32 0
  call void @_ZN4base8internal12CallbackBaseD2Ev(%"class.base::internal::CallbackBase"* nonnull %29) #15
  %30 = getelementptr inbounds %"class.memory_instrumentation::mojom::blink::HeapProfilerProxy", %"class.memory_instrumentation::mojom::blink::HeapProfilerProxy"* %0, i64 0, i32 1
  %31 = load %"class.mojo::MessageReceiverWithResponder"*, %"class.mojo::MessageReceiverWithResponder"** %30, align 8
  %32 = bitcast %"class.mojo::MessageReceiverWithResponder"* %31 to i1 (%"class.mojo::MessageReceiverWithResponder"*, %"class.mojo::Message"*, %"class.mojo::MessageReceiver"*)***
  %33 = load i1 (%"class.mojo::MessageReceiverWithResponder"*, %"class.mojo::Message"*, %"class.mojo::MessageReceiver"*)**, i1 (%"class.mojo::MessageReceiverWithResponder"*, %"class.mojo::Message"*, %"class.mojo::MessageReceiver"*)*** %32, align 8
  %34 = getelementptr inbounds i1 (%"class.mojo::MessageReceiverWithResponder"*, %"class.mojo::Message"*, %"class.mojo::MessageReceiver"*)*, i1 (%"class.mojo::MessageReceiverWithResponder"*, %"class.mojo::Message"*, %"class.mojo::MessageReceiver"*)** %33, i64 4
  %35 = load i1 (%"class.mojo::MessageReceiverWithResponder"*, %"class.mojo::Message"*, %"class.mojo::MessageReceiver"*)*, i1 (%"class.mojo::MessageReceiverWithResponder"*, %"class.mojo::Message"*, %"class.mojo::MessageReceiver"*)** %34, align 8
  %36 = call zeroext i1 %35(%"class.mojo::MessageReceiverWithResponder"* %31, %"class.mojo::Message"* nonnull %4, %"class.mojo::MessageReceiver"* nonnull %28) #15
  call void @_ZN4mojo7MessageD1Ev(%"class.mojo::Message"* nonnull %4) #15
