; ModuleID = '../../components/metrics/metrics_reporting_default_state.cc'
source_filename = "../../components/metrics/metrics_reporting_default_state.cc"
target datalayout = "e-m:e-i64:64-f80:128-n8:16:32:64-S128"
target triple = "x86_64-unknown-linux-gnu"

module asm ".symver exp, exp@GLIBC_2.2.5"
module asm ".symver exp2, exp2@GLIBC_2.2.5"
module asm ".symver exp2f, exp2f@GLIBC_2.2.5"
module asm ".symver expf, expf@GLIBC_2.2.5"
module asm ".symver lgamma, lgamma@GLIBC_2.2.5"
module asm ".symver lgammaf, lgammaf@GLIBC_2.2.5"
module asm ".symver lgammal, lgammal@GLIBC_2.2.5"
module asm ".symver log, log@GLIBC_2.2.5"
module asm ".symver log2, log2@GLIBC_2.2.5"
module asm ".symver log2f, log2f@GLIBC_2.2.5"
module asm ".symver logf, logf@GLIBC_2.2.5"
module asm ".symver pow, pow@GLIBC_2.2.5"
module asm ".symver powf, powf@GLIBC_2.2.5"

%class.PrefRegistrySimple = type { %class.PrefRegistry }
%class.PrefRegistry = type { i32 (...)**, %"class.base::RefCounted", %class.scoped_refptr, %"class.std::__1::unordered_map", %"class.std::__1::set" }
%"class.base::RefCounted" = type { %"class.base::subtle::RefCountedBase" }
%"class.base::subtle::RefCountedBase" = type { i32 }
%class.scoped_refptr = type { %class.DefaultPrefStore* }
%class.DefaultPrefStore = type opaque
%"class.std::__1::unordered_map" = type { %"class.std::__1::__hash_table" }
%"class.std::__1::__hash_table" = type <{ %"class.std::__1::unique_ptr", %"class.std::__1::__compressed_pair.4", %"class.std::__1::__compressed_pair.9", %"class.std::__1::__compressed_pair.11", [4 x i8] }>
%"class.std::__1::unique_ptr" = type { %"class.std::__1::__compressed_pair" }
%"class.std::__1::__compressed_pair" = type { %"struct.std::__1::__compressed_pair_elem", %"struct.std::__1::__compressed_pair_elem.0" }
%"struct.std::__1::__compressed_pair_elem" = type { %"struct.std::__1::__hash_node_base"** }
%"struct.std::__1::__hash_node_base" = type { %"struct.std::__1::__hash_node_base"* }
%"struct.std::__1::__compressed_pair_elem.0" = type { %"class.std::__1::__bucket_list_deallocator" }
%"class.std::__1::__bucket_list_deallocator" = type { %"class.std::__1::__compressed_pair.1" }
%"class.std::__1::__compressed_pair.1" = type { %"struct.std::__1::__compressed_pair_elem.2" }
%"struct.std::__1::__compressed_pair_elem.2" = type { i64 }
%"class.std::__1::__compressed_pair.4" = type { %"struct.std::__1::__compressed_pair_elem.5" }
%"struct.std::__1::__compressed_pair_elem.5" = type { %"struct.std::__1::__hash_node_base" }
%"class.std::__1::__compressed_pair.9" = type { %"struct.std::__1::__compressed_pair_elem.2" }
%"class.std::__1::__compressed_pair.11" = type { %"struct.std::__1::__compressed_pair_elem.12" }
%"struct.std::__1::__compressed_pair_elem.12" = type { float }
%"class.std::__1::set" = type { %"class.std::__1::__tree" }
%"class.std::__1::__tree" = type { %"class.std::__1::__tree_end_node"*, %"class.std::__1::__compressed_pair.14", %"class.std::__1::__compressed_pair.19" }
%"class.std::__1::__tree_end_node" = type { %"class.std::__1::__tree_node_base"* }
%"class.std::__1::__tree_node_base" = type opaque
%"class.std::__1::__compressed_pair.14" = type { %"struct.std::__1::__compressed_pair_elem.15" }
%"struct.std::__1::__compressed_pair_elem.15" = type { %"class.std::__1::__tree_end_node" }
%"class.std::__1::__compressed_pair.19" = type { %"struct.std::__1::__compressed_pair_elem.2" }
%"class.std::__1::basic_string" = type { %"class.std::__1::__compressed_pair.21" }
%"class.std::__1::__compressed_pair.21" = type { %"struct.std::__1::__compressed_pair_elem.22" }
%"struct.std::__1::__compressed_pair_elem.22" = type { %"struct.std::__1::basic_string<char, std::__1::char_traits<char>, std::__1::allocator<char> >::__rep" }
%"struct.std::__1::basic_string<char, std::__1::char_traits<char>, std::__1::allocator<char> >::__rep" = type { %union.anon }
%union.anon = type { %"struct.std::__1::basic_string<char, std::__1::char_traits<char>, std::__1::allocator<char> >::__long" }
%"struct.std::__1::basic_string<char, std::__1::char_traits<char>, std::__1::allocator<char> >::__long" = type { i8*, i64, i64 }
%"class.std::__1::__basic_string_common" = type { i8 }
%"struct.std::__1::basic_string<char, std::__1::char_traits<char>, std::__1::allocator<char> >::__short" = type { [23 x i8], %struct.anon }
%struct.anon = type { i8 }
%class.PrefService = type { i32 (...)**, %"class.std::__1::unique_ptr.26", %"class.std::__1::unique_ptr.30", %class.scoped_refptr.53, %"class.base::RepeatingCallback.54", %class.scoped_refptr.55, %"class.std::__1::unordered_map.56" }
%"class.std::__1::unique_ptr.26" = type { %"class.std::__1::__compressed_pair.27" }
%"class.std::__1::__compressed_pair.27" = type { %"struct.std::__1::__compressed_pair_elem.28" }
%"struct.std::__1::__compressed_pair_elem.28" = type { %class.PrefNotifierImpl* }
%class.PrefNotifierImpl = type opaque
%"class.std::__1::unique_ptr.30" = type { %"class.std::__1::__compressed_pair.31" }
%"class.std::__1::__compressed_pair.31" = type { %"struct.std::__1::__compressed_pair_elem.32" }
%"struct.std::__1::__compressed_pair_elem.32" = type { %class.PrefValueStore* }
%class.PrefValueStore = type { i32 (...)**, [7 x %"class.PrefValueStore::PrefStoreKeeper"], %"class.base::RepeatingCallback", %class.PrefNotifier*, %"class.std::__1::map", i8, %"class.std::__1::unique_ptr.44" }
%"class.PrefValueStore::PrefStoreKeeper" = type <{ %"class.PrefStore::Observer", %class.PrefValueStore*, %class.scoped_refptr.33, i32, [4 x i8] }>
%"class.PrefStore::Observer" = type { i32 (...)** }
%class.scoped_refptr.33 = type { %class.PrefStore* }
%class.PrefStore = type <{ i32 (...)**, %"class.base::RefCounted.34", [4 x i8] }>
%"class.base::RefCounted.34" = type { %"class.base::subtle::RefCountedBase" }
%"class.base::RepeatingCallback" = type { %"class.base::internal::CallbackBaseCopyable" }
%"class.base::internal::CallbackBaseCopyable" = type { %"class.base::internal::CallbackBase" }
%"class.base::internal::CallbackBase" = type { %class.scoped_refptr.35 }
%class.scoped_refptr.35 = type { %"class.base::internal::BindStateBase"* }
%"class.base::internal::BindStateBase" = type { %"class.base::RefCountedThreadSafe", void ()*, void (%"class.base::internal::BindStateBase"*)*, i1 (%"class.base::internal::BindStateBase"*, i32)* }
%"class.base::RefCountedThreadSafe" = type { %"class.base::subtle::RefCountedThreadSafeBase" }
%"class.base::subtle::RefCountedThreadSafeBase" = type { %"class.base::AtomicRefCount" }
%"class.base::AtomicRefCount" = type { %"struct.std::__1::atomic" }
%"struct.std::__1::atomic" = type { %"struct.std::__1::__atomic_base" }
%"struct.std::__1::__atomic_base" = type { %"struct.std::__1::__atomic_base.36" }
%"struct.std::__1::__atomic_base.36" = type { %"struct.std::__1::__cxx_atomic_impl" }
%"struct.std::__1::__cxx_atomic_impl" = type { %"struct.std::__1::__cxx_atomic_base_impl" }
%"struct.std::__1::__cxx_atomic_base_impl" = type { i32 }
%class.PrefNotifier = type opaque
%"class.std::__1::map" = type { %"class.std::__1::__tree.37" }
%"class.std::__1::__tree.37" = type { %"class.std::__1::__tree_end_node"*, %"class.std::__1::__compressed_pair.38", %"class.std::__1::__compressed_pair.42" }
%"class.std::__1::__compressed_pair.38" = type { %"struct.std::__1::__compressed_pair_elem.15" }
%"class.std::__1::__compressed_pair.42" = type { %"struct.std::__1::__compressed_pair_elem.2" }
%"class.std::__1::unique_ptr.44" = type { %"class.std::__1::__compressed_pair.45" }
%"class.std::__1::__compressed_pair.45" = type { %"struct.std::__1::__compressed_pair_elem.46" }
%"struct.std::__1::__compressed_pair_elem.46" = type { %"class.PrefValueStore::Delegate"* }
%"class.PrefValueStore::Delegate" = type { i32 (...)** }
%class.scoped_refptr.53 = type { %class.PersistentPrefStore* }
%class.PersistentPrefStore = type { %class.WriteablePrefStore.base, [4 x i8] }
%class.WriteablePrefStore.base = type { %class.PrefStore.base }
%class.PrefStore.base = type <{ i32 (...)**, %"class.base::RefCounted.34" }>
%"class.base::RepeatingCallback.54" = type { %"class.base::internal::CallbackBaseCopyable" }
%class.scoped_refptr.55 = type { %class.PrefRegistry* }
%"class.std::__1::unordered_map.56" = type { %"class.std::__1::__hash_table.57" }
%"class.std::__1::__hash_table.57" = type <{ %"class.std::__1::unique_ptr.58", %"class.std::__1::__compressed_pair.68", %"class.std::__1::__compressed_pair.73", %"class.std::__1::__compressed_pair.76", [4 x i8] }>
%"class.std::__1::unique_ptr.58" = type { %"class.std::__1::__compressed_pair.59" }
%"class.std::__1::__compressed_pair.59" = type { %"struct.std::__1::__compressed_pair_elem.60", %"struct.std::__1::__compressed_pair_elem.62" }
%"struct.std::__1::__compressed_pair_elem.60" = type { %"struct.std::__1::__hash_node_base.61"** }
%"struct.std::__1::__hash_node_base.61" = type { %"struct.std::__1::__hash_node_base.61"* }
%"struct.std::__1::__compressed_pair_elem.62" = type { %"class.std::__1::__bucket_list_deallocator.63" }
%"class.std::__1::__bucket_list_deallocator.63" = type { %"class.std::__1::__compressed_pair.64" }
%"class.std::__1::__compressed_pair.64" = type { %"struct.std::__1::__compressed_pair_elem.2" }
%"class.std::__1::__compressed_pair.68" = type { %"struct.std::__1::__compressed_pair_elem.69" }
%"struct.std::__1::__compressed_pair_elem.69" = type { %"struct.std::__1::__hash_node_base.61" }
%"class.std::__1::__compressed_pair.73" = type { %"struct.std::__1::__compressed_pair_elem.2" }
%"class.std::__1::__compressed_pair.76" = type { %"struct.std::__1::__compressed_pair_elem.12" }

@_ZN7metrics5prefs20kMetricsDefaultOptInE = external constant [0 x i8], align 1

; Function Attrs: nounwind ssp uwtable
define hidden void @_ZN7metrics34RegisterMetricsReportingStatePrefsEP18PrefRegistrySimple(%class.PrefRegistrySimple*) local_unnamed_addr #0 {
  %2 = alloca %"class.std::__1::basic_string", align 8
  %3 = bitcast %"class.std::__1::basic_string"* %2 to i8*
  call void @llvm.lifetime.start.p0i8(i64 24, i8* nonnull %3) #7
  %4 = tail call i64 @strlen(i8* getelementptr inbounds ([0 x i8], [0 x i8]* @_ZN7metrics5prefs20kMetricsDefaultOptInE, i64 0, i64 0)) #7
  %5 = icmp ugt i64 %4, -17
  br i1 %5, label %6, label %8

6:                                                ; preds = %1
  %7 = bitcast %"class.std::__1::basic_string"* %2 to %"class.std::__1::__basic_string_common"*
  call void @_ZNKSt3__121__basic_string_commonILb1EE20__throw_length_errorEv(%"class.std::__1::__basic_string_common"* nonnull %7) #8
  unreachable

8:                                                ; preds = %1
  %9 = icmp ult i64 %4, 23
  br i1 %9, label %19, label %10

10:                                               ; preds = %8
  %11 = add nuw i64 %4, 16
  %12 = and i64 %11, -16
  %13 = tail call i8* @_Znwm(i64 %12) #9
  %14 = getelementptr inbounds %"class.std::__1::basic_string", %"class.std::__1::basic_string"* %2, i64 0, i32 0, i32 0, i32 0, i32 0, i32 0, i32 0
  store i8* %13, i8** %14, align 8
  %15 = or i64 %12, -9223372036854775808
  %16 = getelementptr inbounds %"class.std::__1::basic_string", %"class.std::__1::basic_string"* %2, i64 0, i32 0, i32 0, i32 0, i32 0, i32 0, i32 2
  store i64 %15, i64* %16, align 8
  %17 = getelementptr inbounds %"class.std::__1::basic_string", %"class.std::__1::basic_string"* %2, i64 0, i32 0, i32 0, i32 0, i32 0, i32 0, i32 1
  store i64 %4, i64* %17, align 8
  %18 = bitcast %"class.std::__1::basic_string"* %2 to %"struct.std::__1::basic_string<char, std::__1::char_traits<char>, std::__1::allocator<char> >::__short"*
  br label %24

19:                                               ; preds = %8
  %20 = trunc i64 %4 to i8
  %21 = bitcast %"class.std::__1::basic_string"* %2 to %"struct.std::__1::basic_string<char, std::__1::char_traits<char>, std::__1::allocator<char> >::__short"*
  %22 = getelementptr inbounds %"struct.std::__1::basic_string<char, std::__1::char_traits<char>, std::__1::allocator<char> >::__short", %"struct.std::__1::basic_string<char, std::__1::char_traits<char>, std::__1::allocator<char> >::__short"* %21, i64 0, i32 1, i32 0
  store i8 %20, i8* %22, align 1
  %23 = icmp eq i64 %4, 0
  br i1 %23, label %27, label %24

24:                                               ; preds = %19, %10
  %25 = phi %"struct.std::__1::basic_string<char, std::__1::char_traits<char>, std::__1::allocator<char> >::__short"* [ %21, %19 ], [ %18, %10 ]
  %26 = phi i8* [ %3, %19 ], [ %13, %10 ]
  call void @llvm.memcpy.p0i8.p0i8.i64(i8* nonnull align 1 %26, i8* align 1 getelementptr inbounds ([0 x i8], [0 x i8]* @_ZN7metrics5prefs20kMetricsDefaultOptInE, i64 0, i64 0), i64 %4, i1 false) #7
  br label %27

27:                                               ; preds = %19, %24
  %28 = phi %"struct.std::__1::basic_string<char, std::__1::char_traits<char>, std::__1::allocator<char> >::__short"* [ %21, %19 ], [ %25, %24 ]
  %29 = phi i8* [ %3, %19 ], [ %26, %24 ]
  %30 = getelementptr inbounds i8, i8* %29, i64 %4
  store i8 0, i8* %30, align 1
  call void @_ZN18PrefRegistrySimple19RegisterIntegerPrefERKNSt3__112basic_stringIcNS0_11char_traitsIcEENS0_9allocatorIcEEEEij(%class.PrefRegistrySimple* %0, %"class.std::__1::basic_string"* nonnull dereferenceable(24) %2, i32 0, i32 0) #7
  %31 = getelementptr inbounds %"struct.std::__1::basic_string<char, std::__1::char_traits<char>, std::__1::allocator<char> >::__short", %"struct.std::__1::basic_string<char, std::__1::char_traits<char>, std::__1::allocator<char> >::__short"* %28, i64 0, i32 1, i32 0
  %32 = load i8, i8* %31, align 1
  %33 = icmp slt i8 %32, 0
  br i1 %33, label %34, label %37

34:                                               ; preds = %27
  %35 = getelementptr inbounds %"class.std::__1::basic_string", %"class.std::__1::basic_string"* %2, i64 0, i32 0, i32 0, i32 0, i32 0, i32 0, i32 0
  %36 = load i8*, i8** %35, align 8
  call void @_ZdlPv(i8* %36) #9
  br label %37

37:                                               ; preds = %27, %34
  call void @llvm.lifetime.end.p0i8(i64 24, i8* nonnull %3) #7
  ret void
}

declare void @_ZN18PrefRegistrySimple19RegisterIntegerPrefERKNSt3__112basic_stringIcNS0_11char_traitsIcEENS0_9allocatorIcEEEEij(%class.PrefRegistrySimple*, %"class.std::__1::basic_string"* dereferenceable(24), i32, i32) local_unnamed_addr #1

; Function Attrs: argmemonly nounwind
declare void @llvm.lifetime.start.p0i8(i64 immarg, i8* nocapture) #2

; Function Attrs: argmemonly nounwind
declare void @llvm.lifetime.end.p0i8(i64 immarg, i8* nocapture) #2

; Function Attrs: nounwind ssp uwtable
define hidden void @_ZN7metrics34RecordMetricsReportingDefaultStateEP11PrefServiceNS_20EnableMetricsDefaultE(%class.PrefService*, i32) local_unnamed_addr #0 {
  %3 = alloca %"class.std::__1::basic_string", align 8
  %4 = bitcast %"class.std::__1::basic_string"* %3 to i8*
  call void @llvm.lifetime.start.p0i8(i64 24, i8* nonnull %4) #7
  %5 = tail call i64 @strlen(i8* getelementptr inbounds ([0 x i8], [0 x i8]* @_ZN7metrics5prefs20kMetricsDefaultOptInE, i64 0, i64 0)) #7
  %6 = icmp ugt i64 %5, -17
  br i1 %6, label %7, label %9

7:                                                ; preds = %2
  %8 = bitcast %"class.std::__1::basic_string"* %3 to %"class.std::__1::__basic_string_common"*
  call void @_ZNKSt3__121__basic_string_commonILb1EE20__throw_length_errorEv(%"class.std::__1::__basic_string_common"* nonnull %8) #8
  unreachable

9:                                                ; preds = %2
  %10 = icmp ult i64 %5, 23
  br i1 %10, label %20, label %11

11:                                               ; preds = %9
  %12 = add nuw i64 %5, 16
  %13 = and i64 %12, -16
  %14 = tail call i8* @_Znwm(i64 %13) #9
  %15 = getelementptr inbounds %"class.std::__1::basic_string", %"class.std::__1::basic_string"* %3, i64 0, i32 0, i32 0, i32 0, i32 0, i32 0, i32 0
  store i8* %14, i8** %15, align 8
  %16 = or i64 %13, -9223372036854775808
  %17 = getelementptr inbounds %"class.std::__1::basic_string", %"class.std::__1::basic_string"* %3, i64 0, i32 0, i32 0, i32 0, i32 0, i32 0, i32 2
  store i64 %16, i64* %17, align 8
  %18 = getelementptr inbounds %"class.std::__1::basic_string", %"class.std::__1::basic_string"* %3, i64 0, i32 0, i32 0, i32 0, i32 0, i32 0, i32 1
  store i64 %5, i64* %18, align 8
  %19 = bitcast %"class.std::__1::basic_string"* %3 to %"struct.std::__1::basic_string<char, std::__1::char_traits<char>, std::__1::allocator<char> >::__short"*
  br label %25

20:                                               ; preds = %9
  %21 = trunc i64 %5 to i8
  %22 = bitcast %"class.std::__1::basic_string"* %3 to %"struct.std::__1::basic_string<char, std::__1::char_traits<char>, std::__1::allocator<char> >::__short"*
  %23 = getelementptr inbounds %"struct.std::__1::basic_string<char, std::__1::char_traits<char>, std::__1::allocator<char> >::__short", %"struct.std::__1::basic_string<char, std::__1::char_traits<char>, std::__1::allocator<char> >::__short"* %22, i64 0, i32 1, i32 0
  store i8 %21, i8* %23, align 1
  %24 = icmp eq i64 %5, 0
  br i1 %24, label %28, label %25

25:                                               ; preds = %20, %11
  %26 = phi %"struct.std::__1::basic_string<char, std::__1::char_traits<char>, std::__1::allocator<char> >::__short"* [ %22, %20 ], [ %19, %11 ]
  %27 = phi i8* [ %4, %20 ], [ %14, %11 ]
  call void @llvm.memcpy.p0i8.p0i8.i64(i8* nonnull align 1 %27, i8* align 1 getelementptr inbounds ([0 x i8], [0 x i8]* @_ZN7metrics5prefs20kMetricsDefaultOptInE, i64 0, i64 0), i64 %5, i1 false) #7
  br label %28

28:                                               ; preds = %20, %25
  %29 = phi %"struct.std::__1::basic_string<char, std::__1::char_traits<char>, std::__1::allocator<char> >::__short"* [ %22, %20 ], [ %26, %25 ]
  %30 = phi i8* [ %4, %20 ], [ %27, %25 ]
  %31 = getelementptr inbounds i8, i8* %30, i64 %5
  store i8 0, i8* %31, align 1
  call void @_ZN11PrefService10SetIntegerERKNSt3__112basic_stringIcNS0_11char_traitsIcEENS0_9allocatorIcEEEEi(%class.PrefService* %0, %"class.std::__1::basic_string"* nonnull dereferenceable(24) %3, i32 %1) #7
  %32 = getelementptr inbounds %"struct.std::__1::basic_string<char, std::__1::char_traits<char>, std::__1::allocator<char> >::__short", %"struct.std::__1::basic_string<char, std::__1::char_traits<char>, std::__1::allocator<char> >::__short"* %29, i64 0, i32 1, i32 0
  %33 = load i8, i8* %32, align 1
  %34 = icmp slt i8 %33, 0
  br i1 %34, label %35, label %38

35:                                               ; preds = %28
  %36 = getelementptr inbounds %"class.std::__1::basic_string", %"class.std::__1::basic_string"* %3, i64 0, i32 0, i32 0, i32 0, i32 0, i32 0, i32 0
  %37 = load i8*, i8** %36, align 8
  call void @_ZdlPv(i8* %37) #9
  br label %38

38:                                               ; preds = %28, %35
  call void @llvm.lifetime.end.p0i8(i64 24, i8* nonnull %4) #7
  ret void
}

declare void @_ZN11PrefService10SetIntegerERKNSt3__112basic_stringIcNS0_11char_traitsIcEENS0_9allocatorIcEEEEi(%class.PrefService*, %"class.std::__1::basic_string"* dereferenceable(24), i32) local_unnamed_addr #1

; Function Attrs: nounwind ssp uwtable
define hidden void @_ZN7metrics39ForceRecordMetricsReportingDefaultStateEP11PrefServiceNS_20EnableMetricsDefaultE(%class.PrefService*, i32) local_unnamed_addr #0 {
  %3 = alloca %"class.std::__1::basic_string", align 8
  %4 = bitcast %"class.std::__1::basic_string"* %3 to i8*
  call void @llvm.lifetime.start.p0i8(i64 24, i8* nonnull %4) #7
  %5 = tail call i64 @strlen(i8* getelementptr inbounds ([0 x i8], [0 x i8]* @_ZN7metrics5prefs20kMetricsDefaultOptInE, i64 0, i64 0)) #7
  %6 = icmp ugt i64 %5, -17
  br i1 %6, label %7, label %9

7:                                                ; preds = %2
  %8 = bitcast %"class.std::__1::basic_string"* %3 to %"class.std::__1::__basic_string_common"*
  call void @_ZNKSt3__121__basic_string_commonILb1EE20__throw_length_errorEv(%"class.std::__1::__basic_string_common"* nonnull %8) #8
  unreachable

9:                                                ; preds = %2
  %10 = icmp ult i64 %5, 23
  br i1 %10, label %20, label %11

11:                                               ; preds = %9
  %12 = add nuw i64 %5, 16
  %13 = and i64 %12, -16
  %14 = tail call i8* @_Znwm(i64 %13) #9
  %15 = getelementptr inbounds %"class.std::__1::basic_string", %"class.std::__1::basic_string"* %3, i64 0, i32 0, i32 0, i32 0, i32 0, i32 0, i32 0
  store i8* %14, i8** %15, align 8
  %16 = or i64 %13, -9223372036854775808
  %17 = getelementptr inbounds %"class.std::__1::basic_string", %"class.std::__1::basic_string"* %3, i64 0, i32 0, i32 0, i32 0, i32 0, i32 0, i32 2
  store i64 %16, i64* %17, align 8
  %18 = getelementptr inbounds %"class.std::__1::basic_string", %"class.std::__1::basic_string"* %3, i64 0, i32 0, i32 0, i32 0, i32 0, i32 0, i32 1
  store i64 %5, i64* %18, align 8
  %19 = bitcast %"class.std::__1::basic_string"* %3 to %"struct.std::__1::basic_string<char, std::__1::char_traits<char>, std::__1::allocator<char> >::__short"*
  br label %25

20:                                               ; preds = %9
  %21 = trunc i64 %5 to i8
  %22 = bitcast %"class.std::__1::basic_string"* %3 to %"struct.std::__1::basic_string<char, std::__1::char_traits<char>, std::__1::allocator<char> >::__short"*
  %23 = getelementptr inbounds %"struct.std::__1::basic_string<char, std::__1::char_traits<char>, std::__1::allocator<char> >::__short", %"struct.std::__1::basic_string<char, std::__1::char_traits<char>, std::__1::allocator<char> >::__short"* %22, i64 0, i32 1, i32 0
  store i8 %21, i8* %23, align 1
  %24 = icmp eq i64 %5, 0
  br i1 %24, label %28, label %25

25:                                               ; preds = %20, %11
  %26 = phi %"struct.std::__1::basic_string<char, std::__1::char_traits<char>, std::__1::allocator<char> >::__short"* [ %22, %20 ], [ %19, %11 ]
  %27 = phi i8* [ %4, %20 ], [ %14, %11 ]
  call void @llvm.memcpy.p0i8.p0i8.i64(i8* nonnull align 1 %27, i8* align 1 getelementptr inbounds ([0 x i8], [0 x i8]* @_ZN7metrics5prefs20kMetricsDefaultOptInE, i64 0, i64 0), i64 %5, i1 false) #7
  br label %28

28:                                               ; preds = %20, %25
  %29 = phi %"struct.std::__1::basic_string<char, std::__1::char_traits<char>, std::__1::allocator<char> >::__short"* [ %22, %20 ], [ %26, %25 ]
  %30 = phi i8* [ %4, %20 ], [ %27, %25 ]
  %31 = getelementptr inbounds i8, i8* %30, i64 %5
  store i8 0, i8* %31, align 1
  call void @_ZN11PrefService10SetIntegerERKNSt3__112basic_stringIcNS0_11char_traitsIcEENS0_9allocatorIcEEEEi(%class.PrefService* %0, %"class.std::__1::basic_string"* nonnull dereferenceable(24) %3, i32 %1) #7
  %32 = getelementptr inbounds %"struct.std::__1::basic_string<char, std::__1::char_traits<char>, std::__1::allocator<char> >::__short", %"struct.std::__1::basic_string<char, std::__1::char_traits<char>, std::__1::allocator<char> >::__short"* %29, i64 0, i32 1, i32 0
  %33 = load i8, i8* %32, align 1
  %34 = icmp slt i8 %33, 0
  br i1 %34, label %35, label %38

35:                                               ; preds = %28
  %36 = getelementptr inbounds %"class.std::__1::basic_string", %"class.std::__1::basic_string"* %3, i64 0, i32 0, i32 0, i32 0, i32 0, i32 0, i32 0
  %37 = load i8*, i8** %36, align 8
  call void @_ZdlPv(i8* %37) #9
  br label %38

38:                                               ; preds = %28, %35
  call void @llvm.lifetime.end.p0i8(i64 24, i8* nonnull %4) #7
  ret void
}

; Function Attrs: nounwind ssp uwtable
define hidden i32 @_ZN7metrics31GetMetricsReportingDefaultStateEP11PrefService(%class.PrefService*) local_unnamed_addr #0 {
  %2 = alloca %"class.std::__1::basic_string", align 8
  %3 = bitcast %"class.std::__1::basic_string"* %2 to i8*
  call void @llvm.lifetime.start.p0i8(i64 24, i8* nonnull %3) #7
  %4 = tail call i64 @strlen(i8* getelementptr inbounds ([0 x i8], [0 x i8]* @_ZN7metrics5prefs20kMetricsDefaultOptInE, i64 0, i64 0)) #7
  %5 = icmp ugt i64 %4, -17
  br i1 %5, label %6, label %8

6:                                                ; preds = %1
  %7 = bitcast %"class.std::__1::basic_string"* %2 to %"class.std::__1::__basic_string_common"*
  call void @_ZNKSt3__121__basic_string_commonILb1EE20__throw_length_errorEv(%"class.std::__1::__basic_string_common"* nonnull %7) #8
  unreachable

8:                                                ; preds = %1
  %9 = icmp ult i64 %4, 23
  br i1 %9, label %19, label %10

10:                                               ; preds = %8
  %11 = add nuw i64 %4, 16
  %12 = and i64 %11, -16
  %13 = tail call i8* @_Znwm(i64 %12) #9
  %14 = getelementptr inbounds %"class.std::__1::basic_string", %"class.std::__1::basic_string"* %2, i64 0, i32 0, i32 0, i32 0, i32 0, i32 0, i32 0
  store i8* %13, i8** %14, align 8
  %15 = or i64 %12, -9223372036854775808
  %16 = getelementptr inbounds %"class.std::__1::basic_string", %"class.std::__1::basic_string"* %2, i64 0, i32 0, i32 0, i32 0, i32 0, i32 0, i32 2
  store i64 %15, i64* %16, align 8
  %17 = getelementptr inbounds %"class.std::__1::basic_string", %"class.std::__1::basic_string"* %2, i64 0, i32 0, i32 0, i32 0, i32 0, i32 0, i32 1
  store i64 %4, i64* %17, align 8
  %18 = bitcast %"class.std::__1::basic_string"* %2 to %"struct.std::__1::basic_string<char, std::__1::char_traits<char>, std::__1::allocator<char> >::__short"*
  br label %24

19:                                               ; preds = %8
  %20 = trunc i64 %4 to i8
  %21 = bitcast %"class.std::__1::basic_string"* %2 to %"struct.std::__1::basic_string<char, std::__1::char_traits<char>, std::__1::allocator<char> >::__short"*
  %22 = getelementptr inbounds %"struct.std::__1::basic_string<char, std::__1::char_traits<char>, std::__1::allocator<char> >::__short", %"struct.std::__1::basic_string<char, std::__1::char_traits<char>, std::__1::allocator<char> >::__short"* %21, i64 0, i32 1, i32 0
  store i8 %20, i8* %22, align 1
  %23 = icmp eq i64 %4, 0
  br i1 %23, label %27, label %24

24:                                               ; preds = %19, %10
  %25 = phi %"struct.std::__1::basic_string<char, std::__1::char_traits<char>, std::__1::allocator<char> >::__short"* [ %21, %19 ], [ %18, %10 ]
  %26 = phi i8* [ %3, %19 ], [ %13, %10 ]
  call void @llvm.memcpy.p0i8.p0i8.i64(i8* nonnull align 1 %26, i8* align 1 getelementptr inbounds ([0 x i8], [0 x i8]* @_ZN7metrics5prefs20kMetricsDefaultOptInE, i64 0, i64 0), i64 %4, i1 false) #7
  br label %27

27:                                               ; preds = %19, %24
  %28 = phi %"struct.std::__1::basic_string<char, std::__1::char_traits<char>, std::__1::allocator<char> >::__short"* [ %21, %19 ], [ %25, %24 ]
  %29 = phi i8* [ %3, %19 ], [ %26, %24 ]
  %30 = getelementptr inbounds i8, i8* %29, i64 %4
  store i8 0, i8* %30, align 1
  %31 = call i32 @_ZNK11PrefService10GetIntegerERKNSt3__112basic_stringIcNS0_11char_traitsIcEENS0_9allocatorIcEEEE(%class.PrefService* %0, %"class.std::__1::basic_string"* nonnull dereferenceable(24) %2) #7
  %32 = getelementptr inbounds %"struct.std::__1::basic_string<char, std::__1::char_traits<char>, std::__1::allocator<char> >::__short", %"struct.std::__1::basic_string<char, std::__1::char_traits<char>, std::__1::allocator<char> >::__short"* %28, i64 0, i32 1, i32 0
  %33 = load i8, i8* %32, align 1
  %34 = icmp slt i8 %33, 0
  br i1 %34, label %35, label %38

35:                                               ; preds = %27
  %36 = getelementptr inbounds %"class.std::__1::basic_string", %"class.std::__1::basic_string"* %2, i64 0, i32 0, i32 0, i32 0, i32 0, i32 0, i32 0
  %37 = load i8*, i8** %36, align 8
  call void @_ZdlPv(i8* %37) #9
  br label %38

38:                                               ; preds = %27, %35
  call void @llvm.lifetime.end.p0i8(i64 24, i8* nonnull %3) #7
  ret i32 %31
}

declare i32 @_ZNK11PrefService10GetIntegerERKNSt3__112basic_stringIcNS0_11char_traitsIcEENS0_9allocatorIcEEEE(%class.PrefService*, %"class.std::__1::basic_string"* dereferenceable(24)) local_unnamed_addr #1

; Function Attrs: nobuiltin nounwind
declare void @_ZdlPv(i8*) local_unnamed_addr #3

; Function Attrs: noreturn
declare void @_ZNKSt3__121__basic_string_commonILb1EE20__throw_length_errorEv(%"class.std::__1::__basic_string_common"*) local_unnamed_addr #4

; Function Attrs: nobuiltin nofree
declare noalias nonnull i8* @_Znwm(i64) local_unnamed_addr #5

; Function Attrs: argmemonly nounwind
declare void @llvm.memcpy.p0i8.p0i8.i64(i8* nocapture writeonly, i8* nocapture readonly, i64, i1 immarg) #2

; Function Attrs: argmemonly nofree nounwind readonly
declare i64 @strlen(i8* nocapture) local_unnamed_addr #6

attributes #0 = { nounwind ssp uwtable "correctly-rounded-divide-sqrt-fp-math"="false" "disable-tail-calls"="false" "less-precise-fpmad"="false" "min-legal-vector-width"="0" "no-frame-pointer-elim"="false" "no-frame-pointer-elim-non-leaf" "no-infs-fp-math"="false" "no-jump-tables"="false" "no-nans-fp-math"="false" "no-signed-zeros-fp-math"="false" "no-trapping-math"="false" "null-pointer-is-valid"="true" "stack-protector-buffer-size"="4" "target-cpu"="x86-64" "target-features"="+cx8,+fxsr,+mmx,+sse,+sse2,+sse3,+x87" "unsafe-fp-math"="false" "use-soft-float"="false" }
attributes #1 = { "correctly-rounded-divide-sqrt-fp-math"="false" "disable-tail-calls"="false" "less-precise-fpmad"="false" "no-frame-pointer-elim"="false" "no-frame-pointer-elim-non-leaf" "no-infs-fp-math"="false" "no-nans-fp-math"="false" "no-signed-zeros-fp-math"="false" "no-trapping-math"="false" "null-pointer-is-valid"="true" "stack-protector-buffer-size"="4" "target-cpu"="x86-64" "target-features"="+cx8,+fxsr,+mmx,+sse,+sse2,+sse3,+x87" "unsafe-fp-math"="false" "use-soft-float"="false" }
attributes #2 = { argmemonly nounwind }
attributes #3 = { nobuiltin nounwind "correctly-rounded-divide-sqrt-fp-math"="false" "disable-tail-calls"="false" "less-precise-fpmad"="false" "no-frame-pointer-elim"="false" "no-frame-pointer-elim-non-leaf" "no-infs-fp-math"="false" "no-nans-fp-math"="false" "no-signed-zeros-fp-math"="false" "no-trapping-math"="false" "null-pointer-is-valid"="true" "stack-protector-buffer-size"="4" "target-cpu"="x86-64" "target-features"="+cx8,+fxsr,+mmx,+sse,+sse2,+sse3,+x87" "unsafe-fp-math"="false" "use-soft-float"="false" }
attributes #4 = { noreturn "correctly-rounded-divide-sqrt-fp-math"="false" "disable-tail-calls"="false" "less-precise-fpmad"="false" "no-frame-pointer-elim"="false" "no-frame-pointer-elim-non-leaf" "no-infs-fp-math"="false" "no-nans-fp-math"="false" "no-signed-zeros-fp-math"="false" "no-trapping-math"="false" "null-pointer-is-valid"="true" "stack-protector-buffer-size"="4" "target-cpu"="x86-64" "target-features"="+cx8,+fxsr,+mmx,+sse,+sse2,+sse3,+x87" "unsafe-fp-math"="false" "use-soft-float"="false" }
attributes #5 = { nobuiltin nofree "correctly-rounded-divide-sqrt-fp-math"="false" "disable-tail-calls"="false" "less-precise-fpmad"="false" "no-frame-pointer-elim"="false" "no-frame-pointer-elim-non-leaf" "no-infs-fp-math"="false" "no-nans-fp-math"="false" "no-signed-zeros-fp-math"="false" "no-trapping-math"="false" "null-pointer-is-valid"="true" "stack-protector-buffer-size"="4" "target-cpu"="x86-64" "target-features"="+cx8,+fxsr,+mmx,+sse,+sse2,+sse3,+x87" "unsafe-fp-math"="false" "use-soft-float"="false" }
attributes #6 = { argmemonly nofree nounwind readonly "correctly-rounded-divide-sqrt-fp-math"="false" "disable-tail-calls"="false" "less-precise-fpmad"="false" "no-frame-pointer-elim"="false" "no-frame-pointer-elim-non-leaf" "no-infs-fp-math"="false" "no-nans-fp-math"="false" "no-signed-zeros-fp-math"="false" "no-trapping-math"="false" "null-pointer-is-valid"="true" "stack-protector-buffer-size"="4" "target-cpu"="x86-64" "target-features"="+cx8,+fxsr,+mmx,+sse,+sse2,+sse3,+x87" "unsafe-fp-math"="false" "use-soft-float"="false" }
attributes #7 = { nounwind }
attributes #8 = { noreturn nounwind }
attributes #9 = { builtin nounwind }

!llvm.module.flags = !{!0, !1}

!0 = !{i32 1, !"wchar_size", i32 4}
!1 = !{i32 7, !"PIC Level", i32 2}
