; ModuleID = 'gen/third_party/blink/public/mojom/mime/mime_registry.mojom.cc'
source_filename = "gen/third_party/blink/public/mojom/mime/mime_registry.mojom.cc"
target datalayout = "e-m:e-i64:64-f80:128-n8:16:32:64-S128"
target triple = "x86_64-unknown-linux-gnu"

module asm ".symver exp, exp@GLIBC_2.2.5"
module asm ".symver exp2, exp2@GLIBC_2.2.5"
module asm ".symver exp2f, exp2f@GLIBC_2.2.5"
module asm ".symver expf, expf@GLIBC_2.2.5"
module asm ".symver lgamma, lgamma@GLIBC_2.2.5"
module asm ".symver lgammaf, lgammaf@GLIBC_2.2.5"
module asm ".symver lgammal, lgammal@GLIBC_2.2.5"
module asm ".symver log, log@GLIBC_2.2.5"
module asm ".symver log2, log2@GLIBC_2.2.5"
module asm ".symver log2f, log2f@GLIBC_2.2.5"
module asm ".symver logf, logf@GLIBC_2.2.5"
module asm ".symver pow, pow@GLIBC_2.2.5"
module asm ".symver powf, powf@GLIBC_2.2.5"

%"struct.mojo::internal::GenericValidationInfo" = type { i1 (i8*, %"class.mojo::internal::ValidationContext"*)*, i1 (i8*, %"class.mojo::internal::ValidationContext"*)* }
%"class.mojo::internal::ValidationContext" = type <{ %"class.mojo::Message"*, i8*, i32, [4 x i8], i64, i64, i32, i32, i32, i32, i32, [4 x i8] }>
%"class.mojo::Message" = type { %"class.mojo::ScopedHandleBase", %"class.mojo::internal::Buffer", %"class.std::__1::vector", %"class.std::__1::vector.7", %"class.mojo::ConnectionGroup::Ref"*, i8, i8, i8* }
%"class.mojo::ScopedHandleBase" = type { %"class.mojo::MessageHandle" }
%"class.mojo::MessageHandle" = type { i64 }
%"class.mojo::internal::Buffer" = type { %"class.mojo::MessageHandle", i64, i8*, i64, i64 }
%"class.std::__1::vector" = type { %"class.std::__1::__vector_base" }
%"class.std::__1::__vector_base" = type { %"class.mojo::ScopedHandleBase.1"*, %"class.mojo::ScopedHandleBase.1"*, %"class.std::__1::__compressed_pair.2" }
%"class.mojo::ScopedHandleBase.1" = type { %"class.mojo::Handle" }
%"class.mojo::Handle" = type { i32 }
%"class.std::__1::__compressed_pair.2" = type { %"struct.std::__1::__compressed_pair_elem.3" }
%"struct.std::__1::__compressed_pair_elem.3" = type { %"class.mojo::ScopedHandleBase.1"* }
%"class.std::__1::vector.7" = type { %"class.std::__1::__vector_base.8" }
%"class.std::__1::__vector_base.8" = type { %"class.mojo::ScopedInterfaceEndpointHandle"*, %"class.mojo::ScopedInterfaceEndpointHandle"*, %"class.std::__1::__compressed_pair.9" }
%"class.mojo::ScopedInterfaceEndpointHandle" = type { %class.scoped_refptr }
%class.scoped_refptr = type { %"class.mojo::ScopedInterfaceEndpointHandle::State"* }
%"class.mojo::ScopedInterfaceEndpointHandle::State" = type opaque
%"class.std::__1::__compressed_pair.9" = type { %"struct.std::__1::__compressed_pair_elem.10" }
%"struct.std::__1::__compressed_pair_elem.10" = type { %"class.mojo::ScopedInterfaceEndpointHandle"* }
%"class.mojo::ConnectionGroup::Ref" = type { i32, %class.scoped_refptr.14 }
%class.scoped_refptr.14 = type { %"class.mojo::ConnectionGroup"* }
%"class.mojo::ConnectionGroup" = type <{ i32 (...)**, %"class.base::RefCountedThreadSafe", [4 x i8], %"class.base::RepeatingCallback", %class.scoped_refptr.18, %"class.mojo::ConnectionGroup::Ref", %"struct.std::__1::atomic.20", [4 x i8] }>
%"class.base::RefCountedThreadSafe" = type { %"class.base::subtle::RefCountedThreadSafeBase" }
%"class.base::subtle::RefCountedThreadSafeBase" = type { %"class.base::AtomicRefCount" }
%"class.base::AtomicRefCount" = type { %"struct.std::__1::atomic" }
%"struct.std::__1::atomic" = type { %"struct.std::__1::__atomic_base" }
%"struct.std::__1::__atomic_base" = type { %"struct.std::__1::__atomic_base.15" }
%"struct.std::__1::__atomic_base.15" = type { %"struct.std::__1::__cxx_atomic_impl" }
%"struct.std::__1::__cxx_atomic_impl" = type { %"struct.std::__1::__cxx_atomic_base_impl" }
%"struct.std::__1::__cxx_atomic_base_impl" = type { i32 }
%"class.base::RepeatingCallback" = type { %"class.base::internal::CallbackBaseCopyable" }
%"class.base::internal::CallbackBaseCopyable" = type { %"class.base::internal::CallbackBase" }
%"class.base::internal::CallbackBase" = type { %class.scoped_refptr.16 }
%class.scoped_refptr.16 = type { %"class.base::internal::BindStateBase"* }
%"class.base::internal::BindStateBase" = type { %"class.base::RefCountedThreadSafe.17", void ()*, void (%"class.base::internal::BindStateBase"*)*, i1 (%"class.base::internal::BindStateBase"*, i32)* }
%"class.base::RefCountedThreadSafe.17" = type { %"class.base::subtle::RefCountedThreadSafeBase" }
%class.scoped_refptr.18 = type { %"class.base::SequencedTaskRunner"* }
%"class.base::SequencedTaskRunner" = type { %"class.base::TaskRunner.base", [4 x i8] }
%"class.base::TaskRunner.base" = type <{ i32 (...)**, %"class.base::RefCountedThreadSafe.19" }>
%"class.base::RefCountedThreadSafe.19" = type { %"class.base::subtle::RefCountedThreadSafeBase" }
%"struct.std::__1::atomic.20" = type { %"struct.std::__1::__atomic_base.21" }
%"struct.std::__1::__atomic_base.21" = type { %"struct.std::__1::__atomic_base.22" }
%"struct.std::__1::__atomic_base.22" = type { %"struct.std::__1::__cxx_atomic_impl.23" }
%"struct.std::__1::__cxx_atomic_impl.23" = type { %"struct.std::__1::__cxx_atomic_base_impl.24" }
%"struct.std::__1::__cxx_atomic_base_impl.24" = type { i32 }
%"class.blink::mojom::MimeRegistryProxy" = type { %"class.blink::mojom::MimeRegistry", %"class.mojo::MessageReceiverWithResponder"* }
%"class.blink::mojom::MimeRegistry" = type { i32 (...)** }
%"class.mojo::MessageReceiverWithResponder" = type { %"class.mojo::MessageReceiver" }
%"class.mojo::MessageReceiver" = type { i32 (...)** }
%"class.std::__1::basic_string" = type { %"class.std::__1::__compressed_pair" }
%"class.std::__1::__compressed_pair" = type { %"struct.std::__1::__compressed_pair_elem" }
%"struct.std::__1::__compressed_pair_elem" = type { %"struct.std::__1::basic_string<char, std::__1::char_traits<char>, std::__1::allocator<char> >::__rep" }
%"struct.std::__1::basic_string<char, std::__1::char_traits<char>, std::__1::allocator<char> >::__rep" = type { %union.anon }
%union.anon = type { %"struct.std::__1::basic_string<char, std::__1::char_traits<char>, std::__1::allocator<char> >::__long" }
%"struct.std::__1::basic_string<char, std::__1::char_traits<char>, std::__1::allocator<char> >::__long" = type { i8*, i64, i64 }
%"class.mojo::internal::MessageFragment.25" = type { %"class.mojo::Message"*, i64 }
%"class.blink::mojom::internal::MimeRegistry_GetMimeTypeFromExtension_Params_Data" = type { %"struct.mojo::internal::StructHeader", %"struct.mojo::internal::Pointer" }
%"struct.mojo::internal::StructHeader" = type { i32, i32 }
%"struct.mojo::internal::Pointer" = type { i64 }
%"class.mojo::internal::Array_Data" = type { %"struct.mojo::internal::ArrayHeader" }
%"struct.mojo::internal::ArrayHeader" = type { i32, i32 }
%"class.base::OnceCallback" = type { %"class.base::internal::CallbackBase" }
%"class.blink::mojom::MimeRegistry_GetMimeTypeFromExtension_ForwardToCallback" = type { %"class.mojo::MessageReceiver", %"class.base::OnceCallback" }
%"struct.std::__1::basic_string<char, std::__1::char_traits<char>, std::__1::allocator<char> >::__short" = type { [23 x i8], %struct.anon }
%struct.anon = type { i8 }
%"class.blink::mojom::MimeRegistry_GetMimeTypeFromExtension_ProxyToResponder" = type { i64, i8, %"class.std::__1::unique_ptr.29" }
%"class.std::__1::unique_ptr.29" = type { %"class.std::__1::__compressed_pair.30" }
%"class.std::__1::__compressed_pair.30" = type { %"struct.std::__1::__compressed_pair_elem.31" }
%"struct.std::__1::__compressed_pair_elem.31" = type { %"class.mojo::MessageReceiverWithStatus"* }
%"class.mojo::MessageReceiverWithStatus" = type { %"class.mojo::MessageReceiver" }
%"class.blink::mojom::internal::MimeRegistry_GetMimeTypeFromExtension_ResponseParams_Data" = type { %"struct.mojo::internal::StructHeader", %"struct.mojo::internal::Pointer" }
%"struct.mojo::internal::MessageHeaderV1" = type { %"struct.mojo::internal::MessageHeader", i64 }
%"struct.mojo::internal::MessageHeader" = type { %"struct.mojo::internal::StructHeader", i32, i32, i32, i32 }
%"class.blink::mojom::MimeRegistry_GetMimeTypeFromExtension_HandleSyncResponse" = type { %"class.mojo::MessageReceiver", i8*, %"class.std::__1::basic_string"* }
%"class.base::TaskAnnotator::ScopedSetIpcHash" = type { %"class.base::TaskAnnotator::ScopedSetIpcHash"*, i32, i8* }
%"class.blink::mojom::MimeRegistryRequestValidator" = type { %"class.mojo::MessageReceiver" }
%"class.blink::mojom::MimeRegistryResponseValidator" = type { %"class.mojo::MessageReceiver" }

$_ZN5blink5mojom12MimeRegistryD0Ev = comdat any

$_ZN5blink5mojom56MimeRegistry_GetMimeTypeFromExtension_HandleSyncResponseD0Ev = comdat any

$_ZN5blink5mojom55MimeRegistry_GetMimeTypeFromExtension_ForwardToCallbackD2Ev = comdat any

$_ZN5blink5mojom55MimeRegistry_GetMimeTypeFromExtension_ForwardToCallbackD0Ev = comdat any

$_ZN5blink5mojom12MimeRegistryD2Ev = comdat any

$_ZN5blink5mojom17MimeRegistryProxyD0Ev = comdat any

$_ZN5blink5mojom28MimeRegistryRequestValidatorD0Ev = comdat any

$_ZN4mojo15MessageReceiverD2Ev = comdat any

$_ZN5blink5mojom29MimeRegistryResponseValidatorD0Ev = comdat any

$_ZN4base8internal7InvokerINS0_9BindStateIMN5blink5mojom54MimeRegistry_GetMimeTypeFromExtension_ProxyToResponderEFvRKNSt3__112basic_stringIcNS6_11char_traitsIcEENS6_9allocatorIcEEEEEJNS6_10unique_ptrIS5_NS6_14default_deleteIS5_EEEEEEEFvSE_EE7RunOnceEPNS0_13BindStateBaseESE_ = comdat any

$_ZN4base8internal9BindStateIMN5blink5mojom54MimeRegistry_GetMimeTypeFromExtension_ProxyToResponderEFvRKNSt3__112basic_stringIcNS5_11char_traitsIcEENS5_9allocatorIcEEEEEJNS5_10unique_ptrIS4_NS5_14default_deleteIS4_EEEEEE7DestroyEPKNS0_13BindStateBaseE = comdat any

$_ZN4mojo8internal10SerializerINS_14StringDataViewEKNSt3__112basic_stringIcNS3_11char_traitsIcEENS3_9allocatorIcEEEEE9SerializeERSA_RNS0_15MessageFragmentINS0_10Array_DataIcEEEE = comdat any

@_ZN5blink5mojom12MimeRegistry5Name_E = hidden constant [25 x i8] c"blink.mojom.MimeRegistry\00", align 16
@_ZTVN5blink5mojom17MimeRegistryProxyE = hidden unnamed_addr constant { [6 x i8*] } { [6 x i8*] [i8* null, i8* null, i8* bitcast (void (%"class.blink::mojom::MimeRegistry"*)* @_ZN5blink5mojom12MimeRegistryD2Ev to i8*), i8* bitcast (void (%"class.blink::mojom::MimeRegistryProxy"*)* @_ZN5blink5mojom17MimeRegistryProxyD0Ev to i8*), i8* bitcast (i1 (%"class.blink::mojom::MimeRegistryProxy"*, %"class.std::__1::basic_string"*, %"class.std::__1::basic_string"*)* @_ZN5blink5mojom17MimeRegistryProxy24GetMimeTypeFromExtensionERKNSt3__112basic_stringIcNS2_11char_traitsIcEENS2_9allocatorIcEEEEPS8_ to i8*), i8* bitcast (void (%"class.blink::mojom::MimeRegistryProxy"*, %"class.std::__1::basic_string"*, %"class.base::OnceCallback"*)* @_ZN5blink5mojom17MimeRegistryProxy24GetMimeTypeFromExtensionERKNSt3__112basic_stringIcNS2_11char_traitsIcEENS2_9allocatorIcEEEEN4base12OnceCallbackIFvSA_EEE to i8*)] }, align 8
@_ZN5blink5mojomL27kMimeRegistryValidationInfoE = internal constant [1 x %"struct.mojo::internal::GenericValidationInfo"] [%"struct.mojo::internal::GenericValidationInfo" { i1 (i8*, %"class.mojo::internal::ValidationContext"*)* @_ZN5blink5mojom8internal49MimeRegistry_GetMimeTypeFromExtension_Params_Data8ValidateEPKvPN4mojo8internal17ValidationContextE, i1 (i8*, %"class.mojo::internal::ValidationContext"*)* @_ZN5blink5mojom8internal57MimeRegistry_GetMimeTypeFromExtension_ResponseParams_Data8ValidateEPKvPN4mojo8internal17ValidationContextE }], align 16
@_ZTVN5blink5mojom12MimeRegistryE = hidden unnamed_addr constant { [6 x i8*] } { [6 x i8*] [i8* null, i8* null, i8* bitcast (void (%"class.blink::mojom::MimeRegistry"*)* @_ZN5blink5mojom12MimeRegistryD2Ev to i8*), i8* bitcast (void (%"class.blink::mojom::MimeRegistry"*)* @_ZN5blink5mojom12MimeRegistryD0Ev to i8*), i8* bitcast (i1 (%"class.blink::mojom::MimeRegistry"*, %"class.std::__1::basic_string"*, %"class.std::__1::basic_string"*)* @_ZN5blink5mojom12MimeRegistry24GetMimeTypeFromExtensionERKNSt3__112basic_stringIcNS2_11char_traitsIcEENS2_9allocatorIcEEEEPS8_ to i8*), i8* bitcast (void ()* @__cxa_pure_virtual to i8*)] }, align 8
@_ZTVN5blink5mojom56MimeRegistry_GetMimeTypeFromExtension_HandleSyncResponseE = hidden unnamed_addr constant { [6 x i8*] } { [6 x i8*] [i8* null, i8* null, i8* bitcast (void (%"class.mojo::MessageReceiver"*)* @_ZN4mojo15MessageReceiverD2Ev to i8*), i8* bitcast (void (%"class.blink::mojom::MimeRegistry_GetMimeTypeFromExtension_HandleSyncResponse"*)* @_ZN5blink5mojom56MimeRegistry_GetMimeTypeFromExtension_HandleSyncResponseD0Ev to i8*), i8* bitcast (i1 (%"class.mojo::MessageReceiver"*)* @_ZN4mojo15MessageReceiver25PrefersSerializedMessagesEv to i8*), i8* bitcast (i1 (%"class.blink::mojom::MimeRegistry_GetMimeTypeFromExtension_HandleSyncResponse"*, %"class.mojo::Message"*)* @_ZN5blink5mojom56MimeRegistry_GetMimeTypeFromExtension_HandleSyncResponse6AcceptEPN4mojo7MessageE to i8*)] }, align 8
@_ZTVN5blink5mojom55MimeRegistry_GetMimeTypeFromExtension_ForwardToCallbackE = hidden unnamed_addr constant { [6 x i8*] } { [6 x i8*] [i8* null, i8* null, i8* bitcast (void (%"class.blink::mojom::MimeRegistry_GetMimeTypeFromExtension_ForwardToCallback"*)* @_ZN5blink5mojom55MimeRegistry_GetMimeTypeFromExtension_ForwardToCallbackD2Ev to i8*), i8* bitcast (void (%"class.blink::mojom::MimeRegistry_GetMimeTypeFromExtension_ForwardToCallback"*)* @_ZN5blink5mojom55MimeRegistry_GetMimeTypeFromExtension_ForwardToCallbackD0Ev to i8*), i8* bitcast (i1 (%"class.mojo::MessageReceiver"*)* @_ZN4mojo15MessageReceiver25PrefersSerializedMessagesEv to i8*), i8* bitcast (i1 (%"class.blink::mojom::MimeRegistry_GetMimeTypeFromExtension_ForwardToCallback"*, %"class.mojo::Message"*)* @_ZN5blink5mojom55MimeRegistry_GetMimeTypeFromExtension_ForwardToCallback6AcceptEPN4mojo7MessageE to i8*)] }, align 8
@_ZTVN5blink5mojom28MimeRegistryRequestValidatorE = hidden unnamed_addr constant { [6 x i8*] } { [6 x i8*] [i8* null, i8* null, i8* bitcast (void (%"class.mojo::MessageReceiver"*)* @_ZN4mojo15MessageReceiverD2Ev to i8*), i8* bitcast (void (%"class.blink::mojom::MimeRegistryRequestValidator"*)* @_ZN5blink5mojom28MimeRegistryRequestValidatorD0Ev to i8*), i8* bitcast (i1 (%"class.mojo::MessageReceiver"*)* @_ZN4mojo15MessageReceiver25PrefersSerializedMessagesEv to i8*), i8* bitcast (i1 (%"class.blink::mojom::MimeRegistryRequestValidator"*, %"class.mojo::Message"*)* @_ZN5blink5mojom28MimeRegistryRequestValidator6AcceptEPN4mojo7MessageE to i8*)] }, align 8
@_ZTVN5blink5mojom29MimeRegistryResponseValidatorE = hidden unnamed_addr constant { [6 x i8*] } { [6 x i8*] [i8* null, i8* null, i8* bitcast (void (%"class.mojo::MessageReceiver"*)* @_ZN4mojo15MessageReceiverD2Ev to i8*), i8* bitcast (void (%"class.blink::mojom::MimeRegistryResponseValidator"*)* @_ZN5blink5mojom29MimeRegistryResponseValidatorD0Ev to i8*), i8* bitcast (i1 (%"class.mojo::MessageReceiver"*)* @_ZN4mojo15MessageReceiver25PrefersSerializedMessagesEv to i8*), i8* bitcast (i1 (%"class.blink::mojom::MimeRegistryResponseValidator"*, %"class.mojo::Message"*)* @_ZN5blink5mojom29MimeRegistryResponseValidator6AcceptEPN4mojo7MessageE to i8*)] }, align 8

@_ZN5blink5mojom17MimeRegistryProxyC1EPN4mojo28MessageReceiverWithResponderE = hidden unnamed_addr alias void (%"class.blink::mojom::MimeRegistryProxy"*, %"class.mojo::MessageReceiverWithResponder"*), void (%"class.blink::mojom::MimeRegistryProxy"*, %"class.mojo::MessageReceiverWithResponder"*)* @_ZN5blink5mojom17MimeRegistryProxyC2EPN4mojo28MessageReceiverWithResponderE

; Function Attrs: norecurse nounwind readnone ssp uwtable
define hidden zeroext i1 @_ZN5blink5mojom12MimeRegistry24GetMimeTypeFromExtensionERKNSt3__112basic_stringIcNS2_11char_traitsIcEENS2_9allocatorIcEEEEPS8_(%"class.blink::mojom::MimeRegistry"* nocapture readnone, %"class.std::__1::basic_string"* nocapture readnone dereferenceable(24), %"class.std::__1::basic_string"* nocapture readnone) unnamed_addr #0 align 2 {
  ret i1 false
}

; Function Attrs: nofree norecurse nounwind ssp uwtable writeonly
define hidden void @_ZN5blink5mojom17MimeRegistryProxyC2EPN4mojo28MessageReceiverWithResponderE(%"class.blink::mojom::MimeRegistryProxy"* nocapture, %"class.mojo::MessageReceiverWithResponder"*) unnamed_addr #1 align 2 {
  %3 = getelementptr inbounds %"class.blink::mojom::MimeRegistryProxy", %"class.blink::mojom::MimeRegistryProxy"* %0, i64 0, i32 0, i32 0
  store i32 (...)** bitcast (i8** getelementptr inbounds ({ [6 x i8*] }, { [6 x i8*] }* @_ZTVN5blink5mojom17MimeRegistryProxyE, i64 0, inrange i32 0, i64 2) to i32 (...)**), i32 (...)*** %3, align 8
  %4 = getelementptr inbounds %"class.blink::mojom::MimeRegistryProxy", %"class.blink::mojom::MimeRegistryProxy"* %0, i64 0, i32 1
  store %"class.mojo::MessageReceiverWithResponder"* %1, %"class.mojo::MessageReceiverWithResponder"** %4, align 8
  ret void
}

; Function Attrs: nounwind ssp uwtable
define hidden zeroext i1 @_ZN5blink5mojom17MimeRegistryProxy24GetMimeTypeFromExtensionERKNSt3__112basic_stringIcNS2_11char_traitsIcEENS2_9allocatorIcEEEEPS8_(%"class.blink::mojom::MimeRegistryProxy"* nocapture readonly, %"class.std::__1::basic_string"* dereferenceable(24), %"class.std::__1::basic_string"*) unnamed_addr #2 align 2 {
  %4 = alloca %"class.mojo::Message", align 8
  %5 = alloca %"class.mojo::internal::MessageFragment.25", align 8
  %6 = alloca i8, align 1
  %7 = bitcast %"class.mojo::Message"* %4 to i8*
  call void @llvm.lifetime.start.p0i8(i64 120, i8* nonnull %7) #12
  call void @llvm.memset.p0i8.i64(i8* nonnull align 8 %7, i8 -86, i64 120, i1 false)
  call void @_ZN4mojo7MessageC1EjjmmPNSt3__16vectorINS_16ScopedHandleBaseINS_6HandleEEENS1_9allocatorIS5_EEEE(%"class.mojo::Message"* nonnull %4, i32 0, i32 5, i64 0, i64 0, %"class.std::__1::vector"* null) #12
  %8 = getelementptr inbounds %"class.mojo::Message", %"class.mojo::Message"* %4, i64 0, i32 1
  %9 = call i64 @_ZN4mojo8internal6Buffer8AllocateEm(%"class.mojo::internal::Buffer"* %8, i64 16) #12
  %10 = getelementptr inbounds %"class.mojo::Message", %"class.mojo::Message"* %4, i64 0, i32 1, i32 2
  %11 = load i8*, i8** %10, align 8
  %12 = getelementptr inbounds i8, i8* %11, i64 %9
  %13 = bitcast i8* %12 to %"class.blink::mojom::internal::MimeRegistry_GetMimeTypeFromExtension_Params_Data"*
  call void @_ZN5blink5mojom8internal49MimeRegistry_GetMimeTypeFromExtension_Params_DataC1Ev(%"class.blink::mojom::internal::MimeRegistry_GetMimeTypeFromExtension_Params_Data"* %13) #12
  %14 = bitcast %"class.mojo::internal::MessageFragment.25"* %5 to i8*
  call void @llvm.lifetime.start.p0i8(i64 16, i8* nonnull %14) #12
  %15 = getelementptr inbounds %"class.mojo::internal::MessageFragment.25", %"class.mojo::internal::MessageFragment.25"* %5, i64 0, i32 0
  %16 = getelementptr inbounds %"class.mojo::internal::MessageFragment.25", %"class.mojo::internal::MessageFragment.25"* %5, i64 0, i32 1
  store %"class.mojo::Message"* %4, %"class.mojo::Message"** %15, align 8
  store i64 -1, i64* %16, align 8
  call void @_ZN4mojo8internal10SerializerINS_14StringDataViewEKNSt3__112basic_stringIcNS3_11char_traitsIcEENS3_9allocatorIcEEEEE9SerializeERSA_RNS0_15MessageFragmentINS0_10Array_DataIcEEEE(%"class.std::__1::basic_string"* dereferenceable(24) %1, %"class.mojo::internal::MessageFragment.25"* nonnull dereferenceable(16) %5) #12
  %17 = load i8*, i8** %10, align 8
  %18 = getelementptr inbounds i8, i8* %17, i64 %9
  %19 = getelementptr inbounds i8, i8* %18, i64 8
  %20 = load i64, i64* %16, align 8
  %21 = icmp eq i64 %20, -1
  br i1 %21, label %28, label %22

22:                                               ; preds = %3
  %23 = load %"class.mojo::Message"*, %"class.mojo::Message"** %15, align 8
  %24 = getelementptr inbounds %"class.mojo::Message", %"class.mojo::Message"* %23, i64 0, i32 1, i32 2
  %25 = load i8*, i8** %24, align 8
  %26 = getelementptr inbounds i8, i8* %25, i64 %20
  %27 = bitcast i8* %26 to %"class.mojo::internal::Array_Data"*
  br label %28

28:                                               ; preds = %22, %3
  %29 = phi %"class.mojo::internal::Array_Data"* [ %27, %22 ], [ null, %3 ]
  %30 = bitcast i8* %19 to i64*
  %31 = icmp eq %"class.mojo::internal::Array_Data"* %29, null
  %32 = ptrtoint %"class.mojo::internal::Array_Data"* %29 to i64
  %33 = ptrtoint i8* %19 to i64
  %34 = sub i64 %32, %33
  %35 = select i1 %31, i64 0, i64 %34
  store i64 %35, i64* %30, align 8
  call void @llvm.lifetime.start.p0i8(i64 1, i8* nonnull %6) #12
  store i8 0, i8* %6, align 1
  %36 = call i8* @_Znwm(i64 24) #13
  %37 = bitcast i8* %36 to i32 (...)***
  store i32 (...)** bitcast (i8** getelementptr inbounds ({ [6 x i8*] }, { [6 x i8*] }* @_ZTVN5blink5mojom56MimeRegistry_GetMimeTypeFromExtension_HandleSyncResponseE, i64 0, inrange i32 0, i64 2) to i32 (...)**), i32 (...)*** %37, align 8
  %38 = getelementptr inbounds i8, i8* %36, i64 8
  %39 = bitcast i8* %38 to i8**
  store i8* %6, i8** %39, align 8
  %40 = getelementptr inbounds i8, i8* %36, i64 16
  %41 = bitcast i8* %40 to %"class.std::__1::basic_string"**
  store %"class.std::__1::basic_string"* %2, %"class.std::__1::basic_string"** %41, align 8
  %42 = bitcast i8* %36 to %"class.mojo::MessageReceiver"*
  %43 = getelementptr inbounds %"class.blink::mojom::MimeRegistryProxy", %"class.blink::mojom::MimeRegistryProxy"* %0, i64 0, i32 1
  %44 = load %"class.mojo::MessageReceiverWithResponder"*, %"class.mojo::MessageReceiverWithResponder"** %43, align 8
  %45 = bitcast %"class.mojo::MessageReceiverWithResponder"* %44 to i1 (%"class.mojo::MessageReceiverWithResponder"*, %"class.mojo::Message"*, %"class.mojo::MessageReceiver"*)***
  %46 = load i1 (%"class.mojo::MessageReceiverWithResponder"*, %"class.mojo::Message"*, %"class.mojo::MessageReceiver"*)**, i1 (%"class.mojo::MessageReceiverWithResponder"*, %"class.mojo::Message"*, %"class.mojo::MessageReceiver"*)*** %45, align 8
  %47 = getelementptr inbounds i1 (%"class.mojo::MessageReceiverWithResponder"*, %"class.mojo::Message"*, %"class.mojo::MessageReceiver"*)*, i1 (%"class.mojo::MessageReceiverWithResponder"*, %"class.mojo::Message"*, %"class.mojo::MessageReceiver"*)** %46, i64 4
  %48 = load i1 (%"class.mojo::MessageReceiverWithResponder"*, %"class.mojo::Message"*, %"class.mojo::MessageReceiver"*)*, i1 (%"class.mojo::MessageReceiverWithResponder"*, %"class.mojo::Message"*, %"class.mojo::MessageReceiver"*)** %47, align 8
  %49 = call zeroext i1 %48(%"class.mojo::MessageReceiverWithResponder"* %44, %"class.mojo::Message"* nonnull %4, %"class.mojo::MessageReceiver"* nonnull %42) #12
  %50 = load i8, i8* %6, align 1, !range !2
  %51 = icmp ne i8 %50, 0
  call void @llvm.lifetime.end.p0i8(i64 1, i8* nonnull %6) #12
  call void @llvm.lifetime.end.p0i8(i64 16, i8* nonnull %14) #12
  call void @_ZN4mojo7MessageD1Ev(%"class.mojo::Message"* nonnull %4) #12
  call void @llvm.lifetime.end.p0i8(i64 120, i8* nonnull %7) #12
  ret i1 %51
}

; Function Attrs: argmemonly nounwind
declare void @llvm.lifetime.start.p0i8(i64 immarg, i8* nocapture) #3

; Function Attrs: argmemonly nounwind
declare void @llvm.memset.p0i8.i64(i8* nocapture writeonly, i8, i64, i1 immarg) #3

declare void @_ZN4mojo7MessageC1EjjmmPNSt3__16vectorINS_16ScopedHandleBaseINS_6HandleEEENS1_9allocatorIS5_EEEE(%"class.mojo::Message"*, i32, i32, i64, i64, %"class.std::__1::vector"*) unnamed_addr #4

; Function Attrs: nobuiltin nofree
declare noalias nonnull i8* @_Znwm(i64) local_unnamed_addr #5

; Function Attrs: argmemonly nounwind
declare void @llvm.lifetime.end.p0i8(i64 immarg, i8* nocapture) #3

; Function Attrs: nounwind
declare void @_ZN4mojo7MessageD1Ev(%"class.mojo::Message"*) unnamed_addr #6

; Function Attrs: nounwind ssp uwtable
define hidden void @_ZN5blink5mojom17MimeRegistryProxy24GetMimeTypeFromExtensionERKNSt3__112basic_stringIcNS2_11char_traitsIcEENS2_9allocatorIcEEEEN4base12OnceCallbackIFvSA_EEE(%"class.blink::mojom::MimeRegistryProxy"* nocapture readonly, %"class.std::__1::basic_string"* dereferenceable(24), %"class.base::OnceCallback"* nocapture) unnamed_addr #2 align 2 {
  %4 = alloca %"class.mojo::Message", align 8
  %5 = alloca %"class.mojo::internal::MessageFragment.25", align 8
  %6 = alloca %"class.base::OnceCallback", align 8
  %7 = bitcast %"class.mojo::Message"* %4 to i8*
  call void @llvm.lifetime.start.p0i8(i64 120, i8* nonnull %7) #12
  call void @llvm.memset.p0i8.i64(i8* nonnull align 8 %7, i8 -86, i64 120, i1 false)
  call void @_ZN4mojo7MessageC1EjjmmPNSt3__16vectorINS_16ScopedHandleBaseINS_6HandleEEENS1_9allocatorIS5_EEEE(%"class.mojo::Message"* nonnull %4, i32 0, i32 1, i64 0, i64 0, %"class.std::__1::vector"* null) #12
  %8 = getelementptr inbounds %"class.mojo::Message", %"class.mojo::Message"* %4, i64 0, i32 1
  %9 = call i64 @_ZN4mojo8internal6Buffer8AllocateEm(%"class.mojo::internal::Buffer"* %8, i64 16) #12
  %10 = getelementptr inbounds %"class.mojo::Message", %"class.mojo::Message"* %4, i64 0, i32 1, i32 2
  %11 = load i8*, i8** %10, align 8
  %12 = getelementptr inbounds i8, i8* %11, i64 %9
  %13 = bitcast i8* %12 to %"class.blink::mojom::internal::MimeRegistry_GetMimeTypeFromExtension_Params_Data"*
  call void @_ZN5blink5mojom8internal49MimeRegistry_GetMimeTypeFromExtension_Params_DataC1Ev(%"class.blink::mojom::internal::MimeRegistry_GetMimeTypeFromExtension_Params_Data"* %13) #12
  %14 = bitcast %"class.mojo::internal::MessageFragment.25"* %5 to i8*
  call void @llvm.lifetime.start.p0i8(i64 16, i8* nonnull %14) #12
  %15 = getelementptr inbounds %"class.mojo::internal::MessageFragment.25", %"class.mojo::internal::MessageFragment.25"* %5, i64 0, i32 0
  %16 = getelementptr inbounds %"class.mojo::internal::MessageFragment.25", %"class.mojo::internal::MessageFragment.25"* %5, i64 0, i32 1
  store %"class.mojo::Message"* %4, %"class.mojo::Message"** %15, align 8
  store i64 -1, i64* %16, align 8
  call void @_ZN4mojo8internal10SerializerINS_14StringDataViewEKNSt3__112basic_stringIcNS3_11char_traitsIcEENS3_9allocatorIcEEEEE9SerializeERSA_RNS0_15MessageFragmentINS0_10Array_DataIcEEEE(%"class.std::__1::basic_string"* dereferenceable(24) %1, %"class.mojo::internal::MessageFragment.25"* nonnull dereferenceable(16) %5) #12
  %17 = load i8*, i8** %10, align 8
  %18 = getelementptr inbounds i8, i8* %17, i64 %9
  %19 = getelementptr inbounds i8, i8* %18, i64 8
  %20 = load i64, i64* %16, align 8
  %21 = icmp eq i64 %20, -1
  br i1 %21, label %28, label %22

22:                                               ; preds = %3
  %23 = load %"class.mojo::Message"*, %"class.mojo::Message"** %15, align 8
  %24 = getelementptr inbounds %"class.mojo::Message", %"class.mojo::Message"* %23, i64 0, i32 1, i32 2
  %25 = load i8*, i8** %24, align 8
  %26 = getelementptr inbounds i8, i8* %25, i64 %20
  %27 = bitcast i8* %26 to %"class.mojo::internal::Array_Data"*
  br label %28

28:                                               ; preds = %22, %3
  %29 = phi %"class.mojo::internal::Array_Data"* [ %27, %22 ], [ null, %3 ]
  %30 = bitcast i8* %19 to i64*
  %31 = icmp eq %"class.mojo::internal::Array_Data"* %29, null
  %32 = ptrtoint %"class.mojo::internal::Array_Data"* %29 to i64
  %33 = ptrtoint i8* %19 to i64
  %34 = sub i64 %32, %33
  %35 = select i1 %31, i64 0, i64 %34
  store i64 %35, i64* %30, align 8
  %36 = call i8* @_Znwm(i64 16) #13
  %37 = getelementptr inbounds %"class.base::OnceCallback", %"class.base::OnceCallback"* %2, i64 0, i32 0, i32 0, i32 0
  %38 = bitcast %"class.base::OnceCallback"* %2 to i64*
  %39 = load i64, i64* %38, align 8
  store %"class.base::internal::BindStateBase"* null, %"class.base::internal::BindStateBase"** %37, align 8
  %40 = bitcast i8* %36 to i32 (...)***
  store i32 (...)** bitcast (i8** getelementptr inbounds ({ [6 x i8*] }, { [6 x i8*] }* @_ZTVN5blink5mojom55MimeRegistry_GetMimeTypeFromExtension_ForwardToCallbackE, i64 0, inrange i32 0, i64 2) to i32 (...)**), i32 (...)*** %40, align 8
  %41 = getelementptr inbounds i8, i8* %36, i64 8
  %42 = getelementptr inbounds %"class.base::OnceCallback", %"class.base::OnceCallback"* %6, i64 0, i32 0, i32 0, i32 0
  %43 = bitcast i8* %41 to i64*
  store i64 %39, i64* %43, align 8
  store %"class.base::internal::BindStateBase"* null, %"class.base::internal::BindStateBase"** %42, align 8
  %44 = bitcast i8* %36 to %"class.mojo::MessageReceiver"*
  %45 = getelementptr inbounds %"class.base::OnceCallback", %"class.base::OnceCallback"* %6, i64 0, i32 0
  call void @_ZN4base8internal12CallbackBaseD2Ev(%"class.base::internal::CallbackBase"* nonnull %45) #12
  %46 = getelementptr inbounds %"class.blink::mojom::MimeRegistryProxy", %"class.blink::mojom::MimeRegistryProxy"* %0, i64 0, i32 1
  %47 = load %"class.mojo::MessageReceiverWithResponder"*, %"class.mojo::MessageReceiverWithResponder"** %46, align 8
  %48 = bitcast %"class.mojo::MessageReceiverWithResponder"* %47 to i1 (%"class.mojo::MessageReceiverWithResponder"*, %"class.mojo::Message"*, %"class.mojo::MessageReceiver"*)***
  %49 = load i1 (%"class.mojo::MessageReceiverWithResponder"*, %"class.mojo::Message"*, %"class.mojo::MessageReceiver"*)**, i1 (%"class.mojo::MessageReceiverWithResponder"*, %"class.mojo::Message"*, %"class.mojo::MessageReceiver"*)*** %48, align 8
  %50 = getelementptr inbounds i1 (%"class.mojo::MessageReceiverWithResponder"*, %"class.mojo::Message"*, %"class.mojo::MessageReceiver"*)*, i1 (%"class.mojo::MessageReceiverWithResponder"*, %"class.mojo::Message"*, %"class.mojo::MessageReceiver"*)** %49, i64 4
  %51 = load i1 (%"class.mojo::MessageReceiverWithResponder"*, %"class.mojo::Message"*, %"class.mojo::MessageReceiver"*)*, i1 (%"class.mojo::MessageReceiverWithResponder"*, %"class.mojo::Message"*, %"class.mojo::MessageReceiver"*)** %50, align 8
  %52 = call zeroext i1 %51(%"class.mojo::MessageReceiverWithResponder"* %47, %"class.mojo::Message"* nonnull %4, %"class.mojo::MessageReceiver"* nonnull %44) #12
  call void @llvm.lifetime.end.p0i8(i64 16, i8* nonnull %14) #12
  call void @_ZN4mojo7MessageD1Ev(%"class.mojo::Message"* nonnull %4) #12
  call void @llvm.lifetime.end.p0i8(i64 120, i8* nonnull %7) #12
  ret void
}

; Function Attrs: nounwind
declare void @_ZN4base8internal12CallbackBaseD2Ev(%"class.base::internal::CallbackBase"*) unnamed_addr #6

; Function Attrs: nounwind ssp uwtable
define hidden zeroext i1 @_ZN5blink5mojom55MimeRegistry_GetMimeTypeFromExtension_ForwardToCallback6AcceptEPN4mojo7MessageE(%"class.blink::mojom::MimeRegistry_GetMimeTypeFromExtension_ForwardToCallback"* nocapture, %"class.mojo::Message"*) unnamed_addr #2 align 2 {
  %3 = alloca %"class.base::OnceCallback", align 8
  %4 = alloca %"class.std::__1::basic_string", align 8
  %5 = tail call i8* @_ZNK4mojo7Message7payloadEv(%"class.mojo::Message"* %1) #12
  %6 = bitcast %"class.std::__1::basic_string"* %4 to i8*
  call void @llvm.lifetime.start.p0i8(i64 24, i8* nonnull %6) #12
  %7 = getelementptr inbounds %"class.std::__1::basic_string", %"class.std::__1::basic_string"* %4, i64 0, i32 0, i32 0, i32 0, i32 0, i32 0, i32 0
  %8 = getelementptr inbounds %"class.std::__1::basic_string", %"class.std::__1::basic_string"* %4, i64 0, i32 0, i32 0, i32 0, i32 0, i32 0, i32 1
  call void @llvm.memset.p0i8.i64(i8* nonnull align 8 %6, i8 0, i64 24, i1 false) #12
  %9 = getelementptr inbounds i8, i8* %5, i64 8
  %10 = bitcast i8* %9 to i64*
  %11 = load i64, i64* %10, align 8
  %12 = icmp eq i64 %11, 0
  %13 = getelementptr inbounds i8, i8* %9, i64 %11
  br i1 %12, label %46, label %14

14:                                               ; preds = %2
  %15 = getelementptr inbounds i8, i8* %13, i64 8
  %16 = getelementptr inbounds i8, i8* %13, i64 4
  %17 = bitcast i8* %16 to i32*
  %18 = load i32, i32* %17, align 1
  %19 = zext i32 %18 to i64
  %20 = tail call i1 @llvm.is.constant.i64(i64 %19) #12
  %21 = icmp ult i32 %18, 23
  %22 = and i1 %21, %20
  br i1 %22, label %23, label %31

23:                                               ; preds = %14
  %24 = bitcast %"class.std::__1::basic_string"* %4 to %"struct.std::__1::basic_string<char, std::__1::char_traits<char>, std::__1::allocator<char> >::__short"*
  %25 = getelementptr inbounds %"struct.std::__1::basic_string<char, std::__1::char_traits<char>, std::__1::allocator<char> >::__short", %"struct.std::__1::basic_string<char, std::__1::char_traits<char>, std::__1::allocator<char> >::__short"* %24, i64 0, i32 1, i32 0
  %26 = trunc i32 %18 to i8
  store i8 %26, i8* %25, align 1
  %27 = icmp eq i32 %18, 0
  br i1 %27, label %29, label %28

28:                                               ; preds = %23
  call void @llvm.memmove.p0i8.p0i8.i64(i8* nonnull align 8 %6, i8* align 1 %15, i64 %19, i1 false) #12
  br label %29

29:                                               ; preds = %28, %23
  %30 = getelementptr inbounds i8, i8* %6, i64 %19
  store i8 0, i8* %30, align 1
  br label %34

31:                                               ; preds = %14
  %32 = call dereferenceable(24) %"class.std::__1::basic_string"* @_ZNSt3__112basic_stringIcNS_11char_traitsIcEENS_9allocatorIcEEE17__assign_externalEPKcm(%"class.std::__1::basic_string"* nonnull %4, i8* %15, i64 %19) #12
  %33 = bitcast %"class.std::__1::basic_string"* %4 to %"struct.std::__1::basic_string<char, std::__1::char_traits<char>, std::__1::allocator<char> >::__short"*
  br label %34

34:                                               ; preds = %31, %29
  %35 = phi %"struct.std::__1::basic_string<char, std::__1::char_traits<char>, std::__1::allocator<char> >::__short"* [ %33, %31 ], [ %24, %29 ]
  %36 = getelementptr inbounds %"struct.std::__1::basic_string<char, std::__1::char_traits<char>, std::__1::allocator<char> >::__short", %"struct.std::__1::basic_string<char, std::__1::char_traits<char>, std::__1::allocator<char> >::__short"* %35, i64 0, i32 1, i32 0
  %37 = load i8, i8* %36, align 1
  %38 = icmp slt i8 %37, 0
  %39 = load i8*, i8** %7, align 8
  %40 = select i1 %38, i8* %39, i8* %6
  %41 = load i64, i64* %8, align 8
  %42 = zext i8 %37 to i64
  %43 = select i1 %38, i64 %41, i64 %42
  %44 = call zeroext i1 @_ZN4base12IsStringUTF8ENS_16BasicStringPieceIcNSt3__111char_traitsIcEEEE(i8* %40, i64 %43) #12
  br i1 %44, label %46, label %45

45:                                               ; preds = %34
  call void @_ZN4mojo8internal34RecordInvalidStringDeserializationEv() #12
  br label %46

46:                                               ; preds = %45, %34, %2
  %47 = getelementptr inbounds %"class.blink::mojom::MimeRegistry_GetMimeTypeFromExtension_ForwardToCallback", %"class.blink::mojom::MimeRegistry_GetMimeTypeFromExtension_ForwardToCallback"* %0, i64 0, i32 1, i32 0, i32 0, i32 0
  %48 = load %"class.base::internal::BindStateBase"*, %"class.base::internal::BindStateBase"** %47, align 8
  %49 = icmp eq %"class.base::internal::BindStateBase"* %48, null
  br i1 %49, label %58, label %50

50:                                               ; preds = %46
  %51 = ptrtoint %"class.base::internal::BindStateBase"* %48 to i64
  %52 = bitcast %"class.base::OnceCallback"* %3 to i8*
  call void @llvm.lifetime.start.p0i8(i64 8, i8* nonnull %52) #12
  %53 = bitcast %"class.base::OnceCallback"* %3 to i64*
  store i64 %51, i64* %53, align 8
  store %"class.base::internal::BindStateBase"* null, %"class.base::internal::BindStateBase"** %47, align 8
  %54 = getelementptr inbounds %"class.base::OnceCallback", %"class.base::OnceCallback"* %3, i64 0, i32 0
  %55 = getelementptr inbounds %"class.base::internal::BindStateBase", %"class.base::internal::BindStateBase"* %48, i64 0, i32 1
  %56 = bitcast void ()** %55 to void (%"class.base::internal::BindStateBase"*, %"class.std::__1::basic_string"*)**
  %57 = load void (%"class.base::internal::BindStateBase"*, %"class.std::__1::basic_string"*)*, void (%"class.base::internal::BindStateBase"*, %"class.std::__1::basic_string"*)** %56, align 8
  call void %57(%"class.base::internal::BindStateBase"* nonnull %48, %"class.std::__1::basic_string"* nonnull dereferenceable(24) %4) #12
  call void @_ZN4base8internal12CallbackBaseD2Ev(%"class.base::internal::CallbackBase"* nonnull %54) #12
  call void @llvm.lifetime.end.p0i8(i64 8, i8* nonnull %52) #12
  br label %58

58:                                               ; preds = %46, %50
  %59 = bitcast %"class.std::__1::basic_string"* %4 to %"struct.std::__1::basic_string<char, std::__1::char_traits<char>, std::__1::allocator<char> >::__short"*
  %60 = getelementptr inbounds %"struct.std::__1::basic_string<char, std::__1::char_traits<char>, std::__1::allocator<char> >::__short", %"struct.std::__1::basic_string<char, std::__1::char_traits<char>, std::__1::allocator<char> >::__short"* %59, i64 0, i32 1, i32 0
  %61 = load i8, i8* %60, align 1
  %62 = icmp slt i8 %61, 0
  br i1 %62, label %63, label %65

63:                                               ; preds = %58
  %64 = load i8*, i8** %7, align 8
  call void @_ZdlPv(i8* %64) #13
  br label %65

65:                                               ; preds = %58, %63
  call void @llvm.lifetime.end.p0i8(i64 24, i8* nonnull %6) #12
  ret i1 true
}

; Function Attrs: nounwind ssp uwtable
define hidden void @_ZN5blink5mojom54MimeRegistry_GetMimeTypeFromExtension_ProxyToResponder3RunERKNSt3__112basic_stringIcNS2_11char_traitsIcEENS2_9allocatorIcEEEE(%"class.blink::mojom::MimeRegistry_GetMimeTypeFromExtension_ProxyToResponder"* nocapture, %"class.std::__1::basic_string"* dereferenceable(24)) #2 align 2 {
  %3 = alloca %"class.mojo::Message", align 8
  %4 = alloca %"class.mojo::internal::MessageFragment.25", align 8
  %5 = getelementptr inbounds %"class.blink::mojom::MimeRegistry_GetMimeTypeFromExtension_ProxyToResponder", %"class.blink::mojom::MimeRegistry_GetMimeTypeFromExtension_ProxyToResponder"* %0, i64 0, i32 1
  %6 = load i8, i8* %5, align 8, !range !2
  %7 = icmp eq i8 %6, 0
  %8 = select i1 %7, i32 2, i32 6
  %9 = bitcast %"class.mojo::Message"* %3 to i8*
  call void @llvm.lifetime.start.p0i8(i64 120, i8* nonnull %9) #12
  call void @llvm.memset.p0i8.i64(i8* nonnull align 8 %9, i8 -86, i64 120, i1 false)
  call void @_ZN4mojo7MessageC1EjjmmPNSt3__16vectorINS_16ScopedHandleBaseINS_6HandleEEENS1_9allocatorIS5_EEEE(%"class.mojo::Message"* nonnull %3, i32 0, i32 %8, i64 0, i64 0, %"class.std::__1::vector"* null) #12
  %10 = getelementptr inbounds %"class.mojo::Message", %"class.mojo::Message"* %3, i64 0, i32 1
  %11 = call i64 @_ZN4mojo8internal6Buffer8AllocateEm(%"class.mojo::internal::Buffer"* %10, i64 16) #12
  %12 = getelementptr inbounds %"class.mojo::Message", %"class.mojo::Message"* %3, i64 0, i32 1, i32 2
  %13 = load i8*, i8** %12, align 8
  %14 = getelementptr inbounds i8, i8* %13, i64 %11
  %15 = bitcast i8* %14 to %"class.blink::mojom::internal::MimeRegistry_GetMimeTypeFromExtension_ResponseParams_Data"*
  call void @_ZN5blink5mojom8internal57MimeRegistry_GetMimeTypeFromExtension_ResponseParams_DataC1Ev(%"class.blink::mojom::internal::MimeRegistry_GetMimeTypeFromExtension_ResponseParams_Data"* %15) #12
  %16 = bitcast %"class.mojo::internal::MessageFragment.25"* %4 to i8*
  call void @llvm.lifetime.start.p0i8(i64 16, i8* nonnull %16) #12
  %17 = getelementptr inbounds %"class.mojo::internal::MessageFragment.25", %"class.mojo::internal::MessageFragment.25"* %4, i64 0, i32 0
  %18 = getelementptr inbounds %"class.mojo::internal::MessageFragment.25", %"class.mojo::internal::MessageFragment.25"* %4, i64 0, i32 1
  store %"class.mojo::Message"* %3, %"class.mojo::Message"** %17, align 8
  store i64 -1, i64* %18, align 8
  call void @_ZN4mojo8internal10SerializerINS_14StringDataViewEKNSt3__112basic_stringIcNS3_11char_traitsIcEENS3_9allocatorIcEEEEE9SerializeERSA_RNS0_15MessageFragmentINS0_10Array_DataIcEEEE(%"class.std::__1::basic_string"* dereferenceable(24) %1, %"class.mojo::internal::MessageFragment.25"* nonnull dereferenceable(16) %4) #12
  %19 = load i8*, i8** %12, align 8
  %20 = getelementptr inbounds i8, i8* %19, i64 %11
  %21 = getelementptr inbounds i8, i8* %20, i64 8
  %22 = load i64, i64* %18, align 8
  %23 = icmp eq i64 %22, -1
  br i1 %23, label %30, label %24

24:                                               ; preds = %2
  %25 = load %"class.mojo::Message"*, %"class.mojo::Message"** %17, align 8
  %26 = getelementptr inbounds %"class.mojo::Message", %"class.mojo::Message"* %25, i64 0, i32 1, i32 2
  %27 = load i8*, i8** %26, align 8
  %28 = getelementptr inbounds i8, i8* %27, i64 %22
  %29 = bitcast i8* %28 to %"class.mojo::internal::Array_Data"*
  br label %30

30:                                               ; preds = %2, %24
  %31 = phi %"class.mojo::internal::Array_Data"* [ %29, %24 ], [ null, %2 ]
  %32 = bitcast i8* %21 to i64*
  %33 = icmp eq %"class.mojo::internal::Array_Data"* %31, null
  %34 = ptrtoint %"class.mojo::internal::Array_Data"* %31 to i64
  %35 = ptrtoint i8* %21 to i64
  %36 = sub i64 %34, %35
  %37 = select i1 %33, i64 0, i64 %36
  store i64 %37, i64* %32, align 8
  %38 = getelementptr inbounds %"class.blink::mojom::MimeRegistry_GetMimeTypeFromExtension_ProxyToResponder", %"class.blink::mojom::MimeRegistry_GetMimeTypeFromExtension_ProxyToResponder"* %0, i64 0, i32 0
  %39 = load i64, i64* %38, align 8
  %40 = bitcast i8** %12 to %"struct.mojo::internal::MessageHeaderV1"**
  %41 = load %"struct.mojo::internal::MessageHeaderV1"*, %"struct.mojo::internal::MessageHeaderV1"** %40, align 8
  %42 = getelementptr inbounds %"struct.mojo::internal::MessageHeaderV1", %"struct.mojo::internal::MessageHeaderV1"* %41, i64 0, i32 1
  store i64 %39, i64* %42, align 1
  %43 = getelementptr inbounds %"class.blink::mojom::MimeRegistry_GetMimeTypeFromExtension_ProxyToResponder", %"class.blink::mojom::MimeRegistry_GetMimeTypeFromExtension_ProxyToResponder"* %0, i64 0, i32 2, i32 0, i32 0, i32 0
  %44 = load %"class.mojo::MessageReceiverWithStatus"*, %"class.mojo::MessageReceiverWithStatus"** %43, align 8
  %45 = getelementptr inbounds %"class.mojo::MessageReceiverWithStatus", %"class.mojo::MessageReceiverWithStatus"* %44, i64 0, i32 0
  %46 = bitcast %"class.mojo::MessageReceiverWithStatus"* %44 to i1 (%"class.mojo::MessageReceiver"*, %"class.mojo::Message"*)***
  %47 = load i1 (%"class.mojo::MessageReceiver"*, %"class.mojo::Message"*)**, i1 (%"class.mojo::MessageReceiver"*, %"class.mojo::Message"*)*** %46, align 8
  %48 = getelementptr inbounds i1 (%"class.mojo::MessageReceiver"*, %"class.mojo::Message"*)*, i1 (%"class.mojo::MessageReceiver"*, %"class.mojo::Message"*)** %47, i64 3
  %49 = load i1 (%"class.mojo::MessageReceiver"*, %"class.mojo::Message"*)*, i1 (%"class.mojo::MessageReceiver"*, %"class.mojo::Message"*)** %48, align 8
  %50 = call zeroext i1 %49(%"class.mojo::MessageReceiver"* %45, %"class.mojo::Message"* nonnull %3) #12
  %51 = load %"class.mojo::MessageReceiverWithStatus"*, %"class.mojo::MessageReceiverWithStatus"** %43, align 8
  store %"class.mojo::MessageReceiverWithStatus"* null, %"class.mojo::MessageReceiverWithStatus"** %43, align 8
  %52 = icmp eq %"class.mojo::MessageReceiverWithStatus"* %51, null
  br i1 %52, label %58, label %53

53:                                               ; preds = %30
  %54 = bitcast %"class.mojo::MessageReceiverWithStatus"* %51 to void (%"class.mojo::MessageReceiverWithStatus"*)***
  %55 = load void (%"class.mojo::MessageReceiverWithStatus"*)**, void (%"class.mojo::MessageReceiverWithStatus"*)*** %54, align 8
  %56 = getelementptr inbounds void (%"class.mojo::MessageReceiverWithStatus"*)*, void (%"class.mojo::MessageReceiverWithStatus"*)** %55, i64 1
  %57 = load void (%"class.mojo::MessageReceiverWithStatus"*)*, void (%"class.mojo::MessageReceiverWithStatus"*)** %56, align 8
  call void %57(%"class.mojo::MessageReceiverWithStatus"* nonnull %51) #12
  br label %58

58:                                               ; preds = %30, %53
  call void @llvm.lifetime.end.p0i8(i64 16, i8* nonnull %16) #12
  call void @_ZN4mojo7MessageD1Ev(%"class.mojo::Message"* nonnull %3) #12
  call void @llvm.lifetime.end.p0i8(i64 120, i8* nonnull %9) #12
  ret void
}

; Function Attrs: nounwind ssp uwtable
define hidden zeroext i1 @_ZN5blink5mojom56MimeRegistry_GetMimeTypeFromExtension_HandleSyncResponse6AcceptEPN4mojo7MessageE(%"class.blink::mojom::MimeRegistry_GetMimeTypeFromExtension_HandleSyncResponse"* nocapture readonly, %"class.mojo::Message"*) unnamed_addr #2 align 2 {
  %3 = alloca %"class.std::__1::basic_string", align 8
  %4 = tail call i8* @_ZNK4mojo7Message7payloadEv(%"class.mojo::Message"* %1) #12
  %5 = bitcast %"class.std::__1::basic_string"* %3 to i8*
  call void @llvm.lifetime.start.p0i8(i64 24, i8* nonnull %5) #12
  %6 = getelementptr inbounds %"class.std::__1::basic_string", %"class.std::__1::basic_string"* %3, i64 0, i32 0, i32 0, i32 0, i32 0, i32 0, i32 0
  %7 = getelementptr inbounds %"class.std::__1::basic_string", %"class.std::__1::basic_string"* %3, i64 0, i32 0, i32 0, i32 0, i32 0, i32 0, i32 1
  call void @llvm.memset.p0i8.i64(i8* nonnull align 8 %5, i8 0, i64 24, i1 false) #12
  %8 = getelementptr inbounds i8, i8* %4, i64 8
  %9 = bitcast i8* %8 to i64*
  %10 = load i64, i64* %9, align 8
  %11 = icmp eq i64 %10, 0
  %12 = getelementptr inbounds i8, i8* %8, i64 %10
  br i1 %11, label %45, label %13

13:                                               ; preds = %2
  %14 = getelementptr inbounds i8, i8* %12, i64 8
  %15 = getelementptr inbounds i8, i8* %12, i64 4
  %16 = bitcast i8* %15 to i32*
  %17 = load i32, i32* %16, align 1
  %18 = zext i32 %17 to i64
  %19 = tail call i1 @llvm.is.constant.i64(i64 %18) #12
  %20 = icmp ult i32 %17, 23
  %21 = and i1 %20, %19
  br i1 %21, label %22, label %30

22:                                               ; preds = %13
  %23 = bitcast %"class.std::__1::basic_string"* %3 to %"struct.std::__1::basic_string<char, std::__1::char_traits<char>, std::__1::allocator<char> >::__short"*
  %24 = getelementptr inbounds %"struct.std::__1::basic_string<char, std::__1::char_traits<char>, std::__1::allocator<char> >::__short", %"struct.std::__1::basic_string<char, std::__1::char_traits<char>, std::__1::allocator<char> >::__short"* %23, i64 0, i32 1, i32 0
  %25 = trunc i32 %17 to i8
  store i8 %25, i8* %24, align 1
  %26 = icmp eq i32 %17, 0
  br i1 %26, label %28, label %27

27:                                               ; preds = %22
  call void @llvm.memmove.p0i8.p0i8.i64(i8* nonnull align 8 %5, i8* align 1 %14, i64 %18, i1 false) #12
  br label %28

28:                                               ; preds = %27, %22
  %29 = getelementptr inbounds i8, i8* %5, i64 %18
  store i8 0, i8* %29, align 1
  br label %33

30:                                               ; preds = %13
  %31 = call dereferenceable(24) %"class.std::__1::basic_string"* @_ZNSt3__112basic_stringIcNS_11char_traitsIcEENS_9allocatorIcEEE17__assign_externalEPKcm(%"class.std::__1::basic_string"* nonnull %3, i8* %14, i64 %18) #12
  %32 = bitcast %"class.std::__1::basic_string"* %3 to %"struct.std::__1::basic_string<char, std::__1::char_traits<char>, std::__1::allocator<char> >::__short"*
  br label %33

33:                                               ; preds = %30, %28
  %34 = phi %"struct.std::__1::basic_string<char, std::__1::char_traits<char>, std::__1::allocator<char> >::__short"* [ %32, %30 ], [ %23, %28 ]
  %35 = getelementptr inbounds %"struct.std::__1::basic_string<char, std::__1::char_traits<char>, std::__1::allocator<char> >::__short", %"struct.std::__1::basic_string<char, std::__1::char_traits<char>, std::__1::allocator<char> >::__short"* %34, i64 0, i32 1, i32 0
  %36 = load i8, i8* %35, align 1
  %37 = icmp slt i8 %36, 0
  %38 = load i8*, i8** %6, align 8
  %39 = select i1 %37, i8* %38, i8* %5
  %40 = load i64, i64* %7, align 8
  %41 = zext i8 %36 to i64
  %42 = select i1 %37, i64 %40, i64 %41
  %43 = call zeroext i1 @_ZN4base12IsStringUTF8ENS_16BasicStringPieceIcNSt3__111char_traitsIcEEEE(i8* %39, i64 %42) #12
  br i1 %43, label %45, label %44

44:                                               ; preds = %33
  call void @_ZN4mojo8internal34RecordInvalidStringDeserializationEv() #12
  br label %45

45:                                               ; preds = %44, %33, %2
  %46 = getelementptr inbounds %"class.blink::mojom::MimeRegistry_GetMimeTypeFromExtension_HandleSyncResponse", %"class.blink::mojom::MimeRegistry_GetMimeTypeFromExtension_HandleSyncResponse"* %0, i64 0, i32 2
  %47 = load %"class.std::__1::basic_string"*, %"class.std::__1::basic_string"** %46, align 8
  %48 = bitcast %"class.std::__1::basic_string"* %47 to %"struct.std::__1::basic_string<char, std::__1::char_traits<char>, std::__1::allocator<char> >::__short"*
  %49 = getelementptr inbounds %"struct.std::__1::basic_string<char, std::__1::char_traits<char>, std::__1::allocator<char> >::__short", %"struct.std::__1::basic_string<char, std::__1::char_traits<char>, std::__1::allocator<char> >::__short"* %48, i64 0, i32 1, i32 0
  %50 = load i8, i8* %49, align 1
  %51 = icmp slt i8 %50, 0
  br i1 %51, label %52, label %55

52:                                               ; preds = %45
  %53 = getelementptr inbounds %"class.std::__1::basic_string", %"class.std::__1::basic_string"* %47, i64 0, i32 0, i32 0, i32 0, i32 0, i32 0, i32 0
  %54 = load i8*, i8** %53, align 8
  call void @_ZdlPv(i8* %54) #13
  br label %55

55:                                               ; preds = %52, %45
  %56 = bitcast %"class.std::__1::basic_string"* %47 to i8*
  call void @llvm.memcpy.p0i8.p0i8.i64(i8* align 8 %56, i8* nonnull align 8 %5, i64 24, i1 false) #12
  %57 = bitcast %"class.std::__1::basic_string"* %3 to %"struct.std::__1::basic_string<char, std::__1::char_traits<char>, std::__1::allocator<char> >::__short"*
  %58 = getelementptr inbounds %"struct.std::__1::basic_string<char, std::__1::char_traits<char>, std::__1::allocator<char> >::__short", %"struct.std::__1::basic_string<char, std::__1::char_traits<char>, std::__1::allocator<char> >::__short"* %57, i64 0, i32 1, i32 0
  store i8 0, i8* %58, align 1
  store i8 0, i8* %5, align 8
  %59 = getelementptr inbounds %"class.blink::mojom::MimeRegistry_GetMimeTypeFromExtension_HandleSyncResponse", %"class.blink::mojom::MimeRegistry_GetMimeTypeFromExtension_HandleSyncResponse"* %0, i64 0, i32 1
  %60 = load i8*, i8** %59, align 8
  store i8 1, i8* %60, align 1
  %61 = load i8, i8* %58, align 1
  %62 = icmp slt i8 %61, 0
  br i1 %62, label %63, label %65

63:                                               ; preds = %55
  %64 = load i8*, i8** %6, align 8
  call void @_ZdlPv(i8* %64) #13
  br label %65

65:                                               ; preds = %55, %63
  call void @llvm.lifetime.end.p0i8(i64 24, i8* nonnull %5) #12
  ret i1 true
}

; Function Attrs: norecurse nounwind readonly ssp uwtable
define hidden zeroext i1 @_ZN5blink5mojom24MimeRegistryStubDispatch6AcceptEPNS0_12MimeRegistryEPN4mojo7MessageE(%"class.blink::mojom::MimeRegistry"* nocapture readnone, %"class.mojo::Message"* nocapture readonly) local_unnamed_addr #7 align 2 {
  ret i1 false
}

; Function Attrs: nounwind ssp uwtable
define hidden zeroext i1 @_ZN5blink5mojom24MimeRegistryStubDispatch19AcceptWithResponderEPNS0_12MimeRegistryEPN4mojo7MessageENSt3__110unique_ptrINS4_25MessageReceiverWithStatusENS7_14default_deleteIS9_EEEE(%"class.blink::mojom::MimeRegistry"*, %"class.mojo::Message"*, %"class.mojo::MessageReceiverWithStatus"*) local_unnamed_addr #2 align 2 {
  %4 = alloca %"class.base::TaskAnnotator::ScopedSetIpcHash", align 8
  %5 = alloca %"class.std::__1::basic_string", align 8
  %6 = alloca %"class.base::OnceCallback", align 8
  %7 = alloca %"class.base::OnceCallback", align 8
  %8 = ptrtoint %"class.mojo::MessageReceiverWithStatus"* %2 to i64
  %9 = getelementptr inbounds %"class.mojo::Message", %"class.mojo::Message"* %1, i64 0, i32 1, i32 2
  %10 = bitcast i8** %9 to %"struct.mojo::internal::MessageHeader"**
  %11 = load %"struct.mojo::internal::MessageHeader"*, %"struct.mojo::internal::MessageHeader"** %10, align 8
  %12 = getelementptr inbounds %"struct.mojo::internal::MessageHeader", %"struct.mojo::internal::MessageHeader"* %11, i64 0, i32 3
  %13 = load i32, i32* %12, align 1
  %14 = bitcast i8** %9 to %"struct.mojo::internal::MessageHeaderV1"**
  %15 = getelementptr inbounds %"struct.mojo::internal::MessageHeader", %"struct.mojo::internal::MessageHeader"* %11, i64 0, i32 2
  %16 = load i32, i32* %15, align 1
  %17 = icmp eq i32 %16, 0
  br i1 %17, label %18, label %97

18:                                               ; preds = %3
  %19 = bitcast %"class.base::TaskAnnotator::ScopedSetIpcHash"* %4 to i8*
  call void @llvm.lifetime.start.p0i8(i64 24, i8* nonnull %19) #12
  call void @llvm.memset.p0i8.i64(i8* nonnull align 8 %19, i8 -86, i64 24, i1 false)
  call void @_ZN4base13TaskAnnotator16ScopedSetIpcHashC1Ej(%"class.base::TaskAnnotator::ScopedSetIpcHash"* nonnull %4, i32 -1025342890) #12
  %20 = call i8* @_ZNK4mojo7Message7payloadEv(%"class.mojo::Message"* %1) #12
  %21 = bitcast %"class.std::__1::basic_string"* %5 to i8*
  call void @llvm.lifetime.start.p0i8(i64 24, i8* nonnull %21) #12
  %22 = getelementptr inbounds %"class.std::__1::basic_string", %"class.std::__1::basic_string"* %5, i64 0, i32 0, i32 0, i32 0, i32 0, i32 0, i32 0
  %23 = getelementptr inbounds %"class.std::__1::basic_string", %"class.std::__1::basic_string"* %5, i64 0, i32 0, i32 0, i32 0, i32 0, i32 0, i32 1
  call void @llvm.memset.p0i8.i64(i8* nonnull align 8 %21, i8 0, i64 24, i1 false) #12
  %24 = getelementptr inbounds i8, i8* %20, i64 8
  %25 = bitcast i8* %24 to i64*
  %26 = load i64, i64* %25, align 8
  %27 = icmp eq i64 %26, 0
  %28 = getelementptr inbounds i8, i8* %24, i64 %26
  br i1 %27, label %61, label %29

29:                                               ; preds = %18
  %30 = getelementptr inbounds i8, i8* %28, i64 8
  %31 = getelementptr inbounds i8, i8* %28, i64 4
  %32 = bitcast i8* %31 to i32*
  %33 = load i32, i32* %32, align 1
  %34 = zext i32 %33 to i64
  %35 = call i1 @llvm.is.constant.i64(i64 %34) #12
  %36 = icmp ult i32 %33, 23
  %37 = and i1 %36, %35
  br i1 %37, label %38, label %46

38:                                               ; preds = %29
  %39 = bitcast %"class.std::__1::basic_string"* %5 to %"struct.std::__1::basic_string<char, std::__1::char_traits<char>, std::__1::allocator<char> >::__short"*
  %40 = getelementptr inbounds %"struct.std::__1::basic_string<char, std::__1::char_traits<char>, std::__1::allocator<char> >::__short", %"struct.std::__1::basic_string<char, std::__1::char_traits<char>, std::__1::allocator<char> >::__short"* %39, i64 0, i32 1, i32 0
  %41 = trunc i32 %33 to i8
  store i8 %41, i8* %40, align 1
  %42 = icmp eq i32 %33, 0
  br i1 %42, label %44, label %43

43:                                               ; preds = %38
  call void @llvm.memmove.p0i8.p0i8.i64(i8* nonnull align 8 %21, i8* align 1 %30, i64 %34, i1 false) #12
  br label %44

44:                                               ; preds = %43, %38
  %45 = getelementptr inbounds i8, i8* %21, i64 %34
  store i8 0, i8* %45, align 1
  br label %49

46:                                               ; preds = %29
  %47 = call dereferenceable(24) %"class.std::__1::basic_string"* @_ZNSt3__112basic_stringIcNS_11char_traitsIcEENS_9allocatorIcEEE17__assign_externalEPKcm(%"class.std::__1::basic_string"* nonnull %5, i8* %30, i64 %34) #12
  %48 = bitcast %"class.std::__1::basic_string"* %5 to %"struct.std::__1::basic_string<char, std::__1::char_traits<char>, std::__1::allocator<char> >::__short"*
  br label %49

49:                                               ; preds = %46, %44
  %50 = phi %"struct.std::__1::basic_string<char, std::__1::char_traits<char>, std::__1::allocator<char> >::__short"* [ %48, %46 ], [ %39, %44 ]
  %51 = getelementptr inbounds %"struct.std::__1::basic_string<char, std::__1::char_traits<char>, std::__1::allocator<char> >::__short", %"struct.std::__1::basic_string<char, std::__1::char_traits<char>, std::__1::allocator<char> >::__short"* %50, i64 0, i32 1, i32 0
  %52 = load i8, i8* %51, align 1
  %53 = icmp slt i8 %52, 0
  %54 = load i8*, i8** %22, align 8
  %55 = select i1 %53, i8* %54, i8* %21
  %56 = load i64, i64* %23, align 8
  %57 = zext i8 %52 to i64
  %58 = select i1 %53, i64 %56, i64 %57
  %59 = call zeroext i1 @_ZN4base12IsStringUTF8ENS_16BasicStringPieceIcNSt3__111char_traitsIcEEEE(i8* %55, i64 %58) #12
  br i1 %59, label %61, label %60

60:                                               ; preds = %49
  call void @_ZN4mojo8internal34RecordInvalidStringDeserializationEv() #12
  br label %61

61:                                               ; preds = %18, %49, %60
  %62 = bitcast %"class.base::OnceCallback"* %6 to i8*
  call void @llvm.lifetime.start.p0i8(i64 8, i8* nonnull %62) #12
  %63 = getelementptr inbounds %"class.base::OnceCallback", %"class.base::OnceCallback"* %6, i64 0, i32 0, i32 0, i32 0
  %64 = load %"struct.mojo::internal::MessageHeaderV1"*, %"struct.mojo::internal::MessageHeaderV1"** %14, align 8
  %65 = getelementptr inbounds %"struct.mojo::internal::MessageHeaderV1", %"struct.mojo::internal::MessageHeaderV1"* %64, i64 0, i32 1
  %66 = load i64, i64* %65, align 1
  %67 = call i8* @_Znwm(i64 24) #13, !noalias !3
  %68 = lshr i32 %13, 2
  %69 = trunc i32 %68 to i8
  %70 = and i8 %69, 1
  %71 = bitcast i8* %67 to i64*
  store i64 %66, i64* %71, align 8, !noalias !3
  %72 = getelementptr inbounds i8, i8* %67, i64 8
  store i8 %70, i8* %72, align 8, !noalias !3
  %73 = getelementptr inbounds i8, i8* %67, i64 16
  %74 = bitcast i8* %73 to i64*
  store i64 %8, i64* %74, align 8, !noalias !3
  %75 = ptrtoint i8* %67 to i64
  %76 = call i8* @_Znwm(i64 56) #13, !noalias !6
  %77 = bitcast i8* %76 to %"class.base::internal::BindStateBase"*
  call void @_ZN4base8internal13BindStateBaseC2EPFvvEPFvPKS1_E(%"class.base::internal::BindStateBase"* nonnull %77, void ()* bitcast (void (%"class.base::internal::BindStateBase"*, %"class.std::__1::basic_string"*)* @_ZN4base8internal7InvokerINS0_9BindStateIMN5blink5mojom54MimeRegistry_GetMimeTypeFromExtension_ProxyToResponderEFvRKNSt3__112basic_stringIcNS6_11char_traitsIcEENS6_9allocatorIcEEEEEJNS6_10unique_ptrIS5_NS6_14default_deleteIS5_EEEEEEEFvSE_EE7RunOnceEPNS0_13BindStateBaseESE_ to void ()*), void (%"class.base::internal::BindStateBase"*)* nonnull @_ZN4base8internal9BindStateIMN5blink5mojom54MimeRegistry_GetMimeTypeFromExtension_ProxyToResponderEFvRKNSt3__112basic_stringIcNS5_11char_traitsIcEENS5_9allocatorIcEEEEEJNS5_10unique_ptrIS4_NS5_14default_deleteIS4_EEEEEE7DestroyEPKNS0_13BindStateBaseE) #12, !noalias !6
  %78 = getelementptr inbounds i8, i8* %76, i64 32
  %79 = bitcast i8* %78 to <2 x i64>*
  store <2 x i64> <i64 ptrtoint (void (%"class.blink::mojom::MimeRegistry_GetMimeTypeFromExtension_ProxyToResponder"*, %"class.std::__1::basic_string"*)* @_ZN5blink5mojom54MimeRegistry_GetMimeTypeFromExtension_ProxyToResponder3RunERKNSt3__112basic_stringIcNS2_11char_traitsIcEENS2_9allocatorIcEEEE to i64), i64 0>, <2 x i64>* %79, align 8, !noalias !6
  %80 = getelementptr inbounds i8, i8* %76, i64 48
  %81 = bitcast i8* %80 to i64*
  store i64 %75, i64* %81, align 8, !noalias !6
  %82 = ptrtoint i8* %76 to i64
  %83 = bitcast %"class.base::OnceCallback"* %7 to i64*
  store i64 %82, i64* %83, align 8
  store %"class.base::internal::BindStateBase"* null, %"class.base::internal::BindStateBase"** %63, align 8
  %84 = bitcast %"class.blink::mojom::MimeRegistry"* %0 to void (%"class.blink::mojom::MimeRegistry"*, %"class.std::__1::basic_string"*, %"class.base::OnceCallback"*)***
  %85 = load void (%"class.blink::mojom::MimeRegistry"*, %"class.std::__1::basic_string"*, %"class.base::OnceCallback"*)**, void (%"class.blink::mojom::MimeRegistry"*, %"class.std::__1::basic_string"*, %"class.base::OnceCallback"*)*** %84, align 8
  %86 = getelementptr inbounds void (%"class.blink::mojom::MimeRegistry"*, %"class.std::__1::basic_string"*, %"class.base::OnceCallback"*)*, void (%"class.blink::mojom::MimeRegistry"*, %"class.std::__1::basic_string"*, %"class.base::OnceCallback"*)** %85, i64 3
  %87 = load void (%"class.blink::mojom::MimeRegistry"*, %"class.std::__1::basic_string"*, %"class.base::OnceCallback"*)*, void (%"class.blink::mojom::MimeRegistry"*, %"class.std::__1::basic_string"*, %"class.base::OnceCallback"*)** %86, align 8
  call void %87(%"class.blink::mojom::MimeRegistry"* %0, %"class.std::__1::basic_string"* nonnull dereferenceable(24) %5, %"class.base::OnceCallback"* nonnull %7) #12
  %88 = getelementptr inbounds %"class.base::OnceCallback", %"class.base::OnceCallback"* %7, i64 0, i32 0
  call void @_ZN4base8internal12CallbackBaseD2Ev(%"class.base::internal::CallbackBase"* nonnull %88) #12
  %89 = getelementptr inbounds %"class.base::OnceCallback", %"class.base::OnceCallback"* %6, i64 0, i32 0
  call void @_ZN4base8internal12CallbackBaseD2Ev(%"class.base::internal::CallbackBase"* nonnull %89) #12
  call void @llvm.lifetime.end.p0i8(i64 8, i8* nonnull %62) #12
  %90 = bitcast %"class.std::__1::basic_string"* %5 to %"struct.std::__1::basic_string<char, std::__1::char_traits<char>, std::__1::allocator<char> >::__short"*
  %91 = getelementptr inbounds %"struct.std::__1::basic_string<char, std::__1::char_traits<char>, std::__1::allocator<char> >::__short", %"struct.std::__1::basic_string<char, std::__1::char_traits<char>, std::__1::allocator<char> >::__short"* %90, i64 0, i32 1, i32 0
  %92 = load i8, i8* %91, align 1
  %93 = icmp slt i8 %92, 0
  br i1 %93, label %94, label %96

94:                                               ; preds = %61
  %95 = load i8*, i8** %22, align 8
  call void @_ZdlPv(i8* %95) #13
  br label %96

96:                                               ; preds = %94, %61
  call void @llvm.lifetime.end.p0i8(i64 24, i8* nonnull %21) #12
  call void @_ZN4base13TaskAnnotator16ScopedSetIpcHashD1Ev(%"class.base::TaskAnnotator::ScopedSetIpcHash"* nonnull %4) #12
  call void @llvm.lifetime.end.p0i8(i64 24, i8* nonnull %19) #12
  br label %104

97:                                               ; preds = %3
  %98 = icmp eq %"class.mojo::MessageReceiverWithStatus"* %2, null
  br i1 %98, label %104, label %99

99:                                               ; preds = %97
  %100 = bitcast %"class.mojo::MessageReceiverWithStatus"* %2 to void (%"class.mojo::MessageReceiverWithStatus"*)***
  %101 = load void (%"class.mojo::MessageReceiverWithStatus"*)**, void (%"class.mojo::MessageReceiverWithStatus"*)*** %100, align 8
  %102 = getelementptr inbounds void (%"class.mojo::MessageReceiverWithStatus"*)*, void (%"class.mojo::MessageReceiverWithStatus"*)** %101, i64 1
  %103 = load void (%"class.mojo::MessageReceiverWithStatus"*)*, void (%"class.mojo::MessageReceiverWithStatus"*)** %102, align 8
  tail call void %103(%"class.mojo::MessageReceiverWithStatus"* nonnull %2) #12
  br label %104

104:                                              ; preds = %96, %97, %99
  %105 = phi i1 [ true, %96 ], [ false, %97 ], [ false, %99 ]
  ret i1 %105
}

; Function Attrs: argmemonly nounwind
declare void @llvm.memcpy.p0i8.p0i8.i64(i8* nocapture writeonly, i8* nocapture readonly, i64, i1 immarg) #3

declare void @_ZN4base13TaskAnnotator16ScopedSetIpcHashC1Ej(%"class.base::TaskAnnotator::ScopedSetIpcHash"*, i32) unnamed_addr #4

; Function Attrs: nounwind
declare void @_ZN4base13TaskAnnotator16ScopedSetIpcHashD1Ev(%"class.base::TaskAnnotator::ScopedSetIpcHash"*) unnamed_addr #6

; Function Attrs: nounwind ssp uwtable
define hidden zeroext i1 @_ZN5blink5mojom28MimeRegistryRequestValidator6AcceptEPN4mojo7MessageE(%"class.blink::mojom::MimeRegistryRequestValidator"* nocapture readnone, %"class.mojo::Message"*) unnamed_addr #2 align 2 {
  %3 = tail call zeroext i1 @_ZN4mojo8internal28ValidateRequestGenericPackedEPNS_7MessageEPKcN4base4spanIKNS0_21GenericValidationInfoELm18446744073709551615EEE(%"class.mojo::Message"* %1, i8* getelementptr inbounds ([25 x i8], [25 x i8]* @_ZN5blink5mojom12MimeRegistry5Name_E, i64 0, i64 0), i64 1, %"struct.mojo::internal::GenericValidationInfo"* getelementptr inbounds ([1 x %"struct.mojo::internal::GenericValidationInfo"], [1 x %"struct.mojo::internal::GenericValidationInfo"]* @_ZN5blink5mojomL27kMimeRegistryValidationInfoE, i64 0, i64 0)) #12
  ret i1 %3
}

declare zeroext i1 @_ZN4mojo8internal28ValidateRequestGenericPackedEPNS_7MessageEPKcN4base4spanIKNS0_21GenericValidationInfoELm18446744073709551615EEE(%"class.mojo::Message"*, i8*, i64, %"struct.mojo::internal::GenericValidationInfo"*) local_unnamed_addr #4

; Function Attrs: nounwind ssp uwtable
define hidden zeroext i1 @_ZN5blink5mojom29MimeRegistryResponseValidator6AcceptEPN4mojo7MessageE(%"class.blink::mojom::MimeRegistryResponseValidator"* nocapture readnone, %"class.mojo::Message"*) unnamed_addr #2 align 2 {
  %3 = tail call zeroext i1 @_ZN4mojo8internal29ValidateResponseGenericPackedEPNS_7MessageEPKcN4base4spanIKNS0_21GenericValidationInfoELm18446744073709551615EEE(%"class.mojo::Message"* %1, i8* getelementptr inbounds ([25 x i8], [25 x i8]* @_ZN5blink5mojom12MimeRegistry5Name_E, i64 0, i64 0), i64 1, %"struct.mojo::internal::GenericValidationInfo"* getelementptr inbounds ([1 x %"struct.mojo::internal::GenericValidationInfo"], [1 x %"struct.mojo::internal::GenericValidationInfo"]* @_ZN5blink5mojomL27kMimeRegistryValidationInfoE, i64 0, i64 0)) #12
  ret i1 %3
}

declare zeroext i1 @_ZN4mojo8internal29ValidateResponseGenericPackedEPNS_7MessageEPKcN4base4spanIKNS0_21GenericValidationInfoELm18446744073709551615EEE(%"class.mojo::Message"*, i8*, i64, %"struct.mojo::internal::GenericValidationInfo"*) local_unnamed_addr #4

; Function Attrs: nounwind ssp uwtable
define linkonce_odr hidden void @_ZN5blink5mojom12MimeRegistryD0Ev(%"class.blink::mojom::MimeRegistry"*) unnamed_addr #2 comdat align 2 {
  tail call void @llvm.trap() #14
  unreachable
}

declare void @__cxa_pure_virtual() unnamed_addr

; Function Attrs: inlinehint nounwind ssp uwtable
define linkonce_odr hidden void @_ZN5blink5mojom56MimeRegistry_GetMimeTypeFromExtension_HandleSyncResponseD0Ev(%"class.blink::mojom::MimeRegistry_GetMimeTypeFromExtension_HandleSyncResponse"*) unnamed_addr #8 comdat align 2 {
  %2 = bitcast %"class.blink::mojom::MimeRegistry_GetMimeTypeFromExtension_HandleSyncResponse"* %0 to i8*
  tail call void @_ZdlPv(i8* %2) #13
  ret void
}

declare zeroext i1 @_ZN4mojo15MessageReceiver25PrefersSerializedMessagesEv(%"class.mojo::MessageReceiver"*) unnamed_addr #4

; Function Attrs: inlinehint nounwind ssp uwtable
define linkonce_odr hidden void @_ZN5blink5mojom55MimeRegistry_GetMimeTypeFromExtension_ForwardToCallbackD2Ev(%"class.blink::mojom::MimeRegistry_GetMimeTypeFromExtension_ForwardToCallback"*) unnamed_addr #8 comdat align 2 {
  %2 = getelementptr inbounds %"class.blink::mojom::MimeRegistry_GetMimeTypeFromExtension_ForwardToCallback", %"class.blink::mojom::MimeRegistry_GetMimeTypeFromExtension_ForwardToCallback"* %0, i64 0, i32 0, i32 0
  store i32 (...)** bitcast (i8** getelementptr inbounds ({ [6 x i8*] }, { [6 x i8*] }* @_ZTVN5blink5mojom55MimeRegistry_GetMimeTypeFromExtension_ForwardToCallbackE, i64 0, inrange i32 0, i64 2) to i32 (...)**), i32 (...)*** %2, align 8
  %3 = getelementptr inbounds %"class.blink::mojom::MimeRegistry_GetMimeTypeFromExtension_ForwardToCallback", %"class.blink::mojom::MimeRegistry_GetMimeTypeFromExtension_ForwardToCallback"* %0, i64 0, i32 1, i32 0
  tail call void @_ZN4base8internal12CallbackBaseD2Ev(%"class.base::internal::CallbackBase"* %3) #12
  ret void
}

; Function Attrs: inlinehint nounwind ssp uwtable
define linkonce_odr hidden void @_ZN5blink5mojom55MimeRegistry_GetMimeTypeFromExtension_ForwardToCallbackD0Ev(%"class.blink::mojom::MimeRegistry_GetMimeTypeFromExtension_ForwardToCallback"*) unnamed_addr #8 comdat align 2 {
  %2 = getelementptr inbounds %"class.blink::mojom::MimeRegistry_GetMimeTypeFromExtension_ForwardToCallback", %"class.blink::mojom::MimeRegistry_GetMimeTypeFromExtension_ForwardToCallback"* %0, i64 0, i32 0, i32 0
  store i32 (...)** bitcast (i8** getelementptr inbounds ({ [6 x i8*] }, { [6 x i8*] }* @_ZTVN5blink5mojom55MimeRegistry_GetMimeTypeFromExtension_ForwardToCallbackE, i64 0, inrange i32 0, i64 2) to i32 (...)**), i32 (...)*** %2, align 8
  %3 = getelementptr inbounds %"class.blink::mojom::MimeRegistry_GetMimeTypeFromExtension_ForwardToCallback", %"class.blink::mojom::MimeRegistry_GetMimeTypeFromExtension_ForwardToCallback"* %0, i64 0, i32 1, i32 0
  tail call void @_ZN4base8internal12CallbackBaseD2Ev(%"class.base::internal::CallbackBase"* %3) #12
  %4 = bitcast %"class.blink::mojom::MimeRegistry_GetMimeTypeFromExtension_ForwardToCallback"* %0 to i8*
  tail call void @_ZdlPv(i8* %4) #13
  ret void
}

; Function Attrs: nounwind ssp uwtable
define linkonce_odr hidden void @_ZN5blink5mojom12MimeRegistryD2Ev(%"class.blink::mojom::MimeRegistry"*) unnamed_addr #2 comdat align 2 {
  ret void
}

; Function Attrs: inlinehint nounwind ssp uwtable
define linkonce_odr hidden void @_ZN5blink5mojom17MimeRegistryProxyD0Ev(%"class.blink::mojom::MimeRegistryProxy"*) unnamed_addr #8 comdat align 2 {
  %2 = bitcast %"class.blink::mojom::MimeRegistryProxy"* %0 to i8*
  tail call void @_ZdlPv(i8* %2) #13
  ret void
}

; Function Attrs: inlinehint nounwind ssp uwtable
define linkonce_odr hidden void @_ZN5blink5mojom28MimeRegistryRequestValidatorD0Ev(%"class.blink::mojom::MimeRegistryRequestValidator"*) unnamed_addr #8 comdat align 2 {
  %2 = bitcast %"class.blink::mojom::MimeRegistryRequestValidator"* %0 to i8*
  tail call void @_ZdlPv(i8* %2) #13
  ret void
}

; Function Attrs: nounwind ssp uwtable
define linkonce_odr hidden void @_ZN4mojo15MessageReceiverD2Ev(%"class.mojo::MessageReceiver"*) unnamed_addr #2 comdat align 2 {
  ret void
}

; Function Attrs: inlinehint nounwind ssp uwtable
define linkonce_odr hidden void @_ZN5blink5mojom29MimeRegistryResponseValidatorD0Ev(%"class.blink::mojom::MimeRegistryResponseValidator"*) unnamed_addr #8 comdat align 2 {
  %2 = bitcast %"class.blink::mojom::MimeRegistryResponseValidator"* %0 to i8*
  tail call void @_ZdlPv(i8* %2) #13
  ret void
}

declare i8* @_ZNK4mojo7Message7payloadEv(%"class.mojo::Message"*) local_unnamed_addr #4

; Function Attrs: nounwind ssp uwtable
define linkonce_odr hidden void @_ZN4base8internal7InvokerINS0_9BindStateIMN5blink5mojom54MimeRegistry_GetMimeTypeFromExtension_ProxyToResponderEFvRKNSt3__112basic_stringIcNS6_11char_traitsIcEENS6_9allocatorIcEEEEEJNS6_10unique_ptrIS5_NS6_14default_deleteIS5_EEEEEEEFvSE_EE7RunOnceEPNS0_13BindStateBaseESE_(%"class.base::internal::BindStateBase"*, %"class.std::__1::basic_string"* dereferenceable(24)) #2 comdat align 2 {
  %3 = getelementptr inbounds %"class.base::internal::BindStateBase", %"class.base::internal::BindStateBase"* %0, i64 1
  %4 = getelementptr inbounds %"class.base::internal::BindStateBase", %"class.base::internal::BindStateBase"* %0, i64 1, i32 2
  %5 = bitcast %"class.base::internal::BindStateBase"* %3 to i64*
  %6 = load i64, i64* %5, align 8
  %7 = getelementptr inbounds %"class.base::internal::BindStateBase", %"class.base::internal::BindStateBase"* %0, i64 1, i32 1
  %8 = bitcast void ()** %7 to i64*
  %9 = load i64, i64* %8, align 8
  %10 = bitcast void (%"class.base::internal::BindStateBase"*)** %4 to i8**
  %11 = load i8*, i8** %10, align 8
  %12 = getelementptr inbounds i8, i8* %11, i64 %9
  %13 = bitcast i8* %12 to %"class.blink::mojom::MimeRegistry_GetMimeTypeFromExtension_ProxyToResponder"*
  %14 = and i64 %6, 1
  %15 = icmp eq i64 %14, 0
  br i1 %15, label %23, label %16

16:                                               ; preds = %2
  %17 = bitcast i8* %12 to i8**
  %18 = load i8*, i8** %17, align 8
  %19 = add i64 %6, -1
  %20 = getelementptr i8, i8* %18, i64 %19
  %21 = bitcast i8* %20 to void (%"class.blink::mojom::MimeRegistry_GetMimeTypeFromExtension_ProxyToResponder"*, %"class.std::__1::basic_string"*)**
  %22 = load void (%"class.blink::mojom::MimeRegistry_GetMimeTypeFromExtension_ProxyToResponder"*, %"class.std::__1::basic_string"*)*, void (%"class.blink::mojom::MimeRegistry_GetMimeTypeFromExtension_ProxyToResponder"*, %"class.std::__1::basic_string"*)** %21, align 8
  br label %25

23:                                               ; preds = %2
  %24 = inttoptr i64 %6 to void (%"class.blink::mojom::MimeRegistry_GetMimeTypeFromExtension_ProxyToResponder"*, %"class.std::__1::basic_string"*)*
  br label %25

25:                                               ; preds = %16, %23
  %26 = phi void (%"class.blink::mojom::MimeRegistry_GetMimeTypeFromExtension_ProxyToResponder"*, %"class.std::__1::basic_string"*)* [ %22, %16 ], [ %24, %23 ]
  tail call void %26(%"class.blink::mojom::MimeRegistry_GetMimeTypeFromExtension_ProxyToResponder"* %13, %"class.std::__1::basic_string"* dereferenceable(24) %1) #12
  ret void
}

; Function Attrs: nounwind ssp uwtable
define linkonce_odr hidden void @_ZN4base8internal9BindStateIMN5blink5mojom54MimeRegistry_GetMimeTypeFromExtension_ProxyToResponderEFvRKNSt3__112basic_stringIcNS5_11char_traitsIcEENS5_9allocatorIcEEEEEJNS5_10unique_ptrIS4_NS5_14default_deleteIS4_EEEEEE7DestroyEPKNS0_13BindStateBaseE(%"class.base::internal::BindStateBase"*) #2 comdat align 2 {
  %2 = icmp eq %"class.base::internal::BindStateBase"* %0, null
  br i1 %2, label %28, label %3

3:                                                ; preds = %1
  %4 = getelementptr inbounds %"class.base::internal::BindStateBase", %"class.base::internal::BindStateBase"* %0, i64 1, i32 2
  %5 = bitcast void (%"class.base::internal::BindStateBase"*)** %4 to %"class.blink::mojom::MimeRegistry_GetMimeTypeFromExtension_ProxyToResponder"**
  %6 = load %"class.blink::mojom::MimeRegistry_GetMimeTypeFromExtension_ProxyToResponder"*, %"class.blink::mojom::MimeRegistry_GetMimeTypeFromExtension_ProxyToResponder"** %5, align 8
  store %"class.blink::mojom::MimeRegistry_GetMimeTypeFromExtension_ProxyToResponder"* null, %"class.blink::mojom::MimeRegistry_GetMimeTypeFromExtension_ProxyToResponder"** %5, align 8
  %7 = icmp eq %"class.blink::mojom::MimeRegistry_GetMimeTypeFromExtension_ProxyToResponder"* %6, null
  br i1 %7, label %26, label %8

8:                                                ; preds = %3
  %9 = getelementptr inbounds %"class.blink::mojom::MimeRegistry_GetMimeTypeFromExtension_ProxyToResponder", %"class.blink::mojom::MimeRegistry_GetMimeTypeFromExtension_ProxyToResponder"* %6, i64 0, i32 2, i32 0, i32 0, i32 0
  %10 = load %"class.mojo::MessageReceiverWithStatus"*, %"class.mojo::MessageReceiverWithStatus"** %9, align 8
  store %"class.mojo::MessageReceiverWithStatus"* null, %"class.mojo::MessageReceiverWithStatus"** %9, align 8
  %11 = icmp eq %"class.mojo::MessageReceiverWithStatus"* %10, null
  br i1 %11, label %24, label %12

12:                                               ; preds = %8
  %13 = bitcast %"class.mojo::MessageReceiverWithStatus"* %10 to void (%"class.mojo::MessageReceiverWithStatus"*)***
  %14 = load void (%"class.mojo::MessageReceiverWithStatus"*)**, void (%"class.mojo::MessageReceiverWithStatus"*)*** %13, align 8
  %15 = getelementptr inbounds void (%"class.mojo::MessageReceiverWithStatus"*)*, void (%"class.mojo::MessageReceiverWithStatus"*)** %14, i64 1
  %16 = load void (%"class.mojo::MessageReceiverWithStatus"*)*, void (%"class.mojo::MessageReceiverWithStatus"*)** %15, align 8
  tail call void %16(%"class.mojo::MessageReceiverWithStatus"* nonnull %10) #12
  %17 = load %"class.mojo::MessageReceiverWithStatus"*, %"class.mojo::MessageReceiverWithStatus"** %9, align 8
  store %"class.mojo::MessageReceiverWithStatus"* null, %"class.mojo::MessageReceiverWithStatus"** %9, align 8
  %18 = icmp eq %"class.mojo::MessageReceiverWithStatus"* %17, null
  br i1 %18, label %24, label %19

19:                                               ; preds = %12
  %20 = bitcast %"class.mojo::MessageReceiverWithStatus"* %17 to void (%"class.mojo::MessageReceiverWithStatus"*)***
  %21 = load void (%"class.mojo::MessageReceiverWithStatus"*)**, void (%"class.mojo::MessageReceiverWithStatus"*)*** %20, align 8
  %22 = getelementptr inbounds void (%"class.mojo::MessageReceiverWithStatus"*)*, void (%"class.mojo::MessageReceiverWithStatus"*)** %21, i64 1
  %23 = load void (%"class.mojo::MessageReceiverWithStatus"*)*, void (%"class.mojo::MessageReceiverWithStatus"*)** %22, align 8
  tail call void %23(%"class.mojo::MessageReceiverWithStatus"* nonnull %17) #12
  br label %24

24:                                               ; preds = %19, %12, %8
  %25 = bitcast %"class.blink::mojom::MimeRegistry_GetMimeTypeFromExtension_ProxyToResponder"* %6 to i8*
  tail call void @_ZdlPv(i8* %25) #13
  br label %26

26:                                               ; preds = %3, %24
  %27 = bitcast %"class.base::internal::BindStateBase"* %0 to i8*
  tail call void @_ZdlPv(i8* %27) #13
  br label %28

28:                                               ; preds = %26, %1
  ret void
}

declare void @_ZN4base8internal13BindStateBaseC2EPFvvEPFvPKS1_E(%"class.base::internal::BindStateBase"*, void ()*, void (%"class.base::internal::BindStateBase"*)*) unnamed_addr #4

; Function Attrs: nobuiltin nounwind
declare void @_ZdlPv(i8*) local_unnamed_addr #9

declare zeroext i1 @_ZN5blink5mojom8internal49MimeRegistry_GetMimeTypeFromExtension_Params_Data8ValidateEPKvPN4mojo8internal17ValidationContextE(i8*, %"class.mojo::internal::ValidationContext"*) #4

declare zeroext i1 @_ZN5blink5mojom8internal57MimeRegistry_GetMimeTypeFromExtension_ResponseParams_Data8ValidateEPKvPN4mojo8internal17ValidationContextE(i8*, %"class.mojo::internal::ValidationContext"*) #4

; Function Attrs: cold noreturn nounwind
declare void @llvm.trap() #10

declare i64 @_ZN4mojo8internal6Buffer8AllocateEm(%"class.mojo::internal::Buffer"*, i64) local_unnamed_addr #4

declare void @_ZN5blink5mojom8internal49MimeRegistry_GetMimeTypeFromExtension_Params_DataC1Ev(%"class.blink::mojom::internal::MimeRegistry_GetMimeTypeFromExtension_Params_Data"*) unnamed_addr #4

; Function Attrs: nounwind ssp uwtable
define linkonce_odr hidden void @_ZN4mojo8internal10SerializerINS_14StringDataViewEKNSt3__112basic_stringIcNS3_11char_traitsIcEENS3_9allocatorIcEEEEE9SerializeERSA_RNS0_15MessageFragmentINS0_10Array_DataIcEEEE(%"class.std::__1::basic_string"* dereferenceable(24), %"class.mojo::internal::MessageFragment.25"* dereferenceable(16)) local_unnamed_addr #2 comdat align 2 {
  %3 = alloca %"class.std::__1::basic_string", align 8
  %4 = bitcast %"class.std::__1::basic_string"* %3 to i8*
  call void @llvm.lifetime.start.p0i8(i64 24, i8* nonnull %4) #12
  %5 = getelementptr inbounds %"class.std::__1::basic_string", %"class.std::__1::basic_string"* %3, i64 0, i32 0, i32 0, i32 0, i32 0, i32 0, i32 0
  %6 = getelementptr inbounds %"class.std::__1::basic_string", %"class.std::__1::basic_string"* %3, i64 0, i32 0, i32 0, i32 0, i32 0, i32 0, i32 1
  %7 = bitcast %"class.std::__1::basic_string"* %0 to %"struct.std::__1::basic_string<char, std::__1::char_traits<char>, std::__1::allocator<char> >::__short"*
  %8 = getelementptr inbounds %"struct.std::__1::basic_string<char, std::__1::char_traits<char>, std::__1::allocator<char> >::__short", %"struct.std::__1::basic_string<char, std::__1::char_traits<char>, std::__1::allocator<char> >::__short"* %7, i64 0, i32 1, i32 0
  %9 = bitcast %"class.std::__1::basic_string"* %3 to i8*
  call void @llvm.memset.p0i8.i64(i8* nonnull align 8 %9, i8 -86, i64 24, i1 false)
  %10 = load i8, i8* %8, align 1
  %11 = icmp slt i8 %10, 0
  br i1 %11, label %14, label %12

12:                                               ; preds = %2
  %13 = bitcast %"class.std::__1::basic_string"* %0 to i8*
  call void @llvm.memcpy.p0i8.p0i8.i64(i8* nonnull align 8 %4, i8* align 8 %13, i64 24, i1 false) #12
  br label %19

14:                                               ; preds = %2
  %15 = getelementptr inbounds %"class.std::__1::basic_string", %"class.std::__1::basic_string"* %0, i64 0, i32 0, i32 0, i32 0, i32 0, i32 0, i32 0
  %16 = load i8*, i8** %15, align 8
  %17 = getelementptr inbounds %"class.std::__1::basic_string", %"class.std::__1::basic_string"* %0, i64 0, i32 0, i32 0, i32 0, i32 0, i32 0, i32 1
  %18 = load i64, i64* %17, align 8
  call void @_ZNSt3__112basic_stringIcNS_11char_traitsIcEENS_9allocatorIcEEE25__init_copy_ctor_externalEPKcm(%"class.std::__1::basic_string"* nonnull %3, i8* %16, i64 %18) #12
  br label %19

19:                                               ; preds = %12, %14
  %20 = bitcast %"class.std::__1::basic_string"* %3 to %"struct.std::__1::basic_string<char, std::__1::char_traits<char>, std::__1::allocator<char> >::__short"*
  %21 = getelementptr inbounds %"struct.std::__1::basic_string<char, std::__1::char_traits<char>, std::__1::allocator<char> >::__short", %"struct.std::__1::basic_string<char, std::__1::char_traits<char>, std::__1::allocator<char> >::__short"* %20, i64 0, i32 1, i32 0
  %22 = load i8, i8* %21, align 1
  %23 = icmp slt i8 %22, 0
  br i1 %23, label %26, label %24

24:                                               ; preds = %19
  %25 = zext i8 %22 to i64
  br label %29

26:                                               ; preds = %19
  %27 = load i64, i64* %6, align 8
  %28 = icmp ugt i64 %27, 4294967287
  br i1 %28, label %48, label %29

29:                                               ; preds = %24, %26
  %30 = phi i64 [ %25, %24 ], [ %27, %26 ]
  %31 = trunc i64 %30 to i32
  %32 = add nuw i32 %31, 8
  %33 = getelementptr inbounds %"class.mojo::internal::MessageFragment.25", %"class.mojo::internal::MessageFragment.25"* %1, i64 0, i32 0
  %34 = load %"class.mojo::Message"*, %"class.mojo::Message"** %33, align 8
  %35 = getelementptr inbounds %"class.mojo::Message", %"class.mojo::Message"* %34, i64 0, i32 1
  %36 = zext i32 %32 to i64
  %37 = call i64 @_ZN4mojo8internal6Buffer8AllocateEm(%"class.mojo::internal::Buffer"* %35, i64 %36) #12
  %38 = getelementptr inbounds %"class.mojo::internal::MessageFragment.25", %"class.mojo::internal::MessageFragment.25"* %1, i64 0, i32 1
  store i64 %37, i64* %38, align 8
  %39 = load %"class.mojo::Message"*, %"class.mojo::Message"** %33, align 8
  %40 = getelementptr inbounds %"class.mojo::Message", %"class.mojo::Message"* %39, i64 0, i32 1, i32 2
  %41 = load i8*, i8** %40, align 8
  %42 = getelementptr inbounds i8, i8* %41, i64 %37
  %43 = bitcast i8* %42 to i32*
  store i32 %32, i32* %43, align 1
  %44 = getelementptr inbounds i8, i8* %42, i64 4
  %45 = bitcast i8* %44 to i32*
  store i32 %31, i32* %45, align 1
  %46 = load i8, i8* %21, align 1
  %47 = load i64, i64* %6, align 8
  br label %48

48:                                               ; preds = %26, %29
  %49 = phi i64 [ %27, %26 ], [ %47, %29 ]
  %50 = phi i8 [ %22, %26 ], [ %46, %29 ]
  %51 = getelementptr inbounds %"class.mojo::internal::MessageFragment.25", %"class.mojo::internal::MessageFragment.25"* %1, i64 0, i32 0
  %52 = load %"class.mojo::Message"*, %"class.mojo::Message"** %51, align 8
  %53 = getelementptr inbounds %"class.mojo::internal::MessageFragment.25", %"class.mojo::internal::MessageFragment.25"* %1, i64 0, i32 1
  %54 = load i64, i64* %53, align 8
  %55 = getelementptr inbounds %"class.mojo::Message", %"class.mojo::Message"* %52, i64 0, i32 1, i32 2
  %56 = load i8*, i8** %55, align 8
  %57 = getelementptr inbounds i8, i8* %56, i64 %54
  %58 = getelementptr inbounds i8, i8* %57, i64 8
  %59 = icmp slt i8 %50, 0
  %60 = load i8*, i8** %5, align 8
  %61 = zext i8 %50 to i64
  %62 = select i1 %59, i8* %60, i8* %4
  %63 = select i1 %59, i64 %49, i64 %61
  call void @llvm.memcpy.p0i8.p0i8.i64(i8* align 1 %58, i8* align 1 %62, i64 %63, i1 false)
  %64 = load i8, i8* %21, align 1
  %65 = icmp slt i8 %64, 0
  br i1 %65, label %66, label %68

66:                                               ; preds = %48
  %67 = load i8*, i8** %5, align 8
  call void @_ZdlPv(i8* %67) #13
  br label %68

68:                                               ; preds = %66, %48
  call void @llvm.lifetime.end.p0i8(i64 24, i8* nonnull %4) #12
  ret void
}

declare void @_ZNSt3__112basic_stringIcNS_11char_traitsIcEENS_9allocatorIcEEE25__init_copy_ctor_externalEPKcm(%"class.std::__1::basic_string"*, i8*, i64) local_unnamed_addr #4

declare void @_ZN4mojo8internal34RecordInvalidStringDeserializationEv() local_unnamed_addr #4

; Function Attrs: nounwind readnone
declare i1 @llvm.is.constant.i64(i64) #11

declare dereferenceable(24) %"class.std::__1::basic_string"* @_ZNSt3__112basic_stringIcNS_11char_traitsIcEENS_9allocatorIcEEE17__assign_externalEPKcm(%"class.std::__1::basic_string"*, i8*, i64) local_unnamed_addr #4

; Function Attrs: argmemonly nounwind
declare void @llvm.memmove.p0i8.p0i8.i64(i8* nocapture, i8* nocapture readonly, i64, i1 immarg) #3

declare zeroext i1 @_ZN4base12IsStringUTF8ENS_16BasicStringPieceIcNSt3__111char_traitsIcEEEE(i8*, i64) local_unnamed_addr #4

declare void @_ZN5blink5mojom8internal57MimeRegistry_GetMimeTypeFromExtension_ResponseParams_DataC1Ev(%"class.blink::mojom::internal::MimeRegistry_GetMimeTypeFromExtension_ResponseParams_Data"*) unnamed_addr #4

attributes #0 = { norecurse nounwind readnone ssp uwtable "correctly-rounded-divide-sqrt-fp-math"="false" "disable-tail-calls"="false" "less-precise-fpmad"="false" "min-legal-vector-width"="0" "no-frame-pointer-elim"="false" "no-frame-pointer-elim-non-leaf" "no-infs-fp-math"="false" "no-jump-tables"="false" "no-nans-fp-math"="false" "no-signed-zeros-fp-math"="false" "no-trapping-math"="false" "null-pointer-is-valid"="true" "stack-protector-buffer-size"="4" "target-cpu"="x86-64" "target-features"="+cx8,+fxsr,+mmx,+sse,+sse2,+sse3,+x87" "unsafe-fp-math"="false" "use-soft-float"="false" }
attributes #1 = { nofree norecurse nounwind ssp uwtable writeonly "correctly-rounded-divide-sqrt-fp-math"="false" "disable-tail-calls"="false" "less-precise-fpmad"="false" "min-legal-vector-width"="0" "no-frame-pointer-elim"="false" "no-frame-pointer-elim-non-leaf" "no-infs-fp-math"="false" "no-jump-tables"="false" "no-nans-fp-math"="false" "no-signed-zeros-fp-math"="false" "no-trapping-math"="false" "null-pointer-is-valid"="true" "stack-protector-buffer-size"="4" "target-cpu"="x86-64" "target-features"="+cx8,+fxsr,+mmx,+sse,+sse2,+sse3,+x87" "unsafe-fp-math"="false" "use-soft-float"="false" }
attributes #2 = { nounwind ssp uwtable "correctly-rounded-divide-sqrt-fp-math"="false" "disable-tail-calls"="false" "less-precise-fpmad"="false" "min-legal-vector-width"="0" "no-frame-pointer-elim"="false" "no-frame-pointer-elim-non-leaf" "no-infs-fp-math"="false" "no-jump-tables"="false" "no-nans-fp-math"="false" "no-signed-zeros-fp-math"="false" "no-trapping-math"="false" "null-pointer-is-valid"="true" "stack-protector-buffer-size"="4" "target-cpu"="x86-64" "target-features"="+cx8,+fxsr,+mmx,+sse,+sse2,+sse3,+x87" "unsafe-fp-math"="false" "use-soft-float"="false" }
attributes #3 = { argmemonly nounwind }
attributes #4 = { "correctly-rounded-divide-sqrt-fp-math"="false" "disable-tail-calls"="false" "less-precise-fpmad"="false" "no-frame-pointer-elim"="false" "no-frame-pointer-elim-non-leaf" "no-infs-fp-math"="false" "no-nans-fp-math"="false" "no-signed-zeros-fp-math"="false" "no-trapping-math"="false" "null-pointer-is-valid"="true" "stack-protector-buffer-size"="4" "target-cpu"="x86-64" "target-features"="+cx8,+fxsr,+mmx,+sse,+sse2,+sse3,+x87" "unsafe-fp-math"="false" "use-soft-float"="false" }
attributes #5 = { nobuiltin nofree "correctly-rounded-divide-sqrt-fp-math"="false" "disable-tail-calls"="false" "less-precise-fpmad"="false" "no-frame-pointer-elim"="false" "no-frame-pointer-elim-non-leaf" "no-infs-fp-math"="false" "no-nans-fp-math"="false" "no-signed-zeros-fp-math"="false" "no-trapping-math"="false" "null-pointer-is-valid"="true" "stack-protector-buffer-size"="4" "target-cpu"="x86-64" "target-features"="+cx8,+fxsr,+mmx,+sse,+sse2,+sse3,+x87" "unsafe-fp-math"="false" "use-soft-float"="false" }
attributes #6 = { nounwind "correctly-rounded-divide-sqrt-fp-math"="false" "disable-tail-calls"="false" "less-precise-fpmad"="false" "no-frame-pointer-elim"="false" "no-frame-pointer-elim-non-leaf" "no-infs-fp-math"="false" "no-nans-fp-math"="false" "no-signed-zeros-fp-math"="false" "no-trapping-math"="false" "null-pointer-is-valid"="true" "stack-protector-buffer-size"="4" "target-cpu"="x86-64" "target-features"="+cx8,+fxsr,+mmx,+sse,+sse2,+sse3,+x87" "unsafe-fp-math"="false" "use-soft-float"="false" }
attributes #7 = { norecurse nounwind readonly ssp uwtable "correctly-rounded-divide-sqrt-fp-math"="false" "disable-tail-calls"="false" "less-precise-fpmad"="false" "min-legal-vector-width"="0" "no-frame-pointer-elim"="false" "no-frame-pointer-elim-non-leaf" "no-infs-fp-math"="false" "no-jump-tables"="false" "no-nans-fp-math"="false" "no-signed-zeros-fp-math"="false" "no-trapping-math"="false" "null-pointer-is-valid"="true" "stack-protector-buffer-size"="4" "target-cpu"="x86-64" "target-features"="+cx8,+fxsr,+mmx,+sse,+sse2,+sse3,+x87" "unsafe-fp-math"="false" "use-soft-float"="false" }
attributes #8 = { inlinehint nounwind ssp uwtable "correctly-rounded-divide-sqrt-fp-math"="false" "disable-tail-calls"="false" "less-precise-fpmad"="false" "min-legal-vector-width"="0" "no-frame-pointer-elim"="false" "no-frame-pointer-elim-non-leaf" "no-infs-fp-math"="false" "no-jump-tables"="false" "no-nans-fp-math"="false" "no-signed-zeros-fp-math"="false" "no-trapping-math"="false" "null-pointer-is-valid"="true" "stack-protector-buffer-size"="4" "target-cpu"="x86-64" "target-features"="+cx8,+fxsr,+mmx,+sse,+sse2,+sse3,+x87" "unsafe-fp-math"="false" "use-soft-float"="false" }
attributes #9 = { nobuiltin nounwind "correctly-rounded-divide-sqrt-fp-math"="false" "disable-tail-calls"="false" "less-precise-fpmad"="false" "no-frame-pointer-elim"="false" "no-frame-pointer-elim-non-leaf" "no-infs-fp-math"="false" "no-nans-fp-math"="false" "no-signed-zeros-fp-math"="false" "no-trapping-math"="false" "null-pointer-is-valid"="true" "stack-protector-buffer-size"="4" "target-cpu"="x86-64" "target-features"="+cx8,+fxsr,+mmx,+sse,+sse2,+sse3,+x87" "unsafe-fp-math"="false" "use-soft-float"="false" }
attributes #10 = { cold noreturn nounwind }
attributes #11 = { nounwind readnone }
attributes #12 = { nounwind }
attributes #13 = { builtin nounwind }
attributes #14 = { noreturn nounwind }

!llvm.module.flags = !{!0, !1}

!0 = !{i32 1, !"wchar_size", i32 4}
!1 = !{i32 7, !"PIC Level", i32 2}
!2 = !{i8 0, i8 2}
!3 = !{!4}
!4 = distinct !{!4, !5, !"_ZN5blink5mojom54MimeRegistry_GetMimeTypeFromExtension_ProxyToResponder14CreateCallbackEmbPNSt3__110unique_ptrIN4mojo25MessageReceiverWithStatusENS2_14default_deleteIS5_EEEE: argument 0"}
!5 = distinct !{!5, !"_ZN5blink5mojom54MimeRegistry_GetMimeTypeFromExtension_ProxyToResponder14CreateCallbackEmbPNSt3__110unique_ptrIN4mojo25MessageReceiverWithStatusENS2_14default_deleteIS5_EEEE"}
!6 = !{!7, !9, !4}
!7 = distinct !{!7, !8, !"_ZN4base8internal8BindImplINS_12OnceCallbackEMN5blink5mojom54MimeRegistry_GetMimeTypeFromExtension_ProxyToResponderEFvRKNSt3__112basic_stringIcNS6_11char_traitsIcEENS6_9allocatorIcEEEEEJNS6_10unique_ptrIS5_NS6_14default_deleteIS5_EEEEEEEDcOT0_DpOT1_: argument 0"}
!8 = distinct !{!8, !"_ZN4base8internal8BindImplINS_12OnceCallbackEMN5blink5mojom54MimeRegistry_GetMimeTypeFromExtension_ProxyToResponderEFvRKNSt3__112basic_stringIcNS6_11char_traitsIcEENS6_9allocatorIcEEEEEJNS6_10unique_ptrIS5_NS6_14default_deleteIS5_EEEEEEEDcOT0_DpOT1_"}
!9 = distinct !{!9, !10, !"_ZN4base8BindOnceIMN5blink5mojom54MimeRegistry_GetMimeTypeFromExtension_ProxyToResponderEFvRKNSt3__112basic_stringIcNS4_11char_traitsIcEENS4_9allocatorIcEEEEEJNS4_10unique_ptrIS3_NS4_14default_deleteIS3_EEEEEEENS_12OnceCallbackINS_8internal14BindTypeHelperIT_JDpT0_EE14UnboundRunTypeEEEOSM_DpOSN_: argument 0"}
!10 = distinct !{!10, !"_ZN4base8BindOnceIMN5blink5mojom54MimeRegistry_GetMimeTypeFromExtension_ProxyToResponderEFvRKNSt3__112basic_stringIcNS4_11char_traitsIcEENS4_9allocatorIcEEEEEJNS4_10unique_ptrIS3_NS4_14default_deleteIS3_EEEEEEENS_12OnceCallbackINS_8internal14BindTypeHelperIT_JDpT0_EE14UnboundRunTypeEEEOSM_DpOSN_"}
