; ModuleID = 'gen/components/optimization_guide/proto/models.pb.cc'
source_filename = "gen/components/optimization_guide/proto/models.pb.cc"
target datalayout = "e-m:e-i64:64-f80:128-n8:16:32:64-S128"
target triple = "x86_64-unknown-linux-gnu"

module asm ".symver exp, exp@GLIBC_2.2.5"
module asm ".symver exp2, exp2@GLIBC_2.2.5"
module asm ".symver exp2f, exp2f@GLIBC_2.2.5"
module asm ".symver expf, expf@GLIBC_2.2.5"
module asm ".symver lgamma, lgamma@GLIBC_2.2.5"
module asm ".symver lgammaf, lgammaf@GLIBC_2.2.5"
module asm ".symver lgammal, lgammal@GLIBC_2.2.5"
module asm ".symver log, log@GLIBC_2.2.5"
module asm ".symver log2, log2@GLIBC_2.2.5"
module asm ".symver log2f, log2f@GLIBC_2.2.5"
module asm ".symver logf, logf@GLIBC_2.2.5"
module asm ".symver pow, pow@GLIBC_2.2.5"
module asm ".symver powf, powf@GLIBC_2.2.5"

%"class.optimization_guide::proto::ModelDefaultTypeInternal" = type { %"class.google::protobuf::internal::ExplicitlyConstructed" }
%"class.google::protobuf::internal::ExplicitlyConstructed" = type { %"union.google::protobuf::internal::ExplicitlyConstructed<optimization_guide::proto::Model>::AlignedUnion" }
%"union.google::protobuf::internal::ExplicitlyConstructed<optimization_guide::proto::Model>::AlignedUnion" = type { i64, [40 x i8] }
%"class.optimization_guide::proto::Ensemble_MemberDefaultTypeInternal" = type { %"class.google::protobuf::internal::ExplicitlyConstructed.0" }
%"class.google::protobuf::internal::ExplicitlyConstructed.0" = type { %"union.google::protobuf::internal::ExplicitlyConstructed<optimization_guide::proto::Ensemble_Member>::AlignedUnion" }
%"union.google::protobuf::internal::ExplicitlyConstructed<optimization_guide::proto::Ensemble_Member>::AlignedUnion" = type { i64, [24 x i8] }
%"class.optimization_guide::proto::EnsembleDefaultTypeInternal" = type { %"class.google::protobuf::internal::ExplicitlyConstructed.1" }
%"class.google::protobuf::internal::ExplicitlyConstructed.1" = type { %"union.google::protobuf::internal::ExplicitlyConstructed<optimization_guide::proto::Ensemble>::AlignedUnion" }
%"union.google::protobuf::internal::ExplicitlyConstructed<optimization_guide::proto::Ensemble>::AlignedUnion" = type { i64, [40 x i8] }
%"class.optimization_guide::proto::DecisionTreeDefaultTypeInternal" = type { %"class.google::protobuf::internal::ExplicitlyConstructed.2" }
%"class.google::protobuf::internal::ExplicitlyConstructed.2" = type { %"union.google::protobuf::internal::ExplicitlyConstructed<optimization_guide::proto::DecisionTree>::AlignedUnion" }
%"union.google::protobuf::internal::ExplicitlyConstructed<optimization_guide::proto::DecisionTree>::AlignedUnion" = type { i64, [48 x i8] }
%"class.optimization_guide::proto::TreeNodeDefaultTypeInternal" = type { %"class.google::protobuf::internal::ExplicitlyConstructed.3" }
%"class.google::protobuf::internal::ExplicitlyConstructed.3" = type { %"union.google::protobuf::internal::ExplicitlyConstructed<optimization_guide::proto::TreeNode>::AlignedUnion" }
%"union.google::protobuf::internal::ExplicitlyConstructed<optimization_guide::proto::TreeNode>::AlignedUnion" = type { i64, [56 x i8] }
%"class.optimization_guide::proto::BinaryNodeDefaultTypeInternal" = type { %"class.google::protobuf::internal::ExplicitlyConstructed.4" }
%"class.google::protobuf::internal::ExplicitlyConstructed.4" = type { %"union.google::protobuf::internal::ExplicitlyConstructed<optimization_guide::proto::BinaryNode>::AlignedUnion" }
%"union.google::protobuf::internal::ExplicitlyConstructed<optimization_guide::proto::BinaryNode>::AlignedUnion" = type { i64, [40 x i8] }
%"class.optimization_guide::proto::VectorDefaultTypeInternal" = type { %"class.google::protobuf::internal::ExplicitlyConstructed.5" }
%"class.google::protobuf::internal::ExplicitlyConstructed.5" = type { %"union.google::protobuf::internal::ExplicitlyConstructed<optimization_guide::proto::Vector>::AlignedUnion" }
%"union.google::protobuf::internal::ExplicitlyConstructed<optimization_guide::proto::Vector>::AlignedUnion" = type { i64, [40 x i8] }
%"class.optimization_guide::proto::LeafDefaultTypeInternal" = type { %"class.google::protobuf::internal::ExplicitlyConstructed.6" }
%"class.google::protobuf::internal::ExplicitlyConstructed.6" = type { %"union.google::protobuf::internal::ExplicitlyConstructed<optimization_guide::proto::Leaf>::AlignedUnion" }
%"union.google::protobuf::internal::ExplicitlyConstructed<optimization_guide::proto::Leaf>::AlignedUnion" = type { i64, [24 x i8] }
%"class.optimization_guide::proto::FeatureIdDefaultTypeInternal" = type { %"class.google::protobuf::internal::ExplicitlyConstructed.7" }
%"class.google::protobuf::internal::ExplicitlyConstructed.7" = type { %"union.google::protobuf::internal::ExplicitlyConstructed<optimization_guide::proto::FeatureId>::AlignedUnion" }
%"union.google::protobuf::internal::ExplicitlyConstructed<optimization_guide::proto::FeatureId>::AlignedUnion" = type { i64, [24 x i8] }
%"class.optimization_guide::proto::InequalityTestDefaultTypeInternal" = type { %"class.google::protobuf::internal::ExplicitlyConstructed.8" }
%"class.google::protobuf::internal::ExplicitlyConstructed.8" = type { %"union.google::protobuf::internal::ExplicitlyConstructed<optimization_guide::proto::InequalityTest>::AlignedUnion" }
%"union.google::protobuf::internal::ExplicitlyConstructed<optimization_guide::proto::InequalityTest>::AlignedUnion" = type { i64, [40 x i8] }
%"class.optimization_guide::proto::ValueDefaultTypeInternal" = type { %"class.google::protobuf::internal::ExplicitlyConstructed.9" }
%"class.google::protobuf::internal::ExplicitlyConstructed.9" = type { %"union.google::protobuf::internal::ExplicitlyConstructed<optimization_guide::proto::Value>::AlignedUnion" }
%"union.google::protobuf::internal::ExplicitlyConstructed<optimization_guide::proto::Value>::AlignedUnion" = type { i64, [24 x i8] }
%"class.optimization_guide::proto::Int32ValueDefaultTypeInternal" = type { %"class.google::protobuf::internal::ExplicitlyConstructed.10" }
%"class.google::protobuf::internal::ExplicitlyConstructed.10" = type { %"union.google::protobuf::internal::ExplicitlyConstructed<optimization_guide::proto::Int32Value>::AlignedUnion" }
%"union.google::protobuf::internal::ExplicitlyConstructed<optimization_guide::proto::Int32Value>::AlignedUnion" = type { i64, [24 x i8] }
%"class.optimization_guide::proto::StringValueDefaultTypeInternal" = type { %"class.google::protobuf::internal::ExplicitlyConstructed.11" }
%"class.google::protobuf::internal::ExplicitlyConstructed.11" = type { %"union.google::protobuf::internal::ExplicitlyConstructed<optimization_guide::proto::StringValue>::AlignedUnion" }
%"union.google::protobuf::internal::ExplicitlyConstructed<optimization_guide::proto::StringValue>::AlignedUnion" = type { i64, [24 x i8] }
%"class.optimization_guide::proto::DoubleValueDefaultTypeInternal" = type { %"class.google::protobuf::internal::ExplicitlyConstructed.12" }
%"class.google::protobuf::internal::ExplicitlyConstructed.12" = type { %"union.google::protobuf::internal::ExplicitlyConstructed<optimization_guide::proto::DoubleValue>::AlignedUnion" }
%"union.google::protobuf::internal::ExplicitlyConstructed<optimization_guide::proto::DoubleValue>::AlignedUnion" = type { i64, [24 x i8] }
%"class.optimization_guide::proto::GetModelsRequestDefaultTypeInternal" = type { %"class.google::protobuf::internal::ExplicitlyConstructed.13" }
%"class.google::protobuf::internal::ExplicitlyConstructed.13" = type { %"union.google::protobuf::internal::ExplicitlyConstructed<optimization_guide::proto::GetModelsRequest>::AlignedUnion" }
%"union.google::protobuf::internal::ExplicitlyConstructed<optimization_guide::proto::GetModelsRequest>::AlignedUnion" = type { i64, [80 x i8] }
%"class.optimization_guide::proto::GetModelsResponseDefaultTypeInternal" = type { %"class.google::protobuf::internal::ExplicitlyConstructed.14" }
%"class.google::protobuf::internal::ExplicitlyConstructed.14" = type { %"union.google::protobuf::internal::ExplicitlyConstructed<optimization_guide::proto::GetModelsResponse>::AlignedUnion" }
%"union.google::protobuf::internal::ExplicitlyConstructed<optimization_guide::proto::GetModelsResponse>::AlignedUnion" = type { i64, [64 x i8] }
%"class.optimization_guide::proto::PredictionModelDefaultTypeInternal" = type { %"class.google::protobuf::internal::ExplicitlyConstructed.15" }
%"class.google::protobuf::internal::ExplicitlyConstructed.15" = type { %"union.google::protobuf::internal::ExplicitlyConstructed<optimization_guide::proto::PredictionModel>::AlignedUnion" }
%"union.google::protobuf::internal::ExplicitlyConstructed<optimization_guide::proto::PredictionModel>::AlignedUnion" = type { i64, [32 x i8] }
%"class.optimization_guide::proto::ModelInfoDefaultTypeInternal" = type { %"class.google::protobuf::internal::ExplicitlyConstructed.16" }
%"class.google::protobuf::internal::ExplicitlyConstructed.16" = type { %"union.google::protobuf::internal::ExplicitlyConstructed<optimization_guide::proto::ModelInfo>::AlignedUnion" }
%"union.google::protobuf::internal::ExplicitlyConstructed<optimization_guide::proto::ModelInfo>::AlignedUnion" = type { i64, [80 x i8] }
%"class.optimization_guide::proto::HostModelFeaturesDefaultTypeInternal" = type { %"class.google::protobuf::internal::ExplicitlyConstructed.17" }
%"class.google::protobuf::internal::ExplicitlyConstructed.17" = type { %"union.google::protobuf::internal::ExplicitlyConstructed<optimization_guide::proto::HostModelFeatures>::AlignedUnion" }
%"union.google::protobuf::internal::ExplicitlyConstructed<optimization_guide::proto::HostModelFeatures>::AlignedUnion" = type { i64, [48 x i8] }
%"class.optimization_guide::proto::ModelFeatureDefaultTypeInternal" = type { %"class.google::protobuf::internal::ExplicitlyConstructed.18" }
%"class.google::protobuf::internal::ExplicitlyConstructed.18" = type { %"union.google::protobuf::internal::ExplicitlyConstructed<optimization_guide::proto::ModelFeature>::AlignedUnion" }
%"union.google::protobuf::internal::ExplicitlyConstructed<optimization_guide::proto::ModelFeature>::AlignedUnion" = type { i64, [40 x i8] }
%"struct.google::protobuf::internal::SCCInfo" = type { %"struct.google::protobuf::internal::SCCInfoBase", [0 x i8*] }
%"struct.google::protobuf::internal::SCCInfoBase" = type { %"struct.std::__1::atomic", i32, i32, void ()* }
%"struct.std::__1::atomic" = type { %"struct.std::__1::__atomic_base" }
%"struct.std::__1::__atomic_base" = type { %"struct.std::__1::__atomic_base.19" }
%"struct.std::__1::__atomic_base.19" = type { %"struct.std::__1::__cxx_atomic_impl" }
%"struct.std::__1::__cxx_atomic_impl" = type { %"struct.std::__1::__cxx_atomic_base_impl" }
%"struct.std::__1::__cxx_atomic_base_impl" = type { i32 }
%"struct.google::protobuf::internal::EnumEntry" = type <{ %"class.google::protobuf::StringPiece", i32, [4 x i8] }>
%"class.google::protobuf::StringPiece" = type { i8*, i64 }
%"class.google::protobuf::internal::ExplicitlyConstructed.24" = type { %"union.google::protobuf::internal::ExplicitlyConstructed<std::__1::basic_string<char, std::__1::char_traits<char>, std::__1::allocator<char> > >::AlignedUnion" }
%"union.google::protobuf::internal::ExplicitlyConstructed<std::__1::basic_string<char, std::__1::char_traits<char>, std::__1::allocator<char> > >::AlignedUnion" = type { i64, [16 x i8] }
%"class.optimization_guide::proto::AnyDefaultTypeInternal" = type opaque
%"class.optimization_guide::proto::Model" = type <{ %"class.google::protobuf::MessageLite", %"class.google::protobuf::internal::HasBits", %"class.google::protobuf::internal::CachedSize", %"class.optimization_guide::proto::DoubleValue"*, %"union.optimization_guide::proto::Model::ModelUnion", [1 x i32], [4 x i8] }>
%"class.google::protobuf::MessageLite" = type { i32 (...)**, %"class.google::protobuf::internal::InternalMetadata" }
%"class.google::protobuf::internal::InternalMetadata" = type { i8* }
%"class.google::protobuf::internal::HasBits" = type { [1 x i32] }
%"class.google::protobuf::internal::CachedSize" = type { %"struct.std::__1::atomic" }
%"class.optimization_guide::proto::DoubleValue" = type { %"class.google::protobuf::MessageLite", %"class.google::protobuf::internal::HasBits", %"class.google::protobuf::internal::CachedSize", double }
%"union.optimization_guide::proto::Model::ModelUnion" = type { %"class.optimization_guide::proto::DecisionTree"* }
%"class.optimization_guide::proto::DecisionTree" = type <{ %"class.google::protobuf::MessageLite", %"class.google::protobuf::internal::HasBits", %"class.google::protobuf::internal::CachedSize", %"class.google::protobuf::RepeatedPtrField", float, [4 x i8] }>
%"class.google::protobuf::RepeatedPtrField" = type { %"class.google::protobuf::internal::RepeatedPtrFieldBase" }
%"class.google::protobuf::internal::RepeatedPtrFieldBase" = type { %"class.google::protobuf::Arena"*, i32, i32, %"struct.google::protobuf::internal::RepeatedPtrFieldBase::Rep"* }
%"struct.google::protobuf::internal::RepeatedPtrFieldBase::Rep" = type { i32, [268435454 x i8*] }
%"class.google::protobuf::Arena" = type { %"class.google::protobuf::internal::ArenaImpl", void (%"class.std::type_info"*, i64, i8*)*, void (%"class.google::protobuf::Arena"*, i8*, i64)*, void (%"class.google::protobuf::Arena"*, i8*, i64)*, i8* }
%"class.google::protobuf::internal::ArenaImpl" = type { %"struct.std::__1::atomic.25", %"struct.std::__1::atomic.25", %"struct.std::__1::atomic.29", %"class.google::protobuf::internal::ArenaImpl::Block"*, i64, %"struct.google::protobuf::internal::ArenaImpl::Options" }
%"struct.std::__1::atomic.25" = type { %"struct.std::__1::__atomic_base.26" }
%"struct.std::__1::__atomic_base.26" = type { %"struct.std::__1::__cxx_atomic_impl.27" }
%"struct.std::__1::__cxx_atomic_impl.27" = type { %"struct.std::__1::__cxx_atomic_base_impl.28" }
%"struct.std::__1::__cxx_atomic_base_impl.28" = type { %"class.google::protobuf::internal::ArenaImpl::SerialArena"* }
%"class.google::protobuf::internal::ArenaImpl::SerialArena" = type { %"class.google::protobuf::internal::ArenaImpl"*, i8*, %"class.google::protobuf::internal::ArenaImpl::Block"*, %"struct.google::protobuf::internal::ArenaImpl::CleanupChunk"*, %"class.google::protobuf::internal::ArenaImpl::SerialArena"*, i8*, i8*, %"struct.google::protobuf::internal::ArenaImpl::CleanupNode"*, %"struct.google::protobuf::internal::ArenaImpl::CleanupNode"* }
%"struct.google::protobuf::internal::ArenaImpl::CleanupChunk" = type { i64, %"struct.google::protobuf::internal::ArenaImpl::CleanupChunk"*, [1 x %"struct.google::protobuf::internal::ArenaImpl::CleanupNode"] }
%"struct.google::protobuf::internal::ArenaImpl::CleanupNode" = type { i8*, void (i8*)* }
%"struct.std::__1::atomic.29" = type { %"struct.std::__1::__atomic_base.30" }
%"struct.std::__1::__atomic_base.30" = type { %"struct.std::__1::__atomic_base.31" }
%"struct.std::__1::__atomic_base.31" = type { %"struct.std::__1::__cxx_atomic_impl.32" }
%"struct.std::__1::__cxx_atomic_impl.32" = type { %"struct.std::__1::__cxx_atomic_base_impl.33" }
%"struct.std::__1::__cxx_atomic_base_impl.33" = type { i64 }
%"class.google::protobuf::internal::ArenaImpl::Block" = type { %"class.google::protobuf::internal::ArenaImpl::Block"*, i64, i64 }
%"struct.google::protobuf::internal::ArenaImpl::Options" = type { i64, i64, i8*, i64, i8* (i64)*, void (i8*, i64)* }
%"class.std::type_info" = type { i32 (...)**, i8* }
%"class.optimization_guide::proto::Ensemble_Member" = type { %"class.google::protobuf::MessageLite", %"class.google::protobuf::internal::HasBits", %"class.google::protobuf::internal::CachedSize", %"class.optimization_guide::proto::Model"* }
%"class.optimization_guide::proto::Ensemble" = type <{ %"class.google::protobuf::MessageLite", %"class.google::protobuf::RepeatedPtrField.34", %"class.google::protobuf::internal::CachedSize", [4 x i8] }>
%"class.google::protobuf::RepeatedPtrField.34" = type { %"class.google::protobuf::internal::RepeatedPtrFieldBase" }
%"class.optimization_guide::proto::TreeNode" = type <{ %"class.google::protobuf::MessageLite", %"class.google::protobuf::internal::HasBits", %"class.google::protobuf::internal::CachedSize", %"class.optimization_guide::proto::Int32Value"*, %"class.optimization_guide::proto::Int32Value"*, %"class.optimization_guide::proto::Int32Value"*, %"union.optimization_guide::proto::TreeNode::NodeTypeUnion", [1 x i32], [4 x i8] }>
%"class.optimization_guide::proto::Int32Value" = type <{ %"class.google::protobuf::MessageLite", %"class.google::protobuf::internal::HasBits", %"class.google::protobuf::internal::CachedSize", i32, [4 x i8] }>
%"union.optimization_guide::proto::TreeNode::NodeTypeUnion" = type { %"class.optimization_guide::proto::BinaryNode"* }
%"class.optimization_guide::proto::BinaryNode" = type { %"class.google::protobuf::MessageLite", %"class.google::protobuf::internal::HasBits", %"class.google::protobuf::internal::CachedSize", %"class.optimization_guide::proto::Int32Value"*, %"class.optimization_guide::proto::Int32Value"*, %"class.optimization_guide::proto::InequalityTest"* }
%"class.optimization_guide::proto::InequalityTest" = type <{ %"class.google::protobuf::MessageLite", %"class.google::protobuf::internal::HasBits", %"class.google::protobuf::internal::CachedSize", %"class.optimization_guide::proto::FeatureId"*, %"class.optimization_guide::proto::Value"*, i32, [4 x i8] }>
%"class.optimization_guide::proto::FeatureId" = type { %"class.google::protobuf::MessageLite", %"class.google::protobuf::internal::HasBits", %"class.google::protobuf::internal::CachedSize", %"class.optimization_guide::proto::StringValue"* }
%"class.optimization_guide::proto::StringValue" = type { %"class.google::protobuf::MessageLite", %"class.google::protobuf::internal::HasBits", %"class.google::protobuf::internal::CachedSize", %"struct.google::protobuf::internal::ArenaStringPtr" }
%"struct.google::protobuf::internal::ArenaStringPtr" = type { %"class.std::__1::basic_string"* }
%"class.std::__1::basic_string" = type { %"class.std::__1::__compressed_pair" }
%"class.std::__1::__compressed_pair" = type { %"struct.std::__1::__compressed_pair_elem" }
%"struct.std::__1::__compressed_pair_elem" = type { %"struct.std::__1::basic_string<char, std::__1::char_traits<char>, std::__1::allocator<char> >::__rep" }
%"struct.std::__1::basic_string<char, std::__1::char_traits<char>, std::__1::allocator<char> >::__rep" = type { %union.anon }
%union.anon = type { %"struct.std::__1::basic_string<char, std::__1::char_traits<char>, std::__1::allocator<char> >::__long" }
%"struct.std::__1::basic_string<char, std::__1::char_traits<char>, std::__1::allocator<char> >::__long" = type { i8*, i64, i64 }
%"class.optimization_guide::proto::Value" = type { %"class.google::protobuf::MessageLite", %"union.optimization_guide::proto::Value::ValueUnion", %"class.google::protobuf::internal::CachedSize", [1 x i32] }
%"union.optimization_guide::proto::Value::ValueUnion" = type { double }
%"class.optimization_guide::proto::Vector" = type <{ %"class.google::protobuf::MessageLite", %"class.google::protobuf::RepeatedPtrField.35", %"class.google::protobuf::internal::CachedSize", [4 x i8] }>
%"class.google::protobuf::RepeatedPtrField.35" = type { %"class.google::protobuf::internal::RepeatedPtrFieldBase" }
%"class.optimization_guide::proto::Leaf" = type { %"class.google::protobuf::MessageLite", %"class.google::protobuf::internal::HasBits", %"class.google::protobuf::internal::CachedSize", %"class.optimization_guide::proto::Vector"* }
%"class.optimization_guide::proto::GetModelsRequest" = type <{ %"class.google::protobuf::MessageLite", %"class.google::protobuf::internal::HasBits", %"class.google::protobuf::internal::CachedSize", %"class.google::protobuf::RepeatedPtrField.38", %"class.google::protobuf::RepeatedPtrField.39", %"struct.google::protobuf::internal::ArenaStringPtr", i32, [4 x i8] }>
%"class.google::protobuf::RepeatedPtrField.38" = type { %"class.google::protobuf::internal::RepeatedPtrFieldBase" }
%"class.google::protobuf::RepeatedPtrField.39" = type { %"class.google::protobuf::internal::RepeatedPtrFieldBase" }
%"class.optimization_guide::proto::GetModelsResponse" = type <{ %"class.google::protobuf::MessageLite", %"class.google::protobuf::RepeatedPtrField.43", %"class.google::protobuf::RepeatedPtrField.44", %"class.google::protobuf::internal::CachedSize", [4 x i8] }>
%"class.google::protobuf::RepeatedPtrField.43" = type { %"class.google::protobuf::internal::RepeatedPtrFieldBase" }
%"class.google::protobuf::RepeatedPtrField.44" = type { %"class.google::protobuf::internal::RepeatedPtrFieldBase" }
%"class.optimization_guide::proto::PredictionModel" = type { %"class.google::protobuf::MessageLite", %"class.google::protobuf::internal::HasBits", %"class.google::protobuf::internal::CachedSize", %"class.optimization_guide::proto::ModelInfo"*, %"class.optimization_guide::proto::Model"* }
%"class.optimization_guide::proto::ModelInfo" = type <{ %"class.google::protobuf::MessageLite", %"class.google::protobuf::internal::HasBits", %"class.google::protobuf::internal::CachedSize", %"class.google::protobuf::RepeatedField", %"class.google::protobuf::RepeatedPtrField.40", %"class.optimization_guide::proto::Any"*, i64, i32, [4 x i8] }>
%"class.google::protobuf::RepeatedField" = type { i32, i32, i8* }
%"class.google::protobuf::RepeatedPtrField.40" = type { %"class.google::protobuf::internal::RepeatedPtrFieldBase" }
%"class.optimization_guide::proto::Any" = type { %"class.google::protobuf::MessageLite", %"class.google::protobuf::internal::HasBits", %"class.google::protobuf::internal::CachedSize", %"struct.google::protobuf::internal::ArenaStringPtr", %"struct.google::protobuf::internal::ArenaStringPtr" }
%"class.optimization_guide::proto::HostModelFeatures" = type { %"class.google::protobuf::MessageLite", %"class.google::protobuf::internal::HasBits", %"class.google::protobuf::internal::CachedSize", %"class.google::protobuf::RepeatedPtrField.45", %"struct.google::protobuf::internal::ArenaStringPtr" }
%"class.google::protobuf::RepeatedPtrField.45" = type { %"class.google::protobuf::internal::RepeatedPtrFieldBase" }
%"class.optimization_guide::proto::ModelFeature" = type <{ %"class.google::protobuf::MessageLite", %"class.google::protobuf::internal::HasBits", %"class.google::protobuf::internal::CachedSize", %"struct.google::protobuf::internal::ArenaStringPtr", %"union.optimization_guide::proto::ModelFeature::FeatureValueUnion", [1 x i32], [4 x i8] }>
%"union.optimization_guide::proto::ModelFeature::FeatureValueUnion" = type { double }
%"struct.std::__1::basic_string<char, std::__1::char_traits<char>, std::__1::allocator<char> >::__short" = type { [23 x i8], %struct.anon }
%struct.anon = type { i8 }
%"struct.google::protobuf::internal::InternalMetadata::ContainerBase" = type { %"class.google::protobuf::Arena"* }
%"struct.google::protobuf::internal::InternalMetadata::Container" = type { %"struct.google::protobuf::internal::InternalMetadata::ContainerBase", %"class.std::__1::basic_string" }
%"class.google::protobuf::internal::ParseContext" = type { %"class.google::protobuf::internal::EpsCopyInputStream", i32, i32, %"struct.google::protobuf::internal::ParseContext::Data" }
%"class.google::protobuf::internal::EpsCopyInputStream" = type { i8*, i8*, i8*, i32, i32, %"class.google::protobuf::io::ZeroCopyInputStream"*, [32 x i8], i64, i32, i32 }
%"class.google::protobuf::io::ZeroCopyInputStream" = type { i32 (...)** }
%"struct.google::protobuf::internal::ParseContext::Data" = type { %"class.google::protobuf::DescriptorPool"*, %"class.google::protobuf::MessageFactory"* }
%"class.google::protobuf::DescriptorPool" = type opaque
%"class.google::protobuf::MessageFactory" = type opaque
%"class.google::protobuf::io::EpsCopyOutputStream" = type <{ i8*, i8*, [32 x i8], %"class.google::protobuf::io::ZeroCopyOutputStream"*, i8, i8, i8, [5 x i8] }>
%"class.google::protobuf::io::ZeroCopyOutputStream" = type { i32 (...)** }
%"class.optimization_guide::proto::FieldTrial" = type { %"class.google::protobuf::MessageLite", %"class.google::protobuf::internal::HasBits", %"class.google::protobuf::internal::CachedSize", i32, i32 }
%class.anon = type <{ i8*, i1 (i32)*, %"class.google::protobuf::internal::InternalMetadata"*, i32, [4 x i8] }>

$_ZN6google8protobuf8internal12ParseContext12ParseMessageIN18optimization_guide5proto12DecisionTreeEEEPKcPT_S8_ = comdat any

$_ZN6google8protobuf8internal12ParseContext12ParseMessageIN18optimization_guide5proto8EnsembleEEEPKcPT_S8_ = comdat any

$_ZN6google8protobuf8internal12ParseContext12ParseMessageIN18optimization_guide5proto11DoubleValueEEEPKcPT_S8_ = comdat any

$_ZN6google8protobuf8internal12ParseContext12ParseMessageIN18optimization_guide5proto5ModelEEEPKcPT_S8_ = comdat any

$_ZN6google8protobuf8internal12ParseContext12ParseMessageIN18optimization_guide5proto15Ensemble_MemberEEEPKcPT_S8_ = comdat any

$_ZN6google8protobuf8internal12ParseContext12ParseMessageIN18optimization_guide5proto8TreeNodeEEEPKcPT_S8_ = comdat any

$_ZN6google8protobuf8internal12ParseContext12ParseMessageIN18optimization_guide5proto10Int32ValueEEEPKcPT_S8_ = comdat any

$_ZN6google8protobuf8internal12ParseContext12ParseMessageIN18optimization_guide5proto10BinaryNodeEEEPKcPT_S8_ = comdat any

$_ZN6google8protobuf8internal12ParseContext12ParseMessageIN18optimization_guide5proto4LeafEEEPKcPT_S8_ = comdat any

$_ZN6google8protobuf8internal12ParseContext12ParseMessageIN18optimization_guide5proto14InequalityTestEEEPKcPT_S8_ = comdat any

$_ZN6google8protobuf8internal12ParseContext12ParseMessageIN18optimization_guide5proto5ValueEEEPKcPT_S8_ = comdat any

$_ZN6google8protobuf8internal12ParseContext12ParseMessageIN18optimization_guide5proto6VectorEEEPKcPT_S8_ = comdat any

$_ZN6google8protobuf8internal12ParseContext12ParseMessageIN18optimization_guide5proto11StringValueEEEPKcPT_S8_ = comdat any

$_ZN6google8protobuf8internal12ParseContext12ParseMessageIN18optimization_guide5proto9FeatureIdEEEPKcPT_S8_ = comdat any

$_ZN6google8protobuf8internal12ParseContext12ParseMessageIN18optimization_guide5proto9ModelInfoEEEPKcPT_S8_ = comdat any

$_ZN6google8protobuf8internal12ParseContext12ParseMessageIN18optimization_guide5proto10FieldTrialEEEPKcPT_S8_ = comdat any

$_ZN6google8protobuf8internal12ParseContext12ParseMessageIN18optimization_guide5proto15PredictionModelEEEPKcPT_S8_ = comdat any

$_ZN6google8protobuf8internal12ParseContext12ParseMessageIN18optimization_guide5proto17HostModelFeaturesEEEPKcPT_S8_ = comdat any

$_ZN6google8protobuf8internal12ParseContext12ParseMessageIN18optimization_guide5proto3AnyEEEPKcPT_S8_ = comdat any

$_ZN6google8protobuf8internal12ParseContext12ParseMessageIN18optimization_guide5proto12ModelFeatureEEEPKcPT_S8_ = comdat any

$_ZNK18optimization_guide5proto5Model3NewEv = comdat any

$_ZNK18optimization_guide5proto5Model3NewEPN6google8protobuf5ArenaE = comdat any

$_ZNK18optimization_guide5proto5Model13GetCachedSizeEv = comdat any

$_ZNK6google8protobuf11MessageLite16InternalGetTableEv = comdat any

$_ZNK18optimization_guide5proto15Ensemble_Member3NewEv = comdat any

$_ZNK18optimization_guide5proto15Ensemble_Member3NewEPN6google8protobuf5ArenaE = comdat any

$_ZNK18optimization_guide5proto15Ensemble_Member13GetCachedSizeEv = comdat any

$_ZNK18optimization_guide5proto8Ensemble3NewEv = comdat any

$_ZNK18optimization_guide5proto8Ensemble3NewEPN6google8protobuf5ArenaE = comdat any

$_ZNK18optimization_guide5proto8Ensemble13GetCachedSizeEv = comdat any

$_ZNK18optimization_guide5proto12DecisionTree3NewEv = comdat any

$_ZNK18optimization_guide5proto12DecisionTree3NewEPN6google8protobuf5ArenaE = comdat any

$_ZNK18optimization_guide5proto12DecisionTree13GetCachedSizeEv = comdat any

$_ZNK18optimization_guide5proto8TreeNode3NewEv = comdat any

$_ZNK18optimization_guide5proto8TreeNode3NewEPN6google8protobuf5ArenaE = comdat any

$_ZNK18optimization_guide5proto8TreeNode13GetCachedSizeEv = comdat any

$_ZNK18optimization_guide5proto10BinaryNode3NewEv = comdat any

$_ZNK18optimization_guide5proto10BinaryNode3NewEPN6google8protobuf5ArenaE = comdat any

$_ZNK18optimization_guide5proto10BinaryNode13GetCachedSizeEv = comdat any

$_ZNK18optimization_guide5proto6Vector3NewEv = comdat any

$_ZNK18optimization_guide5proto6Vector3NewEPN6google8protobuf5ArenaE = comdat any

$_ZNK18optimization_guide5proto6Vector13GetCachedSizeEv = comdat any

$_ZNK18optimization_guide5proto4Leaf3NewEv = comdat any

$_ZNK18optimization_guide5proto4Leaf3NewEPN6google8protobuf5ArenaE = comdat any

$_ZNK18optimization_guide5proto4Leaf13GetCachedSizeEv = comdat any

$_ZNK18optimization_guide5proto9FeatureId3NewEv = comdat any

$_ZNK18optimization_guide5proto9FeatureId3NewEPN6google8protobuf5ArenaE = comdat any

$_ZNK18optimization_guide5proto9FeatureId13GetCachedSizeEv = comdat any

$_ZNK18optimization_guide5proto14InequalityTest3NewEv = comdat any

$_ZNK18optimization_guide5proto14InequalityTest3NewEPN6google8protobuf5ArenaE = comdat any

$_ZNK18optimization_guide5proto14InequalityTest13GetCachedSizeEv = comdat any

$_ZNK18optimization_guide5proto5Value3NewEv = comdat any

$_ZNK18optimization_guide5proto5Value3NewEPN6google8protobuf5ArenaE = comdat any

$_ZNK18optimization_guide5proto5Value13GetCachedSizeEv = comdat any

$_ZNK18optimization_guide5proto10Int32Value3NewEv = comdat any

$_ZNK18optimization_guide5proto10Int32Value3NewEPN6google8protobuf5ArenaE = comdat any

$_ZNK18optimization_guide5proto10Int32Value13GetCachedSizeEv = comdat any

$_ZNK18optimization_guide5proto11StringValue3NewEv = comdat any

$_ZNK18optimization_guide5proto11StringValue3NewEPN6google8protobuf5ArenaE = comdat any

$_ZNK18optimization_guide5proto11StringValue13GetCachedSizeEv = comdat any

$_ZNK18optimization_guide5proto11DoubleValue3NewEv = comdat any

$_ZNK18optimization_guide5proto11DoubleValue3NewEPN6google8protobuf5ArenaE = comdat any

$_ZNK18optimization_guide5proto11DoubleValue13GetCachedSizeEv = comdat any

$_ZNK18optimization_guide5proto16GetModelsRequest3NewEv = comdat any

$_ZNK18optimization_guide5proto16GetModelsRequest3NewEPN6google8protobuf5ArenaE = comdat any

$_ZNK18optimization_guide5proto16GetModelsRequest13GetCachedSizeEv = comdat any

$_ZNK18optimization_guide5proto17GetModelsResponse3NewEv = comdat any

$_ZNK18optimization_guide5proto17GetModelsResponse3NewEPN6google8protobuf5ArenaE = comdat any

$_ZNK18optimization_guide5proto17GetModelsResponse13GetCachedSizeEv = comdat any

$_ZNK18optimization_guide5proto15PredictionModel3NewEv = comdat any

$_ZNK18optimization_guide5proto15PredictionModel3NewEPN6google8protobuf5ArenaE = comdat any

$_ZNK18optimization_guide5proto15PredictionModel13GetCachedSizeEv = comdat any

$_ZNK18optimization_guide5proto9ModelInfo3NewEv = comdat any

$_ZNK18optimization_guide5proto9ModelInfo3NewEPN6google8protobuf5ArenaE = comdat any

$_ZNK18optimization_guide5proto9ModelInfo13GetCachedSizeEv = comdat any

$_ZNK18optimization_guide5proto17HostModelFeatures3NewEv = comdat any

$_ZNK18optimization_guide5proto17HostModelFeatures3NewEPN6google8protobuf5ArenaE = comdat any

$_ZNK18optimization_guide5proto17HostModelFeatures13GetCachedSizeEv = comdat any

$_ZNK18optimization_guide5proto12ModelFeature3NewEv = comdat any

$_ZNK18optimization_guide5proto12ModelFeature3NewEPN6google8protobuf5ArenaE = comdat any

$_ZNK18optimization_guide5proto12ModelFeature13GetCachedSizeEv = comdat any

$_ZN6google8protobuf8internal14ArenaStringPtr14CreateInstanceEPNS0_5ArenaEPKNSt3__112basic_stringIcNS5_11char_traitsIcEENS5_9allocatorIcEEEE = comdat any

$_ZN6google8protobuf8internal21arena_destruct_objectINSt3__112basic_stringIcNS3_11char_traitsIcEENS3_9allocatorIcEEEEEEvPv = comdat any

$_ZN6google8protobuf8internal16InternalMetadata27mutable_unknown_fields_slowINSt3__112basic_stringIcNS4_11char_traitsIcEENS4_9allocatorIcEEEEEEPT_v = comdat any

$_ZN6google8protobuf8internal21arena_destruct_objectINS1_16InternalMetadata9ContainerINSt3__112basic_stringIcNS5_11char_traitsIcEENS5_9allocatorIcEEEEEEEEvPv = comdat any

$_ZN6google8protobuf8internal18GenericTypeHandlerIN18optimization_guide5proto15Ensemble_MemberEE5MergeERKS5_PS5_ = comdat any

$_ZN6google8protobuf8internal18GenericTypeHandlerIN18optimization_guide5proto8TreeNodeEE5MergeERKS5_PS5_ = comdat any

$_ZN6google8protobuf8internal18GenericTypeHandlerIN18optimization_guide5proto5ValueEE5MergeERKS5_PS5_ = comdat any

$_ZN6google8protobuf8internal18GenericTypeHandlerIN18optimization_guide5proto9ModelInfoEE5MergeERKS5_PS5_ = comdat any

$_ZN6google8protobuf8internal18GenericTypeHandlerIN18optimization_guide5proto10FieldTrialEE5MergeERKS5_PS5_ = comdat any

$_ZN6google8protobuf8internal18GenericTypeHandlerIN18optimization_guide5proto15PredictionModelEE5MergeERKS5_PS5_ = comdat any

$_ZN6google8protobuf8internal18GenericTypeHandlerIN18optimization_guide5proto17HostModelFeaturesEE5MergeERKS5_PS5_ = comdat any

$_ZN6google8protobuf8internal20RepeatedPtrFieldBase9MergeFromINS0_16RepeatedPtrFieldINSt3__112basic_stringIcNS5_11char_traitsIcEENS5_9allocatorIcEEEEE11TypeHandlerEEEvRKS2_ = comdat any

$_ZN6google8protobuf8internal18EpsCopyInputStream16ReadPackedVarintIZNS1_16PackedEnumParserINSt3__112basic_stringIcNS5_11char_traitsIcEENS5_9allocatorIcEEEEEEPKcPvSD_PNS1_12ParseContextEPFbiEPNS1_16InternalMetadataEiEUlmE_EESD_SD_T_ = comdat any

$_ZN6google8protobuf8internal18GenericTypeHandlerIN18optimization_guide5proto12ModelFeatureEE5MergeERKS5_PS5_ = comdat any

@_ZN18optimization_guide5proto24_Model_default_instance_E = hidden global %"class.optimization_guide::proto::ModelDefaultTypeInternal" zeroinitializer, align 8
@_ZN18optimization_guide5proto34_Ensemble_Member_default_instance_E = hidden global %"class.optimization_guide::proto::Ensemble_MemberDefaultTypeInternal" zeroinitializer, align 8
@_ZN18optimization_guide5proto27_Ensemble_default_instance_E = hidden global %"class.optimization_guide::proto::EnsembleDefaultTypeInternal" zeroinitializer, align 8
@_ZN18optimization_guide5proto31_DecisionTree_default_instance_E = hidden global %"class.optimization_guide::proto::DecisionTreeDefaultTypeInternal" zeroinitializer, align 8
@_ZN18optimization_guide5proto27_TreeNode_default_instance_E = hidden global %"class.optimization_guide::proto::TreeNodeDefaultTypeInternal" zeroinitializer, align 8
@_ZN18optimization_guide5proto29_BinaryNode_default_instance_E = hidden global %"class.optimization_guide::proto::BinaryNodeDefaultTypeInternal" zeroinitializer, align 8
@_ZN18optimization_guide5proto25_Vector_default_instance_E = hidden global %"class.optimization_guide::proto::VectorDefaultTypeInternal" zeroinitializer, align 8
@_ZN18optimization_guide5proto23_Leaf_default_instance_E = hidden global %"class.optimization_guide::proto::LeafDefaultTypeInternal" zeroinitializer, align 8
@_ZN18optimization_guide5proto28_FeatureId_default_instance_E = hidden global %"class.optimization_guide::proto::FeatureIdDefaultTypeInternal" zeroinitializer, align 8
@_ZN18optimization_guide5proto33_InequalityTest_default_instance_E = hidden global %"class.optimization_guide::proto::InequalityTestDefaultTypeInternal" zeroinitializer, align 8
@_ZN18optimization_guide5proto24_Value_default_instance_E = hidden global %"class.optimization_guide::proto::ValueDefaultTypeInternal" zeroinitializer, align 8
@_ZN18optimization_guide5proto29_Int32Value_default_instance_E = hidden global %"class.optimization_guide::proto::Int32ValueDefaultTypeInternal" zeroinitializer, align 8
@_ZN18optimization_guide5proto30_StringValue_default_instance_E = hidden global %"class.optimization_guide::proto::StringValueDefaultTypeInternal" zeroinitializer, align 8
@_ZN18optimization_guide5proto30_DoubleValue_default_instance_E = hidden global %"class.optimization_guide::proto::DoubleValueDefaultTypeInternal" zeroinitializer, align 8
@_ZN18optimization_guide5proto35_GetModelsRequest_default_instance_E = hidden global %"class.optimization_guide::proto::GetModelsRequestDefaultTypeInternal" zeroinitializer, align 8
@_ZN18optimization_guide5proto36_GetModelsResponse_default_instance_E = hidden global %"class.optimization_guide::proto::GetModelsResponseDefaultTypeInternal" zeroinitializer, align 8
@_ZN18optimization_guide5proto34_PredictionModel_default_instance_E = hidden global %"class.optimization_guide::proto::PredictionModelDefaultTypeInternal" zeroinitializer, align 8
@_ZN18optimization_guide5proto28_ModelInfo_default_instance_E = hidden global %"class.optimization_guide::proto::ModelInfoDefaultTypeInternal" zeroinitializer, align 8
@_ZN18optimization_guide5proto36_HostModelFeatures_default_instance_E = hidden global %"class.optimization_guide::proto::HostModelFeaturesDefaultTypeInternal" zeroinitializer, align 8
@_ZN18optimization_guide5proto31_ModelFeature_default_instance_E = hidden global %"class.optimization_guide::proto::ModelFeatureDefaultTypeInternal" zeroinitializer, align 8
@scc_info_BinaryNode_components_2foptimization_5fguide_2fproto_2fmodels_2eproto = hidden global { { { { i32 } }, i32, i32, void ()* }, [2 x i8*] } { { { { i32 } }, i32, i32, void ()* } { { { i32 } } { { i32 } { i32 -1 } }, i32 2, i32 0, void ()* @_ZL90InitDefaultsscc_info_BinaryNode_components_2foptimization_5fguide_2fproto_2fmodels_2eprotov }, [2 x i8*] [i8* bitcast ({ { { { i32 } }, i32, i32, void ()* }, [0 x i8*] }* @scc_info_Int32Value_components_2foptimization_5fguide_2fproto_2fmodels_2eproto to i8*), i8* bitcast ({ { { { i32 } }, i32, i32, void ()* }, [2 x i8*] }* @scc_info_InequalityTest_components_2foptimization_5fguide_2fproto_2fmodels_2eproto to i8*)] }, align 8
@scc_info_DecisionTree_components_2foptimization_5fguide_2fproto_2fmodels_2eproto = hidden global { { { { i32 } }, i32, i32, void ()* }, [1 x i8*] } { { { { i32 } }, i32, i32, void ()* } { { { i32 } } { { i32 } { i32 -1 } }, i32 1, i32 0, void ()* @_ZL92InitDefaultsscc_info_DecisionTree_components_2foptimization_5fguide_2fproto_2fmodels_2eprotov }, [1 x i8*] [i8* bitcast ({ { { { i32 } }, i32, i32, void ()* }, [3 x i8*] }* @scc_info_TreeNode_components_2foptimization_5fguide_2fproto_2fmodels_2eproto to i8*)] }, align 8
@scc_info_DoubleValue_components_2foptimization_5fguide_2fproto_2fmodels_2eproto = hidden global { { { { i32 } }, i32, i32, void ()* }, [0 x i8*] } { { { { i32 } }, i32, i32, void ()* } { { { i32 } } { { i32 } { i32 -1 } }, i32 0, i32 0, void ()* @_ZL91InitDefaultsscc_info_DoubleValue_components_2foptimization_5fguide_2fproto_2fmodels_2eprotov }, [0 x i8*] zeroinitializer }, align 8
@scc_info_Ensemble_components_2foptimization_5fguide_2fproto_2fmodels_2eproto = hidden global { { { { i32 } }, i32, i32, void ()* }, [2 x i8*] } { { { { i32 } }, i32, i32, void ()* } { { { i32 } } { { i32 } { i32 -1 } }, i32 2, i32 0, void ()* @_ZL88InitDefaultsscc_info_Ensemble_components_2foptimization_5fguide_2fproto_2fmodels_2eprotov }, [2 x i8*] [i8* bitcast ({ { { { i32 } }, i32, i32, void ()* }, [1 x i8*] }* @scc_info_DecisionTree_components_2foptimization_5fguide_2fproto_2fmodels_2eproto to i8*), i8* bitcast ({ { { { i32 } }, i32, i32, void ()* }, [0 x i8*] }* @scc_info_DoubleValue_components_2foptimization_5fguide_2fproto_2fmodels_2eproto to i8*)] }, align 8
@scc_info_FeatureId_components_2foptimization_5fguide_2fproto_2fmodels_2eproto = hidden global { { { { i32 } }, i32, i32, void ()* }, [1 x i8*] } { { { { i32 } }, i32, i32, void ()* } { { { i32 } } { { i32 } { i32 -1 } }, i32 1, i32 0, void ()* @_ZL89InitDefaultsscc_info_FeatureId_components_2foptimization_5fguide_2fproto_2fmodels_2eprotov }, [1 x i8*] [i8* bitcast ({ { { { i32 } }, i32, i32, void ()* }, [0 x i8*] }* @scc_info_StringValue_components_2foptimization_5fguide_2fproto_2fmodels_2eproto to i8*)] }, align 8
@scc_info_FieldTrial_components_2foptimization_5fguide_2fproto_2fcommon_5ftypes_2eproto = external global %"struct.google::protobuf::internal::SCCInfo", align 8
@scc_info_GetModelsRequest_components_2foptimization_5fguide_2fproto_2fmodels_2eproto = hidden global { { { { i32 } }, i32, i32, void ()* }, [2 x i8*] } { { { { i32 } }, i32, i32, void ()* } { { { i32 } } { { i32 } { i32 -1 } }, i32 2, i32 0, void ()* @_ZL96InitDefaultsscc_info_GetModelsRequest_components_2foptimization_5fguide_2fproto_2fmodels_2eprotov }, [2 x i8*] [i8* bitcast ({ { { { i32 } }, i32, i32, void ()* }, [1 x i8*] }* @scc_info_ModelInfo_components_2foptimization_5fguide_2fproto_2fmodels_2eproto to i8*), i8* bitcast (%"struct.google::protobuf::internal::SCCInfo"* @scc_info_FieldTrial_components_2foptimization_5fguide_2fproto_2fcommon_5ftypes_2eproto to i8*)] }, align 8
@scc_info_GetModelsResponse_components_2foptimization_5fguide_2fproto_2fmodels_2eproto = hidden global { { { { i32 } }, i32, i32, void ()* }, [2 x i8*] } { { { { i32 } }, i32, i32, void ()* } { { { i32 } } { { i32 } { i32 -1 } }, i32 2, i32 0, void ()* @_ZL97InitDefaultsscc_info_GetModelsResponse_components_2foptimization_5fguide_2fproto_2fmodels_2eprotov }, [2 x i8*] [i8* bitcast ({ { { { i32 } }, i32, i32, void ()* }, [2 x i8*] }* @scc_info_PredictionModel_components_2foptimization_5fguide_2fproto_2fmodels_2eproto to i8*), i8* bitcast ({ { { { i32 } }, i32, i32, void ()* }, [1 x i8*] }* @scc_info_HostModelFeatures_components_2foptimization_5fguide_2fproto_2fmodels_2eproto to i8*)] }, align 8
@scc_info_HostModelFeatures_components_2foptimization_5fguide_2fproto_2fmodels_2eproto = hidden global { { { { i32 } }, i32, i32, void ()* }, [1 x i8*] } { { { { i32 } }, i32, i32, void ()* } { { { i32 } } { { i32 } { i32 -1 } }, i32 1, i32 0, void ()* @_ZL97InitDefaultsscc_info_HostModelFeatures_components_2foptimization_5fguide_2fproto_2fmodels_2eprotov }, [1 x i8*] [i8* bitcast ({ { { { i32 } }, i32, i32, void ()* }, [0 x i8*] }* @scc_info_ModelFeature_components_2foptimization_5fguide_2fproto_2fmodels_2eproto to i8*)] }, align 8
@scc_info_InequalityTest_components_2foptimization_5fguide_2fproto_2fmodels_2eproto = hidden global { { { { i32 } }, i32, i32, void ()* }, [2 x i8*] } { { { { i32 } }, i32, i32, void ()* } { { { i32 } } { { i32 } { i32 -1 } }, i32 2, i32 0, void ()* @_ZL94InitDefaultsscc_info_InequalityTest_components_2foptimization_5fguide_2fproto_2fmodels_2eprotov }, [2 x i8*] [i8* bitcast ({ { { { i32 } }, i32, i32, void ()* }, [1 x i8*] }* @scc_info_FeatureId_components_2foptimization_5fguide_2fproto_2fmodels_2eproto to i8*), i8* bitcast ({ { { { i32 } }, i32, i32, void ()* }, [0 x i8*] }* @scc_info_Value_components_2foptimization_5fguide_2fproto_2fmodels_2eproto to i8*)] }, align 8
@scc_info_Int32Value_components_2foptimization_5fguide_2fproto_2fmodels_2eproto = hidden global { { { { i32 } }, i32, i32, void ()* }, [0 x i8*] } { { { { i32 } }, i32, i32, void ()* } { { { i32 } } { { i32 } { i32 -1 } }, i32 0, i32 0, void ()* @_ZL90InitDefaultsscc_info_Int32Value_components_2foptimization_5fguide_2fproto_2fmodels_2eprotov }, [0 x i8*] zeroinitializer }, align 8
@scc_info_Leaf_components_2foptimization_5fguide_2fproto_2fmodels_2eproto = hidden global { { { { i32 } }, i32, i32, void ()* }, [1 x i8*] } { { { { i32 } }, i32, i32, void ()* } { { { i32 } } { { i32 } { i32 -1 } }, i32 1, i32 0, void ()* @_ZL84InitDefaultsscc_info_Leaf_components_2foptimization_5fguide_2fproto_2fmodels_2eprotov }, [1 x i8*] [i8* bitcast ({ { { { i32 } }, i32, i32, void ()* }, [1 x i8*] }* @scc_info_Vector_components_2foptimization_5fguide_2fproto_2fmodels_2eproto to i8*)] }, align 8
@scc_info_ModelFeature_components_2foptimization_5fguide_2fproto_2fmodels_2eproto = hidden global { { { { i32 } }, i32, i32, void ()* }, [0 x i8*] } { { { { i32 } }, i32, i32, void ()* } { { { i32 } } { { i32 } { i32 -1 } }, i32 0, i32 0, void ()* @_ZL92InitDefaultsscc_info_ModelFeature_components_2foptimization_5fguide_2fproto_2fmodels_2eprotov }, [0 x i8*] zeroinitializer }, align 8
@scc_info_Any_components_2foptimization_5fguide_2fproto_2fcommon_5ftypes_2eproto = external global %"struct.google::protobuf::internal::SCCInfo", align 8
@scc_info_ModelInfo_components_2foptimization_5fguide_2fproto_2fmodels_2eproto = hidden global { { { { i32 } }, i32, i32, void ()* }, [1 x i8*] } { { { { i32 } }, i32, i32, void ()* } { { { i32 } } { { i32 } { i32 -1 } }, i32 1, i32 0, void ()* @_ZL89InitDefaultsscc_info_ModelInfo_components_2foptimization_5fguide_2fproto_2fmodels_2eprotov }, [1 x i8*] [i8* bitcast (%"struct.google::protobuf::internal::SCCInfo"* @scc_info_Any_components_2foptimization_5fguide_2fproto_2fcommon_5ftypes_2eproto to i8*)] }, align 8
@scc_info_PredictionModel_components_2foptimization_5fguide_2fproto_2fmodels_2eproto = hidden global { { { { i32 } }, i32, i32, void ()* }, [2 x i8*] } { { { { i32 } }, i32, i32, void ()* } { { { i32 } } { { i32 } { i32 -1 } }, i32 2, i32 0, void ()* @_ZL95InitDefaultsscc_info_PredictionModel_components_2foptimization_5fguide_2fproto_2fmodels_2eprotov }, [2 x i8*] [i8* bitcast ({ { { { i32 } }, i32, i32, void ()* }, [1 x i8*] }* @scc_info_ModelInfo_components_2foptimization_5fguide_2fproto_2fmodels_2eproto to i8*), i8* bitcast ({ { { { i32 } }, i32, i32, void ()* }, [2 x i8*] }* @scc_info_Ensemble_components_2foptimization_5fguide_2fproto_2fmodels_2eproto to i8*)] }, align 8
@scc_info_StringValue_components_2foptimization_5fguide_2fproto_2fmodels_2eproto = hidden global { { { { i32 } }, i32, i32, void ()* }, [0 x i8*] } { { { { i32 } }, i32, i32, void ()* } { { { i32 } } { { i32 } { i32 -1 } }, i32 0, i32 0, void ()* @_ZL91InitDefaultsscc_info_StringValue_components_2foptimization_5fguide_2fproto_2fmodels_2eprotov }, [0 x i8*] zeroinitializer }, align 8
@scc_info_TreeNode_components_2foptimization_5fguide_2fproto_2fmodels_2eproto = hidden global { { { { i32 } }, i32, i32, void ()* }, [3 x i8*] } { { { { i32 } }, i32, i32, void ()* } { { { i32 } } { { i32 } { i32 -1 } }, i32 3, i32 0, void ()* @_ZL88InitDefaultsscc_info_TreeNode_components_2foptimization_5fguide_2fproto_2fmodels_2eprotov }, [3 x i8*] [i8* bitcast ({ { { { i32 } }, i32, i32, void ()* }, [0 x i8*] }* @scc_info_Int32Value_components_2foptimization_5fguide_2fproto_2fmodels_2eproto to i8*), i8* bitcast ({ { { { i32 } }, i32, i32, void ()* }, [2 x i8*] }* @scc_info_BinaryNode_components_2foptimization_5fguide_2fproto_2fmodels_2eproto to i8*), i8* bitcast ({ { { { i32 } }, i32, i32, void ()* }, [1 x i8*] }* @scc_info_Leaf_components_2foptimization_5fguide_2fproto_2fmodels_2eproto to i8*)] }, align 8
@scc_info_Value_components_2foptimization_5fguide_2fproto_2fmodels_2eproto = hidden global { { { { i32 } }, i32, i32, void ()* }, [0 x i8*] } { { { { i32 } }, i32, i32, void ()* } { { { i32 } } { { i32 } { i32 -1 } }, i32 0, i32 0, void ()* @_ZL85InitDefaultsscc_info_Value_components_2foptimization_5fguide_2fproto_2fmodels_2eprotov }, [0 x i8*] zeroinitializer }, align 8
@scc_info_Vector_components_2foptimization_5fguide_2fproto_2fmodels_2eproto = hidden global { { { { i32 } }, i32, i32, void ()* }, [1 x i8*] } { { { { i32 } }, i32, i32, void ()* } { { { i32 } } { { i32 } { i32 -1 } }, i32 1, i32 0, void ()* @_ZL86InitDefaultsscc_info_Vector_components_2foptimization_5fguide_2fproto_2fmodels_2eprotov }, [1 x i8*] [i8* bitcast ({ { { { i32 } }, i32, i32, void ()* }, [0 x i8*] }* @scc_info_Value_components_2foptimization_5fguide_2fproto_2fmodels_2eproto to i8*)] }, align 8
@_ZN18optimization_guide5protoL28BinaryNode_Direction_entriesE = internal constant [2 x %"struct.google::protobuf::internal::EnumEntry"] [%"struct.google::protobuf::internal::EnumEntry" <{ %"class.google::protobuf::StringPiece" { i8* getelementptr inbounds ([10 x i8], [10 x i8]* @_ZN18optimization_guide5protoL26BinaryNode_Direction_namesE, i64 0, i64 0), i64 4 }, i32 0, [4 x i8] zeroinitializer }>, %"struct.google::protobuf::internal::EnumEntry" <{ %"class.google::protobuf::StringPiece" { i8* getelementptr inbounds ([10 x i8], [10 x i8]* @_ZN18optimization_guide5protoL26BinaryNode_Direction_namesE, i64 0, i64 4), i64 5 }, i32 1, [4 x i8] zeroinitializer }>], align 16
@_ZN18optimization_guide5protoL26BinaryNode_Direction_namesE = internal constant [10 x i8] c"LEFTRIGHT\00", align 1
@_ZZN18optimization_guide5proto25BinaryNode_Direction_NameENS0_20BinaryNode_DirectionEE5dummy = internal global i8 0, align 1
@_ZGVZN18optimization_guide5proto25BinaryNode_Direction_NameENS0_20BinaryNode_DirectionEE5dummy = internal global i64 0, align 8
@_ZN18optimization_guide5protoL38BinaryNode_Direction_entries_by_numberE = internal constant [2 x i32] [i32 0, i32 1], align 4
@_ZN18optimization_guide5protoL28BinaryNode_Direction_stringsE = internal global [2 x %"class.google::protobuf::internal::ExplicitlyConstructed.24"] zeroinitializer, align 16
@_ZN18optimization_guide5proto10BinaryNode4LEFTE = hidden local_unnamed_addr constant i32 0, align 4
@_ZN18optimization_guide5proto10BinaryNode5RIGHTE = hidden local_unnamed_addr constant i32 1, align 4
@_ZN18optimization_guide5proto10BinaryNode13Direction_MINE = hidden local_unnamed_addr constant i32 0, align 4
@_ZN18optimization_guide5proto10BinaryNode13Direction_MAXE = hidden local_unnamed_addr constant i32 1, align 4
@_ZN18optimization_guide5proto10BinaryNode19Direction_ARRAYSIZEE = hidden local_unnamed_addr constant i32 2, align 4
@_ZN18optimization_guide5protoL27InequalityTest_Type_entriesE = internal constant [4 x %"struct.google::protobuf::internal::EnumEntry"] [%"struct.google::protobuf::internal::EnumEntry" <{ %"class.google::protobuf::StringPiece" { i8* getelementptr inbounds ([51 x i8], [51 x i8]* @_ZN18optimization_guide5protoL25InequalityTest_Type_namesE, i64 0, i64 0), i64 16 }, i32 2, [4 x i8] zeroinitializer }>, %"struct.google::protobuf::internal::EnumEntry" <{ %"class.google::protobuf::StringPiece" { i8* getelementptr inbounds ([51 x i8], [51 x i8]* @_ZN18optimization_guide5protoL25InequalityTest_Type_namesE, i64 0, i64 16), i64 12 }, i32 3, [4 x i8] zeroinitializer }>, %"struct.google::protobuf::internal::EnumEntry" <{ %"class.google::protobuf::StringPiece" { i8* getelementptr inbounds ([51 x i8], [51 x i8]* @_ZN18optimization_guide5protoL25InequalityTest_Type_namesE, i64 0, i64 28), i64 13 }, i32 0, [4 x i8] zeroinitializer }>, %"struct.google::protobuf::internal::EnumEntry" <{ %"class.google::protobuf::StringPiece" { i8* getelementptr inbounds ([51 x i8], [51 x i8]* @_ZN18optimization_guide5protoL25InequalityTest_Type_namesE, i64 0, i64 41), i64 9 }, i32 1, [4 x i8] zeroinitializer }>], align 16
@_ZN18optimization_guide5protoL25InequalityTest_Type_namesE = internal constant [51 x i8] c"GREATER_OR_EQUALGREATER_THANLESS_OR_EQUALLESS_THAN\00", align 16
@_ZZN18optimization_guide5proto24InequalityTest_Type_NameENS0_19InequalityTest_TypeEE5dummy = internal global i8 0, align 1
@_ZGVZN18optimization_guide5proto24InequalityTest_Type_NameENS0_19InequalityTest_TypeEE5dummy = internal global i64 0, align 8
@_ZN18optimization_guide5protoL37InequalityTest_Type_entries_by_numberE = internal constant [4 x i32] [i32 2, i32 3, i32 0, i32 1], align 16
@_ZN18optimization_guide5protoL27InequalityTest_Type_stringsE = internal global [4 x %"class.google::protobuf::internal::ExplicitlyConstructed.24"] zeroinitializer, align 16
@_ZN18optimization_guide5proto14InequalityTest13LESS_OR_EQUALE = hidden local_unnamed_addr constant i32 0, align 4
@_ZN18optimization_guide5proto14InequalityTest9LESS_THANE = hidden local_unnamed_addr constant i32 1, align 4
@_ZN18optimization_guide5proto14InequalityTest16GREATER_OR_EQUALE = hidden local_unnamed_addr constant i32 2, align 4
@_ZN18optimization_guide5proto14InequalityTest12GREATER_THANE = hidden local_unnamed_addr constant i32 3, align 4
@_ZN18optimization_guide5proto14InequalityTest8Type_MINE = hidden local_unnamed_addr constant i32 0, align 4
@_ZN18optimization_guide5proto14InequalityTest8Type_MAXE = hidden local_unnamed_addr constant i32 3, align 4
@_ZN18optimization_guide5proto14InequalityTest14Type_ARRAYSIZEE = hidden local_unnamed_addr constant i32 4, align 4
@_ZN18optimization_guide5protoL26OptimizationTarget_entriesE = internal constant [4 x %"struct.google::protobuf::internal::EnumEntry"] [%"struct.google::protobuf::internal::EnumEntry" <{ %"class.google::protobuf::StringPiece" { i8* getelementptr inbounds ([134 x i8], [134 x i8]* @_ZN18optimization_guide5protoL24OptimizationTarget_namesE, i64 0, i64 0), i64 38 }, i32 2, [4 x i8] zeroinitializer }>, %"struct.google::protobuf::internal::EnumEntry" <{ %"class.google::protobuf::StringPiece" { i8* getelementptr inbounds ([134 x i8], [134 x i8]* @_ZN18optimization_guide5protoL24OptimizationTarget_namesE, i64 0, i64 38), i64 31 }, i32 3, [4 x i8] zeroinitializer }>, %"struct.google::protobuf::internal::EnumEntry" <{ %"class.google::protobuf::StringPiece" { i8* getelementptr inbounds ([134 x i8], [134 x i8]* @_ZN18optimization_guide5protoL24OptimizationTarget_namesE, i64 0, i64 69), i64 37 }, i32 1, [4 x i8] zeroinitializer }>, %"struct.google::protobuf::internal::EnumEntry" <{ %"class.google::protobuf::StringPiece" { i8* getelementptr inbounds ([134 x i8], [134 x i8]* @_ZN18optimization_guide5protoL24OptimizationTarget_namesE, i64 0, i64 106), i64 27 }, i32 0, [4 x i8] zeroinitializer }>], align 16
@_ZN18optimization_guide5protoL24OptimizationTarget_namesE = internal constant [134 x i8] c"OPTIMIZATION_TARGET_LANGUAGE_DETECTIONOPTIMIZATION_TARGET_PAGE_TOPICSOPTIMIZATION_TARGET_PAINFUL_PAGE_LOADOPTIMIZATION_TARGET_UNKNOWN\00", align 16
@_ZZN18optimization_guide5proto23OptimizationTarget_NameENS0_18OptimizationTargetEE5dummy = internal global i8 0, align 1
@_ZGVZN18optimization_guide5proto23OptimizationTarget_NameENS0_18OptimizationTargetEE5dummy = internal global i64 0, align 8
@_ZN18optimization_guide5protoL36OptimizationTarget_entries_by_numberE = internal constant [4 x i32] [i32 3, i32 2, i32 0, i32 1], align 16
@_ZN18optimization_guide5protoL26OptimizationTarget_stringsE = internal global [4 x %"class.google::protobuf::internal::ExplicitlyConstructed.24"] zeroinitializer, align 16
@_ZN18optimization_guide5protoL17ModelType_entriesE = internal constant [3 x %"struct.google::protobuf::internal::EnumEntry"] [%"struct.google::protobuf::internal::EnumEntry" <{ %"class.google::protobuf::StringPiece" { i8* getelementptr inbounds ([66 x i8], [66 x i8]* @_ZN18optimization_guide5protoL15ModelType_namesE, i64 0, i64 0), i64 24 }, i32 1, [4 x i8] zeroinitializer }>, %"struct.google::protobuf::internal::EnumEntry" <{ %"class.google::protobuf::StringPiece" { i8* getelementptr inbounds ([66 x i8], [66 x i8]* @_ZN18optimization_guide5protoL15ModelType_namesE, i64 0, i64 24), i64 23 }, i32 2, [4 x i8] zeroinitializer }>, %"struct.google::protobuf::internal::EnumEntry" <{ %"class.google::protobuf::StringPiece" { i8* getelementptr inbounds ([66 x i8], [66 x i8]* @_ZN18optimization_guide5protoL15ModelType_namesE, i64 0, i64 47), i64 18 }, i32 0, [4 x i8] zeroinitializer }>], align 16
@_ZN18optimization_guide5protoL15ModelType_namesE = internal constant [66 x i8] c"MODEL_TYPE_DECISION_TREEMODEL_TYPE_TFLITE_2_3_0MODEL_TYPE_UNKNOWN\00", align 16
@_ZZN18optimization_guide5proto14ModelType_NameENS0_9ModelTypeEE5dummy = internal global i8 0, align 1
@_ZGVZN18optimization_guide5proto14ModelType_NameENS0_9ModelTypeEE5dummy = internal global i64 0, align 8
@_ZN18optimization_guide5protoL27ModelType_entries_by_numberE = internal constant [3 x i32] [i32 2, i32 0, i32 1], align 4
@_ZN18optimization_guide5protoL17ModelType_stringsE = internal global [3 x %"class.google::protobuf::internal::ExplicitlyConstructed.24"] zeroinitializer, align 16
@_ZTVN18optimization_guide5proto5ModelE = hidden unnamed_addr constant { [16 x i8*] } { [16 x i8*] [i8* null, i8* null, i8* bitcast (void (%"class.optimization_guide::proto::Model"*)* @_ZN18optimization_guide5proto5ModelD2Ev to i8*), i8* bitcast (void (%"class.optimization_guide::proto::Model"*)* @_ZN18optimization_guide5proto5ModelD0Ev to i8*), i8* bitcast (void (%"class.std::__1::basic_string"*, %"class.optimization_guide::proto::Model"*)* @_ZNK18optimization_guide5proto5Model11GetTypeNameEv to i8*), i8* bitcast (%"class.optimization_guide::proto::Model"* (%"class.optimization_guide::proto::Model"*)* @_ZNK18optimization_guide5proto5Model3NewEv to i8*), i8* bitcast (%"class.optimization_guide::proto::Model"* (%"class.optimization_guide::proto::Model"*, %"class.google::protobuf::Arena"*)* @_ZNK18optimization_guide5proto5Model3NewEPN6google8protobuf5ArenaE to i8*), i8* bitcast (void (%"class.optimization_guide::proto::Model"*)* @_ZN18optimization_guide5proto5Model5ClearEv to i8*), i8* bitcast (i1 (%"class.optimization_guide::proto::Model"*)* @_ZNK18optimization_guide5proto5Model13IsInitializedEv to i8*), i8* bitcast (void (%"class.std::__1::basic_string"*, %"class.google::protobuf::MessageLite"*)* @_ZNK6google8protobuf11MessageLite25InitializationErrorStringEv to i8*), i8* bitcast (void (%"class.optimization_guide::proto::Model"*, %"class.google::protobuf::MessageLite"*)* @_ZN18optimization_guide5proto5Model21CheckTypeAndMergeFromERKN6google8protobuf11MessageLiteE to i8*), i8* bitcast (i64 (%"class.optimization_guide::proto::Model"*)* @_ZNK18optimization_guide5proto5Model12ByteSizeLongEv to i8*), i8* bitcast (i32 (%"class.optimization_guide::proto::Model"*)* @_ZNK18optimization_guide5proto5Model13GetCachedSizeEv to i8*), i8* bitcast (i8* (%"class.optimization_guide::proto::Model"*, i8*, %"class.google::protobuf::internal::ParseContext"*)* @_ZN18optimization_guide5proto5Model14_InternalParseEPKcPN6google8protobuf8internal12ParseContextE to i8*), i8* bitcast (i8* (%"class.optimization_guide::proto::Model"*, i8*, %"class.google::protobuf::io::EpsCopyOutputStream"*)* @_ZNK18optimization_guide5proto5Model18_InternalSerializeEPhPN6google8protobuf2io19EpsCopyOutputStreamE to i8*), i8* bitcast (i8* (%"class.google::protobuf::MessageLite"*)* @_ZNK6google8protobuf11MessageLite16InternalGetTableEv to i8*)] }, align 8
@.str = private unnamed_addr constant [53 x i8] c"gen/components/optimization_guide/proto/models.pb.cc\00", align 1
@.str.16 = private unnamed_addr constant [31 x i8] c"optimization_guide.proto.Model\00", align 1
@_ZTVN18optimization_guide5proto15Ensemble_MemberE = hidden unnamed_addr constant { [16 x i8*] } { [16 x i8*] [i8* null, i8* null, i8* bitcast (void (%"class.optimization_guide::proto::Ensemble_Member"*)* @_ZN18optimization_guide5proto15Ensemble_MemberD2Ev to i8*), i8* bitcast (void (%"class.optimization_guide::proto::Ensemble_Member"*)* @_ZN18optimization_guide5proto15Ensemble_MemberD0Ev to i8*), i8* bitcast (void (%"class.std::__1::basic_string"*, %"class.optimization_guide::proto::Ensemble_Member"*)* @_ZNK18optimization_guide5proto15Ensemble_Member11GetTypeNameEv to i8*), i8* bitcast (%"class.optimization_guide::proto::Ensemble_Member"* (%"class.optimization_guide::proto::Ensemble_Member"*)* @_ZNK18optimization_guide5proto15Ensemble_Member3NewEv to i8*), i8* bitcast (%"class.optimization_guide::proto::Ensemble_Member"* (%"class.optimization_guide::proto::Ensemble_Member"*, %"class.google::protobuf::Arena"*)* @_ZNK18optimization_guide5proto15Ensemble_Member3NewEPN6google8protobuf5ArenaE to i8*), i8* bitcast (void (%"class.optimization_guide::proto::Ensemble_Member"*)* @_ZN18optimization_guide5proto15Ensemble_Member5ClearEv to i8*), i8* bitcast (i1 (%"class.optimization_guide::proto::Ensemble_Member"*)* @_ZNK18optimization_guide5proto15Ensemble_Member13IsInitializedEv to i8*), i8* bitcast (void (%"class.std::__1::basic_string"*, %"class.google::protobuf::MessageLite"*)* @_ZNK6google8protobuf11MessageLite25InitializationErrorStringEv to i8*), i8* bitcast (void (%"class.optimization_guide::proto::Ensemble_Member"*, %"class.google::protobuf::MessageLite"*)* @_ZN18optimization_guide5proto15Ensemble_Member21CheckTypeAndMergeFromERKN6google8protobuf11MessageLiteE to i8*), i8* bitcast (i64 (%"class.optimization_guide::proto::Ensemble_Member"*)* @_ZNK18optimization_guide5proto15Ensemble_Member12ByteSizeLongEv to i8*), i8* bitcast (i32 (%"class.optimization_guide::proto::Ensemble_Member"*)* @_ZNK18optimization_guide5proto15Ensemble_Member13GetCachedSizeEv to i8*), i8* bitcast (i8* (%"class.optimization_guide::proto::Ensemble_Member"*, i8*, %"class.google::protobuf::internal::ParseContext"*)* @_ZN18optimization_guide5proto15Ensemble_Member14_InternalParseEPKcPN6google8protobuf8internal12ParseContextE to i8*), i8* bitcast (i8* (%"class.optimization_guide::proto::Ensemble_Member"*, i8*, %"class.google::protobuf::io::EpsCopyOutputStream"*)* @_ZNK18optimization_guide5proto15Ensemble_Member18_InternalSerializeEPhPN6google8protobuf2io19EpsCopyOutputStreamE to i8*), i8* bitcast (i8* (%"class.google::protobuf::MessageLite"*)* @_ZNK6google8protobuf11MessageLite16InternalGetTableEv to i8*)] }, align 8
@.str.18 = private unnamed_addr constant [41 x i8] c"optimization_guide.proto.Ensemble.Member\00", align 1
@_ZTVN18optimization_guide5proto8EnsembleE = hidden unnamed_addr constant { [16 x i8*] } { [16 x i8*] [i8* null, i8* null, i8* bitcast (void (%"class.optimization_guide::proto::Ensemble"*)* @_ZN18optimization_guide5proto8EnsembleD2Ev to i8*), i8* bitcast (void (%"class.optimization_guide::proto::Ensemble"*)* @_ZN18optimization_guide5proto8EnsembleD0Ev to i8*), i8* bitcast (void (%"class.std::__1::basic_string"*, %"class.optimization_guide::proto::Ensemble"*)* @_ZNK18optimization_guide5proto8Ensemble11GetTypeNameEv to i8*), i8* bitcast (%"class.optimization_guide::proto::Ensemble"* (%"class.optimization_guide::proto::Ensemble"*)* @_ZNK18optimization_guide5proto8Ensemble3NewEv to i8*), i8* bitcast (%"class.optimization_guide::proto::Ensemble"* (%"class.optimization_guide::proto::Ensemble"*, %"class.google::protobuf::Arena"*)* @_ZNK18optimization_guide5proto8Ensemble3NewEPN6google8protobuf5ArenaE to i8*), i8* bitcast (void (%"class.optimization_guide::proto::Ensemble"*)* @_ZN18optimization_guide5proto8Ensemble5ClearEv to i8*), i8* bitcast (i1 (%"class.optimization_guide::proto::Ensemble"*)* @_ZNK18optimization_guide5proto8Ensemble13IsInitializedEv to i8*), i8* bitcast (void (%"class.std::__1::basic_string"*, %"class.google::protobuf::MessageLite"*)* @_ZNK6google8protobuf11MessageLite25InitializationErrorStringEv to i8*), i8* bitcast (void (%"class.optimization_guide::proto::Ensemble"*, %"class.google::protobuf::MessageLite"*)* @_ZN18optimization_guide5proto8Ensemble21CheckTypeAndMergeFromERKN6google8protobuf11MessageLiteE to i8*), i8* bitcast (i64 (%"class.optimization_guide::proto::Ensemble"*)* @_ZNK18optimization_guide5proto8Ensemble12ByteSizeLongEv to i8*), i8* bitcast (i32 (%"class.optimization_guide::proto::Ensemble"*)* @_ZNK18optimization_guide5proto8Ensemble13GetCachedSizeEv to i8*), i8* bitcast (i8* (%"class.optimization_guide::proto::Ensemble"*, i8*, %"class.google::protobuf::internal::ParseContext"*)* @_ZN18optimization_guide5proto8Ensemble14_InternalParseEPKcPN6google8protobuf8internal12ParseContextE to i8*), i8* bitcast (i8* (%"class.optimization_guide::proto::Ensemble"*, i8*, %"class.google::protobuf::io::EpsCopyOutputStream"*)* @_ZNK18optimization_guide5proto8Ensemble18_InternalSerializeEPhPN6google8protobuf2io19EpsCopyOutputStreamE to i8*), i8* bitcast (i8* (%"class.google::protobuf::MessageLite"*)* @_ZNK6google8protobuf11MessageLite16InternalGetTableEv to i8*)] }, align 8
@.str.19 = private unnamed_addr constant [34 x i8] c"optimization_guide.proto.Ensemble\00", align 1
@_ZTVN18optimization_guide5proto12DecisionTreeE = hidden unnamed_addr constant { [16 x i8*] } { [16 x i8*] [i8* null, i8* null, i8* bitcast (void (%"class.optimization_guide::proto::DecisionTree"*)* @_ZN18optimization_guide5proto12DecisionTreeD2Ev to i8*), i8* bitcast (void (%"class.optimization_guide::proto::DecisionTree"*)* @_ZN18optimization_guide5proto12DecisionTreeD0Ev to i8*), i8* bitcast (void (%"class.std::__1::basic_string"*, %"class.optimization_guide::proto::DecisionTree"*)* @_ZNK18optimization_guide5proto12DecisionTree11GetTypeNameEv to i8*), i8* bitcast (%"class.optimization_guide::proto::DecisionTree"* (%"class.optimization_guide::proto::DecisionTree"*)* @_ZNK18optimization_guide5proto12DecisionTree3NewEv to i8*), i8* bitcast (%"class.optimization_guide::proto::DecisionTree"* (%"class.optimization_guide::proto::DecisionTree"*, %"class.google::protobuf::Arena"*)* @_ZNK18optimization_guide5proto12DecisionTree3NewEPN6google8protobuf5ArenaE to i8*), i8* bitcast (void (%"class.optimization_guide::proto::DecisionTree"*)* @_ZN18optimization_guide5proto12DecisionTree5ClearEv to i8*), i8* bitcast (i1 (%"class.optimization_guide::proto::DecisionTree"*)* @_ZNK18optimization_guide5proto12DecisionTree13IsInitializedEv to i8*), i8* bitcast (void (%"class.std::__1::basic_string"*, %"class.google::protobuf::MessageLite"*)* @_ZNK6google8protobuf11MessageLite25InitializationErrorStringEv to i8*), i8* bitcast (void (%"class.optimization_guide::proto::DecisionTree"*, %"class.google::protobuf::MessageLite"*)* @_ZN18optimization_guide5proto12DecisionTree21CheckTypeAndMergeFromERKN6google8protobuf11MessageLiteE to i8*), i8* bitcast (i64 (%"class.optimization_guide::proto::DecisionTree"*)* @_ZNK18optimization_guide5proto12DecisionTree12ByteSizeLongEv to i8*), i8* bitcast (i32 (%"class.optimization_guide::proto::DecisionTree"*)* @_ZNK18optimization_guide5proto12DecisionTree13GetCachedSizeEv to i8*), i8* bitcast (i8* (%"class.optimization_guide::proto::DecisionTree"*, i8*, %"class.google::protobuf::internal::ParseContext"*)* @_ZN18optimization_guide5proto12DecisionTree14_InternalParseEPKcPN6google8protobuf8internal12ParseContextE to i8*), i8* bitcast (i8* (%"class.optimization_guide::proto::DecisionTree"*, i8*, %"class.google::protobuf::io::EpsCopyOutputStream"*)* @_ZNK18optimization_guide5proto12DecisionTree18_InternalSerializeEPhPN6google8protobuf2io19EpsCopyOutputStreamE to i8*), i8* bitcast (i8* (%"class.google::protobuf::MessageLite"*)* @_ZNK6google8protobuf11MessageLite16InternalGetTableEv to i8*)] }, align 8
@.str.20 = private unnamed_addr constant [38 x i8] c"optimization_guide.proto.DecisionTree\00", align 1
@_ZTVN18optimization_guide5proto8TreeNodeE = hidden unnamed_addr constant { [16 x i8*] } { [16 x i8*] [i8* null, i8* null, i8* bitcast (void (%"class.optimization_guide::proto::TreeNode"*)* @_ZN18optimization_guide5proto8TreeNodeD2Ev to i8*), i8* bitcast (void (%"class.optimization_guide::proto::TreeNode"*)* @_ZN18optimization_guide5proto8TreeNodeD0Ev to i8*), i8* bitcast (void (%"class.std::__1::basic_string"*, %"class.optimization_guide::proto::TreeNode"*)* @_ZNK18optimization_guide5proto8TreeNode11GetTypeNameEv to i8*), i8* bitcast (%"class.optimization_guide::proto::TreeNode"* (%"class.optimization_guide::proto::TreeNode"*)* @_ZNK18optimization_guide5proto8TreeNode3NewEv to i8*), i8* bitcast (%"class.optimization_guide::proto::TreeNode"* (%"class.optimization_guide::proto::TreeNode"*, %"class.google::protobuf::Arena"*)* @_ZNK18optimization_guide5proto8TreeNode3NewEPN6google8protobuf5ArenaE to i8*), i8* bitcast (void (%"class.optimization_guide::proto::TreeNode"*)* @_ZN18optimization_guide5proto8TreeNode5ClearEv to i8*), i8* bitcast (i1 (%"class.optimization_guide::proto::TreeNode"*)* @_ZNK18optimization_guide5proto8TreeNode13IsInitializedEv to i8*), i8* bitcast (void (%"class.std::__1::basic_string"*, %"class.google::protobuf::MessageLite"*)* @_ZNK6google8protobuf11MessageLite25InitializationErrorStringEv to i8*), i8* bitcast (void (%"class.optimization_guide::proto::TreeNode"*, %"class.google::protobuf::MessageLite"*)* @_ZN18optimization_guide5proto8TreeNode21CheckTypeAndMergeFromERKN6google8protobuf11MessageLiteE to i8*), i8* bitcast (i64 (%"class.optimization_guide::proto::TreeNode"*)* @_ZNK18optimization_guide5proto8TreeNode12ByteSizeLongEv to i8*), i8* bitcast (i32 (%"class.optimization_guide::proto::TreeNode"*)* @_ZNK18optimization_guide5proto8TreeNode13GetCachedSizeEv to i8*), i8* bitcast (i8* (%"class.optimization_guide::proto::TreeNode"*, i8*, %"class.google::protobuf::internal::ParseContext"*)* @_ZN18optimization_guide5proto8TreeNode14_InternalParseEPKcPN6google8protobuf8internal12ParseContextE to i8*), i8* bitcast (i8* (%"class.optimization_guide::proto::TreeNode"*, i8*, %"class.google::protobuf::io::EpsCopyOutputStream"*)* @_ZNK18optimization_guide5proto8TreeNode18_InternalSerializeEPhPN6google8protobuf2io19EpsCopyOutputStreamE to i8*), i8* bitcast (i8* (%"class.google::protobuf::MessageLite"*)* @_ZNK6google8protobuf11MessageLite16InternalGetTableEv to i8*)] }, align 8
@.str.24 = private unnamed_addr constant [34 x i8] c"optimization_guide.proto.TreeNode\00", align 1
@_ZTVN18optimization_guide5proto10BinaryNodeE = hidden unnamed_addr constant { [16 x i8*] } { [16 x i8*] [i8* null, i8* null, i8* bitcast (void (%"class.optimization_guide::proto::BinaryNode"*)* @_ZN18optimization_guide5proto10BinaryNodeD2Ev to i8*), i8* bitcast (void (%"class.optimization_guide::proto::BinaryNode"*)* @_ZN18optimization_guide5proto10BinaryNodeD0Ev to i8*), i8* bitcast (void (%"class.std::__1::basic_string"*, %"class.optimization_guide::proto::BinaryNode"*)* @_ZNK18optimization_guide5proto10BinaryNode11GetTypeNameEv to i8*), i8* bitcast (%"class.optimization_guide::proto::BinaryNode"* (%"class.optimization_guide::proto::BinaryNode"*)* @_ZNK18optimization_guide5proto10BinaryNode3NewEv to i8*), i8* bitcast (%"class.optimization_guide::proto::BinaryNode"* (%"class.optimization_guide::proto::BinaryNode"*, %"class.google::protobuf::Arena"*)* @_ZNK18optimization_guide5proto10BinaryNode3NewEPN6google8protobuf5ArenaE to i8*), i8* bitcast (void (%"class.optimization_guide::proto::BinaryNode"*)* @_ZN18optimization_guide5proto10BinaryNode5ClearEv to i8*), i8* bitcast (i1 (%"class.optimization_guide::proto::BinaryNode"*)* @_ZNK18optimization_guide5proto10BinaryNode13IsInitializedEv to i8*), i8* bitcast (void (%"class.std::__1::basic_string"*, %"class.google::protobuf::MessageLite"*)* @_ZNK6google8protobuf11MessageLite25InitializationErrorStringEv to i8*), i8* bitcast (void (%"class.optimization_guide::proto::BinaryNode"*, %"class.google::protobuf::MessageLite"*)* @_ZN18optimization_guide5proto10BinaryNode21CheckTypeAndMergeFromERKN6google8protobuf11MessageLiteE to i8*), i8* bitcast (i64 (%"class.optimization_guide::proto::BinaryNode"*)* @_ZNK18optimization_guide5proto10BinaryNode12ByteSizeLongEv to i8*), i8* bitcast (i32 (%"class.optimization_guide::proto::BinaryNode"*)* @_ZNK18optimization_guide5proto10BinaryNode13GetCachedSizeEv to i8*), i8* bitcast (i8* (%"class.optimization_guide::proto::BinaryNode"*, i8*, %"class.google::protobuf::internal::ParseContext"*)* @_ZN18optimization_guide5proto10BinaryNode14_InternalParseEPKcPN6google8protobuf8internal12ParseContextE to i8*), i8* bitcast (i8* (%"class.optimization_guide::proto::BinaryNode"*, i8*, %"class.google::protobuf::io::EpsCopyOutputStream"*)* @_ZNK18optimization_guide5proto10BinaryNode18_InternalSerializeEPhPN6google8protobuf2io19EpsCopyOutputStreamE to i8*), i8* bitcast (i8* (%"class.google::protobuf::MessageLite"*)* @_ZNK6google8protobuf11MessageLite16InternalGetTableEv to i8*)] }, align 8
@.str.28 = private unnamed_addr constant [36 x i8] c"optimization_guide.proto.BinaryNode\00", align 1
@_ZTVN18optimization_guide5proto6VectorE = hidden unnamed_addr constant { [16 x i8*] } { [16 x i8*] [i8* null, i8* null, i8* bitcast (void (%"class.optimization_guide::proto::Vector"*)* @_ZN18optimization_guide5proto6VectorD2Ev to i8*), i8* bitcast (void (%"class.optimization_guide::proto::Vector"*)* @_ZN18optimization_guide5proto6VectorD0Ev to i8*), i8* bitcast (void (%"class.std::__1::basic_string"*, %"class.optimization_guide::proto::Vector"*)* @_ZNK18optimization_guide5proto6Vector11GetTypeNameEv to i8*), i8* bitcast (%"class.optimization_guide::proto::Vector"* (%"class.optimization_guide::proto::Vector"*)* @_ZNK18optimization_guide5proto6Vector3NewEv to i8*), i8* bitcast (%"class.optimization_guide::proto::Vector"* (%"class.optimization_guide::proto::Vector"*, %"class.google::protobuf::Arena"*)* @_ZNK18optimization_guide5proto6Vector3NewEPN6google8protobuf5ArenaE to i8*), i8* bitcast (void (%"class.optimization_guide::proto::Vector"*)* @_ZN18optimization_guide5proto6Vector5ClearEv to i8*), i8* bitcast (i1 (%"class.optimization_guide::proto::Vector"*)* @_ZNK18optimization_guide5proto6Vector13IsInitializedEv to i8*), i8* bitcast (void (%"class.std::__1::basic_string"*, %"class.google::protobuf::MessageLite"*)* @_ZNK6google8protobuf11MessageLite25InitializationErrorStringEv to i8*), i8* bitcast (void (%"class.optimization_guide::proto::Vector"*, %"class.google::protobuf::MessageLite"*)* @_ZN18optimization_guide5proto6Vector21CheckTypeAndMergeFromERKN6google8protobuf11MessageLiteE to i8*), i8* bitcast (i64 (%"class.optimization_guide::proto::Vector"*)* @_ZNK18optimization_guide5proto6Vector12ByteSizeLongEv to i8*), i8* bitcast (i32 (%"class.optimization_guide::proto::Vector"*)* @_ZNK18optimization_guide5proto6Vector13GetCachedSizeEv to i8*), i8* bitcast (i8* (%"class.optimization_guide::proto::Vector"*, i8*, %"class.google::protobuf::internal::ParseContext"*)* @_ZN18optimization_guide5proto6Vector14_InternalParseEPKcPN6google8protobuf8internal12ParseContextE to i8*), i8* bitcast (i8* (%"class.optimization_guide::proto::Vector"*, i8*, %"class.google::protobuf::io::EpsCopyOutputStream"*)* @_ZNK18optimization_guide5proto6Vector18_InternalSerializeEPhPN6google8protobuf2io19EpsCopyOutputStreamE to i8*), i8* bitcast (i8* (%"class.google::protobuf::MessageLite"*)* @_ZNK6google8protobuf11MessageLite16InternalGetTableEv to i8*)] }, align 8
@.str.29 = private unnamed_addr constant [32 x i8] c"optimization_guide.proto.Vector\00", align 1
@_ZTVN18optimization_guide5proto4LeafE = hidden unnamed_addr constant { [16 x i8*] } { [16 x i8*] [i8* null, i8* null, i8* bitcast (void (%"class.optimization_guide::proto::Leaf"*)* @_ZN18optimization_guide5proto4LeafD2Ev to i8*), i8* bitcast (void (%"class.optimization_guide::proto::Leaf"*)* @_ZN18optimization_guide5proto4LeafD0Ev to i8*), i8* bitcast (void (%"class.std::__1::basic_string"*, %"class.optimization_guide::proto::Leaf"*)* @_ZNK18optimization_guide5proto4Leaf11GetTypeNameEv to i8*), i8* bitcast (%"class.optimization_guide::proto::Leaf"* (%"class.optimization_guide::proto::Leaf"*)* @_ZNK18optimization_guide5proto4Leaf3NewEv to i8*), i8* bitcast (%"class.optimization_guide::proto::Leaf"* (%"class.optimization_guide::proto::Leaf"*, %"class.google::protobuf::Arena"*)* @_ZNK18optimization_guide5proto4Leaf3NewEPN6google8protobuf5ArenaE to i8*), i8* bitcast (void (%"class.optimization_guide::proto::Leaf"*)* @_ZN18optimization_guide5proto4Leaf5ClearEv to i8*), i8* bitcast (i1 (%"class.optimization_guide::proto::Leaf"*)* @_ZNK18optimization_guide5proto4Leaf13IsInitializedEv to i8*), i8* bitcast (void (%"class.std::__1::basic_string"*, %"class.google::protobuf::MessageLite"*)* @_ZNK6google8protobuf11MessageLite25InitializationErrorStringEv to i8*), i8* bitcast (void (%"class.optimization_guide::proto::Leaf"*, %"class.google::protobuf::MessageLite"*)* @_ZN18optimization_guide5proto4Leaf21CheckTypeAndMergeFromERKN6google8protobuf11MessageLiteE to i8*), i8* bitcast (i64 (%"class.optimization_guide::proto::Leaf"*)* @_ZNK18optimization_guide5proto4Leaf12ByteSizeLongEv to i8*), i8* bitcast (i32 (%"class.optimization_guide::proto::Leaf"*)* @_ZNK18optimization_guide5proto4Leaf13GetCachedSizeEv to i8*), i8* bitcast (i8* (%"class.optimization_guide::proto::Leaf"*, i8*, %"class.google::protobuf::internal::ParseContext"*)* @_ZN18optimization_guide5proto4Leaf14_InternalParseEPKcPN6google8protobuf8internal12ParseContextE to i8*), i8* bitcast (i8* (%"class.optimization_guide::proto::Leaf"*, i8*, %"class.google::protobuf::io::EpsCopyOutputStream"*)* @_ZNK18optimization_guide5proto4Leaf18_InternalSerializeEPhPN6google8protobuf2io19EpsCopyOutputStreamE to i8*), i8* bitcast (i8* (%"class.google::protobuf::MessageLite"*)* @_ZNK6google8protobuf11MessageLite16InternalGetTableEv to i8*)] }, align 8
@.str.31 = private unnamed_addr constant [30 x i8] c"optimization_guide.proto.Leaf\00", align 1
@_ZTVN18optimization_guide5proto9FeatureIdE = hidden unnamed_addr constant { [16 x i8*] } { [16 x i8*] [i8* null, i8* null, i8* bitcast (void (%"class.optimization_guide::proto::FeatureId"*)* @_ZN18optimization_guide5proto9FeatureIdD2Ev to i8*), i8* bitcast (void (%"class.optimization_guide::proto::FeatureId"*)* @_ZN18optimization_guide5proto9FeatureIdD0Ev to i8*), i8* bitcast (void (%"class.std::__1::basic_string"*, %"class.optimization_guide::proto::FeatureId"*)* @_ZNK18optimization_guide5proto9FeatureId11GetTypeNameEv to i8*), i8* bitcast (%"class.optimization_guide::proto::FeatureId"* (%"class.optimization_guide::proto::FeatureId"*)* @_ZNK18optimization_guide5proto9FeatureId3NewEv to i8*), i8* bitcast (%"class.optimization_guide::proto::FeatureId"* (%"class.optimization_guide::proto::FeatureId"*, %"class.google::protobuf::Arena"*)* @_ZNK18optimization_guide5proto9FeatureId3NewEPN6google8protobuf5ArenaE to i8*), i8* bitcast (void (%"class.optimization_guide::proto::FeatureId"*)* @_ZN18optimization_guide5proto9FeatureId5ClearEv to i8*), i8* bitcast (i1 (%"class.optimization_guide::proto::FeatureId"*)* @_ZNK18optimization_guide5proto9FeatureId13IsInitializedEv to i8*), i8* bitcast (void (%"class.std::__1::basic_string"*, %"class.google::protobuf::MessageLite"*)* @_ZNK6google8protobuf11MessageLite25InitializationErrorStringEv to i8*), i8* bitcast (void (%"class.optimization_guide::proto::FeatureId"*, %"class.google::protobuf::MessageLite"*)* @_ZN18optimization_guide5proto9FeatureId21CheckTypeAndMergeFromERKN6google8protobuf11MessageLiteE to i8*), i8* bitcast (i64 (%"class.optimization_guide::proto::FeatureId"*)* @_ZNK18optimization_guide5proto9FeatureId12ByteSizeLongEv to i8*), i8* bitcast (i32 (%"class.optimization_guide::proto::FeatureId"*)* @_ZNK18optimization_guide5proto9FeatureId13GetCachedSizeEv to i8*), i8* bitcast (i8* (%"class.optimization_guide::proto::FeatureId"*, i8*, %"class.google::protobuf::internal::ParseContext"*)* @_ZN18optimization_guide5proto9FeatureId14_InternalParseEPKcPN6google8protobuf8internal12ParseContextE to i8*), i8* bitcast (i8* (%"class.optimization_guide::proto::FeatureId"*, i8*, %"class.google::protobuf::io::EpsCopyOutputStream"*)* @_ZNK18optimization_guide5proto9FeatureId18_InternalSerializeEPhPN6google8protobuf2io19EpsCopyOutputStreamE to i8*), i8* bitcast (i8* (%"class.google::protobuf::MessageLite"*)* @_ZNK6google8protobuf11MessageLite16InternalGetTableEv to i8*)] }, align 8
@.str.33 = private unnamed_addr constant [35 x i8] c"optimization_guide.proto.FeatureId\00", align 1
@_ZTVN18optimization_guide5proto14InequalityTestE = hidden unnamed_addr constant { [16 x i8*] } { [16 x i8*] [i8* null, i8* null, i8* bitcast (void (%"class.optimization_guide::proto::InequalityTest"*)* @_ZN18optimization_guide5proto14InequalityTestD2Ev to i8*), i8* bitcast (void (%"class.optimization_guide::proto::InequalityTest"*)* @_ZN18optimization_guide5proto14InequalityTestD0Ev to i8*), i8* bitcast (void (%"class.std::__1::basic_string"*, %"class.optimization_guide::proto::InequalityTest"*)* @_ZNK18optimization_guide5proto14InequalityTest11GetTypeNameEv to i8*), i8* bitcast (%"class.optimization_guide::proto::InequalityTest"* (%"class.optimization_guide::proto::InequalityTest"*)* @_ZNK18optimization_guide5proto14InequalityTest3NewEv to i8*), i8* bitcast (%"class.optimization_guide::proto::InequalityTest"* (%"class.optimization_guide::proto::InequalityTest"*, %"class.google::protobuf::Arena"*)* @_ZNK18optimization_guide5proto14InequalityTest3NewEPN6google8protobuf5ArenaE to i8*), i8* bitcast (void (%"class.optimization_guide::proto::InequalityTest"*)* @_ZN18optimization_guide5proto14InequalityTest5ClearEv to i8*), i8* bitcast (i1 (%"class.optimization_guide::proto::InequalityTest"*)* @_ZNK18optimization_guide5proto14InequalityTest13IsInitializedEv to i8*), i8* bitcast (void (%"class.std::__1::basic_string"*, %"class.google::protobuf::MessageLite"*)* @_ZNK6google8protobuf11MessageLite25InitializationErrorStringEv to i8*), i8* bitcast (void (%"class.optimization_guide::proto::InequalityTest"*, %"class.google::protobuf::MessageLite"*)* @_ZN18optimization_guide5proto14InequalityTest21CheckTypeAndMergeFromERKN6google8protobuf11MessageLiteE to i8*), i8* bitcast (i64 (%"class.optimization_guide::proto::InequalityTest"*)* @_ZNK18optimization_guide5proto14InequalityTest12ByteSizeLongEv to i8*), i8* bitcast (i32 (%"class.optimization_guide::proto::InequalityTest"*)* @_ZNK18optimization_guide5proto14InequalityTest13GetCachedSizeEv to i8*), i8* bitcast (i8* (%"class.optimization_guide::proto::InequalityTest"*, i8*, %"class.google::protobuf::internal::ParseContext"*)* @_ZN18optimization_guide5proto14InequalityTest14_InternalParseEPKcPN6google8protobuf8internal12ParseContextE to i8*), i8* bitcast (i8* (%"class.optimization_guide::proto::InequalityTest"*, i8*, %"class.google::protobuf::io::EpsCopyOutputStream"*)* @_ZNK18optimization_guide5proto14InequalityTest18_InternalSerializeEPhPN6google8protobuf2io19EpsCopyOutputStreamE to i8*), i8* bitcast (i8* (%"class.google::protobuf::MessageLite"*)* @_ZNK6google8protobuf11MessageLite16InternalGetTableEv to i8*)] }, align 8
@.str.35 = private unnamed_addr constant [40 x i8] c"optimization_guide.proto.InequalityTest\00", align 1
@_ZTVN18optimization_guide5proto5ValueE = hidden unnamed_addr constant { [16 x i8*] } { [16 x i8*] [i8* null, i8* null, i8* bitcast (void (%"class.optimization_guide::proto::Value"*)* @_ZN18optimization_guide5proto5ValueD2Ev to i8*), i8* bitcast (void (%"class.optimization_guide::proto::Value"*)* @_ZN18optimization_guide5proto5ValueD0Ev to i8*), i8* bitcast (void (%"class.std::__1::basic_string"*, %"class.optimization_guide::proto::Value"*)* @_ZNK18optimization_guide5proto5Value11GetTypeNameEv to i8*), i8* bitcast (%"class.optimization_guide::proto::Value"* (%"class.optimization_guide::proto::Value"*)* @_ZNK18optimization_guide5proto5Value3NewEv to i8*), i8* bitcast (%"class.optimization_guide::proto::Value"* (%"class.optimization_guide::proto::Value"*, %"class.google::protobuf::Arena"*)* @_ZNK18optimization_guide5proto5Value3NewEPN6google8protobuf5ArenaE to i8*), i8* bitcast (void (%"class.optimization_guide::proto::Value"*)* @_ZN18optimization_guide5proto5Value5ClearEv to i8*), i8* bitcast (i1 (%"class.optimization_guide::proto::Value"*)* @_ZNK18optimization_guide5proto5Value13IsInitializedEv to i8*), i8* bitcast (void (%"class.std::__1::basic_string"*, %"class.google::protobuf::MessageLite"*)* @_ZNK6google8protobuf11MessageLite25InitializationErrorStringEv to i8*), i8* bitcast (void (%"class.optimization_guide::proto::Value"*, %"class.google::protobuf::MessageLite"*)* @_ZN18optimization_guide5proto5Value21CheckTypeAndMergeFromERKN6google8protobuf11MessageLiteE to i8*), i8* bitcast (i64 (%"class.optimization_guide::proto::Value"*)* @_ZNK18optimization_guide5proto5Value12ByteSizeLongEv to i8*), i8* bitcast (i32 (%"class.optimization_guide::proto::Value"*)* @_ZNK18optimization_guide5proto5Value13GetCachedSizeEv to i8*), i8* bitcast (i8* (%"class.optimization_guide::proto::Value"*, i8*, %"class.google::protobuf::internal::ParseContext"*)* @_ZN18optimization_guide5proto5Value14_InternalParseEPKcPN6google8protobuf8internal12ParseContextE to i8*), i8* bitcast (i8* (%"class.optimization_guide::proto::Value"*, i8*, %"class.google::protobuf::io::EpsCopyOutputStream"*)* @_ZNK18optimization_guide5proto5Value18_InternalSerializeEPhPN6google8protobuf2io19EpsCopyOutputStreamE to i8*), i8* bitcast (i8* (%"class.google::protobuf::MessageLite"*)* @_ZNK6google8protobuf11MessageLite16InternalGetTableEv to i8*)] }, align 8
@.str.36 = private unnamed_addr constant [31 x i8] c"optimization_guide.proto.Value\00", align 1
@_ZTVN18optimization_guide5proto10Int32ValueE = hidden unnamed_addr constant { [16 x i8*] } { [16 x i8*] [i8* null, i8* null, i8* bitcast (void (%"class.optimization_guide::proto::Int32Value"*)* @_ZN18optimization_guide5proto10Int32ValueD2Ev to i8*), i8* bitcast (void (%"class.optimization_guide::proto::Int32Value"*)* @_ZN18optimization_guide5proto10Int32ValueD0Ev to i8*), i8* bitcast (void (%"class.std::__1::basic_string"*, %"class.optimization_guide::proto::Int32Value"*)* @_ZNK18optimization_guide5proto10Int32Value11GetTypeNameEv to i8*), i8* bitcast (%"class.optimization_guide::proto::Int32Value"* (%"class.optimization_guide::proto::Int32Value"*)* @_ZNK18optimization_guide5proto10Int32Value3NewEv to i8*), i8* bitcast (%"class.optimization_guide::proto::Int32Value"* (%"class.optimization_guide::proto::Int32Value"*, %"class.google::protobuf::Arena"*)* @_ZNK18optimization_guide5proto10Int32Value3NewEPN6google8protobuf5ArenaE to i8*), i8* bitcast (void (%"class.optimization_guide::proto::Int32Value"*)* @_ZN18optimization_guide5proto10Int32Value5ClearEv to i8*), i8* bitcast (i1 (%"class.optimization_guide::proto::Int32Value"*)* @_ZNK18optimization_guide5proto10Int32Value13IsInitializedEv to i8*), i8* bitcast (void (%"class.std::__1::basic_string"*, %"class.google::protobuf::MessageLite"*)* @_ZNK6google8protobuf11MessageLite25InitializationErrorStringEv to i8*), i8* bitcast (void (%"class.optimization_guide::proto::Int32Value"*, %"class.google::protobuf::MessageLite"*)* @_ZN18optimization_guide5proto10Int32Value21CheckTypeAndMergeFromERKN6google8protobuf11MessageLiteE to i8*), i8* bitcast (i64 (%"class.optimization_guide::proto::Int32Value"*)* @_ZNK18optimization_guide5proto10Int32Value12ByteSizeLongEv to i8*), i8* bitcast (i32 (%"class.optimization_guide::proto::Int32Value"*)* @_ZNK18optimization_guide5proto10Int32Value13GetCachedSizeEv to i8*), i8* bitcast (i8* (%"class.optimization_guide::proto::Int32Value"*, i8*, %"class.google::protobuf::internal::ParseContext"*)* @_ZN18optimization_guide5proto10Int32Value14_InternalParseEPKcPN6google8protobuf8internal12ParseContextE to i8*), i8* bitcast (i8* (%"class.optimization_guide::proto::Int32Value"*, i8*, %"class.google::protobuf::io::EpsCopyOutputStream"*)* @_ZNK18optimization_guide5proto10Int32Value18_InternalSerializeEPhPN6google8protobuf2io19EpsCopyOutputStreamE to i8*), i8* bitcast (i8* (%"class.google::protobuf::MessageLite"*)* @_ZNK6google8protobuf11MessageLite16InternalGetTableEv to i8*)] }, align 8
@.str.37 = private unnamed_addr constant [36 x i8] c"optimization_guide.proto.Int32Value\00", align 1
@_ZTVN18optimization_guide5proto11StringValueE = hidden unnamed_addr constant { [16 x i8*] } { [16 x i8*] [i8* null, i8* null, i8* bitcast (void (%"class.optimization_guide::proto::StringValue"*)* @_ZN18optimization_guide5proto11StringValueD2Ev to i8*), i8* bitcast (void (%"class.optimization_guide::proto::StringValue"*)* @_ZN18optimization_guide5proto11StringValueD0Ev to i8*), i8* bitcast (void (%"class.std::__1::basic_string"*, %"class.optimization_guide::proto::StringValue"*)* @_ZNK18optimization_guide5proto11StringValue11GetTypeNameEv to i8*), i8* bitcast (%"class.optimization_guide::proto::StringValue"* (%"class.optimization_guide::proto::StringValue"*)* @_ZNK18optimization_guide5proto11StringValue3NewEv to i8*), i8* bitcast (%"class.optimization_guide::proto::StringValue"* (%"class.optimization_guide::proto::StringValue"*, %"class.google::protobuf::Arena"*)* @_ZNK18optimization_guide5proto11StringValue3NewEPN6google8protobuf5ArenaE to i8*), i8* bitcast (void (%"class.optimization_guide::proto::StringValue"*)* @_ZN18optimization_guide5proto11StringValue5ClearEv to i8*), i8* bitcast (i1 (%"class.optimization_guide::proto::StringValue"*)* @_ZNK18optimization_guide5proto11StringValue13IsInitializedEv to i8*), i8* bitcast (void (%"class.std::__1::basic_string"*, %"class.google::protobuf::MessageLite"*)* @_ZNK6google8protobuf11MessageLite25InitializationErrorStringEv to i8*), i8* bitcast (void (%"class.optimization_guide::proto::StringValue"*, %"class.google::protobuf::MessageLite"*)* @_ZN18optimization_guide5proto11StringValue21CheckTypeAndMergeFromERKN6google8protobuf11MessageLiteE to i8*), i8* bitcast (i64 (%"class.optimization_guide::proto::StringValue"*)* @_ZNK18optimization_guide5proto11StringValue12ByteSizeLongEv to i8*), i8* bitcast (i32 (%"class.optimization_guide::proto::StringValue"*)* @_ZNK18optimization_guide5proto11StringValue13GetCachedSizeEv to i8*), i8* bitcast (i8* (%"class.optimization_guide::proto::StringValue"*, i8*, %"class.google::protobuf::internal::ParseContext"*)* @_ZN18optimization_guide5proto11StringValue14_InternalParseEPKcPN6google8protobuf8internal12ParseContextE to i8*), i8* bitcast (i8* (%"class.optimization_guide::proto::StringValue"*, i8*, %"class.google::protobuf::io::EpsCopyOutputStream"*)* @_ZNK18optimization_guide5proto11StringValue18_InternalSerializeEPhPN6google8protobuf2io19EpsCopyOutputStreamE to i8*), i8* bitcast (i8* (%"class.google::protobuf::MessageLite"*)* @_ZNK6google8protobuf11MessageLite16InternalGetTableEv to i8*)] }, align 8
@.str.38 = private unnamed_addr constant [37 x i8] c"optimization_guide.proto.StringValue\00", align 1
@_ZTVN18optimization_guide5proto11DoubleValueE = hidden unnamed_addr constant { [16 x i8*] } { [16 x i8*] [i8* null, i8* null, i8* bitcast (void (%"class.optimization_guide::proto::DoubleValue"*)* @_ZN18optimization_guide5proto11DoubleValueD2Ev to i8*), i8* bitcast (void (%"class.optimization_guide::proto::DoubleValue"*)* @_ZN18optimization_guide5proto11DoubleValueD0Ev to i8*), i8* bitcast (void (%"class.std::__1::basic_string"*, %"class.optimization_guide::proto::DoubleValue"*)* @_ZNK18optimization_guide5proto11DoubleValue11GetTypeNameEv to i8*), i8* bitcast (%"class.optimization_guide::proto::DoubleValue"* (%"class.optimization_guide::proto::DoubleValue"*)* @_ZNK18optimization_guide5proto11DoubleValue3NewEv to i8*), i8* bitcast (%"class.optimization_guide::proto::DoubleValue"* (%"class.optimization_guide::proto::DoubleValue"*, %"class.google::protobuf::Arena"*)* @_ZNK18optimization_guide5proto11DoubleValue3NewEPN6google8protobuf5ArenaE to i8*), i8* bitcast (void (%"class.optimization_guide::proto::DoubleValue"*)* @_ZN18optimization_guide5proto11DoubleValue5ClearEv to i8*), i8* bitcast (i1 (%"class.optimization_guide::proto::DoubleValue"*)* @_ZNK18optimization_guide5proto11DoubleValue13IsInitializedEv to i8*), i8* bitcast (void (%"class.std::__1::basic_string"*, %"class.google::protobuf::MessageLite"*)* @_ZNK6google8protobuf11MessageLite25InitializationErrorStringEv to i8*), i8* bitcast (void (%"class.optimization_guide::proto::DoubleValue"*, %"class.google::protobuf::MessageLite"*)* @_ZN18optimization_guide5proto11DoubleValue21CheckTypeAndMergeFromERKN6google8protobuf11MessageLiteE to i8*), i8* bitcast (i64 (%"class.optimization_guide::proto::DoubleValue"*)* @_ZNK18optimization_guide5proto11DoubleValue12ByteSizeLongEv to i8*), i8* bitcast (i32 (%"class.optimization_guide::proto::DoubleValue"*)* @_ZNK18optimization_guide5proto11DoubleValue13GetCachedSizeEv to i8*), i8* bitcast (i8* (%"class.optimization_guide::proto::DoubleValue"*, i8*, %"class.google::protobuf::internal::ParseContext"*)* @_ZN18optimization_guide5proto11DoubleValue14_InternalParseEPKcPN6google8protobuf8internal12ParseContextE to i8*), i8* bitcast (i8* (%"class.optimization_guide::proto::DoubleValue"*, i8*, %"class.google::protobuf::io::EpsCopyOutputStream"*)* @_ZNK18optimization_guide5proto11DoubleValue18_InternalSerializeEPhPN6google8protobuf2io19EpsCopyOutputStreamE to i8*), i8* bitcast (i8* (%"class.google::protobuf::MessageLite"*)* @_ZNK6google8protobuf11MessageLite16InternalGetTableEv to i8*)] }, align 8
@.str.39 = private unnamed_addr constant [37 x i8] c"optimization_guide.proto.DoubleValue\00", align 1
@_ZTVN18optimization_guide5proto16GetModelsRequestE = hidden unnamed_addr constant { [16 x i8*] } { [16 x i8*] [i8* null, i8* null, i8* bitcast (void (%"class.optimization_guide::proto::GetModelsRequest"*)* @_ZN18optimization_guide5proto16GetModelsRequestD2Ev to i8*), i8* bitcast (void (%"class.optimization_guide::proto::GetModelsRequest"*)* @_ZN18optimization_guide5proto16GetModelsRequestD0Ev to i8*), i8* bitcast (void (%"class.std::__1::basic_string"*, %"class.optimization_guide::proto::GetModelsRequest"*)* @_ZNK18optimization_guide5proto16GetModelsRequest11GetTypeNameEv to i8*), i8* bitcast (%"class.optimization_guide::proto::GetModelsRequest"* (%"class.optimization_guide::proto::GetModelsRequest"*)* @_ZNK18optimization_guide5proto16GetModelsRequest3NewEv to i8*), i8* bitcast (%"class.optimization_guide::proto::GetModelsRequest"* (%"class.optimization_guide::proto::GetModelsRequest"*, %"class.google::protobuf::Arena"*)* @_ZNK18optimization_guide5proto16GetModelsRequest3NewEPN6google8protobuf5ArenaE to i8*), i8* bitcast (void (%"class.optimization_guide::proto::GetModelsRequest"*)* @_ZN18optimization_guide5proto16GetModelsRequest5ClearEv to i8*), i8* bitcast (i1 (%"class.optimization_guide::proto::GetModelsRequest"*)* @_ZNK18optimization_guide5proto16GetModelsRequest13IsInitializedEv to i8*), i8* bitcast (void (%"class.std::__1::basic_string"*, %"class.google::protobuf::MessageLite"*)* @_ZNK6google8protobuf11MessageLite25InitializationErrorStringEv to i8*), i8* bitcast (void (%"class.optimization_guide::proto::GetModelsRequest"*, %"class.google::protobuf::MessageLite"*)* @_ZN18optimization_guide5proto16GetModelsRequest21CheckTypeAndMergeFromERKN6google8protobuf11MessageLiteE to i8*), i8* bitcast (i64 (%"class.optimization_guide::proto::GetModelsRequest"*)* @_ZNK18optimization_guide5proto16GetModelsRequest12ByteSizeLongEv to i8*), i8* bitcast (i32 (%"class.optimization_guide::proto::GetModelsRequest"*)* @_ZNK18optimization_guide5proto16GetModelsRequest13GetCachedSizeEv to i8*), i8* bitcast (i8* (%"class.optimization_guide::proto::GetModelsRequest"*, i8*, %"class.google::protobuf::internal::ParseContext"*)* @_ZN18optimization_guide5proto16GetModelsRequest14_InternalParseEPKcPN6google8protobuf8internal12ParseContextE to i8*), i8* bitcast (i8* (%"class.optimization_guide::proto::GetModelsRequest"*, i8*, %"class.google::protobuf::io::EpsCopyOutputStream"*)* @_ZNK18optimization_guide5proto16GetModelsRequest18_InternalSerializeEPhPN6google8protobuf2io19EpsCopyOutputStreamE to i8*), i8* bitcast (i8* (%"class.google::protobuf::MessageLite"*)* @_ZNK6google8protobuf11MessageLite16InternalGetTableEv to i8*)] }, align 8
@.str.40 = private unnamed_addr constant [42 x i8] c"optimization_guide.proto.GetModelsRequest\00", align 1
@_ZTVN18optimization_guide5proto17GetModelsResponseE = hidden unnamed_addr constant { [16 x i8*] } { [16 x i8*] [i8* null, i8* null, i8* bitcast (void (%"class.optimization_guide::proto::GetModelsResponse"*)* @_ZN18optimization_guide5proto17GetModelsResponseD2Ev to i8*), i8* bitcast (void (%"class.optimization_guide::proto::GetModelsResponse"*)* @_ZN18optimization_guide5proto17GetModelsResponseD0Ev to i8*), i8* bitcast (void (%"class.std::__1::basic_string"*, %"class.optimization_guide::proto::GetModelsResponse"*)* @_ZNK18optimization_guide5proto17GetModelsResponse11GetTypeNameEv to i8*), i8* bitcast (%"class.optimization_guide::proto::GetModelsResponse"* (%"class.optimization_guide::proto::GetModelsResponse"*)* @_ZNK18optimization_guide5proto17GetModelsResponse3NewEv to i8*), i8* bitcast (%"class.optimization_guide::proto::GetModelsResponse"* (%"class.optimization_guide::proto::GetModelsResponse"*, %"class.google::protobuf::Arena"*)* @_ZNK18optimization_guide5proto17GetModelsResponse3NewEPN6google8protobuf5ArenaE to i8*), i8* bitcast (void (%"class.optimization_guide::proto::GetModelsResponse"*)* @_ZN18optimization_guide5proto17GetModelsResponse5ClearEv to i8*), i8* bitcast (i1 (%"class.optimization_guide::proto::GetModelsResponse"*)* @_ZNK18optimization_guide5proto17GetModelsResponse13IsInitializedEv to i8*), i8* bitcast (void (%"class.std::__1::basic_string"*, %"class.google::protobuf::MessageLite"*)* @_ZNK6google8protobuf11MessageLite25InitializationErrorStringEv to i8*), i8* bitcast (void (%"class.optimization_guide::proto::GetModelsResponse"*, %"class.google::protobuf::MessageLite"*)* @_ZN18optimization_guide5proto17GetModelsResponse21CheckTypeAndMergeFromERKN6google8protobuf11MessageLiteE to i8*), i8* bitcast (i64 (%"class.optimization_guide::proto::GetModelsResponse"*)* @_ZNK18optimization_guide5proto17GetModelsResponse12ByteSizeLongEv to i8*), i8* bitcast (i32 (%"class.optimization_guide::proto::GetModelsResponse"*)* @_ZNK18optimization_guide5proto17GetModelsResponse13GetCachedSizeEv to i8*), i8* bitcast (i8* (%"class.optimization_guide::proto::GetModelsResponse"*, i8*, %"class.google::protobuf::internal::ParseContext"*)* @_ZN18optimization_guide5proto17GetModelsResponse14_InternalParseEPKcPN6google8protobuf8internal12ParseContextE to i8*), i8* bitcast (i8* (%"class.optimization_guide::proto::GetModelsResponse"*, i8*, %"class.google::protobuf::io::EpsCopyOutputStream"*)* @_ZNK18optimization_guide5proto17GetModelsResponse18_InternalSerializeEPhPN6google8protobuf2io19EpsCopyOutputStreamE to i8*), i8* bitcast (i8* (%"class.google::protobuf::MessageLite"*)* @_ZNK6google8protobuf11MessageLite16InternalGetTableEv to i8*)] }, align 8
@.str.41 = private unnamed_addr constant [43 x i8] c"optimization_guide.proto.GetModelsResponse\00", align 1
@_ZTVN18optimization_guide5proto15PredictionModelE = hidden unnamed_addr constant { [16 x i8*] } { [16 x i8*] [i8* null, i8* null, i8* bitcast (void (%"class.optimization_guide::proto::PredictionModel"*)* @_ZN18optimization_guide5proto15PredictionModelD2Ev to i8*), i8* bitcast (void (%"class.optimization_guide::proto::PredictionModel"*)* @_ZN18optimization_guide5proto15PredictionModelD0Ev to i8*), i8* bitcast (void (%"class.std::__1::basic_string"*, %"class.optimization_guide::proto::PredictionModel"*)* @_ZNK18optimization_guide5proto15PredictionModel11GetTypeNameEv to i8*), i8* bitcast (%"class.optimization_guide::proto::PredictionModel"* (%"class.optimization_guide::proto::PredictionModel"*)* @_ZNK18optimization_guide5proto15PredictionModel3NewEv to i8*), i8* bitcast (%"class.optimization_guide::proto::PredictionModel"* (%"class.optimization_guide::proto::PredictionModel"*, %"class.google::protobuf::Arena"*)* @_ZNK18optimization_guide5proto15PredictionModel3NewEPN6google8protobuf5ArenaE to i8*), i8* bitcast (void (%"class.optimization_guide::proto::PredictionModel"*)* @_ZN18optimization_guide5proto15PredictionModel5ClearEv to i8*), i8* bitcast (i1 (%"class.optimization_guide::proto::PredictionModel"*)* @_ZNK18optimization_guide5proto15PredictionModel13IsInitializedEv to i8*), i8* bitcast (void (%"class.std::__1::basic_string"*, %"class.google::protobuf::MessageLite"*)* @_ZNK6google8protobuf11MessageLite25InitializationErrorStringEv to i8*), i8* bitcast (void (%"class.optimization_guide::proto::PredictionModel"*, %"class.google::protobuf::MessageLite"*)* @_ZN18optimization_guide5proto15PredictionModel21CheckTypeAndMergeFromERKN6google8protobuf11MessageLiteE to i8*), i8* bitcast (i64 (%"class.optimization_guide::proto::PredictionModel"*)* @_ZNK18optimization_guide5proto15PredictionModel12ByteSizeLongEv to i8*), i8* bitcast (i32 (%"class.optimization_guide::proto::PredictionModel"*)* @_ZNK18optimization_guide5proto15PredictionModel13GetCachedSizeEv to i8*), i8* bitcast (i8* (%"class.optimization_guide::proto::PredictionModel"*, i8*, %"class.google::protobuf::internal::ParseContext"*)* @_ZN18optimization_guide5proto15PredictionModel14_InternalParseEPKcPN6google8protobuf8internal12ParseContextE to i8*), i8* bitcast (i8* (%"class.optimization_guide::proto::PredictionModel"*, i8*, %"class.google::protobuf::io::EpsCopyOutputStream"*)* @_ZNK18optimization_guide5proto15PredictionModel18_InternalSerializeEPhPN6google8protobuf2io19EpsCopyOutputStreamE to i8*), i8* bitcast (i8* (%"class.google::protobuf::MessageLite"*)* @_ZNK6google8protobuf11MessageLite16InternalGetTableEv to i8*)] }, align 8
@.str.44 = private unnamed_addr constant [41 x i8] c"optimization_guide.proto.PredictionModel\00", align 1
@_ZTVN18optimization_guide5proto9ModelInfoE = hidden unnamed_addr constant { [16 x i8*] } { [16 x i8*] [i8* null, i8* null, i8* bitcast (void (%"class.optimization_guide::proto::ModelInfo"*)* @_ZN18optimization_guide5proto9ModelInfoD2Ev to i8*), i8* bitcast (void (%"class.optimization_guide::proto::ModelInfo"*)* @_ZN18optimization_guide5proto9ModelInfoD0Ev to i8*), i8* bitcast (void (%"class.std::__1::basic_string"*, %"class.optimization_guide::proto::ModelInfo"*)* @_ZNK18optimization_guide5proto9ModelInfo11GetTypeNameEv to i8*), i8* bitcast (%"class.optimization_guide::proto::ModelInfo"* (%"class.optimization_guide::proto::ModelInfo"*)* @_ZNK18optimization_guide5proto9ModelInfo3NewEv to i8*), i8* bitcast (%"class.optimization_guide::proto::ModelInfo"* (%"class.optimization_guide::proto::ModelInfo"*, %"class.google::protobuf::Arena"*)* @_ZNK18optimization_guide5proto9ModelInfo3NewEPN6google8protobuf5ArenaE to i8*), i8* bitcast (void (%"class.optimization_guide::proto::ModelInfo"*)* @_ZN18optimization_guide5proto9ModelInfo5ClearEv to i8*), i8* bitcast (i1 (%"class.optimization_guide::proto::ModelInfo"*)* @_ZNK18optimization_guide5proto9ModelInfo13IsInitializedEv to i8*), i8* bitcast (void (%"class.std::__1::basic_string"*, %"class.google::protobuf::MessageLite"*)* @_ZNK6google8protobuf11MessageLite25InitializationErrorStringEv to i8*), i8* bitcast (void (%"class.optimization_guide::proto::ModelInfo"*, %"class.google::protobuf::MessageLite"*)* @_ZN18optimization_guide5proto9ModelInfo21CheckTypeAndMergeFromERKN6google8protobuf11MessageLiteE to i8*), i8* bitcast (i64 (%"class.optimization_guide::proto::ModelInfo"*)* @_ZNK18optimization_guide5proto9ModelInfo12ByteSizeLongEv to i8*), i8* bitcast (i32 (%"class.optimization_guide::proto::ModelInfo"*)* @_ZNK18optimization_guide5proto9ModelInfo13GetCachedSizeEv to i8*), i8* bitcast (i8* (%"class.optimization_guide::proto::ModelInfo"*, i8*, %"class.google::protobuf::internal::ParseContext"*)* @_ZN18optimization_guide5proto9ModelInfo14_InternalParseEPKcPN6google8protobuf8internal12ParseContextE to i8*), i8* bitcast (i8* (%"class.optimization_guide::proto::ModelInfo"*, i8*, %"class.google::protobuf::io::EpsCopyOutputStream"*)* @_ZNK18optimization_guide5proto9ModelInfo18_InternalSerializeEPhPN6google8protobuf2io19EpsCopyOutputStreamE to i8*), i8* bitcast (i8* (%"class.google::protobuf::MessageLite"*)* @_ZNK6google8protobuf11MessageLite16InternalGetTableEv to i8*)] }, align 8
@.str.46 = private unnamed_addr constant [35 x i8] c"optimization_guide.proto.ModelInfo\00", align 1
@_ZTVN18optimization_guide5proto17HostModelFeaturesE = hidden unnamed_addr constant { [16 x i8*] } { [16 x i8*] [i8* null, i8* null, i8* bitcast (void (%"class.optimization_guide::proto::HostModelFeatures"*)* @_ZN18optimization_guide5proto17HostModelFeaturesD2Ev to i8*), i8* bitcast (void (%"class.optimization_guide::proto::HostModelFeatures"*)* @_ZN18optimization_guide5proto17HostModelFeaturesD0Ev to i8*), i8* bitcast (void (%"class.std::__1::basic_string"*, %"class.optimization_guide::proto::HostModelFeatures"*)* @_ZNK18optimization_guide5proto17HostModelFeatures11GetTypeNameEv to i8*), i8* bitcast (%"class.optimization_guide::proto::HostModelFeatures"* (%"class.optimization_guide::proto::HostModelFeatures"*)* @_ZNK18optimization_guide5proto17HostModelFeatures3NewEv to i8*), i8* bitcast (%"class.optimization_guide::proto::HostModelFeatures"* (%"class.optimization_guide::proto::HostModelFeatures"*, %"class.google::protobuf::Arena"*)* @_ZNK18optimization_guide5proto17HostModelFeatures3NewEPN6google8protobuf5ArenaE to i8*), i8* bitcast (void (%"class.optimization_guide::proto::HostModelFeatures"*)* @_ZN18optimization_guide5proto17HostModelFeatures5ClearEv to i8*), i8* bitcast (i1 (%"class.optimization_guide::proto::HostModelFeatures"*)* @_ZNK18optimization_guide5proto17HostModelFeatures13IsInitializedEv to i8*), i8* bitcast (void (%"class.std::__1::basic_string"*, %"class.google::protobuf::MessageLite"*)* @_ZNK6google8protobuf11MessageLite25InitializationErrorStringEv to i8*), i8* bitcast (void (%"class.optimization_guide::proto::HostModelFeatures"*, %"class.google::protobuf::MessageLite"*)* @_ZN18optimization_guide5proto17HostModelFeatures21CheckTypeAndMergeFromERKN6google8protobuf11MessageLiteE to i8*), i8* bitcast (i64 (%"class.optimization_guide::proto::HostModelFeatures"*)* @_ZNK18optimization_guide5proto17HostModelFeatures12ByteSizeLongEv to i8*), i8* bitcast (i32 (%"class.optimization_guide::proto::HostModelFeatures"*)* @_ZNK18optimization_guide5proto17HostModelFeatures13GetCachedSizeEv to i8*), i8* bitcast (i8* (%"class.optimization_guide::proto::HostModelFeatures"*, i8*, %"class.google::protobuf::internal::ParseContext"*)* @_ZN18optimization_guide5proto17HostModelFeatures14_InternalParseEPKcPN6google8protobuf8internal12ParseContextE to i8*), i8* bitcast (i8* (%"class.optimization_guide::proto::HostModelFeatures"*, i8*, %"class.google::protobuf::io::EpsCopyOutputStream"*)* @_ZNK18optimization_guide5proto17HostModelFeatures18_InternalSerializeEPhPN6google8protobuf2io19EpsCopyOutputStreamE to i8*), i8* bitcast (i8* (%"class.google::protobuf::MessageLite"*)* @_ZNK6google8protobuf11MessageLite16InternalGetTableEv to i8*)] }, align 8
@.str.47 = private unnamed_addr constant [43 x i8] c"optimization_guide.proto.HostModelFeatures\00", align 1
@_ZTVN18optimization_guide5proto12ModelFeatureE = hidden unnamed_addr constant { [16 x i8*] } { [16 x i8*] [i8* null, i8* null, i8* bitcast (void (%"class.optimization_guide::proto::ModelFeature"*)* @_ZN18optimization_guide5proto12ModelFeatureD2Ev to i8*), i8* bitcast (void (%"class.optimization_guide::proto::ModelFeature"*)* @_ZN18optimization_guide5proto12ModelFeatureD0Ev to i8*), i8* bitcast (void (%"class.std::__1::basic_string"*, %"class.optimization_guide::proto::ModelFeature"*)* @_ZNK18optimization_guide5proto12ModelFeature11GetTypeNameEv to i8*), i8* bitcast (%"class.optimization_guide::proto::ModelFeature"* (%"class.optimization_guide::proto::ModelFeature"*)* @_ZNK18optimization_guide5proto12ModelFeature3NewEv to i8*), i8* bitcast (%"class.optimization_guide::proto::ModelFeature"* (%"class.optimization_guide::proto::ModelFeature"*, %"class.google::protobuf::Arena"*)* @_ZNK18optimization_guide5proto12ModelFeature3NewEPN6google8protobuf5ArenaE to i8*), i8* bitcast (void (%"class.optimization_guide::proto::ModelFeature"*)* @_ZN18optimization_guide5proto12ModelFeature5ClearEv to i8*), i8* bitcast (i1 (%"class.optimization_guide::proto::ModelFeature"*)* @_ZNK18optimization_guide5proto12ModelFeature13IsInitializedEv to i8*), i8* bitcast (void (%"class.std::__1::basic_string"*, %"class.google::protobuf::MessageLite"*)* @_ZNK6google8protobuf11MessageLite25InitializationErrorStringEv to i8*), i8* bitcast (void (%"class.optimization_guide::proto::ModelFeature"*, %"class.google::protobuf::MessageLite"*)* @_ZN18optimization_guide5proto12ModelFeature21CheckTypeAndMergeFromERKN6google8protobuf11MessageLiteE to i8*), i8* bitcast (i64 (%"class.optimization_guide::proto::ModelFeature"*)* @_ZNK18optimization_guide5proto12ModelFeature12ByteSizeLongEv to i8*), i8* bitcast (i32 (%"class.optimization_guide::proto::ModelFeature"*)* @_ZNK18optimization_guide5proto12ModelFeature13GetCachedSizeEv to i8*), i8* bitcast (i8* (%"class.optimization_guide::proto::ModelFeature"*, i8*, %"class.google::protobuf::internal::ParseContext"*)* @_ZN18optimization_guide5proto12ModelFeature14_InternalParseEPKcPN6google8protobuf8internal12ParseContextE to i8*), i8* bitcast (i8* (%"class.optimization_guide::proto::ModelFeature"*, i8*, %"class.google::protobuf::io::EpsCopyOutputStream"*)* @_ZNK18optimization_guide5proto12ModelFeature18_InternalSerializeEPhPN6google8protobuf2io19EpsCopyOutputStreamE to i8*), i8* bitcast (i8* (%"class.google::protobuf::MessageLite"*)* @_ZNK6google8protobuf11MessageLite16InternalGetTableEv to i8*)] }, align 8
@.str.48 = private unnamed_addr constant [38 x i8] c"optimization_guide.proto.ModelFeature\00", align 1
@_ZN6google8protobuf8internal26fixed_address_empty_stringE = external global %"class.google::protobuf::internal::ExplicitlyConstructed.24", align 8
@_ZN18optimization_guide5proto22_Any_default_instance_E = external global %"class.optimization_guide::proto::AnyDefaultTypeInternal", align 1
@.str.74 = private unnamed_addr constant [25 x i8] c"size_t to int conversion\00", align 1
@__const._ZN6google8protobuf8internal9ExpectTagILj802EEEbPKc.buf = private unnamed_addr constant [2 x i8] c"\A2\06", align 1
@llvm.global_ctors = appending global [0 x { i32, void ()*, i8* }] zeroinitializer

@_ZN18optimization_guide5proto5ModelC1EPN6google8protobuf5ArenaE = hidden unnamed_addr alias void (%"class.optimization_guide::proto::Model"*, %"class.google::protobuf::Arena"*), void (%"class.optimization_guide::proto::Model"*, %"class.google::protobuf::Arena"*)* @_ZN18optimization_guide5proto5ModelC2EPN6google8protobuf5ArenaE
@_ZN18optimization_guide5proto5ModelC1ERKS1_ = hidden unnamed_addr alias void (%"class.optimization_guide::proto::Model"*, %"class.optimization_guide::proto::Model"*), void (%"class.optimization_guide::proto::Model"*, %"class.optimization_guide::proto::Model"*)* @_ZN18optimization_guide5proto5ModelC2ERKS1_
@_ZN18optimization_guide5proto5ModelD1Ev = hidden unnamed_addr alias void (%"class.optimization_guide::proto::Model"*), void (%"class.optimization_guide::proto::Model"*)* @_ZN18optimization_guide5proto5ModelD2Ev
@_ZN18optimization_guide5proto15Ensemble_MemberC1EPN6google8protobuf5ArenaE = hidden unnamed_addr alias void (%"class.optimization_guide::proto::Ensemble_Member"*, %"class.google::protobuf::Arena"*), void (%"class.optimization_guide::proto::Ensemble_Member"*, %"class.google::protobuf::Arena"*)* @_ZN18optimization_guide5proto15Ensemble_MemberC2EPN6google8protobuf5ArenaE
@_ZN18optimization_guide5proto15Ensemble_MemberC1ERKS1_ = hidden unnamed_addr alias void (%"class.optimization_guide::proto::Ensemble_Member"*, %"class.optimization_guide::proto::Ensemble_Member"*), void (%"class.optimization_guide::proto::Ensemble_Member"*, %"class.optimization_guide::proto::Ensemble_Member"*)* @_ZN18optimization_guide5proto15Ensemble_MemberC2ERKS1_
@_ZN18optimization_guide5proto15Ensemble_MemberD1Ev = hidden unnamed_addr alias void (%"class.optimization_guide::proto::Ensemble_Member"*), void (%"class.optimization_guide::proto::Ensemble_Member"*)* @_ZN18optimization_guide5proto15Ensemble_MemberD2Ev
@_ZN18optimization_guide5proto8EnsembleC1EPN6google8protobuf5ArenaE = hidden unnamed_addr alias void (%"class.optimization_guide::proto::Ensemble"*, %"class.google::protobuf::Arena"*), void (%"class.optimization_guide::proto::Ensemble"*, %"class.google::protobuf::Arena"*)* @_ZN18optimization_guide5proto8EnsembleC2EPN6google8protobuf5ArenaE
@_ZN18optimization_guide5proto8EnsembleC1ERKS1_ = hidden unnamed_addr alias void (%"class.optimization_guide::proto::Ensemble"*, %"class.optimization_guide::proto::Ensemble"*), void (%"class.optimization_guide::proto::Ensemble"*, %"class.optimization_guide::proto::Ensemble"*)* @_ZN18optimization_guide5proto8EnsembleC2ERKS1_
@_ZN18optimization_guide5proto8EnsembleD1Ev = hidden unnamed_addr alias void (%"class.optimization_guide::proto::Ensemble"*), void (%"class.optimization_guide::proto::Ensemble"*)* @_ZN18optimization_guide5proto8EnsembleD2Ev
@_ZN18optimization_guide5proto12DecisionTreeC1EPN6google8protobuf5ArenaE = hidden unnamed_addr alias void (%"class.optimization_guide::proto::DecisionTree"*, %"class.google::protobuf::Arena"*), void (%"class.optimization_guide::proto::DecisionTree"*, %"class.google::protobuf::Arena"*)* @_ZN18optimization_guide5proto12DecisionTreeC2EPN6google8protobuf5ArenaE
@_ZN18optimization_guide5proto12DecisionTreeC1ERKS1_ = hidden unnamed_addr alias void (%"class.optimization_guide::proto::DecisionTree"*, %"class.optimization_guide::proto::DecisionTree"*), void (%"class.optimization_guide::proto::DecisionTree"*, %"class.optimization_guide::proto::DecisionTree"*)* @_ZN18optimization_guide5proto12DecisionTreeC2ERKS1_
@_ZN18optimization_guide5proto12DecisionTreeD1Ev = hidden unnamed_addr alias void (%"class.optimization_guide::proto::DecisionTree"*), void (%"class.optimization_guide::proto::DecisionTree"*)* @_ZN18optimization_guide5proto12DecisionTreeD2Ev
@_ZN18optimization_guide5proto8TreeNodeC1EPN6google8protobuf5ArenaE = hidden unnamed_addr alias void (%"class.optimization_guide::proto::TreeNode"*, %"class.google::protobuf::Arena"*), void (%"class.optimization_guide::proto::TreeNode"*, %"class.google::protobuf::Arena"*)* @_ZN18optimization_guide5proto8TreeNodeC2EPN6google8protobuf5ArenaE
@_ZN18optimization_guide5proto8TreeNodeC1ERKS1_ = hidden unnamed_addr alias void (%"class.optimization_guide::proto::TreeNode"*, %"class.optimization_guide::proto::TreeNode"*), void (%"class.optimization_guide::proto::TreeNode"*, %"class.optimization_guide::proto::TreeNode"*)* @_ZN18optimization_guide5proto8TreeNodeC2ERKS1_
@_ZN18optimization_guide5proto8TreeNodeD1Ev = hidden unnamed_addr alias void (%"class.optimization_guide::proto::TreeNode"*), void (%"class.optimization_guide::proto::TreeNode"*)* @_ZN18optimization_guide5proto8TreeNodeD2Ev
@_ZN18optimization_guide5proto10BinaryNodeC1EPN6google8protobuf5ArenaE = hidden unnamed_addr alias void (%"class.optimization_guide::proto::BinaryNode"*, %"class.google::protobuf::Arena"*), void (%"class.optimization_guide::proto::BinaryNode"*, %"class.google::protobuf::Arena"*)* @_ZN18optimization_guide5proto10BinaryNodeC2EPN6google8protobuf5ArenaE
@_ZN18optimization_guide5proto10BinaryNodeC1ERKS1_ = hidden unnamed_addr alias void (%"class.optimization_guide::proto::BinaryNode"*, %"class.optimization_guide::proto::BinaryNode"*), void (%"class.optimization_guide::proto::BinaryNode"*, %"class.optimization_guide::proto::BinaryNode"*)* @_ZN18optimization_guide5proto10BinaryNodeC2ERKS1_
@_ZN18optimization_guide5proto10BinaryNodeD1Ev = hidden unnamed_addr alias void (%"class.optimization_guide::proto::BinaryNode"*), void (%"class.optimization_guide::proto::BinaryNode"*)* @_ZN18optimization_guide5proto10BinaryNodeD2Ev
@_ZN18optimization_guide5proto6VectorC1EPN6google8protobuf5ArenaE = hidden unnamed_addr alias void (%"class.optimization_guide::proto::Vector"*, %"class.google::protobuf::Arena"*), void (%"class.optimization_guide::proto::Vector"*, %"class.google::protobuf::Arena"*)* @_ZN18optimization_guide5proto6VectorC2EPN6google8protobuf5ArenaE
@_ZN18optimization_guide5proto6VectorC1ERKS1_ = hidden unnamed_addr alias void (%"class.optimization_guide::proto::Vector"*, %"class.optimization_guide::proto::Vector"*), void (%"class.optimization_guide::proto::Vector"*, %"class.optimization_guide::proto::Vector"*)* @_ZN18optimization_guide5proto6VectorC2ERKS1_
@_ZN18optimization_guide5proto6VectorD1Ev = hidden unnamed_addr alias void (%"class.optimization_guide::proto::Vector"*), void (%"class.optimization_guide::proto::Vector"*)* @_ZN18optimization_guide5proto6VectorD2Ev
@_ZN18optimization_guide5proto4LeafC1EPN6google8protobuf5ArenaE = hidden unnamed_addr alias void (%"class.optimization_guide::proto::Leaf"*, %"class.google::protobuf::Arena"*), void (%"class.optimization_guide::proto::Leaf"*, %"class.google::protobuf::Arena"*)* @_ZN18optimization_guide5proto4LeafC2EPN6google8protobuf5ArenaE
@_ZN18optimization_guide5proto4LeafC1ERKS1_ = hidden unnamed_addr alias void (%"class.optimization_guide::proto::Leaf"*, %"class.optimization_guide::proto::Leaf"*), void (%"class.optimization_guide::proto::Leaf"*, %"class.optimization_guide::proto::Leaf"*)* @_ZN18optimization_guide5proto4LeafC2ERKS1_
@_ZN18optimization_guide5proto4LeafD1Ev = hidden unnamed_addr alias void (%"class.optimization_guide::proto::Leaf"*), void (%"class.optimization_guide::proto::Leaf"*)* @_ZN18optimization_guide5proto4LeafD2Ev
@_ZN18optimization_guide5proto9FeatureIdC1EPN6google8protobuf5ArenaE = hidden unnamed_addr alias void (%"class.optimization_guide::proto::FeatureId"*, %"class.google::protobuf::Arena"*), void (%"class.optimization_guide::proto::FeatureId"*, %"class.google::protobuf::Arena"*)* @_ZN18optimization_guide5proto9FeatureIdC2EPN6google8protobuf5ArenaE
@_ZN18optimization_guide5proto9FeatureIdC1ERKS1_ = hidden unnamed_addr alias void (%"class.optimization_guide::proto::FeatureId"*, %"class.optimization_guide::proto::FeatureId"*), void (%"class.optimization_guide::proto::FeatureId"*, %"class.optimization_guide::proto::FeatureId"*)* @_ZN18optimization_guide5proto9FeatureIdC2ERKS1_
@_ZN18optimization_guide5proto9FeatureIdD1Ev = hidden unnamed_addr alias void (%"class.optimization_guide::proto::FeatureId"*), void (%"class.optimization_guide::proto::FeatureId"*)* @_ZN18optimization_guide5proto9FeatureIdD2Ev
@_ZN18optimization_guide5proto14InequalityTestC1EPN6google8protobuf5ArenaE = hidden unnamed_addr alias void (%"class.optimization_guide::proto::InequalityTest"*, %"class.google::protobuf::Arena"*), void (%"class.optimization_guide::proto::InequalityTest"*, %"class.google::protobuf::Arena"*)* @_ZN18optimization_guide5proto14InequalityTestC2EPN6google8protobuf5ArenaE
@_ZN18optimization_guide5proto14InequalityTestC1ERKS1_ = hidden unnamed_addr alias void (%"class.optimization_guide::proto::InequalityTest"*, %"class.optimization_guide::proto::InequalityTest"*), void (%"class.optimization_guide::proto::InequalityTest"*, %"class.optimization_guide::proto::InequalityTest"*)* @_ZN18optimization_guide5proto14InequalityTestC2ERKS1_
@_ZN18optimization_guide5proto14InequalityTestD1Ev = hidden unnamed_addr alias void (%"class.optimization_guide::proto::InequalityTest"*), void (%"class.optimization_guide::proto::InequalityTest"*)* @_ZN18optimization_guide5proto14InequalityTestD2Ev
@_ZN18optimization_guide5proto5ValueC1EPN6google8protobuf5ArenaE = hidden unnamed_addr alias void (%"class.optimization_guide::proto::Value"*, %"class.google::protobuf::Arena"*), void (%"class.optimization_guide::proto::Value"*, %"class.google::protobuf::Arena"*)* @_ZN18optimization_guide5proto5ValueC2EPN6google8protobuf5ArenaE
@_ZN18optimization_guide5proto5ValueC1ERKS1_ = hidden unnamed_addr alias void (%"class.optimization_guide::proto::Value"*, %"class.optimization_guide::proto::Value"*), void (%"class.optimization_guide::proto::Value"*, %"class.optimization_guide::proto::Value"*)* @_ZN18optimization_guide5proto5ValueC2ERKS1_
@_ZN18optimization_guide5proto5ValueD1Ev = hidden unnamed_addr alias void (%"class.optimization_guide::proto::Value"*), void (%"class.optimization_guide::proto::Value"*)* @_ZN18optimization_guide5proto5ValueD2Ev
@_ZN18optimization_guide5proto10Int32ValueC1EPN6google8protobuf5ArenaE = hidden unnamed_addr alias void (%"class.optimization_guide::proto::Int32Value"*, %"class.google::protobuf::Arena"*), void (%"class.optimization_guide::proto::Int32Value"*, %"class.google::protobuf::Arena"*)* @_ZN18optimization_guide5proto10Int32ValueC2EPN6google8protobuf5ArenaE
@_ZN18optimization_guide5proto10Int32ValueC1ERKS1_ = hidden unnamed_addr alias void (%"class.optimization_guide::proto::Int32Value"*, %"class.optimization_guide::proto::Int32Value"*), void (%"class.optimization_guide::proto::Int32Value"*, %"class.optimization_guide::proto::Int32Value"*)* @_ZN18optimization_guide5proto10Int32ValueC2ERKS1_
@_ZN18optimization_guide5proto10Int32ValueD1Ev = hidden unnamed_addr alias void (%"class.optimization_guide::proto::Int32Value"*), void (%"class.optimization_guide::proto::Int32Value"*)* @_ZN18optimization_guide5proto10Int32ValueD2Ev
@_ZN18optimization_guide5proto11StringValueC1EPN6google8protobuf5ArenaE = hidden unnamed_addr alias void (%"class.optimization_guide::proto::StringValue"*, %"class.google::protobuf::Arena"*), void (%"class.optimization_guide::proto::StringValue"*, %"class.google::protobuf::Arena"*)* @_ZN18optimization_guide5proto11StringValueC2EPN6google8protobuf5ArenaE
@_ZN18optimization_guide5proto11StringValueC1ERKS1_ = hidden unnamed_addr alias void (%"class.optimization_guide::proto::StringValue"*, %"class.optimization_guide::proto::StringValue"*), void (%"class.optimization_guide::proto::StringValue"*, %"class.optimization_guide::proto::StringValue"*)* @_ZN18optimization_guide5proto11StringValueC2ERKS1_
@_ZN18optimization_guide5proto11StringValueD1Ev = hidden unnamed_addr alias void (%"class.optimization_guide::proto::StringValue"*), void (%"class.optimization_guide::proto::StringValue"*)* @_ZN18optimization_guide5proto11StringValueD2Ev
@_ZN18optimization_guide5proto11DoubleValueC1EPN6google8protobuf5ArenaE = hidden unnamed_addr alias void (%"class.optimization_guide::proto::DoubleValue"*, %"class.google::protobuf::Arena"*), void (%"class.optimization_guide::proto::DoubleValue"*, %"class.google::protobuf::Arena"*)* @_ZN18optimization_guide5proto11DoubleValueC2EPN6google8protobuf5ArenaE
@_ZN18optimization_guide5proto11DoubleValueC1ERKS1_ = hidden unnamed_addr alias void (%"class.optimization_guide::proto::DoubleValue"*, %"class.optimization_guide::proto::DoubleValue"*), void (%"class.optimization_guide::proto::DoubleValue"*, %"class.optimization_guide::proto::DoubleValue"*)* @_ZN18optimization_guide5proto11DoubleValueC2ERKS1_
@_ZN18optimization_guide5proto11DoubleValueD1Ev = hidden unnamed_addr alias void (%"class.optimization_guide::proto::DoubleValue"*), void (%"class.optimization_guide::proto::DoubleValue"*)* @_ZN18optimization_guide5proto11DoubleValueD2Ev
@_ZN18optimization_guide5proto16GetModelsRequestC1EPN6google8protobuf5ArenaE = hidden unnamed_addr alias void (%"class.optimization_guide::proto::GetModelsRequest"*, %"class.google::protobuf::Arena"*), void (%"class.optimization_guide::proto::GetModelsRequest"*, %"class.google::protobuf::Arena"*)* @_ZN18optimization_guide5proto16GetModelsRequestC2EPN6google8protobuf5ArenaE
@_ZN18optimization_guide5proto16GetModelsRequestC1ERKS1_ = hidden unnamed_addr alias void (%"class.optimization_guide::proto::GetModelsRequest"*, %"class.optimization_guide::proto::GetModelsRequest"*), void (%"class.optimization_guide::proto::GetModelsRequest"*, %"class.optimization_guide::proto::GetModelsRequest"*)* @_ZN18optimization_guide5proto16GetModelsRequestC2ERKS1_
@_ZN18optimization_guide5proto16GetModelsRequestD1Ev = hidden unnamed_addr alias void (%"class.optimization_guide::proto::GetModelsRequest"*), void (%"class.optimization_guide::proto::GetModelsRequest"*)* @_ZN18optimization_guide5proto16GetModelsRequestD2Ev
@_ZN18optimization_guide5proto17GetModelsResponseC1EPN6google8protobuf5ArenaE = hidden unnamed_addr alias void (%"class.optimization_guide::proto::GetModelsResponse"*, %"class.google::protobuf::Arena"*), void (%"class.optimization_guide::proto::GetModelsResponse"*, %"class.google::protobuf::Arena"*)* @_ZN18optimization_guide5proto17GetModelsResponseC2EPN6google8protobuf5ArenaE
@_ZN18optimization_guide5proto17GetModelsResponseC1ERKS1_ = hidden unnamed_addr alias void (%"class.optimization_guide::proto::GetModelsResponse"*, %"class.optimization_guide::proto::GetModelsResponse"*), void (%"class.optimization_guide::proto::GetModelsResponse"*, %"class.optimization_guide::proto::GetModelsResponse"*)* @_ZN18optimization_guide5proto17GetModelsResponseC2ERKS1_
@_ZN18optimization_guide5proto17GetModelsResponseD1Ev = hidden unnamed_addr alias void (%"class.optimization_guide::proto::GetModelsResponse"*), void (%"class.optimization_guide::proto::GetModelsResponse"*)* @_ZN18optimization_guide5proto17GetModelsResponseD2Ev
@_ZN18optimization_guide5proto15PredictionModelC1EPN6google8protobuf5ArenaE = hidden unnamed_addr alias void (%"class.optimization_guide::proto::PredictionModel"*, %"class.google::protobuf::Arena"*), void (%"class.optimization_guide::proto::PredictionModel"*, %"class.google::protobuf::Arena"*)* @_ZN18optimization_guide5proto15PredictionModelC2EPN6google8protobuf5ArenaE
@_ZN18optimization_guide5proto15PredictionModelC1ERKS1_ = hidden unnamed_addr alias void (%"class.optimization_guide::proto::PredictionModel"*, %"class.optimization_guide::proto::PredictionModel"*), void (%"class.optimization_guide::proto::PredictionModel"*, %"class.optimization_guide::proto::PredictionModel"*)* @_ZN18optimization_guide5proto15PredictionModelC2ERKS1_
@_ZN18optimization_guide5proto15PredictionModelD1Ev = hidden unnamed_addr alias void (%"class.optimization_guide::proto::PredictionModel"*), void (%"class.optimization_guide::proto::PredictionModel"*)* @_ZN18optimization_guide5proto15PredictionModelD2Ev
@_ZN18optimization_guide5proto9ModelInfoC1EPN6google8protobuf5ArenaE = hidden unnamed_addr alias void (%"class.optimization_guide::proto::ModelInfo"*, %"class.google::protobuf::Arena"*), void (%"class.optimization_guide::proto::ModelInfo"*, %"class.google::protobuf::Arena"*)* @_ZN18optimization_guide5proto9ModelInfoC2EPN6google8protobuf5ArenaE
@_ZN18optimization_guide5proto9ModelInfoC1ERKS1_ = hidden unnamed_addr alias void (%"class.optimization_guide::proto::ModelInfo"*, %"class.optimization_guide::proto::ModelInfo"*), void (%"class.optimization_guide::proto::ModelInfo"*, %"class.optimization_guide::proto::ModelInfo"*)* @_ZN18optimization_guide5proto9ModelInfoC2ERKS1_
@_ZN18optimization_guide5proto9ModelInfoD1Ev = hidden unnamed_addr alias void (%"class.optimization_guide::proto::ModelInfo"*), void (%"class.optimization_guide::proto::ModelInfo"*)* @_ZN18optimization_guide5proto9ModelInfoD2Ev
@_ZN18optimization_guide5proto17HostModelFeaturesC1EPN6google8protobuf5ArenaE = hidden unnamed_addr alias void (%"class.optimization_guide::proto::HostModelFeatures"*, %"class.google::protobuf::Arena"*), void (%"class.optimization_guide::proto::HostModelFeatures"*, %"class.google::protobuf::Arena"*)* @_ZN18optimization_guide5proto17HostModelFeaturesC2EPN6google8protobuf5ArenaE
@_ZN18optimization_guide5proto17HostModelFeaturesC1ERKS1_ = hidden unnamed_addr alias void (%"class.optimization_guide::proto::HostModelFeatures"*, %"class.optimization_guide::proto::HostModelFeatures"*), void (%"class.optimization_guide::proto::HostModelFeatures"*, %"class.optimization_guide::proto::HostModelFeatures"*)* @_ZN18optimization_guide5proto17HostModelFeaturesC2ERKS1_
@_ZN18optimization_guide5proto17HostModelFeaturesD1Ev = hidden unnamed_addr alias void (%"class.optimization_guide::proto::HostModelFeatures"*), void (%"class.optimization_guide::proto::HostModelFeatures"*)* @_ZN18optimization_guide5proto17HostModelFeaturesD2Ev
@_ZN18optimization_guide5proto12ModelFeatureC1EPN6google8protobuf5ArenaE = hidden unnamed_addr alias void (%"class.optimization_guide::proto::ModelFeature"*, %"class.google::protobuf::Arena"*), void (%"class.optimization_guide::proto::ModelFeature"*, %"class.google::protobuf::Arena"*)* @_ZN18optimization_guide5proto12ModelFeatureC2EPN6google8protobuf5ArenaE
@_ZN18optimization_guide5proto12ModelFeatureC1ERKS1_ = hidden unnamed_addr alias void (%"class.optimization_guide::proto::ModelFeature"*, %"class.optimization_guide::proto::ModelFeature"*), void (%"class.optimization_guide::proto::ModelFeature"*, %"class.optimization_guide::proto::ModelFeature"*)* @_ZN18optimization_guide5proto12ModelFeatureC2ERKS1_
@_ZN18optimization_guide5proto12ModelFeatureD1Ev = hidden unnamed_addr alias void (%"class.optimization_guide::proto::ModelFeature"*), void (%"class.optimization_guide::proto::ModelFeature"*)* @_ZN18optimization_guide5proto12ModelFeatureD2Ev

; Function Attrs: nounwind ssp uwtable
define internal void @_ZL90InitDefaultsscc_info_BinaryNode_components_2foptimization_5fguide_2fproto_2fmodels_2eprotov() #0 {
  tail call void @_ZN6google8protobuf8internal13VerifyVersionEiiPKc(i32 3013000, i32 3013000, i8* getelementptr inbounds ([53 x i8], [53 x i8]* @.str, i64 0, i64 0)) #13
  store %"class.google::protobuf::Arena"* null, %"class.google::protobuf::Arena"** bitcast (i8* getelementptr inbounds (%"class.optimization_guide::proto::BinaryNodeDefaultTypeInternal", %"class.optimization_guide::proto::BinaryNodeDefaultTypeInternal"* @_ZN18optimization_guide5proto29_BinaryNode_default_instance_E, i64 0, i32 0, i32 0, i32 1, i64 0) to %"class.google::protobuf::Arena"**), align 8
  store i32 (...)** bitcast (i8** getelementptr inbounds ({ [16 x i8*] }, { [16 x i8*] }* @_ZTVN18optimization_guide5proto10BinaryNodeE, i64 0, inrange i32 0, i64 2) to i32 (...)**), i32 (...)*** bitcast (%"class.optimization_guide::proto::BinaryNodeDefaultTypeInternal"* @_ZN18optimization_guide5proto29_BinaryNode_default_instance_E to i32 (...)***), align 8
  store i32 0, i32* bitcast (i8* getelementptr inbounds (%"class.optimization_guide::proto::BinaryNodeDefaultTypeInternal", %"class.optimization_guide::proto::BinaryNodeDefaultTypeInternal"* @_ZN18optimization_guide5proto29_BinaryNode_default_instance_E, i64 0, i32 0, i32 0, i32 1, i64 8) to i32*), align 8
  store i32 0, i32* bitcast (i8* getelementptr inbounds (%"class.optimization_guide::proto::BinaryNodeDefaultTypeInternal", %"class.optimization_guide::proto::BinaryNodeDefaultTypeInternal"* @_ZN18optimization_guide5proto29_BinaryNode_default_instance_E, i64 0, i32 0, i32 0, i32 1, i64 12) to i32*), align 4
  %1 = load atomic i32, i32* getelementptr inbounds ({ { { { i32 } }, i32, i32, void ()* }, [2 x i8*] }, { { { { i32 } }, i32, i32, void ()* }, [2 x i8*] }* @scc_info_BinaryNode_components_2foptimization_5fguide_2fproto_2fmodels_2eproto, i64 0, i32 0, i32 0, i32 0, i32 0) acquire, align 8
  %2 = icmp eq i32 %1, 0
  br i1 %2, label %4, label %3, !prof !2

3:                                                ; preds = %0
  tail call void @_ZN6google8protobuf8internal11InitSCCImplEPNS1_11SCCInfoBaseE(%"struct.google::protobuf::internal::SCCInfoBase"* bitcast ({ { { { i32 } }, i32, i32, void ()* }, [2 x i8*] }* @scc_info_BinaryNode_components_2foptimization_5fguide_2fproto_2fmodels_2eproto to %"struct.google::protobuf::internal::SCCInfoBase"*)) #13
  br label %4

4:                                                ; preds = %0, %3
  tail call void @llvm.memset.p0i8.i64(i8* align 8 getelementptr inbounds (%"class.optimization_guide::proto::BinaryNodeDefaultTypeInternal", %"class.optimization_guide::proto::BinaryNodeDefaultTypeInternal"* @_ZN18optimization_guide5proto29_BinaryNode_default_instance_E, i64 0, i32 0, i32 0, i32 1, i64 16), i8 0, i64 24, i1 false) #13
  tail call void @_ZN6google8protobuf8internal13OnShutdownRunEPFvPKvES3_(void (i8*)* nonnull @_ZN6google8protobuf8internal14DestroyMessageEPKv, i8* bitcast (%"class.optimization_guide::proto::BinaryNodeDefaultTypeInternal"* @_ZN18optimization_guide5proto29_BinaryNode_default_instance_E to i8*)) #13
  ret void
}

; Function Attrs: nounwind ssp uwtable
define internal void @_ZL92InitDefaultsscc_info_DecisionTree_components_2foptimization_5fguide_2fproto_2fmodels_2eprotov() #0 {
  tail call void @_ZN6google8protobuf8internal13VerifyVersionEiiPKc(i32 3013000, i32 3013000, i8* getelementptr inbounds ([53 x i8], [53 x i8]* @.str, i64 0, i64 0)) #13
  store %"class.google::protobuf::Arena"* null, %"class.google::protobuf::Arena"** bitcast (i8* getelementptr inbounds (%"class.optimization_guide::proto::DecisionTreeDefaultTypeInternal", %"class.optimization_guide::proto::DecisionTreeDefaultTypeInternal"* @_ZN18optimization_guide5proto31_DecisionTree_default_instance_E, i64 0, i32 0, i32 0, i32 1, i64 0) to %"class.google::protobuf::Arena"**), align 8
  store i32 (...)** bitcast (i8** getelementptr inbounds ({ [16 x i8*] }, { [16 x i8*] }* @_ZTVN18optimization_guide5proto12DecisionTreeE, i64 0, inrange i32 0, i64 2) to i32 (...)**), i32 (...)*** bitcast (%"class.optimization_guide::proto::DecisionTreeDefaultTypeInternal"* @_ZN18optimization_guide5proto31_DecisionTree_default_instance_E to i32 (...)***), align 8
  tail call void @llvm.memset.p0i8.i64(i8* align 8 getelementptr inbounds (%"class.optimization_guide::proto::DecisionTreeDefaultTypeInternal", %"class.optimization_guide::proto::DecisionTreeDefaultTypeInternal"* @_ZN18optimization_guide5proto31_DecisionTree_default_instance_E, i64 0, i32 0, i32 0, i32 1, i64 8), i8 0, i64 32, i1 false) #13
  %1 = load atomic i32, i32* getelementptr inbounds ({ { { { i32 } }, i32, i32, void ()* }, [1 x i8*] }, { { { { i32 } }, i32, i32, void ()* }, [1 x i8*] }* @scc_info_DecisionTree_components_2foptimization_5fguide_2fproto_2fmodels_2eproto, i64 0, i32 0, i32 0, i32 0, i32 0) acquire, align 8
  %2 = icmp eq i32 %1, 0
  br i1 %2, label %4, label %3, !prof !2

3:                                                ; preds = %0
  tail call void @_ZN6google8protobuf8internal11InitSCCImplEPNS1_11SCCInfoBaseE(%"struct.google::protobuf::internal::SCCInfoBase"* bitcast ({ { { { i32 } }, i32, i32, void ()* }, [1 x i8*] }* @scc_info_DecisionTree_components_2foptimization_5fguide_2fproto_2fmodels_2eproto to %"struct.google::protobuf::internal::SCCInfoBase"*)) #13
  br label %4

4:                                                ; preds = %0, %3
  store float 0.000000e+00, float* bitcast (i8* getelementptr inbounds (%"class.optimization_guide::proto::DecisionTreeDefaultTypeInternal", %"class.optimization_guide::proto::DecisionTreeDefaultTypeInternal"* @_ZN18optimization_guide5proto31_DecisionTree_default_instance_E, i64 0, i32 0, i32 0, i32 1, i64 40) to float*), align 8
  tail call void @_ZN6google8protobuf8internal13OnShutdownRunEPFvPKvES3_(void (i8*)* nonnull @_ZN6google8protobuf8internal14DestroyMessageEPKv, i8* bitcast (%"class.optimization_guide::proto::DecisionTreeDefaultTypeInternal"* @_ZN18optimization_guide5proto31_DecisionTree_default_instance_E to i8*)) #13
  ret void
}

; Function Attrs: nounwind ssp uwtable
define internal void @_ZL91InitDefaultsscc_info_DoubleValue_components_2foptimization_5fguide_2fproto_2fmodels_2eprotov() #0 {
  tail call void @_ZN6google8protobuf8internal13VerifyVersionEiiPKc(i32 3013000, i32 3013000, i8* getelementptr inbounds ([53 x i8], [53 x i8]* @.str, i64 0, i64 0)) #13
  store %"class.google::protobuf::Arena"* null, %"class.google::protobuf::Arena"** bitcast (i8* getelementptr inbounds (%"class.optimization_guide::proto::DoubleValueDefaultTypeInternal", %"class.optimization_guide::proto::DoubleValueDefaultTypeInternal"* @_ZN18optimization_guide5proto30_DoubleValue_default_instance_E, i64 0, i32 0, i32 0, i32 1, i64 0) to %"class.google::protobuf::Arena"**), align 8
  store i32 (...)** bitcast (i8** getelementptr inbounds ({ [16 x i8*] }, { [16 x i8*] }* @_ZTVN18optimization_guide5proto11DoubleValueE, i64 0, inrange i32 0, i64 2) to i32 (...)**), i32 (...)*** bitcast (%"class.optimization_guide::proto::DoubleValueDefaultTypeInternal"* @_ZN18optimization_guide5proto30_DoubleValue_default_instance_E to i32 (...)***), align 8
  tail call void @llvm.memset.p0i8.i64(i8* align 8 getelementptr inbounds (%"class.optimization_guide::proto::DoubleValueDefaultTypeInternal", %"class.optimization_guide::proto::DoubleValueDefaultTypeInternal"* @_ZN18optimization_guide5proto30_DoubleValue_default_instance_E, i64 0, i32 0, i32 0, i32 1, i64 8), i8 0, i64 16, i1 false) #13
  tail call void @_ZN6google8protobuf8internal13OnShutdownRunEPFvPKvES3_(void (i8*)* nonnull @_ZN6google8protobuf8internal14DestroyMessageEPKv, i8* bitcast (%"class.optimization_guide::proto::DoubleValueDefaultTypeInternal"* @_ZN18optimization_guide5proto30_DoubleValue_default_instance_E to i8*)) #13
  ret void
}

; Function Attrs: nounwind ssp uwtable
define internal void @_ZL88InitDefaultsscc_info_Ensemble_components_2foptimization_5fguide_2fproto_2fmodels_2eprotov() #0 {
  tail call void @_ZN6google8protobuf8internal13VerifyVersionEiiPKc(i32 3013000, i32 3013000, i8* getelementptr inbounds ([53 x i8], [53 x i8]* @.str, i64 0, i64 0)) #13
  store %"class.google::protobuf::Arena"* null, %"class.google::protobuf::Arena"** bitcast (i8* getelementptr inbounds (%"class.optimization_guide::proto::ModelDefaultTypeInternal", %"class.optimization_guide::proto::ModelDefaultTypeInternal"* @_ZN18optimization_guide5proto24_Model_default_instance_E, i64 0, i32 0, i32 0, i32 1, i64 0) to %"class.google::protobuf::Arena"**), align 8
  store i32 (...)** bitcast (i8** getelementptr inbounds ({ [16 x i8*] }, { [16 x i8*] }* @_ZTVN18optimization_guide5proto5ModelE, i64 0, inrange i32 0, i64 2) to i32 (...)**), i32 (...)*** bitcast (%"class.optimization_guide::proto::ModelDefaultTypeInternal"* @_ZN18optimization_guide5proto24_Model_default_instance_E to i32 (...)***), align 8
  store i32 0, i32* bitcast (i8* getelementptr inbounds (%"class.optimization_guide::proto::ModelDefaultTypeInternal", %"class.optimization_guide::proto::ModelDefaultTypeInternal"* @_ZN18optimization_guide5proto24_Model_default_instance_E, i64 0, i32 0, i32 0, i32 1, i64 8) to i32*), align 8
  store i32 0, i32* bitcast (i8* getelementptr inbounds (%"class.optimization_guide::proto::ModelDefaultTypeInternal", %"class.optimization_guide::proto::ModelDefaultTypeInternal"* @_ZN18optimization_guide5proto24_Model_default_instance_E, i64 0, i32 0, i32 0, i32 1, i64 12) to i32*), align 4
  %1 = load atomic i32, i32* getelementptr inbounds ({ { { { i32 } }, i32, i32, void ()* }, [2 x i8*] }, { { { { i32 } }, i32, i32, void ()* }, [2 x i8*] }* @scc_info_Ensemble_components_2foptimization_5fguide_2fproto_2fmodels_2eproto, i64 0, i32 0, i32 0, i32 0, i32 0) acquire, align 8
  %2 = icmp eq i32 %1, 0
  br i1 %2, label %4, label %3, !prof !2

3:                                                ; preds = %0
  tail call void @_ZN6google8protobuf8internal11InitSCCImplEPNS1_11SCCInfoBaseE(%"struct.google::protobuf::internal::SCCInfoBase"* bitcast ({ { { { i32 } }, i32, i32, void ()* }, [2 x i8*] }* @scc_info_Ensemble_components_2foptimization_5fguide_2fproto_2fmodels_2eproto to %"struct.google::protobuf::internal::SCCInfoBase"*)) #13
  br label %4

4:                                                ; preds = %0, %3
  store %"class.optimization_guide::proto::DoubleValue"* null, %"class.optimization_guide::proto::DoubleValue"** bitcast (i8* getelementptr inbounds (%"class.optimization_guide::proto::ModelDefaultTypeInternal", %"class.optimization_guide::proto::ModelDefaultTypeInternal"* @_ZN18optimization_guide5proto24_Model_default_instance_E, i64 0, i32 0, i32 0, i32 1, i64 16) to %"class.optimization_guide::proto::DoubleValue"**), align 8
  store i32 0, i32* bitcast (i8* getelementptr inbounds (%"class.optimization_guide::proto::ModelDefaultTypeInternal", %"class.optimization_guide::proto::ModelDefaultTypeInternal"* @_ZN18optimization_guide5proto24_Model_default_instance_E, i64 0, i32 0, i32 0, i32 1, i64 32) to i32*), align 8
  tail call void @_ZN6google8protobuf8internal13OnShutdownRunEPFvPKvES3_(void (i8*)* nonnull @_ZN6google8protobuf8internal14DestroyMessageEPKv, i8* bitcast (%"class.optimization_guide::proto::ModelDefaultTypeInternal"* @_ZN18optimization_guide5proto24_Model_default_instance_E to i8*)) #13
  store %"class.google::protobuf::Arena"* null, %"class.google::protobuf::Arena"** bitcast (i8* getelementptr inbounds (%"class.optimization_guide::proto::Ensemble_MemberDefaultTypeInternal", %"class.optimization_guide::proto::Ensemble_MemberDefaultTypeInternal"* @_ZN18optimization_guide5proto34_Ensemble_Member_default_instance_E, i64 0, i32 0, i32 0, i32 1, i64 0) to %"class.google::protobuf::Arena"**), align 8
  store i32 (...)** bitcast (i8** getelementptr inbounds ({ [16 x i8*] }, { [16 x i8*] }* @_ZTVN18optimization_guide5proto15Ensemble_MemberE, i64 0, inrange i32 0, i64 2) to i32 (...)**), i32 (...)*** bitcast (%"class.optimization_guide::proto::Ensemble_MemberDefaultTypeInternal"* @_ZN18optimization_guide5proto34_Ensemble_Member_default_instance_E to i32 (...)***), align 8
  store i32 0, i32* bitcast (i8* getelementptr inbounds (%"class.optimization_guide::proto::Ensemble_MemberDefaultTypeInternal", %"class.optimization_guide::proto::Ensemble_MemberDefaultTypeInternal"* @_ZN18optimization_guide5proto34_Ensemble_Member_default_instance_E, i64 0, i32 0, i32 0, i32 1, i64 8) to i32*), align 8
  store i32 0, i32* bitcast (i8* getelementptr inbounds (%"class.optimization_guide::proto::Ensemble_MemberDefaultTypeInternal", %"class.optimization_guide::proto::Ensemble_MemberDefaultTypeInternal"* @_ZN18optimization_guide5proto34_Ensemble_Member_default_instance_E, i64 0, i32 0, i32 0, i32 1, i64 12) to i32*), align 4
  %5 = load atomic i32, i32* getelementptr inbounds ({ { { { i32 } }, i32, i32, void ()* }, [2 x i8*] }, { { { { i32 } }, i32, i32, void ()* }, [2 x i8*] }* @scc_info_Ensemble_components_2foptimization_5fguide_2fproto_2fmodels_2eproto, i64 0, i32 0, i32 0, i32 0, i32 0) acquire, align 8
  %6 = icmp eq i32 %5, 0
  br i1 %6, label %8, label %7, !prof !2

7:                                                ; preds = %4
  tail call void @_ZN6google8protobuf8internal11InitSCCImplEPNS1_11SCCInfoBaseE(%"struct.google::protobuf::internal::SCCInfoBase"* bitcast ({ { { { i32 } }, i32, i32, void ()* }, [2 x i8*] }* @scc_info_Ensemble_components_2foptimization_5fguide_2fproto_2fmodels_2eproto to %"struct.google::protobuf::internal::SCCInfoBase"*)) #13
  br label %8

8:                                                ; preds = %4, %7
  store %"class.optimization_guide::proto::Model"* null, %"class.optimization_guide::proto::Model"** bitcast (i8* getelementptr inbounds (%"class.optimization_guide::proto::Ensemble_MemberDefaultTypeInternal", %"class.optimization_guide::proto::Ensemble_MemberDefaultTypeInternal"* @_ZN18optimization_guide5proto34_Ensemble_Member_default_instance_E, i64 0, i32 0, i32 0, i32 1, i64 16) to %"class.optimization_guide::proto::Model"**), align 8
  tail call void @_ZN6google8protobuf8internal13OnShutdownRunEPFvPKvES3_(void (i8*)* nonnull @_ZN6google8protobuf8internal14DestroyMessageEPKv, i8* bitcast (%"class.optimization_guide::proto::Ensemble_MemberDefaultTypeInternal"* @_ZN18optimization_guide5proto34_Ensemble_Member_default_instance_E to i8*)) #13
  store %"class.google::protobuf::Arena"* null, %"class.google::protobuf::Arena"** bitcast (i8* getelementptr inbounds (%"class.optimization_guide::proto::EnsembleDefaultTypeInternal", %"class.optimization_guide::proto::EnsembleDefaultTypeInternal"* @_ZN18optimization_guide5proto27_Ensemble_default_instance_E, i64 0, i32 0, i32 0, i32 1, i64 0) to %"class.google::protobuf::Arena"**), align 8
  store i32 (...)** bitcast (i8** getelementptr inbounds ({ [16 x i8*] }, { [16 x i8*] }* @_ZTVN18optimization_guide5proto8EnsembleE, i64 0, inrange i32 0, i64 2) to i32 (...)**), i32 (...)*** bitcast (%"class.optimization_guide::proto::EnsembleDefaultTypeInternal"* @_ZN18optimization_guide5proto27_Ensemble_default_instance_E to i32 (...)***), align 8
  tail call void @llvm.memset.p0i8.i64(i8* align 8 getelementptr inbounds (%"class.optimization_guide::proto::EnsembleDefaultTypeInternal", %"class.optimization_guide::proto::EnsembleDefaultTypeInternal"* @_ZN18optimization_guide5proto27_Ensemble_default_instance_E, i64 0, i32 0, i32 0, i32 1, i64 8), i8 0, i64 28, i1 false) #13
  %9 = load atomic i32, i32* getelementptr inbounds ({ { { { i32 } }, i32, i32, void ()* }, [2 x i8*] }, { { { { i32 } }, i32, i32, void ()* }, [2 x i8*] }* @scc_info_Ensemble_components_2foptimization_5fguide_2fproto_2fmodels_2eproto, i64 0, i32 0, i32 0, i32 0, i32 0) acquire, align 8
  %10 = icmp eq i32 %9, 0
  br i1 %10, label %12, label %11, !prof !2

11:                                               ; preds = %8
  tail call void @_ZN6google8protobuf8internal11InitSCCImplEPNS1_11SCCInfoBaseE(%"struct.google::protobuf::internal::SCCInfoBase"* bitcast ({ { { { i32 } }, i32, i32, void ()* }, [2 x i8*] }* @scc_info_Ensemble_components_2foptimization_5fguide_2fproto_2fmodels_2eproto to %"struct.google::protobuf::internal::SCCInfoBase"*)) #13
  br label %12

12:                                               ; preds = %8, %11
  tail call void @_ZN6google8protobuf8internal13OnShutdownRunEPFvPKvES3_(void (i8*)* nonnull @_ZN6google8protobuf8internal14DestroyMessageEPKv, i8* bitcast (%"class.optimization_guide::proto::EnsembleDefaultTypeInternal"* @_ZN18optimization_guide5proto27_Ensemble_default_instance_E to i8*)) #13
  ret void
}

; Function Attrs: nounwind ssp uwtable
define internal void @_ZL89InitDefaultsscc_info_FeatureId_components_2foptimization_5fguide_2fproto_2fmodels_2eprotov() #0 {
  tail call void @_ZN6google8protobuf8internal13VerifyVersionEiiPKc(i32 3013000, i32 3013000, i8* getelementptr inbounds ([53 x i8], [53 x i8]* @.str, i64 0, i64 0)) #13
  store %"class.google::protobuf::Arena"* null, %"class.google::protobuf::Arena"** bitcast (i8* getelementptr inbounds (%"class.optimization_guide::proto::FeatureIdDefaultTypeInternal", %"class.optimization_guide::proto::FeatureIdDefaultTypeInternal"* @_ZN18optimization_guide5proto28_FeatureId_default_instance_E, i64 0, i32 0, i32 0, i32 1, i64 0) to %"class.google::protobuf::Arena"**), align 8
  store i32 (...)** bitcast (i8** getelementptr inbounds ({ [16 x i8*] }, { [16 x i8*] }* @_ZTVN18optimization_guide5proto9FeatureIdE, i64 0, inrange i32 0, i64 2) to i32 (...)**), i32 (...)*** bitcast (%"class.optimization_guide::proto::FeatureIdDefaultTypeInternal"* @_ZN18optimization_guide5proto28_FeatureId_default_instance_E to i32 (...)***), align 8
  store i32 0, i32* bitcast (i8* getelementptr inbounds (%"class.optimization_guide::proto::FeatureIdDefaultTypeInternal", %"class.optimization_guide::proto::FeatureIdDefaultTypeInternal"* @_ZN18optimization_guide5proto28_FeatureId_default_instance_E, i64 0, i32 0, i32 0, i32 1, i64 8) to i32*), align 8
  store i32 0, i32* bitcast (i8* getelementptr inbounds (%"class.optimization_guide::proto::FeatureIdDefaultTypeInternal", %"class.optimization_guide::proto::FeatureIdDefaultTypeInternal"* @_ZN18optimization_guide5proto28_FeatureId_default_instance_E, i64 0, i32 0, i32 0, i32 1, i64 12) to i32*), align 4
  %1 = load atomic i32, i32* getelementptr inbounds ({ { { { i32 } }, i32, i32, void ()* }, [1 x i8*] }, { { { { i32 } }, i32, i32, void ()* }, [1 x i8*] }* @scc_info_FeatureId_components_2foptimization_5fguide_2fproto_2fmodels_2eproto, i64 0, i32 0, i32 0, i32 0, i32 0) acquire, align 8
  %2 = icmp eq i32 %1, 0
  br i1 %2, label %4, label %3, !prof !2

3:                                                ; preds = %0
  tail call void @_ZN6google8protobuf8internal11InitSCCImplEPNS1_11SCCInfoBaseE(%"struct.google::protobuf::internal::SCCInfoBase"* bitcast ({ { { { i32 } }, i32, i32, void ()* }, [1 x i8*] }* @scc_info_FeatureId_components_2foptimization_5fguide_2fproto_2fmodels_2eproto to %"struct.google::protobuf::internal::SCCInfoBase"*)) #13
  br label %4

4:                                                ; preds = %0, %3
  store %"class.optimization_guide::proto::StringValue"* null, %"class.optimization_guide::proto::StringValue"** bitcast (i8* getelementptr inbounds (%"class.optimization_guide::proto::FeatureIdDefaultTypeInternal", %"class.optimization_guide::proto::FeatureIdDefaultTypeInternal"* @_ZN18optimization_guide5proto28_FeatureId_default_instance_E, i64 0, i32 0, i32 0, i32 1, i64 16) to %"class.optimization_guide::proto::StringValue"**), align 8
  tail call void @_ZN6google8protobuf8internal13OnShutdownRunEPFvPKvES3_(void (i8*)* nonnull @_ZN6google8protobuf8internal14DestroyMessageEPKv, i8* bitcast (%"class.optimization_guide::proto::FeatureIdDefaultTypeInternal"* @_ZN18optimization_guide5proto28_FeatureId_default_instance_E to i8*)) #13
  ret void
}

; Function Attrs: nounwind ssp uwtable
define internal void @_ZL96InitDefaultsscc_info_GetModelsRequest_components_2foptimization_5fguide_2fproto_2fmodels_2eprotov() #0 {
  tail call void @_ZN6google8protobuf8internal13VerifyVersionEiiPKc(i32 3013000, i32 3013000, i8* getelementptr inbounds ([53 x i8], [53 x i8]* @.str, i64 0, i64 0)) #13
  store %"class.google::protobuf::Arena"* null, %"class.google::protobuf::Arena"** bitcast (i8* getelementptr inbounds (%"class.optimization_guide::proto::GetModelsRequestDefaultTypeInternal", %"class.optimization_guide::proto::GetModelsRequestDefaultTypeInternal"* @_ZN18optimization_guide5proto35_GetModelsRequest_default_instance_E, i64 0, i32 0, i32 0, i32 1, i64 0) to %"class.google::protobuf::Arena"**), align 8
  store i32 (...)** bitcast (i8** getelementptr inbounds ({ [16 x i8*] }, { [16 x i8*] }* @_ZTVN18optimization_guide5proto16GetModelsRequestE, i64 0, inrange i32 0, i64 2) to i32 (...)**), i32 (...)*** bitcast (%"class.optimization_guide::proto::GetModelsRequestDefaultTypeInternal"* @_ZN18optimization_guide5proto35_GetModelsRequest_default_instance_E to i32 (...)***), align 8
  tail call void @llvm.memset.p0i8.i64(i8* align 8 getelementptr inbounds (%"class.optimization_guide::proto::GetModelsRequestDefaultTypeInternal", %"class.optimization_guide::proto::GetModelsRequestDefaultTypeInternal"* @_ZN18optimization_guide5proto35_GetModelsRequest_default_instance_E, i64 0, i32 0, i32 0, i32 1, i64 8), i8 0, i64 56, i1 false) #13
  %1 = load atomic i32, i32* getelementptr inbounds ({ { { { i32 } }, i32, i32, void ()* }, [2 x i8*] }, { { { { i32 } }, i32, i32, void ()* }, [2 x i8*] }* @scc_info_GetModelsRequest_components_2foptimization_5fguide_2fproto_2fmodels_2eproto, i64 0, i32 0, i32 0, i32 0, i32 0) acquire, align 8
  %2 = icmp eq i32 %1, 0
  br i1 %2, label %4, label %3, !prof !2

3:                                                ; preds = %0
  tail call void @_ZN6google8protobuf8internal11InitSCCImplEPNS1_11SCCInfoBaseE(%"struct.google::protobuf::internal::SCCInfoBase"* bitcast ({ { { { i32 } }, i32, i32, void ()* }, [2 x i8*] }* @scc_info_GetModelsRequest_components_2foptimization_5fguide_2fproto_2fmodels_2eproto to %"struct.google::protobuf::internal::SCCInfoBase"*)) #13
  br label %4

4:                                                ; preds = %0, %3
  store %"class.std::__1::basic_string"* bitcast (%"class.google::protobuf::internal::ExplicitlyConstructed.24"* @_ZN6google8protobuf8internal26fixed_address_empty_stringE to %"class.std::__1::basic_string"*), %"class.std::__1::basic_string"** bitcast (i8* getelementptr inbounds (%"class.optimization_guide::proto::GetModelsRequestDefaultTypeInternal", %"class.optimization_guide::proto::GetModelsRequestDefaultTypeInternal"* @_ZN18optimization_guide5proto35_GetModelsRequest_default_instance_E, i64 0, i32 0, i32 0, i32 1, i64 64) to %"class.std::__1::basic_string"**), align 8
  store i32 0, i32* bitcast (i8* getelementptr inbounds (%"class.optimization_guide::proto::GetModelsRequestDefaultTypeInternal", %"class.optimization_guide::proto::GetModelsRequestDefaultTypeInternal"* @_ZN18optimization_guide5proto35_GetModelsRequest_default_instance_E, i64 0, i32 0, i32 0, i32 1, i64 72) to i32*), align 8
  tail call void @_ZN6google8protobuf8internal13OnShutdownRunEPFvPKvES3_(void (i8*)* nonnull @_ZN6google8protobuf8internal14DestroyMessageEPKv, i8* bitcast (%"class.optimization_guide::proto::GetModelsRequestDefaultTypeInternal"* @_ZN18optimization_guide5proto35_GetModelsRequest_default_instance_E to i8*)) #13
  ret void
}

; Function Attrs: nounwind ssp uwtable
define internal void @_ZL97InitDefaultsscc_info_GetModelsResponse_components_2foptimization_5fguide_2fproto_2fmodels_2eprotov() #0 {
  tail call void @_ZN6google8protobuf8internal13VerifyVersionEiiPKc(i32 3013000, i32 3013000, i8* getelementptr inbounds ([53 x i8], [53 x i8]* @.str, i64 0, i64 0)) #13
  store %"class.google::protobuf::Arena"* null, %"class.google::protobuf::Arena"** bitcast (i8* getelementptr inbounds (%"class.optimization_guide::proto::GetModelsResponseDefaultTypeInternal", %"class.optimization_guide::proto::GetModelsResponseDefaultTypeInternal"* @_ZN18optimization_guide5proto36_GetModelsResponse_default_instance_E, i64 0, i32 0, i32 0, i32 1, i64 0) to %"class.google::protobuf::Arena"**), align 8
  store i32 (...)** bitcast (i8** getelementptr inbounds ({ [16 x i8*] }, { [16 x i8*] }* @_ZTVN18optimization_guide5proto17GetModelsResponseE, i64 0, inrange i32 0, i64 2) to i32 (...)**), i32 (...)*** bitcast (%"class.optimization_guide::proto::GetModelsResponseDefaultTypeInternal"* @_ZN18optimization_guide5proto36_GetModelsResponse_default_instance_E to i32 (...)***), align 8
  tail call void @llvm.memset.p0i8.i64(i8* align 8 getelementptr inbounds (%"class.optimization_guide::proto::GetModelsResponseDefaultTypeInternal", %"class.optimization_guide::proto::GetModelsResponseDefaultTypeInternal"* @_ZN18optimization_guide5proto36_GetModelsResponse_default_instance_E, i64 0, i32 0, i32 0, i32 1, i64 8), i8 0, i64 52, i1 false) #13
  %1 = load atomic i32, i32* getelementptr inbounds ({ { { { i32 } }, i32, i32, void ()* }, [2 x i8*] }, { { { { i32 } }, i32, i32, void ()* }, [2 x i8*] }* @scc_info_GetModelsResponse_components_2foptimization_5fguide_2fproto_2fmodels_2eproto, i64 0, i32 0, i32 0, i32 0, i32 0) acquire, align 8
  %2 = icmp eq i32 %1, 0
  br i1 %2, label %4, label %3, !prof !2

3:                                                ; preds = %0
  tail call void @_ZN6google8protobuf8internal11InitSCCImplEPNS1_11SCCInfoBaseE(%"struct.google::protobuf::internal::SCCInfoBase"* bitcast ({ { { { i32 } }, i32, i32, void ()* }, [2 x i8*] }* @scc_info_GetModelsResponse_components_2foptimization_5fguide_2fproto_2fmodels_2eproto to %"struct.google::protobuf::internal::SCCInfoBase"*)) #13
  br label %4

4:                                                ; preds = %0, %3
  tail call void @_ZN6google8protobuf8internal13OnShutdownRunEPFvPKvES3_(void (i8*)* nonnull @_ZN6google8protobuf8internal14DestroyMessageEPKv, i8* bitcast (%"class.optimization_guide::proto::GetModelsResponseDefaultTypeInternal"* @_ZN18optimization_guide5proto36_GetModelsResponse_default_instance_E to i8*)) #13
  ret void
}

; Function Attrs: nounwind ssp uwtable
define internal void @_ZL97InitDefaultsscc_info_HostModelFeatures_components_2foptimization_5fguide_2fproto_2fmodels_2eprotov() #0 {
  tail call void @_ZN6google8protobuf8internal13VerifyVersionEiiPKc(i32 3013000, i32 3013000, i8* getelementptr inbounds ([53 x i8], [53 x i8]* @.str, i64 0, i64 0)) #13
  store %"class.google::protobuf::Arena"* null, %"class.google::protobuf::Arena"** bitcast (i8* getelementptr inbounds (%"class.optimization_guide::proto::HostModelFeaturesDefaultTypeInternal", %"class.optimization_guide::proto::HostModelFeaturesDefaultTypeInternal"* @_ZN18optimization_guide5proto36_HostModelFeatures_default_instance_E, i64 0, i32 0, i32 0, i32 1, i64 0) to %"class.google::protobuf::Arena"**), align 8
  store i32 (...)** bitcast (i8** getelementptr inbounds ({ [16 x i8*] }, { [16 x i8*] }* @_ZTVN18optimization_guide5proto17HostModelFeaturesE, i64 0, inrange i32 0, i64 2) to i32 (...)**), i32 (...)*** bitcast (%"class.optimization_guide::proto::HostModelFeaturesDefaultTypeInternal"* @_ZN18optimization_guide5proto36_HostModelFeatures_default_instance_E to i32 (...)***), align 8
  tail call void @llvm.memset.p0i8.i64(i8* align 8 getelementptr inbounds (%"class.optimization_guide::proto::HostModelFeaturesDefaultTypeInternal", %"class.optimization_guide::proto::HostModelFeaturesDefaultTypeInternal"* @_ZN18optimization_guide5proto36_HostModelFeatures_default_instance_E, i64 0, i32 0, i32 0, i32 1, i64 8), i8 0, i64 32, i1 false) #13
  %1 = load atomic i32, i32* getelementptr inbounds ({ { { { i32 } }, i32, i32, void ()* }, [1 x i8*] }, { { { { i32 } }, i32, i32, void ()* }, [1 x i8*] }* @scc_info_HostModelFeatures_components_2foptimization_5fguide_2fproto_2fmodels_2eproto, i64 0, i32 0, i32 0, i32 0, i32 0) acquire, align 8
  %2 = icmp eq i32 %1, 0
  br i1 %2, label %4, label %3, !prof !2

3:                                                ; preds = %0
  tail call void @_ZN6google8protobuf8internal11InitSCCImplEPNS1_11SCCInfoBaseE(%"struct.google::protobuf::internal::SCCInfoBase"* bitcast ({ { { { i32 } }, i32, i32, void ()* }, [1 x i8*] }* @scc_info_HostModelFeatures_components_2foptimization_5fguide_2fproto_2fmodels_2eproto to %"struct.google::protobuf::internal::SCCInfoBase"*)) #13
  br label %4

4:                                                ; preds = %0, %3
  store %"class.std::__1::basic_string"* bitcast (%"class.google::protobuf::internal::ExplicitlyConstructed.24"* @_ZN6google8protobuf8internal26fixed_address_empty_stringE to %"class.std::__1::basic_string"*), %"class.std::__1::basic_string"** bitcast (i8* getelementptr inbounds (%"class.optimization_guide::proto::HostModelFeaturesDefaultTypeInternal", %"class.optimization_guide::proto::HostModelFeaturesDefaultTypeInternal"* @_ZN18optimization_guide5proto36_HostModelFeatures_default_instance_E, i64 0, i32 0, i32 0, i32 1, i64 40) to %"class.std::__1::basic_string"**), align 8
  tail call void @_ZN6google8protobuf8internal13OnShutdownRunEPFvPKvES3_(void (i8*)* nonnull @_ZN6google8protobuf8internal14DestroyMessageEPKv, i8* bitcast (%"class.optimization_guide::proto::HostModelFeaturesDefaultTypeInternal"* @_ZN18optimization_guide5proto36_HostModelFeatures_default_instance_E to i8*)) #13
  ret void
}

; Function Attrs: nounwind ssp uwtable
define internal void @_ZL94InitDefaultsscc_info_InequalityTest_components_2foptimization_5fguide_2fproto_2fmodels_2eprotov() #0 {
  tail call void @_ZN6google8protobuf8internal13VerifyVersionEiiPKc(i32 3013000, i32 3013000, i8* getelementptr inbounds ([53 x i8], [53 x i8]* @.str, i64 0, i64 0)) #13
  store %"class.google::protobuf::Arena"* null, %"class.google::protobuf::Arena"** bitcast (i8* getelementptr inbounds (%"class.optimization_guide::proto::InequalityTestDefaultTypeInternal", %"class.optimization_guide::proto::InequalityTestDefaultTypeInternal"* @_ZN18optimization_guide5proto33_InequalityTest_default_instance_E, i64 0, i32 0, i32 0, i32 1, i64 0) to %"class.google::protobuf::Arena"**), align 8
  store i32 (...)** bitcast (i8** getelementptr inbounds ({ [16 x i8*] }, { [16 x i8*] }* @_ZTVN18optimization_guide5proto14InequalityTestE, i64 0, inrange i32 0, i64 2) to i32 (...)**), i32 (...)*** bitcast (%"class.optimization_guide::proto::InequalityTestDefaultTypeInternal"* @_ZN18optimization_guide5proto33_InequalityTest_default_instance_E to i32 (...)***), align 8
  store i32 0, i32* bitcast (i8* getelementptr inbounds (%"class.optimization_guide::proto::InequalityTestDefaultTypeInternal", %"class.optimization_guide::proto::InequalityTestDefaultTypeInternal"* @_ZN18optimization_guide5proto33_InequalityTest_default_instance_E, i64 0, i32 0, i32 0, i32 1, i64 8) to i32*), align 8
  store i32 0, i32* bitcast (i8* getelementptr inbounds (%"class.optimization_guide::proto::InequalityTestDefaultTypeInternal", %"class.optimization_guide::proto::InequalityTestDefaultTypeInternal"* @_ZN18optimization_guide5proto33_InequalityTest_default_instance_E, i64 0, i32 0, i32 0, i32 1, i64 12) to i32*), align 4
  %1 = load atomic i32, i32* getelementptr inbounds ({ { { { i32 } }, i32, i32, void ()* }, [2 x i8*] }, { { { { i32 } }, i32, i32, void ()* }, [2 x i8*] }* @scc_info_InequalityTest_components_2foptimization_5fguide_2fproto_2fmodels_2eproto, i64 0, i32 0, i32 0, i32 0, i32 0) acquire, align 8
  %2 = icmp eq i32 %1, 0
  br i1 %2, label %4, label %3, !prof !2

3:                                                ; preds = %0
  tail call void @_ZN6google8protobuf8internal11InitSCCImplEPNS1_11SCCInfoBaseE(%"struct.google::protobuf::internal::SCCInfoBase"* bitcast ({ { { { i32 } }, i32, i32, void ()* }, [2 x i8*] }* @scc_info_InequalityTest_components_2foptimization_5fguide_2fproto_2fmodels_2eproto to %"struct.google::protobuf::internal::SCCInfoBase"*)) #13
  br label %4

4:                                                ; preds = %0, %3
  tail call void @llvm.memset.p0i8.i64(i8* align 8 getelementptr inbounds (%"class.optimization_guide::proto::InequalityTestDefaultTypeInternal", %"class.optimization_guide::proto::InequalityTestDefaultTypeInternal"* @_ZN18optimization_guide5proto33_InequalityTest_default_instance_E, i64 0, i32 0, i32 0, i32 1, i64 16), i8 0, i64 20, i1 false) #13
  tail call void @_ZN6google8protobuf8internal13OnShutdownRunEPFvPKvES3_(void (i8*)* nonnull @_ZN6google8protobuf8internal14DestroyMessageEPKv, i8* bitcast (%"class.optimization_guide::proto::InequalityTestDefaultTypeInternal"* @_ZN18optimization_guide5proto33_InequalityTest_default_instance_E to i8*)) #13
  ret void
}

; Function Attrs: nounwind ssp uwtable
define internal void @_ZL90InitDefaultsscc_info_Int32Value_components_2foptimization_5fguide_2fproto_2fmodels_2eprotov() #0 {
  tail call void @_ZN6google8protobuf8internal13VerifyVersionEiiPKc(i32 3013000, i32 3013000, i8* getelementptr inbounds ([53 x i8], [53 x i8]* @.str, i64 0, i64 0)) #13
  store %"class.google::protobuf::Arena"* null, %"class.google::protobuf::Arena"** bitcast (i8* getelementptr inbounds (%"class.optimization_guide::proto::Int32ValueDefaultTypeInternal", %"class.optimization_guide::proto::Int32ValueDefaultTypeInternal"* @_ZN18optimization_guide5proto29_Int32Value_default_instance_E, i64 0, i32 0, i32 0, i32 1, i64 0) to %"class.google::protobuf::Arena"**), align 8
  store i32 (...)** bitcast (i8** getelementptr inbounds ({ [16 x i8*] }, { [16 x i8*] }* @_ZTVN18optimization_guide5proto10Int32ValueE, i64 0, inrange i32 0, i64 2) to i32 (...)**), i32 (...)*** bitcast (%"class.optimization_guide::proto::Int32ValueDefaultTypeInternal"* @_ZN18optimization_guide5proto29_Int32Value_default_instance_E to i32 (...)***), align 8
  store i32 0, i32* bitcast (i8* getelementptr inbounds (%"class.optimization_guide::proto::Int32ValueDefaultTypeInternal", %"class.optimization_guide::proto::Int32ValueDefaultTypeInternal"* @_ZN18optimization_guide5proto29_Int32Value_default_instance_E, i64 0, i32 0, i32 0, i32 1, i64 8) to i32*), align 8
  store i32 0, i32* bitcast (i8* getelementptr inbounds (%"class.optimization_guide::proto::Int32ValueDefaultTypeInternal", %"class.optimization_guide::proto::Int32ValueDefaultTypeInternal"* @_ZN18optimization_guide5proto29_Int32Value_default_instance_E, i64 0, i32 0, i32 0, i32 1, i64 12) to i32*), align 4
  store i32 0, i32* bitcast (i8* getelementptr inbounds (%"class.optimization_guide::proto::Int32ValueDefaultTypeInternal", %"class.optimization_guide::proto::Int32ValueDefaultTypeInternal"* @_ZN18optimization_guide5proto29_Int32Value_default_instance_E, i64 0, i32 0, i32 0, i32 1, i64 16) to i32*), align 8
  tail call void @_ZN6google8protobuf8internal13OnShutdownRunEPFvPKvES3_(void (i8*)* nonnull @_ZN6google8protobuf8internal14DestroyMessageEPKv, i8* bitcast (%"class.optimization_guide::proto::Int32ValueDefaultTypeInternal"* @_ZN18optimization_guide5proto29_Int32Value_default_instance_E to i8*)) #13
  ret void
}

; Function Attrs: nounwind ssp uwtable
define internal void @_ZL84InitDefaultsscc_info_Leaf_components_2foptimization_5fguide_2fproto_2fmodels_2eprotov() #0 {
  tail call void @_ZN6google8protobuf8internal13VerifyVersionEiiPKc(i32 3013000, i32 3013000, i8* getelementptr inbounds ([53 x i8], [53 x i8]* @.str, i64 0, i64 0)) #13
  store %"class.google::protobuf::Arena"* null, %"class.google::protobuf::Arena"** bitcast (i8* getelementptr inbounds (%"class.optimization_guide::proto::LeafDefaultTypeInternal", %"class.optimization_guide::proto::LeafDefaultTypeInternal"* @_ZN18optimization_guide5proto23_Leaf_default_instance_E, i64 0, i32 0, i32 0, i32 1, i64 0) to %"class.google::protobuf::Arena"**), align 8
  store i32 (...)** bitcast (i8** getelementptr inbounds ({ [16 x i8*] }, { [16 x i8*] }* @_ZTVN18optimization_guide5proto4LeafE, i64 0, inrange i32 0, i64 2) to i32 (...)**), i32 (...)*** bitcast (%"class.optimization_guide::proto::LeafDefaultTypeInternal"* @_ZN18optimization_guide5proto23_Leaf_default_instance_E to i32 (...)***), align 8
  store i32 0, i32* bitcast (i8* getelementptr inbounds (%"class.optimization_guide::proto::LeafDefaultTypeInternal", %"class.optimization_guide::proto::LeafDefaultTypeInternal"* @_ZN18optimization_guide5proto23_Leaf_default_instance_E, i64 0, i32 0, i32 0, i32 1, i64 8) to i32*), align 8
  store i32 0, i32* bitcast (i8* getelementptr inbounds (%"class.optimization_guide::proto::LeafDefaultTypeInternal", %"class.optimization_guide::proto::LeafDefaultTypeInternal"* @_ZN18optimization_guide5proto23_Leaf_default_instance_E, i64 0, i32 0, i32 0, i32 1, i64 12) to i32*), align 4
  %1 = load atomic i32, i32* getelementptr inbounds ({ { { { i32 } }, i32, i32, void ()* }, [1 x i8*] }, { { { { i32 } }, i32, i32, void ()* }, [1 x i8*] }* @scc_info_Leaf_components_2foptimization_5fguide_2fproto_2fmodels_2eproto, i64 0, i32 0, i32 0, i32 0, i32 0) acquire, align 8
  %2 = icmp eq i32 %1, 0
  br i1 %2, label %4, label %3, !prof !2

3:                                                ; preds = %0
  tail call void @_ZN6google8protobuf8internal11InitSCCImplEPNS1_11SCCInfoBaseE(%"struct.google::protobuf::internal::SCCInfoBase"* bitcast ({ { { { i32 } }, i32, i32, void ()* }, [1 x i8*] }* @scc_info_Leaf_components_2foptimization_5fguide_2fproto_2fmodels_2eproto to %"struct.google::protobuf::internal::SCCInfoBase"*)) #13
  br label %4

4:                                                ; preds = %0, %3
  store %"class.optimization_guide::proto::Vector"* null, %"class.optimization_guide::proto::Vector"** bitcast (i8* getelementptr inbounds (%"class.optimization_guide::proto::LeafDefaultTypeInternal", %"class.optimization_guide::proto::LeafDefaultTypeInternal"* @_ZN18optimization_guide5proto23_Leaf_default_instance_E, i64 0, i32 0, i32 0, i32 1, i64 16) to %"class.optimization_guide::proto::Vector"**), align 8
  tail call void @_ZN6google8protobuf8internal13OnShutdownRunEPFvPKvES3_(void (i8*)* nonnull @_ZN6google8protobuf8internal14DestroyMessageEPKv, i8* bitcast (%"class.optimization_guide::proto::LeafDefaultTypeInternal"* @_ZN18optimization_guide5proto23_Leaf_default_instance_E to i8*)) #13
  ret void
}

; Function Attrs: nounwind ssp uwtable
define internal void @_ZL92InitDefaultsscc_info_ModelFeature_components_2foptimization_5fguide_2fproto_2fmodels_2eprotov() #0 {
  tail call void @_ZN6google8protobuf8internal13VerifyVersionEiiPKc(i32 3013000, i32 3013000, i8* getelementptr inbounds ([53 x i8], [53 x i8]* @.str, i64 0, i64 0)) #13
  store %"class.google::protobuf::Arena"* null, %"class.google::protobuf::Arena"** bitcast (i8* getelementptr inbounds (%"class.optimization_guide::proto::ModelFeatureDefaultTypeInternal", %"class.optimization_guide::proto::ModelFeatureDefaultTypeInternal"* @_ZN18optimization_guide5proto31_ModelFeature_default_instance_E, i64 0, i32 0, i32 0, i32 1, i64 0) to %"class.google::protobuf::Arena"**), align 8
  store i32 (...)** bitcast (i8** getelementptr inbounds ({ [16 x i8*] }, { [16 x i8*] }* @_ZTVN18optimization_guide5proto12ModelFeatureE, i64 0, inrange i32 0, i64 2) to i32 (...)**), i32 (...)*** bitcast (%"class.optimization_guide::proto::ModelFeatureDefaultTypeInternal"* @_ZN18optimization_guide5proto31_ModelFeature_default_instance_E to i32 (...)***), align 8
  store i32 0, i32* bitcast (i8* getelementptr inbounds (%"class.optimization_guide::proto::ModelFeatureDefaultTypeInternal", %"class.optimization_guide::proto::ModelFeatureDefaultTypeInternal"* @_ZN18optimization_guide5proto31_ModelFeature_default_instance_E, i64 0, i32 0, i32 0, i32 1, i64 8) to i32*), align 8
  store i32 0, i32* bitcast (i8* getelementptr inbounds (%"class.optimization_guide::proto::ModelFeatureDefaultTypeInternal", %"class.optimization_guide::proto::ModelFeatureDefaultTypeInternal"* @_ZN18optimization_guide5proto31_ModelFeature_default_instance_E, i64 0, i32 0, i32 0, i32 1, i64 12) to i32*), align 4
  %1 = load atomic i32, i32* getelementptr inbounds ({ { { { i32 } }, i32, i32, void ()* }, [0 x i8*] }, { { { { i32 } }, i32, i32, void ()* }, [0 x i8*] }* @scc_info_ModelFeature_components_2foptimization_5fguide_2fproto_2fmodels_2eproto, i64 0, i32 0, i32 0, i32 0, i32 0) acquire, align 8
  %2 = icmp eq i32 %1, 0
  br i1 %2, label %4, label %3, !prof !2

3:                                                ; preds = %0
  tail call void @_ZN6google8protobuf8internal11InitSCCImplEPNS1_11SCCInfoBaseE(%"struct.google::protobuf::internal::SCCInfoBase"* bitcast ({ { { { i32 } }, i32, i32, void ()* }, [0 x i8*] }* @scc_info_ModelFeature_components_2foptimization_5fguide_2fproto_2fmodels_2eproto to %"struct.google::protobuf::internal::SCCInfoBase"*)) #13
  br label %4

4:                                                ; preds = %0, %3
  store %"class.std::__1::basic_string"* bitcast (%"class.google::protobuf::internal::ExplicitlyConstructed.24"* @_ZN6google8protobuf8internal26fixed_address_empty_stringE to %"class.std::__1::basic_string"*), %"class.std::__1::basic_string"** bitcast (i8* getelementptr inbounds (%"class.optimization_guide::proto::ModelFeatureDefaultTypeInternal", %"class.optimization_guide::proto::ModelFeatureDefaultTypeInternal"* @_ZN18optimization_guide5proto31_ModelFeature_default_instance_E, i64 0, i32 0, i32 0, i32 1, i64 16) to %"class.std::__1::basic_string"**), align 8
  store i32 0, i32* bitcast (i8* getelementptr inbounds (%"class.optimization_guide::proto::ModelFeatureDefaultTypeInternal", %"class.optimization_guide::proto::ModelFeatureDefaultTypeInternal"* @_ZN18optimization_guide5proto31_ModelFeature_default_instance_E, i64 0, i32 0, i32 0, i32 1, i64 32) to i32*), align 8
  tail call void @_ZN6google8protobuf8internal13OnShutdownRunEPFvPKvES3_(void (i8*)* nonnull @_ZN6google8protobuf8internal14DestroyMessageEPKv, i8* bitcast (%"class.optimization_guide::proto::ModelFeatureDefaultTypeInternal"* @_ZN18optimization_guide5proto31_ModelFeature_default_instance_E to i8*)) #13
  ret void
}

; Function Attrs: nounwind ssp uwtable
define internal void @_ZL89InitDefaultsscc_info_ModelInfo_components_2foptimization_5fguide_2fproto_2fmodels_2eprotov() #0 {
  tail call void @_ZN6google8protobuf8internal13VerifyVersionEiiPKc(i32 3013000, i32 3013000, i8* getelementptr inbounds ([53 x i8], [53 x i8]* @.str, i64 0, i64 0)) #13
  store %"class.google::protobuf::Arena"* null, %"class.google::protobuf::Arena"** bitcast (i8* getelementptr inbounds (%"class.optimization_guide::proto::ModelInfoDefaultTypeInternal", %"class.optimization_guide::proto::ModelInfoDefaultTypeInternal"* @_ZN18optimization_guide5proto28_ModelInfo_default_instance_E, i64 0, i32 0, i32 0, i32 1, i64 0) to %"class.google::protobuf::Arena"**), align 8
  store i32 (...)** bitcast (i8** getelementptr inbounds ({ [16 x i8*] }, { [16 x i8*] }* @_ZTVN18optimization_guide5proto9ModelInfoE, i64 0, inrange i32 0, i64 2) to i32 (...)**), i32 (...)*** bitcast (%"class.optimization_guide::proto::ModelInfoDefaultTypeInternal"* @_ZN18optimization_guide5proto28_ModelInfo_default_instance_E to i32 (...)***), align 8
  tail call void @llvm.memset.p0i8.i64(i8* align 8 getelementptr inbounds (%"class.optimization_guide::proto::ModelInfoDefaultTypeInternal", %"class.optimization_guide::proto::ModelInfoDefaultTypeInternal"* @_ZN18optimization_guide5proto28_ModelInfo_default_instance_E, i64 0, i32 0, i32 0, i32 1, i64 8), i8 0, i64 48, i1 false) #13
  %1 = load atomic i32, i32* getelementptr inbounds ({ { { { i32 } }, i32, i32, void ()* }, [1 x i8*] }, { { { { i32 } }, i32, i32, void ()* }, [1 x i8*] }* @scc_info_ModelInfo_components_2foptimization_5fguide_2fproto_2fmodels_2eproto, i64 0, i32 0, i32 0, i32 0, i32 0) acquire, align 8
  %2 = icmp eq i32 %1, 0
  br i1 %2, label %4, label %3, !prof !2

3:                                                ; preds = %0
  tail call void @_ZN6google8protobuf8internal11InitSCCImplEPNS1_11SCCInfoBaseE(%"struct.google::protobuf::internal::SCCInfoBase"* bitcast ({ { { { i32 } }, i32, i32, void ()* }, [1 x i8*] }* @scc_info_ModelInfo_components_2foptimization_5fguide_2fproto_2fmodels_2eproto to %"struct.google::protobuf::internal::SCCInfoBase"*)) #13
  br label %4

4:                                                ; preds = %0, %3
  tail call void @llvm.memset.p0i8.i64(i8* align 8 getelementptr inbounds (%"class.optimization_guide::proto::ModelInfoDefaultTypeInternal", %"class.optimization_guide::proto::ModelInfoDefaultTypeInternal"* @_ZN18optimization_guide5proto28_ModelInfo_default_instance_E, i64 0, i32 0, i32 0, i32 1, i64 56), i8 0, i64 20, i1 false) #13
  tail call void @_ZN6google8protobuf8internal13OnShutdownRunEPFvPKvES3_(void (i8*)* nonnull @_ZN6google8protobuf8internal14DestroyMessageEPKv, i8* bitcast (%"class.optimization_guide::proto::ModelInfoDefaultTypeInternal"* @_ZN18optimization_guide5proto28_ModelInfo_default_instance_E to i8*)) #13
  ret void
}

; Function Attrs: nounwind ssp uwtable
define internal void @_ZL95InitDefaultsscc_info_PredictionModel_components_2foptimization_5fguide_2fproto_2fmodels_2eprotov() #0 {
  tail call void @_ZN6google8protobuf8internal13VerifyVersionEiiPKc(i32 3013000, i32 3013000, i8* getelementptr inbounds ([53 x i8], [53 x i8]* @.str, i64 0, i64 0)) #13
  store %"class.google::protobuf::Arena"* null, %"class.google::protobuf::Arena"** bitcast (i8* getelementptr inbounds (%"class.optimization_guide::proto::PredictionModelDefaultTypeInternal", %"class.optimization_guide::proto::PredictionModelDefaultTypeInternal"* @_ZN18optimization_guide5proto34_PredictionModel_default_instance_E, i64 0, i32 0, i32 0, i32 1, i64 0) to %"class.google::protobuf::Arena"**), align 8
  store i32 (...)** bitcast (i8** getelementptr inbounds ({ [16 x i8*] }, { [16 x i8*] }* @_ZTVN18optimization_guide5proto15PredictionModelE, i64 0, inrange i32 0, i64 2) to i32 (...)**), i32 (...)*** bitcast (%"class.optimization_guide::proto::PredictionModelDefaultTypeInternal"* @_ZN18optimization_guide5proto34_PredictionModel_default_instance_E to i32 (...)***), align 8
  store i32 0, i32* bitcast (i8* getelementptr inbounds (%"class.optimization_guide::proto::PredictionModelDefaultTypeInternal", %"class.optimization_guide::proto::PredictionModelDefaultTypeInternal"* @_ZN18optimization_guide5proto34_PredictionModel_default_instance_E, i64 0, i32 0, i32 0, i32 1, i64 8) to i32*), align 8
  store i32 0, i32* bitcast (i8* getelementptr inbounds (%"class.optimization_guide::proto::PredictionModelDefaultTypeInternal", %"class.optimization_guide::proto::PredictionModelDefaultTypeInternal"* @_ZN18optimization_guide5proto34_PredictionModel_default_instance_E, i64 0, i32 0, i32 0, i32 1, i64 12) to i32*), align 4
  %1 = load atomic i32, i32* getelementptr inbounds ({ { { { i32 } }, i32, i32, void ()* }, [2 x i8*] }, { { { { i32 } }, i32, i32, void ()* }, [2 x i8*] }* @scc_info_PredictionModel_components_2foptimization_5fguide_2fproto_2fmodels_2eproto, i64 0, i32 0, i32 0, i32 0, i32 0) acquire, align 8
  %2 = icmp eq i32 %1, 0
  br i1 %2, label %4, label %3, !prof !2

3:                                                ; preds = %0
  tail call void @_ZN6google8protobuf8internal11InitSCCImplEPNS1_11SCCInfoBaseE(%"struct.google::protobuf::internal::SCCInfoBase"* bitcast ({ { { { i32 } }, i32, i32, void ()* }, [2 x i8*] }* @scc_info_PredictionModel_components_2foptimization_5fguide_2fproto_2fmodels_2eproto to %"struct.google::protobuf::internal::SCCInfoBase"*)) #13
  br label %4

4:                                                ; preds = %0, %3
  tail call void @llvm.memset.p0i8.i64(i8* align 8 getelementptr inbounds (%"class.optimization_guide::proto::PredictionModelDefaultTypeInternal", %"class.optimization_guide::proto::PredictionModelDefaultTypeInternal"* @_ZN18optimization_guide5proto34_PredictionModel_default_instance_E, i64 0, i32 0, i32 0, i32 1, i64 16), i8 0, i64 16, i1 false) #13
  tail call void @_ZN6google8protobuf8internal13OnShutdownRunEPFvPKvES3_(void (i8*)* nonnull @_ZN6google8protobuf8internal14DestroyMessageEPKv, i8* bitcast (%"class.optimization_guide::proto::PredictionModelDefaultTypeInternal"* @_ZN18optimization_guide5proto34_PredictionModel_default_instance_E to i8*)) #13
  ret void
}

; Function Attrs: nounwind ssp uwtable
define internal void @_ZL91InitDefaultsscc_info_StringValue_components_2foptimization_5fguide_2fproto_2fmodels_2eprotov() #0 {
  tail call void @_ZN6google8protobuf8internal13VerifyVersionEiiPKc(i32 3013000, i32 3013000, i8* getelementptr inbounds ([53 x i8], [53 x i8]* @.str, i64 0, i64 0)) #13
  store %"class.google::protobuf::Arena"* null, %"class.google::protobuf::Arena"** bitcast (i8* getelementptr inbounds (%"class.optimization_guide::proto::StringValueDefaultTypeInternal", %"class.optimization_guide::proto::StringValueDefaultTypeInternal"* @_ZN18optimization_guide5proto30_StringValue_default_instance_E, i64 0, i32 0, i32 0, i32 1, i64 0) to %"class.google::protobuf::Arena"**), align 8
  store i32 (...)** bitcast (i8** getelementptr inbounds ({ [16 x i8*] }, { [16 x i8*] }* @_ZTVN18optimization_guide5proto11StringValueE, i64 0, inrange i32 0, i64 2) to i32 (...)**), i32 (...)*** bitcast (%"class.optimization_guide::proto::StringValueDefaultTypeInternal"* @_ZN18optimization_guide5proto30_StringValue_default_instance_E to i32 (...)***), align 8
  store i32 0, i32* bitcast (i8* getelementptr inbounds (%"class.optimization_guide::proto::StringValueDefaultTypeInternal", %"class.optimization_guide::proto::StringValueDefaultTypeInternal"* @_ZN18optimization_guide5proto30_StringValue_default_instance_E, i64 0, i32 0, i32 0, i32 1, i64 8) to i32*), align 8
  store i32 0, i32* bitcast (i8* getelementptr inbounds (%"class.optimization_guide::proto::StringValueDefaultTypeInternal", %"class.optimization_guide::proto::StringValueDefaultTypeInternal"* @_ZN18optimization_guide5proto30_StringValue_default_instance_E, i64 0, i32 0, i32 0, i32 1, i64 12) to i32*), align 4
  %1 = load atomic i32, i32* getelementptr inbounds ({ { { { i32 } }, i32, i32, void ()* }, [0 x i8*] }, { { { { i32 } }, i32, i32, void ()* }, [0 x i8*] }* @scc_info_StringValue_components_2foptimization_5fguide_2fproto_2fmodels_2eproto, i64 0, i32 0, i32 0, i32 0, i32 0) acquire, align 8
  %2 = icmp eq i32 %1, 0
  br i1 %2, label %4, label %3, !prof !2

3:                                                ; preds = %0
  tail call void @_ZN6google8protobuf8internal11InitSCCImplEPNS1_11SCCInfoBaseE(%"struct.google::protobuf::internal::SCCInfoBase"* bitcast ({ { { { i32 } }, i32, i32, void ()* }, [0 x i8*] }* @scc_info_StringValue_components_2foptimization_5fguide_2fproto_2fmodels_2eproto to %"struct.google::protobuf::internal::SCCInfoBase"*)) #13
  br label %4

4:                                                ; preds = %0, %3
  store %"class.std::__1::basic_string"* bitcast (%"class.google::protobuf::internal::ExplicitlyConstructed.24"* @_ZN6google8protobuf8internal26fixed_address_empty_stringE to %"class.std::__1::basic_string"*), %"class.std::__1::basic_string"** bitcast (i8* getelementptr inbounds (%"class.optimization_guide::proto::StringValueDefaultTypeInternal", %"class.optimization_guide::proto::StringValueDefaultTypeInternal"* @_ZN18optimization_guide5proto30_StringValue_default_instance_E, i64 0, i32 0, i32 0, i32 1, i64 16) to %"class.std::__1::basic_string"**), align 8
  tail call void @_ZN6google8protobuf8internal13OnShutdownRunEPFvPKvES3_(void (i8*)* nonnull @_ZN6google8protobuf8internal14DestroyMessageEPKv, i8* bitcast (%"class.optimization_guide::proto::StringValueDefaultTypeInternal"* @_ZN18optimization_guide5proto30_StringValue_default_instance_E to i8*)) #13
  ret void
}

; Function Attrs: nounwind ssp uwtable
define internal void @_ZL88InitDefaultsscc_info_TreeNode_components_2foptimization_5fguide_2fproto_2fmodels_2eprotov() #0 {
  tail call void @_ZN6google8protobuf8internal13VerifyVersionEiiPKc(i32 3013000, i32 3013000, i8* getelementptr inbounds ([53 x i8], [53 x i8]* @.str, i64 0, i64 0)) #13
  store %"class.google::protobuf::Arena"* null, %"class.google::protobuf::Arena"** bitcast (i8* getelementptr inbounds (%"class.optimization_guide::proto::TreeNodeDefaultTypeInternal", %"class.optimization_guide::proto::TreeNodeDefaultTypeInternal"* @_ZN18optimization_guide5proto27_TreeNode_default_instance_E, i64 0, i32 0, i32 0, i32 1, i64 0) to %"class.google::protobuf::Arena"**), align 8
  store i32 (...)** bitcast (i8** getelementptr inbounds ({ [16 x i8*] }, { [16 x i8*] }* @_ZTVN18optimization_guide5proto8TreeNodeE, i64 0, inrange i32 0, i64 2) to i32 (...)**), i32 (...)*** bitcast (%"class.optimization_guide::proto::TreeNodeDefaultTypeInternal"* @_ZN18optimization_guide5proto27_TreeNode_default_instance_E to i32 (...)***), align 8
  store i32 0, i32* bitcast (i8* getelementptr inbounds (%"class.optimization_guide::proto::TreeNodeDefaultTypeInternal", %"class.optimization_guide::proto::TreeNodeDefaultTypeInternal"* @_ZN18optimization_guide5proto27_TreeNode_default_instance_E, i64 0, i32 0, i32 0, i32 1, i64 8) to i32*), align 8
  store i32 0, i32* bitcast (i8* getelementptr inbounds (%"class.optimization_guide::proto::TreeNodeDefaultTypeInternal", %"class.optimization_guide::proto::TreeNodeDefaultTypeInternal"* @_ZN18optimization_guide5proto27_TreeNode_default_instance_E, i64 0, i32 0, i32 0, i32 1, i64 12) to i32*), align 4
  %1 = load atomic i32, i32* getelementptr inbounds ({ { { { i32 } }, i32, i32, void ()* }, [3 x i8*] }, { { { { i32 } }, i32, i32, void ()* }, [3 x i8*] }* @scc_info_TreeNode_components_2foptimization_5fguide_2fproto_2fmodels_2eproto, i64 0, i32 0, i32 0, i32 0, i32 0) acquire, align 8
  %2 = icmp eq i32 %1, 0
  br i1 %2, label %4, label %3, !prof !2

3:                                                ; preds = %0
  tail call void @_ZN6google8protobuf8internal11InitSCCImplEPNS1_11SCCInfoBaseE(%"struct.google::protobuf::internal::SCCInfoBase"* bitcast ({ { { { i32 } }, i32, i32, void ()* }, [3 x i8*] }* @scc_info_TreeNode_components_2foptimization_5fguide_2fproto_2fmodels_2eproto to %"struct.google::protobuf::internal::SCCInfoBase"*)) #13
  br label %4

4:                                                ; preds = %0, %3
  tail call void @llvm.memset.p0i8.i64(i8* align 8 getelementptr inbounds (%"class.optimization_guide::proto::TreeNodeDefaultTypeInternal", %"class.optimization_guide::proto::TreeNodeDefaultTypeInternal"* @_ZN18optimization_guide5proto27_TreeNode_default_instance_E, i64 0, i32 0, i32 0, i32 1, i64 16), i8 0, i64 24, i1 false) #13
  store i32 0, i32* bitcast (i8* getelementptr inbounds (%"class.optimization_guide::proto::TreeNodeDefaultTypeInternal", %"class.optimization_guide::proto::TreeNodeDefaultTypeInternal"* @_ZN18optimization_guide5proto27_TreeNode_default_instance_E, i64 0, i32 0, i32 0, i32 1, i64 48) to i32*), align 8
  tail call void @_ZN6google8protobuf8internal13OnShutdownRunEPFvPKvES3_(void (i8*)* nonnull @_ZN6google8protobuf8internal14DestroyMessageEPKv, i8* bitcast (%"class.optimization_guide::proto::TreeNodeDefaultTypeInternal"* @_ZN18optimization_guide5proto27_TreeNode_default_instance_E to i8*)) #13
  ret void
}

; Function Attrs: nounwind ssp uwtable
define internal void @_ZL85InitDefaultsscc_info_Value_components_2foptimization_5fguide_2fproto_2fmodels_2eprotov() #0 {
  tail call void @_ZN6google8protobuf8internal13VerifyVersionEiiPKc(i32 3013000, i32 3013000, i8* getelementptr inbounds ([53 x i8], [53 x i8]* @.str, i64 0, i64 0)) #13
  store %"class.google::protobuf::Arena"* null, %"class.google::protobuf::Arena"** bitcast (i8* getelementptr inbounds (%"class.optimization_guide::proto::ValueDefaultTypeInternal", %"class.optimization_guide::proto::ValueDefaultTypeInternal"* @_ZN18optimization_guide5proto24_Value_default_instance_E, i64 0, i32 0, i32 0, i32 1, i64 0) to %"class.google::protobuf::Arena"**), align 8
  store i32 (...)** bitcast (i8** getelementptr inbounds ({ [16 x i8*] }, { [16 x i8*] }* @_ZTVN18optimization_guide5proto5ValueE, i64 0, inrange i32 0, i64 2) to i32 (...)**), i32 (...)*** bitcast (%"class.optimization_guide::proto::ValueDefaultTypeInternal"* @_ZN18optimization_guide5proto24_Value_default_instance_E to i32 (...)***), align 8
  store i32 0, i32* bitcast (i8* getelementptr inbounds (%"class.optimization_guide::proto::ValueDefaultTypeInternal", %"class.optimization_guide::proto::ValueDefaultTypeInternal"* @_ZN18optimization_guide5proto24_Value_default_instance_E, i64 0, i32 0, i32 0, i32 1, i64 16) to i32*), align 8
  store i32 0, i32* bitcast (i8* getelementptr inbounds (%"class.optimization_guide::proto::ValueDefaultTypeInternal", %"class.optimization_guide::proto::ValueDefaultTypeInternal"* @_ZN18optimization_guide5proto24_Value_default_instance_E, i64 0, i32 0, i32 0, i32 1, i64 20) to i32*), align 4
  tail call void @_ZN6google8protobuf8internal13OnShutdownRunEPFvPKvES3_(void (i8*)* nonnull @_ZN6google8protobuf8internal14DestroyMessageEPKv, i8* bitcast (%"class.optimization_guide::proto::ValueDefaultTypeInternal"* @_ZN18optimization_guide5proto24_Value_default_instance_E to i8*)) #13
  ret void
}

; Function Attrs: nounwind ssp uwtable
define internal void @_ZL86InitDefaultsscc_info_Vector_components_2foptimization_5fguide_2fproto_2fmodels_2eprotov() #0 {
  tail call void @_ZN6google8protobuf8internal13VerifyVersionEiiPKc(i32 3013000, i32 3013000, i8* getelementptr inbounds ([53 x i8], [53 x i8]* @.str, i64 0, i64 0)) #13
  store %"class.google::protobuf::Arena"* null, %"class.google::protobuf::Arena"** bitcast (i8* getelementptr inbounds (%"class.optimization_guide::proto::VectorDefaultTypeInternal", %"class.optimization_guide::proto::VectorDefaultTypeInternal"* @_ZN18optimization_guide5proto25_Vector_default_instance_E, i64 0, i32 0, i32 0, i32 1, i64 0) to %"class.google::protobuf::Arena"**), align 8
  store i32 (...)** bitcast (i8** getelementptr inbounds ({ [16 x i8*] }, { [16 x i8*] }* @_ZTVN18optimization_guide5proto6VectorE, i64 0, inrange i32 0, i64 2) to i32 (...)**), i32 (...)*** bitcast (%"class.optimization_guide::proto::VectorDefaultTypeInternal"* @_ZN18optimization_guide5proto25_Vector_default_instance_E to i32 (...)***), align 8
  tail call void @llvm.memset.p0i8.i64(i8* align 8 getelementptr inbounds (%"class.optimization_guide::proto::VectorDefaultTypeInternal", %"class.optimization_guide::proto::VectorDefaultTypeInternal"* @_ZN18optimization_guide5proto25_Vector_default_instance_E, i64 0, i32 0, i32 0, i32 1, i64 8), i8 0, i64 28, i1 false) #13
  %1 = load atomic i32, i32* getelementptr inbounds ({ { { { i32 } }, i32, i32, void ()* }, [1 x i8*] }, { { { { i32 } }, i32, i32, void ()* }, [1 x i8*] }* @scc_info_Vector_components_2foptimization_5fguide_2fproto_2fmodels_2eproto, i64 0, i32 0, i32 0, i32 0, i32 0) acquire, align 8
  %2 = icmp eq i32 %1, 0
  br i1 %2, label %4, label %3, !prof !2

3:                                                ; preds = %0
  tail call void @_ZN6google8protobuf8internal11InitSCCImplEPNS1_11SCCInfoBaseE(%"struct.google::protobuf::internal::SCCInfoBase"* bitcast ({ { { { i32 } }, i32, i32, void ()* }, [1 x i8*] }* @scc_info_Vector_components_2foptimization_5fguide_2fproto_2fmodels_2eproto to %"struct.google::protobuf::internal::SCCInfoBase"*)) #13
  br label %4

4:                                                ; preds = %0, %3
  tail call void @_ZN6google8protobuf8internal13OnShutdownRunEPFvPKvES3_(void (i8*)* nonnull @_ZN6google8protobuf8internal14DestroyMessageEPKv, i8* bitcast (%"class.optimization_guide::proto::VectorDefaultTypeInternal"* @_ZN18optimization_guide5proto25_Vector_default_instance_E to i8*)) #13
  ret void
}

; Function Attrs: norecurse nounwind readnone ssp uwtable
define hidden zeroext i1 @_ZN18optimization_guide5proto28BinaryNode_Direction_IsValidEi(i32) local_unnamed_addr #1 {
  %2 = icmp ult i32 %0, 2
  ret i1 %2
}

; Function Attrs: argmemonly nounwind
declare {}* @llvm.invariant.start.p0i8(i64 immarg, i8* nocapture) #2

; Function Attrs: nounwind ssp uwtable
define hidden dereferenceable(24) %"class.std::__1::basic_string"* @_ZN18optimization_guide5proto25BinaryNode_Direction_NameENS0_20BinaryNode_DirectionE(i32) local_unnamed_addr #0 {
  %2 = load atomic i8, i8* bitcast (i64* @_ZGVZN18optimization_guide5proto25BinaryNode_Direction_NameENS0_20BinaryNode_DirectionEE5dummy to i8*) acquire, align 8
  %3 = icmp eq i8 %2, 0
  br i1 %3, label %4, label %11, !prof !3

4:                                                ; preds = %1
  %5 = tail call i32 @__cxa_guard_acquire(i64* nonnull @_ZGVZN18optimization_guide5proto25BinaryNode_Direction_NameENS0_20BinaryNode_DirectionEE5dummy) #13
  %6 = icmp eq i32 %5, 0
  br i1 %6, label %11, label %7

7:                                                ; preds = %4
  %8 = tail call zeroext i1 @_ZN6google8protobuf8internal21InitializeEnumStringsEPKNS1_9EnumEntryEPKimPNS1_21ExplicitlyConstructedINSt3__112basic_stringIcNS8_11char_traitsIcEENS8_9allocatorIcEEEEEE(%"struct.google::protobuf::internal::EnumEntry"* getelementptr inbounds ([2 x %"struct.google::protobuf::internal::EnumEntry"], [2 x %"struct.google::protobuf::internal::EnumEntry"]* @_ZN18optimization_guide5protoL28BinaryNode_Direction_entriesE, i64 0, i64 0), i32* getelementptr inbounds ([2 x i32], [2 x i32]* @_ZN18optimization_guide5protoL38BinaryNode_Direction_entries_by_numberE, i64 0, i64 0), i64 2, %"class.google::protobuf::internal::ExplicitlyConstructed.24"* getelementptr inbounds ([2 x %"class.google::protobuf::internal::ExplicitlyConstructed.24"], [2 x %"class.google::protobuf::internal::ExplicitlyConstructed.24"]* @_ZN18optimization_guide5protoL28BinaryNode_Direction_stringsE, i64 0, i64 0)) #13
  %9 = zext i1 %8 to i8
  store i8 %9, i8* @_ZZN18optimization_guide5proto25BinaryNode_Direction_NameENS0_20BinaryNode_DirectionEE5dummy, align 1
  %10 = tail call {}* @llvm.invariant.start.p0i8(i64 1, i8* nonnull @_ZZN18optimization_guide5proto25BinaryNode_Direction_NameENS0_20BinaryNode_DirectionEE5dummy)
  tail call void @__cxa_guard_release(i64* nonnull @_ZGVZN18optimization_guide5proto25BinaryNode_Direction_NameENS0_20BinaryNode_DirectionEE5dummy) #13
  br label %11

11:                                               ; preds = %4, %7, %1
  %12 = tail call i32 @_ZN6google8protobuf8internal14LookUpEnumNameEPKNS1_9EnumEntryEPKimi(%"struct.google::protobuf::internal::EnumEntry"* getelementptr inbounds ([2 x %"struct.google::protobuf::internal::EnumEntry"], [2 x %"struct.google::protobuf::internal::EnumEntry"]* @_ZN18optimization_guide5protoL28BinaryNode_Direction_entriesE, i64 0, i64 0), i32* getelementptr inbounds ([2 x i32], [2 x i32]* @_ZN18optimization_guide5protoL38BinaryNode_Direction_entries_by_numberE, i64 0, i64 0), i64 2, i32 %0) #13
  %13 = icmp eq i32 %12, -1
  br i1 %13, label %14, label %16

14:                                               ; preds = %11
  %15 = tail call dereferenceable(24) %"class.std::__1::basic_string"* @_ZN6google8protobuf8internal14GetEmptyStringEv() #13
  br label %20

16:                                               ; preds = %11
  %17 = sext i32 %12 to i64
  %18 = getelementptr inbounds [2 x %"class.google::protobuf::internal::ExplicitlyConstructed.24"], [2 x %"class.google::protobuf::internal::ExplicitlyConstructed.24"]* @_ZN18optimization_guide5protoL28BinaryNode_Direction_stringsE, i64 0, i64 %17
  %19 = bitcast %"class.google::protobuf::internal::ExplicitlyConstructed.24"* %18 to %"class.std::__1::basic_string"*
  br label %20

20:                                               ; preds = %16, %14
  %21 = phi %"class.std::__1::basic_string"* [ %15, %14 ], [ %19, %16 ]
  ret %"class.std::__1::basic_string"* %21
}

; Function Attrs: nofree nounwind
declare i32 @__cxa_guard_acquire(i64*) local_unnamed_addr #3

declare zeroext i1 @_ZN6google8protobuf8internal21InitializeEnumStringsEPKNS1_9EnumEntryEPKimPNS1_21ExplicitlyConstructedINSt3__112basic_stringIcNS8_11char_traitsIcEENS8_9allocatorIcEEEEEE(%"struct.google::protobuf::internal::EnumEntry"*, i32*, i64, %"class.google::protobuf::internal::ExplicitlyConstructed.24"*) local_unnamed_addr #4

; Function Attrs: nofree nounwind
declare void @__cxa_guard_release(i64*) local_unnamed_addr #3

; Function Attrs: argmemonly nounwind
declare void @llvm.lifetime.start.p0i8(i64 immarg, i8* nocapture) #2

declare i32 @_ZN6google8protobuf8internal14LookUpEnumNameEPKNS1_9EnumEntryEPKimi(%"struct.google::protobuf::internal::EnumEntry"*, i32*, i64, i32) local_unnamed_addr #4

declare dereferenceable(24) %"class.std::__1::basic_string"* @_ZN6google8protobuf8internal14GetEmptyStringEv() local_unnamed_addr #4

; Function Attrs: argmemonly nounwind
declare void @llvm.lifetime.end.p0i8(i64 immarg, i8* nocapture) #2

; Function Attrs: nounwind ssp uwtable
define hidden zeroext i1 @_ZN18optimization_guide5proto26BinaryNode_Direction_ParseERKNSt3__112basic_stringIcNS1_11char_traitsIcEENS1_9allocatorIcEEEEPNS0_20BinaryNode_DirectionE(%"class.std::__1::basic_string"* dereferenceable(24), i32* nocapture) local_unnamed_addr #0 {
  %3 = alloca i32, align 4
  %4 = bitcast i32* %3 to i8*
  call void @llvm.lifetime.start.p0i8(i64 4, i8* nonnull %4) #13
  store i32 -1431655766, i32* %3, align 4
  %5 = bitcast %"class.std::__1::basic_string"* %0 to %"struct.std::__1::basic_string<char, std::__1::char_traits<char>, std::__1::allocator<char> >::__short"*
  %6 = getelementptr inbounds %"struct.std::__1::basic_string<char, std::__1::char_traits<char>, std::__1::allocator<char> >::__short", %"struct.std::__1::basic_string<char, std::__1::char_traits<char>, std::__1::allocator<char> >::__short"* %5, i64 0, i32 1, i32 0
  %7 = load i8, i8* %6, align 1
  %8 = icmp slt i8 %7, 0
  %9 = getelementptr inbounds %"class.std::__1::basic_string", %"class.std::__1::basic_string"* %0, i64 0, i32 0, i32 0, i32 0, i32 0, i32 0, i32 0
  %10 = load i8*, i8** %9, align 8
  %11 = bitcast %"class.std::__1::basic_string"* %0 to i8*
  %12 = select i1 %8, i8* %10, i8* %11
  br i1 %8, label %15, label %13

13:                                               ; preds = %2
  %14 = zext i8 %7 to i64
  br label %20

15:                                               ; preds = %2
  %16 = getelementptr inbounds %"class.std::__1::basic_string", %"class.std::__1::basic_string"* %0, i64 0, i32 0, i32 0, i32 0, i32 0, i32 0, i32 1
  %17 = load i64, i64* %16, align 8
  %18 = icmp slt i64 %17, 0
  br i1 %18, label %19, label %20

19:                                               ; preds = %15
  tail call void @_ZN6google8protobuf11StringPiece18LogFatalSizeTooBigEmPKc(i64 %17, i8* getelementptr inbounds ([25 x i8], [25 x i8]* @.str.74, i64 0, i64 0)) #13
  br label %20

20:                                               ; preds = %13, %15, %19
  %21 = phi i64 [ %14, %13 ], [ %17, %15 ], [ %17, %19 ]
  %22 = call zeroext i1 @_ZN6google8protobuf8internal15LookUpEnumValueEPKNS1_9EnumEntryEmNS0_11StringPieceEPi(%"struct.google::protobuf::internal::EnumEntry"* getelementptr inbounds ([2 x %"struct.google::protobuf::internal::EnumEntry"], [2 x %"struct.google::protobuf::internal::EnumEntry"]* @_ZN18optimization_guide5protoL28BinaryNode_Direction_entriesE, i64 0, i64 0), i64 2, i8* %12, i64 %21, i32* nonnull %3) #13
  br i1 %22, label %23, label %25

23:                                               ; preds = %20
  %24 = load i32, i32* %3, align 4
  store i32 %24, i32* %1, align 4
  br label %25

25:                                               ; preds = %23, %20
  call void @llvm.lifetime.end.p0i8(i64 4, i8* nonnull %4) #13
  ret i1 %22
}

declare zeroext i1 @_ZN6google8protobuf8internal15LookUpEnumValueEPKNS1_9EnumEntryEmNS0_11StringPieceEPi(%"struct.google::protobuf::internal::EnumEntry"*, i64, i8*, i64, i32*) local_unnamed_addr #4

; Function Attrs: norecurse nounwind readnone ssp uwtable
define hidden zeroext i1 @_ZN18optimization_guide5proto27InequalityTest_Type_IsValidEi(i32) local_unnamed_addr #1 {
  %2 = icmp ult i32 %0, 4
  ret i1 %2
}

; Function Attrs: nounwind ssp uwtable
define hidden dereferenceable(24) %"class.std::__1::basic_string"* @_ZN18optimization_guide5proto24InequalityTest_Type_NameENS0_19InequalityTest_TypeE(i32) local_unnamed_addr #0 {
  %2 = load atomic i8, i8* bitcast (i64* @_ZGVZN18optimization_guide5proto24InequalityTest_Type_NameENS0_19InequalityTest_TypeEE5dummy to i8*) acquire, align 8
  %3 = icmp eq i8 %2, 0
  br i1 %3, label %4, label %11, !prof !3

4:                                                ; preds = %1
  %5 = tail call i32 @__cxa_guard_acquire(i64* nonnull @_ZGVZN18optimization_guide5proto24InequalityTest_Type_NameENS0_19InequalityTest_TypeEE5dummy) #13
  %6 = icmp eq i32 %5, 0
  br i1 %6, label %11, label %7

7:                                                ; preds = %4
  %8 = tail call zeroext i1 @_ZN6google8protobuf8internal21InitializeEnumStringsEPKNS1_9EnumEntryEPKimPNS1_21ExplicitlyConstructedINSt3__112basic_stringIcNS8_11char_traitsIcEENS8_9allocatorIcEEEEEE(%"struct.google::protobuf::internal::EnumEntry"* getelementptr inbounds ([4 x %"struct.google::protobuf::internal::EnumEntry"], [4 x %"struct.google::protobuf::internal::EnumEntry"]* @_ZN18optimization_guide5protoL27InequalityTest_Type_entriesE, i64 0, i64 0), i32* getelementptr inbounds ([4 x i32], [4 x i32]* @_ZN18optimization_guide5protoL37InequalityTest_Type_entries_by_numberE, i64 0, i64 0), i64 4, %"class.google::protobuf::internal::ExplicitlyConstructed.24"* getelementptr inbounds ([4 x %"class.google::protobuf::internal::ExplicitlyConstructed.24"], [4 x %"class.google::protobuf::internal::ExplicitlyConstructed.24"]* @_ZN18optimization_guide5protoL27InequalityTest_Type_stringsE, i64 0, i64 0)) #13
  %9 = zext i1 %8 to i8
  store i8 %9, i8* @_ZZN18optimization_guide5proto24InequalityTest_Type_NameENS0_19InequalityTest_TypeEE5dummy, align 1
  %10 = tail call {}* @llvm.invariant.start.p0i8(i64 1, i8* nonnull @_ZZN18optimization_guide5proto24InequalityTest_Type_NameENS0_19InequalityTest_TypeEE5dummy)
  tail call void @__cxa_guard_release(i64* nonnull @_ZGVZN18optimization_guide5proto24InequalityTest_Type_NameENS0_19InequalityTest_TypeEE5dummy) #13
  br label %11

11:                                               ; preds = %4, %7, %1
  %12 = tail call i32 @_ZN6google8protobuf8internal14LookUpEnumNameEPKNS1_9EnumEntryEPKimi(%"struct.google::protobuf::internal::EnumEntry"* getelementptr inbounds ([4 x %"struct.google::protobuf::internal::EnumEntry"], [4 x %"struct.google::protobuf::internal::EnumEntry"]* @_ZN18optimization_guide5protoL27InequalityTest_Type_entriesE, i64 0, i64 0), i32* getelementptr inbounds ([4 x i32], [4 x i32]* @_ZN18optimization_guide5protoL37InequalityTest_Type_entries_by_numberE, i64 0, i64 0), i64 4, i32 %0) #13
  %13 = icmp eq i32 %12, -1
  br i1 %13, label %14, label %16

14:                                               ; preds = %11
  %15 = tail call dereferenceable(24) %"class.std::__1::basic_string"* @_ZN6google8protobuf8internal14GetEmptyStringEv() #13
  br label %20

16:                                               ; preds = %11
  %17 = sext i32 %12 to i64
  %18 = getelementptr inbounds [4 x %"class.google::protobuf::internal::ExplicitlyConstructed.24"], [4 x %"class.google::protobuf::internal::ExplicitlyConstructed.24"]* @_ZN18optimization_guide5protoL27InequalityTest_Type_stringsE, i64 0, i64 %17
  %19 = bitcast %"class.google::protobuf::internal::ExplicitlyConstructed.24"* %18 to %"class.std::__1::basic_string"*
  br label %20

20:                                               ; preds = %16, %14
  %21 = phi %"class.std::__1::basic_string"* [ %15, %14 ], [ %19, %16 ]
  ret %"class.std::__1::basic_string"* %21
}

; Function Attrs: nounwind ssp uwtable
define hidden zeroext i1 @_ZN18optimization_guide5proto25InequalityTest_Type_ParseERKNSt3__112basic_stringIcNS1_11char_traitsIcEENS1_9allocatorIcEEEEPNS0_19InequalityTest_TypeE(%"class.std::__1::basic_string"* dereferenceable(24), i32* nocapture) local_unnamed_addr #0 {
  %3 = alloca i32, align 4
  %4 = bitcast i32* %3 to i8*
  call void @llvm.lifetime.start.p0i8(i64 4, i8* nonnull %4) #13
  store i32 -1431655766, i32* %3, align 4
  %5 = bitcast %"class.std::__1::basic_string"* %0 to %"struct.std::__1::basic_string<char, std::__1::char_traits<char>, std::__1::allocator<char> >::__short"*
  %6 = getelementptr inbounds %"struct.std::__1::basic_string<char, std::__1::char_traits<char>, std::__1::allocator<char> >::__short", %"struct.std::__1::basic_string<char, std::__1::char_traits<char>, std::__1::allocator<char> >::__short"* %5, i64 0, i32 1, i32 0
  %7 = load i8, i8* %6, align 1
  %8 = icmp slt i8 %7, 0
  %9 = getelementptr inbounds %"class.std::__1::basic_string", %"class.std::__1::basic_string"* %0, i64 0, i32 0, i32 0, i32 0, i32 0, i32 0, i32 0
  %10 = load i8*, i8** %9, align 8
  %11 = bitcast %"class.std::__1::basic_string"* %0 to i8*
  %12 = select i1 %8, i8* %10, i8* %11
  br i1 %8, label %15, label %13

13:                                               ; preds = %2
  %14 = zext i8 %7 to i64
  br label %20

15:                                               ; preds = %2
  %16 = getelementptr inbounds %"class.std::__1::basic_string", %"class.std::__1::basic_string"* %0, i64 0, i32 0, i32 0, i32 0, i32 0, i32 0, i32 1
  %17 = load i64, i64* %16, align 8
  %18 = icmp slt i64 %17, 0
  br i1 %18, label %19, label %20

19:                                               ; preds = %15
  tail call void @_ZN6google8protobuf11StringPiece18LogFatalSizeTooBigEmPKc(i64 %17, i8* getelementptr inbounds ([25 x i8], [25 x i8]* @.str.74, i64 0, i64 0)) #13
  br label %20

20:                                               ; preds = %13, %15, %19
  %21 = phi i64 [ %14, %13 ], [ %17, %15 ], [ %17, %19 ]
  %22 = call zeroext i1 @_ZN6google8protobuf8internal15LookUpEnumValueEPKNS1_9EnumEntryEmNS0_11StringPieceEPi(%"struct.google::protobuf::internal::EnumEntry"* getelementptr inbounds ([4 x %"struct.google::protobuf::internal::EnumEntry"], [4 x %"struct.google::protobuf::internal::EnumEntry"]* @_ZN18optimization_guide5protoL27InequalityTest_Type_entriesE, i64 0, i64 0), i64 4, i8* %12, i64 %21, i32* nonnull %3) #13
  br i1 %22, label %23, label %25

23:                                               ; preds = %20
  %24 = load i32, i32* %3, align 4
  store i32 %24, i32* %1, align 4
  br label %25

25:                                               ; preds = %23, %20
  call void @llvm.lifetime.end.p0i8(i64 4, i8* nonnull %4) #13
  ret i1 %22
}

; Function Attrs: norecurse nounwind readnone ssp uwtable
define hidden zeroext i1 @_ZN18optimization_guide5proto26OptimizationTarget_IsValidEi(i32) local_unnamed_addr #1 {
  %2 = icmp ult i32 %0, 4
  ret i1 %2
}

; Function Attrs: nounwind ssp uwtable
define hidden dereferenceable(24) %"class.std::__1::basic_string"* @_ZN18optimization_guide5proto23OptimizationTarget_NameENS0_18OptimizationTargetE(i32) local_unnamed_addr #0 {
  %2 = load atomic i8, i8* bitcast (i64* @_ZGVZN18optimization_guide5proto23OptimizationTarget_NameENS0_18OptimizationTargetEE5dummy to i8*) acquire, align 8
  %3 = icmp eq i8 %2, 0
  br i1 %3, label %4, label %11, !prof !3

4:                                                ; preds = %1
  %5 = tail call i32 @__cxa_guard_acquire(i64* nonnull @_ZGVZN18optimization_guide5proto23OptimizationTarget_NameENS0_18OptimizationTargetEE5dummy) #13
  %6 = icmp eq i32 %5, 0
  br i1 %6, label %11, label %7

7:                                                ; preds = %4
  %8 = tail call zeroext i1 @_ZN6google8protobuf8internal21InitializeEnumStringsEPKNS1_9EnumEntryEPKimPNS1_21ExplicitlyConstructedINSt3__112basic_stringIcNS8_11char_traitsIcEENS8_9allocatorIcEEEEEE(%"struct.google::protobuf::internal::EnumEntry"* getelementptr inbounds ([4 x %"struct.google::protobuf::internal::EnumEntry"], [4 x %"struct.google::protobuf::internal::EnumEntry"]* @_ZN18optimization_guide5protoL26OptimizationTarget_entriesE, i64 0, i64 0), i32* getelementptr inbounds ([4 x i32], [4 x i32]* @_ZN18optimization_guide5protoL36OptimizationTarget_entries_by_numberE, i64 0, i64 0), i64 4, %"class.google::protobuf::internal::ExplicitlyConstructed.24"* getelementptr inbounds ([4 x %"class.google::protobuf::internal::ExplicitlyConstructed.24"], [4 x %"class.google::protobuf::internal::ExplicitlyConstructed.24"]* @_ZN18optimization_guide5protoL26OptimizationTarget_stringsE, i64 0, i64 0)) #13
  %9 = zext i1 %8 to i8
  store i8 %9, i8* @_ZZN18optimization_guide5proto23OptimizationTarget_NameENS0_18OptimizationTargetEE5dummy, align 1
  %10 = tail call {}* @llvm.invariant.start.p0i8(i64 1, i8* nonnull @_ZZN18optimization_guide5proto23OptimizationTarget_NameENS0_18OptimizationTargetEE5dummy)
  tail call void @__cxa_guard_release(i64* nonnull @_ZGVZN18optimization_guide5proto23OptimizationTarget_NameENS0_18OptimizationTargetEE5dummy) #13
  br label %11

11:                                               ; preds = %4, %7, %1
  %12 = tail call i32 @_ZN6google8protobuf8internal14LookUpEnumNameEPKNS1_9EnumEntryEPKimi(%"struct.google::protobuf::internal::EnumEntry"* getelementptr inbounds ([4 x %"struct.google::protobuf::internal::EnumEntry"], [4 x %"struct.google::protobuf::internal::EnumEntry"]* @_ZN18optimization_guide5protoL26OptimizationTarget_entriesE, i64 0, i64 0), i32* getelementptr inbounds ([4 x i32], [4 x i32]* @_ZN18optimization_guide5protoL36OptimizationTarget_entries_by_numberE, i64 0, i64 0), i64 4, i32 %0) #13
  %13 = icmp eq i32 %12, -1
  br i1 %13, label %14, label %16

14:                                               ; preds = %11
  %15 = tail call dereferenceable(24) %"class.std::__1::basic_string"* @_ZN6google8protobuf8internal14GetEmptyStringEv() #13
  br label %20

16:                                               ; preds = %11
  %17 = sext i32 %12 to i64
  %18 = getelementptr inbounds [4 x %"class.google::protobuf::internal::ExplicitlyConstructed.24"], [4 x %"class.google::protobuf::internal::ExplicitlyConstructed.24"]* @_ZN18optimization_guide5protoL26OptimizationTarget_stringsE, i64 0, i64 %17
  %19 = bitcast %"class.google::protobuf::internal::ExplicitlyConstructed.24"* %18 to %"class.std::__1::basic_string"*
  br label %20

20:                                               ; preds = %16, %14
  %21 = phi %"class.std::__1::basic_string"* [ %15, %14 ], [ %19, %16 ]
  ret %"class.std::__1::basic_string"* %21
}

; Function Attrs: nounwind ssp uwtable
define hidden zeroext i1 @_ZN18optimization_guide5proto24OptimizationTarget_ParseERKNSt3__112basic_stringIcNS1_11char_traitsIcEENS1_9allocatorIcEEEEPNS0_18OptimizationTargetE(%"class.std::__1::basic_string"* dereferenceable(24), i32* nocapture) local_unnamed_addr #0 {
  %3 = alloca i32, align 4
  %4 = bitcast i32* %3 to i8*
  call void @llvm.lifetime.start.p0i8(i64 4, i8* nonnull %4) #13
  store i32 -1431655766, i32* %3, align 4
  %5 = bitcast %"class.std::__1::basic_string"* %0 to %"struct.std::__1::basic_string<char, std::__1::char_traits<char>, std::__1::allocator<char> >::__short"*
  %6 = getelementptr inbounds %"struct.std::__1::basic_string<char, std::__1::char_traits<char>, std::__1::allocator<char> >::__short", %"struct.std::__1::basic_string<char, std::__1::char_traits<char>, std::__1::allocator<char> >::__short"* %5, i64 0, i32 1, i32 0
  %7 = load i8, i8* %6, align 1
  %8 = icmp slt i8 %7, 0
  %9 = getelementptr inbounds %"class.std::__1::basic_string", %"class.std::__1::basic_string"* %0, i64 0, i32 0, i32 0, i32 0, i32 0, i32 0, i32 0
  %10 = load i8*, i8** %9, align 8
  %11 = bitcast %"class.std::__1::basic_string"* %0 to i8*
  %12 = select i1 %8, i8* %10, i8* %11
  br i1 %8, label %15, label %13

13:                                               ; preds = %2
  %14 = zext i8 %7 to i64
  br label %20

15:                                               ; preds = %2
  %16 = getelementptr inbounds %"class.std::__1::basic_string", %"class.std::__1::basic_string"* %0, i64 0, i32 0, i32 0, i32 0, i32 0, i32 0, i32 1
  %17 = load i64, i64* %16, align 8
  %18 = icmp slt i64 %17, 0
  br i1 %18, label %19, label %20

19:                                               ; preds = %15
  tail call void @_ZN6google8protobuf11StringPiece18LogFatalSizeTooBigEmPKc(i64 %17, i8* getelementptr inbounds ([25 x i8], [25 x i8]* @.str.74, i64 0, i64 0)) #13
  br label %20

20:                                               ; preds = %13, %15, %19
  %21 = phi i64 [ %14, %13 ], [ %17, %15 ], [ %17, %19 ]
  %22 = call zeroext i1 @_ZN6google8protobuf8internal15LookUpEnumValueEPKNS1_9EnumEntryEmNS0_11StringPieceEPi(%"struct.google::protobuf::internal::EnumEntry"* getelementptr inbounds ([4 x %"struct.google::protobuf::internal::EnumEntry"], [4 x %"struct.google::protobuf::internal::EnumEntry"]* @_ZN18optimization_guide5protoL26OptimizationTarget_entriesE, i64 0, i64 0), i64 4, i8* %12, i64 %21, i32* nonnull %3) #13
  br i1 %22, label %23, label %25

23:                                               ; preds = %20
  %24 = load i32, i32* %3, align 4
  store i32 %24, i32* %1, align 4
  br label %25

25:                                               ; preds = %23, %20
  call void @llvm.lifetime.end.p0i8(i64 4, i8* nonnull %4) #13
  ret i1 %22
}

; Function Attrs: norecurse nounwind readnone ssp uwtable
define hidden zeroext i1 @_ZN18optimization_guide5proto17ModelType_IsValidEi(i32) #1 {
  %2 = icmp ult i32 %0, 3
  ret i1 %2
}

; Function Attrs: nounwind ssp uwtable
define hidden dereferenceable(24) %"class.std::__1::basic_string"* @_ZN18optimization_guide5proto14ModelType_NameENS0_9ModelTypeE(i32) local_unnamed_addr #0 {
  %2 = load atomic i8, i8* bitcast (i64* @_ZGVZN18optimization_guide5proto14ModelType_NameENS0_9ModelTypeEE5dummy to i8*) acquire, align 8
  %3 = icmp eq i8 %2, 0
  br i1 %3, label %4, label %11, !prof !3

4:                                                ; preds = %1
  %5 = tail call i32 @__cxa_guard_acquire(i64* nonnull @_ZGVZN18optimization_guide5proto14ModelType_NameENS0_9ModelTypeEE5dummy) #13
  %6 = icmp eq i32 %5, 0
  br i1 %6, label %11, label %7

7:                                                ; preds = %4
  %8 = tail call zeroext i1 @_ZN6google8protobuf8internal21InitializeEnumStringsEPKNS1_9EnumEntryEPKimPNS1_21ExplicitlyConstructedINSt3__112basic_stringIcNS8_11char_traitsIcEENS8_9allocatorIcEEEEEE(%"struct.google::protobuf::internal::EnumEntry"* getelementptr inbounds ([3 x %"struct.google::protobuf::internal::EnumEntry"], [3 x %"struct.google::protobuf::internal::EnumEntry"]* @_ZN18optimization_guide5protoL17ModelType_entriesE, i64 0, i64 0), i32* getelementptr inbounds ([3 x i32], [3 x i32]* @_ZN18optimization_guide5protoL27ModelType_entries_by_numberE, i64 0, i64 0), i64 3, %"class.google::protobuf::internal::ExplicitlyConstructed.24"* getelementptr inbounds ([3 x %"class.google::protobuf::internal::ExplicitlyConstructed.24"], [3 x %"class.google::protobuf::internal::ExplicitlyConstructed.24"]* @_ZN18optimization_guide5protoL17ModelType_stringsE, i64 0, i64 0)) #13
  %9 = zext i1 %8 to i8
  store i8 %9, i8* @_ZZN18optimization_guide5proto14ModelType_NameENS0_9ModelTypeEE5dummy, align 1
  %10 = tail call {}* @llvm.invariant.start.p0i8(i64 1, i8* nonnull @_ZZN18optimization_guide5proto14ModelType_NameENS0_9ModelTypeEE5dummy)
  tail call void @__cxa_guard_release(i64* nonnull @_ZGVZN18optimization_guide5proto14ModelType_NameENS0_9ModelTypeEE5dummy) #13
  br label %11

11:                                               ; preds = %4, %7, %1
  %12 = tail call i32 @_ZN6google8protobuf8internal14LookUpEnumNameEPKNS1_9EnumEntryEPKimi(%"struct.google::protobuf::internal::EnumEntry"* getelementptr inbounds ([3 x %"struct.google::protobuf::internal::EnumEntry"], [3 x %"struct.google::protobuf::internal::EnumEntry"]* @_ZN18optimization_guide5protoL17ModelType_entriesE, i64 0, i64 0), i32* getelementptr inbounds ([3 x i32], [3 x i32]* @_ZN18optimization_guide5protoL27ModelType_entries_by_numberE, i64 0, i64 0), i64 3, i32 %0) #13
  %13 = icmp eq i32 %12, -1
  br i1 %13, label %14, label %16

14:                                               ; preds = %11
  %15 = tail call dereferenceable(24) %"class.std::__1::basic_string"* @_ZN6google8protobuf8internal14GetEmptyStringEv() #13
  br label %20

16:                                               ; preds = %11
  %17 = sext i32 %12 to i64
  %18 = getelementptr inbounds [3 x %"class.google::protobuf::internal::ExplicitlyConstructed.24"], [3 x %"class.google::protobuf::internal::ExplicitlyConstructed.24"]* @_ZN18optimization_guide5protoL17ModelType_stringsE, i64 0, i64 %17
  %19 = bitcast %"class.google::protobuf::internal::ExplicitlyConstructed.24"* %18 to %"class.std::__1::basic_string"*
  br label %20

20:                                               ; preds = %16, %14
  %21 = phi %"class.std::__1::basic_string"* [ %15, %14 ], [ %19, %16 ]
  ret %"class.std::__1::basic_string"* %21
}

; Function Attrs: nounwind ssp uwtable
define hidden zeroext i1 @_ZN18optimization_guide5proto15ModelType_ParseERKNSt3__112basic_stringIcNS1_11char_traitsIcEENS1_9allocatorIcEEEEPNS0_9ModelTypeE(%"class.std::__1::basic_string"* dereferenceable(24), i32* nocapture) local_unnamed_addr #0 {
  %3 = alloca i32, align 4
  %4 = bitcast i32* %3 to i8*
  call void @llvm.lifetime.start.p0i8(i64 4, i8* nonnull %4) #13
  store i32 -1431655766, i32* %3, align 4
  %5 = bitcast %"class.std::__1::basic_string"* %0 to %"struct.std::__1::basic_string<char, std::__1::char_traits<char>, std::__1::allocator<char> >::__short"*
  %6 = getelementptr inbounds %"struct.std::__1::basic_string<char, std::__1::char_traits<char>, std::__1::allocator<char> >::__short", %"struct.std::__1::basic_string<char, std::__1::char_traits<char>, std::__1::allocator<char> >::__short"* %5, i64 0, i32 1, i32 0
  %7 = load i8, i8* %6, align 1
  %8 = icmp slt i8 %7, 0
  %9 = getelementptr inbounds %"class.std::__1::basic_string", %"class.std::__1::basic_string"* %0, i64 0, i32 0, i32 0, i32 0, i32 0, i32 0, i32 0
  %10 = load i8*, i8** %9, align 8
  %11 = bitcast %"class.std::__1::basic_string"* %0 to i8*
  %12 = select i1 %8, i8* %10, i8* %11
  br i1 %8, label %15, label %13

13:                                               ; preds = %2
  %14 = zext i8 %7 to i64
  br label %20

15:                                               ; preds = %2
  %16 = getelementptr inbounds %"class.std::__1::basic_string", %"class.std::__1::basic_string"* %0, i64 0, i32 0, i32 0, i32 0, i32 0, i32 0, i32 1
  %17 = load i64, i64* %16, align 8
  %18 = icmp slt i64 %17, 0
  br i1 %18, label %19, label %20

19:                                               ; preds = %15
  tail call void @_ZN6google8protobuf11StringPiece18LogFatalSizeTooBigEmPKc(i64 %17, i8* getelementptr inbounds ([25 x i8], [25 x i8]* @.str.74, i64 0, i64 0)) #13
  br label %20

20:                                               ; preds = %13, %15, %19
  %21 = phi i64 [ %14, %13 ], [ %17, %15 ], [ %17, %19 ]
  %22 = call zeroext i1 @_ZN6google8protobuf8internal15LookUpEnumValueEPKNS1_9EnumEntryEmNS0_11StringPieceEPi(%"struct.google::protobuf::internal::EnumEntry"* getelementptr inbounds ([3 x %"struct.google::protobuf::internal::EnumEntry"], [3 x %"struct.google::protobuf::internal::EnumEntry"]* @_ZN18optimization_guide5protoL17ModelType_entriesE, i64 0, i64 0), i64 3, i8* %12, i64 %21, i32* nonnull %3) #13
  br i1 %22, label %23, label %25

23:                                               ; preds = %20
  %24 = load i32, i32* %3, align 4
  store i32 %24, i32* %1, align 4
  br label %25

25:                                               ; preds = %23, %20
  call void @llvm.lifetime.end.p0i8(i64 4, i8* nonnull %4) #13
  ret i1 %22
}

; Function Attrs: norecurse nounwind readonly ssp uwtable
define hidden dereferenceable(56) %"class.optimization_guide::proto::DecisionTree"* @_ZN18optimization_guide5proto5Model9_Internal13decision_treeEPKS1_(%"class.optimization_guide::proto::Model"* nocapture readonly) local_unnamed_addr #5 align 2 {
  %2 = getelementptr inbounds %"class.optimization_guide::proto::Model", %"class.optimization_guide::proto::Model"* %0, i64 0, i32 4, i32 0
  %3 = load %"class.optimization_guide::proto::DecisionTree"*, %"class.optimization_guide::proto::DecisionTree"** %2, align 8
  ret %"class.optimization_guide::proto::DecisionTree"* %3
}

; Function Attrs: norecurse nounwind readonly ssp uwtable
define hidden dereferenceable(48) %"class.optimization_guide::proto::Ensemble"* @_ZN18optimization_guide5proto5Model9_Internal8ensembleEPKS1_(%"class.optimization_guide::proto::Model"* nocapture readonly) local_unnamed_addr #5 align 2 {
  %2 = getelementptr inbounds %"class.optimization_guide::proto::Model", %"class.optimization_guide::proto::Model"* %0, i64 0, i32 4
  %3 = bitcast %"union.optimization_guide::proto::Model::ModelUnion"* %2 to %"class.optimization_guide::proto::Ensemble"**
  %4 = load %"class.optimization_guide::proto::Ensemble"*, %"class.optimization_guide::proto::Ensemble"** %3, align 8
  ret %"class.optimization_guide::proto::Ensemble"* %4
}

; Function Attrs: norecurse nounwind readonly ssp uwtable
define hidden dereferenceable(32) %"class.optimization_guide::proto::DoubleValue"* @_ZN18optimization_guide5proto5Model9_Internal9thresholdEPKS1_(%"class.optimization_guide::proto::Model"* nocapture readonly) local_unnamed_addr #5 align 2 {
  %2 = getelementptr inbounds %"class.optimization_guide::proto::Model", %"class.optimization_guide::proto::Model"* %0, i64 0, i32 3
  %3 = load %"class.optimization_guide::proto::DoubleValue"*, %"class.optimization_guide::proto::DoubleValue"** %2, align 8
  ret %"class.optimization_guide::proto::DoubleValue"* %3
}

; Function Attrs: nounwind ssp uwtable
define hidden void @_ZN18optimization_guide5proto5Model27set_allocated_decision_treeEPNS0_12DecisionTreeE(%"class.optimization_guide::proto::Model"* nocapture, %"class.optimization_guide::proto::DecisionTree"*) local_unnamed_addr #0 align 2 {
  %3 = getelementptr inbounds %"class.optimization_guide::proto::Model", %"class.optimization_guide::proto::Model"* %0, i64 0, i32 0, i32 1
  %4 = bitcast %"class.google::protobuf::internal::InternalMetadata"* %3 to i64*
  %5 = load i64, i64* %4, align 8
  %6 = and i64 %5, 1
  %7 = icmp eq i64 %6, 0
  %8 = and i64 %5, -2
  br i1 %7, label %13, label %9, !prof !2

9:                                                ; preds = %2
  %10 = inttoptr i64 %8 to %"struct.google::protobuf::internal::InternalMetadata::ContainerBase"*
  %11 = getelementptr inbounds %"struct.google::protobuf::internal::InternalMetadata::ContainerBase", %"struct.google::protobuf::internal::InternalMetadata::ContainerBase"* %10, i64 0, i32 0
  %12 = load %"class.google::protobuf::Arena"*, %"class.google::protobuf::Arena"** %11, align 8
  br label %15

13:                                               ; preds = %2
  %14 = inttoptr i64 %8 to %"class.google::protobuf::Arena"*
  br label %15

15:                                               ; preds = %9, %13
  %16 = phi %"class.google::protobuf::Arena"* [ %12, %9 ], [ %14, %13 ]
  tail call void @_ZN18optimization_guide5proto5Model11clear_modelEv(%"class.optimization_guide::proto::Model"* %0)
  %17 = icmp eq %"class.optimization_guide::proto::DecisionTree"* %1, null
  br i1 %17, label %42, label %18

18:                                               ; preds = %15
  %19 = getelementptr inbounds %"class.optimization_guide::proto::DecisionTree", %"class.optimization_guide::proto::DecisionTree"* %1, i64 0, i32 0, i32 1
  %20 = bitcast %"class.google::protobuf::internal::InternalMetadata"* %19 to i64*
  %21 = load i64, i64* %20, align 8
  %22 = and i64 %21, 1
  %23 = icmp eq i64 %22, 0
  %24 = and i64 %21, -2
  br i1 %23, label %29, label %25, !prof !2

25:                                               ; preds = %18
  %26 = inttoptr i64 %24 to %"struct.google::protobuf::internal::InternalMetadata::ContainerBase"*
  %27 = getelementptr inbounds %"struct.google::protobuf::internal::InternalMetadata::ContainerBase", %"struct.google::protobuf::internal::InternalMetadata::ContainerBase"* %26, i64 0, i32 0
  %28 = load %"class.google::protobuf::Arena"*, %"class.google::protobuf::Arena"** %27, align 8
  br label %31

29:                                               ; preds = %18
  %30 = inttoptr i64 %24 to %"class.google::protobuf::Arena"*
  br label %31

31:                                               ; preds = %25, %29
  %32 = phi %"class.google::protobuf::Arena"* [ %28, %25 ], [ %30, %29 ]
  %33 = icmp eq %"class.google::protobuf::Arena"* %16, %32
  br i1 %33, label %38, label %34

34:                                               ; preds = %31
  %35 = getelementptr inbounds %"class.optimization_guide::proto::DecisionTree", %"class.optimization_guide::proto::DecisionTree"* %1, i64 0, i32 0
  %36 = tail call %"class.google::protobuf::MessageLite"* @_ZN6google8protobuf8internal23GetOwnedMessageInternalEPNS0_5ArenaEPNS0_11MessageLiteES3_(%"class.google::protobuf::Arena"* %16, %"class.google::protobuf::MessageLite"* %35, %"class.google::protobuf::Arena"* %32) #13
  %37 = bitcast %"class.google::protobuf::MessageLite"* %36 to %"class.optimization_guide::proto::DecisionTree"*
  br label %38

38:                                               ; preds = %31, %34
  %39 = phi %"class.optimization_guide::proto::DecisionTree"* [ %37, %34 ], [ %1, %31 ]
  %40 = getelementptr inbounds %"class.optimization_guide::proto::Model", %"class.optimization_guide::proto::Model"* %0, i64 0, i32 5, i64 0
  store i32 1, i32* %40, align 8
  %41 = getelementptr inbounds %"class.optimization_guide::proto::Model", %"class.optimization_guide::proto::Model"* %0, i64 0, i32 4, i32 0
  store %"class.optimization_guide::proto::DecisionTree"* %39, %"class.optimization_guide::proto::DecisionTree"** %41, align 8
  br label %42

42:                                               ; preds = %15, %38
  ret void
}

; Function Attrs: nounwind ssp uwtable
define hidden void @_ZN18optimization_guide5proto5Model11clear_modelEv(%"class.optimization_guide::proto::Model"* nocapture) local_unnamed_addr #0 align 2 {
  %2 = getelementptr inbounds %"class.optimization_guide::proto::Model", %"class.optimization_guide::proto::Model"* %0, i64 0, i32 5, i64 0
  %3 = load i32, i32* %2, align 8
  switch i32 %3, label %88 [
    i32 1, label %4
    i32 2, label %29
    i32 5, label %55
  ]

4:                                                ; preds = %1
  %5 = getelementptr inbounds %"class.optimization_guide::proto::Model", %"class.optimization_guide::proto::Model"* %0, i64 0, i32 0, i32 1
  %6 = bitcast %"class.google::protobuf::internal::InternalMetadata"* %5 to i64*
  %7 = load i64, i64* %6, align 8
  %8 = and i64 %7, 1
  %9 = icmp eq i64 %8, 0
  %10 = and i64 %7, -2
  br i1 %9, label %15, label %11, !prof !2

11:                                               ; preds = %4
  %12 = inttoptr i64 %10 to %"struct.google::protobuf::internal::InternalMetadata::ContainerBase"*
  %13 = getelementptr inbounds %"struct.google::protobuf::internal::InternalMetadata::ContainerBase", %"struct.google::protobuf::internal::InternalMetadata::ContainerBase"* %12, i64 0, i32 0
  %14 = load %"class.google::protobuf::Arena"*, %"class.google::protobuf::Arena"** %13, align 8
  br label %17

15:                                               ; preds = %4
  %16 = inttoptr i64 %10 to %"class.google::protobuf::Arena"*
  br label %17

17:                                               ; preds = %11, %15
  %18 = phi %"class.google::protobuf::Arena"* [ %14, %11 ], [ %16, %15 ]
  %19 = icmp eq %"class.google::protobuf::Arena"* %18, null
  br i1 %19, label %20, label %88

20:                                               ; preds = %17
  %21 = getelementptr inbounds %"class.optimization_guide::proto::Model", %"class.optimization_guide::proto::Model"* %0, i64 0, i32 4, i32 0
  %22 = load %"class.optimization_guide::proto::DecisionTree"*, %"class.optimization_guide::proto::DecisionTree"** %21, align 8
  %23 = icmp eq %"class.optimization_guide::proto::DecisionTree"* %22, null
  br i1 %23, label %88, label %24

24:                                               ; preds = %20
  %25 = bitcast %"class.optimization_guide::proto::DecisionTree"* %22 to void (%"class.optimization_guide::proto::DecisionTree"*)***
  %26 = load void (%"class.optimization_guide::proto::DecisionTree"*)**, void (%"class.optimization_guide::proto::DecisionTree"*)*** %25, align 8
  %27 = getelementptr inbounds void (%"class.optimization_guide::proto::DecisionTree"*)*, void (%"class.optimization_guide::proto::DecisionTree"*)** %26, i64 1
  %28 = load void (%"class.optimization_guide::proto::DecisionTree"*)*, void (%"class.optimization_guide::proto::DecisionTree"*)** %27, align 8
  tail call void %28(%"class.optimization_guide::proto::DecisionTree"* nonnull %22) #13
  br label %88

29:                                               ; preds = %1
  %30 = getelementptr inbounds %"class.optimization_guide::proto::Model", %"class.optimization_guide::proto::Model"* %0, i64 0, i32 0, i32 1
  %31 = bitcast %"class.google::protobuf::internal::InternalMetadata"* %30 to i64*
  %32 = load i64, i64* %31, align 8
  %33 = and i64 %32, 1
  %34 = icmp eq i64 %33, 0
  %35 = and i64 %32, -2
  br i1 %34, label %40, label %36, !prof !2

36:                                               ; preds = %29
  %37 = inttoptr i64 %35 to %"struct.google::protobuf::internal::InternalMetadata::ContainerBase"*
  %38 = getelementptr inbounds %"struct.google::protobuf::internal::InternalMetadata::ContainerBase", %"struct.google::protobuf::internal::InternalMetadata::ContainerBase"* %37, i64 0, i32 0
  %39 = load %"class.google::protobuf::Arena"*, %"class.google::protobuf::Arena"** %38, align 8
  br label %42

40:                                               ; preds = %29
  %41 = inttoptr i64 %35 to %"class.google::protobuf::Arena"*
  br label %42

42:                                               ; preds = %36, %40
  %43 = phi %"class.google::protobuf::Arena"* [ %39, %36 ], [ %41, %40 ]
  %44 = icmp eq %"class.google::protobuf::Arena"* %43, null
  br i1 %44, label %45, label %88

45:                                               ; preds = %42
  %46 = getelementptr inbounds %"class.optimization_guide::proto::Model", %"class.optimization_guide::proto::Model"* %0, i64 0, i32 4
  %47 = bitcast %"union.optimization_guide::proto::Model::ModelUnion"* %46 to %"class.optimization_guide::proto::Ensemble"**
  %48 = load %"class.optimization_guide::proto::Ensemble"*, %"class.optimization_guide::proto::Ensemble"** %47, align 8
  %49 = icmp eq %"class.optimization_guide::proto::Ensemble"* %48, null
  br i1 %49, label %88, label %50

50:                                               ; preds = %45
  %51 = bitcast %"class.optimization_guide::proto::Ensemble"* %48 to void (%"class.optimization_guide::proto::Ensemble"*)***
  %52 = load void (%"class.optimization_guide::proto::Ensemble"*)**, void (%"class.optimization_guide::proto::Ensemble"*)*** %51, align 8
  %53 = getelementptr inbounds void (%"class.optimization_guide::proto::Ensemble"*)*, void (%"class.optimization_guide::proto::Ensemble"*)** %52, i64 1
  %54 = load void (%"class.optimization_guide::proto::Ensemble"*)*, void (%"class.optimization_guide::proto::Ensemble"*)** %53, align 8
  tail call void %54(%"class.optimization_guide::proto::Ensemble"* nonnull %48) #13
  br label %88

55:                                               ; preds = %1
  %56 = getelementptr inbounds %"class.optimization_guide::proto::Model", %"class.optimization_guide::proto::Model"* %0, i64 0, i32 4
  %57 = getelementptr inbounds %"class.optimization_guide::proto::Model", %"class.optimization_guide::proto::Model"* %0, i64 0, i32 0, i32 1
  %58 = bitcast %"class.google::protobuf::internal::InternalMetadata"* %57 to i64*
  %59 = load i64, i64* %58, align 8
  %60 = and i64 %59, 1
  %61 = icmp eq i64 %60, 0
  %62 = and i64 %59, -2
  br i1 %61, label %67, label %63, !prof !2

63:                                               ; preds = %55
  %64 = inttoptr i64 %62 to %"struct.google::protobuf::internal::InternalMetadata::ContainerBase"*
  %65 = getelementptr inbounds %"struct.google::protobuf::internal::InternalMetadata::ContainerBase", %"struct.google::protobuf::internal::InternalMetadata::ContainerBase"* %64, i64 0, i32 0
  %66 = load %"class.google::protobuf::Arena"*, %"class.google::protobuf::Arena"** %65, align 8
  br label %69

67:                                               ; preds = %55
  %68 = inttoptr i64 %62 to %"class.google::protobuf::Arena"*
  br label %69

69:                                               ; preds = %63, %67
  %70 = phi %"class.google::protobuf::Arena"* [ %66, %63 ], [ %68, %67 ]
  %71 = icmp eq %"class.google::protobuf::Arena"* %70, null
  br i1 %71, label %72, label %88

72:                                               ; preds = %69
  %73 = bitcast %"union.optimization_guide::proto::Model::ModelUnion"* %56 to %"class.std::__1::basic_string"**
  %74 = load %"class.std::__1::basic_string"*, %"class.std::__1::basic_string"** %73, align 8
  %75 = icmp eq %"class.std::__1::basic_string"* %74, bitcast (%"class.google::protobuf::internal::ExplicitlyConstructed.24"* @_ZN6google8protobuf8internal26fixed_address_empty_stringE to %"class.std::__1::basic_string"*)
  %76 = icmp eq %"class.std::__1::basic_string"* %74, null
  %77 = or i1 %75, %76
  br i1 %77, label %88, label %78

78:                                               ; preds = %72
  %79 = bitcast %"class.std::__1::basic_string"* %74 to %"struct.std::__1::basic_string<char, std::__1::char_traits<char>, std::__1::allocator<char> >::__short"*
  %80 = getelementptr inbounds %"struct.std::__1::basic_string<char, std::__1::char_traits<char>, std::__1::allocator<char> >::__short", %"struct.std::__1::basic_string<char, std::__1::char_traits<char>, std::__1::allocator<char> >::__short"* %79, i64 0, i32 1, i32 0
  %81 = load i8, i8* %80, align 1
  %82 = icmp slt i8 %81, 0
  br i1 %82, label %83, label %86

83:                                               ; preds = %78
  %84 = getelementptr inbounds %"class.std::__1::basic_string", %"class.std::__1::basic_string"* %74, i64 0, i32 0, i32 0, i32 0, i32 0, i32 0, i32 0
  %85 = load i8*, i8** %84, align 8
  tail call void @_ZdlPv(i8* %85) #16
  br label %86

86:                                               ; preds = %83, %78
  %87 = bitcast %"class.std::__1::basic_string"* %74 to i8*
  tail call void @_ZdlPv(i8* %87) #16
  br label %88

88:                                               ; preds = %86, %72, %69, %42, %50, %45, %17, %24, %20, %1
  store i32 0, i32* %2, align 8
  ret void
}

; Function Attrs: nounwind ssp uwtable
define hidden void @_ZN18optimization_guide5proto5Model22set_allocated_ensembleEPNS0_8EnsembleE(%"class.optimization_guide::proto::Model"* nocapture, %"class.optimization_guide::proto::Ensemble"*) local_unnamed_addr #0 align 2 {
  %3 = getelementptr inbounds %"class.optimization_guide::proto::Model", %"class.optimization_guide::proto::Model"* %0, i64 0, i32 0, i32 1
  %4 = bitcast %"class.google::protobuf::internal::InternalMetadata"* %3 to i64*
  %5 = load i64, i64* %4, align 8
  %6 = and i64 %5, 1
  %7 = icmp eq i64 %6, 0
  %8 = and i64 %5, -2
  br i1 %7, label %13, label %9, !prof !2

9:                                                ; preds = %2
  %10 = inttoptr i64 %8 to %"struct.google::protobuf::internal::InternalMetadata::ContainerBase"*
  %11 = getelementptr inbounds %"struct.google::protobuf::internal::InternalMetadata::ContainerBase", %"struct.google::protobuf::internal::InternalMetadata::ContainerBase"* %10, i64 0, i32 0
  %12 = load %"class.google::protobuf::Arena"*, %"class.google::protobuf::Arena"** %11, align 8
  br label %15

13:                                               ; preds = %2
  %14 = inttoptr i64 %8 to %"class.google::protobuf::Arena"*
  br label %15

15:                                               ; preds = %9, %13
  %16 = phi %"class.google::protobuf::Arena"* [ %12, %9 ], [ %14, %13 ]
  tail call void @_ZN18optimization_guide5proto5Model11clear_modelEv(%"class.optimization_guide::proto::Model"* %0)
  %17 = icmp eq %"class.optimization_guide::proto::Ensemble"* %1, null
  br i1 %17, label %43, label %18

18:                                               ; preds = %15
  %19 = getelementptr inbounds %"class.optimization_guide::proto::Ensemble", %"class.optimization_guide::proto::Ensemble"* %1, i64 0, i32 0, i32 1
  %20 = bitcast %"class.google::protobuf::internal::InternalMetadata"* %19 to i64*
  %21 = load i64, i64* %20, align 8
  %22 = and i64 %21, 1
  %23 = icmp eq i64 %22, 0
  %24 = and i64 %21, -2
  br i1 %23, label %29, label %25, !prof !2

25:                                               ; preds = %18
  %26 = inttoptr i64 %24 to %"struct.google::protobuf::internal::InternalMetadata::ContainerBase"*
  %27 = getelementptr inbounds %"struct.google::protobuf::internal::InternalMetadata::ContainerBase", %"struct.google::protobuf::internal::InternalMetadata::ContainerBase"* %26, i64 0, i32 0
  %28 = load %"class.google::protobuf::Arena"*, %"class.google::protobuf::Arena"** %27, align 8
  br label %31

29:                                               ; preds = %18
  %30 = inttoptr i64 %24 to %"class.google::protobuf::Arena"*
  br label %31

31:                                               ; preds = %25, %29
  %32 = phi %"class.google::protobuf::Arena"* [ %28, %25 ], [ %30, %29 ]
  %33 = icmp eq %"class.google::protobuf::Arena"* %16, %32
  br i1 %33, label %38, label %34

34:                                               ; preds = %31
  %35 = getelementptr inbounds %"class.optimization_guide::proto::Ensemble", %"class.optimization_guide::proto::Ensemble"* %1, i64 0, i32 0
  %36 = tail call %"class.google::protobuf::MessageLite"* @_ZN6google8protobuf8internal23GetOwnedMessageInternalEPNS0_5ArenaEPNS0_11MessageLiteES3_(%"class.google::protobuf::Arena"* %16, %"class.google::protobuf::MessageLite"* %35, %"class.google::protobuf::Arena"* %32) #13
  %37 = bitcast %"class.google::protobuf::MessageLite"* %36 to %"class.optimization_guide::proto::Ensemble"*
  br label %38

38:                                               ; preds = %31, %34
  %39 = phi %"class.optimization_guide::proto::Ensemble"* [ %37, %34 ], [ %1, %31 ]
  %40 = getelementptr inbounds %"class.optimization_guide::proto::Model", %"class.optimization_guide::proto::Model"* %0, i64 0, i32 5, i64 0
  store i32 2, i32* %40, align 8
  %41 = getelementptr inbounds %"class.optimization_guide::proto::Model", %"class.optimization_guide::proto::Model"* %0, i64 0, i32 4
  %42 = bitcast %"union.optimization_guide::proto::Model::ModelUnion"* %41 to %"class.optimization_guide::proto::Ensemble"**
  store %"class.optimization_guide::proto::Ensemble"* %39, %"class.optimization_guide::proto::Ensemble"** %42, align 8
  br label %43

43:                                               ; preds = %15, %38
  ret void
}

; Function Attrs: nounwind ssp uwtable
define hidden void @_ZN18optimization_guide5proto5ModelC2EPN6google8protobuf5ArenaE(%"class.optimization_guide::proto::Model"* nocapture, %"class.google::protobuf::Arena"*) unnamed_addr #0 align 2 {
  %3 = getelementptr inbounds %"class.optimization_guide::proto::Model", %"class.optimization_guide::proto::Model"* %0, i64 0, i32 0, i32 0
  %4 = getelementptr inbounds %"class.optimization_guide::proto::Model", %"class.optimization_guide::proto::Model"* %0, i64 0, i32 0, i32 1
  %5 = bitcast %"class.google::protobuf::internal::InternalMetadata"* %4 to %"class.google::protobuf::Arena"**
  store %"class.google::protobuf::Arena"* %1, %"class.google::protobuf::Arena"** %5, align 8
  store i32 (...)** bitcast (i8** getelementptr inbounds ({ [16 x i8*] }, { [16 x i8*] }* @_ZTVN18optimization_guide5proto5ModelE, i64 0, inrange i32 0, i64 2) to i32 (...)**), i32 (...)*** %3, align 8
  %6 = getelementptr inbounds %"class.optimization_guide::proto::Model", %"class.optimization_guide::proto::Model"* %0, i64 0, i32 1, i32 0, i64 0
  store i32 0, i32* %6, align 4
  %7 = getelementptr inbounds %"class.optimization_guide::proto::Model", %"class.optimization_guide::proto::Model"* %0, i64 0, i32 2, i32 0, i32 0, i32 0, i32 0, i32 0, i32 0
  store i32 0, i32* %7, align 4
  %8 = load atomic i32, i32* getelementptr inbounds ({ { { { i32 } }, i32, i32, void ()* }, [2 x i8*] }, { { { { i32 } }, i32, i32, void ()* }, [2 x i8*] }* @scc_info_Ensemble_components_2foptimization_5fguide_2fproto_2fmodels_2eproto, i64 0, i32 0, i32 0, i32 0, i32 0) acquire, align 8
  %9 = icmp eq i32 %8, 0
  br i1 %9, label %11, label %10, !prof !2

10:                                               ; preds = %2
  tail call void @_ZN6google8protobuf8internal11InitSCCImplEPNS1_11SCCInfoBaseE(%"struct.google::protobuf::internal::SCCInfoBase"* bitcast ({ { { { i32 } }, i32, i32, void ()* }, [2 x i8*] }* @scc_info_Ensemble_components_2foptimization_5fguide_2fproto_2fmodels_2eproto to %"struct.google::protobuf::internal::SCCInfoBase"*)) #13
  br label %11

11:                                               ; preds = %2, %10
  %12 = getelementptr inbounds %"class.optimization_guide::proto::Model", %"class.optimization_guide::proto::Model"* %0, i64 0, i32 3
  store %"class.optimization_guide::proto::DoubleValue"* null, %"class.optimization_guide::proto::DoubleValue"** %12, align 8
  %13 = getelementptr inbounds %"class.optimization_guide::proto::Model", %"class.optimization_guide::proto::Model"* %0, i64 0, i32 5, i64 0
  store i32 0, i32* %13, align 8
  ret void
}

; Function Attrs: nounwind ssp uwtable
define hidden void @_ZN18optimization_guide5proto5ModelC2ERKS1_(%"class.optimization_guide::proto::Model"*, %"class.optimization_guide::proto::Model"* nocapture readonly dereferenceable(48)) unnamed_addr #0 align 2 {
  %3 = getelementptr inbounds %"class.optimization_guide::proto::Model", %"class.optimization_guide::proto::Model"* %0, i64 0, i32 0, i32 0
  %4 = getelementptr inbounds %"class.optimization_guide::proto::Model", %"class.optimization_guide::proto::Model"* %0, i64 0, i32 0, i32 1, i32 0
  store i8* null, i8** %4, align 8
  store i32 (...)** bitcast (i8** getelementptr inbounds ({ [16 x i8*] }, { [16 x i8*] }* @_ZTVN18optimization_guide5proto5ModelE, i64 0, inrange i32 0, i64 2) to i32 (...)**), i32 (...)*** %3, align 8
  %5 = getelementptr inbounds %"class.optimization_guide::proto::Model", %"class.optimization_guide::proto::Model"* %1, i64 0, i32 1, i32 0, i64 0
  %6 = getelementptr inbounds %"class.optimization_guide::proto::Model", %"class.optimization_guide::proto::Model"* %0, i64 0, i32 1, i32 0, i64 0
  %7 = load i32, i32* %5, align 8
  store i32 %7, i32* %6, align 8
  %8 = getelementptr inbounds %"class.optimization_guide::proto::Model", %"class.optimization_guide::proto::Model"* %0, i64 0, i32 2, i32 0, i32 0, i32 0, i32 0, i32 0, i32 0
  store i32 0, i32* %8, align 4
  %9 = getelementptr inbounds %"class.optimization_guide::proto::Model", %"class.optimization_guide::proto::Model"* %0, i64 0, i32 0, i32 1
  %10 = getelementptr inbounds %"class.optimization_guide::proto::Model", %"class.optimization_guide::proto::Model"* %1, i64 0, i32 0, i32 1
  %11 = bitcast %"class.google::protobuf::internal::InternalMetadata"* %10 to i64*
  %12 = load i64, i64* %11, align 8
  %13 = and i64 %12, 1
  %14 = icmp eq i64 %13, 0
  br i1 %14, label %33, label %15

15:                                               ; preds = %2
  %16 = and i64 %12, -2
  %17 = inttoptr i64 %16 to %"struct.google::protobuf::internal::InternalMetadata::Container"*
  %18 = getelementptr inbounds %"struct.google::protobuf::internal::InternalMetadata::Container", %"struct.google::protobuf::internal::InternalMetadata::Container"* %17, i64 0, i32 1
  %19 = tail call %"class.std::__1::basic_string"* @_ZN6google8protobuf8internal16InternalMetadata27mutable_unknown_fields_slowINSt3__112basic_stringIcNS4_11char_traitsIcEENS4_9allocatorIcEEEEEEPT_v(%"class.google::protobuf::internal::InternalMetadata"* %9) #13
  %20 = bitcast %"class.std::__1::basic_string"* %18 to %"struct.std::__1::basic_string<char, std::__1::char_traits<char>, std::__1::allocator<char> >::__short"*
  %21 = getelementptr inbounds %"struct.std::__1::basic_string<char, std::__1::char_traits<char>, std::__1::allocator<char> >::__short", %"struct.std::__1::basic_string<char, std::__1::char_traits<char>, std::__1::allocator<char> >::__short"* %20, i64 0, i32 1, i32 0
  %22 = load i8, i8* %21, align 1
  %23 = icmp slt i8 %22, 0
  %24 = getelementptr inbounds %"class.std::__1::basic_string", %"class.std::__1::basic_string"* %18, i64 0, i32 0, i32 0, i32 0, i32 0, i32 0, i32 0
  %25 = load i8*, i8** %24, align 8
  %26 = getelementptr inbounds %"struct.google::protobuf::internal::InternalMetadata::Container", %"struct.google::protobuf::internal::InternalMetadata::Container"* %17, i64 0, i32 1, i32 0, i32 0, i32 0, i32 0, i32 0, i32 1
  %27 = load i64, i64* %26, align 8
  %28 = bitcast %"class.std::__1::basic_string"* %18 to i8*
  %29 = zext i8 %22 to i64
  %30 = select i1 %23, i8* %25, i8* %28
  %31 = select i1 %23, i64 %27, i64 %29
  %32 = tail call dereferenceable(24) %"class.std::__1::basic_string"* @_ZNSt3__112basic_stringIcNS_11char_traitsIcEENS_9allocatorIcEEE6appendEPKcm(%"class.std::__1::basic_string"* %19, i8* %30, i64 %31) #13
  br label %33

33:                                               ; preds = %2, %15
  %34 = load i32, i32* %5, align 4
  %35 = and i32 %34, 1
  %36 = icmp eq i32 %35, 0
  br i1 %36, label %82, label %37

37:                                               ; preds = %33
  %38 = getelementptr inbounds %"class.optimization_guide::proto::Model", %"class.optimization_guide::proto::Model"* %1, i64 0, i32 3
  %39 = load %"class.optimization_guide::proto::DoubleValue"*, %"class.optimization_guide::proto::DoubleValue"** %38, align 8, !nonnull !4
  %40 = tail call i8* @_Znwm(i64 32) #16
  %41 = bitcast i8* %40 to i32 (...)***
  %42 = getelementptr inbounds i8, i8* %40, i64 8
  %43 = bitcast i8* %42 to i8**
  store i8* null, i8** %43, align 8
  store i32 (...)** bitcast (i8** getelementptr inbounds ({ [16 x i8*] }, { [16 x i8*] }* @_ZTVN18optimization_guide5proto11DoubleValueE, i64 0, inrange i32 0, i64 2) to i32 (...)**), i32 (...)*** %41, align 8
  %44 = getelementptr inbounds %"class.optimization_guide::proto::DoubleValue", %"class.optimization_guide::proto::DoubleValue"* %39, i64 0, i32 1, i32 0, i64 0
  %45 = getelementptr inbounds i8, i8* %40, i64 16
  %46 = bitcast i8* %45 to i32*
  %47 = load i32, i32* %44, align 8
  store i32 %47, i32* %46, align 8
  %48 = getelementptr inbounds i8, i8* %40, i64 20
  %49 = bitcast i8* %48 to i32*
  store i32 0, i32* %49, align 4
  %50 = getelementptr inbounds %"class.optimization_guide::proto::DoubleValue", %"class.optimization_guide::proto::DoubleValue"* %39, i64 0, i32 0, i32 1
  %51 = bitcast %"class.google::protobuf::internal::InternalMetadata"* %50 to i64*
  %52 = load i64, i64* %51, align 8
  %53 = and i64 %52, 1
  %54 = icmp eq i64 %53, 0
  br i1 %54, label %74, label %55

55:                                               ; preds = %37
  %56 = bitcast i8* %42 to %"class.google::protobuf::internal::InternalMetadata"*
  %57 = and i64 %52, -2
  %58 = inttoptr i64 %57 to %"struct.google::protobuf::internal::InternalMetadata::Container"*
  %59 = getelementptr inbounds %"struct.google::protobuf::internal::InternalMetadata::Container", %"struct.google::protobuf::internal::InternalMetadata::Container"* %58, i64 0, i32 1
  %60 = tail call %"class.std::__1::basic_string"* @_ZN6google8protobuf8internal16InternalMetadata27mutable_unknown_fields_slowINSt3__112basic_stringIcNS4_11char_traitsIcEENS4_9allocatorIcEEEEEEPT_v(%"class.google::protobuf::internal::InternalMetadata"* %56) #13
  %61 = bitcast %"class.std::__1::basic_string"* %59 to %"struct.std::__1::basic_string<char, std::__1::char_traits<char>, std::__1::allocator<char> >::__short"*
  %62 = getelementptr inbounds %"struct.std::__1::basic_string<char, std::__1::char_traits<char>, std::__1::allocator<char> >::__short", %"struct.std::__1::basic_string<char, std::__1::char_traits<char>, std::__1::allocator<char> >::__short"* %61, i64 0, i32 1, i32 0
  %63 = load i8, i8* %62, align 1
  %64 = icmp slt i8 %63, 0
  %65 = getelementptr inbounds %"class.std::__1::basic_string", %"class.std::__1::basic_string"* %59, i64 0, i32 0, i32 0, i32 0, i32 0, i32 0, i32 0
  %66 = load i8*, i8** %65, align 8
  %67 = getelementptr inbounds %"struct.google::protobuf::internal::InternalMetadata::Container", %"struct.google::protobuf::internal::InternalMetadata::Container"* %58, i64 0, i32 1, i32 0, i32 0, i32 0, i32 0, i32 0, i32 1
  %68 = load i64, i64* %67, align 8
  %69 = bitcast %"class.std::__1::basic_string"* %59 to i8*
  %70 = zext i8 %63 to i64
  %71 = select i1 %64, i8* %66, i8* %69
  %72 = select i1 %64, i64 %68, i64 %70
  %73 = tail call dereferenceable(24) %"class.std::__1::basic_string"* @_ZNSt3__112basic_stringIcNS_11char_traitsIcEENS_9allocatorIcEEE6appendEPKcm(%"class.std::__1::basic_string"* %60, i8* %71, i64 %72) #13
  br label %74

74:                                               ; preds = %37, %55
  %75 = getelementptr inbounds %"class.optimization_guide::proto::DoubleValue", %"class.optimization_guide::proto::DoubleValue"* %39, i64 0, i32 3
  %76 = bitcast double* %75 to i64*
  %77 = load i64, i64* %76, align 8
  %78 = getelementptr inbounds i8, i8* %40, i64 24
  %79 = bitcast i8* %78 to i64*
  store i64 %77, i64* %79, align 8
  %80 = getelementptr inbounds %"class.optimization_guide::proto::Model", %"class.optimization_guide::proto::Model"* %0, i64 0, i32 3
  %81 = bitcast %"class.optimization_guide::proto::DoubleValue"** %80 to i8**
  store i8* %40, i8** %81, align 8
  br label %84

82:                                               ; preds = %33
  %83 = getelementptr inbounds %"class.optimization_guide::proto::Model", %"class.optimization_guide::proto::Model"* %0, i64 0, i32 3
  store %"class.optimization_guide::proto::DoubleValue"* null, %"class.optimization_guide::proto::DoubleValue"** %83, align 8
  br label %84

84:                                               ; preds = %82, %74
  %85 = getelementptr inbounds %"class.optimization_guide::proto::Model", %"class.optimization_guide::proto::Model"* %0, i64 0, i32 5, i64 0
  store i32 0, i32* %85, align 8
  %86 = getelementptr inbounds %"class.optimization_guide::proto::Model", %"class.optimization_guide::proto::Model"* %1, i64 0, i32 5, i64 0
  %87 = load i32, i32* %86, align 8
  switch i32 %87, label %156 [
    i32 1, label %88
    i32 2, label %111
    i32 5, label %136
  ]

88:                                               ; preds = %84
  tail call void @_ZN18optimization_guide5proto5Model11clear_modelEv(%"class.optimization_guide::proto::Model"* %0) #13
  store i32 1, i32* %85, align 8
  %89 = bitcast %"class.google::protobuf::internal::InternalMetadata"* %9 to i64*
  %90 = load i64, i64* %89, align 8
  %91 = and i64 %90, 1
  %92 = icmp eq i64 %91, 0
  %93 = and i64 %90, -2
  br i1 %92, label %98, label %94, !prof !2

94:                                               ; preds = %88
  %95 = inttoptr i64 %93 to %"struct.google::protobuf::internal::InternalMetadata::ContainerBase"*
  %96 = getelementptr inbounds %"struct.google::protobuf::internal::InternalMetadata::ContainerBase", %"struct.google::protobuf::internal::InternalMetadata::ContainerBase"* %95, i64 0, i32 0
  %97 = load %"class.google::protobuf::Arena"*, %"class.google::protobuf::Arena"** %96, align 8
  br label %100

98:                                               ; preds = %88
  %99 = inttoptr i64 %93 to %"class.google::protobuf::Arena"*
  br label %100

100:                                              ; preds = %94, %98
  %101 = phi %"class.google::protobuf::Arena"* [ %97, %94 ], [ %99, %98 ]
  %102 = tail call %"class.optimization_guide::proto::DecisionTree"* @_ZN6google8protobuf5Arena18CreateMaybeMessageIN18optimization_guide5proto12DecisionTreeEJEEEPT_PS1_DpOT0_(%"class.google::protobuf::Arena"* %101) #13
  %103 = getelementptr inbounds %"class.optimization_guide::proto::Model", %"class.optimization_guide::proto::Model"* %0, i64 0, i32 4, i32 0
  store %"class.optimization_guide::proto::DecisionTree"* %102, %"class.optimization_guide::proto::DecisionTree"** %103, align 8
  %104 = load i32, i32* %86, align 8
  %105 = icmp eq i32 %104, 1
  br i1 %105, label %106, label %109

106:                                              ; preds = %100
  %107 = getelementptr inbounds %"class.optimization_guide::proto::Model", %"class.optimization_guide::proto::Model"* %1, i64 0, i32 4, i32 0
  %108 = load %"class.optimization_guide::proto::DecisionTree"*, %"class.optimization_guide::proto::DecisionTree"** %107, align 8
  br label %109

109:                                              ; preds = %100, %106
  %110 = phi %"class.optimization_guide::proto::DecisionTree"* [ %108, %106 ], [ bitcast (%"class.optimization_guide::proto::DecisionTreeDefaultTypeInternal"* @_ZN18optimization_guide5proto31_DecisionTree_default_instance_E to %"class.optimization_guide::proto::DecisionTree"*), %100 ]
  tail call void @_ZN18optimization_guide5proto12DecisionTree9MergeFromERKS1_(%"class.optimization_guide::proto::DecisionTree"* %102, %"class.optimization_guide::proto::DecisionTree"* dereferenceable(56) %110)
  br label %156

111:                                              ; preds = %84
  tail call void @_ZN18optimization_guide5proto5Model11clear_modelEv(%"class.optimization_guide::proto::Model"* %0) #13
  store i32 2, i32* %85, align 8
  %112 = bitcast %"class.google::protobuf::internal::InternalMetadata"* %9 to i64*
  %113 = load i64, i64* %112, align 8
  %114 = and i64 %113, 1
  %115 = icmp eq i64 %114, 0
  %116 = and i64 %113, -2
  br i1 %115, label %121, label %117, !prof !2

117:                                              ; preds = %111
  %118 = inttoptr i64 %116 to %"struct.google::protobuf::internal::InternalMetadata::ContainerBase"*
  %119 = getelementptr inbounds %"struct.google::protobuf::internal::InternalMetadata::ContainerBase", %"struct.google::protobuf::internal::InternalMetadata::ContainerBase"* %118, i64 0, i32 0
  %120 = load %"class.google::protobuf::Arena"*, %"class.google::protobuf::Arena"** %119, align 8
  br label %123

121:                                              ; preds = %111
  %122 = inttoptr i64 %116 to %"class.google::protobuf::Arena"*
  br label %123

123:                                              ; preds = %117, %121
  %124 = phi %"class.google::protobuf::Arena"* [ %120, %117 ], [ %122, %121 ]
  %125 = tail call %"class.optimization_guide::proto::Ensemble"* @_ZN6google8protobuf5Arena18CreateMaybeMessageIN18optimization_guide5proto8EnsembleEJEEEPT_PS1_DpOT0_(%"class.google::protobuf::Arena"* %124) #13
  %126 = getelementptr inbounds %"class.optimization_guide::proto::Model", %"class.optimization_guide::proto::Model"* %0, i64 0, i32 4
  %127 = bitcast %"union.optimization_guide::proto::Model::ModelUnion"* %126 to %"class.optimization_guide::proto::Ensemble"**
  store %"class.optimization_guide::proto::Ensemble"* %125, %"class.optimization_guide::proto::Ensemble"** %127, align 8
  %128 = load i32, i32* %86, align 8
  %129 = icmp eq i32 %128, 2
  br i1 %129, label %130, label %134

130:                                              ; preds = %123
  %131 = getelementptr inbounds %"class.optimization_guide::proto::Model", %"class.optimization_guide::proto::Model"* %1, i64 0, i32 4
  %132 = bitcast %"union.optimization_guide::proto::Model::ModelUnion"* %131 to %"class.optimization_guide::proto::Ensemble"**
  %133 = load %"class.optimization_guide::proto::Ensemble"*, %"class.optimization_guide::proto::Ensemble"** %132, align 8
  br label %134

134:                                              ; preds = %123, %130
  %135 = phi %"class.optimization_guide::proto::Ensemble"* [ %133, %130 ], [ bitcast (%"class.optimization_guide::proto::EnsembleDefaultTypeInternal"* @_ZN18optimization_guide5proto27_Ensemble_default_instance_E to %"class.optimization_guide::proto::Ensemble"*), %123 ]
  tail call void @_ZN18optimization_guide5proto8Ensemble9MergeFromERKS1_(%"class.optimization_guide::proto::Ensemble"* %125, %"class.optimization_guide::proto::Ensemble"* dereferenceable(48) %135)
  br label %156

136:                                              ; preds = %84
  %137 = getelementptr inbounds %"class.optimization_guide::proto::Model", %"class.optimization_guide::proto::Model"* %1, i64 0, i32 4
  %138 = bitcast %"union.optimization_guide::proto::Model::ModelUnion"* %137 to %"class.std::__1::basic_string"**
  %139 = load %"class.std::__1::basic_string"*, %"class.std::__1::basic_string"** %138, align 8
  tail call void @_ZN18optimization_guide5proto5Model11clear_modelEv(%"class.optimization_guide::proto::Model"* %0) #13
  store i32 5, i32* %85, align 8
  %140 = getelementptr inbounds %"class.optimization_guide::proto::Model", %"class.optimization_guide::proto::Model"* %0, i64 0, i32 4
  %141 = bitcast %"union.optimization_guide::proto::Model::ModelUnion"* %140 to %"class.std::__1::basic_string"**
  store %"class.std::__1::basic_string"* bitcast (%"class.google::protobuf::internal::ExplicitlyConstructed.24"* @_ZN6google8protobuf8internal26fixed_address_empty_stringE to %"class.std::__1::basic_string"*), %"class.std::__1::basic_string"** %141, align 8
  %142 = bitcast %"union.optimization_guide::proto::Model::ModelUnion"* %140 to %"struct.google::protobuf::internal::ArenaStringPtr"*
  %143 = bitcast %"class.google::protobuf::internal::InternalMetadata"* %9 to i64*
  %144 = load i64, i64* %143, align 8
  %145 = and i64 %144, 1
  %146 = icmp eq i64 %145, 0
  %147 = and i64 %144, -2
  br i1 %146, label %152, label %148, !prof !2

148:                                              ; preds = %136
  %149 = inttoptr i64 %147 to %"struct.google::protobuf::internal::InternalMetadata::ContainerBase"*
  %150 = getelementptr inbounds %"struct.google::protobuf::internal::InternalMetadata::ContainerBase", %"struct.google::protobuf::internal::InternalMetadata::ContainerBase"* %149, i64 0, i32 0
  %151 = load %"class.google::protobuf::Arena"*, %"class.google::protobuf::Arena"** %150, align 8
  br label %154

152:                                              ; preds = %136
  %153 = inttoptr i64 %147 to %"class.google::protobuf::Arena"*
  br label %154

154:                                              ; preds = %148, %152
  %155 = phi %"class.google::protobuf::Arena"* [ %151, %148 ], [ %153, %152 ]
  tail call void @_ZN6google8protobuf8internal14ArenaStringPtr14CreateInstanceEPNS0_5ArenaEPKNSt3__112basic_stringIcNS5_11char_traitsIcEENS5_9allocatorIcEEEE(%"struct.google::protobuf::internal::ArenaStringPtr"* %142, %"class.google::protobuf::Arena"* %155, %"class.std::__1::basic_string"* %139) #13
  br label %156

156:                                              ; preds = %154, %84, %134, %109
  ret void
}

; Function Attrs: argmemonly nounwind
declare void @llvm.memcpy.p0i8.p0i8.i64(i8* nocapture writeonly, i8* nocapture readonly, i64, i1 immarg) #2

; Function Attrs: nobuiltin nofree
declare noalias nonnull i8* @_Znwm(i64) local_unnamed_addr #6

; Function Attrs: nounwind ssp uwtable
define hidden void @_ZN18optimization_guide5proto12DecisionTree9MergeFromERKS1_(%"class.optimization_guide::proto::DecisionTree"*, %"class.optimization_guide::proto::DecisionTree"* nocapture readonly dereferenceable(56)) local_unnamed_addr #0 align 2 {
  %3 = getelementptr inbounds %"class.optimization_guide::proto::DecisionTree", %"class.optimization_guide::proto::DecisionTree"* %0, i64 0, i32 0, i32 1
  %4 = getelementptr inbounds %"class.optimization_guide::proto::DecisionTree", %"class.optimization_guide::proto::DecisionTree"* %1, i64 0, i32 0, i32 1
  %5 = bitcast %"class.google::protobuf::internal::InternalMetadata"* %4 to i64*
  %6 = load i64, i64* %5, align 8
  %7 = and i64 %6, 1
  %8 = icmp eq i64 %7, 0
  br i1 %8, label %38, label %9

9:                                                ; preds = %2
  %10 = and i64 %6, -2
  %11 = inttoptr i64 %10 to %"struct.google::protobuf::internal::InternalMetadata::Container"*
  %12 = getelementptr inbounds %"struct.google::protobuf::internal::InternalMetadata::Container", %"struct.google::protobuf::internal::InternalMetadata::Container"* %11, i64 0, i32 1
  %13 = bitcast %"class.google::protobuf::internal::InternalMetadata"* %3 to i64*
  %14 = load i64, i64* %13, align 8
  %15 = and i64 %14, 1
  %16 = icmp eq i64 %15, 0
  br i1 %16, label %21, label %17, !prof !5

17:                                               ; preds = %9
  %18 = and i64 %14, -2
  %19 = inttoptr i64 %18 to %"struct.google::protobuf::internal::InternalMetadata::Container"*
  %20 = getelementptr inbounds %"struct.google::protobuf::internal::InternalMetadata::Container", %"struct.google::protobuf::internal::InternalMetadata::Container"* %19, i64 0, i32 1
  br label %23

21:                                               ; preds = %9
  %22 = tail call %"class.std::__1::basic_string"* @_ZN6google8protobuf8internal16InternalMetadata27mutable_unknown_fields_slowINSt3__112basic_stringIcNS4_11char_traitsIcEENS4_9allocatorIcEEEEEEPT_v(%"class.google::protobuf::internal::InternalMetadata"* %3) #13
  br label %23

23:                                               ; preds = %21, %17
  %24 = phi %"class.std::__1::basic_string"* [ %20, %17 ], [ %22, %21 ]
  %25 = bitcast %"class.std::__1::basic_string"* %12 to %"struct.std::__1::basic_string<char, std::__1::char_traits<char>, std::__1::allocator<char> >::__short"*
  %26 = getelementptr inbounds %"struct.std::__1::basic_string<char, std::__1::char_traits<char>, std::__1::allocator<char> >::__short", %"struct.std::__1::basic_string<char, std::__1::char_traits<char>, std::__1::allocator<char> >::__short"* %25, i64 0, i32 1, i32 0
  %27 = load i8, i8* %26, align 1
  %28 = icmp slt i8 %27, 0
  %29 = getelementptr inbounds %"class.std::__1::basic_string", %"class.std::__1::basic_string"* %12, i64 0, i32 0, i32 0, i32 0, i32 0, i32 0, i32 0
  %30 = load i8*, i8** %29, align 8
  %31 = getelementptr inbounds %"struct.google::protobuf::internal::InternalMetadata::Container", %"struct.google::protobuf::internal::InternalMetadata::Container"* %11, i64 0, i32 1, i32 0, i32 0, i32 0, i32 0, i32 0, i32 1
  %32 = load i64, i64* %31, align 8
  %33 = bitcast %"class.std::__1::basic_string"* %12 to i8*
  %34 = zext i8 %27 to i64
  %35 = select i1 %28, i8* %30, i8* %33
  %36 = select i1 %28, i64 %32, i64 %34
  %37 = tail call dereferenceable(24) %"class.std::__1::basic_string"* @_ZNSt3__112basic_stringIcNS_11char_traitsIcEENS_9allocatorIcEEE6appendEPKcm(%"class.std::__1::basic_string"* %24, i8* %35, i64 %36) #13
  br label %38

38:                                               ; preds = %2, %23
  %39 = getelementptr inbounds %"class.optimization_guide::proto::DecisionTree", %"class.optimization_guide::proto::DecisionTree"* %0, i64 0, i32 3
  %40 = getelementptr inbounds %"class.optimization_guide::proto::DecisionTree", %"class.optimization_guide::proto::DecisionTree"* %1, i64 0, i32 3, i32 0, i32 1
  %41 = load i32, i32* %40, align 8
  %42 = icmp eq i32 %41, 0
  br i1 %42, label %98, label %43

43:                                               ; preds = %38
  %44 = getelementptr inbounds %"class.google::protobuf::RepeatedPtrField", %"class.google::protobuf::RepeatedPtrField"* %39, i64 0, i32 0
  %45 = getelementptr inbounds %"class.optimization_guide::proto::DecisionTree", %"class.optimization_guide::proto::DecisionTree"* %1, i64 0, i32 3, i32 0, i32 3
  %46 = load %"struct.google::protobuf::internal::RepeatedPtrFieldBase::Rep"*, %"struct.google::protobuf::internal::RepeatedPtrFieldBase::Rep"** %45, align 8
  %47 = tail call i8** @_ZN6google8protobuf8internal20RepeatedPtrFieldBase14InternalExtendEi(%"class.google::protobuf::internal::RepeatedPtrFieldBase"* %44, i32 %41) #13
  %48 = getelementptr inbounds %"class.optimization_guide::proto::DecisionTree", %"class.optimization_guide::proto::DecisionTree"* %0, i64 0, i32 3, i32 0, i32 3
  %49 = load %"struct.google::protobuf::internal::RepeatedPtrFieldBase::Rep"*, %"struct.google::protobuf::internal::RepeatedPtrFieldBase::Rep"** %48, align 8
  %50 = getelementptr inbounds %"struct.google::protobuf::internal::RepeatedPtrFieldBase::Rep", %"struct.google::protobuf::internal::RepeatedPtrFieldBase::Rep"* %49, i64 0, i32 0
  %51 = load i32, i32* %50, align 8
  %52 = getelementptr inbounds %"class.optimization_guide::proto::DecisionTree", %"class.optimization_guide::proto::DecisionTree"* %0, i64 0, i32 3, i32 0, i32 1
  %53 = load i32, i32* %52, align 8
  %54 = sub i32 %51, %53
  %55 = icmp sgt i32 %54, 0
  %56 = icmp sgt i32 %41, 0
  %57 = and i1 %56, %55
  br i1 %57, label %58, label %61

58:                                               ; preds = %43
  %59 = sext i32 %41 to i64
  %60 = sext i32 %54 to i64
  br label %67

61:                                               ; preds = %67, %43
  %62 = getelementptr inbounds %"class.google::protobuf::RepeatedPtrField", %"class.google::protobuf::RepeatedPtrField"* %39, i64 0, i32 0, i32 0
  %63 = load %"class.google::protobuf::Arena"*, %"class.google::protobuf::Arena"** %62, align 8
  %64 = icmp slt i32 %54, %41
  br i1 %64, label %65, label %90

65:                                               ; preds = %61
  %66 = sext i32 %54 to i64
  br label %79

67:                                               ; preds = %67, %58
  %68 = phi i64 [ 0, %58 ], [ %75, %67 ]
  %69 = getelementptr inbounds %"struct.google::protobuf::internal::RepeatedPtrFieldBase::Rep", %"struct.google::protobuf::internal::RepeatedPtrFieldBase::Rep"* %46, i64 0, i32 1, i64 %68
  %70 = bitcast i8** %69 to %"class.optimization_guide::proto::TreeNode"**
  %71 = load %"class.optimization_guide::proto::TreeNode"*, %"class.optimization_guide::proto::TreeNode"** %70, align 8
  %72 = getelementptr inbounds i8*, i8** %47, i64 %68
  %73 = bitcast i8** %72 to %"class.optimization_guide::proto::TreeNode"**
  %74 = load %"class.optimization_guide::proto::TreeNode"*, %"class.optimization_guide::proto::TreeNode"** %73, align 8
  tail call void @_ZN6google8protobuf8internal18GenericTypeHandlerIN18optimization_guide5proto8TreeNodeEE5MergeERKS5_PS5_(%"class.optimization_guide::proto::TreeNode"* dereferenceable(64) %71, %"class.optimization_guide::proto::TreeNode"* %74) #13
  %75 = add nuw nsw i64 %68, 1
  %76 = icmp slt i64 %75, %60
  %77 = icmp slt i64 %75, %59
  %78 = and i1 %76, %77
  br i1 %78, label %67, label %61

79:                                               ; preds = %79, %65
  %80 = phi i64 [ %66, %65 ], [ %87, %79 ]
  %81 = getelementptr inbounds %"struct.google::protobuf::internal::RepeatedPtrFieldBase::Rep", %"struct.google::protobuf::internal::RepeatedPtrFieldBase::Rep"* %46, i64 0, i32 1, i64 %80
  %82 = bitcast i8** %81 to %"class.optimization_guide::proto::TreeNode"**
  %83 = load %"class.optimization_guide::proto::TreeNode"*, %"class.optimization_guide::proto::TreeNode"** %82, align 8
  %84 = tail call %"class.optimization_guide::proto::TreeNode"* @_ZN6google8protobuf5Arena18CreateMaybeMessageIN18optimization_guide5proto8TreeNodeEJEEEPT_PS1_DpOT0_(%"class.google::protobuf::Arena"* %63) #13
  tail call void @_ZN6google8protobuf8internal18GenericTypeHandlerIN18optimization_guide5proto8TreeNodeEE5MergeERKS5_PS5_(%"class.optimization_guide::proto::TreeNode"* dereferenceable(64) %83, %"class.optimization_guide::proto::TreeNode"* %84) #13
  %85 = getelementptr inbounds i8*, i8** %47, i64 %80
  %86 = bitcast i8** %85 to %"class.optimization_guide::proto::TreeNode"**
  store %"class.optimization_guide::proto::TreeNode"* %84, %"class.optimization_guide::proto::TreeNode"** %86, align 8
  %87 = add nsw i64 %80, 1
  %88 = trunc i64 %87 to i32
  %89 = icmp eq i32 %41, %88
  br i1 %89, label %90, label %79

90:                                               ; preds = %79, %61
  %91 = load i32, i32* %52, align 8
  %92 = add nsw i32 %91, %41
  store i32 %92, i32* %52, align 8
  %93 = load %"struct.google::protobuf::internal::RepeatedPtrFieldBase::Rep"*, %"struct.google::protobuf::internal::RepeatedPtrFieldBase::Rep"** %48, align 8
  %94 = getelementptr inbounds %"struct.google::protobuf::internal::RepeatedPtrFieldBase::Rep", %"struct.google::protobuf::internal::RepeatedPtrFieldBase::Rep"* %93, i64 0, i32 0
  %95 = load i32, i32* %94, align 8
  %96 = icmp slt i32 %95, %92
  br i1 %96, label %97, label %98

97:                                               ; preds = %90
  store i32 %92, i32* %94, align 8
  br label %98

98:                                               ; preds = %38, %90, %97
  %99 = getelementptr inbounds %"class.optimization_guide::proto::DecisionTree", %"class.optimization_guide::proto::DecisionTree"* %1, i64 0, i32 1, i32 0, i64 0
  %100 = load i32, i32* %99, align 4
  %101 = and i32 %100, 1
  %102 = icmp eq i32 %101, 0
  br i1 %102, label %112, label %103

103:                                              ; preds = %98
  %104 = getelementptr inbounds %"class.optimization_guide::proto::DecisionTree", %"class.optimization_guide::proto::DecisionTree"* %1, i64 0, i32 4
  %105 = bitcast float* %104 to i32*
  %106 = load i32, i32* %105, align 8
  %107 = getelementptr inbounds %"class.optimization_guide::proto::DecisionTree", %"class.optimization_guide::proto::DecisionTree"* %0, i64 0, i32 1, i32 0, i64 0
  %108 = load i32, i32* %107, align 4
  %109 = or i32 %108, 1
  store i32 %109, i32* %107, align 4
  %110 = getelementptr inbounds %"class.optimization_guide::proto::DecisionTree", %"class.optimization_guide::proto::DecisionTree"* %0, i64 0, i32 4
  %111 = bitcast float* %110 to i32*
  store i32 %106, i32* %111, align 8
  br label %112

112:                                              ; preds = %98, %103
  ret void
}

; Function Attrs: nounwind ssp uwtable
define hidden void @_ZN18optimization_guide5proto8Ensemble9MergeFromERKS1_(%"class.optimization_guide::proto::Ensemble"*, %"class.optimization_guide::proto::Ensemble"* nocapture readonly dereferenceable(48)) local_unnamed_addr #0 align 2 {
  %3 = getelementptr inbounds %"class.optimization_guide::proto::Ensemble", %"class.optimization_guide::proto::Ensemble"* %0, i64 0, i32 0, i32 1
  %4 = getelementptr inbounds %"class.optimization_guide::proto::Ensemble", %"class.optimization_guide::proto::Ensemble"* %1, i64 0, i32 0, i32 1
  %5 = bitcast %"class.google::protobuf::internal::InternalMetadata"* %4 to i64*
  %6 = load i64, i64* %5, align 8
  %7 = and i64 %6, 1
  %8 = icmp eq i64 %7, 0
  br i1 %8, label %38, label %9

9:                                                ; preds = %2
  %10 = and i64 %6, -2
  %11 = inttoptr i64 %10 to %"struct.google::protobuf::internal::InternalMetadata::Container"*
  %12 = getelementptr inbounds %"struct.google::protobuf::internal::InternalMetadata::Container", %"struct.google::protobuf::internal::InternalMetadata::Container"* %11, i64 0, i32 1
  %13 = bitcast %"class.google::protobuf::internal::InternalMetadata"* %3 to i64*
  %14 = load i64, i64* %13, align 8
  %15 = and i64 %14, 1
  %16 = icmp eq i64 %15, 0
  br i1 %16, label %21, label %17, !prof !5

17:                                               ; preds = %9
  %18 = and i64 %14, -2
  %19 = inttoptr i64 %18 to %"struct.google::protobuf::internal::InternalMetadata::Container"*
  %20 = getelementptr inbounds %"struct.google::protobuf::internal::InternalMetadata::Container", %"struct.google::protobuf::internal::InternalMetadata::Container"* %19, i64 0, i32 1
  br label %23

21:                                               ; preds = %9
  %22 = tail call %"class.std::__1::basic_string"* @_ZN6google8protobuf8internal16InternalMetadata27mutable_unknown_fields_slowINSt3__112basic_stringIcNS4_11char_traitsIcEENS4_9allocatorIcEEEEEEPT_v(%"class.google::protobuf::internal::InternalMetadata"* %3) #13
  br label %23

23:                                               ; preds = %21, %17
  %24 = phi %"class.std::__1::basic_string"* [ %20, %17 ], [ %22, %21 ]
  %25 = bitcast %"class.std::__1::basic_string"* %12 to %"struct.std::__1::basic_string<char, std::__1::char_traits<char>, std::__1::allocator<char> >::__short"*
  %26 = getelementptr inbounds %"struct.std::__1::basic_string<char, std::__1::char_traits<char>, std::__1::allocator<char> >::__short", %"struct.std::__1::basic_string<char, std::__1::char_traits<char>, std::__1::allocator<char> >::__short"* %25, i64 0, i32 1, i32 0
  %27 = load i8, i8* %26, align 1
  %28 = icmp slt i8 %27, 0
  %29 = getelementptr inbounds %"class.std::__1::basic_string", %"class.std::__1::basic_string"* %12, i64 0, i32 0, i32 0, i32 0, i32 0, i32 0, i32 0
  %30 = load i8*, i8** %29, align 8
  %31 = getelementptr inbounds %"struct.google::protobuf::internal::InternalMetadata::Container", %"struct.google::protobuf::internal::InternalMetadata::Container"* %11, i64 0, i32 1, i32 0, i32 0, i32 0, i32 0, i32 0, i32 1
  %32 = load i64, i64* %31, align 8
  %33 = bitcast %"class.std::__1::basic_string"* %12 to i8*
  %34 = zext i8 %27 to i64
  %35 = select i1 %28, i8* %30, i8* %33
  %36 = select i1 %28, i64 %32, i64 %34
  %37 = tail call dereferenceable(24) %"class.std::__1::basic_string"* @_ZNSt3__112basic_stringIcNS_11char_traitsIcEENS_9allocatorIcEEE6appendEPKcm(%"class.std::__1::basic_string"* %24, i8* %35, i64 %36) #13
  br label %38

38:                                               ; preds = %2, %23
  %39 = getelementptr inbounds %"class.optimization_guide::proto::Ensemble", %"class.optimization_guide::proto::Ensemble"* %0, i64 0, i32 1
  %40 = getelementptr inbounds %"class.optimization_guide::proto::Ensemble", %"class.optimization_guide::proto::Ensemble"* %1, i64 0, i32 1, i32 0, i32 1
  %41 = load i32, i32* %40, align 8
  %42 = icmp eq i32 %41, 0
  br i1 %42, label %98, label %43

43:                                               ; preds = %38
  %44 = getelementptr inbounds %"class.google::protobuf::RepeatedPtrField.34", %"class.google::protobuf::RepeatedPtrField.34"* %39, i64 0, i32 0
  %45 = getelementptr inbounds %"class.optimization_guide::proto::Ensemble", %"class.optimization_guide::proto::Ensemble"* %1, i64 0, i32 1, i32 0, i32 3
  %46 = load %"struct.google::protobuf::internal::RepeatedPtrFieldBase::Rep"*, %"struct.google::protobuf::internal::RepeatedPtrFieldBase::Rep"** %45, align 8
  %47 = tail call i8** @_ZN6google8protobuf8internal20RepeatedPtrFieldBase14InternalExtendEi(%"class.google::protobuf::internal::RepeatedPtrFieldBase"* %44, i32 %41) #13
  %48 = getelementptr inbounds %"class.optimization_guide::proto::Ensemble", %"class.optimization_guide::proto::Ensemble"* %0, i64 0, i32 1, i32 0, i32 3
  %49 = load %"struct.google::protobuf::internal::RepeatedPtrFieldBase::Rep"*, %"struct.google::protobuf::internal::RepeatedPtrFieldBase::Rep"** %48, align 8
  %50 = getelementptr inbounds %"struct.google::protobuf::internal::RepeatedPtrFieldBase::Rep", %"struct.google::protobuf::internal::RepeatedPtrFieldBase::Rep"* %49, i64 0, i32 0
  %51 = load i32, i32* %50, align 8
  %52 = getelementptr inbounds %"class.optimization_guide::proto::Ensemble", %"class.optimization_guide::proto::Ensemble"* %0, i64 0, i32 1, i32 0, i32 1
  %53 = load i32, i32* %52, align 8
  %54 = sub i32 %51, %53
  %55 = icmp sgt i32 %54, 0
  %56 = icmp sgt i32 %41, 0
  %57 = and i1 %56, %55
  br i1 %57, label %58, label %61

58:                                               ; preds = %43
  %59 = sext i32 %41 to i64
  %60 = sext i32 %54 to i64
  br label %67

61:                                               ; preds = %67, %43
  %62 = getelementptr inbounds %"class.google::protobuf::RepeatedPtrField.34", %"class.google::protobuf::RepeatedPtrField.34"* %39, i64 0, i32 0, i32 0
  %63 = load %"class.google::protobuf::Arena"*, %"class.google::protobuf::Arena"** %62, align 8
  %64 = icmp slt i32 %54, %41
  br i1 %64, label %65, label %90

65:                                               ; preds = %61
  %66 = sext i32 %54 to i64
  br label %79

67:                                               ; preds = %67, %58
  %68 = phi i64 [ 0, %58 ], [ %75, %67 ]
  %69 = getelementptr inbounds %"struct.google::protobuf::internal::RepeatedPtrFieldBase::Rep", %"struct.google::protobuf::internal::RepeatedPtrFieldBase::Rep"* %46, i64 0, i32 1, i64 %68
  %70 = bitcast i8** %69 to %"class.optimization_guide::proto::Ensemble_Member"**
  %71 = load %"class.optimization_guide::proto::Ensemble_Member"*, %"class.optimization_guide::proto::Ensemble_Member"** %70, align 8
  %72 = getelementptr inbounds i8*, i8** %47, i64 %68
  %73 = bitcast i8** %72 to %"class.optimization_guide::proto::Ensemble_Member"**
  %74 = load %"class.optimization_guide::proto::Ensemble_Member"*, %"class.optimization_guide::proto::Ensemble_Member"** %73, align 8
  tail call void @_ZN6google8protobuf8internal18GenericTypeHandlerIN18optimization_guide5proto15Ensemble_MemberEE5MergeERKS5_PS5_(%"class.optimization_guide::proto::Ensemble_Member"* dereferenceable(32) %71, %"class.optimization_guide::proto::Ensemble_Member"* %74) #13
  %75 = add nuw nsw i64 %68, 1
  %76 = icmp slt i64 %75, %60
  %77 = icmp slt i64 %75, %59
  %78 = and i1 %76, %77
  br i1 %78, label %67, label %61

79:                                               ; preds = %79, %65
  %80 = phi i64 [ %66, %65 ], [ %87, %79 ]
  %81 = getelementptr inbounds %"struct.google::protobuf::internal::RepeatedPtrFieldBase::Rep", %"struct.google::protobuf::internal::RepeatedPtrFieldBase::Rep"* %46, i64 0, i32 1, i64 %80
  %82 = bitcast i8** %81 to %"class.optimization_guide::proto::Ensemble_Member"**
  %83 = load %"class.optimization_guide::proto::Ensemble_Member"*, %"class.optimization_guide::proto::Ensemble_Member"** %82, align 8
  %84 = tail call %"class.optimization_guide::proto::Ensemble_Member"* @_ZN6google8protobuf5Arena18CreateMaybeMessageIN18optimization_guide5proto15Ensemble_MemberEJEEEPT_PS1_DpOT0_(%"class.google::protobuf::Arena"* %63) #13
  tail call void @_ZN6google8protobuf8internal18GenericTypeHandlerIN18optimization_guide5proto15Ensemble_MemberEE5MergeERKS5_PS5_(%"class.optimization_guide::proto::Ensemble_Member"* dereferenceable(32) %83, %"class.optimization_guide::proto::Ensemble_Member"* %84) #13
  %85 = getelementptr inbounds i8*, i8** %47, i64 %80
  %86 = bitcast i8** %85 to %"class.optimization_guide::proto::Ensemble_Member"**
  store %"class.optimization_guide::proto::Ensemble_Member"* %84, %"class.optimization_guide::proto::Ensemble_Member"** %86, align 8
  %87 = add nsw i64 %80, 1
  %88 = trunc i64 %87 to i32
  %89 = icmp eq i32 %41, %88
  br i1 %89, label %90, label %79

90:                                               ; preds = %79, %61
  %91 = load i32, i32* %52, align 8
  %92 = add nsw i32 %91, %41
  store i32 %92, i32* %52, align 8
  %93 = load %"struct.google::protobuf::internal::RepeatedPtrFieldBase::Rep"*, %"struct.google::protobuf::internal::RepeatedPtrFieldBase::Rep"** %48, align 8
  %94 = getelementptr inbounds %"struct.google::protobuf::internal::RepeatedPtrFieldBase::Rep", %"struct.google::protobuf::internal::RepeatedPtrFieldBase::Rep"* %93, i64 0, i32 0
  %95 = load i32, i32* %94, align 8
  %96 = icmp slt i32 %95, %92
  br i1 %96, label %97, label %98

97:                                               ; preds = %90
  store i32 %92, i32* %94, align 8
  br label %98

98:                                               ; preds = %38, %90, %97
  ret void
}

; Function Attrs: nounwind ssp uwtable
define hidden void @_ZN18optimization_guide5proto5ModelD2Ev(%"class.optimization_guide::proto::Model"*) unnamed_addr #0 align 2 {
  %2 = getelementptr inbounds %"class.optimization_guide::proto::Model", %"class.optimization_guide::proto::Model"* %0, i64 0, i32 0, i32 0
  store i32 (...)** bitcast (i8** getelementptr inbounds ({ [16 x i8*] }, { [16 x i8*] }* @_ZTVN18optimization_guide5proto5ModelE, i64 0, inrange i32 0, i64 2) to i32 (...)**), i32 (...)*** %2, align 8
  %3 = icmp eq %"class.optimization_guide::proto::Model"* %0, bitcast (%"class.optimization_guide::proto::ModelDefaultTypeInternal"* @_ZN18optimization_guide5proto24_Model_default_instance_E to %"class.optimization_guide::proto::Model"*)
  br i1 %3, label %13, label %4

4:                                                ; preds = %1
  %5 = getelementptr inbounds %"class.optimization_guide::proto::Model", %"class.optimization_guide::proto::Model"* %0, i64 0, i32 3
  %6 = load %"class.optimization_guide::proto::DoubleValue"*, %"class.optimization_guide::proto::DoubleValue"** %5, align 8
  %7 = icmp eq %"class.optimization_guide::proto::DoubleValue"* %6, null
  br i1 %7, label %13, label %8

8:                                                ; preds = %4
  %9 = bitcast %"class.optimization_guide::proto::DoubleValue"* %6 to void (%"class.optimization_guide::proto::DoubleValue"*)***
  %10 = load void (%"class.optimization_guide::proto::DoubleValue"*)**, void (%"class.optimization_guide::proto::DoubleValue"*)*** %9, align 8
  %11 = getelementptr inbounds void (%"class.optimization_guide::proto::DoubleValue"*)*, void (%"class.optimization_guide::proto::DoubleValue"*)** %10, i64 1
  %12 = load void (%"class.optimization_guide::proto::DoubleValue"*)*, void (%"class.optimization_guide::proto::DoubleValue"*)** %11, align 8
  tail call void %12(%"class.optimization_guide::proto::DoubleValue"* nonnull %6) #13
  br label %13

13:                                               ; preds = %8, %4, %1
  %14 = getelementptr inbounds %"class.optimization_guide::proto::Model", %"class.optimization_guide::proto::Model"* %0, i64 0, i32 5, i64 0
  %15 = load i32, i32* %14, align 8
  %16 = icmp eq i32 %15, 0
  br i1 %16, label %18, label %17

17:                                               ; preds = %13
  tail call void @_ZN18optimization_guide5proto5Model11clear_modelEv(%"class.optimization_guide::proto::Model"* %0) #13
  br label %18

18:                                               ; preds = %13, %17
  %19 = getelementptr inbounds %"class.optimization_guide::proto::Model", %"class.optimization_guide::proto::Model"* %0, i64 0, i32 0, i32 1
  %20 = bitcast %"class.google::protobuf::internal::InternalMetadata"* %19 to i64*
  %21 = load i64, i64* %20, align 8
  %22 = and i64 %21, 1
  %23 = icmp eq i64 %22, 0
  br i1 %23, label %44, label %24

24:                                               ; preds = %18
  %25 = and i64 %21, -2
  %26 = inttoptr i64 %25 to %"struct.google::protobuf::internal::InternalMetadata::ContainerBase"*
  %27 = getelementptr inbounds %"struct.google::protobuf::internal::InternalMetadata::ContainerBase", %"struct.google::protobuf::internal::InternalMetadata::ContainerBase"* %26, i64 0, i32 0
  %28 = load %"class.google::protobuf::Arena"*, %"class.google::protobuf::Arena"** %27, align 8
  %29 = icmp ne %"class.google::protobuf::Arena"* %28, null
  %30 = icmp eq i64 %25, 0
  %31 = or i1 %30, %29
  br i1 %31, label %44, label %32

32:                                               ; preds = %24
  %33 = inttoptr i64 %25 to %"struct.google::protobuf::internal::InternalMetadata::Container"*
  %34 = getelementptr inbounds %"struct.google::protobuf::internal::InternalMetadata::Container", %"struct.google::protobuf::internal::InternalMetadata::Container"* %33, i64 0, i32 1
  %35 = bitcast %"class.std::__1::basic_string"* %34 to %"struct.std::__1::basic_string<char, std::__1::char_traits<char>, std::__1::allocator<char> >::__short"*
  %36 = getelementptr inbounds %"struct.std::__1::basic_string<char, std::__1::char_traits<char>, std::__1::allocator<char> >::__short", %"struct.std::__1::basic_string<char, std::__1::char_traits<char>, std::__1::allocator<char> >::__short"* %35, i64 0, i32 1, i32 0
  %37 = load i8, i8* %36, align 1
  %38 = icmp slt i8 %37, 0
  br i1 %38, label %39, label %42

39:                                               ; preds = %32
  %40 = getelementptr inbounds %"class.std::__1::basic_string", %"class.std::__1::basic_string"* %34, i64 0, i32 0, i32 0, i32 0, i32 0, i32 0, i32 0
  %41 = load i8*, i8** %40, align 8
  tail call void @_ZdlPv(i8* %41) #16
  br label %42

42:                                               ; preds = %39, %32
  %43 = inttoptr i64 %25 to i8*
  tail call void @_ZdlPv(i8* %43) #16
  br label %44

44:                                               ; preds = %18, %24, %42
  ret void
}

; Function Attrs: nounwind ssp uwtable
define hidden void @_ZN18optimization_guide5proto5ModelD0Ev(%"class.optimization_guide::proto::Model"*) unnamed_addr #0 align 2 {
  %2 = getelementptr inbounds %"class.optimization_guide::proto::Model", %"class.optimization_guide::proto::Model"* %0, i64 0, i32 0, i32 0
  store i32 (...)** bitcast (i8** getelementptr inbounds ({ [16 x i8*] }, { [16 x i8*] }* @_ZTVN18optimization_guide5proto5ModelE, i64 0, inrange i32 0, i64 2) to i32 (...)**), i32 (...)*** %2, align 8
  %3 = icmp eq %"class.optimization_guide::proto::Model"* %0, bitcast (%"class.optimization_guide::proto::ModelDefaultTypeInternal"* @_ZN18optimization_guide5proto24_Model_default_instance_E to %"class.optimization_guide::proto::Model"*)
  br i1 %3, label %13, label %4

4:                                                ; preds = %1
  %5 = getelementptr inbounds %"class.optimization_guide::proto::Model", %"class.optimization_guide::proto::Model"* %0, i64 0, i32 3
  %6 = load %"class.optimization_guide::proto::DoubleValue"*, %"class.optimization_guide::proto::DoubleValue"** %5, align 8
  %7 = icmp eq %"class.optimization_guide::proto::DoubleValue"* %6, null
  br i1 %7, label %13, label %8

8:                                                ; preds = %4
  %9 = bitcast %"class.optimization_guide::proto::DoubleValue"* %6 to void (%"class.optimization_guide::proto::DoubleValue"*)***
  %10 = load void (%"class.optimization_guide::proto::DoubleValue"*)**, void (%"class.optimization_guide::proto::DoubleValue"*)*** %9, align 8
  %11 = getelementptr inbounds void (%"class.optimization_guide::proto::DoubleValue"*)*, void (%"class.optimization_guide::proto::DoubleValue"*)** %10, i64 1
  %12 = load void (%"class.optimization_guide::proto::DoubleValue"*)*, void (%"class.optimization_guide::proto::DoubleValue"*)** %11, align 8
  tail call void %12(%"class.optimization_guide::proto::DoubleValue"* nonnull %6) #13
  br label %13

13:                                               ; preds = %8, %4, %1
  %14 = getelementptr inbounds %"class.optimization_guide::proto::Model", %"class.optimization_guide::proto::Model"* %0, i64 0, i32 5, i64 0
  %15 = load i32, i32* %14, align 8
  %16 = icmp eq i32 %15, 0
  br i1 %16, label %18, label %17

17:                                               ; preds = %13
  tail call void @_ZN18optimization_guide5proto5Model11clear_modelEv(%"class.optimization_guide::proto::Model"* %0) #13
  br label %18

18:                                               ; preds = %17, %13
  %19 = getelementptr inbounds %"class.optimization_guide::proto::Model", %"class.optimization_guide::proto::Model"* %0, i64 0, i32 0, i32 1
  %20 = bitcast %"class.google::protobuf::internal::InternalMetadata"* %19 to i64*
  %21 = load i64, i64* %20, align 8
  %22 = and i64 %21, 1
  %23 = icmp eq i64 %22, 0
  br i1 %23, label %44, label %24

24:                                               ; preds = %18
  %25 = and i64 %21, -2
  %26 = inttoptr i64 %25 to %"struct.google::protobuf::internal::InternalMetadata::ContainerBase"*
  %27 = getelementptr inbounds %"struct.google::protobuf::internal::InternalMetadata::ContainerBase", %"struct.google::protobuf::internal::InternalMetadata::ContainerBase"* %26, i64 0, i32 0
  %28 = load %"class.google::protobuf::Arena"*, %"class.google::protobuf::Arena"** %27, align 8
  %29 = icmp ne %"class.google::protobuf::Arena"* %28, null
  %30 = icmp eq i64 %25, 0
  %31 = or i1 %30, %29
  br i1 %31, label %44, label %32

32:                                               ; preds = %24
  %33 = inttoptr i64 %25 to %"struct.google::protobuf::internal::InternalMetadata::Container"*
  %34 = getelementptr inbounds %"struct.google::protobuf::internal::InternalMetadata::Container", %"struct.google::protobuf::internal::InternalMetadata::Container"* %33, i64 0, i32 1
  %35 = bitcast %"class.std::__1::basic_string"* %34 to %"struct.std::__1::basic_string<char, std::__1::char_traits<char>, std::__1::allocator<char> >::__short"*
  %36 = getelementptr inbounds %"struct.std::__1::basic_string<char, std::__1::char_traits<char>, std::__1::allocator<char> >::__short", %"struct.std::__1::basic_string<char, std::__1::char_traits<char>, std::__1::allocator<char> >::__short"* %35, i64 0, i32 1, i32 0
  %37 = load i8, i8* %36, align 1
  %38 = icmp slt i8 %37, 0
  br i1 %38, label %39, label %42

39:                                               ; preds = %32
  %40 = getelementptr inbounds %"class.std::__1::basic_string", %"class.std::__1::basic_string"* %34, i64 0, i32 0, i32 0, i32 0, i32 0, i32 0, i32 0
  %41 = load i8*, i8** %40, align 8
  tail call void @_ZdlPv(i8* %41) #16
  br label %42

42:                                               ; preds = %39, %32
  %43 = inttoptr i64 %25 to i8*
  tail call void @_ZdlPv(i8* %43) #16
  br label %44

44:                                               ; preds = %18, %24, %42
  %45 = bitcast %"class.optimization_guide::proto::Model"* %0 to i8*
  tail call void @_ZdlPv(i8* %45) #16
  ret void
}

; Function Attrs: nobuiltin nounwind
declare void @_ZdlPv(i8*) local_unnamed_addr #7

; Function Attrs: norecurse nounwind readnone ssp uwtable
define hidden void @_ZN18optimization_guide5proto5Model9ArenaDtorEPv(i8* nocapture) local_unnamed_addr #1 align 2 {
  ret void
}

; Function Attrs: nofree norecurse nounwind ssp uwtable
define hidden void @_ZNK18optimization_guide5proto5Model13SetCachedSizeEi(%"class.optimization_guide::proto::Model"* nocapture, i32) local_unnamed_addr #8 align 2 {
  %3 = getelementptr inbounds %"class.optimization_guide::proto::Model", %"class.optimization_guide::proto::Model"* %0, i64 0, i32 2, i32 0, i32 0, i32 0, i32 0, i32 0, i32 0
  store atomic i32 %1, i32* %3 monotonic, align 4
  ret void
}

; Function Attrs: nounwind ssp uwtable
define hidden dereferenceable(48) %"class.optimization_guide::proto::Model"* @_ZN18optimization_guide5proto5Model16default_instanceEv() local_unnamed_addr #0 align 2 {
  %1 = load atomic i32, i32* getelementptr inbounds ({ { { { i32 } }, i32, i32, void ()* }, [2 x i8*] }, { { { { i32 } }, i32, i32, void ()* }, [2 x i8*] }* @scc_info_Ensemble_components_2foptimization_5fguide_2fproto_2fmodels_2eproto, i64 0, i32 0, i32 0, i32 0, i32 0) acquire, align 8
  %2 = icmp eq i32 %1, 0
  br i1 %2, label %4, label %3, !prof !2

3:                                                ; preds = %0
  tail call void @_ZN6google8protobuf8internal11InitSCCImplEPNS1_11SCCInfoBaseE(%"struct.google::protobuf::internal::SCCInfoBase"* bitcast ({ { { { i32 } }, i32, i32, void ()* }, [2 x i8*] }* @scc_info_Ensemble_components_2foptimization_5fguide_2fproto_2fmodels_2eproto to %"struct.google::protobuf::internal::SCCInfoBase"*)) #13
  br label %4

4:                                                ; preds = %0, %3
  ret %"class.optimization_guide::proto::Model"* bitcast (%"class.optimization_guide::proto::ModelDefaultTypeInternal"* @_ZN18optimization_guide5proto24_Model_default_instance_E to %"class.optimization_guide::proto::Model"*)
}

; Function Attrs: nounwind ssp uwtable
define hidden void @_ZN18optimization_guide5proto5Model5ClearEv(%"class.optimization_guide::proto::Model"* nocapture) unnamed_addr #0 align 2 {
  %2 = getelementptr inbounds %"class.optimization_guide::proto::Model", %"class.optimization_guide::proto::Model"* %0, i64 0, i32 1, i32 0, i64 0
  %3 = load i32, i32* %2, align 4
  %4 = and i32 %3, 1
  %5 = icmp eq i32 %4, 0
  br i1 %5, label %30, label %6

6:                                                ; preds = %1
  %7 = getelementptr inbounds %"class.optimization_guide::proto::Model", %"class.optimization_guide::proto::Model"* %0, i64 0, i32 3
  %8 = load %"class.optimization_guide::proto::DoubleValue"*, %"class.optimization_guide::proto::DoubleValue"** %7, align 8
  %9 = getelementptr inbounds %"class.optimization_guide::proto::DoubleValue", %"class.optimization_guide::proto::DoubleValue"* %8, i64 0, i32 3
  store double 0.000000e+00, double* %9, align 8
  %10 = getelementptr inbounds %"class.optimization_guide::proto::DoubleValue", %"class.optimization_guide::proto::DoubleValue"* %8, i64 0, i32 1, i32 0, i64 0
  store i32 0, i32* %10, align 4
  %11 = getelementptr inbounds %"class.optimization_guide::proto::DoubleValue", %"class.optimization_guide::proto::DoubleValue"* %8, i64 0, i32 0, i32 1
  %12 = bitcast %"class.google::protobuf::internal::InternalMetadata"* %11 to i64*
  %13 = load i64, i64* %12, align 8
  %14 = and i64 %13, 1
  %15 = icmp eq i64 %14, 0
  br i1 %15, label %30, label %16

16:                                               ; preds = %6
  %17 = and i64 %13, -2
  %18 = inttoptr i64 %17 to %"struct.google::protobuf::internal::InternalMetadata::Container"*
  %19 = getelementptr inbounds %"struct.google::protobuf::internal::InternalMetadata::Container", %"struct.google::protobuf::internal::InternalMetadata::Container"* %18, i64 0, i32 1
  %20 = bitcast %"class.std::__1::basic_string"* %19 to %"struct.std::__1::basic_string<char, std::__1::char_traits<char>, std::__1::allocator<char> >::__short"*
  %21 = getelementptr inbounds %"struct.std::__1::basic_string<char, std::__1::char_traits<char>, std::__1::allocator<char> >::__short", %"struct.std::__1::basic_string<char, std::__1::char_traits<char>, std::__1::allocator<char> >::__short"* %20, i64 0, i32 1, i32 0
  %22 = load i8, i8* %21, align 1
  %23 = icmp slt i8 %22, 0
  br i1 %23, label %24, label %28

24:                                               ; preds = %16
  %25 = getelementptr inbounds %"class.std::__1::basic_string", %"class.std::__1::basic_string"* %19, i64 0, i32 0, i32 0, i32 0, i32 0, i32 0, i32 0
  %26 = load i8*, i8** %25, align 8
  store i8 0, i8* %26, align 1
  %27 = getelementptr inbounds %"struct.google::protobuf::internal::InternalMetadata::Container", %"struct.google::protobuf::internal::InternalMetadata::Container"* %18, i64 0, i32 1, i32 0, i32 0, i32 0, i32 0, i32 0, i32 1
  store i64 0, i64* %27, align 8
  br label %30

28:                                               ; preds = %16
  %29 = bitcast %"class.std::__1::basic_string"* %19 to i8*
  store i8 0, i8* %29, align 2
  store i8 0, i8* %21, align 1
  br label %30

30:                                               ; preds = %28, %24, %6, %1
  tail call void @_ZN18optimization_guide5proto5Model11clear_modelEv(%"class.optimization_guide::proto::Model"* %0)
  store i32 0, i32* %2, align 4
  %31 = getelementptr inbounds %"class.optimization_guide::proto::Model", %"class.optimization_guide::proto::Model"* %0, i64 0, i32 0, i32 1
  %32 = bitcast %"class.google::protobuf::internal::InternalMetadata"* %31 to i64*
  %33 = load i64, i64* %32, align 8
  %34 = and i64 %33, 1
  %35 = icmp eq i64 %34, 0
  br i1 %35, label %50, label %36

36:                                               ; preds = %30
  %37 = and i64 %33, -2
  %38 = inttoptr i64 %37 to %"struct.google::protobuf::internal::InternalMetadata::Container"*
  %39 = getelementptr inbounds %"struct.google::protobuf::internal::InternalMetadata::Container", %"struct.google::protobuf::internal::InternalMetadata::Container"* %38, i64 0, i32 1
  %40 = bitcast %"class.std::__1::basic_string"* %39 to %"struct.std::__1::basic_string<char, std::__1::char_traits<char>, std::__1::allocator<char> >::__short"*
  %41 = getelementptr inbounds %"struct.std::__1::basic_string<char, std::__1::char_traits<char>, std::__1::allocator<char> >::__short", %"struct.std::__1::basic_string<char, std::__1::char_traits<char>, std::__1::allocator<char> >::__short"* %40, i64 0, i32 1, i32 0
  %42 = load i8, i8* %41, align 1
  %43 = icmp slt i8 %42, 0
  br i1 %43, label %44, label %48

44:                                               ; preds = %36
  %45 = getelementptr inbounds %"class.std::__1::basic_string", %"class.std::__1::basic_string"* %39, i64 0, i32 0, i32 0, i32 0, i32 0, i32 0, i32 0
  %46 = load i8*, i8** %45, align 8
  store i8 0, i8* %46, align 1
  %47 = getelementptr inbounds %"struct.google::protobuf::internal::InternalMetadata::Container", %"struct.google::protobuf::internal::InternalMetadata::Container"* %38, i64 0, i32 1, i32 0, i32 0, i32 0, i32 0, i32 0, i32 1
  store i64 0, i64* %47, align 8
  br label %50

48:                                               ; preds = %36
  %49 = bitcast %"class.std::__1::basic_string"* %39 to i8*
  store i8 0, i8* %49, align 2
  store i8 0, i8* %41, align 1
  br label %50

50:                                               ; preds = %30, %44, %48
  ret void
}

; Function Attrs: nofree norecurse nounwind ssp uwtable
define hidden void @_ZN18optimization_guide5proto11DoubleValue5ClearEv(%"class.optimization_guide::proto::DoubleValue"* nocapture) unnamed_addr #8 align 2 {
  %2 = getelementptr inbounds %"class.optimization_guide::proto::DoubleValue", %"class.optimization_guide::proto::DoubleValue"* %0, i64 0, i32 3
  store double 0.000000e+00, double* %2, align 8
  %3 = getelementptr inbounds %"class.optimization_guide::proto::DoubleValue", %"class.optimization_guide::proto::DoubleValue"* %0, i64 0, i32 1, i32 0, i64 0
  store i32 0, i32* %3, align 4
  %4 = getelementptr inbounds %"class.optimization_guide::proto::DoubleValue", %"class.optimization_guide::proto::DoubleValue"* %0, i64 0, i32 0, i32 1
  %5 = bitcast %"class.google::protobuf::internal::InternalMetadata"* %4 to i64*
  %6 = load i64, i64* %5, align 8
  %7 = and i64 %6, 1
  %8 = icmp eq i64 %7, 0
  br i1 %8, label %23, label %9

9:                                                ; preds = %1
  %10 = and i64 %6, -2
  %11 = inttoptr i64 %10 to %"struct.google::protobuf::internal::InternalMetadata::Container"*
  %12 = getelementptr inbounds %"struct.google::protobuf::internal::InternalMetadata::Container", %"struct.google::protobuf::internal::InternalMetadata::Container"* %11, i64 0, i32 1
  %13 = bitcast %"class.std::__1::basic_string"* %12 to %"struct.std::__1::basic_string<char, std::__1::char_traits<char>, std::__1::allocator<char> >::__short"*
  %14 = getelementptr inbounds %"struct.std::__1::basic_string<char, std::__1::char_traits<char>, std::__1::allocator<char> >::__short", %"struct.std::__1::basic_string<char, std::__1::char_traits<char>, std::__1::allocator<char> >::__short"* %13, i64 0, i32 1, i32 0
  %15 = load i8, i8* %14, align 1
  %16 = icmp slt i8 %15, 0
  br i1 %16, label %17, label %21

17:                                               ; preds = %9
  %18 = getelementptr inbounds %"class.std::__1::basic_string", %"class.std::__1::basic_string"* %12, i64 0, i32 0, i32 0, i32 0, i32 0, i32 0, i32 0
  %19 = load i8*, i8** %18, align 8
  store i8 0, i8* %19, align 1
  %20 = getelementptr inbounds %"struct.google::protobuf::internal::InternalMetadata::Container", %"struct.google::protobuf::internal::InternalMetadata::Container"* %11, i64 0, i32 1, i32 0, i32 0, i32 0, i32 0, i32 0, i32 1
  store i64 0, i64* %20, align 8
  br label %23

21:                                               ; preds = %9
  %22 = bitcast %"class.std::__1::basic_string"* %12 to i8*
  store i8 0, i8* %22, align 2
  store i8 0, i8* %14, align 1
  br label %23

23:                                               ; preds = %1, %17, %21
  ret void
}

; Function Attrs: nounwind ssp uwtable
define hidden i8* @_ZN18optimization_guide5proto5Model14_InternalParseEPKcPN6google8protobuf8internal12ParseContextE(%"class.optimization_guide::proto::Model"*, i8*, %"class.google::protobuf::internal::ParseContext"*) unnamed_addr #0 align 2 {
  %4 = getelementptr inbounds %"class.google::protobuf::internal::ParseContext", %"class.google::protobuf::internal::ParseContext"* %2, i64 0, i32 0
  %5 = getelementptr inbounds %"class.google::protobuf::internal::ParseContext", %"class.google::protobuf::internal::ParseContext"* %2, i64 0, i32 2
  %6 = getelementptr inbounds %"class.google::protobuf::internal::ParseContext", %"class.google::protobuf::internal::ParseContext"* %2, i64 0, i32 0, i32 0
  %7 = getelementptr inbounds %"class.google::protobuf::internal::ParseContext", %"class.google::protobuf::internal::ParseContext"* %2, i64 0, i32 0, i32 1
  %8 = bitcast i8** %7 to i64*
  %9 = getelementptr inbounds %"class.google::protobuf::internal::ParseContext", %"class.google::protobuf::internal::ParseContext"* %2, i64 0, i32 0, i32 4
  %10 = getelementptr inbounds %"class.optimization_guide::proto::Model", %"class.optimization_guide::proto::Model"* %0, i64 0, i32 1, i32 0, i64 0
  %11 = getelementptr inbounds %"class.optimization_guide::proto::Model", %"class.optimization_guide::proto::Model"* %0, i64 0, i32 3
  %12 = getelementptr inbounds %"class.optimization_guide::proto::Model", %"class.optimization_guide::proto::Model"* %0, i64 0, i32 0, i32 1
  %13 = bitcast %"class.google::protobuf::internal::InternalMetadata"* %12 to i64*
  %14 = getelementptr inbounds %"class.optimization_guide::proto::Model", %"class.optimization_guide::proto::Model"* %0, i64 0, i32 5, i64 0
  %15 = getelementptr inbounds %"class.optimization_guide::proto::Model", %"class.optimization_guide::proto::Model"* %0, i64 0, i32 4
  %16 = bitcast %"union.optimization_guide::proto::Model::ModelUnion"* %15 to %"class.std::__1::basic_string"**
  %17 = bitcast %"union.optimization_guide::proto::Model::ModelUnion"* %15 to %"struct.google::protobuf::internal::ArenaStringPtr"*
  %18 = bitcast %"union.optimization_guide::proto::Model::ModelUnion"* %15 to %"class.optimization_guide::proto::Ensemble"**
  %19 = getelementptr inbounds %"class.optimization_guide::proto::Model", %"class.optimization_guide::proto::Model"* %0, i64 0, i32 4, i32 0
  br label %20

20:                                               ; preds = %143, %3
  %21 = phi i8* [ %1, %3 ], [ %144, %143 ]
  %22 = load i32, i32* %5, align 4
  %23 = load i8*, i8** %6, align 8
  %24 = icmp ult i8* %21, %23
  br i1 %24, label %38, label %25, !prof !2

25:                                               ; preds = %20
  %26 = load i64, i64* %8, align 8
  %27 = ptrtoint i8* %21 to i64
  %28 = sub i64 %27, %26
  %29 = load i32, i32* %9, align 4
  %30 = sext i32 %29 to i64
  %31 = icmp eq i64 %28, %30
  br i1 %31, label %193, label %32

32:                                               ; preds = %25
  %33 = tail call { i8*, i8 } @_ZN6google8protobuf8internal18EpsCopyInputStream12DoneFallbackEPKci(%"class.google::protobuf::internal::EpsCopyInputStream"* %4, i8* %21, i32 %22) #13
  %34 = extractvalue { i8*, i8 } %33, 0
  %35 = extractvalue { i8*, i8 } %33, 1
  %36 = and i8 %35, 1
  %37 = icmp eq i8 %36, 0
  br i1 %37, label %38, label %193

38:                                               ; preds = %32, %20
  %39 = phi i8* [ %34, %32 ], [ %21, %20 ]
  %40 = load i8, i8* %39, align 1
  %41 = zext i8 %40 to i32
  %42 = icmp sgt i8 %40, -1
  %43 = getelementptr inbounds i8, i8* %39, i64 1
  br i1 %42, label %57, label %44

44:                                               ; preds = %38
  %45 = load i8, i8* %43, align 1
  %46 = zext i8 %45 to i32
  %47 = shl nuw nsw i32 %46, 7
  %48 = add nsw i32 %41, -128
  %49 = add nsw i32 %48, %47
  %50 = icmp sgt i8 %45, -1
  br i1 %50, label %51, label %53

51:                                               ; preds = %44
  %52 = getelementptr inbounds i8, i8* %39, i64 2
  br label %57

53:                                               ; preds = %44
  %54 = tail call { i8*, i32 } @_ZN6google8protobuf8internal15ReadTagFallbackEPKcj(i8* %39, i32 %49) #13
  %55 = extractvalue { i8*, i32 } %54, 0
  %56 = extractvalue { i8*, i32 } %54, 1
  br label %57

57:                                               ; preds = %38, %51, %53
  %58 = phi i32 [ %49, %51 ], [ %56, %53 ], [ %41, %38 ]
  %59 = phi i8* [ %52, %51 ], [ %55, %53 ], [ %43, %38 ]
  %60 = icmp eq i8* %59, null
  br i1 %60, label %193, label %61, !prof !5

61:                                               ; preds = %57
  %62 = lshr i32 %58, 3
  switch i32 %62, label %171 [
    i32 1, label %63
    i32 2, label %89
    i32 5, label %115
    i32 123, label %145
  ]

63:                                               ; preds = %61
  %64 = and i32 %58, 255
  %65 = icmp eq i32 %64, 10
  br i1 %65, label %66, label %171, !prof !2

66:                                               ; preds = %63
  %67 = load i32, i32* %14, align 8
  %68 = icmp eq i32 %67, 1
  br i1 %68, label %69, label %71

69:                                               ; preds = %66
  %70 = load %"class.optimization_guide::proto::DecisionTree"*, %"class.optimization_guide::proto::DecisionTree"** %19, align 8
  br label %85

71:                                               ; preds = %66
  tail call void @_ZN18optimization_guide5proto5Model11clear_modelEv(%"class.optimization_guide::proto::Model"* %0) #13
  store i32 1, i32* %14, align 8
  %72 = load i64, i64* %13, align 8
  %73 = and i64 %72, 1
  %74 = icmp eq i64 %73, 0
  %75 = and i64 %72, -2
  br i1 %74, label %80, label %76, !prof !2

76:                                               ; preds = %71
  %77 = inttoptr i64 %75 to %"struct.google::protobuf::internal::InternalMetadata::ContainerBase"*
  %78 = getelementptr inbounds %"struct.google::protobuf::internal::InternalMetadata::ContainerBase", %"struct.google::protobuf::internal::InternalMetadata::ContainerBase"* %77, i64 0, i32 0
  %79 = load %"class.google::protobuf::Arena"*, %"class.google::protobuf::Arena"** %78, align 8
  br label %82

80:                                               ; preds = %71
  %81 = inttoptr i64 %75 to %"class.google::protobuf::Arena"*
  br label %82

82:                                               ; preds = %80, %76
  %83 = phi %"class.google::protobuf::Arena"* [ %79, %76 ], [ %81, %80 ]
  %84 = tail call %"class.optimization_guide::proto::DecisionTree"* @_ZN6google8protobuf5Arena18CreateMaybeMessageIN18optimization_guide5proto12DecisionTreeEJEEEPT_PS1_DpOT0_(%"class.google::protobuf::Arena"* %83) #13
  store %"class.optimization_guide::proto::DecisionTree"* %84, %"class.optimization_guide::proto::DecisionTree"** %19, align 8
  br label %85

85:                                               ; preds = %69, %82
  %86 = phi %"class.optimization_guide::proto::DecisionTree"* [ %70, %69 ], [ %84, %82 ]
  %87 = tail call i8* @_ZN6google8protobuf8internal12ParseContext12ParseMessageIN18optimization_guide5proto12DecisionTreeEEEPKcPT_S8_(%"class.google::protobuf::internal::ParseContext"* %2, %"class.optimization_guide::proto::DecisionTree"* %86, i8* nonnull %59)
  %88 = icmp eq i8* %87, null
  br i1 %88, label %193, label %143

89:                                               ; preds = %61
  %90 = and i32 %58, 255
  %91 = icmp eq i32 %90, 18
  br i1 %91, label %92, label %171, !prof !2

92:                                               ; preds = %89
  %93 = load i32, i32* %14, align 8
  %94 = icmp eq i32 %93, 2
  br i1 %94, label %95, label %97

95:                                               ; preds = %92
  %96 = load %"class.optimization_guide::proto::Ensemble"*, %"class.optimization_guide::proto::Ensemble"** %18, align 8
  br label %111

97:                                               ; preds = %92
  tail call void @_ZN18optimization_guide5proto5Model11clear_modelEv(%"class.optimization_guide::proto::Model"* %0) #13
  store i32 2, i32* %14, align 8
  %98 = load i64, i64* %13, align 8
  %99 = and i64 %98, 1
  %100 = icmp eq i64 %99, 0
  %101 = and i64 %98, -2
  br i1 %100, label %106, label %102, !prof !2

102:                                              ; preds = %97
  %103 = inttoptr i64 %101 to %"struct.google::protobuf::internal::InternalMetadata::ContainerBase"*
  %104 = getelementptr inbounds %"struct.google::protobuf::internal::InternalMetadata::ContainerBase", %"struct.google::protobuf::internal::InternalMetadata::ContainerBase"* %103, i64 0, i32 0
  %105 = load %"class.google::protobuf::Arena"*, %"class.google::protobuf::Arena"** %104, align 8
  br label %108

106:                                              ; preds = %97
  %107 = inttoptr i64 %101 to %"class.google::protobuf::Arena"*
  br label %108

108:                                              ; preds = %106, %102
  %109 = phi %"class.google::protobuf::Arena"* [ %105, %102 ], [ %107, %106 ]
  %110 = tail call %"class.optimization_guide::proto::Ensemble"* @_ZN6google8protobuf5Arena18CreateMaybeMessageIN18optimization_guide5proto8EnsembleEJEEEPT_PS1_DpOT0_(%"class.google::protobuf::Arena"* %109) #13
  store %"class.optimization_guide::proto::Ensemble"* %110, %"class.optimization_guide::proto::Ensemble"** %18, align 8
  br label %111

111:                                              ; preds = %95, %108
  %112 = phi %"class.optimization_guide::proto::Ensemble"* [ %96, %95 ], [ %110, %108 ]
  %113 = tail call i8* @_ZN6google8protobuf8internal12ParseContext12ParseMessageIN18optimization_guide5proto8EnsembleEEEPKcPT_S8_(%"class.google::protobuf::internal::ParseContext"* %2, %"class.optimization_guide::proto::Ensemble"* %112, i8* nonnull %59)
  %114 = icmp eq i8* %113, null
  br i1 %114, label %193, label %143

115:                                              ; preds = %61
  %116 = and i32 %58, 255
  %117 = icmp eq i32 %116, 42
  br i1 %117, label %118, label %171, !prof !2

118:                                              ; preds = %115
  %119 = load i32, i32* %14, align 8
  %120 = icmp eq i32 %119, 5
  br i1 %120, label %122, label %121

121:                                              ; preds = %118
  tail call void @_ZN18optimization_guide5proto5Model11clear_modelEv(%"class.optimization_guide::proto::Model"* %0) #13
  store i32 5, i32* %14, align 8
  store %"class.std::__1::basic_string"* bitcast (%"class.google::protobuf::internal::ExplicitlyConstructed.24"* @_ZN6google8protobuf8internal26fixed_address_empty_stringE to %"class.std::__1::basic_string"*), %"class.std::__1::basic_string"** %16, align 8
  br label %122

122:                                              ; preds = %121, %118
  %123 = load i64, i64* %13, align 8
  %124 = and i64 %123, 1
  %125 = icmp eq i64 %124, 0
  %126 = and i64 %123, -2
  br i1 %125, label %131, label %127, !prof !2

127:                                              ; preds = %122
  %128 = inttoptr i64 %126 to %"struct.google::protobuf::internal::InternalMetadata::ContainerBase"*
  %129 = getelementptr inbounds %"struct.google::protobuf::internal::InternalMetadata::ContainerBase", %"struct.google::protobuf::internal::InternalMetadata::ContainerBase"* %128, i64 0, i32 0
  %130 = load %"class.google::protobuf::Arena"*, %"class.google::protobuf::Arena"** %129, align 8
  br label %133

131:                                              ; preds = %122
  %132 = inttoptr i64 %126 to %"class.google::protobuf::Arena"*
  br label %133

133:                                              ; preds = %131, %127
  %134 = phi %"class.google::protobuf::Arena"* [ %130, %127 ], [ %132, %131 ]
  %135 = load %"class.std::__1::basic_string"*, %"class.std::__1::basic_string"** %16, align 8
  %136 = icmp eq %"class.std::__1::basic_string"* %135, bitcast (%"class.google::protobuf::internal::ExplicitlyConstructed.24"* @_ZN6google8protobuf8internal26fixed_address_empty_stringE to %"class.std::__1::basic_string"*)
  br i1 %136, label %137, label %139

137:                                              ; preds = %133
  tail call void @_ZN6google8protobuf8internal14ArenaStringPtr14CreateInstanceEPNS0_5ArenaEPKNSt3__112basic_stringIcNS5_11char_traitsIcEENS5_9allocatorIcEEEE(%"struct.google::protobuf::internal::ArenaStringPtr"* %17, %"class.google::protobuf::Arena"* %134, %"class.std::__1::basic_string"* bitcast (%"class.google::protobuf::internal::ExplicitlyConstructed.24"* @_ZN6google8protobuf8internal26fixed_address_empty_stringE to %"class.std::__1::basic_string"*)) #13
  %138 = load %"class.std::__1::basic_string"*, %"class.std::__1::basic_string"** %16, align 8
  br label %139

139:                                              ; preds = %133, %137
  %140 = phi %"class.std::__1::basic_string"* [ %138, %137 ], [ %135, %133 ]
  %141 = tail call i8* @_ZN6google8protobuf8internal24InlineGreedyStringParserEPNSt3__112basic_stringIcNS2_11char_traitsIcEENS2_9allocatorIcEEEEPKcPNS1_12ParseContextE(%"class.std::__1::basic_string"* %140, i8* nonnull %59, %"class.google::protobuf::internal::ParseContext"* %2) #13
  %142 = icmp eq i8* %141, null
  br i1 %142, label %193, label %143

143:                                              ; preds = %139, %189, %167, %111, %85
  %144 = phi i8* [ %191, %189 ], [ %169, %167 ], [ %113, %111 ], [ %87, %85 ], [ %141, %139 ]
  br label %20

145:                                              ; preds = %61
  %146 = and i32 %58, 255
  %147 = icmp eq i32 %146, 218
  br i1 %147, label %148, label %171, !prof !2

148:                                              ; preds = %145
  %149 = load i32, i32* %10, align 4
  %150 = or i32 %149, 1
  store i32 %150, i32* %10, align 4
  %151 = load %"class.optimization_guide::proto::DoubleValue"*, %"class.optimization_guide::proto::DoubleValue"** %11, align 8
  %152 = icmp eq %"class.optimization_guide::proto::DoubleValue"* %151, null
  br i1 %152, label %153, label %167

153:                                              ; preds = %148
  %154 = load i64, i64* %13, align 8
  %155 = and i64 %154, 1
  %156 = icmp eq i64 %155, 0
  %157 = and i64 %154, -2
  br i1 %156, label %162, label %158, !prof !2

158:                                              ; preds = %153
  %159 = inttoptr i64 %157 to %"struct.google::protobuf::internal::InternalMetadata::ContainerBase"*
  %160 = getelementptr inbounds %"struct.google::protobuf::internal::InternalMetadata::ContainerBase", %"struct.google::protobuf::internal::InternalMetadata::ContainerBase"* %159, i64 0, i32 0
  %161 = load %"class.google::protobuf::Arena"*, %"class.google::protobuf::Arena"** %160, align 8
  br label %164

162:                                              ; preds = %153
  %163 = inttoptr i64 %157 to %"class.google::protobuf::Arena"*
  br label %164

164:                                              ; preds = %162, %158
  %165 = phi %"class.google::protobuf::Arena"* [ %161, %158 ], [ %163, %162 ]
  %166 = tail call %"class.optimization_guide::proto::DoubleValue"* @_ZN6google8protobuf5Arena18CreateMaybeMessageIN18optimization_guide5proto11DoubleValueEJEEEPT_PS1_DpOT0_(%"class.google::protobuf::Arena"* %165) #13
  store %"class.optimization_guide::proto::DoubleValue"* %166, %"class.optimization_guide::proto::DoubleValue"** %11, align 8
  br label %167

167:                                              ; preds = %148, %164
  %168 = phi %"class.optimization_guide::proto::DoubleValue"* [ %166, %164 ], [ %151, %148 ]
  %169 = tail call i8* @_ZN6google8protobuf8internal12ParseContext12ParseMessageIN18optimization_guide5proto11DoubleValueEEEPKcPT_S8_(%"class.google::protobuf::internal::ParseContext"* %2, %"class.optimization_guide::proto::DoubleValue"* %168, i8* nonnull %59)
  %170 = icmp eq i8* %169, null
  br i1 %170, label %193, label %143

171:                                              ; preds = %61, %145, %115, %89, %63
  %172 = and i32 %58, 7
  %173 = icmp eq i32 %172, 4
  %174 = icmp eq i32 %58, 0
  %175 = or i1 %174, %173
  br i1 %175, label %176, label %179

176:                                              ; preds = %171
  %177 = add i32 %58, -1
  %178 = getelementptr inbounds %"class.google::protobuf::internal::ParseContext", %"class.google::protobuf::internal::ParseContext"* %2, i64 0, i32 0, i32 8
  store i32 %177, i32* %178, align 8
  br label %193

179:                                              ; preds = %171
  %180 = load i64, i64* %13, align 8
  %181 = and i64 %180, 1
  %182 = icmp eq i64 %181, 0
  br i1 %182, label %187, label %183, !prof !5

183:                                              ; preds = %179
  %184 = and i64 %180, -2
  %185 = inttoptr i64 %184 to %"struct.google::protobuf::internal::InternalMetadata::Container"*
  %186 = getelementptr inbounds %"struct.google::protobuf::internal::InternalMetadata::Container", %"struct.google::protobuf::internal::InternalMetadata::Container"* %185, i64 0, i32 1
  br label %189

187:                                              ; preds = %179
  %188 = tail call %"class.std::__1::basic_string"* @_ZN6google8protobuf8internal16InternalMetadata27mutable_unknown_fields_slowINSt3__112basic_stringIcNS4_11char_traitsIcEENS4_9allocatorIcEEEEEEPT_v(%"class.google::protobuf::internal::InternalMetadata"* %12) #13
  br label %189

189:                                              ; preds = %183, %187
  %190 = phi %"class.std::__1::basic_string"* [ %186, %183 ], [ %188, %187 ]
  %191 = tail call i8* @_ZN6google8protobuf8internal17UnknownFieldParseEjPNSt3__112basic_stringIcNS2_11char_traitsIcEENS2_9allocatorIcEEEEPKcPNS1_12ParseContextE(i32 %58, %"class.std::__1::basic_string"* %190, i8* nonnull %59, %"class.google::protobuf::internal::ParseContext"* %2) #13
  %192 = icmp eq i8* %191, null
  br i1 %192, label %193, label %143

193:                                              ; preds = %139, %25, %189, %167, %111, %85, %57, %32, %176
  %194 = phi i8* [ %59, %176 ], [ null, %139 ], [ null, %57 ], [ null, %85 ], [ null, %111 ], [ null, %167 ], [ null, %189 ], [ %21, %25 ], [ %34, %32 ]
  ret i8* %194
}

; Function Attrs: nounwind ssp uwtable
define linkonce_odr hidden i8* @_ZN6google8protobuf8internal12ParseContext12ParseMessageIN18optimization_guide5proto12DecisionTreeEEEPKcPT_S8_(%"class.google::protobuf::internal::ParseContext"*, %"class.optimization_guide::proto::DecisionTree"*, i8*) local_unnamed_addr #0 comdat align 2 {
  %4 = load i8, i8* %2, align 1
  %5 = zext i8 %4 to i32
  %6 = icmp sgt i8 %4, -1
  br i1 %6, label %7, label %9

7:                                                ; preds = %3
  %8 = getelementptr inbounds i8, i8* %2, i64 1
  br label %13

9:                                                ; preds = %3
  %10 = tail call { i8*, i32 } @_ZN6google8protobuf8internal16ReadSizeFallbackEPKcj(i8* %2, i32 %5) #13
  %11 = extractvalue { i8*, i32 } %10, 0
  %12 = extractvalue { i8*, i32 } %10, 1
  br label %13

13:                                               ; preds = %7, %9
  %14 = phi i8* [ %11, %9 ], [ %8, %7 ]
  %15 = phi i32 [ %12, %9 ], [ %5, %7 ]
  %16 = icmp eq i8* %14, null
  br i1 %16, label %55, label %17

17:                                               ; preds = %13
  %18 = getelementptr inbounds %"class.google::protobuf::internal::ParseContext", %"class.google::protobuf::internal::ParseContext"* %0, i64 0, i32 0, i32 1
  %19 = bitcast i8** %18 to i64*
  %20 = load i64, i64* %19, align 8
  %21 = ptrtoint i8* %14 to i64
  %22 = sub i64 %21, %20
  %23 = trunc i64 %22 to i32
  %24 = add nsw i32 %15, %23
  %25 = inttoptr i64 %20 to i8*
  %26 = icmp slt i32 %24, 0
  %27 = select i1 %26, i32 %24, i32 0
  %28 = sext i32 %27 to i64
  %29 = getelementptr inbounds i8, i8* %25, i64 %28
  %30 = getelementptr inbounds %"class.google::protobuf::internal::ParseContext", %"class.google::protobuf::internal::ParseContext"* %0, i64 0, i32 0, i32 0
  store i8* %29, i8** %30, align 8
  %31 = getelementptr inbounds %"class.google::protobuf::internal::ParseContext", %"class.google::protobuf::internal::ParseContext"* %0, i64 0, i32 0, i32 4
  %32 = load i32, i32* %31, align 4
  store i32 %24, i32* %31, align 4
  %33 = sub nsw i32 %32, %24
  %34 = getelementptr inbounds %"class.google::protobuf::internal::ParseContext", %"class.google::protobuf::internal::ParseContext"* %0, i64 0, i32 1
  %35 = load i32, i32* %34, align 8
  %36 = add nsw i32 %35, -1
  store i32 %36, i32* %34, align 8
  %37 = icmp slt i32 %35, 1
  br i1 %37, label %55, label %38

38:                                               ; preds = %17
  %39 = tail call i8* @_ZN18optimization_guide5proto12DecisionTree14_InternalParseEPKcPN6google8protobuf8internal12ParseContextE(%"class.optimization_guide::proto::DecisionTree"* %1, i8* nonnull %14, %"class.google::protobuf::internal::ParseContext"* %0)
  %40 = icmp eq i8* %39, null
  br i1 %40, label %55, label %41, !prof !5

41:                                               ; preds = %38
  %42 = load i32, i32* %34, align 8
  %43 = add nsw i32 %42, 1
  store i32 %43, i32* %34, align 8
  %44 = getelementptr inbounds %"class.google::protobuf::internal::ParseContext", %"class.google::protobuf::internal::ParseContext"* %0, i64 0, i32 0, i32 8
  %45 = load i32, i32* %44, align 8
  %46 = icmp eq i32 %45, 0
  br i1 %46, label %47, label %55, !prof !2

47:                                               ; preds = %41
  %48 = load i32, i32* %31, align 4
  %49 = add nsw i32 %48, %33
  store i32 %49, i32* %31, align 4
  %50 = load i8*, i8** %18, align 8
  %51 = icmp slt i32 %49, 0
  %52 = select i1 %51, i32 %49, i32 0
  %53 = sext i32 %52 to i64
  %54 = getelementptr inbounds i8, i8* %50, i64 %53
  store i8* %54, i8** %30, align 8
  br label %55

55:                                               ; preds = %13, %38, %17, %41, %47
  %56 = phi i8* [ %39, %47 ], [ null, %41 ], [ null, %17 ], [ null, %38 ], [ null, %13 ]
  ret i8* %56
}

; Function Attrs: nounwind ssp uwtable
define linkonce_odr hidden i8* @_ZN6google8protobuf8internal12ParseContext12ParseMessageIN18optimization_guide5proto8EnsembleEEEPKcPT_S8_(%"class.google::protobuf::internal::ParseContext"*, %"class.optimization_guide::proto::Ensemble"*, i8*) local_unnamed_addr #0 comdat align 2 {
  %4 = load i8, i8* %2, align 1
  %5 = zext i8 %4 to i32
  %6 = icmp sgt i8 %4, -1
  br i1 %6, label %7, label %9

7:                                                ; preds = %3
  %8 = getelementptr inbounds i8, i8* %2, i64 1
  br label %13

9:                                                ; preds = %3
  %10 = tail call { i8*, i32 } @_ZN6google8protobuf8internal16ReadSizeFallbackEPKcj(i8* %2, i32 %5) #13
  %11 = extractvalue { i8*, i32 } %10, 0
  %12 = extractvalue { i8*, i32 } %10, 1
  br label %13

13:                                               ; preds = %7, %9
  %14 = phi i8* [ %11, %9 ], [ %8, %7 ]
  %15 = phi i32 [ %12, %9 ], [ %5, %7 ]
  %16 = icmp eq i8* %14, null
  br i1 %16, label %55, label %17

17:                                               ; preds = %13
  %18 = getelementptr inbounds %"class.google::protobuf::internal::ParseContext", %"class.google::protobuf::internal::ParseContext"* %0, i64 0, i32 0, i32 1
  %19 = bitcast i8** %18 to i64*
  %20 = load i64, i64* %19, align 8
  %21 = ptrtoint i8* %14 to i64
  %22 = sub i64 %21, %20
  %23 = trunc i64 %22 to i32
  %24 = add nsw i32 %15, %23
  %25 = inttoptr i64 %20 to i8*
  %26 = icmp slt i32 %24, 0
  %27 = select i1 %26, i32 %24, i32 0
  %28 = sext i32 %27 to i64
  %29 = getelementptr inbounds i8, i8* %25, i64 %28
  %30 = getelementptr inbounds %"class.google::protobuf::internal::ParseContext", %"class.google::protobuf::internal::ParseContext"* %0, i64 0, i32 0, i32 0
  store i8* %29, i8** %30, align 8
  %31 = getelementptr inbounds %"class.google::protobuf::internal::ParseContext", %"class.google::protobuf::internal::ParseContext"* %0, i64 0, i32 0, i32 4
  %32 = load i32, i32* %31, align 4
  store i32 %24, i32* %31, align 4
  %33 = sub nsw i32 %32, %24
  %34 = getelementptr inbounds %"class.google::protobuf::internal::ParseContext", %"class.google::protobuf::internal::ParseContext"* %0, i64 0, i32 1
  %35 = load i32, i32* %34, align 8
  %36 = add nsw i32 %35, -1
  store i32 %36, i32* %34, align 8
  %37 = icmp slt i32 %35, 1
  br i1 %37, label %55, label %38

38:                                               ; preds = %17
  %39 = tail call i8* @_ZN18optimization_guide5proto8Ensemble14_InternalParseEPKcPN6google8protobuf8internal12ParseContextE(%"class.optimization_guide::proto::Ensemble"* %1, i8* nonnull %14, %"class.google::protobuf::internal::ParseContext"* %0)
  %40 = icmp eq i8* %39, null
  br i1 %40, label %55, label %41, !prof !5

41:                                               ; preds = %38
  %42 = load i32, i32* %34, align 8
  %43 = add nsw i32 %42, 1
  store i32 %43, i32* %34, align 8
  %44 = getelementptr inbounds %"class.google::protobuf::internal::ParseContext", %"class.google::protobuf::internal::ParseContext"* %0, i64 0, i32 0, i32 8
  %45 = load i32, i32* %44, align 8
  %46 = icmp eq i32 %45, 0
  br i1 %46, label %47, label %55, !prof !2

47:                                               ; preds = %41
  %48 = load i32, i32* %31, align 4
  %49 = add nsw i32 %48, %33
  store i32 %49, i32* %31, align 4
  %50 = load i8*, i8** %18, align 8
  %51 = icmp slt i32 %49, 0
  %52 = select i1 %51, i32 %49, i32 0
  %53 = sext i32 %52 to i64
  %54 = getelementptr inbounds i8, i8* %50, i64 %53
  store i8* %54, i8** %30, align 8
  br label %55

55:                                               ; preds = %13, %38, %17, %41, %47
  %56 = phi i8* [ %39, %47 ], [ null, %41 ], [ null, %17 ], [ null, %38 ], [ null, %13 ]
  ret i8* %56
}

declare i8* @_ZN6google8protobuf8internal24InlineGreedyStringParserEPNSt3__112basic_stringIcNS2_11char_traitsIcEENS2_9allocatorIcEEEEPKcPNS1_12ParseContextE(%"class.std::__1::basic_string"*, i8*, %"class.google::protobuf::internal::ParseContext"*) local_unnamed_addr #4

; Function Attrs: nounwind ssp uwtable
define linkonce_odr hidden i8* @_ZN6google8protobuf8internal12ParseContext12ParseMessageIN18optimization_guide5proto11DoubleValueEEEPKcPT_S8_(%"class.google::protobuf::internal::ParseContext"*, %"class.optimization_guide::proto::DoubleValue"*, i8*) local_unnamed_addr #0 comdat align 2 {
  %4 = load i8, i8* %2, align 1
  %5 = zext i8 %4 to i32
  %6 = icmp sgt i8 %4, -1
  br i1 %6, label %7, label %9

7:                                                ; preds = %3
  %8 = getelementptr inbounds i8, i8* %2, i64 1
  br label %13

9:                                                ; preds = %3
  %10 = tail call { i8*, i32 } @_ZN6google8protobuf8internal16ReadSizeFallbackEPKcj(i8* %2, i32 %5) #13
  %11 = extractvalue { i8*, i32 } %10, 0
  %12 = extractvalue { i8*, i32 } %10, 1
  br label %13

13:                                               ; preds = %7, %9
  %14 = phi i8* [ %11, %9 ], [ %8, %7 ]
  %15 = phi i32 [ %12, %9 ], [ %5, %7 ]
  %16 = icmp eq i8* %14, null
  br i1 %16, label %55, label %17

17:                                               ; preds = %13
  %18 = getelementptr inbounds %"class.google::protobuf::internal::ParseContext", %"class.google::protobuf::internal::ParseContext"* %0, i64 0, i32 0, i32 1
  %19 = bitcast i8** %18 to i64*
  %20 = load i64, i64* %19, align 8
  %21 = ptrtoint i8* %14 to i64
  %22 = sub i64 %21, %20
  %23 = trunc i64 %22 to i32
  %24 = add nsw i32 %15, %23
  %25 = inttoptr i64 %20 to i8*
  %26 = icmp slt i32 %24, 0
  %27 = select i1 %26, i32 %24, i32 0
  %28 = sext i32 %27 to i64
  %29 = getelementptr inbounds i8, i8* %25, i64 %28
  %30 = getelementptr inbounds %"class.google::protobuf::internal::ParseContext", %"class.google::protobuf::internal::ParseContext"* %0, i64 0, i32 0, i32 0
  store i8* %29, i8** %30, align 8
  %31 = getelementptr inbounds %"class.google::protobuf::internal::ParseContext", %"class.google::protobuf::internal::ParseContext"* %0, i64 0, i32 0, i32 4
  %32 = load i32, i32* %31, align 4
  store i32 %24, i32* %31, align 4
  %33 = sub nsw i32 %32, %24
  %34 = getelementptr inbounds %"class.google::protobuf::internal::ParseContext", %"class.google::protobuf::internal::ParseContext"* %0, i64 0, i32 1
  %35 = load i32, i32* %34, align 8
  %36 = add nsw i32 %35, -1
  store i32 %36, i32* %34, align 8
  %37 = icmp slt i32 %35, 1
  br i1 %37, label %55, label %38

38:                                               ; preds = %17
  %39 = tail call i8* @_ZN18optimization_guide5proto11DoubleValue14_InternalParseEPKcPN6google8protobuf8internal12ParseContextE(%"class.optimization_guide::proto::DoubleValue"* %1, i8* nonnull %14, %"class.google::protobuf::internal::ParseContext"* %0)
  %40 = icmp eq i8* %39, null
  br i1 %40, label %55, label %41, !prof !5

41:                                               ; preds = %38
  %42 = load i32, i32* %34, align 8
  %43 = add nsw i32 %42, 1
  store i32 %43, i32* %34, align 8
  %44 = getelementptr inbounds %"class.google::protobuf::internal::ParseContext", %"class.google::protobuf::internal::ParseContext"* %0, i64 0, i32 0, i32 8
  %45 = load i32, i32* %44, align 8
  %46 = icmp eq i32 %45, 0
  br i1 %46, label %47, label %55, !prof !2

47:                                               ; preds = %41
  %48 = load i32, i32* %31, align 4
  %49 = add nsw i32 %48, %33
  store i32 %49, i32* %31, align 4
  %50 = load i8*, i8** %18, align 8
  %51 = icmp slt i32 %49, 0
  %52 = select i1 %51, i32 %49, i32 0
  %53 = sext i32 %52 to i64
  %54 = getelementptr inbounds i8, i8* %50, i64 %53
  store i8* %54, i8** %30, align 8
  br label %55

55:                                               ; preds = %13, %38, %17, %41, %47
  %56 = phi i8* [ %39, %47 ], [ null, %41 ], [ null, %17 ], [ null, %38 ], [ null, %13 ]
  ret i8* %56
}

declare i8* @_ZN6google8protobuf8internal17UnknownFieldParseEjPNSt3__112basic_stringIcNS2_11char_traitsIcEENS2_9allocatorIcEEEEPKcPNS1_12ParseContextE(i32, %"class.std::__1::basic_string"*, i8*, %"class.google::protobuf::internal::ParseContext"*) local_unnamed_addr #4

; Function Attrs: nounwind ssp uwtable
define hidden i8* @_ZNK18optimization_guide5proto5Model18_InternalSerializeEPhPN6google8protobuf2io19EpsCopyOutputStreamE(%"class.optimization_guide::proto::Model"* nocapture readonly, i8*, %"class.google::protobuf::io::EpsCopyOutputStream"*) unnamed_addr #0 align 2 {
  %4 = getelementptr inbounds %"class.optimization_guide::proto::Model", %"class.optimization_guide::proto::Model"* %0, i64 0, i32 5, i64 0
  %5 = load i32, i32* %4, align 8
  switch i32 %5, label %124 [
    i32 1, label %6
    i32 2, label %47
    i32 5, label %89
  ]

6:                                                ; preds = %3
  %7 = getelementptr inbounds %"class.google::protobuf::io::EpsCopyOutputStream", %"class.google::protobuf::io::EpsCopyOutputStream"* %2, i64 0, i32 0
  %8 = load i8*, i8** %7, align 8
  %9 = icmp ugt i8* %8, %1
  br i1 %9, label %12, label %10, !prof !2

10:                                               ; preds = %6
  %11 = tail call i8* @_ZN6google8protobuf2io19EpsCopyOutputStream19EnsureSpaceFallbackEPh(%"class.google::protobuf::io::EpsCopyOutputStream"* %2, i8* %1) #13
  br label %12

12:                                               ; preds = %6, %10
  %13 = phi i8* [ %11, %10 ], [ %1, %6 ]
  %14 = getelementptr inbounds %"class.optimization_guide::proto::Model", %"class.optimization_guide::proto::Model"* %0, i64 0, i32 4, i32 0
  %15 = load %"class.optimization_guide::proto::DecisionTree"*, %"class.optimization_guide::proto::DecisionTree"** %14, align 8
  store i8 10, i8* %13, align 1
  %16 = getelementptr inbounds i8, i8* %13, i64 1
  %17 = getelementptr inbounds %"class.optimization_guide::proto::DecisionTree", %"class.optimization_guide::proto::DecisionTree"* %15, i64 0, i32 2, i32 0, i32 0, i32 0, i32 0, i32 0, i32 0
  %18 = load atomic i32, i32* %17 monotonic, align 4
  %19 = icmp ult i32 %18, 128
  %20 = trunc i32 %18 to i8
  br i1 %19, label %21, label %23

21:                                               ; preds = %12
  store i8 %20, i8* %16, align 1
  %22 = getelementptr inbounds i8, i8* %13, i64 2
  br label %44

23:                                               ; preds = %12
  %24 = or i8 %20, -128
  store i8 %24, i8* %16, align 1
  %25 = lshr i32 %18, 7
  %26 = icmp ult i32 %18, 16384
  br i1 %26, label %27, label %31

27:                                               ; preds = %23
  %28 = trunc i32 %25 to i8
  %29 = getelementptr inbounds i8, i8* %13, i64 2
  store i8 %28, i8* %29, align 1
  %30 = getelementptr inbounds i8, i8* %13, i64 3
  br label %44

31:                                               ; preds = %23
  %32 = getelementptr inbounds i8, i8* %13, i64 2
  br label %33

33:                                               ; preds = %33, %31
  %34 = phi i32 [ %25, %31 ], [ %38, %33 ]
  %35 = phi i8* [ %32, %31 ], [ %39, %33 ]
  %36 = trunc i32 %34 to i8
  %37 = or i8 %36, -128
  store i8 %37, i8* %35, align 1
  %38 = lshr i32 %34, 7
  %39 = getelementptr inbounds i8, i8* %35, i64 1
  %40 = icmp ugt i32 %34, 16383
  br i1 %40, label %33, label %41, !prof !5

41:                                               ; preds = %33
  %42 = trunc i32 %38 to i8
  %43 = getelementptr inbounds i8, i8* %35, i64 2
  store i8 %42, i8* %39, align 1
  br label %44

44:                                               ; preds = %21, %27, %41
  %45 = phi i8* [ %22, %21 ], [ %30, %27 ], [ %43, %41 ]
  %46 = tail call i8* @_ZNK18optimization_guide5proto12DecisionTree18_InternalSerializeEPhPN6google8protobuf2io19EpsCopyOutputStreamE(%"class.optimization_guide::proto::DecisionTree"* %15, i8* %45, %"class.google::protobuf::io::EpsCopyOutputStream"* %2) #13
  br label %124

47:                                               ; preds = %3
  %48 = getelementptr inbounds %"class.google::protobuf::io::EpsCopyOutputStream", %"class.google::protobuf::io::EpsCopyOutputStream"* %2, i64 0, i32 0
  %49 = load i8*, i8** %48, align 8
  %50 = icmp ugt i8* %49, %1
  br i1 %50, label %53, label %51, !prof !2

51:                                               ; preds = %47
  %52 = tail call i8* @_ZN6google8protobuf2io19EpsCopyOutputStream19EnsureSpaceFallbackEPh(%"class.google::protobuf::io::EpsCopyOutputStream"* %2, i8* %1) #13
  br label %53

53:                                               ; preds = %47, %51
  %54 = phi i8* [ %52, %51 ], [ %1, %47 ]
  %55 = getelementptr inbounds %"class.optimization_guide::proto::Model", %"class.optimization_guide::proto::Model"* %0, i64 0, i32 4
  %56 = bitcast %"union.optimization_guide::proto::Model::ModelUnion"* %55 to %"class.optimization_guide::proto::Ensemble"**
  %57 = load %"class.optimization_guide::proto::Ensemble"*, %"class.optimization_guide::proto::Ensemble"** %56, align 8
  store i8 18, i8* %54, align 1
  %58 = getelementptr inbounds i8, i8* %54, i64 1
  %59 = getelementptr inbounds %"class.optimization_guide::proto::Ensemble", %"class.optimization_guide::proto::Ensemble"* %57, i64 0, i32 2, i32 0, i32 0, i32 0, i32 0, i32 0, i32 0
  %60 = load atomic i32, i32* %59 monotonic, align 4
  %61 = icmp ult i32 %60, 128
  %62 = trunc i32 %60 to i8
  br i1 %61, label %63, label %65

63:                                               ; preds = %53
  store i8 %62, i8* %58, align 1
  %64 = getelementptr inbounds i8, i8* %54, i64 2
  br label %86

65:                                               ; preds = %53
  %66 = or i8 %62, -128
  store i8 %66, i8* %58, align 1
  %67 = lshr i32 %60, 7
  %68 = icmp ult i32 %60, 16384
  br i1 %68, label %69, label %73

69:                                               ; preds = %65
  %70 = trunc i32 %67 to i8
  %71 = getelementptr inbounds i8, i8* %54, i64 2
  store i8 %70, i8* %71, align 1
  %72 = getelementptr inbounds i8, i8* %54, i64 3
  br label %86

73:                                               ; preds = %65
  %74 = getelementptr inbounds i8, i8* %54, i64 2
  br label %75

75:                                               ; preds = %75, %73
  %76 = phi i32 [ %67, %73 ], [ %80, %75 ]
  %77 = phi i8* [ %74, %73 ], [ %81, %75 ]
  %78 = trunc i32 %76 to i8
  %79 = or i8 %78, -128
  store i8 %79, i8* %77, align 1
  %80 = lshr i32 %76, 7
  %81 = getelementptr inbounds i8, i8* %77, i64 1
  %82 = icmp ugt i32 %76, 16383
  br i1 %82, label %75, label %83, !prof !5

83:                                               ; preds = %75
  %84 = trunc i32 %80 to i8
  %85 = getelementptr inbounds i8, i8* %77, i64 2
  store i8 %84, i8* %81, align 1
  br label %86

86:                                               ; preds = %63, %69, %83
  %87 = phi i8* [ %64, %63 ], [ %72, %69 ], [ %85, %83 ]
  %88 = tail call i8* @_ZNK18optimization_guide5proto8Ensemble18_InternalSerializeEPhPN6google8protobuf2io19EpsCopyOutputStreamE(%"class.optimization_guide::proto::Ensemble"* %57, i8* %87, %"class.google::protobuf::io::EpsCopyOutputStream"* %2) #13
  br label %124

89:                                               ; preds = %3
  %90 = getelementptr inbounds %"class.optimization_guide::proto::Model", %"class.optimization_guide::proto::Model"* %0, i64 0, i32 4
  %91 = bitcast %"union.optimization_guide::proto::Model::ModelUnion"* %90 to %"class.std::__1::basic_string"**
  %92 = load %"class.std::__1::basic_string"*, %"class.std::__1::basic_string"** %91, align 8
  %93 = bitcast %"class.std::__1::basic_string"* %92 to %"struct.std::__1::basic_string<char, std::__1::char_traits<char>, std::__1::allocator<char> >::__short"*
  %94 = getelementptr inbounds %"struct.std::__1::basic_string<char, std::__1::char_traits<char>, std::__1::allocator<char> >::__short", %"struct.std::__1::basic_string<char, std::__1::char_traits<char>, std::__1::allocator<char> >::__short"* %93, i64 0, i32 1, i32 0
  %95 = load i8, i8* %94, align 1
  %96 = icmp slt i8 %95, 0
  br i1 %96, label %99, label %97

97:                                               ; preds = %89
  %98 = zext i8 %95 to i64
  br label %103

99:                                               ; preds = %89
  %100 = getelementptr inbounds %"class.std::__1::basic_string", %"class.std::__1::basic_string"* %92, i64 0, i32 0, i32 0, i32 0, i32 0, i32 0, i32 1
  %101 = load i64, i64* %100, align 8
  %102 = icmp sgt i64 %101, 127
  br i1 %102, label %111, label %103, !prof !5

103:                                              ; preds = %99, %97
  %104 = phi i64 [ %98, %97 ], [ %101, %99 ]
  %105 = bitcast %"class.google::protobuf::io::EpsCopyOutputStream"* %2 to i64*
  %106 = load i64, i64* %105, align 8
  %107 = ptrtoint i8* %1 to i64
  %108 = sub i64 14, %107
  %109 = add i64 %108, %106
  %110 = icmp slt i64 %109, %104
  br i1 %110, label %111, label %113, !prof !5

111:                                              ; preds = %103, %99
  %112 = tail call i8* @_ZN6google8protobuf2io19EpsCopyOutputStream30WriteStringMaybeAliasedOutlineEjRKNSt3__112basic_stringIcNS3_11char_traitsIcEENS3_9allocatorIcEEEEPh(%"class.google::protobuf::io::EpsCopyOutputStream"* %2, i32 5, %"class.std::__1::basic_string"* dereferenceable(24) %92, i8* %1) #13
  br label %124

113:                                              ; preds = %103
  store i8 42, i8* %1, align 1
  %114 = getelementptr inbounds i8, i8* %1, i64 1
  %115 = trunc i64 %104 to i8
  %116 = getelementptr inbounds i8, i8* %1, i64 2
  store i8 %115, i8* %114, align 1
  %117 = load i8, i8* %94, align 1
  %118 = icmp slt i8 %117, 0
  %119 = getelementptr inbounds %"class.std::__1::basic_string", %"class.std::__1::basic_string"* %92, i64 0, i32 0, i32 0, i32 0, i32 0, i32 0, i32 0
  %120 = load i8*, i8** %119, align 8
  %121 = bitcast %"class.std::__1::basic_string"* %92 to i8*
  %122 = select i1 %118, i8* %120, i8* %121
  tail call void @llvm.memcpy.p0i8.p0i8.i64(i8* align 1 %116, i8* align 1 %122, i64 %104, i1 false) #13
  %123 = getelementptr inbounds i8, i8* %116, i64 %104
  br label %124

124:                                              ; preds = %113, %111, %3, %86, %44
  %125 = phi i8* [ %1, %3 ], [ %88, %86 ], [ %46, %44 ], [ %112, %111 ], [ %123, %113 ]
  %126 = getelementptr inbounds %"class.optimization_guide::proto::Model", %"class.optimization_guide::proto::Model"* %0, i64 0, i32 1, i32 0, i64 0
  %127 = load i32, i32* %126, align 4
  %128 = and i32 %127, 1
  %129 = icmp eq i32 %128, 0
  br i1 %129, label %226, label %130

130:                                              ; preds = %124
  %131 = getelementptr inbounds %"class.google::protobuf::io::EpsCopyOutputStream", %"class.google::protobuf::io::EpsCopyOutputStream"* %2, i64 0, i32 0
  %132 = load i8*, i8** %131, align 8
  %133 = icmp ugt i8* %132, %125
  br i1 %133, label %136, label %134, !prof !2

134:                                              ; preds = %130
  %135 = tail call i8* @_ZN6google8protobuf2io19EpsCopyOutputStream19EnsureSpaceFallbackEPh(%"class.google::protobuf::io::EpsCopyOutputStream"* %2, i8* %125) #13
  br label %136

136:                                              ; preds = %130, %134
  %137 = phi i8* [ %135, %134 ], [ %125, %130 ]
  %138 = getelementptr inbounds %"class.optimization_guide::proto::Model", %"class.optimization_guide::proto::Model"* %0, i64 0, i32 3
  %139 = load %"class.optimization_guide::proto::DoubleValue"*, %"class.optimization_guide::proto::DoubleValue"** %138, align 8
  store i8 -38, i8* %137, align 1
  %140 = getelementptr inbounds i8, i8* %137, i64 1
  store i8 7, i8* %140, align 1
  %141 = getelementptr inbounds i8, i8* %137, i64 2
  %142 = getelementptr inbounds %"class.optimization_guide::proto::DoubleValue", %"class.optimization_guide::proto::DoubleValue"* %139, i64 0, i32 2, i32 0, i32 0, i32 0, i32 0, i32 0, i32 0
  %143 = load atomic i32, i32* %142 monotonic, align 4
  %144 = icmp ult i32 %143, 128
  %145 = trunc i32 %143 to i8
  br i1 %144, label %146, label %148

146:                                              ; preds = %136
  store i8 %145, i8* %141, align 1
  %147 = getelementptr inbounds i8, i8* %137, i64 3
  br label %169

148:                                              ; preds = %136
  %149 = or i8 %145, -128
  store i8 %149, i8* %141, align 1
  %150 = lshr i32 %143, 7
  %151 = icmp ult i32 %143, 16384
  br i1 %151, label %152, label %156

152:                                              ; preds = %148
  %153 = trunc i32 %150 to i8
  %154 = getelementptr inbounds i8, i8* %137, i64 3
  store i8 %153, i8* %154, align 1
  %155 = getelementptr inbounds i8, i8* %137, i64 4
  br label %169

156:                                              ; preds = %148
  %157 = getelementptr inbounds i8, i8* %137, i64 3
  br label %158

158:                                              ; preds = %158, %156
  %159 = phi i32 [ %150, %156 ], [ %163, %158 ]
  %160 = phi i8* [ %157, %156 ], [ %164, %158 ]
  %161 = trunc i32 %159 to i8
  %162 = or i8 %161, -128
  store i8 %162, i8* %160, align 1
  %163 = lshr i32 %159, 7
  %164 = getelementptr inbounds i8, i8* %160, i64 1
  %165 = icmp ugt i32 %159, 16383
  br i1 %165, label %158, label %166, !prof !5

166:                                              ; preds = %158
  %167 = trunc i32 %163 to i8
  %168 = getelementptr inbounds i8, i8* %160, i64 2
  store i8 %167, i8* %164, align 1
  br label %169

169:                                              ; preds = %166, %152, %146
  %170 = phi i8* [ %147, %146 ], [ %155, %152 ], [ %168, %166 ]
  %171 = getelementptr inbounds %"class.optimization_guide::proto::DoubleValue", %"class.optimization_guide::proto::DoubleValue"* %139, i64 0, i32 1, i32 0, i64 0
  %172 = load i32, i32* %171, align 4
  %173 = and i32 %172, 1
  %174 = icmp eq i32 %173, 0
  br i1 %174, label %188, label %175

175:                                              ; preds = %169
  %176 = load i8*, i8** %131, align 8
  %177 = icmp ugt i8* %176, %170
  br i1 %177, label %180, label %178, !prof !2

178:                                              ; preds = %175
  %179 = tail call i8* @_ZN6google8protobuf2io19EpsCopyOutputStream19EnsureSpaceFallbackEPh(%"class.google::protobuf::io::EpsCopyOutputStream"* %2, i8* %170) #13
  br label %180

180:                                              ; preds = %178, %175
  %181 = phi i8* [ %179, %178 ], [ %170, %175 ]
  %182 = getelementptr inbounds %"class.optimization_guide::proto::DoubleValue", %"class.optimization_guide::proto::DoubleValue"* %139, i64 0, i32 3
  %183 = bitcast double* %182 to i64*
  %184 = load i64, i64* %183, align 8
  store i8 9, i8* %181, align 1
  %185 = getelementptr inbounds i8, i8* %181, i64 1
  %186 = bitcast i8* %185 to i64*
  store i64 %184, i64* %186, align 1
  %187 = getelementptr inbounds i8, i8* %181, i64 9
  br label %188

188:                                              ; preds = %180, %169
  %189 = phi i8* [ %187, %180 ], [ %170, %169 ]
  %190 = getelementptr inbounds %"class.optimization_guide::proto::DoubleValue", %"class.optimization_guide::proto::DoubleValue"* %139, i64 0, i32 0, i32 1
  %191 = bitcast %"class.google::protobuf::internal::InternalMetadata"* %190 to i64*
  %192 = load i64, i64* %191, align 8
  %193 = and i64 %192, 1
  %194 = icmp eq i64 %193, 0
  br i1 %194, label %226, label %195, !prof !2

195:                                              ; preds = %188
  %196 = and i64 %192, -2
  %197 = inttoptr i64 %196 to %"struct.google::protobuf::internal::InternalMetadata::Container"*
  %198 = getelementptr inbounds %"struct.google::protobuf::internal::InternalMetadata::Container", %"struct.google::protobuf::internal::InternalMetadata::Container"* %197, i64 0, i32 1
  %199 = bitcast %"class.std::__1::basic_string"* %198 to %"struct.std::__1::basic_string<char, std::__1::char_traits<char>, std::__1::allocator<char> >::__short"*
  %200 = getelementptr inbounds %"struct.std::__1::basic_string<char, std::__1::char_traits<char>, std::__1::allocator<char> >::__short", %"struct.std::__1::basic_string<char, std::__1::char_traits<char>, std::__1::allocator<char> >::__short"* %199, i64 0, i32 1, i32 0
  %201 = load i8, i8* %200, align 1
  %202 = icmp slt i8 %201, 0
  br i1 %202, label %203, label %208

203:                                              ; preds = %195
  %204 = getelementptr inbounds %"class.std::__1::basic_string", %"class.std::__1::basic_string"* %198, i64 0, i32 0, i32 0, i32 0, i32 0, i32 0, i32 0
  %205 = load i8*, i8** %204, align 8
  %206 = getelementptr inbounds %"struct.google::protobuf::internal::InternalMetadata::Container", %"struct.google::protobuf::internal::InternalMetadata::Container"* %197, i64 0, i32 1, i32 0, i32 0, i32 0, i32 0, i32 0, i32 1
  %207 = load i64, i64* %206, align 8
  br label %211

208:                                              ; preds = %195
  %209 = bitcast %"class.std::__1::basic_string"* %198 to i8*
  %210 = zext i8 %201 to i64
  br label %211

211:                                              ; preds = %208, %203
  %212 = phi i8* [ %205, %203 ], [ %209, %208 ]
  %213 = phi i64 [ %207, %203 ], [ %210, %208 ]
  %214 = bitcast %"class.google::protobuf::io::EpsCopyOutputStream"* %2 to i64*
  %215 = load i64, i64* %214, align 8
  %216 = ptrtoint i8* %189 to i64
  %217 = sub i64 %215, %216
  %218 = shl i64 %213, 32
  %219 = ashr exact i64 %218, 32
  %220 = icmp slt i64 %217, %219
  br i1 %220, label %221, label %224, !prof !5

221:                                              ; preds = %211
  %222 = trunc i64 %213 to i32
  %223 = tail call i8* @_ZN6google8protobuf2io19EpsCopyOutputStream16WriteRawFallbackEPKviPh(%"class.google::protobuf::io::EpsCopyOutputStream"* %2, i8* %212, i32 %222, i8* %189) #13
  br label %226

224:                                              ; preds = %211
  tail call void @llvm.memcpy.p0i8.p0i8.i64(i8* align 1 %189, i8* align 1 %212, i64 %219, i1 false) #13
  %225 = getelementptr inbounds i8, i8* %189, i64 %219
  br label %226

226:                                              ; preds = %224, %221, %188, %124
  %227 = phi i8* [ %125, %124 ], [ %189, %188 ], [ %223, %221 ], [ %225, %224 ]
  %228 = getelementptr inbounds %"class.optimization_guide::proto::Model", %"class.optimization_guide::proto::Model"* %0, i64 0, i32 0, i32 1
  %229 = bitcast %"class.google::protobuf::internal::InternalMetadata"* %228 to i64*
  %230 = load i64, i64* %229, align 8
  %231 = and i64 %230, 1
  %232 = icmp eq i64 %231, 0
  br i1 %232, label %264, label %233, !prof !2

233:                                              ; preds = %226
  %234 = and i64 %230, -2
  %235 = inttoptr i64 %234 to %"struct.google::protobuf::internal::InternalMetadata::Container"*
  %236 = getelementptr inbounds %"struct.google::protobuf::internal::InternalMetadata::Container", %"struct.google::protobuf::internal::InternalMetadata::Container"* %235, i64 0, i32 1
  %237 = bitcast %"class.std::__1::basic_string"* %236 to %"struct.std::__1::basic_string<char, std::__1::char_traits<char>, std::__1::allocator<char> >::__short"*
  %238 = getelementptr inbounds %"struct.std::__1::basic_string<char, std::__1::char_traits<char>, std::__1::allocator<char> >::__short", %"struct.std::__1::basic_string<char, std::__1::char_traits<char>, std::__1::allocator<char> >::__short"* %237, i64 0, i32 1, i32 0
  %239 = load i8, i8* %238, align 1
  %240 = icmp slt i8 %239, 0
  br i1 %240, label %241, label %246

241:                                              ; preds = %233
  %242 = getelementptr inbounds %"class.std::__1::basic_string", %"class.std::__1::basic_string"* %236, i64 0, i32 0, i32 0, i32 0, i32 0, i32 0, i32 0
  %243 = load i8*, i8** %242, align 8
  %244 = getelementptr inbounds %"struct.google::protobuf::internal::InternalMetadata::Container", %"struct.google::protobuf::internal::InternalMetadata::Container"* %235, i64 0, i32 1, i32 0, i32 0, i32 0, i32 0, i32 0, i32 1
  %245 = load i64, i64* %244, align 8
  br label %249

246:                                              ; preds = %233
  %247 = bitcast %"class.std::__1::basic_string"* %236 to i8*
  %248 = zext i8 %239 to i64
  br label %249

249:                                              ; preds = %241, %246
  %250 = phi i8* [ %243, %241 ], [ %247, %246 ]
  %251 = phi i64 [ %245, %241 ], [ %248, %246 ]
  %252 = bitcast %"class.google::protobuf::io::EpsCopyOutputStream"* %2 to i64*
  %253 = load i64, i64* %252, align 8
  %254 = ptrtoint i8* %227 to i64
  %255 = sub i64 %253, %254
  %256 = shl i64 %251, 32
  %257 = ashr exact i64 %256, 32
  %258 = icmp slt i64 %255, %257
  br i1 %258, label %259, label %262, !prof !5

259:                                              ; preds = %249
  %260 = trunc i64 %251 to i32
  %261 = tail call i8* @_ZN6google8protobuf2io19EpsCopyOutputStream16WriteRawFallbackEPKviPh(%"class.google::protobuf::io::EpsCopyOutputStream"* %2, i8* %250, i32 %260, i8* %227) #13
  br label %264

262:                                              ; preds = %249
  tail call void @llvm.memcpy.p0i8.p0i8.i64(i8* align 1 %227, i8* align 1 %250, i64 %257, i1 false) #13
  %263 = getelementptr inbounds i8, i8* %227, i64 %257
  br label %264

264:                                              ; preds = %226, %262, %259
  %265 = phi i8* [ %227, %226 ], [ %261, %259 ], [ %263, %262 ]
  ret i8* %265
}

; Function Attrs: nounwind ssp uwtable
define hidden i64 @_ZNK18optimization_guide5proto5Model12ByteSizeLongEv(%"class.optimization_guide::proto::Model"* nocapture) unnamed_addr #0 align 2 {
  %2 = getelementptr inbounds %"class.optimization_guide::proto::Model", %"class.optimization_guide::proto::Model"* %0, i64 0, i32 1, i32 0, i64 0
  %3 = load i32, i32* %2, align 4
  %4 = and i32 %3, 1
  %5 = icmp eq i32 %4, 0
  br i1 %5, label %48, label %6

6:                                                ; preds = %1
  %7 = getelementptr inbounds %"class.optimization_guide::proto::Model", %"class.optimization_guide::proto::Model"* %0, i64 0, i32 3
  %8 = load %"class.optimization_guide::proto::DoubleValue"*, %"class.optimization_guide::proto::DoubleValue"** %7, align 8
  %9 = getelementptr inbounds %"class.optimization_guide::proto::DoubleValue", %"class.optimization_guide::proto::DoubleValue"* %8, i64 0, i32 1, i32 0, i64 0
  %10 = load i32, i32* %9, align 4
  %11 = and i32 %10, 1
  %12 = icmp eq i32 %11, 0
  %13 = select i1 %12, i64 0, i64 9
  %14 = getelementptr inbounds %"class.optimization_guide::proto::DoubleValue", %"class.optimization_guide::proto::DoubleValue"* %8, i64 0, i32 0, i32 1
  %15 = bitcast %"class.google::protobuf::internal::InternalMetadata"* %14 to i64*
  %16 = load i64, i64* %15, align 8
  %17 = and i64 %16, 1
  %18 = icmp eq i64 %17, 0
  br i1 %18, label %35, label %19, !prof !2

19:                                               ; preds = %6
  %20 = and i64 %16, -2
  %21 = inttoptr i64 %20 to %"struct.google::protobuf::internal::InternalMetadata::Container"*
  %22 = getelementptr inbounds %"struct.google::protobuf::internal::InternalMetadata::Container", %"struct.google::protobuf::internal::InternalMetadata::Container"* %21, i64 0, i32 1
  %23 = bitcast %"class.std::__1::basic_string"* %22 to %"struct.std::__1::basic_string<char, std::__1::char_traits<char>, std::__1::allocator<char> >::__short"*
  %24 = getelementptr inbounds %"struct.std::__1::basic_string<char, std::__1::char_traits<char>, std::__1::allocator<char> >::__short", %"struct.std::__1::basic_string<char, std::__1::char_traits<char>, std::__1::allocator<char> >::__short"* %23, i64 0, i32 1, i32 0
  %25 = load i8, i8* %24, align 1
  %26 = icmp slt i8 %25, 0
  br i1 %26, label %27, label %30

27:                                               ; preds = %19
  %28 = getelementptr inbounds %"struct.google::protobuf::internal::InternalMetadata::Container", %"struct.google::protobuf::internal::InternalMetadata::Container"* %21, i64 0, i32 1, i32 0, i32 0, i32 0, i32 0, i32 0, i32 1
  %29 = load i64, i64* %28, align 8
  br label %32

30:                                               ; preds = %19
  %31 = zext i8 %25 to i64
  br label %32

32:                                               ; preds = %30, %27
  %33 = phi i64 [ %29, %27 ], [ %31, %30 ]
  %34 = add i64 %33, %13
  br label %35

35:                                               ; preds = %6, %32
  %36 = phi i64 [ %34, %32 ], [ %13, %6 ]
  %37 = trunc i64 %36 to i32
  %38 = getelementptr inbounds %"class.optimization_guide::proto::DoubleValue", %"class.optimization_guide::proto::DoubleValue"* %8, i64 0, i32 2, i32 0, i32 0, i32 0, i32 0, i32 0, i32 0
  store atomic i32 %37, i32* %38 monotonic, align 4
  %39 = or i32 %37, 1
  %40 = tail call i32 @llvm.ctlz.i32(i32 %39, i1 true) #13, !range !6
  %41 = xor i32 %40, 31
  %42 = mul nuw nsw i32 %41, 9
  %43 = add nuw nsw i32 %42, 73
  %44 = lshr i32 %43, 6
  %45 = zext i32 %44 to i64
  %46 = add i64 %36, 2
  %47 = add i64 %46, %45
  br label %48

48:                                               ; preds = %1, %35
  %49 = phi i64 [ %47, %35 ], [ 0, %1 ]
  %50 = getelementptr inbounds %"class.optimization_guide::proto::Model", %"class.optimization_guide::proto::Model"* %0, i64 0, i32 5, i64 0
  %51 = load i32, i32* %50, align 8
  switch i32 %51, label %165 [
    i32 1, label %52
    i32 2, label %126
    i32 5, label %142
  ]

52:                                               ; preds = %48
  %53 = getelementptr inbounds %"class.optimization_guide::proto::Model", %"class.optimization_guide::proto::Model"* %0, i64 0, i32 4, i32 0
  %54 = load %"class.optimization_guide::proto::DecisionTree"*, %"class.optimization_guide::proto::DecisionTree"** %53, align 8
  %55 = getelementptr inbounds %"class.optimization_guide::proto::DecisionTree", %"class.optimization_guide::proto::DecisionTree"* %54, i64 0, i32 3, i32 0, i32 1
  %56 = load i32, i32* %55, align 8
  %57 = sext i32 %56 to i64
  %58 = getelementptr inbounds %"class.optimization_guide::proto::DecisionTree", %"class.optimization_guide::proto::DecisionTree"* %54, i64 0, i32 3, i32 0, i32 3
  %59 = load %"struct.google::protobuf::internal::RepeatedPtrFieldBase::Rep"*, %"struct.google::protobuf::internal::RepeatedPtrFieldBase::Rep"** %58, align 8
  %60 = icmp eq %"struct.google::protobuf::internal::RepeatedPtrFieldBase::Rep"* %59, null
  %61 = getelementptr inbounds %"struct.google::protobuf::internal::RepeatedPtrFieldBase::Rep", %"struct.google::protobuf::internal::RepeatedPtrFieldBase::Rep"* %59, i64 0, i32 1, i64 0
  %62 = select i1 %60, i8** null, i8** %61
  %63 = getelementptr inbounds i8*, i8** %62, i64 %57
  %64 = icmp eq i32 %56, 0
  br i1 %64, label %65, label %78

65:                                               ; preds = %78, %52
  %66 = phi i64 [ 0, %52 ], [ %93, %78 ]
  %67 = getelementptr inbounds %"class.optimization_guide::proto::DecisionTree", %"class.optimization_guide::proto::DecisionTree"* %54, i64 0, i32 1, i32 0, i64 0
  %68 = load i32, i32* %67, align 4
  %69 = and i32 %68, 1
  %70 = icmp eq i32 %69, 0
  %71 = add i64 %66, 5
  %72 = select i1 %70, i64 %66, i64 %71
  %73 = getelementptr inbounds %"class.optimization_guide::proto::DecisionTree", %"class.optimization_guide::proto::DecisionTree"* %54, i64 0, i32 0, i32 1
  %74 = bitcast %"class.google::protobuf::internal::InternalMetadata"* %73 to i64*
  %75 = load i64, i64* %74, align 8
  %76 = and i64 %75, 1
  %77 = icmp eq i64 %76, 0
  br i1 %77, label %112, label %96, !prof !2

78:                                               ; preds = %52, %78
  %79 = phi i64 [ %93, %78 ], [ %57, %52 ]
  %80 = phi i8** [ %94, %78 ], [ %62, %52 ]
  %81 = bitcast i8** %80 to %"class.optimization_guide::proto::TreeNode"**
  %82 = load %"class.optimization_guide::proto::TreeNode"*, %"class.optimization_guide::proto::TreeNode"** %81, align 8
  %83 = tail call i64 @_ZNK18optimization_guide5proto8TreeNode12ByteSizeLongEv(%"class.optimization_guide::proto::TreeNode"* %82) #13
  %84 = trunc i64 %83 to i32
  %85 = or i32 %84, 1
  %86 = tail call i32 @llvm.ctlz.i32(i32 %85, i1 true) #13, !range !6
  %87 = xor i32 %86, 31
  %88 = mul nuw nsw i32 %87, 9
  %89 = add nuw nsw i32 %88, 73
  %90 = lshr i32 %89, 6
  %91 = zext i32 %90 to i64
  %92 = add i64 %83, %79
  %93 = add i64 %92, %91
  %94 = getelementptr inbounds i8*, i8** %80, i64 1
  %95 = icmp eq i8** %94, %63
  br i1 %95, label %65, label %78

96:                                               ; preds = %65
  %97 = and i64 %75, -2
  %98 = inttoptr i64 %97 to %"struct.google::protobuf::internal::InternalMetadata::Container"*
  %99 = getelementptr inbounds %"struct.google::protobuf::internal::InternalMetadata::Container", %"struct.google::protobuf::internal::InternalMetadata::Container"* %98, i64 0, i32 1
  %100 = bitcast %"class.std::__1::basic_string"* %99 to %"struct.std::__1::basic_string<char, std::__1::char_traits<char>, std::__1::allocator<char> >::__short"*
  %101 = getelementptr inbounds %"struct.std::__1::basic_string<char, std::__1::char_traits<char>, std::__1::allocator<char> >::__short", %"struct.std::__1::basic_string<char, std::__1::char_traits<char>, std::__1::allocator<char> >::__short"* %100, i64 0, i32 1, i32 0
  %102 = load i8, i8* %101, align 1
  %103 = icmp slt i8 %102, 0
  br i1 %103, label %104, label %107

104:                                              ; preds = %96
  %105 = getelementptr inbounds %"struct.google::protobuf::internal::InternalMetadata::Container", %"struct.google::protobuf::internal::InternalMetadata::Container"* %98, i64 0, i32 1, i32 0, i32 0, i32 0, i32 0, i32 0, i32 1
  %106 = load i64, i64* %105, align 8
  br label %109

107:                                              ; preds = %96
  %108 = zext i8 %102 to i64
  br label %109

109:                                              ; preds = %107, %104
  %110 = phi i64 [ %106, %104 ], [ %108, %107 ]
  %111 = add i64 %110, %72
  br label %112

112:                                              ; preds = %65, %109
  %113 = phi i64 [ %111, %109 ], [ %72, %65 ]
  %114 = trunc i64 %113 to i32
  %115 = getelementptr inbounds %"class.optimization_guide::proto::DecisionTree", %"class.optimization_guide::proto::DecisionTree"* %54, i64 0, i32 2, i32 0, i32 0, i32 0, i32 0, i32 0, i32 0
  store atomic i32 %114, i32* %115 monotonic, align 4
  %116 = or i32 %114, 1
  %117 = tail call i32 @llvm.ctlz.i32(i32 %116, i1 true) #13, !range !6
  %118 = xor i32 %117, 31
  %119 = mul nuw nsw i32 %118, 9
  %120 = add nuw nsw i32 %119, 73
  %121 = lshr i32 %120, 6
  %122 = zext i32 %121 to i64
  %123 = add i64 %49, 1
  %124 = add i64 %123, %113
  %125 = add i64 %124, %122
  br label %165

126:                                              ; preds = %48
  %127 = getelementptr inbounds %"class.optimization_guide::proto::Model", %"class.optimization_guide::proto::Model"* %0, i64 0, i32 4
  %128 = bitcast %"union.optimization_guide::proto::Model::ModelUnion"* %127 to %"class.optimization_guide::proto::Ensemble"**
  %129 = load %"class.optimization_guide::proto::Ensemble"*, %"class.optimization_guide::proto::Ensemble"** %128, align 8
  %130 = tail call i64 @_ZNK18optimization_guide5proto8Ensemble12ByteSizeLongEv(%"class.optimization_guide::proto::Ensemble"* %129) #13
  %131 = trunc i64 %130 to i32
  %132 = or i32 %131, 1
  %133 = tail call i32 @llvm.ctlz.i32(i32 %132, i1 true) #13, !range !6
  %134 = xor i32 %133, 31
  %135 = mul nuw nsw i32 %134, 9
  %136 = add nuw nsw i32 %135, 73
  %137 = lshr i32 %136, 6
  %138 = zext i32 %137 to i64
  %139 = add i64 %49, 1
  %140 = add i64 %139, %130
  %141 = add i64 %140, %138
  br label %165

142:                                              ; preds = %48
  %143 = getelementptr inbounds %"class.optimization_guide::proto::Model", %"class.optimization_guide::proto::Model"* %0, i64 0, i32 4
  %144 = bitcast %"union.optimization_guide::proto::Model::ModelUnion"* %143 to %"class.std::__1::basic_string"**
  %145 = load %"class.std::__1::basic_string"*, %"class.std::__1::basic_string"** %144, align 8
  %146 = bitcast %"class.std::__1::basic_string"* %145 to %"struct.std::__1::basic_string<char, std::__1::char_traits<char>, std::__1::allocator<char> >::__short"*
  %147 = getelementptr inbounds %"struct.std::__1::basic_string<char, std::__1::char_traits<char>, std::__1::allocator<char> >::__short", %"struct.std::__1::basic_string<char, std::__1::char_traits<char>, std::__1::allocator<char> >::__short"* %146, i64 0, i32 1, i32 0
  %148 = load i8, i8* %147, align 1
  %149 = icmp slt i8 %148, 0
  %150 = getelementptr inbounds %"class.std::__1::basic_string", %"class.std::__1::basic_string"* %145, i64 0, i32 0, i32 0, i32 0, i32 0, i32 0, i32 1
  %151 = load i64, i64* %150, align 8
  %152 = zext i8 %148 to i64
  %153 = select i1 %149, i64 %151, i64 %152
  %154 = trunc i64 %153 to i32
  %155 = or i32 %154, 1
  %156 = tail call i32 @llvm.ctlz.i32(i32 %155, i1 true) #13, !range !6
  %157 = xor i32 %156, 31
  %158 = mul nuw nsw i32 %157, 9
  %159 = add nuw nsw i32 %158, 73
  %160 = lshr i32 %159, 6
  %161 = zext i32 %160 to i64
  %162 = add i64 %49, 1
  %163 = add i64 %162, %153
  %164 = add i64 %163, %161
  br label %165

165:                                              ; preds = %48, %142, %126, %112
  %166 = phi i64 [ %49, %48 ], [ %164, %142 ], [ %141, %126 ], [ %125, %112 ]
  %167 = getelementptr inbounds %"class.optimization_guide::proto::Model", %"class.optimization_guide::proto::Model"* %0, i64 0, i32 0, i32 1
  %168 = bitcast %"class.google::protobuf::internal::InternalMetadata"* %167 to i64*
  %169 = load i64, i64* %168, align 8
  %170 = and i64 %169, 1
  %171 = icmp eq i64 %170, 0
  br i1 %171, label %188, label %172, !prof !2

172:                                              ; preds = %165
  %173 = and i64 %169, -2
  %174 = inttoptr i64 %173 to %"struct.google::protobuf::internal::InternalMetadata::Container"*
  %175 = getelementptr inbounds %"struct.google::protobuf::internal::InternalMetadata::Container", %"struct.google::protobuf::internal::InternalMetadata::Container"* %174, i64 0, i32 1
  %176 = bitcast %"class.std::__1::basic_string"* %175 to %"struct.std::__1::basic_string<char, std::__1::char_traits<char>, std::__1::allocator<char> >::__short"*
  %177 = getelementptr inbounds %"struct.std::__1::basic_string<char, std::__1::char_traits<char>, std::__1::allocator<char> >::__short", %"struct.std::__1::basic_string<char, std::__1::char_traits<char>, std::__1::allocator<char> >::__short"* %176, i64 0, i32 1, i32 0
  %178 = load i8, i8* %177, align 1
  %179 = icmp slt i8 %178, 0
  br i1 %179, label %180, label %183

180:                                              ; preds = %172
  %181 = getelementptr inbounds %"struct.google::protobuf::internal::InternalMetadata::Container", %"struct.google::protobuf::internal::InternalMetadata::Container"* %174, i64 0, i32 1, i32 0, i32 0, i32 0, i32 0, i32 0, i32 1
  %182 = load i64, i64* %181, align 8
  br label %185

183:                                              ; preds = %172
  %184 = zext i8 %178 to i64
  br label %185

185:                                              ; preds = %180, %183
  %186 = phi i64 [ %182, %180 ], [ %184, %183 ]
  %187 = add i64 %186, %166
  br label %188

188:                                              ; preds = %165, %185
  %189 = phi i64 [ %187, %185 ], [ %166, %165 ]
  %190 = trunc i64 %189 to i32
  %191 = getelementptr inbounds %"class.optimization_guide::proto::Model", %"class.optimization_guide::proto::Model"* %0, i64 0, i32 2, i32 0, i32 0, i32 0, i32 0, i32 0, i32 0
  store atomic i32 %190, i32* %191 monotonic, align 4
  ret i64 %189
}

; Function Attrs: nounwind ssp uwtable
define hidden void @_ZN18optimization_guide5proto5Model21CheckTypeAndMergeFromERKN6google8protobuf11MessageLiteE(%"class.optimization_guide::proto::Model"*, %"class.google::protobuf::MessageLite"* nocapture readonly dereferenceable(16)) unnamed_addr #0 align 2 {
  %3 = bitcast %"class.google::protobuf::MessageLite"* %1 to %"class.optimization_guide::proto::Model"*
  tail call void @_ZN18optimization_guide5proto5Model9MergeFromERKS1_(%"class.optimization_guide::proto::Model"* %0, %"class.optimization_guide::proto::Model"* dereferenceable(48) %3)
  ret void
}

; Function Attrs: nounwind ssp uwtable
define hidden void @_ZN18optimization_guide5proto5Model9MergeFromERKS1_(%"class.optimization_guide::proto::Model"*, %"class.optimization_guide::proto::Model"* nocapture readonly dereferenceable(48)) local_unnamed_addr #0 align 2 {
  %3 = getelementptr inbounds %"class.optimization_guide::proto::Model", %"class.optimization_guide::proto::Model"* %0, i64 0, i32 0, i32 1
  %4 = getelementptr inbounds %"class.optimization_guide::proto::Model", %"class.optimization_guide::proto::Model"* %1, i64 0, i32 0, i32 1
  %5 = bitcast %"class.google::protobuf::internal::InternalMetadata"* %4 to i64*
  %6 = load i64, i64* %5, align 8
  %7 = and i64 %6, 1
  %8 = icmp eq i64 %7, 0
  br i1 %8, label %38, label %9

9:                                                ; preds = %2
  %10 = and i64 %6, -2
  %11 = inttoptr i64 %10 to %"struct.google::protobuf::internal::InternalMetadata::Container"*
  %12 = getelementptr inbounds %"struct.google::protobuf::internal::InternalMetadata::Container", %"struct.google::protobuf::internal::InternalMetadata::Container"* %11, i64 0, i32 1
  %13 = bitcast %"class.google::protobuf::internal::InternalMetadata"* %3 to i64*
  %14 = load i64, i64* %13, align 8
  %15 = and i64 %14, 1
  %16 = icmp eq i64 %15, 0
  br i1 %16, label %21, label %17, !prof !5

17:                                               ; preds = %9
  %18 = and i64 %14, -2
  %19 = inttoptr i64 %18 to %"struct.google::protobuf::internal::InternalMetadata::Container"*
  %20 = getelementptr inbounds %"struct.google::protobuf::internal::InternalMetadata::Container", %"struct.google::protobuf::internal::InternalMetadata::Container"* %19, i64 0, i32 1
  br label %23

21:                                               ; preds = %9
  %22 = tail call %"class.std::__1::basic_string"* @_ZN6google8protobuf8internal16InternalMetadata27mutable_unknown_fields_slowINSt3__112basic_stringIcNS4_11char_traitsIcEENS4_9allocatorIcEEEEEEPT_v(%"class.google::protobuf::internal::InternalMetadata"* %3) #13
  br label %23

23:                                               ; preds = %21, %17
  %24 = phi %"class.std::__1::basic_string"* [ %20, %17 ], [ %22, %21 ]
  %25 = bitcast %"class.std::__1::basic_string"* %12 to %"struct.std::__1::basic_string<char, std::__1::char_traits<char>, std::__1::allocator<char> >::__short"*
  %26 = getelementptr inbounds %"struct.std::__1::basic_string<char, std::__1::char_traits<char>, std::__1::allocator<char> >::__short", %"struct.std::__1::basic_string<char, std::__1::char_traits<char>, std::__1::allocator<char> >::__short"* %25, i64 0, i32 1, i32 0
  %27 = load i8, i8* %26, align 1
  %28 = icmp slt i8 %27, 0
  %29 = getelementptr inbounds %"class.std::__1::basic_string", %"class.std::__1::basic_string"* %12, i64 0, i32 0, i32 0, i32 0, i32 0, i32 0, i32 0
  %30 = load i8*, i8** %29, align 8
  %31 = getelementptr inbounds %"struct.google::protobuf::internal::InternalMetadata::Container", %"struct.google::protobuf::internal::InternalMetadata::Container"* %11, i64 0, i32 1, i32 0, i32 0, i32 0, i32 0, i32 0, i32 1
  %32 = load i64, i64* %31, align 8
  %33 = bitcast %"class.std::__1::basic_string"* %12 to i8*
  %34 = zext i8 %27 to i64
  %35 = select i1 %28, i8* %30, i8* %33
  %36 = select i1 %28, i64 %32, i64 %34
  %37 = tail call dereferenceable(24) %"class.std::__1::basic_string"* @_ZNSt3__112basic_stringIcNS_11char_traitsIcEENS_9allocatorIcEEE6appendEPKcm(%"class.std::__1::basic_string"* %24, i8* %35, i64 %36) #13
  br label %38

38:                                               ; preds = %2, %23
  %39 = getelementptr inbounds %"class.optimization_guide::proto::Model", %"class.optimization_guide::proto::Model"* %1, i64 0, i32 1, i32 0, i64 0
  %40 = load i32, i32* %39, align 4
  %41 = and i32 %40, 1
  %42 = icmp eq i32 %41, 0
  br i1 %42, label %122, label %43

43:                                               ; preds = %38
  %44 = getelementptr inbounds %"class.optimization_guide::proto::Model", %"class.optimization_guide::proto::Model"* %1, i64 0, i32 3
  %45 = load %"class.optimization_guide::proto::DoubleValue"*, %"class.optimization_guide::proto::DoubleValue"** %44, align 8
  %46 = icmp ne %"class.optimization_guide::proto::DoubleValue"* %45, null
  tail call void @llvm.assume(i1 %46) #13
  %47 = getelementptr inbounds %"class.optimization_guide::proto::Model", %"class.optimization_guide::proto::Model"* %0, i64 0, i32 1, i32 0, i64 0
  %48 = load i32, i32* %47, align 4
  %49 = or i32 %48, 1
  store i32 %49, i32* %47, align 4
  %50 = getelementptr inbounds %"class.optimization_guide::proto::Model", %"class.optimization_guide::proto::Model"* %0, i64 0, i32 3
  %51 = load %"class.optimization_guide::proto::DoubleValue"*, %"class.optimization_guide::proto::DoubleValue"** %50, align 8
  %52 = icmp eq %"class.optimization_guide::proto::DoubleValue"* %51, null
  br i1 %52, label %53, label %68

53:                                               ; preds = %43
  %54 = bitcast %"class.google::protobuf::internal::InternalMetadata"* %3 to i64*
  %55 = load i64, i64* %54, align 8
  %56 = and i64 %55, 1
  %57 = icmp eq i64 %56, 0
  %58 = and i64 %55, -2
  br i1 %57, label %63, label %59, !prof !2

59:                                               ; preds = %53
  %60 = inttoptr i64 %58 to %"struct.google::protobuf::internal::InternalMetadata::ContainerBase"*
  %61 = getelementptr inbounds %"struct.google::protobuf::internal::InternalMetadata::ContainerBase", %"struct.google::protobuf::internal::InternalMetadata::ContainerBase"* %60, i64 0, i32 0
  %62 = load %"class.google::protobuf::Arena"*, %"class.google::protobuf::Arena"** %61, align 8
  br label %65

63:                                               ; preds = %53
  %64 = inttoptr i64 %58 to %"class.google::protobuf::Arena"*
  br label %65

65:                                               ; preds = %63, %59
  %66 = phi %"class.google::protobuf::Arena"* [ %62, %59 ], [ %64, %63 ]
  %67 = tail call %"class.optimization_guide::proto::DoubleValue"* @_ZN6google8protobuf5Arena18CreateMaybeMessageIN18optimization_guide5proto11DoubleValueEJEEEPT_PS1_DpOT0_(%"class.google::protobuf::Arena"* %66) #13
  store %"class.optimization_guide::proto::DoubleValue"* %67, %"class.optimization_guide::proto::DoubleValue"** %50, align 8
  br label %68

68:                                               ; preds = %43, %65
  %69 = phi %"class.optimization_guide::proto::DoubleValue"* [ %67, %65 ], [ %51, %43 ]
  %70 = load %"class.optimization_guide::proto::DoubleValue"*, %"class.optimization_guide::proto::DoubleValue"** %44, align 8
  %71 = icmp eq %"class.optimization_guide::proto::DoubleValue"* %70, null
  %72 = select i1 %71, %"class.optimization_guide::proto::DoubleValue"* bitcast (%"class.optimization_guide::proto::DoubleValueDefaultTypeInternal"* @_ZN18optimization_guide5proto30_DoubleValue_default_instance_E to %"class.optimization_guide::proto::DoubleValue"*), %"class.optimization_guide::proto::DoubleValue"* %70
  %73 = getelementptr inbounds %"class.optimization_guide::proto::DoubleValue", %"class.optimization_guide::proto::DoubleValue"* %69, i64 0, i32 0, i32 1
  %74 = getelementptr inbounds %"class.optimization_guide::proto::DoubleValue", %"class.optimization_guide::proto::DoubleValue"* %72, i64 0, i32 0, i32 1
  %75 = bitcast %"class.google::protobuf::internal::InternalMetadata"* %74 to i64*
  %76 = load i64, i64* %75, align 8
  %77 = and i64 %76, 1
  %78 = icmp eq i64 %77, 0
  br i1 %78, label %108, label %79

79:                                               ; preds = %68
  %80 = and i64 %76, -2
  %81 = inttoptr i64 %80 to %"struct.google::protobuf::internal::InternalMetadata::Container"*
  %82 = getelementptr inbounds %"struct.google::protobuf::internal::InternalMetadata::Container", %"struct.google::protobuf::internal::InternalMetadata::Container"* %81, i64 0, i32 1
  %83 = bitcast %"class.google::protobuf::internal::InternalMetadata"* %73 to i64*
  %84 = load i64, i64* %83, align 8
  %85 = and i64 %84, 1
  %86 = icmp eq i64 %85, 0
  br i1 %86, label %91, label %87, !prof !5

87:                                               ; preds = %79
  %88 = and i64 %84, -2
  %89 = inttoptr i64 %88 to %"struct.google::protobuf::internal::InternalMetadata::Container"*
  %90 = getelementptr inbounds %"struct.google::protobuf::internal::InternalMetadata::Container", %"struct.google::protobuf::internal::InternalMetadata::Container"* %89, i64 0, i32 1
  br label %93

91:                                               ; preds = %79
  %92 = tail call %"class.std::__1::basic_string"* @_ZN6google8protobuf8internal16InternalMetadata27mutable_unknown_fields_slowINSt3__112basic_stringIcNS4_11char_traitsIcEENS4_9allocatorIcEEEEEEPT_v(%"class.google::protobuf::internal::InternalMetadata"* %73) #13
  br label %93

93:                                               ; preds = %91, %87
  %94 = phi %"class.std::__1::basic_string"* [ %90, %87 ], [ %92, %91 ]
  %95 = bitcast %"class.std::__1::basic_string"* %82 to %"struct.std::__1::basic_string<char, std::__1::char_traits<char>, std::__1::allocator<char> >::__short"*
  %96 = getelementptr inbounds %"struct.std::__1::basic_string<char, std::__1::char_traits<char>, std::__1::allocator<char> >::__short", %"struct.std::__1::basic_string<char, std::__1::char_traits<char>, std::__1::allocator<char> >::__short"* %95, i64 0, i32 1, i32 0
  %97 = load i8, i8* %96, align 1
  %98 = icmp slt i8 %97, 0
  %99 = getelementptr inbounds %"class.std::__1::basic_string", %"class.std::__1::basic_string"* %82, i64 0, i32 0, i32 0, i32 0, i32 0, i32 0, i32 0
  %100 = load i8*, i8** %99, align 8
  %101 = getelementptr inbounds %"struct.google::protobuf::internal::InternalMetadata::Container", %"struct.google::protobuf::internal::InternalMetadata::Container"* %81, i64 0, i32 1, i32 0, i32 0, i32 0, i32 0, i32 0, i32 1
  %102 = load i64, i64* %101, align 8
  %103 = bitcast %"class.std::__1::basic_string"* %82 to i8*
  %104 = zext i8 %97 to i64
  %105 = select i1 %98, i8* %100, i8* %103
  %106 = select i1 %98, i64 %102, i64 %104
  %107 = tail call dereferenceable(24) %"class.std::__1::basic_string"* @_ZNSt3__112basic_stringIcNS_11char_traitsIcEENS_9allocatorIcEEE6appendEPKcm(%"class.std::__1::basic_string"* %94, i8* %105, i64 %106) #13
  br label %108

108:                                              ; preds = %93, %68
  %109 = getelementptr inbounds %"class.optimization_guide::proto::DoubleValue", %"class.optimization_guide::proto::DoubleValue"* %72, i64 0, i32 1, i32 0, i64 0
  %110 = load i32, i32* %109, align 4
  %111 = and i32 %110, 1
  %112 = icmp eq i32 %111, 0
  br i1 %112, label %122, label %113

113:                                              ; preds = %108
  %114 = getelementptr inbounds %"class.optimization_guide::proto::DoubleValue", %"class.optimization_guide::proto::DoubleValue"* %72, i64 0, i32 3
  %115 = bitcast double* %114 to i64*
  %116 = load i64, i64* %115, align 8
  %117 = getelementptr inbounds %"class.optimization_guide::proto::DoubleValue", %"class.optimization_guide::proto::DoubleValue"* %69, i64 0, i32 1, i32 0, i64 0
  %118 = load i32, i32* %117, align 4
  %119 = or i32 %118, 1
  store i32 %119, i32* %117, align 4
  %120 = getelementptr inbounds %"class.optimization_guide::proto::DoubleValue", %"class.optimization_guide::proto::DoubleValue"* %69, i64 0, i32 3
  %121 = bitcast double* %120 to i64*
  store i64 %116, i64* %121, align 8
  br label %122

122:                                              ; preds = %38, %113, %108
  %123 = getelementptr inbounds %"class.optimization_guide::proto::Model", %"class.optimization_guide::proto::Model"* %1, i64 0, i32 5, i64 0
  %124 = load i32, i32* %123, align 8
  switch i32 %124, label %253 [
    i32 1, label %125
    i32 2, label %157
    i32 5, label %192
  ]

125:                                              ; preds = %122
  %126 = getelementptr inbounds %"class.optimization_guide::proto::Model", %"class.optimization_guide::proto::Model"* %0, i64 0, i32 5, i64 0
  %127 = load i32, i32* %126, align 8
  %128 = icmp eq i32 %127, 1
  br i1 %128, label %129, label %132

129:                                              ; preds = %125
  %130 = getelementptr inbounds %"class.optimization_guide::proto::Model", %"class.optimization_guide::proto::Model"* %0, i64 0, i32 4, i32 0
  %131 = load %"class.optimization_guide::proto::DecisionTree"*, %"class.optimization_guide::proto::DecisionTree"** %130, align 8
  br label %150

132:                                              ; preds = %125
  tail call void @_ZN18optimization_guide5proto5Model11clear_modelEv(%"class.optimization_guide::proto::Model"* %0) #13
  store i32 1, i32* %126, align 8
  %133 = bitcast %"class.google::protobuf::internal::InternalMetadata"* %3 to i64*
  %134 = load i64, i64* %133, align 8
  %135 = and i64 %134, 1
  %136 = icmp eq i64 %135, 0
  %137 = and i64 %134, -2
  br i1 %136, label %142, label %138, !prof !2

138:                                              ; preds = %132
  %139 = inttoptr i64 %137 to %"struct.google::protobuf::internal::InternalMetadata::ContainerBase"*
  %140 = getelementptr inbounds %"struct.google::protobuf::internal::InternalMetadata::ContainerBase", %"struct.google::protobuf::internal::InternalMetadata::ContainerBase"* %139, i64 0, i32 0
  %141 = load %"class.google::protobuf::Arena"*, %"class.google::protobuf::Arena"** %140, align 8
  br label %144

142:                                              ; preds = %132
  %143 = inttoptr i64 %137 to %"class.google::protobuf::Arena"*
  br label %144

144:                                              ; preds = %138, %142
  %145 = phi %"class.google::protobuf::Arena"* [ %141, %138 ], [ %143, %142 ]
  %146 = tail call %"class.optimization_guide::proto::DecisionTree"* @_ZN6google8protobuf5Arena18CreateMaybeMessageIN18optimization_guide5proto12DecisionTreeEJEEEPT_PS1_DpOT0_(%"class.google::protobuf::Arena"* %145) #13
  %147 = getelementptr inbounds %"class.optimization_guide::proto::Model", %"class.optimization_guide::proto::Model"* %0, i64 0, i32 4, i32 0
  store %"class.optimization_guide::proto::DecisionTree"* %146, %"class.optimization_guide::proto::DecisionTree"** %147, align 8
  %148 = load i32, i32* %123, align 8
  %149 = icmp eq i32 %148, 1
  br i1 %149, label %150, label %154

150:                                              ; preds = %129, %144
  %151 = phi %"class.optimization_guide::proto::DecisionTree"* [ %131, %129 ], [ %146, %144 ]
  %152 = getelementptr inbounds %"class.optimization_guide::proto::Model", %"class.optimization_guide::proto::Model"* %1, i64 0, i32 4, i32 0
  %153 = load %"class.optimization_guide::proto::DecisionTree"*, %"class.optimization_guide::proto::DecisionTree"** %152, align 8
  br label %154

154:                                              ; preds = %144, %150
  %155 = phi %"class.optimization_guide::proto::DecisionTree"* [ %151, %150 ], [ %146, %144 ]
  %156 = phi %"class.optimization_guide::proto::DecisionTree"* [ %153, %150 ], [ bitcast (%"class.optimization_guide::proto::DecisionTreeDefaultTypeInternal"* @_ZN18optimization_guide5proto31_DecisionTree_default_instance_E to %"class.optimization_guide::proto::DecisionTree"*), %144 ]
  tail call void @_ZN18optimization_guide5proto12DecisionTree9MergeFromERKS1_(%"class.optimization_guide::proto::DecisionTree"* %155, %"class.optimization_guide::proto::DecisionTree"* dereferenceable(56) %156)
  br label %253

157:                                              ; preds = %122
  %158 = getelementptr inbounds %"class.optimization_guide::proto::Model", %"class.optimization_guide::proto::Model"* %0, i64 0, i32 5, i64 0
  %159 = load i32, i32* %158, align 8
  %160 = icmp eq i32 %159, 2
  br i1 %160, label %161, label %165

161:                                              ; preds = %157
  %162 = getelementptr inbounds %"class.optimization_guide::proto::Model", %"class.optimization_guide::proto::Model"* %0, i64 0, i32 4
  %163 = bitcast %"union.optimization_guide::proto::Model::ModelUnion"* %162 to %"class.optimization_guide::proto::Ensemble"**
  %164 = load %"class.optimization_guide::proto::Ensemble"*, %"class.optimization_guide::proto::Ensemble"** %163, align 8
  br label %184

165:                                              ; preds = %157
  tail call void @_ZN18optimization_guide5proto5Model11clear_modelEv(%"class.optimization_guide::proto::Model"* %0) #13
  store i32 2, i32* %158, align 8
  %166 = bitcast %"class.google::protobuf::internal::InternalMetadata"* %3 to i64*
  %167 = load i64, i64* %166, align 8
  %168 = and i64 %167, 1
  %169 = icmp eq i64 %168, 0
  %170 = and i64 %167, -2
  br i1 %169, label %175, label %171, !prof !2

171:                                              ; preds = %165
  %172 = inttoptr i64 %170 to %"struct.google::protobuf::internal::InternalMetadata::ContainerBase"*
  %173 = getelementptr inbounds %"struct.google::protobuf::internal::InternalMetadata::ContainerBase", %"struct.google::protobuf::internal::InternalMetadata::ContainerBase"* %172, i64 0, i32 0
  %174 = load %"class.google::protobuf::Arena"*, %"class.google::protobuf::Arena"** %173, align 8
  br label %177

175:                                              ; preds = %165
  %176 = inttoptr i64 %170 to %"class.google::protobuf::Arena"*
  br label %177

177:                                              ; preds = %171, %175
  %178 = phi %"class.google::protobuf::Arena"* [ %174, %171 ], [ %176, %175 ]
  %179 = tail call %"class.optimization_guide::proto::Ensemble"* @_ZN6google8protobuf5Arena18CreateMaybeMessageIN18optimization_guide5proto8EnsembleEJEEEPT_PS1_DpOT0_(%"class.google::protobuf::Arena"* %178) #13
  %180 = getelementptr inbounds %"class.optimization_guide::proto::Model", %"class.optimization_guide::proto::Model"* %0, i64 0, i32 4
  %181 = bitcast %"union.optimization_guide::proto::Model::ModelUnion"* %180 to %"class.optimization_guide::proto::Ensemble"**
  store %"class.optimization_guide::proto::Ensemble"* %179, %"class.optimization_guide::proto::Ensemble"** %181, align 8
  %182 = load i32, i32* %123, align 8
  %183 = icmp eq i32 %182, 2
  br i1 %183, label %184, label %189

184:                                              ; preds = %161, %177
  %185 = phi %"class.optimization_guide::proto::Ensemble"* [ %164, %161 ], [ %179, %177 ]
  %186 = getelementptr inbounds %"class.optimization_guide::proto::Model", %"class.optimization_guide::proto::Model"* %1, i64 0, i32 4
  %187 = bitcast %"union.optimization_guide::proto::Model::ModelUnion"* %186 to %"class.optimization_guide::proto::Ensemble"**
  %188 = load %"class.optimization_guide::proto::Ensemble"*, %"class.optimization_guide::proto::Ensemble"** %187, align 8
  br label %189

189:                                              ; preds = %177, %184
  %190 = phi %"class.optimization_guide::proto::Ensemble"* [ %185, %184 ], [ %179, %177 ]
  %191 = phi %"class.optimization_guide::proto::Ensemble"* [ %188, %184 ], [ bitcast (%"class.optimization_guide::proto::EnsembleDefaultTypeInternal"* @_ZN18optimization_guide5proto27_Ensemble_default_instance_E to %"class.optimization_guide::proto::Ensemble"*), %177 ]
  tail call void @_ZN18optimization_guide5proto8Ensemble9MergeFromERKS1_(%"class.optimization_guide::proto::Ensemble"* %190, %"class.optimization_guide::proto::Ensemble"* dereferenceable(48) %191)
  br label %253

192:                                              ; preds = %122
  %193 = getelementptr inbounds %"class.optimization_guide::proto::Model", %"class.optimization_guide::proto::Model"* %1, i64 0, i32 4
  %194 = bitcast %"union.optimization_guide::proto::Model::ModelUnion"* %193 to %"class.std::__1::basic_string"**
  %195 = load %"class.std::__1::basic_string"*, %"class.std::__1::basic_string"** %194, align 8
  %196 = getelementptr inbounds %"class.optimization_guide::proto::Model", %"class.optimization_guide::proto::Model"* %0, i64 0, i32 5, i64 0
  %197 = load i32, i32* %196, align 8
  %198 = icmp eq i32 %197, 5
  br i1 %198, label %202, label %199

199:                                              ; preds = %192
  tail call void @_ZN18optimization_guide5proto5Model11clear_modelEv(%"class.optimization_guide::proto::Model"* %0) #13
  store i32 5, i32* %196, align 8
  %200 = getelementptr inbounds %"class.optimization_guide::proto::Model", %"class.optimization_guide::proto::Model"* %0, i64 0, i32 4
  %201 = bitcast %"union.optimization_guide::proto::Model::ModelUnion"* %200 to %"class.std::__1::basic_string"**
  store %"class.std::__1::basic_string"* bitcast (%"class.google::protobuf::internal::ExplicitlyConstructed.24"* @_ZN6google8protobuf8internal26fixed_address_empty_stringE to %"class.std::__1::basic_string"*), %"class.std::__1::basic_string"** %201, align 8
  br label %202

202:                                              ; preds = %199, %192
  %203 = getelementptr inbounds %"class.optimization_guide::proto::Model", %"class.optimization_guide::proto::Model"* %0, i64 0, i32 4
  %204 = bitcast %"union.optimization_guide::proto::Model::ModelUnion"* %203 to %"struct.google::protobuf::internal::ArenaStringPtr"*
  %205 = bitcast %"class.google::protobuf::internal::InternalMetadata"* %3 to i64*
  %206 = load i64, i64* %205, align 8
  %207 = and i64 %206, 1
  %208 = icmp eq i64 %207, 0
  %209 = and i64 %206, -2
  br i1 %208, label %214, label %210, !prof !2

210:                                              ; preds = %202
  %211 = inttoptr i64 %209 to %"struct.google::protobuf::internal::InternalMetadata::ContainerBase"*
  %212 = getelementptr inbounds %"struct.google::protobuf::internal::InternalMetadata::ContainerBase", %"struct.google::protobuf::internal::InternalMetadata::ContainerBase"* %211, i64 0, i32 0
  %213 = load %"class.google::protobuf::Arena"*, %"class.google::protobuf::Arena"** %212, align 8
  br label %216

214:                                              ; preds = %202
  %215 = inttoptr i64 %209 to %"class.google::protobuf::Arena"*
  br label %216

216:                                              ; preds = %214, %210
  %217 = phi %"class.google::protobuf::Arena"* [ %213, %210 ], [ %215, %214 ]
  %218 = bitcast %"union.optimization_guide::proto::Model::ModelUnion"* %203 to %"class.std::__1::basic_string"**
  %219 = load %"class.std::__1::basic_string"*, %"class.std::__1::basic_string"** %218, align 8
  %220 = icmp eq %"class.std::__1::basic_string"* %219, bitcast (%"class.google::protobuf::internal::ExplicitlyConstructed.24"* @_ZN6google8protobuf8internal26fixed_address_empty_stringE to %"class.std::__1::basic_string"*)
  br i1 %220, label %221, label %222

221:                                              ; preds = %216
  tail call void @_ZN6google8protobuf8internal14ArenaStringPtr14CreateInstanceEPNS0_5ArenaEPKNSt3__112basic_stringIcNS5_11char_traitsIcEENS5_9allocatorIcEEEE(%"struct.google::protobuf::internal::ArenaStringPtr"* %204, %"class.google::protobuf::Arena"* %217, %"class.std::__1::basic_string"* %195) #13
  br label %253

222:                                              ; preds = %216
  %223 = icmp eq %"class.std::__1::basic_string"* %219, %195
  br i1 %223, label %253, label %224

224:                                              ; preds = %222
  %225 = bitcast %"class.std::__1::basic_string"* %219 to %"struct.std::__1::basic_string<char, std::__1::char_traits<char>, std::__1::allocator<char> >::__short"*
  %226 = getelementptr inbounds %"struct.std::__1::basic_string<char, std::__1::char_traits<char>, std::__1::allocator<char> >::__short", %"struct.std::__1::basic_string<char, std::__1::char_traits<char>, std::__1::allocator<char> >::__short"* %225, i64 0, i32 1, i32 0
  %227 = load i8, i8* %226, align 1
  %228 = icmp slt i8 %227, 0
  %229 = bitcast %"class.std::__1::basic_string"* %195 to %"struct.std::__1::basic_string<char, std::__1::char_traits<char>, std::__1::allocator<char> >::__short"*
  %230 = getelementptr inbounds %"struct.std::__1::basic_string<char, std::__1::char_traits<char>, std::__1::allocator<char> >::__short", %"struct.std::__1::basic_string<char, std::__1::char_traits<char>, std::__1::allocator<char> >::__short"* %229, i64 0, i32 1, i32 0
  %231 = load i8, i8* %230, align 1
  %232 = icmp slt i8 %231, 0
  br i1 %228, label %243, label %233

233:                                              ; preds = %224
  br i1 %232, label %237, label %234

234:                                              ; preds = %233
  %235 = bitcast %"class.std::__1::basic_string"* %219 to i8*
  %236 = bitcast %"class.std::__1::basic_string"* %195 to i8*
  tail call void @llvm.memcpy.p0i8.p0i8.i64(i8* align 8 %235, i8* align 8 %236, i64 24, i1 false) #13
  br label %253

237:                                              ; preds = %233
  %238 = getelementptr inbounds %"class.std::__1::basic_string", %"class.std::__1::basic_string"* %195, i64 0, i32 0, i32 0, i32 0, i32 0, i32 0, i32 0
  %239 = load i8*, i8** %238, align 8
  %240 = getelementptr inbounds %"class.std::__1::basic_string", %"class.std::__1::basic_string"* %195, i64 0, i32 0, i32 0, i32 0, i32 0, i32 0, i32 1
  %241 = load i64, i64* %240, align 8
  %242 = tail call dereferenceable(24) %"class.std::__1::basic_string"* @_ZNSt3__112basic_stringIcNS_11char_traitsIcEENS_9allocatorIcEEE17__assign_no_aliasILb1EEERS5_PKcm(%"class.std::__1::basic_string"* %219, i8* %239, i64 %241) #13
  br label %253

243:                                              ; preds = %224
  %244 = getelementptr inbounds %"class.std::__1::basic_string", %"class.std::__1::basic_string"* %195, i64 0, i32 0, i32 0, i32 0, i32 0, i32 0, i32 0
  %245 = load i8*, i8** %244, align 8
  %246 = getelementptr inbounds %"class.std::__1::basic_string", %"class.std::__1::basic_string"* %195, i64 0, i32 0, i32 0, i32 0, i32 0, i32 0, i32 1
  %247 = load i64, i64* %246, align 8
  %248 = bitcast %"class.std::__1::basic_string"* %195 to i8*
  %249 = zext i8 %231 to i64
  %250 = select i1 %232, i8* %245, i8* %248
  %251 = select i1 %232, i64 %247, i64 %249
  %252 = tail call dereferenceable(24) %"class.std::__1::basic_string"* @_ZNSt3__112basic_stringIcNS_11char_traitsIcEENS_9allocatorIcEEE17__assign_no_aliasILb0EEERS5_PKcm(%"class.std::__1::basic_string"* %219, i8* %250, i64 %251) #13
  br label %253

253:                                              ; preds = %243, %237, %234, %222, %221, %122, %189, %154
  ret void
}

; Function Attrs: nounwind ssp uwtable
define hidden void @_ZN18optimization_guide5proto11DoubleValue9MergeFromERKS1_(%"class.optimization_guide::proto::DoubleValue"*, %"class.optimization_guide::proto::DoubleValue"* nocapture readonly dereferenceable(32)) local_unnamed_addr #0 align 2 {
  %3 = getelementptr inbounds %"class.optimization_guide::proto::DoubleValue", %"class.optimization_guide::proto::DoubleValue"* %0, i64 0, i32 0, i32 1
  %4 = getelementptr inbounds %"class.optimization_guide::proto::DoubleValue", %"class.optimization_guide::proto::DoubleValue"* %1, i64 0, i32 0, i32 1
  %5 = bitcast %"class.google::protobuf::internal::InternalMetadata"* %4 to i64*
  %6 = load i64, i64* %5, align 8
  %7 = and i64 %6, 1
  %8 = icmp eq i64 %7, 0
  br i1 %8, label %38, label %9

9:                                                ; preds = %2
  %10 = and i64 %6, -2
  %11 = inttoptr i64 %10 to %"struct.google::protobuf::internal::InternalMetadata::Container"*
  %12 = getelementptr inbounds %"struct.google::protobuf::internal::InternalMetadata::Container", %"struct.google::protobuf::internal::InternalMetadata::Container"* %11, i64 0, i32 1
  %13 = bitcast %"class.google::protobuf::internal::InternalMetadata"* %3 to i64*
  %14 = load i64, i64* %13, align 8
  %15 = and i64 %14, 1
  %16 = icmp eq i64 %15, 0
  br i1 %16, label %21, label %17, !prof !5

17:                                               ; preds = %9
  %18 = and i64 %14, -2
  %19 = inttoptr i64 %18 to %"struct.google::protobuf::internal::InternalMetadata::Container"*
  %20 = getelementptr inbounds %"struct.google::protobuf::internal::InternalMetadata::Container", %"struct.google::protobuf::internal::InternalMetadata::Container"* %19, i64 0, i32 1
  br label %23

21:                                               ; preds = %9
  %22 = tail call %"class.std::__1::basic_string"* @_ZN6google8protobuf8internal16InternalMetadata27mutable_unknown_fields_slowINSt3__112basic_stringIcNS4_11char_traitsIcEENS4_9allocatorIcEEEEEEPT_v(%"class.google::protobuf::internal::InternalMetadata"* %3) #13
  br label %23

23:                                               ; preds = %21, %17
  %24 = phi %"class.std::__1::basic_string"* [ %20, %17 ], [ %22, %21 ]
  %25 = bitcast %"class.std::__1::basic_string"* %12 to %"struct.std::__1::basic_string<char, std::__1::char_traits<char>, std::__1::allocator<char> >::__short"*
  %26 = getelementptr inbounds %"struct.std::__1::basic_string<char, std::__1::char_traits<char>, std::__1::allocator<char> >::__short", %"struct.std::__1::basic_string<char, std::__1::char_traits<char>, std::__1::allocator<char> >::__short"* %25, i64 0, i32 1, i32 0
  %27 = load i8, i8* %26, align 1
  %28 = icmp slt i8 %27, 0
  %29 = getelementptr inbounds %"class.std::__1::basic_string", %"class.std::__1::basic_string"* %12, i64 0, i32 0, i32 0, i32 0, i32 0, i32 0, i32 0
  %30 = load i8*, i8** %29, align 8
  %31 = getelementptr inbounds %"struct.google::protobuf::internal::InternalMetadata::Container", %"struct.google::protobuf::internal::InternalMetadata::Container"* %11, i64 0, i32 1, i32 0, i32 0, i32 0, i32 0, i32 0, i32 1
  %32 = load i64, i64* %31, align 8
  %33 = bitcast %"class.std::__1::basic_string"* %12 to i8*
  %34 = zext i8 %27 to i64
  %35 = select i1 %28, i8* %30, i8* %33
  %36 = select i1 %28, i64 %32, i64 %34
  %37 = tail call dereferenceable(24) %"class.std::__1::basic_string"* @_ZNSt3__112basic_stringIcNS_11char_traitsIcEENS_9allocatorIcEEE6appendEPKcm(%"class.std::__1::basic_string"* %24, i8* %35, i64 %36) #13
  br label %38

38:                                               ; preds = %2, %23
  %39 = getelementptr inbounds %"class.optimization_guide::proto::DoubleValue", %"class.optimization_guide::proto::DoubleValue"* %1, i64 0, i32 1, i32 0, i64 0
  %40 = load i32, i32* %39, align 4
  %41 = and i32 %40, 1
  %42 = icmp eq i32 %41, 0
  br i1 %42, label %52, label %43

43:                                               ; preds = %38
  %44 = getelementptr inbounds %"class.optimization_guide::proto::DoubleValue", %"class.optimization_guide::proto::DoubleValue"* %1, i64 0, i32 3
  %45 = bitcast double* %44 to i64*
  %46 = load i64, i64* %45, align 8
  %47 = getelementptr inbounds %"class.optimization_guide::proto::DoubleValue", %"class.optimization_guide::proto::DoubleValue"* %0, i64 0, i32 1, i32 0, i64 0
  %48 = load i32, i32* %47, align 4
  %49 = or i32 %48, 1
  store i32 %49, i32* %47, align 4
  %50 = getelementptr inbounds %"class.optimization_guide::proto::DoubleValue", %"class.optimization_guide::proto::DoubleValue"* %0, i64 0, i32 3
  %51 = bitcast double* %50 to i64*
  store i64 %46, i64* %51, align 8
  br label %52

52:                                               ; preds = %38, %43
  ret void
}

; Function Attrs: nounwind ssp uwtable
define hidden void @_ZN18optimization_guide5proto5Model8CopyFromERKS1_(%"class.optimization_guide::proto::Model"*, %"class.optimization_guide::proto::Model"* readonly dereferenceable(48)) local_unnamed_addr #0 align 2 {
  %3 = icmp eq %"class.optimization_guide::proto::Model"* %1, %0
  br i1 %3, label %54, label %4

4:                                                ; preds = %2
  %5 = getelementptr inbounds %"class.optimization_guide::proto::Model", %"class.optimization_guide::proto::Model"* %0, i64 0, i32 1, i32 0, i64 0
  %6 = load i32, i32* %5, align 4
  %7 = and i32 %6, 1
  %8 = icmp eq i32 %7, 0
  br i1 %8, label %33, label %9

9:                                                ; preds = %4
  %10 = getelementptr inbounds %"class.optimization_guide::proto::Model", %"class.optimization_guide::proto::Model"* %0, i64 0, i32 3
  %11 = load %"class.optimization_guide::proto::DoubleValue"*, %"class.optimization_guide::proto::DoubleValue"** %10, align 8
  %12 = getelementptr inbounds %"class.optimization_guide::proto::DoubleValue", %"class.optimization_guide::proto::DoubleValue"* %11, i64 0, i32 3
  store double 0.000000e+00, double* %12, align 8
  %13 = getelementptr inbounds %"class.optimization_guide::proto::DoubleValue", %"class.optimization_guide::proto::DoubleValue"* %11, i64 0, i32 1, i32 0, i64 0
  store i32 0, i32* %13, align 4
  %14 = getelementptr inbounds %"class.optimization_guide::proto::DoubleValue", %"class.optimization_guide::proto::DoubleValue"* %11, i64 0, i32 0, i32 1
  %15 = bitcast %"class.google::protobuf::internal::InternalMetadata"* %14 to i64*
  %16 = load i64, i64* %15, align 8
  %17 = and i64 %16, 1
  %18 = icmp eq i64 %17, 0
  br i1 %18, label %33, label %19

19:                                               ; preds = %9
  %20 = and i64 %16, -2
  %21 = inttoptr i64 %20 to %"struct.google::protobuf::internal::InternalMetadata::Container"*
  %22 = getelementptr inbounds %"struct.google::protobuf::internal::InternalMetadata::Container", %"struct.google::protobuf::internal::InternalMetadata::Container"* %21, i64 0, i32 1
  %23 = bitcast %"class.std::__1::basic_string"* %22 to %"struct.std::__1::basic_string<char, std::__1::char_traits<char>, std::__1::allocator<char> >::__short"*
  %24 = getelementptr inbounds %"struct.std::__1::basic_string<char, std::__1::char_traits<char>, std::__1::allocator<char> >::__short", %"struct.std::__1::basic_string<char, std::__1::char_traits<char>, std::__1::allocator<char> >::__short"* %23, i64 0, i32 1, i32 0
  %25 = load i8, i8* %24, align 1
  %26 = icmp slt i8 %25, 0
  br i1 %26, label %27, label %31

27:                                               ; preds = %19
  %28 = getelementptr inbounds %"class.std::__1::basic_string", %"class.std::__1::basic_string"* %22, i64 0, i32 0, i32 0, i32 0, i32 0, i32 0, i32 0
  %29 = load i8*, i8** %28, align 8
  store i8 0, i8* %29, align 1
  %30 = getelementptr inbounds %"struct.google::protobuf::internal::InternalMetadata::Container", %"struct.google::protobuf::internal::InternalMetadata::Container"* %21, i64 0, i32 1, i32 0, i32 0, i32 0, i32 0, i32 0, i32 1
  store i64 0, i64* %30, align 8
  br label %33

31:                                               ; preds = %19
  %32 = bitcast %"class.std::__1::basic_string"* %22 to i8*
  store i8 0, i8* %32, align 2
  store i8 0, i8* %24, align 1
  br label %33

33:                                               ; preds = %31, %27, %9, %4
  tail call void @_ZN18optimization_guide5proto5Model11clear_modelEv(%"class.optimization_guide::proto::Model"* %0) #13
  store i32 0, i32* %5, align 4
  %34 = getelementptr inbounds %"class.optimization_guide::proto::Model", %"class.optimization_guide::proto::Model"* %0, i64 0, i32 0, i32 1
  %35 = bitcast %"class.google::protobuf::internal::InternalMetadata"* %34 to i64*
  %36 = load i64, i64* %35, align 8
  %37 = and i64 %36, 1
  %38 = icmp eq i64 %37, 0
  br i1 %38, label %53, label %39

39:                                               ; preds = %33
  %40 = and i64 %36, -2
  %41 = inttoptr i64 %40 to %"struct.google::protobuf::internal::InternalMetadata::Container"*
  %42 = getelementptr inbounds %"struct.google::protobuf::internal::InternalMetadata::Container", %"struct.google::protobuf::internal::InternalMetadata::Container"* %41, i64 0, i32 1
  %43 = bitcast %"class.std::__1::basic_string"* %42 to %"struct.std::__1::basic_string<char, std::__1::char_traits<char>, std::__1::allocator<char> >::__short"*
  %44 = getelementptr inbounds %"struct.std::__1::basic_string<char, std::__1::char_traits<char>, std::__1::allocator<char> >::__short", %"struct.std::__1::basic_string<char, std::__1::char_traits<char>, std::__1::allocator<char> >::__short"* %43, i64 0, i32 1, i32 0
  %45 = load i8, i8* %44, align 1
  %46 = icmp slt i8 %45, 0
  br i1 %46, label %47, label %51

47:                                               ; preds = %39
  %48 = getelementptr inbounds %"class.std::__1::basic_string", %"class.std::__1::basic_string"* %42, i64 0, i32 0, i32 0, i32 0, i32 0, i32 0, i32 0
  %49 = load i8*, i8** %48, align 8
  store i8 0, i8* %49, align 1
  %50 = getelementptr inbounds %"struct.google::protobuf::internal::InternalMetadata::Container", %"struct.google::protobuf::internal::InternalMetadata::Container"* %41, i64 0, i32 1, i32 0, i32 0, i32 0, i32 0, i32 0, i32 1
  store i64 0, i64* %50, align 8
  br label %53

51:                                               ; preds = %39
  %52 = bitcast %"class.std::__1::basic_string"* %42 to i8*
  store i8 0, i8* %52, align 2
  store i8 0, i8* %44, align 1
  br label %53

53:                                               ; preds = %33, %47, %51
  tail call void @_ZN18optimization_guide5proto5Model9MergeFromERKS1_(%"class.optimization_guide::proto::Model"* %0, %"class.optimization_guide::proto::Model"* dereferenceable(48) %1)
  br label %54

54:                                               ; preds = %2, %53
  ret void
}

; Function Attrs: norecurse nounwind readnone ssp uwtable
define hidden zeroext i1 @_ZNK18optimization_guide5proto5Model13IsInitializedEv(%"class.optimization_guide::proto::Model"* nocapture readnone) unnamed_addr #1 align 2 {
  ret i1 true
}

; Function Attrs: nounwind ssp uwtable
define hidden void @_ZN18optimization_guide5proto5Model12InternalSwapEPS1_(%"class.optimization_guide::proto::Model"*, %"class.optimization_guide::proto::Model"*) local_unnamed_addr #0 align 2 {
  %3 = getelementptr inbounds %"class.optimization_guide::proto::Model", %"class.optimization_guide::proto::Model"* %0, i64 0, i32 0, i32 1
  %4 = getelementptr inbounds %"class.optimization_guide::proto::Model", %"class.optimization_guide::proto::Model"* %1, i64 0, i32 0, i32 1
  %5 = bitcast %"class.google::protobuf::internal::InternalMetadata"* %3 to i64*
  %6 = load i64, i64* %5, align 8
  %7 = bitcast %"class.google::protobuf::internal::InternalMetadata"* %4 to i64*
  %8 = load i64, i64* %7, align 8
  %9 = or i64 %8, %6
  %10 = and i64 %9, 1
  %11 = icmp eq i64 %10, 0
  br i1 %11, label %43, label %12

12:                                               ; preds = %2
  %13 = and i64 %8, 1
  %14 = icmp eq i64 %13, 0
  br i1 %14, label %19, label %15, !prof !5

15:                                               ; preds = %12
  %16 = and i64 %8, -2
  %17 = inttoptr i64 %16 to %"struct.google::protobuf::internal::InternalMetadata::Container"*
  %18 = getelementptr inbounds %"struct.google::protobuf::internal::InternalMetadata::Container", %"struct.google::protobuf::internal::InternalMetadata::Container"* %17, i64 0, i32 1
  br label %22

19:                                               ; preds = %12
  %20 = tail call %"class.std::__1::basic_string"* @_ZN6google8protobuf8internal16InternalMetadata27mutable_unknown_fields_slowINSt3__112basic_stringIcNS4_11char_traitsIcEENS4_9allocatorIcEEEEEEPT_v(%"class.google::protobuf::internal::InternalMetadata"* %4) #13
  %21 = load i64, i64* %5, align 8
  br label %22

22:                                               ; preds = %19, %15
  %23 = phi i64 [ %6, %15 ], [ %21, %19 ]
  %24 = phi %"class.std::__1::basic_string"* [ %18, %15 ], [ %20, %19 ]
  %25 = and i64 %23, 1
  %26 = icmp eq i64 %25, 0
  br i1 %26, label %31, label %27, !prof !5

27:                                               ; preds = %22
  %28 = and i64 %23, -2
  %29 = inttoptr i64 %28 to %"struct.google::protobuf::internal::InternalMetadata::Container"*
  %30 = getelementptr inbounds %"struct.google::protobuf::internal::InternalMetadata::Container", %"struct.google::protobuf::internal::InternalMetadata::Container"* %29, i64 0, i32 1
  br label %33

31:                                               ; preds = %22
  %32 = tail call %"class.std::__1::basic_string"* @_ZN6google8protobuf8internal16InternalMetadata27mutable_unknown_fields_slowINSt3__112basic_stringIcNS4_11char_traitsIcEENS4_9allocatorIcEEEEEEPT_v(%"class.google::protobuf::internal::InternalMetadata"* %3) #13
  br label %33

33:                                               ; preds = %31, %27
  %34 = phi %"class.std::__1::basic_string"* [ %30, %27 ], [ %32, %31 ]
  %35 = bitcast %"class.std::__1::basic_string"* %34 to <2 x i64>*
  %36 = load <2 x i64>, <2 x i64>* %35, align 8
  %37 = getelementptr inbounds %"class.std::__1::basic_string", %"class.std::__1::basic_string"* %34, i64 0, i32 0, i32 0, i32 0, i32 0, i32 0, i32 2
  %38 = load i64, i64* %37, align 8
  %39 = bitcast %"class.std::__1::basic_string"* %34 to i8*
  %40 = bitcast %"class.std::__1::basic_string"* %24 to i8*
  tail call void @llvm.memcpy.p0i8.p0i8.i64(i8* align 8 %39, i8* align 8 %40, i64 24, i1 false) #13
  %41 = bitcast %"class.std::__1::basic_string"* %24 to <2 x i64>*
  store <2 x i64> %36, <2 x i64>* %41, align 8
  %42 = getelementptr inbounds %"class.std::__1::basic_string", %"class.std::__1::basic_string"* %24, i64 0, i32 0, i32 0, i32 0, i32 0, i32 0, i32 2
  store i64 %38, i64* %42, align 8
  br label %43

43:                                               ; preds = %2, %33
  %44 = getelementptr inbounds %"class.optimization_guide::proto::Model", %"class.optimization_guide::proto::Model"* %0, i64 0, i32 1, i32 0, i64 0
  %45 = getelementptr inbounds %"class.optimization_guide::proto::Model", %"class.optimization_guide::proto::Model"* %1, i64 0, i32 1, i32 0, i64 0
  %46 = load i32, i32* %44, align 4
  %47 = load i32, i32* %45, align 4
  store i32 %47, i32* %44, align 4
  store i32 %46, i32* %45, align 4
  %48 = getelementptr inbounds %"class.optimization_guide::proto::Model", %"class.optimization_guide::proto::Model"* %0, i64 0, i32 3
  %49 = getelementptr inbounds %"class.optimization_guide::proto::Model", %"class.optimization_guide::proto::Model"* %1, i64 0, i32 3
  %50 = bitcast %"class.optimization_guide::proto::DoubleValue"** %48 to i64*
  %51 = load i64, i64* %50, align 8
  %52 = bitcast %"class.optimization_guide::proto::DoubleValue"** %49 to i64*
  %53 = load i64, i64* %52, align 8
  store i64 %53, i64* %50, align 8
  store i64 %51, i64* %52, align 8
  %54 = getelementptr inbounds %"class.optimization_guide::proto::Model", %"class.optimization_guide::proto::Model"* %0, i64 0, i32 4
  %55 = getelementptr inbounds %"class.optimization_guide::proto::Model", %"class.optimization_guide::proto::Model"* %1, i64 0, i32 4
  %56 = bitcast %"union.optimization_guide::proto::Model::ModelUnion"* %54 to i64*
  %57 = load i64, i64* %56, align 8
  %58 = bitcast %"union.optimization_guide::proto::Model::ModelUnion"* %55 to i64*
  %59 = load i64, i64* %58, align 8
  store i64 %59, i64* %56, align 8
  store i64 %57, i64* %58, align 8
  %60 = getelementptr inbounds %"class.optimization_guide::proto::Model", %"class.optimization_guide::proto::Model"* %0, i64 0, i32 5, i64 0
  %61 = getelementptr inbounds %"class.optimization_guide::proto::Model", %"class.optimization_guide::proto::Model"* %1, i64 0, i32 5, i64 0
  %62 = load i32, i32* %60, align 4
  %63 = load i32, i32* %61, align 4
  store i32 %63, i32* %60, align 4
  store i32 %62, i32* %61, align 4
  ret void
}

; Function Attrs: nounwind ssp uwtable
define hidden void @_ZNK18optimization_guide5proto5Model11GetTypeNameEv(%"class.std::__1::basic_string"* noalias sret, %"class.optimization_guide::proto::Model"* nocapture readnone) unnamed_addr #0 align 2 {
  %3 = tail call i8* @_Znwm(i64 32) #16
  %4 = getelementptr inbounds %"class.std::__1::basic_string", %"class.std::__1::basic_string"* %0, i64 0, i32 0, i32 0, i32 0, i32 0, i32 0, i32 0
  store i8* %3, i8** %4, align 8
  %5 = getelementptr inbounds %"class.std::__1::basic_string", %"class.std::__1::basic_string"* %0, i64 0, i32 0, i32 0, i32 0, i32 0, i32 0, i32 1
  %6 = bitcast i64* %5 to <2 x i64>*
  store <2 x i64> <i64 30, i64 -9223372036854775776>, <2 x i64>* %6, align 8
  tail call void @llvm.memcpy.p0i8.p0i8.i64(i8* nonnull align 1 %3, i8* align 1 getelementptr inbounds ([31 x i8], [31 x i8]* @.str.16, i64 0, i64 0), i64 30, i1 false) #13
  %7 = getelementptr inbounds i8, i8* %3, i64 30
  store i8 0, i8* %7, align 1
  ret void
}

; Function Attrs: norecurse nounwind readonly ssp uwtable
define hidden dereferenceable(48) %"class.optimization_guide::proto::Model"* @_ZN18optimization_guide5proto15Ensemble_Member9_Internal8submodelEPKS1_(%"class.optimization_guide::proto::Ensemble_Member"* nocapture readonly) local_unnamed_addr #5 align 2 {
  %2 = getelementptr inbounds %"class.optimization_guide::proto::Ensemble_Member", %"class.optimization_guide::proto::Ensemble_Member"* %0, i64 0, i32 3
  %3 = load %"class.optimization_guide::proto::Model"*, %"class.optimization_guide::proto::Model"** %2, align 8
  ret %"class.optimization_guide::proto::Model"* %3
}

; Function Attrs: nounwind ssp uwtable
define hidden void @_ZN18optimization_guide5proto15Ensemble_MemberC2EPN6google8protobuf5ArenaE(%"class.optimization_guide::proto::Ensemble_Member"* nocapture, %"class.google::protobuf::Arena"*) unnamed_addr #0 align 2 {
  %3 = getelementptr inbounds %"class.optimization_guide::proto::Ensemble_Member", %"class.optimization_guide::proto::Ensemble_Member"* %0, i64 0, i32 0, i32 0
  %4 = getelementptr inbounds %"class.optimization_guide::proto::Ensemble_Member", %"class.optimization_guide::proto::Ensemble_Member"* %0, i64 0, i32 0, i32 1
  %5 = bitcast %"class.google::protobuf::internal::InternalMetadata"* %4 to %"class.google::protobuf::Arena"**
  store %"class.google::protobuf::Arena"* %1, %"class.google::protobuf::Arena"** %5, align 8
  store i32 (...)** bitcast (i8** getelementptr inbounds ({ [16 x i8*] }, { [16 x i8*] }* @_ZTVN18optimization_guide5proto15Ensemble_MemberE, i64 0, inrange i32 0, i64 2) to i32 (...)**), i32 (...)*** %3, align 8
  %6 = getelementptr inbounds %"class.optimization_guide::proto::Ensemble_Member", %"class.optimization_guide::proto::Ensemble_Member"* %0, i64 0, i32 1, i32 0, i64 0
  store i32 0, i32* %6, align 4
  %7 = getelementptr inbounds %"class.optimization_guide::proto::Ensemble_Member", %"class.optimization_guide::proto::Ensemble_Member"* %0, i64 0, i32 2, i32 0, i32 0, i32 0, i32 0, i32 0, i32 0
  store i32 0, i32* %7, align 4
  %8 = load atomic i32, i32* getelementptr inbounds ({ { { { i32 } }, i32, i32, void ()* }, [2 x i8*] }, { { { { i32 } }, i32, i32, void ()* }, [2 x i8*] }* @scc_info_Ensemble_components_2foptimization_5fguide_2fproto_2fmodels_2eproto, i64 0, i32 0, i32 0, i32 0, i32 0) acquire, align 8
  %9 = icmp eq i32 %8, 0
  br i1 %9, label %11, label %10, !prof !2

10:                                               ; preds = %2
  tail call void @_ZN6google8protobuf8internal11InitSCCImplEPNS1_11SCCInfoBaseE(%"struct.google::protobuf::internal::SCCInfoBase"* bitcast ({ { { { i32 } }, i32, i32, void ()* }, [2 x i8*] }* @scc_info_Ensemble_components_2foptimization_5fguide_2fproto_2fmodels_2eproto to %"struct.google::protobuf::internal::SCCInfoBase"*)) #13
  br label %11

11:                                               ; preds = %2, %10
  %12 = getelementptr inbounds %"class.optimization_guide::proto::Ensemble_Member", %"class.optimization_guide::proto::Ensemble_Member"* %0, i64 0, i32 3
  store %"class.optimization_guide::proto::Model"* null, %"class.optimization_guide::proto::Model"** %12, align 8
  ret void
}

; Function Attrs: nounwind ssp uwtable
define hidden void @_ZN18optimization_guide5proto15Ensemble_MemberC2ERKS1_(%"class.optimization_guide::proto::Ensemble_Member"*, %"class.optimization_guide::proto::Ensemble_Member"* nocapture readonly dereferenceable(32)) unnamed_addr #0 align 2 {
  %3 = getelementptr inbounds %"class.optimization_guide::proto::Ensemble_Member", %"class.optimization_guide::proto::Ensemble_Member"* %0, i64 0, i32 0, i32 0
  %4 = getelementptr inbounds %"class.optimization_guide::proto::Ensemble_Member", %"class.optimization_guide::proto::Ensemble_Member"* %0, i64 0, i32 0, i32 1, i32 0
  store i8* null, i8** %4, align 8
  store i32 (...)** bitcast (i8** getelementptr inbounds ({ [16 x i8*] }, { [16 x i8*] }* @_ZTVN18optimization_guide5proto15Ensemble_MemberE, i64 0, inrange i32 0, i64 2) to i32 (...)**), i32 (...)*** %3, align 8
  %5 = getelementptr inbounds %"class.optimization_guide::proto::Ensemble_Member", %"class.optimization_guide::proto::Ensemble_Member"* %1, i64 0, i32 1, i32 0, i64 0
  %6 = getelementptr inbounds %"class.optimization_guide::proto::Ensemble_Member", %"class.optimization_guide::proto::Ensemble_Member"* %0, i64 0, i32 1, i32 0, i64 0
  %7 = load i32, i32* %5, align 8
  store i32 %7, i32* %6, align 8
  %8 = getelementptr inbounds %"class.optimization_guide::proto::Ensemble_Member", %"class.optimization_guide::proto::Ensemble_Member"* %0, i64 0, i32 2, i32 0, i32 0, i32 0, i32 0, i32 0, i32 0
  store i32 0, i32* %8, align 4
  %9 = getelementptr inbounds %"class.optimization_guide::proto::Ensemble_Member", %"class.optimization_guide::proto::Ensemble_Member"* %1, i64 0, i32 0, i32 1
  %10 = bitcast %"class.google::protobuf::internal::InternalMetadata"* %9 to i64*
  %11 = load i64, i64* %10, align 8
  %12 = and i64 %11, 1
  %13 = icmp eq i64 %12, 0
  br i1 %13, label %33, label %14

14:                                               ; preds = %2
  %15 = getelementptr inbounds %"class.optimization_guide::proto::Ensemble_Member", %"class.optimization_guide::proto::Ensemble_Member"* %0, i64 0, i32 0, i32 1
  %16 = and i64 %11, -2
  %17 = inttoptr i64 %16 to %"struct.google::protobuf::internal::InternalMetadata::Container"*
  %18 = getelementptr inbounds %"struct.google::protobuf::internal::InternalMetadata::Container", %"struct.google::protobuf::internal::InternalMetadata::Container"* %17, i64 0, i32 1
  %19 = tail call %"class.std::__1::basic_string"* @_ZN6google8protobuf8internal16InternalMetadata27mutable_unknown_fields_slowINSt3__112basic_stringIcNS4_11char_traitsIcEENS4_9allocatorIcEEEEEEPT_v(%"class.google::protobuf::internal::InternalMetadata"* %15) #13
  %20 = bitcast %"class.std::__1::basic_string"* %18 to %"struct.std::__1::basic_string<char, std::__1::char_traits<char>, std::__1::allocator<char> >::__short"*
  %21 = getelementptr inbounds %"struct.std::__1::basic_string<char, std::__1::char_traits<char>, std::__1::allocator<char> >::__short", %"struct.std::__1::basic_string<char, std::__1::char_traits<char>, std::__1::allocator<char> >::__short"* %20, i64 0, i32 1, i32 0
  %22 = load i8, i8* %21, align 1
  %23 = icmp slt i8 %22, 0
  %24 = getelementptr inbounds %"class.std::__1::basic_string", %"class.std::__1::basic_string"* %18, i64 0, i32 0, i32 0, i32 0, i32 0, i32 0, i32 0
  %25 = load i8*, i8** %24, align 8
  %26 = getelementptr inbounds %"struct.google::protobuf::internal::InternalMetadata::Container", %"struct.google::protobuf::internal::InternalMetadata::Container"* %17, i64 0, i32 1, i32 0, i32 0, i32 0, i32 0, i32 0, i32 1
  %27 = load i64, i64* %26, align 8
  %28 = bitcast %"class.std::__1::basic_string"* %18 to i8*
  %29 = zext i8 %22 to i64
  %30 = select i1 %23, i8* %25, i8* %28
  %31 = select i1 %23, i64 %27, i64 %29
  %32 = tail call dereferenceable(24) %"class.std::__1::basic_string"* @_ZNSt3__112basic_stringIcNS_11char_traitsIcEENS_9allocatorIcEEE6appendEPKcm(%"class.std::__1::basic_string"* %19, i8* %30, i64 %31) #13
  br label %33

33:                                               ; preds = %2, %14
  %34 = load i32, i32* %5, align 4
  %35 = and i32 %34, 1
  %36 = icmp eq i32 %35, 0
  br i1 %36, label %44, label %37

37:                                               ; preds = %33
  %38 = getelementptr inbounds %"class.optimization_guide::proto::Ensemble_Member", %"class.optimization_guide::proto::Ensemble_Member"* %1, i64 0, i32 3
  %39 = load %"class.optimization_guide::proto::Model"*, %"class.optimization_guide::proto::Model"** %38, align 8, !nonnull !4
  %40 = tail call i8* @_Znwm(i64 48) #16
  %41 = bitcast i8* %40 to %"class.optimization_guide::proto::Model"*
  tail call void @_ZN18optimization_guide5proto5ModelC2ERKS1_(%"class.optimization_guide::proto::Model"* nonnull %41, %"class.optimization_guide::proto::Model"* nonnull dereferenceable(48) %39)
  %42 = getelementptr inbounds %"class.optimization_guide::proto::Ensemble_Member", %"class.optimization_guide::proto::Ensemble_Member"* %0, i64 0, i32 3
  %43 = bitcast %"class.optimization_guide::proto::Model"** %42 to i8**
  store i8* %40, i8** %43, align 8
  br label %46

44:                                               ; preds = %33
  %45 = getelementptr inbounds %"class.optimization_guide::proto::Ensemble_Member", %"class.optimization_guide::proto::Ensemble_Member"* %0, i64 0, i32 3
  store %"class.optimization_guide::proto::Model"* null, %"class.optimization_guide::proto::Model"** %45, align 8
  br label %46

46:                                               ; preds = %44, %37
  ret void
}

; Function Attrs: nounwind ssp uwtable
define hidden void @_ZN18optimization_guide5proto15Ensemble_MemberD2Ev(%"class.optimization_guide::proto::Ensemble_Member"*) unnamed_addr #0 align 2 {
  %2 = getelementptr inbounds %"class.optimization_guide::proto::Ensemble_Member", %"class.optimization_guide::proto::Ensemble_Member"* %0, i64 0, i32 0, i32 0
  store i32 (...)** bitcast (i8** getelementptr inbounds ({ [16 x i8*] }, { [16 x i8*] }* @_ZTVN18optimization_guide5proto15Ensemble_MemberE, i64 0, inrange i32 0, i64 2) to i32 (...)**), i32 (...)*** %2, align 8
  %3 = icmp eq %"class.optimization_guide::proto::Ensemble_Member"* %0, bitcast (%"class.optimization_guide::proto::Ensemble_MemberDefaultTypeInternal"* @_ZN18optimization_guide5proto34_Ensemble_Member_default_instance_E to %"class.optimization_guide::proto::Ensemble_Member"*)
  br i1 %3, label %13, label %4

4:                                                ; preds = %1
  %5 = getelementptr inbounds %"class.optimization_guide::proto::Ensemble_Member", %"class.optimization_guide::proto::Ensemble_Member"* %0, i64 0, i32 3
  %6 = load %"class.optimization_guide::proto::Model"*, %"class.optimization_guide::proto::Model"** %5, align 8
  %7 = icmp eq %"class.optimization_guide::proto::Model"* %6, null
  br i1 %7, label %13, label %8

8:                                                ; preds = %4
  %9 = bitcast %"class.optimization_guide::proto::Model"* %6 to void (%"class.optimization_guide::proto::Model"*)***
  %10 = load void (%"class.optimization_guide::proto::Model"*)**, void (%"class.optimization_guide::proto::Model"*)*** %9, align 8
  %11 = getelementptr inbounds void (%"class.optimization_guide::proto::Model"*)*, void (%"class.optimization_guide::proto::Model"*)** %10, i64 1
  %12 = load void (%"class.optimization_guide::proto::Model"*)*, void (%"class.optimization_guide::proto::Model"*)** %11, align 8
  tail call void %12(%"class.optimization_guide::proto::Model"* nonnull %6) #13
  br label %13

13:                                               ; preds = %1, %4, %8
  %14 = getelementptr inbounds %"class.optimization_guide::proto::Ensemble_Member", %"class.optimization_guide::proto::Ensemble_Member"* %0, i64 0, i32 0, i32 1
  %15 = bitcast %"class.google::protobuf::internal::InternalMetadata"* %14 to i64*
  %16 = load i64, i64* %15, align 8
  %17 = and i64 %16, 1
  %18 = icmp eq i64 %17, 0
  br i1 %18, label %39, label %19

19:                                               ; preds = %13
  %20 = and i64 %16, -2
  %21 = inttoptr i64 %20 to %"struct.google::protobuf::internal::InternalMetadata::ContainerBase"*
  %22 = getelementptr inbounds %"struct.google::protobuf::internal::InternalMetadata::ContainerBase", %"struct.google::protobuf::internal::InternalMetadata::ContainerBase"* %21, i64 0, i32 0
  %23 = load %"class.google::protobuf::Arena"*, %"class.google::protobuf::Arena"** %22, align 8
  %24 = icmp ne %"class.google::protobuf::Arena"* %23, null
  %25 = icmp eq i64 %20, 0
  %26 = or i1 %25, %24
  br i1 %26, label %39, label %27

27:                                               ; preds = %19
  %28 = inttoptr i64 %20 to %"struct.google::protobuf::internal::InternalMetadata::Container"*
  %29 = getelementptr inbounds %"struct.google::protobuf::internal::InternalMetadata::Container", %"struct.google::protobuf::internal::InternalMetadata::Container"* %28, i64 0, i32 1
  %30 = bitcast %"class.std::__1::basic_string"* %29 to %"struct.std::__1::basic_string<char, std::__1::char_traits<char>, std::__1::allocator<char> >::__short"*
  %31 = getelementptr inbounds %"struct.std::__1::basic_string<char, std::__1::char_traits<char>, std::__1::allocator<char> >::__short", %"struct.std::__1::basic_string<char, std::__1::char_traits<char>, std::__1::allocator<char> >::__short"* %30, i64 0, i32 1, i32 0
  %32 = load i8, i8* %31, align 1
  %33 = icmp slt i8 %32, 0
  br i1 %33, label %34, label %37

34:                                               ; preds = %27
  %35 = getelementptr inbounds %"class.std::__1::basic_string", %"class.std::__1::basic_string"* %29, i64 0, i32 0, i32 0, i32 0, i32 0, i32 0, i32 0
  %36 = load i8*, i8** %35, align 8
  tail call void @_ZdlPv(i8* %36) #16
  br label %37

37:                                               ; preds = %34, %27
  %38 = inttoptr i64 %20 to i8*
  tail call void @_ZdlPv(i8* %38) #16
  br label %39

39:                                               ; preds = %13, %19, %37
  ret void
}

; Function Attrs: nounwind ssp uwtable
define hidden void @_ZN18optimization_guide5proto15Ensemble_MemberD0Ev(%"class.optimization_guide::proto::Ensemble_Member"*) unnamed_addr #0 align 2 {
  %2 = getelementptr inbounds %"class.optimization_guide::proto::Ensemble_Member", %"class.optimization_guide::proto::Ensemble_Member"* %0, i64 0, i32 0, i32 0
  store i32 (...)** bitcast (i8** getelementptr inbounds ({ [16 x i8*] }, { [16 x i8*] }* @_ZTVN18optimization_guide5proto15Ensemble_MemberE, i64 0, inrange i32 0, i64 2) to i32 (...)**), i32 (...)*** %2, align 8
  %3 = icmp eq %"class.optimization_guide::proto::Ensemble_Member"* %0, bitcast (%"class.optimization_guide::proto::Ensemble_MemberDefaultTypeInternal"* @_ZN18optimization_guide5proto34_Ensemble_Member_default_instance_E to %"class.optimization_guide::proto::Ensemble_Member"*)
  br i1 %3, label %13, label %4

4:                                                ; preds = %1
  %5 = getelementptr inbounds %"class.optimization_guide::proto::Ensemble_Member", %"class.optimization_guide::proto::Ensemble_Member"* %0, i64 0, i32 3
  %6 = load %"class.optimization_guide::proto::Model"*, %"class.optimization_guide::proto::Model"** %5, align 8
  %7 = icmp eq %"class.optimization_guide::proto::Model"* %6, null
  br i1 %7, label %13, label %8

8:                                                ; preds = %4
  %9 = bitcast %"class.optimization_guide::proto::Model"* %6 to void (%"class.optimization_guide::proto::Model"*)***
  %10 = load void (%"class.optimization_guide::proto::Model"*)**, void (%"class.optimization_guide::proto::Model"*)*** %9, align 8
  %11 = getelementptr inbounds void (%"class.optimization_guide::proto::Model"*)*, void (%"class.optimization_guide::proto::Model"*)** %10, i64 1
  %12 = load void (%"class.optimization_guide::proto::Model"*)*, void (%"class.optimization_guide::proto::Model"*)** %11, align 8
  tail call void %12(%"class.optimization_guide::proto::Model"* nonnull %6) #13
  br label %13

13:                                               ; preds = %8, %4, %1
  %14 = getelementptr inbounds %"class.optimization_guide::proto::Ensemble_Member", %"class.optimization_guide::proto::Ensemble_Member"* %0, i64 0, i32 0, i32 1
  %15 = bitcast %"class.google::protobuf::internal::InternalMetadata"* %14 to i64*
  %16 = load i64, i64* %15, align 8
  %17 = and i64 %16, 1
  %18 = icmp eq i64 %17, 0
  br i1 %18, label %39, label %19

19:                                               ; preds = %13
  %20 = and i64 %16, -2
  %21 = inttoptr i64 %20 to %"struct.google::protobuf::internal::InternalMetadata::ContainerBase"*
  %22 = getelementptr inbounds %"struct.google::protobuf::internal::InternalMetadata::ContainerBase", %"struct.google::protobuf::internal::InternalMetadata::ContainerBase"* %21, i64 0, i32 0
  %23 = load %"class.google::protobuf::Arena"*, %"class.google::protobuf::Arena"** %22, align 8
  %24 = icmp ne %"class.google::protobuf::Arena"* %23, null
  %25 = icmp eq i64 %20, 0
  %26 = or i1 %25, %24
  br i1 %26, label %39, label %27

27:                                               ; preds = %19
  %28 = inttoptr i64 %20 to %"struct.google::protobuf::internal::InternalMetadata::Container"*
  %29 = getelementptr inbounds %"struct.google::protobuf::internal::InternalMetadata::Container", %"struct.google::protobuf::internal::InternalMetadata::Container"* %28, i64 0, i32 1
  %30 = bitcast %"class.std::__1::basic_string"* %29 to %"struct.std::__1::basic_string<char, std::__1::char_traits<char>, std::__1::allocator<char> >::__short"*
  %31 = getelementptr inbounds %"struct.std::__1::basic_string<char, std::__1::char_traits<char>, std::__1::allocator<char> >::__short", %"struct.std::__1::basic_string<char, std::__1::char_traits<char>, std::__1::allocator<char> >::__short"* %30, i64 0, i32 1, i32 0
  %32 = load i8, i8* %31, align 1
  %33 = icmp slt i8 %32, 0
  br i1 %33, label %34, label %37

34:                                               ; preds = %27
  %35 = getelementptr inbounds %"class.std::__1::basic_string", %"class.std::__1::basic_string"* %29, i64 0, i32 0, i32 0, i32 0, i32 0, i32 0, i32 0
  %36 = load i8*, i8** %35, align 8
  tail call void @_ZdlPv(i8* %36) #16
  br label %37

37:                                               ; preds = %34, %27
  %38 = inttoptr i64 %20 to i8*
  tail call void @_ZdlPv(i8* %38) #16
  br label %39

39:                                               ; preds = %13, %19, %37
  %40 = bitcast %"class.optimization_guide::proto::Ensemble_Member"* %0 to i8*
  tail call void @_ZdlPv(i8* %40) #16
  ret void
}

; Function Attrs: norecurse nounwind readnone ssp uwtable
define hidden void @_ZN18optimization_guide5proto15Ensemble_Member9ArenaDtorEPv(i8* nocapture) local_unnamed_addr #1 align 2 {
  ret void
}

; Function Attrs: nofree norecurse nounwind ssp uwtable
define hidden void @_ZNK18optimization_guide5proto15Ensemble_Member13SetCachedSizeEi(%"class.optimization_guide::proto::Ensemble_Member"* nocapture, i32) local_unnamed_addr #8 align 2 {
  %3 = getelementptr inbounds %"class.optimization_guide::proto::Ensemble_Member", %"class.optimization_guide::proto::Ensemble_Member"* %0, i64 0, i32 2, i32 0, i32 0, i32 0, i32 0, i32 0, i32 0
  store atomic i32 %1, i32* %3 monotonic, align 4
  ret void
}

; Function Attrs: nounwind ssp uwtable
define hidden dereferenceable(32) %"class.optimization_guide::proto::Ensemble_Member"* @_ZN18optimization_guide5proto15Ensemble_Member16default_instanceEv() local_unnamed_addr #0 align 2 {
  %1 = load atomic i32, i32* getelementptr inbounds ({ { { { i32 } }, i32, i32, void ()* }, [2 x i8*] }, { { { { i32 } }, i32, i32, void ()* }, [2 x i8*] }* @scc_info_Ensemble_components_2foptimization_5fguide_2fproto_2fmodels_2eproto, i64 0, i32 0, i32 0, i32 0, i32 0) acquire, align 8
  %2 = icmp eq i32 %1, 0
  br i1 %2, label %4, label %3, !prof !2

3:                                                ; preds = %0
  tail call void @_ZN6google8protobuf8internal11InitSCCImplEPNS1_11SCCInfoBaseE(%"struct.google::protobuf::internal::SCCInfoBase"* bitcast ({ { { { i32 } }, i32, i32, void ()* }, [2 x i8*] }* @scc_info_Ensemble_components_2foptimization_5fguide_2fproto_2fmodels_2eproto to %"struct.google::protobuf::internal::SCCInfoBase"*)) #13
  br label %4

4:                                                ; preds = %0, %3
  ret %"class.optimization_guide::proto::Ensemble_Member"* bitcast (%"class.optimization_guide::proto::Ensemble_MemberDefaultTypeInternal"* @_ZN18optimization_guide5proto34_Ensemble_Member_default_instance_E to %"class.optimization_guide::proto::Ensemble_Member"*)
}

; Function Attrs: nounwind ssp uwtable
define hidden void @_ZN18optimization_guide5proto15Ensemble_Member5ClearEv(%"class.optimization_guide::proto::Ensemble_Member"* nocapture) unnamed_addr #0 align 2 {
  %2 = getelementptr inbounds %"class.optimization_guide::proto::Ensemble_Member", %"class.optimization_guide::proto::Ensemble_Member"* %0, i64 0, i32 1, i32 0, i64 0
  %3 = load i32, i32* %2, align 4
  %4 = and i32 %3, 1
  %5 = icmp eq i32 %4, 0
  br i1 %5, label %57, label %6

6:                                                ; preds = %1
  %7 = getelementptr inbounds %"class.optimization_guide::proto::Ensemble_Member", %"class.optimization_guide::proto::Ensemble_Member"* %0, i64 0, i32 3
  %8 = load %"class.optimization_guide::proto::Model"*, %"class.optimization_guide::proto::Model"** %7, align 8
  %9 = getelementptr inbounds %"class.optimization_guide::proto::Model", %"class.optimization_guide::proto::Model"* %8, i64 0, i32 1, i32 0, i64 0
  %10 = load i32, i32* %9, align 4
  %11 = and i32 %10, 1
  %12 = icmp eq i32 %11, 0
  br i1 %12, label %37, label %13

13:                                               ; preds = %6
  %14 = getelementptr inbounds %"class.optimization_guide::proto::Model", %"class.optimization_guide::proto::Model"* %8, i64 0, i32 3
  %15 = load %"class.optimization_guide::proto::DoubleValue"*, %"class.optimization_guide::proto::DoubleValue"** %14, align 8
  %16 = getelementptr inbounds %"class.optimization_guide::proto::DoubleValue", %"class.optimization_guide::proto::DoubleValue"* %15, i64 0, i32 3
  store double 0.000000e+00, double* %16, align 8
  %17 = getelementptr inbounds %"class.optimization_guide::proto::DoubleValue", %"class.optimization_guide::proto::DoubleValue"* %15, i64 0, i32 1, i32 0, i64 0
  store i32 0, i32* %17, align 4
  %18 = getelementptr inbounds %"class.optimization_guide::proto::DoubleValue", %"class.optimization_guide::proto::DoubleValue"* %15, i64 0, i32 0, i32 1
  %19 = bitcast %"class.google::protobuf::internal::InternalMetadata"* %18 to i64*
  %20 = load i64, i64* %19, align 8
  %21 = and i64 %20, 1
  %22 = icmp eq i64 %21, 0
  br i1 %22, label %37, label %23

23:                                               ; preds = %13
  %24 = and i64 %20, -2
  %25 = inttoptr i64 %24 to %"struct.google::protobuf::internal::InternalMetadata::Container"*
  %26 = getelementptr inbounds %"struct.google::protobuf::internal::InternalMetadata::Container", %"struct.google::protobuf::internal::InternalMetadata::Container"* %25, i64 0, i32 1
  %27 = bitcast %"class.std::__1::basic_string"* %26 to %"struct.std::__1::basic_string<char, std::__1::char_traits<char>, std::__1::allocator<char> >::__short"*
  %28 = getelementptr inbounds %"struct.std::__1::basic_string<char, std::__1::char_traits<char>, std::__1::allocator<char> >::__short", %"struct.std::__1::basic_string<char, std::__1::char_traits<char>, std::__1::allocator<char> >::__short"* %27, i64 0, i32 1, i32 0
  %29 = load i8, i8* %28, align 1
  %30 = icmp slt i8 %29, 0
  br i1 %30, label %31, label %35

31:                                               ; preds = %23
  %32 = getelementptr inbounds %"class.std::__1::basic_string", %"class.std::__1::basic_string"* %26, i64 0, i32 0, i32 0, i32 0, i32 0, i32 0, i32 0
  %33 = load i8*, i8** %32, align 8
  store i8 0, i8* %33, align 1
  %34 = getelementptr inbounds %"struct.google::protobuf::internal::InternalMetadata::Container", %"struct.google::protobuf::internal::InternalMetadata::Container"* %25, i64 0, i32 1, i32 0, i32 0, i32 0, i32 0, i32 0, i32 1
  store i64 0, i64* %34, align 8
  br label %37

35:                                               ; preds = %23
  %36 = bitcast %"class.std::__1::basic_string"* %26 to i8*
  store i8 0, i8* %36, align 2
  store i8 0, i8* %28, align 1
  br label %37

37:                                               ; preds = %35, %31, %13, %6
  tail call void @_ZN18optimization_guide5proto5Model11clear_modelEv(%"class.optimization_guide::proto::Model"* %8) #13
  store i32 0, i32* %9, align 4
  %38 = getelementptr inbounds %"class.optimization_guide::proto::Model", %"class.optimization_guide::proto::Model"* %8, i64 0, i32 0, i32 1
  %39 = bitcast %"class.google::protobuf::internal::InternalMetadata"* %38 to i64*
  %40 = load i64, i64* %39, align 8
  %41 = and i64 %40, 1
  %42 = icmp eq i64 %41, 0
  br i1 %42, label %57, label %43

43:                                               ; preds = %37
  %44 = and i64 %40, -2
  %45 = inttoptr i64 %44 to %"struct.google::protobuf::internal::InternalMetadata::Container"*
  %46 = getelementptr inbounds %"struct.google::protobuf::internal::InternalMetadata::Container", %"struct.google::protobuf::internal::InternalMetadata::Container"* %45, i64 0, i32 1
  %47 = bitcast %"class.std::__1::basic_string"* %46 to %"struct.std::__1::basic_string<char, std::__1::char_traits<char>, std::__1::allocator<char> >::__short"*
  %48 = getelementptr inbounds %"struct.std::__1::basic_string<char, std::__1::char_traits<char>, std::__1::allocator<char> >::__short", %"struct.std::__1::basic_string<char, std::__1::char_traits<char>, std::__1::allocator<char> >::__short"* %47, i64 0, i32 1, i32 0
  %49 = load i8, i8* %48, align 1
  %50 = icmp slt i8 %49, 0
  br i1 %50, label %51, label %55

51:                                               ; preds = %43
  %52 = getelementptr inbounds %"class.std::__1::basic_string", %"class.std::__1::basic_string"* %46, i64 0, i32 0, i32 0, i32 0, i32 0, i32 0, i32 0
  %53 = load i8*, i8** %52, align 8
  store i8 0, i8* %53, align 1
  %54 = getelementptr inbounds %"struct.google::protobuf::internal::InternalMetadata::Container", %"struct.google::protobuf::internal::InternalMetadata::Container"* %45, i64 0, i32 1, i32 0, i32 0, i32 0, i32 0, i32 0, i32 1
  store i64 0, i64* %54, align 8
  br label %57

55:                                               ; preds = %43
  %56 = bitcast %"class.std::__1::basic_string"* %46 to i8*
  store i8 0, i8* %56, align 2
  store i8 0, i8* %48, align 1
  br label %57

57:                                               ; preds = %55, %51, %37, %1
  store i32 0, i32* %2, align 4
  %58 = getelementptr inbounds %"class.optimization_guide::proto::Ensemble_Member", %"class.optimization_guide::proto::Ensemble_Member"* %0, i64 0, i32 0, i32 1
  %59 = bitcast %"class.google::protobuf::internal::InternalMetadata"* %58 to i64*
  %60 = load i64, i64* %59, align 8
  %61 = and i64 %60, 1
  %62 = icmp eq i64 %61, 0
  br i1 %62, label %77, label %63

63:                                               ; preds = %57
  %64 = and i64 %60, -2
  %65 = inttoptr i64 %64 to %"struct.google::protobuf::internal::InternalMetadata::Container"*
  %66 = getelementptr inbounds %"struct.google::protobuf::internal::InternalMetadata::Container", %"struct.google::protobuf::internal::InternalMetadata::Container"* %65, i64 0, i32 1
  %67 = bitcast %"class.std::__1::basic_string"* %66 to %"struct.std::__1::basic_string<char, std::__1::char_traits<char>, std::__1::allocator<char> >::__short"*
  %68 = getelementptr inbounds %"struct.std::__1::basic_string<char, std::__1::char_traits<char>, std::__1::allocator<char> >::__short", %"struct.std::__1::basic_string<char, std::__1::char_traits<char>, std::__1::allocator<char> >::__short"* %67, i64 0, i32 1, i32 0
  %69 = load i8, i8* %68, align 1
  %70 = icmp slt i8 %69, 0
  br i1 %70, label %71, label %75

71:                                               ; preds = %63
  %72 = getelementptr inbounds %"class.std::__1::basic_string", %"class.std::__1::basic_string"* %66, i64 0, i32 0, i32 0, i32 0, i32 0, i32 0, i32 0
  %73 = load i8*, i8** %72, align 8
  store i8 0, i8* %73, align 1
  %74 = getelementptr inbounds %"struct.google::protobuf::internal::InternalMetadata::Container", %"struct.google::protobuf::internal::InternalMetadata::Container"* %65, i64 0, i32 1, i32 0, i32 0, i32 0, i32 0, i32 0, i32 1
  store i64 0, i64* %74, align 8
  br label %77

75:                                               ; preds = %63
  %76 = bitcast %"class.std::__1::basic_string"* %66 to i8*
  store i8 0, i8* %76, align 2
  store i8 0, i8* %68, align 1
  br label %77

77:                                               ; preds = %57, %71, %75
  ret void
}

; Function Attrs: nounwind ssp uwtable
define hidden i8* @_ZN18optimization_guide5proto15Ensemble_Member14_InternalParseEPKcPN6google8protobuf8internal12ParseContextE(%"class.optimization_guide::proto::Ensemble_Member"*, i8*, %"class.google::protobuf::internal::ParseContext"*) unnamed_addr #0 align 2 {
  %4 = getelementptr inbounds %"class.google::protobuf::internal::ParseContext", %"class.google::protobuf::internal::ParseContext"* %2, i64 0, i32 0
  %5 = getelementptr inbounds %"class.google::protobuf::internal::ParseContext", %"class.google::protobuf::internal::ParseContext"* %2, i64 0, i32 2
  %6 = getelementptr inbounds %"class.google::protobuf::internal::ParseContext", %"class.google::protobuf::internal::ParseContext"* %2, i64 0, i32 0, i32 0
  %7 = getelementptr inbounds %"class.google::protobuf::internal::ParseContext", %"class.google::protobuf::internal::ParseContext"* %2, i64 0, i32 0, i32 1
  %8 = bitcast i8** %7 to i64*
  %9 = getelementptr inbounds %"class.google::protobuf::internal::ParseContext", %"class.google::protobuf::internal::ParseContext"* %2, i64 0, i32 0, i32 4
  %10 = getelementptr inbounds %"class.optimization_guide::proto::Ensemble_Member", %"class.optimization_guide::proto::Ensemble_Member"* %0, i64 0, i32 0, i32 1
  %11 = bitcast %"class.google::protobuf::internal::InternalMetadata"* %10 to i64*
  %12 = getelementptr inbounds %"class.optimization_guide::proto::Ensemble_Member", %"class.optimization_guide::proto::Ensemble_Member"* %0, i64 0, i32 1, i32 0, i64 0
  %13 = getelementptr inbounds %"class.optimization_guide::proto::Ensemble_Member", %"class.optimization_guide::proto::Ensemble_Member"* %0, i64 0, i32 3
  br label %14

14:                                               ; preds = %102, %3
  %15 = phi i8* [ %1, %3 ], [ %103, %102 ]
  %16 = load i32, i32* %5, align 4
  %17 = load i8*, i8** %6, align 8
  %18 = icmp ult i8* %15, %17
  br i1 %18, label %32, label %19, !prof !2

19:                                               ; preds = %14
  %20 = load i64, i64* %8, align 8
  %21 = ptrtoint i8* %15 to i64
  %22 = sub i64 %21, %20
  %23 = load i32, i32* %9, align 4
  %24 = sext i32 %23 to i64
  %25 = icmp eq i64 %22, %24
  br i1 %25, label %104, label %26

26:                                               ; preds = %19
  %27 = tail call { i8*, i8 } @_ZN6google8protobuf8internal18EpsCopyInputStream12DoneFallbackEPKci(%"class.google::protobuf::internal::EpsCopyInputStream"* %4, i8* %15, i32 %16) #13
  %28 = extractvalue { i8*, i8 } %27, 0
  %29 = extractvalue { i8*, i8 } %27, 1
  %30 = and i8 %29, 1
  %31 = icmp eq i8 %30, 0
  br i1 %31, label %32, label %104

32:                                               ; preds = %26, %14
  %33 = phi i8* [ %28, %26 ], [ %15, %14 ]
  %34 = load i8, i8* %33, align 1
  %35 = zext i8 %34 to i32
  %36 = icmp sgt i8 %34, -1
  %37 = getelementptr inbounds i8, i8* %33, i64 1
  br i1 %36, label %51, label %38

38:                                               ; preds = %32
  %39 = load i8, i8* %37, align 1
  %40 = zext i8 %39 to i32
  %41 = shl nuw nsw i32 %40, 7
  %42 = add nsw i32 %35, -128
  %43 = add nsw i32 %42, %41
  %44 = icmp sgt i8 %39, -1
  br i1 %44, label %45, label %47

45:                                               ; preds = %38
  %46 = getelementptr inbounds i8, i8* %33, i64 2
  br label %51

47:                                               ; preds = %38
  %48 = tail call { i8*, i32 } @_ZN6google8protobuf8internal15ReadTagFallbackEPKcj(i8* %33, i32 %43) #13
  %49 = extractvalue { i8*, i32 } %48, 0
  %50 = extractvalue { i8*, i32 } %48, 1
  br label %51

51:                                               ; preds = %32, %45, %47
  %52 = phi i32 [ %43, %45 ], [ %50, %47 ], [ %35, %32 ]
  %53 = phi i8* [ %46, %45 ], [ %49, %47 ], [ %37, %32 ]
  %54 = icmp eq i8* %53, null
  br i1 %54, label %104, label %55, !prof !5

55:                                               ; preds = %51
  %56 = icmp eq i32 %52, 10
  br i1 %56, label %57, label %80, !prof !7

57:                                               ; preds = %55
  %58 = load i32, i32* %12, align 4
  %59 = or i32 %58, 1
  store i32 %59, i32* %12, align 4
  %60 = load %"class.optimization_guide::proto::Model"*, %"class.optimization_guide::proto::Model"** %13, align 8
  %61 = icmp eq %"class.optimization_guide::proto::Model"* %60, null
  br i1 %61, label %62, label %76

62:                                               ; preds = %57
  %63 = load i64, i64* %11, align 8
  %64 = and i64 %63, 1
  %65 = icmp eq i64 %64, 0
  %66 = and i64 %63, -2
  br i1 %65, label %71, label %67, !prof !2

67:                                               ; preds = %62
  %68 = inttoptr i64 %66 to %"struct.google::protobuf::internal::InternalMetadata::ContainerBase"*
  %69 = getelementptr inbounds %"struct.google::protobuf::internal::InternalMetadata::ContainerBase", %"struct.google::protobuf::internal::InternalMetadata::ContainerBase"* %68, i64 0, i32 0
  %70 = load %"class.google::protobuf::Arena"*, %"class.google::protobuf::Arena"** %69, align 8
  br label %73

71:                                               ; preds = %62
  %72 = inttoptr i64 %66 to %"class.google::protobuf::Arena"*
  br label %73

73:                                               ; preds = %71, %67
  %74 = phi %"class.google::protobuf::Arena"* [ %70, %67 ], [ %72, %71 ]
  %75 = tail call %"class.optimization_guide::proto::Model"* @_ZN6google8protobuf5Arena18CreateMaybeMessageIN18optimization_guide5proto5ModelEJEEEPT_PS1_DpOT0_(%"class.google::protobuf::Arena"* %74) #13
  store %"class.optimization_guide::proto::Model"* %75, %"class.optimization_guide::proto::Model"** %13, align 8
  br label %76

76:                                               ; preds = %57, %73
  %77 = phi %"class.optimization_guide::proto::Model"* [ %75, %73 ], [ %60, %57 ]
  %78 = tail call i8* @_ZN6google8protobuf8internal12ParseContext12ParseMessageIN18optimization_guide5proto5ModelEEEPKcPT_S8_(%"class.google::protobuf::internal::ParseContext"* %2, %"class.optimization_guide::proto::Model"* %77, i8* nonnull %53)
  %79 = icmp eq i8* %78, null
  br i1 %79, label %104, label %102

80:                                               ; preds = %55
  %81 = and i32 %52, 7
  %82 = icmp eq i32 %81, 4
  %83 = icmp eq i32 %52, 0
  %84 = or i1 %83, %82
  br i1 %84, label %85, label %88

85:                                               ; preds = %80
  %86 = add i32 %52, -1
  %87 = getelementptr inbounds %"class.google::protobuf::internal::ParseContext", %"class.google::protobuf::internal::ParseContext"* %2, i64 0, i32 0, i32 8
  store i32 %86, i32* %87, align 8
  br label %104

88:                                               ; preds = %80
  %89 = load i64, i64* %11, align 8
  %90 = and i64 %89, 1
  %91 = icmp eq i64 %90, 0
  br i1 %91, label %96, label %92, !prof !5

92:                                               ; preds = %88
  %93 = and i64 %89, -2
  %94 = inttoptr i64 %93 to %"struct.google::protobuf::internal::InternalMetadata::Container"*
  %95 = getelementptr inbounds %"struct.google::protobuf::internal::InternalMetadata::Container", %"struct.google::protobuf::internal::InternalMetadata::Container"* %94, i64 0, i32 1
  br label %98

96:                                               ; preds = %88
  %97 = tail call %"class.std::__1::basic_string"* @_ZN6google8protobuf8internal16InternalMetadata27mutable_unknown_fields_slowINSt3__112basic_stringIcNS4_11char_traitsIcEENS4_9allocatorIcEEEEEEPT_v(%"class.google::protobuf::internal::InternalMetadata"* %10) #13
  br label %98

98:                                               ; preds = %92, %96
  %99 = phi %"class.std::__1::basic_string"* [ %95, %92 ], [ %97, %96 ]
  %100 = tail call i8* @_ZN6google8protobuf8internal17UnknownFieldParseEjPNSt3__112basic_stringIcNS2_11char_traitsIcEENS2_9allocatorIcEEEEPKcPNS1_12ParseContextE(i32 %52, %"class.std::__1::basic_string"* %99, i8* nonnull %53, %"class.google::protobuf::internal::ParseContext"* %2) #13
  %101 = icmp eq i8* %100, null
  br i1 %101, label %104, label %102

102:                                              ; preds = %98, %76
  %103 = phi i8* [ %78, %76 ], [ %100, %98 ]
  br label %14

104:                                              ; preds = %26, %98, %76, %19, %51, %85
  %105 = phi i8* [ %53, %85 ], [ null, %98 ], [ null, %76 ], [ %15, %19 ], [ null, %51 ], [ %28, %26 ]
  ret i8* %105
}

; Function Attrs: nounwind ssp uwtable
define linkonce_odr hidden i8* @_ZN6google8protobuf8internal12ParseContext12ParseMessageIN18optimization_guide5proto5ModelEEEPKcPT_S8_(%"class.google::protobuf::internal::ParseContext"*, %"class.optimization_guide::proto::Model"*, i8*) local_unnamed_addr #0 comdat align 2 {
  %4 = load i8, i8* %2, align 1
  %5 = zext i8 %4 to i32
  %6 = icmp sgt i8 %4, -1
  br i1 %6, label %7, label %9

7:                                                ; preds = %3
  %8 = getelementptr inbounds i8, i8* %2, i64 1
  br label %13

9:                                                ; preds = %3
  %10 = tail call { i8*, i32 } @_ZN6google8protobuf8internal16ReadSizeFallbackEPKcj(i8* %2, i32 %5) #13
  %11 = extractvalue { i8*, i32 } %10, 0
  %12 = extractvalue { i8*, i32 } %10, 1
  br label %13

13:                                               ; preds = %7, %9
  %14 = phi i8* [ %11, %9 ], [ %8, %7 ]
  %15 = phi i32 [ %12, %9 ], [ %5, %7 ]
  %16 = icmp eq i8* %14, null
  br i1 %16, label %55, label %17

17:                                               ; preds = %13
  %18 = getelementptr inbounds %"class.google::protobuf::internal::ParseContext", %"class.google::protobuf::internal::ParseContext"* %0, i64 0, i32 0, i32 1
  %19 = bitcast i8** %18 to i64*
  %20 = load i64, i64* %19, align 8
  %21 = ptrtoint i8* %14 to i64
  %22 = sub i64 %21, %20
  %23 = trunc i64 %22 to i32
  %24 = add nsw i32 %15, %23
  %25 = inttoptr i64 %20 to i8*
  %26 = icmp slt i32 %24, 0
  %27 = select i1 %26, i32 %24, i32 0
  %28 = sext i32 %27 to i64
  %29 = getelementptr inbounds i8, i8* %25, i64 %28
  %30 = getelementptr inbounds %"class.google::protobuf::internal::ParseContext", %"class.google::protobuf::internal::ParseContext"* %0, i64 0, i32 0, i32 0
  store i8* %29, i8** %30, align 8
  %31 = getelementptr inbounds %"class.google::protobuf::internal::ParseContext", %"class.google::protobuf::internal::ParseContext"* %0, i64 0, i32 0, i32 4
  %32 = load i32, i32* %31, align 4
  store i32 %24, i32* %31, align 4
  %33 = sub nsw i32 %32, %24
  %34 = getelementptr inbounds %"class.google::protobuf::internal::ParseContext", %"class.google::protobuf::internal::ParseContext"* %0, i64 0, i32 1
  %35 = load i32, i32* %34, align 8
  %36 = add nsw i32 %35, -1
  store i32 %36, i32* %34, align 8
  %37 = icmp slt i32 %35, 1
  br i1 %37, label %55, label %38

38:                                               ; preds = %17
  %39 = tail call i8* @_ZN18optimization_guide5proto5Model14_InternalParseEPKcPN6google8protobuf8internal12ParseContextE(%"class.optimization_guide::proto::Model"* %1, i8* nonnull %14, %"class.google::protobuf::internal::ParseContext"* %0)
  %40 = icmp eq i8* %39, null
  br i1 %40, label %55, label %41, !prof !5

41:                                               ; preds = %38
  %42 = load i32, i32* %34, align 8
  %43 = add nsw i32 %42, 1
  store i32 %43, i32* %34, align 8
  %44 = getelementptr inbounds %"class.google::protobuf::internal::ParseContext", %"class.google::protobuf::internal::ParseContext"* %0, i64 0, i32 0, i32 8
  %45 = load i32, i32* %44, align 8
  %46 = icmp eq i32 %45, 0
  br i1 %46, label %47, label %55, !prof !2

47:                                               ; preds = %41
  %48 = load i32, i32* %31, align 4
  %49 = add nsw i32 %48, %33
  store i32 %49, i32* %31, align 4
  %50 = load i8*, i8** %18, align 8
  %51 = icmp slt i32 %49, 0
  %52 = select i1 %51, i32 %49, i32 0
  %53 = sext i32 %52 to i64
  %54 = getelementptr inbounds i8, i8* %50, i64 %53
  store i8* %54, i8** %30, align 8
  br label %55

55:                                               ; preds = %13, %38, %17, %41, %47
  %56 = phi i8* [ %39, %47 ], [ null, %41 ], [ null, %17 ], [ null, %38 ], [ null, %13 ]
  ret i8* %56
}

; Function Attrs: nounwind ssp uwtable
define hidden i8* @_ZNK18optimization_guide5proto15Ensemble_Member18_InternalSerializeEPhPN6google8protobuf2io19EpsCopyOutputStreamE(%"class.optimization_guide::proto::Ensemble_Member"* nocapture readonly, i8*, %"class.google::protobuf::io::EpsCopyOutputStream"*) unnamed_addr #0 align 2 {
  %4 = getelementptr inbounds %"class.optimization_guide::proto::Ensemble_Member", %"class.optimization_guide::proto::Ensemble_Member"* %0, i64 0, i32 1, i32 0, i64 0
  %5 = load i32, i32* %4, align 4
  %6 = and i32 %5, 1
  %7 = icmp eq i32 %6, 0
  br i1 %7, label %49, label %8

8:                                                ; preds = %3
  %9 = getelementptr inbounds %"class.google::protobuf::io::EpsCopyOutputStream", %"class.google::protobuf::io::EpsCopyOutputStream"* %2, i64 0, i32 0
  %10 = load i8*, i8** %9, align 8
  %11 = icmp ugt i8* %10, %1
  br i1 %11, label %14, label %12, !prof !2

12:                                               ; preds = %8
  %13 = tail call i8* @_ZN6google8protobuf2io19EpsCopyOutputStream19EnsureSpaceFallbackEPh(%"class.google::protobuf::io::EpsCopyOutputStream"* %2, i8* %1) #13
  br label %14

14:                                               ; preds = %8, %12
  %15 = phi i8* [ %13, %12 ], [ %1, %8 ]
  %16 = getelementptr inbounds %"class.optimization_guide::proto::Ensemble_Member", %"class.optimization_guide::proto::Ensemble_Member"* %0, i64 0, i32 3
  %17 = load %"class.optimization_guide::proto::Model"*, %"class.optimization_guide::proto::Model"** %16, align 8
  store i8 10, i8* %15, align 1
  %18 = getelementptr inbounds i8, i8* %15, i64 1
  %19 = getelementptr inbounds %"class.optimization_guide::proto::Model", %"class.optimization_guide::proto::Model"* %17, i64 0, i32 2, i32 0, i32 0, i32 0, i32 0, i32 0, i32 0
  %20 = load atomic i32, i32* %19 monotonic, align 4
  %21 = icmp ult i32 %20, 128
  %22 = trunc i32 %20 to i8
  br i1 %21, label %23, label %25

23:                                               ; preds = %14
  store i8 %22, i8* %18, align 1
  %24 = getelementptr inbounds i8, i8* %15, i64 2
  br label %46

25:                                               ; preds = %14
  %26 = or i8 %22, -128
  store i8 %26, i8* %18, align 1
  %27 = lshr i32 %20, 7
  %28 = icmp ult i32 %20, 16384
  br i1 %28, label %29, label %33

29:                                               ; preds = %25
  %30 = trunc i32 %27 to i8
  %31 = getelementptr inbounds i8, i8* %15, i64 2
  store i8 %30, i8* %31, align 1
  %32 = getelementptr inbounds i8, i8* %15, i64 3
  br label %46

33:                                               ; preds = %25
  %34 = getelementptr inbounds i8, i8* %15, i64 2
  br label %35

35:                                               ; preds = %35, %33
  %36 = phi i32 [ %27, %33 ], [ %40, %35 ]
  %37 = phi i8* [ %34, %33 ], [ %41, %35 ]
  %38 = trunc i32 %36 to i8
  %39 = or i8 %38, -128
  store i8 %39, i8* %37, align 1
  %40 = lshr i32 %36, 7
  %41 = getelementptr inbounds i8, i8* %37, i64 1
  %42 = icmp ugt i32 %36, 16383
  br i1 %42, label %35, label %43, !prof !5

43:                                               ; preds = %35
  %44 = trunc i32 %40 to i8
  %45 = getelementptr inbounds i8, i8* %37, i64 2
  store i8 %44, i8* %41, align 1
  br label %46

46:                                               ; preds = %23, %29, %43
  %47 = phi i8* [ %24, %23 ], [ %32, %29 ], [ %45, %43 ]
  %48 = tail call i8* @_ZNK18optimization_guide5proto5Model18_InternalSerializeEPhPN6google8protobuf2io19EpsCopyOutputStreamE(%"class.optimization_guide::proto::Model"* %17, i8* %47, %"class.google::protobuf::io::EpsCopyOutputStream"* %2) #13
  br label %49

49:                                               ; preds = %3, %46
  %50 = phi i8* [ %48, %46 ], [ %1, %3 ]
  %51 = getelementptr inbounds %"class.optimization_guide::proto::Ensemble_Member", %"class.optimization_guide::proto::Ensemble_Member"* %0, i64 0, i32 0, i32 1
  %52 = bitcast %"class.google::protobuf::internal::InternalMetadata"* %51 to i64*
  %53 = load i64, i64* %52, align 8
  %54 = and i64 %53, 1
  %55 = icmp eq i64 %54, 0
  br i1 %55, label %87, label %56, !prof !2

56:                                               ; preds = %49
  %57 = and i64 %53, -2
  %58 = inttoptr i64 %57 to %"struct.google::protobuf::internal::InternalMetadata::Container"*
  %59 = getelementptr inbounds %"struct.google::protobuf::internal::InternalMetadata::Container", %"struct.google::protobuf::internal::InternalMetadata::Container"* %58, i64 0, i32 1
  %60 = bitcast %"class.std::__1::basic_string"* %59 to %"struct.std::__1::basic_string<char, std::__1::char_traits<char>, std::__1::allocator<char> >::__short"*
  %61 = getelementptr inbounds %"struct.std::__1::basic_string<char, std::__1::char_traits<char>, std::__1::allocator<char> >::__short", %"struct.std::__1::basic_string<char, std::__1::char_traits<char>, std::__1::allocator<char> >::__short"* %60, i64 0, i32 1, i32 0
  %62 = load i8, i8* %61, align 1
  %63 = icmp slt i8 %62, 0
  br i1 %63, label %64, label %69

64:                                               ; preds = %56
  %65 = getelementptr inbounds %"class.std::__1::basic_string", %"class.std::__1::basic_string"* %59, i64 0, i32 0, i32 0, i32 0, i32 0, i32 0, i32 0
  %66 = load i8*, i8** %65, align 8
  %67 = getelementptr inbounds %"struct.google::protobuf::internal::InternalMetadata::Container", %"struct.google::protobuf::internal::InternalMetadata::Container"* %58, i64 0, i32 1, i32 0, i32 0, i32 0, i32 0, i32 0, i32 1
  %68 = load i64, i64* %67, align 8
  br label %72

69:                                               ; preds = %56
  %70 = bitcast %"class.std::__1::basic_string"* %59 to i8*
  %71 = zext i8 %62 to i64
  br label %72

72:                                               ; preds = %64, %69
  %73 = phi i8* [ %66, %64 ], [ %70, %69 ]
  %74 = phi i64 [ %68, %64 ], [ %71, %69 ]
  %75 = bitcast %"class.google::protobuf::io::EpsCopyOutputStream"* %2 to i64*
  %76 = load i64, i64* %75, align 8
  %77 = ptrtoint i8* %50 to i64
  %78 = sub i64 %76, %77
  %79 = shl i64 %74, 32
  %80 = ashr exact i64 %79, 32
  %81 = icmp slt i64 %78, %80
  br i1 %81, label %82, label %85, !prof !5

82:                                               ; preds = %72
  %83 = trunc i64 %74 to i32
  %84 = tail call i8* @_ZN6google8protobuf2io19EpsCopyOutputStream16WriteRawFallbackEPKviPh(%"class.google::protobuf::io::EpsCopyOutputStream"* %2, i8* %73, i32 %83, i8* %50) #13
  br label %87

85:                                               ; preds = %72
  tail call void @llvm.memcpy.p0i8.p0i8.i64(i8* align 1 %50, i8* align 1 %73, i64 %80, i1 false) #13
  %86 = getelementptr inbounds i8, i8* %50, i64 %80
  br label %87

87:                                               ; preds = %49, %85, %82
  %88 = phi i8* [ %50, %49 ], [ %84, %82 ], [ %86, %85 ]
  ret i8* %88
}

; Function Attrs: nounwind ssp uwtable
define hidden i64 @_ZNK18optimization_guide5proto15Ensemble_Member12ByteSizeLongEv(%"class.optimization_guide::proto::Ensemble_Member"* nocapture) unnamed_addr #0 align 2 {
  %2 = getelementptr inbounds %"class.optimization_guide::proto::Ensemble_Member", %"class.optimization_guide::proto::Ensemble_Member"* %0, i64 0, i32 1, i32 0, i64 0
  %3 = load i32, i32* %2, align 4
  %4 = and i32 %3, 1
  %5 = icmp eq i32 %4, 0
  br i1 %5, label %20, label %6

6:                                                ; preds = %1
  %7 = getelementptr inbounds %"class.optimization_guide::proto::Ensemble_Member", %"class.optimization_guide::proto::Ensemble_Member"* %0, i64 0, i32 3
  %8 = load %"class.optimization_guide::proto::Model"*, %"class.optimization_guide::proto::Model"** %7, align 8
  %9 = tail call i64 @_ZNK18optimization_guide5proto5Model12ByteSizeLongEv(%"class.optimization_guide::proto::Model"* %8) #13
  %10 = trunc i64 %9 to i32
  %11 = or i32 %10, 1
  %12 = tail call i32 @llvm.ctlz.i32(i32 %11, i1 true) #13, !range !6
  %13 = xor i32 %12, 31
  %14 = mul nuw nsw i32 %13, 9
  %15 = add nuw nsw i32 %14, 73
  %16 = lshr i32 %15, 6
  %17 = zext i32 %16 to i64
  %18 = add i64 %9, 1
  %19 = add i64 %18, %17
  br label %20

20:                                               ; preds = %1, %6
  %21 = phi i64 [ %19, %6 ], [ 0, %1 ]
  %22 = getelementptr inbounds %"class.optimization_guide::proto::Ensemble_Member", %"class.optimization_guide::proto::Ensemble_Member"* %0, i64 0, i32 0, i32 1
  %23 = bitcast %"class.google::protobuf::internal::InternalMetadata"* %22 to i64*
  %24 = load i64, i64* %23, align 8
  %25 = and i64 %24, 1
  %26 = icmp eq i64 %25, 0
  br i1 %26, label %43, label %27, !prof !2

27:                                               ; preds = %20
  %28 = and i64 %24, -2
  %29 = inttoptr i64 %28 to %"struct.google::protobuf::internal::InternalMetadata::Container"*
  %30 = getelementptr inbounds %"struct.google::protobuf::internal::InternalMetadata::Container", %"struct.google::protobuf::internal::InternalMetadata::Container"* %29, i64 0, i32 1
  %31 = bitcast %"class.std::__1::basic_string"* %30 to %"struct.std::__1::basic_string<char, std::__1::char_traits<char>, std::__1::allocator<char> >::__short"*
  %32 = getelementptr inbounds %"struct.std::__1::basic_string<char, std::__1::char_traits<char>, std::__1::allocator<char> >::__short", %"struct.std::__1::basic_string<char, std::__1::char_traits<char>, std::__1::allocator<char> >::__short"* %31, i64 0, i32 1, i32 0
  %33 = load i8, i8* %32, align 1
  %34 = icmp slt i8 %33, 0
  br i1 %34, label %35, label %38

35:                                               ; preds = %27
  %36 = getelementptr inbounds %"struct.google::protobuf::internal::InternalMetadata::Container", %"struct.google::protobuf::internal::InternalMetadata::Container"* %29, i64 0, i32 1, i32 0, i32 0, i32 0, i32 0, i32 0, i32 1
  %37 = load i64, i64* %36, align 8
  br label %40

38:                                               ; preds = %27
  %39 = zext i8 %33 to i64
  br label %40

40:                                               ; preds = %35, %38
  %41 = phi i64 [ %37, %35 ], [ %39, %38 ]
  %42 = add i64 %41, %21
  br label %43

43:                                               ; preds = %20, %40
  %44 = phi i64 [ %42, %40 ], [ %21, %20 ]
  %45 = trunc i64 %44 to i32
  %46 = getelementptr inbounds %"class.optimization_guide::proto::Ensemble_Member", %"class.optimization_guide::proto::Ensemble_Member"* %0, i64 0, i32 2, i32 0, i32 0, i32 0, i32 0, i32 0, i32 0
  store atomic i32 %45, i32* %46 monotonic, align 4
  ret i64 %44
}

; Function Attrs: nounwind ssp uwtable
define hidden void @_ZN18optimization_guide5proto15Ensemble_Member21CheckTypeAndMergeFromERKN6google8protobuf11MessageLiteE(%"class.optimization_guide::proto::Ensemble_Member"*, %"class.google::protobuf::MessageLite"* nocapture readonly dereferenceable(16)) unnamed_addr #0 align 2 {
  %3 = bitcast %"class.google::protobuf::MessageLite"* %1 to %"class.optimization_guide::proto::Ensemble_Member"*
  tail call void @_ZN18optimization_guide5proto15Ensemble_Member9MergeFromERKS1_(%"class.optimization_guide::proto::Ensemble_Member"* %0, %"class.optimization_guide::proto::Ensemble_Member"* dereferenceable(32) %3)
  ret void
}

; Function Attrs: nounwind ssp uwtable
define hidden void @_ZN18optimization_guide5proto15Ensemble_Member9MergeFromERKS1_(%"class.optimization_guide::proto::Ensemble_Member"*, %"class.optimization_guide::proto::Ensemble_Member"* nocapture readonly dereferenceable(32)) local_unnamed_addr #0 align 2 {
  %3 = getelementptr inbounds %"class.optimization_guide::proto::Ensemble_Member", %"class.optimization_guide::proto::Ensemble_Member"* %0, i64 0, i32 0, i32 1
  %4 = getelementptr inbounds %"class.optimization_guide::proto::Ensemble_Member", %"class.optimization_guide::proto::Ensemble_Member"* %1, i64 0, i32 0, i32 1
  %5 = bitcast %"class.google::protobuf::internal::InternalMetadata"* %4 to i64*
  %6 = load i64, i64* %5, align 8
  %7 = and i64 %6, 1
  %8 = icmp eq i64 %7, 0
  br i1 %8, label %38, label %9

9:                                                ; preds = %2
  %10 = and i64 %6, -2
  %11 = inttoptr i64 %10 to %"struct.google::protobuf::internal::InternalMetadata::Container"*
  %12 = getelementptr inbounds %"struct.google::protobuf::internal::InternalMetadata::Container", %"struct.google::protobuf::internal::InternalMetadata::Container"* %11, i64 0, i32 1
  %13 = bitcast %"class.google::protobuf::internal::InternalMetadata"* %3 to i64*
  %14 = load i64, i64* %13, align 8
  %15 = and i64 %14, 1
  %16 = icmp eq i64 %15, 0
  br i1 %16, label %21, label %17, !prof !5

17:                                               ; preds = %9
  %18 = and i64 %14, -2
  %19 = inttoptr i64 %18 to %"struct.google::protobuf::internal::InternalMetadata::Container"*
  %20 = getelementptr inbounds %"struct.google::protobuf::internal::InternalMetadata::Container", %"struct.google::protobuf::internal::InternalMetadata::Container"* %19, i64 0, i32 1
  br label %23

21:                                               ; preds = %9
  %22 = tail call %"class.std::__1::basic_string"* @_ZN6google8protobuf8internal16InternalMetadata27mutable_unknown_fields_slowINSt3__112basic_stringIcNS4_11char_traitsIcEENS4_9allocatorIcEEEEEEPT_v(%"class.google::protobuf::internal::InternalMetadata"* %3) #13
  br label %23

23:                                               ; preds = %21, %17
  %24 = phi %"class.std::__1::basic_string"* [ %20, %17 ], [ %22, %21 ]
  %25 = bitcast %"class.std::__1::basic_string"* %12 to %"struct.std::__1::basic_string<char, std::__1::char_traits<char>, std::__1::allocator<char> >::__short"*
  %26 = getelementptr inbounds %"struct.std::__1::basic_string<char, std::__1::char_traits<char>, std::__1::allocator<char> >::__short", %"struct.std::__1::basic_string<char, std::__1::char_traits<char>, std::__1::allocator<char> >::__short"* %25, i64 0, i32 1, i32 0
  %27 = load i8, i8* %26, align 1
  %28 = icmp slt i8 %27, 0
  %29 = getelementptr inbounds %"class.std::__1::basic_string", %"class.std::__1::basic_string"* %12, i64 0, i32 0, i32 0, i32 0, i32 0, i32 0, i32 0
  %30 = load i8*, i8** %29, align 8
  %31 = getelementptr inbounds %"struct.google::protobuf::internal::InternalMetadata::Container", %"struct.google::protobuf::internal::InternalMetadata::Container"* %11, i64 0, i32 1, i32 0, i32 0, i32 0, i32 0, i32 0, i32 1
  %32 = load i64, i64* %31, align 8
  %33 = bitcast %"class.std::__1::basic_string"* %12 to i8*
  %34 = zext i8 %27 to i64
  %35 = select i1 %28, i8* %30, i8* %33
  %36 = select i1 %28, i64 %32, i64 %34
  %37 = tail call dereferenceable(24) %"class.std::__1::basic_string"* @_ZNSt3__112basic_stringIcNS_11char_traitsIcEENS_9allocatorIcEEE6appendEPKcm(%"class.std::__1::basic_string"* %24, i8* %35, i64 %36) #13
  br label %38

38:                                               ; preds = %2, %23
  %39 = getelementptr inbounds %"class.optimization_guide::proto::Ensemble_Member", %"class.optimization_guide::proto::Ensemble_Member"* %1, i64 0, i32 1, i32 0, i64 0
  %40 = load i32, i32* %39, align 4
  %41 = and i32 %40, 1
  %42 = icmp eq i32 %41, 0
  br i1 %42, label %73, label %43

43:                                               ; preds = %38
  %44 = getelementptr inbounds %"class.optimization_guide::proto::Ensemble_Member", %"class.optimization_guide::proto::Ensemble_Member"* %1, i64 0, i32 3
  %45 = load %"class.optimization_guide::proto::Model"*, %"class.optimization_guide::proto::Model"** %44, align 8
  %46 = icmp ne %"class.optimization_guide::proto::Model"* %45, null
  tail call void @llvm.assume(i1 %46) #13
  %47 = getelementptr inbounds %"class.optimization_guide::proto::Ensemble_Member", %"class.optimization_guide::proto::Ensemble_Member"* %0, i64 0, i32 1, i32 0, i64 0
  %48 = load i32, i32* %47, align 4
  %49 = or i32 %48, 1
  store i32 %49, i32* %47, align 4
  %50 = getelementptr inbounds %"class.optimization_guide::proto::Ensemble_Member", %"class.optimization_guide::proto::Ensemble_Member"* %0, i64 0, i32 3
  %51 = load %"class.optimization_guide::proto::Model"*, %"class.optimization_guide::proto::Model"** %50, align 8
  %52 = icmp eq %"class.optimization_guide::proto::Model"* %51, null
  br i1 %52, label %53, label %68

53:                                               ; preds = %43
  %54 = bitcast %"class.google::protobuf::internal::InternalMetadata"* %3 to i64*
  %55 = load i64, i64* %54, align 8
  %56 = and i64 %55, 1
  %57 = icmp eq i64 %56, 0
  %58 = and i64 %55, -2
  br i1 %57, label %63, label %59, !prof !2

59:                                               ; preds = %53
  %60 = inttoptr i64 %58 to %"struct.google::protobuf::internal::InternalMetadata::ContainerBase"*
  %61 = getelementptr inbounds %"struct.google::protobuf::internal::InternalMetadata::ContainerBase", %"struct.google::protobuf::internal::InternalMetadata::ContainerBase"* %60, i64 0, i32 0
  %62 = load %"class.google::protobuf::Arena"*, %"class.google::protobuf::Arena"** %61, align 8
  br label %65

63:                                               ; preds = %53
  %64 = inttoptr i64 %58 to %"class.google::protobuf::Arena"*
  br label %65

65:                                               ; preds = %63, %59
  %66 = phi %"class.google::protobuf::Arena"* [ %62, %59 ], [ %64, %63 ]
  %67 = tail call %"class.optimization_guide::proto::Model"* @_ZN6google8protobuf5Arena18CreateMaybeMessageIN18optimization_guide5proto5ModelEJEEEPT_PS1_DpOT0_(%"class.google::protobuf::Arena"* %66) #13
  store %"class.optimization_guide::proto::Model"* %67, %"class.optimization_guide::proto::Model"** %50, align 8
  br label %68

68:                                               ; preds = %43, %65
  %69 = phi %"class.optimization_guide::proto::Model"* [ %67, %65 ], [ %51, %43 ]
  %70 = load %"class.optimization_guide::proto::Model"*, %"class.optimization_guide::proto::Model"** %44, align 8
  %71 = icmp eq %"class.optimization_guide::proto::Model"* %70, null
  %72 = select i1 %71, %"class.optimization_guide::proto::Model"* bitcast (%"class.optimization_guide::proto::ModelDefaultTypeInternal"* @_ZN18optimization_guide5proto24_Model_default_instance_E to %"class.optimization_guide::proto::Model"*), %"class.optimization_guide::proto::Model"* %70
  tail call void @_ZN18optimization_guide5proto5Model9MergeFromERKS1_(%"class.optimization_guide::proto::Model"* %69, %"class.optimization_guide::proto::Model"* dereferenceable(48) %72)
  br label %73

73:                                               ; preds = %38, %68
  ret void
}

; Function Attrs: nounwind ssp uwtable
define hidden void @_ZN18optimization_guide5proto15Ensemble_Member8CopyFromERKS1_(%"class.optimization_guide::proto::Ensemble_Member"*, %"class.optimization_guide::proto::Ensemble_Member"* readonly dereferenceable(32)) local_unnamed_addr #0 align 2 {
  %3 = icmp eq %"class.optimization_guide::proto::Ensemble_Member"* %1, %0
  br i1 %3, label %5, label %4

4:                                                ; preds = %2
  tail call void @_ZN18optimization_guide5proto15Ensemble_Member5ClearEv(%"class.optimization_guide::proto::Ensemble_Member"* %0)
  tail call void @_ZN18optimization_guide5proto15Ensemble_Member9MergeFromERKS1_(%"class.optimization_guide::proto::Ensemble_Member"* %0, %"class.optimization_guide::proto::Ensemble_Member"* dereferenceable(32) %1)
  br label %5

5:                                                ; preds = %2, %4
  ret void
}

; Function Attrs: norecurse nounwind readnone ssp uwtable
define hidden zeroext i1 @_ZNK18optimization_guide5proto15Ensemble_Member13IsInitializedEv(%"class.optimization_guide::proto::Ensemble_Member"* nocapture readnone) unnamed_addr #1 align 2 {
  ret i1 true
}

; Function Attrs: nounwind ssp uwtable
define hidden void @_ZN18optimization_guide5proto15Ensemble_Member12InternalSwapEPS1_(%"class.optimization_guide::proto::Ensemble_Member"*, %"class.optimization_guide::proto::Ensemble_Member"*) local_unnamed_addr #0 align 2 {
  %3 = getelementptr inbounds %"class.optimization_guide::proto::Ensemble_Member", %"class.optimization_guide::proto::Ensemble_Member"* %0, i64 0, i32 0, i32 1
  %4 = getelementptr inbounds %"class.optimization_guide::proto::Ensemble_Member", %"class.optimization_guide::proto::Ensemble_Member"* %1, i64 0, i32 0, i32 1
  %5 = bitcast %"class.google::protobuf::internal::InternalMetadata"* %3 to i64*
  %6 = load i64, i64* %5, align 8
  %7 = bitcast %"class.google::protobuf::internal::InternalMetadata"* %4 to i64*
  %8 = load i64, i64* %7, align 8
  %9 = or i64 %8, %6
  %10 = and i64 %9, 1
  %11 = icmp eq i64 %10, 0
  br i1 %11, label %43, label %12

12:                                               ; preds = %2
  %13 = and i64 %8, 1
  %14 = icmp eq i64 %13, 0
  br i1 %14, label %19, label %15, !prof !5

15:                                               ; preds = %12
  %16 = and i64 %8, -2
  %17 = inttoptr i64 %16 to %"struct.google::protobuf::internal::InternalMetadata::Container"*
  %18 = getelementptr inbounds %"struct.google::protobuf::internal::InternalMetadata::Container", %"struct.google::protobuf::internal::InternalMetadata::Container"* %17, i64 0, i32 1
  br label %22

19:                                               ; preds = %12
  %20 = tail call %"class.std::__1::basic_string"* @_ZN6google8protobuf8internal16InternalMetadata27mutable_unknown_fields_slowINSt3__112basic_stringIcNS4_11char_traitsIcEENS4_9allocatorIcEEEEEEPT_v(%"class.google::protobuf::internal::InternalMetadata"* %4) #13
  %21 = load i64, i64* %5, align 8
  br label %22

22:                                               ; preds = %19, %15
  %23 = phi i64 [ %6, %15 ], [ %21, %19 ]
  %24 = phi %"class.std::__1::basic_string"* [ %18, %15 ], [ %20, %19 ]
  %25 = and i64 %23, 1
  %26 = icmp eq i64 %25, 0
  br i1 %26, label %31, label %27, !prof !5

27:                                               ; preds = %22
  %28 = and i64 %23, -2
  %29 = inttoptr i64 %28 to %"struct.google::protobuf::internal::InternalMetadata::Container"*
  %30 = getelementptr inbounds %"struct.google::protobuf::internal::InternalMetadata::Container", %"struct.google::protobuf::internal::InternalMetadata::Container"* %29, i64 0, i32 1
  br label %33

31:                                               ; preds = %22
  %32 = tail call %"class.std::__1::basic_string"* @_ZN6google8protobuf8internal16InternalMetadata27mutable_unknown_fields_slowINSt3__112basic_stringIcNS4_11char_traitsIcEENS4_9allocatorIcEEEEEEPT_v(%"class.google::protobuf::internal::InternalMetadata"* %3) #13
  br label %33

33:                                               ; preds = %31, %27
  %34 = phi %"class.std::__1::basic_string"* [ %30, %27 ], [ %32, %31 ]
  %35 = bitcast %"class.std::__1::basic_string"* %34 to <2 x i64>*
  %36 = load <2 x i64>, <2 x i64>* %35, align 8
  %37 = getelementptr inbounds %"class.std::__1::basic_string", %"class.std::__1::basic_string"* %34, i64 0, i32 0, i32 0, i32 0, i32 0, i32 0, i32 2
  %38 = load i64, i64* %37, align 8
  %39 = bitcast %"class.std::__1::basic_string"* %34 to i8*
  %40 = bitcast %"class.std::__1::basic_string"* %24 to i8*
  tail call void @llvm.memcpy.p0i8.p0i8.i64(i8* align 8 %39, i8* align 8 %40, i64 24, i1 false) #13
  %41 = bitcast %"class.std::__1::basic_string"* %24 to <2 x i64>*
  store <2 x i64> %36, <2 x i64>* %41, align 8
  %42 = getelementptr inbounds %"class.std::__1::basic_string", %"class.std::__1::basic_string"* %24, i64 0, i32 0, i32 0, i32 0, i32 0, i32 0, i32 2
  store i64 %38, i64* %42, align 8
  br label %43

43:                                               ; preds = %2, %33
  %44 = getelementptr inbounds %"class.optimization_guide::proto::Ensemble_Member", %"class.optimization_guide::proto::Ensemble_Member"* %0, i64 0, i32 1, i32 0, i64 0
  %45 = getelementptr inbounds %"class.optimization_guide::proto::Ensemble_Member", %"class.optimization_guide::proto::Ensemble_Member"* %1, i64 0, i32 1, i32 0, i64 0
  %46 = load i32, i32* %44, align 4
  %47 = load i32, i32* %45, align 4
  store i32 %47, i32* %44, align 4
  store i32 %46, i32* %45, align 4
  %48 = getelementptr inbounds %"class.optimization_guide::proto::Ensemble_Member", %"class.optimization_guide::proto::Ensemble_Member"* %0, i64 0, i32 3
  %49 = getelementptr inbounds %"class.optimization_guide::proto::Ensemble_Member", %"class.optimization_guide::proto::Ensemble_Member"* %1, i64 0, i32 3
  %50 = bitcast %"class.optimization_guide::proto::Model"** %48 to i64*
  %51 = load i64, i64* %50, align 8
  %52 = bitcast %"class.optimization_guide::proto::Model"** %49 to i64*
  %53 = load i64, i64* %52, align 8
  store i64 %53, i64* %50, align 8
  store i64 %51, i64* %52, align 8
  ret void
}

; Function Attrs: nounwind ssp uwtable
define hidden void @_ZNK18optimization_guide5proto15Ensemble_Member11GetTypeNameEv(%"class.std::__1::basic_string"* noalias sret, %"class.optimization_guide::proto::Ensemble_Member"* nocapture readnone) unnamed_addr #0 align 2 {
  %3 = tail call i8* @_Znwm(i64 48) #16
  %4 = getelementptr inbounds %"class.std::__1::basic_string", %"class.std::__1::basic_string"* %0, i64 0, i32 0, i32 0, i32 0, i32 0, i32 0, i32 0
  store i8* %3, i8** %4, align 8
  %5 = getelementptr inbounds %"class.std::__1::basic_string", %"class.std::__1::basic_string"* %0, i64 0, i32 0, i32 0, i32 0, i32 0, i32 0, i32 1
  %6 = bitcast i64* %5 to <2 x i64>*
  store <2 x i64> <i64 40, i64 -9223372036854775760>, <2 x i64>* %6, align 8
  tail call void @llvm.memcpy.p0i8.p0i8.i64(i8* nonnull align 1 %3, i8* align 1 getelementptr inbounds ([41 x i8], [41 x i8]* @.str.18, i64 0, i64 0), i64 40, i1 false) #13
  %7 = getelementptr inbounds i8, i8* %3, i64 40
  store i8 0, i8* %7, align 1
  ret void
}

; Function Attrs: nounwind ssp uwtable
define hidden void @_ZN18optimization_guide5proto8EnsembleC2EPN6google8protobuf5ArenaE(%"class.optimization_guide::proto::Ensemble"* nocapture, %"class.google::protobuf::Arena"*) unnamed_addr #0 align 2 {
  %3 = getelementptr inbounds %"class.optimization_guide::proto::Ensemble", %"class.optimization_guide::proto::Ensemble"* %0, i64 0, i32 0, i32 0
  %4 = getelementptr inbounds %"class.optimization_guide::proto::Ensemble", %"class.optimization_guide::proto::Ensemble"* %0, i64 0, i32 0, i32 1
  %5 = bitcast %"class.google::protobuf::internal::InternalMetadata"* %4 to %"class.google::protobuf::Arena"**
  store %"class.google::protobuf::Arena"* %1, %"class.google::protobuf::Arena"** %5, align 8
  store i32 (...)** bitcast (i8** getelementptr inbounds ({ [16 x i8*] }, { [16 x i8*] }* @_ZTVN18optimization_guide5proto8EnsembleE, i64 0, inrange i32 0, i64 2) to i32 (...)**), i32 (...)*** %3, align 8
  %6 = getelementptr inbounds %"class.optimization_guide::proto::Ensemble", %"class.optimization_guide::proto::Ensemble"* %0, i64 0, i32 1, i32 0, i32 0
  store %"class.google::protobuf::Arena"* %1, %"class.google::protobuf::Arena"** %6, align 8
  %7 = getelementptr inbounds %"class.optimization_guide::proto::Ensemble", %"class.optimization_guide::proto::Ensemble"* %0, i64 0, i32 1, i32 0, i32 1
  %8 = bitcast i32* %7 to i8*
  call void @llvm.memset.p0i8.i64(i8* align 8 %8, i8 0, i64 20, i1 false)
  %9 = load atomic i32, i32* getelementptr inbounds ({ { { { i32 } }, i32, i32, void ()* }, [2 x i8*] }, { { { { i32 } }, i32, i32, void ()* }, [2 x i8*] }* @scc_info_Ensemble_components_2foptimization_5fguide_2fproto_2fmodels_2eproto, i64 0, i32 0, i32 0, i32 0, i32 0) acquire, align 8
  %10 = icmp eq i32 %9, 0
  br i1 %10, label %12, label %11, !prof !2

11:                                               ; preds = %2
  tail call void @_ZN6google8protobuf8internal11InitSCCImplEPNS1_11SCCInfoBaseE(%"struct.google::protobuf::internal::SCCInfoBase"* bitcast ({ { { { i32 } }, i32, i32, void ()* }, [2 x i8*] }* @scc_info_Ensemble_components_2foptimization_5fguide_2fproto_2fmodels_2eproto to %"struct.google::protobuf::internal::SCCInfoBase"*)) #13
  br label %12

12:                                               ; preds = %2, %11
  ret void
}

; Function Attrs: nounwind ssp uwtable
define hidden void @_ZN18optimization_guide5proto8EnsembleC2ERKS1_(%"class.optimization_guide::proto::Ensemble"*, %"class.optimization_guide::proto::Ensemble"* nocapture readonly dereferenceable(48)) unnamed_addr #0 align 2 {
  %3 = getelementptr inbounds %"class.optimization_guide::proto::Ensemble", %"class.optimization_guide::proto::Ensemble"* %0, i64 0, i32 0, i32 0
  %4 = getelementptr inbounds %"class.optimization_guide::proto::Ensemble", %"class.optimization_guide::proto::Ensemble"* %0, i64 0, i32 0, i32 1, i32 0
  store i8* null, i8** %4, align 8
  store i32 (...)** bitcast (i8** getelementptr inbounds ({ [16 x i8*] }, { [16 x i8*] }* @_ZTVN18optimization_guide5proto8EnsembleE, i64 0, inrange i32 0, i64 2) to i32 (...)**), i32 (...)*** %3, align 8
  %5 = getelementptr inbounds %"class.optimization_guide::proto::Ensemble", %"class.optimization_guide::proto::Ensemble"* %0, i64 0, i32 1
  %6 = bitcast %"class.google::protobuf::RepeatedPtrField.34"* %5 to i8*
  tail call void @llvm.memset.p0i8.i64(i8* align 8 %6, i8 0, i64 24, i1 false) #13
  %7 = getelementptr inbounds %"class.optimization_guide::proto::Ensemble", %"class.optimization_guide::proto::Ensemble"* %1, i64 0, i32 1, i32 0, i32 1
  %8 = load i32, i32* %7, align 8
  %9 = icmp eq i32 %8, 0
  br i1 %9, label %65, label %10

10:                                               ; preds = %2
  %11 = getelementptr inbounds %"class.google::protobuf::RepeatedPtrField.34", %"class.google::protobuf::RepeatedPtrField.34"* %5, i64 0, i32 0
  %12 = getelementptr inbounds %"class.optimization_guide::proto::Ensemble", %"class.optimization_guide::proto::Ensemble"* %1, i64 0, i32 1, i32 0, i32 3
  %13 = load %"struct.google::protobuf::internal::RepeatedPtrFieldBase::Rep"*, %"struct.google::protobuf::internal::RepeatedPtrFieldBase::Rep"** %12, align 8
  %14 = tail call i8** @_ZN6google8protobuf8internal20RepeatedPtrFieldBase14InternalExtendEi(%"class.google::protobuf::internal::RepeatedPtrFieldBase"* %11, i32 %8) #13
  %15 = getelementptr inbounds %"class.optimization_guide::proto::Ensemble", %"class.optimization_guide::proto::Ensemble"* %0, i64 0, i32 1, i32 0, i32 3
  %16 = load %"struct.google::protobuf::internal::RepeatedPtrFieldBase::Rep"*, %"struct.google::protobuf::internal::RepeatedPtrFieldBase::Rep"** %15, align 8
  %17 = getelementptr inbounds %"struct.google::protobuf::internal::RepeatedPtrFieldBase::Rep", %"struct.google::protobuf::internal::RepeatedPtrFieldBase::Rep"* %16, i64 0, i32 0
  %18 = load i32, i32* %17, align 8
  %19 = getelementptr inbounds %"class.optimization_guide::proto::Ensemble", %"class.optimization_guide::proto::Ensemble"* %0, i64 0, i32 1, i32 0, i32 1
  %20 = load i32, i32* %19, align 8
  %21 = sub i32 %18, %20
  %22 = icmp sgt i32 %21, 0
  %23 = icmp sgt i32 %8, 0
  %24 = and i1 %23, %22
  br i1 %24, label %25, label %28

25:                                               ; preds = %10
  %26 = sext i32 %8 to i64
  %27 = sext i32 %21 to i64
  br label %34

28:                                               ; preds = %34, %10
  %29 = getelementptr inbounds %"class.google::protobuf::RepeatedPtrField.34", %"class.google::protobuf::RepeatedPtrField.34"* %5, i64 0, i32 0, i32 0
  %30 = load %"class.google::protobuf::Arena"*, %"class.google::protobuf::Arena"** %29, align 8
  %31 = icmp slt i32 %21, %8
  br i1 %31, label %32, label %57

32:                                               ; preds = %28
  %33 = sext i32 %21 to i64
  br label %46

34:                                               ; preds = %34, %25
  %35 = phi i64 [ 0, %25 ], [ %42, %34 ]
  %36 = getelementptr inbounds %"struct.google::protobuf::internal::RepeatedPtrFieldBase::Rep", %"struct.google::protobuf::internal::RepeatedPtrFieldBase::Rep"* %13, i64 0, i32 1, i64 %35
  %37 = bitcast i8** %36 to %"class.optimization_guide::proto::Ensemble_Member"**
  %38 = load %"class.optimization_guide::proto::Ensemble_Member"*, %"class.optimization_guide::proto::Ensemble_Member"** %37, align 8
  %39 = getelementptr inbounds i8*, i8** %14, i64 %35
  %40 = bitcast i8** %39 to %"class.optimization_guide::proto::Ensemble_Member"**
  %41 = load %"class.optimization_guide::proto::Ensemble_Member"*, %"class.optimization_guide::proto::Ensemble_Member"** %40, align 8
  tail call void @_ZN6google8protobuf8internal18GenericTypeHandlerIN18optimization_guide5proto15Ensemble_MemberEE5MergeERKS5_PS5_(%"class.optimization_guide::proto::Ensemble_Member"* dereferenceable(32) %38, %"class.optimization_guide::proto::Ensemble_Member"* %41) #13
  %42 = add nuw nsw i64 %35, 1
  %43 = icmp slt i64 %42, %27
  %44 = icmp slt i64 %42, %26
  %45 = and i1 %43, %44
  br i1 %45, label %34, label %28

46:                                               ; preds = %46, %32
  %47 = phi i64 [ %33, %32 ], [ %54, %46 ]
  %48 = getelementptr inbounds %"struct.google::protobuf::internal::RepeatedPtrFieldBase::Rep", %"struct.google::protobuf::internal::RepeatedPtrFieldBase::Rep"* %13, i64 0, i32 1, i64 %47
  %49 = bitcast i8** %48 to %"class.optimization_guide::proto::Ensemble_Member"**
  %50 = load %"class.optimization_guide::proto::Ensemble_Member"*, %"class.optimization_guide::proto::Ensemble_Member"** %49, align 8
  %51 = tail call %"class.optimization_guide::proto::Ensemble_Member"* @_ZN6google8protobuf5Arena18CreateMaybeMessageIN18optimization_guide5proto15Ensemble_MemberEJEEEPT_PS1_DpOT0_(%"class.google::protobuf::Arena"* %30) #13
  tail call void @_ZN6google8protobuf8internal18GenericTypeHandlerIN18optimization_guide5proto15Ensemble_MemberEE5MergeERKS5_PS5_(%"class.optimization_guide::proto::Ensemble_Member"* dereferenceable(32) %50, %"class.optimization_guide::proto::Ensemble_Member"* %51) #13
  %52 = getelementptr inbounds i8*, i8** %14, i64 %47
  %53 = bitcast i8** %52 to %"class.optimization_guide::proto::Ensemble_Member"**
  store %"class.optimization_guide::proto::Ensemble_Member"* %51, %"class.optimization_guide::proto::Ensemble_Member"** %53, align 8
  %54 = add nsw i64 %47, 1
  %55 = trunc i64 %54 to i32
  %56 = icmp eq i32 %8, %55
  br i1 %56, label %57, label %46

57:                                               ; preds = %46, %28
  %58 = load i32, i32* %19, align 8
  %59 = add nsw i32 %58, %8
  store i32 %59, i32* %19, align 8
  %60 = load %"struct.google::protobuf::internal::RepeatedPtrFieldBase::Rep"*, %"struct.google::protobuf::internal::RepeatedPtrFieldBase::Rep"** %15, align 8
  %61 = getelementptr inbounds %"struct.google::protobuf::internal::RepeatedPtrFieldBase::Rep", %"struct.google::protobuf::internal::RepeatedPtrFieldBase::Rep"* %60, i64 0, i32 0
  %62 = load i32, i32* %61, align 8
  %63 = icmp slt i32 %62, %59
  br i1 %63, label %64, label %65

64:                                               ; preds = %57
  store i32 %59, i32* %61, align 8
  br label %65

65:                                               ; preds = %2, %57, %64
  %66 = getelementptr inbounds %"class.optimization_guide::proto::Ensemble", %"class.optimization_guide::proto::Ensemble"* %0, i64 0, i32 2, i32 0, i32 0, i32 0, i32 0, i32 0, i32 0
  store i32 0, i32* %66, align 4
  %67 = getelementptr inbounds %"class.optimization_guide::proto::Ensemble", %"class.optimization_guide::proto::Ensemble"* %0, i64 0, i32 0, i32 1
  %68 = getelementptr inbounds %"class.optimization_guide::proto::Ensemble", %"class.optimization_guide::proto::Ensemble"* %1, i64 0, i32 0, i32 1
  %69 = bitcast %"class.google::protobuf::internal::InternalMetadata"* %68 to i64*
  %70 = load i64, i64* %69, align 8
  %71 = and i64 %70, 1
  %72 = icmp eq i64 %71, 0
  br i1 %72, label %102, label %73

73:                                               ; preds = %65
  %74 = and i64 %70, -2
  %75 = inttoptr i64 %74 to %"struct.google::protobuf::internal::InternalMetadata::Container"*
  %76 = getelementptr inbounds %"struct.google::protobuf::internal::InternalMetadata::Container", %"struct.google::protobuf::internal::InternalMetadata::Container"* %75, i64 0, i32 1
  %77 = bitcast %"class.google::protobuf::internal::InternalMetadata"* %67 to i64*
  %78 = load i64, i64* %77, align 8
  %79 = and i64 %78, 1
  %80 = icmp eq i64 %79, 0
  br i1 %80, label %85, label %81, !prof !5

81:                                               ; preds = %73
  %82 = and i64 %78, -2
  %83 = inttoptr i64 %82 to %"struct.google::protobuf::internal::InternalMetadata::Container"*
  %84 = getelementptr inbounds %"struct.google::protobuf::internal::InternalMetadata::Container", %"struct.google::protobuf::internal::InternalMetadata::Container"* %83, i64 0, i32 1
  br label %87

85:                                               ; preds = %73
  %86 = tail call %"class.std::__1::basic_string"* @_ZN6google8protobuf8internal16InternalMetadata27mutable_unknown_fields_slowINSt3__112basic_stringIcNS4_11char_traitsIcEENS4_9allocatorIcEEEEEEPT_v(%"class.google::protobuf::internal::InternalMetadata"* %67) #13
  br label %87

87:                                               ; preds = %85, %81
  %88 = phi %"class.std::__1::basic_string"* [ %84, %81 ], [ %86, %85 ]
  %89 = bitcast %"class.std::__1::basic_string"* %76 to %"struct.std::__1::basic_string<char, std::__1::char_traits<char>, std::__1::allocator<char> >::__short"*
  %90 = getelementptr inbounds %"struct.std::__1::basic_string<char, std::__1::char_traits<char>, std::__1::allocator<char> >::__short", %"struct.std::__1::basic_string<char, std::__1::char_traits<char>, std::__1::allocator<char> >::__short"* %89, i64 0, i32 1, i32 0
  %91 = load i8, i8* %90, align 1
  %92 = icmp slt i8 %91, 0
  %93 = getelementptr inbounds %"class.std::__1::basic_string", %"class.std::__1::basic_string"* %76, i64 0, i32 0, i32 0, i32 0, i32 0, i32 0, i32 0
  %94 = load i8*, i8** %93, align 8
  %95 = getelementptr inbounds %"struct.google::protobuf::internal::InternalMetadata::Container", %"struct.google::protobuf::internal::InternalMetadata::Container"* %75, i64 0, i32 1, i32 0, i32 0, i32 0, i32 0, i32 0, i32 1
  %96 = load i64, i64* %95, align 8
  %97 = bitcast %"class.std::__1::basic_string"* %76 to i8*
  %98 = zext i8 %91 to i64
  %99 = select i1 %92, i8* %94, i8* %97
  %100 = select i1 %92, i64 %96, i64 %98
  %101 = tail call dereferenceable(24) %"class.std::__1::basic_string"* @_ZNSt3__112basic_stringIcNS_11char_traitsIcEENS_9allocatorIcEEE6appendEPKcm(%"class.std::__1::basic_string"* %88, i8* %99, i64 %100) #13
  br label %102

102:                                              ; preds = %65, %87
  ret void
}

; Function Attrs: nounwind ssp uwtable
define hidden void @_ZN18optimization_guide5proto8EnsembleD2Ev(%"class.optimization_guide::proto::Ensemble"* nocapture) unnamed_addr #0 align 2 {
  %2 = getelementptr inbounds %"class.optimization_guide::proto::Ensemble", %"class.optimization_guide::proto::Ensemble"* %0, i64 0, i32 0, i32 0
  store i32 (...)** bitcast (i8** getelementptr inbounds ({ [16 x i8*] }, { [16 x i8*] }* @_ZTVN18optimization_guide5proto8EnsembleE, i64 0, inrange i32 0, i64 2) to i32 (...)**), i32 (...)*** %2, align 8
  %3 = getelementptr inbounds %"class.optimization_guide::proto::Ensemble", %"class.optimization_guide::proto::Ensemble"* %0, i64 0, i32 0, i32 1
  %4 = bitcast %"class.google::protobuf::internal::InternalMetadata"* %3 to i64*
  %5 = load i64, i64* %4, align 8
  %6 = and i64 %5, 1
  %7 = icmp eq i64 %6, 0
  br i1 %7, label %28, label %8

8:                                                ; preds = %1
  %9 = and i64 %5, -2
  %10 = inttoptr i64 %9 to %"struct.google::protobuf::internal::InternalMetadata::ContainerBase"*
  %11 = getelementptr inbounds %"struct.google::protobuf::internal::InternalMetadata::ContainerBase", %"struct.google::protobuf::internal::InternalMetadata::ContainerBase"* %10, i64 0, i32 0
  %12 = load %"class.google::protobuf::Arena"*, %"class.google::protobuf::Arena"** %11, align 8
  %13 = icmp ne %"class.google::protobuf::Arena"* %12, null
  %14 = icmp eq i64 %9, 0
  %15 = or i1 %14, %13
  br i1 %15, label %28, label %16

16:                                               ; preds = %8
  %17 = inttoptr i64 %9 to %"struct.google::protobuf::internal::InternalMetadata::Container"*
  %18 = getelementptr inbounds %"struct.google::protobuf::internal::InternalMetadata::Container", %"struct.google::protobuf::internal::InternalMetadata::Container"* %17, i64 0, i32 1
  %19 = bitcast %"class.std::__1::basic_string"* %18 to %"struct.std::__1::basic_string<char, std::__1::char_traits<char>, std::__1::allocator<char> >::__short"*
  %20 = getelementptr inbounds %"struct.std::__1::basic_string<char, std::__1::char_traits<char>, std::__1::allocator<char> >::__short", %"struct.std::__1::basic_string<char, std::__1::char_traits<char>, std::__1::allocator<char> >::__short"* %19, i64 0, i32 1, i32 0
  %21 = load i8, i8* %20, align 1
  %22 = icmp slt i8 %21, 0
  br i1 %22, label %23, label %26

23:                                               ; preds = %16
  %24 = getelementptr inbounds %"class.std::__1::basic_string", %"class.std::__1::basic_string"* %18, i64 0, i32 0, i32 0, i32 0, i32 0, i32 0, i32 0
  %25 = load i8*, i8** %24, align 8
  tail call void @_ZdlPv(i8* %25) #16
  br label %26

26:                                               ; preds = %23, %16
  %27 = inttoptr i64 %9 to i8*
  tail call void @_ZdlPv(i8* %27) #16
  br label %28

28:                                               ; preds = %1, %8, %26
  %29 = getelementptr inbounds %"class.optimization_guide::proto::Ensemble", %"class.optimization_guide::proto::Ensemble"* %0, i64 0, i32 1, i32 0, i32 3
  %30 = load %"struct.google::protobuf::internal::RepeatedPtrFieldBase::Rep"*, %"struct.google::protobuf::internal::RepeatedPtrFieldBase::Rep"** %29, align 8
  %31 = icmp eq %"struct.google::protobuf::internal::RepeatedPtrFieldBase::Rep"* %30, null
  %32 = bitcast %"struct.google::protobuf::internal::RepeatedPtrFieldBase::Rep"* %30 to i8*
  br i1 %31, label %62, label %33

33:                                               ; preds = %28
  %34 = getelementptr inbounds %"class.optimization_guide::proto::Ensemble", %"class.optimization_guide::proto::Ensemble"* %0, i64 0, i32 1, i32 0, i32 0
  %35 = load %"class.google::protobuf::Arena"*, %"class.google::protobuf::Arena"** %34, align 8
  %36 = icmp eq %"class.google::protobuf::Arena"* %35, null
  br i1 %36, label %37, label %62

37:                                               ; preds = %33
  %38 = getelementptr inbounds %"struct.google::protobuf::internal::RepeatedPtrFieldBase::Rep", %"struct.google::protobuf::internal::RepeatedPtrFieldBase::Rep"* %30, i64 0, i32 0
  %39 = load i32, i32* %38, align 8
  %40 = icmp sgt i32 %39, 0
  br i1 %40, label %41, label %46

41:                                               ; preds = %37
  %42 = zext i32 %39 to i64
  br label %48

43:                                               ; preds = %59
  %44 = bitcast %"struct.google::protobuf::internal::RepeatedPtrFieldBase::Rep"** %29 to i8**
  %45 = load i8*, i8** %44, align 8
  br label %46

46:                                               ; preds = %43, %37
  %47 = phi i8* [ %45, %43 ], [ %32, %37 ]
  tail call void @_ZdlPv(i8* %47) #13
  br label %62

48:                                               ; preds = %59, %41
  %49 = phi i64 [ 0, %41 ], [ %60, %59 ]
  %50 = getelementptr inbounds %"struct.google::protobuf::internal::RepeatedPtrFieldBase::Rep", %"struct.google::protobuf::internal::RepeatedPtrFieldBase::Rep"* %30, i64 0, i32 1, i64 %49
  %51 = bitcast i8** %50 to %"class.optimization_guide::proto::Ensemble_Member"**
  %52 = load %"class.optimization_guide::proto::Ensemble_Member"*, %"class.optimization_guide::proto::Ensemble_Member"** %51, align 8
  %53 = icmp eq %"class.optimization_guide::proto::Ensemble_Member"* %52, null
  br i1 %53, label %59, label %54

54:                                               ; preds = %48
  %55 = bitcast %"class.optimization_guide::proto::Ensemble_Member"* %52 to void (%"class.optimization_guide::proto::Ensemble_Member"*)***
  %56 = load void (%"class.optimization_guide::proto::Ensemble_Member"*)**, void (%"class.optimization_guide::proto::Ensemble_Member"*)*** %55, align 8
  %57 = getelementptr inbounds void (%"class.optimization_guide::proto::Ensemble_Member"*)*, void (%"class.optimization_guide::proto::Ensemble_Member"*)** %56, i64 1
  %58 = load void (%"class.optimization_guide::proto::Ensemble_Member"*)*, void (%"class.optimization_guide::proto::Ensemble_Member"*)** %57, align 8
  tail call void %58(%"class.optimization_guide::proto::Ensemble_Member"* nonnull %52) #13
  br label %59

59:                                               ; preds = %54, %48
  %60 = add nuw nsw i64 %49, 1
  %61 = icmp eq i64 %60, %42
  br i1 %61, label %43, label %48

62:                                               ; preds = %28, %33, %46
  store %"struct.google::protobuf::internal::RepeatedPtrFieldBase::Rep"* null, %"struct.google::protobuf::internal::RepeatedPtrFieldBase::Rep"** %29, align 8
  ret void
}

; Function Attrs: nounwind ssp uwtable
define hidden void @_ZN18optimization_guide5proto8EnsembleD0Ev(%"class.optimization_guide::proto::Ensemble"*) unnamed_addr #0 align 2 {
  tail call void @_ZN18optimization_guide5proto8EnsembleD2Ev(%"class.optimization_guide::proto::Ensemble"* %0) #13
  %2 = bitcast %"class.optimization_guide::proto::Ensemble"* %0 to i8*
  tail call void @_ZdlPv(i8* %2) #16
  ret void
}

; Function Attrs: norecurse nounwind readnone ssp uwtable
define hidden void @_ZN18optimization_guide5proto8Ensemble9ArenaDtorEPv(i8* nocapture) local_unnamed_addr #1 align 2 {
  ret void
}

; Function Attrs: nofree norecurse nounwind ssp uwtable
define hidden void @_ZNK18optimization_guide5proto8Ensemble13SetCachedSizeEi(%"class.optimization_guide::proto::Ensemble"* nocapture, i32) local_unnamed_addr #8 align 2 {
  %3 = getelementptr inbounds %"class.optimization_guide::proto::Ensemble", %"class.optimization_guide::proto::Ensemble"* %0, i64 0, i32 2, i32 0, i32 0, i32 0, i32 0, i32 0, i32 0
  store atomic i32 %1, i32* %3 monotonic, align 4
  ret void
}

; Function Attrs: nounwind ssp uwtable
define hidden dereferenceable(48) %"class.optimization_guide::proto::Ensemble"* @_ZN18optimization_guide5proto8Ensemble16default_instanceEv() local_unnamed_addr #0 align 2 {
  %1 = load atomic i32, i32* getelementptr inbounds ({ { { { i32 } }, i32, i32, void ()* }, [2 x i8*] }, { { { { i32 } }, i32, i32, void ()* }, [2 x i8*] }* @scc_info_Ensemble_components_2foptimization_5fguide_2fproto_2fmodels_2eproto, i64 0, i32 0, i32 0, i32 0, i32 0) acquire, align 8
  %2 = icmp eq i32 %1, 0
  br i1 %2, label %4, label %3, !prof !2

3:                                                ; preds = %0
  tail call void @_ZN6google8protobuf8internal11InitSCCImplEPNS1_11SCCInfoBaseE(%"struct.google::protobuf::internal::SCCInfoBase"* bitcast ({ { { { i32 } }, i32, i32, void ()* }, [2 x i8*] }* @scc_info_Ensemble_components_2foptimization_5fguide_2fproto_2fmodels_2eproto to %"struct.google::protobuf::internal::SCCInfoBase"*)) #13
  br label %4

4:                                                ; preds = %0, %3
  ret %"class.optimization_guide::proto::Ensemble"* bitcast (%"class.optimization_guide::proto::EnsembleDefaultTypeInternal"* @_ZN18optimization_guide5proto27_Ensemble_default_instance_E to %"class.optimization_guide::proto::Ensemble"*)
}

; Function Attrs: nounwind ssp uwtable
define hidden void @_ZN18optimization_guide5proto8Ensemble5ClearEv(%"class.optimization_guide::proto::Ensemble"* nocapture) unnamed_addr #0 align 2 {
  %2 = getelementptr inbounds %"class.optimization_guide::proto::Ensemble", %"class.optimization_guide::proto::Ensemble"* %0, i64 0, i32 1, i32 0, i32 1
  %3 = load i32, i32* %2, align 8
  %4 = icmp sgt i32 %3, 0
  br i1 %4, label %5, label %17

5:                                                ; preds = %1
  %6 = getelementptr inbounds %"class.optimization_guide::proto::Ensemble", %"class.optimization_guide::proto::Ensemble"* %0, i64 0, i32 1, i32 0, i32 3
  %7 = load %"struct.google::protobuf::internal::RepeatedPtrFieldBase::Rep"*, %"struct.google::protobuf::internal::RepeatedPtrFieldBase::Rep"** %6, align 8
  %8 = zext i32 %3 to i64
  br label %9

9:                                                ; preds = %9, %5
  %10 = phi i64 [ %11, %9 ], [ 0, %5 ]
  %11 = add nuw nsw i64 %10, 1
  %12 = getelementptr inbounds %"struct.google::protobuf::internal::RepeatedPtrFieldBase::Rep", %"struct.google::protobuf::internal::RepeatedPtrFieldBase::Rep"* %7, i64 0, i32 1, i64 %10
  %13 = bitcast i8** %12 to %"class.optimization_guide::proto::Ensemble_Member"**
  %14 = load %"class.optimization_guide::proto::Ensemble_Member"*, %"class.optimization_guide::proto::Ensemble_Member"** %13, align 8
  tail call void @_ZN18optimization_guide5proto15Ensemble_Member5ClearEv(%"class.optimization_guide::proto::Ensemble_Member"* %14) #13
  %15 = icmp eq i64 %11, %8
  br i1 %15, label %16, label %9

16:                                               ; preds = %9
  store i32 0, i32* %2, align 8
  br label %17

17:                                               ; preds = %1, %16
  %18 = getelementptr inbounds %"class.optimization_guide::proto::Ensemble", %"class.optimization_guide::proto::Ensemble"* %0, i64 0, i32 0, i32 1
  %19 = bitcast %"class.google::protobuf::internal::InternalMetadata"* %18 to i64*
  %20 = load i64, i64* %19, align 8
  %21 = and i64 %20, 1
  %22 = icmp eq i64 %21, 0
  br i1 %22, label %37, label %23

23:                                               ; preds = %17
  %24 = and i64 %20, -2
  %25 = inttoptr i64 %24 to %"struct.google::protobuf::internal::InternalMetadata::Container"*
  %26 = getelementptr inbounds %"struct.google::protobuf::internal::InternalMetadata::Container", %"struct.google::protobuf::internal::InternalMetadata::Container"* %25, i64 0, i32 1
  %27 = bitcast %"class.std::__1::basic_string"* %26 to %"struct.std::__1::basic_string<char, std::__1::char_traits<char>, std::__1::allocator<char> >::__short"*
  %28 = getelementptr inbounds %"struct.std::__1::basic_string<char, std::__1::char_traits<char>, std::__1::allocator<char> >::__short", %"struct.std::__1::basic_string<char, std::__1::char_traits<char>, std::__1::allocator<char> >::__short"* %27, i64 0, i32 1, i32 0
  %29 = load i8, i8* %28, align 1
  %30 = icmp slt i8 %29, 0
  br i1 %30, label %31, label %35

31:                                               ; preds = %23
  %32 = getelementptr inbounds %"class.std::__1::basic_string", %"class.std::__1::basic_string"* %26, i64 0, i32 0, i32 0, i32 0, i32 0, i32 0, i32 0
  %33 = load i8*, i8** %32, align 8
  store i8 0, i8* %33, align 1
  %34 = getelementptr inbounds %"struct.google::protobuf::internal::InternalMetadata::Container", %"struct.google::protobuf::internal::InternalMetadata::Container"* %25, i64 0, i32 1, i32 0, i32 0, i32 0, i32 0, i32 0, i32 1
  store i64 0, i64* %34, align 8
  br label %37

35:                                               ; preds = %23
  %36 = bitcast %"class.std::__1::basic_string"* %26 to i8*
  store i8 0, i8* %36, align 2
  store i8 0, i8* %28, align 1
  br label %37

37:                                               ; preds = %17, %31, %35
  ret void
}

; Function Attrs: nounwind ssp uwtable
define hidden i8* @_ZN18optimization_guide5proto8Ensemble14_InternalParseEPKcPN6google8protobuf8internal12ParseContextE(%"class.optimization_guide::proto::Ensemble"*, i8*, %"class.google::protobuf::internal::ParseContext"*) unnamed_addr #0 align 2 {
  %4 = getelementptr inbounds %"class.google::protobuf::internal::ParseContext", %"class.google::protobuf::internal::ParseContext"* %2, i64 0, i32 0
  %5 = getelementptr inbounds %"class.google::protobuf::internal::ParseContext", %"class.google::protobuf::internal::ParseContext"* %2, i64 0, i32 2
  %6 = getelementptr inbounds %"class.google::protobuf::internal::ParseContext", %"class.google::protobuf::internal::ParseContext"* %2, i64 0, i32 0, i32 0
  %7 = getelementptr inbounds %"class.google::protobuf::internal::ParseContext", %"class.google::protobuf::internal::ParseContext"* %2, i64 0, i32 0, i32 1
  %8 = bitcast i8** %7 to i64*
  %9 = getelementptr inbounds %"class.google::protobuf::internal::ParseContext", %"class.google::protobuf::internal::ParseContext"* %2, i64 0, i32 0, i32 4
  %10 = getelementptr inbounds %"class.optimization_guide::proto::Ensemble", %"class.optimization_guide::proto::Ensemble"* %0, i64 0, i32 0, i32 1
  %11 = bitcast %"class.google::protobuf::internal::InternalMetadata"* %10 to i64*
  %12 = getelementptr inbounds %"class.optimization_guide::proto::Ensemble", %"class.optimization_guide::proto::Ensemble"* %0, i64 0, i32 1
  %13 = getelementptr inbounds %"class.google::protobuf::RepeatedPtrField.34", %"class.google::protobuf::RepeatedPtrField.34"* %12, i64 0, i32 0
  %14 = getelementptr inbounds %"class.optimization_guide::proto::Ensemble", %"class.optimization_guide::proto::Ensemble"* %0, i64 0, i32 1, i32 0, i32 3
  %15 = getelementptr inbounds %"class.optimization_guide::proto::Ensemble", %"class.optimization_guide::proto::Ensemble"* %0, i64 0, i32 1, i32 0, i32 1
  %16 = getelementptr inbounds %"class.optimization_guide::proto::Ensemble", %"class.optimization_guide::proto::Ensemble"* %0, i64 0, i32 1, i32 0, i32 2
  %17 = getelementptr inbounds %"class.google::protobuf::RepeatedPtrField.34", %"class.google::protobuf::RepeatedPtrField.34"* %12, i64 0, i32 0, i32 0
  br label %18

18:                                               ; preds = %135, %3
  %19 = phi i8* [ %1, %3 ], [ %136, %135 ]
  %20 = load i32, i32* %5, align 4
  %21 = load i8*, i8** %6, align 8
  %22 = icmp ult i8* %19, %21
  br i1 %22, label %36, label %23, !prof !2

23:                                               ; preds = %18
  %24 = load i64, i64* %8, align 8
  %25 = ptrtoint i8* %19 to i64
  %26 = sub i64 %25, %24
  %27 = load i32, i32* %9, align 4
  %28 = sext i32 %27 to i64
  %29 = icmp eq i64 %26, %28
  br i1 %29, label %137, label %30

30:                                               ; preds = %23
  %31 = tail call { i8*, i8 } @_ZN6google8protobuf8internal18EpsCopyInputStream12DoneFallbackEPKci(%"class.google::protobuf::internal::EpsCopyInputStream"* %4, i8* %19, i32 %20) #13
  %32 = extractvalue { i8*, i8 } %31, 0
  %33 = extractvalue { i8*, i8 } %31, 1
  %34 = and i8 %33, 1
  %35 = icmp eq i8 %34, 0
  br i1 %35, label %36, label %137

36:                                               ; preds = %30, %18
  %37 = phi i8* [ %32, %30 ], [ %19, %18 ]
  %38 = load i8, i8* %37, align 1
  %39 = zext i8 %38 to i32
  %40 = icmp sgt i8 %38, -1
  %41 = getelementptr inbounds i8, i8* %37, i64 1
  br i1 %40, label %55, label %42

42:                                               ; preds = %36
  %43 = load i8, i8* %41, align 1
  %44 = zext i8 %43 to i32
  %45 = shl nuw nsw i32 %44, 7
  %46 = add nsw i32 %39, -128
  %47 = add nsw i32 %46, %45
  %48 = icmp sgt i8 %43, -1
  br i1 %48, label %49, label %51

49:                                               ; preds = %42
  %50 = getelementptr inbounds i8, i8* %37, i64 2
  br label %55

51:                                               ; preds = %42
  %52 = tail call { i8*, i32 } @_ZN6google8protobuf8internal15ReadTagFallbackEPKcj(i8* %37, i32 %47) #13
  %53 = extractvalue { i8*, i32 } %52, 0
  %54 = extractvalue { i8*, i32 } %52, 1
  br label %55

55:                                               ; preds = %36, %49, %51
  %56 = phi i32 [ %47, %49 ], [ %54, %51 ], [ %39, %36 ]
  %57 = phi i8* [ %50, %49 ], [ %53, %51 ], [ %41, %36 ]
  %58 = icmp eq i8* %57, null
  br i1 %58, label %137, label %59, !prof !5

59:                                               ; preds = %55
  %60 = icmp eq i32 %56, 802
  br i1 %60, label %61, label %113, !prof !7

61:                                               ; preds = %59
  %62 = getelementptr inbounds i8, i8* %57, i64 -2
  br label %63

