; ModuleID = '../../components/sync/model/model_type_store_backend.cc'
source_filename = "../../components/sync/model/model_type_store_backend.cc"
target datalayout = "e-m:e-i64:64-f80:128-n8:16:32:64-S128"
target triple = "x86_64-unknown-linux-gnu"

module asm ".symver exp, exp@GLIBC_2.2.5"
module asm ".symver exp2, exp2@GLIBC_2.2.5"
module asm ".symver exp2f, exp2f@GLIBC_2.2.5"
module asm ".symver expf, expf@GLIBC_2.2.5"
module asm ".symver lgamma, lgamma@GLIBC_2.2.5"
module asm ".symver lgammaf, lgammaf@GLIBC_2.2.5"
module asm ".symver lgammal, lgammal@GLIBC_2.2.5"
module asm ".symver log, log@GLIBC_2.2.5"
module asm ".symver log2, log2@GLIBC_2.2.5"
module asm ".symver log2f, log2f@GLIBC_2.2.5"
module asm ".symver logf, logf@GLIBC_2.2.5"
module asm ".symver pow, pow@GLIBC_2.2.5"
module asm ".symver powf, powf@GLIBC_2.2.5"

%"struct.syncer::ModelTypeStoreBackend::CustomOnTaskRunnerDeleter" = type { %class.scoped_refptr }
%class.scoped_refptr = type { %"class.base::SequencedTaskRunner"* }
%"class.base::SequencedTaskRunner" = type { %"class.base::TaskRunner.base", [4 x i8] }
%"class.base::TaskRunner.base" = type <{ i32 (...)**, %"class.base::RefCountedThreadSafe" }>
%"class.base::RefCountedThreadSafe" = type { %"class.base::subtle::RefCountedThreadSafeBase" }
%"class.base::subtle::RefCountedThreadSafeBase" = type { %"class.base::AtomicRefCount" }
%"class.base::AtomicRefCount" = type { %"struct.std::__1::atomic" }
%"struct.std::__1::atomic" = type { %"struct.std::__1::__atomic_base" }
%"struct.std::__1::__atomic_base" = type { %"struct.std::__1::__atomic_base.0" }
%"struct.std::__1::__atomic_base.0" = type { %"struct.std::__1::__cxx_atomic_impl" }
%"struct.std::__1::__cxx_atomic_impl" = type { %"struct.std::__1::__cxx_atomic_base_impl" }
%"struct.std::__1::__cxx_atomic_base_impl" = type { i32 }
%"class.syncer::ModelTypeStoreBackend" = type { %"class.base::RefCountedThreadSafe.2", %"class.std::__1::unique_ptr", %"class.std::__1::unique_ptr.4" }
%"class.base::RefCountedThreadSafe.2" = type { %"class.base::subtle::RefCountedThreadSafeBase" }
%"class.std::__1::unique_ptr" = type { %"class.std::__1::__compressed_pair" }
%"class.std::__1::__compressed_pair" = type { %"struct.std::__1::__compressed_pair_elem" }
%"struct.std::__1::__compressed_pair_elem" = type { %"class.leveldb::Env"* }
%"class.leveldb::Env" = type { i32 (...)** }
%"class.std::__1::unique_ptr.4" = type { %"class.std::__1::__compressed_pair.5" }
%"class.std::__1::__compressed_pair.5" = type { %"struct.std::__1::__compressed_pair_elem.6", %"struct.std::__1::__compressed_pair_elem.7" }
%"struct.std::__1::__compressed_pair_elem.6" = type { %"class.leveldb::DB"* }
%"class.leveldb::DB" = type { i32 (...)** }
%"struct.std::__1::__compressed_pair_elem.7" = type { %"struct.syncer::ModelTypeStoreBackend::CustomOnTaskRunnerDeleter" }
%"class.base::TaskRunner" = type <{ i32 (...)**, %"class.base::RefCountedThreadSafe", [4 x i8] }>
%"class.std::__1::basic_string" = type { %"class.std::__1::__compressed_pair.8" }
%"class.std::__1::__compressed_pair.8" = type { %"struct.std::__1::__compressed_pair_elem.9" }
%"struct.std::__1::__compressed_pair_elem.9" = type { %"struct.std::__1::basic_string<char, std::__1::char_traits<char>, std::__1::allocator<char> >::__rep" }
%"struct.std::__1::basic_string<char, std::__1::char_traits<char>, std::__1::allocator<char> >::__rep" = type { %union.anon }
%union.anon = type { %"struct.std::__1::basic_string<char, std::__1::char_traits<char>, std::__1::allocator<char> >::__long" }
%"struct.std::__1::basic_string<char, std::__1::char_traits<char>, std::__1::allocator<char> >::__long" = type { i8*, i64, i64 }
%"class.leveldb::Status" = type { i8* }
%"class.base::FilePath" = type { %"class.std::__1::basic_string" }
%"class.absl::optional" = type { %"class.absl::optional_internal::optional_data" }
%"class.absl::optional_internal::optional_data" = type { %"class.absl::optional_internal::optional_data_base" }
%"class.absl::optional_internal::optional_data_base" = type { %"class.absl::optional_internal::optional_data_dtor_base" }
%"class.absl::optional_internal::optional_data_dtor_base" = type { i8, %union.anon.11 }
%union.anon.11 = type { %"class.syncer::ModelError" }
%"class.syncer::ModelError" = type { %"class.base::Location", %"class.std::__1::basic_string" }
%"class.base::Location" = type { i8*, i8*, i32, i8* }
%"struct.std::__1::basic_string<char, std::__1::char_traits<char>, std::__1::allocator<char> >::__short" = type { [23 x i8], %struct.anon }
%struct.anon = type { i8 }
%"struct.leveldb_env::Options" = type { %"struct.leveldb::Options", %"class.base::RepeatingCallback", %"class.base::RepeatingCallback" }
%"struct.leveldb::Options" = type { %"class.leveldb::Comparator"*, i8, i8, i8, %"class.leveldb::Env"*, %"class.leveldb::Logger"*, i64, i32, %"class.leveldb::Cache"*, i64, i32, i64, i32, i8, %"class.leveldb::FilterPolicy"* }
%"class.leveldb::Comparator" = type opaque
%"class.leveldb::Logger" = type { i32 (...)** }
%"class.leveldb::Cache" = type { i32 (...)**, %"struct.leveldb::Cache::Rep"* }
%"struct.leveldb::Cache::Rep" = type opaque
%"class.leveldb::FilterPolicy" = type opaque
%"class.base::RepeatingCallback" = type { %"class.base::internal::CallbackBaseCopyable" }
%"class.base::internal::CallbackBaseCopyable" = type { %"class.base::internal::CallbackBase" }
%"class.base::internal::CallbackBase" = type { %class.scoped_refptr.12 }
%class.scoped_refptr.12 = type { %"class.base::internal::BindStateBase"* }
%"class.base::internal::BindStateBase" = type { %"class.base::RefCountedThreadSafe.13", void ()*, void (%"class.base::internal::BindStateBase"*)*, i1 (%"class.base::internal::BindStateBase"*, i32)* }
%"class.base::RefCountedThreadSafe.13" = type { %"class.base::subtle::RefCountedThreadSafeBase" }
%"class.std::__1::unique_ptr.14" = type { %"class.std::__1::__compressed_pair.15" }
%"class.std::__1::__compressed_pair.15" = type { %"struct.std::__1::__compressed_pair_elem.6" }
%"struct.leveldb::ReadOptions" = type { i8, i8, %"class.leveldb::Snapshot"* }
%"class.leveldb::Snapshot" = type { i32 (...)** }
%"class.sync_pb::ModelTypeStoreSchemaDescriptor" = type { %"class.google::protobuf::MessageLite", %"class.google::protobuf::internal::HasBits", %"class.google::protobuf::internal::CachedSize", i64 }
%"class.google::protobuf::MessageLite" = type { i32 (...)**, %"class.google::protobuf::internal::InternalMetadata" }
%"class.google::protobuf::internal::InternalMetadata" = type { i8* }
%"class.google::protobuf::internal::HasBits" = type { [1 x i32] }
%"class.google::protobuf::internal::CachedSize" = type { %"struct.std::__1::atomic" }
%"class.leveldb::Slice" = type { i8*, i64 }
%"class.google::protobuf::Arena" = type { %"class.google::protobuf::internal::ArenaImpl", void (%"class.std::type_info"*, i64, i8*)*, void (%"class.google::protobuf::Arena"*, i8*, i64)*, void (%"class.google::protobuf::Arena"*, i8*, i64)*, i8* }
%"class.google::protobuf::internal::ArenaImpl" = type { %"struct.std::__1::atomic.43", %"struct.std::__1::atomic.43", %"struct.std::__1::atomic.47", %"class.google::protobuf::internal::ArenaImpl::Block"*, i64, %"struct.google::protobuf::internal::ArenaImpl::Options" }
%"struct.std::__1::atomic.43" = type { %"struct.std::__1::__atomic_base.44" }
%"struct.std::__1::__atomic_base.44" = type { %"struct.std::__1::__cxx_atomic_impl.45" }
%"struct.std::__1::__cxx_atomic_impl.45" = type { %"struct.std::__1::__cxx_atomic_base_impl.46" }
%"struct.std::__1::__cxx_atomic_base_impl.46" = type { %"class.google::protobuf::internal::ArenaImpl::SerialArena"* }
%"class.google::protobuf::internal::ArenaImpl::SerialArena" = type { %"class.google::protobuf::internal::ArenaImpl"*, i8*, %"class.google::protobuf::internal::ArenaImpl::Block"*, %"struct.google::protobuf::internal::ArenaImpl::CleanupChunk"*, %"class.google::protobuf::internal::ArenaImpl::SerialArena"*, i8*, i8*, %"struct.google::protobuf::internal::ArenaImpl::CleanupNode"*, %"struct.google::protobuf::internal::ArenaImpl::CleanupNode"* }
%"struct.google::protobuf::internal::ArenaImpl::CleanupChunk" = type { i64, %"struct.google::protobuf::internal::ArenaImpl::CleanupChunk"*, [1 x %"struct.google::protobuf::internal::ArenaImpl::CleanupNode"] }
%"struct.google::protobuf::internal::ArenaImpl::CleanupNode" = type { i8*, void (i8*)* }
%"struct.std::__1::atomic.47" = type { %"struct.std::__1::__atomic_base.48" }
%"struct.std::__1::__atomic_base.48" = type { %"struct.std::__1::__atomic_base.49" }
%"struct.std::__1::__atomic_base.49" = type { %"struct.std::__1::__cxx_atomic_impl.50" }
%"struct.std::__1::__cxx_atomic_impl.50" = type { %"struct.std::__1::__cxx_atomic_base_impl.51" }
%"struct.std::__1::__cxx_atomic_base_impl.51" = type { i64 }
%"class.google::protobuf::internal::ArenaImpl::Block" = type { %"class.google::protobuf::internal::ArenaImpl::Block"*, i64, i64 }
%"struct.google::protobuf::internal::ArenaImpl::Options" = type { i64, i64, i8*, i64, i8* (i64)*, void (i8*, i64)* }
%"class.std::type_info" = type { i32 (...)**, i8* }
%"class.std::__1::vector.24" = type { %"class.std::__1::__vector_base.25" }
%"class.std::__1::__vector_base.25" = type { %"struct.syncer::ModelTypeStoreBase::Record"*, %"struct.syncer::ModelTypeStoreBase::Record"*, %"class.std::__1::__compressed_pair.26" }
%"struct.syncer::ModelTypeStoreBase::Record" = type { %"class.std::__1::basic_string", %"class.std::__1::basic_string" }
%"class.std::__1::__compressed_pair.26" = type { %"struct.std::__1::__compressed_pair_elem.27" }
%"struct.std::__1::__compressed_pair_elem.27" = type { %"struct.syncer::ModelTypeStoreBase::Record"* }
%"class.std::__1::vector" = type { %"class.std::__1::__vector_base" }
%"class.std::__1::__vector_base" = type { %"class.std::__1::basic_string"*, %"class.std::__1::basic_string"*, %"class.std::__1::__compressed_pair.19" }
%"class.std::__1::__compressed_pair.19" = type { %"struct.std::__1::__compressed_pair_elem.20" }
%"struct.std::__1::__compressed_pair_elem.20" = type { %"class.std::__1::basic_string"* }
%"class.std::__1::__basic_string_common" = type { i8 }
%"class.leveldb::Iterator" = type { i32 (...)**, %"struct.leveldb::Iterator::CleanupNode" }
%"struct.leveldb::Iterator::CleanupNode" = type { void (i8*, i8*)*, i8*, i8*, %"struct.leveldb::Iterator::CleanupNode"* }
%"class.leveldb::WriteBatch" = type { %"class.std::__1::basic_string" }
%"struct.leveldb::WriteOptions" = type { i8 }
%"class.std::__1::__vector_base_common" = type { i8 }

$_ZNSt3__16vectorIN6syncer18ModelTypeStoreBase6RecordENS_9allocatorIS3_EEE7reserveEm = comdat any

$_ZN4base12DeleteHelperIN7leveldb2DBEE8DoDeleteEPKv = comdat any

$_ZNSt3__16vectorIN6syncer18ModelTypeStoreBase6RecordENS_9allocatorIS3_EEE24__emplace_back_slow_pathIJRKNS_12basic_stringIcNS_11char_traitsIcEENS4_IcEEEERSC_EEEvDpOT_ = comdat any

$_ZNSt3__16vectorINS_12basic_stringIcNS_11char_traitsIcEENS_9allocatorIcEEEENS4_IS6_EEE21__push_back_slow_pathIRKS6_EEvOT_ = comdat any

$_ZNSt3__16vectorIN6syncer18ModelTypeStoreBase6RecordENS_9allocatorIS3_EEE24__emplace_back_slow_pathIJNS_12basic_stringIcNS_11char_traitsIcEENS4_IcEEEESC_EEEvDpOT_ = comdat any

@_ZN6syncer21ModelTypeStoreBackend20kLatestSchemaVersionE = hidden local_unnamed_addr constant i64 1, align 8
@_ZN6syncer21ModelTypeStoreBackend27kDBSchemaDescriptorRecordIdE = hidden constant [23 x i8] c"_mts_schema_descriptor\00", align 16
@.str = private unnamed_addr constant [15 x i8] c"ModelTypeStore\00", align 1
@.str.1 = private unnamed_addr constant [10 x i8] c"in-memory\00", align 1
@.str.2 = private unnamed_addr constant [5 x i8] c"Init\00", align 1
@.str.3 = private unnamed_addr constant [56 x i8] c"../../components/sync/model/model_type_store_backend.cc\00", align 1
@.str.4 = private unnamed_addr constant [26 x i8] c"Invalid schema descriptor\00", align 1
@.str.5 = private unnamed_addr constant [22 x i8] c"ReadRecordsWithPrefix\00", align 1
@.str.6 = private unnamed_addr constant [25 x i8] c"ReadAllRecordsWithPrefix\00", align 1
@.str.7 = private unnamed_addr constant [19 x i8] c"WriteModifications\00", align 1
@.str.8 = private unnamed_addr constant [31 x i8] c"DeleteDataAndMetadataForPrefix\00", align 1
@.str.9 = private unnamed_addr constant [8 x i8] c"Migrate\00", align 1
@.str.10 = private unnamed_addr constant [24 x i8] c"Schema version too high\00", align 1
@.str.11 = private unnamed_addr constant [22 x i8] c"Schema upgrade failed\00", align 1
@.str.15 = private unnamed_addr constant [11 x i8] c"operator()\00", align 1
@.str.16 = private unnamed_addr constant [55 x i8] c"../../components/sync/model/model_type_store_backend.h\00", align 1

@_ZN6syncer21ModelTypeStoreBackend25CustomOnTaskRunnerDeleterC1E13scoped_refptrIN4base19SequencedTaskRunnerEE = hidden unnamed_addr alias void (%"struct.syncer::ModelTypeStoreBackend::CustomOnTaskRunnerDeleter"*, %"class.base::SequencedTaskRunner"*), void (%"struct.syncer::ModelTypeStoreBackend::CustomOnTaskRunnerDeleter"*, %"class.base::SequencedTaskRunner"*)* @_ZN6syncer21ModelTypeStoreBackend25CustomOnTaskRunnerDeleterC2E13scoped_refptrIN4base19SequencedTaskRunnerEE
@_ZN6syncer21ModelTypeStoreBackend25CustomOnTaskRunnerDeleterC1EOS1_ = hidden unnamed_addr alias void (%"struct.syncer::ModelTypeStoreBackend::CustomOnTaskRunnerDeleter"*, %"struct.syncer::ModelTypeStoreBackend::CustomOnTaskRunnerDeleter"*), void (%"struct.syncer::ModelTypeStoreBackend::CustomOnTaskRunnerDeleter"*, %"struct.syncer::ModelTypeStoreBackend::CustomOnTaskRunnerDeleter"*)* @_ZN6syncer21ModelTypeStoreBackend25CustomOnTaskRunnerDeleterC2EOS1_
@_ZN6syncer21ModelTypeStoreBackend25CustomOnTaskRunnerDeleterD1Ev = hidden unnamed_addr alias void (%"struct.syncer::ModelTypeStoreBackend::CustomOnTaskRunnerDeleter"*), void (%"struct.syncer::ModelTypeStoreBackend::CustomOnTaskRunnerDeleter"*)* @_ZN6syncer21ModelTypeStoreBackend25CustomOnTaskRunnerDeleterD2Ev
@_ZN6syncer21ModelTypeStoreBackendD1Ev = hidden unnamed_addr alias void (%"class.syncer::ModelTypeStoreBackend"*), void (%"class.syncer::ModelTypeStoreBackend"*)* @_ZN6syncer21ModelTypeStoreBackendD2Ev
@_ZN6syncer21ModelTypeStoreBackendC1ENSt3__110unique_ptrIN7leveldb3EnvENS1_14default_deleteIS4_EEEE = hidden unnamed_addr alias void (%"class.syncer::ModelTypeStoreBackend"*, %"class.leveldb::Env"*), void (%"class.syncer::ModelTypeStoreBackend"*, %"class.leveldb::Env"*)* @_ZN6syncer21ModelTypeStoreBackendC2ENSt3__110unique_ptrIN7leveldb3EnvENS1_14default_deleteIS4_EEEE

; Function Attrs: nounwind ssp uwtable
define hidden void @_ZN6syncer21ModelTypeStoreBackend25CustomOnTaskRunnerDeleterC2E13scoped_refptrIN4base19SequencedTaskRunnerEE(%"struct.syncer::ModelTypeStoreBackend::CustomOnTaskRunnerDeleter"* nocapture, %"class.base::SequencedTaskRunner"*) unnamed_addr #0 align 2 {
  %3 = ptrtoint %"class.base::SequencedTaskRunner"* %1 to i64
  %4 = bitcast %"struct.syncer::ModelTypeStoreBackend::CustomOnTaskRunnerDeleter"* %0 to i64*
  store i64 %3, i64* %4, align 8
  ret void
}

; Function Attrs: nofree norecurse nounwind ssp uwtable
define hidden void @_ZN6syncer21ModelTypeStoreBackend25CustomOnTaskRunnerDeleterC2EOS1_(%"struct.syncer::ModelTypeStoreBackend::CustomOnTaskRunnerDeleter"* nocapture, %"struct.syncer::ModelTypeStoreBackend::CustomOnTaskRunnerDeleter"* nocapture dereferenceable(8)) unnamed_addr #1 align 2 {
  %3 = getelementptr inbounds %"struct.syncer::ModelTypeStoreBackend::CustomOnTaskRunnerDeleter", %"struct.syncer::ModelTypeStoreBackend::CustomOnTaskRunnerDeleter"* %1, i64 0, i32 0, i32 0
  %4 = bitcast %"struct.syncer::ModelTypeStoreBackend::CustomOnTaskRunnerDeleter"* %1 to i64*
  %5 = load i64, i64* %4, align 8
  %6 = bitcast %"struct.syncer::ModelTypeStoreBackend::CustomOnTaskRunnerDeleter"* %0 to i64*
  store i64 %5, i64* %6, align 8
  store %"class.base::SequencedTaskRunner"* null, %"class.base::SequencedTaskRunner"** %3, align 8
  ret void
}

; Function Attrs: nounwind ssp uwtable
define hidden dereferenceable(8) %"struct.syncer::ModelTypeStoreBackend::CustomOnTaskRunnerDeleter"* @_ZN6syncer21ModelTypeStoreBackend25CustomOnTaskRunnerDeleteraSEOS1_(%"struct.syncer::ModelTypeStoreBackend::CustomOnTaskRunnerDeleter"* returned, %"struct.syncer::ModelTypeStoreBackend::CustomOnTaskRunnerDeleter"* nocapture dereferenceable(8)) local_unnamed_addr #0 align 2 {
  %3 = getelementptr inbounds %"struct.syncer::ModelTypeStoreBackend::CustomOnTaskRunnerDeleter", %"struct.syncer::ModelTypeStoreBackend::CustomOnTaskRunnerDeleter"* %1, i64 0, i32 0, i32 0
  %4 = bitcast %"struct.syncer::ModelTypeStoreBackend::CustomOnTaskRunnerDeleter"* %1 to i64*
  %5 = load i64, i64* %4, align 8
  store %"class.base::SequencedTaskRunner"* null, %"class.base::SequencedTaskRunner"** %3, align 8
  %6 = bitcast %"struct.syncer::ModelTypeStoreBackend::CustomOnTaskRunnerDeleter"* %0 to i64*
  %7 = getelementptr inbounds %"struct.syncer::ModelTypeStoreBackend::CustomOnTaskRunnerDeleter", %"struct.syncer::ModelTypeStoreBackend::CustomOnTaskRunnerDeleter"* %0, i64 0, i32 0, i32 0
  %8 = load %"class.base::SequencedTaskRunner"*, %"class.base::SequencedTaskRunner"** %7, align 8
  store i64 %5, i64* %6, align 8
  %9 = icmp eq %"class.base::SequencedTaskRunner"* %8, null
  br i1 %9, label %18, label %10

10:                                               ; preds = %2
  %11 = getelementptr inbounds %"class.base::SequencedTaskRunner", %"class.base::SequencedTaskRunner"* %8, i64 0, i32 0, i32 1
  %12 = getelementptr inbounds %"class.base::RefCountedThreadSafe", %"class.base::RefCountedThreadSafe"* %11, i64 0, i32 0, i32 0, i32 0, i32 0, i32 0, i32 0, i32 0, i32 0
  %13 = atomicrmw sub i32* %12, i32 1 acq_rel
  %14 = icmp eq i32 %13, 1
  br i1 %14, label %15, label %18

15:                                               ; preds = %10
  %16 = getelementptr inbounds %"class.base::RefCountedThreadSafe", %"class.base::RefCountedThreadSafe"* %11, i64 -2
  %17 = bitcast %"class.base::RefCountedThreadSafe"* %16 to %"class.base::TaskRunner"*
  tail call void @_ZN4base16TaskRunnerTraits8DestructEPKNS_10TaskRunnerE(%"class.base::TaskRunner"* %17) #12
  br label %18

18:                                               ; preds = %2, %10, %15
  ret %"struct.syncer::ModelTypeStoreBackend::CustomOnTaskRunnerDeleter"* %0
}

; Function Attrs: nounwind ssp uwtable
define hidden void @_ZN6syncer21ModelTypeStoreBackend25CustomOnTaskRunnerDeleterD2Ev(%"struct.syncer::ModelTypeStoreBackend::CustomOnTaskRunnerDeleter"* nocapture readonly) unnamed_addr #0 align 2 {
  %2 = getelementptr inbounds %"struct.syncer::ModelTypeStoreBackend::CustomOnTaskRunnerDeleter", %"struct.syncer::ModelTypeStoreBackend::CustomOnTaskRunnerDeleter"* %0, i64 0, i32 0, i32 0
  %3 = load %"class.base::SequencedTaskRunner"*, %"class.base::SequencedTaskRunner"** %2, align 8
  %4 = icmp eq %"class.base::SequencedTaskRunner"* %3, null
  br i1 %4, label %13, label %5

5:                                                ; preds = %1
  %6 = getelementptr inbounds %"class.base::SequencedTaskRunner", %"class.base::SequencedTaskRunner"* %3, i64 0, i32 0, i32 1
  %7 = getelementptr inbounds %"class.base::RefCountedThreadSafe", %"class.base::RefCountedThreadSafe"* %6, i64 0, i32 0, i32 0, i32 0, i32 0, i32 0, i32 0, i32 0, i32 0
  %8 = atomicrmw sub i32* %7, i32 1 acq_rel
  %9 = icmp eq i32 %8, 1
  br i1 %9, label %10, label %13

10:                                               ; preds = %5
  %11 = getelementptr inbounds %"class.base::RefCountedThreadSafe", %"class.base::RefCountedThreadSafe"* %6, i64 -2
  %12 = bitcast %"class.base::RefCountedThreadSafe"* %11 to %"class.base::TaskRunner"*
  tail call void @_ZN4base16TaskRunnerTraits8DestructEPKNS_10TaskRunnerE(%"class.base::TaskRunner"* %12) #12
  br label %13

13:                                               ; preds = %1, %5, %10
  ret void
}

; Function Attrs: nounwind ssp uwtable
define hidden %"class.syncer::ModelTypeStoreBackend"* @_ZN6syncer21ModelTypeStoreBackend21CreateInMemoryForTestEv() local_unnamed_addr #0 align 2 {
  %1 = alloca %"class.std::__1::basic_string", align 8
  %2 = alloca %"class.std::__1::basic_string", align 8
  %3 = alloca %"class.leveldb::Status", align 8
  %4 = alloca %"class.base::FilePath", align 8
  %5 = alloca %"class.base::FilePath", align 8
  %6 = alloca %"class.absl::optional", align 8
  %7 = bitcast %"class.std::__1::basic_string"* %1 to i8*
  call void @llvm.lifetime.start.p0i8(i64 24, i8* nonnull %7) #12
  %8 = bitcast %"class.std::__1::basic_string"* %1 to %"struct.std::__1::basic_string<char, std::__1::char_traits<char>, std::__1::allocator<char> >::__short"*
  %9 = getelementptr inbounds %"struct.std::__1::basic_string<char, std::__1::char_traits<char>, std::__1::allocator<char> >::__short", %"struct.std::__1::basic_string<char, std::__1::char_traits<char>, std::__1::allocator<char> >::__short"* %8, i64 0, i32 1, i32 0
  store i8 14, i8* %9, align 1
  call void @llvm.memcpy.p0i8.p0i8.i64(i8* nonnull align 8 %7, i8* align 1 getelementptr inbounds ([15 x i8], [15 x i8]* @.str, i64 0, i64 0), i64 14, i1 false) #12
  %10 = getelementptr inbounds i8, i8* %7, i64 14
  store i8 0, i8* %10, align 2
  %11 = call %"class.leveldb::Env"* @_ZN14leveldb_chrome9NewMemEnvERKNSt3__112basic_stringIcNS0_11char_traitsIcEENS0_9allocatorIcEEEEPN7leveldb3EnvE(%"class.std::__1::basic_string"* nonnull dereferenceable(24) %1, %"class.leveldb::Env"* null) #12
  %12 = ptrtoint %"class.leveldb::Env"* %11 to i64
  %13 = load i8, i8* %9, align 1
  %14 = icmp slt i8 %13, 0
  br i1 %14, label %15, label %18

15:                                               ; preds = %0
  %16 = getelementptr inbounds %"class.std::__1::basic_string", %"class.std::__1::basic_string"* %1, i64 0, i32 0, i32 0, i32 0, i32 0, i32 0, i32 0
  %17 = load i8*, i8** %16, align 8
  call void @_ZdlPv(i8* %17) #13
  br label %18

18:                                               ; preds = %0, %15
  call void @llvm.lifetime.end.p0i8(i64 24, i8* nonnull %7) #12
  %19 = bitcast %"class.std::__1::basic_string"* %2 to i8*
  call void @llvm.lifetime.start.p0i8(i64 24, i8* nonnull %19) #12
  %20 = getelementptr inbounds %"class.std::__1::basic_string", %"class.std::__1::basic_string"* %2, i64 0, i32 0, i32 0, i32 0, i32 0, i32 0, i32 0
  %21 = getelementptr inbounds %"class.std::__1::basic_string", %"class.std::__1::basic_string"* %2, i64 0, i32 0, i32 0, i32 0, i32 0, i32 0, i32 1
  call void @llvm.memset.p0i8.i64(i8* nonnull align 8 %19, i8 0, i64 24, i1 false) #12
  %22 = bitcast %"class.leveldb::Env"* %11 to void (%"class.leveldb::Status"*, %"class.leveldb::Env"*, %"class.std::__1::basic_string"*)***
  %23 = load void (%"class.leveldb::Status"*, %"class.leveldb::Env"*, %"class.std::__1::basic_string"*)**, void (%"class.leveldb::Status"*, %"class.leveldb::Env"*, %"class.std::__1::basic_string"*)*** %22, align 8
  %24 = getelementptr inbounds void (%"class.leveldb::Status"*, %"class.leveldb::Env"*, %"class.std::__1::basic_string"*)*, void (%"class.leveldb::Status"*, %"class.leveldb::Env"*, %"class.std::__1::basic_string"*)** %23, i64 19
  %25 = load void (%"class.leveldb::Status"*, %"class.leveldb::Env"*, %"class.std::__1::basic_string"*)*, void (%"class.leveldb::Status"*, %"class.leveldb::Env"*, %"class.std::__1::basic_string"*)** %24, align 8
  call void %25(%"class.leveldb::Status"* nonnull sret %3, %"class.leveldb::Env"* %11, %"class.std::__1::basic_string"* nonnull %2) #12
  %26 = getelementptr inbounds %"class.leveldb::Status", %"class.leveldb::Status"* %3, i64 0, i32 0
  %27 = load i8*, i8** %26, align 8
  %28 = icmp eq i8* %27, null
  br i1 %28, label %30, label %29

29:                                               ; preds = %18
  call void @_ZdaPv(i8* nonnull %27) #13
  br label %30

30:                                               ; preds = %18, %29
  %31 = bitcast %"class.base::FilePath"* %4 to i8*
  call void @llvm.lifetime.start.p0i8(i64 24, i8* nonnull %31) #12
  %32 = bitcast %"class.base::FilePath"* %5 to i8*
  %33 = bitcast %"class.base::FilePath"* %4 to i8*
  call void @llvm.memset.p0i8.i64(i8* nonnull align 8 %33, i8 -86, i64 24, i1 false)
  call void @llvm.lifetime.start.p0i8(i64 24, i8* nonnull %32) #12
  %34 = bitcast %"class.std::__1::basic_string"* %2 to %"struct.std::__1::basic_string<char, std::__1::char_traits<char>, std::__1::allocator<char> >::__short"*
  %35 = getelementptr inbounds %"struct.std::__1::basic_string<char, std::__1::char_traits<char>, std::__1::allocator<char> >::__short", %"struct.std::__1::basic_string<char, std::__1::char_traits<char>, std::__1::allocator<char> >::__short"* %34, i64 0, i32 1, i32 0
  %36 = load i8, i8* %35, align 1
  %37 = icmp slt i8 %36, 0
  %38 = load i8*, i8** %20, align 8
  %39 = select i1 %37, i8* %38, i8* %19
  %40 = load i64, i64* %21, align 8
  %41 = zext i8 %36 to i64
  %42 = select i1 %37, i64 %40, i64 %41
  call void @_ZN4base8FilePath14FromUTF8UnsafeENS_16BasicStringPieceIcNSt3__111char_traitsIcEEEE(%"class.base::FilePath"* nonnull sret %5, i8* %39, i64 %42) #12
  call void @_ZNK4base8FilePath6AppendENS_16BasicStringPieceIcNSt3__111char_traitsIcEEEE(%"class.base::FilePath"* nonnull sret %4, %"class.base::FilePath"* nonnull %5, i8* getelementptr inbounds ([10 x i8], [10 x i8]* @.str.1, i64 0, i64 0), i64 9) #12
  call void @_ZN4base8FilePathD1Ev(%"class.base::FilePath"* nonnull %5) #12
  call void @llvm.lifetime.end.p0i8(i64 24, i8* nonnull %32) #12
  %43 = call i8* @_Znwm(i64 32) #13
  %44 = bitcast i8* %43 to %"class.syncer::ModelTypeStoreBackend"*
  %45 = bitcast i8* %43 to i32*
  store i32 0, i32* %45, align 4
  %46 = getelementptr inbounds i8, i8* %43, i64 8
  %47 = bitcast i8* %46 to i64*
  store i64 %12, i64* %47, align 8
  %48 = getelementptr inbounds i8, i8* %43, i64 16
  call void @llvm.memset.p0i8.i64(i8* align 8 %48, i8 0, i64 16, i1 false) #12
  %49 = atomicrmw add i32* %45, i32 1 monotonic
  %50 = getelementptr inbounds %"class.absl::optional", %"class.absl::optional"* %6, i64 0, i32 0, i32 0, i32 0, i32 0
  call void @llvm.lifetime.start.p0i8(i64 64, i8* nonnull %50) #12
  call void @llvm.memset.p0i8.i64(i8* nonnull align 8 %50, i8 -86, i64 64, i1 false)
  call void @_ZN6syncer21ModelTypeStoreBackend4InitERKN4base8FilePathE(%"class.absl::optional"* nonnull sret %6, %"class.syncer::ModelTypeStoreBackend"* nonnull %44, %"class.base::FilePath"* nonnull dereferenceable(24) %4)
  %51 = load i8, i8* %50, align 8, !range !2
  %52 = icmp eq i8 %51, 0
  br i1 %52, label %55, label %53

53:                                               ; preds = %30
  %54 = getelementptr inbounds %"class.absl::optional", %"class.absl::optional"* %6, i64 0, i32 0, i32 0, i32 0, i32 1, i32 0
  call void @_ZN6syncer10ModelErrorD1Ev(%"class.syncer::ModelError"* %54) #12
  store i8 0, i8* %50, align 8
  br label %55

55:                                               ; preds = %30, %53
  call void @llvm.lifetime.end.p0i8(i64 64, i8* nonnull %50) #12
  call void @_ZN4base8FilePathD1Ev(%"class.base::FilePath"* nonnull %4) #12
  call void @llvm.lifetime.end.p0i8(i64 24, i8* nonnull %31) #12
  %56 = load i8, i8* %35, align 1
  %57 = icmp slt i8 %56, 0
  br i1 %57, label %58, label %60

58:                                               ; preds = %55
  %59 = load i8*, i8** %20, align 8
  call void @_ZdlPv(i8* %59) #13
  br label %60

60:                                               ; preds = %58, %55
  call void @llvm.lifetime.end.p0i8(i64 24, i8* nonnull %19) #12
  ret %"class.syncer::ModelTypeStoreBackend"* %44
}

; Function Attrs: argmemonly nounwind
declare void @llvm.lifetime.start.p0i8(i64 immarg, i8* nocapture) #2

declare %"class.leveldb::Env"* @_ZN14leveldb_chrome9NewMemEnvERKNSt3__112basic_stringIcNS0_11char_traitsIcEENS0_9allocatorIcEEEEPN7leveldb3EnvE(%"class.std::__1::basic_string"* dereferenceable(24), %"class.leveldb::Env"*) local_unnamed_addr #3

; Function Attrs: argmemonly nounwind
declare void @llvm.lifetime.end.p0i8(i64 immarg, i8* nocapture) #2

declare void @_ZN4base8FilePath14FromUTF8UnsafeENS_16BasicStringPieceIcNSt3__111char_traitsIcEEEE(%"class.base::FilePath"* sret, i8*, i64) local_unnamed_addr #3

declare void @_ZNK4base8FilePath6AppendENS_16BasicStringPieceIcNSt3__111char_traitsIcEEEE(%"class.base::FilePath"* sret, %"class.base::FilePath"*, i8*, i64) local_unnamed_addr #3

; Function Attrs: nounwind
declare void @_ZN4base8FilePathD1Ev(%"class.base::FilePath"*) unnamed_addr #4

; Function Attrs: nobuiltin nofree
declare noalias nonnull i8* @_Znwm(i64) local_unnamed_addr #5

; Function Attrs: argmemonly nounwind
declare void @llvm.memset.p0i8.i64(i8* nocapture writeonly, i8, i64, i1 immarg) #2

; Function Attrs: nounwind ssp uwtable
define hidden void @_ZN6syncer21ModelTypeStoreBackend4InitERKN4base8FilePathE(%"class.absl::optional"* noalias sret, %"class.syncer::ModelTypeStoreBackend"* nocapture, %"class.base::FilePath"* dereferenceable(24)) local_unnamed_addr #0 align 2 {
  %4 = alloca %"struct.leveldb_env::Options", align 8
  %5 = alloca %"class.std::__1::basic_string", align 8
  %6 = alloca %"class.leveldb::Status", align 8
  %7 = alloca %"class.leveldb::Status", align 8
  %8 = alloca %"class.leveldb::Status", align 8
  %9 = alloca %"class.syncer::ModelError", align 8
  %10 = alloca %"class.base::Location", align 8
  %11 = alloca %"class.std::__1::basic_string", align 8
  %12 = alloca %"class.syncer::ModelError", align 8
  %13 = alloca %"class.base::Location", align 8
  %14 = alloca %"class.std::__1::basic_string", align 8
  %15 = bitcast %"class.std::__1::basic_string"* %5 to i8*
  call void @llvm.lifetime.start.p0i8(i64 24, i8* nonnull %15) #12
  %16 = getelementptr inbounds %"class.std::__1::basic_string", %"class.std::__1::basic_string"* %5, i64 0, i32 0, i32 0, i32 0, i32 0, i32 0, i32 0
  %17 = bitcast %"class.std::__1::basic_string"* %5 to i8*
  call void @llvm.memset.p0i8.i64(i8* nonnull align 8 %17, i8 -86, i64 24, i1 false)
  call void @_ZNK4base8FilePath12AsUTF8UnsafeEv(%"class.std::__1::basic_string"* nonnull sret %5, %"class.base::FilePath"* %2) #12
  %18 = bitcast %"class.leveldb::Status"* %6 to i8*
  call void @llvm.lifetime.start.p0i8(i64 8, i8* nonnull %18) #12
  %19 = getelementptr inbounds %"class.leveldb::Status", %"class.leveldb::Status"* %6, i64 0, i32 0
  store i8* inttoptr (i64 -6148914691236517206 to i8*), i8** %19, align 8
  %20 = getelementptr inbounds %"class.syncer::ModelTypeStoreBackend", %"class.syncer::ModelTypeStoreBackend"* %1, i64 0, i32 1, i32 0, i32 0, i32 0
  %21 = load %"class.leveldb::Env"*, %"class.leveldb::Env"** %20, align 8
  call void @_ZN6syncer21ModelTypeStoreBackend12OpenDatabaseERKNSt3__112basic_stringIcNS1_11char_traitsIcEENS1_9allocatorIcEEEEPN7leveldb3EnvE(%"class.leveldb::Status"* nonnull sret %6, %"class.syncer::ModelTypeStoreBackend"* %1, %"class.std::__1::basic_string"* nonnull dereferenceable(24) %5, %"class.leveldb::Env"* %21)
  %22 = load i8*, i8** %19, align 8
  %23 = icmp eq i8* %22, null
  br i1 %23, label %97, label %24

24:                                               ; preds = %3
  %25 = getelementptr inbounds i8, i8* %22, i64 4
  %26 = load i8, i8* %25, align 1
  %27 = icmp eq i8 %26, 2
  br i1 %27, label %28, label %67

28:                                               ; preds = %24
  %29 = bitcast %"class.leveldb::Status"* %7 to i8*
  call void @llvm.lifetime.start.p0i8(i64 8, i8* nonnull %29) #12
  %30 = load %"class.leveldb::Env"*, %"class.leveldb::Env"** %20, align 8
  %31 = bitcast %"struct.leveldb_env::Options"* %4 to i8*
  call void @llvm.lifetime.start.p0i8(i64 112, i8* nonnull %31) #12, !noalias !3
  call void @llvm.memset.p0i8.i64(i8* nonnull align 8 %31, i8 -86, i64 112, i1 false) #12, !noalias !3
  call void @_ZN11leveldb_env7OptionsC1Ev(%"struct.leveldb_env::Options"* nonnull %4) #12, !noalias !3
  %32 = icmp eq %"class.leveldb::Env"* %30, null
  br i1 %32, label %35, label %33

33:                                               ; preds = %28
  %34 = getelementptr inbounds %"struct.leveldb_env::Options", %"struct.leveldb_env::Options"* %4, i64 0, i32 0, i32 4
  store %"class.leveldb::Env"* %30, %"class.leveldb::Env"** %34, align 8, !noalias !3
  br label %35

35:                                               ; preds = %28, %33
  %36 = getelementptr inbounds %"struct.leveldb_env::Options", %"struct.leveldb_env::Options"* %4, i64 0, i32 0
  call void @_ZN7leveldb9DestroyDBERKNSt3__112basic_stringIcNS0_11char_traitsIcEENS0_9allocatorIcEEEERKNS_7OptionsE(%"class.leveldb::Status"* nonnull sret %7, %"class.std::__1::basic_string"* nonnull dereferenceable(24) %5, %"struct.leveldb::Options"* nonnull dereferenceable(96) %36) #12
  %37 = getelementptr inbounds %"struct.leveldb_env::Options", %"struct.leveldb_env::Options"* %4, i64 0, i32 2, i32 0, i32 0
  call void @_ZN4base8internal12CallbackBaseD2Ev(%"class.base::internal::CallbackBase"* %37) #12
  %38 = getelementptr inbounds %"struct.leveldb_env::Options", %"struct.leveldb_env::Options"* %4, i64 0, i32 1, i32 0, i32 0
  call void @_ZN4base8internal12CallbackBaseD2Ev(%"class.base::internal::CallbackBase"* %38) #12
  call void @llvm.lifetime.end.p0i8(i64 112, i8* nonnull %31) #12, !noalias !3
  %39 = bitcast %"class.leveldb::Status"* %6 to i64*
  %40 = load i64, i64* %39, align 8
  %41 = bitcast %"class.leveldb::Status"* %7 to i64*
  %42 = load i64, i64* %41, align 8
  store i64 %42, i64* %39, align 8
  store i64 %40, i64* %41, align 8
  %43 = icmp eq i64 %40, 0
  %44 = inttoptr i64 %42 to i8*
  br i1 %43, label %48, label %45

45:                                               ; preds = %35
  %46 = inttoptr i64 %40 to i8*
  call void @_ZdaPv(i8* nonnull %46) #13
  %47 = load i8*, i8** %19, align 8
  br label %48

48:                                               ; preds = %35, %45
  %49 = phi i8* [ %44, %35 ], [ %47, %45 ]
  call void @llvm.lifetime.end.p0i8(i64 8, i8* nonnull %29) #12
  %50 = icmp eq i8* %49, null
  br i1 %50, label %51, label %64

51:                                               ; preds = %48
  %52 = bitcast %"class.leveldb::Status"* %8 to i8*
  call void @llvm.lifetime.start.p0i8(i64 8, i8* nonnull %52) #12
  %53 = load %"class.leveldb::Env"*, %"class.leveldb::Env"** %20, align 8
  call void @_ZN6syncer21ModelTypeStoreBackend12OpenDatabaseERKNSt3__112basic_stringIcNS1_11char_traitsIcEENS1_9allocatorIcEEEEPN7leveldb3EnvE(%"class.leveldb::Status"* nonnull sret %8, %"class.syncer::ModelTypeStoreBackend"* %1, %"class.std::__1::basic_string"* nonnull dereferenceable(24) %5, %"class.leveldb::Env"* %53)
  %54 = load i64, i64* %39, align 8
  %55 = bitcast %"class.leveldb::Status"* %8 to i64*
  %56 = load i64, i64* %55, align 8
  store i64 %56, i64* %39, align 8
  store i64 %54, i64* %55, align 8
  %57 = icmp eq i64 %54, 0
  %58 = inttoptr i64 %56 to i8*
  br i1 %57, label %62, label %59

59:                                               ; preds = %51
  %60 = inttoptr i64 %54 to i8*
  call void @_ZdaPv(i8* nonnull %60) #13
  %61 = load i8*, i8** %19, align 8
  br label %62

62:                                               ; preds = %51, %59
  %63 = phi i8* [ %58, %51 ], [ %61, %59 ]
  call void @llvm.lifetime.end.p0i8(i64 8, i8* nonnull %52) #12
  br label %64

64:                                               ; preds = %48, %62
  %65 = phi i8* [ %49, %48 ], [ %63, %62 ]
  %66 = icmp eq i8* %65, null
  br i1 %66, label %97, label %67

67:                                               ; preds = %24, %64
  %68 = bitcast %"class.syncer::ModelError"* %9 to i8*
  call void @llvm.lifetime.start.p0i8(i64 56, i8* nonnull %68) #12
  %69 = bitcast %"class.base::Location"* %10 to i8*
  call void @llvm.lifetime.start.p0i8(i64 32, i8* nonnull %69) #12
  call void @_ZN4base8Location7CurrentEPKcS2_i(%"class.base::Location"* nonnull sret %10, i8* getelementptr inbounds ([5 x i8], [5 x i8]* @.str.2, i64 0, i64 0), i8* getelementptr inbounds ([56 x i8], [56 x i8]* @.str.3, i64 0, i64 0), i32 90) #12
  %70 = bitcast %"class.std::__1::basic_string"* %11 to i8*
  call void @llvm.lifetime.start.p0i8(i64 24, i8* nonnull %70) #12
  call void @_ZNK7leveldb6Status8ToStringEv(%"class.std::__1::basic_string"* nonnull sret %11, %"class.leveldb::Status"* nonnull %6) #12
  call void @_ZN6syncer10ModelErrorC1ERKN4base8LocationERKNSt3__112basic_stringIcNS5_11char_traitsIcEENS5_9allocatorIcEEEE(%"class.syncer::ModelError"* nonnull %9, %"class.base::Location"* nonnull dereferenceable(32) %10, %"class.std::__1::basic_string"* nonnull dereferenceable(24) %11) #12
  %71 = getelementptr inbounds %"class.absl::optional", %"class.absl::optional"* %0, i64 0, i32 0, i32 0, i32 0, i32 0
  store i8 1, i8* %71, align 8
  %72 = getelementptr inbounds %"class.absl::optional", %"class.absl::optional"* %0, i64 0, i32 0, i32 0, i32 0, i32 1, i32 0, i32 0
  %73 = getelementptr inbounds %"class.syncer::ModelError", %"class.syncer::ModelError"* %9, i64 0, i32 0
  call void @_ZN4base8LocationC1ERKS0_(%"class.base::Location"* %72, %"class.base::Location"* nonnull dereferenceable(32) %73) #12
  %74 = getelementptr inbounds %"class.absl::optional", %"class.absl::optional"* %0, i64 0, i32 0, i32 0, i32 0, i32 1, i32 0, i32 1
  %75 = getelementptr inbounds %"class.syncer::ModelError", %"class.syncer::ModelError"* %9, i64 0, i32 1
  %76 = bitcast %"class.std::__1::basic_string"* %75 to %"struct.std::__1::basic_string<char, std::__1::char_traits<char>, std::__1::allocator<char> >::__short"*
  %77 = getelementptr inbounds %"struct.std::__1::basic_string<char, std::__1::char_traits<char>, std::__1::allocator<char> >::__short", %"struct.std::__1::basic_string<char, std::__1::char_traits<char>, std::__1::allocator<char> >::__short"* %76, i64 0, i32 1, i32 0
  %78 = load i8, i8* %77, align 1
  %79 = icmp slt i8 %78, 0
  br i1 %79, label %83, label %80

80:                                               ; preds = %67
  %81 = bitcast %"class.std::__1::basic_string"* %74 to i8*
  %82 = bitcast %"class.std::__1::basic_string"* %75 to i8*
  call void @llvm.memcpy.p0i8.p0i8.i64(i8* align 8 %81, i8* align 8 %82, i64 24, i1 false) #12
  br label %88

83:                                               ; preds = %67
  %84 = getelementptr inbounds %"class.std::__1::basic_string", %"class.std::__1::basic_string"* %75, i64 0, i32 0, i32 0, i32 0, i32 0, i32 0, i32 0
  %85 = load i8*, i8** %84, align 8
  %86 = getelementptr inbounds %"class.syncer::ModelError", %"class.syncer::ModelError"* %9, i64 0, i32 1, i32 0, i32 0, i32 0, i32 0, i32 0, i32 1
  %87 = load i64, i64* %86, align 8
  call void @_ZNSt3__112basic_stringIcNS_11char_traitsIcEENS_9allocatorIcEEE25__init_copy_ctor_externalEPKcm(%"class.std::__1::basic_string"* %74, i8* %85, i64 %87) #12
  br label %88

88:                                               ; preds = %80, %83
  call void @_ZN6syncer10ModelErrorD1Ev(%"class.syncer::ModelError"* nonnull %9) #12
  %89 = bitcast %"class.std::__1::basic_string"* %11 to %"struct.std::__1::basic_string<char, std::__1::char_traits<char>, std::__1::allocator<char> >::__short"*
  %90 = getelementptr inbounds %"struct.std::__1::basic_string<char, std::__1::char_traits<char>, std::__1::allocator<char> >::__short", %"struct.std::__1::basic_string<char, std::__1::char_traits<char>, std::__1::allocator<char> >::__short"* %89, i64 0, i32 1, i32 0
  %91 = load i8, i8* %90, align 1
  %92 = icmp slt i8 %91, 0
  br i1 %92, label %93, label %96

93:                                               ; preds = %88
  %94 = getelementptr inbounds %"class.std::__1::basic_string", %"class.std::__1::basic_string"* %11, i64 0, i32 0, i32 0, i32 0, i32 0, i32 0, i32 0
  %95 = load i8*, i8** %94, align 8
  call void @_ZdlPv(i8* %95) #13
  br label %96

96:                                               ; preds = %88, %93
  call void @llvm.lifetime.end.p0i8(i64 24, i8* nonnull %70) #12
  call void @llvm.lifetime.end.p0i8(i64 32, i8* nonnull %69) #12
  call void @llvm.lifetime.end.p0i8(i64 56, i8* nonnull %68) #12
  br label %141

97:                                               ; preds = %3, %64
  %98 = call i64 @_ZN6syncer21ModelTypeStoreBackend15GetStoreVersionEv(%"class.syncer::ModelTypeStoreBackend"* %1)
  switch i64 %98, label %133 [
    i64 -1, label %99
    i64 1, label %137
  ]

99:                                               ; preds = %97
  %100 = bitcast %"class.syncer::ModelError"* %12 to i8*
  call void @llvm.lifetime.start.p0i8(i64 56, i8* nonnull %100) #12
  %101 = bitcast %"class.base::Location"* %13 to i8*
  call void @llvm.lifetime.start.p0i8(i64 32, i8* nonnull %101) #12
  call void @_ZN4base8Location7CurrentEPKcS2_i(%"class.base::Location"* nonnull sret %13, i8* getelementptr inbounds ([5 x i8], [5 x i8]* @.str.2, i64 0, i64 0), i8* getelementptr inbounds ([56 x i8], [56 x i8]* @.str.3, i64 0, i64 0), i32 95) #12
  %102 = bitcast %"class.std::__1::basic_string"* %14 to i8*
  call void @llvm.lifetime.start.p0i8(i64 24, i8* nonnull %102) #12
  %103 = call i8* @_Znwm(i64 32) #13
  %104 = getelementptr inbounds %"class.std::__1::basic_string", %"class.std::__1::basic_string"* %14, i64 0, i32 0, i32 0, i32 0, i32 0, i32 0, i32 0
  store i8* %103, i8** %104, align 8
  %105 = getelementptr inbounds %"class.std::__1::basic_string", %"class.std::__1::basic_string"* %14, i64 0, i32 0, i32 0, i32 0, i32 0, i32 0, i32 1
  %106 = bitcast i64* %105 to <2 x i64>*
  store <2 x i64> <i64 25, i64 -9223372036854775776>, <2 x i64>* %106, align 8
  call void @llvm.memcpy.p0i8.p0i8.i64(i8* nonnull align 1 %103, i8* align 1 getelementptr inbounds ([26 x i8], [26 x i8]* @.str.4, i64 0, i64 0), i64 25, i1 false) #12
  %107 = getelementptr inbounds i8, i8* %103, i64 25
  store i8 0, i8* %107, align 1
  call void @_ZN6syncer10ModelErrorC1ERKN4base8LocationERKNSt3__112basic_stringIcNS5_11char_traitsIcEENS5_9allocatorIcEEEE(%"class.syncer::ModelError"* nonnull %12, %"class.base::Location"* nonnull dereferenceable(32) %13, %"class.std::__1::basic_string"* nonnull dereferenceable(24) %14) #12
  %108 = getelementptr inbounds %"class.absl::optional", %"class.absl::optional"* %0, i64 0, i32 0, i32 0, i32 0, i32 0
  store i8 1, i8* %108, align 8
  %109 = getelementptr inbounds %"class.absl::optional", %"class.absl::optional"* %0, i64 0, i32 0, i32 0, i32 0, i32 1, i32 0, i32 0
  %110 = getelementptr inbounds %"class.syncer::ModelError", %"class.syncer::ModelError"* %12, i64 0, i32 0
  call void @_ZN4base8LocationC1ERKS0_(%"class.base::Location"* %109, %"class.base::Location"* nonnull dereferenceable(32) %110) #12
  %111 = getelementptr inbounds %"class.absl::optional", %"class.absl::optional"* %0, i64 0, i32 0, i32 0, i32 0, i32 1, i32 0, i32 1
  %112 = getelementptr inbounds %"class.syncer::ModelError", %"class.syncer::ModelError"* %12, i64 0, i32 1
  %113 = bitcast %"class.std::__1::basic_string"* %112 to %"struct.std::__1::basic_string<char, std::__1::char_traits<char>, std::__1::allocator<char> >::__short"*
  %114 = getelementptr inbounds %"struct.std::__1::basic_string<char, std::__1::char_traits<char>, std::__1::allocator<char> >::__short", %"struct.std::__1::basic_string<char, std::__1::char_traits<char>, std::__1::allocator<char> >::__short"* %113, i64 0, i32 1, i32 0
  %115 = load i8, i8* %114, align 1
  %116 = icmp slt i8 %115, 0
  br i1 %116, label %120, label %117

117:                                              ; preds = %99
  %118 = bitcast %"class.std::__1::basic_string"* %111 to i8*
  %119 = bitcast %"class.std::__1::basic_string"* %112 to i8*
  call void @llvm.memcpy.p0i8.p0i8.i64(i8* align 8 %118, i8* align 8 %119, i64 24, i1 false) #12
  br label %125

120:                                              ; preds = %99
  %121 = getelementptr inbounds %"class.std::__1::basic_string", %"class.std::__1::basic_string"* %112, i64 0, i32 0, i32 0, i32 0, i32 0, i32 0, i32 0
  %122 = load i8*, i8** %121, align 8
  %123 = getelementptr inbounds %"class.syncer::ModelError", %"class.syncer::ModelError"* %12, i64 0, i32 1, i32 0, i32 0, i32 0, i32 0, i32 0, i32 1
  %124 = load i64, i64* %123, align 8
  call void @_ZNSt3__112basic_stringIcNS_11char_traitsIcEENS_9allocatorIcEEE25__init_copy_ctor_externalEPKcm(%"class.std::__1::basic_string"* %111, i8* %122, i64 %124) #12
  br label %125

125:                                              ; preds = %117, %120
  call void @_ZN6syncer10ModelErrorD1Ev(%"class.syncer::ModelError"* nonnull %12) #12
  %126 = bitcast %"class.std::__1::basic_string"* %14 to %"struct.std::__1::basic_string<char, std::__1::char_traits<char>, std::__1::allocator<char> >::__short"*
  %127 = getelementptr inbounds %"struct.std::__1::basic_string<char, std::__1::char_traits<char>, std::__1::allocator<char> >::__short", %"struct.std::__1::basic_string<char, std::__1::char_traits<char>, std::__1::allocator<char> >::__short"* %126, i64 0, i32 1, i32 0
  %128 = load i8, i8* %127, align 1
  %129 = icmp slt i8 %128, 0
  br i1 %129, label %130, label %132

130:                                              ; preds = %125
  %131 = load i8*, i8** %104, align 8
  call void @_ZdlPv(i8* %131) #13
  br label %132

132:                                              ; preds = %125, %130
  call void @llvm.lifetime.end.p0i8(i64 24, i8* nonnull %102) #12
  call void @llvm.lifetime.end.p0i8(i64 32, i8* nonnull %101) #12
  call void @llvm.lifetime.end.p0i8(i64 56, i8* nonnull %100) #12
  br label %141

133:                                              ; preds = %97
  %134 = getelementptr inbounds %"class.absl::optional", %"class.absl::optional"* %0, i64 0, i32 0, i32 0, i32 0, i32 0
  call void @llvm.memset.p0i8.i64(i8* align 8 %134, i8 -86, i64 64, i1 false)
  call void @_ZN6syncer21ModelTypeStoreBackend7MigrateEll(%"class.absl::optional"* sret %0, %"class.syncer::ModelTypeStoreBackend"* %1, i64 %98, i64 1)
  %135 = load i8, i8* %134, align 8, !range !2
  %136 = icmp eq i8 %135, 0
  br i1 %136, label %137, label %141

137:                                              ; preds = %133, %97
  %138 = getelementptr inbounds %"class.absl::optional", %"class.absl::optional"* %0, i64 0, i32 0, i32 0, i32 0, i32 0
  store i8 0, i8* %138, align 8
  %139 = getelementptr inbounds %"class.absl::optional", %"class.absl::optional"* %0, i64 0, i32 0, i32 0, i32 0, i32 1
  %140 = bitcast %union.anon.11* %139 to i8*
  call void @llvm.memset.p0i8.i64(i8* align 8 %140, i8 0, i64 56, i1 false) #12
  br label %141

141:                                              ; preds = %133, %132, %137, %96
  %142 = load i8*, i8** %19, align 8
  %143 = icmp eq i8* %142, null
  br i1 %143, label %145, label %144

144:                                              ; preds = %141
  call void @_ZdaPv(i8* nonnull %142) #13
  br label %145

145:                                              ; preds = %141, %144
  call void @llvm.lifetime.end.p0i8(i64 8, i8* nonnull %18) #12
  %146 = bitcast %"class.std::__1::basic_string"* %5 to %"struct.std::__1::basic_string<char, std::__1::char_traits<char>, std::__1::allocator<char> >::__short"*
  %147 = getelementptr inbounds %"struct.std::__1::basic_string<char, std::__1::char_traits<char>, std::__1::allocator<char> >::__short", %"struct.std::__1::basic_string<char, std::__1::char_traits<char>, std::__1::allocator<char> >::__short"* %146, i64 0, i32 1, i32 0
  %148 = load i8, i8* %147, align 1
  %149 = icmp slt i8 %148, 0
  br i1 %149, label %150, label %152

150:                                              ; preds = %145
  %151 = load i8*, i8** %16, align 8
  call void @_ZdlPv(i8* %151) #13
  br label %152

152:                                              ; preds = %145, %150
  call void @llvm.lifetime.end.p0i8(i64 24, i8* nonnull %15) #12
  ret void
}

; Function Attrs: nounwind ssp uwtable
define hidden %"class.syncer::ModelTypeStoreBackend"* @_ZN6syncer21ModelTypeStoreBackend19CreateUninitializedEv() local_unnamed_addr #0 align 2 {
  %1 = tail call i8* @_Znwm(i64 32) #13
  %2 = bitcast i8* %1 to %"class.syncer::ModelTypeStoreBackend"*
  %3 = bitcast i8* %1 to i32*
  store i32 0, i32* %3, align 4
  %4 = getelementptr inbounds i8, i8* %1, i64 8
  call void @llvm.memset.p0i8.i64(i8* align 8 %4, i8 0, i64 24, i1 false)
  %5 = atomicrmw add i32* %3, i32 1 monotonic
  ret %"class.syncer::ModelTypeStoreBackend"* %2
}

; Function Attrs: nounwind ssp uwtable
define hidden void @_ZN6syncer21ModelTypeStoreBackendD2Ev(%"class.syncer::ModelTypeStoreBackend"* nocapture) unnamed_addr #0 align 2 {
  %2 = alloca %"class.base::Location", align 8
  %3 = getelementptr inbounds %"class.syncer::ModelTypeStoreBackend", %"class.syncer::ModelTypeStoreBackend"* %0, i64 0, i32 2, i32 0, i32 0, i32 0
  %4 = load %"class.leveldb::DB"*, %"class.leveldb::DB"** %3, align 8
  store %"class.leveldb::DB"* null, %"class.leveldb::DB"** %3, align 8
  %5 = icmp eq %"class.leveldb::DB"* %4, null
  br i1 %5, label %24, label %6

6:                                                ; preds = %1
  %7 = getelementptr inbounds %"class.syncer::ModelTypeStoreBackend", %"class.syncer::ModelTypeStoreBackend"* %0, i64 0, i32 2, i32 0, i32 1, i32 0, i32 0, i32 0
  %8 = load %"class.base::SequencedTaskRunner"*, %"class.base::SequencedTaskRunner"** %7, align 8
  %9 = bitcast %"class.base::SequencedTaskRunner"* %8 to i1 (%"class.base::SequencedTaskRunner"*)***
  %10 = load i1 (%"class.base::SequencedTaskRunner"*)**, i1 (%"class.base::SequencedTaskRunner"*)*** %9, align 8
  %11 = getelementptr inbounds i1 (%"class.base::SequencedTaskRunner"*)*, i1 (%"class.base::SequencedTaskRunner"*)** %10, i64 5
  %12 = load i1 (%"class.base::SequencedTaskRunner"*)*, i1 (%"class.base::SequencedTaskRunner"*)** %11, align 8
  %13 = tail call zeroext i1 %12(%"class.base::SequencedTaskRunner"* %8) #12
  br i1 %13, label %14, label %19

14:                                               ; preds = %6
  %15 = bitcast %"class.leveldb::DB"* %4 to void (%"class.leveldb::DB"*)***
  %16 = load void (%"class.leveldb::DB"*)**, void (%"class.leveldb::DB"*)*** %15, align 8
  %17 = getelementptr inbounds void (%"class.leveldb::DB"*)*, void (%"class.leveldb::DB"*)** %16, i64 1
  %18 = load void (%"class.leveldb::DB"*)*, void (%"class.leveldb::DB"*)** %17, align 8
  tail call void %18(%"class.leveldb::DB"* nonnull %4) #12
  br label %24

19:                                               ; preds = %6
  %20 = load %"class.base::SequencedTaskRunner"*, %"class.base::SequencedTaskRunner"** %7, align 8
  %21 = bitcast %"class.base::Location"* %2 to i8*
  call void @llvm.lifetime.start.p0i8(i64 32, i8* nonnull %21) #12
  call void @_ZN4base8Location7CurrentEPKcS2_i(%"class.base::Location"* nonnull sret %2, i8* getelementptr inbounds ([11 x i8], [11 x i8]* @.str.15, i64 0, i64 0), i8* getelementptr inbounds ([55 x i8], [55 x i8]* @.str.16, i64 0, i64 0), i32 114) #12
  %22 = bitcast %"class.leveldb::DB"* %4 to i8*
  %23 = call zeroext i1 @_ZN4base19SequencedTaskRunner27DeleteOrReleaseSoonInternalERKNS_8LocationEPFvPKvES5_(%"class.base::SequencedTaskRunner"* %20, %"class.base::Location"* nonnull dereferenceable(32) %2, void (i8*)* nonnull @_ZN4base12DeleteHelperIN7leveldb2DBEE8DoDeleteEPKv, i8* nonnull %22) #12
  call void @llvm.lifetime.end.p0i8(i64 32, i8* nonnull %21) #12
  br label %24

24:                                               ; preds = %19, %14, %1
  %25 = getelementptr inbounds %"class.syncer::ModelTypeStoreBackend", %"class.syncer::ModelTypeStoreBackend"* %0, i64 0, i32 2, i32 0, i32 1, i32 0, i32 0, i32 0
  %26 = load %"class.base::SequencedTaskRunner"*, %"class.base::SequencedTaskRunner"** %25, align 8
  %27 = icmp eq %"class.base::SequencedTaskRunner"* %26, null
  br i1 %27, label %36, label %28

28:                                               ; preds = %24
  %29 = getelementptr inbounds %"class.base::SequencedTaskRunner", %"class.base::SequencedTaskRunner"* %26, i64 0, i32 0, i32 1
  %30 = getelementptr inbounds %"class.base::RefCountedThreadSafe", %"class.base::RefCountedThreadSafe"* %29, i64 0, i32 0, i32 0, i32 0, i32 0, i32 0, i32 0, i32 0, i32 0
  %31 = atomicrmw sub i32* %30, i32 1 acq_rel
  %32 = icmp eq i32 %31, 1
  br i1 %32, label %33, label %36

33:                                               ; preds = %28
  %34 = getelementptr inbounds %"class.base::RefCountedThreadSafe", %"class.base::RefCountedThreadSafe"* %29, i64 -2
  %35 = bitcast %"class.base::RefCountedThreadSafe"* %34 to %"class.base::TaskRunner"*
  call void @_ZN4base16TaskRunnerTraits8DestructEPKNS_10TaskRunnerE(%"class.base::TaskRunner"* %35) #12
  br label %36

36:                                               ; preds = %24, %28, %33
  %37 = getelementptr inbounds %"class.syncer::ModelTypeStoreBackend", %"class.syncer::ModelTypeStoreBackend"* %0, i64 0, i32 1, i32 0, i32 0, i32 0
  %38 = load %"class.leveldb::Env"*, %"class.leveldb::Env"** %37, align 8
  store %"class.leveldb::Env"* null, %"class.leveldb::Env"** %37, align 8
  %39 = icmp eq %"class.leveldb::Env"* %38, null
  br i1 %39, label %45, label %40

40:                                               ; preds = %36
  %41 = bitcast %"class.leveldb::Env"* %38 to void (%"class.leveldb::Env"*)***
  %42 = load void (%"class.leveldb::Env"*)**, void (%"class.leveldb::Env"*)*** %41, align 8
  %43 = getelementptr inbounds void (%"class.leveldb::Env"*)*, void (%"class.leveldb::Env"*)** %42, i64 1
  %44 = load void (%"class.leveldb::Env"*)*, void (%"class.leveldb::Env"*)** %43, align 8
  call void %44(%"class.leveldb::Env"* nonnull %38) #12
  br label %45

45:                                               ; preds = %36, %40
  ret void
}

declare void @_ZNK4base8FilePath12AsUTF8UnsafeEv(%"class.std::__1::basic_string"* sret, %"class.base::FilePath"*) local_unnamed_addr #3

; Function Attrs: nounwind ssp uwtable
define hidden void @_ZN6syncer21ModelTypeStoreBackend12OpenDatabaseERKNSt3__112basic_stringIcNS1_11char_traitsIcEENS1_9allocatorIcEEEEPN7leveldb3EnvE(%"class.leveldb::Status"* noalias sret, %"class.syncer::ModelTypeStoreBackend"* nocapture, %"class.std::__1::basic_string"* dereferenceable(24), %"class.leveldb::Env"*) local_unnamed_addr #0 align 2 {
  %5 = alloca %"class.base::Location", align 8
  %6 = alloca %"struct.leveldb_env::Options", align 8
  %7 = alloca %"class.std::__1::unique_ptr.14", align 8
  %8 = bitcast %"struct.leveldb_env::Options"* %6 to i8*
  call void @llvm.lifetime.start.p0i8(i64 112, i8* nonnull %8) #12
  call void @llvm.memset.p0i8.i64(i8* nonnull align 8 %8, i8 -86, i64 112, i1 false)
  call void @_ZN11leveldb_env7OptionsC1Ev(%"struct.leveldb_env::Options"* nonnull %6) #12
  %9 = getelementptr inbounds %"struct.leveldb_env::Options", %"struct.leveldb_env::Options"* %6, i64 0, i32 0, i32 1
  store i8 1, i8* %9, align 8
  %10 = getelementptr inbounds %"struct.leveldb_env::Options", %"struct.leveldb_env::Options"* %6, i64 0, i32 0, i32 3
  store i8 1, i8* %10, align 2
  %11 = getelementptr inbounds %"struct.leveldb_env::Options", %"struct.leveldb_env::Options"* %6, i64 0, i32 0, i32 6
  store i64 524288, i64* %11, align 8
  %12 = icmp eq %"class.leveldb::Env"* %3, null
  br i1 %12, label %15, label %13

13:                                               ; preds = %4
  %14 = getelementptr inbounds %"struct.leveldb_env::Options", %"struct.leveldb_env::Options"* %6, i64 0, i32 0, i32 4
  store %"class.leveldb::Env"* %3, %"class.leveldb::Env"** %14, align 8
  br label %15

15:                                               ; preds = %4, %13
  %16 = bitcast %"class.std::__1::unique_ptr.14"* %7 to i8*
  call void @llvm.lifetime.start.p0i8(i64 8, i8* nonnull %16) #12
  %17 = getelementptr inbounds %"class.std::__1::unique_ptr.14", %"class.std::__1::unique_ptr.14"* %7, i64 0, i32 0, i32 0, i32 0
  %18 = bitcast %"class.std::__1::unique_ptr.14"* %7 to i64*
  store i64 0, i64* %18, align 8
  %19 = getelementptr inbounds %"class.leveldb::Status", %"class.leveldb::Status"* %0, i64 0, i32 0
  store i8* inttoptr (i64 -6148914691236517206 to i8*), i8** %19, align 8
  call void @_ZN11leveldb_env6OpenDBERKNS_7OptionsERKNSt3__112basic_stringIcNS3_11char_traitsIcEENS3_9allocatorIcEEEEPNS3_10unique_ptrIN7leveldb2DBENS3_14default_deleteISE_EEEE(%"class.leveldb::Status"* sret %0, %"struct.leveldb_env::Options"* nonnull dereferenceable(112) %6, %"class.std::__1::basic_string"* dereferenceable(24) %2, %"class.std::__1::unique_ptr.14"* nonnull %7) #12
  %20 = load i64, i64* %18, align 8
  store %"class.leveldb::DB"* null, %"class.leveldb::DB"** %17, align 8
  %21 = call dereferenceable(8) %class.scoped_refptr* @_ZN4base25SequencedTaskRunnerHandle3GetEv() #12
  %22 = getelementptr inbounds %class.scoped_refptr, %class.scoped_refptr* %21, i64 0, i32 0
  %23 = load %"class.base::SequencedTaskRunner"*, %"class.base::SequencedTaskRunner"** %22, align 8
  %24 = icmp eq %"class.base::SequencedTaskRunner"* %23, null
  br i1 %24, label %28, label %25

25:                                               ; preds = %15
  %26 = getelementptr inbounds %"class.base::SequencedTaskRunner", %"class.base::SequencedTaskRunner"* %23, i64 0, i32 0, i32 1, i32 0, i32 0, i32 0, i32 0, i32 0, i32 0, i32 0, i32 0
  %27 = atomicrmw add i32* %26, i32 1 monotonic
  br label %28

28:                                               ; preds = %15, %25
  %29 = ptrtoint %"class.base::SequencedTaskRunner"* %23 to i64
  %30 = getelementptr inbounds %"class.syncer::ModelTypeStoreBackend", %"class.syncer::ModelTypeStoreBackend"* %1, i64 0, i32 2
  %31 = getelementptr inbounds %"class.std::__1::unique_ptr.4", %"class.std::__1::unique_ptr.4"* %30, i64 0, i32 0, i32 0, i32 0
  %32 = load %"class.leveldb::DB"*, %"class.leveldb::DB"** %31, align 8
  %33 = bitcast %"class.std::__1::unique_ptr.4"* %30 to i64*
  store i64 %20, i64* %33, align 8
  %34 = icmp eq %"class.leveldb::DB"* %32, null
  br i1 %34, label %53, label %35

35:                                               ; preds = %28
  %36 = getelementptr inbounds %"class.syncer::ModelTypeStoreBackend", %"class.syncer::ModelTypeStoreBackend"* %1, i64 0, i32 2, i32 0, i32 1, i32 0, i32 0, i32 0
  %37 = load %"class.base::SequencedTaskRunner"*, %"class.base::SequencedTaskRunner"** %36, align 8
  %38 = bitcast %"class.base::SequencedTaskRunner"* %37 to i1 (%"class.base::SequencedTaskRunner"*)***
  %39 = load i1 (%"class.base::SequencedTaskRunner"*)**, i1 (%"class.base::SequencedTaskRunner"*)*** %38, align 8
  %40 = getelementptr inbounds i1 (%"class.base::SequencedTaskRunner"*)*, i1 (%"class.base::SequencedTaskRunner"*)** %39, i64 5
  %41 = load i1 (%"class.base::SequencedTaskRunner"*)*, i1 (%"class.base::SequencedTaskRunner"*)** %40, align 8
  %42 = call zeroext i1 %41(%"class.base::SequencedTaskRunner"* %37) #12
  br i1 %42, label %43, label %48

43:                                               ; preds = %35
  %44 = bitcast %"class.leveldb::DB"* %32 to void (%"class.leveldb::DB"*)***
  %45 = load void (%"class.leveldb::DB"*)**, void (%"class.leveldb::DB"*)*** %44, align 8
  %46 = getelementptr inbounds void (%"class.leveldb::DB"*)*, void (%"class.leveldb::DB"*)** %45, i64 1
  %47 = load void (%"class.leveldb::DB"*)*, void (%"class.leveldb::DB"*)** %46, align 8
  call void %47(%"class.leveldb::DB"* nonnull %32) #12
  br label %53

48:                                               ; preds = %35
  %49 = load %"class.base::SequencedTaskRunner"*, %"class.base::SequencedTaskRunner"** %36, align 8
  %50 = bitcast %"class.base::Location"* %5 to i8*
  call void @llvm.lifetime.start.p0i8(i64 32, i8* nonnull %50) #12
  call void @_ZN4base8Location7CurrentEPKcS2_i(%"class.base::Location"* nonnull sret %5, i8* getelementptr inbounds ([11 x i8], [11 x i8]* @.str.15, i64 0, i64 0), i8* getelementptr inbounds ([55 x i8], [55 x i8]* @.str.16, i64 0, i64 0), i32 114) #12
  %51 = bitcast %"class.leveldb::DB"* %32 to i8*
  %52 = call zeroext i1 @_ZN4base19SequencedTaskRunner27DeleteOrReleaseSoonInternalERKNS_8LocationEPFvPKvES5_(%"class.base::SequencedTaskRunner"* %49, %"class.base::Location"* nonnull dereferenceable(32) %5, void (i8*)* nonnull @_ZN4base12DeleteHelperIN7leveldb2DBEE8DoDeleteEPKv, i8* nonnull %51) #12
  call void @llvm.lifetime.end.p0i8(i64 32, i8* nonnull %50) #12
  br label %53

53:                                               ; preds = %48, %43, %28
  %54 = getelementptr inbounds %"class.syncer::ModelTypeStoreBackend", %"class.syncer::ModelTypeStoreBackend"* %1, i64 0, i32 2, i32 0, i32 1, i32 0
  %55 = bitcast %"struct.syncer::ModelTypeStoreBackend::CustomOnTaskRunnerDeleter"* %54 to i64*
  %56 = getelementptr inbounds %"struct.syncer::ModelTypeStoreBackend::CustomOnTaskRunnerDeleter", %"struct.syncer::ModelTypeStoreBackend::CustomOnTaskRunnerDeleter"* %54, i64 0, i32 0, i32 0
  %57 = load %"class.base::SequencedTaskRunner"*, %"class.base::SequencedTaskRunner"** %56, align 8
  store i64 %29, i64* %55, align 8
  %58 = icmp eq %"class.base::SequencedTaskRunner"* %57, null
  br i1 %58, label %67, label %59

59:                                               ; preds = %53
  %60 = getelementptr inbounds %"class.base::SequencedTaskRunner", %"class.base::SequencedTaskRunner"* %57, i64 0, i32 0, i32 1
  %61 = getelementptr inbounds %"class.base::RefCountedThreadSafe", %"class.base::RefCountedThreadSafe"* %60, i64 0, i32 0, i32 0, i32 0, i32 0, i32 0, i32 0, i32 0, i32 0
  %62 = atomicrmw sub i32* %61, i32 1 acq_rel
  %63 = icmp eq i32 %62, 1
  br i1 %63, label %64, label %67

64:                                               ; preds = %59
  %65 = getelementptr inbounds %"class.base::RefCountedThreadSafe", %"class.base::RefCountedThreadSafe"* %60, i64 -2
  %66 = bitcast %"class.base::RefCountedThreadSafe"* %65 to %"class.base::TaskRunner"*
  call void @_ZN4base16TaskRunnerTraits8DestructEPKNS_10TaskRunnerE(%"class.base::TaskRunner"* %66) #12
  br label %67

67:                                               ; preds = %64, %59, %53
  %68 = load %"class.leveldb::DB"*, %"class.leveldb::DB"** %17, align 8
  store %"class.leveldb::DB"* null, %"class.leveldb::DB"** %17, align 8
  %69 = icmp eq %"class.leveldb::DB"* %68, null
  br i1 %69, label %75, label %70

70:                                               ; preds = %67
  %71 = bitcast %"class.leveldb::DB"* %68 to void (%"class.leveldb::DB"*)***
  %72 = load void (%"class.leveldb::DB"*)**, void (%"class.leveldb::DB"*)*** %71, align 8
  %73 = getelementptr inbounds void (%"class.leveldb::DB"*)*, void (%"class.leveldb::DB"*)** %72, i64 1
  %74 = load void (%"class.leveldb::DB"*)*, void (%"class.leveldb::DB"*)** %73, align 8
  call void %74(%"class.leveldb::DB"* nonnull %68) #12
  br label %75

75:                                               ; preds = %67, %70
  call void @llvm.lifetime.end.p0i8(i64 8, i8* nonnull %16) #12
  %76 = getelementptr inbounds %"struct.leveldb_env::Options", %"struct.leveldb_env::Options"* %6, i64 0, i32 2, i32 0, i32 0
  call void @_ZN4base8internal12CallbackBaseD2Ev(%"class.base::internal::CallbackBase"* %76) #12
  %77 = getelementptr inbounds %"struct.leveldb_env::Options", %"struct.leveldb_env::Options"* %6, i64 0, i32 1, i32 0, i32 0
  call void @_ZN4base8internal12CallbackBaseD2Ev(%"class.base::internal::CallbackBase"* %77) #12
  call void @llvm.lifetime.end.p0i8(i64 112, i8* nonnull %8) #12
  ret void
}

; Function Attrs: nounwind ssp uwtable
define hidden void @_ZN6syncer21ModelTypeStoreBackend15DestroyDatabaseERKNSt3__112basic_stringIcNS1_11char_traitsIcEENS1_9allocatorIcEEEEPN7leveldb3EnvE(%"class.leveldb::Status"* noalias sret, %"class.syncer::ModelTypeStoreBackend"* nocapture readnone, %"class.std::__1::basic_string"* dereferenceable(24), %"class.leveldb::Env"*) local_unnamed_addr #0 align 2 {
  %5 = alloca %"struct.leveldb_env::Options", align 8
  %6 = bitcast %"struct.leveldb_env::Options"* %5 to i8*
  call void @llvm.lifetime.start.p0i8(i64 112, i8* nonnull %6) #12
  call void @llvm.memset.p0i8.i64(i8* nonnull align 8 %6, i8 -86, i64 112, i1 false)
  call void @_ZN11leveldb_env7OptionsC1Ev(%"struct.leveldb_env::Options"* nonnull %5) #12
  %7 = icmp eq %"class.leveldb::Env"* %3, null
  br i1 %7, label %10, label %8

8:                                                ; preds = %4
  %9 = getelementptr inbounds %"struct.leveldb_env::Options", %"struct.leveldb_env::Options"* %5, i64 0, i32 0, i32 4
  store %"class.leveldb::Env"* %3, %"class.leveldb::Env"** %9, align 8
  br label %10

10:                                               ; preds = %4, %8
  %11 = getelementptr inbounds %"struct.leveldb_env::Options", %"struct.leveldb_env::Options"* %5, i64 0, i32 0
  call void @_ZN7leveldb9DestroyDBERKNSt3__112basic_stringIcNS0_11char_traitsIcEENS0_9allocatorIcEEEERKNS_7OptionsE(%"class.leveldb::Status"* sret %0, %"class.std::__1::basic_string"* dereferenceable(24) %2, %"struct.leveldb::Options"* nonnull dereferenceable(96) %11) #12
  %12 = getelementptr inbounds %"struct.leveldb_env::Options", %"struct.leveldb_env::Options"* %5, i64 0, i32 2, i32 0, i32 0
  call void @_ZN4base8internal12CallbackBaseD2Ev(%"class.base::internal::CallbackBase"* %12) #12
  %13 = getelementptr inbounds %"struct.leveldb_env::Options", %"struct.leveldb_env::Options"* %5, i64 0, i32 1, i32 0, i32 0
  call void @_ZN4base8internal12CallbackBaseD2Ev(%"class.base::internal::CallbackBase"* %13) #12
  call void @llvm.lifetime.end.p0i8(i64 112, i8* nonnull %6) #12
  ret void
}

declare void @_ZN4base8Location7CurrentEPKcS2_i(%"class.base::Location"* sret, i8*, i8*, i32) local_unnamed_addr #3

declare void @_ZNK7leveldb6Status8ToStringEv(%"class.std::__1::basic_string"* sret, %"class.leveldb::Status"*) local_unnamed_addr #3

declare void @_ZN6syncer10ModelErrorC1ERKN4base8LocationERKNSt3__112basic_stringIcNS5_11char_traitsIcEENS5_9allocatorIcEEEE(%"class.syncer::ModelError"*, %"class.base::Location"* dereferenceable(32), %"class.std::__1::basic_string"* dereferenceable(24)) unnamed_addr #3

; Function Attrs: nounwind
declare void @_ZN6syncer10ModelErrorD1Ev(%"class.syncer::ModelError"*) unnamed_addr #4

; Function Attrs: nounwind ssp uwtable
define hidden i64 @_ZN6syncer21ModelTypeStoreBackend15GetStoreVersionEv(%"class.syncer::ModelTypeStoreBackend"* nocapture readonly) local_unnamed_addr #0 align 2 {
  %2 = alloca %"struct.leveldb::ReadOptions", align 8
  %3 = alloca %"class.std::__1::basic_string", align 8
  %4 = alloca %"class.sync_pb::ModelTypeStoreSchemaDescriptor", align 8
  %5 = alloca %"class.leveldb::Status", align 8
  %6 = alloca %"class.leveldb::Slice", align 8
  %7 = getelementptr inbounds %"struct.leveldb::ReadOptions", %"struct.leveldb::ReadOptions"* %2, i64 0, i32 0
  call void @llvm.lifetime.start.p0i8(i64 16, i8* nonnull %7) #12
  %8 = bitcast %"struct.leveldb::ReadOptions"* %2 to i64*
  store i64 -6148914691236517206, i64* %8, align 8
  %9 = getelementptr inbounds %"struct.leveldb::ReadOptions", %"struct.leveldb::ReadOptions"* %2, i64 0, i32 1
  %10 = getelementptr inbounds %"struct.leveldb::ReadOptions", %"struct.leveldb::ReadOptions"* %2, i64 0, i32 2
  store %"class.leveldb::Snapshot"* null, %"class.leveldb::Snapshot"** %10, align 8
  store i8 1, i8* %7, align 8
  store i8 0, i8* %9, align 1
  %11 = bitcast %"class.std::__1::basic_string"* %3 to i8*
  call void @llvm.lifetime.start.p0i8(i64 24, i8* nonnull %11) #12
  %12 = getelementptr inbounds %"class.std::__1::basic_string", %"class.std::__1::basic_string"* %3, i64 0, i32 0, i32 0, i32 0, i32 0, i32 0, i32 0
  call void @llvm.memset.p0i8.i64(i8* nonnull align 8 %11, i8 0, i64 24, i1 false) #12
  %13 = bitcast %"class.sync_pb::ModelTypeStoreSchemaDescriptor"* %4 to i8*
  call void @llvm.lifetime.start.p0i8(i64 32, i8* nonnull %13) #12
  %14 = bitcast %"class.sync_pb::ModelTypeStoreSchemaDescriptor"* %4 to i8*
  call void @llvm.memset.p0i8.i64(i8* nonnull align 8 %14, i8 -86, i64 32, i1 false)
  call void @_ZN7sync_pb30ModelTypeStoreSchemaDescriptorC2EPN6google8protobuf5ArenaE(%"class.sync_pb::ModelTypeStoreSchemaDescriptor"* nonnull %4, %"class.google::protobuf::Arena"* null) #12
  %15 = bitcast %"class.leveldb::Status"* %5 to i8*
  call void @llvm.lifetime.start.p0i8(i64 8, i8* nonnull %15) #12
  %16 = getelementptr inbounds %"class.leveldb::Status", %"class.leveldb::Status"* %5, i64 0, i32 0
  store i8* inttoptr (i64 -6148914691236517206 to i8*), i8** %16, align 8
  %17 = getelementptr inbounds %"class.syncer::ModelTypeStoreBackend", %"class.syncer::ModelTypeStoreBackend"* %0, i64 0, i32 2, i32 0, i32 0, i32 0
  %18 = load %"class.leveldb::DB"*, %"class.leveldb::DB"** %17, align 8
  %19 = bitcast %"class.leveldb::Slice"* %6 to i8*
  call void @llvm.lifetime.start.p0i8(i64 16, i8* nonnull %19) #12
  %20 = getelementptr inbounds %"class.leveldb::Slice", %"class.leveldb::Slice"* %6, i64 0, i32 0
  store i8* getelementptr inbounds ([23 x i8], [23 x i8]* @_ZN6syncer21ModelTypeStoreBackend27kDBSchemaDescriptorRecordIdE, i64 0, i64 0), i8** %20, align 8
  %21 = getelementptr inbounds %"class.leveldb::Slice", %"class.leveldb::Slice"* %6, i64 0, i32 1
  store i64 22, i64* %21, align 8
  %22 = bitcast %"class.leveldb::DB"* %18 to void (%"class.leveldb::Status"*, %"class.leveldb::DB"*, %"struct.leveldb::ReadOptions"*, %"class.leveldb::Slice"*, %"class.std::__1::basic_string"*)***
  %23 = load void (%"class.leveldb::Status"*, %"class.leveldb::DB"*, %"struct.leveldb::ReadOptions"*, %"class.leveldb::Slice"*, %"class.std::__1::basic_string"*)**, void (%"class.leveldb::Status"*, %"class.leveldb::DB"*, %"struct.leveldb::ReadOptions"*, %"class.leveldb::Slice"*, %"class.std::__1::basic_string"*)*** %22, align 8
  %24 = getelementptr inbounds void (%"class.leveldb::Status"*, %"class.leveldb::DB"*, %"struct.leveldb::ReadOptions"*, %"class.leveldb::Slice"*, %"class.std::__1::basic_string"*)*, void (%"class.leveldb::Status"*, %"class.leveldb::DB"*, %"struct.leveldb::ReadOptions"*, %"class.leveldb::Slice"*, %"class.std::__1::basic_string"*)** %23, i64 5
  %25 = load void (%"class.leveldb::Status"*, %"class.leveldb::DB"*, %"struct.leveldb::ReadOptions"*, %"class.leveldb::Slice"*, %"class.std::__1::basic_string"*)*, void (%"class.leveldb::Status"*, %"class.leveldb::DB"*, %"struct.leveldb::ReadOptions"*, %"class.leveldb::Slice"*, %"class.std::__1::basic_string"*)** %24, align 8
  call void %25(%"class.leveldb::Status"* nonnull sret %5, %"class.leveldb::DB"* %18, %"struct.leveldb::ReadOptions"* nonnull dereferenceable(16) %2, %"class.leveldb::Slice"* nonnull dereferenceable(16) %6, %"class.std::__1::basic_string"* nonnull %3) #12
  call void @llvm.lifetime.end.p0i8(i64 16, i8* nonnull %19) #12
  %26 = load i8*, i8** %16, align 8
  %27 = icmp eq i8* %26, null
  br i1 %27, label %33, label %28

28:                                               ; preds = %1
  %29 = getelementptr inbounds i8, i8* %26, i64 4
  %30 = load i8, i8* %29, align 1
  %31 = icmp ne i8 %30, 1
  %32 = sext i1 %31 to i64
  br label %41

33:                                               ; preds = %1
  %34 = getelementptr inbounds %"class.sync_pb::ModelTypeStoreSchemaDescriptor", %"class.sync_pb::ModelTypeStoreSchemaDescriptor"* %4, i64 0, i32 3
  %35 = getelementptr inbounds %"class.sync_pb::ModelTypeStoreSchemaDescriptor", %"class.sync_pb::ModelTypeStoreSchemaDescriptor"* %4, i64 0, i32 0
  %36 = call zeroext i1 @_ZN6google8protobuf11MessageLite15ParseFromStringERKNSt3__112basic_stringIcNS2_11char_traitsIcEENS2_9allocatorIcEEEE(%"class.google::protobuf::MessageLite"* nonnull %35, %"class.std::__1::basic_string"* nonnull dereferenceable(24) %3) #12
  %37 = load i64, i64* %34, align 8
  %38 = select i1 %36, i64 %37, i64 -1
  %39 = load i8*, i8** %16, align 8
  %40 = icmp eq i8* %39, null
  br i1 %40, label %44, label %41

41:                                               ; preds = %28, %33
  %42 = phi i64 [ %32, %28 ], [ %38, %33 ]
  %43 = phi i8* [ %26, %28 ], [ %39, %33 ]
  call void @_ZdaPv(i8* nonnull %43) #13
  br label %44

44:                                               ; preds = %33, %41
  %45 = phi i64 [ %38, %33 ], [ %42, %41 ]
  call void @llvm.lifetime.end.p0i8(i64 8, i8* nonnull %15) #12
  call void @_ZN7sync_pb30ModelTypeStoreSchemaDescriptorD1Ev(%"class.sync_pb::ModelTypeStoreSchemaDescriptor"* nonnull %4) #12
  call void @llvm.lifetime.end.p0i8(i64 32, i8* nonnull %13) #12
  %46 = bitcast %"class.std::__1::basic_string"* %3 to %"struct.std::__1::basic_string<char, std::__1::char_traits<char>, std::__1::allocator<char> >::__short"*
  %47 = getelementptr inbounds %"struct.std::__1::basic_string<char, std::__1::char_traits<char>, std::__1::allocator<char> >::__short", %"struct.std::__1::basic_string<char, std::__1::char_traits<char>, std::__1::allocator<char> >::__short"* %46, i64 0, i32 1, i32 0
  %48 = load i8, i8* %47, align 1
  %49 = icmp slt i8 %48, 0
  br i1 %49, label %50, label %52

50:                                               ; preds = %44
  %51 = load i8*, i8** %12, align 8
  call void @_ZdlPv(i8* %51) #13
  br label %52

52:                                               ; preds = %44, %50
  call void @llvm.lifetime.end.p0i8(i64 24, i8* nonnull %11) #12
  call void @llvm.lifetime.end.p0i8(i64 16, i8* nonnull %7) #12
  ret i64 %45
}

; Function Attrs: nounwind ssp uwtable
define hidden void @_ZN6syncer21ModelTypeStoreBackend7MigrateEll(%"class.absl::optional"* noalias sret, %"class.syncer::ModelTypeStoreBackend"* nocapture readonly, i64, i64) local_unnamed_addr #0 align 2 {
  %5 = alloca %"class.syncer::ModelError", align 8
  %6 = alloca %"class.base::Location", align 8
  %7 = alloca %"class.std::__1::basic_string", align 8
  %8 = alloca %"class.syncer::ModelError", align 8
  %9 = alloca %"class.base::Location", align 8
  %10 = alloca %"class.std::__1::basic_string", align 8
  %11 = icmp eq i64 %2, 0
  br i1 %11, label %12, label %15

12:                                               ; preds = %4
  %13 = tail call zeroext i1 @_ZN6syncer21ModelTypeStoreBackend11Migrate0To1Ev(%"class.syncer::ModelTypeStoreBackend"* %1)
  %14 = zext i1 %13 to i64
  br label %15

15:                                               ; preds = %12, %4
  %16 = phi i64 [ %2, %4 ], [ %14, %12 ]
  %17 = icmp eq i64 %16, %3
  br i1 %17, label %18, label %22

18:                                               ; preds = %15
  %19 = getelementptr inbounds %"class.absl::optional", %"class.absl::optional"* %0, i64 0, i32 0, i32 0, i32 0, i32 0
  store i8 0, i8* %19, align 8
  %20 = getelementptr inbounds %"class.absl::optional", %"class.absl::optional"* %0, i64 0, i32 0, i32 0, i32 0, i32 1
  %21 = bitcast %union.anon.11* %20 to i8*
  tail call void @llvm.memset.p0i8.i64(i8* align 8 %21, i8 0, i64 56, i1 false) #12
  br label %89

22:                                               ; preds = %15
  %23 = icmp sgt i64 %16, %3
  br i1 %23, label %24, label %58

24:                                               ; preds = %22
  %25 = bitcast %"class.syncer::ModelError"* %5 to i8*
  call void @llvm.lifetime.start.p0i8(i64 56, i8* nonnull %25) #12
  %26 = bitcast %"class.base::Location"* %6 to i8*
  call void @llvm.lifetime.start.p0i8(i64 32, i8* nonnull %26) #12
  call void @_ZN4base8Location7CurrentEPKcS2_i(%"class.base::Location"* nonnull sret %6, i8* getelementptr inbounds ([8 x i8], [8 x i8]* @.str.9, i64 0, i64 0), i8* getelementptr inbounds ([56 x i8], [56 x i8]* @.str.3, i64 0, i64 0), i32 270) #12
  %27 = bitcast %"class.std::__1::basic_string"* %7 to i8*
  call void @llvm.lifetime.start.p0i8(i64 24, i8* nonnull %27) #12
  %28 = call i8* @_Znwm(i64 32) #13
  %29 = getelementptr inbounds %"class.std::__1::basic_string", %"class.std::__1::basic_string"* %7, i64 0, i32 0, i32 0, i32 0, i32 0, i32 0, i32 0
  store i8* %28, i8** %29, align 8
  %30 = getelementptr inbounds %"class.std::__1::basic_string", %"class.std::__1::basic_string"* %7, i64 0, i32 0, i32 0, i32 0, i32 0, i32 0, i32 1
  %31 = bitcast i64* %30 to <2 x i64>*
  store <2 x i64> <i64 23, i64 -9223372036854775776>, <2 x i64>* %31, align 8
  call void @llvm.memcpy.p0i8.p0i8.i64(i8* nonnull align 1 %28, i8* align 1 getelementptr inbounds ([24 x i8], [24 x i8]* @.str.10, i64 0, i64 0), i64 23, i1 false) #12
  %32 = getelementptr inbounds i8, i8* %28, i64 23
  store i8 0, i8* %32, align 1
  call void @_ZN6syncer10ModelErrorC1ERKN4base8LocationERKNSt3__112basic_stringIcNS5_11char_traitsIcEENS5_9allocatorIcEEEE(%"class.syncer::ModelError"* nonnull %5, %"class.base::Location"* nonnull dereferenceable(32) %6, %"class.std::__1::basic_string"* nonnull dereferenceable(24) %7) #12
  %33 = getelementptr inbounds %"class.absl::optional", %"class.absl::optional"* %0, i64 0, i32 0, i32 0, i32 0, i32 0
  store i8 1, i8* %33, align 8
  %34 = getelementptr inbounds %"class.absl::optional", %"class.absl::optional"* %0, i64 0, i32 0, i32 0, i32 0, i32 1, i32 0, i32 0
  %35 = getelementptr inbounds %"class.syncer::ModelError", %"class.syncer::ModelError"* %5, i64 0, i32 0
  call void @_ZN4base8LocationC1ERKS0_(%"class.base::Location"* %34, %"class.base::Location"* nonnull dereferenceable(32) %35) #12
  %36 = getelementptr inbounds %"class.absl::optional", %"class.absl::optional"* %0, i64 0, i32 0, i32 0, i32 0, i32 1, i32 0, i32 1
  %37 = getelementptr inbounds %"class.syncer::ModelError", %"class.syncer::ModelError"* %5, i64 0, i32 1
  %38 = bitcast %"class.std::__1::basic_string"* %37 to %"struct.std::__1::basic_string<char, std::__1::char_traits<char>, std::__1::allocator<char> >::__short"*
  %39 = getelementptr inbounds %"struct.std::__1::basic_string<char, std::__1::char_traits<char>, std::__1::allocator<char> >::__short", %"struct.std::__1::basic_string<char, std::__1::char_traits<char>, std::__1::allocator<char> >::__short"* %38, i64 0, i32 1, i32 0
  %40 = load i8, i8* %39, align 1
  %41 = icmp slt i8 %40, 0
  br i1 %41, label %45, label %42

42:                                               ; preds = %24
  %43 = bitcast %"class.std::__1::basic_string"* %36 to i8*
  %44 = bitcast %"class.std::__1::basic_string"* %37 to i8*
  call void @llvm.memcpy.p0i8.p0i8.i64(i8* align 8 %43, i8* align 8 %44, i64 24, i1 false) #12
  br label %50

45:                                               ; preds = %24
  %46 = getelementptr inbounds %"class.std::__1::basic_string", %"class.std::__1::basic_string"* %37, i64 0, i32 0, i32 0, i32 0, i32 0, i32 0, i32 0
  %47 = load i8*, i8** %46, align 8
  %48 = getelementptr inbounds %"class.syncer::ModelError", %"class.syncer::ModelError"* %5, i64 0, i32 1, i32 0, i32 0, i32 0, i32 0, i32 0, i32 1
  %49 = load i64, i64* %48, align 8
  call void @_ZNSt3__112basic_stringIcNS_11char_traitsIcEENS_9allocatorIcEEE25__init_copy_ctor_externalEPKcm(%"class.std::__1::basic_string"* %36, i8* %47, i64 %49) #12
  br label %50

50:                                               ; preds = %42, %45
  call void @_ZN6syncer10ModelErrorD1Ev(%"class.syncer::ModelError"* nonnull %5) #12
  %51 = bitcast %"class.std::__1::basic_string"* %7 to %"struct.std::__1::basic_string<char, std::__1::char_traits<char>, std::__1::allocator<char> >::__short"*
  %52 = getelementptr inbounds %"struct.std::__1::basic_string<char, std::__1::char_traits<char>, std::__1::allocator<char> >::__short", %"struct.std::__1::basic_string<char, std::__1::char_traits<char>, std::__1::allocator<char> >::__short"* %51, i64 0, i32 1, i32 0
  %53 = load i8, i8* %52, align 1
  %54 = icmp slt i8 %53, 0
  br i1 %54, label %55, label %57

55:                                               ; preds = %50
  %56 = load i8*, i8** %29, align 8
  call void @_ZdlPv(i8* %56) #13
  br label %57

57:                                               ; preds = %50, %55
  call void @llvm.lifetime.end.p0i8(i64 24, i8* nonnull %27) #12
  call void @llvm.lifetime.end.p0i8(i64 32, i8* nonnull %26) #12
  call void @llvm.lifetime.end.p0i8(i64 56, i8* nonnull %25) #12
  br label %89

58:                                               ; preds = %22
  %59 = bitcast %"class.syncer::ModelError"* %8 to i8*
  call void @llvm.lifetime.start.p0i8(i64 56, i8* nonnull %59) #12
  %60 = bitcast %"class.base::Location"* %9 to i8*
  call void @llvm.lifetime.start.p0i8(i64 32, i8* nonnull %60) #12
  call void @_ZN4base8Location7CurrentEPKcS2_i(%"class.base::Location"* nonnull sret %9, i8* getelementptr inbounds ([8 x i8], [8 x i8]* @.str.9, i64 0, i64 0), i8* getelementptr inbounds ([56 x i8], [56 x i8]* @.str.3, i64 0, i64 0), i32 272) #12
  %61 = bitcast %"class.std::__1::basic_string"* %10 to i8*
  call void @llvm.lifetime.start.p0i8(i64 24, i8* nonnull %61) #12
  %62 = bitcast %"class.std::__1::basic_string"* %10 to %"struct.std::__1::basic_string<char, std::__1::char_traits<char>, std::__1::allocator<char> >::__short"*
  %63 = getelementptr inbounds %"struct.std::__1::basic_string<char, std::__1::char_traits<char>, std::__1::allocator<char> >::__short", %"struct.std::__1::basic_string<char, std::__1::char_traits<char>, std::__1::allocator<char> >::__short"* %62, i64 0, i32 1, i32 0
  store i8 21, i8* %63, align 1
  call void @llvm.memcpy.p0i8.p0i8.i64(i8* nonnull align 8 %61, i8* align 1 getelementptr inbounds ([22 x i8], [22 x i8]* @.str.11, i64 0, i64 0), i64 21, i1 false) #12
  %64 = getelementptr inbounds i8, i8* %61, i64 21
  store i8 0, i8* %64, align 1
  call void @_ZN6syncer10ModelErrorC1ERKN4base8LocationERKNSt3__112basic_stringIcNS5_11char_traitsIcEENS5_9allocatorIcEEEE(%"class.syncer::ModelError"* nonnull %8, %"class.base::Location"* nonnull dereferenceable(32) %9, %"class.std::__1::basic_string"* nonnull dereferenceable(24) %10) #12
  %65 = getelementptr inbounds %"class.absl::optional", %"class.absl::optional"* %0, i64 0, i32 0, i32 0, i32 0, i32 0
  store i8 1, i8* %65, align 8
  %66 = getelementptr inbounds %"class.absl::optional", %"class.absl::optional"* %0, i64 0, i32 0, i32 0, i32 0, i32 1, i32 0, i32 0
  %67 = getelementptr inbounds %"class.syncer::ModelError", %"class.syncer::ModelError"* %8, i64 0, i32 0
  call void @_ZN4base8LocationC1ERKS0_(%"class.base::Location"* %66, %"class.base::Location"* nonnull dereferenceable(32) %67) #12
  %68 = getelementptr inbounds %"class.absl::optional", %"class.absl::optional"* %0, i64 0, i32 0, i32 0, i32 0, i32 1, i32 0, i32 1
  %69 = getelementptr inbounds %"class.syncer::ModelError", %"class.syncer::ModelError"* %8, i64 0, i32 1
  %70 = bitcast %"class.std::__1::basic_string"* %69 to %"struct.std::__1::basic_string<char, std::__1::char_traits<char>, std::__1::allocator<char> >::__short"*
  %71 = getelementptr inbounds %"struct.std::__1::basic_string<char, std::__1::char_traits<char>, std::__1::allocator<char> >::__short", %"struct.std::__1::basic_string<char, std::__1::char_traits<char>, std::__1::allocator<char> >::__short"* %70, i64 0, i32 1, i32 0
  %72 = load i8, i8* %71, align 1
  %73 = icmp slt i8 %72, 0
  br i1 %73, label %77, label %74

74:                                               ; preds = %58
  %75 = bitcast %"class.std::__1::basic_string"* %68 to i8*
  %76 = bitcast %"class.std::__1::basic_string"* %69 to i8*
  call void @llvm.memcpy.p0i8.p0i8.i64(i8* align 8 %75, i8* align 8 %76, i64 24, i1 false) #12
  br label %82

77:                                               ; preds = %58
  %78 = getelementptr inbounds %"class.std::__1::basic_string", %"class.std::__1::basic_string"* %69, i64 0, i32 0, i32 0, i32 0, i32 0, i32 0, i32 0
  %79 = load i8*, i8** %78, align 8
  %80 = getelementptr inbounds %"class.syncer::ModelError", %"class.syncer::ModelError"* %8, i64 0, i32 1, i32 0, i32 0, i32 0, i32 0, i32 0, i32 1
  %81 = load i64, i64* %80, align 8
  call void @_ZNSt3__112basic_stringIcNS_11char_traitsIcEENS_9allocatorIcEEE25__init_copy_ctor_externalEPKcm(%"class.std::__1::basic_string"* %68, i8* %79, i64 %81) #12
  br label %82

82:                                               ; preds = %74, %77
  call void @_ZN6syncer10ModelErrorD1Ev(%"class.syncer::ModelError"* nonnull %8) #12
  %83 = load i8, i8* %63, align 1
  %84 = icmp slt i8 %83, 0
  br i1 %84, label %85, label %88

85:                                               ; preds = %82
  %86 = getelementptr inbounds %"class.std::__1::basic_string", %"class.std::__1::basic_string"* %10, i64 0, i32 0, i32 0, i32 0, i32 0, i32 0, i32 0
  %87 = load i8*, i8** %86, align 8
  call void @_ZdlPv(i8* %87) #13
  br label %88

88:                                               ; preds = %82, %85
  call void @llvm.lifetime.end.p0i8(i64 24, i8* nonnull %61) #12
  call void @llvm.lifetime.end.p0i8(i64 32, i8* nonnull %60) #12
  call void @llvm.lifetime.end.p0i8(i64 56, i8* nonnull %59) #12
  br label %89

89:                                               ; preds = %88, %57, %18
  ret void
}

; Function Attrs: norecurse nounwind readonly ssp uwtable
define hidden zeroext i1 @_ZNK6syncer21ModelTypeStoreBackend13IsInitializedEv(%"class.syncer::ModelTypeStoreBackend"* nocapture readonly) local_unnamed_addr #6 align 2 {
  %2 = getelementptr inbounds %"class.syncer::ModelTypeStoreBackend", %"class.syncer::ModelTypeStoreBackend"* %0, i64 0, i32 2, i32 0, i32 0, i32 0
  %3 = load %"class.leveldb::DB"*, %"class.leveldb::DB"** %2, align 8
  %4 = icmp ne %"class.leveldb::DB"* %3, null
  ret i1 %4
}

; Function Attrs: nounwind ssp uwtable
define hidden void @_ZN6syncer21ModelTypeStoreBackendC2ENSt3__110unique_ptrIN7leveldb3EnvENS1_14default_deleteIS4_EEEE(%"class.syncer::ModelTypeStoreBackend"* nocapture, %"class.leveldb::Env"*) unnamed_addr #0 align 2 {
  %3 = ptrtoint %"class.leveldb::Env"* %1 to i64
  %4 = getelementptr inbounds %"class.syncer::ModelTypeStoreBackend", %"class.syncer::ModelTypeStoreBackend"* %0, i64 0, i32 0, i32 0, i32 0, i32 0, i32 0, i32 0, i32 0, i32 0, i32 0
  store i32 0, i32* %4, align 4
  %5 = getelementptr inbounds %"class.syncer::ModelTypeStoreBackend", %"class.syncer::ModelTypeStoreBackend"* %0, i64 0, i32 1
  %6 = bitcast %"class.std::__1::unique_ptr"* %5 to i64*
  store i64 %3, i64* %6, align 8
  %7 = getelementptr inbounds %"class.syncer::ModelTypeStoreBackend", %"class.syncer::ModelTypeStoreBackend"* %0, i64 0, i32 2
  %8 = bitcast %"class.std::__1::unique_ptr.4"* %7 to i8*
  call void @llvm.memset.p0i8.i64(i8* align 8 %8, i8 0, i64 16, i1 false)
  ret void
}

declare void @_ZN11leveldb_env7OptionsC1Ev(%"struct.leveldb_env::Options"*) unnamed_addr #3

declare void @_ZN11leveldb_env6OpenDBERKNS_7OptionsERKNSt3__112basic_stringIcNS3_11char_traitsIcEENS3_9allocatorIcEEEEPNS3_10unique_ptrIN7leveldb2DBENS3_14default_deleteISE_EEEE(%"class.leveldb::Status"* sret, %"struct.leveldb_env::Options"* dereferenceable(112), %"class.std::__1::basic_string"* dereferenceable(24), %"class.std::__1::unique_ptr.14"*) local_unnamed_addr #3

declare dereferenceable(8) %class.scoped_refptr* @_ZN4base25SequencedTaskRunnerHandle3GetEv() local_unnamed_addr #3

declare void @_ZN7leveldb9DestroyDBERKNSt3__112basic_stringIcNS0_11char_traitsIcEENS0_9allocatorIcEEEERKNS_7OptionsE(%"class.leveldb::Status"* sret, %"class.std::__1::basic_string"* dereferenceable(24), %"struct.leveldb::Options"* dereferenceable(96)) local_unnamed_addr #3

; Function Attrs: nounwind ssp uwtable
define hidden void @_ZN6syncer21ModelTypeStoreBackend21ReadRecordsWithPrefixERKNSt3__112basic_stringIcNS1_11char_traitsIcEENS1_9allocatorIcEEEERKNS1_6vectorIS7_NS5_IS7_EEEEPNSA_INS_18ModelTypeStoreBase6RecordENS5_ISG_EEEEPSC_(%"class.absl::optional"* noalias sret, %"class.syncer::ModelTypeStoreBackend"* nocapture readonly, %"class.std::__1::basic_string"* nocapture readonly dereferenceable(24), %"class.std::__1::vector"* nocapture readonly dereferenceable(24), %"class.std::__1::vector.24"*, %"class.std::__1::vector"*) local_unnamed_addr #0 align 2 {
  %7 = alloca %"struct.leveldb::ReadOptions", align 8
  %8 = alloca %"class.std::__1::basic_string", align 8
  %9 = alloca %"class.std::__1::basic_string", align 8
  %10 = alloca %"class.std::__1::basic_string", align 8
  %11 = alloca %"class.leveldb::Status", align 8
  %12 = alloca %"class.leveldb::Slice", align 8
  %13 = alloca %"class.syncer::ModelError", align 8
  %14 = alloca %"class.base::Location", align 8
  %15 = alloca %"class.std::__1::basic_string", align 8
  %16 = getelementptr inbounds %"class.std::__1::vector", %"class.std::__1::vector"* %3, i64 0, i32 0, i32 1
  %17 = bitcast %"class.std::__1::basic_string"** %16 to i64*
  %18 = load i64, i64* %17, align 8
  %19 = bitcast %"class.std::__1::vector"* %3 to i64*
  %20 = load i64, i64* %19, align 8
  %21 = sub i64 %18, %20
  %22 = sdiv exact i64 %21, 24
  tail call void @_ZNSt3__16vectorIN6syncer18ModelTypeStoreBase6RecordENS_9allocatorIS3_EEE7reserveEm(%"class.std::__1::vector.24"* %4, i64 %22)
  %23 = getelementptr inbounds %"struct.leveldb::ReadOptions", %"struct.leveldb::ReadOptions"* %7, i64 0, i32 0
  call void @llvm.lifetime.start.p0i8(i64 16, i8* nonnull %23) #12
  %24 = bitcast %"struct.leveldb::ReadOptions"* %7 to i64*
  store i64 -6148914691236517206, i64* %24, align 8
  %25 = getelementptr inbounds %"struct.leveldb::ReadOptions", %"struct.leveldb::ReadOptions"* %7, i64 0, i32 1
  %26 = getelementptr inbounds %"struct.leveldb::ReadOptions", %"struct.leveldb::ReadOptions"* %7, i64 0, i32 2
  store %"class.leveldb::Snapshot"* null, %"class.leveldb::Snapshot"** %26, align 8
  store i8 1, i8* %23, align 8
  store i8 0, i8* %25, align 1
  %27 = bitcast %"class.std::__1::basic_string"* %8 to i8*
  call void @llvm.lifetime.start.p0i8(i64 24, i8* nonnull %27) #12
  %28 = getelementptr inbounds %"class.std::__1::basic_string", %"class.std::__1::basic_string"* %8, i64 0, i32 0, i32 0, i32 0, i32 0, i32 0, i32 0
  %29 = getelementptr inbounds %"class.std::__1::basic_string", %"class.std::__1::basic_string"* %8, i64 0, i32 0, i32 0, i32 0, i32 0, i32 0, i32 1
  call void @llvm.memset.p0i8.i64(i8* nonnull align 8 %27, i8 0, i64 24, i1 false) #12
  %30 = bitcast %"class.std::__1::basic_string"* %9 to i8*
  call void @llvm.lifetime.start.p0i8(i64 24, i8* nonnull %30) #12
  %31 = getelementptr inbounds %"class.std::__1::basic_string", %"class.std::__1::basic_string"* %9, i64 0, i32 0, i32 0, i32 0, i32 0, i32 0, i32 0
  %32 = getelementptr inbounds %"class.std::__1::basic_string", %"class.std::__1::basic_string"* %9, i64 0, i32 0, i32 0, i32 0, i32 0, i32 0, i32 1
  call void @llvm.memset.p0i8.i64(i8* nonnull align 8 %30, i8 0, i64 24, i1 false) #12
  %33 = getelementptr inbounds %"class.std::__1::vector", %"class.std::__1::vector"* %3, i64 0, i32 0, i32 0
  %34 = load %"class.std::__1::basic_string"*, %"class.std::__1::basic_string"** %33, align 8
  %35 = load %"class.std::__1::basic_string"*, %"class.std::__1::basic_string"** %16, align 8
  %36 = icmp eq %"class.std::__1::basic_string"* %34, %35
  br i1 %36, label %37, label %39

37:                                               ; preds = %6
  %38 = bitcast %"class.std::__1::basic_string"* %9 to %"struct.std::__1::basic_string<char, std::__1::char_traits<char>, std::__1::allocator<char> >::__short"*
  br label %213

39:                                               ; preds = %6
  %40 = bitcast %"class.std::__1::basic_string"* %10 to i8*
  %41 = getelementptr inbounds %"class.std::__1::basic_string", %"class.std::__1::basic_string"* %10, i64 0, i32 0, i32 0, i32 0, i32 0, i32 0, i32 0
  %42 = getelementptr inbounds %"class.std::__1::basic_string", %"class.std::__1::basic_string"* %10, i64 0, i32 0, i32 0, i32 0, i32 0, i32 0, i32 1
  %43 = getelementptr inbounds %"class.std::__1::basic_string", %"class.std::__1::basic_string"* %10, i64 0, i32 0, i32 0, i32 0, i32 0, i32 0, i32 2
  %44 = bitcast %"class.std::__1::basic_string"* %2 to %"struct.std::__1::basic_string<char, std::__1::char_traits<char>, std::__1::allocator<char> >::__short"*
  %45 = getelementptr inbounds %"struct.std::__1::basic_string<char, std::__1::char_traits<char>, std::__1::allocator<char> >::__short", %"struct.std::__1::basic_string<char, std::__1::char_traits<char>, std::__1::allocator<char> >::__short"* %44, i64 0, i32 1, i32 0
  %46 = getelementptr inbounds %"class.std::__1::basic_string", %"class.std::__1::basic_string"* %2, i64 0, i32 0, i32 0, i32 0, i32 0, i32 0, i32 1
  %47 = getelementptr inbounds %"class.std::__1::basic_string", %"class.std::__1::basic_string"* %2, i64 0, i32 0, i32 0, i32 0, i32 0, i32 0, i32 0
  %48 = bitcast %"class.std::__1::basic_string"* %2 to i8*
  %49 = bitcast %"class.std::__1::basic_string"* %10 to %"struct.std::__1::basic_string<char, std::__1::char_traits<char>, std::__1::allocator<char> >::__short"*
  %50 = getelementptr inbounds %"struct.std::__1::basic_string<char, std::__1::char_traits<char>, std::__1::allocator<char> >::__short", %"struct.std::__1::basic_string<char, std::__1::char_traits<char>, std::__1::allocator<char> >::__short"* %49, i64 0, i32 1, i32 0
  %51 = bitcast %"class.std::__1::basic_string"* %8 to %"struct.std::__1::basic_string<char, std::__1::char_traits<char>, std::__1::allocator<char> >::__short"*
  %52 = getelementptr inbounds %"struct.std::__1::basic_string<char, std::__1::char_traits<char>, std::__1::allocator<char> >::__short", %"struct.std::__1::basic_string<char, std::__1::char_traits<char>, std::__1::allocator<char> >::__short"* %51, i64 0, i32 1, i32 0
  %53 = bitcast %"class.leveldb::Status"* %11 to i8*
  %54 = getelementptr inbounds %"class.leveldb::Status", %"class.leveldb::Status"* %11, i64 0, i32 0
  %55 = getelementptr inbounds %"class.syncer::ModelTypeStoreBackend", %"class.syncer::ModelTypeStoreBackend"* %1, i64 0, i32 2, i32 0, i32 0, i32 0
  %56 = bitcast %"class.leveldb::Slice"* %12 to i8*
  %57 = getelementptr inbounds %"class.leveldb::Slice", %"class.leveldb::Slice"* %12, i64 0, i32 0
  %58 = getelementptr inbounds %"class.leveldb::Slice", %"class.leveldb::Slice"* %12, i64 0, i32 1
  %59 = bitcast %"class.syncer::ModelError"* %13 to i8*
  %60 = bitcast %"class.base::Location"* %14 to i8*
  %61 = bitcast %"class.std::__1::basic_string"* %15 to i8*
  %62 = getelementptr inbounds %"class.absl::optional", %"class.absl::optional"* %0, i64 0, i32 0, i32 0, i32 0, i32 0
  %63 = getelementptr inbounds %"class.absl::optional", %"class.absl::optional"* %0, i64 0, i32 0, i32 0, i32 0, i32 1, i32 0, i32 0
  %64 = getelementptr inbounds %"class.syncer::ModelError", %"class.syncer::ModelError"* %13, i64 0, i32 0
  %65 = getelementptr inbounds %"class.absl::optional", %"class.absl::optional"* %0, i64 0, i32 0, i32 0, i32 0, i32 1, i32 0, i32 1
  %66 = getelementptr inbounds %"class.syncer::ModelError", %"class.syncer::ModelError"* %13, i64 0, i32 1
  %67 = bitcast %"class.std::__1::basic_string"* %66 to %"struct.std::__1::basic_string<char, std::__1::char_traits<char>, std::__1::allocator<char> >::__short"*
  %68 = getelementptr inbounds %"struct.std::__1::basic_string<char, std::__1::char_traits<char>, std::__1::allocator<char> >::__short", %"struct.std::__1::basic_string<char, std::__1::char_traits<char>, std::__1::allocator<char> >::__short"* %67, i64 0, i32 1, i32 0
  %69 = bitcast %"class.std::__1::basic_string"* %65 to i8*
  %70 = bitcast %"class.std::__1::basic_string"* %66 to i8*
  %71 = getelementptr inbounds %"class.std::__1::basic_string", %"class.std::__1::basic_string"* %66, i64 0, i32 0, i32 0, i32 0, i32 0, i32 0, i32 0
  %72 = getelementptr inbounds %"class.syncer::ModelError", %"class.syncer::ModelError"* %13, i64 0, i32 1, i32 0, i32 0, i32 0, i32 0, i32 0, i32 1
  %73 = bitcast %"class.std::__1::basic_string"* %15 to %"struct.std::__1::basic_string<char, std::__1::char_traits<char>, std::__1::allocator<char> >::__short"*
  %74 = getelementptr inbounds %"struct.std::__1::basic_string<char, std::__1::char_traits<char>, std::__1::allocator<char> >::__short", %"struct.std::__1::basic_string<char, std::__1::char_traits<char>, std::__1::allocator<char> >::__short"* %73, i64 0, i32 1, i32 0
  %75 = getelementptr inbounds %"class.std::__1::basic_string", %"class.std::__1::basic_string"* %15, i64 0, i32 0, i32 0, i32 0, i32 0, i32 0, i32 0
  %76 = getelementptr inbounds %"class.std::__1::vector", %"class.std::__1::vector"* %5, i64 0, i32 0, i32 1
  %77 = getelementptr inbounds %"class.std::__1::vector", %"class.std::__1::vector"* %5, i64 0, i32 0, i32 2, i32 0, i32 0
  %78 = bitcast %"class.std::__1::basic_string"** %76 to i64*
  %79 = getelementptr inbounds %"class.std::__1::vector.24", %"class.std::__1::vector.24"* %4, i64 0, i32 0, i32 1
  %80 = getelementptr inbounds %"class.std::__1::vector.24", %"class.std::__1::vector.24"* %4, i64 0, i32 0, i32 2, i32 0, i32 0
  %81 = bitcast %"class.std::__1::basic_string"* %9 to %"struct.std::__1::basic_string<char, std::__1::char_traits<char>, std::__1::allocator<char> >::__short"*
  %82 = getelementptr inbounds %"struct.std::__1::basic_string<char, std::__1::char_traits<char>, std::__1::allocator<char> >::__short", %"struct.std::__1::basic_string<char, std::__1::char_traits<char>, std::__1::allocator<char> >::__short"* %81, i64 0, i32 1, i32 0
  %83 = bitcast %"struct.syncer::ModelTypeStoreBase::Record"** %79 to i64*
  br label %86

84:                                               ; preds = %210
  %85 = icmp eq %"class.std::__1::basic_string"* %212, %35
  br i1 %85, label %213, label %86

86:                                               ; preds = %39, %84
  %87 = phi %"class.std::__1::basic_string"* [ %34, %39 ], [ %212, %84 ]
  call void @llvm.lifetime.start.p0i8(i64 24, i8* nonnull %40) #12
  call void @llvm.memset.p0i8.i64(i8* nonnull align 8 %40, i8 0, i64 24, i1 false) #12, !alias.scope !6
  %88 = load i8, i8* %45, align 1, !noalias !6
  %89 = icmp slt i8 %88, 0
  %90 = load i64, i64* %46, align 8, !noalias !6
  %91 = zext i8 %88 to i64
  %92 = select i1 %89, i64 %90, i64 %91
  %93 = bitcast %"class.std::__1::basic_string"* %87 to %"struct.std::__1::basic_string<char, std::__1::char_traits<char>, std::__1::allocator<char> >::__short"*
  %94 = getelementptr inbounds %"struct.std::__1::basic_string<char, std::__1::char_traits<char>, std::__1::allocator<char> >::__short", %"struct.std::__1::basic_string<char, std::__1::char_traits<char>, std::__1::allocator<char> >::__short"* %93, i64 0, i32 1, i32 0
  %95 = load i8, i8* %94, align 1, !noalias !6
  %96 = icmp slt i8 %95, 0
  %97 = getelementptr inbounds %"class.std::__1::basic_string", %"class.std::__1::basic_string"* %87, i64 0, i32 0, i32 0, i32 0, i32 0, i32 0, i32 1
  %98 = load i64, i64* %97, align 8, !noalias !6
  %99 = zext i8 %95 to i64
  %100 = select i1 %96, i64 %98, i64 %99
  %101 = load i8*, i8** %47, align 8, !noalias !6
  %102 = select i1 %89, i8* %101, i8* %48
  %103 = add i64 %100, %92
  %104 = icmp ugt i64 %103, -17
  br i1 %104, label %105, label %107

105:                                              ; preds = %86
  %106 = bitcast %"class.std::__1::basic_string"* %10 to %"class.std::__1::__basic_string_common"*
  call void @_ZNKSt3__121__basic_string_commonILb1EE20__throw_length_errorEv(%"class.std::__1::__basic_string_common"* nonnull %106) #14
  unreachable

107:                                              ; preds = %86
  %108 = icmp ult i64 %103, 23
  br i1 %108, label %109, label %111

109:                                              ; preds = %107
  %110 = trunc i64 %92 to i8
  store i8 %110, i8* %50, align 1, !alias.scope !6
  br label %116

111:                                              ; preds = %107
  %112 = add nuw i64 %103, 16
  %113 = and i64 %112, -16
  %114 = call i8* @_Znwm(i64 %113) #13
  store i8* %114, i8** %41, align 8, !alias.scope !6
  %115 = or i64 %113, -9223372036854775808
  store i64 %115, i64* %43, align 8, !alias.scope !6
  store i64 %92, i64* %42, align 8, !alias.scope !6
  br label %116

116:                                              ; preds = %111, %109
  %117 = phi i8* [ %40, %109 ], [ %114, %111 ]
  %118 = icmp eq i64 %92, 0
  br i1 %118, label %120, label %119

119:                                              ; preds = %116
  call void @llvm.memcpy.p0i8.p0i8.i64(i8* nonnull align 1 %117, i8* align 1 %102, i64 %92, i1 false) #12
  br label %120

120:                                              ; preds = %116, %119
  %121 = getelementptr inbounds i8, i8* %117, i64 %92
  store i8 0, i8* %121, align 1
  %122 = getelementptr inbounds %"class.std::__1::basic_string", %"class.std::__1::basic_string"* %87, i64 0, i32 0, i32 0, i32 0, i32 0, i32 0, i32 0
  %123 = load i8*, i8** %122, align 8, !noalias !6
  %124 = bitcast %"class.std::__1::basic_string"* %87 to i8*
  %125 = select i1 %96, i8* %123, i8* %124
  %126 = call dereferenceable(24) %"class.std::__1::basic_string"* @_ZNSt3__112basic_stringIcNS_11char_traitsIcEENS_9allocatorIcEEE6appendEPKcm(%"class.std::__1::basic_string"* nonnull %10, i8* %125, i64 %100) #12
  %127 = load i8, i8* %52, align 1
  %128 = icmp slt i8 %127, 0
  br i1 %128, label %129, label %131

129:                                              ; preds = %120
  %130 = load i8*, i8** %28, align 8
  call void @_ZdlPv(i8* %130) #13
  br label %131

131:                                              ; preds = %129, %120
  call void @llvm.memcpy.p0i8.p0i8.i64(i8* nonnull align 8 %27, i8* nonnull align 8 %40, i64 24, i1 false) #12
  call void @llvm.lifetime.end.p0i8(i64 24, i8* nonnull %40) #12
  call void @llvm.lifetime.start.p0i8(i64 8, i8* nonnull %53) #12
  store i8* inttoptr (i64 -6148914691236517206 to i8*), i8** %54, align 8
  %132 = load %"class.leveldb::DB"*, %"class.leveldb::DB"** %55, align 8
  call void @llvm.lifetime.start.p0i8(i64 16, i8* nonnull %56) #12
  %133 = load i8, i8* %52, align 1
  %134 = icmp slt i8 %133, 0
  %135 = load i8*, i8** %28, align 8
  %136 = select i1 %134, i8* %135, i8* %27
  store i8* %136, i8** %57, align 8
  %137 = load i64, i64* %29, align 8
  %138 = zext i8 %133 to i64
  %139 = select i1 %134, i64 %137, i64 %138
  store i64 %139, i64* %58, align 8
  %140 = bitcast %"class.leveldb::DB"* %132 to void (%"class.leveldb::Status"*, %"class.leveldb::DB"*, %"struct.leveldb::ReadOptions"*, %"class.leveldb::Slice"*, %"class.std::__1::basic_string"*)***
  %141 = load void (%"class.leveldb::Status"*, %"class.leveldb::DB"*, %"struct.leveldb::ReadOptions"*, %"class.leveldb::Slice"*, %"class.std::__1::basic_string"*)**, void (%"class.leveldb::Status"*, %"class.leveldb::DB"*, %"struct.leveldb::ReadOptions"*, %"class.leveldb::Slice"*, %"class.std::__1::basic_string"*)*** %140, align 8
  %142 = getelementptr inbounds void (%"class.leveldb::Status"*, %"class.leveldb::DB"*, %"struct.leveldb::ReadOptions"*, %"class.leveldb::Slice"*, %"class.std::__1::basic_string"*)*, void (%"class.leveldb::Status"*, %"class.leveldb::DB"*, %"struct.leveldb::ReadOptions"*, %"class.leveldb::Slice"*, %"class.std::__1::basic_string"*)** %141, i64 5
  %143 = load void (%"class.leveldb::Status"*, %"class.leveldb::DB"*, %"struct.leveldb::ReadOptions"*, %"class.leveldb::Slice"*, %"class.std::__1::basic_string"*)*, void (%"class.leveldb::Status"*, %"class.leveldb::DB"*, %"struct.leveldb::ReadOptions"*, %"class.leveldb::Slice"*, %"class.std::__1::basic_string"*)** %142, align 8
  call void %143(%"class.leveldb::Status"* nonnull sret %11, %"class.leveldb::DB"* %132, %"struct.leveldb::ReadOptions"* nonnull dereferenceable(16) %7, %"class.leveldb::Slice"* nonnull dereferenceable(16) %12, %"class.std::__1::basic_string"* nonnull %9) #12
  call void @llvm.lifetime.end.p0i8(i64 16, i8* nonnull %56) #12
  %144 = load i8*, i8** %54, align 8
  %145 = icmp eq i8* %144, null
  br i1 %145, label %146, label %172

146:                                              ; preds = %131
  %147 = load %"struct.syncer::ModelTypeStoreBase::Record"*, %"struct.syncer::ModelTypeStoreBase::Record"** %79, align 8
  %148 = load %"struct.syncer::ModelTypeStoreBase::Record"*, %"struct.syncer::ModelTypeStoreBase::Record"** %80, align 8
  %149 = icmp ult %"struct.syncer::ModelTypeStoreBase::Record"* %147, %148
  br i1 %149, label %150, label %171

150:                                              ; preds = %146
  %151 = load i8, i8* %94, align 1
  %152 = icmp slt i8 %151, 0
  br i1 %152, label %155, label %153

153:                                              ; preds = %150
  %154 = bitcast %"struct.syncer::ModelTypeStoreBase::Record"* %147 to i8*
  call void @llvm.memcpy.p0i8.p0i8.i64(i8* align 8 %154, i8* align 8 %124, i64 24, i1 false) #12
  br label %159

155:                                              ; preds = %150
  %156 = getelementptr inbounds %"struct.syncer::ModelTypeStoreBase::Record", %"struct.syncer::ModelTypeStoreBase::Record"* %147, i64 0, i32 0
  %157 = load i8*, i8** %122, align 8
  %158 = load i64, i64* %97, align 8
  call void @_ZNSt3__112basic_stringIcNS_11char_traitsIcEENS_9allocatorIcEEE25__init_copy_ctor_externalEPKcm(%"class.std::__1::basic_string"* %156, i8* %157, i64 %158) #12
  br label %159

159:                                              ; preds = %155, %153
  %160 = getelementptr inbounds %"struct.syncer::ModelTypeStoreBase::Record", %"struct.syncer::ModelTypeStoreBase::Record"* %147, i64 0, i32 1
  %161 = load i8, i8* %82, align 1
  %162 = icmp slt i8 %161, 0
  br i1 %162, label %165, label %163

163:                                              ; preds = %159
  %164 = bitcast %"class.std::__1::basic_string"* %160 to i8*
  call void @llvm.memcpy.p0i8.p0i8.i64(i8* align 8 %164, i8* nonnull align 8 %30, i64 24, i1 false) #12
  br label %168

165:                                              ; preds = %159
  %166 = load i8*, i8** %31, align 8
  %167 = load i64, i64* %32, align 8
  call void @_ZNSt3__112basic_stringIcNS_11char_traitsIcEENS_9allocatorIcEEE25__init_copy_ctor_externalEPKcm(%"class.std::__1::basic_string"* %160, i8* %166, i64 %167) #12
  br label %168

168:                                              ; preds = %165, %163
  %169 = getelementptr inbounds %"struct.syncer::ModelTypeStoreBase::Record", %"struct.syncer::ModelTypeStoreBase::Record"* %147, i64 1
  %170 = ptrtoint %"struct.syncer::ModelTypeStoreBase::Record"* %169 to i64
  store i64 %170, i64* %83, align 8
  br label %205

171:                                              ; preds = %146
  call void @_ZNSt3__16vectorIN6syncer18ModelTypeStoreBase6RecordENS_9allocatorIS3_EEE24__emplace_back_slow_pathIJRKNS_12basic_stringIcNS_11char_traitsIcEENS4_IcEEEERSC_EEEvDpOT_(%"class.std::__1::vector.24"* %4, %"class.std::__1::basic_string"* dereferenceable(24) %87, %"class.std::__1::basic_string"* nonnull dereferenceable(24) %9) #12
  br label %205

172:                                              ; preds = %131
  %173 = getelementptr inbounds i8, i8* %144, i64 4
  %174 = load i8, i8* %173, align 1
  %175 = icmp eq i8 %174, 1
  br i1 %175, label %176, label %192

176:                                              ; preds = %172
  %177 = load %"class.std::__1::basic_string"*, %"class.std::__1::basic_string"** %76, align 8
  %178 = load %"class.std::__1::basic_string"*, %"class.std::__1::basic_string"** %77, align 8
  %179 = icmp eq %"class.std::__1::basic_string"* %177, %178
  br i1 %179, label %191, label %180

180:                                              ; preds = %176
  %181 = load i8, i8* %94, align 1
  %182 = icmp slt i8 %181, 0
  br i1 %182, label %185, label %183

183:                                              ; preds = %180
  %184 = bitcast %"class.std::__1::basic_string"* %177 to i8*
  call void @llvm.memcpy.p0i8.p0i8.i64(i8* align 8 %184, i8* align 8 %124, i64 24, i1 false) #12
  br label %188

185:                                              ; preds = %180
  %186 = load i8*, i8** %122, align 8
  %187 = load i64, i64* %97, align 8
  call void @_ZNSt3__112basic_stringIcNS_11char_traitsIcEENS_9allocatorIcEEE25__init_copy_ctor_externalEPKcm(%"class.std::__1::basic_string"* %177, i8* %186, i64 %187) #12
  br label %188

188:                                              ; preds = %185, %183
  %189 = getelementptr inbounds %"class.std::__1::basic_string", %"class.std::__1::basic_string"* %177, i64 1
  %190 = ptrtoint %"class.std::__1::basic_string"* %189 to i64
  store i64 %190, i64* %78, align 8
  br label %205

191:                                              ; preds = %176
  call void @_ZNSt3__16vectorINS_12basic_stringIcNS_11char_traitsIcEENS_9allocatorIcEEEENS4_IS6_EEE21__push_back_slow_pathIRKS6_EEvOT_(%"class.std::__1::vector"* %5, %"class.std::__1::basic_string"* dereferenceable(24) %87) #12
  br label %205

192:                                              ; preds = %172
  call void @llvm.lifetime.start.p0i8(i64 56, i8* nonnull %59) #12
  call void @llvm.lifetime.start.p0i8(i64 32, i8* nonnull %60) #12
  call void @_ZN4base8Location7CurrentEPKcS2_i(%"class.base::Location"* nonnull sret %14, i8* getelementptr inbounds ([22 x i8], [22 x i8]* @.str.5, i64 0, i64 0), i8* getelementptr inbounds ([56 x i8], [56 x i8]* @.str.3, i64 0, i64 0), i32 167) #12
  call void @llvm.lifetime.start.p0i8(i64 24, i8* nonnull %61) #12
  call void @_ZNK7leveldb6Status8ToStringEv(%"class.std::__1::basic_string"* nonnull sret %15, %"class.leveldb::Status"* nonnull %11) #12
  call void @_ZN6syncer10ModelErrorC1ERKN4base8LocationERKNSt3__112basic_stringIcNS5_11char_traitsIcEENS5_9allocatorIcEEEE(%"class.syncer::ModelError"* nonnull %13, %"class.base::Location"* nonnull dereferenceable(32) %14, %"class.std::__1::basic_string"* nonnull dereferenceable(24) %15) #12
  store i8 1, i8* %62, align 8
  call void @_ZN4base8LocationC1ERKS0_(%"class.base::Location"* %63, %"class.base::Location"* nonnull dereferenceable(32) %64) #12
  %193 = load i8, i8* %68, align 1
  %194 = icmp slt i8 %193, 0
  br i1 %194, label %196, label %195

195:                                              ; preds = %192
  call void @llvm.memcpy.p0i8.p0i8.i64(i8* align 8 %69, i8* align 8 %70, i64 24, i1 false) #12
  br label %199

196:                                              ; preds = %192
  %197 = load i8*, i8** %71, align 8
  %198 = load i64, i64* %72, align 8
  call void @_ZNSt3__112basic_stringIcNS_11char_traitsIcEENS_9allocatorIcEEE25__init_copy_ctor_externalEPKcm(%"class.std::__1::basic_string"* %65, i8* %197, i64 %198) #12
  br label %199

199:                                              ; preds = %195, %196
  call void @_ZN6syncer10ModelErrorD1Ev(%"class.syncer::ModelError"* nonnull %13) #12
  %200 = load i8, i8* %74, align 1
  %201 = icmp slt i8 %200, 0
  br i1 %201, label %202, label %204

202:                                              ; preds = %199
  %203 = load i8*, i8** %75, align 8
  call void @_ZdlPv(i8* %203) #13
  br label %204

204:                                              ; preds = %199, %202
  call void @llvm.lifetime.end.p0i8(i64 24, i8* nonnull %61) #12
  call void @llvm.lifetime.end.p0i8(i64 32, i8* nonnull %60) #12
  call void @llvm.lifetime.end.p0i8(i64 56, i8* nonnull %59) #12
  br label %205

205:                                              ; preds = %191, %188, %171, %168, %204
  %206 = phi i32 [ 1, %204 ], [ 0, %168 ], [ 0, %171 ], [ 0, %188 ], [ 0, %191 ]
  %207 = load i8*, i8** %54, align 8
  %208 = icmp eq i8* %207, null
  br i1 %208, label %210, label %209

209:                                              ; preds = %205
  call void @_ZdaPv(i8* nonnull %207) #13
  br label %210

210:                                              ; preds = %205, %209
  call void @llvm.lifetime.end.p0i8(i64 8, i8* nonnull %53) #12
  %211 = icmp eq i32 %206, 0
  %212 = getelementptr inbounds %"class.std::__1::basic_string", %"class.std::__1::basic_string"* %87, i64 1
  br i1 %211, label %84, label %218

213:                                              ; preds = %84, %37
  %214 = phi %"struct.std::__1::basic_string<char, std::__1::char_traits<char>, std::__1::allocator<char> >::__short"* [ %38, %37 ], [ %81, %84 ]
  %215 = getelementptr inbounds %"class.absl::optional", %"class.absl::optional"* %0, i64 0, i32 0, i32 0, i32 0, i32 0
  store i8 0, i8* %215, align 8
  %216 = getelementptr inbounds %"class.absl::optional", %"class.absl::optional"* %0, i64 0, i32 0, i32 0, i32 0, i32 1
  %217 = bitcast %union.anon.11* %216 to i8*
  call void @llvm.memset.p0i8.i64(i8* align 8 %217, i8 0, i64 56, i1 false) #12
  br label %218

218:                                              ; preds = %210, %213
  %219 = phi %"struct.std::__1::basic_string<char, std::__1::char_traits<char>, std::__1::allocator<char> >::__short"* [ %214, %213 ], [ %81, %210 ]
  %220 = getelementptr inbounds %"struct.std::__1::basic_string<char, std::__1::char_traits<char>, std::__1::allocator<char> >::__short", %"struct.std::__1::basic_string<char, std::__1::char_traits<char>, std::__1::allocator<char> >::__short"* %219, i64 0, i32 1, i32 0
  %221 = load i8, i8* %220, align 1
  %222 = icmp slt i8 %221, 0
  br i1 %222, label %223, label %225

223:                                              ; preds = %218
  %224 = load i8*, i8** %31, align 8
  call void @_ZdlPv(i8* %224) #13
  br label %225

225:                                              ; preds = %218, %223
  call void @llvm.lifetime.end.p0i8(i64 24, i8* nonnull %30) #12
  %226 = bitcast %"class.std::__1::basic_string"* %8 to %"struct.std::__1::basic_string<char, std::__1::char_traits<char>, std::__1::allocator<char> >::__short"*
  %227 = getelementptr inbounds %"struct.std::__1::basic_string<char, std::__1::char_traits<char>, std::__1::allocator<char> >::__short", %"struct.std::__1::basic_string<char, std::__1::char_traits<char>, std::__1::allocator<char> >::__short"* %226, i64 0, i32 1, i32 0
  %228 = load i8, i8* %227, align 1
  %229 = icmp slt i8 %228, 0
  br i1 %229, label %230, label %232

230:                                              ; preds = %225
  %231 = load i8*, i8** %28, align 8
  call void @_ZdlPv(i8* %231) #13
  br label %232

232:                                              ; preds = %225, %230
  call void @llvm.lifetime.end.p0i8(i64 24, i8* nonnull %27) #12
  call void @llvm.lifetime.end.p0i8(i64 16, i8* nonnull %23) #12
  ret void
}

; Function Attrs: nounwind ssp uwtable
define linkonce_odr hidden void @_ZNSt3__16vectorIN6syncer18ModelTypeStoreBase6RecordENS_9allocatorIS3_EEE7reserveEm(%"class.std::__1::vector.24"*, i64) local_unnamed_addr #0 comdat align 2 {
  %3 = getelementptr inbounds %"class.std::__1::vector.24", %"class.std::__1::vector.24"* %0, i64 0, i32 0, i32 2, i32 0, i32 0
  %4 = bitcast %"struct.syncer::ModelTypeStoreBase::Record"** %3 to i64*
  %5 = load i64, i64* %4, align 8
  %6 = bitcast %"class.std::__1::vector.24"* %0 to i64*
  %7 = load i64, i64* %6, align 8
  %8 = sub i64 %5, %7
  %9 = sdiv exact i64 %8, 48
  %10 = icmp ult i64 %9, %1
  %11 = inttoptr i64 %7 to %"struct.syncer::ModelTypeStoreBase::Record"*
  br i1 %10, label %12, label %78

12:                                               ; preds = %2
  %13 = getelementptr inbounds %"class.std::__1::vector.24", %"class.std::__1::vector.24"* %0, i64 0, i32 0, i32 1
  %14 = bitcast %"struct.syncer::ModelTypeStoreBase::Record"** %13 to i64*
  %15 = icmp ugt i64 %1, 384307168202282325
  br i1 %15, label %16, label %17

16:                                               ; preds = %12
  tail call void @abort() #14
  unreachable

17:                                               ; preds = %12
  %18 = load i64, i64* %14, align 8
  %19 = sub i64 %18, %7
  %20 = sdiv exact i64 %19, 48
  %21 = mul i64 %1, 48
  %22 = tail call i8* @_Znwm(i64 %21) #13
  %23 = bitcast i8* %22 to %"struct.syncer::ModelTypeStoreBase::Record"*
  %24 = getelementptr inbounds %"struct.syncer::ModelTypeStoreBase::Record", %"struct.syncer::ModelTypeStoreBase::Record"* %23, i64 %20
  %25 = ptrtoint %"struct.syncer::ModelTypeStoreBase::Record"* %24 to i64
  %26 = getelementptr inbounds %"struct.syncer::ModelTypeStoreBase::Record", %"struct.syncer::ModelTypeStoreBase::Record"* %23, i64 %1
  %27 = ptrtoint %"struct.syncer::ModelTypeStoreBase::Record"* %26 to i64
  %28 = inttoptr i64 %18 to %"struct.syncer::ModelTypeStoreBase::Record"*
  %29 = icmp eq %"struct.syncer::ModelTypeStoreBase::Record"* %28, %11
  br i1 %29, label %47, label %30

30:                                               ; preds = %17, %30
  %31 = phi %"struct.syncer::ModelTypeStoreBase::Record"* [ %33, %30 ], [ %24, %17 ]
  %32 = phi %"struct.syncer::ModelTypeStoreBase::Record"* [ %34, %30 ], [ %28, %17 ]
  %33 = getelementptr inbounds %"struct.syncer::ModelTypeStoreBase::Record", %"struct.syncer::ModelTypeStoreBase::Record"* %31, i64 -1
  %34 = getelementptr inbounds %"struct.syncer::ModelTypeStoreBase::Record", %"struct.syncer::ModelTypeStoreBase::Record"* %32, i64 -1
  %35 = bitcast %"struct.syncer::ModelTypeStoreBase::Record"* %33 to i8*
  %36 = bitcast %"struct.syncer::ModelTypeStoreBase::Record"* %34 to i8*
  tail call void @llvm.memcpy.p0i8.p0i8.i64(i8* align 8 %35, i8* align 8 %36, i64 24, i1 false) #12
  tail call void @llvm.memset.p0i8.i64(i8* align 8 %36, i8 0, i64 24, i1 false) #12
  %37 = getelementptr inbounds %"struct.syncer::ModelTypeStoreBase::Record", %"struct.syncer::ModelTypeStoreBase::Record"* %31, i64 -1, i32 1
  %38 = getelementptr inbounds %"struct.syncer::ModelTypeStoreBase::Record", %"struct.syncer::ModelTypeStoreBase::Record"* %32, i64 -1, i32 1
  %39 = bitcast %"class.std::__1::basic_string"* %37 to i8*
  %40 = bitcast %"class.std::__1::basic_string"* %38 to i8*
  tail call void @llvm.memcpy.p0i8.p0i8.i64(i8* align 8 %39, i8* align 8 %40, i64 24, i1 false) #12
  tail call void @llvm.memset.p0i8.i64(i8* align 8 %40, i8 0, i64 24, i1 false) #12
  %41 = icmp eq %"struct.syncer::ModelTypeStoreBase::Record"* %34, %11
  br i1 %41, label %42, label %30

42:                                               ; preds = %30
  %43 = ptrtoint %"struct.syncer::ModelTypeStoreBase::Record"* %33 to i64
  %44 = load i64, i64* %6, align 8
  %45 = load %"struct.syncer::ModelTypeStoreBase::Record"*, %"struct.syncer::ModelTypeStoreBase::Record"** %13, align 8
  %46 = inttoptr i64 %44 to %"struct.syncer::ModelTypeStoreBase::Record"*
  br label %47

47:                                               ; preds = %17, %42
  %48 = phi %"struct.syncer::ModelTypeStoreBase::Record"* [ %46, %42 ], [ %28, %17 ]
  %49 = phi %"struct.syncer::ModelTypeStoreBase::Record"* [ %45, %42 ], [ %11, %17 ]
  %50 = phi i64 [ %43, %42 ], [ %25, %17 ]
  %51 = phi i64 [ %44, %42 ], [ %18, %17 ]
  store i64 %50, i64* %6, align 8
  store i64 %25, i64* %14, align 8
  store i64 %27, i64* %4, align 8
  %52 = icmp eq %"struct.syncer::ModelTypeStoreBase::Record"* %49, %48
  br i1 %52, label %74, label %53

53:                                               ; preds = %47, %72
  %54 = phi %"struct.syncer::ModelTypeStoreBase::Record"* [ %55, %72 ], [ %49, %47 ]
  %55 = getelementptr inbounds %"struct.syncer::ModelTypeStoreBase::Record", %"struct.syncer::ModelTypeStoreBase::Record"* %54, i64 -1
  %56 = getelementptr inbounds %"struct.syncer::ModelTypeStoreBase::Record", %"struct.syncer::ModelTypeStoreBase::Record"* %54, i64 -1, i32 1
  %57 = bitcast %"class.std::__1::basic_string"* %56 to %"struct.std::__1::basic_string<char, std::__1::char_traits<char>, std::__1::allocator<char> >::__short"*
  %58 = getelementptr inbounds %"struct.std::__1::basic_string<char, std::__1::char_traits<char>, std::__1::allocator<char> >::__short", %"struct.std::__1::basic_string<char, std::__1::char_traits<char>, std::__1::allocator<char> >::__short"* %57, i64 0, i32 1, i32 0
  %59 = load i8, i8* %58, align 1
  %60 = icmp slt i8 %59, 0
  br i1 %60, label %61, label %64

61:                                               ; preds = %53
  %62 = getelementptr inbounds %"class.std::__1::basic_string", %"class.std::__1::basic_string"* %56, i64 0, i32 0, i32 0, i32 0, i32 0, i32 0, i32 0
  %63 = load i8*, i8** %62, align 8
  tail call void @_ZdlPv(i8* %63) #13
  br label %64

64:                                               ; preds = %61, %53
  %65 = bitcast %"struct.syncer::ModelTypeStoreBase::Record"* %55 to %"struct.std::__1::basic_string<char, std::__1::char_traits<char>, std::__1::allocator<char> >::__short"*
  %66 = getelementptr inbounds %"struct.std::__1::basic_string<char, std::__1::char_traits<char>, std::__1::allocator<char> >::__short", %"struct.std::__1::basic_string<char, std::__1::char_traits<char>, std::__1::allocator<char> >::__short"* %65, i64 0, i32 1, i32 0
  %67 = load i8, i8* %66, align 1
  %68 = icmp slt i8 %67, 0
  br i1 %68, label %69, label %72

69:                                               ; preds = %64
  %70 = getelementptr inbounds %"struct.syncer::ModelTypeStoreBase::Record", %"struct.syncer::ModelTypeStoreBase::Record"* %55, i64 0, i32 0, i32 0, i32 0, i32 0, i32 0, i32 0, i32 0
  %71 = load i8*, i8** %70, align 8
  tail call void @_ZdlPv(i8* %71) #13
  br label %72

72:                                               ; preds = %69, %64
  %73 = icmp eq %"struct.syncer::ModelTypeStoreBase::Record"* %55, %48
  br i1 %73, label %74, label %53

74:                                               ; preds = %72, %47
  %75 = icmp eq i64 %51, 0
  br i1 %75, label %78, label %76

76:                                               ; preds = %74
  %77 = inttoptr i64 %51 to i8*
  tail call void @_ZdlPv(i8* %77) #13
  br label %78

78:                                               ; preds = %76, %74, %2
  ret void
}

; Function Attrs: argmemonly nounwind
declare void @llvm.memcpy.p0i8.p0i8.i64(i8* nocapture writeonly, i8* nocapture readonly, i64, i1 immarg) #2

; Function Attrs: nounwind ssp uwtable
define hidden void @_ZN6syncer21ModelTypeStoreBackend24ReadAllRecordsWithPrefixERKNSt3__112basic_stringIcNS1_11char_traitsIcEENS1_9allocatorIcEEEEPNS1_6vectorINS_18ModelTypeStoreBase6RecordENS5_ISC_EEEE(%"class.absl::optional"* noalias sret, %"class.syncer::ModelTypeStoreBackend"* nocapture readonly, %"class.std::__1::basic_string"* dereferenceable(24), %"class.std::__1::vector.24"*) local_unnamed_addr #0 align 2 {
  %5 = alloca %"struct.leveldb::ReadOptions", align 8
  %6 = alloca %"class.leveldb::Slice", align 8
  %7 = alloca %"class.std::__1::basic_string", align 8
  %8 = alloca %"class.std::__1::basic_string", align 8
  %9 = alloca %"class.leveldb::Status", align 8
  %10 = alloca %"class.syncer::ModelError", align 8
  %11 = alloca %"class.base::Location", align 8
  %12 = alloca %"class.std::__1::basic_string", align 8
  %13 = alloca %"class.leveldb::Status", align 8
  %14 = getelementptr inbounds %"struct.leveldb::ReadOptions", %"struct.leveldb::ReadOptions"* %5, i64 0, i32 0
  call void @llvm.lifetime.start.p0i8(i64 16, i8* nonnull %14) #12
  %15 = bitcast %"struct.leveldb::ReadOptions"* %5 to i64*
  store i64 -6148914691236517206, i64* %15, align 8
  %16 = getelementptr inbounds %"struct.leveldb::ReadOptions", %"struct.leveldb::ReadOptions"* %5, i64 0, i32 1
  %17 = getelementptr inbounds %"struct.leveldb::ReadOptions", %"struct.leveldb::ReadOptions"* %5, i64 0, i32 2
  store %"class.leveldb::Snapshot"* null, %"class.leveldb::Snapshot"** %17, align 8
  store i8 1, i8* %14, align 8
  store i8 0, i8* %16, align 1
  %18 = getelementptr inbounds %"class.syncer::ModelTypeStoreBackend", %"class.syncer::ModelTypeStoreBackend"* %1, i64 0, i32 2, i32 0, i32 0, i32 0
  %19 = load %"class.leveldb::DB"*, %"class.leveldb::DB"** %18, align 8
  %20 = bitcast %"class.leveldb::DB"* %19 to %"class.leveldb::Iterator"* (%"class.leveldb::DB"*, %"struct.leveldb::ReadOptions"*)***
  %21 = load %"class.leveldb::Iterator"* (%"class.leveldb::DB"*, %"struct.leveldb::ReadOptions"*)**, %"class.leveldb::Iterator"* (%"class.leveldb::DB"*, %"struct.leveldb::ReadOptions"*)*** %20, align 8
  %22 = getelementptr inbounds %"class.leveldb::Iterator"* (%"class.leveldb::DB"*, %"struct.leveldb::ReadOptions"*)*, %"class.leveldb::Iterator"* (%"class.leveldb::DB"*, %"struct.leveldb::ReadOptions"*)** %21, i64 6
  %23 = load %"class.leveldb::Iterator"* (%"class.leveldb::DB"*, %"struct.leveldb::ReadOptions"*)*, %"class.leveldb::Iterator"* (%"class.leveldb::DB"*, %"struct.leveldb::ReadOptions"*)** %22, align 8
  %24 = call %"class.leveldb::Iterator"* %23(%"class.leveldb::DB"* %19, %"struct.leveldb::ReadOptions"* nonnull dereferenceable(16) %5) #12
  %25 = bitcast %"class.leveldb::Slice"* %6 to i8*
  call void @llvm.lifetime.start.p0i8(i64 16, i8* nonnull %25) #12
  %26 = getelementptr inbounds %"class.leveldb::Slice", %"class.leveldb::Slice"* %6, i64 0, i32 0
  %27 = getelementptr inbounds %"class.leveldb::Slice", %"class.leveldb::Slice"* %6, i64 0, i32 1
  %28 = bitcast %"class.std::__1::basic_string"* %2 to %"struct.std::__1::basic_string<char, std::__1::char_traits<char>, std::__1::allocator<char> >::__short"*
  %29 = getelementptr inbounds %"struct.std::__1::basic_string<char, std::__1::char_traits<char>, std::__1::allocator<char> >::__short", %"struct.std::__1::basic_string<char, std::__1::char_traits<char>, std::__1::allocator<char> >::__short"* %28, i64 0, i32 1, i32 0
  %30 = load i8, i8* %29, align 1
  %31 = icmp slt i8 %30, 0
  %32 = getelementptr inbounds %"class.std::__1::basic_string", %"class.std::__1::basic_string"* %2, i64 0, i32 0, i32 0, i32 0, i32 0, i32 0, i32 0
  %33 = load i8*, i8** %32, align 8
  %34 = bitcast %"class.std::__1::basic_string"* %2 to i8*
  %35 = select i1 %31, i8* %33, i8* %34
  store i8* %35, i8** %26, align 8
  %36 = getelementptr inbounds %"class.std::__1::basic_string", %"class.std::__1::basic_string"* %2, i64 0, i32 0, i32 0, i32 0, i32 0, i32 0, i32 1
  %37 = load i64, i64* %36, align 8
  %38 = zext i8 %30 to i64
  %39 = select i1 %31, i64 %37, i64 %38
  store i64 %39, i64* %27, align 8
  %40 = bitcast %"class.leveldb::Iterator"* %24 to void (%"class.leveldb::Iterator"*, %"class.leveldb::Slice"*)***
  %41 = load void (%"class.leveldb::Iterator"*, %"class.leveldb::Slice"*)**, void (%"class.leveldb::Iterator"*, %"class.leveldb::Slice"*)*** %40, align 8
  %42 = getelementptr inbounds void (%"class.leveldb::Iterator"*, %"class.leveldb::Slice"*)*, void (%"class.leveldb::Iterator"*, %"class.leveldb::Slice"*)** %41, i64 5
  %43 = load void (%"class.leveldb::Iterator"*, %"class.leveldb::Slice"*)*, void (%"class.leveldb::Iterator"*, %"class.leveldb::Slice"*)** %42, align 8
  call void %43(%"class.leveldb::Iterator"* %24, %"class.leveldb::Slice"* nonnull dereferenceable(16) %6) #12
  %44 = bitcast %"class.leveldb::Iterator"* %24 to i1 (%"class.leveldb::Iterator"*)***
  %45 = load i1 (%"class.leveldb::Iterator"*)**, i1 (%"class.leveldb::Iterator"*)*** %44, align 8
  %46 = getelementptr inbounds i1 (%"class.leveldb::Iterator"*)*, i1 (%"class.leveldb::Iterator"*)** %45, i64 2
  %47 = load i1 (%"class.leveldb::Iterator"*)*, i1 (%"class.leveldb::Iterator"*)** %46, align 8
  %48 = call zeroext i1 %47(%"class.leveldb::Iterator"* %24) #12
  br i1 %48, label %49, label %168

49:                                               ; preds = %4
  %50 = bitcast %"class.leveldb::Iterator"* %24 to { i8*, i64 } (%"class.leveldb::Iterator"*)***
  %51 = bitcast %"class.std::__1::basic_string"* %7 to i8*
  %52 = getelementptr inbounds %"class.std::__1::basic_string", %"class.std::__1::basic_string"* %7, i64 0, i32 0, i32 0, i32 0, i32 0, i32 0, i32 0
  %53 = getelementptr inbounds %"class.std::__1::basic_string", %"class.std::__1::basic_string"* %7, i64 0, i32 0, i32 0, i32 0, i32 0, i32 0, i32 2
  %54 = getelementptr inbounds %"class.std::__1::basic_string", %"class.std::__1::basic_string"* %7, i64 0, i32 0, i32 0, i32 0, i32 0, i32 0, i32 1
  %55 = bitcast %"class.std::__1::basic_string"* %7 to %"struct.std::__1::basic_string<char, std::__1::char_traits<char>, std::__1::allocator<char> >::__short"*
  %56 = getelementptr inbounds %"struct.std::__1::basic_string<char, std::__1::char_traits<char>, std::__1::allocator<char> >::__short", %"struct.std::__1::basic_string<char, std::__1::char_traits<char>, std::__1::allocator<char> >::__short"* %55, i64 0, i32 1, i32 0
  %57 = bitcast %"class.std::__1::basic_string"* %8 to i8*
  %58 = getelementptr inbounds %"class.std::__1::basic_string", %"class.std::__1::basic_string"* %8, i64 0, i32 0, i32 0, i32 0, i32 0, i32 0, i32 0
  %59 = getelementptr inbounds %"class.std::__1::basic_string", %"class.std::__1::basic_string"* %8, i64 0, i32 0, i32 0, i32 0, i32 0, i32 0, i32 2
  %60 = getelementptr inbounds %"class.std::__1::basic_string", %"class.std::__1::basic_string"* %8, i64 0, i32 0, i32 0, i32 0, i32 0, i32 0, i32 1
  %61 = bitcast %"class.std::__1::basic_string"* %8 to %"struct.std::__1::basic_string<char, std::__1::char_traits<char>, std::__1::allocator<char> >::__short"*
  %62 = getelementptr inbounds %"struct.std::__1::basic_string<char, std::__1::char_traits<char>, std::__1::allocator<char> >::__short", %"struct.std::__1::basic_string<char, std::__1::char_traits<char>, std::__1::allocator<char> >::__short"* %61, i64 0, i32 1, i32 0
  %63 = getelementptr inbounds %"class.std::__1::vector.24", %"class.std::__1::vector.24"* %3, i64 0, i32 0, i32 1
  %64 = getelementptr inbounds %"class.std::__1::vector.24", %"class.std::__1::vector.24"* %3, i64 0, i32 0, i32 2, i32 0, i32 0
  %65 = bitcast %"struct.syncer::ModelTypeStoreBase::Record"** %63 to i64*
  %66 = bitcast %"class.leveldb::Iterator"* %24 to void (%"class.leveldb::Iterator"*)***
  br label %67

67:                                               ; preds = %49, %160
  %68 = load { i8*, i64 } (%"class.leveldb::Iterator"*)**, { i8*, i64 } (%"class.leveldb::Iterator"*)*** %50, align 8
  %69 = getelementptr inbounds { i8*, i64 } (%"class.leveldb::Iterator"*)*, { i8*, i64 } (%"class.leveldb::Iterator"*)** %68, i64 8
  %70 = load { i8*, i64 } (%"class.leveldb::Iterator"*)*, { i8*, i64 } (%"class.leveldb::Iterator"*)** %69, align 8
  %71 = call { i8*, i64 } %70(%"class.leveldb::Iterator"* %24) #12
  %72 = extractvalue { i8*, i64 } %71, 0
  %73 = extractvalue { i8*, i64 } %71, 1
  %74 = load i64, i64* %27, align 8
  %75 = icmp ult i64 %73, %74
  br i1 %75, label %168, label %76

76:                                               ; preds = %67
  %77 = load i8*, i8** %26, align 8
  %78 = call i32 @bcmp(i8* %72, i8* %77, i64 %74) #12
  %79 = icmp eq i32 %78, 0
  br i1 %79, label %80, label %168

80:                                               ; preds = %76
  %81 = getelementptr inbounds i8, i8* %72, i64 %74
  %82 = sub i64 %73, %74
  call void @llvm.lifetime.start.p0i8(i64 24, i8* nonnull %51) #12
  %83 = icmp ugt i64 %82, -17
  br i1 %83, label %84, label %86

84:                                               ; preds = %80
  %85 = bitcast %"class.std::__1::basic_string"* %7 to %"class.std::__1::__basic_string_common"*
  call void @_ZNKSt3__121__basic_string_commonILb1EE20__throw_length_errorEv(%"class.std::__1::__basic_string_common"* nonnull %85) #14
  unreachable

86:                                               ; preds = %80
  %87 = icmp ult i64 %82, 23
  br i1 %87, label %93, label %88

88:                                               ; preds = %86
  %89 = add nuw i64 %82, 16
  %90 = and i64 %89, -16
  %91 = call i8* @_Znwm(i64 %90) #13
  store i8* %91, i8** %52, align 8, !alias.scope !9
  %92 = or i64 %90, -9223372036854775808
  store i64 %92, i64* %53, align 8, !alias.scope !9
  store i64 %82, i64* %54, align 8, !alias.scope !9
  br label %96

93:                                               ; preds = %86
  %94 = trunc i64 %82 to i8
  store i8 %94, i8* %56, align 1, !alias.scope !9
  %95 = icmp eq i64 %82, 0
  br i1 %95, label %98, label %96

96:                                               ; preds = %93, %88
  %97 = phi i8* [ %91, %88 ], [ %51, %93 ]
  call void @llvm.memcpy.p0i8.p0i8.i64(i8* nonnull align 1 %97, i8* align 1 %81, i64 %82, i1 false) #12
  br label %98

98:                                               ; preds = %93, %96
  %99 = phi i8* [ %51, %93 ], [ %97, %96 ]
  %100 = getelementptr inbounds i8, i8* %99, i64 %82
  store i8 0, i8* %100, align 1
  call void @llvm.lifetime.start.p0i8(i64 24, i8* nonnull %57) #12
  %101 = load { i8*, i64 } (%"class.leveldb::Iterator"*)**, { i8*, i64 } (%"class.leveldb::Iterator"*)*** %50, align 8
  %102 = getelementptr inbounds { i8*, i64 } (%"class.leveldb::Iterator"*)*, { i8*, i64 } (%"class.leveldb::Iterator"*)** %101, i64 9
  %103 = load { i8*, i64 } (%"class.leveldb::Iterator"*)*, { i8*, i64 } (%"class.leveldb::Iterator"*)** %102, align 8
  %104 = call { i8*, i64 } %103(%"class.leveldb::Iterator"* %24) #12
  %105 = extractvalue { i8*, i64 } %104, 0
  %106 = extractvalue { i8*, i64 } %104, 1
  %107 = icmp ugt i64 %106, -17
  br i1 %107, label %108, label %110

108:                                              ; preds = %98
  %109 = bitcast %"class.std::__1::basic_string"* %8 to %"class.std::__1::__basic_string_common"*
  call void @_ZNKSt3__121__basic_string_commonILb1EE20__throw_length_errorEv(%"class.std::__1::__basic_string_common"* nonnull %109) #14
  unreachable

110:                                              ; preds = %98
  %111 = icmp ult i64 %106, 23
  br i1 %111, label %117, label %112

112:                                              ; preds = %110
  %113 = add nuw i64 %106, 16
  %114 = and i64 %113, -16
  %115 = call i8* @_Znwm(i64 %114) #13
  store i8* %115, i8** %58, align 8, !alias.scope !12
  %116 = or i64 %114, -9223372036854775808
  store i64 %116, i64* %59, align 8, !alias.scope !12
  store i64 %106, i64* %60, align 8, !alias.scope !12
  br label %120

117:                                              ; preds = %110
  %118 = trunc i64 %106 to i8
  store i8 %118, i8* %62, align 1, !alias.scope !12
  %119 = icmp eq i64 %106, 0
  br i1 %119, label %122, label %120

120:                                              ; preds = %117, %112
  %121 = phi i8* [ %115, %112 ], [ %57, %117 ]
  call void @llvm.memcpy.p0i8.p0i8.i64(i8* nonnull align 1 %121, i8* align 1 %105, i64 %106, i1 false) #12
  br label %122

122:                                              ; preds = %117, %120
  %123 = phi i8* [ %57, %117 ], [ %121, %120 ]
  %124 = getelementptr inbounds i8, i8* %123, i64 %106
  store i8 0, i8* %124, align 1
  %125 = load %"struct.syncer::ModelTypeStoreBase::Record"*, %"struct.syncer::ModelTypeStoreBase::Record"** %63, align 8
  %126 = load %"struct.syncer::ModelTypeStoreBase::Record"*, %"struct.syncer::ModelTypeStoreBase::Record"** %64, align 8
  %127 = icmp ult %"struct.syncer::ModelTypeStoreBase::Record"* %125, %126
  br i1 %127, label %128, label %149

128:                                              ; preds = %122
  %129 = load i8, i8* %56, align 1
  %130 = icmp slt i8 %129, 0
  br i1 %130, label %133, label %131

131:                                              ; preds = %128
  %132 = bitcast %"struct.syncer::ModelTypeStoreBase::Record"* %125 to i8*
  call void @llvm.memcpy.p0i8.p0i8.i64(i8* align 8 %132, i8* nonnull align 8 %51, i64 24, i1 false) #12
  br label %137

133:                                              ; preds = %128
  %134 = getelementptr inbounds %"struct.syncer::ModelTypeStoreBase::Record", %"struct.syncer::ModelTypeStoreBase::Record"* %125, i64 0, i32 0
  %135 = load i8*, i8** %52, align 8
  %136 = load i64, i64* %54, align 8
  call void @_ZNSt3__112basic_stringIcNS_11char_traitsIcEENS_9allocatorIcEEE25__init_copy_ctor_externalEPKcm(%"class.std::__1::basic_string"* %134, i8* %135, i64 %136) #12
  br label %137

137:                                              ; preds = %133, %131
  %138 = getelementptr inbounds %"struct.syncer::ModelTypeStoreBase::Record", %"struct.syncer::ModelTypeStoreBase::Record"* %125, i64 0, i32 1
  %139 = load i8, i8* %62, align 1
  %140 = icmp slt i8 %139, 0
  br i1 %140, label %143, label %141

141:                                              ; preds = %137
  %142 = bitcast %"class.std::__1::basic_string"* %138 to i8*
  call void @llvm.memcpy.p0i8.p0i8.i64(i8* align 8 %142, i8* nonnull align 8 %57, i64 24, i1 false) #12
  br label %146

143:                                              ; preds = %137
  %144 = load i8*, i8** %58, align 8
  %145 = load i64, i64* %60, align 8
  call void @_ZNSt3__112basic_stringIcNS_11char_traitsIcEENS_9allocatorIcEEE25__init_copy_ctor_externalEPKcm(%"class.std::__1::basic_string"* %138, i8* %144, i64 %145) #12
  br label %146

146:                                              ; preds = %143, %141
  %147 = getelementptr inbounds %"struct.syncer::ModelTypeStoreBase::Record", %"struct.syncer::ModelTypeStoreBase::Record"* %125, i64 1
  %148 = ptrtoint %"struct.syncer::ModelTypeStoreBase::Record"* %147 to i64
  store i64 %148, i64* %65, align 8
  br label %150

149:                                              ; preds = %122
  call void @_ZNSt3__16vectorIN6syncer18ModelTypeStoreBase6RecordENS_9allocatorIS3_EEE24__emplace_back_slow_pathIJNS_12basic_stringIcNS_11char_traitsIcEENS4_IcEEEESC_EEEvDpOT_(%"class.std::__1::vector.24"* %3, %"class.std::__1::basic_string"* nonnull dereferenceable(24) %7, %"class.std::__1::basic_string"* nonnull dereferenceable(24) %8) #12
  br label %150

150:                                              ; preds = %146, %149
  %151 = load i8, i8* %62, align 1
  %152 = icmp slt i8 %151, 0
  br i1 %152, label %153, label %155

153:                                              ; preds = %150
  %154 = load i8*, i8** %58, align 8
  call void @_ZdlPv(i8* %154) #13
  br label %155

155:                                              ; preds = %150, %153
  call void @llvm.lifetime.end.p0i8(i64 24, i8* nonnull %57) #12
  %156 = load i8, i8* %56, align 1
  %157 = icmp slt i8 %156, 0
  br i1 %157, label %158, label %160

158:                                              ; preds = %155
  %159 = load i8*, i8** %52, align 8
  call void @_ZdlPv(i8* %159) #13
  br label %160

160:                                              ; preds = %155, %158
  call void @llvm.lifetime.end.p0i8(i64 24, i8* nonnull %51) #12
  %161 = load void (%"class.leveldb::Iterator"*)**, void (%"class.leveldb::Iterator"*)*** %66, align 8
  %162 = getelementptr inbounds void (%"class.leveldb::Iterator"*)*, void (%"class.leveldb::Iterator"*)** %161, i64 6
  %163 = load void (%"class.leveldb::Iterator"*)*, void (%"class.leveldb::Iterator"*)** %162, align 8
  call void %163(%"class.leveldb::Iterator"* %24) #12
  %164 = load i1 (%"class.leveldb::Iterator"*)**, i1 (%"class.leveldb::Iterator"*)*** %44, align 8
  %165 = getelementptr inbounds i1 (%"class.leveldb::Iterator"*)*, i1 (%"class.leveldb::Iterator"*)** %164, i64 2
  %166 = load i1 (%"class.leveldb::Iterator"*)*, i1 (%"class.leveldb::Iterator"*)** %165, align 8
  %167 = call zeroext i1 %166(%"class.leveldb::Iterator"* %24) #12
  br i1 %167, label %67, label %168

168:                                              ; preds = %160, %76, %67, %4
  %169 = bitcast %"class.leveldb::Status"* %9 to i8*
  call void @llvm.lifetime.start.p0i8(i64 8, i8* nonnull %169) #12
  %170 = bitcast %"class.leveldb::Iterator"* %24 to void (%"class.leveldb::Status"*, %"class.leveldb::Iterator"*)***
  %171 = load void (%"class.leveldb::Status"*, %"class.leveldb::Iterator"*)**, void (%"class.leveldb::Status"*, %"class.leveldb::Iterator"*)*** %170, align 8
  %172 = getelementptr inbounds void (%"class.leveldb::Status"*, %"class.leveldb::Iterator"*)*, void (%"class.leveldb::Status"*, %"class.leveldb::Iterator"*)** %171, i64 10
  %173 = load void (%"class.leveldb::Status"*, %"class.leveldb::Iterator"*)*, void (%"class.leveldb::Status"*, %"class.leveldb::Iterator"*)** %172, align 8
  call void %173(%"class.leveldb::Status"* nonnull sret %9, %"class.leveldb::Iterator"* %24) #12
  %174 = getelementptr inbounds %"class.leveldb::Status", %"class.leveldb::Status"* %9, i64 0, i32 0
  %175 = load i8*, i8** %174, align 8
  %176 = icmp eq i8* %175, null
  %177 = bitcast %"class.base::Location"* %11 to i8*
  call void @llvm.lifetime.start.p0i8(i64 32, i8* nonnull %177) #12
  br i1 %176, label %178, label %182

178:                                              ; preds = %168
  %179 = getelementptr inbounds %"class.absl::optional", %"class.absl::optional"* %0, i64 0, i32 0, i32 0, i32 0, i32 0
  store i8 0, i8* %179, align 8
  %180 = getelementptr inbounds %"class.absl::optional", %"class.absl::optional"* %0, i64 0, i32 0, i32 0, i32 0, i32 1
  %181 = bitcast %union.anon.11* %180 to i8*
  call void @llvm.memset.p0i8.i64(i8* align 8 %181, i8 0, i64 56, i1 false) #12
  call void @llvm.lifetime.end.p0i8(i64 32, i8* nonnull %177) #12
  br label %223

182:                                              ; preds = %168
  %183 = bitcast %"class.syncer::ModelError"* %10 to i8*
  call void @llvm.lifetime.start.p0i8(i64 56, i8* nonnull %183) #12
  call void @_ZN4base8Location7CurrentEPKcS2_i(%"class.base::Location"* nonnull sret %11, i8* getelementptr inbounds ([25 x i8], [25 x i8]* @.str.6, i64 0, i64 0), i8* getelementptr inbounds ([56 x i8], [56 x i8]* @.str.3, i64 0, i64 0), i32 192) #12
  %184 = bitcast %"class.std::__1::basic_string"* %12 to i8*
  call void @llvm.lifetime.start.p0i8(i64 24, i8* nonnull %184) #12
  %185 = bitcast %"class.leveldb::Status"* %13 to i8*
  call void @llvm.lifetime.start.p0i8(i64 8, i8* nonnull %185) #12
  %186 = load void (%"class.leveldb::Status"*, %"class.leveldb::Iterator"*)**, void (%"class.leveldb::Status"*, %"class.leveldb::Iterator"*)*** %170, align 8
  %187 = getelementptr inbounds void (%"class.leveldb::Status"*, %"class.leveldb::Iterator"*)*, void (%"class.leveldb::Status"*, %"class.leveldb::Iterator"*)** %186, i64 10
  %188 = load void (%"class.leveldb::Status"*, %"class.leveldb::Iterator"*)*, void (%"class.leveldb::Status"*, %"class.leveldb::Iterator"*)** %187, align 8
  call void %188(%"class.leveldb::Status"* nonnull sret %13, %"class.leveldb::Iterator"* %24) #12
  call void @_ZNK7leveldb6Status8ToStringEv(%"class.std::__1::basic_string"* nonnull sret %12, %"class.leveldb::Status"* nonnull %13) #12
  call void @_ZN6syncer10ModelErrorC1ERKN4base8LocationERKNSt3__112basic_stringIcNS5_11char_traitsIcEENS5_9allocatorIcEEEE(%"class.syncer::ModelError"* nonnull %10, %"class.base::Location"* nonnull dereferenceable(32) %11, %"class.std::__1::basic_string"* nonnull dereferenceable(24) %12) #12
  %189 = getelementptr inbounds %"class.absl::optional", %"class.absl::optional"* %0, i64 0, i32 0, i32 0, i32 0, i32 0
  store i8 1, i8* %189, align 8
  %190 = getelementptr inbounds %"class.absl::optional", %"class.absl::optional"* %0, i64 0, i32 0, i32 0, i32 0, i32 1, i32 0, i32 0
  %191 = getelementptr inbounds %"class.syncer::ModelError", %"class.syncer::ModelError"* %10, i64 0, i32 0
  call void @_ZN4base8LocationC1ERKS0_(%"class.base::Location"* %190, %"class.base::Location"* nonnull dereferenceable(32) %191) #12
  %192 = getelementptr inbounds %"class.absl::optional", %"class.absl::optional"* %0, i64 0, i32 0, i32 0, i32 0, i32 1, i32 0, i32 1
  %193 = getelementptr inbounds %"class.syncer::ModelError", %"class.syncer::ModelError"* %10, i64 0, i32 1
  %194 = bitcast %"class.std::__1::basic_string"* %193 to %"struct.std::__1::basic_string<char, std::__1::char_traits<char>, std::__1::allocator<char> >::__short"*
  %195 = getelementptr inbounds %"struct.std::__1::basic_string<char, std::__1::char_traits<char>, std::__1::allocator<char> >::__short", %"struct.std::__1::basic_string<char, std::__1::char_traits<char>, std::__1::allocator<char> >::__short"* %194, i64 0, i32 1, i32 0
  %196 = load i8, i8* %195, align 1
  %197 = icmp slt i8 %196, 0
  br i1 %197, label %201, label %198

198:                                              ; preds = %182
  %199 = bitcast %"class.std::__1::basic_string"* %192 to i8*
  %200 = bitcast %"class.std::__1::basic_string"* %193 to i8*
  call void @llvm.memcpy.p0i8.p0i8.i64(i8* align 8 %199, i8* align 8 %200, i64 24, i1 false) #12
  br label %206

201:                                              ; preds = %182
  %202 = getelementptr inbounds %"class.std::__1::basic_string", %"class.std::__1::basic_string"* %193, i64 0, i32 0, i32 0, i32 0, i32 0, i32 0, i32 0
  %203 = load i8*, i8** %202, align 8
  %204 = getelementptr inbounds %"class.syncer::ModelError", %"class.syncer::ModelError"* %10, i64 0, i32 1, i32 0, i32 0, i32 0, i32 0, i32 0, i32 1
  %205 = load i64, i64* %204, align 8
  call void @_ZNSt3__112basic_stringIcNS_11char_traitsIcEENS_9allocatorIcEEE25__init_copy_ctor_externalEPKcm(%"class.std::__1::basic_string"* %192, i8* %203, i64 %205) #12
  br label %206

206:                                              ; preds = %198, %201
  call void @_ZN6syncer10ModelErrorD1Ev(%"class.syncer::ModelError"* nonnull %10) #12
  %207 = bitcast %"class.std::__1::basic_string"* %12 to %"struct.std::__1::basic_string<char, std::__1::char_traits<char>, std::__1::allocator<char> >::__short"*
  %208 = getelementptr inbounds %"struct.std::__1::basic_string<char, std::__1::char_traits<char>, std::__1::allocator<char> >::__short", %"struct.std::__1::basic_string<char, std::__1::char_traits<char>, std::__1::allocator<char> >::__short"* %207, i64 0, i32 1, i32 0
  %209 = load i8, i8* %208, align 1
  %210 = icmp slt i8 %209, 0
  br i1 %210, label %211, label %214

211:                                              ; preds = %206
  %212 = getelementptr inbounds %"class.std::__1::basic_string", %"class.std::__1::basic_string"* %12, i64 0, i32 0, i32 0, i32 0, i32 0, i32 0, i32 0
  %213 = load i8*, i8** %212, align 8
  call void @_ZdlPv(i8* %213) #13
  br label %214

214:                                              ; preds = %206, %211
  %215 = getelementptr inbounds %"class.leveldb::Status", %"class.leveldb::Status"* %13, i64 0, i32 0
  %216 = load i8*, i8** %215, align 8
  %217 = icmp eq i8* %216, null
  br i1 %217, label %219, label %218

218:                                              ; preds = %214
  call void @_ZdaPv(i8* nonnull %216) #13
  br label %219

219:                                              ; preds = %218, %214
  call void @llvm.lifetime.end.p0i8(i64 8, i8* nonnull %185) #12
  call void @llvm.lifetime.end.p0i8(i64 24, i8* nonnull %184) #12
  call void @llvm.lifetime.end.p0i8(i64 32, i8* nonnull %177) #12
  call void @llvm.lifetime.end.p0i8(i64 56, i8* nonnull %183) #12
  %220 = load i8*, i8** %174, align 8
  %221 = icmp eq i8* %220, null
  br i1 %221, label %223, label %222

222:                                              ; preds = %219
  call void @_ZdaPv(i8* nonnull %220) #13
  br label %223

223:                                              ; preds = %178, %219, %222
  call void @llvm.lifetime.end.p0i8(i64 8, i8* nonnull %169) #12
  call void @llvm.lifetime.end.p0i8(i64 16, i8* nonnull %25) #12
  %224 = icmp eq %"class.leveldb::Iterator"* %24, null
  br i1 %224, label %230, label %225

225:                                              ; preds = %223
  %226 = bitcast %"class.leveldb::Iterator"* %24 to void (%"class.leveldb::Iterator"*)***
  %227 = load void (%"class.leveldb::Iterator"*)**, void (%"class.leveldb::Iterator"*)*** %226, align 8
  %228 = getelementptr inbounds void (%"class.leveldb::Iterator"*)*, void (%"class.leveldb::Iterator"*)** %227, i64 1
  %229 = load void (%"class.leveldb::Iterator"*)*, void (%"class.leveldb::Iterator"*)** %228, align 8
  call void %229(%"class.leveldb::Iterator"* nonnull %24) #12
  br label %230

230:                                              ; preds = %223, %225
  call void @llvm.lifetime.end.p0i8(i64 16, i8* nonnull %14) #12
  ret void
}

; Function Attrs: nounwind ssp uwtable
define hidden void @_ZN6syncer21ModelTypeStoreBackend18WriteModificationsENSt3__110unique_ptrIN7leveldb10WriteBatchENS1_14default_deleteIS4_EEEEPNS3_6StatusE(%"class.absl::optional"* noalias sret, %"class.syncer::ModelTypeStoreBackend"* nocapture readonly, %"class.leveldb::WriteBatch"*, %"class.leveldb::Status"*) local_unnamed_addr #0 align 2 {
  %5 = alloca %"class.leveldb::Status", align 8
  %6 = alloca %"struct.leveldb::WriteOptions", align 1
  %7 = alloca %"class.syncer::ModelError", align 8
  %8 = alloca %"class.base::Location", align 8
  %9 = alloca %"class.std::__1::basic_string", align 8
  %10 = bitcast %"class.leveldb::Status"* %5 to i8*
  call void @llvm.lifetime.start.p0i8(i64 8, i8* nonnull %10) #12
  %11 = getelementptr inbounds %"class.leveldb::Status", %"class.leveldb::Status"* %5, i64 0, i32 0
  store i8* inttoptr (i64 -6148914691236517206 to i8*), i8** %11, align 8
  %12 = getelementptr inbounds %"class.syncer::ModelTypeStoreBackend", %"class.syncer::ModelTypeStoreBackend"* %1, i64 0, i32 2, i32 0, i32 0, i32 0
  %13 = load %"class.leveldb::DB"*, %"class.leveldb::DB"** %12, align 8
  %14 = getelementptr inbounds %"struct.leveldb::WriteOptions", %"struct.leveldb::WriteOptions"* %6, i64 0, i32 0
  call void @llvm.lifetime.start.p0i8(i64 1, i8* nonnull %14) #12
  store i8 0, i8* %14, align 1
  %15 = bitcast %"class.leveldb::DB"* %13 to void (%"class.leveldb::Status"*, %"class.leveldb::DB"*, %"struct.leveldb::WriteOptions"*, %"class.leveldb::WriteBatch"*)***
  %16 = load void (%"class.leveldb::Status"*, %"class.leveldb::DB"*, %"struct.leveldb::WriteOptions"*, %"class.leveldb::WriteBatch"*)**, void (%"class.leveldb::Status"*, %"class.leveldb::DB"*, %"struct.leveldb::WriteOptions"*, %"class.leveldb::WriteBatch"*)*** %15, align 8
  %17 = getelementptr inbounds void (%"class.leveldb::Status"*, %"class.leveldb::DB"*, %"struct.leveldb::WriteOptions"*, %"class.leveldb::WriteBatch"*)*, void (%"class.leveldb::Status"*, %"class.leveldb::DB"*, %"struct.leveldb::WriteOptions"*, %"class.leveldb::WriteBatch"*)** %16, i64 4
  %18 = load void (%"class.leveldb::Status"*, %"class.leveldb::DB"*, %"struct.leveldb::WriteOptions"*, %"class.leveldb::WriteBatch"*)*, void (%"class.leveldb::Status"*, %"class.leveldb::DB"*, %"struct.leveldb::WriteOptions"*, %"class.leveldb::WriteBatch"*)** %17, align 8
  call void %18(%"class.leveldb::Status"* nonnull sret %5, %"class.leveldb::DB"* %13, %"struct.leveldb::WriteOptions"* nonnull dereferenceable(1) %6, %"class.leveldb::WriteBatch"* %2) #12
  call void @llvm.lifetime.end.p0i8(i64 1, i8* nonnull %14) #12
  %19 = icmp eq %"class.leveldb::Status"* %3, null
  br i1 %19, label %36, label %20

20:                                               ; preds = %4
  %21 = getelementptr inbounds %"class.leveldb::Status", %"class.leveldb::Status"* %3, i64 0, i32 0
  %22 = load i8*, i8** %21, align 8
  %23 = load i8*, i8** %11, align 8
  %24 = icmp eq i8* %22, %23
  br i1 %24, label %38, label %25

25:                                               ; preds = %20
  %26 = icmp eq i8* %22, null
  br i1 %26, label %29, label %27

27:                                               ; preds = %25
  call void @_ZdaPv(i8* nonnull %22) #13
  %28 = load i8*, i8** %11, align 8
  br label %29

29:                                               ; preds = %27, %25
  %30 = phi i8* [ %28, %27 ], [ %23, %25 ]
  %31 = icmp eq i8* %30, null
  br i1 %31, label %34, label %32

32:                                               ; preds = %29
  %33 = call i8* @_ZN7leveldb6Status9CopyStateEPKc(i8* nonnull %30) #12
  br label %34

34:                                               ; preds = %32, %29
  %35 = phi i8* [ %33, %32 ], [ null, %29 ]
  store i8* %35, i8** %21, align 8
  br label %36

36:                                               ; preds = %4, %34
  %37 = load i8*, i8** %11, align 8
  br label %38

38:                                               ; preds = %36, %20
  %39 = phi i8* [ %37, %36 ], [ %22, %20 ]
  %40 = icmp eq i8* %39, null
  %41 = bitcast %"class.base::Location"* %8 to i8*
  call void @llvm.lifetime.start.p0i8(i64 32, i8* nonnull %41) #12
  br i1 %40, label %42, label %46

42:                                               ; preds = %38
  %43 = getelementptr inbounds %"class.absl::optional", %"class.absl::optional"* %0, i64 0, i32 0, i32 0, i32 0, i32 0
  store i8 0, i8* %43, align 8
  %44 = getelementptr inbounds %"class.absl::optional", %"class.absl::optional"* %0, i64 0, i32 0, i32 0, i32 0, i32 1
  %45 = bitcast %union.anon.11* %44 to i8*
  call void @llvm.memset.p0i8.i64(i8* align 8 %45, i8 0, i64 56, i1 false) #12
  call void @llvm.lifetime.end.p0i8(i64 32, i8* nonnull %41) #12
  br label %76

46:                                               ; preds = %38
  %47 = bitcast %"class.syncer::ModelError"* %7 to i8*
  call void @llvm.lifetime.start.p0i8(i64 56, i8* nonnull %47) #12
  call void @_ZN4base8Location7CurrentEPKcS2_i(%"class.base::Location"* nonnull sret %8, i8* getelementptr inbounds ([19 x i8], [19 x i8]* @.str.7, i64 0, i64 0), i8* getelementptr inbounds ([56 x i8], [56 x i8]* @.str.3, i64 0, i64 0), i32 206) #12
  %48 = bitcast %"class.std::__1::basic_string"* %9 to i8*
  call void @llvm.lifetime.start.p0i8(i64 24, i8* nonnull %48) #12
  call void @_ZNK7leveldb6Status8ToStringEv(%"class.std::__1::basic_string"* nonnull sret %9, %"class.leveldb::Status"* nonnull %5) #12
  call void @_ZN6syncer10ModelErrorC1ERKN4base8LocationERKNSt3__112basic_stringIcNS5_11char_traitsIcEENS5_9allocatorIcEEEE(%"class.syncer::ModelError"* nonnull %7, %"class.base::Location"* nonnull dereferenceable(32) %8, %"class.std::__1::basic_string"* nonnull dereferenceable(24) %9) #12
  %49 = getelementptr inbounds %"class.absl::optional", %"class.absl::optional"* %0, i64 0, i32 0, i32 0, i32 0, i32 0
  store i8 1, i8* %49, align 8
  %50 = getelementptr inbounds %"class.absl::optional", %"class.absl::optional"* %0, i64 0, i32 0, i32 0, i32 0, i32 1, i32 0, i32 0
  %51 = getelementptr inbounds %"class.syncer::ModelError", %"class.syncer::ModelError"* %7, i64 0, i32 0
  call void @_ZN4base8LocationC1ERKS0_(%"class.base::Location"* %50, %"class.base::Location"* nonnull dereferenceable(32) %51) #12
  %52 = getelementptr inbounds %"class.absl::optional", %"class.absl::optional"* %0, i64 0, i32 0, i32 0, i32 0, i32 1, i32 0, i32 1
  %53 = getelementptr inbounds %"class.syncer::ModelError", %"class.syncer::ModelError"* %7, i64 0, i32 1
  %54 = bitcast %"class.std::__1::basic_string"* %53 to %"struct.std::__1::basic_string<char, std::__1::char_traits<char>, std::__1::allocator<char> >::__short"*
  %55 = getelementptr inbounds %"struct.std::__1::basic_string<char, std::__1::char_traits<char>, std::__1::allocator<char> >::__short", %"struct.std::__1::basic_string<char, std::__1::char_traits<char>, std::__1::allocator<char> >::__short"* %54, i64 0, i32 1, i32 0
  %56 = load i8, i8* %55, align 1
  %57 = icmp slt i8 %56, 0
  br i1 %57, label %61, label %58

58:                                               ; preds = %46
  %59 = bitcast %"class.std::__1::basic_string"* %52 to i8*
  %60 = bitcast %"class.std::__1::basic_string"* %53 to i8*
  call void @llvm.memcpy.p0i8.p0i8.i64(i8* align 8 %59, i8* align 8 %60, i64 24, i1 false) #12
  br label %66

61:                                               ; preds = %46
  %62 = getelementptr inbounds %"class.std::__1::basic_string", %"class.std::__1::basic_string"* %53, i64 0, i32 0, i32 0, i32 0, i32 0, i32 0, i32 0
  %63 = load i8*, i8** %62, align 8
  %64 = getelementptr inbounds %"class.syncer::ModelError", %"class.syncer::ModelError"* %7, i64 0, i32 1, i32 0, i32 0, i32 0, i32 0, i32 0, i32 1
  %65 = load i64, i64* %64, align 8
  call void @_ZNSt3__112basic_stringIcNS_11char_traitsIcEENS_9allocatorIcEEE25__init_copy_ctor_externalEPKcm(%"class.std::__1::basic_string"* %52, i8* %63, i64 %65) #12
  br label %66

66:                                               ; preds = %58, %61
  call void @_ZN6syncer10ModelErrorD1Ev(%"class.syncer::ModelError"* nonnull %7) #12
  %67 = bitcast %"class.std::__1::basic_string"* %9 to %"struct.std::__1::basic_string<char, std::__1::char_traits<char>, std::__1::allocator<char> >::__short"*
  %68 = getelementptr inbounds %"struct.std::__1::basic_string<char, std::__1::char_traits<char>, std::__1::allocator<char> >::__short", %"struct.std::__1::basic_string<char, std::__1::char_traits<char>, std::__1::allocator<char> >::__short"* %67, i64 0, i32 1, i32 0
  %69 = load i8, i8* %68, align 1
  %70 = icmp slt i8 %69, 0
  br i1 %70, label %71, label %74

71:                                               ; preds = %66
  %72 = getelementptr inbounds %"class.std::__1::basic_string", %"class.std::__1::basic_string"* %9, i64 0, i32 0, i32 0, i32 0, i32 0, i32 0, i32 0
  %73 = load i8*, i8** %72, align 8
  call void @_ZdlPv(i8* %73) #13
  br label %74

74:                                               ; preds = %66, %71
  call void @llvm.lifetime.end.p0i8(i64 24, i8* nonnull %48) #12
  call void @llvm.lifetime.end.p0i8(i64 32, i8* nonnull %41) #12
  call void @llvm.lifetime.end.p0i8(i64 56, i8* nonnull %47) #12
  %75 = load i8*, i8** %11, align 8
  br label %76

76:                                               ; preds = %42, %74
  %77 = phi i8* [ %39, %42 ], [ %75, %74 ]
  %78 = icmp eq i8* %77, null
  br i1 %78, label %80, label %79

79:                                               ; preds = %76
  call void @_ZdaPv(i8* nonnull %77) #13
  br label %80

80:                                               ; preds = %76, %79
  call void @llvm.lifetime.end.p0i8(i64 8, i8* nonnull %10) #12
  %81 = icmp eq %"class.leveldb::WriteBatch"* %2, null
  br i1 %81, label %84, label %82

82:                                               ; preds = %80
  call void @_ZN7leveldb10WriteBatchD1Ev(%"class.leveldb::WriteBatch"* nonnull %2) #12
  %83 = bitcast %"class.leveldb::WriteBatch"* %2 to i8*
  call void @_ZdlPv(i8* %83) #13
  br label %84

84:                                               ; preds = %80, %82
  ret void
}

; Function Attrs: nounwind ssp uwtable
define hidden void @_ZN6syncer21ModelTypeStoreBackend30DeleteDataAndMetadataForPrefixERKNSt3__112basic_stringIcNS1_11char_traitsIcEENS1_9allocatorIcEEEE(%"class.absl::optional"* noalias sret, %"class.syncer::ModelTypeStoreBackend"* nocapture readonly, %"class.std::__1::basic_string"* dereferenceable(24)) local_unnamed_addr #0 align 2 {
  %4 = alloca %"class.leveldb::WriteBatch", align 8
  %5 = alloca %"struct.leveldb::ReadOptions", align 8
  %6 = alloca %"class.leveldb::Slice", align 8
  %7 = alloca %"class.leveldb::Slice", align 8
  %8 = alloca %"class.leveldb::Status", align 8
  %9 = alloca %"struct.leveldb::WriteOptions", align 1
  %10 = alloca %"class.syncer::ModelError", align 8
  %11 = alloca %"class.base::Location", align 8
  %12 = alloca %"class.std::__1::basic_string", align 8
  %13 = bitcast %"class.leveldb::WriteBatch"* %4 to i8*
  call void @llvm.lifetime.start.p0i8(i64 24, i8* nonnull %13) #12
  %14 = bitcast %"class.leveldb::WriteBatch"* %4 to i8*
  call void @llvm.memset.p0i8.i64(i8* nonnull align 8 %14, i8 -86, i64 24, i1 false)
  call void @_ZN7leveldb10WriteBatchC1Ev(%"class.leveldb::WriteBatch"* nonnull %4) #12
  %15 = getelementptr inbounds %"struct.leveldb::ReadOptions", %"struct.leveldb::ReadOptions"* %5, i64 0, i32 0
  call void @llvm.lifetime.start.p0i8(i64 16, i8* nonnull %15) #12
  %16 = bitcast %"struct.leveldb::ReadOptions"* %5 to i64*
  store i64 -6148914691236517206, i64* %16, align 8
  store i8 0, i8* %15, align 8
  %17 = getelementptr inbounds %"struct.leveldb::ReadOptions", %"struct.leveldb::ReadOptions"* %5, i64 0, i32 1
  %18 = getelementptr inbounds %"struct.leveldb::ReadOptions", %"struct.leveldb::ReadOptions"* %5, i64 0, i32 2
  store %"class.leveldb::Snapshot"* null, %"class.leveldb::Snapshot"** %18, align 8
  store i8 0, i8* %17, align 1
  %19 = getelementptr inbounds %"class.syncer::ModelTypeStoreBackend", %"class.syncer::ModelTypeStoreBackend"* %1, i64 0, i32 2, i32 0, i32 0, i32 0
  %20 = load %"class.leveldb::DB"*, %"class.leveldb::DB"** %19, align 8
  %21 = bitcast %"class.leveldb::DB"* %20 to %"class.leveldb::Iterator"* (%"class.leveldb::DB"*, %"struct.leveldb::ReadOptions"*)***
  %22 = load %"class.leveldb::Iterator"* (%"class.leveldb::DB"*, %"struct.leveldb::ReadOptions"*)**, %"class.leveldb::Iterator"* (%"class.leveldb::DB"*, %"struct.leveldb::ReadOptions"*)*** %21, align 8
  %23 = getelementptr inbounds %"class.leveldb::Iterator"* (%"class.leveldb::DB"*, %"struct.leveldb::ReadOptions"*)*, %"class.leveldb::Iterator"* (%"class.leveldb::DB"*, %"struct.leveldb::ReadOptions"*)** %22, i64 6
  %24 = load %"class.leveldb::Iterator"* (%"class.leveldb::DB"*, %"struct.leveldb::ReadOptions"*)*, %"class.leveldb::Iterator"* (%"class.leveldb::DB"*, %"struct.leveldb::ReadOptions"*)** %23, align 8
  %25 = call %"class.leveldb::Iterator"* %24(%"class.leveldb::DB"* %20, %"struct.leveldb::ReadOptions"* nonnull dereferenceable(16) %5) #12
  %26 = bitcast %"class.leveldb::Slice"* %6 to i8*
  call void @llvm.lifetime.start.p0i8(i64 16, i8* nonnull %26) #12
  %27 = getelementptr inbounds %"class.leveldb::Slice", %"class.leveldb::Slice"* %6, i64 0, i32 0
  %28 = getelementptr inbounds %"class.leveldb::Slice", %"class.leveldb::Slice"* %6, i64 0, i32 1
  %29 = bitcast %"class.std::__1::basic_string"* %2 to %"struct.std::__1::basic_string<char, std::__1::char_traits<char>, std::__1::allocator<char> >::__short"*
  %30 = getelementptr inbounds %"struct.std::__1::basic_string<char, std::__1::char_traits<char>, std::__1::allocator<char> >::__short", %"struct.std::__1::basic_string<char, std::__1::char_traits<char>, std::__1::allocator<char> >::__short"* %29, i64 0, i32 1, i32 0
  %31 = load i8, i8* %30, align 1
  %32 = icmp slt i8 %31, 0
  %33 = getelementptr inbounds %"class.std::__1::basic_string", %"class.std::__1::basic_string"* %2, i64 0, i32 0, i32 0, i32 0, i32 0, i32 0, i32 0
  %34 = load i8*, i8** %33, align 8
  %35 = bitcast %"class.std::__1::basic_string"* %2 to i8*
  %36 = select i1 %32, i8* %34, i8* %35
  store i8* %36, i8** %27, align 8
  %37 = getelementptr inbounds %"class.std::__1::basic_string", %"class.std::__1::basic_string"* %2, i64 0, i32 0, i32 0, i32 0, i32 0, i32 0, i32 1
  %38 = load i64, i64* %37, align 8
  %39 = zext i8 %31 to i64
  %40 = select i1 %32, i64 %38, i64 %39
  store i64 %40, i64* %28, align 8
  %41 = bitcast %"class.leveldb::Iterator"* %25 to void (%"class.leveldb::Iterator"*, %"class.leveldb::Slice"*)***
  %42 = load void (%"class.leveldb::Iterator"*, %"class.leveldb::Slice"*)**, void (%"class.leveldb::Iterator"*, %"class.leveldb::Slice"*)*** %41, align 8
  %43 = getelementptr inbounds void (%"class.leveldb::Iterator"*, %"class.leveldb::Slice"*)*, void (%"class.leveldb::Iterator"*, %"class.leveldb::Slice"*)** %42, i64 5
  %44 = load void (%"class.leveldb::Iterator"*, %"class.leveldb::Slice"*)*, void (%"class.leveldb::Iterator"*, %"class.leveldb::Slice"*)** %43, align 8
  call void %44(%"class.leveldb::Iterator"* %25, %"class.leveldb::Slice"* nonnull dereferenceable(16) %6) #12
  %45 = bitcast %"class.leveldb::Iterator"* %25 to i1 (%"class.leveldb::Iterator"*)***
  %46 = load i1 (%"class.leveldb::Iterator"*)**, i1 (%"class.leveldb::Iterator"*)*** %45, align 8
  %47 = getelementptr inbounds i1 (%"class.leveldb::Iterator"*)*, i1 (%"class.leveldb::Iterator"*)** %46, i64 2
  %48 = load i1 (%"class.leveldb::Iterator"*)*, i1 (%"class.leveldb::Iterator"*)** %47, align 8
  %49 = call zeroext i1 %48(%"class.leveldb::Iterator"* %25) #12
  br i1 %49, label %50, label %79

50:                                               ; preds = %3
  %51 = bitcast %"class.leveldb::Slice"* %7 to i8*
  %52 = getelementptr inbounds %"class.leveldb::Slice", %"class.leveldb::Slice"* %7, i64 0, i32 0
  %53 = getelementptr inbounds %"class.leveldb::Slice", %"class.leveldb::Slice"* %7, i64 0, i32 1
  %54 = bitcast %"class.leveldb::Iterator"* %25 to { i8*, i64 } (%"class.leveldb::Iterator"*)***
  %55 = bitcast %"class.leveldb::Iterator"* %25 to void (%"class.leveldb::Iterator"*)***
  %56 = bitcast %"class.leveldb::Slice"* %7 to i8*
  br label %57

57:                                               ; preds = %50, %70
  call void @llvm.lifetime.start.p0i8(i64 16, i8* nonnull %51) #12
  call void @llvm.memset.p0i8.i64(i8* nonnull align 8 %56, i8 -86, i64 16, i1 false)
  %58 = load { i8*, i64 } (%"class.leveldb::Iterator"*)**, { i8*, i64 } (%"class.leveldb::Iterator"*)*** %54, align 8
  %59 = getelementptr inbounds { i8*, i64 } (%"class.leveldb::Iterator"*)*, { i8*, i64 } (%"class.leveldb::Iterator"*)** %58, i64 8
  %60 = load { i8*, i64 } (%"class.leveldb::Iterator"*)*, { i8*, i64 } (%"class.leveldb::Iterator"*)** %59, align 8
  %61 = call { i8*, i64 } %60(%"class.leveldb::Iterator"* %25) #12
  %62 = extractvalue { i8*, i64 } %61, 0
  store i8* %62, i8** %52, align 8
  %63 = extractvalue { i8*, i64 } %61, 1
  store i64 %63, i64* %53, align 8
  %64 = load i64, i64* %28, align 8
  %65 = icmp ult i64 %63, %64
  br i1 %65, label %78, label %66

66:                                               ; preds = %57
  %67 = load i8*, i8** %27, align 8
  %68 = call i32 @bcmp(i8* %62, i8* %67, i64 %64) #12
  %69 = icmp eq i32 %68, 0
  br i1 %69, label %70, label %78

70:                                               ; preds = %66
  call void @_ZN7leveldb10WriteBatch6DeleteERKNS_5SliceE(%"class.leveldb::WriteBatch"* nonnull %4, %"class.leveldb::Slice"* nonnull dereferenceable(16) %7) #12
  call void @llvm.lifetime.end.p0i8(i64 16, i8* nonnull %51) #12
  %71 = load void (%"class.leveldb::Iterator"*)**, void (%"class.leveldb::Iterator"*)*** %55, align 8
  %72 = getelementptr inbounds void (%"class.leveldb::Iterator"*)*, void (%"class.leveldb::Iterator"*)** %71, i64 6
  %73 = load void (%"class.leveldb::Iterator"*)*, void (%"class.leveldb::Iterator"*)** %72, align 8
  call void %73(%"class.leveldb::Iterator"* %25) #12
  %74 = load i1 (%"class.leveldb::Iterator"*)**, i1 (%"class.leveldb::Iterator"*)*** %45, align 8
  %75 = getelementptr inbounds i1 (%"class.leveldb::Iterator"*)*, i1 (%"class.leveldb::Iterator"*)** %74, i64 2
  %76 = load i1 (%"class.leveldb::Iterator"*)*, i1 (%"class.leveldb::Iterator"*)** %75, align 8
  %77 = call zeroext i1 %76(%"class.leveldb::Iterator"* %25) #12
  br i1 %77, label %57, label %79

78:                                               ; preds = %57, %66
  call void @llvm.lifetime.end.p0i8(i64 16, i8* nonnull %51) #12
  br label %79

79:                                               ; preds = %70, %3, %78
  %80 = bitcast %"class.leveldb::Status"* %8 to i8*
  call void @llvm.lifetime.start.p0i8(i64 8, i8* nonnull %80) #12
  %81 = getelementptr inbounds %"class.leveldb::Status", %"class.leveldb::Status"* %8, i64 0, i32 0
  store i8* inttoptr (i64 -6148914691236517206 to i8*), i8** %81, align 8
  %82 = load %"class.leveldb::DB"*, %"class.leveldb::DB"** %19, align 8
  %83 = getelementptr inbounds %"struct.leveldb::WriteOptions", %"struct.leveldb::WriteOptions"* %9, i64 0, i32 0
  call void @llvm.lifetime.start.p0i8(i64 1, i8* nonnull %83) #12
  store i8 0, i8* %83, align 1
  %84 = bitcast %"class.leveldb::DB"* %82 to void (%"class.leveldb::Status"*, %"class.leveldb::DB"*, %"struct.leveldb::WriteOptions"*, %"class.leveldb::WriteBatch"*)***
  %85 = load void (%"class.leveldb::Status"*, %"class.leveldb::DB"*, %"struct.leveldb::WriteOptions"*, %"class.leveldb::WriteBatch"*)**, void (%"class.leveldb::Status"*, %"class.leveldb::DB"*, %"struct.leveldb::WriteOptions"*, %"class.leveldb::WriteBatch"*)*** %84, align 8
  %86 = getelementptr inbounds void (%"class.leveldb::Status"*, %"class.leveldb::DB"*, %"struct.leveldb::WriteOptions"*, %"class.leveldb::WriteBatch"*)*, void (%"class.leveldb::Status"*, %"class.leveldb::DB"*, %"struct.leveldb::WriteOptions"*, %"class.leveldb::WriteBatch"*)** %85, i64 4
  %87 = load void (%"class.leveldb::Status"*, %"class.leveldb::DB"*, %"struct.leveldb::WriteOptions"*, %"class.leveldb::WriteBatch"*)*, void (%"class.leveldb::Status"*, %"class.leveldb::DB"*, %"struct.leveldb::WriteOptions"*, %"class.leveldb::WriteBatch"*)** %86, align 8
  call void %87(%"class.leveldb::Status"* nonnull sret %8, %"class.leveldb::DB"* %82, %"struct.leveldb::WriteOptions"* nonnull dereferenceable(1) %9, %"class.leveldb::WriteBatch"* nonnull %4) #12
  call void @llvm.lifetime.end.p0i8(i64 1, i8* nonnull %83) #12
  %88 = load i8*, i8** %81, align 8
  %89 = icmp eq i8* %88, null
  %90 = bitcast %"class.base::Location"* %11 to i8*
  call void @llvm.lifetime.start.p0i8(i64 32, i8* nonnull %90) #12
  br i1 %89, label %91, label %95

91:                                               ; preds = %79
  %92 = getelementptr inbounds %"class.absl::optional", %"class.absl::optional"* %0, i64 0, i32 0, i32 0, i32 0, i32 0
  store i8 0, i8* %92, align 8
  %93 = getelementptr inbounds %"class.absl::optional", %"class.absl::optional"* %0, i64 0, i32 0, i32 0, i32 0, i32 1
  %94 = bitcast %union.anon.11* %93 to i8*
  call void @llvm.memset.p0i8.i64(i8* align 8 %94, i8 0, i64 56, i1 false) #12
  call void @llvm.lifetime.end.p0i8(i64 32, i8* nonnull %90) #12
  br label %127

95:                                               ; preds = %79
  %96 = bitcast %"class.syncer::ModelError"* %10 to i8*
  call void @llvm.lifetime.start.p0i8(i64 56, i8* nonnull %96) #12
  call void @_ZN4base8Location7CurrentEPKcS2_i(%"class.base::Location"* nonnull sret %11, i8* getelementptr inbounds ([31 x i8], [31 x i8]* @.str.8, i64 0, i64 0), i8* getelementptr inbounds ([56 x i8], [56 x i8]* @.str.3, i64 0, i64 0), i32 228) #12
  %97 = bitcast %"class.std::__1::basic_string"* %12 to i8*
  call void @llvm.lifetime.start.p0i8(i64 24, i8* nonnull %97) #12
  call void @_ZNK7leveldb6Status8ToStringEv(%"class.std::__1::basic_string"* nonnull sret %12, %"class.leveldb::Status"* nonnull %8) #12
  call void @_ZN6syncer10ModelErrorC1ERKN4base8LocationERKNSt3__112basic_stringIcNS5_11char_traitsIcEENS5_9allocatorIcEEEE(%"class.syncer::ModelError"* nonnull %10, %"class.base::Location"* nonnull dereferenceable(32) %11, %"class.std::__1::basic_string"* nonnull dereferenceable(24) %12) #12
  %98 = getelementptr inbounds %"class.absl::optional", %"class.absl::optional"* %0, i64 0, i32 0, i32 0, i32 0, i32 0
  store i8 1, i8* %98, align 8
  %99 = getelementptr inbounds %"class.absl::optional", %"class.absl::optional"* %0, i64 0, i32 0, i32 0, i32 0, i32 1, i32 0, i32 0
  %100 = getelementptr inbounds %"class.syncer::ModelError", %"class.syncer::ModelError"* %10, i64 0, i32 0
  call void @_ZN4base8LocationC1ERKS0_(%"class.base::Location"* %99, %"class.base::Location"* nonnull dereferenceable(32) %100) #12
  %101 = getelementptr inbounds %"class.absl::optional", %"class.absl::optional"* %0, i64 0, i32 0, i32 0, i32 0, i32 1, i32 0, i32 1
  %102 = getelementptr inbounds %"class.syncer::ModelError", %"class.syncer::ModelError"* %10, i64 0, i32 1
  %103 = bitcast %"class.std::__1::basic_string"* %102 to %"struct.std::__1::basic_string<char, std::__1::char_traits<char>, std::__1::allocator<char> >::__short"*
  %104 = getelementptr inbounds %"struct.std::__1::basic_string<char, std::__1::char_traits<char>, std::__1::allocator<char> >::__short", %"struct.std::__1::basic_string<char, std::__1::char_traits<char>, std::__1::allocator<char> >::__short"* %103, i64 0, i32 1, i32 0
  %105 = load i8, i8* %104, align 1
  %106 = icmp slt i8 %105, 0
  br i1 %106, label %110, label %107

107:                                              ; preds = %95
  %108 = bitcast %"class.std::__1::basic_string"* %101 to i8*
  %109 = bitcast %"class.std::__1::basic_string"* %102 to i8*
  call void @llvm.memcpy.p0i8.p0i8.i64(i8* align 8 %108, i8* align 8 %109, i64 24, i1 false) #12
  br label %115

110:                                              ; preds = %95
  %111 = getelementptr inbounds %"class.std::__1::basic_string", %"class.std::__1::basic_string"* %102, i64 0, i32 0, i32 0, i32 0, i32 0, i32 0, i32 0
  %112 = load i8*, i8** %111, align 8
  %113 = getelementptr inbounds %"class.syncer::ModelError", %"class.syncer::ModelError"* %10, i64 0, i32 1, i32 0, i32 0, i32 0, i32 0, i32 0, i32 1
  %114 = load i64, i64* %113, align 8
  call void @_ZNSt3__112basic_stringIcNS_11char_traitsIcEENS_9allocatorIcEEE25__init_copy_ctor_externalEPKcm(%"class.std::__1::basic_string"* %101, i8* %112, i64 %114) #12
  br label %115

115:                                              ; preds = %107, %110
  call void @_ZN6syncer10ModelErrorD1Ev(%"class.syncer::ModelError"* nonnull %10) #12
  %116 = bitcast %"class.std::__1::basic_string"* %12 to %"struct.std::__1::basic_string<char, std::__1::char_traits<char>, std::__1::allocator<char> >::__short"*
  %117 = getelementptr inbounds %"struct.std::__1::basic_string<char, std::__1::char_traits<char>, std::__1::allocator<char> >::__short", %"struct.std::__1::basic_string<char, std::__1::char_traits<char>, std::__1::allocator<char> >::__short"* %116, i64 0, i32 1, i32 0
  %118 = load i8, i8* %117, align 1
  %119 = icmp slt i8 %118, 0
  br i1 %119, label %120, label %123

120:                                              ; preds = %115
  %121 = getelementptr inbounds %"class.std::__1::basic_string", %"class.std::__1::basic_string"* %12, i64 0, i32 0, i32 0, i32 0, i32 0, i32 0, i32 0
  %122 = load i8*, i8** %121, align 8
  call void @_ZdlPv(i8* %122) #13
  br label %123

123:                                              ; preds = %120, %115
  call void @llvm.lifetime.end.p0i8(i64 24, i8* nonnull %97) #12
  call void @llvm.lifetime.end.p0i8(i64 32, i8* nonnull %90) #12
  call void @llvm.lifetime.end.p0i8(i64 56, i8* nonnull %96) #12
  %124 = load i8*, i8** %81, align 8
  %125 = icmp eq i8* %124, null
  br i1 %125, label %127, label %126

126:                                              ; preds = %123
  call void @_ZdaPv(i8* nonnull %124) #13
  br label %127

127:                                              ; preds = %91, %123, %126
  call void @llvm.lifetime.end.p0i8(i64 8, i8* nonnull %80) #12
  call void @llvm.lifetime.end.p0i8(i64 16, i8* nonnull %26) #12
  %128 = icmp eq %"class.leveldb::Iterator"* %25, null
  br i1 %128, label %134, label %129

129:                                              ; preds = %127
  %130 = bitcast %"class.leveldb::Iterator"* %25 to void (%"class.leveldb::Iterator"*)***
  %131 = load void (%"class.leveldb::Iterator"*)**, void (%"class.leveldb::Iterator"*)*** %130, align 8
  %132 = getelementptr inbounds void (%"class.leveldb::Iterator"*)*, void (%"class.leveldb::Iterator"*)** %131, i64 1
  %133 = load void (%"class.leveldb::Iterator"*)*, void (%"class.leveldb::Iterator"*)** %132, align 8
  call void %133(%"class.leveldb::Iterator"* nonnull %25) #12
  br label %134

134:                                              ; preds = %127, %129
  call void @llvm.lifetime.end.p0i8(i64 16, i8* nonnull %15) #12
  call void @_ZN7leveldb10WriteBatchD1Ev(%"class.leveldb::WriteBatch"* nonnull %4) #12
  call void @llvm.lifetime.end.p0i8(i64 24, i8* nonnull %13) #12
  ret void
}

declare void @_ZN7leveldb10WriteBatchC1Ev(%"class.leveldb::WriteBatch"*) unnamed_addr #3

declare void @_ZN7leveldb10WriteBatch6DeleteERKNS_5SliceE(%"class.leveldb::WriteBatch"*, %"class.leveldb::Slice"* dereferenceable(16)) local_unnamed_addr #3

; Function Attrs: nounwind
declare void @_ZN7leveldb10WriteBatchD1Ev(%"class.leveldb::WriteBatch"*) unnamed_addr #4

; Function Attrs: nounwind ssp uwtable
define hidden void @_ZN6syncer21ModelTypeStoreBackend14MigrateForTestEll(%"class.absl::optional"* noalias sret, %"class.syncer::ModelTypeStoreBackend"* nocapture readonly, i64, i64) local_unnamed_addr #0 align 2 {
  tail call void @_ZN6syncer21ModelTypeStoreBackend7MigrateEll(%"class.absl::optional"* sret %0, %"class.syncer::ModelTypeStoreBackend"* %1, i64 %2, i64 %3)
  ret void
}

; Function Attrs: nounwind ssp uwtable
define hidden i64 @_ZN6syncer21ModelTypeStoreBackend22GetStoreVersionForTestEv(%"class.syncer::ModelTypeStoreBackend"* nocapture readonly) local_unnamed_addr #0 align 2 {
  %2 = tail call i64 @_ZN6syncer21ModelTypeStoreBackend15GetStoreVersionEv(%"class.syncer::ModelTypeStoreBackend"* %0)
  ret i64 %2
}

declare zeroext i1 @_ZN6google8protobuf11MessageLite15ParseFromStringERKNSt3__112basic_stringIcNS2_11char_traitsIcEENS2_9allocatorIcEEEE(%"class.google::protobuf::MessageLite"*, %"class.std::__1::basic_string"* dereferenceable(24)) local_unnamed_addr #3

; Function Attrs: nounwind
declare void @_ZN7sync_pb30ModelTypeStoreSchemaDescriptorD1Ev(%"class.sync_pb::ModelTypeStoreSchemaDescriptor"*) unnamed_addr #4

; Function Attrs: nounwind ssp uwtable
define hidden zeroext i1 @_ZN6syncer21ModelTypeStoreBackend11Migrate0To1Ev(%"class.syncer::ModelTypeStoreBackend"* nocapture readonly) local_unnamed_addr #0 align 2 {
  %2 = alloca %"class.sync_pb::ModelTypeStoreSchemaDescriptor", align 8
  %3 = alloca %"class.leveldb::Status", align 8
  %4 = alloca %"struct.leveldb::WriteOptions", align 1
  %5 = alloca %"class.leveldb::Slice", align 8
  %6 = alloca %"class.leveldb::Slice", align 8
  %7 = alloca %"class.std::__1::basic_string", align 8
  %8 = bitcast %"class.sync_pb::ModelTypeStoreSchemaDescriptor"* %2 to i8*
  call void @llvm.lifetime.start.p0i8(i64 32, i8* nonnull %8) #12
  %9 = getelementptr inbounds %"class.sync_pb::ModelTypeStoreSchemaDescriptor", %"class.sync_pb::ModelTypeStoreSchemaDescriptor"* %2, i64 0, i32 1, i32 0, i64 0
  %10 = getelementptr inbounds %"class.sync_pb::ModelTypeStoreSchemaDescriptor", %"class.sync_pb::ModelTypeStoreSchemaDescriptor"* %2, i64 0, i32 3
  %11 = bitcast %"class.sync_pb::ModelTypeStoreSchemaDescriptor"* %2 to i8*
  call void @llvm.memset.p0i8.i64(i8* nonnull align 8 %11, i8 -86, i64 32, i1 false)
  call void @_ZN7sync_pb30ModelTypeStoreSchemaDescriptorC2EPN6google8protobuf5ArenaE(%"class.sync_pb::ModelTypeStoreSchemaDescriptor"* nonnull %2, %"class.google::protobuf::Arena"* null) #12
  %12 = load i32, i32* %9, align 8
  %13 = or i32 %12, 1
  store i32 %13, i32* %9, align 8
  store i64 1, i64* %10, align 8
  %14 = bitcast %"class.leveldb::Status"* %3 to i8*
  call void @llvm.lifetime.start.p0i8(i64 8, i8* nonnull %14) #12
  %15 = getelementptr inbounds %"class.leveldb::Status", %"class.leveldb::Status"* %3, i64 0, i32 0
  store i8* inttoptr (i64 -6148914691236517206 to i8*), i8** %15, align 8
  %16 = getelementptr inbounds %"class.syncer::ModelTypeStoreBackend", %"class.syncer::ModelTypeStoreBackend"* %0, i64 0, i32 2, i32 0, i32 0, i32 0
  %17 = load %"class.leveldb::DB"*, %"class.leveldb::DB"** %16, align 8
  %18 = getelementptr inbounds %"struct.leveldb::WriteOptions", %"struct.leveldb::WriteOptions"* %4, i64 0, i32 0
  call void @llvm.lifetime.start.p0i8(i64 1, i8* nonnull %18) #12
  store i8 0, i8* %18, align 1
  %19 = bitcast %"class.leveldb::Slice"* %5 to i8*
  call void @llvm.lifetime.start.p0i8(i64 16, i8* nonnull %19) #12
  %20 = getelementptr inbounds %"class.leveldb::Slice", %"class.leveldb::Slice"* %5, i64 0, i32 0
  store i8* getelementptr inbounds ([23 x i8], [23 x i8]* @_ZN6syncer21ModelTypeStoreBackend27kDBSchemaDescriptorRecordIdE, i64 0, i64 0), i8** %20, align 8
  %21 = getelementptr inbounds %"class.leveldb::Slice", %"class.leveldb::Slice"* %5, i64 0, i32 1
  store i64 22, i64* %21, align 8
  %22 = bitcast %"class.leveldb::Slice"* %6 to i8*
  call void @llvm.lifetime.start.p0i8(i64 16, i8* nonnull %22) #12
  %23 = bitcast %"class.std::__1::basic_string"* %7 to i8*
  call void @llvm.lifetime.start.p0i8(i64 24, i8* nonnull %23) #12
  %24 = getelementptr inbounds %"class.sync_pb::ModelTypeStoreSchemaDescriptor", %"class.sync_pb::ModelTypeStoreSchemaDescriptor"* %2, i64 0, i32 0
  call void @_ZNK6google8protobuf11MessageLite17SerializeAsStringEv(%"class.std::__1::basic_string"* nonnull sret %7, %"class.google::protobuf::MessageLite"* nonnull %24) #12
  %25 = getelementptr inbounds %"class.leveldb::Slice", %"class.leveldb::Slice"* %6, i64 0, i32 0
  %26 = bitcast %"class.std::__1::basic_string"* %7 to %"struct.std::__1::basic_string<char, std::__1::char_traits<char>, std::__1::allocator<char> >::__short"*
  %27 = getelementptr inbounds %"struct.std::__1::basic_string<char, std::__1::char_traits<char>, std::__1::allocator<char> >::__short", %"struct.std::__1::basic_string<char, std::__1::char_traits<char>, std::__1::allocator<char> >::__short"* %26, i64 0, i32 1, i32 0
  %28 = load i8, i8* %27, align 1
  %29 = icmp slt i8 %28, 0
  %30 = getelementptr inbounds %"class.std::__1::basic_string", %"class.std::__1::basic_string"* %7, i64 0, i32 0, i32 0, i32 0, i32 0, i32 0, i32 0
  %31 = load i8*, i8** %30, align 8
  %32 = select i1 %29, i8* %31, i8* %23
  store i8* %32, i8** %25, align 8
  %33 = getelementptr inbounds %"class.leveldb::Slice", %"class.leveldb::Slice"* %6, i64 0, i32 1
  %34 = getelementptr inbounds %"class.std::__1::basic_string", %"class.std::__1::basic_string"* %7, i64 0, i32 0, i32 0, i32 0, i32 0, i32 0, i32 1
  %35 = load i64, i64* %34, align 8
  %36 = zext i8 %28 to i64
  %37 = select i1 %29, i64 %35, i64 %36
  store i64 %37, i64* %33, align 8
  %38 = bitcast %"class.leveldb::DB"* %17 to void (%"class.leveldb::Status"*, %"class.leveldb::DB"*, %"struct.leveldb::WriteOptions"*, %"class.leveldb::Slice"*, %"class.leveldb::Slice"*)***
  %39 = load void (%"class.leveldb::Status"*, %"class.leveldb::DB"*, %"struct.leveldb::WriteOptions"*, %"class.leveldb::Slice"*, %"class.leveldb::Slice"*)**, void (%"class.leveldb::Status"*, %"class.leveldb::DB"*, %"struct.leveldb::WriteOptions"*, %"class.leveldb::Slice"*, %"class.leveldb::Slice"*)*** %38, align 8
  %40 = getelementptr inbounds void (%"class.leveldb::Status"*, %"class.leveldb::DB"*, %"struct.leveldb::WriteOptions"*, %"class.leveldb::Slice"*, %"class.leveldb::Slice"*)*, void (%"class.leveldb::Status"*, %"class.leveldb::DB"*, %"struct.leveldb::WriteOptions"*, %"class.leveldb::Slice"*, %"class.leveldb::Slice"*)** %39, i64 2
  %41 = load void (%"class.leveldb::Status"*, %"class.leveldb::DB"*, %"struct.leveldb::WriteOptions"*, %"class.leveldb::Slice"*, %"class.leveldb::Slice"*)*, void (%"class.leveldb::Status"*, %"class.leveldb::DB"*, %"struct.leveldb::WriteOptions"*, %"class.leveldb::Slice"*, %"class.leveldb::Slice"*)** %40, align 8
  call void %41(%"class.leveldb::Status"* nonnull sret %3, %"class.leveldb::DB"* %17, %"struct.leveldb::WriteOptions"* nonnull dereferenceable(1) %4, %"class.leveldb::Slice"* nonnull dereferenceable(16) %5, %"class.leveldb::Slice"* nonnull dereferenceable(16) %6) #12
  %42 = load i8, i8* %27, align 1
  %43 = icmp slt i8 %42, 0
  br i1 %43, label %44, label %46

44:                                               ; preds = %1
  %45 = load i8*, i8** %30, align 8
  call void @_ZdlPv(i8* %45) #13
  br label %46

46:                                               ; preds = %1, %44
  call void @llvm.lifetime.end.p0i8(i64 24, i8* nonnull %23) #12
  call void @llvm.lifetime.end.p0i8(i64 16, i8* nonnull %22) #12
  call void @llvm.lifetime.end.p0i8(i64 16, i8* nonnull %19) #12
  call void @llvm.lifetime.end.p0i8(i64 1, i8* nonnull %18) #12
  %47 = load i8*, i8** %15, align 8
  %48 = icmp eq i8* %47, null
  br i1 %48, label %50, label %49

49:                                               ; preds = %46
  call void @_ZdaPv(i8* nonnull %47) #13
  br label %50

50:                                               ; preds = %46, %49
  call void @llvm.lifetime.end.p0i8(i64 8, i8* nonnull %14) #12
  call void @_ZN7sync_pb30ModelTypeStoreSchemaDescriptorD1Ev(%"class.sync_pb::ModelTypeStoreSchemaDescriptor"* nonnull %2) #12
  call void @llvm.lifetime.end.p0i8(i64 32, i8* nonnull %8) #12
  ret i1 %48
}

declare void @_ZNK6google8protobuf11MessageLite17SerializeAsStringEv(%"class.std::__1::basic_string"* sret, %"class.google::protobuf::MessageLite"*) local_unnamed_addr #3

; Function Attrs: nobuiltin nounwind
declare void @_ZdaPv(i8*) local_unnamed_addr #7

declare void @_ZN4base8LocationC1ERKS0_(%"class.base::Location"*, %"class.base::Location"* dereferenceable(32)) unnamed_addr #3

declare void @_ZNSt3__112basic_stringIcNS_11char_traitsIcEENS_9allocatorIcEEE25__init_copy_ctor_externalEPKcm(%"class.std::__1::basic_string"*, i8*, i64) local_unnamed_addr #3

; Function Attrs: nounwind
declare void @_ZN4base8internal12CallbackBaseD2Ev(%"class.base::internal::CallbackBase"*) unnamed_addr #4

; Function Attrs: noreturn
declare void @_ZNKSt3__121__basic_string_commonILb1EE20__throw_length_errorEv(%"class.std::__1::__basic_string_common"*) local_unnamed_addr #8

; Function Attrs: noreturn nounwind
declare void @abort() local_unnamed_addr #9

declare i8* @_ZN7leveldb6Status9CopyStateEPKc(i8*) local_unnamed_addr #3

declare void @_ZN7sync_pb30ModelTypeStoreSchemaDescriptorC2EPN6google8protobuf5ArenaE(%"class.sync_pb::ModelTypeStoreSchemaDescriptor"*, %"class.google::protobuf::Arena"*) unnamed_addr #3

; Function Attrs: nobuiltin nounwind
declare void @_ZdlPv(i8*) local_unnamed_addr #7

declare void @_ZN4base16TaskRunnerTraits8DestructEPKNS_10TaskRunnerE(%"class.base::TaskRunner"*) local_unnamed_addr #3

declare zeroext i1 @_ZN4base19SequencedTaskRunner27DeleteOrReleaseSoonInternalERKNS_8LocationEPFvPKvES5_(%"class.base::SequencedTaskRunner"*, %"class.base::Location"* dereferenceable(32), void (i8*)*, i8*) local_unnamed_addr #3

; Function Attrs: nounwind ssp uwtable
define linkonce_odr hidden void @_ZN4base12DeleteHelperIN7leveldb2DBEE8DoDeleteEPKv(i8*) #0 comdat align 2 {
  %2 = icmp eq i8* %0, null
  br i1 %2, label %9, label %3

3:                                                ; preds = %1
  %4 = bitcast i8* %0 to %"class.leveldb::DB"*
  %5 = bitcast i8* %0 to void (%"class.leveldb::DB"*)***
  %6 = load void (%"class.leveldb::DB"*)**, void (%"class.leveldb::DB"*)*** %5, align 8
  %7 = getelementptr inbounds void (%"class.leveldb::DB"*)*, void (%"class.leveldb::DB"*)** %6, i64 1
  %8 = load void (%"class.leveldb::DB"*)*, void (%"class.leveldb::DB"*)** %7, align 8
  tail call void %8(%"class.leveldb::DB"* nonnull %4) #12
  br label %9

9:                                                ; preds = %3, %1
  ret void
}

declare dereferenceable(24) %"class.std::__1::basic_string"* @_ZNSt3__112basic_stringIcNS_11char_traitsIcEENS_9allocatorIcEEE6appendEPKcm(%"class.std::__1::basic_string"*, i8*, i64) local_unnamed_addr #3

; Function Attrs: inlinehint nounwind ssp uwtable
define linkonce_odr hidden void @_ZNSt3__16vectorIN6syncer18ModelTypeStoreBase6RecordENS_9allocatorIS3_EEE24__emplace_back_slow_pathIJRKNS_12basic_stringIcNS_11char_traitsIcEENS4_IcEEEERSC_EEEvDpOT_(%"class.std::__1::vector.24"*, %"class.std::__1::basic_string"* dereferenceable(24), %"class.std::__1::basic_string"* dereferenceable(24)) local_unnamed_addr #10 comdat align 2 {
  %4 = getelementptr inbounds %"class.std::__1::vector.24", %"class.std::__1::vector.24"* %0, i64 0, i32 0, i32 1
  %5 = bitcast %"struct.syncer::ModelTypeStoreBase::Record"** %4 to i64*
  %6 = load i64, i64* %5, align 8
  %7 = bitcast %"class.std::__1::vector.24"* %0 to i64*
  %8 = load i64, i64* %7, align 8
  %9 = sub i64 %6, %8
  %10 = sdiv exact i64 %9, 48
  %11 = add nsw i64 %10, 1
  %12 = icmp ugt i64 %11, 384307168202282325
  br i1 %12, label %13, label %15

13:                                               ; preds = %3
  %14 = bitcast %"class.std::__1::vector.24"* %0 to %"class.std::__1::__vector_base_common"*
  tail call void @_ZNKSt3__120__vector_base_commonILb1EE20__throw_length_errorEv(%"class.std::__1::__vector_base_common"* %14) #14
  unreachable

15:                                               ; preds = %3
  %16 = getelementptr inbounds %"class.std::__1::vector.24", %"class.std::__1::vector.24"* %0, i64 0, i32 0, i32 2, i32 0, i32 0
  %17 = bitcast %"struct.syncer::ModelTypeStoreBase::Record"** %16 to i64*
  %18 = load i64, i64* %17, align 8
  %19 = sub i64 %18, %8
  %20 = sdiv exact i64 %19, 48
  %21 = icmp ult i64 %20, 192153584101141162
  br i1 %21, label %22, label %27

22:                                               ; preds = %15
  %23 = shl nsw i64 %20, 1
  %24 = icmp ult i64 %23, %11
  %25 = select i1 %24, i64 %11, i64 %23
  %26 = icmp eq i64 %25, 0
  br i1 %26, label %32, label %27

27:                                               ; preds = %15, %22
  %28 = phi i64 [ %25, %22 ], [ 384307168202282325, %15 ]
  %29 = mul i64 %28, 48
  %30 = tail call i8* @_Znwm(i64 %29) #13
  %31 = bitcast i8* %30 to %"struct.syncer::ModelTypeStoreBase::Record"*
  br label %32

32:                                               ; preds = %22, %27
  %33 = phi i64 [ %28, %27 ], [ 0, %22 ]
  %34 = phi %"struct.syncer::ModelTypeStoreBase::Record"* [ %31, %27 ], [ null, %22 ]
  %35 = getelementptr inbounds %"struct.syncer::ModelTypeStoreBase::Record", %"struct.syncer::ModelTypeStoreBase::Record"* %34, i64 %10
  %36 = getelementptr inbounds %"struct.syncer::ModelTypeStoreBase::Record", %"struct.syncer::ModelTypeStoreBase::Record"* %34, i64 %33
  %37 = ptrtoint %"struct.syncer::ModelTypeStoreBase::Record"* %36 to i64
  %38 = bitcast %"class.std::__1::basic_string"* %1 to %"struct.std::__1::basic_string<char, std::__1::char_traits<char>, std::__1::allocator<char> >::__short"*
  %39 = getelementptr inbounds %"struct.std::__1::basic_string<char, std::__1::char_traits<char>, std::__1::allocator<char> >::__short", %"struct.std::__1::basic_string<char, std::__1::char_traits<char>, std::__1::allocator<char> >::__short"* %38, i64 0, i32 1, i32 0
  %40 = load i8, i8* %39, align 1
  %41 = icmp slt i8 %40, 0
  br i1 %41, label %45, label %42

42:                                               ; preds = %32
  %43 = bitcast %"struct.syncer::ModelTypeStoreBase::Record"* %35 to i8*
  %44 = bitcast %"class.std::__1::basic_string"* %1 to i8*
  tail call void @llvm.memcpy.p0i8.p0i8.i64(i8* align 8 %43, i8* align 8 %44, i64 24, i1 false) #12
  br label %51

45:                                               ; preds = %32
  %46 = getelementptr inbounds %"struct.syncer::ModelTypeStoreBase::Record", %"struct.syncer::ModelTypeStoreBase::Record"* %35, i64 0, i32 0
  %47 = getelementptr inbounds %"class.std::__1::basic_string", %"class.std::__1::basic_string"* %1, i64 0, i32 0, i32 0, i32 0, i32 0, i32 0, i32 0
  %48 = load i8*, i8** %47, align 8
  %49 = getelementptr inbounds %"class.std::__1::basic_string", %"class.std::__1::basic_string"* %1, i64 0, i32 0, i32 0, i32 0, i32 0, i32 0, i32 1
  %50 = load i64, i64* %49, align 8
  tail call void @_ZNSt3__112basic_stringIcNS_11char_traitsIcEENS_9allocatorIcEEE25__init_copy_ctor_externalEPKcm(%"class.std::__1::basic_string"* %46, i8* %48, i64 %50) #12
  br label %51

51:                                               ; preds = %45, %42
  %52 = getelementptr inbounds %"struct.syncer::ModelTypeStoreBase::Record", %"struct.syncer::ModelTypeStoreBase::Record"* %34, i64 %10, i32 1
  %53 = bitcast %"class.std::__1::basic_string"* %2 to %"struct.std::__1::basic_string<char, std::__1::char_traits<char>, std::__1::allocator<char> >::__short"*
  %54 = getelementptr inbounds %"struct.std::__1::basic_string<char, std::__1::char_traits<char>, std::__1::allocator<char> >::__short", %"struct.std::__1::basic_string<char, std::__1::char_traits<char>, std::__1::allocator<char> >::__short"* %53, i64 0, i32 1, i32 0
  %55 = load i8, i8* %54, align 1
  %56 = icmp slt i8 %55, 0
  br i1 %56, label %60, label %57

57:                                               ; preds = %51
  %58 = bitcast %"class.std::__1::basic_string"* %52 to i8*
  %59 = bitcast %"class.std::__1::basic_string"* %2 to i8*
  tail call void @llvm.memcpy.p0i8.p0i8.i64(i8* align 8 %58, i8* align 8 %59, i64 24, i1 false) #12
  br label %65

60:                                               ; preds = %51
  %61 = getelementptr inbounds %"class.std::__1::basic_string", %"class.std::__1::basic_string"* %2, i64 0, i32 0, i32 0, i32 0, i32 0, i32 0, i32 0
  %62 = load i8*, i8** %61, align 8
  %63 = getelementptr inbounds %"class.std::__1::basic_string", %"class.std::__1::basic_string"* %2, i64 0, i32 0, i32 0, i32 0, i32 0, i32 0, i32 1
  %64 = load i64, i64* %63, align 8
  tail call void @_ZNSt3__112basic_stringIcNS_11char_traitsIcEENS_9allocatorIcEEE25__init_copy_ctor_externalEPKcm(%"class.std::__1::basic_string"* %52, i8* %62, i64 %64) #12
  br label %65

65:                                               ; preds = %57, %60
  %66 = getelementptr inbounds %"struct.syncer::ModelTypeStoreBase::Record", %"struct.syncer::ModelTypeStoreBase::Record"* %35, i64 1
  %67 = ptrtoint %"struct.syncer::ModelTypeStoreBase::Record"* %66 to i64
  %68 = getelementptr inbounds %"class.std::__1::vector.24", %"class.std::__1::vector.24"* %0, i64 0, i32 0, i32 0
  %69 = load %"struct.syncer::ModelTypeStoreBase::Record"*, %"struct.syncer::ModelTypeStoreBase::Record"** %68, align 8
  %70 = load %"struct.syncer::ModelTypeStoreBase::Record"*, %"struct.syncer::ModelTypeStoreBase::Record"** %4, align 8
  %71 = icmp eq %"struct.syncer::ModelTypeStoreBase::Record"* %70, %69
  br i1 %71, label %72, label %74

72:                                               ; preds = %65
  %73 = ptrtoint %"struct.syncer::ModelTypeStoreBase::Record"* %69 to i64
  br label %89

74:                                               ; preds = %65, %74
  %75 = phi %"struct.syncer::ModelTypeStoreBase::Record"* [ %77, %74 ], [ %35, %65 ]
  %76 = phi %"struct.syncer::ModelTypeStoreBase::Record"* [ %78, %74 ], [ %70, %65 ]
  %77 = getelementptr inbounds %"struct.syncer::ModelTypeStoreBase::Record", %"struct.syncer::ModelTypeStoreBase::Record"* %75, i64 -1
  %78 = getelementptr inbounds %"struct.syncer::ModelTypeStoreBase::Record", %"struct.syncer::ModelTypeStoreBase::Record"* %76, i64 -1
  %79 = bitcast %"struct.syncer::ModelTypeStoreBase::Record"* %77 to i8*
  %80 = bitcast %"struct.syncer::ModelTypeStoreBase::Record"* %78 to i8*
  tail call void @llvm.memcpy.p0i8.p0i8.i64(i8* align 8 %79, i8* align 8 %80, i64 24, i1 false) #12
  tail call void @llvm.memset.p0i8.i64(i8* align 8 %80, i8 0, i64 24, i1 false) #12
  %81 = getelementptr inbounds %"struct.syncer::ModelTypeStoreBase::Record", %"struct.syncer::ModelTypeStoreBase::Record"* %75, i64 -1, i32 1
  %82 = getelementptr inbounds %"struct.syncer::ModelTypeStoreBase::Record", %"struct.syncer::ModelTypeStoreBase::Record"* %76, i64 -1, i32 1
  %83 = bitcast %"class.std::__1::basic_string"* %81 to i8*
  %84 = bitcast %"class.std::__1::basic_string"* %82 to i8*
  tail call void @llvm.memcpy.p0i8.p0i8.i64(i8* align 8 %83, i8* align 8 %84, i64 24, i1 false) #12
  tail call void @llvm.memset.p0i8.i64(i8* align 8 %84, i8 0, i64 24, i1 false) #12
  %85 = icmp eq %"struct.syncer::ModelTypeStoreBase::Record"* %78, %69
  br i1 %85, label %86, label %74

86:                                               ; preds = %74
  %87 = load i64, i64* %7, align 8
  %88 = load %"struct.syncer::ModelTypeStoreBase::Record"*, %"struct.syncer::ModelTypeStoreBase::Record"** %4, align 8
  br label %89

89:                                               ; preds = %72, %86
  %90 = phi %"struct.syncer::ModelTypeStoreBase::Record"* [ %69, %72 ], [ %88, %86 ]
  %91 = phi %"struct.syncer::ModelTypeStoreBase::Record"* [ %35, %72 ], [ %77, %86 ]
  %92 = phi i64 [ %73, %72 ], [ %87, %86 ]
  %93 = ptrtoint %"struct.syncer::ModelTypeStoreBase::Record"* %91 to i64
  store i64 %93, i64* %7, align 8
  store i64 %67, i64* %5, align 8
  store i64 %37, i64* %17, align 8
  %94 = inttoptr i64 %92 to %"struct.syncer::ModelTypeStoreBase::Record"*
  %95 = icmp eq %"struct.syncer::ModelTypeStoreBase::Record"* %90, %94
  br i1 %95, label %117, label %96

96:                                               ; preds = %89, %115
  %97 = phi %"struct.syncer::ModelTypeStoreBase::Record"* [ %98, %115 ], [ %90, %89 ]
  %98 = getelementptr inbounds %"struct.syncer::ModelTypeStoreBase::Record", %"struct.syncer::ModelTypeStoreBase::Record"* %97, i64 -1
  %99 = getelementptr inbounds %"struct.syncer::ModelTypeStoreBase::Record", %"struct.syncer::ModelTypeStoreBase::Record"* %97, i64 -1, i32 1
  %100 = bitcast %"class.std::__1::basic_string"* %99 to %"struct.std::__1::basic_string<char, std::__1::char_traits<char>, std::__1::allocator<char> >::__short"*
  %101 = getelementptr inbounds %"struct.std::__1::basic_string<char, std::__1::char_traits<char>, std::__1::allocator<char> >::__short", %"struct.std::__1::basic_string<char, std::__1::char_traits<char>, std::__1::allocator<char> >::__short"* %100, i64 0, i32 1, i32 0
  %102 = load i8, i8* %101, align 1
  %103 = icmp slt i8 %102, 0
  br i1 %103, label %104, label %107

104:                                              ; preds = %96
  %105 = getelementptr inbounds %"class.std::__1::basic_string", %"class.std::__1::basic_string"* %99, i64 0, i32 0, i32 0, i32 0, i32 0, i32 0, i32 0
  %106 = load i8*, i8** %105, align 8
  tail call void @_ZdlPv(i8* %106) #13
  br label %107

107:                                              ; preds = %104, %96
  %108 = bitcast %"struct.syncer::ModelTypeStoreBase::Record"* %98 to %"struct.std::__1::basic_string<char, std::__1::char_traits<char>, std::__1::allocator<char> >::__short"*
  %109 = getelementptr inbounds %"struct.std::__1::basic_string<char, std::__1::char_traits<char>, std::__1::allocator<char> >::__short", %"struct.std::__1::basic_string<char, std::__1::char_traits<char>, std::__1::allocator<char> >::__short"* %108, i64 0, i32 1, i32 0
  %110 = load i8, i8* %109, align 1
  %111 = icmp slt i8 %110, 0
  br i1 %111, label %112, label %115

112:                                              ; preds = %107
  %113 = getelementptr inbounds %"struct.syncer::ModelTypeStoreBase::Record", %"struct.syncer::ModelTypeStoreBase::Record"* %98, i64 0, i32 0, i32 0, i32 0, i32 0, i32 0, i32 0, i32 0
  %114 = load i8*, i8** %113, align 8
  tail call void @_ZdlPv(i8* %114) #13
  br label %115

115:                                              ; preds = %112, %107
  %116 = icmp eq %"struct.syncer::ModelTypeStoreBase::Record"* %98, %94
  br i1 %116, label %117, label %96

117:                                              ; preds = %115, %89
  %118 = icmp eq i64 %92, 0
  br i1 %118, label %121, label %119

119:                                              ; preds = %117
  %120 = inttoptr i64 %92 to i8*
  tail call void @_ZdlPv(i8* %120) #13
  br label %121

121:                                              ; preds = %117, %119
  ret void
}

; Function Attrs: noreturn
declare void @_ZNKSt3__120__vector_base_commonILb1EE20__throw_length_errorEv(%"class.std::__1::__vector_base_common"*) local_unnamed_addr #8

; Function Attrs: inlinehint nounwind ssp uwtable
define linkonce_odr hidden void @_ZNSt3__16vectorINS_12basic_stringIcNS_11char_traitsIcEENS_9allocatorIcEEEENS4_IS6_EEE21__push_back_slow_pathIRKS6_EEvOT_(%"class.std::__1::vector"*, %"class.std::__1::basic_string"* dereferenceable(24)) local_unnamed_addr #10 comdat align 2 {
  %3 = getelementptr inbounds %"class.std::__1::vector", %"class.std::__1::vector"* %0, i64 0, i32 0, i32 1
  %4 = bitcast %"class.std::__1::basic_string"** %3 to i64*
  %5 = load i64, i64* %4, align 8
  %6 = bitcast %"class.std::__1::vector"* %0 to i64*
  %7 = load i64, i64* %6, align 8
  %8 = sub i64 %5, %7
  %9 = sdiv exact i64 %8, 24
  %10 = add nsw i64 %9, 1
  %11 = icmp ugt i64 %10, 768614336404564650
  br i1 %11, label %12, label %14

12:                                               ; preds = %2
  %13 = bitcast %"class.std::__1::vector"* %0 to %"class.std::__1::__vector_base_common"*
  tail call void @_ZNKSt3__120__vector_base_commonILb1EE20__throw_length_errorEv(%"class.std::__1::__vector_base_common"* %13) #14
  unreachable

14:                                               ; preds = %2
  %15 = getelementptr inbounds %"class.std::__1::vector", %"class.std::__1::vector"* %0, i64 0, i32 0, i32 2, i32 0, i32 0
  %16 = bitcast %"class.std::__1::basic_string"** %15 to i64*
  %17 = load i64, i64* %16, align 8
  %18 = sub i64 %17, %7
  %19 = sdiv exact i64 %18, 24
  %20 = icmp ult i64 %19, 384307168202282325
  br i1 %20, label %21, label %26

21:                                               ; preds = %14
  %22 = shl nsw i64 %19, 1
  %23 = icmp ult i64 %22, %10
  %24 = select i1 %23, i64 %10, i64 %22
  %25 = icmp eq i64 %24, 0
  br i1 %25, label %31, label %26

26:                                               ; preds = %14, %21
  %27 = phi i64 [ %24, %21 ], [ 768614336404564650, %14 ]
  %28 = mul i64 %27, 24
  %29 = tail call i8* @_Znwm(i64 %28) #13
  %30 = bitcast i8* %29 to %"class.std::__1::basic_string"*
  br label %31

31:                                               ; preds = %21, %26
  %32 = phi i64 [ %27, %26 ], [ 0, %21 ]
  %33 = phi %"class.std::__1::basic_string"* [ %30, %26 ], [ null, %21 ]
  %34 = getelementptr inbounds %"class.std::__1::basic_string", %"class.std::__1::basic_string"* %33, i64 %9
  %35 = getelementptr inbounds %"class.std::__1::basic_string", %"class.std::__1::basic_string"* %33, i64 %32
  %36 = ptrtoint %"class.std::__1::basic_string"* %35 to i64
  %37 = bitcast %"class.std::__1::basic_string"* %1 to %"struct.std::__1::basic_string<char, std::__1::char_traits<char>, std::__1::allocator<char> >::__short"*
  %38 = getelementptr inbounds %"struct.std::__1::basic_string<char, std::__1::char_traits<char>, std::__1::allocator<char> >::__short", %"struct.std::__1::basic_string<char, std::__1::char_traits<char>, std::__1::allocator<char> >::__short"* %37, i64 0, i32 1, i32 0
  %39 = load i8, i8* %38, align 1
  %40 = icmp slt i8 %39, 0
  br i1 %40, label %44, label %41

41:                                               ; preds = %31
  %42 = bitcast %"class.std::__1::basic_string"* %34 to i8*
  %43 = bitcast %"class.std::__1::basic_string"* %1 to i8*
  tail call void @llvm.memcpy.p0i8.p0i8.i64(i8* align 8 %42, i8* align 8 %43, i64 24, i1 false) #12
  br label %49

44:                                               ; preds = %31
  %45 = getelementptr inbounds %"class.std::__1::basic_string", %"class.std::__1::basic_string"* %1, i64 0, i32 0, i32 0, i32 0, i32 0, i32 0, i32 0
  %46 = load i8*, i8** %45, align 8
  %47 = getelementptr inbounds %"class.std::__1::basic_string", %"class.std::__1::basic_string"* %1, i64 0, i32 0, i32 0, i32 0, i32 0, i32 0, i32 1
  %48 = load i64, i64* %47, align 8
  tail call void @_ZNSt3__112basic_stringIcNS_11char_traitsIcEENS_9allocatorIcEEE25__init_copy_ctor_externalEPKcm(%"class.std::__1::basic_string"* %34, i8* %46, i64 %48) #12
  br label %49

49:                                               ; preds = %41, %44
  %50 = getelementptr inbounds %"class.std::__1::basic_string", %"class.std::__1::basic_string"* %34, i64 1
  %51 = ptrtoint %"class.std::__1::basic_string"* %50 to i64
  %52 = getelementptr inbounds %"class.std::__1::vector", %"class.std::__1::vector"* %0, i64 0, i32 0, i32 0
  %53 = load %"class.std::__1::basic_string"*, %"class.std::__1::basic_string"** %52, align 8
  %54 = load %"class.std::__1::basic_string"*, %"class.std::__1::basic_string"** %3, align 8
  %55 = icmp eq %"class.std::__1::basic_string"* %54, %53
  br i1 %55, label %56, label %58

56:                                               ; preds = %49
  %57 = ptrtoint %"class.std::__1::basic_string"* %53 to i64
  br label %69

58:                                               ; preds = %49, %58
  %59 = phi %"class.std::__1::basic_string"* [ %61, %58 ], [ %34, %49 ]
  %60 = phi %"class.std::__1::basic_string"* [ %62, %58 ], [ %54, %49 ]
  %61 = getelementptr inbounds %"class.std::__1::basic_string", %"class.std::__1::basic_string"* %59, i64 -1
  %62 = getelementptr inbounds %"class.std::__1::basic_string", %"class.std::__1::basic_string"* %60, i64 -1
  %63 = bitcast %"class.std::__1::basic_string"* %61 to i8*
  %64 = bitcast %"class.std::__1::basic_string"* %62 to i8*
  tail call void @llvm.memcpy.p0i8.p0i8.i64(i8* align 8 %63, i8* align 8 %64, i64 24, i1 false) #12
  tail call void @llvm.memset.p0i8.i64(i8* align 8 %64, i8 0, i64 24, i1 false) #12
  %65 = icmp eq %"class.std::__1::basic_string"* %62, %53
  br i1 %65, label %66, label %58

66:                                               ; preds = %58
  %67 = load i64, i64* %6, align 8
  %68 = load %"class.std::__1::basic_string"*, %"class.std::__1::basic_string"** %3, align 8
  br label %69

69:                                               ; preds = %56, %66
  %70 = phi %"class.std::__1::basic_string"* [ %53, %56 ], [ %68, %66 ]
  %71 = phi %"class.std::__1::basic_string"* [ %34, %56 ], [ %61, %66 ]
  %72 = phi i64 [ %57, %56 ], [ %67, %66 ]
  %73 = ptrtoint %"class.std::__1::basic_string"* %71 to i64
  store i64 %73, i64* %6, align 8
  store i64 %51, i64* %4, align 8
  store i64 %36, i64* %16, align 8
  %74 = inttoptr i64 %72 to %"class.std::__1::basic_string"*
  %75 = icmp eq %"class.std::__1::basic_string"* %70, %74
  br i1 %75, label %88, label %76

76:                                               ; preds = %69, %86
  %77 = phi %"class.std::__1::basic_string"* [ %78, %86 ], [ %70, %69 ]
  %78 = getelementptr inbounds %"class.std::__1::basic_string", %"class.std::__1::basic_string"* %77, i64 -1
  %79 = bitcast %"class.std::__1::basic_string"* %78 to %"struct.std::__1::basic_string<char, std::__1::char_traits<char>, std::__1::allocator<char> >::__short"*
  %80 = getelementptr inbounds %"struct.std::__1::basic_string<char, std::__1::char_traits<char>, std::__1::allocator<char> >::__short", %"struct.std::__1::basic_string<char, std::__1::char_traits<char>, std::__1::allocator<char> >::__short"* %79, i64 0, i32 1, i32 0
  %81 = load i8, i8* %80, align 1
  %82 = icmp slt i8 %81, 0
  br i1 %82, label %83, label %86

83:                                               ; preds = %76
  %84 = getelementptr inbounds %"class.std::__1::basic_string", %"class.std::__1::basic_string"* %78, i64 0, i32 0, i32 0, i32 0, i32 0, i32 0, i32 0
  %85 = load i8*, i8** %84, align 8
  tail call void @_ZdlPv(i8* %85) #13
  br label %86

86:                                               ; preds = %83, %76
  %87 = icmp eq %"class.std::__1::basic_string"* %78, %74
  br i1 %87, label %88, label %76

88:                                               ; preds = %86, %69
  %89 = icmp eq i64 %72, 0
  br i1 %89, label %92, label %90

90:                                               ; preds = %88
  %91 = inttoptr i64 %72 to i8*
  tail call void @_ZdlPv(i8* %91) #13
  br label %92

92:                                               ; preds = %88, %90
  ret void
}

; Function Attrs: inlinehint nounwind ssp uwtable
define linkonce_odr hidden void @_ZNSt3__16vectorIN6syncer18ModelTypeStoreBase6RecordENS_9allocatorIS3_EEE24__emplace_back_slow_pathIJNS_12basic_stringIcNS_11char_traitsIcEENS4_IcEEEESC_EEEvDpOT_(%"class.std::__1::vector.24"*, %"class.std::__1::basic_string"* dereferenceable(24), %"class.std::__1::basic_string"* dereferenceable(24)) local_unnamed_addr #10 comdat align 2 {
  %4 = getelementptr inbounds %"class.std::__1::vector.24", %"class.std::__1::vector.24"* %0, i64 0, i32 0, i32 1
  %5 = bitcast %"struct.syncer::ModelTypeStoreBase::Record"** %4 to i64*
  %6 = load i64, i64* %5, align 8
  %7 = bitcast %"class.std::__1::vector.24"* %0 to i64*
  %8 = load i64, i64* %7, align 8
  %9 = sub i64 %6, %8
  %10 = sdiv exact i64 %9, 48
  %11 = add nsw i64 %10, 1
  %12 = icmp ugt i64 %11, 384307168202282325
  br i1 %12, label %13, label %15

13:                                               ; preds = %3
  %14 = bitcast %"class.std::__1::vector.24"* %0 to %"class.std::__1::__vector_base_common"*
  tail call void @_ZNKSt3__120__vector_base_commonILb1EE20__throw_length_errorEv(%"class.std::__1::__vector_base_common"* %14) #14
  unreachable

15:                                               ; preds = %3
  %16 = getelementptr inbounds %"class.std::__1::vector.24", %"class.std::__1::vector.24"* %0, i64 0, i32 0, i32 2, i32 0, i32 0
  %17 = bitcast %"struct.syncer::ModelTypeStoreBase::Record"** %16 to i64*
  %18 = load i64, i64* %17, align 8
  %19 = sub i64 %18, %8
  %20 = sdiv exact i64 %19, 48
  %21 = icmp ult i64 %20, 192153584101141162
  br i1 %21, label %22, label %27

22:                                               ; preds = %15
  %23 = shl nsw i64 %20, 1
  %24 = icmp ult i64 %23, %11
  %25 = select i1 %24, i64 %11, i64 %23
  %26 = icmp eq i64 %25, 0
  br i1 %26, label %32, label %27

27:                                               ; preds = %15, %22
  %28 = phi i64 [ %25, %22 ], [ 384307168202282325, %15 ]
  %29 = mul i64 %28, 48
  %30 = tail call i8* @_Znwm(i64 %29) #13
  %31 = bitcast i8* %30 to %"struct.syncer::ModelTypeStoreBase::Record"*
  br label %32

32:                                               ; preds = %22, %27
  %33 = phi i64 [ %28, %27 ], [ 0, %22 ]
  %34 = phi %"struct.syncer::ModelTypeStoreBase::Record"* [ %31, %27 ], [ null, %22 ]
  %35 = getelementptr inbounds %"struct.syncer::ModelTypeStoreBase::Record", %"struct.syncer::ModelTypeStoreBase::Record"* %34, i64 %10
  %36 = getelementptr inbounds %"struct.syncer::ModelTypeStoreBase::Record", %"struct.syncer::ModelTypeStoreBase::Record"* %34, i64 %33
  %37 = ptrtoint %"struct.syncer::ModelTypeStoreBase::Record"* %36 to i64
  %38 = bitcast %"class.std::__1::basic_string"* %1 to %"struct.std::__1::basic_string<char, std::__1::char_traits<char>, std::__1::allocator<char> >::__short"*
  %39 = getelementptr inbounds %"struct.std::__1::basic_string<char, std::__1::char_traits<char>, std::__1::allocator<char> >::__short", %"struct.std::__1::basic_string<char, std::__1::char_traits<char>, std::__1::allocator<char> >::__short"* %38, i64 0, i32 1, i32 0
  %40 = load i8, i8* %39, align 1
  %41 = icmp slt i8 %40, 0
  br i1 %41, label %45, label %42

42:                                               ; preds = %32
  %43 = bitcast %"struct.syncer::ModelTypeStoreBase::Record"* %35 to i8*
  %44 = bitcast %"class.std::__1::basic_string"* %1 to i8*
  tail call void @llvm.memcpy.p0i8.p0i8.i64(i8* align 8 %43, i8* align 8 %44, i64 24, i1 false) #12
  br label %51

45:                                               ; preds = %32
  %46 = getelementptr inbounds %"struct.syncer::ModelTypeStoreBase::Record", %"struct.syncer::ModelTypeStoreBase::Record"* %35, i64 0, i32 0
  %47 = getelementptr inbounds %"class.std::__1::basic_string", %"class.std::__1::basic_string"* %1, i64 0, i32 0, i32 0, i32 0, i32 0, i32 0, i32 0
  %48 = load i8*, i8** %47, align 8
  %49 = getelementptr inbounds %"class.std::__1::basic_string", %"class.std::__1::basic_string"* %1, i64 0, i32 0, i32 0, i32 0, i32 0, i32 0, i32 1
  %50 = load i64, i64* %49, align 8
  tail call void @_ZNSt3__112basic_stringIcNS_11char_traitsIcEENS_9allocatorIcEEE25__init_copy_ctor_externalEPKcm(%"class.std::__1::basic_string"* %46, i8* %48, i64 %50) #12
  br label %51

51:                                               ; preds = %45, %42
  %52 = getelementptr inbounds %"struct.syncer::ModelTypeStoreBase::Record", %"struct.syncer::ModelTypeStoreBase::Record"* %34, i64 %10, i32 1
  %53 = bitcast %"class.std::__1::basic_string"* %2 to %"struct.std::__1::basic_string<char, std::__1::char_traits<char>, std::__1::allocator<char> >::__short"*
  %54 = getelementptr inbounds %"struct.std::__1::basic_string<char, std::__1::char_traits<char>, std::__1::allocator<char> >::__short", %"struct.std::__1::basic_string<char, std::__1::char_traits<char>, std::__1::allocator<char> >::__short"* %53, i64 0, i32 1, i32 0
  %55 = load i8, i8* %54, align 1
  %56 = icmp slt i8 %55, 0
  br i1 %56, label %60, label %57

57:                                               ; preds = %51
  %58 = bitcast %"class.std::__1::basic_string"* %52 to i8*
  %59 = bitcast %"class.std::__1::basic_string"* %2 to i8*
  tail call void @llvm.memcpy.p0i8.p0i8.i64(i8* align 8 %58, i8* align 8 %59, i64 24, i1 false) #12
  br label %65

60:                                               ; preds = %51
  %61 = getelementptr inbounds %"class.std::__1::basic_string", %"class.std::__1::basic_string"* %2, i64 0, i32 0, i32 0, i32 0, i32 0, i32 0, i32 0
  %62 = load i8*, i8** %61, align 8
  %63 = getelementptr inbounds %"class.std::__1::basic_string", %"class.std::__1::basic_string"* %2, i64 0, i32 0, i32 0, i32 0, i32 0, i32 0, i32 1
  %64 = load i64, i64* %63, align 8
  tail call void @_ZNSt3__112basic_stringIcNS_11char_traitsIcEENS_9allocatorIcEEE25__init_copy_ctor_externalEPKcm(%"class.std::__1::basic_string"* %52, i8* %62, i64 %64) #12
  br label %65

65:                                               ; preds = %57, %60
  %66 = getelementptr inbounds %"struct.syncer::ModelTypeStoreBase::Record", %"struct.syncer::ModelTypeStoreBase::Record"* %35, i64 1
  %67 = ptrtoint %"struct.syncer::ModelTypeStoreBase::Record"* %66 to i64
  %68 = getelementptr inbounds %"class.std::__1::vector.24", %"class.std::__1::vector.24"* %0, i64 0, i32 0, i32 0
  %69 = load %"struct.syncer::ModelTypeStoreBase::Record"*, %"struct.syncer::ModelTypeStoreBase::Record"** %68, align 8
  %70 = load %"struct.syncer::ModelTypeStoreBase::Record"*, %"struct.syncer::ModelTypeStoreBase::Record"** %4, align 8
  %71 = icmp eq %"struct.syncer::ModelTypeStoreBase::Record"* %70, %69
  br i1 %71, label %72, label %74

72:                                               ; preds = %65
  %73 = ptrtoint %"struct.syncer::ModelTypeStoreBase::Record"* %69 to i64
  br label %89

74:                                               ; preds = %65, %74
  %75 = phi %"struct.syncer::ModelTypeStoreBase::Record"* [ %77, %74 ], [ %35, %65 ]
  %76 = phi %"struct.syncer::ModelTypeStoreBase::Record"* [ %78, %74 ], [ %70, %65 ]
  %77 = getelementptr inbounds %"struct.syncer::ModelTypeStoreBase::Record", %"struct.syncer::ModelTypeStoreBase::Record"* %75, i64 -1
  %78 = getelementptr inbounds %"struct.syncer::ModelTypeStoreBase::Record", %"struct.syncer::ModelTypeStoreBase::Record"* %76, i64 -1
  %79 = bitcast %"struct.syncer::ModelTypeStoreBase::Record"* %77 to i8*
  %80 = bitcast %"struct.syncer::ModelTypeStoreBase::Record"* %78 to i8*
  tail call void @llvm.memcpy.p0i8.p0i8.i64(i8* align 8 %79, i8* align 8 %80, i64 24, i1 false) #12
  tail call void @llvm.memset.p0i8.i64(i8* align 8 %80, i8 0, i64 24, i1 false) #12
  %81 = getelementptr inbounds %"struct.syncer::ModelTypeStoreBase::Record", %"struct.syncer::ModelTypeStoreBase::Record"* %75, i64 -1, i32 1
  %82 = getelementptr inbounds %"struct.syncer::ModelTypeStoreBase::Record", %"struct.syncer::ModelTypeStoreBase::Record"* %76, i64 -1, i32 1
  %83 = bitcast %"class.std::__1::basic_string"* %81 to i8*
  %84 = bitcast %"class.std::__1::basic_string"* %82 to i8*
  tail call void @llvm.memcpy.p0i8.p0i8.i64(i8* align 8 %83, i8* align 8 %84, i64 24, i1 false) #12
  tail call void @llvm.memset.p0i8.i64(i8* align 8 %84, i8 0, i64 24, i1 false) #12
  %85 = icmp eq %"struct.syncer::ModelTypeStoreBase::Record"* %78, %69
  br i1 %85, label %86, label %74

86:                                               ; preds = %74
  %87 = load i64, i64* %7, align 8
  %88 = load %"struct.syncer::ModelTypeStoreBase::Record"*, %"struct.syncer::ModelTypeStoreBase::Record"** %4, align 8
  br label %89

89:                                               ; preds = %72, %86
  %90 = phi %"struct.syncer::ModelTypeStoreBase::Record"* [ %69, %72 ], [ %88, %86 ]
  %91 = phi %"struct.syncer::ModelTypeStoreBase::Record"* [ %35, %72 ], [ %77, %86 ]
  %92 = phi i64 [ %73, %72 ], [ %87, %86 ]
  %93 = ptrtoint %"struct.syncer::ModelTypeStoreBase::Record"* %91 to i64
  store i64 %93, i64* %7, align 8
  store i64 %67, i64* %5, align 8
  store i64 %37, i64* %17, align 8
  %94 = inttoptr i64 %92 to %"struct.syncer::ModelTypeStoreBase::Record"*
  %95 = icmp eq %"struct.syncer::ModelTypeStoreBase::Record"* %90, %94
  br i1 %95, label %117, label %96

96:                                               ; preds = %89, %115
  %97 = phi %"struct.syncer::ModelTypeStoreBase::Record"* [ %98, %115 ], [ %90, %89 ]
  %98 = getelementptr inbounds %"struct.syncer::ModelTypeStoreBase::Record", %"struct.syncer::ModelTypeStoreBase::Record"* %97, i64 -1
  %99 = getelementptr inbounds %"struct.syncer::ModelTypeStoreBase::Record", %"struct.syncer::ModelTypeStoreBase::Record"* %97, i64 -1, i32 1
  %100 = bitcast %"class.std::__1::basic_string"* %99 to %"struct.std::__1::basic_string<char, std::__1::char_traits<char>, std::__1::allocator<char> >::__short"*
  %101 = getelementptr inbounds %"struct.std::__1::basic_string<char, std::__1::char_traits<char>, std::__1::allocator<char> >::__short", %"struct.std::__1::basic_string<char, std::__1::char_traits<char>, std::__1::allocator<char> >::__short"* %100, i64 0, i32 1, i32 0
  %102 = load i8, i8* %101, align 1
  %103 = icmp slt i8 %102, 0
  br i1 %103, label %104, label %107

104:                                              ; preds = %96
  %105 = getelementptr inbounds %"class.std::__1::basic_string", %"class.std::__1::basic_string"* %99, i64 0, i32 0, i32 0, i32 0, i32 0, i32 0, i32 0
  %106 = load i8*, i8** %105, align 8
  tail call void @_ZdlPv(i8* %106) #13
  br label %107

107:                                              ; preds = %104, %96
  %108 = bitcast %"struct.syncer::ModelTypeStoreBase::Record"* %98 to %"struct.std::__1::basic_string<char, std::__1::char_traits<char>, std::__1::allocator<char> >::__short"*
  %109 = getelementptr inbounds %"struct.std::__1::basic_string<char, std::__1::char_traits<char>, std::__1::allocator<char> >::__short", %"struct.std::__1::basic_string<char, std::__1::char_traits<char>, std::__1::allocator<char> >::__short"* %108, i64 0, i32 1, i32 0
  %110 = load i8, i8* %109, align 1
  %111 = icmp slt i8 %110, 0
  br i1 %111, label %112, label %115

112:                                              ; preds = %107
  %113 = getelementptr inbounds %"struct.syncer::ModelTypeStoreBase::Record", %"struct.syncer::ModelTypeStoreBase::Record"* %98, i64 0, i32 0, i32 0, i32 0, i32 0, i32 0, i32 0, i32 0
  %114 = load i8*, i8** %113, align 8
  tail call void @_ZdlPv(i8* %114) #13
  br label %115

115:                                              ; preds = %112, %107
  %116 = icmp eq %"struct.syncer::ModelTypeStoreBase::Record"* %98, %94
  br i1 %116, label %117, label %96

117:                                              ; preds = %115, %89
  %118 = icmp eq i64 %92, 0
  br i1 %118, label %121, label %119

119:                                              ; preds = %117
  %120 = inttoptr i64 %92 to i8*
  tail call void @_ZdlPv(i8* %120) #13
  br label %121

121:                                              ; preds = %117, %119
  ret void
}

; Function Attrs: nofree nounwind readonly
declare i32 @bcmp(i8* nocapture, i8* nocapture, i64) local_unnamed_addr #11

attributes #0 = { nounwind ssp uwtable "correctly-rounded-divide-sqrt-fp-math"="false" "disable-tail-calls"="false" "less-precise-fpmad"="false" "min-legal-vector-width"="0" "no-frame-pointer-elim"="false" "no-frame-pointer-elim-non-leaf" "no-infs-fp-math"="false" "no-jump-tables"="false" "no-nans-fp-math"="false" "no-signed-zeros-fp-math"="false" "no-trapping-math"="false" "null-pointer-is-valid"="true" "stack-protector-buffer-size"="4" "target-cpu"="x86-64" "target-features"="+cx8,+fxsr,+mmx,+sse,+sse2,+sse3,+x87" "unsafe-fp-math"="false" "use-soft-float"="false" }
attributes #1 = { nofree norecurse nounwind ssp uwtable "correctly-rounded-divide-sqrt-fp-math"="false" "disable-tail-calls"="false" "less-precise-fpmad"="false" "min-legal-vector-width"="0" "no-frame-pointer-elim"="false" "no-frame-pointer-elim-non-leaf" "no-infs-fp-math"="false" "no-jump-tables"="false" "no-nans-fp-math"="false" "no-signed-zeros-fp-math"="false" "no-trapping-math"="false" "null-pointer-is-valid"="true" "stack-protector-buffer-size"="4" "target-cpu"="x86-64" "target-features"="+cx8,+fxsr,+mmx,+sse,+sse2,+sse3,+x87" "unsafe-fp-math"="false" "use-soft-float"="false" }
attributes #2 = { argmemonly nounwind }
attributes #3 = { "correctly-rounded-divide-sqrt-fp-math"="false" "disable-tail-calls"="false" "less-precise-fpmad"="false" "no-frame-pointer-elim"="false" "no-frame-pointer-elim-non-leaf" "no-infs-fp-math"="false" "no-nans-fp-math"="false" "no-signed-zeros-fp-math"="false" "no-trapping-math"="false" "null-pointer-is-valid"="true" "stack-protector-buffer-size"="4" "target-cpu"="x86-64" "target-features"="+cx8,+fxsr,+mmx,+sse,+sse2,+sse3,+x87" "unsafe-fp-math"="false" "use-soft-float"="false" }
attributes #4 = { nounwind "correctly-rounded-divide-sqrt-fp-math"="false" "disable-tail-calls"="false" "less-precise-fpmad"="false" "no-frame-pointer-elim"="false" "no-frame-pointer-elim-non-leaf" "no-infs-fp-math"="false" "no-nans-fp-math"="false" "no-signed-zeros-fp-math"="false" "no-trapping-math"="false" "null-pointer-is-valid"="true" "stack-protector-buffer-size"="4" "target-cpu"="x86-64" "target-features"="+cx8,+fxsr,+mmx,+sse,+sse2,+sse3,+x87" "unsafe-fp-math"="false" "use-soft-float"="false" }
attributes #5 = { nobuiltin nofree "correctly-rounded-divide-sqrt-fp-math"="false" "disable-tail-calls"="false" "less-precise-fpmad"="false" "no-frame-pointer-elim"="false" "no-frame-pointer-elim-non-leaf" "no-infs-fp-math"="false" "no-nans-fp-math"="false" "no-signed-zeros-fp-math"="false" "no-trapping-math"="false" "null-pointer-is-valid"="true" "stack-protector-buffer-size"="4" "target-cpu"="x86-64" "target-features"="+cx8,+fxsr,+mmx,+sse,+sse2,+sse3,+x87" "unsafe-fp-math"="false" "use-soft-float"="false" }
attributes #6 = { norecurse nounwind readonly ssp uwtable "correctly-rounded-divide-sqrt-fp-math"="false" "disable-tail-calls"="false" "less-precise-fpmad"="false" "min-legal-vector-width"="0" "no-frame-pointer-elim"="false" "no-frame-pointer-elim-non-leaf" "no-infs-fp-math"="false" "no-jump-tables"="false" "no-nans-fp-math"="false" "no-signed-zeros-fp-math"="false" "no-trapping-math"="false" "null-pointer-is-valid"="true" "stack-protector-buffer-size"="4" "target-cpu"="x86-64" "target-features"="+cx8,+fxsr,+mmx,+sse,+sse2,+sse3,+x87" "unsafe-fp-math"="false" "use-soft-float"="false" }
attributes #7 = { nobuiltin nounwind "correctly-rounded-divide-sqrt-fp-math"="false" "disable-tail-calls"="false" "less-precise-fpmad"="false" "no-frame-pointer-elim"="false" "no-frame-pointer-elim-non-leaf" "no-infs-fp-math"="false" "no-nans-fp-math"="false" "no-signed-zeros-fp-math"="false" "no-trapping-math"="false" "null-pointer-is-valid"="true" "stack-protector-buffer-size"="4" "target-cpu"="x86-64" "target-features"="+cx8,+fxsr,+mmx,+sse,+sse2,+sse3,+x87" "unsafe-fp-math"="false" "use-soft-float"="false" }
attributes #8 = { noreturn "correctly-rounded-divide-sqrt-fp-math"="false" "disable-tail-calls"="false" "less-precise-fpmad"="false" "no-frame-pointer-elim"="false" "no-frame-pointer-elim-non-leaf" "no-infs-fp-math"="false" "no-nans-fp-math"="false" "no-signed-zeros-fp-math"="false" "no-trapping-math"="false" "null-pointer-is-valid"="true" "stack-protector-buffer-size"="4" "target-cpu"="x86-64" "target-features"="+cx8,+fxsr,+mmx,+sse,+sse2,+sse3,+x87" "unsafe-fp-math"="false" "use-soft-float"="false" }
attributes #9 = { noreturn nounwind "correctly-rounded-divide-sqrt-fp-math"="false" "disable-tail-calls"="false" "less-precise-fpmad"="false" "no-frame-pointer-elim"="false" "no-frame-pointer-elim-non-leaf" "no-infs-fp-math"="false" "no-nans-fp-math"="false" "no-signed-zeros-fp-math"="false" "no-trapping-math"="false" "null-pointer-is-valid"="true" "stack-protector-buffer-size"="4" "target-cpu"="x86-64" "target-features"="+cx8,+fxsr,+mmx,+sse,+sse2,+sse3,+x87" "unsafe-fp-math"="false" "use-soft-float"="false" }
attributes #10 = { inlinehint nounwind ssp uwtable "correctly-rounded-divide-sqrt-fp-math"="false" "disable-tail-calls"="false" "less-precise-fpmad"="false" "min-legal-vector-width"="0" "no-frame-pointer-elim"="false" "no-frame-pointer-elim-non-leaf" "no-infs-fp-math"="false" "no-jump-tables"="false" "no-nans-fp-math"="false" "no-signed-zeros-fp-math"="false" "no-trapping-math"="false" "null-pointer-is-valid"="true" "stack-protector-buffer-size"="4" "target-cpu"="x86-64" "target-features"="+cx8,+fxsr,+mmx,+sse,+sse2,+sse3,+x87" "unsafe-fp-math"="false" "use-soft-float"="false" }
attributes #11 = { nofree nounwind readonly }
attributes #12 = { nounwind }
attributes #13 = { builtin nounwind }
attributes #14 = { noreturn nounwind }

!llvm.module.flags = !{!0, !1}

!0 = !{i32 1, !"wchar_size", i32 4}
!1 = !{i32 7, !"PIC Level", i32 2}
!2 = !{i8 0, i8 2}
!3 = !{!4}
!4 = distinct !{!4, !5, !"_ZN6syncer21ModelTypeStoreBackend15DestroyDatabaseERKNSt3__112basic_stringIcNS1_11char_traitsIcEENS1_9allocatorIcEEEEPN7leveldb3EnvE: argument 0"}
!5 = distinct !{!5, !"_ZN6syncer21ModelTypeStoreBackend15DestroyDatabaseERKNSt3__112basic_stringIcNS1_11char_traitsIcEENS1_9allocatorIcEEEEPN7leveldb3EnvE"}
!6 = !{!7}
!7 = distinct !{!7, !8, !"_ZNSt3__1plIcNS_11char_traitsIcEENS_9allocatorIcEEEENS_12basic_stringIT_T0_T1_EERKS9_SB_: argument 0"}
!8 = distinct !{!8, !"_ZNSt3__1plIcNS_11char_traitsIcEENS_9allocatorIcEEEENS_12basic_stringIT_T0_T1_EERKS9_SB_"}
!9 = !{!10}
!10 = distinct !{!10, !11, !"_ZNK7leveldb5Slice8ToStringEv: argument 0"}
!11 = distinct !{!11, !"_ZNK7leveldb5Slice8ToStringEv"}
!12 = !{!13}
!13 = distinct !{!13, !14, !"_ZNK7leveldb5Slice8ToStringEv: argument 0"}
!14 = distinct !{!14, !"_ZNK7leveldb5Slice8ToStringEv"}
