; ModuleID = 'gen/components/segmentation_platform/internal/proto/model_metadata.pb.cc'
source_filename = "gen/components/segmentation_platform/internal/proto/model_metadata.pb.cc"
target datalayout = "e-m:e-i64:64-f80:128-n8:16:32:64-S128"
target triple = "x86_64-unknown-linux-gnu"

module asm ".symver exp, exp@GLIBC_2.2.5"
module asm ".symver exp2, exp2@GLIBC_2.2.5"
module asm ".symver exp2f, exp2f@GLIBC_2.2.5"
module asm ".symver expf, expf@GLIBC_2.2.5"
module asm ".symver lgamma, lgamma@GLIBC_2.2.5"
module asm ".symver lgammaf, lgammaf@GLIBC_2.2.5"
module asm ".symver lgammal, lgammal@GLIBC_2.2.5"
module asm ".symver log, log@GLIBC_2.2.5"
module asm ".symver log2, log2@GLIBC_2.2.5"
module asm ".symver log2f, log2f@GLIBC_2.2.5"
module asm ".symver logf, logf@GLIBC_2.2.5"
module asm ".symver pow, pow@GLIBC_2.2.5"
module asm ".symver powf, powf@GLIBC_2.2.5"

%"class.segmentation_platform::proto::HistogramValueFeatureDefaultTypeInternal" = type { %"class.google::protobuf::internal::ExplicitlyConstructed" }
%"class.google::protobuf::internal::ExplicitlyConstructed" = type { %"union.google::protobuf::internal::ExplicitlyConstructed<segmentation_platform::proto::HistogramValueFeature>::AlignedUnion" }
%"union.google::protobuf::internal::ExplicitlyConstructed<segmentation_platform::proto::HistogramValueFeature>::AlignedUnion" = type { i64, [32 x i8] }
%"class.segmentation_platform::proto::HistogramEnumFeatureDefaultTypeInternal" = type { %"class.google::protobuf::internal::ExplicitlyConstructed.0" }
%"class.google::protobuf::internal::ExplicitlyConstructed.0" = type { %"union.google::protobuf::internal::ExplicitlyConstructed<segmentation_platform::proto::HistogramEnumFeature>::AlignedUnion" }
%"union.google::protobuf::internal::ExplicitlyConstructed<segmentation_platform::proto::HistogramEnumFeature>::AlignedUnion" = type { i64, [48 x i8] }
%"class.segmentation_platform::proto::UserActionFeatureDefaultTypeInternal" = type { %"class.google::protobuf::internal::ExplicitlyConstructed.1" }
%"class.google::protobuf::internal::ExplicitlyConstructed.1" = type { %"union.google::protobuf::internal::ExplicitlyConstructed<segmentation_platform::proto::UserActionFeature>::AlignedUnion" }
%"union.google::protobuf::internal::ExplicitlyConstructed<segmentation_platform::proto::UserActionFeature>::AlignedUnion" = type { i64, [24 x i8] }
%"class.segmentation_platform::proto::FeatureDefaultTypeInternal" = type { %"class.google::protobuf::internal::ExplicitlyConstructed.2" }
%"class.google::protobuf::internal::ExplicitlyConstructed.2" = type { %"union.google::protobuf::internal::ExplicitlyConstructed<segmentation_platform::proto::Feature>::AlignedUnion" }
%"union.google::protobuf::internal::ExplicitlyConstructed<segmentation_platform::proto::Feature>::AlignedUnion" = type { i64, [48 x i8] }
%"class.segmentation_platform::proto::SegmentationModelMetadata_DiscreteMapping_EntryDefaultTypeInternal" = type { %"class.google::protobuf::internal::ExplicitlyConstructed.3" }
%"class.google::protobuf::internal::ExplicitlyConstructed.3" = type { %"union.google::protobuf::internal::ExplicitlyConstructed<segmentation_platform::proto::SegmentationModelMetadata_DiscreteMapping_Entry>::AlignedUnion" }
%"union.google::protobuf::internal::ExplicitlyConstructed<segmentation_platform::proto::SegmentationModelMetadata_DiscreteMapping_Entry>::AlignedUnion" = type { i64, [32 x i8] }
%"class.segmentation_platform::proto::SegmentationModelMetadata_DiscreteMappingDefaultTypeInternal" = type { %"class.google::protobuf::internal::ExplicitlyConstructed.4" }
%"class.google::protobuf::internal::ExplicitlyConstructed.4" = type { %"union.google::protobuf::internal::ExplicitlyConstructed<segmentation_platform::proto::SegmentationModelMetadata_DiscreteMapping>::AlignedUnion" }
%"union.google::protobuf::internal::ExplicitlyConstructed<segmentation_platform::proto::SegmentationModelMetadata_DiscreteMapping>::AlignedUnion" = type { i64, [40 x i8] }
%"class.segmentation_platform::proto::SegmentationModelMetadata_DiscreteMappingsEntry_DoNotUseDefaultTypeInternal" = type { %"class.google::protobuf::internal::ExplicitlyConstructed.5" }
%"class.google::protobuf::internal::ExplicitlyConstructed.5" = type { %"union.google::protobuf::internal::ExplicitlyConstructed<segmentation_platform::proto::SegmentationModelMetadata_DiscreteMappingsEntry_DoNotUse>::AlignedUnion" }
%"union.google::protobuf::internal::ExplicitlyConstructed<segmentation_platform::proto::SegmentationModelMetadata_DiscreteMappingsEntry_DoNotUse>::AlignedUnion" = type { i64, [32 x i8] }
%"class.segmentation_platform::proto::SegmentationModelMetadataDefaultTypeInternal" = type { %"class.google::protobuf::internal::ExplicitlyConstructed.6" }
%"class.google::protobuf::internal::ExplicitlyConstructed.6" = type { %"union.google::protobuf::internal::ExplicitlyConstructed<segmentation_platform::proto::SegmentationModelMetadata>::AlignedUnion" }
%"union.google::protobuf::internal::ExplicitlyConstructed<segmentation_platform::proto::SegmentationModelMetadata>::AlignedUnion" = type { i64, [136 x i8] }
%"struct.google::protobuf::internal::EnumEntry" = type <{ %"class.google::protobuf::StringPiece", i32, [4 x i8] }>
%"class.google::protobuf::StringPiece" = type { i8*, i64 }
%"class.google::protobuf::internal::ExplicitlyConstructed.12" = type { %"union.google::protobuf::internal::ExplicitlyConstructed<std::__1::basic_string<char, std::__1::char_traits<char>, std::__1::allocator<char> > >::AlignedUnion" }
%"union.google::protobuf::internal::ExplicitlyConstructed<std::__1::basic_string<char, std::__1::char_traits<char>, std::__1::allocator<char> > >::AlignedUnion" = type { i64, [16 x i8] }
%"class.segmentation_platform::proto::HistogramValueFeature" = type { %"class.google::protobuf::MessageLite", %"class.google::protobuf::internal::HasBits", %"class.google::protobuf::internal::CachedSize", %"struct.google::protobuf::internal::ArenaStringPtr", i64 }
%"class.google::protobuf::MessageLite" = type { i32 (...)**, %"class.google::protobuf::internal::InternalMetadata" }
%"class.google::protobuf::internal::InternalMetadata" = type { i8* }
%"class.google::protobuf::internal::HasBits" = type { [1 x i32] }
%"class.google::protobuf::internal::CachedSize" = type { %"struct.std::__1::atomic" }
%"struct.std::__1::atomic" = type { %"struct.std::__1::__atomic_base" }
%"struct.std::__1::__atomic_base" = type { %"struct.std::__1::__atomic_base.7" }
%"struct.std::__1::__atomic_base.7" = type { %"struct.std::__1::__cxx_atomic_impl" }
%"struct.std::__1::__cxx_atomic_impl" = type { %"struct.std::__1::__cxx_atomic_base_impl" }
%"struct.std::__1::__cxx_atomic_base_impl" = type { i32 }
%"struct.google::protobuf::internal::ArenaStringPtr" = type { %"class.std::__1::basic_string"* }
%"class.std::__1::basic_string" = type { %"class.std::__1::__compressed_pair" }
%"class.std::__1::__compressed_pair" = type { %"struct.std::__1::__compressed_pair_elem" }
%"struct.std::__1::__compressed_pair_elem" = type { %"struct.std::__1::basic_string<char, std::__1::char_traits<char>, std::__1::allocator<char> >::__rep" }
%"struct.std::__1::basic_string<char, std::__1::char_traits<char>, std::__1::allocator<char> >::__rep" = type { %union.anon }
%union.anon = type { %"struct.std::__1::basic_string<char, std::__1::char_traits<char>, std::__1::allocator<char> >::__long" }
%"struct.std::__1::basic_string<char, std::__1::char_traits<char>, std::__1::allocator<char> >::__long" = type { i8*, i64, i64 }
%"class.google::protobuf::Arena" = type { %"class.google::protobuf::internal::ArenaImpl", void (%"class.std::type_info"*, i64, i8*)*, void (%"class.google::protobuf::Arena"*, i8*, i64)*, void (%"class.google::protobuf::Arena"*, i8*, i64)*, i8* }
%"class.google::protobuf::internal::ArenaImpl" = type { %"struct.std::__1::atomic.13", %"struct.std::__1::atomic.13", %"struct.std::__1::atomic.17", %"class.google::protobuf::internal::ArenaImpl::Block"*, i64, %"struct.google::protobuf::internal::ArenaImpl::Options" }
%"struct.std::__1::atomic.13" = type { %"struct.std::__1::__atomic_base.14" }
%"struct.std::__1::__atomic_base.14" = type { %"struct.std::__1::__cxx_atomic_impl.15" }
%"struct.std::__1::__cxx_atomic_impl.15" = type { %"struct.std::__1::__cxx_atomic_base_impl.16" }
%"struct.std::__1::__cxx_atomic_base_impl.16" = type { %"class.google::protobuf::internal::ArenaImpl::SerialArena"* }
%"class.google::protobuf::internal::ArenaImpl::SerialArena" = type { %"class.google::protobuf::internal::ArenaImpl"*, i8*, %"class.google::protobuf::internal::ArenaImpl::Block"*, %"struct.google::protobuf::internal::ArenaImpl::CleanupChunk"*, %"class.google::protobuf::internal::ArenaImpl::SerialArena"*, i8*, i8*, %"struct.google::protobuf::internal::ArenaImpl::CleanupNode"*, %"struct.google::protobuf::internal::ArenaImpl::CleanupNode"* }
%"struct.google::protobuf::internal::ArenaImpl::CleanupChunk" = type { i64, %"struct.google::protobuf::internal::ArenaImpl::CleanupChunk"*, [1 x %"struct.google::protobuf::internal::ArenaImpl::CleanupNode"] }
%"struct.google::protobuf::internal::ArenaImpl::CleanupNode" = type { i8*, void (i8*)* }
%"struct.std::__1::atomic.17" = type { %"struct.std::__1::__atomic_base.18" }
%"struct.std::__1::__atomic_base.18" = type { %"struct.std::__1::__atomic_base.19" }
%"struct.std::__1::__atomic_base.19" = type { %"struct.std::__1::__cxx_atomic_impl.20" }
%"struct.std::__1::__cxx_atomic_impl.20" = type { %"struct.std::__1::__cxx_atomic_base_impl.21" }
%"struct.std::__1::__cxx_atomic_base_impl.21" = type { i64 }
%"class.google::protobuf::internal::ArenaImpl::Block" = type { %"class.google::protobuf::internal::ArenaImpl::Block"*, i64, i64 }
%"struct.google::protobuf::internal::ArenaImpl::Options" = type { i64, i64, i8*, i64, i8* (i64)*, void (i8*, i64)* }
%"class.std::type_info" = type { i32 (...)**, i8* }
%"class.segmentation_platform::proto::HistogramEnumFeature" = type { %"class.google::protobuf::MessageLite", %"class.google::protobuf::internal::HasBits", %"class.google::protobuf::internal::CachedSize", %"class.google::protobuf::RepeatedField", %"struct.google::protobuf::internal::ArenaStringPtr", i64 }
%"class.google::protobuf::RepeatedField" = type { i32, i32, i8* }
%"class.segmentation_platform::proto::UserActionFeature" = type { %"class.google::protobuf::MessageLite", %"class.google::protobuf::internal::HasBits", %"class.google::protobuf::internal::CachedSize", i64 }
%"class.segmentation_platform::proto::Feature" = type <{ %"class.google::protobuf::MessageLite", %"class.google::protobuf::internal::HasBits", %"class.google::protobuf::internal::CachedSize", i64, i32, [4 x i8], %"union.segmentation_platform::proto::Feature::ValueUnion", [1 x i32], [4 x i8] }>
%"union.segmentation_platform::proto::Feature::ValueUnion" = type { %"class.segmentation_platform::proto::UserActionFeature"* }
%"class.segmentation_platform::proto::SegmentationModelMetadata_DiscreteMapping_Entry" = type <{ %"class.google::protobuf::MessageLite", %"class.google::protobuf::internal::HasBits", %"class.google::protobuf::internal::CachedSize", i64, float, [4 x i8] }>
%"class.segmentation_platform::proto::SegmentationModelMetadata_DiscreteMapping" = type <{ %"class.google::protobuf::MessageLite", %"class.google::protobuf::RepeatedPtrField", %"class.google::protobuf::internal::CachedSize", [4 x i8] }>
%"class.google::protobuf::RepeatedPtrField" = type { %"class.google::protobuf::internal::RepeatedPtrFieldBase" }
%"class.google::protobuf::internal::RepeatedPtrFieldBase" = type { %"class.google::protobuf::Arena"*, i32, i32, %"struct.google::protobuf::internal::RepeatedPtrFieldBase::Rep"* }
%"struct.google::protobuf::internal::RepeatedPtrFieldBase::Rep" = type { i32, [268435454 x i8*] }
%"class.segmentation_platform::proto::SegmentationModelMetadata_DiscreteMappingsEntry_DoNotUse" = type { %"class.google::protobuf::internal::MapEntryLite.base", [4 x i8] }
%"class.google::protobuf::internal::MapEntryLite.base" = type { %"class.google::protobuf::internal::MapEntryImpl.base" }
%"class.google::protobuf::internal::MapEntryImpl.base" = type <{ %"class.google::protobuf::MessageLite", %"struct.google::protobuf::internal::ArenaStringPtr", %"class.segmentation_platform::proto::SegmentationModelMetadata_DiscreteMapping"*, [1 x i32] }>
%"class.segmentation_platform::proto::SegmentationModelMetadata" = type { %"class.google::protobuf::MessageLite", %"class.google::protobuf::internal::HasBits", %"class.google::protobuf::internal::CachedSize", %"class.google::protobuf::RepeatedPtrField.22", %"class.google::protobuf::internal::MapFieldLite", %"struct.google::protobuf::internal::ArenaStringPtr", i32, i64, i64, i64, i64 }
%"class.google::protobuf::RepeatedPtrField.22" = type { %"class.google::protobuf::internal::RepeatedPtrFieldBase" }
%"class.google::protobuf::internal::MapFieldLite" = type { %"class.google::protobuf::Map" }
%"class.google::protobuf::Map" = type { %"class.google::protobuf::Map<std::__1::basic_string<char, std::__1::char_traits<char>, std::__1::allocator<char> >, segmentation_platform::proto::SegmentationModelMetadata_DiscreteMapping>::InnerMap" }
%"class.google::protobuf::Map<std::__1::basic_string<char, std::__1::char_traits<char>, std::__1::allocator<char> >, segmentation_platform::proto::SegmentationModelMetadata_DiscreteMapping>::InnerMap" = type { i64, i64, i64, i64, i8**, %"class.google::protobuf::internal::MapAllocator" }
%"class.google::protobuf::internal::MapAllocator" = type { %"class.google::protobuf::Arena"* }
%"struct.google::protobuf::internal::SCCInfoBase" = type { %"struct.std::__1::atomic", i32, i32, void ()* }
%"struct.std::__1::basic_string<char, std::__1::char_traits<char>, std::__1::allocator<char> >::__short" = type { [23 x i8], %struct.anon }
%struct.anon = type { i8 }
%"struct.google::protobuf::internal::InternalMetadata::Container" = type { %"struct.google::protobuf::internal::InternalMetadata::ContainerBase", %"class.std::__1::basic_string" }
%"struct.google::protobuf::internal::InternalMetadata::ContainerBase" = type { %"class.google::protobuf::Arena"* }
%"class.google::protobuf::internal::ParseContext" = type { %"class.google::protobuf::internal::EpsCopyInputStream", i32, i32, %"struct.google::protobuf::internal::ParseContext::Data" }
%"class.google::protobuf::internal::EpsCopyInputStream" = type { i8*, i8*, i8*, i32, i32, %"class.google::protobuf::io::ZeroCopyInputStream"*, [32 x i8], i64, i32, i32 }
%"class.google::protobuf::io::ZeroCopyInputStream" = type { i32 (...)** }
%"struct.google::protobuf::internal::ParseContext::Data" = type { %"class.google::protobuf::DescriptorPool"*, %"class.google::protobuf::MessageFactory"* }
%"class.google::protobuf::DescriptorPool" = type opaque
%"class.google::protobuf::MessageFactory" = type opaque
%"class.google::protobuf::io::EpsCopyOutputStream" = type <{ i8*, i8*, [32 x i8], %"class.google::protobuf::io::ZeroCopyOutputStream"*, i8, i8, i8, [5 x i8] }>
%"class.google::protobuf::io::ZeroCopyOutputStream" = type { i32 (...)** }
%"class.google::protobuf::internal::MapEntryImpl" = type <{ %"class.google::protobuf::MessageLite", %"struct.google::protobuf::internal::ArenaStringPtr", %"class.segmentation_platform::proto::SegmentationModelMetadata_DiscreteMapping"*, [1 x i32], [4 x i8] }>
%"struct.std::__1::pair.42" = type <{ %"class.google::protobuf::Map<std::__1::basic_string<char, std::__1::char_traits<char>, std::__1::allocator<char> >, segmentation_platform::proto::SegmentationModelMetadata_DiscreteMapping>::InnerMap::iterator_base.43", i8, [7 x i8] }>
%"class.google::protobuf::Map<std::__1::basic_string<char, std::__1::char_traits<char>, std::__1::allocator<char> >, segmentation_platform::proto::SegmentationModelMetadata_DiscreteMapping>::InnerMap::iterator_base.43" = type { %"struct.google::protobuf::Map<std::__1::basic_string<char, std::__1::char_traits<char>, std::__1::allocator<char> >, segmentation_platform::proto::SegmentationModelMetadata_DiscreteMapping>::InnerMap::Node"*, %"class.google::protobuf::Map<std::__1::basic_string<char, std::__1::char_traits<char>, std::__1::allocator<char> >, segmentation_platform::proto::SegmentationModelMetadata_DiscreteMapping>::InnerMap"*, i64 }
%"struct.google::protobuf::Map<std::__1::basic_string<char, std::__1::char_traits<char>, std::__1::allocator<char> >, segmentation_platform::proto::SegmentationModelMetadata_DiscreteMapping>::InnerMap::Node" = type { %"struct.google::protobuf::MapPair", %"struct.google::protobuf::Map<std::__1::basic_string<char, std::__1::char_traits<char>, std::__1::allocator<char> >, segmentation_platform::proto::SegmentationModelMetadata_DiscreteMapping>::InnerMap::Node"* }
%"struct.google::protobuf::MapPair" = type { %"class.std::__1::basic_string", %"class.segmentation_platform::proto::SegmentationModelMetadata_DiscreteMapping" }
%"class.google::protobuf::Map<std::__1::basic_string<char, std::__1::char_traits<char>, std::__1::allocator<char> >, segmentation_platform::proto::SegmentationModelMetadata_DiscreteMapping>::const_iterator" = type { %"class.google::protobuf::Map<std::__1::basic_string<char, std::__1::char_traits<char>, std::__1::allocator<char> >, segmentation_platform::proto::SegmentationModelMetadata_DiscreteMapping>::InnerMap::iterator_base" }
%"class.google::protobuf::Map<std::__1::basic_string<char, std::__1::char_traits<char>, std::__1::allocator<char> >, segmentation_platform::proto::SegmentationModelMetadata_DiscreteMapping>::InnerMap::iterator_base" = type { %"struct.google::protobuf::Map<std::__1::basic_string<char, std::__1::char_traits<char>, std::__1::allocator<char> >, segmentation_platform::proto::SegmentationModelMetadata_DiscreteMapping>::InnerMap::Node"*, %"class.google::protobuf::Map<std::__1::basic_string<char, std::__1::char_traits<char>, std::__1::allocator<char> >, segmentation_platform::proto::SegmentationModelMetadata_DiscreteMapping>::InnerMap"*, i64 }
%"class.std::__1::__tree_end_node" = type { %"class.std::__1::__tree_node_base"* }
%"class.std::__1::__tree_node_base" = type <{ %"class.std::__1::__tree_end_node", %"class.std::__1::__tree_node_base"*, %"class.std::__1::__tree_end_node"*, i8, [7 x i8] }>
%"class.google::protobuf::internal::MapEntryImpl<segmentation_platform::proto::SegmentationModelMetadata_DiscreteMappingsEntry_DoNotUse, google::protobuf::MessageLite, std::__1::basic_string<char, std::__1::char_traits<char>, std::__1::allocator<char> >, segmentation_platform::proto::SegmentationModelMetadata_DiscreteMapping, google::protobuf::internal::WireFormatLite::TYPE_STRING, google::protobuf::internal::WireFormatLite::TYPE_MESSAGE>::Parser" = type { %"class.google::protobuf::internal::MapFieldLite"*, %"class.google::protobuf::Map"*, %"class.std::__1::basic_string", %"class.segmentation_platform::proto::SegmentationModelMetadata_DiscreteMapping"*, %"class.google::protobuf::internal::MapEntryImpl"* }
%"struct.google::protobuf::internal::CompareByDerefFirst" = type { i8 }
%"class.google::protobuf::internal::MapEntryLite" = type { %"class.google::protobuf::internal::MapEntryImpl.base", [4 x i8] }
%"class.std::__1::__tree" = type { %"class.std::__1::__tree_end_node"*, %"class.std::__1::__compressed_pair.30", %"class.std::__1::__compressed_pair.34" }
%"class.std::__1::__compressed_pair.30" = type { %"struct.std::__1::__compressed_pair_elem.31", %"struct.std::__1::__compressed_pair_elem.32" }
%"struct.std::__1::__compressed_pair_elem.31" = type { %"class.std::__1::__tree_end_node" }
%"struct.std::__1::__compressed_pair_elem.32" = type { %"class.google::protobuf::internal::MapAllocator.33" }
%"class.google::protobuf::internal::MapAllocator.33" = type { %"class.google::protobuf::Arena"* }
%"class.std::__1::__compressed_pair.34" = type { %"struct.std::__1::__compressed_pair_elem.35" }
%"struct.std::__1::__compressed_pair_elem.35" = type { i64 }
%"class.std::__1::__tree_node" = type { %"class.std::__1::__tree_node_base.base", %"struct.std::__1::__value_type" }
%"class.std::__1::__tree_node_base.base" = type <{ %"class.std::__1::__tree_end_node", %"class.std::__1::__tree_node_base"*, %"class.std::__1::__tree_end_node"*, i8 }>
%"struct.std::__1::__value_type" = type { %"struct.std::__1::pair.37" }
%"struct.std::__1::pair.37" = type { %"class.std::__1::reference_wrapper", i8* }
%"class.std::__1::reference_wrapper" = type { %"class.std::__1::basic_string"* }
%"struct.std::__1::pair.45" = type { %"class.google::protobuf::Map<std::__1::basic_string<char, std::__1::char_traits<char>, std::__1::allocator<char> >, segmentation_platform::proto::SegmentationModelMetadata_DiscreteMapping>::InnerMap::iterator_base", i64 }
%"class.std::__1::__map_iterator" = type { %"class.std::__1::__tree_iterator" }
%"class.std::__1::__tree_iterator" = type { %"class.std::__1::__tree_end_node"* }
%"class.std::__1::map" = type { %"class.std::__1::__tree" }
%"struct.std::__1::__murmur2_or_cityhash" = type { i8 }
%"class.google::protobuf::Map<std::__1::basic_string<char, std::__1::char_traits<char>, std::__1::allocator<char> >, segmentation_platform::proto::SegmentationModelMetadata_DiscreteMapping>::iterator" = type { %"class.google::protobuf::Map<std::__1::basic_string<char, std::__1::char_traits<char>, std::__1::allocator<char> >, segmentation_platform::proto::SegmentationModelMetadata_DiscreteMapping>::InnerMap::iterator_base.43" }

$_ZN6google8protobuf8internal12ParseContext12ParseMessageIN21segmentation_platform5proto17UserActionFeatureEEEPKcPT_S8_ = comdat any

$_ZN6google8protobuf8internal12ParseContext12ParseMessageIN21segmentation_platform5proto21HistogramValueFeatureEEEPKcPT_S8_ = comdat any

$_ZN6google8protobuf8internal12ParseContext12ParseMessageIN21segmentation_platform5proto20HistogramEnumFeatureEEEPKcPT_S8_ = comdat any

$_ZN6google8protobuf8internal12ParseContext12ParseMessageIN21segmentation_platform5proto47SegmentationModelMetadata_DiscreteMapping_EntryEEEPKcPT_S8_ = comdat any

$_ZN6google8protobuf8internal12MapEntryImplIN21segmentation_platform5proto56SegmentationModelMetadata_DiscreteMappingsEntry_DoNotUseENS0_11MessageLiteENSt3__112basic_stringIcNS7_11char_traitsIcEENS7_9allocatorIcEEEENS4_41SegmentationModelMetadata_DiscreteMappingELNS1_14WireFormatLite9FieldTypeE9ELSG_11EE17MergeFromInternalERKSH_ = comdat any

$_ZN6google8protobuf8internal12MapFieldLiteIN21segmentation_platform5proto56SegmentationModelMetadata_DiscreteMappingsEntry_DoNotUseENSt3__112basic_stringIcNS6_11char_traitsIcEENS6_9allocatorIcEEEENS4_41SegmentationModelMetadata_DiscreteMappingELNS1_14WireFormatLite9FieldTypeE9ELSF_11EE9MergeFromERKSG_ = comdat any

$_ZN6google8protobuf8internal12ParseContext12ParseMessageIN21segmentation_platform5proto7FeatureEEEPKcPT_S8_ = comdat any

$_ZN6google8protobuf8internal12ParseContext12ParseMessageINS1_12MapFieldLiteIN21segmentation_platform5proto56SegmentationModelMetadata_DiscreteMappingsEntry_DoNotUseENSt3__112basic_stringIcNS8_11char_traitsIcEENS8_9allocatorIcEEEENS6_41SegmentationModelMetadata_DiscreteMappingELNS1_14WireFormatLite9FieldTypeE9ELSH_11EEEEEPKcPT_SK_ = comdat any

$_ZN6google8protobuf8internal13MapEntryFuncsINSt3__112basic_stringIcNS3_11char_traitsIcEENS3_9allocatorIcEEEEN21segmentation_platform5proto41SegmentationModelMetadata_DiscreteMappingELNS1_14WireFormatLite9FieldTypeE9ELSE_11EE17InternalSerializeEiRKS9_RKSC_PhPNS0_2io19EpsCopyOutputStreamE = comdat any

$_ZNK21segmentation_platform5proto21HistogramValueFeature3NewEv = comdat any

$_ZNK21segmentation_platform5proto21HistogramValueFeature3NewEPN6google8protobuf5ArenaE = comdat any

$_ZNK21segmentation_platform5proto21HistogramValueFeature13GetCachedSizeEv = comdat any

$_ZNK6google8protobuf11MessageLite16InternalGetTableEv = comdat any

$_ZNK21segmentation_platform5proto20HistogramEnumFeature3NewEv = comdat any

$_ZNK21segmentation_platform5proto20HistogramEnumFeature3NewEPN6google8protobuf5ArenaE = comdat any

$_ZNK21segmentation_platform5proto20HistogramEnumFeature13GetCachedSizeEv = comdat any

$_ZNK21segmentation_platform5proto17UserActionFeature3NewEv = comdat any

$_ZNK21segmentation_platform5proto17UserActionFeature3NewEPN6google8protobuf5ArenaE = comdat any

$_ZNK21segmentation_platform5proto17UserActionFeature13GetCachedSizeEv = comdat any

$_ZNK21segmentation_platform5proto7Feature3NewEv = comdat any

$_ZNK21segmentation_platform5proto7Feature3NewEPN6google8protobuf5ArenaE = comdat any

$_ZNK21segmentation_platform5proto7Feature13GetCachedSizeEv = comdat any

$_ZNK21segmentation_platform5proto47SegmentationModelMetadata_DiscreteMapping_Entry3NewEv = comdat any

$_ZNK21segmentation_platform5proto47SegmentationModelMetadata_DiscreteMapping_Entry3NewEPN6google8protobuf5ArenaE = comdat any

$_ZNK21segmentation_platform5proto47SegmentationModelMetadata_DiscreteMapping_Entry13GetCachedSizeEv = comdat any

$_ZNK21segmentation_platform5proto41SegmentationModelMetadata_DiscreteMapping3NewEv = comdat any

$_ZNK21segmentation_platform5proto41SegmentationModelMetadata_DiscreteMapping3NewEPN6google8protobuf5ArenaE = comdat any

$_ZNK21segmentation_platform5proto41SegmentationModelMetadata_DiscreteMapping13GetCachedSizeEv = comdat any

$_ZNK21segmentation_platform5proto25SegmentationModelMetadata3NewEv = comdat any

$_ZNK21segmentation_platform5proto25SegmentationModelMetadata3NewEPN6google8protobuf5ArenaE = comdat any

$_ZNK21segmentation_platform5proto25SegmentationModelMetadata13GetCachedSizeEv = comdat any

$_ZN6google8protobuf8internal12MapEntryLiteIN21segmentation_platform5proto56SegmentationModelMetadata_DiscreteMappingsEntry_DoNotUseENSt3__112basic_stringIcNS6_11char_traitsIcEENS6_9allocatorIcEEEENS4_41SegmentationModelMetadata_DiscreteMappingELNS1_14WireFormatLite9FieldTypeE9ELSF_11EED2Ev = comdat any

$_ZN21segmentation_platform5proto56SegmentationModelMetadata_DiscreteMappingsEntry_DoNotUseD0Ev = comdat any

$_ZNK6google8protobuf8internal12MapEntryImplIN21segmentation_platform5proto56SegmentationModelMetadata_DiscreteMappingsEntry_DoNotUseENS0_11MessageLiteENSt3__112basic_stringIcNS7_11char_traitsIcEENS7_9allocatorIcEEEENS4_41SegmentationModelMetadata_DiscreteMappingELNS1_14WireFormatLite9FieldTypeE9ELSG_11EE11GetTypeNameEv = comdat any

$_ZNK6google8protobuf8internal12MapEntryImplIN21segmentation_platform5proto56SegmentationModelMetadata_DiscreteMappingsEntry_DoNotUseENS0_11MessageLiteENSt3__112basic_stringIcNS7_11char_traitsIcEENS7_9allocatorIcEEEENS4_41SegmentationModelMetadata_DiscreteMappingELNS1_14WireFormatLite9FieldTypeE9ELSG_11EE3NewEv = comdat any

$_ZNK6google8protobuf8internal12MapEntryImplIN21segmentation_platform5proto56SegmentationModelMetadata_DiscreteMappingsEntry_DoNotUseENS0_11MessageLiteENSt3__112basic_stringIcNS7_11char_traitsIcEENS7_9allocatorIcEEEENS4_41SegmentationModelMetadata_DiscreteMappingELNS1_14WireFormatLite9FieldTypeE9ELSG_11EE3NewEPNS0_5ArenaE = comdat any

$_ZN6google8protobuf8internal12MapEntryImplIN21segmentation_platform5proto56SegmentationModelMetadata_DiscreteMappingsEntry_DoNotUseENS0_11MessageLiteENSt3__112basic_stringIcNS7_11char_traitsIcEENS7_9allocatorIcEEEENS4_41SegmentationModelMetadata_DiscreteMappingELNS1_14WireFormatLite9FieldTypeE9ELSG_11EE5ClearEv = comdat any

$_ZNK6google8protobuf8internal12MapEntryImplIN21segmentation_platform5proto56SegmentationModelMetadata_DiscreteMappingsEntry_DoNotUseENS0_11MessageLiteENSt3__112basic_stringIcNS7_11char_traitsIcEENS7_9allocatorIcEEEENS4_41SegmentationModelMetadata_DiscreteMappingELNS1_14WireFormatLite9FieldTypeE9ELSG_11EE13IsInitializedEv = comdat any

$_ZN6google8protobuf8internal12MapEntryImplIN21segmentation_platform5proto56SegmentationModelMetadata_DiscreteMappingsEntry_DoNotUseENS0_11MessageLiteENSt3__112basic_stringIcNS7_11char_traitsIcEENS7_9allocatorIcEEEENS4_41SegmentationModelMetadata_DiscreteMappingELNS1_14WireFormatLite9FieldTypeE9ELSG_11EE21CheckTypeAndMergeFromERKS6_ = comdat any

$_ZNK6google8protobuf8internal12MapEntryImplIN21segmentation_platform5proto56SegmentationModelMetadata_DiscreteMappingsEntry_DoNotUseENS0_11MessageLiteENSt3__112basic_stringIcNS7_11char_traitsIcEENS7_9allocatorIcEEEENS4_41SegmentationModelMetadata_DiscreteMappingELNS1_14WireFormatLite9FieldTypeE9ELSG_11EE12ByteSizeLongEv = comdat any

$_ZNK6google8protobuf8internal12MapEntryImplIN21segmentation_platform5proto56SegmentationModelMetadata_DiscreteMappingsEntry_DoNotUseENS0_11MessageLiteENSt3__112basic_stringIcNS7_11char_traitsIcEENS7_9allocatorIcEEEENS4_41SegmentationModelMetadata_DiscreteMappingELNS1_14WireFormatLite9FieldTypeE9ELSG_11EE13GetCachedSizeEv = comdat any

$_ZN6google8protobuf8internal12MapEntryImplIN21segmentation_platform5proto56SegmentationModelMetadata_DiscreteMappingsEntry_DoNotUseENS0_11MessageLiteENSt3__112basic_stringIcNS7_11char_traitsIcEENS7_9allocatorIcEEEENS4_41SegmentationModelMetadata_DiscreteMappingELNS1_14WireFormatLite9FieldTypeE9ELSG_11EE14_InternalParseEPKcPNS1_12ParseContextE = comdat any

$_ZNK6google8protobuf8internal12MapEntryImplIN21segmentation_platform5proto56SegmentationModelMetadata_DiscreteMappingsEntry_DoNotUseENS0_11MessageLiteENSt3__112basic_stringIcNS7_11char_traitsIcEENS7_9allocatorIcEEEENS4_41SegmentationModelMetadata_DiscreteMappingELNS1_14WireFormatLite9FieldTypeE9ELSG_11EE18_InternalSerializeEPhPNS0_2io19EpsCopyOutputStreamE = comdat any

$_ZNK6google8protobuf8internal12MapEntryImplIN21segmentation_platform5proto56SegmentationModelMetadata_DiscreteMappingsEntry_DoNotUseENS0_11MessageLiteENSt3__112basic_stringIcNS7_11char_traitsIcEENS7_9allocatorIcEEEENS4_41SegmentationModelMetadata_DiscreteMappingELNS1_14WireFormatLite9FieldTypeE9ELSG_11EE3keyEv = comdat any

$_ZNK6google8protobuf8internal12MapEntryImplIN21segmentation_platform5proto56SegmentationModelMetadata_DiscreteMappingsEntry_DoNotUseENS0_11MessageLiteENSt3__112basic_stringIcNS7_11char_traitsIcEENS7_9allocatorIcEEEENS4_41SegmentationModelMetadata_DiscreteMappingELNS1_14WireFormatLite9FieldTypeE9ELSG_11EE5valueEv = comdat any

$_ZN6google8protobuf8internal14ArenaStringPtr14CreateInstanceEPNS0_5ArenaEPKNSt3__112basic_stringIcNS5_11char_traitsIcEENS5_9allocatorIcEEEE = comdat any

$_ZN6google8protobuf8internal21arena_destruct_objectINSt3__112basic_stringIcNS3_11char_traitsIcEENS3_9allocatorIcEEEEEEvPv = comdat any

$_ZN6google8protobuf3MapINSt3__112basic_stringIcNS2_11char_traitsIcEENS2_9allocatorIcEEEEN21segmentation_platform5proto41SegmentationModelMetadata_DiscreteMappingEE8InnerMap5clearEv = comdat any

$_ZNSt3__113__tree_removeIPNS_16__tree_node_baseIPvEEEEvT_S5_ = comdat any

$_ZNSt3__16__treeINS_12__value_typeINS_17reference_wrapperIKNS_12basic_stringIcNS_11char_traitsIcEENS_9allocatorIcEEEEEEPvEENS_19__map_value_compareISA_SC_NS_4lessIS8_EELb1EEEN6google8protobuf8internal12MapAllocatorISC_EEE7destroyEPNS_11__tree_nodeISC_SB_EE = comdat any

$_ZN6google8protobuf8internal16InternalMetadata27mutable_unknown_fields_slowINSt3__112basic_stringIcNS4_11char_traitsIcEENS4_9allocatorIcEEEEEEPT_v = comdat any

$_ZN6google8protobuf8internal21arena_destruct_objectINS1_16InternalMetadata9ContainerINSt3__112basic_stringIcNS5_11char_traitsIcEENS5_9allocatorIcEEEEEEEEvPv = comdat any

$_ZN6google8protobuf8internal18GenericTypeHandlerIN21segmentation_platform5proto47SegmentationModelMetadata_DiscreteMapping_EntryEE5MergeERKS5_PS5_ = comdat any

$_ZN6google8protobuf8internal12MapEntryLiteIN21segmentation_platform5proto56SegmentationModelMetadata_DiscreteMappingsEntry_DoNotUseENSt3__112basic_stringIcNS6_11char_traitsIcEENS6_9allocatorIcEEEENS4_41SegmentationModelMetadata_DiscreteMappingELNS1_14WireFormatLite9FieldTypeE9ELSF_11EED0Ev = comdat any

$_ZN6google8protobuf8internal12MapEntryImplIN21segmentation_platform5proto56SegmentationModelMetadata_DiscreteMappingsEntry_DoNotUseENS0_11MessageLiteENSt3__112basic_stringIcNS7_11char_traitsIcEENS7_9allocatorIcEEEENS4_41SegmentationModelMetadata_DiscreteMappingELNS1_14WireFormatLite9FieldTypeE9ELSG_11EED2Ev = comdat any

$_ZN6google8protobuf8internal12MapEntryImplIN21segmentation_platform5proto56SegmentationModelMetadata_DiscreteMappingsEntry_DoNotUseENS0_11MessageLiteENSt3__112basic_stringIcNS7_11char_traitsIcEENS7_9allocatorIcEEEENS4_41SegmentationModelMetadata_DiscreteMappingELNS1_14WireFormatLite9FieldTypeE9ELSG_11EED0Ev = comdat any

$_ZN6google8protobuf3MapINSt3__112basic_stringIcNS2_11char_traitsIcEENS2_9allocatorIcEEEEN21segmentation_platform5proto41SegmentationModelMetadata_DiscreteMappingEE8InnerMap6insertERKS8_ = comdat any

$_ZN6google8protobuf3MapINSt3__112basic_stringIcNS2_11char_traitsIcEENS2_9allocatorIcEEEEN21segmentation_platform5proto41SegmentationModelMetadata_DiscreteMappingEE8InnerMap12InsertUniqueEmPNSD_4NodeE = comdat any

$_ZNK6google8protobuf3MapINSt3__112basic_stringIcNS2_11char_traitsIcEENS2_9allocatorIcEEEEN21segmentation_platform5proto41SegmentationModelMetadata_DiscreteMappingEE8InnerMap10FindHelperIS8_EENS2_4pairINSD_13iterator_baseIKNS0_7MapPairIS8_SB_EEEEmEERKT_PNS2_14__map_iteratorINS2_15__tree_iteratorINS2_12__value_typeINS2_17reference_wrapperIKS8_EEPvEEPNS2_11__tree_nodeISW_SV_EElEEEE = comdat any

$_ZNSt3__121__murmur2_or_cityhashImLm64EEclEPKvm = comdat any

$_ZNSt3__121__murmur2_or_cityhashImLm64EE18__hash_len_0_to_16EPKcm = comdat any

$_ZNSt3__16__treeINS_12__value_typeINS_17reference_wrapperIKNS_12basic_stringIcNS_11char_traitsIcEENS_9allocatorIcEEEEEEPvEENS_19__map_value_compareISA_SC_NS_4lessIS8_EELb1EEEN6google8protobuf8internal12MapAllocatorISC_EEE4findISA_EENS_15__tree_iteratorISC_PNS_11__tree_nodeISC_SB_EElEERKT_ = comdat any

$_ZN6google8protobuf3MapINSt3__112basic_stringIcNS2_11char_traitsIcEENS2_9allocatorIcEEEEN21segmentation_platform5proto41SegmentationModelMetadata_DiscreteMappingEE8InnerMap6ResizeEm = comdat any

$_ZN6google8protobuf3MapINSt3__112basic_stringIcNS2_11char_traitsIcEENS2_9allocatorIcEEEEN21segmentation_platform5proto41SegmentationModelMetadata_DiscreteMappingEE8InnerMap12TransferTreeEPKPvm = comdat any

$_ZN6google8protobuf5Arena13OwnDestructorINSt3__112basic_stringIcNS3_11char_traitsIcEENS3_9allocatorIcEEEEEEvPT_ = comdat any

$_ZN6google8protobuf3MapINSt3__112basic_stringIcNS2_11char_traitsIcEENS2_9allocatorIcEEEEN21segmentation_platform5proto41SegmentationModelMetadata_DiscreteMappingEE8InnerMap11TreeConvertEm = comdat any

$_ZN6google8protobuf8internal21arena_destruct_objectINSt3__13mapINS3_17reference_wrapperIKNS3_12basic_stringIcNS3_11char_traitsIcEENS3_9allocatorIcEEEEEEPvNS3_4lessISB_EENS1_12MapAllocatorINS3_4pairIKSD_SE_EEEEEEEEvSE_ = comdat any

$_ZNSt3__16__treeINS_12__value_typeINS_17reference_wrapperIKNS_12basic_stringIcNS_11char_traitsIcEENS_9allocatorIcEEEEEEPvEENS_19__map_value_compareISA_SC_NS_4lessIS8_EELb1EEEN6google8protobuf8internal12MapAllocatorISC_EEE25__emplace_unique_key_argsISA_JNS_4pairIKSA_SB_EEEEENSO_INS_15__tree_iteratorISC_PNS_11__tree_nodeISC_SB_EElEEbEERKT_DpOT0_ = comdat any

$_ZNSt3__16__treeINS_12__value_typeINS_17reference_wrapperIKNS_12basic_stringIcNS_11char_traitsIcEENS_9allocatorIcEEEEEEPvEENS_19__map_value_compareISA_SC_NS_4lessIS8_EELb1EEEN6google8protobuf8internal12MapAllocatorISC_EEE12__find_equalISA_EERPNS_16__tree_node_baseISB_EERPNS_15__tree_end_nodeISQ_EERKT_ = comdat any

$_ZNSt3__127__tree_balance_after_insertIPNS_16__tree_node_baseIPvEEEEvT_S5_ = comdat any

$_ZN6google8protobuf8internal12MapEntryImplIN21segmentation_platform5proto56SegmentationModelMetadata_DiscreteMappingsEntry_DoNotUseENS0_11MessageLiteENSt3__112basic_stringIcNS7_11char_traitsIcEENS7_9allocatorIcEEEENS4_41SegmentationModelMetadata_DiscreteMappingELNS1_14WireFormatLite9FieldTypeE9ELSG_11EE6ParserINS1_12MapFieldLiteIS5_SD_SE_LSG_9ELSG_11EEENS0_3MapISD_SE_EEE14_InternalParseEPKcPNS1_12ParseContextE = comdat any

$_ZN6google8protobuf8internal12MapEntryImplIN21segmentation_platform5proto56SegmentationModelMetadata_DiscreteMappingsEntry_DoNotUseENS0_11MessageLiteENSt3__112basic_stringIcNS7_11char_traitsIcEENS7_9allocatorIcEEEENS4_41SegmentationModelMetadata_DiscreteMappingELNS1_14WireFormatLite9FieldTypeE9ELSG_11EE6ParserINS1_12MapFieldLiteIS5_SD_SE_LSG_9ELSG_11EEENS0_3MapISD_SE_EEE23UseKeyAndValueFromEntryEv = comdat any

$_ZN6google8protobuf8internal12ParseContext12ParseMessageIN21segmentation_platform5proto41SegmentationModelMetadata_DiscreteMappingEEEPKcPT_S8_ = comdat any

$_ZN6google8protobuf3MapINSt3__112basic_stringIcNS2_11char_traitsIcEENS2_9allocatorIcEEEEN21segmentation_platform5proto41SegmentationModelMetadata_DiscreteMappingEE8InnerMap5eraseENSD_13iterator_baseINS0_7MapPairIS8_SB_EEEE = comdat any

$_ZN6google8protobuf3MapINSt3__112basic_stringIcNS2_11char_traitsIcEENS2_9allocatorIcEEEEN21segmentation_platform5proto41SegmentationModelMetadata_DiscreteMappingEE8InnerMap13iterator_baseINS0_7MapPairIS8_SB_EEEppEv = comdat any

$_ZN6google8protobuf3MapINSt3__112basic_stringIcNS2_11char_traitsIcEENS2_9allocatorIcEEEEN21segmentation_platform5proto41SegmentationModelMetadata_DiscreteMappingEE8InnerMap19EraseFromLinkedListEPNSD_4NodeESF_ = comdat any

$_ZN21segmentation_platform5proto41SegmentationModelMetadata_DiscreteMapping4SwapEPS1_ = comdat any

$_ZN6google8protobuf3MapINSt3__112basic_stringIcNS2_11char_traitsIcEENS2_9allocatorIcEEEEN21segmentation_platform5proto41SegmentationModelMetadata_DiscreteMappingEE8InnerMap13iterator_baseIKNS0_7MapPairIS8_SB_EEEppEv = comdat any

$_ZNSt3__16__sortIRN6google8protobuf8internal19CompareByDerefFirstIPKNS2_7MapPairINS_12basic_stringIcNS_11char_traitsIcEENS_9allocatorIcEEEEN21segmentation_platform5proto41SegmentationModelMetadata_DiscreteMappingEEEEEPSH_EEvT0_SL_T_ = comdat any

$_ZNSt3__17__sort3IRN6google8protobuf8internal19CompareByDerefFirstIPKNS2_7MapPairINS_12basic_stringIcNS_11char_traitsIcEENS_9allocatorIcEEEEN21segmentation_platform5proto41SegmentationModelMetadata_DiscreteMappingEEEEEPSH_EEjT0_SL_SL_T_ = comdat any

$_ZNSt3__17__sort4IRN6google8protobuf8internal19CompareByDerefFirstIPKNS2_7MapPairINS_12basic_stringIcNS_11char_traitsIcEENS_9allocatorIcEEEEN21segmentation_platform5proto41SegmentationModelMetadata_DiscreteMappingEEEEEPSH_EEjT0_SL_SL_SL_T_ = comdat any

$_ZNSt3__17__sort5IRN6google8protobuf8internal19CompareByDerefFirstIPKNS2_7MapPairINS_12basic_stringIcNS_11char_traitsIcEENS_9allocatorIcEEEEN21segmentation_platform5proto41SegmentationModelMetadata_DiscreteMappingEEEEEPSH_EEjT0_SL_SL_SL_SL_T_ = comdat any

$_ZNSt3__118__insertion_sort_3IRN6google8protobuf8internal19CompareByDerefFirstIPKNS2_7MapPairINS_12basic_stringIcNS_11char_traitsIcEENS_9allocatorIcEEEEN21segmentation_platform5proto41SegmentationModelMetadata_DiscreteMappingEEEEEPSH_EEvT0_SL_T_ = comdat any

$_ZNSt3__127__insertion_sort_incompleteIRN6google8protobuf8internal19CompareByDerefFirstIPKNS2_7MapPairINS_12basic_stringIcNS_11char_traitsIcEENS_9allocatorIcEEEEN21segmentation_platform5proto41SegmentationModelMetadata_DiscreteMappingEEEEEPSH_EEbT0_SL_T_ = comdat any

$_ZN6google8protobuf8internal18GenericTypeHandlerIN21segmentation_platform5proto7FeatureEE5MergeERKS5_PS5_ = comdat any

$_ZN6google8protobuf3MapINSt3__112basic_stringIcNS2_11char_traitsIcEENS2_9allocatorIcEEEEN21segmentation_platform5proto41SegmentationModelMetadata_DiscreteMappingEE4swapERSC_ = comdat any

$_ZN6google8protobuf3MapINSt3__112basic_stringIcNS2_11char_traitsIcEENS2_9allocatorIcEEEEN21segmentation_platform5proto41SegmentationModelMetadata_DiscreteMappingEE6insertINSC_14const_iteratorEEEvT_SF_ = comdat any

$_ZTVN21segmentation_platform5proto56SegmentationModelMetadata_DiscreteMappingsEntry_DoNotUseE = comdat any

$_ZTVN6google8protobuf8internal12MapEntryLiteIN21segmentation_platform5proto56SegmentationModelMetadata_DiscreteMappingsEntry_DoNotUseENSt3__112basic_stringIcNS6_11char_traitsIcEENS6_9allocatorIcEEEENS4_41SegmentationModelMetadata_DiscreteMappingELNS1_14WireFormatLite9FieldTypeE9ELSF_11EEE = comdat any

$_ZTVN6google8protobuf8internal12MapEntryImplIN21segmentation_platform5proto56SegmentationModelMetadata_DiscreteMappingsEntry_DoNotUseENS0_11MessageLiteENSt3__112basic_stringIcNS7_11char_traitsIcEENS7_9allocatorIcEEEENS4_41SegmentationModelMetadata_DiscreteMappingELNS1_14WireFormatLite9FieldTypeE9ELSG_11EEE = comdat any

@_ZN21segmentation_platform5proto40_HistogramValueFeature_default_instance_E = hidden global %"class.segmentation_platform::proto::HistogramValueFeatureDefaultTypeInternal" zeroinitializer, align 8
@_ZN21segmentation_platform5proto39_HistogramEnumFeature_default_instance_E = hidden global %"class.segmentation_platform::proto::HistogramEnumFeatureDefaultTypeInternal" zeroinitializer, align 8
@_ZN21segmentation_platform5proto36_UserActionFeature_default_instance_E = hidden global %"class.segmentation_platform::proto::UserActionFeatureDefaultTypeInternal" zeroinitializer, align 8
@_ZN21segmentation_platform5proto26_Feature_default_instance_E = hidden global %"class.segmentation_platform::proto::FeatureDefaultTypeInternal" zeroinitializer, align 8
@_ZN21segmentation_platform5proto66_SegmentationModelMetadata_DiscreteMapping_Entry_default_instance_E = hidden global %"class.segmentation_platform::proto::SegmentationModelMetadata_DiscreteMapping_EntryDefaultTypeInternal" zeroinitializer, align 8
@_ZN21segmentation_platform5proto60_SegmentationModelMetadata_DiscreteMapping_default_instance_E = hidden global %"class.segmentation_platform::proto::SegmentationModelMetadata_DiscreteMappingDefaultTypeInternal" zeroinitializer, align 8
@_ZN21segmentation_platform5proto75_SegmentationModelMetadata_DiscreteMappingsEntry_DoNotUse_default_instance_E = hidden local_unnamed_addr global %"class.segmentation_platform::proto::SegmentationModelMetadata_DiscreteMappingsEntry_DoNotUseDefaultTypeInternal" zeroinitializer, align 8
@_ZN21segmentation_platform5proto44_SegmentationModelMetadata_default_instance_E = hidden global %"class.segmentation_platform::proto::SegmentationModelMetadataDefaultTypeInternal" zeroinitializer, align 8
@scc_info_Feature_components_2fsegmentation_5fplatform_2finternal_2fproto_2fmodel_5fmetadata_2eproto = hidden global { { { { i32 } }, i32, i32, void ()* }, [3 x i8*] } { { { { i32 } }, i32, i32, void ()* } { { { i32 } } { { i32 } { i32 -1 } }, i32 3, i32 0, void ()* @_ZL111InitDefaultsscc_info_Feature_components_2fsegmentation_5fplatform_2finternal_2fproto_2fmodel_5fmetadata_2eprotov }, [3 x i8*] [i8* bitcast ({ { { { i32 } }, i32, i32, void ()* }, [0 x i8*] }* @scc_info_UserActionFeature_components_2fsegmentation_5fplatform_2finternal_2fproto_2fmodel_5fmetadata_2eproto to i8*), i8* bitcast ({ { { { i32 } }, i32, i32, void ()* }, [0 x i8*] }* @scc_info_HistogramValueFeature_components_2fsegmentation_5fplatform_2finternal_2fproto_2fmodel_5fmetadata_2eproto to i8*), i8* bitcast ({ { { { i32 } }, i32, i32, void ()* }, [0 x i8*] }* @scc_info_HistogramEnumFeature_components_2fsegmentation_5fplatform_2finternal_2fproto_2fmodel_5fmetadata_2eproto to i8*)] }, align 8
@scc_info_HistogramEnumFeature_components_2fsegmentation_5fplatform_2finternal_2fproto_2fmodel_5fmetadata_2eproto = hidden global { { { { i32 } }, i32, i32, void ()* }, [0 x i8*] } { { { { i32 } }, i32, i32, void ()* } { { { i32 } } { { i32 } { i32 -1 } }, i32 0, i32 0, void ()* @_ZL124InitDefaultsscc_info_HistogramEnumFeature_components_2fsegmentation_5fplatform_2finternal_2fproto_2fmodel_5fmetadata_2eprotov }, [0 x i8*] zeroinitializer }, align 8
@scc_info_HistogramValueFeature_components_2fsegmentation_5fplatform_2finternal_2fproto_2fmodel_5fmetadata_2eproto = hidden global { { { { i32 } }, i32, i32, void ()* }, [0 x i8*] } { { { { i32 } }, i32, i32, void ()* } { { { i32 } } { { i32 } { i32 -1 } }, i32 0, i32 0, void ()* @_ZL125InitDefaultsscc_info_HistogramValueFeature_components_2fsegmentation_5fplatform_2finternal_2fproto_2fmodel_5fmetadata_2eprotov }, [0 x i8*] zeroinitializer }, align 8
@scc_info_SegmentationModelMetadata_components_2fsegmentation_5fplatform_2finternal_2fproto_2fmodel_5fmetadata_2eproto = hidden global { { { { i32 } }, i32, i32, void ()* }, [2 x i8*] } { { { { i32 } }, i32, i32, void ()* } { { { i32 } } { { i32 } { i32 -1 } }, i32 2, i32 0, void ()* @_ZL129InitDefaultsscc_info_SegmentationModelMetadata_components_2fsegmentation_5fplatform_2finternal_2fproto_2fmodel_5fmetadata_2eprotov }, [2 x i8*] [i8* bitcast ({ { { { i32 } }, i32, i32, void ()* }, [3 x i8*] }* @scc_info_Feature_components_2fsegmentation_5fplatform_2finternal_2fproto_2fmodel_5fmetadata_2eproto to i8*), i8* bitcast ({ { { { i32 } }, i32, i32, void ()* }, [1 x i8*] }* @scc_info_SegmentationModelMetadata_DiscreteMappingsEntry_DoNotUse_components_2fsegmentation_5fplatform_2finternal_2fproto_2fmodel_5fmetadata_2eproto to i8*)] }, align 8
@scc_info_SegmentationModelMetadata_DiscreteMapping_components_2fsegmentation_5fplatform_2finternal_2fproto_2fmodel_5fmetadata_2eproto = hidden global { { { { i32 } }, i32, i32, void ()* }, [1 x i8*] } { { { { i32 } }, i32, i32, void ()* } { { { i32 } } { { i32 } { i32 -1 } }, i32 1, i32 0, void ()* @_ZL145InitDefaultsscc_info_SegmentationModelMetadata_DiscreteMapping_components_2fsegmentation_5fplatform_2finternal_2fproto_2fmodel_5fmetadata_2eprotov }, [1 x i8*] [i8* bitcast ({ { { { i32 } }, i32, i32, void ()* }, [0 x i8*] }* @scc_info_SegmentationModelMetadata_DiscreteMapping_Entry_components_2fsegmentation_5fplatform_2finternal_2fproto_2fmodel_5fmetadata_2eproto to i8*)] }, align 8
@scc_info_SegmentationModelMetadata_DiscreteMapping_Entry_components_2fsegmentation_5fplatform_2finternal_2fproto_2fmodel_5fmetadata_2eproto = hidden global { { { { i32 } }, i32, i32, void ()* }, [0 x i8*] } { { { { i32 } }, i32, i32, void ()* } { { { i32 } } { { i32 } { i32 -1 } }, i32 0, i32 0, void ()* @_ZL151InitDefaultsscc_info_SegmentationModelMetadata_DiscreteMapping_Entry_components_2fsegmentation_5fplatform_2finternal_2fproto_2fmodel_5fmetadata_2eprotov }, [0 x i8*] zeroinitializer }, align 8
@scc_info_SegmentationModelMetadata_DiscreteMappingsEntry_DoNotUse_components_2fsegmentation_5fplatform_2finternal_2fproto_2fmodel_5fmetadata_2eproto = hidden global { { { { i32 } }, i32, i32, void ()* }, [1 x i8*] } { { { { i32 } }, i32, i32, void ()* } { { { i32 } } { { i32 } { i32 -1 } }, i32 1, i32 0, void ()* @_ZL160InitDefaultsscc_info_SegmentationModelMetadata_DiscreteMappingsEntry_DoNotUse_components_2fsegmentation_5fplatform_2finternal_2fproto_2fmodel_5fmetadata_2eprotov }, [1 x i8*] [i8* bitcast ({ { { { i32 } }, i32, i32, void ()* }, [1 x i8*] }* @scc_info_SegmentationModelMetadata_DiscreteMapping_components_2fsegmentation_5fplatform_2finternal_2fproto_2fmodel_5fmetadata_2eproto to i8*)] }, align 8
@scc_info_UserActionFeature_components_2fsegmentation_5fplatform_2finternal_2fproto_2fmodel_5fmetadata_2eproto = hidden global { { { { i32 } }, i32, i32, void ()* }, [0 x i8*] } { { { { i32 } }, i32, i32, void ()* } { { { i32 } } { { i32 } { i32 -1 } }, i32 0, i32 0, void ()* @_ZL121InitDefaultsscc_info_UserActionFeature_components_2fsegmentation_5fplatform_2finternal_2fproto_2fmodel_5fmetadata_2eprotov }, [0 x i8*] zeroinitializer }, align 8
@_ZN21segmentation_platform5protoL16TimeUnit_entriesE = internal constant [8 x %"struct.google::protobuf::internal::EnumEntry"] [%"struct.google::protobuf::internal::EnumEntry" <{ %"class.google::protobuf::StringPiece" { i8* getelementptr inbounds ([50 x i8], [50 x i8]* @_ZN21segmentation_platform5protoL14TimeUnit_namesE, i64 0, i64 0), i64 3 }, i32 4, [4 x i8] zeroinitializer }>, %"struct.google::protobuf::internal::EnumEntry" <{ %"class.google::protobuf::StringPiece" { i8* getelementptr inbounds ([50 x i8], [50 x i8]* @_ZN21segmentation_platform5protoL14TimeUnit_namesE, i64 0, i64 3), i64 4 }, i32 5, [4 x i8] zeroinitializer }>, %"struct.google::protobuf::internal::EnumEntry" <{ %"class.google::protobuf::StringPiece" { i8* getelementptr inbounds ([50 x i8], [50 x i8]* @_ZN21segmentation_platform5protoL14TimeUnit_namesE, i64 0, i64 7), i64 6 }, i32 6, [4 x i8] zeroinitializer }>, %"struct.google::protobuf::internal::EnumEntry" <{ %"class.google::protobuf::StringPiece" { i8* getelementptr inbounds ([50 x i8], [50 x i8]* @_ZN21segmentation_platform5protoL14TimeUnit_namesE, i64 0, i64 13), i64 5 }, i32 2, [4 x i8] zeroinitializer }>, %"struct.google::protobuf::internal::EnumEntry" <{ %"class.google::protobuf::StringPiece" { i8* getelementptr inbounds ([50 x i8], [50 x i8]* @_ZN21segmentation_platform5protoL14TimeUnit_namesE, i64 0, i64 18), i64 6 }, i32 7, [4 x i8] zeroinitializer }>, %"struct.google::protobuf::internal::EnumEntry" <{ %"class.google::protobuf::StringPiece" { i8* getelementptr inbounds ([50 x i8], [50 x i8]* @_ZN21segmentation_platform5protoL14TimeUnit_namesE, i64 0, i64 24), i64 17 }, i32 0, [4 x i8] zeroinitializer }>, %"struct.google::protobuf::internal::EnumEntry" <{ %"class.google::protobuf::StringPiece" { i8* getelementptr inbounds ([50 x i8], [50 x i8]* @_ZN21segmentation_platform5protoL14TimeUnit_namesE, i64 0, i64 41), i64 4 }, i32 3, [4 x i8] zeroinitializer }>, %"struct.google::protobuf::internal::EnumEntry" <{ %"class.google::protobuf::StringPiece" { i8* getelementptr inbounds ([50 x i8], [50 x i8]* @_ZN21segmentation_platform5protoL14TimeUnit_namesE, i64 0, i64 45), i64 4 }, i32 1, [4 x i8] zeroinitializer }>], align 16
@_ZN21segmentation_platform5protoL14TimeUnit_namesE = internal constant [50 x i8] c"DAYHOURMINUTEMONTHSECONDUNKNOWN_TIME_UNITWEEKYEAR\00", align 16
@_ZZN21segmentation_platform5proto13TimeUnit_NameENS0_8TimeUnitEE5dummy = internal global i8 0, align 1
@_ZGVZN21segmentation_platform5proto13TimeUnit_NameENS0_8TimeUnitEE5dummy = internal global i64 0, align 8
@_ZN21segmentation_platform5protoL26TimeUnit_entries_by_numberE = internal constant [8 x i32] [i32 5, i32 7, i32 3, i32 6, i32 0, i32 1, i32 2, i32 4], align 16
@_ZN21segmentation_platform5protoL16TimeUnit_stringsE = internal global [8 x %"class.google::protobuf::internal::ExplicitlyConstructed.12"] zeroinitializer, align 16
@_ZTVN21segmentation_platform5proto21HistogramValueFeatureE = hidden unnamed_addr constant { [16 x i8*] } { [16 x i8*] [i8* null, i8* null, i8* bitcast (void (%"class.segmentation_platform::proto::HistogramValueFeature"*)* @_ZN21segmentation_platform5proto21HistogramValueFeatureD2Ev to i8*), i8* bitcast (void (%"class.segmentation_platform::proto::HistogramValueFeature"*)* @_ZN21segmentation_platform5proto21HistogramValueFeatureD0Ev to i8*), i8* bitcast (void (%"class.std::__1::basic_string"*, %"class.segmentation_platform::proto::HistogramValueFeature"*)* @_ZNK21segmentation_platform5proto21HistogramValueFeature11GetTypeNameEv to i8*), i8* bitcast (%"class.segmentation_platform::proto::HistogramValueFeature"* (%"class.segmentation_platform::proto::HistogramValueFeature"*)* @_ZNK21segmentation_platform5proto21HistogramValueFeature3NewEv to i8*), i8* bitcast (%"class.segmentation_platform::proto::HistogramValueFeature"* (%"class.segmentation_platform::proto::HistogramValueFeature"*, %"class.google::protobuf::Arena"*)* @_ZNK21segmentation_platform5proto21HistogramValueFeature3NewEPN6google8protobuf5ArenaE to i8*), i8* bitcast (void (%"class.segmentation_platform::proto::HistogramValueFeature"*)* @_ZN21segmentation_platform5proto21HistogramValueFeature5ClearEv to i8*), i8* bitcast (i1 (%"class.segmentation_platform::proto::HistogramValueFeature"*)* @_ZNK21segmentation_platform5proto21HistogramValueFeature13IsInitializedEv to i8*), i8* bitcast (void (%"class.std::__1::basic_string"*, %"class.google::protobuf::MessageLite"*)* @_ZNK6google8protobuf11MessageLite25InitializationErrorStringEv to i8*), i8* bitcast (void (%"class.segmentation_platform::proto::HistogramValueFeature"*, %"class.google::protobuf::MessageLite"*)* @_ZN21segmentation_platform5proto21HistogramValueFeature21CheckTypeAndMergeFromERKN6google8protobuf11MessageLiteE to i8*), i8* bitcast (i64 (%"class.segmentation_platform::proto::HistogramValueFeature"*)* @_ZNK21segmentation_platform5proto21HistogramValueFeature12ByteSizeLongEv to i8*), i8* bitcast (i32 (%"class.segmentation_platform::proto::HistogramValueFeature"*)* @_ZNK21segmentation_platform5proto21HistogramValueFeature13GetCachedSizeEv to i8*), i8* bitcast (i8* (%"class.segmentation_platform::proto::HistogramValueFeature"*, i8*, %"class.google::protobuf::internal::ParseContext"*)* @_ZN21segmentation_platform5proto21HistogramValueFeature14_InternalParseEPKcPN6google8protobuf8internal12ParseContextE to i8*), i8* bitcast (i8* (%"class.segmentation_platform::proto::HistogramValueFeature"*, i8*, %"class.google::protobuf::io::EpsCopyOutputStream"*)* @_ZNK21segmentation_platform5proto21HistogramValueFeature18_InternalSerializeEPhPN6google8protobuf2io19EpsCopyOutputStreamE to i8*), i8* bitcast (i8* (%"class.google::protobuf::MessageLite"*)* @_ZNK6google8protobuf11MessageLite16InternalGetTableEv to i8*)] }, align 8
@.str = private unnamed_addr constant [73 x i8] c"gen/components/segmentation_platform/internal/proto/model_metadata.pb.cc\00", align 1
@.str.7 = private unnamed_addr constant [50 x i8] c"segmentation_platform.proto.HistogramValueFeature\00", align 1
@_ZTVN21segmentation_platform5proto20HistogramEnumFeatureE = hidden unnamed_addr constant { [16 x i8*] } { [16 x i8*] [i8* null, i8* null, i8* bitcast (void (%"class.segmentation_platform::proto::HistogramEnumFeature"*)* @_ZN21segmentation_platform5proto20HistogramEnumFeatureD2Ev to i8*), i8* bitcast (void (%"class.segmentation_platform::proto::HistogramEnumFeature"*)* @_ZN21segmentation_platform5proto20HistogramEnumFeatureD0Ev to i8*), i8* bitcast (void (%"class.std::__1::basic_string"*, %"class.segmentation_platform::proto::HistogramEnumFeature"*)* @_ZNK21segmentation_platform5proto20HistogramEnumFeature11GetTypeNameEv to i8*), i8* bitcast (%"class.segmentation_platform::proto::HistogramEnumFeature"* (%"class.segmentation_platform::proto::HistogramEnumFeature"*)* @_ZNK21segmentation_platform5proto20HistogramEnumFeature3NewEv to i8*), i8* bitcast (%"class.segmentation_platform::proto::HistogramEnumFeature"* (%"class.segmentation_platform::proto::HistogramEnumFeature"*, %"class.google::protobuf::Arena"*)* @_ZNK21segmentation_platform5proto20HistogramEnumFeature3NewEPN6google8protobuf5ArenaE to i8*), i8* bitcast (void (%"class.segmentation_platform::proto::HistogramEnumFeature"*)* @_ZN21segmentation_platform5proto20HistogramEnumFeature5ClearEv to i8*), i8* bitcast (i1 (%"class.segmentation_platform::proto::HistogramEnumFeature"*)* @_ZNK21segmentation_platform5proto20HistogramEnumFeature13IsInitializedEv to i8*), i8* bitcast (void (%"class.std::__1::basic_string"*, %"class.google::protobuf::MessageLite"*)* @_ZNK6google8protobuf11MessageLite25InitializationErrorStringEv to i8*), i8* bitcast (void (%"class.segmentation_platform::proto::HistogramEnumFeature"*, %"class.google::protobuf::MessageLite"*)* @_ZN21segmentation_platform5proto20HistogramEnumFeature21CheckTypeAndMergeFromERKN6google8protobuf11MessageLiteE to i8*), i8* bitcast (i64 (%"class.segmentation_platform::proto::HistogramEnumFeature"*)* @_ZNK21segmentation_platform5proto20HistogramEnumFeature12ByteSizeLongEv to i8*), i8* bitcast (i32 (%"class.segmentation_platform::proto::HistogramEnumFeature"*)* @_ZNK21segmentation_platform5proto20HistogramEnumFeature13GetCachedSizeEv to i8*), i8* bitcast (i8* (%"class.segmentation_platform::proto::HistogramEnumFeature"*, i8*, %"class.google::protobuf::internal::ParseContext"*)* @_ZN21segmentation_platform5proto20HistogramEnumFeature14_InternalParseEPKcPN6google8protobuf8internal12ParseContextE to i8*), i8* bitcast (i8* (%"class.segmentation_platform::proto::HistogramEnumFeature"*, i8*, %"class.google::protobuf::io::EpsCopyOutputStream"*)* @_ZNK21segmentation_platform5proto20HistogramEnumFeature18_InternalSerializeEPhPN6google8protobuf2io19EpsCopyOutputStreamE to i8*), i8* bitcast (i8* (%"class.google::protobuf::MessageLite"*)* @_ZNK6google8protobuf11MessageLite16InternalGetTableEv to i8*)] }, align 8
@.str.8 = private unnamed_addr constant [49 x i8] c"segmentation_platform.proto.HistogramEnumFeature\00", align 1
@_ZTVN21segmentation_platform5proto17UserActionFeatureE = hidden unnamed_addr constant { [16 x i8*] } { [16 x i8*] [i8* null, i8* null, i8* bitcast (void (%"class.segmentation_platform::proto::UserActionFeature"*)* @_ZN21segmentation_platform5proto17UserActionFeatureD2Ev to i8*), i8* bitcast (void (%"class.segmentation_platform::proto::UserActionFeature"*)* @_ZN21segmentation_platform5proto17UserActionFeatureD0Ev to i8*), i8* bitcast (void (%"class.std::__1::basic_string"*, %"class.segmentation_platform::proto::UserActionFeature"*)* @_ZNK21segmentation_platform5proto17UserActionFeature11GetTypeNameEv to i8*), i8* bitcast (%"class.segmentation_platform::proto::UserActionFeature"* (%"class.segmentation_platform::proto::UserActionFeature"*)* @_ZNK21segmentation_platform5proto17UserActionFeature3NewEv to i8*), i8* bitcast (%"class.segmentation_platform::proto::UserActionFeature"* (%"class.segmentation_platform::proto::UserActionFeature"*, %"class.google::protobuf::Arena"*)* @_ZNK21segmentation_platform5proto17UserActionFeature3NewEPN6google8protobuf5ArenaE to i8*), i8* bitcast (void (%"class.segmentation_platform::proto::UserActionFeature"*)* @_ZN21segmentation_platform5proto17UserActionFeature5ClearEv to i8*), i8* bitcast (i1 (%"class.segmentation_platform::proto::UserActionFeature"*)* @_ZNK21segmentation_platform5proto17UserActionFeature13IsInitializedEv to i8*), i8* bitcast (void (%"class.std::__1::basic_string"*, %"class.google::protobuf::MessageLite"*)* @_ZNK6google8protobuf11MessageLite25InitializationErrorStringEv to i8*), i8* bitcast (void (%"class.segmentation_platform::proto::UserActionFeature"*, %"class.google::protobuf::MessageLite"*)* @_ZN21segmentation_platform5proto17UserActionFeature21CheckTypeAndMergeFromERKN6google8protobuf11MessageLiteE to i8*), i8* bitcast (i64 (%"class.segmentation_platform::proto::UserActionFeature"*)* @_ZNK21segmentation_platform5proto17UserActionFeature12ByteSizeLongEv to i8*), i8* bitcast (i32 (%"class.segmentation_platform::proto::UserActionFeature"*)* @_ZNK21segmentation_platform5proto17UserActionFeature13GetCachedSizeEv to i8*), i8* bitcast (i8* (%"class.segmentation_platform::proto::UserActionFeature"*, i8*, %"class.google::protobuf::internal::ParseContext"*)* @_ZN21segmentation_platform5proto17UserActionFeature14_InternalParseEPKcPN6google8protobuf8internal12ParseContextE to i8*), i8* bitcast (i8* (%"class.segmentation_platform::proto::UserActionFeature"*, i8*, %"class.google::protobuf::io::EpsCopyOutputStream"*)* @_ZNK21segmentation_platform5proto17UserActionFeature18_InternalSerializeEPhPN6google8protobuf2io19EpsCopyOutputStreamE to i8*), i8* bitcast (i8* (%"class.google::protobuf::MessageLite"*)* @_ZNK6google8protobuf11MessageLite16InternalGetTableEv to i8*)] }, align 8
@.str.9 = private unnamed_addr constant [46 x i8] c"segmentation_platform.proto.UserActionFeature\00", align 1
@_ZTVN21segmentation_platform5proto7FeatureE = hidden unnamed_addr constant { [16 x i8*] } { [16 x i8*] [i8* null, i8* null, i8* bitcast (void (%"class.segmentation_platform::proto::Feature"*)* @_ZN21segmentation_platform5proto7FeatureD2Ev to i8*), i8* bitcast (void (%"class.segmentation_platform::proto::Feature"*)* @_ZN21segmentation_platform5proto7FeatureD0Ev to i8*), i8* bitcast (void (%"class.std::__1::basic_string"*, %"class.segmentation_platform::proto::Feature"*)* @_ZNK21segmentation_platform5proto7Feature11GetTypeNameEv to i8*), i8* bitcast (%"class.segmentation_platform::proto::Feature"* (%"class.segmentation_platform::proto::Feature"*)* @_ZNK21segmentation_platform5proto7Feature3NewEv to i8*), i8* bitcast (%"class.segmentation_platform::proto::Feature"* (%"class.segmentation_platform::proto::Feature"*, %"class.google::protobuf::Arena"*)* @_ZNK21segmentation_platform5proto7Feature3NewEPN6google8protobuf5ArenaE to i8*), i8* bitcast (void (%"class.segmentation_platform::proto::Feature"*)* @_ZN21segmentation_platform5proto7Feature5ClearEv to i8*), i8* bitcast (i1 (%"class.segmentation_platform::proto::Feature"*)* @_ZNK21segmentation_platform5proto7Feature13IsInitializedEv to i8*), i8* bitcast (void (%"class.std::__1::basic_string"*, %"class.google::protobuf::MessageLite"*)* @_ZNK6google8protobuf11MessageLite25InitializationErrorStringEv to i8*), i8* bitcast (void (%"class.segmentation_platform::proto::Feature"*, %"class.google::protobuf::MessageLite"*)* @_ZN21segmentation_platform5proto7Feature21CheckTypeAndMergeFromERKN6google8protobuf11MessageLiteE to i8*), i8* bitcast (i64 (%"class.segmentation_platform::proto::Feature"*)* @_ZNK21segmentation_platform5proto7Feature12ByteSizeLongEv to i8*), i8* bitcast (i32 (%"class.segmentation_platform::proto::Feature"*)* @_ZNK21segmentation_platform5proto7Feature13GetCachedSizeEv to i8*), i8* bitcast (i8* (%"class.segmentation_platform::proto::Feature"*, i8*, %"class.google::protobuf::internal::ParseContext"*)* @_ZN21segmentation_platform5proto7Feature14_InternalParseEPKcPN6google8protobuf8internal12ParseContextE to i8*), i8* bitcast (i8* (%"class.segmentation_platform::proto::Feature"*, i8*, %"class.google::protobuf::io::EpsCopyOutputStream"*)* @_ZNK21segmentation_platform5proto7Feature18_InternalSerializeEPhPN6google8protobuf2io19EpsCopyOutputStreamE to i8*), i8* bitcast (i8* (%"class.google::protobuf::MessageLite"*)* @_ZNK6google8protobuf11MessageLite16InternalGetTableEv to i8*)] }, align 8
@.str.10 = private unnamed_addr constant [36 x i8] c"segmentation_platform.proto.Feature\00", align 1
@_ZTVN21segmentation_platform5proto47SegmentationModelMetadata_DiscreteMapping_EntryE = hidden unnamed_addr constant { [16 x i8*] } { [16 x i8*] [i8* null, i8* null, i8* bitcast (void (%"class.segmentation_platform::proto::SegmentationModelMetadata_DiscreteMapping_Entry"*)* @_ZN21segmentation_platform5proto47SegmentationModelMetadata_DiscreteMapping_EntryD2Ev to i8*), i8* bitcast (void (%"class.segmentation_platform::proto::SegmentationModelMetadata_DiscreteMapping_Entry"*)* @_ZN21segmentation_platform5proto47SegmentationModelMetadata_DiscreteMapping_EntryD0Ev to i8*), i8* bitcast (void (%"class.std::__1::basic_string"*, %"class.segmentation_platform::proto::SegmentationModelMetadata_DiscreteMapping_Entry"*)* @_ZNK21segmentation_platform5proto47SegmentationModelMetadata_DiscreteMapping_Entry11GetTypeNameEv to i8*), i8* bitcast (%"class.segmentation_platform::proto::SegmentationModelMetadata_DiscreteMapping_Entry"* (%"class.segmentation_platform::proto::SegmentationModelMetadata_DiscreteMapping_Entry"*)* @_ZNK21segmentation_platform5proto47SegmentationModelMetadata_DiscreteMapping_Entry3NewEv to i8*), i8* bitcast (%"class.segmentation_platform::proto::SegmentationModelMetadata_DiscreteMapping_Entry"* (%"class.segmentation_platform::proto::SegmentationModelMetadata_DiscreteMapping_Entry"*, %"class.google::protobuf::Arena"*)* @_ZNK21segmentation_platform5proto47SegmentationModelMetadata_DiscreteMapping_Entry3NewEPN6google8protobuf5ArenaE to i8*), i8* bitcast (void (%"class.segmentation_platform::proto::SegmentationModelMetadata_DiscreteMapping_Entry"*)* @_ZN21segmentation_platform5proto47SegmentationModelMetadata_DiscreteMapping_Entry5ClearEv to i8*), i8* bitcast (i1 (%"class.segmentation_platform::proto::SegmentationModelMetadata_DiscreteMapping_Entry"*)* @_ZNK21segmentation_platform5proto47SegmentationModelMetadata_DiscreteMapping_Entry13IsInitializedEv to i8*), i8* bitcast (void (%"class.std::__1::basic_string"*, %"class.google::protobuf::MessageLite"*)* @_ZNK6google8protobuf11MessageLite25InitializationErrorStringEv to i8*), i8* bitcast (void (%"class.segmentation_platform::proto::SegmentationModelMetadata_DiscreteMapping_Entry"*, %"class.google::protobuf::MessageLite"*)* @_ZN21segmentation_platform5proto47SegmentationModelMetadata_DiscreteMapping_Entry21CheckTypeAndMergeFromERKN6google8protobuf11MessageLiteE to i8*), i8* bitcast (i64 (%"class.segmentation_platform::proto::SegmentationModelMetadata_DiscreteMapping_Entry"*)* @_ZNK21segmentation_platform5proto47SegmentationModelMetadata_DiscreteMapping_Entry12ByteSizeLongEv to i8*), i8* bitcast (i32 (%"class.segmentation_platform::proto::SegmentationModelMetadata_DiscreteMapping_Entry"*)* @_ZNK21segmentation_platform5proto47SegmentationModelMetadata_DiscreteMapping_Entry13GetCachedSizeEv to i8*), i8* bitcast (i8* (%"class.segmentation_platform::proto::SegmentationModelMetadata_DiscreteMapping_Entry"*, i8*, %"class.google::protobuf::internal::ParseContext"*)* @_ZN21segmentation_platform5proto47SegmentationModelMetadata_DiscreteMapping_Entry14_InternalParseEPKcPN6google8protobuf8internal12ParseContextE to i8*), i8* bitcast (i8* (%"class.segmentation_platform::proto::SegmentationModelMetadata_DiscreteMapping_Entry"*, i8*, %"class.google::protobuf::io::EpsCopyOutputStream"*)* @_ZNK21segmentation_platform5proto47SegmentationModelMetadata_DiscreteMapping_Entry18_InternalSerializeEPhPN6google8protobuf2io19EpsCopyOutputStreamE to i8*), i8* bitcast (i8* (%"class.google::protobuf::MessageLite"*)* @_ZNK6google8protobuf11MessageLite16InternalGetTableEv to i8*)] }, align 8
@.str.11 = private unnamed_addr constant [76 x i8] c"segmentation_platform.proto.SegmentationModelMetadata.DiscreteMapping.Entry\00", align 1
@_ZTVN21segmentation_platform5proto41SegmentationModelMetadata_DiscreteMappingE = hidden unnamed_addr constant { [16 x i8*] } { [16 x i8*] [i8* null, i8* null, i8* bitcast (void (%"class.segmentation_platform::proto::SegmentationModelMetadata_DiscreteMapping"*)* @_ZN21segmentation_platform5proto41SegmentationModelMetadata_DiscreteMappingD2Ev to i8*), i8* bitcast (void (%"class.segmentation_platform::proto::SegmentationModelMetadata_DiscreteMapping"*)* @_ZN21segmentation_platform5proto41SegmentationModelMetadata_DiscreteMappingD0Ev to i8*), i8* bitcast (void (%"class.std::__1::basic_string"*, %"class.segmentation_platform::proto::SegmentationModelMetadata_DiscreteMapping"*)* @_ZNK21segmentation_platform5proto41SegmentationModelMetadata_DiscreteMapping11GetTypeNameEv to i8*), i8* bitcast (%"class.segmentation_platform::proto::SegmentationModelMetadata_DiscreteMapping"* (%"class.segmentation_platform::proto::SegmentationModelMetadata_DiscreteMapping"*)* @_ZNK21segmentation_platform5proto41SegmentationModelMetadata_DiscreteMapping3NewEv to i8*), i8* bitcast (%"class.segmentation_platform::proto::SegmentationModelMetadata_DiscreteMapping"* (%"class.segmentation_platform::proto::SegmentationModelMetadata_DiscreteMapping"*, %"class.google::protobuf::Arena"*)* @_ZNK21segmentation_platform5proto41SegmentationModelMetadata_DiscreteMapping3NewEPN6google8protobuf5ArenaE to i8*), i8* bitcast (void (%"class.segmentation_platform::proto::SegmentationModelMetadata_DiscreteMapping"*)* @_ZN21segmentation_platform5proto41SegmentationModelMetadata_DiscreteMapping5ClearEv to i8*), i8* bitcast (i1 (%"class.segmentation_platform::proto::SegmentationModelMetadata_DiscreteMapping"*)* @_ZNK21segmentation_platform5proto41SegmentationModelMetadata_DiscreteMapping13IsInitializedEv to i8*), i8* bitcast (void (%"class.std::__1::basic_string"*, %"class.google::protobuf::MessageLite"*)* @_ZNK6google8protobuf11MessageLite25InitializationErrorStringEv to i8*), i8* bitcast (void (%"class.segmentation_platform::proto::SegmentationModelMetadata_DiscreteMapping"*, %"class.google::protobuf::MessageLite"*)* @_ZN21segmentation_platform5proto41SegmentationModelMetadata_DiscreteMapping21CheckTypeAndMergeFromERKN6google8protobuf11MessageLiteE to i8*), i8* bitcast (i64 (%"class.segmentation_platform::proto::SegmentationModelMetadata_DiscreteMapping"*)* @_ZNK21segmentation_platform5proto41SegmentationModelMetadata_DiscreteMapping12ByteSizeLongEv to i8*), i8* bitcast (i32 (%"class.segmentation_platform::proto::SegmentationModelMetadata_DiscreteMapping"*)* @_ZNK21segmentation_platform5proto41SegmentationModelMetadata_DiscreteMapping13GetCachedSizeEv to i8*), i8* bitcast (i8* (%"class.segmentation_platform::proto::SegmentationModelMetadata_DiscreteMapping"*, i8*, %"class.google::protobuf::internal::ParseContext"*)* @_ZN21segmentation_platform5proto41SegmentationModelMetadata_DiscreteMapping14_InternalParseEPKcPN6google8protobuf8internal12ParseContextE to i8*), i8* bitcast (i8* (%"class.segmentation_platform::proto::SegmentationModelMetadata_DiscreteMapping"*, i8*, %"class.google::protobuf::io::EpsCopyOutputStream"*)* @_ZNK21segmentation_platform5proto41SegmentationModelMetadata_DiscreteMapping18_InternalSerializeEPhPN6google8protobuf2io19EpsCopyOutputStreamE to i8*), i8* bitcast (i8* (%"class.google::protobuf::MessageLite"*)* @_ZNK6google8protobuf11MessageLite16InternalGetTableEv to i8*)] }, align 8
@.str.12 = private unnamed_addr constant [70 x i8] c"segmentation_platform.proto.SegmentationModelMetadata.DiscreteMapping\00", align 1
@_ZTVN21segmentation_platform5proto56SegmentationModelMetadata_DiscreteMappingsEntry_DoNotUseE = linkonce_odr hidden unnamed_addr constant { [18 x i8*] } { [18 x i8*] [i8* null, i8* null, i8* bitcast (void (%"class.google::protobuf::internal::MapEntryLite"*)* @_ZN6google8protobuf8internal12MapEntryLiteIN21segmentation_platform5proto56SegmentationModelMetadata_DiscreteMappingsEntry_DoNotUseENSt3__112basic_stringIcNS6_11char_traitsIcEENS6_9allocatorIcEEEENS4_41SegmentationModelMetadata_DiscreteMappingELNS1_14WireFormatLite9FieldTypeE9ELSF_11EED2Ev to i8*), i8* bitcast (void (%"class.segmentation_platform::proto::SegmentationModelMetadata_DiscreteMappingsEntry_DoNotUse"*)* @_ZN21segmentation_platform5proto56SegmentationModelMetadata_DiscreteMappingsEntry_DoNotUseD0Ev to i8*), i8* bitcast (void (%"class.std::__1::basic_string"*, %"class.google::protobuf::internal::MapEntryImpl"*)* @_ZNK6google8protobuf8internal12MapEntryImplIN21segmentation_platform5proto56SegmentationModelMetadata_DiscreteMappingsEntry_DoNotUseENS0_11MessageLiteENSt3__112basic_stringIcNS7_11char_traitsIcEENS7_9allocatorIcEEEENS4_41SegmentationModelMetadata_DiscreteMappingELNS1_14WireFormatLite9FieldTypeE9ELSG_11EE11GetTypeNameEv to i8*), i8* bitcast (%"class.google::protobuf::MessageLite"* (%"class.google::protobuf::internal::MapEntryImpl"*)* @_ZNK6google8protobuf8internal12MapEntryImplIN21segmentation_platform5proto56SegmentationModelMetadata_DiscreteMappingsEntry_DoNotUseENS0_11MessageLiteENSt3__112basic_stringIcNS7_11char_traitsIcEENS7_9allocatorIcEEEENS4_41SegmentationModelMetadata_DiscreteMappingELNS1_14WireFormatLite9FieldTypeE9ELSG_11EE3NewEv to i8*), i8* bitcast (%"class.google::protobuf::MessageLite"* (%"class.google::protobuf::internal::MapEntryImpl"*, %"class.google::protobuf::Arena"*)* @_ZNK6google8protobuf8internal12MapEntryImplIN21segmentation_platform5proto56SegmentationModelMetadata_DiscreteMappingsEntry_DoNotUseENS0_11MessageLiteENSt3__112basic_stringIcNS7_11char_traitsIcEENS7_9allocatorIcEEEENS4_41SegmentationModelMetadata_DiscreteMappingELNS1_14WireFormatLite9FieldTypeE9ELSG_11EE3NewEPNS0_5ArenaE to i8*), i8* bitcast (void (%"class.google::protobuf::internal::MapEntryImpl"*)* @_ZN6google8protobuf8internal12MapEntryImplIN21segmentation_platform5proto56SegmentationModelMetadata_DiscreteMappingsEntry_DoNotUseENS0_11MessageLiteENSt3__112basic_stringIcNS7_11char_traitsIcEENS7_9allocatorIcEEEENS4_41SegmentationModelMetadata_DiscreteMappingELNS1_14WireFormatLite9FieldTypeE9ELSG_11EE5ClearEv to i8*), i8* bitcast (i1 (%"class.google::protobuf::internal::MapEntryImpl"*)* @_ZNK6google8protobuf8internal12MapEntryImplIN21segmentation_platform5proto56SegmentationModelMetadata_DiscreteMappingsEntry_DoNotUseENS0_11MessageLiteENSt3__112basic_stringIcNS7_11char_traitsIcEENS7_9allocatorIcEEEENS4_41SegmentationModelMetadata_DiscreteMappingELNS1_14WireFormatLite9FieldTypeE9ELSG_11EE13IsInitializedEv to i8*), i8* bitcast (void (%"class.std::__1::basic_string"*, %"class.google::protobuf::MessageLite"*)* @_ZNK6google8protobuf11MessageLite25InitializationErrorStringEv to i8*), i8* bitcast (void (%"class.google::protobuf::internal::MapEntryImpl"*, %"class.google::protobuf::MessageLite"*)* @_ZN6google8protobuf8internal12MapEntryImplIN21segmentation_platform5proto56SegmentationModelMetadata_DiscreteMappingsEntry_DoNotUseENS0_11MessageLiteENSt3__112basic_stringIcNS7_11char_traitsIcEENS7_9allocatorIcEEEENS4_41SegmentationModelMetadata_DiscreteMappingELNS1_14WireFormatLite9FieldTypeE9ELSG_11EE21CheckTypeAndMergeFromERKS6_ to i8*), i8* bitcast (i64 (%"class.google::protobuf::internal::MapEntryImpl"*)* @_ZNK6google8protobuf8internal12MapEntryImplIN21segmentation_platform5proto56SegmentationModelMetadata_DiscreteMappingsEntry_DoNotUseENS0_11MessageLiteENSt3__112basic_stringIcNS7_11char_traitsIcEENS7_9allocatorIcEEEENS4_41SegmentationModelMetadata_DiscreteMappingELNS1_14WireFormatLite9FieldTypeE9ELSG_11EE12ByteSizeLongEv to i8*), i8* bitcast (i32 (%"class.google::protobuf::internal::MapEntryImpl"*)* @_ZNK6google8protobuf8internal12MapEntryImplIN21segmentation_platform5proto56SegmentationModelMetadata_DiscreteMappingsEntry_DoNotUseENS0_11MessageLiteENSt3__112basic_stringIcNS7_11char_traitsIcEENS7_9allocatorIcEEEENS4_41SegmentationModelMetadata_DiscreteMappingELNS1_14WireFormatLite9FieldTypeE9ELSG_11EE13GetCachedSizeEv to i8*), i8* bitcast (i8* (%"class.google::protobuf::internal::MapEntryImpl"*, i8*, %"class.google::protobuf::internal::ParseContext"*)* @_ZN6google8protobuf8internal12MapEntryImplIN21segmentation_platform5proto56SegmentationModelMetadata_DiscreteMappingsEntry_DoNotUseENS0_11MessageLiteENSt3__112basic_stringIcNS7_11char_traitsIcEENS7_9allocatorIcEEEENS4_41SegmentationModelMetadata_DiscreteMappingELNS1_14WireFormatLite9FieldTypeE9ELSG_11EE14_InternalParseEPKcPNS1_12ParseContextE to i8*), i8* bitcast (i8* (%"class.google::protobuf::internal::MapEntryImpl"*, i8*, %"class.google::protobuf::io::EpsCopyOutputStream"*)* @_ZNK6google8protobuf8internal12MapEntryImplIN21segmentation_platform5proto56SegmentationModelMetadata_DiscreteMappingsEntry_DoNotUseENS0_11MessageLiteENSt3__112basic_stringIcNS7_11char_traitsIcEENS7_9allocatorIcEEEENS4_41SegmentationModelMetadata_DiscreteMappingELNS1_14WireFormatLite9FieldTypeE9ELSG_11EE18_InternalSerializeEPhPNS0_2io19EpsCopyOutputStreamE to i8*), i8* bitcast (i8* (%"class.google::protobuf::MessageLite"*)* @_ZNK6google8protobuf11MessageLite16InternalGetTableEv to i8*), i8* bitcast (%"class.std::__1::basic_string"* (%"class.google::protobuf::internal::MapEntryImpl"*)* @_ZNK6google8protobuf8internal12MapEntryImplIN21segmentation_platform5proto56SegmentationModelMetadata_DiscreteMappingsEntry_DoNotUseENS0_11MessageLiteENSt3__112basic_stringIcNS7_11char_traitsIcEENS7_9allocatorIcEEEENS4_41SegmentationModelMetadata_DiscreteMappingELNS1_14WireFormatLite9FieldTypeE9ELSG_11EE3keyEv to i8*), i8* bitcast (%"class.segmentation_platform::proto::SegmentationModelMetadata_DiscreteMapping"* (%"class.google::protobuf::internal::MapEntryImpl"*)* @_ZNK6google8protobuf8internal12MapEntryImplIN21segmentation_platform5proto56SegmentationModelMetadata_DiscreteMappingsEntry_DoNotUseENS0_11MessageLiteENSt3__112basic_stringIcNS7_11char_traitsIcEENS7_9allocatorIcEEEENS4_41SegmentationModelMetadata_DiscreteMappingELNS1_14WireFormatLite9FieldTypeE9ELSG_11EE5valueEv to i8*)] }, comdat, align 8
@_ZTVN21segmentation_platform5proto25SegmentationModelMetadataE = hidden unnamed_addr constant { [16 x i8*] } { [16 x i8*] [i8* null, i8* null, i8* bitcast (void (%"class.segmentation_platform::proto::SegmentationModelMetadata"*)* @_ZN21segmentation_platform5proto25SegmentationModelMetadataD2Ev to i8*), i8* bitcast (void (%"class.segmentation_platform::proto::SegmentationModelMetadata"*)* @_ZN21segmentation_platform5proto25SegmentationModelMetadataD0Ev to i8*), i8* bitcast (void (%"class.std::__1::basic_string"*, %"class.segmentation_platform::proto::SegmentationModelMetadata"*)* @_ZNK21segmentation_platform5proto25SegmentationModelMetadata11GetTypeNameEv to i8*), i8* bitcast (%"class.segmentation_platform::proto::SegmentationModelMetadata"* (%"class.segmentation_platform::proto::SegmentationModelMetadata"*)* @_ZNK21segmentation_platform5proto25SegmentationModelMetadata3NewEv to i8*), i8* bitcast (%"class.segmentation_platform::proto::SegmentationModelMetadata"* (%"class.segmentation_platform::proto::SegmentationModelMetadata"*, %"class.google::protobuf::Arena"*)* @_ZNK21segmentation_platform5proto25SegmentationModelMetadata3NewEPN6google8protobuf5ArenaE to i8*), i8* bitcast (void (%"class.segmentation_platform::proto::SegmentationModelMetadata"*)* @_ZN21segmentation_platform5proto25SegmentationModelMetadata5ClearEv to i8*), i8* bitcast (i1 (%"class.segmentation_platform::proto::SegmentationModelMetadata"*)* @_ZNK21segmentation_platform5proto25SegmentationModelMetadata13IsInitializedEv to i8*), i8* bitcast (void (%"class.std::__1::basic_string"*, %"class.google::protobuf::MessageLite"*)* @_ZNK6google8protobuf11MessageLite25InitializationErrorStringEv to i8*), i8* bitcast (void (%"class.segmentation_platform::proto::SegmentationModelMetadata"*, %"class.google::protobuf::MessageLite"*)* @_ZN21segmentation_platform5proto25SegmentationModelMetadata21CheckTypeAndMergeFromERKN6google8protobuf11MessageLiteE to i8*), i8* bitcast (i64 (%"class.segmentation_platform::proto::SegmentationModelMetadata"*)* @_ZNK21segmentation_platform5proto25SegmentationModelMetadata12ByteSizeLongEv to i8*), i8* bitcast (i32 (%"class.segmentation_platform::proto::SegmentationModelMetadata"*)* @_ZNK21segmentation_platform5proto25SegmentationModelMetadata13GetCachedSizeEv to i8*), i8* bitcast (i8* (%"class.segmentation_platform::proto::SegmentationModelMetadata"*, i8*, %"class.google::protobuf::internal::ParseContext"*)* @_ZN21segmentation_platform5proto25SegmentationModelMetadata14_InternalParseEPKcPN6google8protobuf8internal12ParseContextE to i8*), i8* bitcast (i8* (%"class.segmentation_platform::proto::SegmentationModelMetadata"*, i8*, %"class.google::protobuf::io::EpsCopyOutputStream"*)* @_ZNK21segmentation_platform5proto25SegmentationModelMetadata18_InternalSerializeEPhPN6google8protobuf2io19EpsCopyOutputStreamE to i8*), i8* bitcast (i8* (%"class.google::protobuf::MessageLite"*)* @_ZNK6google8protobuf11MessageLite16InternalGetTableEv to i8*)] }, align 8
@.str.13 = private unnamed_addr constant [54 x i8] c"segmentation_platform.proto.SegmentationModelMetadata\00", align 1
@_ZN6google8protobuf8internal26fixed_address_empty_stringE = external global %"class.google::protobuf::internal::ExplicitlyConstructed.12", align 8
@.str.26 = private unnamed_addr constant [25 x i8] c"size_t to int conversion\00", align 1
@_ZTVN6google8protobuf8internal12MapEntryLiteIN21segmentation_platform5proto56SegmentationModelMetadata_DiscreteMappingsEntry_DoNotUseENSt3__112basic_stringIcNS6_11char_traitsIcEENS6_9allocatorIcEEEENS4_41SegmentationModelMetadata_DiscreteMappingELNS1_14WireFormatLite9FieldTypeE9ELSF_11EEE = linkonce_odr hidden unnamed_addr constant { [18 x i8*] } { [18 x i8*] [i8* null, i8* null, i8* bitcast (void (%"class.google::protobuf::internal::MapEntryLite"*)* @_ZN6google8protobuf8internal12MapEntryLiteIN21segmentation_platform5proto56SegmentationModelMetadata_DiscreteMappingsEntry_DoNotUseENSt3__112basic_stringIcNS6_11char_traitsIcEENS6_9allocatorIcEEEENS4_41SegmentationModelMetadata_DiscreteMappingELNS1_14WireFormatLite9FieldTypeE9ELSF_11EED2Ev to i8*), i8* bitcast (void (%"class.google::protobuf::internal::MapEntryLite"*)* @_ZN6google8protobuf8internal12MapEntryLiteIN21segmentation_platform5proto56SegmentationModelMetadata_DiscreteMappingsEntry_DoNotUseENSt3__112basic_stringIcNS6_11char_traitsIcEENS6_9allocatorIcEEEENS4_41SegmentationModelMetadata_DiscreteMappingELNS1_14WireFormatLite9FieldTypeE9ELSF_11EED0Ev to i8*), i8* bitcast (void (%"class.std::__1::basic_string"*, %"class.google::protobuf::internal::MapEntryImpl"*)* @_ZNK6google8protobuf8internal12MapEntryImplIN21segmentation_platform5proto56SegmentationModelMetadata_DiscreteMappingsEntry_DoNotUseENS0_11MessageLiteENSt3__112basic_stringIcNS7_11char_traitsIcEENS7_9allocatorIcEEEENS4_41SegmentationModelMetadata_DiscreteMappingELNS1_14WireFormatLite9FieldTypeE9ELSG_11EE11GetTypeNameEv to i8*), i8* bitcast (%"class.google::protobuf::MessageLite"* (%"class.google::protobuf::internal::MapEntryImpl"*)* @_ZNK6google8protobuf8internal12MapEntryImplIN21segmentation_platform5proto56SegmentationModelMetadata_DiscreteMappingsEntry_DoNotUseENS0_11MessageLiteENSt3__112basic_stringIcNS7_11char_traitsIcEENS7_9allocatorIcEEEENS4_41SegmentationModelMetadata_DiscreteMappingELNS1_14WireFormatLite9FieldTypeE9ELSG_11EE3NewEv to i8*), i8* bitcast (%"class.google::protobuf::MessageLite"* (%"class.google::protobuf::internal::MapEntryImpl"*, %"class.google::protobuf::Arena"*)* @_ZNK6google8protobuf8internal12MapEntryImplIN21segmentation_platform5proto56SegmentationModelMetadata_DiscreteMappingsEntry_DoNotUseENS0_11MessageLiteENSt3__112basic_stringIcNS7_11char_traitsIcEENS7_9allocatorIcEEEENS4_41SegmentationModelMetadata_DiscreteMappingELNS1_14WireFormatLite9FieldTypeE9ELSG_11EE3NewEPNS0_5ArenaE to i8*), i8* bitcast (void (%"class.google::protobuf::internal::MapEntryImpl"*)* @_ZN6google8protobuf8internal12MapEntryImplIN21segmentation_platform5proto56SegmentationModelMetadata_DiscreteMappingsEntry_DoNotUseENS0_11MessageLiteENSt3__112basic_stringIcNS7_11char_traitsIcEENS7_9allocatorIcEEEENS4_41SegmentationModelMetadata_DiscreteMappingELNS1_14WireFormatLite9FieldTypeE9ELSG_11EE5ClearEv to i8*), i8* bitcast (i1 (%"class.google::protobuf::internal::MapEntryImpl"*)* @_ZNK6google8protobuf8internal12MapEntryImplIN21segmentation_platform5proto56SegmentationModelMetadata_DiscreteMappingsEntry_DoNotUseENS0_11MessageLiteENSt3__112basic_stringIcNS7_11char_traitsIcEENS7_9allocatorIcEEEENS4_41SegmentationModelMetadata_DiscreteMappingELNS1_14WireFormatLite9FieldTypeE9ELSG_11EE13IsInitializedEv to i8*), i8* bitcast (void (%"class.std::__1::basic_string"*, %"class.google::protobuf::MessageLite"*)* @_ZNK6google8protobuf11MessageLite25InitializationErrorStringEv to i8*), i8* bitcast (void (%"class.google::protobuf::internal::MapEntryImpl"*, %"class.google::protobuf::MessageLite"*)* @_ZN6google8protobuf8internal12MapEntryImplIN21segmentation_platform5proto56SegmentationModelMetadata_DiscreteMappingsEntry_DoNotUseENS0_11MessageLiteENSt3__112basic_stringIcNS7_11char_traitsIcEENS7_9allocatorIcEEEENS4_41SegmentationModelMetadata_DiscreteMappingELNS1_14WireFormatLite9FieldTypeE9ELSG_11EE21CheckTypeAndMergeFromERKS6_ to i8*), i8* bitcast (i64 (%"class.google::protobuf::internal::MapEntryImpl"*)* @_ZNK6google8protobuf8internal12MapEntryImplIN21segmentation_platform5proto56SegmentationModelMetadata_DiscreteMappingsEntry_DoNotUseENS0_11MessageLiteENSt3__112basic_stringIcNS7_11char_traitsIcEENS7_9allocatorIcEEEENS4_41SegmentationModelMetadata_DiscreteMappingELNS1_14WireFormatLite9FieldTypeE9ELSG_11EE12ByteSizeLongEv to i8*), i8* bitcast (i32 (%"class.google::protobuf::internal::MapEntryImpl"*)* @_ZNK6google8protobuf8internal12MapEntryImplIN21segmentation_platform5proto56SegmentationModelMetadata_DiscreteMappingsEntry_DoNotUseENS0_11MessageLiteENSt3__112basic_stringIcNS7_11char_traitsIcEENS7_9allocatorIcEEEENS4_41SegmentationModelMetadata_DiscreteMappingELNS1_14WireFormatLite9FieldTypeE9ELSG_11EE13GetCachedSizeEv to i8*), i8* bitcast (i8* (%"class.google::protobuf::internal::MapEntryImpl"*, i8*, %"class.google::protobuf::internal::ParseContext"*)* @_ZN6google8protobuf8internal12MapEntryImplIN21segmentation_platform5proto56SegmentationModelMetadata_DiscreteMappingsEntry_DoNotUseENS0_11MessageLiteENSt3__112basic_stringIcNS7_11char_traitsIcEENS7_9allocatorIcEEEENS4_41SegmentationModelMetadata_DiscreteMappingELNS1_14WireFormatLite9FieldTypeE9ELSG_11EE14_InternalParseEPKcPNS1_12ParseContextE to i8*), i8* bitcast (i8* (%"class.google::protobuf::internal::MapEntryImpl"*, i8*, %"class.google::protobuf::io::EpsCopyOutputStream"*)* @_ZNK6google8protobuf8internal12MapEntryImplIN21segmentation_platform5proto56SegmentationModelMetadata_DiscreteMappingsEntry_DoNotUseENS0_11MessageLiteENSt3__112basic_stringIcNS7_11char_traitsIcEENS7_9allocatorIcEEEENS4_41SegmentationModelMetadata_DiscreteMappingELNS1_14WireFormatLite9FieldTypeE9ELSG_11EE18_InternalSerializeEPhPNS0_2io19EpsCopyOutputStreamE to i8*), i8* bitcast (i8* (%"class.google::protobuf::MessageLite"*)* @_ZNK6google8protobuf11MessageLite16InternalGetTableEv to i8*), i8* bitcast (%"class.std::__1::basic_string"* (%"class.google::protobuf::internal::MapEntryImpl"*)* @_ZNK6google8protobuf8internal12MapEntryImplIN21segmentation_platform5proto56SegmentationModelMetadata_DiscreteMappingsEntry_DoNotUseENS0_11MessageLiteENSt3__112basic_stringIcNS7_11char_traitsIcEENS7_9allocatorIcEEEENS4_41SegmentationModelMetadata_DiscreteMappingELNS1_14WireFormatLite9FieldTypeE9ELSG_11EE3keyEv to i8*), i8* bitcast (%"class.segmentation_platform::proto::SegmentationModelMetadata_DiscreteMapping"* (%"class.google::protobuf::internal::MapEntryImpl"*)* @_ZNK6google8protobuf8internal12MapEntryImplIN21segmentation_platform5proto56SegmentationModelMetadata_DiscreteMappingsEntry_DoNotUseENS0_11MessageLiteENSt3__112basic_stringIcNS7_11char_traitsIcEENS7_9allocatorIcEEEENS4_41SegmentationModelMetadata_DiscreteMappingELNS1_14WireFormatLite9FieldTypeE9ELSG_11EE5valueEv to i8*)] }, comdat, align 8
@_ZTVN6google8protobuf8internal12MapEntryImplIN21segmentation_platform5proto56SegmentationModelMetadata_DiscreteMappingsEntry_DoNotUseENS0_11MessageLiteENSt3__112basic_stringIcNS7_11char_traitsIcEENS7_9allocatorIcEEEENS4_41SegmentationModelMetadata_DiscreteMappingELNS1_14WireFormatLite9FieldTypeE9ELSG_11EEE = linkonce_odr hidden unnamed_addr constant { [18 x i8*] } { [18 x i8*] [i8* null, i8* null, i8* bitcast (void (%"class.google::protobuf::internal::MapEntryImpl"*)* @_ZN6google8protobuf8internal12MapEntryImplIN21segmentation_platform5proto56SegmentationModelMetadata_DiscreteMappingsEntry_DoNotUseENS0_11MessageLiteENSt3__112basic_stringIcNS7_11char_traitsIcEENS7_9allocatorIcEEEENS4_41SegmentationModelMetadata_DiscreteMappingELNS1_14WireFormatLite9FieldTypeE9ELSG_11EED2Ev to i8*), i8* bitcast (void (%"class.google::protobuf::internal::MapEntryImpl"*)* @_ZN6google8protobuf8internal12MapEntryImplIN21segmentation_platform5proto56SegmentationModelMetadata_DiscreteMappingsEntry_DoNotUseENS0_11MessageLiteENSt3__112basic_stringIcNS7_11char_traitsIcEENS7_9allocatorIcEEEENS4_41SegmentationModelMetadata_DiscreteMappingELNS1_14WireFormatLite9FieldTypeE9ELSG_11EED0Ev to i8*), i8* bitcast (void (%"class.std::__1::basic_string"*, %"class.google::protobuf::internal::MapEntryImpl"*)* @_ZNK6google8protobuf8internal12MapEntryImplIN21segmentation_platform5proto56SegmentationModelMetadata_DiscreteMappingsEntry_DoNotUseENS0_11MessageLiteENSt3__112basic_stringIcNS7_11char_traitsIcEENS7_9allocatorIcEEEENS4_41SegmentationModelMetadata_DiscreteMappingELNS1_14WireFormatLite9FieldTypeE9ELSG_11EE11GetTypeNameEv to i8*), i8* bitcast (%"class.google::protobuf::MessageLite"* (%"class.google::protobuf::internal::MapEntryImpl"*)* @_ZNK6google8protobuf8internal12MapEntryImplIN21segmentation_platform5proto56SegmentationModelMetadata_DiscreteMappingsEntry_DoNotUseENS0_11MessageLiteENSt3__112basic_stringIcNS7_11char_traitsIcEENS7_9allocatorIcEEEENS4_41SegmentationModelMetadata_DiscreteMappingELNS1_14WireFormatLite9FieldTypeE9ELSG_11EE3NewEv to i8*), i8* bitcast (%"class.google::protobuf::MessageLite"* (%"class.google::protobuf::internal::MapEntryImpl"*, %"class.google::protobuf::Arena"*)* @_ZNK6google8protobuf8internal12MapEntryImplIN21segmentation_platform5proto56SegmentationModelMetadata_DiscreteMappingsEntry_DoNotUseENS0_11MessageLiteENSt3__112basic_stringIcNS7_11char_traitsIcEENS7_9allocatorIcEEEENS4_41SegmentationModelMetadata_DiscreteMappingELNS1_14WireFormatLite9FieldTypeE9ELSG_11EE3NewEPNS0_5ArenaE to i8*), i8* bitcast (void (%"class.google::protobuf::internal::MapEntryImpl"*)* @_ZN6google8protobuf8internal12MapEntryImplIN21segmentation_platform5proto56SegmentationModelMetadata_DiscreteMappingsEntry_DoNotUseENS0_11MessageLiteENSt3__112basic_stringIcNS7_11char_traitsIcEENS7_9allocatorIcEEEENS4_41SegmentationModelMetadata_DiscreteMappingELNS1_14WireFormatLite9FieldTypeE9ELSG_11EE5ClearEv to i8*), i8* bitcast (i1 (%"class.google::protobuf::internal::MapEntryImpl"*)* @_ZNK6google8protobuf8internal12MapEntryImplIN21segmentation_platform5proto56SegmentationModelMetadata_DiscreteMappingsEntry_DoNotUseENS0_11MessageLiteENSt3__112basic_stringIcNS7_11char_traitsIcEENS7_9allocatorIcEEEENS4_41SegmentationModelMetadata_DiscreteMappingELNS1_14WireFormatLite9FieldTypeE9ELSG_11EE13IsInitializedEv to i8*), i8* bitcast (void (%"class.std::__1::basic_string"*, %"class.google::protobuf::MessageLite"*)* @_ZNK6google8protobuf11MessageLite25InitializationErrorStringEv to i8*), i8* bitcast (void (%"class.google::protobuf::internal::MapEntryImpl"*, %"class.google::protobuf::MessageLite"*)* @_ZN6google8protobuf8internal12MapEntryImplIN21segmentation_platform5proto56SegmentationModelMetadata_DiscreteMappingsEntry_DoNotUseENS0_11MessageLiteENSt3__112basic_stringIcNS7_11char_traitsIcEENS7_9allocatorIcEEEENS4_41SegmentationModelMetadata_DiscreteMappingELNS1_14WireFormatLite9FieldTypeE9ELSG_11EE21CheckTypeAndMergeFromERKS6_ to i8*), i8* bitcast (i64 (%"class.google::protobuf::internal::MapEntryImpl"*)* @_ZNK6google8protobuf8internal12MapEntryImplIN21segmentation_platform5proto56SegmentationModelMetadata_DiscreteMappingsEntry_DoNotUseENS0_11MessageLiteENSt3__112basic_stringIcNS7_11char_traitsIcEENS7_9allocatorIcEEEENS4_41SegmentationModelMetadata_DiscreteMappingELNS1_14WireFormatLite9FieldTypeE9ELSG_11EE12ByteSizeLongEv to i8*), i8* bitcast (i32 (%"class.google::protobuf::internal::MapEntryImpl"*)* @_ZNK6google8protobuf8internal12MapEntryImplIN21segmentation_platform5proto56SegmentationModelMetadata_DiscreteMappingsEntry_DoNotUseENS0_11MessageLiteENSt3__112basic_stringIcNS7_11char_traitsIcEENS7_9allocatorIcEEEENS4_41SegmentationModelMetadata_DiscreteMappingELNS1_14WireFormatLite9FieldTypeE9ELSG_11EE13GetCachedSizeEv to i8*), i8* bitcast (i8* (%"class.google::protobuf::internal::MapEntryImpl"*, i8*, %"class.google::protobuf::internal::ParseContext"*)* @_ZN6google8protobuf8internal12MapEntryImplIN21segmentation_platform5proto56SegmentationModelMetadata_DiscreteMappingsEntry_DoNotUseENS0_11MessageLiteENSt3__112basic_stringIcNS7_11char_traitsIcEENS7_9allocatorIcEEEENS4_41SegmentationModelMetadata_DiscreteMappingELNS1_14WireFormatLite9FieldTypeE9ELSG_11EE14_InternalParseEPKcPNS1_12ParseContextE to i8*), i8* bitcast (i8* (%"class.google::protobuf::internal::MapEntryImpl"*, i8*, %"class.google::protobuf::io::EpsCopyOutputStream"*)* @_ZNK6google8protobuf8internal12MapEntryImplIN21segmentation_platform5proto56SegmentationModelMetadata_DiscreteMappingsEntry_DoNotUseENS0_11MessageLiteENSt3__112basic_stringIcNS7_11char_traitsIcEENS7_9allocatorIcEEEENS4_41SegmentationModelMetadata_DiscreteMappingELNS1_14WireFormatLite9FieldTypeE9ELSG_11EE18_InternalSerializeEPhPNS0_2io19EpsCopyOutputStreamE to i8*), i8* bitcast (i8* (%"class.google::protobuf::MessageLite"*)* @_ZNK6google8protobuf11MessageLite16InternalGetTableEv to i8*), i8* bitcast (%"class.std::__1::basic_string"* (%"class.google::protobuf::internal::MapEntryImpl"*)* @_ZNK6google8protobuf8internal12MapEntryImplIN21segmentation_platform5proto56SegmentationModelMetadata_DiscreteMappingsEntry_DoNotUseENS0_11MessageLiteENSt3__112basic_stringIcNS7_11char_traitsIcEENS7_9allocatorIcEEEENS4_41SegmentationModelMetadata_DiscreteMappingELNS1_14WireFormatLite9FieldTypeE9ELSG_11EE3keyEv to i8*), i8* bitcast (%"class.segmentation_platform::proto::SegmentationModelMetadata_DiscreteMapping"* (%"class.google::protobuf::internal::MapEntryImpl"*)* @_ZNK6google8protobuf8internal12MapEntryImplIN21segmentation_platform5proto56SegmentationModelMetadata_DiscreteMappingsEntry_DoNotUseENS0_11MessageLiteENSt3__112basic_stringIcNS7_11char_traitsIcEENS7_9allocatorIcEEEENS4_41SegmentationModelMetadata_DiscreteMappingELNS1_14WireFormatLite9FieldTypeE9ELSG_11EE5valueEv to i8*)] }, comdat, align 8
@_ZN6google8protobuf8internal17kGlobalEmptyTableE = external constant [1 x i8*], align 8
@llvm.global_ctors = appending global [0 x { i32, void ()*, i8* }] zeroinitializer

@_ZN21segmentation_platform5proto21HistogramValueFeatureC1EPN6google8protobuf5ArenaE = hidden unnamed_addr alias void (%"class.segmentation_platform::proto::HistogramValueFeature"*, %"class.google::protobuf::Arena"*), void (%"class.segmentation_platform::proto::HistogramValueFeature"*, %"class.google::protobuf::Arena"*)* @_ZN21segmentation_platform5proto21HistogramValueFeatureC2EPN6google8protobuf5ArenaE
@_ZN21segmentation_platform5proto21HistogramValueFeatureC1ERKS1_ = hidden unnamed_addr alias void (%"class.segmentation_platform::proto::HistogramValueFeature"*, %"class.segmentation_platform::proto::HistogramValueFeature"*), void (%"class.segmentation_platform::proto::HistogramValueFeature"*, %"class.segmentation_platform::proto::HistogramValueFeature"*)* @_ZN21segmentation_platform5proto21HistogramValueFeatureC2ERKS1_
@_ZN21segmentation_platform5proto21HistogramValueFeatureD1Ev = hidden unnamed_addr alias void (%"class.segmentation_platform::proto::HistogramValueFeature"*), void (%"class.segmentation_platform::proto::HistogramValueFeature"*)* @_ZN21segmentation_platform5proto21HistogramValueFeatureD2Ev
@_ZN21segmentation_platform5proto20HistogramEnumFeatureC1EPN6google8protobuf5ArenaE = hidden unnamed_addr alias void (%"class.segmentation_platform::proto::HistogramEnumFeature"*, %"class.google::protobuf::Arena"*), void (%"class.segmentation_platform::proto::HistogramEnumFeature"*, %"class.google::protobuf::Arena"*)* @_ZN21segmentation_platform5proto20HistogramEnumFeatureC2EPN6google8protobuf5ArenaE
@_ZN21segmentation_platform5proto20HistogramEnumFeatureC1ERKS1_ = hidden unnamed_addr alias void (%"class.segmentation_platform::proto::HistogramEnumFeature"*, %"class.segmentation_platform::proto::HistogramEnumFeature"*), void (%"class.segmentation_platform::proto::HistogramEnumFeature"*, %"class.segmentation_platform::proto::HistogramEnumFeature"*)* @_ZN21segmentation_platform5proto20HistogramEnumFeatureC2ERKS1_
@_ZN21segmentation_platform5proto20HistogramEnumFeatureD1Ev = hidden unnamed_addr alias void (%"class.segmentation_platform::proto::HistogramEnumFeature"*), void (%"class.segmentation_platform::proto::HistogramEnumFeature"*)* @_ZN21segmentation_platform5proto20HistogramEnumFeatureD2Ev
@_ZN21segmentation_platform5proto17UserActionFeatureC1EPN6google8protobuf5ArenaE = hidden unnamed_addr alias void (%"class.segmentation_platform::proto::UserActionFeature"*, %"class.google::protobuf::Arena"*), void (%"class.segmentation_platform::proto::UserActionFeature"*, %"class.google::protobuf::Arena"*)* @_ZN21segmentation_platform5proto17UserActionFeatureC2EPN6google8protobuf5ArenaE
@_ZN21segmentation_platform5proto17UserActionFeatureC1ERKS1_ = hidden unnamed_addr alias void (%"class.segmentation_platform::proto::UserActionFeature"*, %"class.segmentation_platform::proto::UserActionFeature"*), void (%"class.segmentation_platform::proto::UserActionFeature"*, %"class.segmentation_platform::proto::UserActionFeature"*)* @_ZN21segmentation_platform5proto17UserActionFeatureC2ERKS1_
@_ZN21segmentation_platform5proto17UserActionFeatureD1Ev = hidden unnamed_addr alias void (%"class.segmentation_platform::proto::UserActionFeature"*), void (%"class.segmentation_platform::proto::UserActionFeature"*)* @_ZN21segmentation_platform5proto17UserActionFeatureD2Ev
@_ZN21segmentation_platform5proto7FeatureC1EPN6google8protobuf5ArenaE = hidden unnamed_addr alias void (%"class.segmentation_platform::proto::Feature"*, %"class.google::protobuf::Arena"*), void (%"class.segmentation_platform::proto::Feature"*, %"class.google::protobuf::Arena"*)* @_ZN21segmentation_platform5proto7FeatureC2EPN6google8protobuf5ArenaE
@_ZN21segmentation_platform5proto7FeatureC1ERKS1_ = hidden unnamed_addr alias void (%"class.segmentation_platform::proto::Feature"*, %"class.segmentation_platform::proto::Feature"*), void (%"class.segmentation_platform::proto::Feature"*, %"class.segmentation_platform::proto::Feature"*)* @_ZN21segmentation_platform5proto7FeatureC2ERKS1_
@_ZN21segmentation_platform5proto7FeatureD1Ev = hidden unnamed_addr alias void (%"class.segmentation_platform::proto::Feature"*), void (%"class.segmentation_platform::proto::Feature"*)* @_ZN21segmentation_platform5proto7FeatureD2Ev
@_ZN21segmentation_platform5proto47SegmentationModelMetadata_DiscreteMapping_EntryC1EPN6google8protobuf5ArenaE = hidden unnamed_addr alias void (%"class.segmentation_platform::proto::SegmentationModelMetadata_DiscreteMapping_Entry"*, %"class.google::protobuf::Arena"*), void (%"class.segmentation_platform::proto::SegmentationModelMetadata_DiscreteMapping_Entry"*, %"class.google::protobuf::Arena"*)* @_ZN21segmentation_platform5proto47SegmentationModelMetadata_DiscreteMapping_EntryC2EPN6google8protobuf5ArenaE
@_ZN21segmentation_platform5proto47SegmentationModelMetadata_DiscreteMapping_EntryC1ERKS1_ = hidden unnamed_addr alias void (%"class.segmentation_platform::proto::SegmentationModelMetadata_DiscreteMapping_Entry"*, %"class.segmentation_platform::proto::SegmentationModelMetadata_DiscreteMapping_Entry"*), void (%"class.segmentation_platform::proto::SegmentationModelMetadata_DiscreteMapping_Entry"*, %"class.segmentation_platform::proto::SegmentationModelMetadata_DiscreteMapping_Entry"*)* @_ZN21segmentation_platform5proto47SegmentationModelMetadata_DiscreteMapping_EntryC2ERKS1_
@_ZN21segmentation_platform5proto47SegmentationModelMetadata_DiscreteMapping_EntryD1Ev = hidden unnamed_addr alias void (%"class.segmentation_platform::proto::SegmentationModelMetadata_DiscreteMapping_Entry"*), void (%"class.segmentation_platform::proto::SegmentationModelMetadata_DiscreteMapping_Entry"*)* @_ZN21segmentation_platform5proto47SegmentationModelMetadata_DiscreteMapping_EntryD2Ev
@_ZN21segmentation_platform5proto41SegmentationModelMetadata_DiscreteMappingC1EPN6google8protobuf5ArenaE = hidden unnamed_addr alias void (%"class.segmentation_platform::proto::SegmentationModelMetadata_DiscreteMapping"*, %"class.google::protobuf::Arena"*), void (%"class.segmentation_platform::proto::SegmentationModelMetadata_DiscreteMapping"*, %"class.google::protobuf::Arena"*)* @_ZN21segmentation_platform5proto41SegmentationModelMetadata_DiscreteMappingC2EPN6google8protobuf5ArenaE
@_ZN21segmentation_platform5proto41SegmentationModelMetadata_DiscreteMappingC1ERKS1_ = hidden unnamed_addr alias void (%"class.segmentation_platform::proto::SegmentationModelMetadata_DiscreteMapping"*, %"class.segmentation_platform::proto::SegmentationModelMetadata_DiscreteMapping"*), void (%"class.segmentation_platform::proto::SegmentationModelMetadata_DiscreteMapping"*, %"class.segmentation_platform::proto::SegmentationModelMetadata_DiscreteMapping"*)* @_ZN21segmentation_platform5proto41SegmentationModelMetadata_DiscreteMappingC2ERKS1_
@_ZN21segmentation_platform5proto41SegmentationModelMetadata_DiscreteMappingD1Ev = hidden unnamed_addr alias void (%"class.segmentation_platform::proto::SegmentationModelMetadata_DiscreteMapping"*), void (%"class.segmentation_platform::proto::SegmentationModelMetadata_DiscreteMapping"*)* @_ZN21segmentation_platform5proto41SegmentationModelMetadata_DiscreteMappingD2Ev
@_ZN21segmentation_platform5proto56SegmentationModelMetadata_DiscreteMappingsEntry_DoNotUseC1Ev = hidden unnamed_addr alias void (%"class.segmentation_platform::proto::SegmentationModelMetadata_DiscreteMappingsEntry_DoNotUse"*), void (%"class.segmentation_platform::proto::SegmentationModelMetadata_DiscreteMappingsEntry_DoNotUse"*)* @_ZN21segmentation_platform5proto56SegmentationModelMetadata_DiscreteMappingsEntry_DoNotUseC2Ev
@_ZN21segmentation_platform5proto56SegmentationModelMetadata_DiscreteMappingsEntry_DoNotUseC1EPN6google8protobuf5ArenaE = hidden unnamed_addr alias void (%"class.segmentation_platform::proto::SegmentationModelMetadata_DiscreteMappingsEntry_DoNotUse"*, %"class.google::protobuf::Arena"*), void (%"class.segmentation_platform::proto::SegmentationModelMetadata_DiscreteMappingsEntry_DoNotUse"*, %"class.google::protobuf::Arena"*)* @_ZN21segmentation_platform5proto56SegmentationModelMetadata_DiscreteMappingsEntry_DoNotUseC2EPN6google8protobuf5ArenaE
@_ZN21segmentation_platform5proto25SegmentationModelMetadataC1EPN6google8protobuf5ArenaE = hidden unnamed_addr alias void (%"class.segmentation_platform::proto::SegmentationModelMetadata"*, %"class.google::protobuf::Arena"*), void (%"class.segmentation_platform::proto::SegmentationModelMetadata"*, %"class.google::protobuf::Arena"*)* @_ZN21segmentation_platform5proto25SegmentationModelMetadataC2EPN6google8protobuf5ArenaE
@_ZN21segmentation_platform5proto25SegmentationModelMetadataC1ERKS1_ = hidden unnamed_addr alias void (%"class.segmentation_platform::proto::SegmentationModelMetadata"*, %"class.segmentation_platform::proto::SegmentationModelMetadata"*), void (%"class.segmentation_platform::proto::SegmentationModelMetadata"*, %"class.segmentation_platform::proto::SegmentationModelMetadata"*)* @_ZN21segmentation_platform5proto25SegmentationModelMetadataC2ERKS1_
@_ZN21segmentation_platform5proto25SegmentationModelMetadataD1Ev = hidden unnamed_addr alias void (%"class.segmentation_platform::proto::SegmentationModelMetadata"*), void (%"class.segmentation_platform::proto::SegmentationModelMetadata"*)* @_ZN21segmentation_platform5proto25SegmentationModelMetadataD2Ev

; Function Attrs: nounwind ssp uwtable
define internal void @_ZL111InitDefaultsscc_info_Feature_components_2fsegmentation_5fplatform_2finternal_2fproto_2fmodel_5fmetadata_2eprotov() #0 {
  tail call void @_ZN6google8protobuf8internal13VerifyVersionEiiPKc(i32 3013000, i32 3013000, i8* getelementptr inbounds ([73 x i8], [73 x i8]* @.str, i64 0, i64 0)) #17
  store %"class.google::protobuf::Arena"* null, %"class.google::protobuf::Arena"** bitcast (i8* getelementptr inbounds (%"class.segmentation_platform::proto::FeatureDefaultTypeInternal", %"class.segmentation_platform::proto::FeatureDefaultTypeInternal"* @_ZN21segmentation_platform5proto26_Feature_default_instance_E, i64 0, i32 0, i32 0, i32 1, i64 0) to %"class.google::protobuf::Arena"**), align 8
  store i32 (...)** bitcast (i8** getelementptr inbounds ({ [16 x i8*] }, { [16 x i8*] }* @_ZTVN21segmentation_platform5proto7FeatureE, i64 0, inrange i32 0, i64 2) to i32 (...)**), i32 (...)*** bitcast (%"class.segmentation_platform::proto::FeatureDefaultTypeInternal"* @_ZN21segmentation_platform5proto26_Feature_default_instance_E to i32 (...)***), align 8
  store i32 0, i32* bitcast (i8* getelementptr inbounds (%"class.segmentation_platform::proto::FeatureDefaultTypeInternal", %"class.segmentation_platform::proto::FeatureDefaultTypeInternal"* @_ZN21segmentation_platform5proto26_Feature_default_instance_E, i64 0, i32 0, i32 0, i32 1, i64 8) to i32*), align 8
  store i32 0, i32* bitcast (i8* getelementptr inbounds (%"class.segmentation_platform::proto::FeatureDefaultTypeInternal", %"class.segmentation_platform::proto::FeatureDefaultTypeInternal"* @_ZN21segmentation_platform5proto26_Feature_default_instance_E, i64 0, i32 0, i32 0, i32 1, i64 12) to i32*), align 4
  %1 = load atomic i32, i32* getelementptr inbounds ({ { { { i32 } }, i32, i32, void ()* }, [3 x i8*] }, { { { { i32 } }, i32, i32, void ()* }, [3 x i8*] }* @scc_info_Feature_components_2fsegmentation_5fplatform_2finternal_2fproto_2fmodel_5fmetadata_2eproto, i64 0, i32 0, i32 0, i32 0, i32 0) acquire, align 8
  %2 = icmp eq i32 %1, 0
  br i1 %2, label %4, label %3, !prof !2

3:                                                ; preds = %0
  tail call void @_ZN6google8protobuf8internal11InitSCCImplEPNS1_11SCCInfoBaseE(%"struct.google::protobuf::internal::SCCInfoBase"* bitcast ({ { { { i32 } }, i32, i32, void ()* }, [3 x i8*] }* @scc_info_Feature_components_2fsegmentation_5fplatform_2finternal_2fproto_2fmodel_5fmetadata_2eproto to %"struct.google::protobuf::internal::SCCInfoBase"*)) #17
  br label %4

4:                                                ; preds = %0, %3
  tail call void @llvm.memset.p0i8.i64(i8* align 8 getelementptr inbounds (%"class.segmentation_platform::proto::FeatureDefaultTypeInternal", %"class.segmentation_platform::proto::FeatureDefaultTypeInternal"* @_ZN21segmentation_platform5proto26_Feature_default_instance_E, i64 0, i32 0, i32 0, i32 1, i64 16), i8 0, i64 12, i1 false) #17
  store i32 0, i32* bitcast (i8* getelementptr inbounds (%"class.segmentation_platform::proto::FeatureDefaultTypeInternal", %"class.segmentation_platform::proto::FeatureDefaultTypeInternal"* @_ZN21segmentation_platform5proto26_Feature_default_instance_E, i64 0, i32 0, i32 0, i32 1, i64 40) to i32*), align 8
  tail call void @_ZN6google8protobuf8internal13OnShutdownRunEPFvPKvES3_(void (i8*)* nonnull @_ZN6google8protobuf8internal14DestroyMessageEPKv, i8* bitcast (%"class.segmentation_platform::proto::FeatureDefaultTypeInternal"* @_ZN21segmentation_platform5proto26_Feature_default_instance_E to i8*)) #17
  ret void
}

; Function Attrs: nounwind ssp uwtable
define internal void @_ZL124InitDefaultsscc_info_HistogramEnumFeature_components_2fsegmentation_5fplatform_2finternal_2fproto_2fmodel_5fmetadata_2eprotov() #0 {
  tail call void @_ZN6google8protobuf8internal13VerifyVersionEiiPKc(i32 3013000, i32 3013000, i8* getelementptr inbounds ([73 x i8], [73 x i8]* @.str, i64 0, i64 0)) #17
  store %"class.google::protobuf::Arena"* null, %"class.google::protobuf::Arena"** bitcast (i8* getelementptr inbounds (%"class.segmentation_platform::proto::HistogramEnumFeatureDefaultTypeInternal", %"class.segmentation_platform::proto::HistogramEnumFeatureDefaultTypeInternal"* @_ZN21segmentation_platform5proto39_HistogramEnumFeature_default_instance_E, i64 0, i32 0, i32 0, i32 1, i64 0) to %"class.google::protobuf::Arena"**), align 8
  store i32 (...)** bitcast (i8** getelementptr inbounds ({ [16 x i8*] }, { [16 x i8*] }* @_ZTVN21segmentation_platform5proto20HistogramEnumFeatureE, i64 0, inrange i32 0, i64 2) to i32 (...)**), i32 (...)*** bitcast (%"class.segmentation_platform::proto::HistogramEnumFeatureDefaultTypeInternal"* @_ZN21segmentation_platform5proto39_HistogramEnumFeature_default_instance_E to i32 (...)***), align 8
  tail call void @llvm.memset.p0i8.i64(i8* align 8 getelementptr inbounds (%"class.segmentation_platform::proto::HistogramEnumFeatureDefaultTypeInternal", %"class.segmentation_platform::proto::HistogramEnumFeatureDefaultTypeInternal"* @_ZN21segmentation_platform5proto39_HistogramEnumFeature_default_instance_E, i64 0, i32 0, i32 0, i32 1, i64 8), i8 0, i64 24, i1 false) #17
  %1 = load atomic i32, i32* getelementptr inbounds ({ { { { i32 } }, i32, i32, void ()* }, [0 x i8*] }, { { { { i32 } }, i32, i32, void ()* }, [0 x i8*] }* @scc_info_HistogramEnumFeature_components_2fsegmentation_5fplatform_2finternal_2fproto_2fmodel_5fmetadata_2eproto, i64 0, i32 0, i32 0, i32 0, i32 0) acquire, align 8
  %2 = icmp eq i32 %1, 0
  br i1 %2, label %4, label %3, !prof !2

3:                                                ; preds = %0
  tail call void @_ZN6google8protobuf8internal11InitSCCImplEPNS1_11SCCInfoBaseE(%"struct.google::protobuf::internal::SCCInfoBase"* bitcast ({ { { { i32 } }, i32, i32, void ()* }, [0 x i8*] }* @scc_info_HistogramEnumFeature_components_2fsegmentation_5fplatform_2finternal_2fproto_2fmodel_5fmetadata_2eproto to %"struct.google::protobuf::internal::SCCInfoBase"*)) #17
  br label %4

4:                                                ; preds = %0, %3
  store %"class.std::__1::basic_string"* bitcast (%"class.google::protobuf::internal::ExplicitlyConstructed.12"* @_ZN6google8protobuf8internal26fixed_address_empty_stringE to %"class.std::__1::basic_string"*), %"class.std::__1::basic_string"** bitcast (i8* getelementptr inbounds (%"class.segmentation_platform::proto::HistogramEnumFeatureDefaultTypeInternal", %"class.segmentation_platform::proto::HistogramEnumFeatureDefaultTypeInternal"* @_ZN21segmentation_platform5proto39_HistogramEnumFeature_default_instance_E, i64 0, i32 0, i32 0, i32 1, i64 32) to %"class.std::__1::basic_string"**), align 8
  store i64 0, i64* bitcast (i8* getelementptr inbounds (%"class.segmentation_platform::proto::HistogramEnumFeatureDefaultTypeInternal", %"class.segmentation_platform::proto::HistogramEnumFeatureDefaultTypeInternal"* @_ZN21segmentation_platform5proto39_HistogramEnumFeature_default_instance_E, i64 0, i32 0, i32 0, i32 1, i64 40) to i64*), align 8
  tail call void @_ZN6google8protobuf8internal13OnShutdownRunEPFvPKvES3_(void (i8*)* nonnull @_ZN6google8protobuf8internal14DestroyMessageEPKv, i8* bitcast (%"class.segmentation_platform::proto::HistogramEnumFeatureDefaultTypeInternal"* @_ZN21segmentation_platform5proto39_HistogramEnumFeature_default_instance_E to i8*)) #17
  ret void
}

; Function Attrs: nounwind ssp uwtable
define internal void @_ZL125InitDefaultsscc_info_HistogramValueFeature_components_2fsegmentation_5fplatform_2finternal_2fproto_2fmodel_5fmetadata_2eprotov() #0 {
  tail call void @_ZN6google8protobuf8internal13VerifyVersionEiiPKc(i32 3013000, i32 3013000, i8* getelementptr inbounds ([73 x i8], [73 x i8]* @.str, i64 0, i64 0)) #17
  store %"class.google::protobuf::Arena"* null, %"class.google::protobuf::Arena"** bitcast (i8* getelementptr inbounds (%"class.segmentation_platform::proto::HistogramValueFeatureDefaultTypeInternal", %"class.segmentation_platform::proto::HistogramValueFeatureDefaultTypeInternal"* @_ZN21segmentation_platform5proto40_HistogramValueFeature_default_instance_E, i64 0, i32 0, i32 0, i32 1, i64 0) to %"class.google::protobuf::Arena"**), align 8
  store i32 (...)** bitcast (i8** getelementptr inbounds ({ [16 x i8*] }, { [16 x i8*] }* @_ZTVN21segmentation_platform5proto21HistogramValueFeatureE, i64 0, inrange i32 0, i64 2) to i32 (...)**), i32 (...)*** bitcast (%"class.segmentation_platform::proto::HistogramValueFeatureDefaultTypeInternal"* @_ZN21segmentation_platform5proto40_HistogramValueFeature_default_instance_E to i32 (...)***), align 8
  store i32 0, i32* bitcast (i8* getelementptr inbounds (%"class.segmentation_platform::proto::HistogramValueFeatureDefaultTypeInternal", %"class.segmentation_platform::proto::HistogramValueFeatureDefaultTypeInternal"* @_ZN21segmentation_platform5proto40_HistogramValueFeature_default_instance_E, i64 0, i32 0, i32 0, i32 1, i64 8) to i32*), align 8
  store i32 0, i32* bitcast (i8* getelementptr inbounds (%"class.segmentation_platform::proto::HistogramValueFeatureDefaultTypeInternal", %"class.segmentation_platform::proto::HistogramValueFeatureDefaultTypeInternal"* @_ZN21segmentation_platform5proto40_HistogramValueFeature_default_instance_E, i64 0, i32 0, i32 0, i32 1, i64 12) to i32*), align 4
  %1 = load atomic i32, i32* getelementptr inbounds ({ { { { i32 } }, i32, i32, void ()* }, [0 x i8*] }, { { { { i32 } }, i32, i32, void ()* }, [0 x i8*] }* @scc_info_HistogramValueFeature_components_2fsegmentation_5fplatform_2finternal_2fproto_2fmodel_5fmetadata_2eproto, i64 0, i32 0, i32 0, i32 0, i32 0) acquire, align 8
  %2 = icmp eq i32 %1, 0
  br i1 %2, label %4, label %3, !prof !2

3:                                                ; preds = %0
  tail call void @_ZN6google8protobuf8internal11InitSCCImplEPNS1_11SCCInfoBaseE(%"struct.google::protobuf::internal::SCCInfoBase"* bitcast ({ { { { i32 } }, i32, i32, void ()* }, [0 x i8*] }* @scc_info_HistogramValueFeature_components_2fsegmentation_5fplatform_2finternal_2fproto_2fmodel_5fmetadata_2eproto to %"struct.google::protobuf::internal::SCCInfoBase"*)) #17
  br label %4

4:                                                ; preds = %0, %3
  store %"class.std::__1::basic_string"* bitcast (%"class.google::protobuf::internal::ExplicitlyConstructed.12"* @_ZN6google8protobuf8internal26fixed_address_empty_stringE to %"class.std::__1::basic_string"*), %"class.std::__1::basic_string"** bitcast (i8* getelementptr inbounds (%"class.segmentation_platform::proto::HistogramValueFeatureDefaultTypeInternal", %"class.segmentation_platform::proto::HistogramValueFeatureDefaultTypeInternal"* @_ZN21segmentation_platform5proto40_HistogramValueFeature_default_instance_E, i64 0, i32 0, i32 0, i32 1, i64 16) to %"class.std::__1::basic_string"**), align 8
  store i64 0, i64* bitcast (i8* getelementptr inbounds (%"class.segmentation_platform::proto::HistogramValueFeatureDefaultTypeInternal", %"class.segmentation_platform::proto::HistogramValueFeatureDefaultTypeInternal"* @_ZN21segmentation_platform5proto40_HistogramValueFeature_default_instance_E, i64 0, i32 0, i32 0, i32 1, i64 24) to i64*), align 8
  tail call void @_ZN6google8protobuf8internal13OnShutdownRunEPFvPKvES3_(void (i8*)* nonnull @_ZN6google8protobuf8internal14DestroyMessageEPKv, i8* bitcast (%"class.segmentation_platform::proto::HistogramValueFeatureDefaultTypeInternal"* @_ZN21segmentation_platform5proto40_HistogramValueFeature_default_instance_E to i8*)) #17
  ret void
}

; Function Attrs: nounwind ssp uwtable
define internal void @_ZL129InitDefaultsscc_info_SegmentationModelMetadata_components_2fsegmentation_5fplatform_2finternal_2fproto_2fmodel_5fmetadata_2eprotov() #0 {
  tail call void @_ZN6google8protobuf8internal13VerifyVersionEiiPKc(i32 3013000, i32 3013000, i8* getelementptr inbounds ([73 x i8], [73 x i8]* @.str, i64 0, i64 0)) #17
  store %"class.google::protobuf::Arena"* null, %"class.google::protobuf::Arena"** bitcast (i8* getelementptr inbounds (%"class.segmentation_platform::proto::SegmentationModelMetadataDefaultTypeInternal", %"class.segmentation_platform::proto::SegmentationModelMetadataDefaultTypeInternal"* @_ZN21segmentation_platform5proto44_SegmentationModelMetadata_default_instance_E, i64 0, i32 0, i32 0, i32 1, i64 0) to %"class.google::protobuf::Arena"**), align 8
  store i32 (...)** bitcast (i8** getelementptr inbounds ({ [16 x i8*] }, { [16 x i8*] }* @_ZTVN21segmentation_platform5proto25SegmentationModelMetadataE, i64 0, inrange i32 0, i64 2) to i32 (...)**), i32 (...)*** bitcast (%"class.segmentation_platform::proto::SegmentationModelMetadataDefaultTypeInternal"* @_ZN21segmentation_platform5proto44_SegmentationModelMetadata_default_instance_E to i32 (...)***), align 8
  tail call void @llvm.memset.p0i8.i64(i8* align 8 getelementptr inbounds (%"class.segmentation_platform::proto::SegmentationModelMetadataDefaultTypeInternal", %"class.segmentation_platform::proto::SegmentationModelMetadataDefaultTypeInternal"* @_ZN21segmentation_platform5proto44_SegmentationModelMetadata_default_instance_E, i64 0, i32 0, i32 0, i32 1, i64 8), i8 0, i64 40, i1 false) #17
  store i64 1, i64* bitcast (i8* getelementptr inbounds (%"class.segmentation_platform::proto::SegmentationModelMetadataDefaultTypeInternal", %"class.segmentation_platform::proto::SegmentationModelMetadataDefaultTypeInternal"* @_ZN21segmentation_platform5proto44_SegmentationModelMetadata_default_instance_E, i64 0, i32 0, i32 0, i32 1, i64 48) to i64*), align 8
  %1 = tail call { i32, i32 } asm sideeffect "rdtsc", "={ax},={dx},~{dirflag},~{fpsr},~{flags}"() #17, !srcloc !3
  %2 = extractvalue { i32, i32 } %1, 0
  %3 = extractvalue { i32, i32 } %1, 1
  %4 = zext i32 %3 to i64
  %5 = shl nuw i64 %4, 32
  %6 = zext i32 %2 to i64
  %7 = or i64 %5, %6
  %8 = add i64 %7, lshr (i64 ptrtoint (i8* getelementptr inbounds (%"class.segmentation_platform::proto::SegmentationModelMetadataDefaultTypeInternal", %"class.segmentation_platform::proto::SegmentationModelMetadataDefaultTypeInternal"* @_ZN21segmentation_platform5proto44_SegmentationModelMetadata_default_instance_E, i64 0, i32 0, i32 0, i32 1, i64 40) to i64), i64 12)
  store i64 %8, i64* bitcast (i8* getelementptr inbounds (%"class.segmentation_platform::proto::SegmentationModelMetadataDefaultTypeInternal", %"class.segmentation_platform::proto::SegmentationModelMetadataDefaultTypeInternal"* @_ZN21segmentation_platform5proto44_SegmentationModelMetadata_default_instance_E, i64 0, i32 0, i32 0, i32 1, i64 56) to i64*), align 8
  %9 = load i64, i64* bitcast (i8* getelementptr inbounds (%"class.segmentation_platform::proto::SegmentationModelMetadataDefaultTypeInternal", %"class.segmentation_platform::proto::SegmentationModelMetadataDefaultTypeInternal"* @_ZN21segmentation_platform5proto44_SegmentationModelMetadata_default_instance_E, i64 0, i32 0, i32 0, i32 1, i64 48) to i64*), align 8
  store i64 %9, i64* bitcast (i8* getelementptr inbounds (%"class.segmentation_platform::proto::SegmentationModelMetadataDefaultTypeInternal", %"class.segmentation_platform::proto::SegmentationModelMetadataDefaultTypeInternal"* @_ZN21segmentation_platform5proto44_SegmentationModelMetadata_default_instance_E, i64 0, i32 0, i32 0, i32 1, i64 64) to i64*), align 8
  store i8** getelementptr inbounds ([1 x i8*], [1 x i8*]* @_ZN6google8protobuf8internal17kGlobalEmptyTableE, i64 0, i64 0), i8*** bitcast (i8* getelementptr inbounds (%"class.segmentation_platform::proto::SegmentationModelMetadataDefaultTypeInternal", %"class.segmentation_platform::proto::SegmentationModelMetadataDefaultTypeInternal"* @_ZN21segmentation_platform5proto44_SegmentationModelMetadata_default_instance_E, i64 0, i32 0, i32 0, i32 1, i64 72) to i8***), align 8
  store %"class.google::protobuf::Arena"* null, %"class.google::protobuf::Arena"** bitcast (i8* getelementptr inbounds (%"class.segmentation_platform::proto::SegmentationModelMetadataDefaultTypeInternal", %"class.segmentation_platform::proto::SegmentationModelMetadataDefaultTypeInternal"* @_ZN21segmentation_platform5proto44_SegmentationModelMetadata_default_instance_E, i64 0, i32 0, i32 0, i32 1, i64 80) to %"class.google::protobuf::Arena"**), align 8
  %10 = load atomic i32, i32* getelementptr inbounds ({ { { { i32 } }, i32, i32, void ()* }, [2 x i8*] }, { { { { i32 } }, i32, i32, void ()* }, [2 x i8*] }* @scc_info_SegmentationModelMetadata_components_2fsegmentation_5fplatform_2finternal_2fproto_2fmodel_5fmetadata_2eproto, i64 0, i32 0, i32 0, i32 0, i32 0) acquire, align 8
  %11 = icmp eq i32 %10, 0
  br i1 %11, label %13, label %12, !prof !2

12:                                               ; preds = %0
  tail call void @_ZN6google8protobuf8internal11InitSCCImplEPNS1_11SCCInfoBaseE(%"struct.google::protobuf::internal::SCCInfoBase"* bitcast ({ { { { i32 } }, i32, i32, void ()* }, [2 x i8*] }* @scc_info_SegmentationModelMetadata_components_2fsegmentation_5fplatform_2finternal_2fproto_2fmodel_5fmetadata_2eproto to %"struct.google::protobuf::internal::SCCInfoBase"*)) #17
  br label %13

13:                                               ; preds = %0, %12
  store %"class.std::__1::basic_string"* bitcast (%"class.google::protobuf::internal::ExplicitlyConstructed.12"* @_ZN6google8protobuf8internal26fixed_address_empty_stringE to %"class.std::__1::basic_string"*), %"class.std::__1::basic_string"** bitcast (i8* getelementptr inbounds (%"class.segmentation_platform::proto::SegmentationModelMetadataDefaultTypeInternal", %"class.segmentation_platform::proto::SegmentationModelMetadataDefaultTypeInternal"* @_ZN21segmentation_platform5proto44_SegmentationModelMetadata_default_instance_E, i64 0, i32 0, i32 0, i32 1, i64 88) to %"class.std::__1::basic_string"**), align 8
  store i32 4, i32* bitcast (i8* getelementptr inbounds (%"class.segmentation_platform::proto::SegmentationModelMetadataDefaultTypeInternal", %"class.segmentation_platform::proto::SegmentationModelMetadataDefaultTypeInternal"* @_ZN21segmentation_platform5proto44_SegmentationModelMetadata_default_instance_E, i64 0, i32 0, i32 0, i32 1, i64 96) to i32*), align 8
  store <2 x i64> <i64 1, i64 28>, <2 x i64>* bitcast (i8* getelementptr inbounds (%"class.segmentation_platform::proto::SegmentationModelMetadataDefaultTypeInternal", %"class.segmentation_platform::proto::SegmentationModelMetadataDefaultTypeInternal"* @_ZN21segmentation_platform5proto44_SegmentationModelMetadata_default_instance_E, i64 0, i32 0, i32 0, i32 1, i64 104) to <2 x i64>*), align 8
  store <2 x i64> <i64 28, i64 7>, <2 x i64>* bitcast (i8* getelementptr inbounds (%"class.segmentation_platform::proto::SegmentationModelMetadataDefaultTypeInternal", %"class.segmentation_platform::proto::SegmentationModelMetadataDefaultTypeInternal"* @_ZN21segmentation_platform5proto44_SegmentationModelMetadata_default_instance_E, i64 0, i32 0, i32 0, i32 1, i64 120) to <2 x i64>*), align 8
  tail call void @_ZN6google8protobuf8internal13OnShutdownRunEPFvPKvES3_(void (i8*)* nonnull @_ZN6google8protobuf8internal14DestroyMessageEPKv, i8* bitcast (%"class.segmentation_platform::proto::SegmentationModelMetadataDefaultTypeInternal"* @_ZN21segmentation_platform5proto44_SegmentationModelMetadata_default_instance_E to i8*)) #17
  ret void
}

; Function Attrs: nounwind ssp uwtable
define internal void @_ZL145InitDefaultsscc_info_SegmentationModelMetadata_DiscreteMapping_components_2fsegmentation_5fplatform_2finternal_2fproto_2fmodel_5fmetadata_2eprotov() #0 {
  tail call void @_ZN6google8protobuf8internal13VerifyVersionEiiPKc(i32 3013000, i32 3013000, i8* getelementptr inbounds ([73 x i8], [73 x i8]* @.str, i64 0, i64 0)) #17
  store %"class.google::protobuf::Arena"* null, %"class.google::protobuf::Arena"** bitcast (i8* getelementptr inbounds (%"class.segmentation_platform::proto::SegmentationModelMetadata_DiscreteMappingDefaultTypeInternal", %"class.segmentation_platform::proto::SegmentationModelMetadata_DiscreteMappingDefaultTypeInternal"* @_ZN21segmentation_platform5proto60_SegmentationModelMetadata_DiscreteMapping_default_instance_E, i64 0, i32 0, i32 0, i32 1, i64 0) to %"class.google::protobuf::Arena"**), align 8
  store i32 (...)** bitcast (i8** getelementptr inbounds ({ [16 x i8*] }, { [16 x i8*] }* @_ZTVN21segmentation_platform5proto41SegmentationModelMetadata_DiscreteMappingE, i64 0, inrange i32 0, i64 2) to i32 (...)**), i32 (...)*** bitcast (%"class.segmentation_platform::proto::SegmentationModelMetadata_DiscreteMappingDefaultTypeInternal"* @_ZN21segmentation_platform5proto60_SegmentationModelMetadata_DiscreteMapping_default_instance_E to i32 (...)***), align 8
  tail call void @llvm.memset.p0i8.i64(i8* align 8 getelementptr inbounds (%"class.segmentation_platform::proto::SegmentationModelMetadata_DiscreteMappingDefaultTypeInternal", %"class.segmentation_platform::proto::SegmentationModelMetadata_DiscreteMappingDefaultTypeInternal"* @_ZN21segmentation_platform5proto60_SegmentationModelMetadata_DiscreteMapping_default_instance_E, i64 0, i32 0, i32 0, i32 1, i64 8), i8 0, i64 28, i1 false) #17
  %1 = load atomic i32, i32* getelementptr inbounds ({ { { { i32 } }, i32, i32, void ()* }, [1 x i8*] }, { { { { i32 } }, i32, i32, void ()* }, [1 x i8*] }* @scc_info_SegmentationModelMetadata_DiscreteMapping_components_2fsegmentation_5fplatform_2finternal_2fproto_2fmodel_5fmetadata_2eproto, i64 0, i32 0, i32 0, i32 0, i32 0) acquire, align 8
  %2 = icmp eq i32 %1, 0
  br i1 %2, label %4, label %3, !prof !2

3:                                                ; preds = %0
  tail call void @_ZN6google8protobuf8internal11InitSCCImplEPNS1_11SCCInfoBaseE(%"struct.google::protobuf::internal::SCCInfoBase"* bitcast ({ { { { i32 } }, i32, i32, void ()* }, [1 x i8*] }* @scc_info_SegmentationModelMetadata_DiscreteMapping_components_2fsegmentation_5fplatform_2finternal_2fproto_2fmodel_5fmetadata_2eproto to %"struct.google::protobuf::internal::SCCInfoBase"*)) #17
  br label %4

4:                                                ; preds = %0, %3
  tail call void @_ZN6google8protobuf8internal13OnShutdownRunEPFvPKvES3_(void (i8*)* nonnull @_ZN6google8protobuf8internal14DestroyMessageEPKv, i8* bitcast (%"class.segmentation_platform::proto::SegmentationModelMetadata_DiscreteMappingDefaultTypeInternal"* @_ZN21segmentation_platform5proto60_SegmentationModelMetadata_DiscreteMapping_default_instance_E to i8*)) #17
  ret void
}

; Function Attrs: nounwind ssp uwtable
define internal void @_ZL151InitDefaultsscc_info_SegmentationModelMetadata_DiscreteMapping_Entry_components_2fsegmentation_5fplatform_2finternal_2fproto_2fmodel_5fmetadata_2eprotov() #0 {
  tail call void @_ZN6google8protobuf8internal13VerifyVersionEiiPKc(i32 3013000, i32 3013000, i8* getelementptr inbounds ([73 x i8], [73 x i8]* @.str, i64 0, i64 0)) #17
  store %"class.google::protobuf::Arena"* null, %"class.google::protobuf::Arena"** bitcast (i8* getelementptr inbounds (%"class.segmentation_platform::proto::SegmentationModelMetadata_DiscreteMapping_EntryDefaultTypeInternal", %"class.segmentation_platform::proto::SegmentationModelMetadata_DiscreteMapping_EntryDefaultTypeInternal"* @_ZN21segmentation_platform5proto66_SegmentationModelMetadata_DiscreteMapping_Entry_default_instance_E, i64 0, i32 0, i32 0, i32 1, i64 0) to %"class.google::protobuf::Arena"**), align 8
  store i32 (...)** bitcast (i8** getelementptr inbounds ({ [16 x i8*] }, { [16 x i8*] }* @_ZTVN21segmentation_platform5proto47SegmentationModelMetadata_DiscreteMapping_EntryE, i64 0, inrange i32 0, i64 2) to i32 (...)**), i32 (...)*** bitcast (%"class.segmentation_platform::proto::SegmentationModelMetadata_DiscreteMapping_EntryDefaultTypeInternal"* @_ZN21segmentation_platform5proto66_SegmentationModelMetadata_DiscreteMapping_Entry_default_instance_E to i32 (...)***), align 8
  tail call void @llvm.memset.p0i8.i64(i8* align 8 getelementptr inbounds (%"class.segmentation_platform::proto::SegmentationModelMetadata_DiscreteMapping_EntryDefaultTypeInternal", %"class.segmentation_platform::proto::SegmentationModelMetadata_DiscreteMapping_EntryDefaultTypeInternal"* @_ZN21segmentation_platform5proto66_SegmentationModelMetadata_DiscreteMapping_Entry_default_instance_E, i64 0, i32 0, i32 0, i32 1, i64 8), i8 0, i64 20, i1 false) #17
  tail call void @_ZN6google8protobuf8internal13OnShutdownRunEPFvPKvES3_(void (i8*)* nonnull @_ZN6google8protobuf8internal14DestroyMessageEPKv, i8* bitcast (%"class.segmentation_platform::proto::SegmentationModelMetadata_DiscreteMapping_EntryDefaultTypeInternal"* @_ZN21segmentation_platform5proto66_SegmentationModelMetadata_DiscreteMapping_Entry_default_instance_E to i8*)) #17
  ret void
}

; Function Attrs: nounwind ssp uwtable
define internal void @_ZL160InitDefaultsscc_info_SegmentationModelMetadata_DiscreteMappingsEntry_DoNotUse_components_2fsegmentation_5fplatform_2finternal_2fproto_2fmodel_5fmetadata_2eprotov() #0 {
  tail call void @_ZN6google8protobuf8internal13VerifyVersionEiiPKc(i32 3013000, i32 3013000, i8* getelementptr inbounds ([73 x i8], [73 x i8]* @.str, i64 0, i64 0)) #17
  store i8* null, i8** bitcast (i8* getelementptr inbounds (%"class.segmentation_platform::proto::SegmentationModelMetadata_DiscreteMappingsEntry_DoNotUseDefaultTypeInternal", %"class.segmentation_platform::proto::SegmentationModelMetadata_DiscreteMappingsEntry_DoNotUseDefaultTypeInternal"* @_ZN21segmentation_platform5proto75_SegmentationModelMetadata_DiscreteMappingsEntry_DoNotUse_default_instance_E, i64 0, i32 0, i32 0, i32 1, i64 0) to i8**), align 8
  store %"class.std::__1::basic_string"* bitcast (%"class.google::protobuf::internal::ExplicitlyConstructed.12"* @_ZN6google8protobuf8internal26fixed_address_empty_stringE to %"class.std::__1::basic_string"*), %"class.std::__1::basic_string"** bitcast (i8* getelementptr inbounds (%"class.segmentation_platform::proto::SegmentationModelMetadata_DiscreteMappingsEntry_DoNotUseDefaultTypeInternal", %"class.segmentation_platform::proto::SegmentationModelMetadata_DiscreteMappingsEntry_DoNotUseDefaultTypeInternal"* @_ZN21segmentation_platform5proto75_SegmentationModelMetadata_DiscreteMappingsEntry_DoNotUse_default_instance_E, i64 0, i32 0, i32 0, i32 1, i64 8) to %"class.std::__1::basic_string"**), align 8
  store %"class.segmentation_platform::proto::SegmentationModelMetadata_DiscreteMapping"* null, %"class.segmentation_platform::proto::SegmentationModelMetadata_DiscreteMapping"** bitcast (i8* getelementptr inbounds (%"class.segmentation_platform::proto::SegmentationModelMetadata_DiscreteMappingsEntry_DoNotUseDefaultTypeInternal", %"class.segmentation_platform::proto::SegmentationModelMetadata_DiscreteMappingsEntry_DoNotUseDefaultTypeInternal"* @_ZN21segmentation_platform5proto75_SegmentationModelMetadata_DiscreteMappingsEntry_DoNotUse_default_instance_E, i64 0, i32 0, i32 0, i32 1, i64 16) to %"class.segmentation_platform::proto::SegmentationModelMetadata_DiscreteMapping"**), align 8
  store i32 0, i32* bitcast (i8* getelementptr inbounds (%"class.segmentation_platform::proto::SegmentationModelMetadata_DiscreteMappingsEntry_DoNotUseDefaultTypeInternal", %"class.segmentation_platform::proto::SegmentationModelMetadata_DiscreteMappingsEntry_DoNotUseDefaultTypeInternal"* @_ZN21segmentation_platform5proto75_SegmentationModelMetadata_DiscreteMappingsEntry_DoNotUse_default_instance_E, i64 0, i32 0, i32 0, i32 1, i64 24) to i32*), align 8
  store i32 (...)** bitcast (i8** getelementptr inbounds ({ [18 x i8*] }, { [18 x i8*] }* @_ZTVN21segmentation_platform5proto56SegmentationModelMetadata_DiscreteMappingsEntry_DoNotUseE, i64 0, inrange i32 0, i64 2) to i32 (...)**), i32 (...)*** bitcast (%"class.segmentation_platform::proto::SegmentationModelMetadata_DiscreteMappingsEntry_DoNotUseDefaultTypeInternal"* @_ZN21segmentation_platform5proto75_SegmentationModelMetadata_DiscreteMappingsEntry_DoNotUse_default_instance_E to i32 (...)***), align 8
  ret void
}

; Function Attrs: nounwind ssp uwtable
define internal void @_ZL121InitDefaultsscc_info_UserActionFeature_components_2fsegmentation_5fplatform_2finternal_2fproto_2fmodel_5fmetadata_2eprotov() #0 {
  tail call void @_ZN6google8protobuf8internal13VerifyVersionEiiPKc(i32 3013000, i32 3013000, i8* getelementptr inbounds ([73 x i8], [73 x i8]* @.str, i64 0, i64 0)) #17
  store %"class.google::protobuf::Arena"* null, %"class.google::protobuf::Arena"** bitcast (i8* getelementptr inbounds (%"class.segmentation_platform::proto::UserActionFeatureDefaultTypeInternal", %"class.segmentation_platform::proto::UserActionFeatureDefaultTypeInternal"* @_ZN21segmentation_platform5proto36_UserActionFeature_default_instance_E, i64 0, i32 0, i32 0, i32 1, i64 0) to %"class.google::protobuf::Arena"**), align 8
  store i32 (...)** bitcast (i8** getelementptr inbounds ({ [16 x i8*] }, { [16 x i8*] }* @_ZTVN21segmentation_platform5proto17UserActionFeatureE, i64 0, inrange i32 0, i64 2) to i32 (...)**), i32 (...)*** bitcast (%"class.segmentation_platform::proto::UserActionFeatureDefaultTypeInternal"* @_ZN21segmentation_platform5proto36_UserActionFeature_default_instance_E to i32 (...)***), align 8
  tail call void @llvm.memset.p0i8.i64(i8* align 8 getelementptr inbounds (%"class.segmentation_platform::proto::UserActionFeatureDefaultTypeInternal", %"class.segmentation_platform::proto::UserActionFeatureDefaultTypeInternal"* @_ZN21segmentation_platform5proto36_UserActionFeature_default_instance_E, i64 0, i32 0, i32 0, i32 1, i64 8), i8 0, i64 16, i1 false) #17
  tail call void @_ZN6google8protobuf8internal13OnShutdownRunEPFvPKvES3_(void (i8*)* nonnull @_ZN6google8protobuf8internal14DestroyMessageEPKv, i8* bitcast (%"class.segmentation_platform::proto::UserActionFeatureDefaultTypeInternal"* @_ZN21segmentation_platform5proto36_UserActionFeature_default_instance_E to i8*)) #17
  ret void
}

; Function Attrs: norecurse nounwind readnone ssp uwtable
define hidden zeroext i1 @_ZN21segmentation_platform5proto16TimeUnit_IsValidEi(i32) local_unnamed_addr #1 {
  %2 = icmp ult i32 %0, 8
  ret i1 %2
}

; Function Attrs: argmemonly nounwind
declare {}* @llvm.invariant.start.p0i8(i64 immarg, i8* nocapture) #2

; Function Attrs: nounwind ssp uwtable
define hidden dereferenceable(24) %"class.std::__1::basic_string"* @_ZN21segmentation_platform5proto13TimeUnit_NameENS0_8TimeUnitE(i32) local_unnamed_addr #0 {
  %2 = load atomic i8, i8* bitcast (i64* @_ZGVZN21segmentation_platform5proto13TimeUnit_NameENS0_8TimeUnitEE5dummy to i8*) acquire, align 8
  %3 = icmp eq i8 %2, 0
  br i1 %3, label %4, label %11, !prof !4

4:                                                ; preds = %1
  %5 = tail call i32 @__cxa_guard_acquire(i64* nonnull @_ZGVZN21segmentation_platform5proto13TimeUnit_NameENS0_8TimeUnitEE5dummy) #17
  %6 = icmp eq i32 %5, 0
  br i1 %6, label %11, label %7

7:                                                ; preds = %4
  %8 = tail call zeroext i1 @_ZN6google8protobuf8internal21InitializeEnumStringsEPKNS1_9EnumEntryEPKimPNS1_21ExplicitlyConstructedINSt3__112basic_stringIcNS8_11char_traitsIcEENS8_9allocatorIcEEEEEE(%"struct.google::protobuf::internal::EnumEntry"* getelementptr inbounds ([8 x %"struct.google::protobuf::internal::EnumEntry"], [8 x %"struct.google::protobuf::internal::EnumEntry"]* @_ZN21segmentation_platform5protoL16TimeUnit_entriesE, i64 0, i64 0), i32* getelementptr inbounds ([8 x i32], [8 x i32]* @_ZN21segmentation_platform5protoL26TimeUnit_entries_by_numberE, i64 0, i64 0), i64 8, %"class.google::protobuf::internal::ExplicitlyConstructed.12"* getelementptr inbounds ([8 x %"class.google::protobuf::internal::ExplicitlyConstructed.12"], [8 x %"class.google::protobuf::internal::ExplicitlyConstructed.12"]* @_ZN21segmentation_platform5protoL16TimeUnit_stringsE, i64 0, i64 0)) #17
  %9 = zext i1 %8 to i8
  store i8 %9, i8* @_ZZN21segmentation_platform5proto13TimeUnit_NameENS0_8TimeUnitEE5dummy, align 1
  %10 = tail call {}* @llvm.invariant.start.p0i8(i64 1, i8* nonnull @_ZZN21segmentation_platform5proto13TimeUnit_NameENS0_8TimeUnitEE5dummy)
  tail call void @__cxa_guard_release(i64* nonnull @_ZGVZN21segmentation_platform5proto13TimeUnit_NameENS0_8TimeUnitEE5dummy) #17
  br label %11

11:                                               ; preds = %4, %7, %1
  %12 = tail call i32 @_ZN6google8protobuf8internal14LookUpEnumNameEPKNS1_9EnumEntryEPKimi(%"struct.google::protobuf::internal::EnumEntry"* getelementptr inbounds ([8 x %"struct.google::protobuf::internal::EnumEntry"], [8 x %"struct.google::protobuf::internal::EnumEntry"]* @_ZN21segmentation_platform5protoL16TimeUnit_entriesE, i64 0, i64 0), i32* getelementptr inbounds ([8 x i32], [8 x i32]* @_ZN21segmentation_platform5protoL26TimeUnit_entries_by_numberE, i64 0, i64 0), i64 8, i32 %0) #17
  %13 = icmp eq i32 %12, -1
  br i1 %13, label %14, label %16

14:                                               ; preds = %11
  %15 = tail call dereferenceable(24) %"class.std::__1::basic_string"* @_ZN6google8protobuf8internal14GetEmptyStringEv() #17
  br label %20

16:                                               ; preds = %11
  %17 = sext i32 %12 to i64
  %18 = getelementptr inbounds [8 x %"class.google::protobuf::internal::ExplicitlyConstructed.12"], [8 x %"class.google::protobuf::internal::ExplicitlyConstructed.12"]* @_ZN21segmentation_platform5protoL16TimeUnit_stringsE, i64 0, i64 %17
  %19 = bitcast %"class.google::protobuf::internal::ExplicitlyConstructed.12"* %18 to %"class.std::__1::basic_string"*
  br label %20

20:                                               ; preds = %16, %14
  %21 = phi %"class.std::__1::basic_string"* [ %15, %14 ], [ %19, %16 ]
  ret %"class.std::__1::basic_string"* %21
}

; Function Attrs: nofree nounwind
declare i32 @__cxa_guard_acquire(i64*) local_unnamed_addr #3

declare zeroext i1 @_ZN6google8protobuf8internal21InitializeEnumStringsEPKNS1_9EnumEntryEPKimPNS1_21ExplicitlyConstructedINSt3__112basic_stringIcNS8_11char_traitsIcEENS8_9allocatorIcEEEEEE(%"struct.google::protobuf::internal::EnumEntry"*, i32*, i64, %"class.google::protobuf::internal::ExplicitlyConstructed.12"*) local_unnamed_addr #4

; Function Attrs: nofree nounwind
declare void @__cxa_guard_release(i64*) local_unnamed_addr #3

; Function Attrs: argmemonly nounwind
declare void @llvm.lifetime.start.p0i8(i64 immarg, i8* nocapture) #2

declare i32 @_ZN6google8protobuf8internal14LookUpEnumNameEPKNS1_9EnumEntryEPKimi(%"struct.google::protobuf::internal::EnumEntry"*, i32*, i64, i32) local_unnamed_addr #4

declare dereferenceable(24) %"class.std::__1::basic_string"* @_ZN6google8protobuf8internal14GetEmptyStringEv() local_unnamed_addr #4

; Function Attrs: argmemonly nounwind
declare void @llvm.lifetime.end.p0i8(i64 immarg, i8* nocapture) #2

; Function Attrs: nounwind ssp uwtable
define hidden zeroext i1 @_ZN21segmentation_platform5proto14TimeUnit_ParseERKNSt3__112basic_stringIcNS1_11char_traitsIcEENS1_9allocatorIcEEEEPNS0_8TimeUnitE(%"class.std::__1::basic_string"* dereferenceable(24), i32* nocapture) local_unnamed_addr #0 {
  %3 = alloca i32, align 4
  %4 = bitcast i32* %3 to i8*
  call void @llvm.lifetime.start.p0i8(i64 4, i8* nonnull %4) #17
  store i32 -1431655766, i32* %3, align 4
  %5 = bitcast %"class.std::__1::basic_string"* %0 to %"struct.std::__1::basic_string<char, std::__1::char_traits<char>, std::__1::allocator<char> >::__short"*
  %6 = getelementptr inbounds %"struct.std::__1::basic_string<char, std::__1::char_traits<char>, std::__1::allocator<char> >::__short", %"struct.std::__1::basic_string<char, std::__1::char_traits<char>, std::__1::allocator<char> >::__short"* %5, i64 0, i32 1, i32 0
  %7 = load i8, i8* %6, align 1
  %8 = icmp slt i8 %7, 0
  %9 = getelementptr inbounds %"class.std::__1::basic_string", %"class.std::__1::basic_string"* %0, i64 0, i32 0, i32 0, i32 0, i32 0, i32 0, i32 0
  %10 = load i8*, i8** %9, align 8
  %11 = bitcast %"class.std::__1::basic_string"* %0 to i8*
  %12 = select i1 %8, i8* %10, i8* %11
  br i1 %8, label %15, label %13

13:                                               ; preds = %2
  %14 = zext i8 %7 to i64
  br label %20

15:                                               ; preds = %2
  %16 = getelementptr inbounds %"class.std::__1::basic_string", %"class.std::__1::basic_string"* %0, i64 0, i32 0, i32 0, i32 0, i32 0, i32 0, i32 1
  %17 = load i64, i64* %16, align 8
  %18 = icmp slt i64 %17, 0
  br i1 %18, label %19, label %20

19:                                               ; preds = %15
  tail call void @_ZN6google8protobuf11StringPiece18LogFatalSizeTooBigEmPKc(i64 %17, i8* getelementptr inbounds ([25 x i8], [25 x i8]* @.str.26, i64 0, i64 0)) #17
  br label %20

20:                                               ; preds = %13, %15, %19
  %21 = phi i64 [ %14, %13 ], [ %17, %15 ], [ %17, %19 ]
  %22 = call zeroext i1 @_ZN6google8protobuf8internal15LookUpEnumValueEPKNS1_9EnumEntryEmNS0_11StringPieceEPi(%"struct.google::protobuf::internal::EnumEntry"* getelementptr inbounds ([8 x %"struct.google::protobuf::internal::EnumEntry"], [8 x %"struct.google::protobuf::internal::EnumEntry"]* @_ZN21segmentation_platform5protoL16TimeUnit_entriesE, i64 0, i64 0), i64 8, i8* %12, i64 %21, i32* nonnull %3) #17
  br i1 %22, label %23, label %25

23:                                               ; preds = %20
  %24 = load i32, i32* %3, align 4
  store i32 %24, i32* %1, align 4
  br label %25

25:                                               ; preds = %23, %20
  call void @llvm.lifetime.end.p0i8(i64 4, i8* nonnull %4) #17
  ret i1 %22
}

declare zeroext i1 @_ZN6google8protobuf8internal15LookUpEnumValueEPKNS1_9EnumEntryEmNS0_11StringPieceEPi(%"struct.google::protobuf::internal::EnumEntry"*, i64, i8*, i64, i32*) local_unnamed_addr #4

; Function Attrs: nounwind ssp uwtable
define hidden void @_ZN21segmentation_platform5proto21HistogramValueFeatureC2EPN6google8protobuf5ArenaE(%"class.segmentation_platform::proto::HistogramValueFeature"* nocapture, %"class.google::protobuf::Arena"*) unnamed_addr #0 align 2 {
  %3 = getelementptr inbounds %"class.segmentation_platform::proto::HistogramValueFeature", %"class.segmentation_platform::proto::HistogramValueFeature"* %0, i64 0, i32 0, i32 0
  %4 = getelementptr inbounds %"class.segmentation_platform::proto::HistogramValueFeature", %"class.segmentation_platform::proto::HistogramValueFeature"* %0, i64 0, i32 0, i32 1
  %5 = bitcast %"class.google::protobuf::internal::InternalMetadata"* %4 to %"class.google::protobuf::Arena"**
  store %"class.google::protobuf::Arena"* %1, %"class.google::protobuf::Arena"** %5, align 8
  store i32 (...)** bitcast (i8** getelementptr inbounds ({ [16 x i8*] }, { [16 x i8*] }* @_ZTVN21segmentation_platform5proto21HistogramValueFeatureE, i64 0, inrange i32 0, i64 2) to i32 (...)**), i32 (...)*** %3, align 8
  %6 = getelementptr inbounds %"class.segmentation_platform::proto::HistogramValueFeature", %"class.segmentation_platform::proto::HistogramValueFeature"* %0, i64 0, i32 1, i32 0, i64 0
  store i32 0, i32* %6, align 4
  %7 = getelementptr inbounds %"class.segmentation_platform::proto::HistogramValueFeature", %"class.segmentation_platform::proto::HistogramValueFeature"* %0, i64 0, i32 2, i32 0, i32 0, i32 0, i32 0, i32 0, i32 0
  store i32 0, i32* %7, align 4
  %8 = load atomic i32, i32* getelementptr inbounds ({ { { { i32 } }, i32, i32, void ()* }, [0 x i8*] }, { { { { i32 } }, i32, i32, void ()* }, [0 x i8*] }* @scc_info_HistogramValueFeature_components_2fsegmentation_5fplatform_2finternal_2fproto_2fmodel_5fmetadata_2eproto, i64 0, i32 0, i32 0, i32 0, i32 0) acquire, align 8
  %9 = icmp eq i32 %8, 0
  br i1 %9, label %11, label %10, !prof !2

10:                                               ; preds = %2
  tail call void @_ZN6google8protobuf8internal11InitSCCImplEPNS1_11SCCInfoBaseE(%"struct.google::protobuf::internal::SCCInfoBase"* bitcast ({ { { { i32 } }, i32, i32, void ()* }, [0 x i8*] }* @scc_info_HistogramValueFeature_components_2fsegmentation_5fplatform_2finternal_2fproto_2fmodel_5fmetadata_2eproto to %"struct.google::protobuf::internal::SCCInfoBase"*)) #17
  br label %11

11:                                               ; preds = %2, %10
  %12 = getelementptr inbounds %"class.segmentation_platform::proto::HistogramValueFeature", %"class.segmentation_platform::proto::HistogramValueFeature"* %0, i64 0, i32 3, i32 0
  store %"class.std::__1::basic_string"* bitcast (%"class.google::protobuf::internal::ExplicitlyConstructed.12"* @_ZN6google8protobuf8internal26fixed_address_empty_stringE to %"class.std::__1::basic_string"*), %"class.std::__1::basic_string"** %12, align 8
  %13 = getelementptr inbounds %"class.segmentation_platform::proto::HistogramValueFeature", %"class.segmentation_platform::proto::HistogramValueFeature"* %0, i64 0, i32 4
  store i64 0, i64* %13, align 8
  ret void
}

; Function Attrs: nounwind ssp uwtable
define hidden void @_ZN21segmentation_platform5proto21HistogramValueFeatureC2ERKS1_(%"class.segmentation_platform::proto::HistogramValueFeature"*, %"class.segmentation_platform::proto::HistogramValueFeature"* nocapture readonly dereferenceable(40)) unnamed_addr #0 align 2 {
  %3 = getelementptr inbounds %"class.segmentation_platform::proto::HistogramValueFeature", %"class.segmentation_platform::proto::HistogramValueFeature"* %0, i64 0, i32 0, i32 0
  %4 = getelementptr inbounds %"class.segmentation_platform::proto::HistogramValueFeature", %"class.segmentation_platform::proto::HistogramValueFeature"* %0, i64 0, i32 0, i32 1, i32 0
  store i8* null, i8** %4, align 8
  store i32 (...)** bitcast (i8** getelementptr inbounds ({ [16 x i8*] }, { [16 x i8*] }* @_ZTVN21segmentation_platform5proto21HistogramValueFeatureE, i64 0, inrange i32 0, i64 2) to i32 (...)**), i32 (...)*** %3, align 8
  %5 = getelementptr inbounds %"class.segmentation_platform::proto::HistogramValueFeature", %"class.segmentation_platform::proto::HistogramValueFeature"* %1, i64 0, i32 1, i32 0, i64 0
  %6 = getelementptr inbounds %"class.segmentation_platform::proto::HistogramValueFeature", %"class.segmentation_platform::proto::HistogramValueFeature"* %0, i64 0, i32 1, i32 0, i64 0
  %7 = load i32, i32* %5, align 8
  store i32 %7, i32* %6, align 8
  %8 = getelementptr inbounds %"class.segmentation_platform::proto::HistogramValueFeature", %"class.segmentation_platform::proto::HistogramValueFeature"* %0, i64 0, i32 2, i32 0, i32 0, i32 0, i32 0, i32 0, i32 0
  store i32 0, i32* %8, align 4
  %9 = getelementptr inbounds %"class.segmentation_platform::proto::HistogramValueFeature", %"class.segmentation_platform::proto::HistogramValueFeature"* %0, i64 0, i32 0, i32 1
  %10 = getelementptr inbounds %"class.segmentation_platform::proto::HistogramValueFeature", %"class.segmentation_platform::proto::HistogramValueFeature"* %1, i64 0, i32 0, i32 1
  %11 = bitcast %"class.google::protobuf::internal::InternalMetadata"* %10 to i64*
  %12 = load i64, i64* %11, align 8
  %13 = and i64 %12, 1
  %14 = icmp eq i64 %13, 0
  br i1 %14, label %33, label %15

15:                                               ; preds = %2
  %16 = and i64 %12, -2
  %17 = inttoptr i64 %16 to %"struct.google::protobuf::internal::InternalMetadata::Container"*
  %18 = getelementptr inbounds %"struct.google::protobuf::internal::InternalMetadata::Container", %"struct.google::protobuf::internal::InternalMetadata::Container"* %17, i64 0, i32 1
  %19 = tail call %"class.std::__1::basic_string"* @_ZN6google8protobuf8internal16InternalMetadata27mutable_unknown_fields_slowINSt3__112basic_stringIcNS4_11char_traitsIcEENS4_9allocatorIcEEEEEEPT_v(%"class.google::protobuf::internal::InternalMetadata"* %9) #17
  %20 = bitcast %"class.std::__1::basic_string"* %18 to %"struct.std::__1::basic_string<char, std::__1::char_traits<char>, std::__1::allocator<char> >::__short"*
  %21 = getelementptr inbounds %"struct.std::__1::basic_string<char, std::__1::char_traits<char>, std::__1::allocator<char> >::__short", %"struct.std::__1::basic_string<char, std::__1::char_traits<char>, std::__1::allocator<char> >::__short"* %20, i64 0, i32 1, i32 0
  %22 = load i8, i8* %21, align 1
  %23 = icmp slt i8 %22, 0
  %24 = getelementptr inbounds %"class.std::__1::basic_string", %"class.std::__1::basic_string"* %18, i64 0, i32 0, i32 0, i32 0, i32 0, i32 0, i32 0
  %25 = load i8*, i8** %24, align 8
  %26 = getelementptr inbounds %"struct.google::protobuf::internal::InternalMetadata::Container", %"struct.google::protobuf::internal::InternalMetadata::Container"* %17, i64 0, i32 1, i32 0, i32 0, i32 0, i32 0, i32 0, i32 1
  %27 = load i64, i64* %26, align 8
  %28 = bitcast %"class.std::__1::basic_string"* %18 to i8*
  %29 = zext i8 %22 to i64
  %30 = select i1 %23, i8* %25, i8* %28
  %31 = select i1 %23, i64 %27, i64 %29
  %32 = tail call dereferenceable(24) %"class.std::__1::basic_string"* @_ZNSt3__112basic_stringIcNS_11char_traitsIcEENS_9allocatorIcEEE6appendEPKcm(%"class.std::__1::basic_string"* %19, i8* %30, i64 %31) #17
  br label %33

33:                                               ; preds = %2, %15
  %34 = getelementptr inbounds %"class.segmentation_platform::proto::HistogramValueFeature", %"class.segmentation_platform::proto::HistogramValueFeature"* %0, i64 0, i32 3
  %35 = getelementptr inbounds %"struct.google::protobuf::internal::ArenaStringPtr", %"struct.google::protobuf::internal::ArenaStringPtr"* %34, i64 0, i32 0
  store %"class.std::__1::basic_string"* bitcast (%"class.google::protobuf::internal::ExplicitlyConstructed.12"* @_ZN6google8protobuf8internal26fixed_address_empty_stringE to %"class.std::__1::basic_string"*), %"class.std::__1::basic_string"** %35, align 8
  %36 = load i32, i32* %5, align 4
  %37 = and i32 %36, 1
  %38 = icmp eq i32 %37, 0
  br i1 %38, label %55, label %39

39:                                               ; preds = %33
  %40 = getelementptr inbounds %"class.segmentation_platform::proto::HistogramValueFeature", %"class.segmentation_platform::proto::HistogramValueFeature"* %1, i64 0, i32 3, i32 0
  %41 = load %"class.std::__1::basic_string"*, %"class.std::__1::basic_string"** %40, align 8
  %42 = bitcast %"class.google::protobuf::internal::InternalMetadata"* %9 to i64*
  %43 = load i64, i64* %42, align 8
  %44 = and i64 %43, 1
  %45 = icmp eq i64 %44, 0
  %46 = and i64 %43, -2
  br i1 %45, label %51, label %47, !prof !2

47:                                               ; preds = %39
  %48 = inttoptr i64 %46 to %"struct.google::protobuf::internal::InternalMetadata::ContainerBase"*
  %49 = getelementptr inbounds %"struct.google::protobuf::internal::InternalMetadata::ContainerBase", %"struct.google::protobuf::internal::InternalMetadata::ContainerBase"* %48, i64 0, i32 0
  %50 = load %"class.google::protobuf::Arena"*, %"class.google::protobuf::Arena"** %49, align 8
  br label %53

51:                                               ; preds = %39
  %52 = inttoptr i64 %46 to %"class.google::protobuf::Arena"*
  br label %53

53:                                               ; preds = %47, %51
  %54 = phi %"class.google::protobuf::Arena"* [ %50, %47 ], [ %52, %51 ]
  tail call void @_ZN6google8protobuf8internal14ArenaStringPtr14CreateInstanceEPNS0_5ArenaEPKNSt3__112basic_stringIcNS5_11char_traitsIcEENS5_9allocatorIcEEEE(%"struct.google::protobuf::internal::ArenaStringPtr"* %34, %"class.google::protobuf::Arena"* %54, %"class.std::__1::basic_string"* %41) #17
  br label %55

55:                                               ; preds = %33, %53
  %56 = getelementptr inbounds %"class.segmentation_platform::proto::HistogramValueFeature", %"class.segmentation_platform::proto::HistogramValueFeature"* %1, i64 0, i32 4
  %57 = load i64, i64* %56, align 8
  %58 = getelementptr inbounds %"class.segmentation_platform::proto::HistogramValueFeature", %"class.segmentation_platform::proto::HistogramValueFeature"* %0, i64 0, i32 4
  store i64 %57, i64* %58, align 8
  ret void
}

; Function Attrs: argmemonly nounwind
declare void @llvm.memcpy.p0i8.p0i8.i64(i8* nocapture writeonly, i8* nocapture readonly, i64, i1 immarg) #2

; Function Attrs: nounwind ssp uwtable
define hidden void @_ZN21segmentation_platform5proto21HistogramValueFeatureD2Ev(%"class.segmentation_platform::proto::HistogramValueFeature"*) unnamed_addr #0 align 2 {
  %2 = getelementptr inbounds %"class.segmentation_platform::proto::HistogramValueFeature", %"class.segmentation_platform::proto::HistogramValueFeature"* %0, i64 0, i32 0, i32 0
  store i32 (...)** bitcast (i8** getelementptr inbounds ({ [16 x i8*] }, { [16 x i8*] }* @_ZTVN21segmentation_platform5proto21HistogramValueFeatureE, i64 0, inrange i32 0, i64 2) to i32 (...)**), i32 (...)*** %2, align 8
  %3 = getelementptr inbounds %"class.segmentation_platform::proto::HistogramValueFeature", %"class.segmentation_platform::proto::HistogramValueFeature"* %0, i64 0, i32 3
  tail call void @_ZN6google8protobuf8internal14ArenaStringPtr14DestroyNoArenaEPKNSt3__112basic_stringIcNS3_11char_traitsIcEENS3_9allocatorIcEEEE(%"struct.google::protobuf::internal::ArenaStringPtr"* %3, %"class.std::__1::basic_string"* bitcast (%"class.google::protobuf::internal::ExplicitlyConstructed.12"* @_ZN6google8protobuf8internal26fixed_address_empty_stringE to %"class.std::__1::basic_string"*)) #17
  %4 = getelementptr inbounds %"class.segmentation_platform::proto::HistogramValueFeature", %"class.segmentation_platform::proto::HistogramValueFeature"* %0, i64 0, i32 0, i32 1
  %5 = bitcast %"class.google::protobuf::internal::InternalMetadata"* %4 to i64*
  %6 = load i64, i64* %5, align 8
  %7 = and i64 %6, 1
  %8 = icmp eq i64 %7, 0
  br i1 %8, label %29, label %9

9:                                                ; preds = %1
  %10 = and i64 %6, -2
  %11 = inttoptr i64 %10 to %"struct.google::protobuf::internal::InternalMetadata::ContainerBase"*
  %12 = getelementptr inbounds %"struct.google::protobuf::internal::InternalMetadata::ContainerBase", %"struct.google::protobuf::internal::InternalMetadata::ContainerBase"* %11, i64 0, i32 0
  %13 = load %"class.google::protobuf::Arena"*, %"class.google::protobuf::Arena"** %12, align 8
  %14 = icmp ne %"class.google::protobuf::Arena"* %13, null
  %15 = icmp eq i64 %10, 0
  %16 = or i1 %15, %14
  br i1 %16, label %29, label %17

17:                                               ; preds = %9
  %18 = inttoptr i64 %10 to %"struct.google::protobuf::internal::InternalMetadata::Container"*
  %19 = getelementptr inbounds %"struct.google::protobuf::internal::InternalMetadata::Container", %"struct.google::protobuf::internal::InternalMetadata::Container"* %18, i64 0, i32 1
  %20 = bitcast %"class.std::__1::basic_string"* %19 to %"struct.std::__1::basic_string<char, std::__1::char_traits<char>, std::__1::allocator<char> >::__short"*
  %21 = getelementptr inbounds %"struct.std::__1::basic_string<char, std::__1::char_traits<char>, std::__1::allocator<char> >::__short", %"struct.std::__1::basic_string<char, std::__1::char_traits<char>, std::__1::allocator<char> >::__short"* %20, i64 0, i32 1, i32 0
  %22 = load i8, i8* %21, align 1
  %23 = icmp slt i8 %22, 0
  br i1 %23, label %24, label %27

24:                                               ; preds = %17
  %25 = getelementptr inbounds %"class.std::__1::basic_string", %"class.std::__1::basic_string"* %19, i64 0, i32 0, i32 0, i32 0, i32 0, i32 0, i32 0
  %26 = load i8*, i8** %25, align 8
  tail call void @_ZdlPv(i8* %26) #18
  br label %27

27:                                               ; preds = %24, %17
  %28 = inttoptr i64 %10 to i8*
  tail call void @_ZdlPv(i8* %28) #18
  br label %29

29:                                               ; preds = %1, %9, %27
  ret void
}

; Function Attrs: nounwind ssp uwtable
define hidden void @_ZN21segmentation_platform5proto21HistogramValueFeatureD0Ev(%"class.segmentation_platform::proto::HistogramValueFeature"*) unnamed_addr #0 align 2 {
  %2 = getelementptr inbounds %"class.segmentation_platform::proto::HistogramValueFeature", %"class.segmentation_platform::proto::HistogramValueFeature"* %0, i64 0, i32 0, i32 0
  store i32 (...)** bitcast (i8** getelementptr inbounds ({ [16 x i8*] }, { [16 x i8*] }* @_ZTVN21segmentation_platform5proto21HistogramValueFeatureE, i64 0, inrange i32 0, i64 2) to i32 (...)**), i32 (...)*** %2, align 8
  %3 = getelementptr inbounds %"class.segmentation_platform::proto::HistogramValueFeature", %"class.segmentation_platform::proto::HistogramValueFeature"* %0, i64 0, i32 3
  tail call void @_ZN6google8protobuf8internal14ArenaStringPtr14DestroyNoArenaEPKNSt3__112basic_stringIcNS3_11char_traitsIcEENS3_9allocatorIcEEEE(%"struct.google::protobuf::internal::ArenaStringPtr"* %3, %"class.std::__1::basic_string"* bitcast (%"class.google::protobuf::internal::ExplicitlyConstructed.12"* @_ZN6google8protobuf8internal26fixed_address_empty_stringE to %"class.std::__1::basic_string"*)) #17
  %4 = getelementptr inbounds %"class.segmentation_platform::proto::HistogramValueFeature", %"class.segmentation_platform::proto::HistogramValueFeature"* %0, i64 0, i32 0, i32 1
  %5 = bitcast %"class.google::protobuf::internal::InternalMetadata"* %4 to i64*
  %6 = load i64, i64* %5, align 8
  %7 = and i64 %6, 1
  %8 = icmp eq i64 %7, 0
  br i1 %8, label %29, label %9

9:                                                ; preds = %1
  %10 = and i64 %6, -2
  %11 = inttoptr i64 %10 to %"struct.google::protobuf::internal::InternalMetadata::ContainerBase"*
  %12 = getelementptr inbounds %"struct.google::protobuf::internal::InternalMetadata::ContainerBase", %"struct.google::protobuf::internal::InternalMetadata::ContainerBase"* %11, i64 0, i32 0
  %13 = load %"class.google::protobuf::Arena"*, %"class.google::protobuf::Arena"** %12, align 8
  %14 = icmp ne %"class.google::protobuf::Arena"* %13, null
  %15 = icmp eq i64 %10, 0
  %16 = or i1 %15, %14
  br i1 %16, label %29, label %17

17:                                               ; preds = %9
  %18 = inttoptr i64 %10 to %"struct.google::protobuf::internal::InternalMetadata::Container"*
  %19 = getelementptr inbounds %"struct.google::protobuf::internal::InternalMetadata::Container", %"struct.google::protobuf::internal::InternalMetadata::Container"* %18, i64 0, i32 1
  %20 = bitcast %"class.std::__1::basic_string"* %19 to %"struct.std::__1::basic_string<char, std::__1::char_traits<char>, std::__1::allocator<char> >::__short"*
  %21 = getelementptr inbounds %"struct.std::__1::basic_string<char, std::__1::char_traits<char>, std::__1::allocator<char> >::__short", %"struct.std::__1::basic_string<char, std::__1::char_traits<char>, std::__1::allocator<char> >::__short"* %20, i64 0, i32 1, i32 0
  %22 = load i8, i8* %21, align 1
  %23 = icmp slt i8 %22, 0
  br i1 %23, label %24, label %27

24:                                               ; preds = %17
  %25 = getelementptr inbounds %"class.std::__1::basic_string", %"class.std::__1::basic_string"* %19, i64 0, i32 0, i32 0, i32 0, i32 0, i32 0, i32 0
  %26 = load i8*, i8** %25, align 8
  tail call void @_ZdlPv(i8* %26) #18
  br label %27

27:                                               ; preds = %24, %17
  %28 = inttoptr i64 %10 to i8*
  tail call void @_ZdlPv(i8* %28) #18
  br label %29

29:                                               ; preds = %1, %9, %27
  %30 = bitcast %"class.segmentation_platform::proto::HistogramValueFeature"* %0 to i8*
  tail call void @_ZdlPv(i8* %30) #18
  ret void
}

; Function Attrs: nobuiltin nounwind
declare void @_ZdlPv(i8*) local_unnamed_addr #5

; Function Attrs: norecurse nounwind readnone ssp uwtable
define hidden void @_ZN21segmentation_platform5proto21HistogramValueFeature9ArenaDtorEPv(i8* nocapture) local_unnamed_addr #1 align 2 {
  ret void
}

; Function Attrs: nofree norecurse nounwind ssp uwtable
define hidden void @_ZNK21segmentation_platform5proto21HistogramValueFeature13SetCachedSizeEi(%"class.segmentation_platform::proto::HistogramValueFeature"* nocapture, i32) local_unnamed_addr #6 align 2 {
  %3 = getelementptr inbounds %"class.segmentation_platform::proto::HistogramValueFeature", %"class.segmentation_platform::proto::HistogramValueFeature"* %0, i64 0, i32 2, i32 0, i32 0, i32 0, i32 0, i32 0, i32 0
  store atomic i32 %1, i32* %3 monotonic, align 4
  ret void
}

; Function Attrs: nounwind ssp uwtable
define hidden dereferenceable(40) %"class.segmentation_platform::proto::HistogramValueFeature"* @_ZN21segmentation_platform5proto21HistogramValueFeature16default_instanceEv() local_unnamed_addr #0 align 2 {
  %1 = load atomic i32, i32* getelementptr inbounds ({ { { { i32 } }, i32, i32, void ()* }, [0 x i8*] }, { { { { i32 } }, i32, i32, void ()* }, [0 x i8*] }* @scc_info_HistogramValueFeature_components_2fsegmentation_5fplatform_2finternal_2fproto_2fmodel_5fmetadata_2eproto, i64 0, i32 0, i32 0, i32 0, i32 0) acquire, align 8
  %2 = icmp eq i32 %1, 0
  br i1 %2, label %4, label %3, !prof !2

3:                                                ; preds = %0
  tail call void @_ZN6google8protobuf8internal11InitSCCImplEPNS1_11SCCInfoBaseE(%"struct.google::protobuf::internal::SCCInfoBase"* bitcast ({ { { { i32 } }, i32, i32, void ()* }, [0 x i8*] }* @scc_info_HistogramValueFeature_components_2fsegmentation_5fplatform_2finternal_2fproto_2fmodel_5fmetadata_2eproto to %"struct.google::protobuf::internal::SCCInfoBase"*)) #17
  br label %4

4:                                                ; preds = %0, %3
  ret %"class.segmentation_platform::proto::HistogramValueFeature"* bitcast (%"class.segmentation_platform::proto::HistogramValueFeatureDefaultTypeInternal"* @_ZN21segmentation_platform5proto40_HistogramValueFeature_default_instance_E to %"class.segmentation_platform::proto::HistogramValueFeature"*)
}

; Function Attrs: nofree norecurse nounwind ssp uwtable
define hidden void @_ZN21segmentation_platform5proto21HistogramValueFeature5ClearEv(%"class.segmentation_platform::proto::HistogramValueFeature"* nocapture) unnamed_addr #6 align 2 {
  %2 = getelementptr inbounds %"class.segmentation_platform::proto::HistogramValueFeature", %"class.segmentation_platform::proto::HistogramValueFeature"* %0, i64 0, i32 1, i32 0, i64 0
  %3 = load i32, i32* %2, align 4
  %4 = and i32 %3, 1
  %5 = icmp eq i32 %4, 0
  br i1 %5, label %19, label %6

6:                                                ; preds = %1
  %7 = getelementptr inbounds %"class.segmentation_platform::proto::HistogramValueFeature", %"class.segmentation_platform::proto::HistogramValueFeature"* %0, i64 0, i32 3, i32 0
  %8 = load %"class.std::__1::basic_string"*, %"class.std::__1::basic_string"** %7, align 8
  %9 = bitcast %"class.std::__1::basic_string"* %8 to %"struct.std::__1::basic_string<char, std::__1::char_traits<char>, std::__1::allocator<char> >::__short"*
  %10 = getelementptr inbounds %"struct.std::__1::basic_string<char, std::__1::char_traits<char>, std::__1::allocator<char> >::__short", %"struct.std::__1::basic_string<char, std::__1::char_traits<char>, std::__1::allocator<char> >::__short"* %9, i64 0, i32 1, i32 0
  %11 = load i8, i8* %10, align 1
  %12 = icmp slt i8 %11, 0
  br i1 %12, label %13, label %17

13:                                               ; preds = %6
  %14 = getelementptr inbounds %"class.std::__1::basic_string", %"class.std::__1::basic_string"* %8, i64 0, i32 0, i32 0, i32 0, i32 0, i32 0, i32 0
  %15 = load i8*, i8** %14, align 8
  store i8 0, i8* %15, align 1
  %16 = getelementptr inbounds %"class.std::__1::basic_string", %"class.std::__1::basic_string"* %8, i64 0, i32 0, i32 0, i32 0, i32 0, i32 0, i32 1
  store i64 0, i64* %16, align 8
  br label %19

17:                                               ; preds = %6
  %18 = bitcast %"class.std::__1::basic_string"* %8 to i8*
  store i8 0, i8* %18, align 1
  store i8 0, i8* %10, align 1
  br label %19

19:                                               ; preds = %17, %13, %1
  %20 = getelementptr inbounds %"class.segmentation_platform::proto::HistogramValueFeature", %"class.segmentation_platform::proto::HistogramValueFeature"* %0, i64 0, i32 4
  store i64 0, i64* %20, align 8
  store i32 0, i32* %2, align 4
  %21 = getelementptr inbounds %"class.segmentation_platform::proto::HistogramValueFeature", %"class.segmentation_platform::proto::HistogramValueFeature"* %0, i64 0, i32 0, i32 1
  %22 = bitcast %"class.google::protobuf::internal::InternalMetadata"* %21 to i64*
  %23 = load i64, i64* %22, align 8
  %24 = and i64 %23, 1
  %25 = icmp eq i64 %24, 0
  br i1 %25, label %40, label %26

26:                                               ; preds = %19
  %27 = and i64 %23, -2
  %28 = inttoptr i64 %27 to %"struct.google::protobuf::internal::InternalMetadata::Container"*
  %29 = getelementptr inbounds %"struct.google::protobuf::internal::InternalMetadata::Container", %"struct.google::protobuf::internal::InternalMetadata::Container"* %28, i64 0, i32 1
  %30 = bitcast %"class.std::__1::basic_string"* %29 to %"struct.std::__1::basic_string<char, std::__1::char_traits<char>, std::__1::allocator<char> >::__short"*
  %31 = getelementptr inbounds %"struct.std::__1::basic_string<char, std::__1::char_traits<char>, std::__1::allocator<char> >::__short", %"struct.std::__1::basic_string<char, std::__1::char_traits<char>, std::__1::allocator<char> >::__short"* %30, i64 0, i32 1, i32 0
  %32 = load i8, i8* %31, align 1
  %33 = icmp slt i8 %32, 0
  br i1 %33, label %34, label %38

34:                                               ; preds = %26
  %35 = getelementptr inbounds %"class.std::__1::basic_string", %"class.std::__1::basic_string"* %29, i64 0, i32 0, i32 0, i32 0, i32 0, i32 0, i32 0
  %36 = load i8*, i8** %35, align 8
  store i8 0, i8* %36, align 1
  %37 = getelementptr inbounds %"struct.google::protobuf::internal::InternalMetadata::Container", %"struct.google::protobuf::internal::InternalMetadata::Container"* %28, i64 0, i32 1, i32 0, i32 0, i32 0, i32 0, i32 0, i32 1
  store i64 0, i64* %37, align 8
  br label %40

38:                                               ; preds = %26
  %39 = bitcast %"class.std::__1::basic_string"* %29 to i8*
  store i8 0, i8* %39, align 2
  store i8 0, i8* %31, align 1
  br label %40

40:                                               ; preds = %19, %34, %38
  ret void
}

; Function Attrs: nounwind ssp uwtable
define hidden i8* @_ZN21segmentation_platform5proto21HistogramValueFeature14_InternalParseEPKcPN6google8protobuf8internal12ParseContextE(%"class.segmentation_platform::proto::HistogramValueFeature"*, i8*, %"class.google::protobuf::internal::ParseContext"*) unnamed_addr #0 align 2 {
  %4 = getelementptr inbounds %"class.google::protobuf::internal::ParseContext", %"class.google::protobuf::internal::ParseContext"* %2, i64 0, i32 0
  %5 = getelementptr inbounds %"class.google::protobuf::internal::ParseContext", %"class.google::protobuf::internal::ParseContext"* %2, i64 0, i32 2
  %6 = getelementptr inbounds %"class.google::protobuf::internal::ParseContext", %"class.google::protobuf::internal::ParseContext"* %2, i64 0, i32 0, i32 0
  %7 = getelementptr inbounds %"class.google::protobuf::internal::ParseContext", %"class.google::protobuf::internal::ParseContext"* %2, i64 0, i32 0, i32 1
  %8 = bitcast i8** %7 to i64*
  %9 = getelementptr inbounds %"class.google::protobuf::internal::ParseContext", %"class.google::protobuf::internal::ParseContext"* %2, i64 0, i32 0, i32 4
  %10 = getelementptr inbounds %"class.segmentation_platform::proto::HistogramValueFeature", %"class.segmentation_platform::proto::HistogramValueFeature"* %0, i64 0, i32 4
  %11 = getelementptr inbounds %"class.segmentation_platform::proto::HistogramValueFeature", %"class.segmentation_platform::proto::HistogramValueFeature"* %0, i64 0, i32 1, i32 0, i64 0
  %12 = getelementptr inbounds %"class.segmentation_platform::proto::HistogramValueFeature", %"class.segmentation_platform::proto::HistogramValueFeature"* %0, i64 0, i32 3
  %13 = getelementptr inbounds %"class.segmentation_platform::proto::HistogramValueFeature", %"class.segmentation_platform::proto::HistogramValueFeature"* %0, i64 0, i32 0, i32 1
  %14 = bitcast %"class.google::protobuf::internal::InternalMetadata"* %13 to i64*
  %15 = getelementptr inbounds %"struct.google::protobuf::internal::ArenaStringPtr", %"struct.google::protobuf::internal::ArenaStringPtr"* %12, i64 0, i32 0
  br label %16

16:                                               ; preds = %93, %3
  %17 = phi i8* [ %97, %93 ], [ %1, %3 ]
  %18 = phi i32 [ %94, %93 ], [ 0, %3 ]
  br label %19

19:                                               ; preds = %88, %16
  %20 = phi i8* [ %17, %16 ], [ %89, %88 ]
  %21 = load i32, i32* %5, align 4
  %22 = load i8*, i8** %6, align 8
  %23 = icmp ult i8* %20, %22
  br i1 %23, label %37, label %24, !prof !2

24:                                               ; preds = %19
  %25 = load i64, i64* %8, align 8
  %26 = ptrtoint i8* %20 to i64
  %27 = sub i64 %26, %25
  %28 = load i32, i32* %9, align 4
  %29 = sext i32 %28 to i64
  %30 = icmp eq i64 %27, %29
  br i1 %30, label %120, label %31

31:                                               ; preds = %24
  %32 = tail call { i8*, i8 } @_ZN6google8protobuf8internal18EpsCopyInputStream12DoneFallbackEPKci(%"class.google::protobuf::internal::EpsCopyInputStream"* %4, i8* %20, i32 %21) #17
  %33 = extractvalue { i8*, i8 } %32, 0
  %34 = extractvalue { i8*, i8 } %32, 1
  %35 = and i8 %34, 1
  %36 = icmp eq i8 %35, 0
  br i1 %36, label %37, label %120

37:                                               ; preds = %31, %19
  %38 = phi i8* [ %33, %31 ], [ %20, %19 ]
  %39 = load i8, i8* %38, align 1
  %40 = zext i8 %39 to i32
  %41 = icmp sgt i8 %39, -1
  %42 = getelementptr inbounds i8, i8* %38, i64 1
  br i1 %41, label %56, label %43

43:                                               ; preds = %37
  %44 = load i8, i8* %42, align 1
  %45 = zext i8 %44 to i32
  %46 = shl nuw nsw i32 %45, 7
  %47 = add nsw i32 %40, -128
  %48 = add nsw i32 %47, %46
  %49 = icmp sgt i8 %44, -1
  br i1 %49, label %50, label %52

50:                                               ; preds = %43
  %51 = getelementptr inbounds i8, i8* %38, i64 2
  br label %56

52:                                               ; preds = %43
  %53 = tail call { i8*, i32 } @_ZN6google8protobuf8internal15ReadTagFallbackEPKcj(i8* %38, i32 %48) #17
  %54 = extractvalue { i8*, i32 } %53, 0
  %55 = extractvalue { i8*, i32 } %53, 1
  br label %56

56:                                               ; preds = %37, %50, %52
  %57 = phi i32 [ %48, %50 ], [ %55, %52 ], [ %40, %37 ]
  %58 = phi i8* [ %51, %50 ], [ %54, %52 ], [ %42, %37 ]
  %59 = icmp eq i8* %58, null
  br i1 %59, label %120, label %60, !prof !5

60:                                               ; preds = %56
  %61 = lshr i32 %57, 3
  switch i32 %61, label %98 [
    i32 1, label %62
    i32 2, label %90
  ]

62:                                               ; preds = %60
  %63 = and i32 %57, 255
  %64 = icmp eq i32 %63, 10
  br i1 %64, label %65, label %98, !prof !2

65:                                               ; preds = %62
  %66 = load i32, i32* %11, align 4
  %67 = or i32 %66, 1
  store i32 %67, i32* %11, align 4
  %68 = load i64, i64* %14, align 8
  %69 = and i64 %68, 1
  %70 = icmp eq i64 %69, 0
  %71 = and i64 %68, -2
  br i1 %70, label %76, label %72, !prof !2

72:                                               ; preds = %65
  %73 = inttoptr i64 %71 to %"struct.google::protobuf::internal::InternalMetadata::ContainerBase"*
  %74 = getelementptr inbounds %"struct.google::protobuf::internal::InternalMetadata::ContainerBase", %"struct.google::protobuf::internal::InternalMetadata::ContainerBase"* %73, i64 0, i32 0
  %75 = load %"class.google::protobuf::Arena"*, %"class.google::protobuf::Arena"** %74, align 8
  br label %78

76:                                               ; preds = %65
  %77 = inttoptr i64 %71 to %"class.google::protobuf::Arena"*
  br label %78

78:                                               ; preds = %76, %72
  %79 = phi %"class.google::protobuf::Arena"* [ %75, %72 ], [ %77, %76 ]
  %80 = load %"class.std::__1::basic_string"*, %"class.std::__1::basic_string"** %15, align 8
  %81 = icmp eq %"class.std::__1::basic_string"* %80, bitcast (%"class.google::protobuf::internal::ExplicitlyConstructed.12"* @_ZN6google8protobuf8internal26fixed_address_empty_stringE to %"class.std::__1::basic_string"*)
  br i1 %81, label %82, label %84

82:                                               ; preds = %78
  tail call void @_ZN6google8protobuf8internal14ArenaStringPtr14CreateInstanceEPNS0_5ArenaEPKNSt3__112basic_stringIcNS5_11char_traitsIcEENS5_9allocatorIcEEEE(%"struct.google::protobuf::internal::ArenaStringPtr"* %12, %"class.google::protobuf::Arena"* %79, %"class.std::__1::basic_string"* bitcast (%"class.google::protobuf::internal::ExplicitlyConstructed.12"* @_ZN6google8protobuf8internal26fixed_address_empty_stringE to %"class.std::__1::basic_string"*)) #17
  %83 = load %"class.std::__1::basic_string"*, %"class.std::__1::basic_string"** %15, align 8
  br label %84

84:                                               ; preds = %78, %82
  %85 = phi %"class.std::__1::basic_string"* [ %83, %82 ], [ %80, %78 ]
  %86 = tail call i8* @_ZN6google8protobuf8internal24InlineGreedyStringParserEPNSt3__112basic_stringIcNS2_11char_traitsIcEENS2_9allocatorIcEEEEPKcPNS1_12ParseContextE(%"class.std::__1::basic_string"* %85, i8* nonnull %58, %"class.google::protobuf::internal::ParseContext"* %2) #17
  %87 = icmp eq i8* %86, null
  br i1 %87, label %120, label %88

88:                                               ; preds = %84, %116
  %89 = phi i8* [ %118, %116 ], [ %86, %84 ]
  br label %19

90:                                               ; preds = %60
  %91 = and i32 %57, 255
  %92 = icmp eq i32 %91, 17
  br i1 %92, label %93, label %98, !prof !2

93:                                               ; preds = %90
  %94 = or i32 %18, 2
  %95 = bitcast i8* %58 to i64*
  %96 = load i64, i64* %95, align 1
  store i64 %96, i64* %10, align 8
  %97 = getelementptr inbounds i8, i8* %58, i64 8
  br label %16

98:                                               ; preds = %60, %90, %62
  %99 = and i32 %57, 7
  %100 = icmp eq i32 %99, 4
  %101 = icmp eq i32 %57, 0
  %102 = or i1 %101, %100
  br i1 %102, label %103, label %106

103:                                              ; preds = %98
  %104 = add i32 %57, -1
  %105 = getelementptr inbounds %"class.google::protobuf::internal::ParseContext", %"class.google::protobuf::internal::ParseContext"* %2, i64 0, i32 0, i32 8
  store i32 %104, i32* %105, align 8
  br label %120

106:                                              ; preds = %98
  %107 = load i64, i64* %14, align 8
  %108 = and i64 %107, 1
  %109 = icmp eq i64 %108, 0
  br i1 %109, label %114, label %110, !prof !5

110:                                              ; preds = %106
  %111 = and i64 %107, -2
  %112 = inttoptr i64 %111 to %"struct.google::protobuf::internal::InternalMetadata::Container"*
  %113 = getelementptr inbounds %"struct.google::protobuf::internal::InternalMetadata::Container", %"struct.google::protobuf::internal::InternalMetadata::Container"* %112, i64 0, i32 1
  br label %116

114:                                              ; preds = %106
  %115 = tail call %"class.std::__1::basic_string"* @_ZN6google8protobuf8internal16InternalMetadata27mutable_unknown_fields_slowINSt3__112basic_stringIcNS4_11char_traitsIcEENS4_9allocatorIcEEEEEEPT_v(%"class.google::protobuf::internal::InternalMetadata"* %13) #17
  br label %116

116:                                              ; preds = %110, %114
  %117 = phi %"class.std::__1::basic_string"* [ %113, %110 ], [ %115, %114 ]
  %118 = tail call i8* @_ZN6google8protobuf8internal17UnknownFieldParseEjPNSt3__112basic_stringIcNS2_11char_traitsIcEENS2_9allocatorIcEEEEPKcPNS1_12ParseContextE(i32 %57, %"class.std::__1::basic_string"* %117, i8* nonnull %58, %"class.google::protobuf::internal::ParseContext"* %2) #17
  %119 = icmp eq i8* %118, null
  br i1 %119, label %120, label %88

120:                                              ; preds = %84, %24, %116, %56, %31, %103
  %121 = phi i8* [ %58, %103 ], [ %33, %31 ], [ null, %56 ], [ null, %116 ], [ %20, %24 ], [ null, %84 ]
  %122 = load i32, i32* %11, align 4
  %123 = or i32 %122, %18
  store i32 %123, i32* %11, align 4
  ret i8* %121
}

declare i8* @_ZN6google8protobuf8internal24InlineGreedyStringParserEPNSt3__112basic_stringIcNS2_11char_traitsIcEENS2_9allocatorIcEEEEPKcPNS1_12ParseContextE(%"class.std::__1::basic_string"*, i8*, %"class.google::protobuf::internal::ParseContext"*) local_unnamed_addr #4

declare i8* @_ZN6google8protobuf8internal17UnknownFieldParseEjPNSt3__112basic_stringIcNS2_11char_traitsIcEENS2_9allocatorIcEEEEPKcPNS1_12ParseContextE(i32, %"class.std::__1::basic_string"*, i8*, %"class.google::protobuf::internal::ParseContext"*) local_unnamed_addr #4

; Function Attrs: nounwind ssp uwtable
define hidden i8* @_ZNK21segmentation_platform5proto21HistogramValueFeature18_InternalSerializeEPhPN6google8protobuf2io19EpsCopyOutputStreamE(%"class.segmentation_platform::proto::HistogramValueFeature"* nocapture readonly, i8*, %"class.google::protobuf::io::EpsCopyOutputStream"*) unnamed_addr #0 align 2 {
  %4 = getelementptr inbounds %"class.segmentation_platform::proto::HistogramValueFeature", %"class.segmentation_platform::proto::HistogramValueFeature"* %0, i64 0, i32 1, i32 0, i64 0
  %5 = load i32, i32* %4, align 4
  %6 = and i32 %5, 1
  %7 = icmp eq i32 %6, 0
  br i1 %7, label %42, label %8

8:                                                ; preds = %3
  %9 = getelementptr inbounds %"class.segmentation_platform::proto::HistogramValueFeature", %"class.segmentation_platform::proto::HistogramValueFeature"* %0, i64 0, i32 3, i32 0
  %10 = load %"class.std::__1::basic_string"*, %"class.std::__1::basic_string"** %9, align 8
  %11 = bitcast %"class.std::__1::basic_string"* %10 to %"struct.std::__1::basic_string<char, std::__1::char_traits<char>, std::__1::allocator<char> >::__short"*
  %12 = getelementptr inbounds %"struct.std::__1::basic_string<char, std::__1::char_traits<char>, std::__1::allocator<char> >::__short", %"struct.std::__1::basic_string<char, std::__1::char_traits<char>, std::__1::allocator<char> >::__short"* %11, i64 0, i32 1, i32 0
  %13 = load i8, i8* %12, align 1
  %14 = icmp slt i8 %13, 0
  br i1 %14, label %17, label %15

15:                                               ; preds = %8
  %16 = zext i8 %13 to i64
  br label %21

17:                                               ; preds = %8
  %18 = getelementptr inbounds %"class.std::__1::basic_string", %"class.std::__1::basic_string"* %10, i64 0, i32 0, i32 0, i32 0, i32 0, i32 0, i32 1
  %19 = load i64, i64* %18, align 8
  %20 = icmp sgt i64 %19, 127
  br i1 %20, label %29, label %21, !prof !5

21:                                               ; preds = %17, %15
  %22 = phi i64 [ %16, %15 ], [ %19, %17 ]
  %23 = bitcast %"class.google::protobuf::io::EpsCopyOutputStream"* %2 to i64*
  %24 = load i64, i64* %23, align 8
  %25 = ptrtoint i8* %1 to i64
  %26 = sub i64 14, %25
  %27 = add i64 %26, %24
  %28 = icmp slt i64 %27, %22
  br i1 %28, label %29, label %31, !prof !5

29:                                               ; preds = %21, %17
  %30 = tail call i8* @_ZN6google8protobuf2io19EpsCopyOutputStream30WriteStringMaybeAliasedOutlineEjRKNSt3__112basic_stringIcNS3_11char_traitsIcEENS3_9allocatorIcEEEEPh(%"class.google::protobuf::io::EpsCopyOutputStream"* %2, i32 1, %"class.std::__1::basic_string"* dereferenceable(24) %10, i8* %1) #17
  br label %42

31:                                               ; preds = %21
  store i8 10, i8* %1, align 1
  %32 = getelementptr inbounds i8, i8* %1, i64 1
  %33 = trunc i64 %22 to i8
  %34 = getelementptr inbounds i8, i8* %1, i64 2
  store i8 %33, i8* %32, align 1
  %35 = load i8, i8* %12, align 1
  %36 = icmp slt i8 %35, 0
  %37 = getelementptr inbounds %"class.std::__1::basic_string", %"class.std::__1::basic_string"* %10, i64 0, i32 0, i32 0, i32 0, i32 0, i32 0, i32 0
  %38 = load i8*, i8** %37, align 8
  %39 = bitcast %"class.std::__1::basic_string"* %10 to i8*
  %40 = select i1 %36, i8* %38, i8* %39
  tail call void @llvm.memcpy.p0i8.p0i8.i64(i8* align 1 %34, i8* align 1 %40, i64 %22, i1 false) #17
  %41 = getelementptr inbounds i8, i8* %34, i64 %22
  br label %42

42:                                               ; preds = %31, %29, %3
  %43 = phi i8* [ %1, %3 ], [ %30, %29 ], [ %41, %31 ]
  %44 = and i32 %5, 2
  %45 = icmp eq i32 %44, 0
  br i1 %45, label %59, label %46

46:                                               ; preds = %42
  %47 = getelementptr inbounds %"class.google::protobuf::io::EpsCopyOutputStream", %"class.google::protobuf::io::EpsCopyOutputStream"* %2, i64 0, i32 0
  %48 = load i8*, i8** %47, align 8
  %49 = icmp ugt i8* %48, %43
  br i1 %49, label %52, label %50, !prof !2

50:                                               ; preds = %46
  %51 = tail call i8* @_ZN6google8protobuf2io19EpsCopyOutputStream19EnsureSpaceFallbackEPh(%"class.google::protobuf::io::EpsCopyOutputStream"* %2, i8* %43) #17
  br label %52

52:                                               ; preds = %46, %50
  %53 = phi i8* [ %51, %50 ], [ %43, %46 ]
  %54 = getelementptr inbounds %"class.segmentation_platform::proto::HistogramValueFeature", %"class.segmentation_platform::proto::HistogramValueFeature"* %0, i64 0, i32 4
  %55 = load i64, i64* %54, align 8
  store i8 17, i8* %53, align 1
  %56 = getelementptr inbounds i8, i8* %53, i64 1
  %57 = bitcast i8* %56 to i64*
  store i64 %55, i64* %57, align 1
  %58 = getelementptr inbounds i8, i8* %53, i64 9
  br label %59

59:                                               ; preds = %42, %52
  %60 = phi i8* [ %58, %52 ], [ %43, %42 ]
  %61 = getelementptr inbounds %"class.segmentation_platform::proto::HistogramValueFeature", %"class.segmentation_platform::proto::HistogramValueFeature"* %0, i64 0, i32 0, i32 1
  %62 = bitcast %"class.google::protobuf::internal::InternalMetadata"* %61 to i64*
  %63 = load i64, i64* %62, align 8
  %64 = and i64 %63, 1
  %65 = icmp eq i64 %64, 0
  br i1 %65, label %97, label %66, !prof !2

66:                                               ; preds = %59
  %67 = and i64 %63, -2
  %68 = inttoptr i64 %67 to %"struct.google::protobuf::internal::InternalMetadata::Container"*
  %69 = getelementptr inbounds %"struct.google::protobuf::internal::InternalMetadata::Container", %"struct.google::protobuf::internal::InternalMetadata::Container"* %68, i64 0, i32 1
  %70 = bitcast %"class.std::__1::basic_string"* %69 to %"struct.std::__1::basic_string<char, std::__1::char_traits<char>, std::__1::allocator<char> >::__short"*
  %71 = getelementptr inbounds %"struct.std::__1::basic_string<char, std::__1::char_traits<char>, std::__1::allocator<char> >::__short", %"struct.std::__1::basic_string<char, std::__1::char_traits<char>, std::__1::allocator<char> >::__short"* %70, i64 0, i32 1, i32 0
  %72 = load i8, i8* %71, align 1
  %73 = icmp slt i8 %72, 0
  br i1 %73, label %74, label %79

74:                                               ; preds = %66
  %75 = getelementptr inbounds %"class.std::__1::basic_string", %"class.std::__1::basic_string"* %69, i64 0, i32 0, i32 0, i32 0, i32 0, i32 0, i32 0
  %76 = load i8*, i8** %75, align 8
  %77 = getelementptr inbounds %"struct.google::protobuf::internal::InternalMetadata::Container", %"struct.google::protobuf::internal::InternalMetadata::Container"* %68, i64 0, i32 1, i32 0, i32 0, i32 0, i32 0, i32 0, i32 1
  %78 = load i64, i64* %77, align 8
  br label %82

79:                                               ; preds = %66
  %80 = bitcast %"class.std::__1::basic_string"* %69 to i8*
  %81 = zext i8 %72 to i64
  br label %82

82:                                               ; preds = %74, %79
  %83 = phi i8* [ %76, %74 ], [ %80, %79 ]
  %84 = phi i64 [ %78, %74 ], [ %81, %79 ]
  %85 = bitcast %"class.google::protobuf::io::EpsCopyOutputStream"* %2 to i64*
  %86 = load i64, i64* %85, align 8
  %87 = ptrtoint i8* %60 to i64
  %88 = sub i64 %86, %87
  %89 = shl i64 %84, 32
  %90 = ashr exact i64 %89, 32
  %91 = icmp slt i64 %88, %90
  br i1 %91, label %92, label %95, !prof !5

92:                                               ; preds = %82
  %93 = trunc i64 %84 to i32
  %94 = tail call i8* @_ZN6google8protobuf2io19EpsCopyOutputStream16WriteRawFallbackEPKviPh(%"class.google::protobuf::io::EpsCopyOutputStream"* %2, i8* %83, i32 %93, i8* %60) #17
  br label %97

95:                                               ; preds = %82
  tail call void @llvm.memcpy.p0i8.p0i8.i64(i8* align 1 %60, i8* align 1 %83, i64 %90, i1 false) #17
  %96 = getelementptr inbounds i8, i8* %60, i64 %90
  br label %97

97:                                               ; preds = %59, %95, %92
  %98 = phi i8* [ %60, %59 ], [ %94, %92 ], [ %96, %95 ]
  ret i8* %98
}

; Function Attrs: nounwind ssp uwtable
define hidden i64 @_ZNK21segmentation_platform5proto21HistogramValueFeature12ByteSizeLongEv(%"class.segmentation_platform::proto::HistogramValueFeature"* nocapture) unnamed_addr #0 align 2 {
  %2 = getelementptr inbounds %"class.segmentation_platform::proto::HistogramValueFeature", %"class.segmentation_platform::proto::HistogramValueFeature"* %0, i64 0, i32 1, i32 0, i64 0
  %3 = load i32, i32* %2, align 4
  %4 = and i32 %3, 3
  %5 = icmp eq i32 %4, 0
  br i1 %5, label %36, label %6

6:                                                ; preds = %1
  %7 = and i32 %3, 1
  %8 = icmp eq i32 %7, 0
  br i1 %8, label %30, label %9

9:                                                ; preds = %6
  %10 = getelementptr inbounds %"class.segmentation_platform::proto::HistogramValueFeature", %"class.segmentation_platform::proto::HistogramValueFeature"* %0, i64 0, i32 3, i32 0
  %11 = load %"class.std::__1::basic_string"*, %"class.std::__1::basic_string"** %10, align 8
  %12 = bitcast %"class.std::__1::basic_string"* %11 to %"struct.std::__1::basic_string<char, std::__1::char_traits<char>, std::__1::allocator<char> >::__short"*
  %13 = getelementptr inbounds %"struct.std::__1::basic_string<char, std::__1::char_traits<char>, std::__1::allocator<char> >::__short", %"struct.std::__1::basic_string<char, std::__1::char_traits<char>, std::__1::allocator<char> >::__short"* %12, i64 0, i32 1, i32 0
  %14 = load i8, i8* %13, align 1
  %15 = icmp slt i8 %14, 0
  %16 = getelementptr inbounds %"class.std::__1::basic_string", %"class.std::__1::basic_string"* %11, i64 0, i32 0, i32 0, i32 0, i32 0, i32 0, i32 1
  %17 = load i64, i64* %16, align 8
  %18 = zext i8 %14 to i64
  %19 = select i1 %15, i64 %17, i64 %18
  %20 = trunc i64 %19 to i32
  %21 = or i32 %20, 1
  %22 = tail call i32 @llvm.ctlz.i32(i32 %21, i1 true) #17, !range !6
  %23 = xor i32 %22, 31
  %24 = mul nuw nsw i32 %23, 9
  %25 = add nuw nsw i32 %24, 73
  %26 = lshr i32 %25, 6
  %27 = zext i32 %26 to i64
  %28 = add i64 %19, 1
  %29 = add i64 %28, %27
  br label %30

30:                                               ; preds = %6, %9
  %31 = phi i64 [ %29, %9 ], [ 0, %6 ]
  %32 = and i32 %3, 2
  %33 = icmp eq i32 %32, 0
  %34 = add i64 %31, 9
  %35 = select i1 %33, i64 %31, i64 %34
  br label %36

36:                                               ; preds = %30, %1
  %37 = phi i64 [ 0, %1 ], [ %35, %30 ]
  %38 = getelementptr inbounds %"class.segmentation_platform::proto::HistogramValueFeature", %"class.segmentation_platform::proto::HistogramValueFeature"* %0, i64 0, i32 0, i32 1
  %39 = bitcast %"class.google::protobuf::internal::InternalMetadata"* %38 to i64*
  %40 = load i64, i64* %39, align 8
  %41 = and i64 %40, 1
  %42 = icmp eq i64 %41, 0
  br i1 %42, label %59, label %43, !prof !2

43:                                               ; preds = %36
  %44 = and i64 %40, -2
  %45 = inttoptr i64 %44 to %"struct.google::protobuf::internal::InternalMetadata::Container"*
  %46 = getelementptr inbounds %"struct.google::protobuf::internal::InternalMetadata::Container", %"struct.google::protobuf::internal::InternalMetadata::Container"* %45, i64 0, i32 1
  %47 = bitcast %"class.std::__1::basic_string"* %46 to %"struct.std::__1::basic_string<char, std::__1::char_traits<char>, std::__1::allocator<char> >::__short"*
  %48 = getelementptr inbounds %"struct.std::__1::basic_string<char, std::__1::char_traits<char>, std::__1::allocator<char> >::__short", %"struct.std::__1::basic_string<char, std::__1::char_traits<char>, std::__1::allocator<char> >::__short"* %47, i64 0, i32 1, i32 0
  %49 = load i8, i8* %48, align 1
  %50 = icmp slt i8 %49, 0
  br i1 %50, label %51, label %54

51:                                               ; preds = %43
  %52 = getelementptr inbounds %"struct.google::protobuf::internal::InternalMetadata::Container", %"struct.google::protobuf::internal::InternalMetadata::Container"* %45, i64 0, i32 1, i32 0, i32 0, i32 0, i32 0, i32 0, i32 1
  %53 = load i64, i64* %52, align 8
  br label %56

54:                                               ; preds = %43
  %55 = zext i8 %49 to i64
  br label %56

56:                                               ; preds = %51, %54
  %57 = phi i64 [ %53, %51 ], [ %55, %54 ]
  %58 = add i64 %57, %37
  br label %59

59:                                               ; preds = %36, %56
  %60 = phi i64 [ %58, %56 ], [ %37, %36 ]
  %61 = trunc i64 %60 to i32
  %62 = getelementptr inbounds %"class.segmentation_platform::proto::HistogramValueFeature", %"class.segmentation_platform::proto::HistogramValueFeature"* %0, i64 0, i32 2, i32 0, i32 0, i32 0, i32 0, i32 0, i32 0
  store atomic i32 %61, i32* %62 monotonic, align 4
  ret i64 %60
}

; Function Attrs: nounwind ssp uwtable
define hidden void @_ZN21segmentation_platform5proto21HistogramValueFeature21CheckTypeAndMergeFromERKN6google8protobuf11MessageLiteE(%"class.segmentation_platform::proto::HistogramValueFeature"*, %"class.google::protobuf::MessageLite"* nocapture readonly dereferenceable(16)) unnamed_addr #0 align 2 {
  %3 = bitcast %"class.google::protobuf::MessageLite"* %1 to %"class.segmentation_platform::proto::HistogramValueFeature"*
  tail call void @_ZN21segmentation_platform5proto21HistogramValueFeature9MergeFromERKS1_(%"class.segmentation_platform::proto::HistogramValueFeature"* %0, %"class.segmentation_platform::proto::HistogramValueFeature"* dereferenceable(40) %3)
  ret void
}

; Function Attrs: nounwind ssp uwtable
define hidden void @_ZN21segmentation_platform5proto21HistogramValueFeature9MergeFromERKS1_(%"class.segmentation_platform::proto::HistogramValueFeature"*, %"class.segmentation_platform::proto::HistogramValueFeature"* nocapture readonly dereferenceable(40)) local_unnamed_addr #0 align 2 {
  %3 = getelementptr inbounds %"class.segmentation_platform::proto::HistogramValueFeature", %"class.segmentation_platform::proto::HistogramValueFeature"* %0, i64 0, i32 0, i32 1
  %4 = getelementptr inbounds %"class.segmentation_platform::proto::HistogramValueFeature", %"class.segmentation_platform::proto::HistogramValueFeature"* %1, i64 0, i32 0, i32 1
  %5 = bitcast %"class.google::protobuf::internal::InternalMetadata"* %4 to i64*
  %6 = load i64, i64* %5, align 8
  %7 = and i64 %6, 1
  %8 = icmp eq i64 %7, 0
  br i1 %8, label %38, label %9

9:                                                ; preds = %2
  %10 = and i64 %6, -2
  %11 = inttoptr i64 %10 to %"struct.google::protobuf::internal::InternalMetadata::Container"*
  %12 = getelementptr inbounds %"struct.google::protobuf::internal::InternalMetadata::Container", %"struct.google::protobuf::internal::InternalMetadata::Container"* %11, i64 0, i32 1
  %13 = bitcast %"class.google::protobuf::internal::InternalMetadata"* %3 to i64*
  %14 = load i64, i64* %13, align 8
  %15 = and i64 %14, 1
  %16 = icmp eq i64 %15, 0
  br i1 %16, label %21, label %17, !prof !5

17:                                               ; preds = %9
  %18 = and i64 %14, -2
  %19 = inttoptr i64 %18 to %"struct.google::protobuf::internal::InternalMetadata::Container"*
  %20 = getelementptr inbounds %"struct.google::protobuf::internal::InternalMetadata::Container", %"struct.google::protobuf::internal::InternalMetadata::Container"* %19, i64 0, i32 1
  br label %23

21:                                               ; preds = %9
  %22 = tail call %"class.std::__1::basic_string"* @_ZN6google8protobuf8internal16InternalMetadata27mutable_unknown_fields_slowINSt3__112basic_stringIcNS4_11char_traitsIcEENS4_9allocatorIcEEEEEEPT_v(%"class.google::protobuf::internal::InternalMetadata"* %3) #17
  br label %23

23:                                               ; preds = %21, %17
  %24 = phi %"class.std::__1::basic_string"* [ %20, %17 ], [ %22, %21 ]
  %25 = bitcast %"class.std::__1::basic_string"* %12 to %"struct.std::__1::basic_string<char, std::__1::char_traits<char>, std::__1::allocator<char> >::__short"*
  %26 = getelementptr inbounds %"struct.std::__1::basic_string<char, std::__1::char_traits<char>, std::__1::allocator<char> >::__short", %"struct.std::__1::basic_string<char, std::__1::char_traits<char>, std::__1::allocator<char> >::__short"* %25, i64 0, i32 1, i32 0
  %27 = load i8, i8* %26, align 1
  %28 = icmp slt i8 %27, 0
  %29 = getelementptr inbounds %"class.std::__1::basic_string", %"class.std::__1::basic_string"* %12, i64 0, i32 0, i32 0, i32 0, i32 0, i32 0, i32 0
  %30 = load i8*, i8** %29, align 8
  %31 = getelementptr inbounds %"struct.google::protobuf::internal::InternalMetadata::Container", %"struct.google::protobuf::internal::InternalMetadata::Container"* %11, i64 0, i32 1, i32 0, i32 0, i32 0, i32 0, i32 0, i32 1
  %32 = load i64, i64* %31, align 8
  %33 = bitcast %"class.std::__1::basic_string"* %12 to i8*
  %34 = zext i8 %27 to i64
  %35 = select i1 %28, i8* %30, i8* %33
  %36 = select i1 %28, i64 %32, i64 %34
  %37 = tail call dereferenceable(24) %"class.std::__1::basic_string"* @_ZNSt3__112basic_stringIcNS_11char_traitsIcEENS_9allocatorIcEEE6appendEPKcm(%"class.std::__1::basic_string"* %24, i8* %35, i64 %36) #17
  br label %38

38:                                               ; preds = %2, %23
  %39 = getelementptr inbounds %"class.segmentation_platform::proto::HistogramValueFeature", %"class.segmentation_platform::proto::HistogramValueFeature"* %1, i64 0, i32 1, i32 0, i64 0
  %40 = load i32, i32* %39, align 4
  %41 = and i32 %40, 3
  %42 = icmp eq i32 %41, 0
  br i1 %42, label %112, label %43

43:                                               ; preds = %38
  %44 = and i32 %40, 1
  %45 = icmp eq i32 %44, 0
  br i1 %45, label %101, label %46

46:                                               ; preds = %43
  %47 = getelementptr inbounds %"class.segmentation_platform::proto::HistogramValueFeature", %"class.segmentation_platform::proto::HistogramValueFeature"* %1, i64 0, i32 3, i32 0
  %48 = load %"class.std::__1::basic_string"*, %"class.std::__1::basic_string"** %47, align 8
  %49 = getelementptr inbounds %"class.segmentation_platform::proto::HistogramValueFeature", %"class.segmentation_platform::proto::HistogramValueFeature"* %0, i64 0, i32 1, i32 0, i64 0
  %50 = load i32, i32* %49, align 4
  %51 = or i32 %50, 1
  store i32 %51, i32* %49, align 4
  %52 = getelementptr inbounds %"class.segmentation_platform::proto::HistogramValueFeature", %"class.segmentation_platform::proto::HistogramValueFeature"* %0, i64 0, i32 3
  %53 = bitcast %"class.google::protobuf::internal::InternalMetadata"* %3 to i64*
  %54 = load i64, i64* %53, align 8
  %55 = and i64 %54, 1
  %56 = icmp eq i64 %55, 0
  %57 = and i64 %54, -2
  br i1 %56, label %62, label %58, !prof !2

58:                                               ; preds = %46
  %59 = inttoptr i64 %57 to %"struct.google::protobuf::internal::InternalMetadata::ContainerBase"*
  %60 = getelementptr inbounds %"struct.google::protobuf::internal::InternalMetadata::ContainerBase", %"struct.google::protobuf::internal::InternalMetadata::ContainerBase"* %59, i64 0, i32 0
  %61 = load %"class.google::protobuf::Arena"*, %"class.google::protobuf::Arena"** %60, align 8
  br label %64

62:                                               ; preds = %46
  %63 = inttoptr i64 %57 to %"class.google::protobuf::Arena"*
  br label %64

64:                                               ; preds = %62, %58
  %65 = phi %"class.google::protobuf::Arena"* [ %61, %58 ], [ %63, %62 ]
  %66 = getelementptr inbounds %"struct.google::protobuf::internal::ArenaStringPtr", %"struct.google::protobuf::internal::ArenaStringPtr"* %52, i64 0, i32 0
  %67 = load %"class.std::__1::basic_string"*, %"class.std::__1::basic_string"** %66, align 8
  %68 = icmp eq %"class.std::__1::basic_string"* %67, bitcast (%"class.google::protobuf::internal::ExplicitlyConstructed.12"* @_ZN6google8protobuf8internal26fixed_address_empty_stringE to %"class.std::__1::basic_string"*)
  br i1 %68, label %69, label %70

69:                                               ; preds = %64
  tail call void @_ZN6google8protobuf8internal14ArenaStringPtr14CreateInstanceEPNS0_5ArenaEPKNSt3__112basic_stringIcNS5_11char_traitsIcEENS5_9allocatorIcEEEE(%"struct.google::protobuf::internal::ArenaStringPtr"* %52, %"class.google::protobuf::Arena"* %65, %"class.std::__1::basic_string"* %48) #17
  br label %101

70:                                               ; preds = %64
  %71 = icmp eq %"class.std::__1::basic_string"* %67, %48
  br i1 %71, label %101, label %72

72:                                               ; preds = %70
  %73 = bitcast %"class.std::__1::basic_string"* %67 to %"struct.std::__1::basic_string<char, std::__1::char_traits<char>, std::__1::allocator<char> >::__short"*
  %74 = getelementptr inbounds %"struct.std::__1::basic_string<char, std::__1::char_traits<char>, std::__1::allocator<char> >::__short", %"struct.std::__1::basic_string<char, std::__1::char_traits<char>, std::__1::allocator<char> >::__short"* %73, i64 0, i32 1, i32 0
  %75 = load i8, i8* %74, align 1
  %76 = icmp slt i8 %75, 0
  %77 = bitcast %"class.std::__1::basic_string"* %48 to %"struct.std::__1::basic_string<char, std::__1::char_traits<char>, std::__1::allocator<char> >::__short"*
  %78 = getelementptr inbounds %"struct.std::__1::basic_string<char, std::__1::char_traits<char>, std::__1::allocator<char> >::__short", %"struct.std::__1::basic_string<char, std::__1::char_traits<char>, std::__1::allocator<char> >::__short"* %77, i64 0, i32 1, i32 0
  %79 = load i8, i8* %78, align 1
  %80 = icmp slt i8 %79, 0
  br i1 %76, label %91, label %81

81:                                               ; preds = %72
  br i1 %80, label %85, label %82

82:                                               ; preds = %81
  %83 = bitcast %"class.std::__1::basic_string"* %67 to i8*
  %84 = bitcast %"class.std::__1::basic_string"* %48 to i8*
  tail call void @llvm.memcpy.p0i8.p0i8.i64(i8* align 8 %83, i8* align 8 %84, i64 24, i1 false) #17
  br label %101

85:                                               ; preds = %81
  %86 = getelementptr inbounds %"class.std::__1::basic_string", %"class.std::__1::basic_string"* %48, i64 0, i32 0, i32 0, i32 0, i32 0, i32 0, i32 0
  %87 = load i8*, i8** %86, align 8
  %88 = getelementptr inbounds %"class.std::__1::basic_string", %"class.std::__1::basic_string"* %48, i64 0, i32 0, i32 0, i32 0, i32 0, i32 0, i32 1
  %89 = load i64, i64* %88, align 8
  %90 = tail call dereferenceable(24) %"class.std::__1::basic_string"* @_ZNSt3__112basic_stringIcNS_11char_traitsIcEENS_9allocatorIcEEE17__assign_no_aliasILb1EEERS5_PKcm(%"class.std::__1::basic_string"* %67, i8* %87, i64 %89) #17
  br label %101

91:                                               ; preds = %72
  %92 = getelementptr inbounds %"class.std::__1::basic_string", %"class.std::__1::basic_string"* %48, i64 0, i32 0, i32 0, i32 0, i32 0, i32 0, i32 0
  %93 = load i8*, i8** %92, align 8
  %94 = getelementptr inbounds %"class.std::__1::basic_string", %"class.std::__1::basic_string"* %48, i64 0, i32 0, i32 0, i32 0, i32 0, i32 0, i32 1
  %95 = load i64, i64* %94, align 8
  %96 = bitcast %"class.std::__1::basic_string"* %48 to i8*
  %97 = zext i8 %79 to i64
  %98 = select i1 %80, i8* %93, i8* %96
  %99 = select i1 %80, i64 %95, i64 %97
  %100 = tail call dereferenceable(24) %"class.std::__1::basic_string"* @_ZNSt3__112basic_stringIcNS_11char_traitsIcEENS_9allocatorIcEEE17__assign_no_aliasILb0EEERS5_PKcm(%"class.std::__1::basic_string"* %67, i8* %98, i64 %99) #17
  br label %101

101:                                              ; preds = %91, %85, %82, %70, %69, %43
  %102 = and i32 %40, 2
  %103 = icmp eq i32 %102, 0
  br i1 %103, label %108, label %104

104:                                              ; preds = %101
  %105 = getelementptr inbounds %"class.segmentation_platform::proto::HistogramValueFeature", %"class.segmentation_platform::proto::HistogramValueFeature"* %1, i64 0, i32 4
  %106 = load i64, i64* %105, align 8
  %107 = getelementptr inbounds %"class.segmentation_platform::proto::HistogramValueFeature", %"class.segmentation_platform::proto::HistogramValueFeature"* %0, i64 0, i32 4
  store i64 %106, i64* %107, align 8
  br label %108

108:                                              ; preds = %101, %104
  %109 = getelementptr inbounds %"class.segmentation_platform::proto::HistogramValueFeature", %"class.segmentation_platform::proto::HistogramValueFeature"* %0, i64 0, i32 1, i32 0, i64 0
  %110 = load i32, i32* %109, align 4
  %111 = or i32 %110, %40
  store i32 %111, i32* %109, align 4
  br label %112

112:                                              ; preds = %38, %108
  ret void
}

; Function Attrs: nounwind ssp uwtable
define hidden void @_ZN21segmentation_platform5proto21HistogramValueFeature8CopyFromERKS1_(%"class.segmentation_platform::proto::HistogramValueFeature"*, %"class.segmentation_platform::proto::HistogramValueFeature"* readonly dereferenceable(40)) local_unnamed_addr #0 align 2 {
  %3 = icmp eq %"class.segmentation_platform::proto::HistogramValueFeature"* %1, %0
  br i1 %3, label %44, label %4

4:                                                ; preds = %2
  %5 = getelementptr inbounds %"class.segmentation_platform::proto::HistogramValueFeature", %"class.segmentation_platform::proto::HistogramValueFeature"* %0, i64 0, i32 1, i32 0, i64 0
  %6 = load i32, i32* %5, align 4
  %7 = and i32 %6, 1
  %8 = icmp eq i32 %7, 0
  br i1 %8, label %22, label %9

9:                                                ; preds = %4
  %10 = getelementptr inbounds %"class.segmentation_platform::proto::HistogramValueFeature", %"class.segmentation_platform::proto::HistogramValueFeature"* %0, i64 0, i32 3, i32 0
  %11 = load %"class.std::__1::basic_string"*, %"class.std::__1::basic_string"** %10, align 8
  %12 = bitcast %"class.std::__1::basic_string"* %11 to %"struct.std::__1::basic_string<char, std::__1::char_traits<char>, std::__1::allocator<char> >::__short"*
  %13 = getelementptr inbounds %"struct.std::__1::basic_string<char, std::__1::char_traits<char>, std::__1::allocator<char> >::__short", %"struct.std::__1::basic_string<char, std::__1::char_traits<char>, std::__1::allocator<char> >::__short"* %12, i64 0, i32 1, i32 0
  %14 = load i8, i8* %13, align 1
  %15 = icmp slt i8 %14, 0
  br i1 %15, label %16, label %20

16:                                               ; preds = %9
  %17 = getelementptr inbounds %"class.std::__1::basic_string", %"class.std::__1::basic_string"* %11, i64 0, i32 0, i32 0, i32 0, i32 0, i32 0, i32 0
  %18 = load i8*, i8** %17, align 8
  store i8 0, i8* %18, align 1
  %19 = getelementptr inbounds %"class.std::__1::basic_string", %"class.std::__1::basic_string"* %11, i64 0, i32 0, i32 0, i32 0, i32 0, i32 0, i32 1
  store i64 0, i64* %19, align 8
  br label %22

20:                                               ; preds = %9
  %21 = bitcast %"class.std::__1::basic_string"* %11 to i8*
  store i8 0, i8* %21, align 1
  store i8 0, i8* %13, align 1
  br label %22

22:                                               ; preds = %20, %16, %4
  %23 = getelementptr inbounds %"class.segmentation_platform::proto::HistogramValueFeature", %"class.segmentation_platform::proto::HistogramValueFeature"* %0, i64 0, i32 4
  store i64 0, i64* %23, align 8
  store i32 0, i32* %5, align 4
  %24 = getelementptr inbounds %"class.segmentation_platform::proto::HistogramValueFeature", %"class.segmentation_platform::proto::HistogramValueFeature"* %0, i64 0, i32 0, i32 1
  %25 = bitcast %"class.google::protobuf::internal::InternalMetadata"* %24 to i64*
  %26 = load i64, i64* %25, align 8
  %27 = and i64 %26, 1
  %28 = icmp eq i64 %27, 0
  br i1 %28, label %43, label %29

29:                                               ; preds = %22
  %30 = and i64 %26, -2
  %31 = inttoptr i64 %30 to %"struct.google::protobuf::internal::InternalMetadata::Container"*
  %32 = getelementptr inbounds %"struct.google::protobuf::internal::InternalMetadata::Container", %"struct.google::protobuf::internal::InternalMetadata::Container"* %31, i64 0, i32 1
  %33 = bitcast %"class.std::__1::basic_string"* %32 to %"struct.std::__1::basic_string<char, std::__1::char_traits<char>, std::__1::allocator<char> >::__short"*
  %34 = getelementptr inbounds %"struct.std::__1::basic_string<char, std::__1::char_traits<char>, std::__1::allocator<char> >::__short", %"struct.std::__1::basic_string<char, std::__1::char_traits<char>, std::__1::allocator<char> >::__short"* %33, i64 0, i32 1, i32 0
  %35 = load i8, i8* %34, align 1
  %36 = icmp slt i8 %35, 0
  br i1 %36, label %37, label %41

37:                                               ; preds = %29
  %38 = getelementptr inbounds %"class.std::__1::basic_string", %"class.std::__1::basic_string"* %32, i64 0, i32 0, i32 0, i32 0, i32 0, i32 0, i32 0
  %39 = load i8*, i8** %38, align 8
  store i8 0, i8* %39, align 1
  %40 = getelementptr inbounds %"struct.google::protobuf::internal::InternalMetadata::Container", %"struct.google::protobuf::internal::InternalMetadata::Container"* %31, i64 0, i32 1, i32 0, i32 0, i32 0, i32 0, i32 0, i32 1
  store i64 0, i64* %40, align 8
  br label %43

41:                                               ; preds = %29
  %42 = bitcast %"class.std::__1::basic_string"* %32 to i8*
  store i8 0, i8* %42, align 2
  store i8 0, i8* %34, align 1
  br label %43

43:                                               ; preds = %22, %37, %41
  tail call void @_ZN21segmentation_platform5proto21HistogramValueFeature9MergeFromERKS1_(%"class.segmentation_platform::proto::HistogramValueFeature"* %0, %"class.segmentation_platform::proto::HistogramValueFeature"* dereferenceable(40) %1)
  br label %44

44:                                               ; preds = %2, %43
  ret void
}

; Function Attrs: norecurse nounwind readnone ssp uwtable
define hidden zeroext i1 @_ZNK21segmentation_platform5proto21HistogramValueFeature13IsInitializedEv(%"class.segmentation_platform::proto::HistogramValueFeature"* nocapture readnone) unnamed_addr #1 align 2 {
  ret i1 true
}

; Function Attrs: nounwind ssp uwtable
define hidden void @_ZN21segmentation_platform5proto21HistogramValueFeature12InternalSwapEPS1_(%"class.segmentation_platform::proto::HistogramValueFeature"*, %"class.segmentation_platform::proto::HistogramValueFeature"*) local_unnamed_addr #0 align 2 {
  %3 = getelementptr inbounds %"class.segmentation_platform::proto::HistogramValueFeature", %"class.segmentation_platform::proto::HistogramValueFeature"* %0, i64 0, i32 0, i32 1
  %4 = getelementptr inbounds %"class.segmentation_platform::proto::HistogramValueFeature", %"class.segmentation_platform::proto::HistogramValueFeature"* %1, i64 0, i32 0, i32 1
  %5 = bitcast %"class.google::protobuf::internal::InternalMetadata"* %3 to i64*
  %6 = load i64, i64* %5, align 8
  %7 = bitcast %"class.google::protobuf::internal::InternalMetadata"* %4 to i64*
  %8 = load i64, i64* %7, align 8
  %9 = or i64 %8, %6
  %10 = and i64 %9, 1
  %11 = icmp eq i64 %10, 0
  br i1 %11, label %43, label %12

12:                                               ; preds = %2
  %13 = and i64 %8, 1
  %14 = icmp eq i64 %13, 0
  br i1 %14, label %19, label %15, !prof !5

15:                                               ; preds = %12
  %16 = and i64 %8, -2
  %17 = inttoptr i64 %16 to %"struct.google::protobuf::internal::InternalMetadata::Container"*
  %18 = getelementptr inbounds %"struct.google::protobuf::internal::InternalMetadata::Container", %"struct.google::protobuf::internal::InternalMetadata::Container"* %17, i64 0, i32 1
  br label %22

19:                                               ; preds = %12
  %20 = tail call %"class.std::__1::basic_string"* @_ZN6google8protobuf8internal16InternalMetadata27mutable_unknown_fields_slowINSt3__112basic_stringIcNS4_11char_traitsIcEENS4_9allocatorIcEEEEEEPT_v(%"class.google::protobuf::internal::InternalMetadata"* %4) #17
  %21 = load i64, i64* %5, align 8
  br label %22

22:                                               ; preds = %19, %15
  %23 = phi i64 [ %6, %15 ], [ %21, %19 ]
  %24 = phi %"class.std::__1::basic_string"* [ %18, %15 ], [ %20, %19 ]
  %25 = and i64 %23, 1
  %26 = icmp eq i64 %25, 0
  br i1 %26, label %31, label %27, !prof !5

27:                                               ; preds = %22
  %28 = and i64 %23, -2
  %29 = inttoptr i64 %28 to %"struct.google::protobuf::internal::InternalMetadata::Container"*
  %30 = getelementptr inbounds %"struct.google::protobuf::internal::InternalMetadata::Container", %"struct.google::protobuf::internal::InternalMetadata::Container"* %29, i64 0, i32 1
  br label %33

31:                                               ; preds = %22
  %32 = tail call %"class.std::__1::basic_string"* @_ZN6google8protobuf8internal16InternalMetadata27mutable_unknown_fields_slowINSt3__112basic_stringIcNS4_11char_traitsIcEENS4_9allocatorIcEEEEEEPT_v(%"class.google::protobuf::internal::InternalMetadata"* %3) #17
  br label %33

33:                                               ; preds = %31, %27
  %34 = phi %"class.std::__1::basic_string"* [ %30, %27 ], [ %32, %31 ]
  %35 = bitcast %"class.std::__1::basic_string"* %34 to <2 x i64>*
  %36 = load <2 x i64>, <2 x i64>* %35, align 8
  %37 = getelementptr inbounds %"class.std::__1::basic_string", %"class.std::__1::basic_string"* %34, i64 0, i32 0, i32 0, i32 0, i32 0, i32 0, i32 2
  %38 = load i64, i64* %37, align 8
  %39 = bitcast %"class.std::__1::basic_string"* %34 to i8*
  %40 = bitcast %"class.std::__1::basic_string"* %24 to i8*
  tail call void @llvm.memcpy.p0i8.p0i8.i64(i8* align 8 %39, i8* align 8 %40, i64 24, i1 false) #17
  %41 = bitcast %"class.std::__1::basic_string"* %24 to <2 x i64>*
  store <2 x i64> %36, <2 x i64>* %41, align 8
  %42 = getelementptr inbounds %"class.std::__1::basic_string", %"class.std::__1::basic_string"* %24, i64 0, i32 0, i32 0, i32 0, i32 0, i32 0, i32 2
  store i64 %38, i64* %42, align 8
  br label %43

43:                                               ; preds = %2, %33
  %44 = getelementptr inbounds %"class.segmentation_platform::proto::HistogramValueFeature", %"class.segmentation_platform::proto::HistogramValueFeature"* %0, i64 0, i32 1, i32 0, i64 0
  %45 = getelementptr inbounds %"class.segmentation_platform::proto::HistogramValueFeature", %"class.segmentation_platform::proto::HistogramValueFeature"* %1, i64 0, i32 1, i32 0, i64 0
  %46 = load i32, i32* %44, align 4
  %47 = load i32, i32* %45, align 4
  store i32 %47, i32* %44, align 4
  store i32 %46, i32* %45, align 4
  %48 = getelementptr inbounds %"class.segmentation_platform::proto::HistogramValueFeature", %"class.segmentation_platform::proto::HistogramValueFeature"* %0, i64 0, i32 3
  %49 = getelementptr inbounds %"class.segmentation_platform::proto::HistogramValueFeature", %"class.segmentation_platform::proto::HistogramValueFeature"* %1, i64 0, i32 3
  %50 = bitcast %"struct.google::protobuf::internal::ArenaStringPtr"* %48 to i64*
  %51 = load i64, i64* %50, align 8
  %52 = bitcast %"struct.google::protobuf::internal::ArenaStringPtr"* %49 to i64*
  %53 = load i64, i64* %52, align 8
  store i64 %53, i64* %50, align 8
  store i64 %51, i64* %52, align 8
  %54 = getelementptr inbounds %"class.segmentation_platform::proto::HistogramValueFeature", %"class.segmentation_platform::proto::HistogramValueFeature"* %0, i64 0, i32 4
  %55 = getelementptr inbounds %"class.segmentation_platform::proto::HistogramValueFeature", %"class.segmentation_platform::proto::HistogramValueFeature"* %1, i64 0, i32 4
  %56 = load i64, i64* %54, align 8
  %57 = load i64, i64* %55, align 8
  store i64 %57, i64* %54, align 8
  store i64 %56, i64* %55, align 8
  ret void
}

; Function Attrs: nounwind ssp uwtable
define hidden void @_ZNK21segmentation_platform5proto21HistogramValueFeature11GetTypeNameEv(%"class.std::__1::basic_string"* noalias sret, %"class.segmentation_platform::proto::HistogramValueFeature"* nocapture readnone) unnamed_addr #0 align 2 {
  %3 = tail call i8* @_Znwm(i64 64) #18
  %4 = getelementptr inbounds %"class.std::__1::basic_string", %"class.std::__1::basic_string"* %0, i64 0, i32 0, i32 0, i32 0, i32 0, i32 0, i32 0
  store i8* %3, i8** %4, align 8
  %5 = getelementptr inbounds %"class.std::__1::basic_string", %"class.std::__1::basic_string"* %0, i64 0, i32 0, i32 0, i32 0, i32 0, i32 0, i32 1
  %6 = bitcast i64* %5 to <2 x i64>*
  store <2 x i64> <i64 49, i64 -9223372036854775744>, <2 x i64>* %6, align 8
  tail call void @llvm.memcpy.p0i8.p0i8.i64(i8* nonnull align 1 %3, i8* align 1 getelementptr inbounds ([50 x i8], [50 x i8]* @.str.7, i64 0, i64 0), i64 49, i1 false) #17
  %7 = getelementptr inbounds i8, i8* %3, i64 49
  store i8 0, i8* %7, align 1
  ret void
}

; Function Attrs: nounwind ssp uwtable
define hidden void @_ZN21segmentation_platform5proto20HistogramEnumFeatureC2EPN6google8protobuf5ArenaE(%"class.segmentation_platform::proto::HistogramEnumFeature"* nocapture, %"class.google::protobuf::Arena"*) unnamed_addr #0 align 2 {
  %3 = getelementptr inbounds %"class.segmentation_platform::proto::HistogramEnumFeature", %"class.segmentation_platform::proto::HistogramEnumFeature"* %0, i64 0, i32 0, i32 0
  %4 = getelementptr inbounds %"class.segmentation_platform::proto::HistogramEnumFeature", %"class.segmentation_platform::proto::HistogramEnumFeature"* %0, i64 0, i32 0, i32 1
  %5 = bitcast %"class.google::protobuf::internal::InternalMetadata"* %4 to %"class.google::protobuf::Arena"**
  store %"class.google::protobuf::Arena"* %1, %"class.google::protobuf::Arena"** %5, align 8
  store i32 (...)** bitcast (i8** getelementptr inbounds ({ [16 x i8*] }, { [16 x i8*] }* @_ZTVN21segmentation_platform5proto20HistogramEnumFeatureE, i64 0, inrange i32 0, i64 2) to i32 (...)**), i32 (...)*** %3, align 8
  %6 = getelementptr inbounds %"class.segmentation_platform::proto::HistogramEnumFeature", %"class.segmentation_platform::proto::HistogramEnumFeature"* %0, i64 0, i32 1, i32 0, i64 0
  %7 = getelementptr inbounds %"class.segmentation_platform::proto::HistogramEnumFeature", %"class.segmentation_platform::proto::HistogramEnumFeature"* %0, i64 0, i32 3, i32 2
  %8 = bitcast i8** %7 to %"class.google::protobuf::Arena"**
  %9 = bitcast i32* %6 to i8*
  call void @llvm.memset.p0i8.i64(i8* align 4 %9, i8 0, i64 16, i1 false)
  store %"class.google::protobuf::Arena"* %1, %"class.google::protobuf::Arena"** %8, align 8
  %10 = load atomic i32, i32* getelementptr inbounds ({ { { { i32 } }, i32, i32, void ()* }, [0 x i8*] }, { { { { i32 } }, i32, i32, void ()* }, [0 x i8*] }* @scc_info_HistogramEnumFeature_components_2fsegmentation_5fplatform_2finternal_2fproto_2fmodel_5fmetadata_2eproto, i64 0, i32 0, i32 0, i32 0, i32 0) acquire, align 8
  %11 = icmp eq i32 %10, 0
  br i1 %11, label %13, label %12, !prof !2

12:                                               ; preds = %2
  tail call void @_ZN6google8protobuf8internal11InitSCCImplEPNS1_11SCCInfoBaseE(%"struct.google::protobuf::internal::SCCInfoBase"* bitcast ({ { { { i32 } }, i32, i32, void ()* }, [0 x i8*] }* @scc_info_HistogramEnumFeature_components_2fsegmentation_5fplatform_2finternal_2fproto_2fmodel_5fmetadata_2eproto to %"struct.google::protobuf::internal::SCCInfoBase"*)) #17
  br label %13

13:                                               ; preds = %2, %12
  %14 = getelementptr inbounds %"class.segmentation_platform::proto::HistogramEnumFeature", %"class.segmentation_platform::proto::HistogramEnumFeature"* %0, i64 0, i32 4, i32 0
  store %"class.std::__1::basic_string"* bitcast (%"class.google::protobuf::internal::ExplicitlyConstructed.12"* @_ZN6google8protobuf8internal26fixed_address_empty_stringE to %"class.std::__1::basic_string"*), %"class.std::__1::basic_string"** %14, align 8
  %15 = getelementptr inbounds %"class.segmentation_platform::proto::HistogramEnumFeature", %"class.segmentation_platform::proto::HistogramEnumFeature"* %0, i64 0, i32 5
  store i64 0, i64* %15, align 8
  ret void
}

; Function Attrs: nounwind ssp uwtable
define hidden void @_ZN21segmentation_platform5proto20HistogramEnumFeatureC2ERKS1_(%"class.segmentation_platform::proto::HistogramEnumFeature"*, %"class.segmentation_platform::proto::HistogramEnumFeature"* nocapture readonly dereferenceable(56)) unnamed_addr #0 align 2 {
  %3 = getelementptr inbounds %"class.segmentation_platform::proto::HistogramEnumFeature", %"class.segmentation_platform::proto::HistogramEnumFeature"* %0, i64 0, i32 0, i32 0
  %4 = getelementptr inbounds %"class.segmentation_platform::proto::HistogramEnumFeature", %"class.segmentation_platform::proto::HistogramEnumFeature"* %0, i64 0, i32 0, i32 1, i32 0
  store i8* null, i8** %4, align 8
  store i32 (...)** bitcast (i8** getelementptr inbounds ({ [16 x i8*] }, { [16 x i8*] }* @_ZTVN21segmentation_platform5proto20HistogramEnumFeatureE, i64 0, inrange i32 0, i64 2) to i32 (...)**), i32 (...)*** %3, align 8
  %5 = getelementptr inbounds %"class.segmentation_platform::proto::HistogramEnumFeature", %"class.segmentation_platform::proto::HistogramEnumFeature"* %1, i64 0, i32 1, i32 0, i64 0
  %6 = getelementptr inbounds %"class.segmentation_platform::proto::HistogramEnumFeature", %"class.segmentation_platform::proto::HistogramEnumFeature"* %0, i64 0, i32 1, i32 0, i64 0
  %7 = load i32, i32* %5, align 8
  store i32 %7, i32* %6, align 8
  %8 = getelementptr inbounds %"class.segmentation_platform::proto::HistogramEnumFeature", %"class.segmentation_platform::proto::HistogramEnumFeature"* %0, i64 0, i32 2, i32 0, i32 0, i32 0, i32 0, i32 0, i32 0
  %9 = getelementptr inbounds %"class.segmentation_platform::proto::HistogramEnumFeature", %"class.segmentation_platform::proto::HistogramEnumFeature"* %0, i64 0, i32 3
  %10 = getelementptr inbounds %"class.google::protobuf::RepeatedField", %"class.google::protobuf::RepeatedField"* %9, i64 0, i32 0
  %11 = getelementptr inbounds %"class.segmentation_platform::proto::HistogramEnumFeature", %"class.segmentation_platform::proto::HistogramEnumFeature"* %1, i64 0, i32 3, i32 0
  %12 = bitcast i32* %8 to i8*
  call void @llvm.memset.p0i8.i64(i8* align 4 %12, i8 0, i64 20, i1 false)
  %13 = load i32, i32* %11, align 8
  %14 = icmp eq i32 %13, 0
  br i1 %14, label %26, label %15

15:                                               ; preds = %2
  %16 = getelementptr inbounds %"class.segmentation_platform::proto::HistogramEnumFeature", %"class.segmentation_platform::proto::HistogramEnumFeature"* %0, i64 0, i32 3, i32 2
  tail call void @_ZN6google8protobuf13RepeatedFieldIiE7ReserveEi(%"class.google::protobuf::RepeatedField"* %9, i32 %13) #17
  %17 = load i32, i32* %11, align 8
  %18 = load i8*, i8** %16, align 8
  %19 = load i32, i32* %10, align 8
  %20 = add nsw i32 %19, %17
  store i32 %20, i32* %10, align 8
  %21 = getelementptr inbounds %"class.segmentation_platform::proto::HistogramEnumFeature", %"class.segmentation_platform::proto::HistogramEnumFeature"* %1, i64 0, i32 3, i32 2
  %22 = load i8*, i8** %21, align 8
  %23 = load i32, i32* %11, align 8
  %24 = sext i32 %23 to i64
  %25 = shl nsw i64 %24, 2
  tail call void @llvm.memcpy.p0i8.p0i8.i64(i8* align 4 %18, i8* align 4 %22, i64 %25, i1 false) #17
  br label %26

26:                                               ; preds = %2, %15
  %27 = getelementptr inbounds %"class.segmentation_platform::proto::HistogramEnumFeature", %"class.segmentation_platform::proto::HistogramEnumFeature"* %0, i64 0, i32 0, i32 1
  %28 = getelementptr inbounds %"class.segmentation_platform::proto::HistogramEnumFeature", %"class.segmentation_platform::proto::HistogramEnumFeature"* %1, i64 0, i32 0, i32 1
  %29 = bitcast %"class.google::protobuf::internal::InternalMetadata"* %28 to i64*
  %30 = load i64, i64* %29, align 8
  %31 = and i64 %30, 1
  %32 = icmp eq i64 %31, 0
  br i1 %32, label %62, label %33

33:                                               ; preds = %26
  %34 = and i64 %30, -2
  %35 = inttoptr i64 %34 to %"struct.google::protobuf::internal::InternalMetadata::Container"*
  %36 = getelementptr inbounds %"struct.google::protobuf::internal::InternalMetadata::Container", %"struct.google::protobuf::internal::InternalMetadata::Container"* %35, i64 0, i32 1
  %37 = bitcast %"class.google::protobuf::internal::InternalMetadata"* %27 to i64*
  %38 = load i64, i64* %37, align 8
  %39 = and i64 %38, 1
  %40 = icmp eq i64 %39, 0
  br i1 %40, label %45, label %41, !prof !5

41:                                               ; preds = %33
  %42 = and i64 %38, -2
  %43 = inttoptr i64 %42 to %"struct.google::protobuf::internal::InternalMetadata::Container"*
  %44 = getelementptr inbounds %"struct.google::protobuf::internal::InternalMetadata::Container", %"struct.google::protobuf::internal::InternalMetadata::Container"* %43, i64 0, i32 1
  br label %47

45:                                               ; preds = %33
  %46 = tail call %"class.std::__1::basic_string"* @_ZN6google8protobuf8internal16InternalMetadata27mutable_unknown_fields_slowINSt3__112basic_stringIcNS4_11char_traitsIcEENS4_9allocatorIcEEEEEEPT_v(%"class.google::protobuf::internal::InternalMetadata"* %27) #17
  br label %47

47:                                               ; preds = %45, %41
  %48 = phi %"class.std::__1::basic_string"* [ %44, %41 ], [ %46, %45 ]
  %49 = bitcast %"class.std::__1::basic_string"* %36 to %"struct.std::__1::basic_string<char, std::__1::char_traits<char>, std::__1::allocator<char> >::__short"*
  %50 = getelementptr inbounds %"struct.std::__1::basic_string<char, std::__1::char_traits<char>, std::__1::allocator<char> >::__short", %"struct.std::__1::basic_string<char, std::__1::char_traits<char>, std::__1::allocator<char> >::__short"* %49, i64 0, i32 1, i32 0
  %51 = load i8, i8* %50, align 1
  %52 = icmp slt i8 %51, 0
  %53 = getelementptr inbounds %"class.std::__1::basic_string", %"class.std::__1::basic_string"* %36, i64 0, i32 0, i32 0, i32 0, i32 0, i32 0, i32 0
  %54 = load i8*, i8** %53, align 8
  %55 = getelementptr inbounds %"struct.google::protobuf::internal::InternalMetadata::Container", %"struct.google::protobuf::internal::InternalMetadata::Container"* %35, i64 0, i32 1, i32 0, i32 0, i32 0, i32 0, i32 0, i32 1
  %56 = load i64, i64* %55, align 8
  %57 = bitcast %"class.std::__1::basic_string"* %36 to i8*
  %58 = zext i8 %51 to i64
  %59 = select i1 %52, i8* %54, i8* %57
  %60 = select i1 %52, i64 %56, i64 %58
  %61 = tail call dereferenceable(24) %"class.std::__1::basic_string"* @_ZNSt3__112basic_stringIcNS_11char_traitsIcEENS_9allocatorIcEEE6appendEPKcm(%"class.std::__1::basic_string"* %48, i8* %59, i64 %60) #17
  br label %62

62:                                               ; preds = %26, %47
  %63 = getelementptr inbounds %"class.segmentation_platform::proto::HistogramEnumFeature", %"class.segmentation_platform::proto::HistogramEnumFeature"* %0, i64 0, i32 4
  %64 = getelementptr inbounds %"struct.google::protobuf::internal::ArenaStringPtr", %"struct.google::protobuf::internal::ArenaStringPtr"* %63, i64 0, i32 0
  store %"class.std::__1::basic_string"* bitcast (%"class.google::protobuf::internal::ExplicitlyConstructed.12"* @_ZN6google8protobuf8internal26fixed_address_empty_stringE to %"class.std::__1::basic_string"*), %"class.std::__1::basic_string"** %64, align 8
  %65 = load i32, i32* %5, align 4
  %66 = and i32 %65, 1
  %67 = icmp eq i32 %66, 0
  br i1 %67, label %84, label %68

68:                                               ; preds = %62
  %69 = getelementptr inbounds %"class.segmentation_platform::proto::HistogramEnumFeature", %"class.segmentation_platform::proto::HistogramEnumFeature"* %1, i64 0, i32 4, i32 0
  %70 = load %"class.std::__1::basic_string"*, %"class.std::__1::basic_string"** %69, align 8
  %71 = bitcast %"class.google::protobuf::internal::InternalMetadata"* %27 to i64*
  %72 = load i64, i64* %71, align 8
  %73 = and i64 %72, 1
  %74 = icmp eq i64 %73, 0
  %75 = and i64 %72, -2
  br i1 %74, label %80, label %76, !prof !2

76:                                               ; preds = %68
  %77 = inttoptr i64 %75 to %"struct.google::protobuf::internal::InternalMetadata::ContainerBase"*
  %78 = getelementptr inbounds %"struct.google::protobuf::internal::InternalMetadata::ContainerBase", %"struct.google::protobuf::internal::InternalMetadata::ContainerBase"* %77, i64 0, i32 0
  %79 = load %"class.google::protobuf::Arena"*, %"class.google::protobuf::Arena"** %78, align 8
  br label %82

80:                                               ; preds = %68
  %81 = inttoptr i64 %75 to %"class.google::protobuf::Arena"*
  br label %82

82:                                               ; preds = %76, %80
  %83 = phi %"class.google::protobuf::Arena"* [ %79, %76 ], [ %81, %80 ]
  tail call void @_ZN6google8protobuf8internal14ArenaStringPtr14CreateInstanceEPNS0_5ArenaEPKNSt3__112basic_stringIcNS5_11char_traitsIcEENS5_9allocatorIcEEEE(%"struct.google::protobuf::internal::ArenaStringPtr"* %63, %"class.google::protobuf::Arena"* %83, %"class.std::__1::basic_string"* %70) #17
  br label %84

84:                                               ; preds = %62, %82
  %85 = getelementptr inbounds %"class.segmentation_platform::proto::HistogramEnumFeature", %"class.segmentation_platform::proto::HistogramEnumFeature"* %1, i64 0, i32 5
  %86 = load i64, i64* %85, align 8
  %87 = getelementptr inbounds %"class.segmentation_platform::proto::HistogramEnumFeature", %"class.segmentation_platform::proto::HistogramEnumFeature"* %0, i64 0, i32 5
  store i64 %86, i64* %87, align 8
  ret void
}

; Function Attrs: nounwind ssp uwtable
define hidden void @_ZN21segmentation_platform5proto20HistogramEnumFeatureD2Ev(%"class.segmentation_platform::proto::HistogramEnumFeature"*) unnamed_addr #0 align 2 {
  %2 = getelementptr inbounds %"class.segmentation_platform::proto::HistogramEnumFeature", %"class.segmentation_platform::proto::HistogramEnumFeature"* %0, i64 0, i32 0, i32 0
  store i32 (...)** bitcast (i8** getelementptr inbounds ({ [16 x i8*] }, { [16 x i8*] }* @_ZTVN21segmentation_platform5proto20HistogramEnumFeatureE, i64 0, inrange i32 0, i64 2) to i32 (...)**), i32 (...)*** %2, align 8
  %3 = getelementptr inbounds %"class.segmentation_platform::proto::HistogramEnumFeature", %"class.segmentation_platform::proto::HistogramEnumFeature"* %0, i64 0, i32 4
  tail call void @_ZN6google8protobuf8internal14ArenaStringPtr14DestroyNoArenaEPKNSt3__112basic_stringIcNS3_11char_traitsIcEENS3_9allocatorIcEEEE(%"struct.google::protobuf::internal::ArenaStringPtr"* %3, %"class.std::__1::basic_string"* bitcast (%"class.google::protobuf::internal::ExplicitlyConstructed.12"* @_ZN6google8protobuf8internal26fixed_address_empty_stringE to %"class.std::__1::basic_string"*)) #17
  %4 = getelementptr inbounds %"class.segmentation_platform::proto::HistogramEnumFeature", %"class.segmentation_platform::proto::HistogramEnumFeature"* %0, i64 0, i32 0, i32 1
  %5 = bitcast %"class.google::protobuf::internal::InternalMetadata"* %4 to i64*
  %6 = load i64, i64* %5, align 8
  %7 = and i64 %6, 1
  %8 = icmp eq i64 %7, 0
  br i1 %8, label %29, label %9

9:                                                ; preds = %1
  %10 = and i64 %6, -2
  %11 = inttoptr i64 %10 to %"struct.google::protobuf::internal::InternalMetadata::ContainerBase"*
  %12 = getelementptr inbounds %"struct.google::protobuf::internal::InternalMetadata::ContainerBase", %"struct.google::protobuf::internal::InternalMetadata::ContainerBase"* %11, i64 0, i32 0
  %13 = load %"class.google::protobuf::Arena"*, %"class.google::protobuf::Arena"** %12, align 8
  %14 = icmp ne %"class.google::protobuf::Arena"* %13, null
  %15 = icmp eq i64 %10, 0
  %16 = or i1 %15, %14
  br i1 %16, label %29, label %17

17:                                               ; preds = %9
  %18 = inttoptr i64 %10 to %"struct.google::protobuf::internal::InternalMetadata::Container"*
  %19 = getelementptr inbounds %"struct.google::protobuf::internal::InternalMetadata::Container", %"struct.google::protobuf::internal::InternalMetadata::Container"* %18, i64 0, i32 1
  %20 = bitcast %"class.std::__1::basic_string"* %19 to %"struct.std::__1::basic_string<char, std::__1::char_traits<char>, std::__1::allocator<char> >::__short"*
  %21 = getelementptr inbounds %"struct.std::__1::basic_string<char, std::__1::char_traits<char>, std::__1::allocator<char> >::__short", %"struct.std::__1::basic_string<char, std::__1::char_traits<char>, std::__1::allocator<char> >::__short"* %20, i64 0, i32 1, i32 0
  %22 = load i8, i8* %21, align 1
  %23 = icmp slt i8 %22, 0
  br i1 %23, label %24, label %27

24:                                               ; preds = %17
  %25 = getelementptr inbounds %"class.std::__1::basic_string", %"class.std::__1::basic_string"* %19, i64 0, i32 0, i32 0, i32 0, i32 0, i32 0, i32 0
  %26 = load i8*, i8** %25, align 8
  tail call void @_ZdlPv(i8* %26) #18
  br label %27

27:                                               ; preds = %24, %17
  %28 = inttoptr i64 %10 to i8*
  tail call void @_ZdlPv(i8* %28) #18
  br label %29

29:                                               ; preds = %1, %9, %27
  %30 = getelementptr inbounds %"class.segmentation_platform::proto::HistogramEnumFeature", %"class.segmentation_platform::proto::HistogramEnumFeature"* %0, i64 0, i32 3
  tail call void @_ZN6google8protobuf13RepeatedFieldIiED1Ev(%"class.google::protobuf::RepeatedField"* %30) #17
  ret void
}

; Function Attrs: nounwind
declare void @_ZN6google8protobuf13RepeatedFieldIiED1Ev(%"class.google::protobuf::RepeatedField"*) unnamed_addr #7

; Function Attrs: nounwind ssp uwtable
define hidden void @_ZN21segmentation_platform5proto20HistogramEnumFeatureD0Ev(%"class.segmentation_platform::proto::HistogramEnumFeature"*) unnamed_addr #0 align 2 {
  %2 = getelementptr inbounds %"class.segmentation_platform::proto::HistogramEnumFeature", %"class.segmentation_platform::proto::HistogramEnumFeature"* %0, i64 0, i32 0, i32 0
  store i32 (...)** bitcast (i8** getelementptr inbounds ({ [16 x i8*] }, { [16 x i8*] }* @_ZTVN21segmentation_platform5proto20HistogramEnumFeatureE, i64 0, inrange i32 0, i64 2) to i32 (...)**), i32 (...)*** %2, align 8
  %3 = getelementptr inbounds %"class.segmentation_platform::proto::HistogramEnumFeature", %"class.segmentation_platform::proto::HistogramEnumFeature"* %0, i64 0, i32 4
  tail call void @_ZN6google8protobuf8internal14ArenaStringPtr14DestroyNoArenaEPKNSt3__112basic_stringIcNS3_11char_traitsIcEENS3_9allocatorIcEEEE(%"struct.google::protobuf::internal::ArenaStringPtr"* %3, %"class.std::__1::basic_string"* bitcast (%"class.google::protobuf::internal::ExplicitlyConstructed.12"* @_ZN6google8protobuf8internal26fixed_address_empty_stringE to %"class.std::__1::basic_string"*)) #17
  %4 = getelementptr inbounds %"class.segmentation_platform::proto::HistogramEnumFeature", %"class.segmentation_platform::proto::HistogramEnumFeature"* %0, i64 0, i32 0, i32 1
  %5 = bitcast %"class.google::protobuf::internal::InternalMetadata"* %4 to i64*
  %6 = load i64, i64* %5, align 8
  %7 = and i64 %6, 1
  %8 = icmp eq i64 %7, 0
  br i1 %8, label %29, label %9

9:                                                ; preds = %1
  %10 = and i64 %6, -2
  %11 = inttoptr i64 %10 to %"struct.google::protobuf::internal::InternalMetadata::ContainerBase"*
  %12 = getelementptr inbounds %"struct.google::protobuf::internal::InternalMetadata::ContainerBase", %"struct.google::protobuf::internal::InternalMetadata::ContainerBase"* %11, i64 0, i32 0
  %13 = load %"class.google::protobuf::Arena"*, %"class.google::protobuf::Arena"** %12, align 8
  %14 = icmp ne %"class.google::protobuf::Arena"* %13, null
  %15 = icmp eq i64 %10, 0
  %16 = or i1 %15, %14
  br i1 %16, label %29, label %17

17:                                               ; preds = %9
  %18 = inttoptr i64 %10 to %"struct.google::protobuf::internal::InternalMetadata::Container"*
  %19 = getelementptr inbounds %"struct.google::protobuf::internal::InternalMetadata::Container", %"struct.google::protobuf::internal::InternalMetadata::Container"* %18, i64 0, i32 1
  %20 = bitcast %"class.std::__1::basic_string"* %19 to %"struct.std::__1::basic_string<char, std::__1::char_traits<char>, std::__1::allocator<char> >::__short"*
  %21 = getelementptr inbounds %"struct.std::__1::basic_string<char, std::__1::char_traits<char>, std::__1::allocator<char> >::__short", %"struct.std::__1::basic_string<char, std::__1::char_traits<char>, std::__1::allocator<char> >::__short"* %20, i64 0, i32 1, i32 0
  %22 = load i8, i8* %21, align 1
  %23 = icmp slt i8 %22, 0
  br i1 %23, label %24, label %27

24:                                               ; preds = %17
  %25 = getelementptr inbounds %"class.std::__1::basic_string", %"class.std::__1::basic_string"* %19, i64 0, i32 0, i32 0, i32 0, i32 0, i32 0, i32 0
  %26 = load i8*, i8** %25, align 8
  tail call void @_ZdlPv(i8* %26) #18
  br label %27

27:                                               ; preds = %24, %17
  %28 = inttoptr i64 %10 to i8*
  tail call void @_ZdlPv(i8* %28) #18
  br label %29

29:                                               ; preds = %1, %9, %27
  %30 = getelementptr inbounds %"class.segmentation_platform::proto::HistogramEnumFeature", %"class.segmentation_platform::proto::HistogramEnumFeature"* %0, i64 0, i32 3
  tail call void @_ZN6google8protobuf13RepeatedFieldIiED1Ev(%"class.google::protobuf::RepeatedField"* %30) #17
  %31 = bitcast %"class.segmentation_platform::proto::HistogramEnumFeature"* %0 to i8*
  tail call void @_ZdlPv(i8* %31) #18
  ret void
}

; Function Attrs: norecurse nounwind readnone ssp uwtable
define hidden void @_ZN21segmentation_platform5proto20HistogramEnumFeature9ArenaDtorEPv(i8* nocapture) local_unnamed_addr #1 align 2 {
  ret void
}

; Function Attrs: nofree norecurse nounwind ssp uwtable
define hidden void @_ZNK21segmentation_platform5proto20HistogramEnumFeature13SetCachedSizeEi(%"class.segmentation_platform::proto::HistogramEnumFeature"* nocapture, i32) local_unnamed_addr #6 align 2 {
  %3 = getelementptr inbounds %"class.segmentation_platform::proto::HistogramEnumFeature", %"class.segmentation_platform::proto::HistogramEnumFeature"* %0, i64 0, i32 2, i32 0, i32 0, i32 0, i32 0, i32 0, i32 0
  store atomic i32 %1, i32* %3 monotonic, align 4
  ret void
}

; Function Attrs: nounwind ssp uwtable
define hidden dereferenceable(56) %"class.segmentation_platform::proto::HistogramEnumFeature"* @_ZN21segmentation_platform5proto20HistogramEnumFeature16default_instanceEv() local_unnamed_addr #0 align 2 {
  %1 = load atomic i32, i32* getelementptr inbounds ({ { { { i32 } }, i32, i32, void ()* }, [0 x i8*] }, { { { { i32 } }, i32, i32, void ()* }, [0 x i8*] }* @scc_info_HistogramEnumFeature_components_2fsegmentation_5fplatform_2finternal_2fproto_2fmodel_5fmetadata_2eproto, i64 0, i32 0, i32 0, i32 0, i32 0) acquire, align 8
  %2 = icmp eq i32 %1, 0
  br i1 %2, label %4, label %3, !prof !2

3:                                                ; preds = %0
  tail call void @_ZN6google8protobuf8internal11InitSCCImplEPNS1_11SCCInfoBaseE(%"struct.google::protobuf::internal::SCCInfoBase"* bitcast ({ { { { i32 } }, i32, i32, void ()* }, [0 x i8*] }* @scc_info_HistogramEnumFeature_components_2fsegmentation_5fplatform_2finternal_2fproto_2fmodel_5fmetadata_2eproto to %"struct.google::protobuf::internal::SCCInfoBase"*)) #17
  br label %4

4:                                                ; preds = %0, %3
  ret %"class.segmentation_platform::proto::HistogramEnumFeature"* bitcast (%"class.segmentation_platform::proto::HistogramEnumFeatureDefaultTypeInternal"* @_ZN21segmentation_platform5proto39_HistogramEnumFeature_default_instance_E to %"class.segmentation_platform::proto::HistogramEnumFeature"*)
}

; Function Attrs: nofree norecurse nounwind ssp uwtable
define hidden void @_ZN21segmentation_platform5proto20HistogramEnumFeature5ClearEv(%"class.segmentation_platform::proto::HistogramEnumFeature"* nocapture) unnamed_addr #6 align 2 {
  %2 = getelementptr inbounds %"class.segmentation_platform::proto::HistogramEnumFeature", %"class.segmentation_platform::proto::HistogramEnumFeature"* %0, i64 0, i32 3, i32 0
  store i32 0, i32* %2, align 8
  %3 = getelementptr inbounds %"class.segmentation_platform::proto::HistogramEnumFeature", %"class.segmentation_platform::proto::HistogramEnumFeature"* %0, i64 0, i32 1, i32 0, i64 0
  %4 = load i32, i32* %3, align 4
  %5 = and i32 %4, 1
  %6 = icmp eq i32 %5, 0
  br i1 %6, label %20, label %7

7:                                                ; preds = %1
  %8 = getelementptr inbounds %"class.segmentation_platform::proto::HistogramEnumFeature", %"class.segmentation_platform::proto::HistogramEnumFeature"* %0, i64 0, i32 4, i32 0
  %9 = load %"class.std::__1::basic_string"*, %"class.std::__1::basic_string"** %8, align 8
  %10 = bitcast %"class.std::__1::basic_string"* %9 to %"struct.std::__1::basic_string<char, std::__1::char_traits<char>, std::__1::allocator<char> >::__short"*
  %11 = getelementptr inbounds %"struct.std::__1::basic_string<char, std::__1::char_traits<char>, std::__1::allocator<char> >::__short", %"struct.std::__1::basic_string<char, std::__1::char_traits<char>, std::__1::allocator<char> >::__short"* %10, i64 0, i32 1, i32 0
  %12 = load i8, i8* %11, align 1
  %13 = icmp slt i8 %12, 0
  br i1 %13, label %14, label %18

14:                                               ; preds = %7
  %15 = getelementptr inbounds %"class.std::__1::basic_string", %"class.std::__1::basic_string"* %9, i64 0, i32 0, i32 0, i32 0, i32 0, i32 0, i32 0
  %16 = load i8*, i8** %15, align 8
  store i8 0, i8* %16, align 1
  %17 = getelementptr inbounds %"class.std::__1::basic_string", %"class.std::__1::basic_string"* %9, i64 0, i32 0, i32 0, i32 0, i32 0, i32 0, i32 1
  store i64 0, i64* %17, align 8
  br label %20

18:                                               ; preds = %7
  %19 = bitcast %"class.std::__1::basic_string"* %9 to i8*
  store i8 0, i8* %19, align 1
  store i8 0, i8* %11, align 1
  br label %20

20:                                               ; preds = %18, %14, %1
  %21 = getelementptr inbounds %"class.segmentation_platform::proto::HistogramEnumFeature", %"class.segmentation_platform::proto::HistogramEnumFeature"* %0, i64 0, i32 5
  store i64 0, i64* %21, align 8
  store i32 0, i32* %3, align 4
  %22 = getelementptr inbounds %"class.segmentation_platform::proto::HistogramEnumFeature", %"class.segmentation_platform::proto::HistogramEnumFeature"* %0, i64 0, i32 0, i32 1
  %23 = bitcast %"class.google::protobuf::internal::InternalMetadata"* %22 to i64*
  %24 = load i64, i64* %23, align 8
  %25 = and i64 %24, 1
  %26 = icmp eq i64 %25, 0
  br i1 %26, label %41, label %27

27:                                               ; preds = %20
  %28 = and i64 %24, -2
  %29 = inttoptr i64 %28 to %"struct.google::protobuf::internal::InternalMetadata::Container"*
  %30 = getelementptr inbounds %"struct.google::protobuf::internal::InternalMetadata::Container", %"struct.google::protobuf::internal::InternalMetadata::Container"* %29, i64 0, i32 1
  %31 = bitcast %"class.std::__1::basic_string"* %30 to %"struct.std::__1::basic_string<char, std::__1::char_traits<char>, std::__1::allocator<char> >::__short"*
  %32 = getelementptr inbounds %"struct.std::__1::basic_string<char, std::__1::char_traits<char>, std::__1::allocator<char> >::__short", %"struct.std::__1::basic_string<char, std::__1::char_traits<char>, std::__1::allocator<char> >::__short"* %31, i64 0, i32 1, i32 0
  %33 = load i8, i8* %32, align 1
  %34 = icmp slt i8 %33, 0
  br i1 %34, label %35, label %39

35:                                               ; preds = %27
  %36 = getelementptr inbounds %"class.std::__1::basic_string", %"class.std::__1::basic_string"* %30, i64 0, i32 0, i32 0, i32 0, i32 0, i32 0, i32 0
  %37 = load i8*, i8** %36, align 8
  store i8 0, i8* %37, align 1
  %38 = getelementptr inbounds %"struct.google::protobuf::internal::InternalMetadata::Container", %"struct.google::protobuf::internal::InternalMetadata::Container"* %29, i64 0, i32 1, i32 0, i32 0, i32 0, i32 0, i32 0, i32 1
  store i64 0, i64* %38, align 8
  br label %41

39:                                               ; preds = %27
  %40 = bitcast %"class.std::__1::basic_string"* %30 to i8*
  store i8 0, i8* %40, align 2
  store i8 0, i8* %32, align 1
  br label %41

41:                                               ; preds = %20, %35, %39
  ret void
}

; Function Attrs: nounwind ssp uwtable
define hidden i8* @_ZN21segmentation_platform5proto20HistogramEnumFeature14_InternalParseEPKcPN6google8protobuf8internal12ParseContextE(%"class.segmentation_platform::proto::HistogramEnumFeature"*, i8*, %"class.google::protobuf::internal::ParseContext"*) unnamed_addr #0 align 2 {
  %4 = getelementptr inbounds %"class.google::protobuf::internal::ParseContext", %"class.google::protobuf::internal::ParseContext"* %2, i64 0, i32 0
  %5 = getelementptr inbounds %"class.google::protobuf::internal::ParseContext", %"class.google::protobuf::internal::ParseContext"* %2, i64 0, i32 2
  %6 = getelementptr inbounds %"class.google::protobuf::internal::ParseContext", %"class.google::protobuf::internal::ParseContext"* %2, i64 0, i32 0, i32 0
  %7 = getelementptr inbounds %"class.google::protobuf::internal::ParseContext", %"class.google::protobuf::internal::ParseContext"* %2, i64 0, i32 0, i32 1
  %8 = bitcast i8** %7 to i64*
  %9 = getelementptr inbounds %"class.google::protobuf::internal::ParseContext", %"class.google::protobuf::internal::ParseContext"* %2, i64 0, i32 0, i32 4
  %10 = getelementptr inbounds %"class.segmentation_platform::proto::HistogramEnumFeature", %"class.segmentation_platform::proto::HistogramEnumFeature"* %0, i64 0, i32 3
  %11 = bitcast %"class.google::protobuf::RepeatedField"* %10 to i8*
  %12 = getelementptr inbounds %"class.google::protobuf::RepeatedField", %"class.google::protobuf::RepeatedField"* %10, i64 0, i32 0
  %13 = getelementptr inbounds %"class.segmentation_platform::proto::HistogramEnumFeature", %"class.segmentation_platform::proto::HistogramEnumFeature"* %0, i64 0, i32 3, i32 1
  %14 = getelementptr inbounds %"class.segmentation_platform::proto::HistogramEnumFeature", %"class.segmentation_platform::proto::HistogramEnumFeature"* %0, i64 0, i32 3, i32 2
  %15 = bitcast i8** %14 to i32**
  %16 = getelementptr inbounds %"class.segmentation_platform::proto::HistogramEnumFeature", %"class.segmentation_platform::proto::HistogramEnumFeature"* %0, i64 0, i32 5
  %17 = getelementptr inbounds %"class.segmentation_platform::proto::HistogramEnumFeature", %"class.segmentation_platform::proto::HistogramEnumFeature"* %0, i64 0, i32 1, i32 0, i64 0
  %18 = getelementptr inbounds %"class.segmentation_platform::proto::HistogramEnumFeature", %"class.segmentation_platform::proto::HistogramEnumFeature"* %0, i64 0, i32 4
  %19 = getelementptr inbounds %"class.segmentation_platform::proto::HistogramEnumFeature", %"class.segmentation_platform::proto::HistogramEnumFeature"* %0, i64 0, i32 0, i32 1
  %20 = bitcast %"class.google::protobuf::internal::InternalMetadata"* %19 to i64*
  %21 = getelementptr inbounds %"struct.google::protobuf::internal::ArenaStringPtr", %"struct.google::protobuf::internal::ArenaStringPtr"* %18, i64 0, i32 0
  br label %22

22:                                               ; preds = %99, %3
  %23 = phi i8* [ %103, %99 ], [ %1, %3 ]
  %24 = phi i32 [ %100, %99 ], [ 0, %3 ]
  br label %25

25:                                               ; preds = %94, %22
  %26 = phi i8* [ %23, %22 ], [ %95, %94 ]
  %27 = load i32, i32* %5, align 4
  %28 = load i8*, i8** %6, align 8
  %29 = icmp ult i8* %26, %28
  br i1 %29, label %43, label %30, !prof !2

30:                                               ; preds = %25
  %31 = load i64, i64* %8, align 8
  %32 = ptrtoint i8* %26 to i64
  %33 = sub i64 %32, %31
  %34 = load i32, i32* %9, align 4
  %35 = sext i32 %34 to i64
  %36 = icmp eq i64 %33, %35
  br i1 %36, label %183, label %37

37:                                               ; preds = %30
  %38 = tail call { i8*, i8 } @_ZN6google8protobuf8internal18EpsCopyInputStream12DoneFallbackEPKci(%"class.google::protobuf::internal::EpsCopyInputStream"* %4, i8* %26, i32 %27) #17
  %39 = extractvalue { i8*, i8 } %38, 0
  %40 = extractvalue { i8*, i8 } %38, 1
  %41 = and i8 %40, 1
  %42 = icmp eq i8 %41, 0
  br i1 %42, label %43, label %183

43:                                               ; preds = %37, %25
  %44 = phi i8* [ %39, %37 ], [ %26, %25 ]
  %45 = load i8, i8* %44, align 1
  %46 = zext i8 %45 to i32
  %47 = icmp sgt i8 %45, -1
  %48 = getelementptr inbounds i8, i8* %44, i64 1
  br i1 %47, label %62, label %49

49:                                               ; preds = %43
  %50 = load i8, i8* %48, align 1
  %51 = zext i8 %50 to i32
  %52 = shl nuw nsw i32 %51, 7
  %53 = add nsw i32 %46, -128
  %54 = add nsw i32 %53, %52
  %55 = icmp sgt i8 %50, -1
  br i1 %55, label %56, label %58

56:                                               ; preds = %49
  %57 = getelementptr inbounds i8, i8* %44, i64 2
  br label %62

58:                                               ; preds = %49
  %59 = tail call { i8*, i32 } @_ZN6google8protobuf8internal15ReadTagFallbackEPKcj(i8* %44, i32 %54) #17
  %60 = extractvalue { i8*, i32 } %59, 0
  %61 = extractvalue { i8*, i32 } %59, 1
  br label %62

62:                                               ; preds = %43, %56, %58
  %63 = phi i32 [ %54, %56 ], [ %61, %58 ], [ %46, %43 ]
  %64 = phi i8* [ %57, %56 ], [ %60, %58 ], [ %48, %43 ]
  %65 = icmp eq i8* %64, null
  br i1 %65, label %183, label %66, !prof !5

66:                                               ; preds = %62
  %67 = lshr i32 %63, 3
  switch i32 %67, label %161 [
    i32 1, label %68
    i32 2, label %96
    i32 3, label %104
  ]

68:                                               ; preds = %66
  %69 = and i32 %63, 255
  %70 = icmp eq i32 %69, 10
  br i1 %70, label %71, label %161, !prof !2

71:                                               ; preds = %68
  %72 = load i32, i32* %17, align 4
  %73 = or i32 %72, 1
  store i32 %73, i32* %17, align 4
  %74 = load i64, i64* %20, align 8
  %75 = and i64 %74, 1
  %76 = icmp eq i64 %75, 0
  %77 = and i64 %74, -2
  br i1 %76, label %82, label %78, !prof !2

78:                                               ; preds = %71
  %79 = inttoptr i64 %77 to %"struct.google::protobuf::internal::InternalMetadata::ContainerBase"*
  %80 = getelementptr inbounds %"struct.google::protobuf::internal::InternalMetadata::ContainerBase", %"struct.google::protobuf::internal::InternalMetadata::ContainerBase"* %79, i64 0, i32 0
  %81 = load %"class.google::protobuf::Arena"*, %"class.google::protobuf::Arena"** %80, align 8
  br label %84

82:                                               ; preds = %71
  %83 = inttoptr i64 %77 to %"class.google::protobuf::Arena"*
  br label %84

84:                                               ; preds = %82, %78
  %85 = phi %"class.google::protobuf::Arena"* [ %81, %78 ], [ %83, %82 ]
  %86 = load %"class.std::__1::basic_string"*, %"class.std::__1::basic_string"** %21, align 8
  %87 = icmp eq %"class.std::__1::basic_string"* %86, bitcast (%"class.google::protobuf::internal::ExplicitlyConstructed.12"* @_ZN6google8protobuf8internal26fixed_address_empty_stringE to %"class.std::__1::basic_string"*)
  br i1 %87, label %88, label %90

88:                                               ; preds = %84
  tail call void @_ZN6google8protobuf8internal14ArenaStringPtr14CreateInstanceEPNS0_5ArenaEPKNSt3__112basic_stringIcNS5_11char_traitsIcEENS5_9allocatorIcEEEE(%"struct.google::protobuf::internal::ArenaStringPtr"* %18, %"class.google::protobuf::Arena"* %85, %"class.std::__1::basic_string"* bitcast (%"class.google::protobuf::internal::ExplicitlyConstructed.12"* @_ZN6google8protobuf8internal26fixed_address_empty_stringE to %"class.std::__1::basic_string"*)) #17
  %89 = load %"class.std::__1::basic_string"*, %"class.std::__1::basic_string"** %21, align 8
  br label %90

90:                                               ; preds = %84, %88
  %91 = phi %"class.std::__1::basic_string"* [ %89, %88 ], [ %86, %84 ]
  %92 = tail call i8* @_ZN6google8protobuf8internal24InlineGreedyStringParserEPNSt3__112basic_stringIcNS2_11char_traitsIcEENS2_9allocatorIcEEEEPKcPNS1_12ParseContextE(%"class.std::__1::basic_string"* %91, i8* nonnull %64, %"class.google::protobuf::internal::ParseContext"* %2) #17
  %93 = icmp eq i8* %92, null
  br i1 %93, label %183, label %94

94:                                               ; preds = %155, %152, %90, %158, %179
  %95 = phi i8* [ %181, %179 ], [ %159, %158 ], [ %92, %90 ], [ %134, %152 ], [ %134, %155 ]
  br label %25

96:                                               ; preds = %66
  %97 = and i32 %63, 255
  %98 = icmp eq i32 %97, 17
  br i1 %98, label %99, label %161, !prof !2

99:                                               ; preds = %96
  %100 = or i32 %24, 2
  %101 = bitcast i8* %64 to i64*
  %102 = load i64, i64* %101, align 1
  store i64 %102, i64* %16, align 8
  %103 = getelementptr inbounds i8, i8* %64, i64 8
  br label %22

104:                                              ; preds = %66
  %105 = trunc i32 %63 to i8
  switch i8 %105, label %161 [
    i8 24, label %106
    i8 26, label %158
  ], !prof !7

106:                                              ; preds = %104
  %107 = getelementptr inbounds i8, i8* %64, i64 -1
  br label %108

108:                                              ; preds = %155, %106
  %109 = phi i8* [ %107, %106 ], [ %134, %155 ]
  %110 = getelementptr inbounds i8, i8* %109, i64 1
  %111 = load i8, i8* %110, align 1
  %112 = icmp slt i8 %111, 0
  br i1 %112, label %116, label %113

113:                                              ; preds = %108
  %114 = zext i8 %111 to i64
  %115 = getelementptr inbounds i8, i8* %109, i64 2
  br label %132

116:                                              ; preds = %108
  %117 = zext i8 %111 to i32
  %118 = getelementptr inbounds i8, i8* %109, i64 2
  %119 = load i8, i8* %118, align 1
  %120 = zext i8 %119 to i32
  %121 = shl nuw nsw i32 %120, 7
  %122 = add nsw i32 %117, -128
  %123 = add nuw nsw i32 %122, %121
  %124 = icmp slt i8 %119, 0
  br i1 %124, label %128, label %125

125:                                              ; preds = %116
  %126 = zext i32 %123 to i64
  %127 = getelementptr inbounds i8, i8* %109, i64 3
  br label %132

128:                                              ; preds = %116
  %129 = tail call { i8*, i64 } @_ZN6google8protobuf8internal17VarintParseSlow64EPKcj(i8* %110, i32 %123) #17
  %130 = extractvalue { i8*, i64 } %129, 0
  %131 = extractvalue { i8*, i64 } %129, 1
  br label %132

132:                                              ; preds = %113, %125, %128
  %133 = phi i64 [ %131, %128 ], [ %126, %125 ], [ %114, %113 ]
  %134 = phi i8* [ %130, %128 ], [ %127, %125 ], [ %115, %113 ]
  %135 = trunc i64 %133 to i32
  %136 = load i32, i32* %12, align 8
  %137 = load i32, i32* %13, align 4
  %138 = icmp eq i32 %136, %137
  br i1 %138, label %139, label %144

139:                                              ; preds = %132
  %140 = add i32 %136, 1
  tail call void @_ZN6google8protobuf13RepeatedFieldIiE7ReserveEi(%"class.google::protobuf::RepeatedField"* %10, i32 %140) #17
  %141 = load i32*, i32** %15, align 8
  %142 = zext i32 %136 to i64
  %143 = getelementptr inbounds i32, i32* %141, i64 %142
  store i32 %135, i32* %143, align 4
  br label %149

144:                                              ; preds = %132
  %145 = load i32*, i32** %15, align 8
  %146 = zext i32 %136 to i64
  %147 = getelementptr inbounds i32, i32* %145, i64 %146
  store i32 %135, i32* %147, align 4
  %148 = add i32 %136, 1
  br label %149

149:                                              ; preds = %139, %144
  %150 = phi i32 [ %148, %144 ], [ %140, %139 ]
  store i32 %150, i32* %12, align 8
  %151 = icmp eq i8* %134, null
  br i1 %151, label %183, label %152, !prof !5

152:                                              ; preds = %149
  %153 = load i8*, i8** %6, align 8
  %154 = icmp ugt i8* %153, %134
  br i1 %154, label %155, label %94

155:                                              ; preds = %152
  %156 = load i8, i8* %134, align 1
  %157 = icmp eq i8 %156, 24
  br i1 %157, label %108, label %94

158:                                              ; preds = %104
  %159 = tail call i8* @_ZN6google8protobuf8internal17PackedInt32ParserEPvPKcPNS1_12ParseContextE(i8* %11, i8* nonnull %64, %"class.google::protobuf::internal::ParseContext"* %2) #17
  %160 = icmp eq i8* %159, null
  br i1 %160, label %183, label %94, !prof !5

161:                                              ; preds = %104, %66, %96, %68
  %162 = and i32 %63, 7
  %163 = icmp eq i32 %162, 4
  %164 = icmp eq i32 %63, 0
  %165 = or i1 %164, %163
  br i1 %165, label %166, label %169

166:                                              ; preds = %161
  %167 = add i32 %63, -1
  %168 = getelementptr inbounds %"class.google::protobuf::internal::ParseContext", %"class.google::protobuf::internal::ParseContext"* %2, i64 0, i32 0, i32 8
  store i32 %167, i32* %168, align 8
  br label %183

169:                                              ; preds = %161
  %170 = load i64, i64* %20, align 8
  %171 = and i64 %170, 1
  %172 = icmp eq i64 %171, 0
  br i1 %172, label %177, label %173, !prof !5

173:                                              ; preds = %169
  %174 = and i64 %170, -2
  %175 = inttoptr i64 %174 to %"struct.google::protobuf::internal::InternalMetadata::Container"*
  %176 = getelementptr inbounds %"struct.google::protobuf::internal::InternalMetadata::Container", %"struct.google::protobuf::internal::InternalMetadata::Container"* %175, i64 0, i32 1
  br label %179

177:                                              ; preds = %169
  %178 = tail call %"class.std::__1::basic_string"* @_ZN6google8protobuf8internal16InternalMetadata27mutable_unknown_fields_slowINSt3__112basic_stringIcNS4_11char_traitsIcEENS4_9allocatorIcEEEEEEPT_v(%"class.google::protobuf::internal::InternalMetadata"* %19) #17
  br label %179

179:                                              ; preds = %173, %177
  %180 = phi %"class.std::__1::basic_string"* [ %176, %173 ], [ %178, %177 ]
  %181 = tail call i8* @_ZN6google8protobuf8internal17UnknownFieldParseEjPNSt3__112basic_stringIcNS2_11char_traitsIcEENS2_9allocatorIcEEEEPKcPNS1_12ParseContextE(i32 %63, %"class.std::__1::basic_string"* %180, i8* nonnull %64, %"class.google::protobuf::internal::ParseContext"* %2) #17
  %182 = icmp eq i8* %181, null
  br i1 %182, label %183, label %94

183:                                              ; preds = %90, %30, %179, %158, %62, %37, %149, %166
  %184 = phi i8* [ %64, %166 ], [ null, %149 ], [ %39, %37 ], [ null, %62 ], [ null, %158 ], [ null, %179 ], [ %26, %30 ], [ null, %90 ]
  %185 = load i32, i32* %17, align 4
  %186 = or i32 %185, %24
  store i32 %186, i32* %17, align 4
  ret i8* %184
}

declare i8* @_ZN6google8protobuf8internal17PackedInt32ParserEPvPKcPNS1_12ParseContextE(i8*, i8*, %"class.google::protobuf::internal::ParseContext"*) local_unnamed_addr #4

; Function Attrs: nounwind ssp uwtable
define hidden i8* @_ZNK21segmentation_platform5proto20HistogramEnumFeature18_InternalSerializeEPhPN6google8protobuf2io19EpsCopyOutputStreamE(%"class.segmentation_platform::proto::HistogramEnumFeature"* nocapture readonly, i8*, %"class.google::protobuf::io::EpsCopyOutputStream"*) unnamed_addr #0 align 2 {
  %4 = getelementptr inbounds %"class.segmentation_platform::proto::HistogramEnumFeature", %"class.segmentation_platform::proto::HistogramEnumFeature"* %0, i64 0, i32 1, i32 0, i64 0
  %5 = load i32, i32* %4, align 4
  %6 = and i32 %5, 1
  %7 = icmp eq i32 %6, 0
  br i1 %7, label %42, label %8

8:                                                ; preds = %3
  %9 = getelementptr inbounds %"class.segmentation_platform::proto::HistogramEnumFeature", %"class.segmentation_platform::proto::HistogramEnumFeature"* %0, i64 0, i32 4, i32 0
  %10 = load %"class.std::__1::basic_string"*, %"class.std::__1::basic_string"** %9, align 8
  %11 = bitcast %"class.std::__1::basic_string"* %10 to %"struct.std::__1::basic_string<char, std::__1::char_traits<char>, std::__1::allocator<char> >::__short"*
  %12 = getelementptr inbounds %"struct.std::__1::basic_string<char, std::__1::char_traits<char>, std::__1::allocator<char> >::__short", %"struct.std::__1::basic_string<char, std::__1::char_traits<char>, std::__1::allocator<char> >::__short"* %11, i64 0, i32 1, i32 0
  %13 = load i8, i8* %12, align 1
  %14 = icmp slt i8 %13, 0
  br i1 %14, label %17, label %15

15:                                               ; preds = %8
  %16 = zext i8 %13 to i64
  br label %21

17:                                               ; preds = %8
  %18 = getelementptr inbounds %"class.std::__1::basic_string", %"class.std::__1::basic_string"* %10, i64 0, i32 0, i32 0, i32 0, i32 0, i32 0, i32 1
  %19 = load i64, i64* %18, align 8
  %20 = icmp sgt i64 %19, 127
  br i1 %20, label %29, label %21, !prof !5

21:                                               ; preds = %17, %15
  %22 = phi i64 [ %16, %15 ], [ %19, %17 ]
  %23 = bitcast %"class.google::protobuf::io::EpsCopyOutputStream"* %2 to i64*
  %24 = load i64, i64* %23, align 8
  %25 = ptrtoint i8* %1 to i64
  %26 = sub i64 14, %25
  %27 = add i64 %26, %24
  %28 = icmp slt i64 %27, %22
  br i1 %28, label %29, label %31, !prof !5

29:                                               ; preds = %21, %17
  %30 = tail call i8* @_ZN6google8protobuf2io19EpsCopyOutputStream30WriteStringMaybeAliasedOutlineEjRKNSt3__112basic_stringIcNS3_11char_traitsIcEENS3_9allocatorIcEEEEPh(%"class.google::protobuf::io::EpsCopyOutputStream"* %2, i32 1, %"class.std::__1::basic_string"* dereferenceable(24) %10, i8* %1) #17
  br label %42

31:                                               ; preds = %21
  store i8 10, i8* %1, align 1
  %32 = getelementptr inbounds i8, i8* %1, i64 1
  %33 = trunc i64 %22 to i8
  %34 = getelementptr inbounds i8, i8* %1, i64 2
  store i8 %33, i8* %32, align 1
  %35 = load i8, i8* %12, align 1
  %36 = icmp slt i8 %35, 0
  %37 = getelementptr inbounds %"class.std::__1::basic_string", %"class.std::__1::basic_string"* %10, i64 0, i32 0, i32 0, i32 0, i32 0, i32 0, i32 0
  %38 = load i8*, i8** %37, align 8
  %39 = bitcast %"class.std::__1::basic_string"* %10 to i8*
  %40 = select i1 %36, i8* %38, i8* %39
  tail call void @llvm.memcpy.p0i8.p0i8.i64(i8* align 1 %34, i8* align 1 %40, i64 %22, i1 false) #17
  %41 = getelementptr inbounds i8, i8* %34, i64 %22
  br label %42

42:                                               ; preds = %31, %29, %3
  %43 = phi i8* [ %1, %3 ], [ %30, %29 ], [ %41, %31 ]
  %44 = and i32 %5, 2
  %45 = icmp eq i32 %44, 0
  br i1 %45, label %59, label %46

46:                                               ; preds = %42
  %47 = getelementptr inbounds %"class.google::protobuf::io::EpsCopyOutputStream", %"class.google::protobuf::io::EpsCopyOutputStream"* %2, i64 0, i32 0
  %48 = load i8*, i8** %47, align 8
  %49 = icmp ugt i8* %48, %43
  br i1 %49, label %52, label %50, !prof !2

50:                                               ; preds = %46
  %51 = tail call i8* @_ZN6google8protobuf2io19EpsCopyOutputStream19EnsureSpaceFallbackEPh(%"class.google::protobuf::io::EpsCopyOutputStream"* %2, i8* %43) #17
  br label %52

52:                                               ; preds = %46, %50
  %53 = phi i8* [ %51, %50 ], [ %43, %46 ]
  %54 = getelementptr inbounds %"class.segmentation_platform::proto::HistogramEnumFeature", %"class.segmentation_platform::proto::HistogramEnumFeature"* %0, i64 0, i32 5
  %55 = load i64, i64* %54, align 8
  store i8 17, i8* %53, align 1
  %56 = getelementptr inbounds i8, i8* %53, i64 1
  %57 = bitcast i8* %56 to i64*
  store i64 %55, i64* %57, align 1
  %58 = getelementptr inbounds i8, i8* %53, i64 9
  br label %59

59:                                               ; preds = %42, %52
  %60 = phi i8* [ %58, %52 ], [ %43, %42 ]
  %61 = getelementptr inbounds %"class.segmentation_platform::proto::HistogramEnumFeature", %"class.segmentation_platform::proto::HistogramEnumFeature"* %0, i64 0, i32 3, i32 0
  %62 = load i32, i32* %61, align 8
  %63 = icmp sgt i32 %62, 0
  br i1 %63, label %64, label %69

64:                                               ; preds = %59
  %65 = getelementptr inbounds %"class.google::protobuf::io::EpsCopyOutputStream", %"class.google::protobuf::io::EpsCopyOutputStream"* %2, i64 0, i32 0
  %66 = getelementptr inbounds %"class.segmentation_platform::proto::HistogramEnumFeature", %"class.segmentation_platform::proto::HistogramEnumFeature"* %0, i64 0, i32 3, i32 2
  %67 = bitcast i8** %66 to i32**
  %68 = zext i32 %62 to i64
  br label %76

69:                                               ; preds = %115, %59
  %70 = phi i8* [ %60, %59 ], [ %116, %115 ]
  %71 = getelementptr inbounds %"class.segmentation_platform::proto::HistogramEnumFeature", %"class.segmentation_platform::proto::HistogramEnumFeature"* %0, i64 0, i32 0, i32 1
  %72 = bitcast %"class.google::protobuf::internal::InternalMetadata"* %71 to i64*
  %73 = load i64, i64* %72, align 8
  %74 = and i64 %73, 1
  %75 = icmp eq i64 %74, 0
  br i1 %75, label %150, label %119, !prof !2

76:                                               ; preds = %115, %64
  %77 = phi i64 [ 0, %64 ], [ %117, %115 ]
  %78 = phi i8* [ %60, %64 ], [ %116, %115 ]
  %79 = load i8*, i8** %65, align 8
  %80 = icmp ugt i8* %79, %78
  br i1 %80, label %83, label %81, !prof !2

81:                                               ; preds = %76
  %82 = tail call i8* @_ZN6google8protobuf2io19EpsCopyOutputStream19EnsureSpaceFallbackEPh(%"class.google::protobuf::io::EpsCopyOutputStream"* %2, i8* %78) #17
  br label %83

83:                                               ; preds = %76, %81
  %84 = phi i8* [ %82, %81 ], [ %78, %76 ]
  %85 = load i32*, i32** %67, align 8
  %86 = getelementptr inbounds i32, i32* %85, i64 %77
  %87 = load i32, i32* %86, align 4
  store i8 24, i8* %84, align 1
  %88 = getelementptr inbounds i8, i8* %84, i64 1
  %89 = icmp ult i32 %87, 128
  %90 = trunc i32 %87 to i8
  br i1 %89, label %91, label %93

91:                                               ; preds = %83
  store i8 %90, i8* %88, align 1
  %92 = getelementptr inbounds i8, i8* %84, i64 2
  br label %115

93:                                               ; preds = %83
  %94 = sext i32 %87 to i64
  %95 = or i8 %90, -128
  store i8 %95, i8* %88, align 1
  %96 = lshr i64 %94, 7
  %97 = icmp ult i32 %87, 16384
  br i1 %97, label %98, label %102

98:                                               ; preds = %93
  %99 = trunc i64 %96 to i8
  %100 = getelementptr inbounds i8, i8* %84, i64 2
  store i8 %99, i8* %100, align 1
  %101 = getelementptr inbounds i8, i8* %84, i64 3
  br label %115

102:                                              ; preds = %93
  %103 = getelementptr inbounds i8, i8* %84, i64 2
  br label %104

104:                                              ; preds = %104, %102
  %105 = phi i64 [ %96, %102 ], [ %109, %104 ]
  %106 = phi i8* [ %103, %102 ], [ %110, %104 ]
  %107 = trunc i64 %105 to i8
  %108 = or i8 %107, -128
  store i8 %108, i8* %106, align 1
  %109 = lshr i64 %105, 7
  %110 = getelementptr inbounds i8, i8* %106, i64 1
  %111 = icmp ugt i64 %105, 16383
  br i1 %111, label %104, label %112, !prof !5

112:                                              ; preds = %104
  %113 = trunc i64 %109 to i8
  %114 = getelementptr inbounds i8, i8* %106, i64 2
  store i8 %113, i8* %110, align 1
  br label %115

115:                                              ; preds = %91, %98, %112
  %116 = phi i8* [ %92, %91 ], [ %101, %98 ], [ %114, %112 ]
  %117 = add nuw nsw i64 %77, 1
  %118 = icmp eq i64 %117, %68
  br i1 %118, label %69, label %76

119:                                              ; preds = %69
  %120 = and i64 %73, -2
  %121 = inttoptr i64 %120 to %"struct.google::protobuf::internal::InternalMetadata::Container"*
  %122 = getelementptr inbounds %"struct.google::protobuf::internal::InternalMetadata::Container", %"struct.google::protobuf::internal::InternalMetadata::Container"* %121, i64 0, i32 1
  %123 = bitcast %"class.std::__1::basic_string"* %122 to %"struct.std::__1::basic_string<char, std::__1::char_traits<char>, std::__1::allocator<char> >::__short"*
  %124 = getelementptr inbounds %"struct.std::__1::basic_string<char, std::__1::char_traits<char>, std::__1::allocator<char> >::__short", %"struct.std::__1::basic_string<char, std::__1::char_traits<char>, std::__1::allocator<char> >::__short"* %123, i64 0, i32 1, i32 0
  %125 = load i8, i8* %124, align 1
  %126 = icmp slt i8 %125, 0
  br i1 %126, label %127, label %132

127:                                              ; preds = %119
  %128 = getelementptr inbounds %"class.std::__1::basic_string", %"class.std::__1::basic_string"* %122, i64 0, i32 0, i32 0, i32 0, i32 0, i32 0, i32 0
  %129 = load i8*, i8** %128, align 8
  %130 = getelementptr inbounds %"struct.google::protobuf::internal::InternalMetadata::Container", %"struct.google::protobuf::internal::InternalMetadata::Container"* %121, i64 0, i32 1, i32 0, i32 0, i32 0, i32 0, i32 0, i32 1
  %131 = load i64, i64* %130, align 8
  br label %135

132:                                              ; preds = %119
  %133 = bitcast %"class.std::__1::basic_string"* %122 to i8*
  %134 = zext i8 %125 to i64
  br label %135

135:                                              ; preds = %127, %132
  %136 = phi i8* [ %129, %127 ], [ %133, %132 ]
  %137 = phi i64 [ %131, %127 ], [ %134, %132 ]
  %138 = bitcast %"class.google::protobuf::io::EpsCopyOutputStream"* %2 to i64*
  %139 = load i64, i64* %138, align 8
  %140 = ptrtoint i8* %70 to i64
  %141 = sub i64 %139, %140
  %142 = shl i64 %137, 32
  %143 = ashr exact i64 %142, 32
  %144 = icmp slt i64 %141, %143
  br i1 %144, label %145, label %148, !prof !5

145:                                              ; preds = %135
  %146 = trunc i64 %137 to i32
  %147 = tail call i8* @_ZN6google8protobuf2io19EpsCopyOutputStream16WriteRawFallbackEPKviPh(%"class.google::protobuf::io::EpsCopyOutputStream"* %2, i8* %136, i32 %146, i8* %70) #17
  br label %150

148:                                              ; preds = %135
  tail call void @llvm.memcpy.p0i8.p0i8.i64(i8* align 1 %70, i8* align 1 %136, i64 %143, i1 false) #17
  %149 = getelementptr inbounds i8, i8* %70, i64 %143
  br label %150

150:                                              ; preds = %69, %148, %145
  %151 = phi i8* [ %70, %69 ], [ %147, %145 ], [ %149, %148 ]
  ret i8* %151
}

; Function Attrs: nounwind ssp uwtable
define hidden i64 @_ZNK21segmentation_platform5proto20HistogramEnumFeature12ByteSizeLongEv(%"class.segmentation_platform::proto::HistogramEnumFeature"*) unnamed_addr #0 align 2 {
  %2 = getelementptr inbounds %"class.segmentation_platform::proto::HistogramEnumFeature", %"class.segmentation_platform::proto::HistogramEnumFeature"* %0, i64 0, i32 3
  %3 = tail call i64 @_ZN6google8protobuf8internal14WireFormatLite9Int32SizeERKNS0_13RepeatedFieldIiEE(%"class.google::protobuf::RepeatedField"* dereferenceable(16) %2) #17
  %4 = getelementptr inbounds %"class.segmentation_platform::proto::HistogramEnumFeature", %"class.segmentation_platform::proto::HistogramEnumFeature"* %0, i64 0, i32 3, i32 0
  %5 = load i32, i32* %4, align 8
  %6 = zext i32 %5 to i64
  %7 = add i64 %3, %6
  %8 = getelementptr inbounds %"class.segmentation_platform::proto::HistogramEnumFeature", %"class.segmentation_platform::proto::HistogramEnumFeature"* %0, i64 0, i32 1, i32 0, i64 0
  %9 = load i32, i32* %8, align 4
  %10 = and i32 %9, 3
  %11 = icmp eq i32 %10, 0
  br i1 %11, label %43, label %12

12:                                               ; preds = %1
  %13 = and i32 %9, 1
  %14 = icmp eq i32 %13, 0
  br i1 %14, label %37, label %15

15:                                               ; preds = %12
  %16 = getelementptr inbounds %"class.segmentation_platform::proto::HistogramEnumFeature", %"class.segmentation_platform::proto::HistogramEnumFeature"* %0, i64 0, i32 4, i32 0
  %17 = load %"class.std::__1::basic_string"*, %"class.std::__1::basic_string"** %16, align 8
  %18 = bitcast %"class.std::__1::basic_string"* %17 to %"struct.std::__1::basic_string<char, std::__1::char_traits<char>, std::__1::allocator<char> >::__short"*
  %19 = getelementptr inbounds %"struct.std::__1::basic_string<char, std::__1::char_traits<char>, std::__1::allocator<char> >::__short", %"struct.std::__1::basic_string<char, std::__1::char_traits<char>, std::__1::allocator<char> >::__short"* %18, i64 0, i32 1, i32 0
  %20 = load i8, i8* %19, align 1
  %21 = icmp slt i8 %20, 0
  %22 = getelementptr inbounds %"class.std::__1::basic_string", %"class.std::__1::basic_string"* %17, i64 0, i32 0, i32 0, i32 0, i32 0, i32 0, i32 1
  %23 = load i64, i64* %22, align 8
  %24 = zext i8 %20 to i64
  %25 = select i1 %21, i64 %23, i64 %24
  %26 = trunc i64 %25 to i32
  %27 = or i32 %26, 1
  %28 = tail call i32 @llvm.ctlz.i32(i32 %27, i1 true) #17, !range !6
  %29 = xor i32 %28, 31
  %30 = mul nuw nsw i32 %29, 9
  %31 = add nuw nsw i32 %30, 73
  %32 = lshr i32 %31, 6
  %33 = zext i32 %32 to i64
  %34 = add i64 %7, 1
  %35 = add i64 %34, %25
  %36 = add i64 %35, %33
  br label %37

37:                                               ; preds = %12, %15
  %38 = phi i64 [ %36, %15 ], [ %7, %12 ]
  %39 = and i32 %9, 2
  %40 = icmp eq i32 %39, 0
  %41 = add i64 %38, 9
  %42 = select i1 %40, i64 %38, i64 %41
  br label %43

43:                                               ; preds = %37, %1
  %44 = phi i64 [ %7, %1 ], [ %42, %37 ]
  %45 = getelementptr inbounds %"class.segmentation_platform::proto::HistogramEnumFeature", %"class.segmentation_platform::proto::HistogramEnumFeature"* %0, i64 0, i32 0, i32 1
  %46 = bitcast %"class.google::protobuf::internal::InternalMetadata"* %45 to i64*
  %47 = load i64, i64* %46, align 8
  %48 = and i64 %47, 1
  %49 = icmp eq i64 %48, 0
  br i1 %49, label %66, label %50, !prof !2

50:                                               ; preds = %43
  %51 = and i64 %47, -2
  %52 = inttoptr i64 %51 to %"struct.google::protobuf::internal::InternalMetadata::Container"*
  %53 = getelementptr inbounds %"struct.google::protobuf::internal::InternalMetadata::Container", %"struct.google::protobuf::internal::InternalMetadata::Container"* %52, i64 0, i32 1
  %54 = bitcast %"class.std::__1::basic_string"* %53 to %"struct.std::__1::basic_string<char, std::__1::char_traits<char>, std::__1::allocator<char> >::__short"*
  %55 = getelementptr inbounds %"struct.std::__1::basic_string<char, std::__1::char_traits<char>, std::__1::allocator<char> >::__short", %"struct.std::__1::basic_string<char, std::__1::char_traits<char>, std::__1::allocator<char> >::__short"* %54, i64 0, i32 1, i32 0
  %56 = load i8, i8* %55, align 1
  %57 = icmp slt i8 %56, 0
  br i1 %57, label %58, label %61

58:                                               ; preds = %50
  %59 = getelementptr inbounds %"struct.google::protobuf::internal::InternalMetadata::Container", %"struct.google::protobuf::internal::InternalMetadata::Container"* %52, i64 0, i32 1, i32 0, i32 0, i32 0, i32 0, i32 0, i32 1
  %60 = load i64, i64* %59, align 8
  br label %63

61:                                               ; preds = %50
  %62 = zext i8 %56 to i64
  br label %63

63:                                               ; preds = %58, %61
  %64 = phi i64 [ %60, %58 ], [ %62, %61 ]
  %65 = add i64 %64, %44
  br label %66

66:                                               ; preds = %43, %63
  %67 = phi i64 [ %65, %63 ], [ %44, %43 ]
  %68 = trunc i64 %67 to i32
  %69 = getelementptr inbounds %"class.segmentation_platform::proto::HistogramEnumFeature", %"class.segmentation_platform::proto::HistogramEnumFeature"* %0, i64 0, i32 2, i32 0, i32 0, i32 0, i32 0, i32 0, i32 0
  store atomic i32 %68, i32* %69 monotonic, align 4
  ret i64 %67
}

declare i64 @_ZN6google8protobuf8internal14WireFormatLite9Int32SizeERKNS0_13RepeatedFieldIiEE(%"class.google::protobuf::RepeatedField"* dereferenceable(16)) local_unnamed_addr #4

; Function Attrs: nounwind ssp uwtable
define hidden void @_ZN21segmentation_platform5proto20HistogramEnumFeature21CheckTypeAndMergeFromERKN6google8protobuf11MessageLiteE(%"class.segmentation_platform::proto::HistogramEnumFeature"*, %"class.google::protobuf::MessageLite"* nocapture readonly dereferenceable(16)) unnamed_addr #0 align 2 {
  %3 = bitcast %"class.google::protobuf::MessageLite"* %1 to %"class.segmentation_platform::proto::HistogramEnumFeature"*
  tail call void @_ZN21segmentation_platform5proto20HistogramEnumFeature9MergeFromERKS1_(%"class.segmentation_platform::proto::HistogramEnumFeature"* %0, %"class.segmentation_platform::proto::HistogramEnumFeature"* dereferenceable(56) %3)
  ret void
}

; Function Attrs: nounwind ssp uwtable
define hidden void @_ZN21segmentation_platform5proto20HistogramEnumFeature9MergeFromERKS1_(%"class.segmentation_platform::proto::HistogramEnumFeature"*, %"class.segmentation_platform::proto::HistogramEnumFeature"* nocapture readonly dereferenceable(56)) local_unnamed_addr #0 align 2 {
  %3 = getelementptr inbounds %"class.segmentation_platform::proto::HistogramEnumFeature", %"class.segmentation_platform::proto::HistogramEnumFeature"* %0, i64 0, i32 0, i32 1
  %4 = getelementptr inbounds %"class.segmentation_platform::proto::HistogramEnumFeature", %"class.segmentation_platform::proto::HistogramEnumFeature"* %1, i64 0, i32 0, i32 1
  %5 = bitcast %"class.google::protobuf::internal::InternalMetadata"* %4 to i64*
  %6 = load i64, i64* %5, align 8
  %7 = and i64 %6, 1
  %8 = icmp eq i64 %7, 0
  br i1 %8, label %38, label %9

9:                                                ; preds = %2
  %10 = and i64 %6, -2
  %11 = inttoptr i64 %10 to %"struct.google::protobuf::internal::InternalMetadata::Container"*
  %12 = getelementptr inbounds %"struct.google::protobuf::internal::InternalMetadata::Container", %"struct.google::protobuf::internal::InternalMetadata::Container"* %11, i64 0, i32 1
  %13 = bitcast %"class.google::protobuf::internal::InternalMetadata"* %3 to i64*
  %14 = load i64, i64* %13, align 8
  %15 = and i64 %14, 1
  %16 = icmp eq i64 %15, 0
  br i1 %16, label %21, label %17, !prof !5

17:                                               ; preds = %9
  %18 = and i64 %14, -2
  %19 = inttoptr i64 %18 to %"struct.google::protobuf::internal::InternalMetadata::Container"*
  %20 = getelementptr inbounds %"struct.google::protobuf::internal::InternalMetadata::Container", %"struct.google::protobuf::internal::InternalMetadata::Container"* %19, i64 0, i32 1
  br label %23

21:                                               ; preds = %9
  %22 = tail call %"class.std::__1::basic_string"* @_ZN6google8protobuf8internal16InternalMetadata27mutable_unknown_fields_slowINSt3__112basic_stringIcNS4_11char_traitsIcEENS4_9allocatorIcEEEEEEPT_v(%"class.google::protobuf::internal::InternalMetadata"* %3) #17
  br label %23

23:                                               ; preds = %21, %17
  %24 = phi %"class.std::__1::basic_string"* [ %20, %17 ], [ %22, %21 ]
  %25 = bitcast %"class.std::__1::basic_string"* %12 to %"struct.std::__1::basic_string<char, std::__1::char_traits<char>, std::__1::allocator<char> >::__short"*
  %26 = getelementptr inbounds %"struct.std::__1::basic_string<char, std::__1::char_traits<char>, std::__1::allocator<char> >::__short", %"struct.std::__1::basic_string<char, std::__1::char_traits<char>, std::__1::allocator<char> >::__short"* %25, i64 0, i32 1, i32 0
  %27 = load i8, i8* %26, align 1
  %28 = icmp slt i8 %27, 0
  %29 = getelementptr inbounds %"class.std::__1::basic_string", %"class.std::__1::basic_string"* %12, i64 0, i32 0, i32 0, i32 0, i32 0, i32 0, i32 0
  %30 = load i8*, i8** %29, align 8
  %31 = getelementptr inbounds %"struct.google::protobuf::internal::InternalMetadata::Container", %"struct.google::protobuf::internal::InternalMetadata::Container"* %11, i64 0, i32 1, i32 0, i32 0, i32 0, i32 0, i32 0, i32 1
  %32 = load i64, i64* %31, align 8
  %33 = bitcast %"class.std::__1::basic_string"* %12 to i8*
  %34 = zext i8 %27 to i64
  %35 = select i1 %28, i8* %30, i8* %33
  %36 = select i1 %28, i64 %32, i64 %34
  %37 = tail call dereferenceable(24) %"class.std::__1::basic_string"* @_ZNSt3__112basic_stringIcNS_11char_traitsIcEENS_9allocatorIcEEE6appendEPKcm(%"class.std::__1::basic_string"* %24, i8* %35, i64 %36) #17
  br label %38

38:                                               ; preds = %2, %23
  %39 = getelementptr inbounds %"class.segmentation_platform::proto::HistogramEnumFeature", %"class.segmentation_platform::proto::HistogramEnumFeature"* %0, i64 0, i32 3
  %40 = getelementptr inbounds %"class.segmentation_platform::proto::HistogramEnumFeature", %"class.segmentation_platform::proto::HistogramEnumFeature"* %1, i64 0, i32 3, i32 0
  %41 = load i32, i32* %40, align 8
  %42 = icmp eq i32 %41, 0
  br i1 %42, label %61, label %43

43:                                               ; preds = %38
  %44 = getelementptr inbounds %"class.google::protobuf::RepeatedField", %"class.google::protobuf::RepeatedField"* %39, i64 0, i32 0
  %45 = load i32, i32* %44, align 8
  %46 = add nsw i32 %45, %41
  tail call void @_ZN6google8protobuf13RepeatedFieldIiE7ReserveEi(%"class.google::protobuf::RepeatedField"* %39, i32 %46) #17
  %47 = load i32, i32* %40, align 8
  %48 = getelementptr inbounds %"class.segmentation_platform::proto::HistogramEnumFeature", %"class.segmentation_platform::proto::HistogramEnumFeature"* %0, i64 0, i32 3, i32 2
  %49 = bitcast i8** %48 to i32**
  %50 = load i32*, i32** %49, align 8
  %51 = load i32, i32* %44, align 8
  %52 = add nsw i32 %51, %47
  store i32 %52, i32* %44, align 8
  %53 = sext i32 %45 to i64
  %54 = getelementptr inbounds i32, i32* %50, i64 %53
  %55 = getelementptr inbounds %"class.segmentation_platform::proto::HistogramEnumFeature", %"class.segmentation_platform::proto::HistogramEnumFeature"* %1, i64 0, i32 3, i32 2
  %56 = load i8*, i8** %55, align 8
  %57 = load i32, i32* %40, align 8
  %58 = bitcast i32* %54 to i8*
  %59 = sext i32 %57 to i64
  %60 = shl nsw i64 %59, 2
  tail call void @llvm.memcpy.p0i8.p0i8.i64(i8* align 4 %58, i8* align 4 %56, i64 %60, i1 false) #17
  br label %61

61:                                               ; preds = %38, %43
  %62 = getelementptr inbounds %"class.segmentation_platform::proto::HistogramEnumFeature", %"class.segmentation_platform::proto::HistogramEnumFeature"* %1, i64 0, i32 1, i32 0, i64 0
  %63 = load i32, i32* %62, align 4
  %64 = and i32 %63, 3
  %65 = icmp eq i32 %64, 0
  br i1 %65, label %135, label %66

66:                                               ; preds = %61
  %67 = and i32 %63, 1
  %68 = icmp eq i32 %67, 0
  br i1 %68, label %124, label %69

69:                                               ; preds = %66
  %70 = getelementptr inbounds %"class.segmentation_platform::proto::HistogramEnumFeature", %"class.segmentation_platform::proto::HistogramEnumFeature"* %1, i64 0, i32 4, i32 0
  %71 = load %"class.std::__1::basic_string"*, %"class.std::__1::basic_string"** %70, align 8
  %72 = getelementptr inbounds %"class.segmentation_platform::proto::HistogramEnumFeature", %"class.segmentation_platform::proto::HistogramEnumFeature"* %0, i64 0, i32 1, i32 0, i64 0
  %73 = load i32, i32* %72, align 4
  %74 = or i32 %73, 1
  store i32 %74, i32* %72, align 4
  %75 = getelementptr inbounds %"class.segmentation_platform::proto::HistogramEnumFeature", %"class.segmentation_platform::proto::HistogramEnumFeature"* %0, i64 0, i32 4
  %76 = bitcast %"class.google::protobuf::internal::InternalMetadata"* %3 to i64*
  %77 = load i64, i64* %76, align 8
  %78 = and i64 %77, 1
  %79 = icmp eq i64 %78, 0
  %80 = and i64 %77, -2
  br i1 %79, label %85, label %81, !prof !2

81:                                               ; preds = %69
  %82 = inttoptr i64 %80 to %"struct.google::protobuf::internal::InternalMetadata::ContainerBase"*
  %83 = getelementptr inbounds %"struct.google::protobuf::internal::InternalMetadata::ContainerBase", %"struct.google::protobuf::internal::InternalMetadata::ContainerBase"* %82, i64 0, i32 0
  %84 = load %"class.google::protobuf::Arena"*, %"class.google::protobuf::Arena"** %83, align 8
  br label %87

85:                                               ; preds = %69
  %86 = inttoptr i64 %80 to %"class.google::protobuf::Arena"*
  br label %87

87:                                               ; preds = %85, %81
  %88 = phi %"class.google::protobuf::Arena"* [ %84, %81 ], [ %86, %85 ]
  %89 = getelementptr inbounds %"struct.google::protobuf::internal::ArenaStringPtr", %"struct.google::protobuf::internal::ArenaStringPtr"* %75, i64 0, i32 0
  %90 = load %"class.std::__1::basic_string"*, %"class.std::__1::basic_string"** %89, align 8
  %91 = icmp eq %"class.std::__1::basic_string"* %90, bitcast (%"class.google::protobuf::internal::ExplicitlyConstructed.12"* @_ZN6google8protobuf8internal26fixed_address_empty_stringE to %"class.std::__1::basic_string"*)
  br i1 %91, label %92, label %93

92:                                               ; preds = %87
  tail call void @_ZN6google8protobuf8internal14ArenaStringPtr14CreateInstanceEPNS0_5ArenaEPKNSt3__112basic_stringIcNS5_11char_traitsIcEENS5_9allocatorIcEEEE(%"struct.google::protobuf::internal::ArenaStringPtr"* %75, %"class.google::protobuf::Arena"* %88, %"class.std::__1::basic_string"* %71) #17
  br label %124

93:                                               ; preds = %87
  %94 = icmp eq %"class.std::__1::basic_string"* %90, %71
  br i1 %94, label %124, label %95

95:                                               ; preds = %93
  %96 = bitcast %"class.std::__1::basic_string"* %90 to %"struct.std::__1::basic_string<char, std::__1::char_traits<char>, std::__1::allocator<char> >::__short"*
  %97 = getelementptr inbounds %"struct.std::__1::basic_string<char, std::__1::char_traits<char>, std::__1::allocator<char> >::__short", %"struct.std::__1::basic_string<char, std::__1::char_traits<char>, std::__1::allocator<char> >::__short"* %96, i64 0, i32 1, i32 0
  %98 = load i8, i8* %97, align 1
  %99 = icmp slt i8 %98, 0
  %100 = bitcast %"class.std::__1::basic_string"* %71 to %"struct.std::__1::basic_string<char, std::__1::char_traits<char>, std::__1::allocator<char> >::__short"*
  %101 = getelementptr inbounds %"struct.std::__1::basic_string<char, std::__1::char_traits<char>, std::__1::allocator<char> >::__short", %"struct.std::__1::basic_string<char, std::__1::char_traits<char>, std::__1::allocator<char> >::__short"* %100, i64 0, i32 1, i32 0
  %102 = load i8, i8* %101, align 1
  %103 = icmp slt i8 %102, 0
  br i1 %99, label %114, label %104

104:                                              ; preds = %95
  br i1 %103, label %108, label %105

105:                                              ; preds = %104
  %106 = bitcast %"class.std::__1::basic_string"* %90 to i8*
  %107 = bitcast %"class.std::__1::basic_string"* %71 to i8*
  tail call void @llvm.memcpy.p0i8.p0i8.i64(i8* align 8 %106, i8* align 8 %107, i64 24, i1 false) #17
  br label %124

108:                                              ; preds = %104
  %109 = getelementptr inbounds %"class.std::__1::basic_string", %"class.std::__1::basic_string"* %71, i64 0, i32 0, i32 0, i32 0, i32 0, i32 0, i32 0
  %110 = load i8*, i8** %109, align 8
  %111 = getelementptr inbounds %"class.std::__1::basic_string", %"class.std::__1::basic_string"* %71, i64 0, i32 0, i32 0, i32 0, i32 0, i32 0, i32 1
  %112 = load i64, i64* %111, align 8
  %113 = tail call dereferenceable(24) %"class.std::__1::basic_string"* @_ZNSt3__112basic_stringIcNS_11char_traitsIcEENS_9allocatorIcEEE17__assign_no_aliasILb1EEERS5_PKcm(%"class.std::__1::basic_string"* %90, i8* %110, i64 %112) #17
  br label %124

114:                                              ; preds = %95
  %115 = getelementptr inbounds %"class.std::__1::basic_string", %"class.std::__1::basic_string"* %71, i64 0, i32 0, i32 0, i32 0, i32 0, i32 0, i32 0
  %116 = load i8*, i8** %115, align 8
  %117 = getelementptr inbounds %"class.std::__1::basic_string", %"class.std::__1::basic_string"* %71, i64 0, i32 0, i32 0, i32 0, i32 0, i32 0, i32 1
  %118 = load i64, i64* %117, align 8
  %119 = bitcast %"class.std::__1::basic_string"* %71 to i8*
  %120 = zext i8 %102 to i64
  %121 = select i1 %103, i8* %116, i8* %119
  %122 = select i1 %103, i64 %118, i64 %120
  %123 = tail call dereferenceable(24) %"class.std::__1::basic_string"* @_ZNSt3__112basic_stringIcNS_11char_traitsIcEENS_9allocatorIcEEE17__assign_no_aliasILb0EEERS5_PKcm(%"class.std::__1::basic_string"* %90, i8* %121, i64 %122) #17
  br label %124

124:                                              ; preds = %114, %108, %105, %93, %92, %66
  %125 = and i32 %63, 2
  %126 = icmp eq i32 %125, 0
  br i1 %126, label %131, label %127

127:                                              ; preds = %124
  %128 = getelementptr inbounds %"class.segmentation_platform::proto::HistogramEnumFeature", %"class.segmentation_platform::proto::HistogramEnumFeature"* %1, i64 0, i32 5
  %129 = load i64, i64* %128, align 8
  %130 = getelementptr inbounds %"class.segmentation_platform::proto::HistogramEnumFeature", %"class.segmentation_platform::proto::HistogramEnumFeature"* %0, i64 0, i32 5
  store i64 %129, i64* %130, align 8
  br label %131

131:                                              ; preds = %124, %127
  %132 = getelementptr inbounds %"class.segmentation_platform::proto::HistogramEnumFeature", %"class.segmentation_platform::proto::HistogramEnumFeature"* %0, i64 0, i32 1, i32 0, i64 0
  %133 = load i32, i32* %132, align 4
  %134 = or i32 %133, %63
  store i32 %134, i32* %132, align 4
  br label %135

135:                                              ; preds = %61, %131
  ret void
}

; Function Attrs: nounwind ssp uwtable
define hidden void @_ZN21segmentation_platform5proto20HistogramEnumFeature8CopyFromERKS1_(%"class.segmentation_platform::proto::HistogramEnumFeature"*, %"class.segmentation_platform::proto::HistogramEnumFeature"* readonly dereferenceable(56)) local_unnamed_addr #0 align 2 {
  %3 = icmp eq %"class.segmentation_platform::proto::HistogramEnumFeature"* %1, %0
  br i1 %3, label %45, label %4

4:                                                ; preds = %2
  %5 = getelementptr inbounds %"class.segmentation_platform::proto::HistogramEnumFeature", %"class.segmentation_platform::proto::HistogramEnumFeature"* %0, i64 0, i32 3, i32 0
  store i32 0, i32* %5, align 8
  %6 = getelementptr inbounds %"class.segmentation_platform::proto::HistogramEnumFeature", %"class.segmentation_platform::proto::HistogramEnumFeature"* %0, i64 0, i32 1, i32 0, i64 0
  %7 = load i32, i32* %6, align 4
  %8 = and i32 %7, 1
  %9 = icmp eq i32 %8, 0
  br i1 %9, label %23, label %10

10:                                               ; preds = %4
  %11 = getelementptr inbounds %"class.segmentation_platform::proto::HistogramEnumFeature", %"class.segmentation_platform::proto::HistogramEnumFeature"* %0, i64 0, i32 4, i32 0
  %12 = load %"class.std::__1::basic_string"*, %"class.std::__1::basic_string"** %11, align 8
  %13 = bitcast %"class.std::__1::basic_string"* %12 to %"struct.std::__1::basic_string<char, std::__1::char_traits<char>, std::__1::allocator<char> >::__short"*
  %14 = getelementptr inbounds %"struct.std::__1::basic_string<char, std::__1::char_traits<char>, std::__1::allocator<char> >::__short", %"struct.std::__1::basic_string<char, std::__1::char_traits<char>, std::__1::allocator<char> >::__short"* %13, i64 0, i32 1, i32 0
  %15 = load i8, i8* %14, align 1
  %16 = icmp slt i8 %15, 0
  br i1 %16, label %17, label %21

17:                                               ; preds = %10
  %18 = getelementptr inbounds %"class.std::__1::basic_string", %"class.std::__1::basic_string"* %12, i64 0, i32 0, i32 0, i32 0, i32 0, i32 0, i32 0
  %19 = load i8*, i8** %18, align 8
  store i8 0, i8* %19, align 1
  %20 = getelementptr inbounds %"class.std::__1::basic_string", %"class.std::__1::basic_string"* %12, i64 0, i32 0, i32 0, i32 0, i32 0, i32 0, i32 1
  store i64 0, i64* %20, align 8
  br label %23

21:                                               ; preds = %10
  %22 = bitcast %"class.std::__1::basic_string"* %12 to i8*
  store i8 0, i8* %22, align 1
  store i8 0, i8* %14, align 1
  br label %23

23:                                               ; preds = %21, %17, %4
  %24 = getelementptr inbounds %"class.segmentation_platform::proto::HistogramEnumFeature", %"class.segmentation_platform::proto::HistogramEnumFeature"* %0, i64 0, i32 5
  store i64 0, i64* %24, align 8
  store i32 0, i32* %6, align 4
  %25 = getelementptr inbounds %"class.segmentation_platform::proto::HistogramEnumFeature", %"class.segmentation_platform::proto::HistogramEnumFeature"* %0, i64 0, i32 0, i32 1
  %26 = bitcast %"class.google::protobuf::internal::InternalMetadata"* %25 to i64*
  %27 = load i64, i64* %26, align 8
  %28 = and i64 %27, 1
  %29 = icmp eq i64 %28, 0
  br i1 %29, label %44, label %30

30:                                               ; preds = %23
  %31 = and i64 %27, -2
  %32 = inttoptr i64 %31 to %"struct.google::protobuf::internal::InternalMetadata::Container"*
  %33 = getelementptr inbounds %"struct.google::protobuf::internal::InternalMetadata::Container", %"struct.google::protobuf::internal::InternalMetadata::Container"* %32, i64 0, i32 1
  %34 = bitcast %"class.std::__1::basic_string"* %33 to %"struct.std::__1::basic_string<char, std::__1::char_traits<char>, std::__1::allocator<char> >::__short"*
  %35 = getelementptr inbounds %"struct.std::__1::basic_string<char, std::__1::char_traits<char>, std::__1::allocator<char> >::__short", %"struct.std::__1::basic_string<char, std::__1::char_traits<char>, std::__1::allocator<char> >::__short"* %34, i64 0, i32 1, i32 0
  %36 = load i8, i8* %35, align 1
  %37 = icmp slt i8 %36, 0
  br i1 %37, label %38, label %42

38:                                               ; preds = %30
  %39 = getelementptr inbounds %"class.std::__1::basic_string", %"class.std::__1::basic_string"* %33, i64 0, i32 0, i32 0, i32 0, i32 0, i32 0, i32 0
  %40 = load i8*, i8** %39, align 8
  store i8 0, i8* %40, align 1
  %41 = getelementptr inbounds %"struct.google::protobuf::internal::InternalMetadata::Container", %"struct.google::protobuf::internal::InternalMetadata::Container"* %32, i64 0, i32 1, i32 0, i32 0, i32 0, i32 0, i32 0, i32 1
  store i64 0, i64* %41, align 8
  br label %44

42:                                               ; preds = %30
  %43 = bitcast %"class.std::__1::basic_string"* %33 to i8*
  store i8 0, i8* %43, align 2
  store i8 0, i8* %35, align 1
  br label %44

44:                                               ; preds = %23, %38, %42
  tail call void @_ZN21segmentation_platform5proto20HistogramEnumFeature9MergeFromERKS1_(%"class.segmentation_platform::proto::HistogramEnumFeature"* %0, %"class.segmentation_platform::proto::HistogramEnumFeature"* dereferenceable(56) %1)
  br label %45

45:                                               ; preds = %2, %44
  ret void
}

; Function Attrs: norecurse nounwind readnone ssp uwtable
define hidden zeroext i1 @_ZNK21segmentation_platform5proto20HistogramEnumFeature13IsInitializedEv(%"class.segmentation_platform::proto::HistogramEnumFeature"* nocapture readnone) unnamed_addr #1 align 2 {
  ret i1 true
}

; Function Attrs: nounwind ssp uwtable
define hidden void @_ZN21segmentation_platform5proto20HistogramEnumFeature12InternalSwapEPS1_(%"class.segmentation_platform::proto::HistogramEnumFeature"*, %"class.segmentation_platform::proto::HistogramEnumFeature"*) local_unnamed_addr #0 align 2 {
  %3 = getelementptr inbounds %"class.segmentation_platform::proto::HistogramEnumFeature", %"class.segmentation_platform::proto::HistogramEnumFeature"* %0, i64 0, i32 0, i32 1
  %4 = getelementptr inbounds %"class.segmentation_platform::proto::HistogramEnumFeature", %"class.segmentation_platform::proto::HistogramEnumFeature"* %1, i64 0, i32 0, i32 1
  %5 = bitcast %"class.google::protobuf::internal::InternalMetadata"* %3 to i64*
  %6 = load i64, i64* %5, align 8
  %7 = bitcast %"class.google::protobuf::internal::InternalMetadata"* %4 to i64*
  %8 = load i64, i64* %7, align 8
  %9 = or i64 %8, %6
  %10 = and i64 %9, 1
  %11 = icmp eq i64 %10, 0
  br i1 %11, label %43, label %12

12:                                               ; preds = %2
  %13 = and i64 %8, 1
  %14 = icmp eq i64 %13, 0
  br i1 %14, label %19, label %15, !prof !5

15:                                               ; preds = %12
  %16 = and i64 %8, -2
  %17 = inttoptr i64 %16 to %"struct.google::protobuf::internal::InternalMetadata::Container"*
  %18 = getelementptr inbounds %"struct.google::protobuf::internal::InternalMetadata::Container", %"struct.google::protobuf::internal::InternalMetadata::Container"* %17, i64 0, i32 1
  br label %22

19:                                               ; preds = %12
  %20 = tail call %"class.std::__1::basic_string"* @_ZN6google8protobuf8internal16InternalMetadata27mutable_unknown_fields_slowINSt3__112basic_stringIcNS4_11char_traitsIcEENS4_9allocatorIcEEEEEEPT_v(%"class.google::protobuf::internal::InternalMetadata"* %4) #17
  %21 = load i64, i64* %5, align 8
  br label %22

22:                                               ; preds = %19, %15
  %23 = phi i64 [ %6, %15 ], [ %21, %19 ]
  %24 = phi %"class.std::__1::basic_string"* [ %18, %15 ], [ %20, %19 ]
  %25 = and i64 %23, 1
  %26 = icmp eq i64 %25, 0
  br i1 %26, label %31, label %27, !prof !5

27:                                               ; preds = %22
  %28 = and i64 %23, -2
  %29 = inttoptr i64 %28 to %"struct.google::protobuf::internal::InternalMetadata::Container"*
  %30 = getelementptr inbounds %"struct.google::protobuf::internal::InternalMetadata::Container", %"struct.google::protobuf::internal::InternalMetadata::Container"* %29, i64 0, i32 1
  br label %33

31:                                               ; preds = %22
  %32 = tail call %"class.std::__1::basic_string"* @_ZN6google8protobuf8internal16InternalMetadata27mutable_unknown_fields_slowINSt3__112basic_stringIcNS4_11char_traitsIcEENS4_9allocatorIcEEEEEEPT_v(%"class.google::protobuf::internal::InternalMetadata"* %3) #17
  br label %33

33:                                               ; preds = %31, %27
  %34 = phi %"class.std::__1::basic_string"* [ %30, %27 ], [ %32, %31 ]
  %35 = bitcast %"class.std::__1::basic_string"* %34 to <2 x i64>*
  %36 = load <2 x i64>, <2 x i64>* %35, align 8
  %37 = getelementptr inbounds %"class.std::__1::basic_string", %"class.std::__1::basic_string"* %34, i64 0, i32 0, i32 0, i32 0, i32 0, i32 0, i32 2
  %38 = load i64, i64* %37, align 8
  %39 = bitcast %"class.std::__1::basic_string"* %34 to i8*
  %40 = bitcast %"class.std::__1::basic_string"* %24 to i8*
  tail call void @llvm.memcpy.p0i8.p0i8.i64(i8* align 8 %39, i8* align 8 %40, i64 24, i1 false) #17
  %41 = bitcast %"class.std::__1::basic_string"* %24 to <2 x i64>*
  store <2 x i64> %36, <2 x i64>* %41, align 8
  %42 = getelementptr inbounds %"class.std::__1::basic_string", %"class.std::__1::basic_string"* %24, i64 0, i32 0, i32 0, i32 0, i32 0, i32 0, i32 2
  store i64 %38, i64* %42, align 8
  br label %43

43:                                               ; preds = %2, %33
  %44 = getelementptr inbounds %"class.segmentation_platform::proto::HistogramEnumFeature", %"class.segmentation_platform::proto::HistogramEnumFeature"* %0, i64 0, i32 1, i32 0, i64 0
  %45 = getelementptr inbounds %"class.segmentation_platform::proto::HistogramEnumFeature", %"class.segmentation_platform::proto::HistogramEnumFeature"* %1, i64 0, i32 1, i32 0, i64 0
  %46 = load i32, i32* %44, align 4
  %47 = load i32, i32* %45, align 4
  store i32 %47, i32* %44, align 4
  store i32 %46, i32* %45, align 4
  %48 = getelementptr inbounds %"class.segmentation_platform::proto::HistogramEnumFeature", %"class.segmentation_platform::proto::HistogramEnumFeature"* %0, i64 0, i32 3
  %49 = getelementptr inbounds %"class.segmentation_platform::proto::HistogramEnumFeature", %"class.segmentation_platform::proto::HistogramEnumFeature"* %1, i64 0, i32 3
  %50 = bitcast %"class.google::protobuf::RepeatedField"* %48 to i8*
  %51 = bitcast %"class.google::protobuf::RepeatedField"* %49 to i8*
  %52 = bitcast %"class.google::protobuf::RepeatedField"* %48 to i128*
  %53 = load i128, i128* %52, align 1
  tail call void @llvm.memcpy.p0i8.p0i8.i64(i8* align 1 %50, i8* align 1 %51, i64 16, i1 false) #17
  %54 = bitcast %"class.google::protobuf::RepeatedField"* %49 to i128*
  store i128 %53, i128* %54, align 1
  %55 = getelementptr inbounds %"class.segmentation_platform::proto::HistogramEnumFeature", %"class.segmentation_platform::proto::HistogramEnumFeature"* %0, i64 0, i32 4
  %56 = getelementptr inbounds %"class.segmentation_platform::proto::HistogramEnumFeature", %"class.segmentation_platform::proto::HistogramEnumFeature"* %1, i64 0, i32 4
  %57 = bitcast %"struct.google::protobuf::internal::ArenaStringPtr"* %55 to i64*
  %58 = load i64, i64* %57, align 8
  %59 = bitcast %"struct.google::protobuf::internal::ArenaStringPtr"* %56 to i64*
  %60 = load i64, i64* %59, align 8
  store i64 %60, i64* %57, align 8
  store i64 %58, i64* %59, align 8
  %61 = getelementptr inbounds %"class.segmentation_platform::proto::HistogramEnumFeature", %"class.segmentation_platform::proto::HistogramEnumFeature"* %0, i64 0, i32 5
  %62 = getelementptr inbounds %"class.segmentation_platform::proto::HistogramEnumFeature", %"class.segmentation_platform::proto::HistogramEnumFeature"* %1, i64 0, i32 5
  %63 = load i64, i64* %61, align 8
  %64 = load i64, i64* %62, align 8
  store i64 %64, i64* %61, align 8
  store i64 %63, i64* %62, align 8
  ret void
}

; Function Attrs: nounwind ssp uwtable
define hidden void @_ZNK21segmentation_platform5proto20HistogramEnumFeature11GetTypeNameEv(%"class.std::__1::basic_string"* noalias sret, %"class.segmentation_platform::proto::HistogramEnumFeature"* nocapture readnone) unnamed_addr #0 align 2 {
  %3 = tail call i8* @_Znwm(i64 64) #18
  %4 = getelementptr inbounds %"class.std::__1::basic_string", %"class.std::__1::basic_string"* %0, i64 0, i32 0, i32 0, i32 0, i32 0, i32 0, i32 0
  store i8* %3, i8** %4, align 8
  %5 = getelementptr inbounds %"class.std::__1::basic_string", %"class.std::__1::basic_string"* %0, i64 0, i32 0, i32 0, i32 0, i32 0, i32 0, i32 1
  %6 = bitcast i64* %5 to <2 x i64>*
  store <2 x i64> <i64 48, i64 -9223372036854775744>, <2 x i64>* %6, align 8
  tail call void @llvm.memcpy.p0i8.p0i8.i64(i8* nonnull align 1 %3, i8* align 1 getelementptr inbounds ([49 x i8], [49 x i8]* @.str.8, i64 0, i64 0), i64 48, i1 false) #17
  %7 = getelementptr inbounds i8, i8* %3, i64 48
  store i8 0, i8* %7, align 1
  ret void
}

; Function Attrs: nofree norecurse nounwind ssp uwtable writeonly
define hidden void @_ZN21segmentation_platform5proto17UserActionFeatureC2EPN6google8protobuf5ArenaE(%"class.segmentation_platform::proto::UserActionFeature"* nocapture, %"class.google::protobuf::Arena"*) unnamed_addr #8 align 2 {
  %3 = getelementptr inbounds %"class.segmentation_platform::proto::UserActionFeature", %"class.segmentation_platform::proto::UserActionFeature"* %0, i64 0, i32 0, i32 0
  %4 = getelementptr inbounds %"class.segmentation_platform::proto::UserActionFeature", %"class.segmentation_platform::proto::UserActionFeature"* %0, i64 0, i32 0, i32 1
  %5 = bitcast %"class.google::protobuf::internal::InternalMetadata"* %4 to %"class.google::protobuf::Arena"**
  store %"class.google::protobuf::Arena"* %1, %"class.google::protobuf::Arena"** %5, align 8
  store i32 (...)** bitcast (i8** getelementptr inbounds ({ [16 x i8*] }, { [16 x i8*] }* @_ZTVN21segmentation_platform5proto17UserActionFeatureE, i64 0, inrange i32 0, i64 2) to i32 (...)**), i32 (...)*** %3, align 8
  %6 = getelementptr inbounds %"class.segmentation_platform::proto::UserActionFeature", %"class.segmentation_platform::proto::UserActionFeature"* %0, i64 0, i32 1, i32 0, i64 0
  %7 = bitcast i32* %6 to i8*
  call void @llvm.memset.p0i8.i64(i8* align 4 %7, i8 0, i64 16, i1 false)
  ret void
}

; Function Attrs: nounwind ssp uwtable
define hidden void @_ZN21segmentation_platform5proto17UserActionFeatureC2ERKS1_(%"class.segmentation_platform::proto::UserActionFeature"*, %"class.segmentation_platform::proto::UserActionFeature"* nocapture readonly dereferenceable(32)) unnamed_addr #0 align 2 {
  %3 = getelementptr inbounds %"class.segmentation_platform::proto::UserActionFeature", %"class.segmentation_platform::proto::UserActionFeature"* %0, i64 0, i32 0, i32 0
  %4 = getelementptr inbounds %"class.segmentation_platform::proto::UserActionFeature", %"class.segmentation_platform::proto::UserActionFeature"* %0, i64 0, i32 0, i32 1, i32 0
  store i8* null, i8** %4, align 8
  store i32 (...)** bitcast (i8** getelementptr inbounds ({ [16 x i8*] }, { [16 x i8*] }* @_ZTVN21segmentation_platform5proto17UserActionFeatureE, i64 0, inrange i32 0, i64 2) to i32 (...)**), i32 (...)*** %3, align 8
  %5 = getelementptr inbounds %"class.segmentation_platform::proto::UserActionFeature", %"class.segmentation_platform::proto::UserActionFeature"* %1, i64 0, i32 1, i32 0, i64 0
  %6 = getelementptr inbounds %"class.segmentation_platform::proto::UserActionFeature", %"class.segmentation_platform::proto::UserActionFeature"* %0, i64 0, i32 1, i32 0, i64 0
  %7 = load i32, i32* %5, align 8
  store i32 %7, i32* %6, align 8
  %8 = getelementptr inbounds %"class.segmentation_platform::proto::UserActionFeature", %"class.segmentation_platform::proto::UserActionFeature"* %0, i64 0, i32 2, i32 0, i32 0, i32 0, i32 0, i32 0, i32 0
  store i32 0, i32* %8, align 4
  %9 = getelementptr inbounds %"class.segmentation_platform::proto::UserActionFeature", %"class.segmentation_platform::proto::UserActionFeature"* %1, i64 0, i32 0, i32 1
  %10 = bitcast %"class.google::protobuf::internal::InternalMetadata"* %9 to i64*
  %11 = load i64, i64* %10, align 8
  %12 = and i64 %11, 1
  %13 = icmp eq i64 %12, 0
  br i1 %13, label %33, label %14

14:                                               ; preds = %2
  %15 = getelementptr inbounds %"class.segmentation_platform::proto::UserActionFeature", %"class.segmentation_platform::proto::UserActionFeature"* %0, i64 0, i32 0, i32 1
  %16 = and i64 %11, -2
  %17 = inttoptr i64 %16 to %"struct.google::protobuf::internal::InternalMetadata::Container"*
  %18 = getelementptr inbounds %"struct.google::protobuf::internal::InternalMetadata::Container", %"struct.google::protobuf::internal::InternalMetadata::Container"* %17, i64 0, i32 1
  %19 = tail call %"class.std::__1::basic_string"* @_ZN6google8protobuf8internal16InternalMetadata27mutable_unknown_fields_slowINSt3__112basic_stringIcNS4_11char_traitsIcEENS4_9allocatorIcEEEEEEPT_v(%"class.google::protobuf::internal::InternalMetadata"* %15) #17
  %20 = bitcast %"class.std::__1::basic_string"* %18 to %"struct.std::__1::basic_string<char, std::__1::char_traits<char>, std::__1::allocator<char> >::__short"*
  %21 = getelementptr inbounds %"struct.std::__1::basic_string<char, std::__1::char_traits<char>, std::__1::allocator<char> >::__short", %"struct.std::__1::basic_string<char, std::__1::char_traits<char>, std::__1::allocator<char> >::__short"* %20, i64 0, i32 1, i32 0
  %22 = load i8, i8* %21, align 1
  %23 = icmp slt i8 %22, 0
  %24 = getelementptr inbounds %"class.std::__1::basic_string", %"class.std::__1::basic_string"* %18, i64 0, i32 0, i32 0, i32 0, i32 0, i32 0, i32 0
  %25 = load i8*, i8** %24, align 8
  %26 = getelementptr inbounds %"struct.google::protobuf::internal::InternalMetadata::Container", %"struct.google::protobuf::internal::InternalMetadata::Container"* %17, i64 0, i32 1, i32 0, i32 0, i32 0, i32 0, i32 0, i32 1
  %27 = load i64, i64* %26, align 8
  %28 = bitcast %"class.std::__1::basic_string"* %18 to i8*
  %29 = zext i8 %22 to i64
  %30 = select i1 %23, i8* %25, i8* %28
  %31 = select i1 %23, i64 %27, i64 %29
  %32 = tail call dereferenceable(24) %"class.std::__1::basic_string"* @_ZNSt3__112basic_stringIcNS_11char_traitsIcEENS_9allocatorIcEEE6appendEPKcm(%"class.std::__1::basic_string"* %19, i8* %30, i64 %31) #17
  br label %33

33:                                               ; preds = %2, %14
  %34 = getelementptr inbounds %"class.segmentation_platform::proto::UserActionFeature", %"class.segmentation_platform::proto::UserActionFeature"* %1, i64 0, i32 3
  %35 = load i64, i64* %34, align 8
  %36 = getelementptr inbounds %"class.segmentation_platform::proto::UserActionFeature", %"class.segmentation_platform::proto::UserActionFeature"* %0, i64 0, i32 3
  store i64 %35, i64* %36, align 8
  ret void
}

; Function Attrs: nounwind ssp uwtable
define hidden void @_ZN21segmentation_platform5proto17UserActionFeatureD2Ev(%"class.segmentation_platform::proto::UserActionFeature"* nocapture) unnamed_addr #0 align 2 {
  %2 = getelementptr inbounds %"class.segmentation_platform::proto::UserActionFeature", %"class.segmentation_platform::proto::UserActionFeature"* %0, i64 0, i32 0, i32 0
  store i32 (...)** bitcast (i8** getelementptr inbounds ({ [16 x i8*] }, { [16 x i8*] }* @_ZTVN21segmentation_platform5proto17UserActionFeatureE, i64 0, inrange i32 0, i64 2) to i32 (...)**), i32 (...)*** %2, align 8
  %3 = getelementptr inbounds %"class.segmentation_platform::proto::UserActionFeature", %"class.segmentation_platform::proto::UserActionFeature"* %0, i64 0, i32 0, i32 1
  %4 = bitcast %"class.google::protobuf::internal::InternalMetadata"* %3 to i64*
  %5 = load i64, i64* %4, align 8
  %6 = and i64 %5, 1
  %7 = icmp eq i64 %6, 0
  br i1 %7, label %28, label %8

8:                                                ; preds = %1
  %9 = and i64 %5, -2
  %10 = inttoptr i64 %9 to %"struct.google::protobuf::internal::InternalMetadata::ContainerBase"*
  %11 = getelementptr inbounds %"struct.google::protobuf::internal::InternalMetadata::ContainerBase", %"struct.google::protobuf::internal::InternalMetadata::ContainerBase"* %10, i64 0, i32 0
  %12 = load %"class.google::protobuf::Arena"*, %"class.google::protobuf::Arena"** %11, align 8
  %13 = icmp ne %"class.google::protobuf::Arena"* %12, null
  %14 = icmp eq i64 %9, 0
  %15 = or i1 %14, %13
  br i1 %15, label %28, label %16

16:                                               ; preds = %8
  %17 = inttoptr i64 %9 to %"struct.google::protobuf::internal::InternalMetadata::Container"*
  %18 = getelementptr inbounds %"struct.google::protobuf::internal::InternalMetadata::Container", %"struct.google::protobuf::internal::InternalMetadata::Container"* %17, i64 0, i32 1
  %19 = bitcast %"class.std::__1::basic_string"* %18 to %"struct.std::__1::basic_string<char, std::__1::char_traits<char>, std::__1::allocator<char> >::__short"*
  %20 = getelementptr inbounds %"struct.std::__1::basic_string<char, std::__1::char_traits<char>, std::__1::allocator<char> >::__short", %"struct.std::__1::basic_string<char, std::__1::char_traits<char>, std::__1::allocator<char> >::__short"* %19, i64 0, i32 1, i32 0
  %21 = load i8, i8* %20, align 1
  %22 = icmp slt i8 %21, 0
  br i1 %22, label %23, label %26

23:                                               ; preds = %16
  %24 = getelementptr inbounds %"class.std::__1::basic_string", %"class.std::__1::basic_string"* %18, i64 0, i32 0, i32 0, i32 0, i32 0, i32 0, i32 0
  %25 = load i8*, i8** %24, align 8
  tail call void @_ZdlPv(i8* %25) #18
  br label %26

26:                                               ; preds = %23, %16
  %27 = inttoptr i64 %9 to i8*
  tail call void @_ZdlPv(i8* %27) #18
  br label %28

28:                                               ; preds = %1, %8, %26
  ret void
}

; Function Attrs: nounwind ssp uwtable
define hidden void @_ZN21segmentation_platform5proto17UserActionFeatureD0Ev(%"class.segmentation_platform::proto::UserActionFeature"*) unnamed_addr #0 align 2 {
  %2 = getelementptr inbounds %"class.segmentation_platform::proto::UserActionFeature", %"class.segmentation_platform::proto::UserActionFeature"* %0, i64 0, i32 0, i32 0
  store i32 (...)** bitcast (i8** getelementptr inbounds ({ [16 x i8*] }, { [16 x i8*] }* @_ZTVN21segmentation_platform5proto17UserActionFeatureE, i64 0, inrange i32 0, i64 2) to i32 (...)**), i32 (...)*** %2, align 8
  %3 = getelementptr inbounds %"class.segmentation_platform::proto::UserActionFeature", %"class.segmentation_platform::proto::UserActionFeature"* %0, i64 0, i32 0, i32 1
  %4 = bitcast %"class.google::protobuf::internal::InternalMetadata"* %3 to i64*
  %5 = load i64, i64* %4, align 8
  %6 = and i64 %5, 1
  %7 = icmp eq i64 %6, 0
  br i1 %7, label %28, label %8

8:                                                ; preds = %1
  %9 = and i64 %5, -2
  %10 = inttoptr i64 %9 to %"struct.google::protobuf::internal::InternalMetadata::ContainerBase"*
  %11 = getelementptr inbounds %"struct.google::protobuf::internal::InternalMetadata::ContainerBase", %"struct.google::protobuf::internal::InternalMetadata::ContainerBase"* %10, i64 0, i32 0
  %12 = load %"class.google::protobuf::Arena"*, %"class.google::protobuf::Arena"** %11, align 8
  %13 = icmp ne %"class.google::protobuf::Arena"* %12, null
  %14 = icmp eq i64 %9, 0
  %15 = or i1 %14, %13
  br i1 %15, label %28, label %16

16:                                               ; preds = %8
  %17 = inttoptr i64 %9 to %"struct.google::protobuf::internal::InternalMetadata::Container"*
  %18 = getelementptr inbounds %"struct.google::protobuf::internal::InternalMetadata::Container", %"struct.google::protobuf::internal::InternalMetadata::Container"* %17, i64 0, i32 1
  %19 = bitcast %"class.std::__1::basic_string"* %18 to %"struct.std::__1::basic_string<char, std::__1::char_traits<char>, std::__1::allocator<char> >::__short"*
  %20 = getelementptr inbounds %"struct.std::__1::basic_string<char, std::__1::char_traits<char>, std::__1::allocator<char> >::__short", %"struct.std::__1::basic_string<char, std::__1::char_traits<char>, std::__1::allocator<char> >::__short"* %19, i64 0, i32 1, i32 0
  %21 = load i8, i8* %20, align 1
  %22 = icmp slt i8 %21, 0
  br i1 %22, label %23, label %26

23:                                               ; preds = %16
  %24 = getelementptr inbounds %"class.std::__1::basic_string", %"class.std::__1::basic_string"* %18, i64 0, i32 0, i32 0, i32 0, i32 0, i32 0, i32 0
  %25 = load i8*, i8** %24, align 8
  tail call void @_ZdlPv(i8* %25) #18
  br label %26

26:                                               ; preds = %23, %16
  %27 = inttoptr i64 %9 to i8*
  tail call void @_ZdlPv(i8* %27) #18
  br label %28

28:                                               ; preds = %1, %8, %26
  %29 = bitcast %"class.segmentation_platform::proto::UserActionFeature"* %0 to i8*
  tail call void @_ZdlPv(i8* %29) #18
  ret void
}

; Function Attrs: norecurse nounwind readnone ssp uwtable
define hidden void @_ZN21segmentation_platform5proto17UserActionFeature9ArenaDtorEPv(i8* nocapture) local_unnamed_addr #1 align 2 {
  ret void
}

; Function Attrs: nofree norecurse nounwind ssp uwtable
define hidden void @_ZNK21segmentation_platform5proto17UserActionFeature13SetCachedSizeEi(%"class.segmentation_platform::proto::UserActionFeature"* nocapture, i32) local_unnamed_addr #6 align 2 {
  %3 = getelementptr inbounds %"class.segmentation_platform::proto::UserActionFeature", %"class.segmentation_platform::proto::UserActionFeature"* %0, i64 0, i32 2, i32 0, i32 0, i32 0, i32 0, i32 0, i32 0
  store atomic i32 %1, i32* %3 monotonic, align 4
  ret void
}

; Function Attrs: nounwind ssp uwtable
define hidden dereferenceable(32) %"class.segmentation_platform::proto::UserActionFeature"* @_ZN21segmentation_platform5proto17UserActionFeature16default_instanceEv() local_unnamed_addr #0 align 2 {
  %1 = load atomic i32, i32* getelementptr inbounds ({ { { { i32 } }, i32, i32, void ()* }, [0 x i8*] }, { { { { i32 } }, i32, i32, void ()* }, [0 x i8*] }* @scc_info_UserActionFeature_components_2fsegmentation_5fplatform_2finternal_2fproto_2fmodel_5fmetadata_2eproto, i64 0, i32 0, i32 0, i32 0, i32 0) acquire, align 8
  %2 = icmp eq i32 %1, 0
  br i1 %2, label %4, label %3, !prof !2

3:                                                ; preds = %0
  tail call void @_ZN6google8protobuf8internal11InitSCCImplEPNS1_11SCCInfoBaseE(%"struct.google::protobuf::internal::SCCInfoBase"* bitcast ({ { { { i32 } }, i32, i32, void ()* }, [0 x i8*] }* @scc_info_UserActionFeature_components_2fsegmentation_5fplatform_2finternal_2fproto_2fmodel_5fmetadata_2eproto to %"struct.google::protobuf::internal::SCCInfoBase"*)) #17
  br label %4

4:                                                ; preds = %0, %3
  ret %"class.segmentation_platform::proto::UserActionFeature"* bitcast (%"class.segmentation_platform::proto::UserActionFeatureDefaultTypeInternal"* @_ZN21segmentation_platform5proto36_UserActionFeature_default_instance_E to %"class.segmentation_platform::proto::UserActionFeature"*)
}

; Function Attrs: nofree norecurse nounwind ssp uwtable
define hidden void @_ZN21segmentation_platform5proto17UserActionFeature5ClearEv(%"class.segmentation_platform::proto::UserActionFeature"* nocapture) unnamed_addr #6 align 2 {
  %2 = getelementptr inbounds %"class.segmentation_platform::proto::UserActionFeature", %"class.segmentation_platform::proto::UserActionFeature"* %0, i64 0, i32 3
  store i64 0, i64* %2, align 8
  %3 = getelementptr inbounds %"class.segmentation_platform::proto::UserActionFeature", %"class.segmentation_platform::proto::UserActionFeature"* %0, i64 0, i32 1, i32 0, i64 0
  store i32 0, i32* %3, align 4
  %4 = getelementptr inbounds %"class.segmentation_platform::proto::UserActionFeature", %"class.segmentation_platform::proto::UserActionFeature"* %0, i64 0, i32 0, i32 1
  %5 = bitcast %"class.google::protobuf::internal::InternalMetadata"* %4 to i64*
  %6 = load i64, i64* %5, align 8
  %7 = and i64 %6, 1
  %8 = icmp eq i64 %7, 0
  br i1 %8, label %23, label %9

9:                                                ; preds = %1
  %10 = and i64 %6, -2
  %11 = inttoptr i64 %10 to %"struct.google::protobuf::internal::InternalMetadata::Container"*
  %12 = getelementptr inbounds %"struct.google::protobuf::internal::InternalMetadata::Container", %"struct.google::protobuf::internal::InternalMetadata::Container"* %11, i64 0, i32 1
  %13 = bitcast %"class.std::__1::basic_string"* %12 to %"struct.std::__1::basic_string<char, std::__1::char_traits<char>, std::__1::allocator<char> >::__short"*
  %14 = getelementptr inbounds %"struct.std::__1::basic_string<char, std::__1::char_traits<char>, std::__1::allocator<char> >::__short", %"struct.std::__1::basic_string<char, std::__1::char_traits<char>, std::__1::allocator<char> >::__short"* %13, i64 0, i32 1, i32 0
  %15 = load i8, i8* %14, align 1
  %16 = icmp slt i8 %15, 0
  br i1 %16, label %17, label %21

17:                                               ; preds = %9
  %18 = getelementptr inbounds %"class.std::__1::basic_string", %"class.std::__1::basic_string"* %12, i64 0, i32 0, i32 0, i32 0, i32 0, i32 0, i32 0
  %19 = load i8*, i8** %18, align 8
  store i8 0, i8* %19, align 1
  %20 = getelementptr inbounds %"struct.google::protobuf::internal::InternalMetadata::Container", %"struct.google::protobuf::internal::InternalMetadata::Container"* %11, i64 0, i32 1, i32 0, i32 0, i32 0, i32 0, i32 0, i32 1
  store i64 0, i64* %20, align 8
  br label %23

21:                                               ; preds = %9
  %22 = bitcast %"class.std::__1::basic_string"* %12 to i8*
  store i8 0, i8* %22, align 2
  store i8 0, i8* %14, align 1
  br label %23

23:                                               ; preds = %1, %17, %21
  ret void
}

; Function Attrs: nounwind ssp uwtable
define hidden i8* @_ZN21segmentation_platform5proto17UserActionFeature14_InternalParseEPKcPN6google8protobuf8internal12ParseContextE(%"class.segmentation_platform::proto::UserActionFeature"*, i8*, %"class.google::protobuf::internal::ParseContext"*) unnamed_addr #0 align 2 {
  %4 = getelementptr inbounds %"class.google::protobuf::internal::ParseContext", %"class.google::protobuf::internal::ParseContext"* %2, i64 0, i32 0
  %5 = getelementptr inbounds %"class.google::protobuf::internal::ParseContext", %"class.google::protobuf::internal::ParseContext"* %2, i64 0, i32 2
  %6 = getelementptr inbounds %"class.google::protobuf::internal::ParseContext", %"class.google::protobuf::internal::ParseContext"* %2, i64 0, i32 0, i32 0
  %7 = getelementptr inbounds %"class.google::protobuf::internal::ParseContext", %"class.google::protobuf::internal::ParseContext"* %2, i64 0, i32 0, i32 1
  %8 = bitcast i8** %7 to i64*
  %9 = getelementptr inbounds %"class.google::protobuf::internal::ParseContext", %"class.google::protobuf::internal::ParseContext"* %2, i64 0, i32 0, i32 4
  %10 = getelementptr inbounds %"class.segmentation_platform::proto::UserActionFeature", %"class.segmentation_platform::proto::UserActionFeature"* %0, i64 0, i32 0, i32 1
  %11 = bitcast %"class.google::protobuf::internal::InternalMetadata"* %10 to i64*
  %12 = getelementptr inbounds %"class.segmentation_platform::proto::UserActionFeature", %"class.segmentation_platform::proto::UserActionFeature"* %0, i64 0, i32 3
  br label %13

13:                                               ; preds = %59, %3
  %14 = phi i8* [ %63, %59 ], [ %1, %3 ]
  %15 = phi i32 [ %60, %59 ], [ 0, %3 ]
  br label %16

16:                                               ; preds = %13, %82
  %17 = phi i8* [ %84, %82 ], [ %14, %13 ]
  %18 = load i32, i32* %5, align 4
  %19 = load i8*, i8** %6, align 8
  %20 = icmp ult i8* %17, %19
  br i1 %20, label %34, label %21, !prof !2

21:                                               ; preds = %16
  %22 = load i64, i64* %8, align 8
  %23 = ptrtoint i8* %17 to i64
  %24 = sub i64 %23, %22
  %25 = load i32, i32* %9, align 4
  %26 = sext i32 %25 to i64
  %27 = icmp eq i64 %24, %26
  br i1 %27, label %86, label %28

28:                                               ; preds = %21
  %29 = tail call { i8*, i8 } @_ZN6google8protobuf8internal18EpsCopyInputStream12DoneFallbackEPKci(%"class.google::protobuf::internal::EpsCopyInputStream"* %4, i8* %17, i32 %18) #17
  %30 = extractvalue { i8*, i8 } %29, 0
  %31 = extractvalue { i8*, i8 } %29, 1
  %32 = and i8 %31, 1
  %33 = icmp eq i8 %32, 0
  br i1 %33, label %34, label %86

34:                                               ; preds = %28, %16
  %35 = phi i8* [ %30, %28 ], [ %17, %16 ]
  %36 = load i8, i8* %35, align 1
  %37 = zext i8 %36 to i32
  %38 = icmp sgt i8 %36, -1
  %39 = getelementptr inbounds i8, i8* %35, i64 1
  br i1 %38, label %53, label %40

40:                                               ; preds = %34
  %41 = load i8, i8* %39, align 1
  %42 = zext i8 %41 to i32
  %43 = shl nuw nsw i32 %42, 7
  %44 = add nsw i32 %37, -128
  %45 = add nsw i32 %44, %43
  %46 = icmp sgt i8 %41, -1
  br i1 %46, label %47, label %49

47:                                               ; preds = %40
  %48 = getelementptr inbounds i8, i8* %35, i64 2
  br label %53

49:                                               ; preds = %40
  %50 = tail call { i8*, i32 } @_ZN6google8protobuf8internal15ReadTagFallbackEPKcj(i8* %35, i32 %45) #17
  %51 = extractvalue { i8*, i32 } %50, 0
  %52 = extractvalue { i8*, i32 } %50, 1
  br label %53

53:                                               ; preds = %34, %47, %49
  %54 = phi i32 [ %45, %47 ], [ %52, %49 ], [ %37, %34 ]
  %55 = phi i8* [ %48, %47 ], [ %51, %49 ], [ %39, %34 ]
  %56 = icmp eq i8* %55, null
  br i1 %56, label %86, label %57, !prof !5

57:                                               ; preds = %53
  %58 = icmp eq i32 %54, 9
  br i1 %58, label %59, label %64, !prof !8

59:                                               ; preds = %57
  %60 = or i32 %15, 1
  %61 = bitcast i8* %55 to i64*
  %62 = load i64, i64* %61, align 1
  store i64 %62, i64* %12, align 8
  %63 = getelementptr inbounds i8, i8* %55, i64 8
  br label %13

64:                                               ; preds = %57
  %65 = and i32 %54, 7
  %66 = icmp eq i32 %65, 4
  %67 = icmp eq i32 %54, 0
  %68 = or i1 %67, %66
  br i1 %68, label %69, label %72

69:                                               ; preds = %64
  %70 = add i32 %54, -1
  %71 = getelementptr inbounds %"class.google::protobuf::internal::ParseContext", %"class.google::protobuf::internal::ParseContext"* %2, i64 0, i32 0, i32 8
  store i32 %70, i32* %71, align 8
  br label %86

72:                                               ; preds = %64
  %73 = load i64, i64* %11, align 8
  %74 = and i64 %73, 1
  %75 = icmp eq i64 %74, 0
  br i1 %75, label %80, label %76, !prof !5

76:                                               ; preds = %72
  %77 = and i64 %73, -2
  %78 = inttoptr i64 %77 to %"struct.google::protobuf::internal::InternalMetadata::Container"*
  %79 = getelementptr inbounds %"struct.google::protobuf::internal::InternalMetadata::Container", %"struct.google::protobuf::internal::InternalMetadata::Container"* %78, i64 0, i32 1
  br label %82

80:                                               ; preds = %72
  %81 = tail call %"class.std::__1::basic_string"* @_ZN6google8protobuf8internal16InternalMetadata27mutable_unknown_fields_slowINSt3__112basic_stringIcNS4_11char_traitsIcEENS4_9allocatorIcEEEEEEPT_v(%"class.google::protobuf::internal::InternalMetadata"* %10) #17
  br label %82

82:                                               ; preds = %76, %80
  %83 = phi %"class.std::__1::basic_string"* [ %79, %76 ], [ %81, %80 ]
  %84 = tail call i8* @_ZN6google8protobuf8internal17UnknownFieldParseEjPNSt3__112basic_stringIcNS2_11char_traitsIcEENS2_9allocatorIcEEEEPKcPNS1_12ParseContextE(i32 %54, %"class.std::__1::basic_string"* %83, i8* nonnull %55, %"class.google::protobuf::internal::ParseContext"* %2) #17
  %85 = icmp eq i8* %84, null
  br i1 %85, label %86, label %16

86:                                               ; preds = %28, %82, %21, %53, %69
  %87 = phi i8* [ %55, %69 ], [ null, %53 ], [ %17, %21 ], [ null, %82 ], [ %30, %28 ]
  %88 = getelementptr inbounds %"class.segmentation_platform::proto::UserActionFeature", %"class.segmentation_platform::proto::UserActionFeature"* %0, i64 0, i32 1, i32 0, i64 0
  %89 = load i32, i32* %88, align 4
  %90 = or i32 %89, %15
  store i32 %90, i32* %88, align 4
  ret i8* %87
}

; Function Attrs: nounwind ssp uwtable
define hidden i8* @_ZNK21segmentation_platform5proto17UserActionFeature18_InternalSerializeEPhPN6google8protobuf2io19EpsCopyOutputStreamE(%"class.segmentation_platform::proto::UserActionFeature"* nocapture readonly, i8*, %"class.google::protobuf::io::EpsCopyOutputStream"*) unnamed_addr #0 align 2 {
  %4 = getelementptr inbounds %"class.segmentation_platform::proto::UserActionFeature", %"class.segmentation_platform::proto::UserActionFeature"* %0, i64 0, i32 1, i32 0, i64 0
  %5 = load i32, i32* %4, align 4
  %6 = and i32 %5, 1
  %7 = icmp eq i32 %6, 0
  br i1 %7, label %21, label %8

8:                                                ; preds = %3
  %9 = getelementptr inbounds %"class.google::protobuf::io::EpsCopyOutputStream", %"class.google::protobuf::io::EpsCopyOutputStream"* %2, i64 0, i32 0
  %10 = load i8*, i8** %9, align 8
  %11 = icmp ugt i8* %10, %1
  br i1 %11, label %14, label %12, !prof !2

12:                                               ; preds = %8
  %13 = tail call i8* @_ZN6google8protobuf2io19EpsCopyOutputStream19EnsureSpaceFallbackEPh(%"class.google::protobuf::io::EpsCopyOutputStream"* %2, i8* %1) #17
  br label %14

14:                                               ; preds = %8, %12
  %15 = phi i8* [ %13, %12 ], [ %1, %8 ]
  %16 = getelementptr inbounds %"class.segmentation_platform::proto::UserActionFeature", %"class.segmentation_platform::proto::UserActionFeature"* %0, i64 0, i32 3
  %17 = load i64, i64* %16, align 8
  store i8 9, i8* %15, align 1
  %18 = getelementptr inbounds i8, i8* %15, i64 1
  %19 = bitcast i8* %18 to i64*
  store i64 %17, i64* %19, align 1
  %20 = getelementptr inbounds i8, i8* %15, i64 9
  br label %21

21:                                               ; preds = %3, %14
  %22 = phi i8* [ %20, %14 ], [ %1, %3 ]
  %23 = getelementptr inbounds %"class.segmentation_platform::proto::UserActionFeature", %"class.segmentation_platform::proto::UserActionFeature"* %0, i64 0, i32 0, i32 1
  %24 = bitcast %"class.google::protobuf::internal::InternalMetadata"* %23 to i64*
  %25 = load i64, i64* %24, align 8
  %26 = and i64 %25, 1
  %27 = icmp eq i64 %26, 0
  br i1 %27, label %59, label %28, !prof !2

28:                                               ; preds = %21
  %29 = and i64 %25, -2
  %30 = inttoptr i64 %29 to %"struct.google::protobuf::internal::InternalMetadata::Container"*
  %31 = getelementptr inbounds %"struct.google::protobuf::internal::InternalMetadata::Container", %"struct.google::protobuf::internal::InternalMetadata::Container"* %30, i64 0, i32 1
  %32 = bitcast %"class.std::__1::basic_string"* %31 to %"struct.std::__1::basic_string<char, std::__1::char_traits<char>, std::__1::allocator<char> >::__short"*
  %33 = getelementptr inbounds %"struct.std::__1::basic_string<char, std::__1::char_traits<char>, std::__1::allocator<char> >::__short", %"struct.std::__1::basic_string<char, std::__1::char_traits<char>, std::__1::allocator<char> >::__short"* %32, i64 0, i32 1, i32 0
  %34 = load i8, i8* %33, align 1
  %35 = icmp slt i8 %34, 0
  br i1 %35, label %36, label %41

36:                                               ; preds = %28
  %37 = getelementptr inbounds %"class.std::__1::basic_string", %"class.std::__1::basic_string"* %31, i64 0, i32 0, i32 0, i32 0, i32 0, i32 0, i32 0
  %38 = load i8*, i8** %37, align 8
  %39 = getelementptr inbounds %"struct.google::protobuf::internal::InternalMetadata::Container", %"struct.google::protobuf::internal::InternalMetadata::Container"* %30, i64 0, i32 1, i32 0, i32 0, i32 0, i32 0, i32 0, i32 1
  %40 = load i64, i64* %39, align 8
  br label %44

41:                                               ; preds = %28
  %42 = bitcast %"class.std::__1::basic_string"* %31 to i8*
  %43 = zext i8 %34 to i64
  br label %44

44:                                               ; preds = %36, %41
  %45 = phi i8* [ %38, %36 ], [ %42, %41 ]
  %46 = phi i64 [ %40, %36 ], [ %43, %41 ]
  %47 = bitcast %"class.google::protobuf::io::EpsCopyOutputStream"* %2 to i64*
  %48 = load i64, i64* %47, align 8
  %49 = ptrtoint i8* %22 to i64
  %50 = sub i64 %48, %49
  %51 = shl i64 %46, 32
  %52 = ashr exact i64 %51, 32
  %53 = icmp slt i64 %50, %52
  br i1 %53, label %54, label %57, !prof !5

54:                                               ; preds = %44
  %55 = trunc i64 %46 to i32
  %56 = tail call i8* @_ZN6google8protobuf2io19EpsCopyOutputStream16WriteRawFallbackEPKviPh(%"class.google::protobuf::io::EpsCopyOutputStream"* %2, i8* %45, i32 %55, i8* %22) #17
  br label %59

57:                                               ; preds = %44
  tail call void @llvm.memcpy.p0i8.p0i8.i64(i8* align 1 %22, i8* align 1 %45, i64 %52, i1 false) #17
  %58 = getelementptr inbounds i8, i8* %22, i64 %52
  br label %59

59:                                               ; preds = %21, %57, %54
  %60 = phi i8* [ %22, %21 ], [ %56, %54 ], [ %58, %57 ]
  ret i8* %60
}

; Function Attrs: nounwind ssp uwtable
define hidden i64 @_ZNK21segmentation_platform5proto17UserActionFeature12ByteSizeLongEv(%"class.segmentation_platform::proto::UserActionFeature"* nocapture) unnamed_addr #0 align 2 {
  %2 = getelementptr inbounds %"class.segmentation_platform::proto::UserActionFeature", %"class.segmentation_platform::proto::UserActionFeature"* %0, i64 0, i32 1, i32 0, i64 0
  %3 = load i32, i32* %2, align 4
  %4 = and i32 %3, 1
  %5 = icmp eq i32 %4, 0
  %6 = select i1 %5, i64 0, i64 9
  %7 = getelementptr inbounds %"class.segmentation_platform::proto::UserActionFeature", %"class.segmentation_platform::proto::UserActionFeature"* %0, i64 0, i32 0, i32 1
  %8 = bitcast %"class.google::protobuf::internal::InternalMetadata"* %7 to i64*
  %9 = load i64, i64* %8, align 8
  %10 = and i64 %9, 1
  %11 = icmp eq i64 %10, 0
  br i1 %11, label %28, label %12, !prof !2

12:                                               ; preds = %1
  %13 = and i64 %9, -2
  %14 = inttoptr i64 %13 to %"struct.google::protobuf::internal::InternalMetadata::Container"*
  %15 = getelementptr inbounds %"struct.google::protobuf::internal::InternalMetadata::Container", %"struct.google::protobuf::internal::InternalMetadata::Container"* %14, i64 0, i32 1
  %16 = bitcast %"class.std::__1::basic_string"* %15 to %"struct.std::__1::basic_string<char, std::__1::char_traits<char>, std::__1::allocator<char> >::__short"*
  %17 = getelementptr inbounds %"struct.std::__1::basic_string<char, std::__1::char_traits<char>, std::__1::allocator<char> >::__short", %"struct.std::__1::basic_string<char, std::__1::char_traits<char>, std::__1::allocator<char> >::__short"* %16, i64 0, i32 1, i32 0
  %18 = load i8, i8* %17, align 1
  %19 = icmp slt i8 %18, 0
  br i1 %19, label %20, label %23

20:                                               ; preds = %12
  %21 = getelementptr inbounds %"struct.google::protobuf::internal::InternalMetadata::Container", %"struct.google::protobuf::internal::InternalMetadata::Container"* %14, i64 0, i32 1, i32 0, i32 0, i32 0, i32 0, i32 0, i32 1
  %22 = load i64, i64* %21, align 8
  br label %25

23:                                               ; preds = %12
  %24 = zext i8 %18 to i64
  br label %25

25:                                               ; preds = %20, %23
  %26 = phi i64 [ %22, %20 ], [ %24, %23 ]
  %27 = add i64 %26, %6
  br label %28

28:                                               ; preds = %1, %25
  %29 = phi i64 [ %27, %25 ], [ %6, %1 ]
  %30 = trunc i64 %29 to i32
  %31 = getelementptr inbounds %"class.segmentation_platform::proto::UserActionFeature", %"class.segmentation_platform::proto::UserActionFeature"* %0, i64 0, i32 2, i32 0, i32 0, i32 0, i32 0, i32 0, i32 0
  store atomic i32 %30, i32* %31 monotonic, align 4
  ret i64 %29
}

; Function Attrs: nounwind ssp uwtable
define hidden void @_ZN21segmentation_platform5proto17UserActionFeature21CheckTypeAndMergeFromERKN6google8protobuf11MessageLiteE(%"class.segmentation_platform::proto::UserActionFeature"*, %"class.google::protobuf::MessageLite"* nocapture readonly dereferenceable(16)) unnamed_addr #0 align 2 {
  %3 = getelementptr inbounds %"class.segmentation_platform::proto::UserActionFeature", %"class.segmentation_platform::proto::UserActionFeature"* %0, i64 0, i32 0, i32 1
  %4 = getelementptr inbounds %"class.google::protobuf::MessageLite", %"class.google::protobuf::MessageLite"* %1, i64 0, i32 1
  %5 = bitcast %"class.google::protobuf::internal::InternalMetadata"* %4 to i64*
  %6 = load i64, i64* %5, align 8
  %7 = and i64 %6, 1
  %8 = icmp eq i64 %7, 0
  br i1 %8, label %38, label %9

9:                                                ; preds = %2
  %10 = and i64 %6, -2
  %11 = inttoptr i64 %10 to %"struct.google::protobuf::internal::InternalMetadata::Container"*
  %12 = getelementptr inbounds %"struct.google::protobuf::internal::InternalMetadata::Container", %"struct.google::protobuf::internal::InternalMetadata::Container"* %11, i64 0, i32 1
  %13 = bitcast %"class.google::protobuf::internal::InternalMetadata"* %3 to i64*
  %14 = load i64, i64* %13, align 8
  %15 = and i64 %14, 1
  %16 = icmp eq i64 %15, 0
  br i1 %16, label %21, label %17, !prof !5

17:                                               ; preds = %9
  %18 = and i64 %14, -2
  %19 = inttoptr i64 %18 to %"struct.google::protobuf::internal::InternalMetadata::Container"*
  %20 = getelementptr inbounds %"struct.google::protobuf::internal::InternalMetadata::Container", %"struct.google::protobuf::internal::InternalMetadata::Container"* %19, i64 0, i32 1
  br label %23

21:                                               ; preds = %9
  %22 = tail call %"class.std::__1::basic_string"* @_ZN6google8protobuf8internal16InternalMetadata27mutable_unknown_fields_slowINSt3__112basic_stringIcNS4_11char_traitsIcEENS4_9allocatorIcEEEEEEPT_v(%"class.google::protobuf::internal::InternalMetadata"* %3) #17
  br label %23

23:                                               ; preds = %21, %17
  %24 = phi %"class.std::__1::basic_string"* [ %20, %17 ], [ %22, %21 ]
  %25 = bitcast %"class.std::__1::basic_string"* %12 to %"struct.std::__1::basic_string<char, std::__1::char_traits<char>, std::__1::allocator<char> >::__short"*
  %26 = getelementptr inbounds %"struct.std::__1::basic_string<char, std::__1::char_traits<char>, std::__1::allocator<char> >::__short", %"struct.std::__1::basic_string<char, std::__1::char_traits<char>, std::__1::allocator<char> >::__short"* %25, i64 0, i32 1, i32 0
  %27 = load i8, i8* %26, align 1
  %28 = icmp slt i8 %27, 0
  %29 = getelementptr inbounds %"class.std::__1::basic_string", %"class.std::__1::basic_string"* %12, i64 0, i32 0, i32 0, i32 0, i32 0, i32 0, i32 0
  %30 = load i8*, i8** %29, align 8
  %31 = getelementptr inbounds %"struct.google::protobuf::internal::InternalMetadata::Container", %"struct.google::protobuf::internal::InternalMetadata::Container"* %11, i64 0, i32 1, i32 0, i32 0, i32 0, i32 0, i32 0, i32 1
  %32 = load i64, i64* %31, align 8
  %33 = bitcast %"class.std::__1::basic_string"* %12 to i8*
  %34 = zext i8 %27 to i64
  %35 = select i1 %28, i8* %30, i8* %33
  %36 = select i1 %28, i64 %32, i64 %34
  %37 = tail call dereferenceable(24) %"class.std::__1::basic_string"* @_ZNSt3__112basic_stringIcNS_11char_traitsIcEENS_9allocatorIcEEE6appendEPKcm(%"class.std::__1::basic_string"* %24, i8* %35, i64 %36) #17
  br label %38

38:                                               ; preds = %23, %2
  %39 = getelementptr inbounds %"class.google::protobuf::MessageLite", %"class.google::protobuf::MessageLite"* %1, i64 1
  %40 = bitcast %"class.google::protobuf::MessageLite"* %39 to i32*
  %41 = load i32, i32* %40, align 4
  %42 = and i32 %41, 1
  %43 = icmp eq i32 %42, 0
  br i1 %43, label %52, label %44

44:                                               ; preds = %38
  %45 = getelementptr inbounds %"class.google::protobuf::MessageLite", %"class.google::protobuf::MessageLite"* %1, i64 1, i32 1
  %46 = bitcast %"class.google::protobuf::internal::InternalMetadata"* %45 to i64*
  %47 = load i64, i64* %46, align 8
  %48 = getelementptr inbounds %"class.segmentation_platform::proto::UserActionFeature", %"class.segmentation_platform::proto::UserActionFeature"* %0, i64 0, i32 1, i32 0, i64 0
  %49 = load i32, i32* %48, align 4
  %50 = or i32 %49, 1
  store i32 %50, i32* %48, align 4
  %51 = getelementptr inbounds %"class.segmentation_platform::proto::UserActionFeature", %"class.segmentation_platform::proto::UserActionFeature"* %0, i64 0, i32 3
  store i64 %47, i64* %51, align 8
  br label %52

52:                                               ; preds = %38, %44
  ret void
}

; Function Attrs: nounwind ssp uwtable
define hidden void @_ZN21segmentation_platform5proto17UserActionFeature9MergeFromERKS1_(%"class.segmentation_platform::proto::UserActionFeature"*, %"class.segmentation_platform::proto::UserActionFeature"* nocapture readonly dereferenceable(32)) local_unnamed_addr #0 align 2 {
  %3 = getelementptr inbounds %"class.segmentation_platform::proto::UserActionFeature", %"class.segmentation_platform::proto::UserActionFeature"* %0, i64 0, i32 0, i32 1
  %4 = getelementptr inbounds %"class.segmentation_platform::proto::UserActionFeature", %"class.segmentation_platform::proto::UserActionFeature"* %1, i64 0, i32 0, i32 1
  %5 = bitcast %"class.google::protobuf::internal::InternalMetadata"* %4 to i64*
  %6 = load i64, i64* %5, align 8
  %7 = and i64 %6, 1
  %8 = icmp eq i64 %7, 0
  br i1 %8, label %38, label %9

9:                                                ; preds = %2
  %10 = and i64 %6, -2
  %11 = inttoptr i64 %10 to %"struct.google::protobuf::internal::InternalMetadata::Container"*
  %12 = getelementptr inbounds %"struct.google::protobuf::internal::InternalMetadata::Container", %"struct.google::protobuf::internal::InternalMetadata::Container"* %11, i64 0, i32 1
  %13 = bitcast %"class.google::protobuf::internal::InternalMetadata"* %3 to i64*
  %14 = load i64, i64* %13, align 8
  %15 = and i64 %14, 1
  %16 = icmp eq i64 %15, 0
  br i1 %16, label %21, label %17, !prof !5

17:                                               ; preds = %9
  %18 = and i64 %14, -2
  %19 = inttoptr i64 %18 to %"struct.google::protobuf::internal::InternalMetadata::Container"*
  %20 = getelementptr inbounds %"struct.google::protobuf::internal::InternalMetadata::Container", %"struct.google::protobuf::internal::InternalMetadata::Container"* %19, i64 0, i32 1
  br label %23

21:                                               ; preds = %9
  %22 = tail call %"class.std::__1::basic_string"* @_ZN6google8protobuf8internal16InternalMetadata27mutable_unknown_fields_slowINSt3__112basic_stringIcNS4_11char_traitsIcEENS4_9allocatorIcEEEEEEPT_v(%"class.google::protobuf::internal::InternalMetadata"* %3) #17
  br label %23

23:                                               ; preds = %21, %17
  %24 = phi %"class.std::__1::basic_string"* [ %20, %17 ], [ %22, %21 ]
  %25 = bitcast %"class.std::__1::basic_string"* %12 to %"struct.std::__1::basic_string<char, std::__1::char_traits<char>, std::__1::allocator<char> >::__short"*
  %26 = getelementptr inbounds %"struct.std::__1::basic_string<char, std::__1::char_traits<char>, std::__1::allocator<char> >::__short", %"struct.std::__1::basic_string<char, std::__1::char_traits<char>, std::__1::allocator<char> >::__short"* %25, i64 0, i32 1, i32 0
  %27 = load i8, i8* %26, align 1
  %28 = icmp slt i8 %27, 0
  %29 = getelementptr inbounds %"class.std::__1::basic_string", %"class.std::__1::basic_string"* %12, i64 0, i32 0, i32 0, i32 0, i32 0, i32 0, i32 0
  %30 = load i8*, i8** %29, align 8
  %31 = getelementptr inbounds %"struct.google::protobuf::internal::InternalMetadata::Container", %"struct.google::protobuf::internal::InternalMetadata::Container"* %11, i64 0, i32 1, i32 0, i32 0, i32 0, i32 0, i32 0, i32 1
  %32 = load i64, i64* %31, align 8
  %33 = bitcast %"class.std::__1::basic_string"* %12 to i8*
  %34 = zext i8 %27 to i64
  %35 = select i1 %28, i8* %30, i8* %33
  %36 = select i1 %28, i64 %32, i64 %34
  %37 = tail call dereferenceable(24) %"class.std::__1::basic_string"* @_ZNSt3__112basic_stringIcNS_11char_traitsIcEENS_9allocatorIcEEE6appendEPKcm(%"class.std::__1::basic_string"* %24, i8* %35, i64 %36) #17
  br label %38

38:                                               ; preds = %2, %23
  %39 = getelementptr inbounds %"class.segmentation_platform::proto::UserActionFeature", %"class.segmentation_platform::proto::UserActionFeature"* %1, i64 0, i32 1, i32 0, i64 0
  %40 = load i32, i32* %39, align 4
  %41 = and i32 %40, 1
  %42 = icmp eq i32 %41, 0
  br i1 %42, label %50, label %43

43:                                               ; preds = %38
  %44 = getelementptr inbounds %"class.segmentation_platform::proto::UserActionFeature", %"class.segmentation_platform::proto::UserActionFeature"* %1, i64 0, i32 3
  %45 = load i64, i64* %44, align 8
  %46 = getelementptr inbounds %"class.segmentation_platform::proto::UserActionFeature", %"class.segmentation_platform::proto::UserActionFeature"* %0, i64 0, i32 1, i32 0, i64 0
  %47 = load i32, i32* %46, align 4
  %48 = or i32 %47, 1
  store i32 %48, i32* %46, align 4
  %49 = getelementptr inbounds %"class.segmentation_platform::proto::UserActionFeature", %"class.segmentation_platform::proto::UserActionFeature"* %0, i64 0, i32 3
  store i64 %45, i64* %49, align 8
  br label %50

50:                                               ; preds = %38, %43
  ret void
}

; Function Attrs: nounwind ssp uwtable
define hidden void @_ZN21segmentation_platform5proto17UserActionFeature8CopyFromERKS1_(%"class.segmentation_platform::proto::UserActionFeature"*, %"class.segmentation_platform::proto::UserActionFeature"* readonly dereferenceable(32)) local_unnamed_addr #0 align 2 {
  %3 = icmp eq %"class.segmentation_platform::proto::UserActionFeature"* %1, %0
  br i1 %3, label %70, label %4

4:                                                ; preds = %2
  %5 = getelementptr inbounds %"class.segmentation_platform::proto::UserActionFeature", %"class.segmentation_platform::proto::UserActionFeature"* %0, i64 0, i32 3
  store i64 0, i64* %5, align 8
  %6 = getelementptr inbounds %"class.segmentation_platform::proto::UserActionFeature", %"class.segmentation_platform::proto::UserActionFeature"* %0, i64 0, i32 1, i32 0, i64 0
  store i32 0, i32* %6, align 4
  %7 = getelementptr inbounds %"class.segmentation_platform::proto::UserActionFeature", %"class.segmentation_platform::proto::UserActionFeature"* %0, i64 0, i32 0, i32 1
  %8 = bitcast %"class.google::protobuf::internal::InternalMetadata"* %7 to i64*
  %9 = load i64, i64* %8, align 8
  %10 = and i64 %9, 1
  %11 = icmp eq i64 %10, 0
  br i1 %11, label %26, label %12

12:                                               ; preds = %4
  %13 = and i64 %9, -2
  %14 = inttoptr i64 %13 to %"struct.google::protobuf::internal::InternalMetadata::Container"*
  %15 = getelementptr inbounds %"struct.google::protobuf::internal::InternalMetadata::Container", %"struct.google::protobuf::internal::InternalMetadata::Container"* %14, i64 0, i32 1
  %16 = bitcast %"class.std::__1::basic_string"* %15 to %"struct.std::__1::basic_string<char, std::__1::char_traits<char>, std::__1::allocator<char> >::__short"*
  %17 = getelementptr inbounds %"struct.std::__1::basic_string<char, std::__1::char_traits<char>, std::__1::allocator<char> >::__short", %"struct.std::__1::basic_string<char, std::__1::char_traits<char>, std::__1::allocator<char> >::__short"* %16, i64 0, i32 1, i32 0
  %18 = load i8, i8* %17, align 1
  %19 = icmp slt i8 %18, 0
  br i1 %19, label %20, label %24

20:                                               ; preds = %12
  %21 = getelementptr inbounds %"class.std::__1::basic_string", %"class.std::__1::basic_string"* %15, i64 0, i32 0, i32 0, i32 0, i32 0, i32 0, i32 0
  %22 = load i8*, i8** %21, align 8
  store i8 0, i8* %22, align 1
  %23 = getelementptr inbounds %"struct.google::protobuf::internal::InternalMetadata::Container", %"struct.google::protobuf::internal::InternalMetadata::Container"* %14, i64 0, i32 1, i32 0, i32 0, i32 0, i32 0, i32 0, i32 1
  store i64 0, i64* %23, align 8
  br label %26

24:                                               ; preds = %12
  %25 = bitcast %"class.std::__1::basic_string"* %15 to i8*
  store i8 0, i8* %25, align 2
  store i8 0, i8* %17, align 1
  br label %26

26:                                               ; preds = %4, %20, %24
  %27 = getelementptr inbounds %"class.segmentation_platform::proto::UserActionFeature", %"class.segmentation_platform::proto::UserActionFeature"* %1, i64 0, i32 0, i32 1
  %28 = bitcast %"class.google::protobuf::internal::InternalMetadata"* %27 to i64*
  %29 = load i64, i64* %28, align 8
  %30 = and i64 %29, 1
  %31 = icmp eq i64 %30, 0
  br i1 %31, label %60, label %32

32:                                               ; preds = %26
  %33 = and i64 %29, -2
  %34 = inttoptr i64 %33 to %"struct.google::protobuf::internal::InternalMetadata::Container"*
  %35 = getelementptr inbounds %"struct.google::protobuf::internal::InternalMetadata::Container", %"struct.google::protobuf::internal::InternalMetadata::Container"* %34, i64 0, i32 1
  %36 = load i64, i64* %8, align 8
  %37 = and i64 %36, 1
  %38 = icmp eq i64 %37, 0
  br i1 %38, label %43, label %39, !prof !5

39:                                               ; preds = %32
  %40 = and i64 %36, -2
  %41 = inttoptr i64 %40 to %"struct.google::protobuf::internal::InternalMetadata::Container"*
  %42 = getelementptr inbounds %"struct.google::protobuf::internal::InternalMetadata::Container", %"struct.google::protobuf::internal::InternalMetadata::Container"* %41, i64 0, i32 1
  br label %45

43:                                               ; preds = %32
  %44 = tail call %"class.std::__1::basic_string"* @_ZN6google8protobuf8internal16InternalMetadata27mutable_unknown_fields_slowINSt3__112basic_stringIcNS4_11char_traitsIcEENS4_9allocatorIcEEEEEEPT_v(%"class.google::protobuf::internal::InternalMetadata"* %7) #17
  br label %45

45:                                               ; preds = %43, %39
  %46 = phi %"class.std::__1::basic_string"* [ %42, %39 ], [ %44, %43 ]
  %47 = bitcast %"class.std::__1::basic_string"* %35 to %"struct.std::__1::basic_string<char, std::__1::char_traits<char>, std::__1::allocator<char> >::__short"*
  %48 = getelementptr inbounds %"struct.std::__1::basic_string<char, std::__1::char_traits<char>, std::__1::allocator<char> >::__short", %"struct.std::__1::basic_string<char, std::__1::char_traits<char>, std::__1::allocator<char> >::__short"* %47, i64 0, i32 1, i32 0
  %49 = load i8, i8* %48, align 1
  %50 = icmp slt i8 %49, 0
  %51 = getelementptr inbounds %"class.std::__1::basic_string", %"class.std::__1::basic_string"* %35, i64 0, i32 0, i32 0, i32 0, i32 0, i32 0, i32 0
  %52 = load i8*, i8** %51, align 8
  %53 = getelementptr inbounds %"struct.google::protobuf::internal::InternalMetadata::Container", %"struct.google::protobuf::internal::InternalMetadata::Container"* %34, i64 0, i32 1, i32 0, i32 0, i32 0, i32 0, i32 0, i32 1
  %54 = load i64, i64* %53, align 8
  %55 = bitcast %"class.std::__1::basic_string"* %35 to i8*
  %56 = zext i8 %49 to i64
  %57 = select i1 %50, i8* %52, i8* %55
  %58 = select i1 %50, i64 %54, i64 %56
  %59 = tail call dereferenceable(24) %"class.std::__1::basic_string"* @_ZNSt3__112basic_stringIcNS_11char_traitsIcEENS_9allocatorIcEEE6appendEPKcm(%"class.std::__1::basic_string"* %46, i8* %57, i64 %58) #17
  br label %60

60:                                               ; preds = %45, %26
  %61 = getelementptr inbounds %"class.segmentation_platform::proto::UserActionFeature", %"class.segmentation_platform::proto::UserActionFeature"* %1, i64 0, i32 1, i32 0, i64 0
  %62 = load i32, i32* %61, align 4
  %63 = and i32 %62, 1
  %64 = icmp eq i32 %63, 0
  br i1 %64, label %70, label %65

65:                                               ; preds = %60
  %66 = getelementptr inbounds %"class.segmentation_platform::proto::UserActionFeature", %"class.segmentation_platform::proto::UserActionFeature"* %1, i64 0, i32 3
  %67 = load i64, i64* %66, align 8
  %68 = load i32, i32* %6, align 4
  %69 = or i32 %68, 1
  store i32 %69, i32* %6, align 4
  store i64 %67, i64* %5, align 8
  br label %70

70:                                               ; preds = %65, %60, %2
  ret void
}

; Function Attrs: norecurse nounwind readnone ssp uwtable
define hidden zeroext i1 @_ZNK21segmentation_platform5proto17UserActionFeature13IsInitializedEv(%"class.segmentation_platform::proto::UserActionFeature"* nocapture readnone) unnamed_addr #1 align 2 {
  ret i1 true
}

; Function Attrs: nounwind ssp uwtable
define hidden void @_ZN21segmentation_platform5proto17UserActionFeature12InternalSwapEPS1_(%"class.segmentation_platform::proto::UserActionFeature"*, %"class.segmentation_platform::proto::UserActionFeature"*) local_unnamed_addr #0 align 2 {
  %3 = getelementptr inbounds %"class.segmentation_platform::proto::UserActionFeature", %"class.segmentation_platform::proto::UserActionFeature"* %0, i64 0, i32 0, i32 1
  %4 = getelementptr inbounds %"class.segmentation_platform::proto::UserActionFeature", %"class.segmentation_platform::proto::UserActionFeature"* %1, i64 0, i32 0, i32 1
  %5 = bitcast %"class.google::protobuf::internal::InternalMetadata"* %3 to i64*
  %6 = load i64, i64* %5, align 8
  %7 = bitcast %"class.google::protobuf::internal::InternalMetadata"* %4 to i64*
  %8 = load i64, i64* %7, align 8
  %9 = or i64 %8, %6
  %10 = and i64 %9, 1
  %11 = icmp eq i64 %10, 0
  br i1 %11, label %43, label %12

12:                                               ; preds = %2
  %13 = and i64 %8, 1
  %14 = icmp eq i64 %13, 0
  br i1 %14, label %19, label %15, !prof !5

15:                                               ; preds = %12
  %16 = and i64 %8, -2
  %17 = inttoptr i64 %16 to %"struct.google::protobuf::internal::InternalMetadata::Container"*
  %18 = getelementptr inbounds %"struct.google::protobuf::internal::InternalMetadata::Container", %"struct.google::protobuf::internal::InternalMetadata::Container"* %17, i64 0, i32 1
  br label %22

19:                                               ; preds = %12
  %20 = tail call %"class.std::__1::basic_string"* @_ZN6google8protobuf8internal16InternalMetadata27mutable_unknown_fields_slowINSt3__112basic_stringIcNS4_11char_traitsIcEENS4_9allocatorIcEEEEEEPT_v(%"class.google::protobuf::internal::InternalMetadata"* %4) #17
  %21 = load i64, i64* %5, align 8
  br label %22

22:                                               ; preds = %19, %15
  %23 = phi i64 [ %6, %15 ], [ %21, %19 ]
  %24 = phi %"class.std::__1::basic_string"* [ %18, %15 ], [ %20, %19 ]
  %25 = and i64 %23, 1
  %26 = icmp eq i64 %25, 0
  br i1 %26, label %31, label %27, !prof !5

27:                                               ; preds = %22
  %28 = and i64 %23, -2
  %29 = inttoptr i64 %28 to %"struct.google::protobuf::internal::InternalMetadata::Container"*
  %30 = getelementptr inbounds %"struct.google::protobuf::internal::InternalMetadata::Container", %"struct.google::protobuf::internal::InternalMetadata::Container"* %29, i64 0, i32 1
  br label %33

31:                                               ; preds = %22
  %32 = tail call %"class.std::__1::basic_string"* @_ZN6google8protobuf8internal16InternalMetadata27mutable_unknown_fields_slowINSt3__112basic_stringIcNS4_11char_traitsIcEENS4_9allocatorIcEEEEEEPT_v(%"class.google::protobuf::internal::InternalMetadata"* %3) #17
  br label %33

33:                                               ; preds = %31, %27
  %34 = phi %"class.std::__1::basic_string"* [ %30, %27 ], [ %32, %31 ]
  %35 = bitcast %"class.std::__1::basic_string"* %34 to <2 x i64>*
  %36 = load <2 x i64>, <2 x i64>* %35, align 8
  %37 = getelementptr inbounds %"class.std::__1::basic_string", %"class.std::__1::basic_string"* %34, i64 0, i32 0, i32 0, i32 0, i32 0, i32 0, i32 2
  %38 = load i64, i64* %37, align 8
  %39 = bitcast %"class.std::__1::basic_string"* %34 to i8*
  %40 = bitcast %"class.std::__1::basic_string"* %24 to i8*
  tail call void @llvm.memcpy.p0i8.p0i8.i64(i8* align 8 %39, i8* align 8 %40, i64 24, i1 false) #17
  %41 = bitcast %"class.std::__1::basic_string"* %24 to <2 x i64>*
  store <2 x i64> %36, <2 x i64>* %41, align 8
  %42 = getelementptr inbounds %"class.std::__1::basic_string", %"class.std::__1::basic_string"* %24, i64 0, i32 0, i32 0, i32 0, i32 0, i32 0, i32 2
  store i64 %38, i64* %42, align 8
  br label %43

43:                                               ; preds = %2, %33
  %44 = getelementptr inbounds %"class.segmentation_platform::proto::UserActionFeature", %"class.segmentation_platform::proto::UserActionFeature"* %0, i64 0, i32 1, i32 0, i64 0
  %45 = getelementptr inbounds %"class.segmentation_platform::proto::UserActionFeature", %"class.segmentation_platform::proto::UserActionFeature"* %1, i64 0, i32 1, i32 0, i64 0
  %46 = load i32, i32* %44, align 4
  %47 = load i32, i32* %45, align 4
  store i32 %47, i32* %44, align 4
  store i32 %46, i32* %45, align 4
  %48 = getelementptr inbounds %"class.segmentation_platform::proto::UserActionFeature", %"class.segmentation_platform::proto::UserActionFeature"* %0, i64 0, i32 3
  %49 = getelementptr inbounds %"class.segmentation_platform::proto::UserActionFeature", %"class.segmentation_platform::proto::UserActionFeature"* %1, i64 0, i32 3
  %50 = load i64, i64* %48, align 8
  %51 = load i64, i64* %49, align 8
  store i64 %51, i64* %48, align 8
  store i64 %50, i64* %49, align 8
  ret void
}

; Function Attrs: nounwind ssp uwtable
define hidden void @_ZNK21segmentation_platform5proto17UserActionFeature11GetTypeNameEv(%"class.std::__1::basic_string"* noalias sret, %"class.segmentation_platform::proto::UserActionFeature"* nocapture readnone) unnamed_addr #0 align 2 {
  %3 = tail call i8* @_Znwm(i64 48) #18
  %4 = getelementptr inbounds %"class.std::__1::basic_string", %"class.std::__1::basic_string"* %0, i64 0, i32 0, i32 0, i32 0, i32 0, i32 0, i32 0
  store i8* %3, i8** %4, align 8
  %5 = getelementptr inbounds %"class.std::__1::basic_string", %"class.std::__1::basic_string"* %0, i64 0, i32 0, i32 0, i32 0, i32 0, i32 0, i32 1
  %6 = bitcast i64* %5 to <2 x i64>*
  store <2 x i64> <i64 45, i64 -9223372036854775760>, <2 x i64>* %6, align 8
  tail call void @llvm.memcpy.p0i8.p0i8.i64(i8* nonnull align 1 %3, i8* align 1 getelementptr inbounds ([46 x i8], [46 x i8]* @.str.9, i64 0, i64 0), i64 45, i1 false) #17
  %7 = getelementptr inbounds i8, i8* %3, i64 45
  store i8 0, i8* %7, align 1
  ret void
}

; Function Attrs: norecurse nounwind readonly ssp uwtable
define hidden dereferenceable(32) %"class.segmentation_platform::proto::UserActionFeature"* @_ZN21segmentation_platform5proto7Feature9_Internal11user_actionEPKS1_(%"class.segmentation_platform::proto::Feature"* nocapture readonly) local_unnamed_addr #9 align 2 {
  %2 = getelementptr inbounds %"class.segmentation_platform::proto::Feature", %"class.segmentation_platform::proto::Feature"* %0, i64 0, i32 6, i32 0
  %3 = load %"class.segmentation_platform::proto::UserActionFeature"*, %"class.segmentation_platform::proto::UserActionFeature"** %2, align 8
  ret %"class.segmentation_platform::proto::UserActionFeature"* %3
}

; Function Attrs: norecurse nounwind readonly ssp uwtable
define hidden dereferenceable(40) %"class.segmentation_platform::proto::HistogramValueFeature"* @_ZN21segmentation_platform5proto7Feature9_Internal15histogram_valueEPKS1_(%"class.segmentation_platform::proto::Feature"* nocapture readonly) local_unnamed_addr #9 align 2 {
  %2 = getelementptr inbounds %"class.segmentation_platform::proto::Feature", %"class.segmentation_platform::proto::Feature"* %0, i64 0, i32 6
  %3 = bitcast %"union.segmentation_platform::proto::Feature::ValueUnion"* %2 to %"class.segmentation_platform::proto::HistogramValueFeature"**
  %4 = load %"class.segmentation_platform::proto::HistogramValueFeature"*, %"class.segmentation_platform::proto::HistogramValueFeature"** %3, align 8
  ret %"class.segmentation_platform::proto::HistogramValueFeature"* %4
}

; Function Attrs: norecurse nounwind readonly ssp uwtable
define hidden dereferenceable(56) %"class.segmentation_platform::proto::HistogramEnumFeature"* @_ZN21segmentation_platform5proto7Feature9_Internal14histogram_enumEPKS1_(%"class.segmentation_platform::proto::Feature"* nocapture readonly) local_unnamed_addr #9 align 2 {
  %2 = getelementptr inbounds %"class.segmentation_platform::proto::Feature", %"class.segmentation_platform::proto::Feature"* %0, i64 0, i32 6
  %3 = bitcast %"union.segmentation_platform::proto::Feature::ValueUnion"* %2 to %"class.segmentation_platform::proto::HistogramEnumFeature"**
  %4 = load %"class.segmentation_platform::proto::HistogramEnumFeature"*, %"class.segmentation_platform::proto::HistogramEnumFeature"** %3, align 8
  ret %"class.segmentation_platform::proto::HistogramEnumFeature"* %4
}

; Function Attrs: nounwind ssp uwtable
define hidden void @_ZN21segmentation_platform5proto7Feature25set_allocated_user_actionEPNS0_17UserActionFeatureE(%"class.segmentation_platform::proto::Feature"* nocapture, %"class.segmentation_platform::proto::UserActionFeature"*) local_unnamed_addr #0 align 2 {
  %3 = getelementptr inbounds %"class.segmentation_platform::proto::Feature", %"class.segmentation_platform::proto::Feature"* %0, i64 0, i32 0, i32 1
  %4 = bitcast %"class.google::protobuf::internal::InternalMetadata"* %3 to i64*
  %5 = load i64, i64* %4, align 8
  %6 = and i64 %5, 1
  %7 = icmp eq i64 %6, 0
  %8 = and i64 %5, -2
  br i1 %7, label %13, label %9, !prof !2

9:                                                ; preds = %2
  %10 = inttoptr i64 %8 to %"struct.google::protobuf::internal::InternalMetadata::ContainerBase"*
  %11 = getelementptr inbounds %"struct.google::protobuf::internal::InternalMetadata::ContainerBase", %"struct.google::protobuf::internal::InternalMetadata::ContainerBase"* %10, i64 0, i32 0
  %12 = load %"class.google::protobuf::Arena"*, %"class.google::protobuf::Arena"** %11, align 8
  br label %15

13:                                               ; preds = %2
  %14 = inttoptr i64 %8 to %"class.google::protobuf::Arena"*
  br label %15

15:                                               ; preds = %9, %13
  %16 = phi %"class.google::protobuf::Arena"* [ %12, %9 ], [ %14, %13 ]
  tail call void @_ZN21segmentation_platform5proto7Feature11clear_valueEv(%"class.segmentation_platform::proto::Feature"* %0)
  %17 = icmp eq %"class.segmentation_platform::proto::UserActionFeature"* %1, null
  br i1 %17, label %42, label %18

18:                                               ; preds = %15
  %19 = getelementptr inbounds %"class.segmentation_platform::proto::UserActionFeature", %"class.segmentation_platform::proto::UserActionFeature"* %1, i64 0, i32 0, i32 1
  %20 = bitcast %"class.google::protobuf::internal::InternalMetadata"* %19 to i64*
  %21 = load i64, i64* %20, align 8
  %22 = and i64 %21, 1
  %23 = icmp eq i64 %22, 0
  %24 = and i64 %21, -2
  br i1 %23, label %29, label %25, !prof !2

25:                                               ; preds = %18
  %26 = inttoptr i64 %24 to %"struct.google::protobuf::internal::InternalMetadata::ContainerBase"*
  %27 = getelementptr inbounds %"struct.google::protobuf::internal::InternalMetadata::ContainerBase", %"struct.google::protobuf::internal::InternalMetadata::ContainerBase"* %26, i64 0, i32 0
  %28 = load %"class.google::protobuf::Arena"*, %"class.google::protobuf::Arena"** %27, align 8
  br label %31

29:                                               ; preds = %18
  %30 = inttoptr i64 %24 to %"class.google::protobuf::Arena"*
  br label %31

31:                                               ; preds = %25, %29
  %32 = phi %"class.google::protobuf::Arena"* [ %28, %25 ], [ %30, %29 ]
  %33 = icmp eq %"class.google::protobuf::Arena"* %16, %32
  br i1 %33, label %38, label %34

34:                                               ; preds = %31
  %35 = getelementptr inbounds %"class.segmentation_platform::proto::UserActionFeature", %"class.segmentation_platform::proto::UserActionFeature"* %1, i64 0, i32 0
  %36 = tail call %"class.google::protobuf::MessageLite"* @_ZN6google8protobuf8internal23GetOwnedMessageInternalEPNS0_5ArenaEPNS0_11MessageLiteES3_(%"class.google::protobuf::Arena"* %16, %"class.google::protobuf::MessageLite"* %35, %"class.google::protobuf::Arena"* %32) #17
  %37 = bitcast %"class.google::protobuf::MessageLite"* %36 to %"class.segmentation_platform::proto::UserActionFeature"*
  br label %38

38:                                               ; preds = %31, %34
  %39 = phi %"class.segmentation_platform::proto::UserActionFeature"* [ %37, %34 ], [ %1, %31 ]
  %40 = getelementptr inbounds %"class.segmentation_platform::proto::Feature", %"class.segmentation_platform::proto::Feature"* %0, i64 0, i32 7, i64 0
  store i32 3, i32* %40, align 8
  %41 = getelementptr inbounds %"class.segmentation_platform::proto::Feature", %"class.segmentation_platform::proto::Feature"* %0, i64 0, i32 6, i32 0
  store %"class.segmentation_platform::proto::UserActionFeature"* %39, %"class.segmentation_platform::proto::UserActionFeature"** %41, align 8
  br label %42

42:                                               ; preds = %15, %38
  ret void
}

; Function Attrs: nounwind ssp uwtable
define hidden void @_ZN21segmentation_platform5proto7Feature11clear_valueEv(%"class.segmentation_platform::proto::Feature"* nocapture) local_unnamed_addr #0 align 2 {
  %2 = getelementptr inbounds %"class.segmentation_platform::proto::Feature", %"class.segmentation_platform::proto::Feature"* %0, i64 0, i32 7, i64 0
  %3 = load i32, i32* %2, align 8
  switch i32 %3, label %81 [
    i32 3, label %4
    i32 4, label %29
    i32 5, label %55
  ]

4:                                                ; preds = %1
  %5 = getelementptr inbounds %"class.segmentation_platform::proto::Feature", %"class.segmentation_platform::proto::Feature"* %0, i64 0, i32 0, i32 1
  %6 = bitcast %"class.google::protobuf::internal::InternalMetadata"* %5 to i64*
  %7 = load i64, i64* %6, align 8
  %8 = and i64 %7, 1
  %9 = icmp eq i64 %8, 0
  %10 = and i64 %7, -2
  br i1 %9, label %15, label %11, !prof !2

11:                                               ; preds = %4
  %12 = inttoptr i64 %10 to %"struct.google::protobuf::internal::InternalMetadata::ContainerBase"*
  %13 = getelementptr inbounds %"struct.google::protobuf::internal::InternalMetadata::ContainerBase", %"struct.google::protobuf::internal::InternalMetadata::ContainerBase"* %12, i64 0, i32 0
  %14 = load %"class.google::protobuf::Arena"*, %"class.google::protobuf::Arena"** %13, align 8
  br label %17

15:                                               ; preds = %4
  %16 = inttoptr i64 %10 to %"class.google::protobuf::Arena"*
  br label %17

17:                                               ; preds = %11, %15
  %18 = phi %"class.google::protobuf::Arena"* [ %14, %11 ], [ %16, %15 ]
  %19 = icmp eq %"class.google::protobuf::Arena"* %18, null
  br i1 %19, label %20, label %81

20:                                               ; preds = %17
  %21 = getelementptr inbounds %"class.segmentation_platform::proto::Feature", %"class.segmentation_platform::proto::Feature"* %0, i64 0, i32 6, i32 0
  %22 = load %"class.segmentation_platform::proto::UserActionFeature"*, %"class.segmentation_platform::proto::UserActionFeature"** %21, align 8
  %23 = icmp eq %"class.segmentation_platform::proto::UserActionFeature"* %22, null
  br i1 %23, label %81, label %24

24:                                               ; preds = %20
  %25 = bitcast %"class.segmentation_platform::proto::UserActionFeature"* %22 to void (%"class.segmentation_platform::proto::UserActionFeature"*)***
  %26 = load void (%"class.segmentation_platform::proto::UserActionFeature"*)**, void (%"class.segmentation_platform::proto::UserActionFeature"*)*** %25, align 8
  %27 = getelementptr inbounds void (%"class.segmentation_platform::proto::UserActionFeature"*)*, void (%"class.segmentation_platform::proto::UserActionFeature"*)** %26, i64 1
  %28 = load void (%"class.segmentation_platform::proto::UserActionFeature"*)*, void (%"class.segmentation_platform::proto::UserActionFeature"*)** %27, align 8
  tail call void %28(%"class.segmentation_platform::proto::UserActionFeature"* nonnull %22) #17
  br label %81

29:                                               ; preds = %1
  %30 = getelementptr inbounds %"class.segmentation_platform::proto::Feature", %"class.segmentation_platform::proto::Feature"* %0, i64 0, i32 0, i32 1
  %31 = bitcast %"class.google::protobuf::internal::InternalMetadata"* %30 to i64*
  %32 = load i64, i64* %31, align 8
  %33 = and i64 %32, 1
  %34 = icmp eq i64 %33, 0
  %35 = and i64 %32, -2
  br i1 %34, label %40, label %36, !prof !2

36:                                               ; preds = %29
  %37 = inttoptr i64 %35 to %"struct.google::protobuf::internal::InternalMetadata::ContainerBase"*
  %38 = getelementptr inbounds %"struct.google::protobuf::internal::InternalMetadata::ContainerBase", %"struct.google::protobuf::internal::InternalMetadata::ContainerBase"* %37, i64 0, i32 0
  %39 = load %"class.google::protobuf::Arena"*, %"class.google::protobuf::Arena"** %38, align 8
  br label %42

40:                                               ; preds = %29
  %41 = inttoptr i64 %35 to %"class.google::protobuf::Arena"*
  br label %42

42:                                               ; preds = %36, %40
  %43 = phi %"class.google::protobuf::Arena"* [ %39, %36 ], [ %41, %40 ]
  %44 = icmp eq %"class.google::protobuf::Arena"* %43, null
  br i1 %44, label %45, label %81

45:                                               ; preds = %42
  %46 = getelementptr inbounds %"class.segmentation_platform::proto::Feature", %"class.segmentation_platform::proto::Feature"* %0, i64 0, i32 6
  %47 = bitcast %"union.segmentation_platform::proto::Feature::ValueUnion"* %46 to %"class.segmentation_platform::proto::HistogramValueFeature"**
  %48 = load %"class.segmentation_platform::proto::HistogramValueFeature"*, %"class.segmentation_platform::proto::HistogramValueFeature"** %47, align 8
  %49 = icmp eq %"class.segmentation_platform::proto::HistogramValueFeature"* %48, null
  br i1 %49, label %81, label %50

50:                                               ; preds = %45
  %51 = bitcast %"class.segmentation_platform::proto::HistogramValueFeature"* %48 to void (%"class.segmentation_platform::proto::HistogramValueFeature"*)***
  %52 = load void (%"class.segmentation_platform::proto::HistogramValueFeature"*)**, void (%"class.segmentation_platform::proto::HistogramValueFeature"*)*** %51, align 8
  %53 = getelementptr inbounds void (%"class.segmentation_platform::proto::HistogramValueFeature"*)*, void (%"class.segmentation_platform::proto::HistogramValueFeature"*)** %52, i64 1
  %54 = load void (%"class.segmentation_platform::proto::HistogramValueFeature"*)*, void (%"class.segmentation_platform::proto::HistogramValueFeature"*)** %53, align 8
  tail call void %54(%"class.segmentation_platform::proto::HistogramValueFeature"* nonnull %48) #17
  br label %81

55:                                               ; preds = %1
  %56 = getelementptr inbounds %"class.segmentation_platform::proto::Feature", %"class.segmentation_platform::proto::Feature"* %0, i64 0, i32 0, i32 1
  %57 = bitcast %"class.google::protobuf::internal::InternalMetadata"* %56 to i64*
  %58 = load i64, i64* %57, align 8
  %59 = and i64 %58, 1
  %60 = icmp eq i64 %59, 0
  %61 = and i64 %58, -2
  br i1 %60, label %66, label %62, !prof !2

62:                                               ; preds = %55
  %63 = inttoptr i64 %61 to %"struct.google::protobuf::internal::InternalMetadata::ContainerBase"*
  %64 = getelementptr inbounds %"struct.google::protobuf::internal::InternalMetadata::ContainerBase", %"struct.google::protobuf::internal::InternalMetadata::ContainerBase"* %63, i64 0, i32 0
  %65 = load %"class.google::protobuf::Arena"*, %"class.google::protobuf::Arena"** %64, align 8
  br label %68

66:                                               ; preds = %55
  %67 = inttoptr i64 %61 to %"class.google::protobuf::Arena"*
  br label %68

68:                                               ; preds = %62, %66
  %69 = phi %"class.google::protobuf::Arena"* [ %65, %62 ], [ %67, %66 ]
  %70 = icmp eq %"class.google::protobuf::Arena"* %69, null
  br i1 %70, label %71, label %81

71:                                               ; preds = %68
  %72 = getelementptr inbounds %"class.segmentation_platform::proto::Feature", %"class.segmentation_platform::proto::Feature"* %0, i64 0, i32 6
  %73 = bitcast %"union.segmentation_platform::proto::Feature::ValueUnion"* %72 to %"class.segmentation_platform::proto::HistogramEnumFeature"**
  %74 = load %"class.segmentation_platform::proto::HistogramEnumFeature"*, %"class.segmentation_platform::proto::HistogramEnumFeature"** %73, align 8
  %75 = icmp eq %"class.segmentation_platform::proto::HistogramEnumFeature"* %74, null
  br i1 %75, label %81, label %76

76:                                               ; preds = %71
  %77 = bitcast %"class.segmentation_platform::proto::HistogramEnumFeature"* %74 to void (%"class.segmentation_platform::proto::HistogramEnumFeature"*)***
  %78 = load void (%"class.segmentation_platform::proto::HistogramEnumFeature"*)**, void (%"class.segmentation_platform::proto::HistogramEnumFeature"*)*** %77, align 8
  %79 = getelementptr inbounds void (%"class.segmentation_platform::proto::HistogramEnumFeature"*)*, void (%"class.segmentation_platform::proto::HistogramEnumFeature"*)** %78, i64 1
  %80 = load void (%"class.segmentation_platform::proto::HistogramEnumFeature"*)*, void (%"class.segmentation_platform::proto::HistogramEnumFeature"*)** %79, align 8
  tail call void %80(%"class.segmentation_platform::proto::HistogramEnumFeature"* nonnull %74) #17
  br label %81

81:                                               ; preds = %68, %76, %71, %42, %50, %45, %17, %24, %20, %1
  store i32 0, i32* %2, align 8
  ret void
}

; Function Attrs: nounwind ssp uwtable
define hidden void @_ZN21segmentation_platform5proto7Feature29set_allocated_histogram_valueEPNS0_21HistogramValueFeatureE(%"class.segmentation_platform::proto::Feature"* nocapture, %"class.segmentation_platform::proto::HistogramValueFeature"*) local_unnamed_addr #0 align 2 {
  %3 = getelementptr inbounds %"class.segmentation_platform::proto::Feature", %"class.segmentation_platform::proto::Feature"* %0, i64 0, i32 0, i32 1
  %4 = bitcast %"class.google::protobuf::internal::InternalMetadata"* %3 to i64*
  %5 = load i64, i64* %4, align 8
  %6 = and i64 %5, 1
  %7 = icmp eq i64 %6, 0
  %8 = and i64 %5, -2
  br i1 %7, label %13, label %9, !prof !2

9:                                                ; preds = %2
  %10 = inttoptr i64 %8 to %"struct.google::protobuf::internal::InternalMetadata::ContainerBase"*
  %11 = getelementptr inbounds %"struct.google::protobuf::internal::InternalMetadata::ContainerBase", %"struct.google::protobuf::internal::InternalMetadata::ContainerBase"* %10, i64 0, i32 0
  %12 = load %"class.google::protobuf::Arena"*, %"class.google::protobuf::Arena"** %11, align 8
  br label %15

13:                                               ; preds = %2
  %14 = inttoptr i64 %8 to %"class.google::protobuf::Arena"*
  br label %15

15:                                               ; preds = %9, %13
  %16 = phi %"class.google::protobuf::Arena"* [ %12, %9 ], [ %14, %13 ]
  tail call void @_ZN21segmentation_platform5proto7Feature11clear_valueEv(%"class.segmentation_platform::proto::Feature"* %0)
  %17 = icmp eq %"class.segmentation_platform::proto::HistogramValueFeature"* %1, null
  br i1 %17, label %43, label %18

18:                                               ; preds = %15
  %19 = getelementptr inbounds %"class.segmentation_platform::proto::HistogramValueFeature", %"class.segmentation_platform::proto::HistogramValueFeature"* %1, i64 0, i32 0, i32 1
  %20 = bitcast %"class.google::protobuf::internal::InternalMetadata"* %19 to i64*
  %21 = load i64, i64* %20, align 8
  %22 = and i64 %21, 1
  %23 = icmp eq i64 %22, 0
  %24 = and i64 %21, -2
  br i1 %23, label %29, label %25, !prof !2

25:                                               ; preds = %18
  %26 = inttoptr i64 %24 to %"struct.google::protobuf::internal::InternalMetadata::ContainerBase"*
  %27 = getelementptr inbounds %"struct.google::protobuf::internal::InternalMetadata::ContainerBase", %"struct.google::protobuf::internal::InternalMetadata::ContainerBase"* %26, i64 0, i32 0
  %28 = load %"class.google::protobuf::Arena"*, %"class.google::protobuf::Arena"** %27, align 8
  br label %31

29:                                               ; preds = %18
  %30 = inttoptr i64 %24 to %"class.google::protobuf::Arena"*
  br label %31

31:                                               ; preds = %25, %29
  %32 = phi %"class.google::protobuf::Arena"* [ %28, %25 ], [ %30, %29 ]
  %33 = icmp eq %"class.google::protobuf::Arena"* %16, %32
  br i1 %33, label %38, label %34

34:                                               ; preds = %31
  %35 = getelementptr inbounds %"class.segmentation_platform::proto::HistogramValueFeature", %"class.segmentation_platform::proto::HistogramValueFeature"* %1, i64 0, i32 0
  %36 = tail call %"class.google::protobuf::MessageLite"* @_ZN6google8protobuf8internal23GetOwnedMessageInternalEPNS0_5ArenaEPNS0_11MessageLiteES3_(%"class.google::protobuf::Arena"* %16, %"class.google::protobuf::MessageLite"* %35, %"class.google::protobuf::Arena"* %32) #17
  %37 = bitcast %"class.google::protobuf::MessageLite"* %36 to %"class.segmentation_platform::proto::HistogramValueFeature"*
  br label %38

38:                                               ; preds = %31, %34
  %39 = phi %"class.segmentation_platform::proto::HistogramValueFeature"* [ %37, %34 ], [ %1, %31 ]
  %40 = getelementptr inbounds %"class.segmentation_platform::proto::Feature", %"class.segmentation_platform::proto::Feature"* %0, i64 0, i32 7, i64 0
  store i32 4, i32* %40, align 8
  %41 = getelementptr inbounds %"class.segmentation_platform::proto::Feature", %"class.segmentation_platform::proto::Feature"* %0, i64 0, i32 6
  %42 = bitcast %"union.segmentation_platform::proto::Feature::ValueUnion"* %41 to %"class.segmentation_platform::proto::HistogramValueFeature"**
  store %"class.segmentation_platform::proto::HistogramValueFeature"* %39, %"class.segmentation_platform::proto::HistogramValueFeature"** %42, align 8
  br label %43

43:                                               ; preds = %15, %38
  ret void
}

; Function Attrs: nounwind ssp uwtable
define hidden void @_ZN21segmentation_platform5proto7Feature28set_allocated_histogram_enumEPNS0_20HistogramEnumFeatureE(%"class.segmentation_platform::proto::Feature"* nocapture, %"class.segmentation_platform::proto::HistogramEnumFeature"*) local_unnamed_addr #0 align 2 {
  %3 = getelementptr inbounds %"class.segmentation_platform::proto::Feature", %"class.segmentation_platform::proto::Feature"* %0, i64 0, i32 0, i32 1
  %4 = bitcast %"class.google::protobuf::internal::InternalMetadata"* %3 to i64*
  %5 = load i64, i64* %4, align 8
  %6 = and i64 %5, 1
  %7 = icmp eq i64 %6, 0
  %8 = and i64 %5, -2
  br i1 %7, label %13, label %9, !prof !2

9:                                                ; preds = %2
  %10 = inttoptr i64 %8 to %"struct.google::protobuf::internal::InternalMetadata::ContainerBase"*
  %11 = getelementptr inbounds %"struct.google::protobuf::internal::InternalMetadata::ContainerBase", %"struct.google::protobuf::internal::InternalMetadata::ContainerBase"* %10, i64 0, i32 0
  %12 = load %"class.google::protobuf::Arena"*, %"class.google::protobuf::Arena"** %11, align 8
  br label %15

13:                                               ; preds = %2
  %14 = inttoptr i64 %8 to %"class.google::protobuf::Arena"*
  br label %15

15:                                               ; preds = %9, %13
  %16 = phi %"class.google::protobuf::Arena"* [ %12, %9 ], [ %14, %13 ]
  tail call void @_ZN21segmentation_platform5proto7Feature11clear_valueEv(%"class.segmentation_platform::proto::Feature"* %0)
  %17 = icmp eq %"class.segmentation_platform::proto::HistogramEnumFeature"* %1, null
  br i1 %17, label %43, label %18

18:                                               ; preds = %15
  %19 = getelementptr inbounds %"class.segmentation_platform::proto::HistogramEnumFeature", %"class.segmentation_platform::proto::HistogramEnumFeature"* %1, i64 0, i32 0, i32 1
  %20 = bitcast %"class.google::protobuf::internal::InternalMetadata"* %19 to i64*
  %21 = load i64, i64* %20, align 8
  %22 = and i64 %21, 1
  %23 = icmp eq i64 %22, 0
  %24 = and i64 %21, -2
  br i1 %23, label %29, label %25, !prof !2

25:                                               ; preds = %18
  %26 = inttoptr i64 %24 to %"struct.google::protobuf::internal::InternalMetadata::ContainerBase"*
  %27 = getelementptr inbounds %"struct.google::protobuf::internal::InternalMetadata::ContainerBase", %"struct.google::protobuf::internal::InternalMetadata::ContainerBase"* %26, i64 0, i32 0
  %28 = load %"class.google::protobuf::Arena"*, %"class.google::protobuf::Arena"** %27, align 8
  br label %31

29:                                               ; preds = %18
  %30 = inttoptr i64 %24 to %"class.google::protobuf::Arena"*
  br label %31

31:                                               ; preds = %25, %29
  %32 = phi %"class.google::protobuf::Arena"* [ %28, %25 ], [ %30, %29 ]
  %33 = icmp eq %"class.google::protobuf::Arena"* %16, %32
  br i1 %33, label %38, label %34

34:                                               ; preds = %31
  %35 = getelementptr inbounds %"class.segmentation_platform::proto::HistogramEnumFeature", %"class.segmentation_platform::proto::HistogramEnumFeature"* %1, i64 0, i32 0
  %36 = tail call %"class.google::protobuf::MessageLite"* @_ZN6google8protobuf8internal23GetOwnedMessageInternalEPNS0_5ArenaEPNS0_11MessageLiteES3_(%"class.google::protobuf::Arena"* %16, %"class.google::protobuf::MessageLite"* %35, %"class.google::protobuf::Arena"* %32) #17
  %37 = bitcast %"class.google::protobuf::MessageLite"* %36 to %"class.segmentation_platform::proto::HistogramEnumFeature"*
  br label %38

38:                                               ; preds = %31, %34
  %39 = phi %"class.segmentation_platform::proto::HistogramEnumFeature"* [ %37, %34 ], [ %1, %31 ]
  %40 = getelementptr inbounds %"class.segmentation_platform::proto::Feature", %"class.segmentation_platform::proto::Feature"* %0, i64 0, i32 7, i64 0
  store i32 5, i32* %40, align 8
  %41 = getelementptr inbounds %"class.segmentation_platform::proto::Feature", %"class.segmentation_platform::proto::Feature"* %0, i64 0, i32 6
  %42 = bitcast %"union.segmentation_platform::proto::Feature::ValueUnion"* %41 to %"class.segmentation_platform::proto::HistogramEnumFeature"**
  store %"class.segmentation_platform::proto::HistogramEnumFeature"* %39, %"class.segmentation_platform::proto::HistogramEnumFeature"** %42, align 8
  br label %43

43:                                               ; preds = %15, %38
  ret void
}

; Function Attrs: nounwind ssp uwtable
define hidden void @_ZN21segmentation_platform5proto7FeatureC2EPN6google8protobuf5ArenaE(%"class.segmentation_platform::proto::Feature"* nocapture, %"class.google::protobuf::Arena"*) unnamed_addr #0 align 2 {
  %3 = getelementptr inbounds %"class.segmentation_platform::proto::Feature", %"class.segmentation_platform::proto::Feature"* %0, i64 0, i32 0, i32 0
  %4 = getelementptr inbounds %"class.segmentation_platform::proto::Feature", %"class.segmentation_platform::proto::Feature"* %0, i64 0, i32 0, i32 1
  %5 = bitcast %"class.google::protobuf::internal::InternalMetadata"* %4 to %"class.google::protobuf::Arena"**
  store %"class.google::protobuf::Arena"* %1, %"class.google::protobuf::Arena"** %5, align 8
  store i32 (...)** bitcast (i8** getelementptr inbounds ({ [16 x i8*] }, { [16 x i8*] }* @_ZTVN21segmentation_platform5proto7FeatureE, i64 0, inrange i32 0, i64 2) to i32 (...)**), i32 (...)*** %3, align 8
  %6 = getelementptr inbounds %"class.segmentation_platform::proto::Feature", %"class.segmentation_platform::proto::Feature"* %0, i64 0, i32 1, i32 0, i64 0
  store i32 0, i32* %6, align 4
  %7 = getelementptr inbounds %"class.segmentation_platform::proto::Feature", %"class.segmentation_platform::proto::Feature"* %0, i64 0, i32 2, i32 0, i32 0, i32 0, i32 0, i32 0, i32 0
  store i32 0, i32* %7, align 4
  %8 = load atomic i32, i32* getelementptr inbounds ({ { { { i32 } }, i32, i32, void ()* }, [3 x i8*] }, { { { { i32 } }, i32, i32, void ()* }, [3 x i8*] }* @scc_info_Feature_components_2fsegmentation_5fplatform_2finternal_2fproto_2fmodel_5fmetadata_2eproto, i64 0, i32 0, i32 0, i32 0, i32 0) acquire, align 8
  %9 = icmp eq i32 %8, 0
  br i1 %9, label %11, label %10, !prof !2

10:                                               ; preds = %2
  tail call void @_ZN6google8protobuf8internal11InitSCCImplEPNS1_11SCCInfoBaseE(%"struct.google::protobuf::internal::SCCInfoBase"* bitcast ({ { { { i32 } }, i32, i32, void ()* }, [3 x i8*] }* @scc_info_Feature_components_2fsegmentation_5fplatform_2finternal_2fproto_2fmodel_5fmetadata_2eproto to %"struct.google::protobuf::internal::SCCInfoBase"*)) #17
  br label %11

11:                                               ; preds = %2, %10
  %12 = getelementptr inbounds %"class.segmentation_platform::proto::Feature", %"class.segmentation_platform::proto::Feature"* %0, i64 0, i32 3
  %13 = bitcast i64* %12 to i8*
  tail call void @llvm.memset.p0i8.i64(i8* align 1 %13, i8 0, i64 12, i1 false) #17
  %14 = getelementptr inbounds %"class.segmentation_platform::proto::Feature", %"class.segmentation_platform::proto::Feature"* %0, i64 0, i32 7, i64 0
  store i32 0, i32* %14, align 8
  ret void
}

; Function Attrs: nounwind ssp uwtable
define hidden void @_ZN21segmentation_platform5proto7FeatureC2ERKS1_(%"class.segmentation_platform::proto::Feature"*, %"class.segmentation_platform::proto::Feature"* nocapture readonly dereferenceable(56)) unnamed_addr #0 align 2 {
  %3 = getelementptr inbounds %"class.segmentation_platform::proto::Feature", %"class.segmentation_platform::proto::Feature"* %0, i64 0, i32 0, i32 0
  %4 = getelementptr inbounds %"class.segmentation_platform::proto::Feature", %"class.segmentation_platform::proto::Feature"* %0, i64 0, i32 0, i32 1, i32 0
  store i8* null, i8** %4, align 8
  store i32 (...)** bitcast (i8** getelementptr inbounds ({ [16 x i8*] }, { [16 x i8*] }* @_ZTVN21segmentation_platform5proto7FeatureE, i64 0, inrange i32 0, i64 2) to i32 (...)**), i32 (...)*** %3, align 8
  %5 = getelementptr inbounds %"class.segmentation_platform::proto::Feature", %"class.segmentation_platform::proto::Feature"* %1, i64 0, i32 1, i32 0, i64 0
  %6 = getelementptr inbounds %"class.segmentation_platform::proto::Feature", %"class.segmentation_platform::proto::Feature"* %0, i64 0, i32 1, i32 0, i64 0
  %7 = load i32, i32* %5, align 8
  store i32 %7, i32* %6, align 8
  %8 = getelementptr inbounds %"class.segmentation_platform::proto::Feature", %"class.segmentation_platform::proto::Feature"* %0, i64 0, i32 2, i32 0, i32 0, i32 0, i32 0, i32 0, i32 0
  store i32 0, i32* %8, align 4
  %9 = getelementptr inbounds %"class.segmentation_platform::proto::Feature", %"class.segmentation_platform::proto::Feature"* %0, i64 0, i32 0, i32 1
  %10 = getelementptr inbounds %"class.segmentation_platform::proto::Feature", %"class.segmentation_platform::proto::Feature"* %1, i64 0, i32 0, i32 1
  %11 = bitcast %"class.google::protobuf::internal::InternalMetadata"* %10 to i64*
  %12 = load i64, i64* %11, align 8
  %13 = and i64 %12, 1
  %14 = icmp eq i64 %13, 0
  br i1 %14, label %33, label %15

15:                                               ; preds = %2
  %16 = and i64 %12, -2
  %17 = inttoptr i64 %16 to %"struct.google::protobuf::internal::InternalMetadata::Container"*
  %18 = getelementptr inbounds %"struct.google::protobuf::internal::InternalMetadata::Container", %"struct.google::protobuf::internal::InternalMetadata::Container"* %17, i64 0, i32 1
  %19 = tail call %"class.std::__1::basic_string"* @_ZN6google8protobuf8internal16InternalMetadata27mutable_unknown_fields_slowINSt3__112basic_stringIcNS4_11char_traitsIcEENS4_9allocatorIcEEEEEEPT_v(%"class.google::protobuf::internal::InternalMetadata"* %9) #17
  %20 = bitcast %"class.std::__1::basic_string"* %18 to %"struct.std::__1::basic_string<char, std::__1::char_traits<char>, std::__1::allocator<char> >::__short"*
  %21 = getelementptr inbounds %"struct.std::__1::basic_string<char, std::__1::char_traits<char>, std::__1::allocator<char> >::__short", %"struct.std::__1::basic_string<char, std::__1::char_traits<char>, std::__1::allocator<char> >::__short"* %20, i64 0, i32 1, i32 0
  %22 = load i8, i8* %21, align 1
  %23 = icmp slt i8 %22, 0
  %24 = getelementptr inbounds %"class.std::__1::basic_string", %"class.std::__1::basic_string"* %18, i64 0, i32 0, i32 0, i32 0, i32 0, i32 0, i32 0
  %25 = load i8*, i8** %24, align 8
  %26 = getelementptr inbounds %"struct.google::protobuf::internal::InternalMetadata::Container", %"struct.google::protobuf::internal::InternalMetadata::Container"* %17, i64 0, i32 1, i32 0, i32 0, i32 0, i32 0, i32 0, i32 1
  %27 = load i64, i64* %26, align 8
  %28 = bitcast %"class.std::__1::basic_string"* %18 to i8*
  %29 = zext i8 %22 to i64
  %30 = select i1 %23, i8* %25, i8* %28
  %31 = select i1 %23, i64 %27, i64 %29
  %32 = tail call dereferenceable(24) %"class.std::__1::basic_string"* @_ZNSt3__112basic_stringIcNS_11char_traitsIcEENS_9allocatorIcEEE6appendEPKcm(%"class.std::__1::basic_string"* %19, i8* %30, i64 %31) #17
  br label %33

33:                                               ; preds = %2, %15
  %34 = getelementptr inbounds %"class.segmentation_platform::proto::Feature", %"class.segmentation_platform::proto::Feature"* %0, i64 0, i32 3
  %35 = bitcast i64* %34 to i8*
  %36 = getelementptr inbounds %"class.segmentation_platform::proto::Feature", %"class.segmentation_platform::proto::Feature"* %1, i64 0, i32 3
  %37 = bitcast i64* %36 to i8*
  tail call void @llvm.memcpy.p0i8.p0i8.i64(i8* align 8 %35, i8* align 8 %37, i64 12, i1 false)
  %38 = getelementptr inbounds %"class.segmentation_platform::proto::Feature", %"class.segmentation_platform::proto::Feature"* %0, i64 0, i32 7, i64 0
  store i32 0, i32* %38, align 8
  %39 = getelementptr inbounds %"class.segmentation_platform::proto::Feature", %"class.segmentation_platform::proto::Feature"* %1, i64 0, i32 7, i64 0
  %40 = load i32, i32* %39, align 8
  switch i32 %40, label %161 [
    i32 3, label %41
    i32 4, label %111
    i32 5, label %136
  ]

41:                                               ; preds = %33
  tail call void @_ZN21segmentation_platform5proto7Feature11clear_valueEv(%"class.segmentation_platform::proto::Feature"* %0) #17
  store i32 3, i32* %38, align 8
  %42 = bitcast %"class.google::protobuf::internal::InternalMetadata"* %9 to i64*
  %43 = load i64, i64* %42, align 8
  %44 = and i64 %43, 1
  %45 = icmp eq i64 %44, 0
  %46 = and i64 %43, -2
  br i1 %45, label %51, label %47, !prof !2

47:                                               ; preds = %41
  %48 = inttoptr i64 %46 to %"struct.google::protobuf::internal::InternalMetadata::ContainerBase"*
  %49 = getelementptr inbounds %"struct.google::protobuf::internal::InternalMetadata::ContainerBase", %"struct.google::protobuf::internal::InternalMetadata::ContainerBase"* %48, i64 0, i32 0
  %50 = load %"class.google::protobuf::Arena"*, %"class.google::protobuf::Arena"** %49, align 8
  br label %53

51:                                               ; preds = %41
  %52 = inttoptr i64 %46 to %"class.google::protobuf::Arena"*
  br label %53

53:                                               ; preds = %47, %51
  %54 = phi %"class.google::protobuf::Arena"* [ %50, %47 ], [ %52, %51 ]
  %55 = tail call %"class.segmentation_platform::proto::UserActionFeature"* @_ZN6google8protobuf5Arena18CreateMaybeMessageIN21segmentation_platform5proto17UserActionFeatureEJEEEPT_PS1_DpOT0_(%"class.google::protobuf::Arena"* %54) #17
  %56 = getelementptr inbounds %"class.segmentation_platform::proto::Feature", %"class.segmentation_platform::proto::Feature"* %0, i64 0, i32 6, i32 0
  store %"class.segmentation_platform::proto::UserActionFeature"* %55, %"class.segmentation_platform::proto::UserActionFeature"** %56, align 8
  %57 = load i32, i32* %39, align 8
  %58 = icmp eq i32 %57, 3
  br i1 %58, label %59, label %62

59:                                               ; preds = %53
  %60 = getelementptr inbounds %"class.segmentation_platform::proto::Feature", %"class.segmentation_platform::proto::Feature"* %1, i64 0, i32 6, i32 0
  %61 = load %"class.segmentation_platform::proto::UserActionFeature"*, %"class.segmentation_platform::proto::UserActionFeature"** %60, align 8
  br label %62

62:                                               ; preds = %53, %59
  %63 = phi %"class.segmentation_platform::proto::UserActionFeature"* [ %61, %59 ], [ bitcast (%"class.segmentation_platform::proto::UserActionFeatureDefaultTypeInternal"* @_ZN21segmentation_platform5proto36_UserActionFeature_default_instance_E to %"class.segmentation_platform::proto::UserActionFeature"*), %53 ]
  %64 = getelementptr inbounds %"class.segmentation_platform::proto::UserActionFeature", %"class.segmentation_platform::proto::UserActionFeature"* %55, i64 0, i32 0, i32 1
  %65 = getelementptr inbounds %"class.segmentation_platform::proto::UserActionFeature", %"class.segmentation_platform::proto::UserActionFeature"* %63, i64 0, i32 0, i32 1
  %66 = bitcast %"class.google::protobuf::internal::InternalMetadata"* %65 to i64*
  %67 = load i64, i64* %66, align 8
  %68 = and i64 %67, 1
  %69 = icmp eq i64 %68, 0
  br i1 %69, label %99, label %70

70:                                               ; preds = %62
  %71 = and i64 %67, -2
  %72 = inttoptr i64 %71 to %"struct.google::protobuf::internal::InternalMetadata::Container"*
  %73 = getelementptr inbounds %"struct.google::protobuf::internal::InternalMetadata::Container", %"struct.google::protobuf::internal::InternalMetadata::Container"* %72, i64 0, i32 1
  %74 = bitcast %"class.google::protobuf::internal::InternalMetadata"* %64 to i64*
  %75 = load i64, i64* %74, align 8
  %76 = and i64 %75, 1
  %77 = icmp eq i64 %76, 0
  br i1 %77, label %82, label %78, !prof !5

78:                                               ; preds = %70
  %79 = and i64 %75, -2
  %80 = inttoptr i64 %79 to %"struct.google::protobuf::internal::InternalMetadata::Container"*
  %81 = getelementptr inbounds %"struct.google::protobuf::internal::InternalMetadata::Container", %"struct.google::protobuf::internal::InternalMetadata::Container"* %80, i64 0, i32 1
  br label %84

82:                                               ; preds = %70
  %83 = tail call %"class.std::__1::basic_string"* @_ZN6google8protobuf8internal16InternalMetadata27mutable_unknown_fields_slowINSt3__112basic_stringIcNS4_11char_traitsIcEENS4_9allocatorIcEEEEEEPT_v(%"class.google::protobuf::internal::InternalMetadata"* %64) #17
  br label %84

84:                                               ; preds = %82, %78
  %85 = phi %"class.std::__1::basic_string"* [ %81, %78 ], [ %83, %82 ]
  %86 = bitcast %"class.std::__1::basic_string"* %73 to %"struct.std::__1::basic_string<char, std::__1::char_traits<char>, std::__1::allocator<char> >::__short"*
  %87 = getelementptr inbounds %"struct.std::__1::basic_string<char, std::__1::char_traits<char>, std::__1::allocator<char> >::__short", %"struct.std::__1::basic_string<char, std::__1::char_traits<char>, std::__1::allocator<char> >::__short"* %86, i64 0, i32 1, i32 0
  %88 = load i8, i8* %87, align 1
  %89 = icmp slt i8 %88, 0
  %90 = getelementptr inbounds %"class.std::__1::basic_string", %"class.std::__1::basic_string"* %73, i64 0, i32 0, i32 0, i32 0, i32 0, i32 0, i32 0
  %91 = load i8*, i8** %90, align 8
  %92 = getelementptr inbounds %"struct.google::protobuf::internal::InternalMetadata::Container", %"struct.google::protobuf::internal::InternalMetadata::Container"* %72, i64 0, i32 1, i32 0, i32 0, i32 0, i32 0, i32 0, i32 1
  %93 = load i64, i64* %92, align 8
  %94 = bitcast %"class.std::__1::basic_string"* %73 to i8*
  %95 = zext i8 %88 to i64
  %96 = select i1 %89, i8* %91, i8* %94
  %97 = select i1 %89, i64 %93, i64 %95
  %98 = tail call dereferenceable(24) %"class.std::__1::basic_string"* @_ZNSt3__112basic_stringIcNS_11char_traitsIcEENS_9allocatorIcEEE6appendEPKcm(%"class.std::__1::basic_string"* %85, i8* %96, i64 %97) #17
  br label %99

99:                                               ; preds = %84, %62
  %100 = getelementptr inbounds %"class.segmentation_platform::proto::UserActionFeature", %"class.segmentation_platform::proto::UserActionFeature"* %63, i64 0, i32 1, i32 0, i64 0
  %101 = load i32, i32* %100, align 4
  %102 = and i32 %101, 1
  %103 = icmp eq i32 %102, 0
  br i1 %103, label %161, label %104

104:                                              ; preds = %99
  %105 = getelementptr inbounds %"class.segmentation_platform::proto::UserActionFeature", %"class.segmentation_platform::proto::UserActionFeature"* %63, i64 0, i32 3
  %106 = load i64, i64* %105, align 8
  %107 = getelementptr inbounds %"class.segmentation_platform::proto::UserActionFeature", %"class.segmentation_platform::proto::UserActionFeature"* %55, i64 0, i32 1, i32 0, i64 0
  %108 = load i32, i32* %107, align 4
  %109 = or i32 %108, 1
  store i32 %109, i32* %107, align 4
  %110 = getelementptr inbounds %"class.segmentation_platform::proto::UserActionFeature", %"class.segmentation_platform::proto::UserActionFeature"* %55, i64 0, i32 3
  store i64 %106, i64* %110, align 8
  br label %161

111:                                              ; preds = %33
  tail call void @_ZN21segmentation_platform5proto7Feature11clear_valueEv(%"class.segmentation_platform::proto::Feature"* %0) #17
  store i32 4, i32* %38, align 8
  %112 = bitcast %"class.google::protobuf::internal::InternalMetadata"* %9 to i64*
  %113 = load i64, i64* %112, align 8
  %114 = and i64 %113, 1
  %115 = icmp eq i64 %114, 0
  %116 = and i64 %113, -2
  br i1 %115, label %121, label %117, !prof !2

117:                                              ; preds = %111
  %118 = inttoptr i64 %116 to %"struct.google::protobuf::internal::InternalMetadata::ContainerBase"*
  %119 = getelementptr inbounds %"struct.google::protobuf::internal::InternalMetadata::ContainerBase", %"struct.google::protobuf::internal::InternalMetadata::ContainerBase"* %118, i64 0, i32 0
  %120 = load %"class.google::protobuf::Arena"*, %"class.google::protobuf::Arena"** %119, align 8
  br label %123

121:                                              ; preds = %111
  %122 = inttoptr i64 %116 to %"class.google::protobuf::Arena"*
  br label %123

123:                                              ; preds = %117, %121
  %124 = phi %"class.google::protobuf::Arena"* [ %120, %117 ], [ %122, %121 ]
  %125 = tail call %"class.segmentation_platform::proto::HistogramValueFeature"* @_ZN6google8protobuf5Arena18CreateMaybeMessageIN21segmentation_platform5proto21HistogramValueFeatureEJEEEPT_PS1_DpOT0_(%"class.google::protobuf::Arena"* %124) #17
  %126 = getelementptr inbounds %"class.segmentation_platform::proto::Feature", %"class.segmentation_platform::proto::Feature"* %0, i64 0, i32 6
  %127 = bitcast %"union.segmentation_platform::proto::Feature::ValueUnion"* %126 to %"class.segmentation_platform::proto::HistogramValueFeature"**
  store %"class.segmentation_platform::proto::HistogramValueFeature"* %125, %"class.segmentation_platform::proto::HistogramValueFeature"** %127, align 8
  %128 = load i32, i32* %39, align 8
  %129 = icmp eq i32 %128, 4
  br i1 %129, label %130, label %134

130:                                              ; preds = %123
  %131 = getelementptr inbounds %"class.segmentation_platform::proto::Feature", %"class.segmentation_platform::proto::Feature"* %1, i64 0, i32 6
  %132 = bitcast %"union.segmentation_platform::proto::Feature::ValueUnion"* %131 to %"class.segmentation_platform::proto::HistogramValueFeature"**
  %133 = load %"class.segmentation_platform::proto::HistogramValueFeature"*, %"class.segmentation_platform::proto::HistogramValueFeature"** %132, align 8
  br label %134

134:                                              ; preds = %123, %130
  %135 = phi %"class.segmentation_platform::proto::HistogramValueFeature"* [ %133, %130 ], [ bitcast (%"class.segmentation_platform::proto::HistogramValueFeatureDefaultTypeInternal"* @_ZN21segmentation_platform5proto40_HistogramValueFeature_default_instance_E to %"class.segmentation_platform::proto::HistogramValueFeature"*), %123 ]
  tail call void @_ZN21segmentation_platform5proto21HistogramValueFeature9MergeFromERKS1_(%"class.segmentation_platform::proto::HistogramValueFeature"* %125, %"class.segmentation_platform::proto::HistogramValueFeature"* dereferenceable(40) %135)
  br label %161

136:                                              ; preds = %33
  tail call void @_ZN21segmentation_platform5proto7Feature11clear_valueEv(%"class.segmentation_platform::proto::Feature"* %0) #17
  store i32 5, i32* %38, align 8
  %137 = bitcast %"class.google::protobuf::internal::InternalMetadata"* %9 to i64*
  %138 = load i64, i64* %137, align 8
  %139 = and i64 %138, 1
  %140 = icmp eq i64 %139, 0
  %141 = and i64 %138, -2
  br i1 %140, label %146, label %142, !prof !2

142:                                              ; preds = %136
  %143 = inttoptr i64 %141 to %"struct.google::protobuf::internal::InternalMetadata::ContainerBase"*
  %144 = getelementptr inbounds %"struct.google::protobuf::internal::InternalMetadata::ContainerBase", %"struct.google::protobuf::internal::InternalMetadata::ContainerBase"* %143, i64 0, i32 0
  %145 = load %"class.google::protobuf::Arena"*, %"class.google::protobuf::Arena"** %144, align 8
  br label %148

146:                                              ; preds = %136
  %147 = inttoptr i64 %141 to %"class.google::protobuf::Arena"*
  br label %148

148:                                              ; preds = %142, %146
  %149 = phi %"class.google::protobuf::Arena"* [ %145, %142 ], [ %147, %146 ]
  %150 = tail call %"class.segmentation_platform::proto::HistogramEnumFeature"* @_ZN6google8protobuf5Arena18CreateMaybeMessageIN21segmentation_platform5proto20HistogramEnumFeatureEJEEEPT_PS1_DpOT0_(%"class.google::protobuf::Arena"* %149) #17
  %151 = getelementptr inbounds %"class.segmentation_platform::proto::Feature", %"class.segmentation_platform::proto::Feature"* %0, i64 0, i32 6
  %152 = bitcast %"union.segmentation_platform::proto::Feature::ValueUnion"* %151 to %"class.segmentation_platform::proto::HistogramEnumFeature"**
  store %"class.segmentation_platform::proto::HistogramEnumFeature"* %150, %"class.segmentation_platform::proto::HistogramEnumFeature"** %152, align 8
  %153 = load i32, i32* %39, align 8
  %154 = icmp eq i32 %153, 5
  br i1 %154, label %155, label %159

155:                                              ; preds = %148
  %156 = getelementptr inbounds %"class.segmentation_platform::proto::Feature", %"class.segmentation_platform::proto::Feature"* %1, i64 0, i32 6
  %157 = bitcast %"union.segmentation_platform::proto::Feature::ValueUnion"* %156 to %"class.segmentation_platform::proto::HistogramEnumFeature"**
  %158 = load %"class.segmentation_platform::proto::HistogramEnumFeature"*, %"class.segmentation_platform::proto::HistogramEnumFeature"** %157, align 8
  br label %159

159:                                              ; preds = %148, %155
  %160 = phi %"class.segmentation_platform::proto::HistogramEnumFeature"* [ %158, %155 ], [ bitcast (%"class.segmentation_platform::proto::HistogramEnumFeatureDefaultTypeInternal"* @_ZN21segmentation_platform5proto39_HistogramEnumFeature_default_instance_E to %"class.segmentation_platform::proto::HistogramEnumFeature"*), %148 ]
  tail call void @_ZN21segmentation_platform5proto20HistogramEnumFeature9MergeFromERKS1_(%"class.segmentation_platform::proto::HistogramEnumFeature"* %150, %"class.segmentation_platform::proto::HistogramEnumFeature"* dereferenceable(56) %160)
  br label %161

161:                                              ; preds = %104, %99, %33, %159, %134
  ret void
}

; Function Attrs: nounwind ssp uwtable
define hidden void @_ZN21segmentation_platform5proto7FeatureD2Ev(%"class.segmentation_platform::proto::Feature"* nocapture) unnamed_addr #0 align 2 {
  %2 = getelementptr inbounds %"class.segmentation_platform::proto::Feature", %"class.segmentation_platform::proto::Feature"* %0, i64 0, i32 0, i32 0
  store i32 (...)** bitcast (i8** getelementptr inbounds ({ [16 x i8*] }, { [16 x i8*] }* @_ZTVN21segmentation_platform5proto7FeatureE, i64 0, inrange i32 0, i64 2) to i32 (...)**), i32 (...)*** %2, align 8
  %3 = getelementptr inbounds %"class.segmentation_platform::proto::Feature", %"class.segmentation_platform::proto::Feature"* %0, i64 0, i32 7, i64 0
  %4 = load i32, i32* %3, align 8
  %5 = icmp eq i32 %4, 0
  br i1 %5, label %7, label %6

6:                                                ; preds = %1
  tail call void @_ZN21segmentation_platform5proto7Feature11clear_valueEv(%"class.segmentation_platform::proto::Feature"* %0) #17
  br label %7

7:                                                ; preds = %1, %6
  %8 = getelementptr inbounds %"class.segmentation_platform::proto::Feature", %"class.segmentation_platform::proto::Feature"* %0, i64 0, i32 0, i32 1
  %9 = bitcast %"class.google::protobuf::internal::InternalMetadata"* %8 to i64*
  %10 = load i64, i64* %9, align 8
  %11 = and i64 %10, 1
  %12 = icmp eq i64 %11, 0
  br i1 %12, label %33, label %13

13:                                               ; preds = %7
  %14 = and i64 %10, -2
  %15 = inttoptr i64 %14 to %"struct.google::protobuf::internal::InternalMetadata::ContainerBase"*
  %16 = getelementptr inbounds %"struct.google::protobuf::internal::InternalMetadata::ContainerBase", %"struct.google::protobuf::internal::InternalMetadata::ContainerBase"* %15, i64 0, i32 0
  %17 = load %"class.google::protobuf::Arena"*, %"class.google::protobuf::Arena"** %16, align 8
  %18 = icmp ne %"class.google::protobuf::Arena"* %17, null
  %19 = icmp eq i64 %14, 0
  %20 = or i1 %19, %18
  br i1 %20, label %33, label %21

21:                                               ; preds = %13
  %22 = inttoptr i64 %14 to %"struct.google::protobuf::internal::InternalMetadata::Container"*
  %23 = getelementptr inbounds %"struct.google::protobuf::internal::InternalMetadata::Container", %"struct.google::protobuf::internal::InternalMetadata::Container"* %22, i64 0, i32 1
  %24 = bitcast %"class.std::__1::basic_string"* %23 to %"struct.std::__1::basic_string<char, std::__1::char_traits<char>, std::__1::allocator<char> >::__short"*
  %25 = getelementptr inbounds %"struct.std::__1::basic_string<char, std::__1::char_traits<char>, std::__1::allocator<char> >::__short", %"struct.std::__1::basic_string<char, std::__1::char_traits<char>, std::__1::allocator<char> >::__short"* %24, i64 0, i32 1, i32 0
  %26 = load i8, i8* %25, align 1
  %27 = icmp slt i8 %26, 0
  br i1 %27, label %28, label %31

28:                                               ; preds = %21
  %29 = getelementptr inbounds %"class.std::__1::basic_string", %"class.std::__1::basic_string"* %23, i64 0, i32 0, i32 0, i32 0, i32 0, i32 0, i32 0
  %30 = load i8*, i8** %29, align 8
  tail call void @_ZdlPv(i8* %30) #18
  br label %31

31:                                               ; preds = %28, %21
  %32 = inttoptr i64 %14 to i8*
  tail call void @_ZdlPv(i8* %32) #18
  br label %33

33:                                               ; preds = %7, %13, %31
  ret void
}

; Function Attrs: nounwind ssp uwtable
define hidden void @_ZN21segmentation_platform5proto7FeatureD0Ev(%"class.segmentation_platform::proto::Feature"*) unnamed_addr #0 align 2 {
  %2 = getelementptr inbounds %"class.segmentation_platform::proto::Feature", %"class.segmentation_platform::proto::Feature"* %0, i64 0, i32 0, i32 0
  store i32 (...)** bitcast (i8** getelementptr inbounds ({ [16 x i8*] }, { [16 x i8*] }* @_ZTVN21segmentation_platform5proto7FeatureE, i64 0, inrange i32 0, i64 2) to i32 (...)**), i32 (...)*** %2, align 8
  %3 = getelementptr inbounds %"class.segmentation_platform::proto::Feature", %"class.segmentation_platform::proto::Feature"* %0, i64 0, i32 7, i64 0
  %4 = load i32, i32* %3, align 8
  %5 = icmp eq i32 %4, 0
  br i1 %5, label %7, label %6

6:                                                ; preds = %1
  tail call void @_ZN21segmentation_platform5proto7Feature11clear_valueEv(%"class.segmentation_platform::proto::Feature"* %0) #17
  br label %7

7:                                                ; preds = %6, %1
  %8 = getelementptr inbounds %"class.segmentation_platform::proto::Feature", %"class.segmentation_platform::proto::Feature"* %0, i64 0, i32 0, i32 1
  %9 = bitcast %"class.google::protobuf::internal::InternalMetadata"* %8 to i64*
  %10 = load i64, i64* %9, align 8
  %11 = and i64 %10, 1
  %12 = icmp eq i64 %11, 0
  br i1 %12, label %33, label %13

13:                                               ; preds = %7
  %14 = and i64 %10, -2
  %15 = inttoptr i64 %14 to %"struct.google::protobuf::internal::InternalMetadata::ContainerBase"*
  %16 = getelementptr inbounds %"struct.google::protobuf::internal::InternalMetadata::ContainerBase", %"struct.google::protobuf::internal::InternalMetadata::ContainerBase"* %15, i64 0, i32 0
  %17 = load %"class.google::protobuf::Arena"*, %"class.google::protobuf::Arena"** %16, align 8
  %18 = icmp ne %"class.google::protobuf::Arena"* %17, null
  %19 = icmp eq i64 %14, 0
  %20 = or i1 %19, %18
  br i1 %20, label %33, label %21

21:                                               ; preds = %13
  %22 = inttoptr i64 %14 to %"struct.google::protobuf::internal::InternalMetadata::Container"*
  %23 = getelementptr inbounds %"struct.google::protobuf::internal::InternalMetadata::Container", %"struct.google::protobuf::internal::InternalMetadata::Container"* %22, i64 0, i32 1
  %24 = bitcast %"class.std::__1::basic_string"* %23 to %"struct.std::__1::basic_string<char, std::__1::char_traits<char>, std::__1::allocator<char> >::__short"*
  %25 = getelementptr inbounds %"struct.std::__1::basic_string<char, std::__1::char_traits<char>, std::__1::allocator<char> >::__short", %"struct.std::__1::basic_string<char, std::__1::char_traits<char>, std::__1::allocator<char> >::__short"* %24, i64 0, i32 1, i32 0
  %26 = load i8, i8* %25, align 1
  %27 = icmp slt i8 %26, 0
  br i1 %27, label %28, label %31

28:                                               ; preds = %21
  %29 = getelementptr inbounds %"class.std::__1::basic_string", %"class.std::__1::basic_string"* %23, i64 0, i32 0, i32 0, i32 0, i32 0, i32 0, i32 0
  %30 = load i8*, i8** %29, align 8
  tail call void @_ZdlPv(i8* %30) #18
  br label %31

31:                                               ; preds = %28, %21
  %32 = inttoptr i64 %14 to i8*
  tail call void @_ZdlPv(i8* %32) #18
  br label %33

33:                                               ; preds = %7, %13, %31
  %34 = bitcast %"class.segmentation_platform::proto::Feature"* %0 to i8*
  tail call void @_ZdlPv(i8* %34) #18
  ret void
}

; Function Attrs: norecurse nounwind readnone ssp uwtable
define hidden void @_ZN21segmentation_platform5proto7Feature9ArenaDtorEPv(i8* nocapture) local_unnamed_addr #1 align 2 {
  ret void
}

; Function Attrs: nofree norecurse nounwind ssp uwtable
define hidden void @_ZNK21segmentation_platform5proto7Feature13SetCachedSizeEi(%"class.segmentation_platform::proto::Feature"* nocapture, i32) local_unnamed_addr #6 align 2 {
  %3 = getelementptr inbounds %"class.segmentation_platform::proto::Feature", %"class.segmentation_platform::proto::Feature"* %0, i64 0, i32 2, i32 0, i32 0, i32 0, i32 0, i32 0, i32 0
  store atomic i32 %1, i32* %3 monotonic, align 4
  ret void
}

; Function Attrs: nounwind ssp uwtable
define hidden dereferenceable(56) %"class.segmentation_platform::proto::Feature"* @_ZN21segmentation_platform5proto7Feature16default_instanceEv() local_unnamed_addr #0 align 2 {
  %1 = load atomic i32, i32* getelementptr inbounds ({ { { { i32 } }, i32, i32, void ()* }, [3 x i8*] }, { { { { i32 } }, i32, i32, void ()* }, [3 x i8*] }* @scc_info_Feature_components_2fsegmentation_5fplatform_2finternal_2fproto_2fmodel_5fmetadata_2eproto, i64 0, i32 0, i32 0, i32 0, i32 0) acquire, align 8
  %2 = icmp eq i32 %1, 0
  br i1 %2, label %4, label %3, !prof !2

3:                                                ; preds = %0
  tail call void @_ZN6google8protobuf8internal11InitSCCImplEPNS1_11SCCInfoBaseE(%"struct.google::protobuf::internal::SCCInfoBase"* bitcast ({ { { { i32 } }, i32, i32, void ()* }, [3 x i8*] }* @scc_info_Feature_components_2fsegmentation_5fplatform_2finternal_2fproto_2fmodel_5fmetadata_2eproto to %"struct.google::protobuf::internal::SCCInfoBase"*)) #17
  br label %4

4:                                                ; preds = %0, %3
  ret %"class.segmentation_platform::proto::Feature"* bitcast (%"class.segmentation_platform::proto::FeatureDefaultTypeInternal"* @_ZN21segmentation_platform5proto26_Feature_default_instance_E to %"class.segmentation_platform::proto::Feature"*)
}

; Function Attrs: nounwind ssp uwtable
define hidden void @_ZN21segmentation_platform5proto7Feature5ClearEv(%"class.segmentation_platform::proto::Feature"* nocapture) unnamed_addr #0 align 2 {
  %2 = getelementptr inbounds %"class.segmentation_platform::proto::Feature", %"class.segmentation_platform::proto::Feature"* %0, i64 0, i32 1, i32 0, i64 0
  %3 = load i32, i32* %2, align 4
  %4 = and i32 %3, 3
  %5 = icmp eq i32 %4, 0
  br i1 %5, label %9, label %6

6:                                                ; preds = %1
  %7 = getelementptr inbounds %"class.segmentation_platform::proto::Feature", %"class.segmentation_platform::proto::Feature"* %0, i64 0, i32 3
  %8 = bitcast i64* %7 to i8*
  tail call void @llvm.memset.p0i8.i64(i8* align 8 %8, i8 0, i64 12, i1 false)
  br label %9

9:                                                ; preds = %1, %6
  tail call void @_ZN21segmentation_platform5proto7Feature11clear_valueEv(%"class.segmentation_platform::proto::Feature"* %0)
  store i32 0, i32* %2, align 4
  %10 = getelementptr inbounds %"class.segmentation_platform::proto::Feature", %"class.segmentation_platform::proto::Feature"* %0, i64 0, i32 0, i32 1
  %11 = bitcast %"class.google::protobuf::internal::InternalMetadata"* %10 to i64*
  %12 = load i64, i64* %11, align 8
  %13 = and i64 %12, 1
  %14 = icmp eq i64 %13, 0
  br i1 %14, label %29, label %15

15:                                               ; preds = %9
  %16 = and i64 %12, -2
  %17 = inttoptr i64 %16 to %"struct.google::protobuf::internal::InternalMetadata::Container"*
  %18 = getelementptr inbounds %"struct.google::protobuf::internal::InternalMetadata::Container", %"struct.google::protobuf::internal::InternalMetadata::Container"* %17, i64 0, i32 1
  %19 = bitcast %"class.std::__1::basic_string"* %18 to %"struct.std::__1::basic_string<char, std::__1::char_traits<char>, std::__1::allocator<char> >::__short"*
  %20 = getelementptr inbounds %"struct.std::__1::basic_string<char, std::__1::char_traits<char>, std::__1::allocator<char> >::__short", %"struct.std::__1::basic_string<char, std::__1::char_traits<char>, std::__1::allocator<char> >::__short"* %19, i64 0, i32 1, i32 0
  %21 = load i8, i8* %20, align 1
  %22 = icmp slt i8 %21, 0
  br i1 %22, label %23, label %27

23:                                               ; preds = %15
  %24 = getelementptr inbounds %"class.std::__1::basic_string", %"class.std::__1::basic_string"* %18, i64 0, i32 0, i32 0, i32 0, i32 0, i32 0, i32 0
  %25 = load i8*, i8** %24, align 8
  store i8 0, i8* %25, align 1
  %26 = getelementptr inbounds %"struct.google::protobuf::internal::InternalMetadata::Container", %"struct.google::protobuf::internal::InternalMetadata::Container"* %17, i64 0, i32 1, i32 0, i32 0, i32 0, i32 0, i32 0, i32 1
  store i64 0, i64* %26, align 8
  br label %29

27:                                               ; preds = %15
  %28 = bitcast %"class.std::__1::basic_string"* %18 to i8*
  store i8 0, i8* %28, align 2
  store i8 0, i8* %20, align 1
  br label %29

29:                                               ; preds = %9, %23, %27
  ret void
}

; Function Attrs: argmemonly nounwind
declare void @llvm.memset.p0i8.i64(i8* nocapture writeonly, i8, i64, i1 immarg) #2

; Function Attrs: nounwind ssp uwtable
define hidden i8* @_ZN21segmentation_platform5proto7Feature14_InternalParseEPKcPN6google8protobuf8internal12ParseContextE(%"class.segmentation_platform::proto::Feature"*, i8*, %"class.google::protobuf::internal::ParseContext"*) unnamed_addr #0 align 2 {
  %4 = getelementptr inbounds %"class.google::protobuf::internal::ParseContext", %"class.google::protobuf::internal::ParseContext"* %2, i64 0, i32 0
  %5 = getelementptr inbounds %"class.google::protobuf::internal::ParseContext", %"class.google::protobuf::internal::ParseContext"* %2, i64 0, i32 2
  %6 = getelementptr inbounds %"class.google::protobuf::internal::ParseContext", %"class.google::protobuf::internal::ParseContext"* %2, i64 0, i32 0, i32 0
  %7 = getelementptr inbounds %"class.google::protobuf::internal::ParseContext", %"class.google::protobuf::internal::ParseContext"* %2, i64 0, i32 0, i32 1
  %8 = bitcast i8** %7 to i64*
  %9 = getelementptr inbounds %"class.google::protobuf::internal::ParseContext", %"class.google::protobuf::internal::ParseContext"* %2, i64 0, i32 0, i32 4
  %10 = getelementptr inbounds %"class.segmentation_platform::proto::Feature", %"class.segmentation_platform::proto::Feature"* %0, i64 0, i32 7, i64 0
  %11 = getelementptr inbounds %"class.segmentation_platform::proto::Feature", %"class.segmentation_platform::proto::Feature"* %0, i64 0, i32 0, i32 1
  %12 = bitcast %"class.google::protobuf::internal::InternalMetadata"* %11 to i64*
  %13 = getelementptr inbounds %"class.segmentation_platform::proto::Feature", %"class.segmentation_platform::proto::Feature"* %0, i64 0, i32 6
  %14 = bitcast %"union.segmentation_platform::proto::Feature::ValueUnion"* %13 to %"class.segmentation_platform::proto::HistogramEnumFeature"**
  %15 = bitcast %"union.segmentation_platform::proto::Feature::ValueUnion"* %13 to %"class.segmentation_platform::proto::HistogramValueFeature"**
  %16 = getelementptr inbounds %"class.segmentation_platform::proto::Feature", %"class.segmentation_platform::proto::Feature"* %0, i64 0, i32 6, i32 0
  %17 = getelementptr inbounds %"class.segmentation_platform::proto::Feature", %"class.segmentation_platform::proto::Feature"* %0, i64 0, i32 1, i32 0, i64 0
  %18 = getelementptr inbounds %"class.segmentation_platform::proto::Feature", %"class.segmentation_platform::proto::Feature"* %0, i64 0, i32 4
  %19 = getelementptr inbounds %"class.segmentation_platform::proto::Feature", %"class.segmentation_platform::proto::Feature"* %0, i64 0, i32 3
  br label %20

20:                                               ; preds = %92, %3
  %21 = phi i8* [ %94, %92 ], [ %1, %3 ]
  %22 = phi i32 [ %70, %92 ], [ 0, %3 ]
  br label %23

23:                                               ; preds = %243, %20
  %24 = phi i8* [ %21, %20 ], [ %244, %243 ]
  %25 = load i32, i32* %5, align 4
  %26 = load i8*, i8** %6, align 8
  %27 = icmp ult i8* %24, %26
  br i1 %27, label %41, label %28, !prof !2

28:                                               ; preds = %23
  %29 = load i64, i64* %8, align 8
  %30 = ptrtoint i8* %24 to i64
  %31 = sub i64 %30, %29
  %32 = load i32, i32* %9, align 4
  %33 = sext i32 %32 to i64
  %34 = icmp eq i64 %31, %33
  br i1 %34, label %245, label %35

35:                                               ; preds = %28
  %36 = tail call { i8*, i8 } @_ZN6google8protobuf8internal18EpsCopyInputStream12DoneFallbackEPKci(%"class.google::protobuf::internal::EpsCopyInputStream"* %4, i8* %24, i32 %25) #17
  %37 = extractvalue { i8*, i8 } %36, 0
  %38 = extractvalue { i8*, i8 } %36, 1
  %39 = and i8 %38, 1
  %40 = icmp eq i8 %39, 0
  br i1 %40, label %41, label %245

41:                                               ; preds = %35, %23
  %42 = phi i8* [ %37, %35 ], [ %24, %23 ]
  %43 = load i8, i8* %42, align 1
  %44 = zext i8 %43 to i32
  %45 = icmp sgt i8 %43, -1
  %46 = getelementptr inbounds i8, i8* %42, i64 1
  br i1 %45, label %60, label %47

47:                                               ; preds = %41
  %48 = load i8, i8* %46, align 1
  %49 = zext i8 %48 to i32
  %50 = shl nuw nsw i32 %49, 7
  %51 = add nsw i32 %44, -128
  %52 = add nsw i32 %51, %50
  %53 = icmp sgt i8 %48, -1
  br i1 %53, label %54, label %56

54:                                               ; preds = %47
  %55 = getelementptr inbounds i8, i8* %42, i64 2
  br label %60

56:                                               ; preds = %47
  %57 = tail call { i8*, i32 } @_ZN6google8protobuf8internal15ReadTagFallbackEPKcj(i8* %42, i32 %52) #17
  %58 = extractvalue { i8*, i32 } %57, 0
  %59 = extractvalue { i8*, i32 } %57, 1
  br label %60

60:                                               ; preds = %41, %54, %56
  %61 = phi i32 [ %52, %54 ], [ %59, %56 ], [ %44, %41 ]
  %62 = phi i8* [ %55, %54 ], [ %58, %56 ], [ %46, %41 ]
  %63 = icmp eq i8* %62, null
  br i1 %63, label %245, label %64, !prof !5

64:                                               ; preds = %60
  %65 = lshr i32 %61, 3
  switch i32 %65, label %221 [
    i32 1, label %66
    i32 2, label %96
    i32 3, label %143
    i32 4, label %169
    i32 5, label %195
  ]

66:                                               ; preds = %64
  %67 = and i32 %61, 255
  %68 = icmp eq i32 %67, 8
  br i1 %68, label %69, label %221, !prof !2

69:                                               ; preds = %66
  %70 = or i32 %22, 1
  %71 = load i8, i8* %62, align 1
  %72 = icmp slt i8 %71, 0
  br i1 %72, label %76, label %73

73:                                               ; preds = %69
  %74 = zext i8 %71 to i64
  %75 = getelementptr inbounds i8, i8* %62, i64 1
  br label %92

76:                                               ; preds = %69
  %77 = zext i8 %71 to i32
  %78 = getelementptr inbounds i8, i8* %62, i64 1
  %79 = load i8, i8* %78, align 1
  %80 = zext i8 %79 to i32
  %81 = shl nuw nsw i32 %80, 7
  %82 = add nsw i32 %77, -128
  %83 = add nuw nsw i32 %82, %81
  %84 = icmp slt i8 %79, 0
  br i1 %84, label %88, label %85

85:                                               ; preds = %76
  %86 = zext i32 %83 to i64
  %87 = getelementptr inbounds i8, i8* %62, i64 2
  br label %92

88:                                               ; preds = %76
  %89 = tail call { i8*, i64 } @_ZN6google8protobuf8internal17VarintParseSlow64EPKcj(i8* nonnull %62, i32 %83) #17
  %90 = extractvalue { i8*, i64 } %89, 0
  %91 = extractvalue { i8*, i64 } %89, 1
  br label %92

92:                                               ; preds = %73, %85, %88
  %93 = phi i64 [ %91, %88 ], [ %86, %85 ], [ %74, %73 ]
  %94 = phi i8* [ %90, %88 ], [ %87, %85 ], [ %75, %73 ]
  store i64 %93, i64* %19, align 8
  %95 = icmp eq i8* %94, null
  br i1 %95, label %245, label %20

96:                                               ; preds = %64
  %97 = and i32 %61, 255
  %98 = icmp eq i32 %97, 16
  br i1 %98, label %99, label %221, !prof !2

99:                                               ; preds = %96
  %100 = load i8, i8* %62, align 1
  %101 = icmp slt i8 %100, 0
  br i1 %101, label %105, label %102

102:                                              ; preds = %99
  %103 = zext i8 %100 to i64
  %104 = getelementptr inbounds i8, i8* %62, i64 1
  br label %121

105:                                              ; preds = %99
  %106 = zext i8 %100 to i32
  %107 = getelementptr inbounds i8, i8* %62, i64 1
  %108 = load i8, i8* %107, align 1
  %109 = zext i8 %108 to i32
  %110 = shl nuw nsw i32 %109, 7
  %111 = add nsw i32 %106, -128
  %112 = add nuw nsw i32 %111, %110
  %113 = icmp slt i8 %108, 0
  br i1 %113, label %117, label %114

114:                                              ; preds = %105
  %115 = zext i32 %112 to i64
  %116 = getelementptr inbounds i8, i8* %62, i64 2
  br label %121

117:                                              ; preds = %105
  %118 = tail call { i8*, i64 } @_ZN6google8protobuf8internal17VarintParseSlow64EPKcj(i8* nonnull %62, i32 %112) #17
  %119 = extractvalue { i8*, i64 } %118, 0
  %120 = extractvalue { i8*, i64 } %118, 1
  br label %121

121:                                              ; preds = %102, %114, %117
  %122 = phi i64 [ %120, %117 ], [ %115, %114 ], [ %103, %102 ]
  %123 = phi i8* [ %119, %117 ], [ %116, %114 ], [ %104, %102 ]
  %124 = icmp eq i8* %123, null
  br i1 %124, label %245, label %125, !prof !5

125:                                              ; preds = %121
  %126 = trunc i64 %122 to i32
  %127 = tail call zeroext i1 @_ZN21segmentation_platform5proto19Aggregation_IsValidEi(i32 %126) #17
  br i1 %127, label %128, label %131, !prof !2

128:                                              ; preds = %125
  %129 = load i32, i32* %17, align 4
  %130 = or i32 %129, 2
  store i32 %130, i32* %17, align 4
  store i32 %126, i32* %18, align 8
  br label %243

131:                                              ; preds = %125
  %132 = load i64, i64* %12, align 8
  %133 = and i64 %132, 1
  %134 = icmp eq i64 %133, 0
  br i1 %134, label %139, label %135, !prof !5

135:                                              ; preds = %131
  %136 = and i64 %132, -2
  %137 = inttoptr i64 %136 to %"struct.google::protobuf::internal::InternalMetadata::Container"*
  %138 = getelementptr inbounds %"struct.google::protobuf::internal::InternalMetadata::Container", %"struct.google::protobuf::internal::InternalMetadata::Container"* %137, i64 0, i32 1
  br label %141

139:                                              ; preds = %131
  %140 = tail call %"class.std::__1::basic_string"* @_ZN6google8protobuf8internal16InternalMetadata27mutable_unknown_fields_slowINSt3__112basic_stringIcNS4_11char_traitsIcEENS4_9allocatorIcEEEEEEPT_v(%"class.google::protobuf::internal::InternalMetadata"* %11) #17
  br label %141

141:                                              ; preds = %135, %139
  %142 = phi %"class.std::__1::basic_string"* [ %138, %135 ], [ %140, %139 ]
  tail call void @_ZN6google8protobuf8internal11WriteVarintEjmPNSt3__112basic_stringIcNS2_11char_traitsIcEENS2_9allocatorIcEEEE(i32 2, i64 %122, %"class.std::__1::basic_string"* %142) #17
  br label %243

143:                                              ; preds = %64
  %144 = and i32 %61, 255
  %145 = icmp eq i32 %144, 26
  br i1 %145, label %146, label %221, !prof !2

146:                                              ; preds = %143
  %147 = load i32, i32* %10, align 8
  %148 = icmp eq i32 %147, 3
  br i1 %148, label %149, label %151

149:                                              ; preds = %146
  %150 = load %"class.segmentation_platform::proto::UserActionFeature"*, %"class.segmentation_platform::proto::UserActionFeature"** %16, align 8
  br label %165

151:                                              ; preds = %146
  tail call void @_ZN21segmentation_platform5proto7Feature11clear_valueEv(%"class.segmentation_platform::proto::Feature"* %0) #17
  store i32 3, i32* %10, align 8
  %152 = load i64, i64* %12, align 8
  %153 = and i64 %152, 1
  %154 = icmp eq i64 %153, 0
  %155 = and i64 %152, -2
  br i1 %154, label %160, label %156, !prof !2

156:                                              ; preds = %151
  %157 = inttoptr i64 %155 to %"struct.google::protobuf::internal::InternalMetadata::ContainerBase"*
  %158 = getelementptr inbounds %"struct.google::protobuf::internal::InternalMetadata::ContainerBase", %"struct.google::protobuf::internal::InternalMetadata::ContainerBase"* %157, i64 0, i32 0
  %159 = load %"class.google::protobuf::Arena"*, %"class.google::protobuf::Arena"** %158, align 8
  br label %162

160:                                              ; preds = %151
  %161 = inttoptr i64 %155 to %"class.google::protobuf::Arena"*
  br label %162

162:                                              ; preds = %160, %156
  %163 = phi %"class.google::protobuf::Arena"* [ %159, %156 ], [ %161, %160 ]
  %164 = tail call %"class.segmentation_platform::proto::UserActionFeature"* @_ZN6google8protobuf5Arena18CreateMaybeMessageIN21segmentation_platform5proto17UserActionFeatureEJEEEPT_PS1_DpOT0_(%"class.google::protobuf::Arena"* %163) #17
  store %"class.segmentation_platform::proto::UserActionFeature"* %164, %"class.segmentation_platform::proto::UserActionFeature"** %16, align 8
  br label %165

165:                                              ; preds = %149, %162
  %166 = phi %"class.segmentation_platform::proto::UserActionFeature"* [ %150, %149 ], [ %164, %162 ]
  %167 = tail call i8* @_ZN6google8protobuf8internal12ParseContext12ParseMessageIN21segmentation_platform5proto17UserActionFeatureEEEPKcPT_S8_(%"class.google::protobuf::internal::ParseContext"* %2, %"class.segmentation_platform::proto::UserActionFeature"* %166, i8* nonnull %62)
  %168 = icmp eq i8* %167, null
  br i1 %168, label %245, label %243

169:                                              ; preds = %64
  %170 = and i32 %61, 255
  %171 = icmp eq i32 %170, 34
  br i1 %171, label %172, label %221, !prof !2

172:                                              ; preds = %169
  %173 = load i32, i32* %10, align 8
  %174 = icmp eq i32 %173, 4
  br i1 %174, label %175, label %177

175:                                              ; preds = %172
  %176 = load %"class.segmentation_platform::proto::HistogramValueFeature"*, %"class.segmentation_platform::proto::HistogramValueFeature"** %15, align 8
  br label %191

177:                                              ; preds = %172
  tail call void @_ZN21segmentation_platform5proto7Feature11clear_valueEv(%"class.segmentation_platform::proto::Feature"* %0) #17
  store i32 4, i32* %10, align 8
  %178 = load i64, i64* %12, align 8
  %179 = and i64 %178, 1
  %180 = icmp eq i64 %179, 0
  %181 = and i64 %178, -2
  br i1 %180, label %186, label %182, !prof !2

182:                                              ; preds = %177
  %183 = inttoptr i64 %181 to %"struct.google::protobuf::internal::InternalMetadata::ContainerBase"*
  %184 = getelementptr inbounds %"struct.google::protobuf::internal::InternalMetadata::ContainerBase", %"struct.google::protobuf::internal::InternalMetadata::ContainerBase"* %183, i64 0, i32 0
  %185 = load %"class.google::protobuf::Arena"*, %"class.google::protobuf::Arena"** %184, align 8
  br label %188

186:                                              ; preds = %177
  %187 = inttoptr i64 %181 to %"class.google::protobuf::Arena"*
  br label %188

188:                                              ; preds = %186, %182
  %189 = phi %"class.google::protobuf::Arena"* [ %185, %182 ], [ %187, %186 ]
  %190 = tail call %"class.segmentation_platform::proto::HistogramValueFeature"* @_ZN6google8protobuf5Arena18CreateMaybeMessageIN21segmentation_platform5proto21HistogramValueFeatureEJEEEPT_PS1_DpOT0_(%"class.google::protobuf::Arena"* %189) #17
  store %"class.segmentation_platform::proto::HistogramValueFeature"* %190, %"class.segmentation_platform::proto::HistogramValueFeature"** %15, align 8
  br label %191

191:                                              ; preds = %175, %188
  %192 = phi %"class.segmentation_platform::proto::HistogramValueFeature"* [ %176, %175 ], [ %190, %188 ]
  %193 = tail call i8* @_ZN6google8protobuf8internal12ParseContext12ParseMessageIN21segmentation_platform5proto21HistogramValueFeatureEEEPKcPT_S8_(%"class.google::protobuf::internal::ParseContext"* %2, %"class.segmentation_platform::proto::HistogramValueFeature"* %192, i8* nonnull %62)
  %194 = icmp eq i8* %193, null
  br i1 %194, label %245, label %243

195:                                              ; preds = %64
  %196 = and i32 %61, 255
  %197 = icmp eq i32 %196, 42
  br i1 %197, label %198, label %221, !prof !2

198:                                              ; preds = %195
  %199 = load i32, i32* %10, align 8
  %200 = icmp eq i32 %199, 5
  br i1 %200, label %201, label %203

201:                                              ; preds = %198
  %202 = load %"class.segmentation_platform::proto::HistogramEnumFeature"*, %"class.segmentation_platform::proto::HistogramEnumFeature"** %14, align 8
  br label %217

203:                                              ; preds = %198
  tail call void @_ZN21segmentation_platform5proto7Feature11clear_valueEv(%"class.segmentation_platform::proto::Feature"* %0) #17
  store i32 5, i32* %10, align 8
  %204 = load i64, i64* %12, align 8
  %205 = and i64 %204, 1
  %206 = icmp eq i64 %205, 0
  %207 = and i64 %204, -2
  br i1 %206, label %212, label %208, !prof !2

208:                                              ; preds = %203
  %209 = inttoptr i64 %207 to %"struct.google::protobuf::internal::InternalMetadata::ContainerBase"*
  %210 = getelementptr inbounds %"struct.google::protobuf::internal::InternalMetadata::ContainerBase", %"struct.google::protobuf::internal::InternalMetadata::ContainerBase"* %209, i64 0, i32 0
  %211 = load %"class.google::protobuf::Arena"*, %"class.google::protobuf::Arena"** %210, align 8
  br label %214

212:                                              ; preds = %203
  %213 = inttoptr i64 %207 to %"class.google::protobuf::Arena"*
  br label %214

214:                                              ; preds = %212, %208
  %215 = phi %"class.google::protobuf::Arena"* [ %211, %208 ], [ %213, %212 ]
  %216 = tail call %"class.segmentation_platform::proto::HistogramEnumFeature"* @_ZN6google8protobuf5Arena18CreateMaybeMessageIN21segmentation_platform5proto20HistogramEnumFeatureEJEEEPT_PS1_DpOT0_(%"class.google::protobuf::Arena"* %215) #17
  store %"class.segmentation_platform::proto::HistogramEnumFeature"* %216, %"class.segmentation_platform::proto::HistogramEnumFeature"** %14, align 8
  br label %217

217:                                              ; preds = %201, %214
  %218 = phi %"class.segmentation_platform::proto::HistogramEnumFeature"* [ %202, %201 ], [ %216, %214 ]
  %219 = tail call i8* @_ZN6google8protobuf8internal12ParseContext12ParseMessageIN21segmentation_platform5proto20HistogramEnumFeatureEEEPKcPT_S8_(%"class.google::protobuf::internal::ParseContext"* %2, %"class.segmentation_platform::proto::HistogramEnumFeature"* %218, i8* nonnull %62)
  %220 = icmp eq i8* %219, null
  br i1 %220, label %245, label %243

221:                                              ; preds = %64, %195, %169, %143, %96, %66
  %222 = and i32 %61, 7
  %223 = icmp eq i32 %222, 4
  %224 = icmp eq i32 %61, 0
  %225 = or i1 %224, %223
  br i1 %225, label %226, label %229

226:                                              ; preds = %221
  %227 = add i32 %61, -1
  %228 = getelementptr inbounds %"class.google::protobuf::internal::ParseContext", %"class.google::protobuf::internal::ParseContext"* %2, i64 0, i32 0, i32 8
  store i32 %227, i32* %228, align 8
  br label %245

229:                                              ; preds = %221
  %230 = load i64, i64* %12, align 8
  %231 = and i64 %230, 1
  %232 = icmp eq i64 %231, 0
  br i1 %232, label %237, label %233, !prof !5

233:                                              ; preds = %229
  %234 = and i64 %230, -2
  %235 = inttoptr i64 %234 to %"struct.google::protobuf::internal::InternalMetadata::Container"*
  %236 = getelementptr inbounds %"struct.google::protobuf::internal::InternalMetadata::Container", %"struct.google::protobuf::internal::InternalMetadata::Container"* %235, i64 0, i32 1
  br label %239

237:                                              ; preds = %229
  %238 = tail call %"class.std::__1::basic_string"* @_ZN6google8protobuf8internal16InternalMetadata27mutable_unknown_fields_slowINSt3__112basic_stringIcNS4_11char_traitsIcEENS4_9allocatorIcEEEEEEPT_v(%"class.google::protobuf::internal::InternalMetadata"* %11) #17
  br label %239

239:                                              ; preds = %233, %237
  %240 = phi %"class.std::__1::basic_string"* [ %236, %233 ], [ %238, %237 ]
  %241 = tail call i8* @_ZN6google8protobuf8internal17UnknownFieldParseEjPNSt3__112basic_stringIcNS2_11char_traitsIcEENS2_9allocatorIcEEEEPKcPNS1_12ParseContextE(i32 %61, %"class.std::__1::basic_string"* %240, i8* nonnull %62, %"class.google::protobuf::internal::ParseContext"* %2) #17
  %242 = icmp eq i8* %241, null
  br i1 %242, label %245, label %243

243:                                              ; preds = %239, %217, %191, %165, %141, %128
  %244 = phi i8* [ %241, %239 ], [ %219, %217 ], [ %193, %191 ], [ %167, %165 ], [ %123, %128 ], [ %123, %141 ]
  br label %23

245:                                              ; preds = %35, %239, %217, %191, %165, %28, %60, %121, %92, %226
  %246 = phi i8* [ %62, %226 ], [ %37, %35 ], [ null, %60 ], [ null, %121 ], [ %24, %28 ], [ null, %165 ], [ null, %191 ], [ null, %217 ], [ null, %239 ], [ null, %92 ]
  %247 = phi i32 [ %22, %226 ], [ %22, %35 ], [ %22, %239 ], [ %22, %217 ], [ %22, %191 ], [ %22, %165 ], [ %22, %28 ], [ %22, %60 ], [ %22, %121 ], [ %70, %92 ]
  %248 = load i32, i32* %17, align 4
  %249 = or i32 %248, %247
  store i32 %249, i32* %17, align 4
  ret i8* %246
}

declare zeroext i1 @_ZN21segmentation_platform5proto19Aggregation_IsValidEi(i32) local_unnamed_addr #4

declare void @_ZN6google8protobuf8internal11WriteVarintEjmPNSt3__112basic_stringIcNS2_11char_traitsIcEENS2_9allocatorIcEEEE(i32, i64, %"class.std::__1::basic_string"*) local_unnamed_addr #4

; Function Attrs: nounwind ssp uwtable
define linkonce_odr hidden i8* @_ZN6google8protobuf8internal12ParseContext12ParseMessageIN21segmentation_platform5proto17UserActionFeatureEEEPKcPT_S8_(%"class.google::protobuf::internal::ParseContext"*, %"class.segmentation_platform::proto::UserActionFeature"*, i8*) local_unnamed_addr #0 comdat align 2 {
  %4 = load i8, i8* %2, align 1
  %5 = zext i8 %4 to i32
  %6 = icmp sgt i8 %4, -1
  br i1 %6, label %7, label %9

7:                                                ; preds = %3
  %8 = getelementptr inbounds i8, i8* %2, i64 1
  br label %13

9:                                                ; preds = %3
  %10 = tail call { i8*, i32 } @_ZN6google8protobuf8internal16ReadSizeFallbackEPKcj(i8* %2, i32 %5) #17
  %11 = extractvalue { i8*, i32 } %10, 0
  %12 = extractvalue { i8*, i32 } %10, 1
  br label %13

13:                                               ; preds = %7, %9
  %14 = phi i8* [ %11, %9 ], [ %8, %7 ]
  %15 = phi i32 [ %12, %9 ], [ %5, %7 ]
  %16 = icmp eq i8* %14, null
  br i1 %16, label %55, label %17

17:                                               ; preds = %13
  %18 = getelementptr inbounds %"class.google::protobuf::internal::ParseContext", %"class.google::protobuf::internal::ParseContext"* %0, i64 0, i32 0, i32 1
  %19 = bitcast i8** %18 to i64*
  %20 = load i64, i64* %19, align 8
  %21 = ptrtoint i8* %14 to i64
  %22 = sub i64 %21, %20
  %23 = trunc i64 %22 to i32
  %24 = add nsw i32 %15, %23
  %25 = inttoptr i64 %20 to i8*
  %26 = icmp slt i32 %24, 0
  %27 = select i1 %26, i32 %24, i32 0
  %28 = sext i32 %27 to i64
  %29 = getelementptr inbounds i8, i8* %25, i64 %28
  %30 = getelementptr inbounds %"class.google::protobuf::internal::ParseContext", %"class.google::protobuf::internal::ParseContext"* %0, i64 0, i32 0, i32 0
  store i8* %29, i8** %30, align 8
  %31 = getelementptr inbounds %"class.google::protobuf::internal::ParseContext", %"class.google::protobuf::internal::ParseContext"* %0, i64 0, i32 0, i32 4
  %32 = load i32, i32* %31, align 4
  store i32 %24, i32* %31, align 4
  %33 = sub nsw i32 %32, %24
  %34 = getelementptr inbounds %"class.google::protobuf::internal::ParseContext", %"class.google::protobuf::internal::ParseContext"* %0, i64 0, i32 1
  %35 = load i32, i32* %34, align 8
  %36 = add nsw i32 %35, -1
  store i32 %36, i32* %34, align 8
  %37 = icmp slt i32 %35, 1
  br i1 %37, label %55, label %38

38:                                               ; preds = %17
  %39 = tail call i8* @_ZN21segmentation_platform5proto17UserActionFeature14_InternalParseEPKcPN6google8protobuf8internal12ParseContextE(%"class.segmentation_platform::proto::UserActionFeature"* %1, i8* nonnull %14, %"class.google::protobuf::internal::ParseContext"* %0)
  %40 = icmp eq i8* %39, null
  br i1 %40, label %55, label %41, !prof !5

41:                                               ; preds = %38
  %42 = load i32, i32* %34, align 8
  %43 = add nsw i32 %42, 1
  store i32 %43, i32* %34, align 8
  %44 = getelementptr inbounds %"class.google::protobuf::internal::ParseContext", %"class.google::protobuf::internal::ParseContext"* %0, i64 0, i32 0, i32 8
  %45 = load i32, i32* %44, align 8
  %46 = icmp eq i32 %45, 0
  br i1 %46, label %47, label %55, !prof !2

47:                                               ; preds = %41
  %48 = load i32, i32* %31, align 4
  %49 = add nsw i32 %48, %33
  store i32 %49, i32* %31, align 4
  %50 = load i8*, i8** %18, align 8
  %51 = icmp slt i32 %49, 0
  %52 = select i1 %51, i32 %49, i32 0
  %53 = sext i32 %52 to i64
  %54 = getelementptr inbounds i8, i8* %50, i64 %53
  store i8* %54, i8** %30, align 8
  br label %55

55:                                               ; preds = %13, %38, %17, %41, %47
  %56 = phi i8* [ %39, %47 ], [ null, %41 ], [ null, %17 ], [ null, %38 ], [ null, %13 ]
  ret i8* %56
}

; Function Attrs: nounwind ssp uwtable
define linkonce_odr hidden i8* @_ZN6google8protobuf8internal12ParseContext12ParseMessageIN21segmentation_platform5proto21HistogramValueFeatureEEEPKcPT_S8_(%"class.google::protobuf::internal::ParseContext"*, %"class.segmentation_platform::proto::HistogramValueFeature"*, i8*) local_unnamed_addr #0 comdat align 2 {
  %4 = load i8, i8* %2, align 1
  %5 = zext i8 %4 to i32
  %6 = icmp sgt i8 %4, -1
  br i1 %6, label %7, label %9

7:                                                ; preds = %3
  %8 = getelementptr inbounds i8, i8* %2, i64 1
  br label %13

9:                                                ; preds = %3
  %10 = tail call { i8*, i32 } @_ZN6google8protobuf8internal16ReadSizeFallbackEPKcj(i8* %2, i32 %5) #17
  %11 = extractvalue { i8*, i32 } %10, 0
  %12 = extractvalue { i8*, i32 } %10, 1
  br label %13

13:                                               ; preds = %7, %9
  %14 = phi i8* [ %11, %9 ], [ %8, %7 ]
  %15 = phi i32 [ %12, %9 ], [ %5, %7 ]
  %16 = icmp eq i8* %14, null
  br i1 %16, label %55, label %17

17:                                               ; preds = %13
  %18 = getelementptr inbounds %"class.google::protobuf::internal::ParseContext", %"class.google::protobuf::internal::ParseContext"* %0, i64 0, i32 0, i32 1
  %19 = bitcast i8** %18 to i64*
  %20 = load i64, i64* %19, align 8
  %21 = ptrtoint i8* %14 to i64
  %22 = sub i64 %21, %20
  %23 = trunc i64 %22 to i32
  %24 = add nsw i32 %15, %23
  %25 = inttoptr i64 %20 to i8*
  %26 = icmp slt i32 %24, 0
  %27 = select i1 %26, i32 %24, i32 0
  %28 = sext i32 %27 to i64
  %29 = getelementptr inbounds i8, i8* %25, i64 %28
  %30 = getelementptr inbounds %"class.google::protobuf::internal::ParseContext", %"class.google::protobuf::internal::ParseContext"* %0, i64 0, i32 0, i32 0
  store i8* %29, i8** %30, align 8
  %31 = getelementptr inbounds %"class.google::protobuf::internal::ParseContext", %"class.google::protobuf::internal::ParseContext"* %0, i64 0, i32 0, i32 4
  %32 = load i32, i32* %31, align 4
  store i32 %24, i32* %31, align 4
  %33 = sub nsw i32 %32, %24
  %34 = getelementptr inbounds %"class.google::protobuf::internal::ParseContext", %"class.google::protobuf::internal::ParseContext"* %0, i64 0, i32 1
  %35 = load i32, i32* %34, align 8
  %36 = add nsw i32 %35, -1
  store i32 %36, i32* %34, align 8
  %37 = icmp slt i32 %35, 1
  br i1 %37, label %55, label %38

38:                                               ; preds = %17
  %39 = tail call i8* @_ZN21segmentation_platform5proto21HistogramValueFeature14_InternalParseEPKcPN6google8protobuf8internal12ParseContextE(%"class.segmentation_platform::proto::HistogramValueFeature"* %1, i8* nonnull %14, %"class.google::protobuf::internal::ParseContext"* %0)
  %40 = icmp eq i8* %39, null
  br i1 %40, label %55, label %41, !prof !5

41:                                               ; preds = %38
  %42 = load i32, i32* %34, align 8
  %43 = add nsw i32 %42, 1
  store i32 %43, i32* %34, align 8
  %44 = getelementptr inbounds %"class.google::protobuf::internal::ParseContext", %"class.google::protobuf::internal::ParseContext"* %0, i64 0, i32 0, i32 8
  %45 = load i32, i32* %44, align 8
  %46 = icmp eq i32 %45, 0
  br i1 %46, label %47, label %55, !prof !2

47:                                               ; preds = %41
  %48 = load i32, i32* %31, align 4
  %49 = add nsw i32 %48, %33
  store i32 %49, i32* %31, align 4
  %50 = load i8*, i8** %18, align 8
  %51 = icmp slt i32 %49, 0
  %52 = select i1 %51, i32 %49, i32 0
  %53 = sext i32 %52 to i64
  %54 = getelementptr inbounds i8, i8* %50, i64 %53
  store i8* %54, i8** %30, align 8
  br label %55

55:                                               ; preds = %13, %38, %17, %41, %47
  %56 = phi i8* [ %39, %47 ], [ null, %41 ], [ null, %17 ], [ null, %38 ], [ null, %13 ]
  ret i8* %56
}

; Function Attrs: nounwind ssp uwtable
define linkonce_odr hidden i8* @_ZN6google8protobuf8internal12ParseContext12ParseMessageIN21segmentation_platform5proto20HistogramEnumFeatureEEEPKcPT_S8_(%"class.google::protobuf::internal::ParseContext"*, %"class.segmentation_platform::proto::HistogramEnumFeature"*, i8*) local_unnamed_addr #0 comdat align 2 {
  %4 = load i8, i8* %2, align 1
  %5 = zext i8 %4 to i32
  %6 = icmp sgt i8 %4, -1
  br i1 %6, label %7, label %9

7:                                                ; preds = %3
  %8 = getelementptr inbounds i8, i8* %2, i64 1
  br label %13

9:                                                ; preds = %3
  %10 = tail call { i8*, i32 } @_ZN6google8protobuf8internal16ReadSizeFallbackEPKcj(i8* %2, i32 %5) #17
  %11 = extractvalue { i8*, i32 } %10, 0
  %12 = extractvalue { i8*, i32 } %10, 1
  br label %13

13:                                               ; preds = %7, %9
  %14 = phi i8* [ %11, %9 ], [ %8, %7 ]
  %15 = phi i32 [ %12, %9 ], [ %5, %7 ]
  %16 = icmp eq i8* %14, null
  br i1 %16, label %55, label %17

17:                                               ; preds = %13
  %18 = getelementptr inbounds %"class.google::protobuf::internal::ParseContext", %"class.google::protobuf::internal::ParseContext"* %0, i64 0, i32 0, i32 1
  %19 = bitcast i8** %18 to i64*
  %20 = load i64, i64* %19, align 8
  %21 = ptrtoint i8* %14 to i64
  %22 = sub i64 %21, %20
  %23 = trunc i64 %22 to i32
  %24 = add nsw i32 %15, %23
  %25 = inttoptr i64 %20 to i8*
  %26 = icmp slt i32 %24, 0
  %27 = select i1 %26, i32 %24, i32 0
  %28 = sext i32 %27 to i64
  %29 = getelementptr inbounds i8, i8* %25, i64 %28
  %30 = getelementptr inbounds %"class.google::protobuf::internal::ParseContext", %"class.google::protobuf::internal::ParseContext"* %0, i64 0, i32 0, i32 0
  store i8* %29, i8** %30, align 8
  %31 = getelementptr inbounds %"class.google::protobuf::internal::ParseContext", %"class.google::protobuf::internal::ParseContext"* %0, i64 0, i32 0, i32 4
  %32 = load i32, i32* %31, align 4
  store i32 %24, i32* %31, align 4
  %33 = sub nsw i32 %32, %24
  %34 = getelementptr inbounds %"class.google::protobuf::internal::ParseContext", %"class.google::protobuf::internal::ParseContext"* %0, i64 0, i32 1
  %35 = load i32, i32* %34, align 8
  %36 = add nsw i32 %35, -1
  store i32 %36, i32* %34, align 8
  %37 = icmp slt i32 %35, 1
  br i1 %37, label %55, label %38

38:                                               ; preds = %17
  %39 = tail call i8* @_ZN21segmentation_platform5proto20HistogramEnumFeature14_InternalParseEPKcPN6google8protobuf8internal12ParseContextE(%"class.segmentation_platform::proto::HistogramEnumFeature"* %1, i8* nonnull %14, %"class.google::protobuf::internal::ParseContext"* %0)
  %40 = icmp eq i8* %39, null
  br i1 %40, label %55, label %41, !prof !5

41:                                               ; preds = %38
  %42 = load i32, i32* %34, align 8
  %43 = add nsw i32 %42, 1
  store i32 %43, i32* %34, align 8
  %44 = getelementptr inbounds %"class.google::protobuf::internal::ParseContext", %"class.google::protobuf::internal::ParseContext"* %0, i64 0, i32 0, i32 8
  %45 = load i32, i32* %44, align 8
  %46 = icmp eq i32 %45, 0
  br i1 %46, label %47, label %55, !prof !2

47:                                               ; preds = %41
  %48 = load i32, i32* %31, align 4
  %49 = add nsw i32 %48, %33
  store i32 %49, i32* %31, align 4
  %50 = load i8*, i8** %18, align 8
  %51 = icmp slt i32 %49, 0
  %52 = select i1 %51, i32 %49, i32 0
  %53 = sext i32 %52 to i64
  %54 = getelementptr inbounds i8, i8* %50, i64 %53
  store i8* %54, i8** %30, align 8
  br label %55

55:                                               ; preds = %13, %38, %17, %41, %47
  %56 = phi i8* [ %39, %47 ], [ null, %41 ], [ null, %17 ], [ null, %38 ], [ null, %13 ]
  ret i8* %56
}

; Function Attrs: nounwind ssp uwtable
define hidden i8* @_ZNK21segmentation_platform5proto7Feature18_InternalSerializeEPhPN6google8protobuf2io19EpsCopyOutputStreamE(%"class.segmentation_platform::proto::Feature"* nocapture readonly, i8*, %"class.google::protobuf::io::EpsCopyOutputStream"*) unnamed_addr #0 align 2 {
  %4 = getelementptr inbounds %"class.segmentation_platform::proto::Feature", %"class.segmentation_platform::proto::Feature"* %0, i64 0, i32 1, i32 0, i64 0
  %5 = load i32, i32* %4, align 4
  %6 = and i32 %5, 1
  %7 = icmp eq i32 %6, 0
  br i1 %7, label %44, label %8

8:                                                ; preds = %3
  %9 = getelementptr inbounds %"class.google::protobuf::io::EpsCopyOutputStream", %"class.google::protobuf::io::EpsCopyOutputStream"* %2, i64 0, i32 0
  %10 = load i8*, i8** %9, align 8
  %11 = icmp ugt i8* %10, %1
  br i1 %11, label %14, label %12, !prof !2

12:                                               ; preds = %8
  %13 = tail call i8* @_ZN6google8protobuf2io19EpsCopyOutputStream19EnsureSpaceFallbackEPh(%"class.google::protobuf::io::EpsCopyOutputStream"* %2, i8* %1) #17
  br label %14

14:                                               ; preds = %8, %12
  %15 = phi i8* [ %13, %12 ], [ %1, %8 ]
  %16 = getelementptr inbounds %"class.segmentation_platform::proto::Feature", %"class.segmentation_platform::proto::Feature"* %0, i64 0, i32 3
  %17 = load i64, i64* %16, align 8
  store i8 8, i8* %15, align 1
  %18 = getelementptr inbounds i8, i8* %15, i64 1
  %19 = icmp ult i64 %17, 128
  %20 = trunc i64 %17 to i8
  br i1 %19, label %21, label %23

21:                                               ; preds = %14
  store i8 %20, i8* %18, align 1
  %22 = getelementptr inbounds i8, i8* %15, i64 2
  br label %44

23:                                               ; preds = %14
  %24 = or i8 %20, -128
  store i8 %24, i8* %18, align 1
  %25 = lshr i64 %17, 7
  %26 = icmp ult i64 %17, 16384
  br i1 %26, label %27, label %31

27:                                               ; preds = %23
  %28 = trunc i64 %25 to i8
  %29 = getelementptr inbounds i8, i8* %15, i64 2
  store i8 %28, i8* %29, align 1
  %30 = getelementptr inbounds i8, i8* %15, i64 3
  br label %44

31:                                               ; preds = %23
  %32 = getelementptr inbounds i8, i8* %15, i64 2
  br label %33

33:                                               ; preds = %33, %31
  %34 = phi i64 [ %25, %31 ], [ %38, %33 ]
  %35 = phi i8* [ %32, %31 ], [ %39, %33 ]
  %36 = trunc i64 %34 to i8
  %37 = or i8 %36, -128
  store i8 %37, i8* %35, align 1
  %38 = lshr i64 %34, 7
  %39 = getelementptr inbounds i8, i8* %35, i64 1
  %40 = icmp ugt i64 %34, 16383
  br i1 %40, label %33, label %41, !prof !5

41:                                               ; preds = %33
  %42 = trunc i64 %38 to i8
  %43 = getelementptr inbounds i8, i8* %35, i64 2
  store i8 %42, i8* %39, align 1
  br label %44

44:                                               ; preds = %41, %27, %21, %3
  %45 = phi i8* [ %1, %3 ], [ %22, %21 ], [ %30, %27 ], [ %43, %41 ]
  %46 = and i32 %5, 2
  %47 = icmp eq i32 %46, 0
  br i1 %47, label %85, label %48

48:                                               ; preds = %44
  %49 = getelementptr inbounds %"class.google::protobuf::io::EpsCopyOutputStream", %"class.google::protobuf::io::EpsCopyOutputStream"* %2, i64 0, i32 0
  %50 = load i8*, i8** %49, align 8
  %51 = icmp ugt i8* %50, %45
  br i1 %51, label %54, label %52, !prof !2

52:                                               ; preds = %48
  %53 = tail call i8* @_ZN6google8protobuf2io19EpsCopyOutputStream19EnsureSpaceFallbackEPh(%"class.google::protobuf::io::EpsCopyOutputStream"* %2, i8* %45) #17
  br label %54

54:                                               ; preds = %48, %52
  %55 = phi i8* [ %53, %52 ], [ %45, %48 ]
  %56 = getelementptr inbounds %"class.segmentation_platform::proto::Feature", %"class.segmentation_platform::proto::Feature"* %0, i64 0, i32 4
  %57 = load i32, i32* %56, align 8
  store i8 16, i8* %55, align 1
  %58 = getelementptr inbounds i8, i8* %55, i64 1
  %59 = icmp ult i32 %57, 128
  %60 = trunc i32 %57 to i8
  br i1 %59, label %61, label %63

61:                                               ; preds = %54
  store i8 %60, i8* %58, align 1
  %62 = getelementptr inbounds i8, i8* %55, i64 2
  br label %85

63:                                               ; preds = %54
  %64 = sext i32 %57 to i64
  %65 = or i8 %60, -128
  store i8 %65, i8* %58, align 1
  %66 = lshr i64 %64, 7
  %67 = icmp ult i32 %57, 16384
  br i1 %67, label %68, label %72

68:                                               ; preds = %63
  %69 = trunc i64 %66 to i8
  %70 = getelementptr inbounds i8, i8* %55, i64 2
  store i8 %69, i8* %70, align 1
  %71 = getelementptr inbounds i8, i8* %55, i64 3
  br label %85

72:                                               ; preds = %63
  %73 = getelementptr inbounds i8, i8* %55, i64 2
  br label %74

74:                                               ; preds = %74, %72
  %75 = phi i64 [ %66, %72 ], [ %79, %74 ]
  %76 = phi i8* [ %73, %72 ], [ %80, %74 ]
  %77 = trunc i64 %75 to i8
  %78 = or i8 %77, -128
  store i8 %78, i8* %76, align 1
  %79 = lshr i64 %75, 7
  %80 = getelementptr inbounds i8, i8* %76, i64 1
  %81 = icmp ugt i64 %75, 16383
  br i1 %81, label %74, label %82, !prof !5

82:                                               ; preds = %74
  %83 = trunc i64 %79 to i8
  %84 = getelementptr inbounds i8, i8* %76, i64 2
  store i8 %83, i8* %80, align 1
  br label %85

85:                                               ; preds = %82, %68, %61, %44
  %86 = phi i8* [ %45, %44 ], [ %62, %61 ], [ %71, %68 ], [ %84, %82 ]
  %87 = getelementptr inbounds %"class.segmentation_platform::proto::Feature", %"class.segmentation_platform::proto::Feature"* %0, i64 0, i32 7, i64 0
  %88 = load i32, i32* %87, align 8
  switch i32 %88, label %267 [
    i32 3, label %89
    i32 4, label %183
    i32 5, label %225
  ]

89:                                               ; preds = %85
  %90 = getelementptr inbounds %"class.google::protobuf::io::EpsCopyOutputStream", %"class.google::protobuf::io::EpsCopyOutputStream"* %2, i64 0, i32 0
  %91 = load i8*, i8** %90, align 8
  %92 = icmp ugt i8* %91, %86
  br i1 %92, label %95, label %93, !prof !2

93:                                               ; preds = %89
  %94 = tail call i8* @_ZN6google8protobuf2io19EpsCopyOutputStream19EnsureSpaceFallbackEPh(%"class.google::protobuf::io::EpsCopyOutputStream"* %2, i8* %86) #17
  br label %95

95:                                               ; preds = %89, %93
  %96 = phi i8* [ %94, %93 ], [ %86, %89 ]
  %97 = getelementptr inbounds %"class.segmentation_platform::proto::Feature", %"class.segmentation_platform::proto::Feature"* %0, i64 0, i32 6, i32 0
  %98 = load %"class.segmentation_platform::proto::UserActionFeature"*, %"class.segmentation_platform::proto::UserActionFeature"** %97, align 8
  store i8 26, i8* %96, align 1
  %99 = getelementptr inbounds i8, i8* %96, i64 1
  %100 = getelementptr inbounds %"class.segmentation_platform::proto::UserActionFeature", %"class.segmentation_platform::proto::UserActionFeature"* %98, i64 0, i32 2, i32 0, i32 0, i32 0, i32 0, i32 0, i32 0
  %101 = load atomic i32, i32* %100 monotonic, align 4
  %102 = icmp ult i32 %101, 128
  %103 = trunc i32 %101 to i8
  br i1 %102, label %104, label %106

104:                                              ; preds = %95
  store i8 %103, i8* %99, align 1
  %105 = getelementptr inbounds i8, i8* %96, i64 2
  br label %127

106:                                              ; preds = %95
  %107 = or i8 %103, -128
  store i8 %107, i8* %99, align 1
  %108 = lshr i32 %101, 7
  %109 = icmp ult i32 %101, 16384
  br i1 %109, label %110, label %114

110:                                              ; preds = %106
  %111 = trunc i32 %108 to i8
  %112 = getelementptr inbounds i8, i8* %96, i64 2
  store i8 %111, i8* %112, align 1
  %113 = getelementptr inbounds i8, i8* %96, i64 3
  br label %127

114:                                              ; preds = %106
  %115 = getelementptr inbounds i8, i8* %96, i64 2
  br label %116

116:                                              ; preds = %116, %114
  %117 = phi i32 [ %108, %114 ], [ %121, %116 ]
  %118 = phi i8* [ %115, %114 ], [ %122, %116 ]
  %119 = trunc i32 %117 to i8
  %120 = or i8 %119, -128
  store i8 %120, i8* %118, align 1
  %121 = lshr i32 %117, 7
  %122 = getelementptr inbounds i8, i8* %118, i64 1
  %123 = icmp ugt i32 %117, 16383
  br i1 %123, label %116, label %124, !prof !5

124:                                              ; preds = %116
  %125 = trunc i32 %121 to i8
  %126 = getelementptr inbounds i8, i8* %118, i64 2
  store i8 %125, i8* %122, align 1
  br label %127

127:                                              ; preds = %124, %110, %104
  %128 = phi i8* [ %105, %104 ], [ %113, %110 ], [ %126, %124 ]
  %129 = getelementptr inbounds %"class.segmentation_platform::proto::UserActionFeature", %"class.segmentation_platform::proto::UserActionFeature"* %98, i64 0, i32 1, i32 0, i64 0
  %130 = load i32, i32* %129, align 4
  %131 = and i32 %130, 1
  %132 = icmp eq i32 %131, 0
  br i1 %132, label %145, label %133

133:                                              ; preds = %127
  %134 = load i8*, i8** %90, align 8
  %135 = icmp ugt i8* %134, %128
  br i1 %135, label %138, label %136, !prof !2

136:                                              ; preds = %133
  %137 = tail call i8* @_ZN6google8protobuf2io19EpsCopyOutputStream19EnsureSpaceFallbackEPh(%"class.google::protobuf::io::EpsCopyOutputStream"* %2, i8* %128) #17
  br label %138

138:                                              ; preds = %136, %133
  %139 = phi i8* [ %137, %136 ], [ %128, %133 ]
  %140 = getelementptr inbounds %"class.segmentation_platform::proto::UserActionFeature", %"class.segmentation_platform::proto::UserActionFeature"* %98, i64 0, i32 3
  %141 = load i64, i64* %140, align 8
  store i8 9, i8* %139, align 1
  %142 = getelementptr inbounds i8, i8* %139, i64 1
  %143 = bitcast i8* %142 to i64*
  store i64 %141, i64* %143, align 1
  %144 = getelementptr inbounds i8, i8* %139, i64 9
  br label %145

145:                                              ; preds = %138, %127
  %146 = phi i8* [ %144, %138 ], [ %128, %127 ]
  %147 = getelementptr inbounds %"class.segmentation_platform::proto::UserActionFeature", %"class.segmentation_platform::proto::UserActionFeature"* %98, i64 0, i32 0, i32 1
  %148 = bitcast %"class.google::protobuf::internal::InternalMetadata"* %147 to i64*
  %149 = load i64, i64* %148, align 8
  %150 = and i64 %149, 1
  %151 = icmp eq i64 %150, 0
  br i1 %151, label %267, label %152, !prof !2

152:                                              ; preds = %145
  %153 = and i64 %149, -2
  %154 = inttoptr i64 %153 to %"struct.google::protobuf::internal::InternalMetadata::Container"*
  %155 = getelementptr inbounds %"struct.google::protobuf::internal::InternalMetadata::Container", %"struct.google::protobuf::internal::InternalMetadata::Container"* %154, i64 0, i32 1
  %156 = bitcast %"class.std::__1::basic_string"* %155 to %"struct.std::__1::basic_string<char, std::__1::char_traits<char>, std::__1::allocator<char> >::__short"*
  %157 = getelementptr inbounds %"struct.std::__1::basic_string<char, std::__1::char_traits<char>, std::__1::allocator<char> >::__short", %"struct.std::__1::basic_string<char, std::__1::char_traits<char>, std::__1::allocator<char> >::__short"* %156, i64 0, i32 1, i32 0
  %158 = load i8, i8* %157, align 1
  %159 = icmp slt i8 %158, 0
  br i1 %159, label %160, label %165

160:                                              ; preds = %152
  %161 = getelementptr inbounds %"class.std::__1::basic_string", %"class.std::__1::basic_string"* %155, i64 0, i32 0, i32 0, i32 0, i32 0, i32 0, i32 0
  %162 = load i8*, i8** %161, align 8
  %163 = getelementptr inbounds %"struct.google::protobuf::internal::InternalMetadata::Container", %"struct.google::protobuf::internal::InternalMetadata::Container"* %154, i64 0, i32 1, i32 0, i32 0, i32 0, i32 0, i32 0, i32 1
  %164 = load i64, i64* %163, align 8
  br label %168

165:                                              ; preds = %152
  %166 = bitcast %"class.std::__1::basic_string"* %155 to i8*
  %167 = zext i8 %158 to i64
  br label %168

168:                                              ; preds = %165, %160
  %169 = phi i8* [ %162, %160 ], [ %166, %165 ]
  %170 = phi i64 [ %164, %160 ], [ %167, %165 ]
  %171 = bitcast %"class.google::protobuf::io::EpsCopyOutputStream"* %2 to i64*
  %172 = load i64, i64* %171, align 8
  %173 = ptrtoint i8* %146 to i64
  %174 = sub i64 %172, %173
  %175 = shl i64 %170, 32
  %176 = ashr exact i64 %175, 32
  %177 = icmp slt i64 %174, %176
  br i1 %177, label %178, label %181, !prof !5

178:                                              ; preds = %168
  %179 = trunc i64 %170 to i32
  %180 = tail call i8* @_ZN6google8protobuf2io19EpsCopyOutputStream16WriteRawFallbackEPKviPh(%"class.google::protobuf::io::EpsCopyOutputStream"* %2, i8* %169, i32 %179, i8* %146) #17
  br label %267

181:                                              ; preds = %168
  tail call void @llvm.memcpy.p0i8.p0i8.i64(i8* align 1 %146, i8* align 1 %169, i64 %176, i1 false) #17
  %182 = getelementptr inbounds i8, i8* %146, i64 %176
  br label %267

183:                                              ; preds = %85
  %184 = getelementptr inbounds %"class.google::protobuf::io::EpsCopyOutputStream", %"class.google::protobuf::io::EpsCopyOutputStream"* %2, i64 0, i32 0
  %185 = load i8*, i8** %184, align 8
  %186 = icmp ugt i8* %185, %86
  br i1 %186, label %189, label %187, !prof !2

187:                                              ; preds = %183
  %188 = tail call i8* @_ZN6google8protobuf2io19EpsCopyOutputStream19EnsureSpaceFallbackEPh(%"class.google::protobuf::io::EpsCopyOutputStream"* %2, i8* %86) #17
  br label %189

189:                                              ; preds = %183, %187
  %190 = phi i8* [ %188, %187 ], [ %86, %183 ]
  %191 = getelementptr inbounds %"class.segmentation_platform::proto::Feature", %"class.segmentation_platform::proto::Feature"* %0, i64 0, i32 6
  %192 = bitcast %"union.segmentation_platform::proto::Feature::ValueUnion"* %191 to %"class.segmentation_platform::proto::HistogramValueFeature"**
  %193 = load %"class.segmentation_platform::proto::HistogramValueFeature"*, %"class.segmentation_platform::proto::HistogramValueFeature"** %192, align 8
  store i8 34, i8* %190, align 1
  %194 = getelementptr inbounds i8, i8* %190, i64 1
  %195 = getelementptr inbounds %"class.segmentation_platform::proto::HistogramValueFeature", %"class.segmentation_platform::proto::HistogramValueFeature"* %193, i64 0, i32 2, i32 0, i32 0, i32 0, i32 0, i32 0, i32 0
  %196 = load atomic i32, i32* %195 monotonic, align 4
  %197 = icmp ult i32 %196, 128
  %198 = trunc i32 %196 to i8
  br i1 %197, label %199, label %201

199:                                              ; preds = %189
  store i8 %198, i8* %194, align 1
  %200 = getelementptr inbounds i8, i8* %190, i64 2
  br label %222

201:                                              ; preds = %189
  %202 = or i8 %198, -128
  store i8 %202, i8* %194, align 1
  %203 = lshr i32 %196, 7
  %204 = icmp ult i32 %196, 16384
  br i1 %204, label %205, label %209

205:                                              ; preds = %201
  %206 = trunc i32 %203 to i8
  %207 = getelementptr inbounds i8, i8* %190, i64 2
  store i8 %206, i8* %207, align 1
  %208 = getelementptr inbounds i8, i8* %190, i64 3
  br label %222

209:                                              ; preds = %201
  %210 = getelementptr inbounds i8, i8* %190, i64 2
  br label %211

211:                                              ; preds = %211, %209
  %212 = phi i32 [ %203, %209 ], [ %216, %211 ]
  %213 = phi i8* [ %210, %209 ], [ %217, %211 ]
  %214 = trunc i32 %212 to i8
  %215 = or i8 %214, -128
  store i8 %215, i8* %213, align 1
  %216 = lshr i32 %212, 7
  %217 = getelementptr inbounds i8, i8* %213, i64 1
  %218 = icmp ugt i32 %212, 16383
  br i1 %218, label %211, label %219, !prof !5

219:                                              ; preds = %211
  %220 = trunc i32 %216 to i8
  %221 = getelementptr inbounds i8, i8* %213, i64 2
  store i8 %220, i8* %217, align 1
  br label %222

222:                                              ; preds = %199, %205, %219
  %223 = phi i8* [ %200, %199 ], [ %208, %205 ], [ %221, %219 ]
  %224 = tail call i8* @_ZNK21segmentation_platform5proto21HistogramValueFeature18_InternalSerializeEPhPN6google8protobuf2io19EpsCopyOutputStreamE(%"class.segmentation_platform::proto::HistogramValueFeature"* %193, i8* %223, %"class.google::protobuf::io::EpsCopyOutputStream"* %2) #17
  br label %267

225:                                              ; preds = %85
  %226 = getelementptr inbounds %"class.google::protobuf::io::EpsCopyOutputStream", %"class.google::protobuf::io::EpsCopyOutputStream"* %2, i64 0, i32 0
  %227 = load i8*, i8** %226, align 8
  %228 = icmp ugt i8* %227, %86
  br i1 %228, label %231, label %229, !prof !2

229:                                              ; preds = %225
  %230 = tail call i8* @_ZN6google8protobuf2io19EpsCopyOutputStream19EnsureSpaceFallbackEPh(%"class.google::protobuf::io::EpsCopyOutputStream"* %2, i8* %86) #17
  br label %231

231:                                              ; preds = %225, %229
  %232 = phi i8* [ %230, %229 ], [ %86, %225 ]
  %233 = getelementptr inbounds %"class.segmentation_platform::proto::Feature", %"class.segmentation_platform::proto::Feature"* %0, i64 0, i32 6
  %234 = bitcast %"union.segmentation_platform::proto::Feature::ValueUnion"* %233 to %"class.segmentation_platform::proto::HistogramEnumFeature"**
  %235 = load %"class.segmentation_platform::proto::HistogramEnumFeature"*, %"class.segmentation_platform::proto::HistogramEnumFeature"** %234, align 8
  store i8 42, i8* %232, align 1
  %236 = getelementptr inbounds i8, i8* %232, i64 1
  %237 = getelementptr inbounds %"class.segmentation_platform::proto::HistogramEnumFeature", %"class.segmentation_platform::proto::HistogramEnumFeature"* %235, i64 0, i32 2, i32 0, i32 0, i32 0, i32 0, i32 0, i32 0
  %238 = load atomic i32, i32* %237 monotonic, align 4
  %239 = icmp ult i32 %238, 128
  %240 = trunc i32 %238 to i8
  br i1 %239, label %241, label %243

241:                                              ; preds = %231
  store i8 %240, i8* %236, align 1
  %242 = getelementptr inbounds i8, i8* %232, i64 2
  br label %264

243:                                              ; preds = %231
  %244 = or i8 %240, -128
  store i8 %244, i8* %236, align 1
  %245 = lshr i32 %238, 7
  %246 = icmp ult i32 %238, 16384
  br i1 %246, label %247, label %251

247:                                              ; preds = %243
  %248 = trunc i32 %245 to i8
  %249 = getelementptr inbounds i8, i8* %232, i64 2
  store i8 %248, i8* %249, align 1
  %250 = getelementptr inbounds i8, i8* %232, i64 3
  br label %264

251:                                              ; preds = %243
  %252 = getelementptr inbounds i8, i8* %232, i64 2
  br label %253

253:                                              ; preds = %253, %251
  %254 = phi i32 [ %245, %251 ], [ %258, %253 ]
  %255 = phi i8* [ %252, %251 ], [ %259, %253 ]
  %256 = trunc i32 %254 to i8
  %257 = or i8 %256, -128
  store i8 %257, i8* %255, align 1
  %258 = lshr i32 %254, 7
  %259 = getelementptr inbounds i8, i8* %255, i64 1
  %260 = icmp ugt i32 %254, 16383
  br i1 %260, label %253, label %261, !prof !5

261:                                              ; preds = %253
  %262 = trunc i32 %258 to i8
  %263 = getelementptr inbounds i8, i8* %255, i64 2
  store i8 %262, i8* %259, align 1
  br label %264

264:                                              ; preds = %241, %247, %261
  %265 = phi i8* [ %242, %241 ], [ %250, %247 ], [ %263, %261 ]
  %266 = tail call i8* @_ZNK21segmentation_platform5proto20HistogramEnumFeature18_InternalSerializeEPhPN6google8protobuf2io19EpsCopyOutputStreamE(%"class.segmentation_platform::proto::HistogramEnumFeature"* %235, i8* %265, %"class.google::protobuf::io::EpsCopyOutputStream"* %2) #17
  br label %267

267:                                              ; preds = %181, %178, %145, %85, %264, %222
  %268 = phi i8* [ %86, %85 ], [ %266, %264 ], [ %224, %222 ], [ %146, %145 ], [ %180, %178 ], [ %182, %181 ]
  %269 = getelementptr inbounds %"class.segmentation_platform::proto::Feature", %"class.segmentation_platform::proto::Feature"* %0, i64 0, i32 0, i32 1
  %270 = bitcast %"class.google::protobuf::internal::InternalMetadata"* %269 to i64*
  %271 = load i64, i64* %270, align 8
  %272 = and i64 %271, 1
  %273 = icmp eq i64 %272, 0
  br i1 %273, label %305, label %274, !prof !2

274:                                              ; preds = %267
  %275 = and i64 %271, -2
  %276 = inttoptr i64 %275 to %"struct.google::protobuf::internal::InternalMetadata::Container"*
  %277 = getelementptr inbounds %"struct.google::protobuf::internal::InternalMetadata::Container", %"struct.google::protobuf::internal::InternalMetadata::Container"* %276, i64 0, i32 1
  %278 = bitcast %"class.std::__1::basic_string"* %277 to %"struct.std::__1::basic_string<char, std::__1::char_traits<char>, std::__1::allocator<char> >::__short"*
  %279 = getelementptr inbounds %"struct.std::__1::basic_string<char, std::__1::char_traits<char>, std::__1::allocator<char> >::__short", %"struct.std::__1::basic_string<char, std::__1::char_traits<char>, std::__1::allocator<char> >::__short"* %278, i64 0, i32 1, i32 0
  %280 = load i8, i8* %279, align 1
  %281 = icmp slt i8 %280, 0
  br i1 %281, label %282, label %287

282:                                              ; preds = %274
  %283 = getelementptr inbounds %"class.std::__1::basic_string", %"class.std::__1::basic_string"* %277, i64 0, i32 0, i32 0, i32 0, i32 0, i32 0, i32 0
  %284 = load i8*, i8** %283, align 8
  %285 = getelementptr inbounds %"struct.google::protobuf::internal::InternalMetadata::Container", %"struct.google::protobuf::internal::InternalMetadata::Container"* %276, i64 0, i32 1, i32 0, i32 0, i32 0, i32 0, i32 0, i32 1
  %286 = load i64, i64* %285, align 8
  br label %290

287:                                              ; preds = %274
  %288 = bitcast %"class.std::__1::basic_string"* %277 to i8*
  %289 = zext i8 %280 to i64
  br label %290

290:                                              ; preds = %282, %287
  %291 = phi i8* [ %284, %282 ], [ %288, %287 ]
  %292 = phi i64 [ %286, %282 ], [ %289, %287 ]
  %293 = bitcast %"class.google::protobuf::io::EpsCopyOutputStream"* %2 to i64*
  %294 = load i64, i64* %293, align 8
  %295 = ptrtoint i8* %268 to i64
  %296 = sub i64 %294, %295
  %297 = shl i64 %292, 32
  %298 = ashr exact i64 %297, 32
  %299 = icmp slt i64 %296, %298
  br i1 %299, label %300, label %303, !prof !5

300:                                              ; preds = %290
  %301 = trunc i64 %292 to i32
  %302 = tail call i8* @_ZN6google8protobuf2io19EpsCopyOutputStream16WriteRawFallbackEPKviPh(%"class.google::protobuf::io::EpsCopyOutputStream"* %2, i8* %291, i32 %301, i8* %268) #17
  br label %305

303:                                              ; preds = %290
  tail call void @llvm.memcpy.p0i8.p0i8.i64(i8* align 1 %268, i8* align 1 %291, i64 %298, i1 false) #17
  %304 = getelementptr inbounds i8, i8* %268, i64 %298
  br label %305

305:                                              ; preds = %267, %303, %300
  %306 = phi i8* [ %268, %267 ], [ %302, %300 ], [ %304, %303 ]
  ret i8* %306
}

; Function Attrs: nounwind ssp uwtable
define hidden i64 @_ZNK21segmentation_platform5proto7Feature12ByteSizeLongEv(%"class.segmentation_platform::proto::Feature"* nocapture) unnamed_addr #0 align 2 {
  %2 = getelementptr inbounds %"class.segmentation_platform::proto::Feature", %"class.segmentation_platform::proto::Feature"* %0, i64 0, i32 1, i32 0, i64 0
  %3 = load i32, i32* %2, align 4
  %4 = and i32 %3, 3
  %5 = icmp eq i32 %4, 0
  br i1 %5, label %39, label %6

6:                                                ; preds = %1
  %7 = and i32 %3, 1
  %8 = icmp eq i32 %7, 0
  br i1 %8, label %19, label %9

9:                                                ; preds = %6
  %10 = getelementptr inbounds %"class.segmentation_platform::proto::Feature", %"class.segmentation_platform::proto::Feature"* %0, i64 0, i32 3
  %11 = load i64, i64* %10, align 8
  %12 = or i64 %11, 1
  %13 = tail call i64 @llvm.ctlz.i64(i64 %12, i1 true) #17, !range !9
  %14 = xor i64 %13, 63
  %15 = mul nuw nsw i64 %14, 9
  %16 = add nuw nsw i64 %15, 73
  %17 = lshr i64 %16, 6
  %18 = add nuw nsw i64 %17, 1
  br label %19

19:                                               ; preds = %6, %9
  %20 = phi i64 [ %18, %9 ], [ 0, %6 ]
  %21 = and i32 %3, 2
  %22 = icmp eq i32 %21, 0
  br i1 %22, label %39, label %23

23:                                               ; preds = %19
  %24 = getelementptr inbounds %"class.segmentation_platform::proto::Feature", %"class.segmentation_platform::proto::Feature"* %0, i64 0, i32 4
  %25 = load i32, i32* %24, align 8
  %26 = icmp slt i32 %25, 0
  br i1 %26, label %35, label %27

27:                                               ; preds = %23
  %28 = or i32 %25, 1
  %29 = tail call i32 @llvm.ctlz.i32(i32 %28, i1 true) #17, !range !6
  %30 = xor i32 %29, 31
  %31 = mul nuw nsw i32 %30, 9
  %32 = add nuw nsw i32 %31, 73
  %33 = lshr i32 %32, 6
  %34 = zext i32 %33 to i64
  br label %35

35:                                               ; preds = %23, %27
  %36 = phi i64 [ %34, %27 ], [ 10, %23 ]
  %37 = add nuw nsw i64 %20, 1
  %38 = add nuw nsw i64 %37, %36
  br label %39

39:                                               ; preds = %19, %1, %35
  %40 = phi i64 [ %38, %35 ], [ %20, %19 ], [ 0, %1 ]
  %41 = getelementptr inbounds %"class.segmentation_platform::proto::Feature", %"class.segmentation_platform::proto::Feature"* %0, i64 0, i32 7, i64 0
  %42 = load i32, i32* %41, align 8
  switch i32 %42, label %243 [
    i32 3, label %43
    i32 4, label %86
    i32 5, label %161
  ]

43:                                               ; preds = %39
  %44 = getelementptr inbounds %"class.segmentation_platform::proto::Feature", %"class.segmentation_platform::proto::Feature"* %0, i64 0, i32 6, i32 0
  %45 = load %"class.segmentation_platform::proto::UserActionFeature"*, %"class.segmentation_platform::proto::UserActionFeature"** %44, align 8
  %46 = getelementptr inbounds %"class.segmentation_platform::proto::UserActionFeature", %"class.segmentation_platform::proto::UserActionFeature"* %45, i64 0, i32 1, i32 0, i64 0
  %47 = load i32, i32* %46, align 4
  %48 = and i32 %47, 1
  %49 = icmp eq i32 %48, 0
  %50 = select i1 %49, i64 0, i64 9
  %51 = getelementptr inbounds %"class.segmentation_platform::proto::UserActionFeature", %"class.segmentation_platform::proto::UserActionFeature"* %45, i64 0, i32 0, i32 1
  %52 = bitcast %"class.google::protobuf::internal::InternalMetadata"* %51 to i64*
  %53 = load i64, i64* %52, align 8
  %54 = and i64 %53, 1
  %55 = icmp eq i64 %54, 0
  br i1 %55, label %72, label %56, !prof !2

56:                                               ; preds = %43
  %57 = and i64 %53, -2
  %58 = inttoptr i64 %57 to %"struct.google::protobuf::internal::InternalMetadata::Container"*
  %59 = getelementptr inbounds %"struct.google::protobuf::internal::InternalMetadata::Container", %"struct.google::protobuf::internal::InternalMetadata::Container"* %58, i64 0, i32 1
  %60 = bitcast %"class.std::__1::basic_string"* %59 to %"struct.std::__1::basic_string<char, std::__1::char_traits<char>, std::__1::allocator<char> >::__short"*
  %61 = getelementptr inbounds %"struct.std::__1::basic_string<char, std::__1::char_traits<char>, std::__1::allocator<char> >::__short", %"struct.std::__1::basic_string<char, std::__1::char_traits<char>, std::__1::allocator<char> >::__short"* %60, i64 0, i32 1, i32 0
  %62 = load i8, i8* %61, align 1
  %63 = icmp slt i8 %62, 0
  br i1 %63, label %64, label %67

64:                                               ; preds = %56
  %65 = getelementptr inbounds %"struct.google::protobuf::internal::InternalMetadata::Container", %"struct.google::protobuf::internal::InternalMetadata::Container"* %58, i64 0, i32 1, i32 0, i32 0, i32 0, i32 0, i32 0, i32 1
  %66 = load i64, i64* %65, align 8
  br label %69

67:                                               ; preds = %56
  %68 = zext i8 %62 to i64
  br label %69

69:                                               ; preds = %67, %64
  %70 = phi i64 [ %66, %64 ], [ %68, %67 ]
  %71 = add i64 %70, %50
  br label %72

72:                                               ; preds = %43, %69
  %73 = phi i64 [ %71, %69 ], [ %50, %43 ]
  %74 = trunc i64 %73 to i32
  %75 = getelementptr inbounds %"class.segmentation_platform::proto::UserActionFeature", %"class.segmentation_platform::proto::UserActionFeature"* %45, i64 0, i32 2, i32 0, i32 0, i32 0, i32 0, i32 0, i32 0
  store atomic i32 %74, i32* %75 monotonic, align 4
  %76 = or i32 %74, 1
  %77 = tail call i32 @llvm.ctlz.i32(i32 %76, i1 true) #17, !range !6
  %78 = xor i32 %77, 31
  %79 = mul nuw nsw i32 %78, 9
  %80 = add nuw nsw i32 %79, 73
  %81 = lshr i32 %80, 6
  %82 = zext i32 %81 to i64
  %83 = add nuw nsw i64 %40, 1
  %84 = add i64 %83, %73
  %85 = add i64 %84, %82
  br label %243

86:                                               ; preds = %39
  %87 = getelementptr inbounds %"class.segmentation_platform::proto::Feature", %"class.segmentation_platform::proto::Feature"* %0, i64 0, i32 6
  %88 = bitcast %"union.segmentation_platform::proto::Feature::ValueUnion"* %87 to %"class.segmentation_platform::proto::HistogramValueFeature"**
  %89 = load %"class.segmentation_platform::proto::HistogramValueFeature"*, %"class.segmentation_platform::proto::HistogramValueFeature"** %88, align 8
  %90 = getelementptr inbounds %"class.segmentation_platform::proto::HistogramValueFeature", %"class.segmentation_platform::proto::HistogramValueFeature"* %89, i64 0, i32 1, i32 0, i64 0
  %91 = load i32, i32* %90, align 4
  %92 = and i32 %91, 3
  %93 = icmp eq i32 %92, 0
  br i1 %93, label %124, label %94

94:                                               ; preds = %86
  %95 = and i32 %91, 1
  %96 = icmp eq i32 %95, 0
  br i1 %96, label %118, label %97

97:                                               ; preds = %94
  %98 = getelementptr inbounds %"class.segmentation_platform::proto::HistogramValueFeature", %"class.segmentation_platform::proto::HistogramValueFeature"* %89, i64 0, i32 3, i32 0
  %99 = load %"class.std::__1::basic_string"*, %"class.std::__1::basic_string"** %98, align 8
  %100 = bitcast %"class.std::__1::basic_string"* %99 to %"struct.std::__1::basic_string<char, std::__1::char_traits<char>, std::__1::allocator<char> >::__short"*
  %101 = getelementptr inbounds %"struct.std::__1::basic_string<char, std::__1::char_traits<char>, std::__1::allocator<char> >::__short", %"struct.std::__1::basic_string<char, std::__1::char_traits<char>, std::__1::allocator<char> >::__short"* %100, i64 0, i32 1, i32 0
  %102 = load i8, i8* %101, align 1
  %103 = icmp slt i8 %102, 0
  %104 = getelementptr inbounds %"class.std::__1::basic_string", %"class.std::__1::basic_string"* %99, i64 0, i32 0, i32 0, i32 0, i32 0, i32 0, i32 1
  %105 = load i64, i64* %104, align 8
  %106 = zext i8 %102 to i64
  %107 = select i1 %103, i64 %105, i64 %106
  %108 = trunc i64 %107 to i32
  %109 = or i32 %108, 1
  %110 = tail call i32 @llvm.ctlz.i32(i32 %109, i1 true) #17, !range !6
  %111 = xor i32 %110, 31
  %112 = mul nuw nsw i32 %111, 9
  %113 = add nuw nsw i32 %112, 73
  %114 = lshr i32 %113, 6
  %115 = zext i32 %114 to i64
  %116 = add i64 %107, 1
  %117 = add i64 %116, %115
  br label %118

118:                                              ; preds = %97, %94
  %119 = phi i64 [ %117, %97 ], [ 0, %94 ]
  %120 = and i32 %91, 2
  %121 = icmp eq i32 %120, 0
  %122 = add i64 %119, 9
  %123 = select i1 %121, i64 %119, i64 %122
  br label %124

124:                                              ; preds = %118, %86
  %125 = phi i64 [ 0, %86 ], [ %123, %118 ]
  %126 = getelementptr inbounds %"class.segmentation_platform::proto::HistogramValueFeature", %"class.segmentation_platform::proto::HistogramValueFeature"* %89, i64 0, i32 0, i32 1
  %127 = bitcast %"class.google::protobuf::internal::InternalMetadata"* %126 to i64*
  %128 = load i64, i64* %127, align 8
  %129 = and i64 %128, 1
  %130 = icmp eq i64 %129, 0
  br i1 %130, label %147, label %131, !prof !2

131:                                              ; preds = %124
  %132 = and i64 %128, -2
  %133 = inttoptr i64 %132 to %"struct.google::protobuf::internal::InternalMetadata::Container"*
  %134 = getelementptr inbounds %"struct.google::protobuf::internal::InternalMetadata::Container", %"struct.google::protobuf::internal::InternalMetadata::Container"* %133, i64 0, i32 1
  %135 = bitcast %"class.std::__1::basic_string"* %134 to %"struct.std::__1::basic_string<char, std::__1::char_traits<char>, std::__1::allocator<char> >::__short"*
  %136 = getelementptr inbounds %"struct.std::__1::basic_string<char, std::__1::char_traits<char>, std::__1::allocator<char> >::__short", %"struct.std::__1::basic_string<char, std::__1::char_traits<char>, std::__1::allocator<char> >::__short"* %135, i64 0, i32 1, i32 0
  %137 = load i8, i8* %136, align 1
  %138 = icmp slt i8 %137, 0
  br i1 %138, label %139, label %142

139:                                              ; preds = %131
  %140 = getelementptr inbounds %"struct.google::protobuf::internal::InternalMetadata::Container", %"struct.google::protobuf::internal::InternalMetadata::Container"* %133, i64 0, i32 1, i32 0, i32 0, i32 0, i32 0, i32 0, i32 1
  %141 = load i64, i64* %140, align 8
  br label %144

142:                                              ; preds = %131
  %143 = zext i8 %137 to i64
  br label %144

144:                                              ; preds = %142, %139
  %145 = phi i64 [ %141, %139 ], [ %143, %142 ]
  %146 = add i64 %145, %125
  br label %147

147:                                              ; preds = %124, %144
  %148 = phi i64 [ %146, %144 ], [ %125, %124 ]
  %149 = trunc i64 %148 to i32
  %150 = getelementptr inbounds %"class.segmentation_platform::proto::HistogramValueFeature", %"class.segmentation_platform::proto::HistogramValueFeature"* %89, i64 0, i32 2, i32 0, i32 0, i32 0, i32 0, i32 0, i32 0
  store atomic i32 %149, i32* %150 monotonic, align 4
  %151 = or i32 %149, 1
  %152 = tail call i32 @llvm.ctlz.i32(i32 %151, i1 true) #17, !range !6
  %153 = xor i32 %152, 31
  %154 = mul nuw nsw i32 %153, 9
  %155 = add nuw nsw i32 %154, 73
  %156 = lshr i32 %155, 6
  %157 = zext i32 %156 to i64
  %158 = add nuw nsw i64 %40, 1
  %159 = add i64 %158, %148
  %160 = add i64 %159, %157
  br label %243

161:                                              ; preds = %39
  %162 = getelementptr inbounds %"class.segmentation_platform::proto::Feature", %"class.segmentation_platform::proto::Feature"* %0, i64 0, i32 6
  %163 = bitcast %"union.segmentation_platform::proto::Feature::ValueUnion"* %162 to %"class.segmentation_platform::proto::HistogramEnumFeature"**
  %164 = load %"class.segmentation_platform::proto::HistogramEnumFeature"*, %"class.segmentation_platform::proto::HistogramEnumFeature"** %163, align 8
  %165 = getelementptr inbounds %"class.segmentation_platform::proto::HistogramEnumFeature", %"class.segmentation_platform::proto::HistogramEnumFeature"* %164, i64 0, i32 3
  %166 = tail call i64 @_ZN6google8protobuf8internal14WireFormatLite9Int32SizeERKNS0_13RepeatedFieldIiEE(%"class.google::protobuf::RepeatedField"* dereferenceable(16) %165) #17
  %167 = getelementptr inbounds %"class.segmentation_platform::proto::HistogramEnumFeature", %"class.segmentation_platform::proto::HistogramEnumFeature"* %164, i64 0, i32 3, i32 0
  %168 = load i32, i32* %167, align 8
  %169 = zext i32 %168 to i64
  %170 = add i64 %166, %169
  %171 = getelementptr inbounds %"class.segmentation_platform::proto::HistogramEnumFeature", %"class.segmentation_platform::proto::HistogramEnumFeature"* %164, i64 0, i32 1, i32 0, i64 0
  %172 = load i32, i32* %171, align 4
  %173 = and i32 %172, 3
  %174 = icmp eq i32 %173, 0
  br i1 %174, label %206, label %175

175:                                              ; preds = %161
  %176 = and i32 %172, 1
  %177 = icmp eq i32 %176, 0
  br i1 %177, label %200, label %178

178:                                              ; preds = %175
  %179 = getelementptr inbounds %"class.segmentation_platform::proto::HistogramEnumFeature", %"class.segmentation_platform::proto::HistogramEnumFeature"* %164, i64 0, i32 4, i32 0
  %180 = load %"class.std::__1::basic_string"*, %"class.std::__1::basic_string"** %179, align 8
  %181 = bitcast %"class.std::__1::basic_string"* %180 to %"struct.std::__1::basic_string<char, std::__1::char_traits<char>, std::__1::allocator<char> >::__short"*
  %182 = getelementptr inbounds %"struct.std::__1::basic_string<char, std::__1::char_traits<char>, std::__1::allocator<char> >::__short", %"struct.std::__1::basic_string<char, std::__1::char_traits<char>, std::__1::allocator<char> >::__short"* %181, i64 0, i32 1, i32 0
  %183 = load i8, i8* %182, align 1
  %184 = icmp slt i8 %183, 0
  %185 = getelementptr inbounds %"class.std::__1::basic_string", %"class.std::__1::basic_string"* %180, i64 0, i32 0, i32 0, i32 0, i32 0, i32 0, i32 1
  %186 = load i64, i64* %185, align 8
  %187 = zext i8 %183 to i64
  %188 = select i1 %184, i64 %186, i64 %187
  %189 = trunc i64 %188 to i32
  %190 = or i32 %189, 1
  %191 = tail call i32 @llvm.ctlz.i32(i32 %190, i1 true) #17, !range !6
  %192 = xor i32 %191, 31
  %193 = mul nuw nsw i32 %192, 9
  %194 = add nuw nsw i32 %193, 73
  %195 = lshr i32 %194, 6
  %196 = zext i32 %195 to i64
  %197 = add i64 %170, 1
  %198 = add i64 %197, %188
  %199 = add i64 %198, %196
  br label %200

200:                                              ; preds = %178, %175
  %201 = phi i64 [ %199, %178 ], [ %170, %175 ]
  %202 = and i32 %172, 2
  %203 = icmp eq i32 %202, 0
  %204 = add i64 %201, 9
  %205 = select i1 %203, i64 %201, i64 %204
  br label %206

206:                                              ; preds = %200, %161
  %207 = phi i64 [ %170, %161 ], [ %205, %200 ]
  %208 = getelementptr inbounds %"class.segmentation_platform::proto::HistogramEnumFeature", %"class.segmentation_platform::proto::HistogramEnumFeature"* %164, i64 0, i32 0, i32 1
  %209 = bitcast %"class.google::protobuf::internal::InternalMetadata"* %208 to i64*
  %210 = load i64, i64* %209, align 8
  %211 = and i64 %210, 1
  %212 = icmp eq i64 %211, 0
  br i1 %212, label %229, label %213, !prof !2

213:                                              ; preds = %206
  %214 = and i64 %210, -2
  %215 = inttoptr i64 %214 to %"struct.google::protobuf::internal::InternalMetadata::Container"*
  %216 = getelementptr inbounds %"struct.google::protobuf::internal::InternalMetadata::Container", %"struct.google::protobuf::internal::InternalMetadata::Container"* %215, i64 0, i32 1
  %217 = bitcast %"class.std::__1::basic_string"* %216 to %"struct.std::__1::basic_string<char, std::__1::char_traits<char>, std::__1::allocator<char> >::__short"*
  %218 = getelementptr inbounds %"struct.std::__1::basic_string<char, std::__1::char_traits<char>, std::__1::allocator<char> >::__short", %"struct.std::__1::basic_string<char, std::__1::char_traits<char>, std::__1::allocator<char> >::__short"* %217, i64 0, i32 1, i32 0
  %219 = load i8, i8* %218, align 1
  %220 = icmp slt i8 %219, 0
  br i1 %220, label %221, label %224

221:                                              ; preds = %213
  %222 = getelementptr inbounds %"struct.google::protobuf::internal::InternalMetadata::Container", %"struct.google::protobuf::internal::InternalMetadata::Container"* %215, i64 0, i32 1, i32 0, i32 0, i32 0, i32 0, i32 0, i32 1
  %223 = load i64, i64* %222, align 8
  br label %226

224:                                              ; preds = %213
  %225 = zext i8 %219 to i64
  br label %226

226:                                              ; preds = %224, %221
  %227 = phi i64 [ %223, %221 ], [ %225, %224 ]
  %228 = add i64 %227, %207
  br label %229

229:                                              ; preds = %206, %226
  %230 = phi i64 [ %228, %226 ], [ %207, %206 ]
  %231 = trunc i64 %230 to i32
  %232 = getelementptr inbounds %"class.segmentation_platform::proto::HistogramEnumFeature", %"class.segmentation_platform::proto::HistogramEnumFeature"* %164, i64 0, i32 2, i32 0, i32 0, i32 0, i32 0, i32 0, i32 0
  store atomic i32 %231, i32* %232 monotonic, align 4
  %233 = or i32 %231, 1
  %234 = tail call i32 @llvm.ctlz.i32(i32 %233, i1 true) #17, !range !6
  %235 = xor i32 %234, 31
  %236 = mul nuw nsw i32 %235, 9
  %237 = add nuw nsw i32 %236, 73
  %238 = lshr i32 %237, 6
  %239 = zext i32 %238 to i64
  %240 = add nuw nsw i64 %40, 1
  %241 = add i64 %240, %230
  %242 = add i64 %241, %239
  br label %243

243:                                              ; preds = %39, %229, %147, %72
  %244 = phi i64 [ %40, %39 ], [ %242, %229 ], [ %160, %147 ], [ %85, %72 ]
  %245 = getelementptr inbounds %"class.segmentation_platform::proto::Feature", %"class.segmentation_platform::proto::Feature"* %0, i64 0, i32 0, i32 1
  %246 = bitcast %"class.google::protobuf::internal::InternalMetadata"* %245 to i64*
  %247 = load i64, i64* %246, align 8
  %248 = and i64 %247, 1
  %249 = icmp eq i64 %248, 0
  br i1 %249, label %266, label %250, !prof !2

250:                                              ; preds = %243
  %251 = and i64 %247, -2
  %252 = inttoptr i64 %251 to %"struct.google::protobuf::internal::InternalMetadata::Container"*
  %253 = getelementptr inbounds %"struct.google::protobuf::internal::InternalMetadata::Container", %"struct.google::protobuf::internal::InternalMetadata::Container"* %252, i64 0, i32 1
  %254 = bitcast %"class.std::__1::basic_string"* %253 to %"struct.std::__1::basic_string<char, std::__1::char_traits<char>, std::__1::allocator<char> >::__short"*
  %255 = getelementptr inbounds %"struct.std::__1::basic_string<char, std::__1::char_traits<char>, std::__1::allocator<char> >::__short", %"struct.std::__1::basic_string<char, std::__1::char_traits<char>, std::__1::allocator<char> >::__short"* %254, i64 0, i32 1, i32 0
  %256 = load i8, i8* %255, align 1
  %257 = icmp slt i8 %256, 0
  br i1 %257, label %258, label %261

258:                                              ; preds = %250
  %259 = getelementptr inbounds %"struct.google::protobuf::internal::InternalMetadata::Container", %"struct.google::protobuf::internal::InternalMetadata::Container"* %252, i64 0, i32 1, i32 0, i32 0, i32 0, i32 0, i32 0, i32 1
  %260 = load i64, i64* %259, align 8
  br label %263

261:                                              ; preds = %250
  %262 = zext i8 %256 to i64
  br label %263

263:                                              ; preds = %258, %261
  %264 = phi i64 [ %260, %258 ], [ %262, %261 ]
  %265 = add i64 %264, %244
  br label %266

266:                                              ; preds = %243, %263
  %267 = phi i64 [ %265, %263 ], [ %244, %243 ]
  %268 = trunc i64 %267 to i32
  %269 = getelementptr inbounds %"class.segmentation_platform::proto::Feature", %"class.segmentation_platform::proto::Feature"* %0, i64 0, i32 2, i32 0, i32 0, i32 0, i32 0, i32 0, i32 0
  store atomic i32 %268, i32* %269 monotonic, align 4
  ret i64 %267
}

; Function Attrs: nounwind ssp uwtable
define hidden void @_ZN21segmentation_platform5proto7Feature21CheckTypeAndMergeFromERKN6google8protobuf11MessageLiteE(%"class.segmentation_platform::proto::Feature"*, %"class.google::protobuf::MessageLite"* nocapture readonly dereferenceable(16)) unnamed_addr #0 align 2 {
  %3 = bitcast %"class.google::protobuf::MessageLite"* %1 to %"class.segmentation_platform::proto::Feature"*
  tail call void @_ZN21segmentation_platform5proto7Feature9MergeFromERKS1_(%"class.segmentation_platform::proto::Feature"* %0, %"class.segmentation_platform::proto::Feature"* dereferenceable(56) %3)
  ret void
}

; Function Attrs: nounwind ssp uwtable
define hidden void @_ZN21segmentation_platform5proto7Feature9MergeFromERKS1_(%"class.segmentation_platform::proto::Feature"*, %"class.segmentation_platform::proto::Feature"* nocapture readonly dereferenceable(56)) local_unnamed_addr #0 align 2 {
  %3 = getelementptr inbounds %"class.segmentation_platform::proto::Feature", %"class.segmentation_platform::proto::Feature"* %0, i64 0, i32 0, i32 1
  %4 = getelementptr inbounds %"class.segmentation_platform::proto::Feature", %"class.segmentation_platform::proto::Feature"* %1, i64 0, i32 0, i32 1
  %5 = bitcast %"class.google::protobuf::internal::InternalMetadata"* %4 to i64*
  %6 = load i64, i64* %5, align 8
  %7 = and i64 %6, 1
  %8 = icmp eq i64 %7, 0
  br i1 %8, label %38, label %9

9:                                                ; preds = %2
  %10 = and i64 %6, -2
  %11 = inttoptr i64 %10 to %"struct.google::protobuf::internal::InternalMetadata::Container"*
  %12 = getelementptr inbounds %"struct.google::protobuf::internal::InternalMetadata::Container", %"struct.google::protobuf::internal::InternalMetadata::Container"* %11, i64 0, i32 1
  %13 = bitcast %"class.google::protobuf::internal::InternalMetadata"* %3 to i64*
  %14 = load i64, i64* %13, align 8
  %15 = and i64 %14, 1
  %16 = icmp eq i64 %15, 0
  br i1 %16, label %21, label %17, !prof !5

17:                                               ; preds = %9
  %18 = and i64 %14, -2
  %19 = inttoptr i64 %18 to %"struct.google::protobuf::internal::InternalMetadata::Container"*
  %20 = getelementptr inbounds %"struct.google::protobuf::internal::InternalMetadata::Container", %"struct.google::protobuf::internal::InternalMetadata::Container"* %19, i64 0, i32 1
  br label %23

21:                                               ; preds = %9
  %22 = tail call %"class.std::__1::basic_string"* @_ZN6google8protobuf8internal16InternalMetadata27mutable_unknown_fields_slowINSt3__112basic_stringIcNS4_11char_traitsIcEENS4_9allocatorIcEEEEEEPT_v(%"class.google::protobuf::internal::InternalMetadata"* %3) #17
  br label %23

23:                                               ; preds = %21, %17
  %24 = phi %"class.std::__1::basic_string"* [ %20, %17 ], [ %22, %21 ]
  %25 = bitcast %"class.std::__1::basic_string"* %12 to %"struct.std::__1::basic_string<char, std::__1::char_traits<char>, std::__1::allocator<char> >::__short"*
  %26 = getelementptr inbounds %"struct.std::__1::basic_string<char, std::__1::char_traits<char>, std::__1::allocator<char> >::__short", %"struct.std::__1::basic_string<char, std::__1::char_traits<char>, std::__1::allocator<char> >::__short"* %25, i64 0, i32 1, i32 0
  %27 = load i8, i8* %26, align 1
  %28 = icmp slt i8 %27, 0
  %29 = getelementptr inbounds %"class.std::__1::basic_string", %"class.std::__1::basic_string"* %12, i64 0, i32 0, i32 0, i32 0, i32 0, i32 0, i32 0
  %30 = load i8*, i8** %29, align 8
  %31 = getelementptr inbounds %"struct.google::protobuf::internal::InternalMetadata::Container", %"struct.google::protobuf::internal::InternalMetadata::Container"* %11, i64 0, i32 1, i32 0, i32 0, i32 0, i32 0, i32 0, i32 1
  %32 = load i64, i64* %31, align 8
  %33 = bitcast %"class.std::__1::basic_string"* %12 to i8*
  %34 = zext i8 %27 to i64
  %35 = select i1 %28, i8* %30, i8* %33
  %36 = select i1 %28, i64 %32, i64 %34
  %37 = tail call dereferenceable(24) %"class.std::__1::basic_string"* @_ZNSt3__112basic_stringIcNS_11char_traitsIcEENS_9allocatorIcEEE6appendEPKcm(%"class.std::__1::basic_string"* %24, i8* %35, i64 %36) #17
  br label %38

38:                                               ; preds = %2, %23
  %39 = getelementptr inbounds %"class.segmentation_platform::proto::Feature", %"class.segmentation_platform::proto::Feature"* %1, i64 0, i32 1, i32 0, i64 0
  %40 = load i32, i32* %39, align 4
  %41 = and i32 %40, 3
  %42 = icmp eq i32 %41, 0
  br i1 %42, label %61, label %43

43:                                               ; preds = %38
  %44 = and i32 %40, 1
  %45 = icmp eq i32 %44, 0
  br i1 %45, label %50, label %46

46:                                               ; preds = %43
  %47 = getelementptr inbounds %"class.segmentation_platform::proto::Feature", %"class.segmentation_platform::proto::Feature"* %1, i64 0, i32 3
  %48 = load i64, i64* %47, align 8
  %49 = getelementptr inbounds %"class.segmentation_platform::proto::Feature", %"class.segmentation_platform::proto::Feature"* %0, i64 0, i32 3
  store i64 %48, i64* %49, align 8
  br label %50

50:                                               ; preds = %43, %46
  %51 = and i32 %40, 2
  %52 = icmp eq i32 %51, 0
  br i1 %52, label %57, label %53

53:                                               ; preds = %50
  %54 = getelementptr inbounds %"class.segmentation_platform::proto::Feature", %"class.segmentation_platform::proto::Feature"* %1, i64 0, i32 4
  %55 = load i32, i32* %54, align 8
  %56 = getelementptr inbounds %"class.segmentation_platform::proto::Feature", %"class.segmentation_platform::proto::Feature"* %0, i64 0, i32 4
  store i32 %55, i32* %56, align 8
  br label %57

57:                                               ; preds = %50, %53
  %58 = getelementptr inbounds %"class.segmentation_platform::proto::Feature", %"class.segmentation_platform::proto::Feature"* %0, i64 0, i32 1, i32 0, i64 0
  %59 = load i32, i32* %58, align 4
  %60 = or i32 %59, %40
  store i32 %60, i32* %58, align 4
  br label %61

61:                                               ; preds = %38, %57
  %62 = getelementptr inbounds %"class.segmentation_platform::proto::Feature", %"class.segmentation_platform::proto::Feature"* %1, i64 0, i32 7, i64 0
  %63 = load i32, i32* %62, align 8
  switch i32 %63, label %213 [
    i32 3, label %64
    i32 4, label %143
    i32 5, label %178
  ]

64:                                               ; preds = %61
  %65 = getelementptr inbounds %"class.segmentation_platform::proto::Feature", %"class.segmentation_platform::proto::Feature"* %0, i64 0, i32 7, i64 0
  %66 = load i32, i32* %65, align 8
  %67 = icmp eq i32 %66, 3
  br i1 %67, label %68, label %71

68:                                               ; preds = %64
  %69 = getelementptr inbounds %"class.segmentation_platform::proto::Feature", %"class.segmentation_platform::proto::Feature"* %0, i64 0, i32 6, i32 0
  %70 = load %"class.segmentation_platform::proto::UserActionFeature"*, %"class.segmentation_platform::proto::UserActionFeature"** %69, align 8
  br label %89

71:                                               ; preds = %64
  tail call void @_ZN21segmentation_platform5proto7Feature11clear_valueEv(%"class.segmentation_platform::proto::Feature"* %0) #17
  store i32 3, i32* %65, align 8
  %72 = bitcast %"class.google::protobuf::internal::InternalMetadata"* %3 to i64*
  %73 = load i64, i64* %72, align 8
  %74 = and i64 %73, 1
  %75 = icmp eq i64 %74, 0
  %76 = and i64 %73, -2
  br i1 %75, label %81, label %77, !prof !2

77:                                               ; preds = %71
  %78 = inttoptr i64 %76 to %"struct.google::protobuf::internal::InternalMetadata::ContainerBase"*
  %79 = getelementptr inbounds %"struct.google::protobuf::internal::InternalMetadata::ContainerBase", %"struct.google::protobuf::internal::InternalMetadata::ContainerBase"* %78, i64 0, i32 0
  %80 = load %"class.google::protobuf::Arena"*, %"class.google::protobuf::Arena"** %79, align 8
  br label %83

81:                                               ; preds = %71
  %82 = inttoptr i64 %76 to %"class.google::protobuf::Arena"*
  br label %83

83:                                               ; preds = %77, %81
  %84 = phi %"class.google::protobuf::Arena"* [ %80, %77 ], [ %82, %81 ]
  %85 = tail call %"class.segmentation_platform::proto::UserActionFeature"* @_ZN6google8protobuf5Arena18CreateMaybeMessageIN21segmentation_platform5proto17UserActionFeatureEJEEEPT_PS1_DpOT0_(%"class.google::protobuf::Arena"* %84) #17
  %86 = getelementptr inbounds %"class.segmentation_platform::proto::Feature", %"class.segmentation_platform::proto::Feature"* %0, i64 0, i32 6, i32 0
  store %"class.segmentation_platform::proto::UserActionFeature"* %85, %"class.segmentation_platform::proto::UserActionFeature"** %86, align 8
  %87 = load i32, i32* %62, align 8
  %88 = icmp eq i32 %87, 3
  br i1 %88, label %89, label %93

89:                                               ; preds = %68, %83
  %90 = phi %"class.segmentation_platform::proto::UserActionFeature"* [ %70, %68 ], [ %85, %83 ]
  %91 = getelementptr inbounds %"class.segmentation_platform::proto::Feature", %"class.segmentation_platform::proto::Feature"* %1, i64 0, i32 6, i32 0
  %92 = load %"class.segmentation_platform::proto::UserActionFeature"*, %"class.segmentation_platform::proto::UserActionFeature"** %91, align 8
  br label %93

93:                                               ; preds = %83, %89
  %94 = phi %"class.segmentation_platform::proto::UserActionFeature"* [ %90, %89 ], [ %85, %83 ]
  %95 = phi %"class.segmentation_platform::proto::UserActionFeature"* [ %92, %89 ], [ bitcast (%"class.segmentation_platform::proto::UserActionFeatureDefaultTypeInternal"* @_ZN21segmentation_platform5proto36_UserActionFeature_default_instance_E to %"class.segmentation_platform::proto::UserActionFeature"*), %83 ]
  %96 = getelementptr inbounds %"class.segmentation_platform::proto::UserActionFeature", %"class.segmentation_platform::proto::UserActionFeature"* %94, i64 0, i32 0, i32 1
  %97 = getelementptr inbounds %"class.segmentation_platform::proto::UserActionFeature", %"class.segmentation_platform::proto::UserActionFeature"* %95, i64 0, i32 0, i32 1
  %98 = bitcast %"class.google::protobuf::internal::InternalMetadata"* %97 to i64*
  %99 = load i64, i64* %98, align 8
  %100 = and i64 %99, 1
  %101 = icmp eq i64 %100, 0
  br i1 %101, label %131, label %102

102:                                              ; preds = %93
  %103 = and i64 %99, -2
  %104 = inttoptr i64 %103 to %"struct.google::protobuf::internal::InternalMetadata::Container"*
  %105 = getelementptr inbounds %"struct.google::protobuf::internal::InternalMetadata::Container", %"struct.google::protobuf::internal::InternalMetadata::Container"* %104, i64 0, i32 1
  %106 = bitcast %"class.google::protobuf::internal::InternalMetadata"* %96 to i64*
  %107 = load i64, i64* %106, align 8
  %108 = and i64 %107, 1
  %109 = icmp eq i64 %108, 0
  br i1 %109, label %114, label %110, !prof !5

110:                                              ; preds = %102
  %111 = and i64 %107, -2
  %112 = inttoptr i64 %111 to %"struct.google::protobuf::internal::InternalMetadata::Container"*
  %113 = getelementptr inbounds %"struct.google::protobuf::internal::InternalMetadata::Container", %"struct.google::protobuf::internal::InternalMetadata::Container"* %112, i64 0, i32 1
  br label %116

114:                                              ; preds = %102
  %115 = tail call %"class.std::__1::basic_string"* @_ZN6google8protobuf8internal16InternalMetadata27mutable_unknown_fields_slowINSt3__112basic_stringIcNS4_11char_traitsIcEENS4_9allocatorIcEEEEEEPT_v(%"class.google::protobuf::internal::InternalMetadata"* %96) #17
  br label %116

116:                                              ; preds = %114, %110
  %117 = phi %"class.std::__1::basic_string"* [ %113, %110 ], [ %115, %114 ]
  %118 = bitcast %"class.std::__1::basic_string"* %105 to %"struct.std::__1::basic_string<char, std::__1::char_traits<char>, std::__1::allocator<char> >::__short"*
  %119 = getelementptr inbounds %"struct.std::__1::basic_string<char, std::__1::char_traits<char>, std::__1::allocator<char> >::__short", %"struct.std::__1::basic_string<char, std::__1::char_traits<char>, std::__1::allocator<char> >::__short"* %118, i64 0, i32 1, i32 0
  %120 = load i8, i8* %119, align 1
  %121 = icmp slt i8 %120, 0
  %122 = getelementptr inbounds %"class.std::__1::basic_string", %"class.std::__1::basic_string"* %105, i64 0, i32 0, i32 0, i32 0, i32 0, i32 0, i32 0
  %123 = load i8*, i8** %122, align 8
  %124 = getelementptr inbounds %"struct.google::protobuf::internal::InternalMetadata::Container", %"struct.google::protobuf::internal::InternalMetadata::Container"* %104, i64 0, i32 1, i32 0, i32 0, i32 0, i32 0, i32 0, i32 1
  %125 = load i64, i64* %124, align 8
  %126 = bitcast %"class.std::__1::basic_string"* %105 to i8*
  %127 = zext i8 %120 to i64
  %128 = select i1 %121, i8* %123, i8* %126
  %129 = select i1 %121, i64 %125, i64 %127
  %130 = tail call dereferenceable(24) %"class.std::__1::basic_string"* @_ZNSt3__112basic_stringIcNS_11char_traitsIcEENS_9allocatorIcEEE6appendEPKcm(%"class.std::__1::basic_string"* %117, i8* %128, i64 %129) #17
  br label %131

131:                                              ; preds = %116, %93
  %132 = getelementptr inbounds %"class.segmentation_platform::proto::UserActionFeature", %"class.segmentation_platform::proto::UserActionFeature"* %95, i64 0, i32 1, i32 0, i64 0
  %133 = load i32, i32* %132, align 4
  %134 = and i32 %133, 1
  %135 = icmp eq i32 %134, 0
  br i1 %135, label %213, label %136

136:                                              ; preds = %131
  %137 = getelementptr inbounds %"class.segmentation_platform::proto::UserActionFeature", %"class.segmentation_platform::proto::UserActionFeature"* %95, i64 0, i32 3
  %138 = load i64, i64* %137, align 8
  %139 = getelementptr inbounds %"class.segmentation_platform::proto::UserActionFeature", %"class.segmentation_platform::proto::UserActionFeature"* %94, i64 0, i32 1, i32 0, i64 0
  %140 = load i32, i32* %139, align 4
  %141 = or i32 %140, 1
  store i32 %141, i32* %139, align 4
  %142 = getelementptr inbounds %"class.segmentation_platform::proto::UserActionFeature", %"class.segmentation_platform::proto::UserActionFeature"* %94, i64 0, i32 3
  store i64 %138, i64* %142, align 8
  br label %213

143:                                              ; preds = %61
  %144 = getelementptr inbounds %"class.segmentation_platform::proto::Feature", %"class.segmentation_platform::proto::Feature"* %0, i64 0, i32 7, i64 0
  %145 = load i32, i32* %144, align 8
  %146 = icmp eq i32 %145, 4
  br i1 %146, label %147, label %151

147:                                              ; preds = %143
  %148 = getelementptr inbounds %"class.segmentation_platform::proto::Feature", %"class.segmentation_platform::proto::Feature"* %0, i64 0, i32 6
  %149 = bitcast %"union.segmentation_platform::proto::Feature::ValueUnion"* %148 to %"class.segmentation_platform::proto::HistogramValueFeature"**
  %150 = load %"class.segmentation_platform::proto::HistogramValueFeature"*, %"class.segmentation_platform::proto::HistogramValueFeature"** %149, align 8
  br label %170

151:                                              ; preds = %143
