; ModuleID = '../../components/sync/engine/model_type_connector_proxy.cc'
source_filename = "../../components/sync/engine/model_type_connector_proxy.cc"
target datalayout = "e-m:e-i64:64-f80:128-n8:16:32:64-S128"
target triple = "x86_64-unknown-linux-gnu"

module asm ".symver exp, exp@GLIBC_2.2.5"
module asm ".symver exp2, exp2@GLIBC_2.2.5"
module asm ".symver exp2f, exp2f@GLIBC_2.2.5"
module asm ".symver expf, expf@GLIBC_2.2.5"
module asm ".symver lgamma, lgamma@GLIBC_2.2.5"
module asm ".symver lgammaf, lgammaf@GLIBC_2.2.5"
module asm ".symver lgammal, lgammal@GLIBC_2.2.5"
module asm ".symver log, log@GLIBC_2.2.5"
module asm ".symver log2, log2@GLIBC_2.2.5"
module asm ".symver log2f, log2f@GLIBC_2.2.5"
module asm ".symver logf, logf@GLIBC_2.2.5"
module asm ".symver pow, pow@GLIBC_2.2.5"
module asm ".symver powf, powf@GLIBC_2.2.5"

%"class.syncer::ModelTypeConnectorProxy" = type { %"class.syncer::ModelTypeConnector", %class.scoped_refptr, %"class.base::WeakPtr" }
%"class.syncer::ModelTypeConnector" = type { i32 (...)** }
%class.scoped_refptr = type { %"class.base::SequencedTaskRunner"* }
%"class.base::SequencedTaskRunner" = type { %"class.base::TaskRunner.base", [4 x i8] }
%"class.base::TaskRunner.base" = type <{ i32 (...)**, %"class.base::RefCountedThreadSafe" }>
%"class.base::RefCountedThreadSafe" = type { %"class.base::subtle::RefCountedThreadSafeBase" }
%"class.base::subtle::RefCountedThreadSafeBase" = type { %"class.base::AtomicRefCount" }
%"class.base::AtomicRefCount" = type { %"struct.std::__1::atomic" }
%"struct.std::__1::atomic" = type { %"struct.std::__1::__atomic_base" }
%"struct.std::__1::__atomic_base" = type { %"struct.std::__1::__atomic_base.0" }
%"struct.std::__1::__atomic_base.0" = type { %"struct.std::__1::__cxx_atomic_impl" }
%"struct.std::__1::__cxx_atomic_impl" = type { %"struct.std::__1::__cxx_atomic_base_impl" }
%"struct.std::__1::__cxx_atomic_base_impl" = type { i32 }
%"class.base::WeakPtr" = type { %"class.base::internal::WeakPtrBase" }
%"class.base::internal::WeakPtrBase" = type { %"class.base::internal::WeakReference", i64 }
%"class.base::internal::WeakReference" = type { %class.scoped_refptr.1 }
%class.scoped_refptr.1 = type { %"class.base::internal::WeakReference::Flag"* }
%"class.base::internal::WeakReference::Flag" = type <{ %"class.base::RefCountedThreadSafe.2", %"class.base::AtomicFlag", [3 x i8] }>
%"class.base::RefCountedThreadSafe.2" = type { %"class.base::subtle::RefCountedThreadSafeBase" }
%"class.base::AtomicFlag" = type { %"struct.std::__1::atomic.3" }
%"struct.std::__1::atomic.3" = type { %"struct.std::__1::__atomic_base.4" }
%"struct.std::__1::__atomic_base.4" = type { %"struct.std::__1::__atomic_base.5" }
%"struct.std::__1::__atomic_base.5" = type { %"struct.std::__1::__cxx_atomic_impl.6" }
%"struct.std::__1::__cxx_atomic_impl.6" = type { %"struct.std::__1::__cxx_atomic_base_impl.7" }
%"struct.std::__1::__cxx_atomic_base_impl.7" = type { i8 }
%"class.base::TaskRunner" = type <{ i32 (...)**, %"class.base::RefCountedThreadSafe", [4 x i8] }>
%"struct.syncer::DataTypeActivationResponse" = type { %"class.sync_pb::ModelTypeState", %"class.std::__1::unique_ptr.20" }
%"class.sync_pb::ModelTypeState" = type <{ %"class.google::protobuf::MessageLite", %"class.google::protobuf::internal::HasBits", %"class.google::protobuf::internal::CachedSize", %"struct.google::protobuf::internal::ArenaStringPtr", %"struct.google::protobuf::internal::ArenaStringPtr", %"struct.google::protobuf::internal::ArenaStringPtr", %"class.sync_pb::DataTypeProgressMarker"*, %"class.sync_pb::DataTypeContext"*, i8, [7 x i8] }>
%"class.google::protobuf::MessageLite" = type { i32 (...)**, %"class.google::protobuf::internal::InternalMetadata" }
%"class.google::protobuf::internal::InternalMetadata" = type { i8* }
%"class.google::protobuf::internal::HasBits" = type { [1 x i32] }
%"class.google::protobuf::internal::CachedSize" = type { %"struct.std::__1::atomic" }
%"struct.google::protobuf::internal::ArenaStringPtr" = type { %"class.std::__1::basic_string"* }
%"class.std::__1::basic_string" = type { %"class.std::__1::__compressed_pair.8" }
%"class.std::__1::__compressed_pair.8" = type { %"struct.std::__1::__compressed_pair_elem.9" }
%"struct.std::__1::__compressed_pair_elem.9" = type { %"struct.std::__1::basic_string<char, std::__1::char_traits<char>, std::__1::allocator<char> >::__rep" }
%"struct.std::__1::basic_string<char, std::__1::char_traits<char>, std::__1::allocator<char> >::__rep" = type { %union.anon }
%union.anon = type { %"struct.std::__1::basic_string<char, std::__1::char_traits<char>, std::__1::allocator<char> >::__long" }
%"struct.std::__1::basic_string<char, std::__1::char_traits<char>, std::__1::allocator<char> >::__long" = type { i8*, i64, i64 }
%"class.sync_pb::DataTypeProgressMarker" = type <{ %"class.google::protobuf::MessageLite", %"class.google::protobuf::internal::HasBits", %"class.google::protobuf::internal::CachedSize", %"struct.google::protobuf::internal::ArenaStringPtr", %"struct.google::protobuf::internal::ArenaStringPtr", %"class.sync_pb::GetUpdateTriggers"*, %"class.sync_pb::GarbageCollectionDirective"*, i64, i32, [4 x i8] }>
%"class.sync_pb::GetUpdateTriggers" = type <{ %"class.google::protobuf::MessageLite", %"class.google::protobuf::internal::HasBits", %"class.google::protobuf::internal::CachedSize", %"class.google::protobuf::RepeatedPtrField", i64, i64, i8, i8, i8, i8, i8, [3 x i8] }>
%"class.google::protobuf::RepeatedPtrField" = type { %"class.google::protobuf::internal::RepeatedPtrFieldBase" }
%"class.google::protobuf::internal::RepeatedPtrFieldBase" = type { %"class.google::protobuf::Arena"*, i32, i32, %"struct.google::protobuf::internal::RepeatedPtrFieldBase::Rep"* }
%"class.google::protobuf::Arena" = type { %"class.google::protobuf::internal::ArenaImpl", void (%"class.std::type_info"*, i64, i8*)*, void (%"class.google::protobuf::Arena"*, i8*, i64)*, void (%"class.google::protobuf::Arena"*, i8*, i64)*, i8* }
%"class.google::protobuf::internal::ArenaImpl" = type { %"struct.std::__1::atomic.11", %"struct.std::__1::atomic.11", %"struct.std::__1::atomic.15", %"class.google::protobuf::internal::ArenaImpl::Block"*, i64, %"struct.google::protobuf::internal::ArenaImpl::Options" }
%"struct.std::__1::atomic.11" = type { %"struct.std::__1::__atomic_base.12" }
%"struct.std::__1::__atomic_base.12" = type { %"struct.std::__1::__cxx_atomic_impl.13" }
%"struct.std::__1::__cxx_atomic_impl.13" = type { %"struct.std::__1::__cxx_atomic_base_impl.14" }
%"struct.std::__1::__cxx_atomic_base_impl.14" = type { %"class.google::protobuf::internal::ArenaImpl::SerialArena"* }
%"class.google::protobuf::internal::ArenaImpl::SerialArena" = type { %"class.google::protobuf::internal::ArenaImpl"*, i8*, %"class.google::protobuf::internal::ArenaImpl::Block"*, %"struct.google::protobuf::internal::ArenaImpl::CleanupChunk"*, %"class.google::protobuf::internal::ArenaImpl::SerialArena"*, i8*, i8*, %"struct.google::protobuf::internal::ArenaImpl::CleanupNode"*, %"struct.google::protobuf::internal::ArenaImpl::CleanupNode"* }
%"struct.google::protobuf::internal::ArenaImpl::CleanupChunk" = type { i64, %"struct.google::protobuf::internal::ArenaImpl::CleanupChunk"*, [1 x %"struct.google::protobuf::internal::ArenaImpl::CleanupNode"] }
%"struct.google::protobuf::internal::ArenaImpl::CleanupNode" = type { i8*, void (i8*)* }
%"struct.std::__1::atomic.15" = type { %"struct.std::__1::__atomic_base.16" }
%"struct.std::__1::__atomic_base.16" = type { %"struct.std::__1::__atomic_base.17" }
%"struct.std::__1::__atomic_base.17" = type { %"struct.std::__1::__cxx_atomic_impl.18" }
%"struct.std::__1::__cxx_atomic_impl.18" = type { %"struct.std::__1::__cxx_atomic_base_impl.19" }
%"struct.std::__1::__cxx_atomic_base_impl.19" = type { i64 }
%"class.google::protobuf::internal::ArenaImpl::Block" = type { %"class.google::protobuf::internal::ArenaImpl::Block"*, i64, i64 }
%"struct.google::protobuf::internal::ArenaImpl::Options" = type { i64, i64, i8*, i64, i8* (i64)*, void (i8*, i64)* }
%"class.std::type_info" = type { i32 (...)**, i8* }
%"struct.google::protobuf::internal::RepeatedPtrFieldBase::Rep" = type { i32, [268435454 x i8*] }
%"class.sync_pb::GarbageCollectionDirective" = type { %"class.google::protobuf::MessageLite", %"class.google::protobuf::internal::HasBits", %"class.google::protobuf::internal::CachedSize", i64, i32, i32 }
%"class.sync_pb::DataTypeContext" = type <{ %"class.google::protobuf::MessageLite", %"class.google::protobuf::internal::HasBits", %"class.google::protobuf::internal::CachedSize", %"struct.google::protobuf::internal::ArenaStringPtr", i64, i32, [4 x i8] }>
%"class.std::__1::unique_ptr.20" = type { %"class.std::__1::__compressed_pair.21" }
%"class.std::__1::__compressed_pair.21" = type { %"struct.std::__1::__compressed_pair_elem.22" }
%"struct.std::__1::__compressed_pair_elem.22" = type { %"class.syncer::ModelTypeProcessor"* }
%"class.syncer::ModelTypeProcessor" = type { i32 (...)** }
%"class.base::Location" = type { i8*, i8*, i32, i8* }
%"class.base::OnceCallback" = type { %"class.base::internal::CallbackBase" }
%"class.base::internal::CallbackBase" = type { %class.scoped_refptr.27 }
%class.scoped_refptr.27 = type { %"class.base::internal::BindStateBase"* }
%"class.base::internal::BindStateBase" = type { %"class.base::RefCountedThreadSafe.28", void ()*, void (%"class.base::internal::BindStateBase"*)*, i1 (%"class.base::internal::BindStateBase"*, i32)* }
%"class.base::RefCountedThreadSafe.28" = type { %"class.base::subtle::RefCountedThreadSafeBase" }
%"class.logging::CheckError" = type { %"class.logging::LogMessage"* }
%"class.logging::LogMessage" = type opaque
%"class.std::__1::basic_ostream" = type { i32 (...)**, %"class.std::__1::basic_ios.base" }
%"class.std::__1::basic_ios.base" = type <{ %"class.std::__1::ios_base", %"class.std::__1::basic_ostream"*, i32 }>
%"class.std::__1::ios_base" = type { i32 (...)**, i32, i64, i64, i32, i32, i8*, i8*, void (i32, %"class.std::__1::ios_base"*, i32)**, i32*, i64, i64, i64*, i64, i64, i8**, i64, i64 }

$_ZN4base8internal7InvokerINS0_9BindStateIMN6syncer18ModelTypeConnectorEFvNS3_9ModelTypeENSt3__110unique_ptrINS3_26DataTypeActivationResponseENS6_14default_deleteIS8_EEEEEJNS_7WeakPtrIS4_EES5_SB_EEEFvvEE7RunOnceEPNS0_13BindStateBaseE = comdat any

$_ZN4base8internal9BindStateIMN6syncer18ModelTypeConnectorEFvNS2_9ModelTypeENSt3__110unique_ptrINS2_26DataTypeActivationResponseENS5_14default_deleteIS7_EEEEEJNS_7WeakPtrIS3_EES4_SA_EE7DestroyEPKNS0_13BindStateBaseE = comdat any

$_ZN4base8internal23QueryCancellationTraitsINS0_9BindStateIMN6syncer18ModelTypeConnectorEFvNS3_9ModelTypeENSt3__110unique_ptrINS3_26DataTypeActivationResponseENS6_14default_deleteIS8_EEEEEJNS_7WeakPtrIS4_EES5_SB_EEEEEbPKNS0_13BindStateBaseENSH_21CancellationQueryModeE = comdat any

$_ZN4base8internal7InvokerINS0_9BindStateIMN6syncer18ModelTypeConnectorEFvNS3_9ModelTypeEEJNS_7WeakPtrIS4_EES5_EEEFvvEE7RunOnceEPNS0_13BindStateBaseE = comdat any

$_ZN4base8internal9BindStateIMN6syncer18ModelTypeConnectorEFvNS2_9ModelTypeEEJNS_7WeakPtrIS3_EES4_EE7DestroyEPKNS0_13BindStateBaseE = comdat any

$_ZN4base8internal23QueryCancellationTraitsINS0_9BindStateIMN6syncer18ModelTypeConnectorEFvNS3_9ModelTypeEEJNS_7WeakPtrIS4_EES5_EEEEEbPKNS0_13BindStateBaseENSB_21CancellationQueryModeE = comdat any

@_ZTVN6syncer23ModelTypeConnectorProxyE = hidden unnamed_addr constant { [8 x i8*] } { [8 x i8*] [i8* null, i8* null, i8* bitcast (void (%"class.syncer::ModelTypeConnectorProxy"*)* @_ZN6syncer23ModelTypeConnectorProxyD2Ev to i8*), i8* bitcast (void (%"class.syncer::ModelTypeConnectorProxy"*)* @_ZN6syncer23ModelTypeConnectorProxyD0Ev to i8*), i8* bitcast (void (%"class.syncer::ModelTypeConnectorProxy"*, i32, %"struct.syncer::DataTypeActivationResponse"*)* @_ZN6syncer23ModelTypeConnectorProxy15ConnectDataTypeENS_9ModelTypeENSt3__110unique_ptrINS_26DataTypeActivationResponseENS2_14default_deleteIS4_EEEE to i8*), i8* bitcast (void (%"class.syncer::ModelTypeConnectorProxy"*, i32)* @_ZN6syncer23ModelTypeConnectorProxy18DisconnectDataTypeENS_9ModelTypeE to i8*), i8* bitcast (void (%"class.syncer::ModelTypeConnectorProxy"*, i32)* @_ZN6syncer23ModelTypeConnectorProxy16ConnectProxyTypeENS_9ModelTypeE to i8*), i8* bitcast (void (%"class.syncer::ModelTypeConnectorProxy"*, i32)* @_ZN6syncer23ModelTypeConnectorProxy19DisconnectProxyTypeENS_9ModelTypeE to i8*)] }, align 8
@.str = private unnamed_addr constant [16 x i8] c"ConnectDataType\00", align 1
@.str.1 = private unnamed_addr constant [59 x i8] c"../../components/sync/engine/model_type_connector_proxy.cc\00", align 1
@.str.2 = private unnamed_addr constant [19 x i8] c"DisconnectDataType\00", align 1
@.str.3 = private unnamed_addr constant [17 x i8] c"ConnectProxyType\00", align 1
@.str.4 = private unnamed_addr constant [20 x i8] c"DisconnectProxyType\00", align 1
@.str.5 = private unnamed_addr constant [29 x i8] c"../../base/memory/weak_ptr.h\00", align 1
@.str.6 = private unnamed_addr constant [15 x i8] c"ref_.IsValid()\00", align 1

@_ZN6syncer23ModelTypeConnectorProxyC1ERK13scoped_refptrIN4base19SequencedTaskRunnerEERKNS2_7WeakPtrINS_18ModelTypeConnectorEEE = hidden unnamed_addr alias void (%"class.syncer::ModelTypeConnectorProxy"*, %class.scoped_refptr*, %"class.base::WeakPtr"*), void (%"class.syncer::ModelTypeConnectorProxy"*, %class.scoped_refptr*, %"class.base::WeakPtr"*)* @_ZN6syncer23ModelTypeConnectorProxyC2ERK13scoped_refptrIN4base19SequencedTaskRunnerEERKNS2_7WeakPtrINS_18ModelTypeConnectorEEE
@_ZN6syncer23ModelTypeConnectorProxyD1Ev = hidden unnamed_addr alias void (%"class.syncer::ModelTypeConnectorProxy"*), void (%"class.syncer::ModelTypeConnectorProxy"*)* @_ZN6syncer23ModelTypeConnectorProxyD2Ev

; Function Attrs: nounwind ssp uwtable
define hidden void @_ZN6syncer23ModelTypeConnectorProxyC2ERK13scoped_refptrIN4base19SequencedTaskRunnerEERKNS2_7WeakPtrINS_18ModelTypeConnectorEEE(%"class.syncer::ModelTypeConnectorProxy"*, %class.scoped_refptr* nocapture readonly dereferenceable(8), %"class.base::WeakPtr"* dereferenceable(16)) unnamed_addr #0 align 2 {
  %4 = getelementptr inbounds %"class.syncer::ModelTypeConnectorProxy", %"class.syncer::ModelTypeConnectorProxy"* %0, i64 0, i32 0, i32 0
  store i32 (...)** bitcast (i8** getelementptr inbounds ({ [8 x i8*] }, { [8 x i8*] }* @_ZTVN6syncer23ModelTypeConnectorProxyE, i64 0, inrange i32 0, i64 2) to i32 (...)**), i32 (...)*** %4, align 8
  %5 = getelementptr inbounds %class.scoped_refptr, %class.scoped_refptr* %1, i64 0, i32 0
  %6 = load %"class.base::SequencedTaskRunner"*, %"class.base::SequencedTaskRunner"** %5, align 8
  %7 = getelementptr inbounds %"class.syncer::ModelTypeConnectorProxy", %"class.syncer::ModelTypeConnectorProxy"* %0, i64 0, i32 1, i32 0
  store %"class.base::SequencedTaskRunner"* %6, %"class.base::SequencedTaskRunner"** %7, align 8
  %8 = icmp eq %"class.base::SequencedTaskRunner"* %6, null
  br i1 %8, label %12, label %9

9:                                                ; preds = %3
  %10 = getelementptr inbounds %"class.base::SequencedTaskRunner", %"class.base::SequencedTaskRunner"* %6, i64 0, i32 0, i32 1, i32 0, i32 0, i32 0, i32 0, i32 0, i32 0, i32 0, i32 0
  %11 = atomicrmw add i32* %10, i32 1 monotonic
  br label %12

12:                                               ; preds = %3, %9
  %13 = getelementptr inbounds %"class.syncer::ModelTypeConnectorProxy", %"class.syncer::ModelTypeConnectorProxy"* %0, i64 0, i32 2, i32 0, i32 0
  %14 = getelementptr inbounds %"class.base::WeakPtr", %"class.base::WeakPtr"* %2, i64 0, i32 0, i32 0
  tail call void @_ZN4base8internal13WeakReferenceC1ERKS1_(%"class.base::internal::WeakReference"* %13, %"class.base::internal::WeakReference"* dereferenceable(8) %14) #6
  %15 = getelementptr inbounds %"class.syncer::ModelTypeConnectorProxy", %"class.syncer::ModelTypeConnectorProxy"* %0, i64 0, i32 2, i32 0, i32 1
  %16 = getelementptr inbounds %"class.base::WeakPtr", %"class.base::WeakPtr"* %2, i64 0, i32 0, i32 1
  %17 = load i64, i64* %16, align 8
  store i64 %17, i64* %15, align 8
  ret void
}

; Function Attrs: nounwind ssp uwtable
define hidden void @_ZN6syncer23ModelTypeConnectorProxyD2Ev(%"class.syncer::ModelTypeConnectorProxy"*) unnamed_addr #0 align 2 {
  %2 = getelementptr inbounds %"class.syncer::ModelTypeConnectorProxy", %"class.syncer::ModelTypeConnectorProxy"* %0, i64 0, i32 0, i32 0
  store i32 (...)** bitcast (i8** getelementptr inbounds ({ [8 x i8*] }, { [8 x i8*] }* @_ZTVN6syncer23ModelTypeConnectorProxyE, i64 0, inrange i32 0, i64 2) to i32 (...)**), i32 (...)*** %2, align 8
  %3 = getelementptr inbounds %"class.syncer::ModelTypeConnectorProxy", %"class.syncer::ModelTypeConnectorProxy"* %0, i64 0, i32 2, i32 0
  tail call void @_ZN4base8internal11WeakPtrBaseD2Ev(%"class.base::internal::WeakPtrBase"* %3) #6
  %4 = getelementptr inbounds %"class.syncer::ModelTypeConnectorProxy", %"class.syncer::ModelTypeConnectorProxy"* %0, i64 0, i32 1, i32 0
  %5 = load %"class.base::SequencedTaskRunner"*, %"class.base::SequencedTaskRunner"** %4, align 8
  %6 = icmp eq %"class.base::SequencedTaskRunner"* %5, null
  br i1 %6, label %15, label %7

7:                                                ; preds = %1
  %8 = getelementptr inbounds %"class.base::SequencedTaskRunner", %"class.base::SequencedTaskRunner"* %5, i64 0, i32 0, i32 1
  %9 = getelementptr inbounds %"class.base::RefCountedThreadSafe", %"class.base::RefCountedThreadSafe"* %8, i64 0, i32 0, i32 0, i32 0, i32 0, i32 0, i32 0, i32 0, i32 0
  %10 = atomicrmw sub i32* %9, i32 1 acq_rel
  %11 = icmp eq i32 %10, 1
  br i1 %11, label %12, label %15

12:                                               ; preds = %7
  %13 = getelementptr inbounds %"class.base::RefCountedThreadSafe", %"class.base::RefCountedThreadSafe"* %8, i64 -2
  %14 = bitcast %"class.base::RefCountedThreadSafe"* %13 to %"class.base::TaskRunner"*
  tail call void @_ZN4base16TaskRunnerTraits8DestructEPKNS_10TaskRunnerE(%"class.base::TaskRunner"* %14) #6
  br label %15

15:                                               ; preds = %1, %7, %12
  ret void
}

; Function Attrs: nounwind
declare void @_ZN4base8internal11WeakPtrBaseD2Ev(%"class.base::internal::WeakPtrBase"*) unnamed_addr #1

; Function Attrs: nounwind ssp uwtable
define hidden void @_ZN6syncer23ModelTypeConnectorProxyD0Ev(%"class.syncer::ModelTypeConnectorProxy"*) unnamed_addr #0 align 2 {
  %2 = getelementptr inbounds %"class.syncer::ModelTypeConnectorProxy", %"class.syncer::ModelTypeConnectorProxy"* %0, i64 0, i32 0, i32 0
  store i32 (...)** bitcast (i8** getelementptr inbounds ({ [8 x i8*] }, { [8 x i8*] }* @_ZTVN6syncer23ModelTypeConnectorProxyE, i64 0, inrange i32 0, i64 2) to i32 (...)**), i32 (...)*** %2, align 8
  %3 = getelementptr inbounds %"class.syncer::ModelTypeConnectorProxy", %"class.syncer::ModelTypeConnectorProxy"* %0, i64 0, i32 2, i32 0
  tail call void @_ZN4base8internal11WeakPtrBaseD2Ev(%"class.base::internal::WeakPtrBase"* %3) #6
  %4 = getelementptr inbounds %"class.syncer::ModelTypeConnectorProxy", %"class.syncer::ModelTypeConnectorProxy"* %0, i64 0, i32 1, i32 0
  %5 = load %"class.base::SequencedTaskRunner"*, %"class.base::SequencedTaskRunner"** %4, align 8
  %6 = icmp eq %"class.base::SequencedTaskRunner"* %5, null
  br i1 %6, label %15, label %7

7:                                                ; preds = %1
  %8 = getelementptr inbounds %"class.base::SequencedTaskRunner", %"class.base::SequencedTaskRunner"* %5, i64 0, i32 0, i32 1
  %9 = getelementptr inbounds %"class.base::RefCountedThreadSafe", %"class.base::RefCountedThreadSafe"* %8, i64 0, i32 0, i32 0, i32 0, i32 0, i32 0, i32 0, i32 0, i32 0
  %10 = atomicrmw sub i32* %9, i32 1 acq_rel
  %11 = icmp eq i32 %10, 1
  br i1 %11, label %12, label %15

12:                                               ; preds = %7
  %13 = getelementptr inbounds %"class.base::RefCountedThreadSafe", %"class.base::RefCountedThreadSafe"* %8, i64 -2
  %14 = bitcast %"class.base::RefCountedThreadSafe"* %13 to %"class.base::TaskRunner"*
  tail call void @_ZN4base16TaskRunnerTraits8DestructEPKNS_10TaskRunnerE(%"class.base::TaskRunner"* %14) #6
  br label %15

15:                                               ; preds = %1, %7, %12
  %16 = bitcast %"class.syncer::ModelTypeConnectorProxy"* %0 to i8*
  tail call void @_ZdlPv(i8* %16) #7
  ret void
}

; Function Attrs: nobuiltin nounwind
declare void @_ZdlPv(i8*) local_unnamed_addr #2

; Function Attrs: nounwind ssp uwtable
define hidden void @_ZN6syncer23ModelTypeConnectorProxy15ConnectDataTypeENS_9ModelTypeENSt3__110unique_ptrINS_26DataTypeActivationResponseENS2_14default_deleteIS4_EEEE(%"class.syncer::ModelTypeConnectorProxy"*, i32, %"struct.syncer::DataTypeActivationResponse"*) unnamed_addr #0 align 2 {
  %4 = alloca %"class.base::Location", align 8
  %5 = alloca %"class.base::OnceCallback", align 8
  %6 = ptrtoint %"struct.syncer::DataTypeActivationResponse"* %2 to i64
  %7 = getelementptr inbounds %"class.syncer::ModelTypeConnectorProxy", %"class.syncer::ModelTypeConnectorProxy"* %0, i64 0, i32 1, i32 0
  %8 = bitcast %"class.base::SequencedTaskRunner"** %7 to %"class.base::TaskRunner"**
  %9 = load %"class.base::TaskRunner"*, %"class.base::TaskRunner"** %8, align 8
  %10 = bitcast %"class.base::Location"* %4 to i8*
  call void @llvm.lifetime.start.p0i8(i64 32, i8* nonnull %10) #6
  call void @_ZN4base8Location7CurrentEPKcS2_i(%"class.base::Location"* nonnull sret %4, i8* getelementptr inbounds ([16 x i8], [16 x i8]* @.str, i64 0, i64 0), i8* getelementptr inbounds ([59 x i8], [59 x i8]* @.str.1, i64 0, i64 0), i32 25) #6
  %11 = call i8* @_Znwm(i64 80) #7, !noalias !2
  %12 = bitcast i8* %11 to %"class.base::internal::BindStateBase"*
  call void @_ZN4base8internal13BindStateBaseC2EPFvvEPFvPKS1_EPFbS5_NS1_21CancellationQueryModeEE(%"class.base::internal::BindStateBase"* nonnull %12, void ()* bitcast (void (%"class.base::internal::BindStateBase"*)* @_ZN4base8internal7InvokerINS0_9BindStateIMN6syncer18ModelTypeConnectorEFvNS3_9ModelTypeENSt3__110unique_ptrINS3_26DataTypeActivationResponseENS6_14default_deleteIS8_EEEEEJNS_7WeakPtrIS4_EES5_SB_EEEFvvEE7RunOnceEPNS0_13BindStateBaseE to void ()*), void (%"class.base::internal::BindStateBase"*)* nonnull @_ZN4base8internal9BindStateIMN6syncer18ModelTypeConnectorEFvNS2_9ModelTypeENSt3__110unique_ptrINS2_26DataTypeActivationResponseENS5_14default_deleteIS7_EEEEEJNS_7WeakPtrIS3_EES4_SA_EE7DestroyEPKNS0_13BindStateBaseE, i1 (%"class.base::internal::BindStateBase"*, i32)* nonnull @_ZN4base8internal23QueryCancellationTraitsINS0_9BindStateIMN6syncer18ModelTypeConnectorEFvNS3_9ModelTypeENSt3__110unique_ptrINS3_26DataTypeActivationResponseENS6_14default_deleteIS8_EEEEEJNS_7WeakPtrIS4_EES5_SB_EEEEEbPKNS0_13BindStateBaseENSH_21CancellationQueryModeE) #6, !noalias !2
  %13 = getelementptr inbounds i8, i8* %11, i64 32
  %14 = bitcast i8* %13 to <2 x i64>*
  store <2 x i64> <i64 17, i64 0>, <2 x i64>* %14, align 8, !noalias !2
  %15 = getelementptr inbounds i8, i8* %11, i64 48
  %16 = bitcast i8* %15 to %"class.base::internal::WeakReference"*
  %17 = getelementptr inbounds %"class.syncer::ModelTypeConnectorProxy", %"class.syncer::ModelTypeConnectorProxy"* %0, i64 0, i32 2, i32 0, i32 0
  call void @_ZN4base8internal13WeakReferenceC1ERKS1_(%"class.base::internal::WeakReference"* %16, %"class.base::internal::WeakReference"* dereferenceable(8) %17) #6, !noalias !2
  %18 = getelementptr inbounds i8, i8* %11, i64 56
  %19 = bitcast i8* %18 to i64*
  %20 = getelementptr inbounds %"class.syncer::ModelTypeConnectorProxy", %"class.syncer::ModelTypeConnectorProxy"* %0, i64 0, i32 2, i32 0, i32 1
  %21 = load i64, i64* %20, align 8, !noalias !2
  store i64 %21, i64* %19, align 8, !noalias !2
  %22 = getelementptr inbounds i8, i8* %11, i64 64
  %23 = bitcast i8* %22 to i32*
  store i32 %1, i32* %23, align 4, !noalias !2
  %24 = getelementptr inbounds i8, i8* %11, i64 72
  %25 = bitcast i8* %24 to i64*
  store i64 %6, i64* %25, align 8, !noalias !2
  %26 = bitcast %"class.base::OnceCallback"* %5 to i8**
  store i8* %11, i8** %26, align 8, !alias.scope !2
  %27 = call zeroext i1 @_ZN4base10TaskRunner8PostTaskERKNS_8LocationENS_12OnceCallbackIFvvEEE(%"class.base::TaskRunner"* %9, %"class.base::Location"* nonnull dereferenceable(32) %4, %"class.base::OnceCallback"* nonnull %5) #6
  %28 = getelementptr inbounds %"class.base::OnceCallback", %"class.base::OnceCallback"* %5, i64 0, i32 0
  call void @_ZN4base8internal12CallbackBaseD2Ev(%"class.base::internal::CallbackBase"* nonnull %28) #6
  call void @llvm.lifetime.end.p0i8(i64 32, i8* nonnull %10) #6
  ret void
}

declare zeroext i1 @_ZN4base10TaskRunner8PostTaskERKNS_8LocationENS_12OnceCallbackIFvvEEE(%"class.base::TaskRunner"*, %"class.base::Location"* dereferenceable(32), %"class.base::OnceCallback"*) local_unnamed_addr #3

; Function Attrs: argmemonly nounwind
declare void @llvm.lifetime.start.p0i8(i64 immarg, i8* nocapture) #4

declare void @_ZN4base8Location7CurrentEPKcS2_i(%"class.base::Location"* sret, i8*, i8*, i32) local_unnamed_addr #3

; Function Attrs: nounwind
declare void @_ZN4base8internal12CallbackBaseD2Ev(%"class.base::internal::CallbackBase"*) unnamed_addr #1

; Function Attrs: argmemonly nounwind
declare void @llvm.lifetime.end.p0i8(i64 immarg, i8* nocapture) #4

; Function Attrs: nounwind ssp uwtable
define hidden void @_ZN6syncer23ModelTypeConnectorProxy18DisconnectDataTypeENS_9ModelTypeE(%"class.syncer::ModelTypeConnectorProxy"*, i32) unnamed_addr #0 align 2 {
  %3 = alloca %"class.base::Location", align 8
  %4 = alloca %"class.base::OnceCallback", align 8
  %5 = getelementptr inbounds %"class.syncer::ModelTypeConnectorProxy", %"class.syncer::ModelTypeConnectorProxy"* %0, i64 0, i32 1, i32 0
  %6 = bitcast %"class.base::SequencedTaskRunner"** %5 to %"class.base::TaskRunner"**
  %7 = load %"class.base::TaskRunner"*, %"class.base::TaskRunner"** %6, align 8
  %8 = bitcast %"class.base::Location"* %3 to i8*
  call void @llvm.lifetime.start.p0i8(i64 32, i8* nonnull %8) #6
  call void @_ZN4base8Location7CurrentEPKcS2_i(%"class.base::Location"* nonnull sret %3, i8* getelementptr inbounds ([19 x i8], [19 x i8]* @.str.2, i64 0, i64 0), i8* getelementptr inbounds ([59 x i8], [59 x i8]* @.str.1, i64 0, i64 0), i32 32) #6
  %9 = call i8* @_Znwm(i64 72) #7, !noalias !7
  %10 = bitcast i8* %9 to %"class.base::internal::BindStateBase"*
  call void @_ZN4base8internal13BindStateBaseC2EPFvvEPFvPKS1_EPFbS5_NS1_21CancellationQueryModeEE(%"class.base::internal::BindStateBase"* nonnull %10, void ()* bitcast (void (%"class.base::internal::BindStateBase"*)* @_ZN4base8internal7InvokerINS0_9BindStateIMN6syncer18ModelTypeConnectorEFvNS3_9ModelTypeEEJNS_7WeakPtrIS4_EES5_EEEFvvEE7RunOnceEPNS0_13BindStateBaseE to void ()*), void (%"class.base::internal::BindStateBase"*)* nonnull @_ZN4base8internal9BindStateIMN6syncer18ModelTypeConnectorEFvNS2_9ModelTypeEEJNS_7WeakPtrIS3_EES4_EE7DestroyEPKNS0_13BindStateBaseE, i1 (%"class.base::internal::BindStateBase"*, i32)* nonnull @_ZN4base8internal23QueryCancellationTraitsINS0_9BindStateIMN6syncer18ModelTypeConnectorEFvNS3_9ModelTypeEEJNS_7WeakPtrIS4_EES5_EEEEEbPKNS0_13BindStateBaseENSB_21CancellationQueryModeE) #6, !noalias !7
  %11 = getelementptr inbounds i8, i8* %9, i64 32
  %12 = bitcast i8* %11 to <2 x i64>*
  store <2 x i64> <i64 25, i64 0>, <2 x i64>* %12, align 8, !noalias !7
  %13 = getelementptr inbounds i8, i8* %9, i64 48
  %14 = bitcast i8* %13 to %"class.base::internal::WeakReference"*
  %15 = getelementptr inbounds %"class.syncer::ModelTypeConnectorProxy", %"class.syncer::ModelTypeConnectorProxy"* %0, i64 0, i32 2, i32 0, i32 0
  call void @_ZN4base8internal13WeakReferenceC1ERKS1_(%"class.base::internal::WeakReference"* %14, %"class.base::internal::WeakReference"* dereferenceable(8) %15) #6, !noalias !7
  %16 = getelementptr inbounds i8, i8* %9, i64 56
  %17 = bitcast i8* %16 to i64*
  %18 = getelementptr inbounds %"class.syncer::ModelTypeConnectorProxy", %"class.syncer::ModelTypeConnectorProxy"* %0, i64 0, i32 2, i32 0, i32 1
  %19 = load i64, i64* %18, align 8, !noalias !7
  store i64 %19, i64* %17, align 8, !noalias !7
  %20 = getelementptr inbounds i8, i8* %9, i64 64
  %21 = bitcast i8* %20 to i32*
  store i32 %1, i32* %21, align 4, !noalias !7
  %22 = bitcast %"class.base::OnceCallback"* %4 to i8**
  store i8* %9, i8** %22, align 8, !alias.scope !7
  %23 = call zeroext i1 @_ZN4base10TaskRunner8PostTaskERKNS_8LocationENS_12OnceCallbackIFvvEEE(%"class.base::TaskRunner"* %7, %"class.base::Location"* nonnull dereferenceable(32) %3, %"class.base::OnceCallback"* nonnull %4) #6
  %24 = getelementptr inbounds %"class.base::OnceCallback", %"class.base::OnceCallback"* %4, i64 0, i32 0
  call void @_ZN4base8internal12CallbackBaseD2Ev(%"class.base::internal::CallbackBase"* nonnull %24) #6
  call void @llvm.lifetime.end.p0i8(i64 32, i8* nonnull %8) #6
  ret void
}

; Function Attrs: nounwind ssp uwtable
define hidden void @_ZN6syncer23ModelTypeConnectorProxy16ConnectProxyTypeENS_9ModelTypeE(%"class.syncer::ModelTypeConnectorProxy"*, i32) unnamed_addr #0 align 2 {
  %3 = alloca %"class.base::Location", align 8
  %4 = alloca %"class.base::OnceCallback", align 8
  %5 = getelementptr inbounds %"class.syncer::ModelTypeConnectorProxy", %"class.syncer::ModelTypeConnectorProxy"* %0, i64 0, i32 1, i32 0
  %6 = bitcast %"class.base::SequencedTaskRunner"** %5 to %"class.base::TaskRunner"**
  %7 = load %"class.base::TaskRunner"*, %"class.base::TaskRunner"** %6, align 8
  %8 = bitcast %"class.base::Location"* %3 to i8*
  call void @llvm.lifetime.start.p0i8(i64 32, i8* nonnull %8) #6
  call void @_ZN4base8Location7CurrentEPKcS2_i(%"class.base::Location"* nonnull sret %3, i8* getelementptr inbounds ([17 x i8], [17 x i8]* @.str.3, i64 0, i64 0), i8* getelementptr inbounds ([59 x i8], [59 x i8]* @.str.1, i64 0, i64 0), i32 38) #6
  %9 = call i8* @_Znwm(i64 72) #7, !noalias !12
  %10 = bitcast i8* %9 to %"class.base::internal::BindStateBase"*
  call void @_ZN4base8internal13BindStateBaseC2EPFvvEPFvPKS1_EPFbS5_NS1_21CancellationQueryModeEE(%"class.base::internal::BindStateBase"* nonnull %10, void ()* bitcast (void (%"class.base::internal::BindStateBase"*)* @_ZN4base8internal7InvokerINS0_9BindStateIMN6syncer18ModelTypeConnectorEFvNS3_9ModelTypeEEJNS_7WeakPtrIS4_EES5_EEEFvvEE7RunOnceEPNS0_13BindStateBaseE to void ()*), void (%"class.base::internal::BindStateBase"*)* nonnull @_ZN4base8internal9BindStateIMN6syncer18ModelTypeConnectorEFvNS2_9ModelTypeEEJNS_7WeakPtrIS3_EES4_EE7DestroyEPKNS0_13BindStateBaseE, i1 (%"class.base::internal::BindStateBase"*, i32)* nonnull @_ZN4base8internal23QueryCancellationTraitsINS0_9BindStateIMN6syncer18ModelTypeConnectorEFvNS3_9ModelTypeEEJNS_7WeakPtrIS4_EES5_EEEEEbPKNS0_13BindStateBaseENSB_21CancellationQueryModeE) #6, !noalias !12
  %11 = getelementptr inbounds i8, i8* %9, i64 32
  %12 = bitcast i8* %11 to <2 x i64>*
  store <2 x i64> <i64 33, i64 0>, <2 x i64>* %12, align 8, !noalias !12
  %13 = getelementptr inbounds i8, i8* %9, i64 48
  %14 = bitcast i8* %13 to %"class.base::internal::WeakReference"*
  %15 = getelementptr inbounds %"class.syncer::ModelTypeConnectorProxy", %"class.syncer::ModelTypeConnectorProxy"* %0, i64 0, i32 2, i32 0, i32 0
  call void @_ZN4base8internal13WeakReferenceC1ERKS1_(%"class.base::internal::WeakReference"* %14, %"class.base::internal::WeakReference"* dereferenceable(8) %15) #6, !noalias !12
  %16 = getelementptr inbounds i8, i8* %9, i64 56
  %17 = bitcast i8* %16 to i64*
  %18 = getelementptr inbounds %"class.syncer::ModelTypeConnectorProxy", %"class.syncer::ModelTypeConnectorProxy"* %0, i64 0, i32 2, i32 0, i32 1
  %19 = load i64, i64* %18, align 8, !noalias !12
  store i64 %19, i64* %17, align 8, !noalias !12
  %20 = getelementptr inbounds i8, i8* %9, i64 64
  %21 = bitcast i8* %20 to i32*
  store i32 %1, i32* %21, align 4, !noalias !12
  %22 = bitcast %"class.base::OnceCallback"* %4 to i8**
  store i8* %9, i8** %22, align 8, !alias.scope !12
  %23 = call zeroext i1 @_ZN4base10TaskRunner8PostTaskERKNS_8LocationENS_12OnceCallbackIFvvEEE(%"class.base::TaskRunner"* %7, %"class.base::Location"* nonnull dereferenceable(32) %3, %"class.base::OnceCallback"* nonnull %4) #6
  %24 = getelementptr inbounds %"class.base::OnceCallback", %"class.base::OnceCallback"* %4, i64 0, i32 0
  call void @_ZN4base8internal12CallbackBaseD2Ev(%"class.base::internal::CallbackBase"* nonnull %24) #6
  call void @llvm.lifetime.end.p0i8(i64 32, i8* nonnull %8) #6
  ret void
}

; Function Attrs: nounwind ssp uwtable
define hidden void @_ZN6syncer23ModelTypeConnectorProxy19DisconnectProxyTypeENS_9ModelTypeE(%"class.syncer::ModelTypeConnectorProxy"*, i32) unnamed_addr #0 align 2 {
  %3 = alloca %"class.base::Location", align 8
  %4 = alloca %"class.base::OnceCallback", align 8
  %5 = getelementptr inbounds %"class.syncer::ModelTypeConnectorProxy", %"class.syncer::ModelTypeConnectorProxy"* %0, i64 0, i32 1, i32 0
  %6 = bitcast %"class.base::SequencedTaskRunner"** %5 to %"class.base::TaskRunner"**
  %7 = load %"class.base::TaskRunner"*, %"class.base::TaskRunner"** %6, align 8
  %8 = bitcast %"class.base::Location"* %3 to i8*
  call void @llvm.lifetime.start.p0i8(i64 32, i8* nonnull %8) #6
  call void @_ZN4base8Location7CurrentEPKcS2_i(%"class.base::Location"* nonnull sret %3, i8* getelementptr inbounds ([20 x i8], [20 x i8]* @.str.4, i64 0, i64 0), i8* getelementptr inbounds ([59 x i8], [59 x i8]* @.str.1, i64 0, i64 0), i32 45) #6
  %9 = call i8* @_Znwm(i64 72) #7, !noalias !17
  %10 = bitcast i8* %9 to %"class.base::internal::BindStateBase"*
  call void @_ZN4base8internal13BindStateBaseC2EPFvvEPFvPKS1_EPFbS5_NS1_21CancellationQueryModeEE(%"class.base::internal::BindStateBase"* nonnull %10, void ()* bitcast (void (%"class.base::internal::BindStateBase"*)* @_ZN4base8internal7InvokerINS0_9BindStateIMN6syncer18ModelTypeConnectorEFvNS3_9ModelTypeEEJNS_7WeakPtrIS4_EES5_EEEFvvEE7RunOnceEPNS0_13BindStateBaseE to void ()*), void (%"class.base::internal::BindStateBase"*)* nonnull @_ZN4base8internal9BindStateIMN6syncer18ModelTypeConnectorEFvNS2_9ModelTypeEEJNS_7WeakPtrIS3_EES4_EE7DestroyEPKNS0_13BindStateBaseE, i1 (%"class.base::internal::BindStateBase"*, i32)* nonnull @_ZN4base8internal23QueryCancellationTraitsINS0_9BindStateIMN6syncer18ModelTypeConnectorEFvNS3_9ModelTypeEEJNS_7WeakPtrIS4_EES5_EEEEEbPKNS0_13BindStateBaseENSB_21CancellationQueryModeE) #6, !noalias !17
  %11 = getelementptr inbounds i8, i8* %9, i64 32
  %12 = bitcast i8* %11 to <2 x i64>*
  store <2 x i64> <i64 41, i64 0>, <2 x i64>* %12, align 8, !noalias !17
  %13 = getelementptr inbounds i8, i8* %9, i64 48
  %14 = bitcast i8* %13 to %"class.base::internal::WeakReference"*
  %15 = getelementptr inbounds %"class.syncer::ModelTypeConnectorProxy", %"class.syncer::ModelTypeConnectorProxy"* %0, i64 0, i32 2, i32 0, i32 0
  call void @_ZN4base8internal13WeakReferenceC1ERKS1_(%"class.base::internal::WeakReference"* %14, %"class.base::internal::WeakReference"* dereferenceable(8) %15) #6, !noalias !17
  %16 = getelementptr inbounds i8, i8* %9, i64 56
  %17 = bitcast i8* %16 to i64*
  %18 = getelementptr inbounds %"class.syncer::ModelTypeConnectorProxy", %"class.syncer::ModelTypeConnectorProxy"* %0, i64 0, i32 2, i32 0, i32 1
  %19 = load i64, i64* %18, align 8, !noalias !17
  store i64 %19, i64* %17, align 8, !noalias !17
  %20 = getelementptr inbounds i8, i8* %9, i64 64
  %21 = bitcast i8* %20 to i32*
  store i32 %1, i32* %21, align 4, !noalias !17
  %22 = bitcast %"class.base::OnceCallback"* %4 to i8**
  store i8* %9, i8** %22, align 8, !alias.scope !17
  %23 = call zeroext i1 @_ZN4base10TaskRunner8PostTaskERKNS_8LocationENS_12OnceCallbackIFvvEEE(%"class.base::TaskRunner"* %7, %"class.base::Location"* nonnull dereferenceable(32) %3, %"class.base::OnceCallback"* nonnull %4) #6
  %24 = getelementptr inbounds %"class.base::OnceCallback", %"class.base::OnceCallback"* %4, i64 0, i32 0
  call void @_ZN4base8internal12CallbackBaseD2Ev(%"class.base::internal::CallbackBase"* nonnull %24) #6
  call void @llvm.lifetime.end.p0i8(i64 32, i8* nonnull %8) #6
  ret void
}

declare void @_ZN4base8internal13WeakReferenceC1ERKS1_(%"class.base::internal::WeakReference"*, %"class.base::internal::WeakReference"* dereferenceable(8)) unnamed_addr #3

declare void @_ZN4base16TaskRunnerTraits8DestructEPKNS_10TaskRunnerE(%"class.base::TaskRunner"*) local_unnamed_addr #3

; Function Attrs: nounwind
declare void @_ZN6syncer26DataTypeActivationResponseD1Ev(%"struct.syncer::DataTypeActivationResponse"*) unnamed_addr #1

; Function Attrs: nounwind ssp uwtable
define linkonce_odr hidden void @_ZN4base8internal7InvokerINS0_9BindStateIMN6syncer18ModelTypeConnectorEFvNS3_9ModelTypeENSt3__110unique_ptrINS3_26DataTypeActivationResponseENS6_14default_deleteIS8_EEEEEJNS_7WeakPtrIS4_EES5_SB_EEEFvvEE7RunOnceEPNS0_13BindStateBaseE(%"class.base::internal::BindStateBase"*) #0 comdat align 2 {
  %2 = alloca %"class.logging::CheckError", align 8
  %3 = getelementptr inbounds %"class.base::internal::BindStateBase", %"class.base::internal::BindStateBase"* %0, i64 1
  %4 = getelementptr inbounds %"class.base::internal::BindStateBase", %"class.base::internal::BindStateBase"* %0, i64 1, i32 2
  %5 = getelementptr inbounds void (%"class.base::internal::BindStateBase"*)*, void (%"class.base::internal::BindStateBase"*)** %4, i64 2
  %6 = bitcast void (%"class.base::internal::BindStateBase"*)** %5 to i32*
  %7 = bitcast void (%"class.base::internal::BindStateBase"*)** %4 to %"class.base::internal::WeakReference"*
  %8 = tail call zeroext i1 @_ZNK4base8internal13WeakReference7IsValidEv(%"class.base::internal::WeakReference"* %7) #6
  br i1 %8, label %9, label %48

9:                                                ; preds = %1
  %10 = getelementptr inbounds void (%"class.base::internal::BindStateBase"*)*, void (%"class.base::internal::BindStateBase"*)** %4, i64 1
  %11 = bitcast void (%"class.base::internal::BindStateBase"*)** %10 to %"class.syncer::ModelTypeConnector"**
  %12 = load %"class.syncer::ModelTypeConnector"*, %"class.syncer::ModelTypeConnector"** %11, align 8
  %13 = icmp eq %"class.syncer::ModelTypeConnector"* %12, null
  br i1 %13, label %48, label %14

14:                                               ; preds = %9
  %15 = bitcast %"class.base::internal::BindStateBase"* %3 to i64*
  %16 = load i64, i64* %15, align 8
  %17 = getelementptr inbounds %"class.base::internal::BindStateBase", %"class.base::internal::BindStateBase"* %0, i64 1, i32 1
  %18 = bitcast void ()** %17 to i64*
  %19 = load i64, i64* %18, align 8
  %20 = tail call zeroext i1 @_ZNK4base8internal13WeakReference7IsValidEv(%"class.base::internal::WeakReference"* %7) #6
  br i1 %20, label %24, label %21

21:                                               ; preds = %14
  %22 = bitcast %"class.logging::CheckError"* %2 to i8*
  call void @llvm.lifetime.start.p0i8(i64 8, i8* nonnull %22) #6
  call void @_ZN7logging10CheckError5CheckEPKciS2_(%"class.logging::CheckError"* nonnull sret %2, i8* getelementptr inbounds ([29 x i8], [29 x i8]* @.str.5, i64 0, i64 0), i32 251, i8* getelementptr inbounds ([15 x i8], [15 x i8]* @.str.6, i64 0, i64 0)) #6
  %23 = call dereferenceable(160) %"class.std::__1::basic_ostream"* @_ZN7logging10CheckError6streamEv(%"class.logging::CheckError"* nonnull %2) #6
  call void @_ZN7logging10CheckErrorD1Ev(%"class.logging::CheckError"* nonnull %2) #6
  call void @llvm.lifetime.end.p0i8(i64 8, i8* nonnull %22) #6
  br label %24

24:                                               ; preds = %21, %14
  %25 = call zeroext i1 @_ZNK4base8internal13WeakReference7IsValidEv(%"class.base::internal::WeakReference"* %7) #6
  %26 = bitcast void (%"class.base::internal::BindStateBase"*)** %10 to i8**
  %27 = load i8*, i8** %26, align 8
  %28 = select i1 %25, i8* %27, i8* null
  %29 = getelementptr inbounds i8, i8* %28, i64 %19
  %30 = bitcast i8* %29 to %"class.syncer::ModelTypeConnector"*
  %31 = and i64 %16, 1
  %32 = icmp eq i64 %31, 0
  br i1 %32, label %40, label %33

33:                                               ; preds = %24
  %34 = bitcast i8* %29 to i8**
  %35 = load i8*, i8** %34, align 8
  %36 = add i64 %16, -1
  %37 = getelementptr i8, i8* %35, i64 %36
  %38 = bitcast i8* %37 to void (%"class.syncer::ModelTypeConnector"*, i32, %"struct.syncer::DataTypeActivationResponse"*)**
  %39 = load void (%"class.syncer::ModelTypeConnector"*, i32, %"struct.syncer::DataTypeActivationResponse"*)*, void (%"class.syncer::ModelTypeConnector"*, i32, %"struct.syncer::DataTypeActivationResponse"*)** %38, align 8
  br label %42

40:                                               ; preds = %24
  %41 = inttoptr i64 %16 to void (%"class.syncer::ModelTypeConnector"*, i32, %"struct.syncer::DataTypeActivationResponse"*)*
  br label %42

42:                                               ; preds = %40, %33
  %43 = phi void (%"class.syncer::ModelTypeConnector"*, i32, %"struct.syncer::DataTypeActivationResponse"*)* [ %39, %33 ], [ %41, %40 ]
  %44 = load i32, i32* %6, align 4
  %45 = getelementptr inbounds void (%"class.base::internal::BindStateBase"*)*, void (%"class.base::internal::BindStateBase"*)** %4, i64 3
  %46 = bitcast void (%"class.base::internal::BindStateBase"*)** %45 to %"struct.syncer::DataTypeActivationResponse"**
  %47 = load %"struct.syncer::DataTypeActivationResponse"*, %"struct.syncer::DataTypeActivationResponse"** %46, align 8
  store %"struct.syncer::DataTypeActivationResponse"* null, %"struct.syncer::DataTypeActivationResponse"** %46, align 8
  call void %43(%"class.syncer::ModelTypeConnector"* %30, i32 %44, %"struct.syncer::DataTypeActivationResponse"* %47) #6
  br label %48

48:                                               ; preds = %1, %9, %42
  ret void
}

declare zeroext i1 @_ZNK4base8internal13WeakReference7IsValidEv(%"class.base::internal::WeakReference"*) local_unnamed_addr #3

declare void @_ZN7logging10CheckError5CheckEPKciS2_(%"class.logging::CheckError"* sret, i8*, i32, i8*) local_unnamed_addr #3

declare dereferenceable(160) %"class.std::__1::basic_ostream"* @_ZN7logging10CheckError6streamEv(%"class.logging::CheckError"*) local_unnamed_addr #3

; Function Attrs: nounwind
declare void @_ZN7logging10CheckErrorD1Ev(%"class.logging::CheckError"*) unnamed_addr #1

; Function Attrs: nobuiltin nofree
declare noalias nonnull i8* @_Znwm(i64) local_unnamed_addr #5

; Function Attrs: nounwind ssp uwtable
define linkonce_odr hidden void @_ZN4base8internal9BindStateIMN6syncer18ModelTypeConnectorEFvNS2_9ModelTypeENSt3__110unique_ptrINS2_26DataTypeActivationResponseENS5_14default_deleteIS7_EEEEEJNS_7WeakPtrIS3_EES4_SA_EE7DestroyEPKNS0_13BindStateBaseE(%"class.base::internal::BindStateBase"*) #0 comdat align 2 {
  %2 = icmp eq %"class.base::internal::BindStateBase"* %0, null
  br i1 %2, label %14, label %3

3:                                                ; preds = %1
  %4 = getelementptr inbounds %"class.base::internal::BindStateBase", %"class.base::internal::BindStateBase"* %0, i64 2, i32 1
  %5 = bitcast void ()** %4 to %"struct.syncer::DataTypeActivationResponse"**
  %6 = load %"struct.syncer::DataTypeActivationResponse"*, %"struct.syncer::DataTypeActivationResponse"** %5, align 8
  store %"struct.syncer::DataTypeActivationResponse"* null, %"struct.syncer::DataTypeActivationResponse"** %5, align 8
  %7 = icmp eq %"struct.syncer::DataTypeActivationResponse"* %6, null
  br i1 %7, label %10, label %8

8:                                                ; preds = %3
  tail call void @_ZN6syncer26DataTypeActivationResponseD1Ev(%"struct.syncer::DataTypeActivationResponse"* nonnull %6) #6
  %9 = bitcast %"struct.syncer::DataTypeActivationResponse"* %6 to i8*
  tail call void @_ZdlPv(i8* %9) #7
  br label %10

10:                                               ; preds = %3, %8
  %11 = getelementptr inbounds %"class.base::internal::BindStateBase", %"class.base::internal::BindStateBase"* %0, i64 1, i32 2
  %12 = bitcast void (%"class.base::internal::BindStateBase"*)** %11 to %"class.base::internal::WeakPtrBase"*
  tail call void @_ZN4base8internal11WeakPtrBaseD2Ev(%"class.base::internal::WeakPtrBase"* %12) #6
  %13 = bitcast %"class.base::internal::BindStateBase"* %0 to i8*
  tail call void @_ZdlPv(i8* %13) #7
  br label %14

14:                                               ; preds = %10, %1
  ret void
}

; Function Attrs: nounwind ssp uwtable
define linkonce_odr hidden zeroext i1 @_ZN4base8internal23QueryCancellationTraitsINS0_9BindStateIMN6syncer18ModelTypeConnectorEFvNS3_9ModelTypeENSt3__110unique_ptrINS3_26DataTypeActivationResponseENS6_14default_deleteIS8_EEEEEJNS_7WeakPtrIS4_EES5_SB_EEEEEbPKNS0_13BindStateBaseENSH_21CancellationQueryModeE(%"class.base::internal::BindStateBase"*, i32) #0 comdat {
  %3 = getelementptr inbounds %"class.base::internal::BindStateBase", %"class.base::internal::BindStateBase"* %0, i64 1, i32 2
  switch i32 %1, label %16 [
    i32 0, label %4
    i32 1, label %13
  ]

4:                                                ; preds = %2
  %5 = bitcast void (%"class.base::internal::BindStateBase"*)** %3 to %"class.base::internal::WeakReference"*
  %6 = tail call zeroext i1 @_ZNK4base8internal13WeakReference7IsValidEv(%"class.base::internal::WeakReference"* %5) #6
  %7 = getelementptr inbounds void (%"class.base::internal::BindStateBase"*)*, void (%"class.base::internal::BindStateBase"*)** %3, i64 1
  %8 = bitcast void (%"class.base::internal::BindStateBase"*)** %7 to %"class.syncer::ModelTypeConnector"**
  %9 = load %"class.syncer::ModelTypeConnector"*, %"class.syncer::ModelTypeConnector"** %8, align 8
  %10 = icmp ne %"class.syncer::ModelTypeConnector"* %9, null
  %11 = and i1 %6, %10
  %12 = xor i1 %11, true
  br label %16

13:                                               ; preds = %2
  %14 = bitcast void (%"class.base::internal::BindStateBase"*)** %3 to %"class.base::internal::WeakReference"*
  %15 = tail call zeroext i1 @_ZNK4base8internal13WeakReference10MaybeValidEv(%"class.base::internal::WeakReference"* %14) #6
  br label %16

16:                                               ; preds = %2, %4, %13
  %17 = phi i1 [ %15, %13 ], [ %12, %4 ], [ false, %2 ]
  ret i1 %17
}

declare void @_ZN4base8internal13BindStateBaseC2EPFvvEPFvPKS1_EPFbS5_NS1_21CancellationQueryModeEE(%"class.base::internal::BindStateBase"*, void ()*, void (%"class.base::internal::BindStateBase"*)*, i1 (%"class.base::internal::BindStateBase"*, i32)*) unnamed_addr #3

declare zeroext i1 @_ZNK4base8internal13WeakReference10MaybeValidEv(%"class.base::internal::WeakReference"*) local_unnamed_addr #3

; Function Attrs: nounwind ssp uwtable
define linkonce_odr hidden void @_ZN4base8internal7InvokerINS0_9BindStateIMN6syncer18ModelTypeConnectorEFvNS3_9ModelTypeEEJNS_7WeakPtrIS4_EES5_EEEFvvEE7RunOnceEPNS0_13BindStateBaseE(%"class.base::internal::BindStateBase"*) #0 comdat align 2 {
  %2 = alloca %"class.logging::CheckError", align 8
  %3 = getelementptr inbounds %"class.base::internal::BindStateBase", %"class.base::internal::BindStateBase"* %0, i64 1
  %4 = getelementptr inbounds %"class.base::internal::BindStateBase", %"class.base::internal::BindStateBase"* %0, i64 1, i32 2
  %5 = getelementptr inbounds void (%"class.base::internal::BindStateBase"*)*, void (%"class.base::internal::BindStateBase"*)** %4, i64 2
  %6 = bitcast void (%"class.base::internal::BindStateBase"*)** %5 to i32*
  %7 = bitcast void (%"class.base::internal::BindStateBase"*)** %4 to %"class.base::internal::WeakReference"*
  %8 = tail call zeroext i1 @_ZNK4base8internal13WeakReference7IsValidEv(%"class.base::internal::WeakReference"* %7) #6
  br i1 %8, label %9, label %45

9:                                                ; preds = %1
  %10 = getelementptr inbounds void (%"class.base::internal::BindStateBase"*)*, void (%"class.base::internal::BindStateBase"*)** %4, i64 1
  %11 = bitcast void (%"class.base::internal::BindStateBase"*)** %10 to %"class.syncer::ModelTypeConnector"**
  %12 = load %"class.syncer::ModelTypeConnector"*, %"class.syncer::ModelTypeConnector"** %11, align 8
  %13 = icmp eq %"class.syncer::ModelTypeConnector"* %12, null
  br i1 %13, label %45, label %14

14:                                               ; preds = %9
  %15 = bitcast %"class.base::internal::BindStateBase"* %3 to i64*
  %16 = load i64, i64* %15, align 8
  %17 = getelementptr inbounds %"class.base::internal::BindStateBase", %"class.base::internal::BindStateBase"* %0, i64 1, i32 1
  %18 = bitcast void ()** %17 to i64*
  %19 = load i64, i64* %18, align 8
  %20 = tail call zeroext i1 @_ZNK4base8internal13WeakReference7IsValidEv(%"class.base::internal::WeakReference"* %7) #6
  br i1 %20, label %24, label %21

21:                                               ; preds = %14
  %22 = bitcast %"class.logging::CheckError"* %2 to i8*
  call void @llvm.lifetime.start.p0i8(i64 8, i8* nonnull %22) #6
  call void @_ZN7logging10CheckError5CheckEPKciS2_(%"class.logging::CheckError"* nonnull sret %2, i8* getelementptr inbounds ([29 x i8], [29 x i8]* @.str.5, i64 0, i64 0), i32 251, i8* getelementptr inbounds ([15 x i8], [15 x i8]* @.str.6, i64 0, i64 0)) #6
  %23 = call dereferenceable(160) %"class.std::__1::basic_ostream"* @_ZN7logging10CheckError6streamEv(%"class.logging::CheckError"* nonnull %2) #6
  call void @_ZN7logging10CheckErrorD1Ev(%"class.logging::CheckError"* nonnull %2) #6
  call void @llvm.lifetime.end.p0i8(i64 8, i8* nonnull %22) #6
  br label %24

24:                                               ; preds = %21, %14
  %25 = call zeroext i1 @_ZNK4base8internal13WeakReference7IsValidEv(%"class.base::internal::WeakReference"* %7) #6
  %26 = bitcast void (%"class.base::internal::BindStateBase"*)** %10 to i8**
  %27 = load i8*, i8** %26, align 8
  %28 = select i1 %25, i8* %27, i8* null
  %29 = getelementptr inbounds i8, i8* %28, i64 %19
  %30 = bitcast i8* %29 to %"class.syncer::ModelTypeConnector"*
  %31 = and i64 %16, 1
  %32 = icmp eq i64 %31, 0
  br i1 %32, label %40, label %33

33:                                               ; preds = %24
  %34 = bitcast i8* %29 to i8**
  %35 = load i8*, i8** %34, align 8
  %36 = add i64 %16, -1
  %37 = getelementptr i8, i8* %35, i64 %36
  %38 = bitcast i8* %37 to void (%"class.syncer::ModelTypeConnector"*, i32)**
  %39 = load void (%"class.syncer::ModelTypeConnector"*, i32)*, void (%"class.syncer::ModelTypeConnector"*, i32)** %38, align 8
  br label %42

40:                                               ; preds = %24
  %41 = inttoptr i64 %16 to void (%"class.syncer::ModelTypeConnector"*, i32)*
  br label %42

42:                                               ; preds = %40, %33
  %43 = phi void (%"class.syncer::ModelTypeConnector"*, i32)* [ %39, %33 ], [ %41, %40 ]
  %44 = load i32, i32* %6, align 4
  call void %43(%"class.syncer::ModelTypeConnector"* %30, i32 %44) #6
  br label %45

45:                                               ; preds = %1, %9, %42
  ret void
}

; Function Attrs: nounwind ssp uwtable
define linkonce_odr hidden void @_ZN4base8internal9BindStateIMN6syncer18ModelTypeConnectorEFvNS2_9ModelTypeEEJNS_7WeakPtrIS3_EES4_EE7DestroyEPKNS0_13BindStateBaseE(%"class.base::internal::BindStateBase"*) #0 comdat align 2 {
  %2 = icmp eq %"class.base::internal::BindStateBase"* %0, null
  br i1 %2, label %7, label %3

3:                                                ; preds = %1
  %4 = getelementptr inbounds %"class.base::internal::BindStateBase", %"class.base::internal::BindStateBase"* %0, i64 1, i32 2
  %5 = bitcast void (%"class.base::internal::BindStateBase"*)** %4 to %"class.base::internal::WeakPtrBase"*
  tail call void @_ZN4base8internal11WeakPtrBaseD2Ev(%"class.base::internal::WeakPtrBase"* %5) #6
  %6 = bitcast %"class.base::internal::BindStateBase"* %0 to i8*
  tail call void @_ZdlPv(i8* %6) #7
  br label %7

7:                                                ; preds = %3, %1
  ret void
}

; Function Attrs: nounwind ssp uwtable
define linkonce_odr hidden zeroext i1 @_ZN4base8internal23QueryCancellationTraitsINS0_9BindStateIMN6syncer18ModelTypeConnectorEFvNS3_9ModelTypeEEJNS_7WeakPtrIS4_EES5_EEEEEbPKNS0_13BindStateBaseENSB_21CancellationQueryModeE(%"class.base::internal::BindStateBase"*, i32) #0 comdat {
  %3 = getelementptr inbounds %"class.base::internal::BindStateBase", %"class.base::internal::BindStateBase"* %0, i64 1, i32 2
  switch i32 %1, label %16 [
    i32 0, label %4
    i32 1, label %13
  ]

4:                                                ; preds = %2
  %5 = bitcast void (%"class.base::internal::BindStateBase"*)** %3 to %"class.base::internal::WeakReference"*
  %6 = tail call zeroext i1 @_ZNK4base8internal13WeakReference7IsValidEv(%"class.base::internal::WeakReference"* %5) #6
  %7 = getelementptr inbounds void (%"class.base::internal::BindStateBase"*)*, void (%"class.base::internal::BindStateBase"*)** %3, i64 1
  %8 = bitcast void (%"class.base::internal::BindStateBase"*)** %7 to %"class.syncer::ModelTypeConnector"**
  %9 = load %"class.syncer::ModelTypeConnector"*, %"class.syncer::ModelTypeConnector"** %8, align 8
  %10 = icmp ne %"class.syncer::ModelTypeConnector"* %9, null
  %11 = and i1 %6, %10
  %12 = xor i1 %11, true
  br label %16

13:                                               ; preds = %2
  %14 = bitcast void (%"class.base::internal::BindStateBase"*)** %3 to %"class.base::internal::WeakReference"*
  %15 = tail call zeroext i1 @_ZNK4base8internal13WeakReference10MaybeValidEv(%"class.base::internal::WeakReference"* %14) #6
  br label %16

16:                                               ; preds = %2, %4, %13
  %17 = phi i1 [ %15, %13 ], [ %12, %4 ], [ false, %2 ]
  ret i1 %17
}

attributes #0 = { nounwind ssp uwtable "correctly-rounded-divide-sqrt-fp-math"="false" "disable-tail-calls"="false" "less-precise-fpmad"="false" "min-legal-vector-width"="0" "no-frame-pointer-elim"="false" "no-frame-pointer-elim-non-leaf" "no-infs-fp-math"="false" "no-jump-tables"="false" "no-nans-fp-math"="false" "no-signed-zeros-fp-math"="false" "no-trapping-math"="false" "null-pointer-is-valid"="true" "stack-protector-buffer-size"="4" "target-cpu"="x86-64" "target-features"="+cx8,+fxsr,+mmx,+sse,+sse2,+sse3,+x87" "unsafe-fp-math"="false" "use-soft-float"="false" }
attributes #1 = { nounwind "correctly-rounded-divide-sqrt-fp-math"="false" "disable-tail-calls"="false" "less-precise-fpmad"="false" "no-frame-pointer-elim"="false" "no-frame-pointer-elim-non-leaf" "no-infs-fp-math"="false" "no-nans-fp-math"="false" "no-signed-zeros-fp-math"="false" "no-trapping-math"="false" "null-pointer-is-valid"="true" "stack-protector-buffer-size"="4" "target-cpu"="x86-64" "target-features"="+cx8,+fxsr,+mmx,+sse,+sse2,+sse3,+x87" "unsafe-fp-math"="false" "use-soft-float"="false" }
attributes #2 = { nobuiltin nounwind "correctly-rounded-divide-sqrt-fp-math"="false" "disable-tail-calls"="false" "less-precise-fpmad"="false" "no-frame-pointer-elim"="false" "no-frame-pointer-elim-non-leaf" "no-infs-fp-math"="false" "no-nans-fp-math"="false" "no-signed-zeros-fp-math"="false" "no-trapping-math"="false" "null-pointer-is-valid"="true" "stack-protector-buffer-size"="4" "target-cpu"="x86-64" "target-features"="+cx8,+fxsr,+mmx,+sse,+sse2,+sse3,+x87" "unsafe-fp-math"="false" "use-soft-float"="false" }
attributes #3 = { "correctly-rounded-divide-sqrt-fp-math"="false" "disable-tail-calls"="false" "less-precise-fpmad"="false" "no-frame-pointer-elim"="false" "no-frame-pointer-elim-non-leaf" "no-infs-fp-math"="false" "no-nans-fp-math"="false" "no-signed-zeros-fp-math"="false" "no-trapping-math"="false" "null-pointer-is-valid"="true" "stack-protector-buffer-size"="4" "target-cpu"="x86-64" "target-features"="+cx8,+fxsr,+mmx,+sse,+sse2,+sse3,+x87" "unsafe-fp-math"="false" "use-soft-float"="false" }
attributes #4 = { argmemonly nounwind }
attributes #5 = { nobuiltin nofree "correctly-rounded-divide-sqrt-fp-math"="false" "disable-tail-calls"="false" "less-precise-fpmad"="false" "no-frame-pointer-elim"="false" "no-frame-pointer-elim-non-leaf" "no-infs-fp-math"="false" "no-nans-fp-math"="false" "no-signed-zeros-fp-math"="false" "no-trapping-math"="false" "null-pointer-is-valid"="true" "stack-protector-buffer-size"="4" "target-cpu"="x86-64" "target-features"="+cx8,+fxsr,+mmx,+sse,+sse2,+sse3,+x87" "unsafe-fp-math"="false" "use-soft-float"="false" }
attributes #6 = { nounwind }
attributes #7 = { builtin nounwind }

!llvm.module.flags = !{!0, !1}

!0 = !{i32 1, !"wchar_size", i32 4}
!1 = !{i32 7, !"PIC Level", i32 2}
!2 = !{!3, !5}
!3 = distinct !{!3, !4, !"_ZN4base8internal8BindImplINS_12OnceCallbackEMN6syncer18ModelTypeConnectorEFvNS3_9ModelTypeENSt3__110unique_ptrINS3_26DataTypeActivationResponseENS6_14default_deleteIS8_EEEEEJRNS_7WeakPtrIS4_EERS5_SB_EEEDcOT0_DpOT1_: argument 0"}
!4 = distinct !{!4, !"_ZN4base8internal8BindImplINS_12OnceCallbackEMN6syncer18ModelTypeConnectorEFvNS3_9ModelTypeENSt3__110unique_ptrINS3_26DataTypeActivationResponseENS6_14default_deleteIS8_EEEEEJRNS_7WeakPtrIS4_EERS5_SB_EEEDcOT0_DpOT1_"}
!5 = distinct !{!5, !6, !"_ZN4base8BindOnceIMN6syncer18ModelTypeConnectorEFvNS1_9ModelTypeENSt3__110unique_ptrINS1_26DataTypeActivationResponseENS4_14default_deleteIS6_EEEEEJRNS_7WeakPtrIS2_EERS3_S9_EEENS_12OnceCallbackINS_8internal14BindTypeHelperIT_JDpT0_EE14UnboundRunTypeEEEOSJ_DpOSK_: argument 0"}
!6 = distinct !{!6, !"_ZN4base8BindOnceIMN6syncer18ModelTypeConnectorEFvNS1_9ModelTypeENSt3__110unique_ptrINS1_26DataTypeActivationResponseENS4_14default_deleteIS6_EEEEEJRNS_7WeakPtrIS2_EERS3_S9_EEENS_12OnceCallbackINS_8internal14BindTypeHelperIT_JDpT0_EE14UnboundRunTypeEEEOSJ_DpOSK_"}
!7 = !{!8, !10}
!8 = distinct !{!8, !9, !"_ZN4base8internal8BindImplINS_12OnceCallbackEMN6syncer18ModelTypeConnectorEFvNS3_9ModelTypeEEJRNS_7WeakPtrIS4_EERS5_EEEDcOT0_DpOT1_: argument 0"}
!9 = distinct !{!9, !"_ZN4base8internal8BindImplINS_12OnceCallbackEMN6syncer18ModelTypeConnectorEFvNS3_9ModelTypeEEJRNS_7WeakPtrIS4_EERS5_EEEDcOT0_DpOT1_"}
!10 = distinct !{!10, !11, !"_ZN4base8BindOnceIMN6syncer18ModelTypeConnectorEFvNS1_9ModelTypeEEJRNS_7WeakPtrIS2_EERS3_EEENS_12OnceCallbackINS_8internal14BindTypeHelperIT_JDpT0_EE14UnboundRunTypeEEEOSD_DpOSE_: argument 0"}
!11 = distinct !{!11, !"_ZN4base8BindOnceIMN6syncer18ModelTypeConnectorEFvNS1_9ModelTypeEEJRNS_7WeakPtrIS2_EERS3_EEENS_12OnceCallbackINS_8internal14BindTypeHelperIT_JDpT0_EE14UnboundRunTypeEEEOSD_DpOSE_"}
!12 = !{!13, !15}
!13 = distinct !{!13, !14, !"_ZN4base8internal8BindImplINS_12OnceCallbackEMN6syncer18ModelTypeConnectorEFvNS3_9ModelTypeEEJRNS_7WeakPtrIS4_EERS5_EEEDcOT0_DpOT1_: argument 0"}
!14 = distinct !{!14, !"_ZN4base8internal8BindImplINS_12OnceCallbackEMN6syncer18ModelTypeConnectorEFvNS3_9ModelTypeEEJRNS_7WeakPtrIS4_EERS5_EEEDcOT0_DpOT1_"}
!15 = distinct !{!15, !16, !"_ZN4base8BindOnceIMN6syncer18ModelTypeConnectorEFvNS1_9ModelTypeEEJRNS_7WeakPtrIS2_EERS3_EEENS_12OnceCallbackINS_8internal14BindTypeHelperIT_JDpT0_EE14UnboundRunTypeEEEOSD_DpOSE_: argument 0"}
!16 = distinct !{!16, !"_ZN4base8BindOnceIMN6syncer18ModelTypeConnectorEFvNS1_9ModelTypeEEJRNS_7WeakPtrIS2_EERS3_EEENS_12OnceCallbackINS_8internal14BindTypeHelperIT_JDpT0_EE14UnboundRunTypeEEEOSD_DpOSE_"}
!17 = !{!18, !20}
!18 = distinct !{!18, !19, !"_ZN4base8internal8BindImplINS_12OnceCallbackEMN6syncer18ModelTypeConnectorEFvNS3_9ModelTypeEEJRNS_7WeakPtrIS4_EERS5_EEEDcOT0_DpOT1_: argument 0"}
!19 = distinct !{!19, !"_ZN4base8internal8BindImplINS_12OnceCallbackEMN6syncer18ModelTypeConnectorEFvNS3_9ModelTypeEEJRNS_7WeakPtrIS4_EERS5_EEEDcOT0_DpOT1_"}
!20 = distinct !{!20, !21, !"_ZN4base8BindOnceIMN6syncer18ModelTypeConnectorEFvNS1_9ModelTypeEEJRNS_7WeakPtrIS2_EERS3_EEENS_12OnceCallbackINS_8internal14BindTypeHelperIT_JDpT0_EE14UnboundRunTypeEEEOSD_DpOSE_: argument 0"}
!21 = distinct !{!21, !"_ZN4base8BindOnceIMN6syncer18ModelTypeConnectorEFvNS1_9ModelTypeEEJRNS_7WeakPtrIS2_EERS3_EEENS_12OnceCallbackINS_8internal14BindTypeHelperIT_JDpT0_EE14UnboundRunTypeEEEOSD_DpOSE_"}
