; ModuleID = '../../chrome/browser/net/net_error_tab_helper.cc'
source_filename = "../../chrome/browser/net/net_error_tab_helper.cc"
target datalayout = "e-m:e-i64:64-f80:128-n8:16:32:64-S128"
target triple = "x86_64-unknown-linux-gnu"

module asm ".symver exp, exp@GLIBC_2.2.5"
module asm ".symver exp2, exp2@GLIBC_2.2.5"
module asm ".symver exp2f, exp2f@GLIBC_2.2.5"
module asm ".symver expf, expf@GLIBC_2.2.5"
module asm ".symver lgamma, lgamma@GLIBC_2.2.5"
module asm ".symver lgammaf, lgammaf@GLIBC_2.2.5"
module asm ".symver lgammal, lgammal@GLIBC_2.2.5"
module asm ".symver log, log@GLIBC_2.2.5"
module asm ".symver log2, log2@GLIBC_2.2.5"
module asm ".symver log2f, log2f@GLIBC_2.2.5"
module asm ".symver logf, logf@GLIBC_2.2.5"
module asm ".symver pow, pow@GLIBC_2.2.5"
module asm ".symver powf, powf@GLIBC_2.2.5"

%"class.chrome_browser_net::NetErrorTabHelper" = type { %"class.content::WebContentsObserver", %"class.content::WebContentsUserData", %"class.chrome::mojom::NetErrorPageSupport", %"class.chrome::mojom::NetworkDiagnostics", %"class.chrome::mojom::NetworkEasterEgg", %"class.content::WebContentsFrameReceiverSet", %"class.content::WebContentsFrameReceiverSet.35", %"class.content::WebContentsFrameReceiverSet.37", i8, i8, i8, i32, %"class.base::RepeatingCallback.39", %class.PrefMember, %class.PrefMember.131, %"class.base::WeakPtrFactory.133" }
%"class.content::WebContentsObserver" = type { %"class.IPC::Listener", %"class.content::WebContents"* }
%"class.IPC::Listener" = type { i32 (...)** }
%"class.content::WebContents" = type <{ %"class.content::PageNavigator", %"class.base::SupportsUserData.base", [7 x i8] }>
%"class.content::PageNavigator" = type { i32 (...)** }
%"class.base::SupportsUserData.base" = type <{ i32 (...)**, %"class.std::__1::map", %"class.base::SequenceCheckerDoNothing" }>
%"class.std::__1::map" = type { %"class.std::__1::__tree" }
%"class.std::__1::__tree" = type { %"class.std::__1::__tree_end_node"*, %"class.std::__1::__compressed_pair", %"class.std::__1::__compressed_pair.1" }
%"class.std::__1::__tree_end_node" = type { %"class.std::__1::__tree_node_base"* }
%"class.std::__1::__tree_node_base" = type <{ %"class.std::__1::__tree_end_node", %"class.std::__1::__tree_node_base"*, %"class.std::__1::__tree_end_node"*, i8, [7 x i8] }>
%"class.std::__1::__compressed_pair" = type { %"struct.std::__1::__compressed_pair_elem" }
%"struct.std::__1::__compressed_pair_elem" = type { %"class.std::__1::__tree_end_node" }
%"class.std::__1::__compressed_pair.1" = type { %"struct.std::__1::__compressed_pair_elem.2" }
%"struct.std::__1::__compressed_pair_elem.2" = type { i64 }
%"class.base::SequenceCheckerDoNothing" = type { i8 }
%"class.content::WebContentsUserData" = type { %"class.base::SupportsUserData::Data" }
%"class.base::SupportsUserData::Data" = type { i32 (...)** }
%"class.chrome::mojom::NetErrorPageSupport" = type { i32 (...)** }
%"class.chrome::mojom::NetworkDiagnostics" = type { i32 (...)** }
%"class.chrome::mojom::NetworkEasterEgg" = type { i32 (...)** }
%"class.content::WebContentsFrameReceiverSet" = type { %"class.content::WebContentsReceiverSet", %"class.content::WebContentsFrameReceiverSet<chrome::mojom::NetworkDiagnostics>::FrameInterfaceBinder", %"class.content::RenderFrameHost"* }
%"class.content::WebContentsReceiverSet" = type { %"class.base::OnceCallback", %"class.content::WebContentsReceiverSet::Binder"* }
%"class.base::OnceCallback" = type { %"class.base::internal::CallbackBase" }
%"class.base::internal::CallbackBase" = type { %class.scoped_refptr }
%class.scoped_refptr = type { %"class.base::internal::BindStateBase"* }
%"class.base::internal::BindStateBase" = type { %"class.base::RefCountedThreadSafe", void ()*, void (%"class.base::internal::BindStateBase"*)*, i1 (%"class.base::internal::BindStateBase"*, i32)* }
%"class.base::RefCountedThreadSafe" = type { %"class.base::subtle::RefCountedThreadSafeBase" }
%"class.base::subtle::RefCountedThreadSafeBase" = type { %"class.base::AtomicRefCount" }
%"class.base::AtomicRefCount" = type { %"struct.std::__1::atomic" }
%"struct.std::__1::atomic" = type { %"struct.std::__1::__atomic_base" }
%"struct.std::__1::__atomic_base" = type { %"struct.std::__1::__atomic_base.4" }
%"struct.std::__1::__atomic_base.4" = type { %"struct.std::__1::__cxx_atomic_impl" }
%"struct.std::__1::__cxx_atomic_impl" = type { %"struct.std::__1::__cxx_atomic_base_impl" }
%"struct.std::__1::__cxx_atomic_base_impl" = type { i32 }
%"class.content::WebContentsReceiverSet::Binder" = type { i32 (...)** }
%"class.content::WebContentsFrameReceiverSet<chrome::mojom::NetworkDiagnostics>::FrameInterfaceBinder" = type { %"class.content::WebContentsReceiverSet::Binder", %"class.content::WebContentsObserver", %"class.chrome::mojom::NetworkDiagnostics"*, %"class.mojo::ReceiverSetBase", %"class.std::__1::map.24" }
%"class.mojo::ReceiverSetBase" = type { %"class.mojo::ReceiverSetState" }
%"class.mojo::ReceiverSetState" = type { %"class.base::RepeatingCallback", %"class.base::RepeatingCallback.5", i64, %"class.std::__1::map.6", i8*, i64, %"class.base::WeakPtrFactory" }
%"class.base::RepeatingCallback" = type { %"class.base::internal::CallbackBaseCopyable" }
%"class.base::internal::CallbackBaseCopyable" = type { %"class.base::internal::CallbackBase" }
%"class.base::RepeatingCallback.5" = type { %"class.base::internal::CallbackBaseCopyable" }
%"class.std::__1::map.6" = type { %"class.std::__1::__tree.7" }
%"class.std::__1::__tree.7" = type { %"class.std::__1::__tree_end_node"*, %"class.std::__1::__compressed_pair.8", %"class.std::__1::__compressed_pair.12" }
%"class.std::__1::__compressed_pair.8" = type { %"struct.std::__1::__compressed_pair_elem" }
%"class.std::__1::__compressed_pair.12" = type { %"struct.std::__1::__compressed_pair_elem.2" }
%"class.base::WeakPtrFactory" = type { %"class.base::internal::WeakPtrFactoryBase" }
%"class.base::internal::WeakPtrFactoryBase" = type { %"class.base::internal::WeakReferenceOwner", i64 }
%"class.base::internal::WeakReferenceOwner" = type { %class.scoped_refptr.17 }
%class.scoped_refptr.17 = type { %"class.base::internal::WeakReference::Flag"* }
%"class.base::internal::WeakReference::Flag" = type <{ %"class.base::RefCountedThreadSafe.18", %"class.base::AtomicFlag", [3 x i8] }>
%"class.base::RefCountedThreadSafe.18" = type { %"class.base::subtle::RefCountedThreadSafeBase" }
%"class.base::AtomicFlag" = type { %"struct.std::__1::atomic.19" }
%"struct.std::__1::atomic.19" = type { %"struct.std::__1::__atomic_base.20" }
%"struct.std::__1::__atomic_base.20" = type { %"struct.std::__1::__atomic_base.21" }
%"struct.std::__1::__atomic_base.21" = type { %"struct.std::__1::__cxx_atomic_impl.22" }
%"struct.std::__1::__cxx_atomic_impl.22" = type { %"struct.std::__1::__cxx_atomic_base_impl.23" }
%"struct.std::__1::__cxx_atomic_base_impl.23" = type { i8 }
%"class.std::__1::map.24" = type { %"class.std::__1::__tree.25" }
%"class.std::__1::__tree.25" = type { %"class.std::__1::__tree_end_node"*, %"class.std::__1::__compressed_pair.26", %"class.std::__1::__compressed_pair.30" }
%"class.std::__1::__compressed_pair.26" = type { %"struct.std::__1::__compressed_pair_elem" }
%"class.std::__1::__compressed_pair.30" = type { %"struct.std::__1::__compressed_pair_elem.2" }
%"class.content::RenderFrameHost" = type { %"class.IPC::Listener", %"class.IPC::Sender" }
%"class.IPC::Sender" = type { i32 (...)** }
%"class.content::WebContentsFrameReceiverSet.35" = type { %"class.content::WebContentsReceiverSet", %"class.content::WebContentsFrameReceiverSet<chrome::mojom::NetworkEasterEgg>::FrameInterfaceBinder", %"class.content::RenderFrameHost"* }
%"class.content::WebContentsFrameReceiverSet<chrome::mojom::NetworkEasterEgg>::FrameInterfaceBinder" = type { %"class.content::WebContentsReceiverSet::Binder", %"class.content::WebContentsObserver", %"class.chrome::mojom::NetworkEasterEgg"*, %"class.mojo::ReceiverSetBase.36", %"class.std::__1::map.24" }
%"class.mojo::ReceiverSetBase.36" = type { %"class.mojo::ReceiverSetState" }
%"class.content::WebContentsFrameReceiverSet.37" = type { %"class.content::WebContentsReceiverSet", %"class.content::WebContentsFrameReceiverSet<chrome::mojom::NetErrorPageSupport>::FrameInterfaceBinder", %"class.content::RenderFrameHost"* }
%"class.content::WebContentsFrameReceiverSet<chrome::mojom::NetErrorPageSupport>::FrameInterfaceBinder" = type { %"class.content::WebContentsReceiverSet::Binder", %"class.content::WebContentsObserver", %"class.chrome::mojom::NetErrorPageSupport"*, %"class.mojo::ReceiverSetBase.38", %"class.std::__1::map.24" }
%"class.mojo::ReceiverSetBase.38" = type { %"class.mojo::ReceiverSetState" }
%"class.base::RepeatingCallback.39" = type { %"class.base::internal::CallbackBaseCopyable" }
%class.PrefMember = type { %"class.subtle::PrefMemberBase.base", %class.scoped_refptr.127 }
%"class.subtle::PrefMemberBase.base" = type <{ %class.PrefObserver, %"class.std::__1::basic_string", %"class.base::RepeatingCallback.45", %class.PrefService*, i8 }>
%class.PrefObserver = type { i32 (...)** }
%"class.std::__1::basic_string" = type { %"class.std::__1::__compressed_pair.40" }
%"class.std::__1::__compressed_pair.40" = type { %"struct.std::__1::__compressed_pair_elem.41" }
%"struct.std::__1::__compressed_pair_elem.41" = type { %"struct.std::__1::basic_string<char, std::__1::char_traits<char>, std::__1::allocator<char> >::__rep" }
%"struct.std::__1::basic_string<char, std::__1::char_traits<char>, std::__1::allocator<char> >::__rep" = type { %union.anon }
%union.anon = type { %"struct.std::__1::basic_string<char, std::__1::char_traits<char>, std::__1::allocator<char> >::__long" }
%"struct.std::__1::basic_string<char, std::__1::char_traits<char>, std::__1::allocator<char> >::__long" = type { i8*, i64, i64 }
%"class.base::RepeatingCallback.45" = type { %"class.base::internal::CallbackBaseCopyable" }
%class.PrefService = type { i32 (...)**, %"class.std::__1::unique_ptr", %"class.std::__1::unique_ptr.49", %class.scoped_refptr.73, %"class.base::RepeatingCallback.74", %class.scoped_refptr.75, %"class.std::__1::unordered_map.103" }
%"class.std::__1::unique_ptr" = type { %"class.std::__1::__compressed_pair.46" }
%"class.std::__1::__compressed_pair.46" = type { %"struct.std::__1::__compressed_pair_elem.47" }
%"struct.std::__1::__compressed_pair_elem.47" = type { %class.PrefNotifierImpl* }
%class.PrefNotifierImpl = type opaque
%"class.std::__1::unique_ptr.49" = type { %"class.std::__1::__compressed_pair.50" }
%"class.std::__1::__compressed_pair.50" = type { %"struct.std::__1::__compressed_pair_elem.51" }
%"struct.std::__1::__compressed_pair_elem.51" = type { %class.PrefValueStore* }
%class.PrefValueStore = type { i32 (...)**, [7 x %"class.PrefValueStore::PrefStoreKeeper"], %"class.base::RepeatingCallback.45", %class.PrefNotifier*, %"class.std::__1::map.53", i8, %"class.std::__1::unique_ptr.64" }
%"class.PrefValueStore::PrefStoreKeeper" = type <{ %"class.PrefStore::Observer", %class.PrefValueStore*, %class.scoped_refptr.52, i32, [4 x i8] }>
%"class.PrefStore::Observer" = type { i32 (...)** }
%class.scoped_refptr.52 = type { %class.PrefStore* }
%class.PrefStore = type <{ i32 (...)**, %"class.base::RefCounted", [4 x i8] }>
%"class.base::RefCounted" = type { %"class.base::subtle::RefCountedBase" }
%"class.base::subtle::RefCountedBase" = type { i32 }
%class.PrefNotifier = type opaque
%"class.std::__1::map.53" = type { %"class.std::__1::__tree.54" }
%"class.std::__1::__tree.54" = type { %"class.std::__1::__tree_end_node"*, %"class.std::__1::__compressed_pair.55", %"class.std::__1::__compressed_pair.59" }
%"class.std::__1::__compressed_pair.55" = type { %"struct.std::__1::__compressed_pair_elem" }
%"class.std::__1::__compressed_pair.59" = type { %"struct.std::__1::__compressed_pair_elem.2" }
%"class.std::__1::unique_ptr.64" = type { %"class.std::__1::__compressed_pair.65" }
%"class.std::__1::__compressed_pair.65" = type { %"struct.std::__1::__compressed_pair_elem.66" }
%"struct.std::__1::__compressed_pair_elem.66" = type { %"class.PrefValueStore::Delegate"* }
%"class.PrefValueStore::Delegate" = type { i32 (...)** }
%class.scoped_refptr.73 = type { %class.PersistentPrefStore* }
%class.PersistentPrefStore = type { %class.WriteablePrefStore.base, [4 x i8] }
%class.WriteablePrefStore.base = type { %class.PrefStore.base }
%class.PrefStore.base = type <{ i32 (...)**, %"class.base::RefCounted" }>
%"class.base::RepeatingCallback.74" = type { %"class.base::internal::CallbackBaseCopyable" }
%class.scoped_refptr.75 = type { %class.PrefRegistry* }
%class.PrefRegistry = type { i32 (...)**, %"class.base::RefCounted.76", %class.scoped_refptr.77, %"class.std::__1::unordered_map", %"class.std::__1::set" }
%"class.base::RefCounted.76" = type { %"class.base::subtle::RefCountedBase" }
%class.scoped_refptr.77 = type { %class.DefaultPrefStore* }
%class.DefaultPrefStore = type opaque
%"class.std::__1::unordered_map" = type { %"class.std::__1::__hash_table" }
%"class.std::__1::__hash_table" = type <{ %"class.std::__1::unique_ptr.78", %"class.std::__1::__compressed_pair.86", %"class.std::__1::__compressed_pair.91", %"class.std::__1::__compressed_pair.93", [4 x i8] }>
%"class.std::__1::unique_ptr.78" = type { %"class.std::__1::__compressed_pair.79" }
%"class.std::__1::__compressed_pair.79" = type { %"struct.std::__1::__compressed_pair_elem.80", %"struct.std::__1::__compressed_pair_elem.81" }
%"struct.std::__1::__compressed_pair_elem.80" = type { %"struct.std::__1::__hash_node_base"** }
%"struct.std::__1::__hash_node_base" = type { %"struct.std::__1::__hash_node_base"* }
%"struct.std::__1::__compressed_pair_elem.81" = type { %"class.std::__1::__bucket_list_deallocator" }
%"class.std::__1::__bucket_list_deallocator" = type { %"class.std::__1::__compressed_pair.82" }
%"class.std::__1::__compressed_pair.82" = type { %"struct.std::__1::__compressed_pair_elem.2" }
%"class.std::__1::__compressed_pair.86" = type { %"struct.std::__1::__compressed_pair_elem.87" }
%"struct.std::__1::__compressed_pair_elem.87" = type { %"struct.std::__1::__hash_node_base" }
%"class.std::__1::__compressed_pair.91" = type { %"struct.std::__1::__compressed_pair_elem.2" }
%"class.std::__1::__compressed_pair.93" = type { %"struct.std::__1::__compressed_pair_elem.94" }
%"struct.std::__1::__compressed_pair_elem.94" = type { float }
%"class.std::__1::set" = type { %"class.std::__1::__tree.96" }
%"class.std::__1::__tree.96" = type { %"class.std::__1::__tree_end_node"*, %"class.std::__1::__compressed_pair.97", %"class.std::__1::__compressed_pair.101" }
%"class.std::__1::__compressed_pair.97" = type { %"struct.std::__1::__compressed_pair_elem" }
%"class.std::__1::__compressed_pair.101" = type { %"struct.std::__1::__compressed_pair_elem.2" }
%"class.std::__1::unordered_map.103" = type { %"class.std::__1::__hash_table.104" }
%"class.std::__1::__hash_table.104" = type <{ %"class.std::__1::unique_ptr.105", %"class.std::__1::__compressed_pair.115", %"class.std::__1::__compressed_pair.120", %"class.std::__1::__compressed_pair.123", [4 x i8] }>
%"class.std::__1::unique_ptr.105" = type { %"class.std::__1::__compressed_pair.106" }
%"class.std::__1::__compressed_pair.106" = type { %"struct.std::__1::__compressed_pair_elem.107", %"struct.std::__1::__compressed_pair_elem.109" }
%"struct.std::__1::__compressed_pair_elem.107" = type { %"struct.std::__1::__hash_node_base.108"** }
%"struct.std::__1::__hash_node_base.108" = type { %"struct.std::__1::__hash_node_base.108"* }
%"struct.std::__1::__compressed_pair_elem.109" = type { %"class.std::__1::__bucket_list_deallocator.110" }
%"class.std::__1::__bucket_list_deallocator.110" = type { %"class.std::__1::__compressed_pair.111" }
%"class.std::__1::__compressed_pair.111" = type { %"struct.std::__1::__compressed_pair_elem.2" }
%"class.std::__1::__compressed_pair.115" = type { %"struct.std::__1::__compressed_pair_elem.116" }
%"struct.std::__1::__compressed_pair_elem.116" = type { %"struct.std::__1::__hash_node_base.108" }
%"class.std::__1::__compressed_pair.120" = type { %"struct.std::__1::__compressed_pair_elem.2" }
%"class.std::__1::__compressed_pair.123" = type { %"struct.std::__1::__compressed_pair_elem.94" }
%class.scoped_refptr.127 = type { %"class.PrefMember<bool>::Internal"* }
%"class.PrefMember<bool>::Internal" = type { %"class.subtle::PrefMemberBase::Internal.base", i8, [4 x i8] }
%"class.subtle::PrefMemberBase::Internal.base" = type <{ i32 (...)**, %"class.base::RefCountedThreadSafe.128", [4 x i8], %class.scoped_refptr.129, i8, i8, i8 }>
%"class.base::RefCountedThreadSafe.128" = type { %"class.base::subtle::RefCountedThreadSafeBase" }
%class.scoped_refptr.129 = type { %"class.base::SequencedTaskRunner"* }
%"class.base::SequencedTaskRunner" = type { %"class.base::TaskRunner.base", [4 x i8] }
%"class.base::TaskRunner.base" = type <{ i32 (...)**, %"class.base::RefCountedThreadSafe.130" }>
%"class.base::RefCountedThreadSafe.130" = type { %"class.base::subtle::RefCountedThreadSafeBase" }
%class.PrefMember.131 = type { %"class.subtle::PrefMemberBase.base", %class.scoped_refptr.132 }
%class.scoped_refptr.132 = type { %"class.PrefMember<int>::Internal"* }
%"class.PrefMember<int>::Internal" = type { %"class.subtle::PrefMemberBase::Internal.base", i32 }
%"class.base::WeakPtrFactory.133" = type { %"class.base::internal::WeakPtrFactoryBase" }
%"class.subtle::PrefMemberBase::Internal" = type <{ i32 (...)**, %"class.base::RefCountedThreadSafe.128", [4 x i8], %class.scoped_refptr.129, i8, i8, i8, [5 x i8] }>
%"class.subtle::PrefMemberBase" = type <{ %class.PrefObserver, %"class.std::__1::basic_string", %"class.base::RepeatingCallback.45", %class.PrefService*, i8, [7 x i8] }>
%"class.std::__1::__tree_node" = type { %"class.std::__1::__tree_node_base.base", %"struct.std::__1::__value_type" }
%"class.std::__1::__tree_node_base.base" = type <{ %"class.std::__1::__tree_end_node", %"class.std::__1::__tree_node_base"*, %"class.std::__1::__tree_end_node"*, i8 }>
%"struct.std::__1::__value_type" = type { %"struct.std::__1::pair.295" }
%"struct.std::__1::pair.295" = type { %"class.content::RenderFrameHost"*, %"class.std::__1::vector.296" }
%"class.std::__1::vector.296" = type { %"class.std::__1::__vector_base.297" }
%"class.std::__1::__vector_base.297" = type { i64*, i64*, %"class.std::__1::__compressed_pair.298" }
%"class.std::__1::__compressed_pair.298" = type { %"struct.std::__1::__compressed_pair_elem.299" }
%"struct.std::__1::__compressed_pair_elem.299" = type { i64* }
%"class.mojo::PendingAssociatedReceiver.423" = type { %"class.mojo::ScopedInterfaceEndpointHandle" }
%"class.mojo::ScopedInterfaceEndpointHandle" = type { %class.scoped_refptr.150 }
%class.scoped_refptr.150 = type { %"class.mojo::ScopedInterfaceEndpointHandle::State"* }
%"class.mojo::ScopedInterfaceEndpointHandle::State" = type opaque
%"class.mojo::AssociatedRemote" = type { %"class.mojo::internal::AssociatedInterfacePtrState" }
%"class.mojo::internal::AssociatedInterfacePtrState" = type { %"class.mojo::internal::AssociatedInterfacePtrStateBase.base", %"class.std::__1::unique_ptr.196" }
%"class.mojo::internal::AssociatedInterfacePtrStateBase.base" = type <{ %"class.std::__1::unique_ptr.134", i32 }>
%"class.std::__1::unique_ptr.134" = type { %"class.std::__1::__compressed_pair.135" }
%"class.std::__1::__compressed_pair.135" = type { %"struct.std::__1::__compressed_pair_elem.136" }
%"struct.std::__1::__compressed_pair_elem.136" = type { %"class.mojo::InterfaceEndpointClient"* }
%"class.mojo::InterfaceEndpointClient" = type { %"class.mojo::MessageReceiverWithResponder", i8, %"class.base::RepeatingCallback", %"class.base::OnceCallback.137", %"class.absl::optional", %"class.absl::optional.139", %"class.mojo::ConnectionGroup::Ref", i32, %"class.mojo::ScopedInterfaceEndpointHandle", %"class.std::__1::unique_ptr.151", %"class.mojo::InterfaceEndpointController"*, %"class.mojo::MessageReceiverWithResponderStatus"*, %"class.mojo::InterfaceEndpointClient::HandleIncomingMessageThunk", %"class.mojo::MessageDispatcher", %"class.std::__1::map.173", %"class.std::__1::map.182", i64, %"class.base::OnceCallback", %"class.base::OnceCallback.191", i8, %class.scoped_refptr.129, %"class.mojo::internal::ControlMessageProxy", %"class.mojo::internal::ControlMessageHandler", i8*, %"class.base::WeakPtrFactory.192" }
%"class.mojo::MessageReceiverWithResponder" = type { %"class.mojo::MessageReceiver" }
%"class.mojo::MessageReceiver" = type { i32 (...)** }
%"class.base::OnceCallback.137" = type { %"class.base::internal::CallbackBase" }
%"class.absl::optional" = type { %"class.absl::optional_internal::optional_data" }
%"class.absl::optional_internal::optional_data" = type { %"class.absl::optional_internal::optional_data_base" }
%"class.absl::optional_internal::optional_data_base" = type { %"class.absl::optional_internal::optional_data_dtor_base" }
%"class.absl::optional_internal::optional_data_dtor_base" = type { i8, %union.anon.138 }
%union.anon.138 = type { %"class.base::TimeDelta" }
%"class.base::TimeDelta" = type { i64 }
%"class.absl::optional.139" = type { %"class.absl::optional_internal::optional_data.140" }
%"class.absl::optional_internal::optional_data.140" = type { %"class.absl::optional_internal::optional_data_base.141" }
%"class.absl::optional_internal::optional_data_base.141" = type { %"class.absl::optional_internal::optional_data_dtor_base.142" }
%"class.absl::optional_internal::optional_data_dtor_base.142" = type { i8, %union.anon.143 }
%union.anon.143 = type { %"class.base::OneShotTimer" }
%"class.base::OneShotTimer" = type { %"class.base::internal::TimerBase", %"class.base::OnceCallback" }
%"class.base::internal::TimerBase" = type { i32 (...)**, %class.scoped_refptr.129, %"class.base::SequenceCheckerDoNothing", %"class.base::internal::TaskDestructionDetector"*, %"class.base::Location", %"class.base::TimeDelta", %"class.base::TimeTicks", %"class.base::TimeTicks", %"class.base::TickClock"*, i8, %"class.base::WeakPtrFactory.144" }
%"class.base::internal::TaskDestructionDetector" = type opaque
%"class.base::Location" = type { i8*, i8*, i32, i8* }
%"class.base::TimeTicks" = type { %"class.base::time_internal::TimeBase" }
%"class.base::time_internal::TimeBase" = type { i64 }
%"class.base::TickClock" = type { i32 (...)** }
%"class.base::WeakPtrFactory.144" = type { %"class.base::internal::WeakPtrFactoryBase" }
%"class.mojo::ConnectionGroup::Ref" = type { i32, %class.scoped_refptr.149 }
%class.scoped_refptr.149 = type { %"class.mojo::ConnectionGroup"* }
%"class.mojo::ConnectionGroup" = type <{ i32 (...)**, %"class.base::RefCountedThreadSafe.202", [4 x i8], %"class.base::RepeatingCallback", %class.scoped_refptr.129, %"class.mojo::ConnectionGroup::Ref", %"struct.std::__1::atomic.203", [4 x i8] }>
%"class.base::RefCountedThreadSafe.202" = type { %"class.base::subtle::RefCountedThreadSafeBase" }
%"struct.std::__1::atomic.203" = type { %"struct.std::__1::__atomic_base.204" }
%"struct.std::__1::__atomic_base.204" = type { %"struct.std::__1::__atomic_base.205" }
%"struct.std::__1::__atomic_base.205" = type { %"struct.std::__1::__cxx_atomic_impl.206" }
%"struct.std::__1::__cxx_atomic_impl.206" = type { %"struct.std::__1::__cxx_atomic_base_impl.207" }
%"struct.std::__1::__cxx_atomic_base_impl.207" = type { i32 }
%"class.std::__1::unique_ptr.151" = type { %"class.std::__1::__compressed_pair.152" }
%"class.std::__1::__compressed_pair.152" = type { %"struct.std::__1::__compressed_pair_elem.153" }
%"struct.std::__1::__compressed_pair_elem.153" = type { %"class.mojo::AssociatedGroup"* }
%"class.mojo::AssociatedGroup" = type { %"class.base::RepeatingCallback.154", %class.scoped_refptr.155 }
%"class.base::RepeatingCallback.154" = type { %"class.base::internal::CallbackBaseCopyable" }
%class.scoped_refptr.155 = type { %"class.mojo::AssociatedGroupController"* }
%"class.mojo::AssociatedGroupController" = type <{ i32 (...)**, %"class.base::RefCountedThreadSafe.156", [4 x i8] }>
%"class.base::RefCountedThreadSafe.156" = type { %"class.base::subtle::RefCountedThreadSafeBase" }
%"class.mojo::InterfaceEndpointController" = type opaque
%"class.mojo::MessageReceiverWithResponderStatus" = type { %"class.mojo::MessageReceiver" }
%"class.mojo::InterfaceEndpointClient::HandleIncomingMessageThunk" = type { %"class.mojo::MessageReceiver", %"class.mojo::InterfaceEndpointClient"* }
%"class.mojo::MessageDispatcher" = type { %"class.mojo::MessageReceiver", %"class.std::__1::unique_ptr.160", %"class.std::__1::unique_ptr.166", %"class.mojo::MessageReceiver"*, %"class.base::WeakPtrFactory.172" }
%"class.std::__1::unique_ptr.160" = type { %"class.std::__1::__compressed_pair.161" }
%"class.std::__1::__compressed_pair.161" = type { %"struct.std::__1::__compressed_pair_elem.162" }
%"struct.std::__1::__compressed_pair_elem.162" = type { %"class.mojo::MessageReceiver"* }
%"class.std::__1::unique_ptr.166" = type { %"class.std::__1::__compressed_pair.167" }
%"class.std::__1::__compressed_pair.167" = type { %"struct.std::__1::__compressed_pair_elem.168" }
%"struct.std::__1::__compressed_pair_elem.168" = type { %"class.mojo::MessageFilter"* }
%"class.mojo::MessageFilter" = type { i32 (...)** }
%"class.base::WeakPtrFactory.172" = type { %"class.base::internal::WeakPtrFactoryBase" }
%"class.std::__1::map.173" = type { %"class.std::__1::__tree.174" }
%"class.std::__1::__tree.174" = type { %"class.std::__1::__tree_end_node"*, %"class.std::__1::__compressed_pair.175", %"class.std::__1::__compressed_pair.179" }
%"class.std::__1::__compressed_pair.175" = type { %"struct.std::__1::__compressed_pair_elem" }
%"class.std::__1::__compressed_pair.179" = type { %"struct.std::__1::__compressed_pair_elem.2" }
%"class.std::__1::map.182" = type { %"class.std::__1::__tree.183" }
%"class.std::__1::__tree.183" = type { %"class.std::__1::__tree_end_node"*, %"class.std::__1::__compressed_pair.184", %"class.std::__1::__compressed_pair.188" }
%"class.std::__1::__compressed_pair.184" = type { %"struct.std::__1::__compressed_pair_elem" }
%"class.std::__1::__compressed_pair.188" = type { %"struct.std::__1::__compressed_pair_elem.2" }
%"class.base::OnceCallback.191" = type { %"class.base::internal::CallbackBase" }
%"class.mojo::internal::ControlMessageProxy" = type { %"class.mojo::InterfaceEndpointClient"*, i8, %"class.base::OnceCallback" }
%"class.mojo::internal::ControlMessageHandler" = type <{ %"class.mojo::MessageReceiverWithResponderStatus", %"class.mojo::InterfaceEndpointClient"*, i32, [4 x i8] }>
%"class.base::WeakPtrFactory.192" = type { %"class.base::internal::WeakPtrFactoryBase" }
%"class.std::__1::unique_ptr.196" = type { %"class.std::__1::__compressed_pair.197" }
%"class.std::__1::__compressed_pair.197" = type { %"struct.std::__1::__compressed_pair_elem.198" }
%"struct.std::__1::__compressed_pair_elem.198" = type { %"class.chrome::mojom::NetworkDiagnosticsClientProxy"* }
%"class.chrome::mojom::NetworkDiagnosticsClientProxy" = type { %"class.chrome::mojom::NetworkDiagnosticsClient", %"class.mojo::MessageReceiverWithResponder"* }
%"class.chrome::mojom::NetworkDiagnosticsClient" = type { i32 (...)** }
%"class.mojo::internal::AssociatedInterfacePtrStateBase" = type <{ %"class.std::__1::unique_ptr.134", i32, [4 x i8] }>
%"class.blink::AssociatedInterfaceProvider" = type { %"class.mojo::AssociatedRemote.208", %"class.std::__1::unique_ptr.216", %class.scoped_refptr.222 }
%"class.mojo::AssociatedRemote.208" = type { %"class.mojo::internal::AssociatedInterfacePtrState.209" }
%"class.mojo::internal::AssociatedInterfacePtrState.209" = type { %"class.mojo::internal::AssociatedInterfacePtrStateBase.base", %"class.std::__1::unique_ptr.210" }
%"class.std::__1::unique_ptr.210" = type { %"class.std::__1::__compressed_pair.211" }
%"class.std::__1::__compressed_pair.211" = type { %"struct.std::__1::__compressed_pair_elem.212" }
%"struct.std::__1::__compressed_pair_elem.212" = type { %"class.blink::mojom::AssociatedInterfaceProviderProxy"* }
%"class.blink::mojom::AssociatedInterfaceProviderProxy" = type { %"class.blink::mojom::AssociatedInterfaceProvider", %"class.mojo::MessageReceiverWithResponder"* }
%"class.blink::mojom::AssociatedInterfaceProvider" = type { i32 (...)** }
%"class.std::__1::unique_ptr.216" = type { %"class.std::__1::__compressed_pair.217" }
%"class.std::__1::__compressed_pair.217" = type { %"struct.std::__1::__compressed_pair_elem.218" }
%"struct.std::__1::__compressed_pair_elem.218" = type { %"class.blink::AssociatedInterfaceProvider::LocalProvider"* }
%"class.blink::AssociatedInterfaceProvider::LocalProvider" = type opaque
%class.scoped_refptr.222 = type { %"class.base::SingleThreadTaskRunner"* }
%"class.base::SingleThreadTaskRunner" = type { %"class.base::SequencedTaskRunner.base", [4 x i8] }
%"class.base::SequencedTaskRunner.base" = type { %"class.base::TaskRunner.base" }
%"class.content::NavigationHandle" = type { %"class.base::SupportsUserData.base", [7 x i8] }
%"class.std::__1::__basic_string_common" = type { i8 }
%"struct.std::__1::basic_string<char, std::__1::char_traits<char>, std::__1::allocator<char> >::__short" = type { [23 x i8], %struct.anon }
%struct.anon = type { i8 }
%"class.content::BrowserContext" = type { %"class.base::SupportsUserData.base", %"class.std::__1::unique_ptr.223" }
%"class.std::__1::unique_ptr.223" = type { %"class.std::__1::__compressed_pair.224" }
%"class.std::__1::__compressed_pair.224" = type { %"struct.std::__1::__compressed_pair_elem.225" }
%"struct.std::__1::__compressed_pair_elem.225" = type { %"class.content::BrowserContext::Impl"* }
%"class.content::BrowserContext::Impl" = type opaque
%class.Profile = type { %"class.content::BrowserContext", %"class.std::__1::unique_ptr.232", i8, i8, i32, %"class.base::ObserverList", %"class.std::__1::unique_ptr.244" }
%"class.std::__1::unique_ptr.232" = type { %"class.std::__1::__compressed_pair.233" }
%"class.std::__1::__compressed_pair.233" = type { %"struct.std::__1::__compressed_pair_elem.234" }
%"struct.std::__1::__compressed_pair_elem.234" = type { %"class.content::ResourceContext"* }
%"class.content::ResourceContext" = type opaque
%"class.base::ObserverList" = type <{ %"class.std::__1::vector", %"class.base::LinkedList", i64, i32, [4 x i8] }>
%"class.std::__1::vector" = type { %"class.std::__1::__vector_base" }
%"class.std::__1::__vector_base" = type { %"class.base::internal::CheckedObserverAdapter"*, %"class.base::internal::CheckedObserverAdapter"*, %"class.std::__1::__compressed_pair.239" }
%"class.base::internal::CheckedObserverAdapter" = type { %"class.base::WeakPtr.238" }
%"class.base::WeakPtr.238" = type { %"class.base::internal::WeakPtrBase" }
%"class.base::internal::WeakPtrBase" = type { %"class.base::internal::WeakReference", i64 }
%"class.base::internal::WeakReference" = type { %class.scoped_refptr.230 }
%class.scoped_refptr.230 = type { %"class.base::internal::WeakReference::Flag"* }
%"class.std::__1::__compressed_pair.239" = type { %"struct.std::__1::__compressed_pair_elem.240" }
%"struct.std::__1::__compressed_pair_elem.240" = type { %"class.base::internal::CheckedObserverAdapter"* }
%"class.base::LinkedList" = type { %"class.base::LinkNode" }
%"class.base::LinkNode" = type { %"class.base::internal::LinkNodeBase" }
%"class.base::internal::LinkNodeBase" = type { %"class.base::internal::LinkNodeBase"*, %"class.base::internal::LinkNodeBase"* }
%"class.std::__1::unique_ptr.244" = type { %"class.std::__1::__compressed_pair.245" }
%"class.std::__1::__compressed_pair.245" = type { %"struct.std::__1::__compressed_pair_elem.246" }
%"struct.std::__1::__compressed_pair_elem.246" = type { %"class.variations::VariationsClient"* }
%"class.variations::VariationsClient" = type opaque
%"class.base::OnceCallback.229" = type { %"class.base::internal::CallbackBase" }
%"class.base::WeakPtr" = type { %"class.base::internal::WeakPtrBase" }
%"class.chrome_browser_net::DnsProbeService" = type { %class.KeyedService }
%class.KeyedService = type { i32 (...)** }
%"class.user_prefs::PrefRegistrySyncable" = type { %class.PrefRegistrySimple, %"class.base::RepeatingCallback.231" }
%class.PrefRegistrySimple = type { %class.PrefRegistry }
%"class.base::RepeatingCallback.231" = type { %"class.base::internal::CallbackBaseCopyable" }
%class.GURL = type { %"class.std::__1::basic_string", i8, %"struct.url::Parsed", %"class.std::__1::unique_ptr.250" }
%"struct.url::Parsed" = type { %"struct.url::Component", %"struct.url::Component", %"struct.url::Component", %"struct.url::Component", %"struct.url::Component", %"struct.url::Component", %"struct.url::Component", %"struct.url::Component", i8, %"struct.url::Parsed"* }
%"struct.url::Component" = type { i32, i32 }
%"class.std::__1::unique_ptr.250" = type { %"class.std::__1::__compressed_pair.251" }
%"class.std::__1::__compressed_pair.251" = type { %"struct.std::__1::__compressed_pair_elem.252" }
%"struct.std::__1::__compressed_pair_elem.252" = type { %class.GURL* }
%"class.base::OnceCallback.256" = type { %"class.base::internal::CallbackBase" }
%"class.IPC::Message" = type { %"class.base::Pickle", i8, %class.scoped_refptr.257 }
%"class.base::Pickle" = type { i32 (...)**, %"struct.base::Pickle::Header"*, i64, i64, i64 }
%"struct.base::Pickle::Header" = type { i32 }
%class.scoped_refptr.257 = type { %"class.IPC::MessageAttachmentSet"* }
%"class.IPC::MessageAttachmentSet" = type opaque
%"class.blink::mojom::CaptureHandleConfig" = type opaque
%"class.content::RenderViewHost" = type opaque
%"class.content::RenderProcessHost" = type opaque
%"struct.content::GlobalRequestID" = type { i32, i32 }
%"class.blink::mojom::ResourceLoadInfo" = type opaque
%"struct.content::CookieAccessDetails" = type <{ i32, [4 x i8], %class.GURL, %class.GURL, %"class.std::__1::vector.258", i8, [7 x i8] }>
%"class.std::__1::vector.258" = type { %"class.std::__1::__vector_base.259" }
%"class.std::__1::__vector_base.259" = type { %"class.net::CanonicalCookie"*, %"class.net::CanonicalCookie"*, %"class.std::__1::__compressed_pair.261" }
%"class.net::CanonicalCookie" = type { %"class.std::__1::basic_string", %"class.std::__1::basic_string", %"class.std::__1::basic_string", %"class.std::__1::basic_string", %"class.base::Time", %"class.base::Time", %"class.base::Time", i8, i8, i32, i32, i8, i32, i32 }
%"class.base::Time" = type { %"class.base::time_internal::TimeBase.260" }
%"class.base::time_internal::TimeBase.260" = type { i64 }
%"class.std::__1::__compressed_pair.261" = type { %"struct.std::__1::__compressed_pair_elem.262" }
%"struct.std::__1::__compressed_pair_elem.262" = type { %"class.net::CanonicalCookie"* }
%"struct.content::LoadCommittedDetails" = type opaque
%"struct.content::PrunedDetails" = type opaque
%"struct.content::EntryChangedDetails" = type opaque
%"struct.content::Referrer" = type <{ %class.GURL, i32, [4 x i8] }>
%"class.blink::WebInputEvent" = type { i32 (...)**, float, %"class.gfx::Vector2dF", %"class.base::TimeTicks", i32, i32 }
%"class.gfx::Vector2dF" = type { float, float }
%"class.gfx::Size" = type { i32, i32 }
%"class.content::NavigationEntry" = type { %"class.base::SupportsUserData.base", [7 x i8] }
%"class.base::FilePath" = type { %"class.std::__1::basic_string" }
%"struct.blink::UserAgentOverride" = type { %"class.std::__1::basic_string", %"class.absl::optional.266" }
%"class.absl::optional.266" = type { %"class.absl::optional_internal::optional_data.267" }
%"class.absl::optional_internal::optional_data.267" = type { %"class.absl::optional_internal::optional_data_base.268" }
%"class.absl::optional_internal::optional_data_base.268" = type { %"class.absl::optional_internal::optional_data_dtor_base.269" }
%"class.absl::optional_internal::optional_data_dtor_base.269" = type { i8, [7 x i8], %union.anon.270 }
%union.anon.270 = type { %"struct.blink::UserAgentMetadata" }
%"struct.blink::UserAgentMetadata" = type <{ %"class.std::__1::vector.271", %"class.std::__1::basic_string", %"class.std::__1::basic_string", %"class.std::__1::basic_string", %"class.std::__1::basic_string", %"class.std::__1::basic_string", i8, [7 x i8] }>
%"class.std::__1::vector.271" = type { %"class.std::__1::__vector_base.272" }
%"class.std::__1::__vector_base.272" = type { %"struct.blink::UserAgentBrandVersion"*, %"struct.blink::UserAgentBrandVersion"*, %"class.std::__1::__compressed_pair.273" }
%"struct.blink::UserAgentBrandVersion" = type { %"class.std::__1::basic_string", %"class.std::__1::basic_string" }
%"class.std::__1::__compressed_pair.273" = type { %"struct.std::__1::__compressed_pair_elem.274" }
%"struct.std::__1::__compressed_pair_elem.274" = type { %"struct.blink::UserAgentBrandVersion"* }
%"class.std::__1::vector.278" = type opaque
%"struct.content::AXEventNotificationDetails" = type opaque
%"class.std::__1::vector.279" = type opaque
%"class.std::__1::basic_string.280" = type { %"class.std::__1::__compressed_pair.281" }
%"class.std::__1::__compressed_pair.281" = type { %"struct.std::__1::__compressed_pair_elem.282" }
%"struct.std::__1::__compressed_pair_elem.282" = type { %"struct.std::__1::basic_string<char16_t, std::__1::char_traits<char16_t>, std::__1::allocator<char16_t> >::__rep" }
%"struct.std::__1::basic_string<char16_t, std::__1::char_traits<char16_t>, std::__1::allocator<char16_t> >::__rep" = type { %union.anon.283 }
%union.anon.283 = type { %"struct.std::__1::basic_string<char16_t, std::__1::char_traits<char16_t>, std::__1::allocator<char16_t> >::__long" }
%"struct.std::__1::basic_string<char16_t, std::__1::char_traits<char16_t>, std::__1::allocator<char16_t> >::__long" = type { i16*, i64, i64 }
%"class.absl::optional.289" = type opaque
%"struct.content::WebContentsObserver::MediaPlayerInfo" = type { i8, i8 }
%"struct.content::MediaPlayerId" = type opaque
%"class.content::RenderWidgetHost" = type opaque
%"struct.content::FocusedNodeDetails" = type opaque
%"class.absl::optional.290" = type { %"class.absl::optional_internal::optional_data.291" }
%"class.absl::optional_internal::optional_data.291" = type { %"class.absl::optional_internal::optional_data_base.292" }
%"class.absl::optional_internal::optional_data_base.292" = type { %"class.absl::optional_internal::optional_data_dtor_base.293" }
%"class.absl::optional_internal::optional_data_dtor_base.293" = type { i8, %union.anon.294 }
%union.anon.294 = type { %class.GURL }
%"class.mojo::ScopedHandleBase" = type { %"class.mojo::MessagePipeHandle" }
%"class.mojo::MessagePipeHandle" = type { %"class.mojo::Handle" }
%"class.mojo::Handle" = type { i32 }
%"struct.std::__1::pair" = type opaque
%"class.mojo::PendingAssociatedReceiver" = type { %"class.mojo::ScopedInterfaceEndpointHandle" }
%"class.std::__1::__vector_base_common" = type { i8 }
%"class.std::__1::__tree_node.354" = type { %"class.std::__1::__tree_node_base.base", %"struct.std::__1::__value_type.355" }
%"struct.std::__1::__value_type.355" = type { %"struct.std::__1::pair.356" }
%"struct.std::__1::pair.356" = type { i64, %"class.std::__1::unique_ptr.357" }
%"class.std::__1::unique_ptr.357" = type { %"class.std::__1::__compressed_pair.358" }
%"class.std::__1::__compressed_pair.358" = type { %"struct.std::__1::__compressed_pair_elem.359" }
%"struct.std::__1::__compressed_pair_elem.359" = type { %"class.mojo::ReceiverSetState::Entry"* }
%"class.mojo::ReceiverSetState::Entry" = type { %"class.mojo::ReceiverSetState"*, i64, %"class.std::__1::unique_ptr.303" }
%"class.std::__1::unique_ptr.303" = type { %"class.std::__1::__compressed_pair.304" }
%"class.std::__1::__compressed_pair.304" = type { %"struct.std::__1::__compressed_pair_elem.305" }
%"struct.std::__1::__compressed_pair_elem.305" = type { %"class.mojo::ReceiverSetState::ReceiverState"* }
%"class.mojo::ReceiverSetState::ReceiverState" = type { i32 (...)** }
%"class.mojo::AssociatedReceiver" = type { %"class.mojo::internal::AssociatedReceiverBase", %"class.chrome::mojom::NetErrorPageSupportStub", %"class.base::WeakPtrFactory.312" }
%"class.mojo::internal::AssociatedReceiverBase" = type { %"class.std::__1::unique_ptr.134" }
%"class.chrome::mojom::NetErrorPageSupportStub" = type { %"class.mojo::MessageReceiverWithResponderStatus", %"class.chrome::mojom::NetErrorPageSupport"* }
%"class.base::WeakPtrFactory.312" = type { %"class.base::internal::WeakPtrFactoryBase" }
%"class.mojo::ReceiverSetBase<mojo::AssociatedReceiver<chrome::mojom::NetErrorPageSupport, mojo::RawPtrImplRefTraits<chrome::mojom::NetErrorPageSupport> >, content::RenderFrameHost *>::ReceiverEntry" = type { %"class.mojo::ReceiverSetState::ReceiverState", %"class.mojo::AssociatedReceiver", %"class.content::RenderFrameHost"* }
%"class.base::TaskRunner" = type <{ i32 (...)**, %"class.base::RefCountedThreadSafe.130", [4 x i8] }>
%"class.mojo::Message" = type { %"class.mojo::ScopedHandleBase.316", %"class.mojo::internal::Buffer", %"class.std::__1::vector.317", %"class.std::__1::vector.325", %"class.mojo::ConnectionGroup::Ref"*, i8, i8, i8* }
%"class.mojo::ScopedHandleBase.316" = type { %"class.mojo::MessageHandle" }
%"class.mojo::MessageHandle" = type { i64 }
%"class.mojo::internal::Buffer" = type { %"class.mojo::MessageHandle", i64, i8*, i64, i64 }
%"class.std::__1::vector.317" = type { %"class.std::__1::__vector_base.318" }
%"class.std::__1::__vector_base.318" = type { %"class.mojo::ScopedHandleBase.319"*, %"class.mojo::ScopedHandleBase.319"*, %"class.std::__1::__compressed_pair.320" }
%"class.mojo::ScopedHandleBase.319" = type { %"class.mojo::Handle" }
%"class.std::__1::__compressed_pair.320" = type { %"struct.std::__1::__compressed_pair_elem.321" }
%"struct.std::__1::__compressed_pair_elem.321" = type { %"class.mojo::ScopedHandleBase.319"* }
%"class.std::__1::vector.325" = type { %"class.std::__1::__vector_base.326" }
%"class.std::__1::__vector_base.326" = type { %"class.mojo::ScopedInterfaceEndpointHandle"*, %"class.mojo::ScopedInterfaceEndpointHandle"*, %"class.std::__1::__compressed_pair.327" }
%"class.std::__1::__compressed_pair.327" = type { %"struct.std::__1::__compressed_pair_elem.328" }
%"struct.std::__1::__compressed_pair_elem.328" = type { %"class.mojo::ScopedInterfaceEndpointHandle"* }
%"class.mojo::MessageReceiverWithStatus" = type { %"class.mojo::MessageReceiver" }
%"class.mojo::PendingAssociatedReceiver.363" = type { %"class.mojo::ScopedInterfaceEndpointHandle" }
%"class.mojo::AssociatedReceiver.367" = type { %"class.mojo::internal::AssociatedReceiverBase", %"class.chrome::mojom::NetworkEasterEggStub", %"class.base::WeakPtrFactory.368" }
%"class.chrome::mojom::NetworkEasterEggStub" = type { %"class.mojo::MessageReceiverWithResponderStatus", %"class.chrome::mojom::NetworkEasterEgg"* }
%"class.base::WeakPtrFactory.368" = type { %"class.base::internal::WeakPtrFactoryBase" }
%"class.mojo::ReceiverSetBase<mojo::AssociatedReceiver<chrome::mojom::NetworkEasterEgg, mojo::RawPtrImplRefTraits<chrome::mojom::NetworkEasterEgg> >, content::RenderFrameHost *>::ReceiverEntry" = type { %"class.mojo::ReceiverSetState::ReceiverState", %"class.mojo::AssociatedReceiver.367", %"class.content::RenderFrameHost"* }
%"class.mojo::PendingAssociatedReceiver.378" = type { %"class.mojo::ScopedInterfaceEndpointHandle" }
%"class.mojo::AssociatedReceiver.382" = type { %"class.mojo::internal::AssociatedReceiverBase", %"class.chrome::mojom::NetworkDiagnosticsStub", %"class.base::WeakPtrFactory.383" }
%"class.chrome::mojom::NetworkDiagnosticsStub" = type { %"class.mojo::MessageReceiverWithResponderStatus", %"class.chrome::mojom::NetworkDiagnostics"* }
%"class.base::WeakPtrFactory.383" = type { %"class.base::internal::WeakPtrFactoryBase" }
%"class.mojo::ReceiverSetBase<mojo::AssociatedReceiver<chrome::mojom::NetworkDiagnostics, mojo::RawPtrImplRefTraits<chrome::mojom::NetworkDiagnostics> >, content::RenderFrameHost *>::ReceiverEntry" = type { %"class.mojo::ReceiverSetState::ReceiverState", %"class.mojo::AssociatedReceiver.382", %"class.content::RenderFrameHost"* }
%"class.base::Value" = type { %"class.absl::variant" }
%"class.absl::variant" = type { %"class.absl::variant_internal::VariantCopyAssignBaseNontrivial" }
%"class.absl::variant_internal::VariantCopyAssignBaseNontrivial" = type { %"class.absl::variant_internal::VariantMoveAssignBaseNontrivial" }
%"class.absl::variant_internal::VariantMoveAssignBaseNontrivial" = type { %"class.absl::variant_internal::VariantCopyBaseNontrivial" }
%"class.absl::variant_internal::VariantCopyBaseNontrivial" = type { %"class.absl::variant_internal::VariantMoveBaseNontrivial" }
%"class.absl::variant_internal::VariantMoveBaseNontrivial" = type { %"class.absl::variant_internal::VariantStateBaseDestructorNontrivial" }
%"class.absl::variant_internal::VariantStateBaseDestructorNontrivial" = type { %"class.absl::variant_internal::VariantStateBase" }
%"class.absl::variant_internal::VariantStateBase" = type { %"union.absl::variant_internal::DestructibleUnionImpl", i64 }
%"union.absl::variant_internal::DestructibleUnionImpl" = type { %"union.absl::variant_internal::DestructibleUnionImpl.393" }
%"union.absl::variant_internal::DestructibleUnionImpl.393" = type { %"union.absl::variant_internal::DestructibleUnionImpl.394" }
%"union.absl::variant_internal::DestructibleUnionImpl.394" = type { %"union.absl::variant_internal::DestructibleUnionImpl.395" }
%"union.absl::variant_internal::DestructibleUnionImpl.395" = type { %"union.absl::variant_internal::DestructibleUnionImpl.396" }
%"union.absl::variant_internal::DestructibleUnionImpl.396" = type { %"class.std::__1::basic_string" }
%"class.mojo::PendingAssociatedRemote" = type <{ %"class.mojo::ScopedInterfaceEndpointHandle", i32, [4 x i8] }>
%"class.mojo::AssociatedInterfacePtrInfo" = type <{ %"class.mojo::ScopedInterfaceEndpointHandle", i32, [4 x i8] }>
%"class.mojo::PassThroughFilter" = type { %"class.mojo::MessageReceiver" }
%"class.logging::CheckError" = type { %"class.logging::LogMessage"* }
%"class.logging::LogMessage" = type { i32 (...)**, i32, %"class.std::__1::basic_ostringstream", i64, i8*, i32, %"class.base::ScopedClearLastErrorBase" }
%"class.std::__1::basic_ostringstream" = type { %"class.std::__1::basic_ostream.base", %"class.std::__1::basic_stringbuf", %"class.std::__1::basic_ios.base" }
%"class.std::__1::basic_ostream.base" = type { i32 (...)** }
%"class.std::__1::basic_stringbuf" = type <{ %"class.std::__1::basic_streambuf", %"class.std::__1::basic_string", i8*, i32, [4 x i8] }>
%"class.std::__1::basic_streambuf" = type { i32 (...)**, %"class.std::__1::locale", i8*, i8*, i8*, i8*, i8*, i8* }
%"class.std::__1::locale" = type { %"class.std::__1::locale::__imp"* }
%"class.std::__1::locale::__imp" = type opaque
%"class.std::__1::basic_ios.base" = type <{ %"class.std::__1::ios_base", %"class.std::__1::basic_ostream"*, i32 }>
%"class.std::__1::ios_base" = type { i32 (...)**, i32, i64, i64, i32, i32, i8*, i8*, void (i32, %"class.std::__1::ios_base"*, i32)**, i32*, i64, i64, i64*, i64, i64, i8**, i64, i64 }
%"class.std::__1::basic_ostream" = type { i32 (...)**, %"class.std::__1::basic_ios.base" }
%"class.base::ScopedClearLastErrorBase" = type { i32 }

$_ZN10PrefMemberIiED2Ev = comdat any

$_ZN10PrefMemberIbED2Ev = comdat any

$_ZN7content27WebContentsFrameReceiverSetIN6chrome5mojom18NetworkDiagnosticsEEC2EPNS_11WebContentsEPS3_ = comdat any

$_ZN7content27WebContentsFrameReceiverSetIN6chrome5mojom16NetworkEasterEggEEC2EPNS_11WebContentsEPS3_ = comdat any

$_ZN7content27WebContentsFrameReceiverSetIN6chrome5mojom19NetErrorPageSupportEEC2EPNS_11WebContentsEPS3_ = comdat any

$_ZN3IPC8Listener18OnChannelConnectedEi = comdat any

$_ZN3IPC8Listener14OnChannelErrorEv = comdat any

$_ZN3IPC8Listener20OnBadMessageReceivedERKNS_7MessageE = comdat any

$_ZN3IPC8Listener28OnAssociatedInterfaceRequestERKNSt3__112basic_stringIcNS1_11char_traitsIcEENS1_9allocatorIcEEEEN4mojo29ScopedInterfaceEndpointHandleE = comdat any

$_ZN3IPC8Listener15OnChannelDeniedEv = comdat any

$_ZN3IPC8Listener20OnChannelListenErrorEv = comdat any

$_ZN7content19WebContentsObserver18RenderFrameDeletedEPNS_15RenderFrameHostE = comdat any

$_ZN7content19WebContentsObserver22RenderFrameHostChangedEPNS_15RenderFrameHostES2_ = comdat any

$_ZN7content19WebContentsObserver12FrameDeletedEi = comdat any

$_ZN7content19WebContentsObserver27RenderFrameHostStateChangedEPNS_15RenderFrameHostENS1_14LifecycleStateES3_ = comdat any

$_ZN7content19WebContentsObserver20CaptureTargetChangedEv = comdat any

$_ZN7content19WebContentsObserver27OnCaptureHandleConfigUpdateERKN5blink5mojom19CaptureHandleConfigE = comdat any

$_ZN7content19WebContentsObserver15RenderViewReadyEv = comdat any

$_ZN7content19WebContentsObserver17RenderViewDeletedEPNS_14RenderViewHostE = comdat any

$_ZN7content19WebContentsObserver17RenderProcessGoneEN4base17TerminationStatusE = comdat any

$_ZN7content19WebContentsObserver21RenderViewHostChangedEPNS_14RenderViewHostES2_ = comdat any

$_ZN7content19WebContentsObserver22OnRendererUnresponsiveEPNS_17RenderProcessHostE = comdat any

$_ZN7content19WebContentsObserver20OnRendererResponsiveEPNS_17RenderProcessHostE = comdat any

$_ZN7content19WebContentsObserver18DidStartNavigationEPNS_16NavigationHandleE = comdat any

$_ZN7content19WebContentsObserver21DidRedirectNavigationEPNS_16NavigationHandleE = comdat any

$_ZN7content19WebContentsObserver23ReadyToCommitNavigationEPNS_16NavigationHandleE = comdat any

$_ZN7content19WebContentsObserver17DidActivatePortalEPNS_11WebContentsEN4base9TimeTicksE = comdat any

$_ZN7content19WebContentsObserver15DidStartLoadingEv = comdat any

$_ZN7content19WebContentsObserver18DidReceiveResponseEv = comdat any

$_ZN7content19WebContentsObserver14DidStopLoadingEv = comdat any

$_ZN7content19WebContentsObserver19LoadProgressChangedEd = comdat any

$_ZN7content19WebContentsObserver28DocumentAvailableInMainFrameEPNS_15RenderFrameHostE = comdat any

$_ZN7content19WebContentsObserver34DocumentOnLoadCompletedInMainFrameEPNS_15RenderFrameHostE = comdat any

$_ZN7content19WebContentsObserver16DOMContentLoadedEPNS_15RenderFrameHostE = comdat any

$_ZN7content19WebContentsObserver13DidFinishLoadEPNS_15RenderFrameHostERK4GURL = comdat any

$_ZN7content19WebContentsObserver11DidFailLoadEPNS_15RenderFrameHostERK4GURLi = comdat any

$_ZN7content19WebContentsObserver29DidChangeVisibleSecurityStateEv = comdat any

$_ZN7content19WebContentsObserver30DidLoadResourceFromMemoryCacheEPNS_15RenderFrameHostERK4GURLRKNSt3__112basic_stringIcNS6_11char_traitsIcEENS6_9allocatorIcEEEEN7network5mojom18RequestDestinationE = comdat any

$_ZN7content19WebContentsObserver20ResourceLoadCompleteEPNS_15RenderFrameHostERKNS_15GlobalRequestIDERKN5blink5mojom16ResourceLoadInfoE = comdat any

$_ZN7content19WebContentsObserver17OnCookiesAccessedEPNS_15RenderFrameHostERKNS_19CookieAccessDetailsE = comdat any

$_ZN7content19WebContentsObserver17OnCookiesAccessedEPNS_16NavigationHandleERKNS_19CookieAccessDetailsE = comdat any

$_ZN7content19WebContentsObserver24NavigationEntryCommittedERKNS_20LoadCommittedDetailsE = comdat any

$_ZN7content19WebContentsObserver20NavigationListPrunedERKNS_13PrunedDetailsE = comdat any

$_ZN7content19WebContentsObserver24NavigationEntriesDeletedEv = comdat any

$_ZN7content19WebContentsObserver22NavigationEntryChangedERKNS_19EntryChangedDetailsE = comdat any

$_ZN7content19WebContentsObserver19DidOpenRequestedURLEPNS_11WebContentsEPNS_15RenderFrameHostERK4GURLRKNS_8ReferrerE21WindowOpenDispositionN2ui14PageTransitionEbb = comdat any

$_ZN7content19WebContentsObserver29DidFirstVisuallyNonEmptyPaintEv = comdat any

$_ZN7content19WebContentsObserver17NavigationStoppedEv = comdat any

$_ZN7content19WebContentsObserver21DidGetUserInteractionERKN5blink13WebInputEventE = comdat any

$_ZN7content19WebContentsObserver20DidGetIgnoredUIEventEv = comdat any

$_ZN7content19WebContentsObserver19OnVisibilityChangedENS_10VisibilityE = comdat any

$_ZN7content19WebContentsObserver19MainFrameWasResizedEb = comdat any

$_ZN7content19WebContentsObserver16FrameNameChangedEPNS_15RenderFrameHostERKNSt3__112basic_stringIcNS3_11char_traitsIcEENS3_9allocatorIcEEEE = comdat any

$_ZN7content19WebContentsObserver27FrameReceivedUserActivationEPNS_15RenderFrameHostE = comdat any

$_ZN7content19WebContentsObserver24FrameDisplayStateChangedEPNS_15RenderFrameHostEb = comdat any

$_ZN7content19WebContentsObserver16FrameSizeChangedEPNS_15RenderFrameHostERKN3gfx4SizeE = comdat any

$_ZN7content19WebContentsObserver11TitleWasSetEPNS_15NavigationEntryE = comdat any

$_ZN7content19WebContentsObserver16AppCacheAccessedERK4GURLb = comdat any

$_ZN7content19WebContentsObserver21PepperInstanceCreatedEv = comdat any

$_ZN7content19WebContentsObserver21PepperInstanceDeletedEv = comdat any

$_ZN7content19WebContentsObserver18ViewportFitChangedEN5blink5mojom11ViewportFitE = comdat any

$_ZN7content19WebContentsObserver13PluginCrashedERKN4base8FilePathEi = comdat any

$_ZN7content19WebContentsObserver23PluginHungStatusChangedEiRKN4base8FilePathEb = comdat any

$_ZN7content19WebContentsObserver23InnerWebContentsCreatedEPNS_11WebContentsE = comdat any

$_ZN7content19WebContentsObserver24InnerWebContentsAttachedEPNS_11WebContentsEPNS_15RenderFrameHostEb = comdat any

$_ZN7content19WebContentsObserver24InnerWebContentsDetachedEPNS_11WebContentsE = comdat any

$_ZN7content19WebContentsObserver24DidCloneToNewWebContentsEPNS_11WebContentsES2_ = comdat any

$_ZN7content19WebContentsObserver20WebContentsDestroyedEv = comdat any

$_ZN7content19WebContentsObserver20UserAgentOverrideSetERKN5blink17UserAgentOverrideE = comdat any

$_ZN7content19WebContentsObserver19DidUpdateFaviconURLEPNS_15RenderFrameHostERKNSt3__16vectorIN4mojo9StructPtrIN5blink5mojom10FaviconURLEEENS3_9allocatorISA_EEEE = comdat any

$_ZN7content19WebContentsObserver19OnAudioStateChangedEb = comdat any

$_ZN7content19WebContentsObserver24OnFrameAudioStateChangedEPNS_15RenderFrameHostEb = comdat any

$_ZN7content19WebContentsObserver37OnIsConnectedToBluetoothDeviceChangedEb = comdat any

$_ZN7content19WebContentsObserver25DidUpdateAudioMutingStateEb = comdat any

$_ZN7content19WebContentsObserver29DidToggleFullscreenModeForTabEbb = comdat any

$_ZN7content19WebContentsObserver20DidAcquireFullscreenEPNS_15RenderFrameHostE = comdat any

$_ZN7content19WebContentsObserver32DidChangeVerticalScrollDirectionEN3viz23VerticalScrollDirectionE = comdat any

$_ZN7content19WebContentsObserver27BeforeFormRepostWarningShowEv = comdat any

$_ZN7content19WebContentsObserver17BeforeUnloadFiredEbRKN4base9TimeTicksE = comdat any

$_ZN7content19WebContentsObserver27BeforeUnloadDialogCancelledEv = comdat any

$_ZN7content19WebContentsObserver30AXTreeIDForMainFrameHasChangedEv = comdat any

$_ZN7content19WebContentsObserver26AccessibilityEventReceivedERKNS_26AXEventNotificationDetailsE = comdat any

$_ZN7content19WebContentsObserver36AccessibilityLocationChangesReceivedERKNSt3__16vectorINS_35AXLocationChangeNotificationDetailsENS1_9allocatorIS3_EEEE = comdat any

$_ZN7content19WebContentsObserver19DidChangeThemeColorEv = comdat any

$_ZN7content19WebContentsObserver24OnBackgroundColorChangedEv = comdat any

$_ZN7content19WebContentsObserver24OnDidAddMessageToConsoleEPNS_15RenderFrameHostEN5blink5mojom19ConsoleMessageLevelERKNSt3__112basic_stringIDsNS6_11char_traitsIDsEENS6_9allocatorIDsEEEEiSE_RKN4absl8optionalISC_EE = comdat any

$_ZN7content19WebContentsObserver19MediaStartedPlayingERKNS0_15MediaPlayerInfoERKNS_13MediaPlayerIdE = comdat any

$_ZN7content19WebContentsObserver19MediaStoppedPlayingERKNS0_15MediaPlayerInfoERKNS_13MediaPlayerIdENS0_18MediaStoppedReasonE = comdat any

$_ZN7content19WebContentsObserver12MediaResizedERKN3gfx4SizeERKNS_13MediaPlayerIdE = comdat any

$_ZN7content19WebContentsObserver33MediaEffectivelyFullscreenChangedEb = comdat any

$_ZN7content19WebContentsObserver28MediaPictureInPictureChangedEb = comdat any

$_ZN7content19WebContentsObserver23MediaMutedStatusChangedERKNS_13MediaPlayerIdEb = comdat any

$_ZN7content19WebContentsObserver20MediaBufferUnderflowERKNS_13MediaPlayerIdE = comdat any

$_ZN7content19WebContentsObserver15MediaPlayerSeekERKNS_13MediaPlayerIdE = comdat any

$_ZN7content19WebContentsObserver14MediaDestroyedERKNS_13MediaPlayerIdE = comdat any

$_ZN7content19WebContentsObserver24OnPageScaleFactorChangedEf = comdat any

$_ZN7content19WebContentsObserver7OnPasteEv = comdat any

$_ZN7content19WebContentsObserver20OnWebContentsFocusedEPNS_16RenderWidgetHostE = comdat any

$_ZN7content19WebContentsObserver22OnWebContentsLostFocusEPNS_16RenderWidgetHostE = comdat any

$_ZN7content19WebContentsObserver20OnFocusChangedInPageEPNS_18FocusedNodeDetailsE = comdat any

$_ZN7content19WebContentsObserver23DidUpdateWebManifestURLEPNS_15RenderFrameHostERKN4absl8optionalI4GURLEE = comdat any

$_ZN7content19WebContentsObserver27OnInterfaceRequestFromFrameEPNS_15RenderFrameHostERKNSt3__112basic_stringIcNS3_11char_traitsIcEENS3_9allocatorIcEEEEPN4mojo16ScopedHandleBaseINSC_17MessagePipeHandleEEE = comdat any

$_ZN7content19WebContentsObserver27AudioContextPlaybackStartedERKNSt3__14pairIPNS_15RenderFrameHostEiEE = comdat any

$_ZN7content19WebContentsObserver27AudioContextPlaybackStoppedERKNSt3__14pairIPNS_15RenderFrameHostEiEE = comdat any

$_ZN7content19WebContentsObserver23OnServiceWorkerAccessedEPNS_15RenderFrameHostERK4GURLNS_24AllowServiceWorkerResultE = comdat any

$_ZN7content19WebContentsObserver23OnServiceWorkerAccessedEPNS_16NavigationHandleERK4GURLNS_24AllowServiceWorkerResultE = comdat any

$_ZN7content27WebContentsFrameReceiverSetIN6chrome5mojom19NetErrorPageSupportEE20FrameInterfaceBinderD2Ev = comdat any

$_ZThn8_N7content27WebContentsFrameReceiverSetIN6chrome5mojom19NetErrorPageSupportEE20FrameInterfaceBinderD1Ev = comdat any

$_ZN7content27WebContentsFrameReceiverSetIN6chrome5mojom19NetErrorPageSupportEE20FrameInterfaceBinderD0Ev = comdat any

$_ZN7content27WebContentsFrameReceiverSetIN6chrome5mojom19NetErrorPageSupportEE20FrameInterfaceBinder18OnReceiverForFrameEPNS_15RenderFrameHostEN4mojo29ScopedInterfaceEndpointHandleE = comdat any

$_ZN7content27WebContentsFrameReceiverSetIN6chrome5mojom19NetErrorPageSupportEE20FrameInterfaceBinder17CloseAllReceiversEv = comdat any

$_ZN7content27WebContentsFrameReceiverSetIN6chrome5mojom19NetErrorPageSupportEE20FrameInterfaceBinder18RenderFrameDeletedEPNS_15RenderFrameHostE = comdat any

$_ZThn8_N7content27WebContentsFrameReceiverSetIN6chrome5mojom19NetErrorPageSupportEE20FrameInterfaceBinderD0Ev = comdat any

$_ZN7content19WebContentsObserver18RenderFrameCreatedEPNS_15RenderFrameHostE = comdat any

$_ZThn8_N7content27WebContentsFrameReceiverSetIN6chrome5mojom19NetErrorPageSupportEE20FrameInterfaceBinder18RenderFrameDeletedEPNS_15RenderFrameHostE = comdat any

$_ZN7content19WebContentsObserver19DidFinishNavigationEPNS_16NavigationHandleE = comdat any

$_ZNSt3__16__treeINS_12__value_typeIPN7content15RenderFrameHostENS_6vectorImNS_9allocatorImEEEEEENS_19__map_value_compareIS4_S9_NS_4lessIS4_EELb1EEENS6_IS9_EEE7destroyEPNS_11__tree_nodeIS9_PvEE = comdat any

$_ZN4mojo15ReceiverSetBaseINS_18AssociatedReceiverIN6chrome5mojom19NetErrorPageSupportENS_19RawPtrImplRefTraitsIS4_EEEEPN7content15RenderFrameHostEE7AddImplEPS4_NS_25PendingAssociatedReceiverIS4_EESA_13scoped_refptrIN4base19SequencedTaskRunnerEE = comdat any

$_ZN4mojo15ReceiverSetBaseINS_18AssociatedReceiverIN6chrome5mojom19NetErrorPageSupportENS_19RawPtrImplRefTraitsIS4_EEEEPN7content15RenderFrameHostEE13ReceiverEntryD2Ev = comdat any

$_ZN4mojo15ReceiverSetBaseINS_18AssociatedReceiverIN6chrome5mojom19NetErrorPageSupportENS_19RawPtrImplRefTraitsIS4_EEEEPN7content15RenderFrameHostEE13ReceiverEntryD0Ev = comdat any

$_ZNK4mojo15ReceiverSetBaseINS_18AssociatedReceiverIN6chrome5mojom19NetErrorPageSupportENS_19RawPtrImplRefTraitsIS4_EEEEPN7content15RenderFrameHostEE13ReceiverEntry10GetContextEv = comdat any

$_ZN4mojo15ReceiverSetBaseINS_18AssociatedReceiverIN6chrome5mojom19NetErrorPageSupportENS_19RawPtrImplRefTraitsIS4_EEEEPN7content15RenderFrameHostEE13ReceiverEntry20InstallDispatchHooksENSt3__110unique_ptrINS_13MessageFilterENSD_14default_deleteISF_EEEEN4base17RepeatingCallbackIFvjRKNSD_12basic_stringIcNSD_11char_traitsIcEENSD_9allocatorIcEEEEEEE = comdat any

$_ZN4mojo15ReceiverSetBaseINS_18AssociatedReceiverIN6chrome5mojom19NetErrorPageSupportENS_19RawPtrImplRefTraitsIS4_EEEEPN7content15RenderFrameHostEE13ReceiverEntry15FlushForTestingEv = comdat any

$_ZN4mojo18AssociatedReceiverIN6chrome5mojom19NetErrorPageSupportENS_19RawPtrImplRefTraitsIS3_EEE4BindENS_25PendingAssociatedReceiverIS3_EE13scoped_refptrIN4base19SequencedTaskRunnerEE = comdat any

$_ZN6chrome5mojom23NetErrorPageSupportStubIN4mojo19RawPtrImplRefTraitsINS0_19NetErrorPageSupportEEEED0Ev = comdat any

$_ZN6chrome5mojom23NetErrorPageSupportStubIN4mojo19RawPtrImplRefTraitsINS0_19NetErrorPageSupportEEEE6AcceptEPNS2_7MessageE = comdat any

$_ZN6chrome5mojom23NetErrorPageSupportStubIN4mojo19RawPtrImplRefTraitsINS0_19NetErrorPageSupportEEEE19AcceptWithResponderEPNS2_7MessageENSt3__110unique_ptrINS2_25MessageReceiverWithStatusENS9_14default_deleteISB_EEEE = comdat any

$_ZNSt3__127__tree_balance_after_insertIPNS_16__tree_node_baseIPvEEEEvT_S5_ = comdat any

$_ZNSt3__16__treeINS_12__value_typeImNS_10unique_ptrIN4mojo16ReceiverSetState5EntryENS_14default_deleteIS5_EEEEEENS_19__map_value_compareImS9_NS_4lessImEELb1EEENS_9allocatorIS9_EEE7destroyEPNS_11__tree_nodeIS9_PvEE = comdat any

$_ZNSt3__113__tree_removeIPNS_16__tree_node_baseIPvEEEEvT_S5_ = comdat any

$_ZN7content27WebContentsFrameReceiverSetIN6chrome5mojom16NetworkEasterEggEE20FrameInterfaceBinderD2Ev = comdat any

$_ZThn8_N7content27WebContentsFrameReceiverSetIN6chrome5mojom16NetworkEasterEggEE20FrameInterfaceBinderD1Ev = comdat any

$_ZN7content27WebContentsFrameReceiverSetIN6chrome5mojom16NetworkEasterEggEE20FrameInterfaceBinderD0Ev = comdat any

$_ZN7content27WebContentsFrameReceiverSetIN6chrome5mojom16NetworkEasterEggEE20FrameInterfaceBinder18OnReceiverForFrameEPNS_15RenderFrameHostEN4mojo29ScopedInterfaceEndpointHandleE = comdat any

$_ZN7content27WebContentsFrameReceiverSetIN6chrome5mojom16NetworkEasterEggEE20FrameInterfaceBinder17CloseAllReceiversEv = comdat any

$_ZN7content27WebContentsFrameReceiverSetIN6chrome5mojom16NetworkEasterEggEE20FrameInterfaceBinder18RenderFrameDeletedEPNS_15RenderFrameHostE = comdat any

$_ZThn8_N7content27WebContentsFrameReceiverSetIN6chrome5mojom16NetworkEasterEggEE20FrameInterfaceBinderD0Ev = comdat any

$_ZThn8_N7content27WebContentsFrameReceiverSetIN6chrome5mojom16NetworkEasterEggEE20FrameInterfaceBinder18RenderFrameDeletedEPNS_15RenderFrameHostE = comdat any

$_ZN4mojo15ReceiverSetBaseINS_18AssociatedReceiverIN6chrome5mojom16NetworkEasterEggENS_19RawPtrImplRefTraitsIS4_EEEEPN7content15RenderFrameHostEE7AddImplEPS4_NS_25PendingAssociatedReceiverIS4_EESA_13scoped_refptrIN4base19SequencedTaskRunnerEE = comdat any

$_ZN4mojo15ReceiverSetBaseINS_18AssociatedReceiverIN6chrome5mojom16NetworkEasterEggENS_19RawPtrImplRefTraitsIS4_EEEEPN7content15RenderFrameHostEE13ReceiverEntryD2Ev = comdat any

$_ZN4mojo15ReceiverSetBaseINS_18AssociatedReceiverIN6chrome5mojom16NetworkEasterEggENS_19RawPtrImplRefTraitsIS4_EEEEPN7content15RenderFrameHostEE13ReceiverEntryD0Ev = comdat any

$_ZNK4mojo15ReceiverSetBaseINS_18AssociatedReceiverIN6chrome5mojom16NetworkEasterEggENS_19RawPtrImplRefTraitsIS4_EEEEPN7content15RenderFrameHostEE13ReceiverEntry10GetContextEv = comdat any

$_ZN4mojo15ReceiverSetBaseINS_18AssociatedReceiverIN6chrome5mojom16NetworkEasterEggENS_19RawPtrImplRefTraitsIS4_EEEEPN7content15RenderFrameHostEE13ReceiverEntry20InstallDispatchHooksENSt3__110unique_ptrINS_13MessageFilterENSD_14default_deleteISF_EEEEN4base17RepeatingCallbackIFvjRKNSD_12basic_stringIcNSD_11char_traitsIcEENSD_9allocatorIcEEEEEEE = comdat any

$_ZN4mojo15ReceiverSetBaseINS_18AssociatedReceiverIN6chrome5mojom16NetworkEasterEggENS_19RawPtrImplRefTraitsIS4_EEEEPN7content15RenderFrameHostEE13ReceiverEntry15FlushForTestingEv = comdat any

$_ZN4mojo18AssociatedReceiverIN6chrome5mojom16NetworkEasterEggENS_19RawPtrImplRefTraitsIS3_EEE4BindENS_25PendingAssociatedReceiverIS3_EE13scoped_refptrIN4base19SequencedTaskRunnerEE = comdat any

$_ZN6chrome5mojom20NetworkEasterEggStubIN4mojo19RawPtrImplRefTraitsINS0_16NetworkEasterEggEEEED0Ev = comdat any

$_ZN6chrome5mojom20NetworkEasterEggStubIN4mojo19RawPtrImplRefTraitsINS0_16NetworkEasterEggEEEE6AcceptEPNS2_7MessageE = comdat any

$_ZN6chrome5mojom20NetworkEasterEggStubIN4mojo19RawPtrImplRefTraitsINS0_16NetworkEasterEggEEEE19AcceptWithResponderEPNS2_7MessageENSt3__110unique_ptrINS2_25MessageReceiverWithStatusENS9_14default_deleteISB_EEEE = comdat any

$_ZN7content27WebContentsFrameReceiverSetIN6chrome5mojom18NetworkDiagnosticsEE20FrameInterfaceBinderD2Ev = comdat any

$_ZThn8_N7content27WebContentsFrameReceiverSetIN6chrome5mojom18NetworkDiagnosticsEE20FrameInterfaceBinderD1Ev = comdat any

$_ZN7content27WebContentsFrameReceiverSetIN6chrome5mojom18NetworkDiagnosticsEE20FrameInterfaceBinderD0Ev = comdat any

$_ZN7content27WebContentsFrameReceiverSetIN6chrome5mojom18NetworkDiagnosticsEE20FrameInterfaceBinder18OnReceiverForFrameEPNS_15RenderFrameHostEN4mojo29ScopedInterfaceEndpointHandleE = comdat any

$_ZN7content27WebContentsFrameReceiverSetIN6chrome5mojom18NetworkDiagnosticsEE20FrameInterfaceBinder17CloseAllReceiversEv = comdat any

$_ZN7content27WebContentsFrameReceiverSetIN6chrome5mojom18NetworkDiagnosticsEE20FrameInterfaceBinder18RenderFrameDeletedEPNS_15RenderFrameHostE = comdat any

$_ZThn8_N7content27WebContentsFrameReceiverSetIN6chrome5mojom18NetworkDiagnosticsEE20FrameInterfaceBinderD0Ev = comdat any

$_ZThn8_N7content27WebContentsFrameReceiverSetIN6chrome5mojom18NetworkDiagnosticsEE20FrameInterfaceBinder18RenderFrameDeletedEPNS_15RenderFrameHostE = comdat any

$_ZN4mojo15ReceiverSetBaseINS_18AssociatedReceiverIN6chrome5mojom18NetworkDiagnosticsENS_19RawPtrImplRefTraitsIS4_EEEEPN7content15RenderFrameHostEE7AddImplEPS4_NS_25PendingAssociatedReceiverIS4_EESA_13scoped_refptrIN4base19SequencedTaskRunnerEE = comdat any

$_ZN4mojo15ReceiverSetBaseINS_18AssociatedReceiverIN6chrome5mojom18NetworkDiagnosticsENS_19RawPtrImplRefTraitsIS4_EEEEPN7content15RenderFrameHostEE13ReceiverEntryD2Ev = comdat any

$_ZN4mojo15ReceiverSetBaseINS_18AssociatedReceiverIN6chrome5mojom18NetworkDiagnosticsENS_19RawPtrImplRefTraitsIS4_EEEEPN7content15RenderFrameHostEE13ReceiverEntryD0Ev = comdat any

$_ZNK4mojo15ReceiverSetBaseINS_18AssociatedReceiverIN6chrome5mojom18NetworkDiagnosticsENS_19RawPtrImplRefTraitsIS4_EEEEPN7content15RenderFrameHostEE13ReceiverEntry10GetContextEv = comdat any

$_ZN4mojo15ReceiverSetBaseINS_18AssociatedReceiverIN6chrome5mojom18NetworkDiagnosticsENS_19RawPtrImplRefTraitsIS4_EEEEPN7content15RenderFrameHostEE13ReceiverEntry20InstallDispatchHooksENSt3__110unique_ptrINS_13MessageFilterENSD_14default_deleteISF_EEEEN4base17RepeatingCallbackIFvjRKNSD_12basic_stringIcNSD_11char_traitsIcEENSD_9allocatorIcEEEEEEE = comdat any

$_ZN4mojo15ReceiverSetBaseINS_18AssociatedReceiverIN6chrome5mojom18NetworkDiagnosticsENS_19RawPtrImplRefTraitsIS4_EEEEPN7content15RenderFrameHostEE13ReceiverEntry15FlushForTestingEv = comdat any

$_ZN4mojo18AssociatedReceiverIN6chrome5mojom18NetworkDiagnosticsENS_19RawPtrImplRefTraitsIS3_EEE4BindENS_25PendingAssociatedReceiverIS3_EE13scoped_refptrIN4base19SequencedTaskRunnerEE = comdat any

$_ZN4mojo15MessageReceiverD2Ev = comdat any

$_ZN6chrome5mojom22NetworkDiagnosticsStubIN4mojo19RawPtrImplRefTraitsINS0_18NetworkDiagnosticsEEEED0Ev = comdat any

$_ZN6chrome5mojom22NetworkDiagnosticsStubIN4mojo19RawPtrImplRefTraitsINS0_18NetworkDiagnosticsEEEE6AcceptEPNS2_7MessageE = comdat any

$_ZN6chrome5mojom22NetworkDiagnosticsStubIN4mojo19RawPtrImplRefTraitsINS0_18NetworkDiagnosticsEEEE19AcceptWithResponderEPNS2_7MessageENSt3__110unique_ptrINS2_25MessageReceiverWithStatusENS9_14default_deleteISB_EEEE = comdat any

$_ZN10PrefMemberIbED0Ev = comdat any

$_ZNK10PrefMemberIbE14CreateInternalEv = comdat any

$_ZNK10PrefMemberIbE8internalEv = comdat any

$_ZN10PrefMemberIbE8InternalD0Ev = comdat any

$_ZN10PrefMemberIiED0Ev = comdat any

$_ZNK10PrefMemberIiE14CreateInternalEv = comdat any

$_ZNK10PrefMemberIiE8internalEv = comdat any

$_ZN10PrefMemberIiE8InternalD0Ev = comdat any

$_ZN5blink27AssociatedInterfaceProvider12GetInterfaceIN6chrome5mojom24NetworkDiagnosticsClientEEEvN4mojo25PendingAssociatedReceiverIT_EE = comdat any

$_ZN4mojo16AssociatedRemoteIN6chrome5mojom24NetworkDiagnosticsClientEE30BindNewEndpointAndPassReceiverE13scoped_refptrIN4base19SequencedTaskRunnerEE = comdat any

$_ZN4mojo16AssociatedRemoteIN6chrome5mojom24NetworkDiagnosticsClientEE4BindENS_23PendingAssociatedRemoteIS3_EE13scoped_refptrIN4base19SequencedTaskRunnerEE = comdat any

$_ZN4mojo8internal27AssociatedInterfacePtrStateIN6chrome5mojom24NetworkDiagnosticsClientEE4BindENS_26AssociatedInterfacePtrInfoIS4_EE13scoped_refptrIN4base19SequencedTaskRunnerEE = comdat any

$_ZN4base8internal7InvokerINS0_9BindStateIMN18chrome_browser_net17NetErrorTabHelperEFvN10error_page14DnsProbeStatusEEJNS_7WeakPtrIS4_EEEEEFvS6_EE7RunOnceEPNS0_13BindStateBaseES6_ = comdat any

$_ZN4base8internal9BindStateIMN18chrome_browser_net17NetErrorTabHelperEFvN10error_page14DnsProbeStatusEEJNS_7WeakPtrIS3_EEEE7DestroyEPKNS0_13BindStateBaseE = comdat any

$_ZN4base8internal23QueryCancellationTraitsINS0_9BindStateIMN18chrome_browser_net17NetErrorTabHelperEFvN10error_page14DnsProbeStatusEEJNS_7WeakPtrIS4_EEEEEEEbPKNS0_13BindStateBaseENSC_21CancellationQueryModeE = comdat any

$_ZTVN7content27WebContentsFrameReceiverSetIN6chrome5mojom19NetErrorPageSupportEE20FrameInterfaceBinderE = comdat any

$_ZTVN4mojo15ReceiverSetBaseINS_18AssociatedReceiverIN6chrome5mojom19NetErrorPageSupportENS_19RawPtrImplRefTraitsIS4_EEEEPN7content15RenderFrameHostEE13ReceiverEntryE = comdat any

$_ZTVN6chrome5mojom23NetErrorPageSupportStubIN4mojo19RawPtrImplRefTraitsINS0_19NetErrorPageSupportEEEEE = comdat any

$_ZTVN7content27WebContentsFrameReceiverSetIN6chrome5mojom16NetworkEasterEggEE20FrameInterfaceBinderE = comdat any

$_ZTVN4mojo15ReceiverSetBaseINS_18AssociatedReceiverIN6chrome5mojom16NetworkEasterEggENS_19RawPtrImplRefTraitsIS4_EEEEPN7content15RenderFrameHostEE13ReceiverEntryE = comdat any

$_ZTVN6chrome5mojom20NetworkEasterEggStubIN4mojo19RawPtrImplRefTraitsINS0_16NetworkEasterEggEEEEE = comdat any

$_ZTVN7content27WebContentsFrameReceiverSetIN6chrome5mojom18NetworkDiagnosticsEE20FrameInterfaceBinderE = comdat any

$_ZTVN4mojo15ReceiverSetBaseINS_18AssociatedReceiverIN6chrome5mojom18NetworkDiagnosticsENS_19RawPtrImplRefTraitsIS4_EEEEPN7content15RenderFrameHostEE13ReceiverEntryE = comdat any

$_ZTVN6chrome5mojom22NetworkDiagnosticsStubIN4mojo19RawPtrImplRefTraitsINS0_18NetworkDiagnosticsEEEEE = comdat any

$_ZTV10PrefMemberIbE = comdat any

$_ZTVN10PrefMemberIbE8InternalE = comdat any

$_ZTV10PrefMemberIiE = comdat any

$_ZTVN10PrefMemberIiE8InternalE = comdat any

@_ZTVN18chrome_browser_net17NetErrorTabHelperE = hidden unnamed_addr constant { [116 x i8*], [5 x i8*], [4 x i8*], [5 x i8*], [7 x i8*] } { [116 x i8*] [i8* null, i8* null, i8* bitcast (i1 (%"class.content::WebContentsObserver"*, %"class.IPC::Message"*)* @_ZN7content19WebContentsObserver17OnMessageReceivedERKN3IPC7MessageE to i8*), i8* bitcast (void (%"class.IPC::Listener"*, i32)* @_ZN3IPC8Listener18OnChannelConnectedEi to i8*), i8* bitcast (void (%"class.IPC::Listener"*)* @_ZN3IPC8Listener14OnChannelErrorEv to i8*), i8* bitcast (void (%"class.IPC::Listener"*, %"class.IPC::Message"*)* @_ZN3IPC8Listener20OnBadMessageReceivedERKNS_7MessageE to i8*), i8* bitcast (void (%"class.IPC::Listener"*, %"class.std::__1::basic_string"*, %"class.mojo::ScopedInterfaceEndpointHandle"*)* @_ZN3IPC8Listener28OnAssociatedInterfaceRequestERKNSt3__112basic_stringIcNS1_11char_traitsIcEENS1_9allocatorIcEEEEN4mojo29ScopedInterfaceEndpointHandleE to i8*), i8* bitcast (void (%"class.IPC::Listener"*)* @_ZN3IPC8Listener15OnChannelDeniedEv to i8*), i8* bitcast (void (%"class.IPC::Listener"*)* @_ZN3IPC8Listener20OnChannelListenErrorEv to i8*), i8* bitcast (void (%"class.chrome_browser_net::NetErrorTabHelper"*)* @_ZN18chrome_browser_net17NetErrorTabHelperD2Ev to i8*), i8* bitcast (void (%"class.chrome_browser_net::NetErrorTabHelper"*)* @_ZN18chrome_browser_net17NetErrorTabHelperD0Ev to i8*), i8* bitcast (void (%"class.chrome_browser_net::NetErrorTabHelper"*, %"class.content::RenderFrameHost"*)* @_ZN18chrome_browser_net17NetErrorTabHelper18RenderFrameCreatedEPN7content15RenderFrameHostE to i8*), i8* bitcast (void (%"class.content::WebContentsObserver"*, %"class.content::RenderFrameHost"*)* @_ZN7content19WebContentsObserver18RenderFrameDeletedEPNS_15RenderFrameHostE to i8*), i8* bitcast (void (%"class.content::WebContentsObserver"*, %"class.content::RenderFrameHost"*, %"class.content::RenderFrameHost"*)* @_ZN7content19WebContentsObserver22RenderFrameHostChangedEPNS_15RenderFrameHostES2_ to i8*), i8* bitcast (void (%"class.content::WebContentsObserver"*, i32)* @_ZN7content19WebContentsObserver12FrameDeletedEi to i8*), i8* bitcast (void (%"class.content::WebContentsObserver"*, %"class.content::RenderFrameHost"*, i32, i32)* @_ZN7content19WebContentsObserver27RenderFrameHostStateChangedEPNS_15RenderFrameHostENS1_14LifecycleStateES3_ to i8*), i8* bitcast (void (%"class.content::WebContentsObserver"*)* @_ZN7content19WebContentsObserver20CaptureTargetChangedEv to i8*), i8* bitcast (void (%"class.content::WebContentsObserver"*, %"class.blink::mojom::CaptureHandleConfig"*)* @_ZN7content19WebContentsObserver27OnCaptureHandleConfigUpdateERKN5blink5mojom19CaptureHandleConfigE to i8*), i8* bitcast (void (%"class.content::WebContentsObserver"*)* @_ZN7content19WebContentsObserver15RenderViewReadyEv to i8*), i8* bitcast (void (%"class.content::WebContentsObserver"*, %"class.content::RenderViewHost"*)* @_ZN7content19WebContentsObserver17RenderViewDeletedEPNS_14RenderViewHostE to i8*), i8* bitcast (void (%"class.content::WebContentsObserver"*, i32)* @_ZN7content19WebContentsObserver17RenderProcessGoneEN4base17TerminationStatusE to i8*), i8* bitcast (void (%"class.content::WebContentsObserver"*, %"class.content::RenderViewHost"*, %"class.content::RenderViewHost"*)* @_ZN7content19WebContentsObserver21RenderViewHostChangedEPNS_14RenderViewHostES2_ to i8*), i8* bitcast (void (%"class.content::WebContentsObserver"*, %"class.content::RenderProcessHost"*)* @_ZN7content19WebContentsObserver22OnRendererUnresponsiveEPNS_17RenderProcessHostE to i8*), i8* bitcast (void (%"class.content::WebContentsObserver"*, %"class.content::RenderProcessHost"*)* @_ZN7content19WebContentsObserver20OnRendererResponsiveEPNS_17RenderProcessHostE to i8*), i8* bitcast (void (%"class.content::WebContentsObserver"*, %"class.content::NavigationHandle"*)* @_ZN7content19WebContentsObserver18DidStartNavigationEPNS_16NavigationHandleE to i8*), i8* bitcast (void (%"class.content::WebContentsObserver"*, %"class.content::NavigationHandle"*)* @_ZN7content19WebContentsObserver21DidRedirectNavigationEPNS_16NavigationHandleE to i8*), i8* bitcast (void (%"class.content::WebContentsObserver"*, %"class.content::NavigationHandle"*)* @_ZN7content19WebContentsObserver23ReadyToCommitNavigationEPNS_16NavigationHandleE to i8*), i8* bitcast (void (%"class.chrome_browser_net::NetErrorTabHelper"*, %"class.content::NavigationHandle"*)* @_ZN18chrome_browser_net17NetErrorTabHelper19DidFinishNavigationEPN7content16NavigationHandleE to i8*), i8* bitcast (void (%"class.content::WebContentsObserver"*, %"class.content::WebContents"*, i64)* @_ZN7content19WebContentsObserver17DidActivatePortalEPNS_11WebContentsEN4base9TimeTicksE to i8*), i8* bitcast (void (%"class.content::WebContentsObserver"*)* @_ZN7content19WebContentsObserver15DidStartLoadingEv to i8*), i8* bitcast (void (%"class.content::WebContentsObserver"*)* @_ZN7content19WebContentsObserver18DidReceiveResponseEv to i8*), i8* bitcast (void (%"class.content::WebContentsObserver"*)* @_ZN7content19WebContentsObserver14DidStopLoadingEv to i8*), i8* bitcast (void (%"class.content::WebContentsObserver"*, double)* @_ZN7content19WebContentsObserver19LoadProgressChangedEd to i8*), i8* bitcast (void (%"class.content::WebContentsObserver"*, %"class.content::RenderFrameHost"*)* @_ZN7content19WebContentsObserver28DocumentAvailableInMainFrameEPNS_15RenderFrameHostE to i8*), i8* bitcast (void (%"class.content::WebContentsObserver"*, %"class.content::RenderFrameHost"*)* @_ZN7content19WebContentsObserver34DocumentOnLoadCompletedInMainFrameEPNS_15RenderFrameHostE to i8*), i8* bitcast (void (%"class.content::WebContentsObserver"*, %"class.content::RenderFrameHost"*)* @_ZN7content19WebContentsObserver16DOMContentLoadedEPNS_15RenderFrameHostE to i8*), i8* bitcast (void (%"class.content::WebContentsObserver"*, %"class.content::RenderFrameHost"*, %class.GURL*)* @_ZN7content19WebContentsObserver13DidFinishLoadEPNS_15RenderFrameHostERK4GURL to i8*), i8* bitcast (void (%"class.content::WebContentsObserver"*, %"class.content::RenderFrameHost"*, %class.GURL*, i32)* @_ZN7content19WebContentsObserver11DidFailLoadEPNS_15RenderFrameHostERK4GURLi to i8*), i8* bitcast (void (%"class.content::WebContentsObserver"*)* @_ZN7content19WebContentsObserver29DidChangeVisibleSecurityStateEv to i8*), i8* bitcast (void (%"class.content::WebContentsObserver"*, %"class.content::RenderFrameHost"*, %class.GURL*, %"class.std::__1::basic_string"*, i32)* @_ZN7content19WebContentsObserver30DidLoadResourceFromMemoryCacheEPNS_15RenderFrameHostERK4GURLRKNSt3__112basic_stringIcNS6_11char_traitsIcEENS6_9allocatorIcEEEEN7network5mojom18RequestDestinationE to i8*), i8* bitcast (void (%"class.content::WebContentsObserver"*, %"class.content::RenderFrameHost"*, %"struct.content::GlobalRequestID"*, %"class.blink::mojom::ResourceLoadInfo"*)* @_ZN7content19WebContentsObserver20ResourceLoadCompleteEPNS_15RenderFrameHostERKNS_15GlobalRequestIDERKN5blink5mojom16ResourceLoadInfoE to i8*), i8* bitcast (void (%"class.content::WebContentsObserver"*, %"class.content::RenderFrameHost"*, %"struct.content::CookieAccessDetails"*)* @_ZN7content19WebContentsObserver17OnCookiesAccessedEPNS_15RenderFrameHostERKNS_19CookieAccessDetailsE to i8*), i8* bitcast (void (%"class.content::WebContentsObserver"*, %"class.content::NavigationHandle"*, %"struct.content::CookieAccessDetails"*)* @_ZN7content19WebContentsObserver17OnCookiesAccessedEPNS_16NavigationHandleERKNS_19CookieAccessDetailsE to i8*), i8* bitcast (void (%"class.content::WebContentsObserver"*, %"struct.content::LoadCommittedDetails"*)* @_ZN7content19WebContentsObserver24NavigationEntryCommittedERKNS_20LoadCommittedDetailsE to i8*), i8* bitcast (void (%"class.content::WebContentsObserver"*, %"struct.content::PrunedDetails"*)* @_ZN7content19WebContentsObserver20NavigationListPrunedERKNS_13PrunedDetailsE to i8*), i8* bitcast (void (%"class.content::WebContentsObserver"*)* @_ZN7content19WebContentsObserver24NavigationEntriesDeletedEv to i8*), i8* bitcast (void (%"class.content::WebContentsObserver"*, %"struct.content::EntryChangedDetails"*)* @_ZN7content19WebContentsObserver22NavigationEntryChangedERKNS_19EntryChangedDetailsE to i8*), i8* bitcast (void (%"class.content::WebContentsObserver"*, %"class.content::WebContents"*, %"class.content::RenderFrameHost"*, %class.GURL*, %"struct.content::Referrer"*, i32, i32, i1, i1)* @_ZN7content19WebContentsObserver19DidOpenRequestedURLEPNS_11WebContentsEPNS_15RenderFrameHostERK4GURLRKNS_8ReferrerE21WindowOpenDispositionN2ui14PageTransitionEbb to i8*), i8* bitcast (void (%"class.content::WebContentsObserver"*)* @_ZN7content19WebContentsObserver29DidFirstVisuallyNonEmptyPaintEv to i8*), i8* bitcast (void (%"class.content::WebContentsObserver"*)* @_ZN7content19WebContentsObserver17NavigationStoppedEv to i8*), i8* bitcast (void (%"class.content::WebContentsObserver"*, %"class.blink::WebInputEvent"*)* @_ZN7content19WebContentsObserver21DidGetUserInteractionERKN5blink13WebInputEventE to i8*), i8* bitcast (void (%"class.content::WebContentsObserver"*)* @_ZN7content19WebContentsObserver20DidGetIgnoredUIEventEv to i8*), i8* bitcast (void (%"class.content::WebContentsObserver"*, i32)* @_ZN7content19WebContentsObserver19OnVisibilityChangedENS_10VisibilityE to i8*), i8* bitcast (void (%"class.content::WebContentsObserver"*, i1)* @_ZN7content19WebContentsObserver19MainFrameWasResizedEb to i8*), i8* bitcast (void (%"class.content::WebContentsObserver"*, %"class.content::RenderFrameHost"*, %"class.std::__1::basic_string"*)* @_ZN7content19WebContentsObserver16FrameNameChangedEPNS_15RenderFrameHostERKNSt3__112basic_stringIcNS3_11char_traitsIcEENS3_9allocatorIcEEEE to i8*), i8* bitcast (void (%"class.content::WebContentsObserver"*, %"class.content::RenderFrameHost"*)* @_ZN7content19WebContentsObserver27FrameReceivedUserActivationEPNS_15RenderFrameHostE to i8*), i8* bitcast (void (%"class.content::WebContentsObserver"*, %"class.content::RenderFrameHost"*, i1)* @_ZN7content19WebContentsObserver24FrameDisplayStateChangedEPNS_15RenderFrameHostEb to i8*), i8* bitcast (void (%"class.content::WebContentsObserver"*, %"class.content::RenderFrameHost"*, %"class.gfx::Size"*)* @_ZN7content19WebContentsObserver16FrameSizeChangedEPNS_15RenderFrameHostERKN3gfx4SizeE to i8*), i8* bitcast (void (%"class.content::WebContentsObserver"*, %"class.content::NavigationEntry"*)* @_ZN7content19WebContentsObserver11TitleWasSetEPNS_15NavigationEntryE to i8*), i8* bitcast (void (%"class.content::WebContentsObserver"*, %class.GURL*, i1)* @_ZN7content19WebContentsObserver16AppCacheAccessedERK4GURLb to i8*), i8* bitcast (void (%"class.content::WebContentsObserver"*)* @_ZN7content19WebContentsObserver21PepperInstanceCreatedEv to i8*), i8* bitcast (void (%"class.content::WebContentsObserver"*)* @_ZN7content19WebContentsObserver21PepperInstanceDeletedEv to i8*), i8* bitcast (void (%"class.content::WebContentsObserver"*, i32)* @_ZN7content19WebContentsObserver18ViewportFitChangedEN5blink5mojom11ViewportFitE to i8*), i8* bitcast (void (%"class.content::WebContentsObserver"*, %"class.base::FilePath"*, i32)* @_ZN7content19WebContentsObserver13PluginCrashedERKN4base8FilePathEi to i8*), i8* bitcast (void (%"class.content::WebContentsObserver"*, i32, %"class.base::FilePath"*, i1)* @_ZN7content19WebContentsObserver23PluginHungStatusChangedEiRKN4base8FilePathEb to i8*), i8* bitcast (void (%"class.content::WebContentsObserver"*, %"class.content::WebContents"*)* @_ZN7content19WebContentsObserver23InnerWebContentsCreatedEPNS_11WebContentsE to i8*), i8* bitcast (void (%"class.content::WebContentsObserver"*, %"class.content::WebContents"*, %"class.content::RenderFrameHost"*, i1)* @_ZN7content19WebContentsObserver24InnerWebContentsAttachedEPNS_11WebContentsEPNS_15RenderFrameHostEb to i8*), i8* bitcast (void (%"class.content::WebContentsObserver"*, %"class.content::WebContents"*)* @_ZN7content19WebContentsObserver24InnerWebContentsDetachedEPNS_11WebContentsE to i8*), i8* bitcast (void (%"class.content::WebContentsObserver"*, %"class.content::WebContents"*, %"class.content::WebContents"*)* @_ZN7content19WebContentsObserver24DidCloneToNewWebContentsEPNS_11WebContentsES2_ to i8*), i8* bitcast (void (%"class.content::WebContentsObserver"*)* @_ZN7content19WebContentsObserver20WebContentsDestroyedEv to i8*), i8* bitcast (void (%"class.content::WebContentsObserver"*, %"struct.blink::UserAgentOverride"*)* @_ZN7content19WebContentsObserver20UserAgentOverrideSetERKN5blink17UserAgentOverrideE to i8*), i8* bitcast (void (%"class.content::WebContentsObserver"*, %"class.content::RenderFrameHost"*, %"class.std::__1::vector.278"*)* @_ZN7content19WebContentsObserver19DidUpdateFaviconURLEPNS_15RenderFrameHostERKNSt3__16vectorIN4mojo9StructPtrIN5blink5mojom10FaviconURLEEENS3_9allocatorISA_EEEE to i8*), i8* bitcast (void (%"class.content::WebContentsObserver"*, i1)* @_ZN7content19WebContentsObserver19OnAudioStateChangedEb to i8*), i8* bitcast (void (%"class.content::WebContentsObserver"*, %"class.content::RenderFrameHost"*, i1)* @_ZN7content19WebContentsObserver24OnFrameAudioStateChangedEPNS_15RenderFrameHostEb to i8*), i8* bitcast (void (%"class.content::WebContentsObserver"*, i1)* @_ZN7content19WebContentsObserver37OnIsConnectedToBluetoothDeviceChangedEb to i8*), i8* bitcast (void (%"class.content::WebContentsObserver"*, i1)* @_ZN7content19WebContentsObserver25DidUpdateAudioMutingStateEb to i8*), i8* bitcast (void (%"class.content::WebContentsObserver"*, i1, i1)* @_ZN7content19WebContentsObserver29DidToggleFullscreenModeForTabEbb to i8*), i8* bitcast (void (%"class.content::WebContentsObserver"*, %"class.content::RenderFrameHost"*)* @_ZN7content19WebContentsObserver20DidAcquireFullscreenEPNS_15RenderFrameHostE to i8*), i8* bitcast (void (%"class.content::WebContentsObserver"*, i32)* @_ZN7content19WebContentsObserver32DidChangeVerticalScrollDirectionEN3viz23VerticalScrollDirectionE to i8*), i8* bitcast (void (%"class.content::WebContentsObserver"*)* @_ZN7content19WebContentsObserver27BeforeFormRepostWarningShowEv to i8*), i8* bitcast (void (%"class.content::WebContentsObserver"*, i1, %"class.base::TimeTicks"*)* @_ZN7content19WebContentsObserver17BeforeUnloadFiredEbRKN4base9TimeTicksE to i8*), i8* bitcast (void (%"class.content::WebContentsObserver"*)* @_ZN7content19WebContentsObserver27BeforeUnloadDialogCancelledEv to i8*), i8* bitcast (void (%"class.content::WebContentsObserver"*)* @_ZN7content19WebContentsObserver30AXTreeIDForMainFrameHasChangedEv to i8*), i8* bitcast (void (%"class.content::WebContentsObserver"*, %"struct.content::AXEventNotificationDetails"*)* @_ZN7content19WebContentsObserver26AccessibilityEventReceivedERKNS_26AXEventNotificationDetailsE to i8*), i8* bitcast (void (%"class.content::WebContentsObserver"*, %"class.std::__1::vector.279"*)* @_ZN7content19WebContentsObserver36AccessibilityLocationChangesReceivedERKNSt3__16vectorINS_35AXLocationChangeNotificationDetailsENS1_9allocatorIS3_EEEE to i8*), i8* bitcast (void (%"class.content::WebContentsObserver"*)* @_ZN7content19WebContentsObserver19DidChangeThemeColorEv to i8*), i8* bitcast (void (%"class.content::WebContentsObserver"*)* @_ZN7content19WebContentsObserver24OnBackgroundColorChangedEv to i8*), i8* bitcast (void (%"class.content::WebContentsObserver"*, %"class.content::RenderFrameHost"*, i32, %"class.std::__1::basic_string.280"*, i32, %"class.std::__1::basic_string.280"*, %"class.absl::optional.289"*)* @_ZN7content19WebContentsObserver24OnDidAddMessageToConsoleEPNS_15RenderFrameHostEN5blink5mojom19ConsoleMessageLevelERKNSt3__112basic_stringIDsNS6_11char_traitsIDsEENS6_9allocatorIDsEEEEiSE_RKN4absl8optionalISC_EE to i8*), i8* bitcast (void (%"class.content::WebContentsObserver"*, %"struct.content::WebContentsObserver::MediaPlayerInfo"*, %"struct.content::MediaPlayerId"*)* @_ZN7content19WebContentsObserver19MediaStartedPlayingERKNS0_15MediaPlayerInfoERKNS_13MediaPlayerIdE to i8*), i8* bitcast (void (%"class.content::WebContentsObserver"*, %"struct.content::WebContentsObserver::MediaPlayerInfo"*, %"struct.content::MediaPlayerId"*, i32)* @_ZN7content19WebContentsObserver19MediaStoppedPlayingERKNS0_15MediaPlayerInfoERKNS_13MediaPlayerIdENS0_18MediaStoppedReasonE to i8*), i8* bitcast (void (%"class.content::WebContentsObserver"*, %"class.gfx::Size"*, %"struct.content::MediaPlayerId"*)* @_ZN7content19WebContentsObserver12MediaResizedERKN3gfx4SizeERKNS_13MediaPlayerIdE to i8*), i8* bitcast (void (%"class.content::WebContentsObserver"*, i1)* @_ZN7content19WebContentsObserver33MediaEffectivelyFullscreenChangedEb to i8*), i8* bitcast (void (%"class.content::WebContentsObserver"*, i1)* @_ZN7content19WebContentsObserver28MediaPictureInPictureChangedEb to i8*), i8* bitcast (void (%"class.content::WebContentsObserver"*, %"struct.content::MediaPlayerId"*, i1)* @_ZN7content19WebContentsObserver23MediaMutedStatusChangedERKNS_13MediaPlayerIdEb to i8*), i8* bitcast (void (%"class.content::WebContentsObserver"*, %"struct.content::MediaPlayerId"*)* @_ZN7content19WebContentsObserver20MediaBufferUnderflowERKNS_13MediaPlayerIdE to i8*), i8* bitcast (void (%"class.content::WebContentsObserver"*, %"struct.content::MediaPlayerId"*)* @_ZN7content19WebContentsObserver15MediaPlayerSeekERKNS_13MediaPlayerIdE to i8*), i8* bitcast (void (%"class.content::WebContentsObserver"*, %"struct.content::MediaPlayerId"*)* @_ZN7content19WebContentsObserver14MediaDestroyedERKNS_13MediaPlayerIdE to i8*), i8* bitcast (void (%"class.content::WebContentsObserver"*, float)* @_ZN7content19WebContentsObserver24OnPageScaleFactorChangedEf to i8*), i8* bitcast (void (%"class.content::WebContentsObserver"*)* @_ZN7content19WebContentsObserver7OnPasteEv to i8*), i8* bitcast (i1 (%"class.content::WebContentsObserver"*, %"class.IPC::Message"*, %"class.content::RenderFrameHost"*)* @_ZN7content19WebContentsObserver17OnMessageReceivedERKN3IPC7MessageEPNS_15RenderFrameHostE to i8*), i8* bitcast (void (%"class.content::WebContentsObserver"*, %"class.content::RenderWidgetHost"*)* @_ZN7content19WebContentsObserver20OnWebContentsFocusedEPNS_16RenderWidgetHostE to i8*), i8* bitcast (void (%"class.content::WebContentsObserver"*, %"class.content::RenderWidgetHost"*)* @_ZN7content19WebContentsObserver22OnWebContentsLostFocusEPNS_16RenderWidgetHostE to i8*), i8* bitcast (void (%"class.content::WebContentsObserver"*, %"struct.content::FocusedNodeDetails"*)* @_ZN7content19WebContentsObserver20OnFocusChangedInPageEPNS_18FocusedNodeDetailsE to i8*), i8* bitcast (void (%"class.content::WebContentsObserver"*, %"class.content::RenderFrameHost"*, %"class.absl::optional.290"*)* @_ZN7content19WebContentsObserver23DidUpdateWebManifestURLEPNS_15RenderFrameHostERKN4absl8optionalI4GURLEE to i8*), i8* bitcast (void (%"class.content::WebContentsObserver"*, %"class.content::RenderFrameHost"*, %"class.std::__1::basic_string"*, %"class.mojo::ScopedHandleBase"*)* @_ZN7content19WebContentsObserver27OnInterfaceRequestFromFrameEPNS_15RenderFrameHostERKNSt3__112basic_stringIcNS3_11char_traitsIcEENS3_9allocatorIcEEEEPN4mojo16ScopedHandleBaseINSC_17MessagePipeHandleEEE to i8*), i8* bitcast (void (%"class.content::WebContentsObserver"*, %"struct.std::__1::pair"*)* @_ZN7content19WebContentsObserver27AudioContextPlaybackStartedERKNSt3__14pairIPNS_15RenderFrameHostEiEE to i8*), i8* bitcast (void (%"class.content::WebContentsObserver"*, %"struct.std::__1::pair"*)* @_ZN7content19WebContentsObserver27AudioContextPlaybackStoppedERKNSt3__14pairIPNS_15RenderFrameHostEiEE to i8*), i8* bitcast (void (%"class.content::WebContentsObserver"*, %"class.content::RenderFrameHost"*, %class.GURL*, i24)* @_ZN7content19WebContentsObserver23OnServiceWorkerAccessedEPNS_15RenderFrameHostERK4GURLNS_24AllowServiceWorkerResultE to i8*), i8* bitcast (void (%"class.content::WebContentsObserver"*, %"class.content::NavigationHandle"*, %class.GURL*, i24)* @_ZN7content19WebContentsObserver23OnServiceWorkerAccessedEPNS_16NavigationHandleERK4GURLNS_24AllowServiceWorkerResultE to i8*), i8* bitcast (void (%"class.chrome_browser_net::NetErrorTabHelper"*)* @_ZN18chrome_browser_net17NetErrorTabHelper13StartDnsProbeEv to i8*), i8* bitcast (void (%"class.chrome_browser_net::NetErrorTabHelper"*)* @_ZN18chrome_browser_net17NetErrorTabHelper8SendInfoEv to i8*), i8* bitcast (void (%"class.chrome_browser_net::NetErrorTabHelper"*, %class.GURL*)* @_ZN18chrome_browser_net17NetErrorTabHelper21RunNetworkDiagnosticsERK4GURL to i8*), i8* bitcast (void (%"class.chrome_browser_net::NetErrorTabHelper"*, %"class.base::OnceCallback.256"*)* @_ZN18chrome_browser_net17NetErrorTabHelper12GetHighScoreEN4base12OnceCallbackIFvjEEE to i8*), i8* bitcast (void (%"class.chrome_browser_net::NetErrorTabHelper"*, i32)* @_ZN18chrome_browser_net17NetErrorTabHelper15UpdateHighScoreEj to i8*), i8* bitcast (void (%"class.chrome_browser_net::NetErrorTabHelper"*)* @_ZN18chrome_browser_net17NetErrorTabHelper14ResetHighScoreEv to i8*), i8* bitcast (void (%"class.chrome_browser_net::NetErrorTabHelper"*, %"class.std::__1::basic_string"*)* @_ZN18chrome_browser_net17NetErrorTabHelper27RunNetworkDiagnosticsHelperERKNSt3__112basic_stringIcNS1_11char_traitsIcEENS1_9allocatorIcEEEE to i8*)], [5 x i8*] [i8* inttoptr (i64 -16 to i8*), i8* null, i8* bitcast (void (%"class.chrome_browser_net::NetErrorTabHelper"*)* @_ZThn16_N18chrome_browser_net17NetErrorTabHelperD1Ev to i8*), i8* bitcast (void (%"class.chrome_browser_net::NetErrorTabHelper"*)* @_ZThn16_N18chrome_browser_net17NetErrorTabHelperD0Ev to i8*), i8* bitcast (void ()* @_ZN4base16SupportsUserData4Data5CloneEv to i8*)], [4 x i8*] [i8* inttoptr (i64 -24 to i8*), i8* null, i8* bitcast (void (%"class.chrome_browser_net::NetErrorTabHelper"*)* @_ZThn24_N18chrome_browser_net17NetErrorTabHelperD1Ev to i8*), i8* bitcast (void (%"class.chrome_browser_net::NetErrorTabHelper"*)* @_ZThn24_N18chrome_browser_net17NetErrorTabHelperD0Ev to i8*)], [5 x i8*] [i8* inttoptr (i64 -32 to i8*), i8* null, i8* bitcast (void (%"class.chrome_browser_net::NetErrorTabHelper"*)* @_ZThn32_N18chrome_browser_net17NetErrorTabHelperD1Ev to i8*), i8* bitcast (void (%"class.chrome_browser_net::NetErrorTabHelper"*)* @_ZThn32_N18chrome_browser_net17NetErrorTabHelperD0Ev to i8*), i8* bitcast (void (%"class.chrome_browser_net::NetErrorTabHelper"*, %class.GURL*)* @_ZThn32_N18chrome_browser_net17NetErrorTabHelper21RunNetworkDiagnosticsERK4GURL to i8*)], [7 x i8*] [i8* inttoptr (i64 -40 to i8*), i8* null, i8* bitcast (void (%"class.chrome_browser_net::NetErrorTabHelper"*)* @_ZThn40_N18chrome_browser_net17NetErrorTabHelperD1Ev to i8*), i8* bitcast (void (%"class.chrome_browser_net::NetErrorTabHelper"*)* @_ZThn40_N18chrome_browser_net17NetErrorTabHelperD0Ev to i8*), i8* bitcast (void (%"class.chrome_browser_net::NetErrorTabHelper"*, %"class.base::OnceCallback.256"*)* @_ZThn40_N18chrome_browser_net17NetErrorTabHelper12GetHighScoreEN4base12OnceCallbackIFvjEEE to i8*), i8* bitcast (void (%"class.chrome_browser_net::NetErrorTabHelper"*, i32)* @_ZThn40_N18chrome_browser_net17NetErrorTabHelper15UpdateHighScoreEj to i8*), i8* bitcast (void (%"class.chrome_browser_net::NetErrorTabHelper"*)* @_ZThn40_N18chrome_browser_net17NetErrorTabHelper14ResetHighScoreEv to i8*)] }, align 8
@_ZN18chrome_browser_net12_GLOBAL__N_114testing_state_E = internal unnamed_addr global i32 0, align 4
@_ZN5prefs26kNetworkEasterEggHighScoreE = external constant [0 x i8], align 1
@_ZN16embedder_support27kAlternateErrorPagesEnabledE = external constant [0 x i8], align 1
@_ZN18chrome_browser_net17NetErrorTabHelper12kUserDataKeyE = hidden local_unnamed_addr constant i32 0, align 4
@_ZTVN7content27WebContentsFrameReceiverSetIN6chrome5mojom19NetErrorPageSupportEE20FrameInterfaceBinderE = linkonce_odr hidden unnamed_addr constant { [7 x i8*], [109 x i8*] } { [7 x i8*] [i8* null, i8* null, i8* bitcast (void (%"class.content::WebContentsFrameReceiverSet<chrome::mojom::NetErrorPageSupport>::FrameInterfaceBinder"*)* @_ZN7content27WebContentsFrameReceiverSetIN6chrome5mojom19NetErrorPageSupportEE20FrameInterfaceBinderD2Ev to i8*), i8* bitcast (void (%"class.content::WebContentsFrameReceiverSet<chrome::mojom::NetErrorPageSupport>::FrameInterfaceBinder"*)* @_ZN7content27WebContentsFrameReceiverSetIN6chrome5mojom19NetErrorPageSupportEE20FrameInterfaceBinderD0Ev to i8*), i8* bitcast (void (%"class.content::WebContentsFrameReceiverSet<chrome::mojom::NetErrorPageSupport>::FrameInterfaceBinder"*, %"class.content::RenderFrameHost"*, %"class.mojo::ScopedInterfaceEndpointHandle"*)* @_ZN7content27WebContentsFrameReceiverSetIN6chrome5mojom19NetErrorPageSupportEE20FrameInterfaceBinder18OnReceiverForFrameEPNS_15RenderFrameHostEN4mojo29ScopedInterfaceEndpointHandleE to i8*), i8* bitcast (void (%"class.content::WebContentsFrameReceiverSet<chrome::mojom::NetErrorPageSupport>::FrameInterfaceBinder"*)* @_ZN7content27WebContentsFrameReceiverSetIN6chrome5mojom19NetErrorPageSupportEE20FrameInterfaceBinder17CloseAllReceiversEv to i8*), i8* bitcast (void (%"class.content::WebContentsFrameReceiverSet<chrome::mojom::NetErrorPageSupport>::FrameInterfaceBinder"*, %"class.content::RenderFrameHost"*)* @_ZN7content27WebContentsFrameReceiverSetIN6chrome5mojom19NetErrorPageSupportEE20FrameInterfaceBinder18RenderFrameDeletedEPNS_15RenderFrameHostE to i8*)], [109 x i8*] [i8* inttoptr (i64 -8 to i8*), i8* null, i8* bitcast (i1 (%"class.content::WebContentsObserver"*, %"class.IPC::Message"*)* @_ZN7content19WebContentsObserver17OnMessageReceivedERKN3IPC7MessageE to i8*), i8* bitcast (void (%"class.IPC::Listener"*, i32)* @_ZN3IPC8Listener18OnChannelConnectedEi to i8*), i8* bitcast (void (%"class.IPC::Listener"*)* @_ZN3IPC8Listener14OnChannelErrorEv to i8*), i8* bitcast (void (%"class.IPC::Listener"*, %"class.IPC::Message"*)* @_ZN3IPC8Listener20OnBadMessageReceivedERKNS_7MessageE to i8*), i8* bitcast (void (%"class.IPC::Listener"*, %"class.std::__1::basic_string"*, %"class.mojo::ScopedInterfaceEndpointHandle"*)* @_ZN3IPC8Listener28OnAssociatedInterfaceRequestERKNSt3__112basic_stringIcNS1_11char_traitsIcEENS1_9allocatorIcEEEEN4mojo29ScopedInterfaceEndpointHandleE to i8*), i8* bitcast (void (%"class.IPC::Listener"*)* @_ZN3IPC8Listener15OnChannelDeniedEv to i8*), i8* bitcast (void (%"class.IPC::Listener"*)* @_ZN3IPC8Listener20OnChannelListenErrorEv to i8*), i8* bitcast (void (%"class.content::WebContentsFrameReceiverSet<chrome::mojom::NetErrorPageSupport>::FrameInterfaceBinder"*)* @_ZThn8_N7content27WebContentsFrameReceiverSetIN6chrome5mojom19NetErrorPageSupportEE20FrameInterfaceBinderD1Ev to i8*), i8* bitcast (void (%"class.content::WebContentsFrameReceiverSet<chrome::mojom::NetErrorPageSupport>::FrameInterfaceBinder"*)* @_ZThn8_N7content27WebContentsFrameReceiverSetIN6chrome5mojom19NetErrorPageSupportEE20FrameInterfaceBinderD0Ev to i8*), i8* bitcast (void (%"class.content::WebContentsObserver"*, %"class.content::RenderFrameHost"*)* @_ZN7content19WebContentsObserver18RenderFrameCreatedEPNS_15RenderFrameHostE to i8*), i8* bitcast (void (%"class.content::WebContentsFrameReceiverSet<chrome::mojom::NetErrorPageSupport>::FrameInterfaceBinder"*, %"class.content::RenderFrameHost"*)* @_ZThn8_N7content27WebContentsFrameReceiverSetIN6chrome5mojom19NetErrorPageSupportEE20FrameInterfaceBinder18RenderFrameDeletedEPNS_15RenderFrameHostE to i8*), i8* bitcast (void (%"class.content::WebContentsObserver"*, %"class.content::RenderFrameHost"*, %"class.content::RenderFrameHost"*)* @_ZN7content19WebContentsObserver22RenderFrameHostChangedEPNS_15RenderFrameHostES2_ to i8*), i8* bitcast (void (%"class.content::WebContentsObserver"*, i32)* @_ZN7content19WebContentsObserver12FrameDeletedEi to i8*), i8* bitcast (void (%"class.content::WebContentsObserver"*, %"class.content::RenderFrameHost"*, i32, i32)* @_ZN7content19WebContentsObserver27RenderFrameHostStateChangedEPNS_15RenderFrameHostENS1_14LifecycleStateES3_ to i8*), i8* bitcast (void (%"class.content::WebContentsObserver"*)* @_ZN7content19WebContentsObserver20CaptureTargetChangedEv to i8*), i8* bitcast (void (%"class.content::WebContentsObserver"*, %"class.blink::mojom::CaptureHandleConfig"*)* @_ZN7content19WebContentsObserver27OnCaptureHandleConfigUpdateERKN5blink5mojom19CaptureHandleConfigE to i8*), i8* bitcast (void (%"class.content::WebContentsObserver"*)* @_ZN7content19WebContentsObserver15RenderViewReadyEv to i8*), i8* bitcast (void (%"class.content::WebContentsObserver"*, %"class.content::RenderViewHost"*)* @_ZN7content19WebContentsObserver17RenderViewDeletedEPNS_14RenderViewHostE to i8*), i8* bitcast (void (%"class.content::WebContentsObserver"*, i32)* @_ZN7content19WebContentsObserver17RenderProcessGoneEN4base17TerminationStatusE to i8*), i8* bitcast (void (%"class.content::WebContentsObserver"*, %"class.content::RenderViewHost"*, %"class.content::RenderViewHost"*)* @_ZN7content19WebContentsObserver21RenderViewHostChangedEPNS_14RenderViewHostES2_ to i8*), i8* bitcast (void (%"class.content::WebContentsObserver"*, %"class.content::RenderProcessHost"*)* @_ZN7content19WebContentsObserver22OnRendererUnresponsiveEPNS_17RenderProcessHostE to i8*), i8* bitcast (void (%"class.content::WebContentsObserver"*, %"class.content::RenderProcessHost"*)* @_ZN7content19WebContentsObserver20OnRendererResponsiveEPNS_17RenderProcessHostE to i8*), i8* bitcast (void (%"class.content::WebContentsObserver"*, %"class.content::NavigationHandle"*)* @_ZN7content19WebContentsObserver18DidStartNavigationEPNS_16NavigationHandleE to i8*), i8* bitcast (void (%"class.content::WebContentsObserver"*, %"class.content::NavigationHandle"*)* @_ZN7content19WebContentsObserver21DidRedirectNavigationEPNS_16NavigationHandleE to i8*), i8* bitcast (void (%"class.content::WebContentsObserver"*, %"class.content::NavigationHandle"*)* @_ZN7content19WebContentsObserver23ReadyToCommitNavigationEPNS_16NavigationHandleE to i8*), i8* bitcast (void (%"class.content::WebContentsObserver"*, %"class.content::NavigationHandle"*)* @_ZN7content19WebContentsObserver19DidFinishNavigationEPNS_16NavigationHandleE to i8*), i8* bitcast (void (%"class.content::WebContentsObserver"*, %"class.content::WebContents"*, i64)* @_ZN7content19WebContentsObserver17DidActivatePortalEPNS_11WebContentsEN4base9TimeTicksE to i8*), i8* bitcast (void (%"class.content::WebContentsObserver"*)* @_ZN7content19WebContentsObserver15DidStartLoadingEv to i8*), i8* bitcast (void (%"class.content::WebContentsObserver"*)* @_ZN7content19WebContentsObserver18DidReceiveResponseEv to i8*), i8* bitcast (void (%"class.content::WebContentsObserver"*)* @_ZN7content19WebContentsObserver14DidStopLoadingEv to i8*), i8* bitcast (void (%"class.content::WebContentsObserver"*, double)* @_ZN7content19WebContentsObserver19LoadProgressChangedEd to i8*), i8* bitcast (void (%"class.content::WebContentsObserver"*, %"class.content::RenderFrameHost"*)* @_ZN7content19WebContentsObserver28DocumentAvailableInMainFrameEPNS_15RenderFrameHostE to i8*), i8* bitcast (void (%"class.content::WebContentsObserver"*, %"class.content::RenderFrameHost"*)* @_ZN7content19WebContentsObserver34DocumentOnLoadCompletedInMainFrameEPNS_15RenderFrameHostE to i8*), i8* bitcast (void (%"class.content::WebContentsObserver"*, %"class.content::RenderFrameHost"*)* @_ZN7content19WebContentsObserver16DOMContentLoadedEPNS_15RenderFrameHostE to i8*), i8* bitcast (void (%"class.content::WebContentsObserver"*, %"class.content::RenderFrameHost"*, %class.GURL*)* @_ZN7content19WebContentsObserver13DidFinishLoadEPNS_15RenderFrameHostERK4GURL to i8*), i8* bitcast (void (%"class.content::WebContentsObserver"*, %"class.content::RenderFrameHost"*, %class.GURL*, i32)* @_ZN7content19WebContentsObserver11DidFailLoadEPNS_15RenderFrameHostERK4GURLi to i8*), i8* bitcast (void (%"class.content::WebContentsObserver"*)* @_ZN7content19WebContentsObserver29DidChangeVisibleSecurityStateEv to i8*), i8* bitcast (void (%"class.content::WebContentsObserver"*, %"class.content::RenderFrameHost"*, %class.GURL*, %"class.std::__1::basic_string"*, i32)* @_ZN7content19WebContentsObserver30DidLoadResourceFromMemoryCacheEPNS_15RenderFrameHostERK4GURLRKNSt3__112basic_stringIcNS6_11char_traitsIcEENS6_9allocatorIcEEEEN7network5mojom18RequestDestinationE to i8*), i8* bitcast (void (%"class.content::WebContentsObserver"*, %"class.content::RenderFrameHost"*, %"struct.content::GlobalRequestID"*, %"class.blink::mojom::ResourceLoadInfo"*)* @_ZN7content19WebContentsObserver20ResourceLoadCompleteEPNS_15RenderFrameHostERKNS_15GlobalRequestIDERKN5blink5mojom16ResourceLoadInfoE to i8*), i8* bitcast (void (%"class.content::WebContentsObserver"*, %"class.content::RenderFrameHost"*, %"struct.content::CookieAccessDetails"*)* @_ZN7content19WebContentsObserver17OnCookiesAccessedEPNS_15RenderFrameHostERKNS_19CookieAccessDetailsE to i8*), i8* bitcast (void (%"class.content::WebContentsObserver"*, %"class.content::NavigationHandle"*, %"struct.content::CookieAccessDetails"*)* @_ZN7content19WebContentsObserver17OnCookiesAccessedEPNS_16NavigationHandleERKNS_19CookieAccessDetailsE to i8*), i8* bitcast (void (%"class.content::WebContentsObserver"*, %"struct.content::LoadCommittedDetails"*)* @_ZN7content19WebContentsObserver24NavigationEntryCommittedERKNS_20LoadCommittedDetailsE to i8*), i8* bitcast (void (%"class.content::WebContentsObserver"*, %"struct.content::PrunedDetails"*)* @_ZN7content19WebContentsObserver20NavigationListPrunedERKNS_13PrunedDetailsE to i8*), i8* bitcast (void (%"class.content::WebContentsObserver"*)* @_ZN7content19WebContentsObserver24NavigationEntriesDeletedEv to i8*), i8* bitcast (void (%"class.content::WebContentsObserver"*, %"struct.content::EntryChangedDetails"*)* @_ZN7content19WebContentsObserver22NavigationEntryChangedERKNS_19EntryChangedDetailsE to i8*), i8* bitcast (void (%"class.content::WebContentsObserver"*, %"class.content::WebContents"*, %"class.content::RenderFrameHost"*, %class.GURL*, %"struct.content::Referrer"*, i32, i32, i1, i1)* @_ZN7content19WebContentsObserver19DidOpenRequestedURLEPNS_11WebContentsEPNS_15RenderFrameHostERK4GURLRKNS_8ReferrerE21WindowOpenDispositionN2ui14PageTransitionEbb to i8*), i8* bitcast (void (%"class.content::WebContentsObserver"*)* @_ZN7content19WebContentsObserver29DidFirstVisuallyNonEmptyPaintEv to i8*), i8* bitcast (void (%"class.content::WebContentsObserver"*)* @_ZN7content19WebContentsObserver17NavigationStoppedEv to i8*), i8* bitcast (void (%"class.content::WebContentsObserver"*, %"class.blink::WebInputEvent"*)* @_ZN7content19WebContentsObserver21DidGetUserInteractionERKN5blink13WebInputEventE to i8*), i8* bitcast (void (%"class.content::WebContentsObserver"*)* @_ZN7content19WebContentsObserver20DidGetIgnoredUIEventEv to i8*), i8* bitcast (void (%"class.content::WebContentsObserver"*, i32)* @_ZN7content19WebContentsObserver19OnVisibilityChangedENS_10VisibilityE to i8*), i8* bitcast (void (%"class.content::WebContentsObserver"*, i1)* @_ZN7content19WebContentsObserver19MainFrameWasResizedEb to i8*), i8* bitcast (void (%"class.content::WebContentsObserver"*, %"class.content::RenderFrameHost"*, %"class.std::__1::basic_string"*)* @_ZN7content19WebContentsObserver16FrameNameChangedEPNS_15RenderFrameHostERKNSt3__112basic_stringIcNS3_11char_traitsIcEENS3_9allocatorIcEEEE to i8*), i8* bitcast (void (%"class.content::WebContentsObserver"*, %"class.content::RenderFrameHost"*)* @_ZN7content19WebContentsObserver27FrameReceivedUserActivationEPNS_15RenderFrameHostE to i8*), i8* bitcast (void (%"class.content::WebContentsObserver"*, %"class.content::RenderFrameHost"*, i1)* @_ZN7content19WebContentsObserver24FrameDisplayStateChangedEPNS_15RenderFrameHostEb to i8*), i8* bitcast (void (%"class.content::WebContentsObserver"*, %"class.content::RenderFrameHost"*, %"class.gfx::Size"*)* @_ZN7content19WebContentsObserver16FrameSizeChangedEPNS_15RenderFrameHostERKN3gfx4SizeE to i8*), i8* bitcast (void (%"class.content::WebContentsObserver"*, %"class.content::NavigationEntry"*)* @_ZN7content19WebContentsObserver11TitleWasSetEPNS_15NavigationEntryE to i8*), i8* bitcast (void (%"class.content::WebContentsObserver"*, %class.GURL*, i1)* @_ZN7content19WebContentsObserver16AppCacheAccessedERK4GURLb to i8*), i8* bitcast (void (%"class.content::WebContentsObserver"*)* @_ZN7content19WebContentsObserver21PepperInstanceCreatedEv to i8*), i8* bitcast (void (%"class.content::WebContentsObserver"*)* @_ZN7content19WebContentsObserver21PepperInstanceDeletedEv to i8*), i8* bitcast (void (%"class.content::WebContentsObserver"*, i32)* @_ZN7content19WebContentsObserver18ViewportFitChangedEN5blink5mojom11ViewportFitE to i8*), i8* bitcast (void (%"class.content::WebContentsObserver"*, %"class.base::FilePath"*, i32)* @_ZN7content19WebContentsObserver13PluginCrashedERKN4base8FilePathEi to i8*), i8* bitcast (void (%"class.content::WebContentsObserver"*, i32, %"class.base::FilePath"*, i1)* @_ZN7content19WebContentsObserver23PluginHungStatusChangedEiRKN4base8FilePathEb to i8*), i8* bitcast (void (%"class.content::WebContentsObserver"*, %"class.content::WebContents"*)* @_ZN7content19WebContentsObserver23InnerWebContentsCreatedEPNS_11WebContentsE to i8*), i8* bitcast (void (%"class.content::WebContentsObserver"*, %"class.content::WebContents"*, %"class.content::RenderFrameHost"*, i1)* @_ZN7content19WebContentsObserver24InnerWebContentsAttachedEPNS_11WebContentsEPNS_15RenderFrameHostEb to i8*), i8* bitcast (void (%"class.content::WebContentsObserver"*, %"class.content::WebContents"*)* @_ZN7content19WebContentsObserver24InnerWebContentsDetachedEPNS_11WebContentsE to i8*), i8* bitcast (void (%"class.content::WebContentsObserver"*, %"class.content::WebContents"*, %"class.content::WebContents"*)* @_ZN7content19WebContentsObserver24DidCloneToNewWebContentsEPNS_11WebContentsES2_ to i8*), i8* bitcast (void (%"class.content::WebContentsObserver"*)* @_ZN7content19WebContentsObserver20WebContentsDestroyedEv to i8*), i8* bitcast (void (%"class.content::WebContentsObserver"*, %"struct.blink::UserAgentOverride"*)* @_ZN7content19WebContentsObserver20UserAgentOverrideSetERKN5blink17UserAgentOverrideE to i8*), i8* bitcast (void (%"class.content::WebContentsObserver"*, %"class.content::RenderFrameHost"*, %"class.std::__1::vector.278"*)* @_ZN7content19WebContentsObserver19DidUpdateFaviconURLEPNS_15RenderFrameHostERKNSt3__16vectorIN4mojo9StructPtrIN5blink5mojom10FaviconURLEEENS3_9allocatorISA_EEEE to i8*), i8* bitcast (void (%"class.content::WebContentsObserver"*, i1)* @_ZN7content19WebContentsObserver19OnAudioStateChangedEb to i8*), i8* bitcast (void (%"class.content::WebContentsObserver"*, %"class.content::RenderFrameHost"*, i1)* @_ZN7content19WebContentsObserver24OnFrameAudioStateChangedEPNS_15RenderFrameHostEb to i8*), i8* bitcast (void (%"class.content::WebContentsObserver"*, i1)* @_ZN7content19WebContentsObserver37OnIsConnectedToBluetoothDeviceChangedEb to i8*), i8* bitcast (void (%"class.content::WebContentsObserver"*, i1)* @_ZN7content19WebContentsObserver25DidUpdateAudioMutingStateEb to i8*), i8* bitcast (void (%"class.content::WebContentsObserver"*, i1, i1)* @_ZN7content19WebContentsObserver29DidToggleFullscreenModeForTabEbb to i8*), i8* bitcast (void (%"class.content::WebContentsObserver"*, %"class.content::RenderFrameHost"*)* @_ZN7content19WebContentsObserver20DidAcquireFullscreenEPNS_15RenderFrameHostE to i8*), i8* bitcast (void (%"class.content::WebContentsObserver"*, i32)* @_ZN7content19WebContentsObserver32DidChangeVerticalScrollDirectionEN3viz23VerticalScrollDirectionE to i8*), i8* bitcast (void (%"class.content::WebContentsObserver"*)* @_ZN7content19WebContentsObserver27BeforeFormRepostWarningShowEv to i8*), i8* bitcast (void (%"class.content::WebContentsObserver"*, i1, %"class.base::TimeTicks"*)* @_ZN7content19WebContentsObserver17BeforeUnloadFiredEbRKN4base9TimeTicksE to i8*), i8* bitcast (void (%"class.content::WebContentsObserver"*)* @_ZN7content19WebContentsObserver27BeforeUnloadDialogCancelledEv to i8*), i8* bitcast (void (%"class.content::WebContentsObserver"*)* @_ZN7content19WebContentsObserver30AXTreeIDForMainFrameHasChangedEv to i8*), i8* bitcast (void (%"class.content::WebContentsObserver"*, %"struct.content::AXEventNotificationDetails"*)* @_ZN7content19WebContentsObserver26AccessibilityEventReceivedERKNS_26AXEventNotificationDetailsE to i8*), i8* bitcast (void (%"class.content::WebContentsObserver"*, %"class.std::__1::vector.279"*)* @_ZN7content19WebContentsObserver36AccessibilityLocationChangesReceivedERKNSt3__16vectorINS_35AXLocationChangeNotificationDetailsENS1_9allocatorIS3_EEEE to i8*), i8* bitcast (void (%"class.content::WebContentsObserver"*)* @_ZN7content19WebContentsObserver19DidChangeThemeColorEv to i8*), i8* bitcast (void (%"class.content::WebContentsObserver"*)* @_ZN7content19WebContentsObserver24OnBackgroundColorChangedEv to i8*), i8* bitcast (void (%"class.content::WebContentsObserver"*, %"class.content::RenderFrameHost"*, i32, %"class.std::__1::basic_string.280"*, i32, %"class.std::__1::basic_string.280"*, %"class.absl::optional.289"*)* @_ZN7content19WebContentsObserver24OnDidAddMessageToConsoleEPNS_15RenderFrameHostEN5blink5mojom19ConsoleMessageLevelERKNSt3__112basic_stringIDsNS6_11char_traitsIDsEENS6_9allocatorIDsEEEEiSE_RKN4absl8optionalISC_EE to i8*), i8* bitcast (void (%"class.content::WebContentsObserver"*, %"struct.content::WebContentsObserver::MediaPlayerInfo"*, %"struct.content::MediaPlayerId"*)* @_ZN7content19WebContentsObserver19MediaStartedPlayingERKNS0_15MediaPlayerInfoERKNS_13MediaPlayerIdE to i8*), i8* bitcast (void (%"class.content::WebContentsObserver"*, %"struct.content::WebContentsObserver::MediaPlayerInfo"*, %"struct.content::MediaPlayerId"*, i32)* @_ZN7content19WebContentsObserver19MediaStoppedPlayingERKNS0_15MediaPlayerInfoERKNS_13MediaPlayerIdENS0_18MediaStoppedReasonE to i8*), i8* bitcast (void (%"class.content::WebContentsObserver"*, %"class.gfx::Size"*, %"struct.content::MediaPlayerId"*)* @_ZN7content19WebContentsObserver12MediaResizedERKN3gfx4SizeERKNS_13MediaPlayerIdE to i8*), i8* bitcast (void (%"class.content::WebContentsObserver"*, i1)* @_ZN7content19WebContentsObserver33MediaEffectivelyFullscreenChangedEb to i8*), i8* bitcast (void (%"class.content::WebContentsObserver"*, i1)* @_ZN7content19WebContentsObserver28MediaPictureInPictureChangedEb to i8*), i8* bitcast (void (%"class.content::WebContentsObserver"*, %"struct.content::MediaPlayerId"*, i1)* @_ZN7content19WebContentsObserver23MediaMutedStatusChangedERKNS_13MediaPlayerIdEb to i8*), i8* bitcast (void (%"class.content::WebContentsObserver"*, %"struct.content::MediaPlayerId"*)* @_ZN7content19WebContentsObserver20MediaBufferUnderflowERKNS_13MediaPlayerIdE to i8*), i8* bitcast (void (%"class.content::WebContentsObserver"*, %"struct.content::MediaPlayerId"*)* @_ZN7content19WebContentsObserver15MediaPlayerSeekERKNS_13MediaPlayerIdE to i8*), i8* bitcast (void (%"class.content::WebContentsObserver"*, %"struct.content::MediaPlayerId"*)* @_ZN7content19WebContentsObserver14MediaDestroyedERKNS_13MediaPlayerIdE to i8*), i8* bitcast (void (%"class.content::WebContentsObserver"*, float)* @_ZN7content19WebContentsObserver24OnPageScaleFactorChangedEf to i8*), i8* bitcast (void (%"class.content::WebContentsObserver"*)* @_ZN7content19WebContentsObserver7OnPasteEv to i8*), i8* bitcast (i1 (%"class.content::WebContentsObserver"*, %"class.IPC::Message"*, %"class.content::RenderFrameHost"*)* @_ZN7content19WebContentsObserver17OnMessageReceivedERKN3IPC7MessageEPNS_15RenderFrameHostE to i8*), i8* bitcast (void (%"class.content::WebContentsObserver"*, %"class.content::RenderWidgetHost"*)* @_ZN7content19WebContentsObserver20OnWebContentsFocusedEPNS_16RenderWidgetHostE to i8*), i8* bitcast (void (%"class.content::WebContentsObserver"*, %"class.content::RenderWidgetHost"*)* @_ZN7content19WebContentsObserver22OnWebContentsLostFocusEPNS_16RenderWidgetHostE to i8*), i8* bitcast (void (%"class.content::WebContentsObserver"*, %"struct.content::FocusedNodeDetails"*)* @_ZN7content19WebContentsObserver20OnFocusChangedInPageEPNS_18FocusedNodeDetailsE to i8*), i8* bitcast (void (%"class.content::WebContentsObserver"*, %"class.content::RenderFrameHost"*, %"class.absl::optional.290"*)* @_ZN7content19WebContentsObserver23DidUpdateWebManifestURLEPNS_15RenderFrameHostERKN4absl8optionalI4GURLEE to i8*), i8* bitcast (void (%"class.content::WebContentsObserver"*, %"class.content::RenderFrameHost"*, %"class.std::__1::basic_string"*, %"class.mojo::ScopedHandleBase"*)* @_ZN7content19WebContentsObserver27OnInterfaceRequestFromFrameEPNS_15RenderFrameHostERKNSt3__112basic_stringIcNS3_11char_traitsIcEENS3_9allocatorIcEEEEPN4mojo16ScopedHandleBaseINSC_17MessagePipeHandleEEE to i8*), i8* bitcast (void (%"class.content::WebContentsObserver"*, %"struct.std::__1::pair"*)* @_ZN7content19WebContentsObserver27AudioContextPlaybackStartedERKNSt3__14pairIPNS_15RenderFrameHostEiEE to i8*), i8* bitcast (void (%"class.content::WebContentsObserver"*, %"struct.std::__1::pair"*)* @_ZN7content19WebContentsObserver27AudioContextPlaybackStoppedERKNSt3__14pairIPNS_15RenderFrameHostEiEE to i8*), i8* bitcast (void (%"class.content::WebContentsObserver"*, %"class.content::RenderFrameHost"*, %class.GURL*, i24)* @_ZN7content19WebContentsObserver23OnServiceWorkerAccessedEPNS_15RenderFrameHostERK4GURLNS_24AllowServiceWorkerResultE to i8*), i8* bitcast (void (%"class.content::WebContentsObserver"*, %"class.content::NavigationHandle"*, %class.GURL*, i24)* @_ZN7content19WebContentsObserver23OnServiceWorkerAccessedEPNS_16NavigationHandleERK4GURLNS_24AllowServiceWorkerResultE to i8*)] }, comdat, align 8
@_ZTVN4mojo15ReceiverSetBaseINS_18AssociatedReceiverIN6chrome5mojom19NetErrorPageSupportENS_19RawPtrImplRefTraitsIS4_EEEEPN7content15RenderFrameHostEE13ReceiverEntryE = linkonce_odr hidden unnamed_addr constant { [7 x i8*] } { [7 x i8*] [i8* null, i8* null, i8* bitcast (void (%"class.mojo::ReceiverSetBase<mojo::AssociatedReceiver<chrome::mojom::NetErrorPageSupport, mojo::RawPtrImplRefTraits<chrome::mojom::NetErrorPageSupport> >, content::RenderFrameHost *>::ReceiverEntry"*)* @_ZN4mojo15ReceiverSetBaseINS_18AssociatedReceiverIN6chrome5mojom19NetErrorPageSupportENS_19RawPtrImplRefTraitsIS4_EEEEPN7content15RenderFrameHostEE13ReceiverEntryD2Ev to i8*), i8* bitcast (void (%"class.mojo::ReceiverSetBase<mojo::AssociatedReceiver<chrome::mojom::NetErrorPageSupport, mojo::RawPtrImplRefTraits<chrome::mojom::NetErrorPageSupport> >, content::RenderFrameHost *>::ReceiverEntry"*)* @_ZN4mojo15ReceiverSetBaseINS_18AssociatedReceiverIN6chrome5mojom19NetErrorPageSupportENS_19RawPtrImplRefTraitsIS4_EEEEPN7content15RenderFrameHostEE13ReceiverEntryD0Ev to i8*), i8* bitcast (i8* (%"class.mojo::ReceiverSetBase<mojo::AssociatedReceiver<chrome::mojom::NetErrorPageSupport, mojo::RawPtrImplRefTraits<chrome::mojom::NetErrorPageSupport> >, content::RenderFrameHost *>::ReceiverEntry"*)* @_ZNK4mojo15ReceiverSetBaseINS_18AssociatedReceiverIN6chrome5mojom19NetErrorPageSupportENS_19RawPtrImplRefTraitsIS4_EEEEPN7content15RenderFrameHostEE13ReceiverEntry10GetContextEv to i8*), i8* bitcast (void (%"class.mojo::ReceiverSetBase<mojo::AssociatedReceiver<chrome::mojom::NetErrorPageSupport, mojo::RawPtrImplRefTraits<chrome::mojom::NetErrorPageSupport> >, content::RenderFrameHost *>::ReceiverEntry"*, %"class.mojo::MessageFilter"*, %"class.base::RepeatingCallback.5"*)* @_ZN4mojo15ReceiverSetBaseINS_18AssociatedReceiverIN6chrome5mojom19NetErrorPageSupportENS_19RawPtrImplRefTraitsIS4_EEEEPN7content15RenderFrameHostEE13ReceiverEntry20InstallDispatchHooksENSt3__110unique_ptrINS_13MessageFilterENSD_14default_deleteISF_EEEEN4base17RepeatingCallbackIFvjRKNSD_12basic_stringIcNSD_11char_traitsIcEENSD_9allocatorIcEEEEEEE to i8*), i8* bitcast (void (%"class.mojo::ReceiverSetBase<mojo::AssociatedReceiver<chrome::mojom::NetErrorPageSupport, mojo::RawPtrImplRefTraits<chrome::mojom::NetErrorPageSupport> >, content::RenderFrameHost *>::ReceiverEntry"*)* @_ZN4mojo15ReceiverSetBaseINS_18AssociatedReceiverIN6chrome5mojom19NetErrorPageSupportENS_19RawPtrImplRefTraitsIS4_EEEEPN7content15RenderFrameHostEE13ReceiverEntry15FlushForTestingEv to i8*)] }, comdat, align 8
@_ZTVN6chrome5mojom23NetErrorPageSupportStubIN4mojo19RawPtrImplRefTraitsINS0_19NetErrorPageSupportEEEEE = linkonce_odr hidden unnamed_addr constant { [7 x i8*] } { [7 x i8*] [i8* null, i8* null, i8* bitcast (void (%"class.mojo::MessageReceiver"*)* @_ZN4mojo15MessageReceiverD2Ev to i8*), i8* bitcast (void (%"class.chrome::mojom::NetErrorPageSupportStub"*)* @_ZN6chrome5mojom23NetErrorPageSupportStubIN4mojo19RawPtrImplRefTraitsINS0_19NetErrorPageSupportEEEED0Ev to i8*), i8* bitcast (i1 (%"class.mojo::MessageReceiver"*)* @_ZN4mojo15MessageReceiver25PrefersSerializedMessagesEv to i8*), i8* bitcast (i1 (%"class.chrome::mojom::NetErrorPageSupportStub"*, %"class.mojo::Message"*)* @_ZN6chrome5mojom23NetErrorPageSupportStubIN4mojo19RawPtrImplRefTraitsINS0_19NetErrorPageSupportEEEE6AcceptEPNS2_7MessageE to i8*), i8* bitcast (i1 (%"class.chrome::mojom::NetErrorPageSupportStub"*, %"class.mojo::Message"*, %"class.mojo::MessageReceiverWithStatus"*)* @_ZN6chrome5mojom23NetErrorPageSupportStubIN4mojo19RawPtrImplRefTraitsINS0_19NetErrorPageSupportEEEE19AcceptWithResponderEPNS2_7MessageENSt3__110unique_ptrINS2_25MessageReceiverWithStatusENS9_14default_deleteISB_EEEE to i8*)] }, comdat, align 8
@_ZN6chrome5mojom19NetErrorPageSupport5Name_E = external constant [0 x i8], align 1
@_ZTVN6chrome5mojom35NetErrorPageSupportRequestValidatorE = external unnamed_addr constant { [6 x i8*] }, align 8
@_ZTVN7content27WebContentsFrameReceiverSetIN6chrome5mojom16NetworkEasterEggEE20FrameInterfaceBinderE = linkonce_odr hidden unnamed_addr constant { [7 x i8*], [109 x i8*] } { [7 x i8*] [i8* null, i8* null, i8* bitcast (void (%"class.content::WebContentsFrameReceiverSet<chrome::mojom::NetworkEasterEgg>::FrameInterfaceBinder"*)* @_ZN7content27WebContentsFrameReceiverSetIN6chrome5mojom16NetworkEasterEggEE20FrameInterfaceBinderD2Ev to i8*), i8* bitcast (void (%"class.content::WebContentsFrameReceiverSet<chrome::mojom::NetworkEasterEgg>::FrameInterfaceBinder"*)* @_ZN7content27WebContentsFrameReceiverSetIN6chrome5mojom16NetworkEasterEggEE20FrameInterfaceBinderD0Ev to i8*), i8* bitcast (void (%"class.content::WebContentsFrameReceiverSet<chrome::mojom::NetworkEasterEgg>::FrameInterfaceBinder"*, %"class.content::RenderFrameHost"*, %"class.mojo::ScopedInterfaceEndpointHandle"*)* @_ZN7content27WebContentsFrameReceiverSetIN6chrome5mojom16NetworkEasterEggEE20FrameInterfaceBinder18OnReceiverForFrameEPNS_15RenderFrameHostEN4mojo29ScopedInterfaceEndpointHandleE to i8*), i8* bitcast (void (%"class.content::WebContentsFrameReceiverSet<chrome::mojom::NetworkEasterEgg>::FrameInterfaceBinder"*)* @_ZN7content27WebContentsFrameReceiverSetIN6chrome5mojom16NetworkEasterEggEE20FrameInterfaceBinder17CloseAllReceiversEv to i8*), i8* bitcast (void (%"class.content::WebContentsFrameReceiverSet<chrome::mojom::NetworkEasterEgg>::FrameInterfaceBinder"*, %"class.content::RenderFrameHost"*)* @_ZN7content27WebContentsFrameReceiverSetIN6chrome5mojom16NetworkEasterEggEE20FrameInterfaceBinder18RenderFrameDeletedEPNS_15RenderFrameHostE to i8*)], [109 x i8*] [i8* inttoptr (i64 -8 to i8*), i8* null, i8* bitcast (i1 (%"class.content::WebContentsObserver"*, %"class.IPC::Message"*)* @_ZN7content19WebContentsObserver17OnMessageReceivedERKN3IPC7MessageE to i8*), i8* bitcast (void (%"class.IPC::Listener"*, i32)* @_ZN3IPC8Listener18OnChannelConnectedEi to i8*), i8* bitcast (void (%"class.IPC::Listener"*)* @_ZN3IPC8Listener14OnChannelErrorEv to i8*), i8* bitcast (void (%"class.IPC::Listener"*, %"class.IPC::Message"*)* @_ZN3IPC8Listener20OnBadMessageReceivedERKNS_7MessageE to i8*), i8* bitcast (void (%"class.IPC::Listener"*, %"class.std::__1::basic_string"*, %"class.mojo::ScopedInterfaceEndpointHandle"*)* @_ZN3IPC8Listener28OnAssociatedInterfaceRequestERKNSt3__112basic_stringIcNS1_11char_traitsIcEENS1_9allocatorIcEEEEN4mojo29ScopedInterfaceEndpointHandleE to i8*), i8* bitcast (void (%"class.IPC::Listener"*)* @_ZN3IPC8Listener15OnChannelDeniedEv to i8*), i8* bitcast (void (%"class.IPC::Listener"*)* @_ZN3IPC8Listener20OnChannelListenErrorEv to i8*), i8* bitcast (void (%"class.content::WebContentsFrameReceiverSet<chrome::mojom::NetworkEasterEgg>::FrameInterfaceBinder"*)* @_ZThn8_N7content27WebContentsFrameReceiverSetIN6chrome5mojom16NetworkEasterEggEE20FrameInterfaceBinderD1Ev to i8*), i8* bitcast (void (%"class.content::WebContentsFrameReceiverSet<chrome::mojom::NetworkEasterEgg>::FrameInterfaceBinder"*)* @_ZThn8_N7content27WebContentsFrameReceiverSetIN6chrome5mojom16NetworkEasterEggEE20FrameInterfaceBinderD0Ev to i8*), i8* bitcast (void (%"class.content::WebContentsObserver"*, %"class.content::RenderFrameHost"*)* @_ZN7content19WebContentsObserver18RenderFrameCreatedEPNS_15RenderFrameHostE to i8*), i8* bitcast (void (%"class.content::WebContentsFrameReceiverSet<chrome::mojom::NetworkEasterEgg>::FrameInterfaceBinder"*, %"class.content::RenderFrameHost"*)* @_ZThn8_N7content27WebContentsFrameReceiverSetIN6chrome5mojom16NetworkEasterEggEE20FrameInterfaceBinder18RenderFrameDeletedEPNS_15RenderFrameHostE to i8*), i8* bitcast (void (%"class.content::WebContentsObserver"*, %"class.content::RenderFrameHost"*, %"class.content::RenderFrameHost"*)* @_ZN7content19WebContentsObserver22RenderFrameHostChangedEPNS_15RenderFrameHostES2_ to i8*), i8* bitcast (void (%"class.content::WebContentsObserver"*, i32)* @_ZN7content19WebContentsObserver12FrameDeletedEi to i8*), i8* bitcast (void (%"class.content::WebContentsObserver"*, %"class.content::RenderFrameHost"*, i32, i32)* @_ZN7content19WebContentsObserver27RenderFrameHostStateChangedEPNS_15RenderFrameHostENS1_14LifecycleStateES3_ to i8*), i8* bitcast (void (%"class.content::WebContentsObserver"*)* @_ZN7content19WebContentsObserver20CaptureTargetChangedEv to i8*), i8* bitcast (void (%"class.content::WebContentsObserver"*, %"class.blink::mojom::CaptureHandleConfig"*)* @_ZN7content19WebContentsObserver27OnCaptureHandleConfigUpdateERKN5blink5mojom19CaptureHandleConfigE to i8*), i8* bitcast (void (%"class.content::WebContentsObserver"*)* @_ZN7content19WebContentsObserver15RenderViewReadyEv to i8*), i8* bitcast (void (%"class.content::WebContentsObserver"*, %"class.content::RenderViewHost"*)* @_ZN7content19WebContentsObserver17RenderViewDeletedEPNS_14RenderViewHostE to i8*), i8* bitcast (void (%"class.content::WebContentsObserver"*, i32)* @_ZN7content19WebContentsObserver17RenderProcessGoneEN4base17TerminationStatusE to i8*), i8* bitcast (void (%"class.content::WebContentsObserver"*, %"class.content::RenderViewHost"*, %"class.content::RenderViewHost"*)* @_ZN7content19WebContentsObserver21RenderViewHostChangedEPNS_14RenderViewHostES2_ to i8*), i8* bitcast (void (%"class.content::WebContentsObserver"*, %"class.content::RenderProcessHost"*)* @_ZN7content19WebContentsObserver22OnRendererUnresponsiveEPNS_17RenderProcessHostE to i8*), i8* bitcast (void (%"class.content::WebContentsObserver"*, %"class.content::RenderProcessHost"*)* @_ZN7content19WebContentsObserver20OnRendererResponsiveEPNS_17RenderProcessHostE to i8*), i8* bitcast (void (%"class.content::WebContentsObserver"*, %"class.content::NavigationHandle"*)* @_ZN7content19WebContentsObserver18DidStartNavigationEPNS_16NavigationHandleE to i8*), i8* bitcast (void (%"class.content::WebContentsObserver"*, %"class.content::NavigationHandle"*)* @_ZN7content19WebContentsObserver21DidRedirectNavigationEPNS_16NavigationHandleE to i8*), i8* bitcast (void (%"class.content::WebContentsObserver"*, %"class.content::NavigationHandle"*)* @_ZN7content19WebContentsObserver23ReadyToCommitNavigationEPNS_16NavigationHandleE to i8*), i8* bitcast (void (%"class.content::WebContentsObserver"*, %"class.content::NavigationHandle"*)* @_ZN7content19WebContentsObserver19DidFinishNavigationEPNS_16NavigationHandleE to i8*), i8* bitcast (void (%"class.content::WebContentsObserver"*, %"class.content::WebContents"*, i64)* @_ZN7content19WebContentsObserver17DidActivatePortalEPNS_11WebContentsEN4base9TimeTicksE to i8*), i8* bitcast (void (%"class.content::WebContentsObserver"*)* @_ZN7content19WebContentsObserver15DidStartLoadingEv to i8*), i8* bitcast (void (%"class.content::WebContentsObserver"*)* @_ZN7content19WebContentsObserver18DidReceiveResponseEv to i8*), i8* bitcast (void (%"class.content::WebContentsObserver"*)* @_ZN7content19WebContentsObserver14DidStopLoadingEv to i8*), i8* bitcast (void (%"class.content::WebContentsObserver"*, double)* @_ZN7content19WebContentsObserver19LoadProgressChangedEd to i8*), i8* bitcast (void (%"class.content::WebContentsObserver"*, %"class.content::RenderFrameHost"*)* @_ZN7content19WebContentsObserver28DocumentAvailableInMainFrameEPNS_15RenderFrameHostE to i8*), i8* bitcast (void (%"class.content::WebContentsObserver"*, %"class.content::RenderFrameHost"*)* @_ZN7content19WebContentsObserver34DocumentOnLoadCompletedInMainFrameEPNS_15RenderFrameHostE to i8*), i8* bitcast (void (%"class.content::WebContentsObserver"*, %"class.content::RenderFrameHost"*)* @_ZN7content19WebContentsObserver16DOMContentLoadedEPNS_15RenderFrameHostE to i8*), i8* bitcast (void (%"class.content::WebContentsObserver"*, %"class.content::RenderFrameHost"*, %class.GURL*)* @_ZN7content19WebContentsObserver13DidFinishLoadEPNS_15RenderFrameHostERK4GURL to i8*), i8* bitcast (void (%"class.content::WebContentsObserver"*, %"class.content::RenderFrameHost"*, %class.GURL*, i32)* @_ZN7content19WebContentsObserver11DidFailLoadEPNS_15RenderFrameHostERK4GURLi to i8*), i8* bitcast (void (%"class.content::WebContentsObserver"*)* @_ZN7content19WebContentsObserver29DidChangeVisibleSecurityStateEv to i8*), i8* bitcast (void (%"class.content::WebContentsObserver"*, %"class.content::RenderFrameHost"*, %class.GURL*, %"class.std::__1::basic_string"*, i32)* @_ZN7content19WebContentsObserver30DidLoadResourceFromMemoryCacheEPNS_15RenderFrameHostERK4GURLRKNSt3__112basic_stringIcNS6_11char_traitsIcEENS6_9allocatorIcEEEEN7network5mojom18RequestDestinationE to i8*), i8* bitcast (void (%"class.content::WebContentsObserver"*, %"class.content::RenderFrameHost"*, %"struct.content::GlobalRequestID"*, %"class.blink::mojom::ResourceLoadInfo"*)* @_ZN7content19WebContentsObserver20ResourceLoadCompleteEPNS_15RenderFrameHostERKNS_15GlobalRequestIDERKN5blink5mojom16ResourceLoadInfoE to i8*), i8* bitcast (void (%"class.content::WebContentsObserver"*, %"class.content::RenderFrameHost"*, %"struct.content::CookieAccessDetails"*)* @_ZN7content19WebContentsObserver17OnCookiesAccessedEPNS_15RenderFrameHostERKNS_19CookieAccessDetailsE to i8*), i8* bitcast (void (%"class.content::WebContentsObserver"*, %"class.content::NavigationHandle"*, %"struct.content::CookieAccessDetails"*)* @_ZN7content19WebContentsObserver17OnCookiesAccessedEPNS_16NavigationHandleERKNS_19CookieAccessDetailsE to i8*), i8* bitcast (void (%"class.content::WebContentsObserver"*, %"struct.content::LoadCommittedDetails"*)* @_ZN7content19WebContentsObserver24NavigationEntryCommittedERKNS_20LoadCommittedDetailsE to i8*), i8* bitcast (void (%"class.content::WebContentsObserver"*, %"struct.content::PrunedDetails"*)* @_ZN7content19WebContentsObserver20NavigationListPrunedERKNS_13PrunedDetailsE to i8*), i8* bitcast (void (%"class.content::WebContentsObserver"*)* @_ZN7content19WebContentsObserver24NavigationEntriesDeletedEv to i8*), i8* bitcast (void (%"class.content::WebContentsObserver"*, %"struct.content::EntryChangedDetails"*)* @_ZN7content19WebContentsObserver22NavigationEntryChangedERKNS_19EntryChangedDetailsE to i8*), i8* bitcast (void (%"class.content::WebContentsObserver"*, %"class.content::WebContents"*, %"class.content::RenderFrameHost"*, %class.GURL*, %"struct.content::Referrer"*, i32, i32, i1, i1)* @_ZN7content19WebContentsObserver19DidOpenRequestedURLEPNS_11WebContentsEPNS_15RenderFrameHostERK4GURLRKNS_8ReferrerE21WindowOpenDispositionN2ui14PageTransitionEbb to i8*), i8* bitcast (void (%"class.content::WebContentsObserver"*)* @_ZN7content19WebContentsObserver29DidFirstVisuallyNonEmptyPaintEv to i8*), i8* bitcast (void (%"class.content::WebContentsObserver"*)* @_ZN7content19WebContentsObserver17NavigationStoppedEv to i8*), i8* bitcast (void (%"class.content::WebContentsObserver"*, %"class.blink::WebInputEvent"*)* @_ZN7content19WebContentsObserver21DidGetUserInteractionERKN5blink13WebInputEventE to i8*), i8* bitcast (void (%"class.content::WebContentsObserver"*)* @_ZN7content19WebContentsObserver20DidGetIgnoredUIEventEv to i8*), i8* bitcast (void (%"class.content::WebContentsObserver"*, i32)* @_ZN7content19WebContentsObserver19OnVisibilityChangedENS_10VisibilityE to i8*), i8* bitcast (void (%"class.content::WebContentsObserver"*, i1)* @_ZN7content19WebContentsObserver19MainFrameWasResizedEb to i8*), i8* bitcast (void (%"class.content::WebContentsObserver"*, %"class.content::RenderFrameHost"*, %"class.std::__1::basic_string"*)* @_ZN7content19WebContentsObserver16FrameNameChangedEPNS_15RenderFrameHostERKNSt3__112basic_stringIcNS3_11char_traitsIcEENS3_9allocatorIcEEEE to i8*), i8* bitcast (void (%"class.content::WebContentsObserver"*, %"class.content::RenderFrameHost"*)* @_ZN7content19WebContentsObserver27FrameReceivedUserActivationEPNS_15RenderFrameHostE to i8*), i8* bitcast (void (%"class.content::WebContentsObserver"*, %"class.content::RenderFrameHost"*, i1)* @_ZN7content19WebContentsObserver24FrameDisplayStateChangedEPNS_15RenderFrameHostEb to i8*), i8* bitcast (void (%"class.content::WebContentsObserver"*, %"class.content::RenderFrameHost"*, %"class.gfx::Size"*)* @_ZN7content19WebContentsObserver16FrameSizeChangedEPNS_15RenderFrameHostERKN3gfx4SizeE to i8*), i8* bitcast (void (%"class.content::WebContentsObserver"*, %"class.content::NavigationEntry"*)* @_ZN7content19WebContentsObserver11TitleWasSetEPNS_15NavigationEntryE to i8*), i8* bitcast (void (%"class.content::WebContentsObserver"*, %class.GURL*, i1)* @_ZN7content19WebContentsObserver16AppCacheAccessedERK4GURLb to i8*), i8* bitcast (void (%"class.content::WebContentsObserver"*)* @_ZN7content19WebContentsObserver21PepperInstanceCreatedEv to i8*), i8* bitcast (void (%"class.content::WebContentsObserver"*)* @_ZN7content19WebContentsObserver21PepperInstanceDeletedEv to i8*), i8* bitcast (void (%"class.content::WebContentsObserver"*, i32)* @_ZN7content19WebContentsObserver18ViewportFitChangedEN5blink5mojom11ViewportFitE to i8*), i8* bitcast (void (%"class.content::WebContentsObserver"*, %"class.base::FilePath"*, i32)* @_ZN7content19WebContentsObserver13PluginCrashedERKN4base8FilePathEi to i8*), i8* bitcast (void (%"class.content::WebContentsObserver"*, i32, %"class.base::FilePath"*, i1)* @_ZN7content19WebContentsObserver23PluginHungStatusChangedEiRKN4base8FilePathEb to i8*), i8* bitcast (void (%"class.content::WebContentsObserver"*, %"class.content::WebContents"*)* @_ZN7content19WebContentsObserver23InnerWebContentsCreatedEPNS_11WebContentsE to i8*), i8* bitcast (void (%"class.content::WebContentsObserver"*, %"class.content::WebContents"*, %"class.content::RenderFrameHost"*, i1)* @_ZN7content19WebContentsObserver24InnerWebContentsAttachedEPNS_11WebContentsEPNS_15RenderFrameHostEb to i8*), i8* bitcast (void (%"class.content::WebContentsObserver"*, %"class.content::WebContents"*)* @_ZN7content19WebContentsObserver24InnerWebContentsDetachedEPNS_11WebContentsE to i8*), i8* bitcast (void (%"class.content::WebContentsObserver"*, %"class.content::WebContents"*, %"class.content::WebContents"*)* @_ZN7content19WebContentsObserver24DidCloneToNewWebContentsEPNS_11WebContentsES2_ to i8*), i8* bitcast (void (%"class.content::WebContentsObserver"*)* @_ZN7content19WebContentsObserver20WebContentsDestroyedEv to i8*), i8* bitcast (void (%"class.content::WebContentsObserver"*, %"struct.blink::UserAgentOverride"*)* @_ZN7content19WebContentsObserver20UserAgentOverrideSetERKN5blink17UserAgentOverrideE to i8*), i8* bitcast (void (%"class.content::WebContentsObserver"*, %"class.content::RenderFrameHost"*, %"class.std::__1::vector.278"*)* @_ZN7content19WebContentsObserver19DidUpdateFaviconURLEPNS_15RenderFrameHostERKNSt3__16vectorIN4mojo9StructPtrIN5blink5mojom10FaviconURLEEENS3_9allocatorISA_EEEE to i8*), i8* bitcast (void (%"class.content::WebContentsObserver"*, i1)* @_ZN7content19WebContentsObserver19OnAudioStateChangedEb to i8*), i8* bitcast (void (%"class.content::WebContentsObserver"*, %"class.content::RenderFrameHost"*, i1)* @_ZN7content19WebContentsObserver24OnFrameAudioStateChangedEPNS_15RenderFrameHostEb to i8*), i8* bitcast (void (%"class.content::WebContentsObserver"*, i1)* @_ZN7content19WebContentsObserver37OnIsConnectedToBluetoothDeviceChangedEb to i8*), i8* bitcast (void (%"class.content::WebContentsObserver"*, i1)* @_ZN7content19WebContentsObserver25DidUpdateAudioMutingStateEb to i8*), i8* bitcast (void (%"class.content::WebContentsObserver"*, i1, i1)* @_ZN7content19WebContentsObserver29DidToggleFullscreenModeForTabEbb to i8*), i8* bitcast (void (%"class.content::WebContentsObserver"*, %"class.content::RenderFrameHost"*)* @_ZN7content19WebContentsObserver20DidAcquireFullscreenEPNS_15RenderFrameHostE to i8*), i8* bitcast (void (%"class.content::WebContentsObserver"*, i32)* @_ZN7content19WebContentsObserver32DidChangeVerticalScrollDirectionEN3viz23VerticalScrollDirectionE to i8*), i8* bitcast (void (%"class.content::WebContentsObserver"*)* @_ZN7content19WebContentsObserver27BeforeFormRepostWarningShowEv to i8*), i8* bitcast (void (%"class.content::WebContentsObserver"*, i1, %"class.base::TimeTicks"*)* @_ZN7content19WebContentsObserver17BeforeUnloadFiredEbRKN4base9TimeTicksE to i8*), i8* bitcast (void (%"class.content::WebContentsObserver"*)* @_ZN7content19WebContentsObserver27BeforeUnloadDialogCancelledEv to i8*), i8* bitcast (void (%"class.content::WebContentsObserver"*)* @_ZN7content19WebContentsObserver30AXTreeIDForMainFrameHasChangedEv to i8*), i8* bitcast (void (%"class.content::WebContentsObserver"*, %"struct.content::AXEventNotificationDetails"*)* @_ZN7content19WebContentsObserver26AccessibilityEventReceivedERKNS_26AXEventNotificationDetailsE to i8*), i8* bitcast (void (%"class.content::WebContentsObserver"*, %"class.std::__1::vector.279"*)* @_ZN7content19WebContentsObserver36AccessibilityLocationChangesReceivedERKNSt3__16vectorINS_35AXLocationChangeNotificationDetailsENS1_9allocatorIS3_EEEE to i8*), i8* bitcast (void (%"class.content::WebContentsObserver"*)* @_ZN7content19WebContentsObserver19DidChangeThemeColorEv to i8*), i8* bitcast (void (%"class.content::WebContentsObserver"*)* @_ZN7content19WebContentsObserver24OnBackgroundColorChangedEv to i8*), i8* bitcast (void (%"class.content::WebContentsObserver"*, %"class.content::RenderFrameHost"*, i32, %"class.std::__1::basic_string.280"*, i32, %"class.std::__1::basic_string.280"*, %"class.absl::optional.289"*)* @_ZN7content19WebContentsObserver24OnDidAddMessageToConsoleEPNS_15RenderFrameHostEN5blink5mojom19ConsoleMessageLevelERKNSt3__112basic_stringIDsNS6_11char_traitsIDsEENS6_9allocatorIDsEEEEiSE_RKN4absl8optionalISC_EE to i8*), i8* bitcast (void (%"class.content::WebContentsObserver"*, %"struct.content::WebContentsObserver::MediaPlayerInfo"*, %"struct.content::MediaPlayerId"*)* @_ZN7content19WebContentsObserver19MediaStartedPlayingERKNS0_15MediaPlayerInfoERKNS_13MediaPlayerIdE to i8*), i8* bitcast (void (%"class.content::WebContentsObserver"*, %"struct.content::WebContentsObserver::MediaPlayerInfo"*, %"struct.content::MediaPlayerId"*, i32)* @_ZN7content19WebContentsObserver19MediaStoppedPlayingERKNS0_15MediaPlayerInfoERKNS_13MediaPlayerIdENS0_18MediaStoppedReasonE to i8*), i8* bitcast (void (%"class.content::WebContentsObserver"*, %"class.gfx::Size"*, %"struct.content::MediaPlayerId"*)* @_ZN7content19WebContentsObserver12MediaResizedERKN3gfx4SizeERKNS_13MediaPlayerIdE to i8*), i8* bitcast (void (%"class.content::WebContentsObserver"*, i1)* @_ZN7content19WebContentsObserver33MediaEffectivelyFullscreenChangedEb to i8*), i8* bitcast (void (%"class.content::WebContentsObserver"*, i1)* @_ZN7content19WebContentsObserver28MediaPictureInPictureChangedEb to i8*), i8* bitcast (void (%"class.content::WebContentsObserver"*, %"struct.content::MediaPlayerId"*, i1)* @_ZN7content19WebContentsObserver23MediaMutedStatusChangedERKNS_13MediaPlayerIdEb to i8*), i8* bitcast (void (%"class.content::WebContentsObserver"*, %"struct.content::MediaPlayerId"*)* @_ZN7content19WebContentsObserver20MediaBufferUnderflowERKNS_13MediaPlayerIdE to i8*), i8* bitcast (void (%"class.content::WebContentsObserver"*, %"struct.content::MediaPlayerId"*)* @_ZN7content19WebContentsObserver15MediaPlayerSeekERKNS_13MediaPlayerIdE to i8*), i8* bitcast (void (%"class.content::WebContentsObserver"*, %"struct.content::MediaPlayerId"*)* @_ZN7content19WebContentsObserver14MediaDestroyedERKNS_13MediaPlayerIdE to i8*), i8* bitcast (void (%"class.content::WebContentsObserver"*, float)* @_ZN7content19WebContentsObserver24OnPageScaleFactorChangedEf to i8*), i8* bitcast (void (%"class.content::WebContentsObserver"*)* @_ZN7content19WebContentsObserver7OnPasteEv to i8*), i8* bitcast (i1 (%"class.content::WebContentsObserver"*, %"class.IPC::Message"*, %"class.content::RenderFrameHost"*)* @_ZN7content19WebContentsObserver17OnMessageReceivedERKN3IPC7MessageEPNS_15RenderFrameHostE to i8*), i8* bitcast (void (%"class.content::WebContentsObserver"*, %"class.content::RenderWidgetHost"*)* @_ZN7content19WebContentsObserver20OnWebContentsFocusedEPNS_16RenderWidgetHostE to i8*), i8* bitcast (void (%"class.content::WebContentsObserver"*, %"class.content::RenderWidgetHost"*)* @_ZN7content19WebContentsObserver22OnWebContentsLostFocusEPNS_16RenderWidgetHostE to i8*), i8* bitcast (void (%"class.content::WebContentsObserver"*, %"struct.content::FocusedNodeDetails"*)* @_ZN7content19WebContentsObserver20OnFocusChangedInPageEPNS_18FocusedNodeDetailsE to i8*), i8* bitcast (void (%"class.content::WebContentsObserver"*, %"class.content::RenderFrameHost"*, %"class.absl::optional.290"*)* @_ZN7content19WebContentsObserver23DidUpdateWebManifestURLEPNS_15RenderFrameHostERKN4absl8optionalI4GURLEE to i8*), i8* bitcast (void (%"class.content::WebContentsObserver"*, %"class.content::RenderFrameHost"*, %"class.std::__1::basic_string"*, %"class.mojo::ScopedHandleBase"*)* @_ZN7content19WebContentsObserver27OnInterfaceRequestFromFrameEPNS_15RenderFrameHostERKNSt3__112basic_stringIcNS3_11char_traitsIcEENS3_9allocatorIcEEEEPN4mojo16ScopedHandleBaseINSC_17MessagePipeHandleEEE to i8*), i8* bitcast (void (%"class.content::WebContentsObserver"*, %"struct.std::__1::pair"*)* @_ZN7content19WebContentsObserver27AudioContextPlaybackStartedERKNSt3__14pairIPNS_15RenderFrameHostEiEE to i8*), i8* bitcast (void (%"class.content::WebContentsObserver"*, %"struct.std::__1::pair"*)* @_ZN7content19WebContentsObserver27AudioContextPlaybackStoppedERKNSt3__14pairIPNS_15RenderFrameHostEiEE to i8*), i8* bitcast (void (%"class.content::WebContentsObserver"*, %"class.content::RenderFrameHost"*, %class.GURL*, i24)* @_ZN7content19WebContentsObserver23OnServiceWorkerAccessedEPNS_15RenderFrameHostERK4GURLNS_24AllowServiceWorkerResultE to i8*), i8* bitcast (void (%"class.content::WebContentsObserver"*, %"class.content::NavigationHandle"*, %class.GURL*, i24)* @_ZN7content19WebContentsObserver23OnServiceWorkerAccessedEPNS_16NavigationHandleERK4GURLNS_24AllowServiceWorkerResultE to i8*)] }, comdat, align 8
@_ZTVN4mojo15ReceiverSetBaseINS_18AssociatedReceiverIN6chrome5mojom16NetworkEasterEggENS_19RawPtrImplRefTraitsIS4_EEEEPN7content15RenderFrameHostEE13ReceiverEntryE = linkonce_odr hidden unnamed_addr constant { [7 x i8*] } { [7 x i8*] [i8* null, i8* null, i8* bitcast (void (%"class.mojo::ReceiverSetBase<mojo::AssociatedReceiver<chrome::mojom::NetworkEasterEgg, mojo::RawPtrImplRefTraits<chrome::mojom::NetworkEasterEgg> >, content::RenderFrameHost *>::ReceiverEntry"*)* @_ZN4mojo15ReceiverSetBaseINS_18AssociatedReceiverIN6chrome5mojom16NetworkEasterEggENS_19RawPtrImplRefTraitsIS4_EEEEPN7content15RenderFrameHostEE13ReceiverEntryD2Ev to i8*), i8* bitcast (void (%"class.mojo::ReceiverSetBase<mojo::AssociatedReceiver<chrome::mojom::NetworkEasterEgg, mojo::RawPtrImplRefTraits<chrome::mojom::NetworkEasterEgg> >, content::RenderFrameHost *>::ReceiverEntry"*)* @_ZN4mojo15ReceiverSetBaseINS_18AssociatedReceiverIN6chrome5mojom16NetworkEasterEggENS_19RawPtrImplRefTraitsIS4_EEEEPN7content15RenderFrameHostEE13ReceiverEntryD0Ev to i8*), i8* bitcast (i8* (%"class.mojo::ReceiverSetBase<mojo::AssociatedReceiver<chrome::mojom::NetworkEasterEgg, mojo::RawPtrImplRefTraits<chrome::mojom::NetworkEasterEgg> >, content::RenderFrameHost *>::ReceiverEntry"*)* @_ZNK4mojo15ReceiverSetBaseINS_18AssociatedReceiverIN6chrome5mojom16NetworkEasterEggENS_19RawPtrImplRefTraitsIS4_EEEEPN7content15RenderFrameHostEE13ReceiverEntry10GetContextEv to i8*), i8* bitcast (void (%"class.mojo::ReceiverSetBase<mojo::AssociatedReceiver<chrome::mojom::NetworkEasterEgg, mojo::RawPtrImplRefTraits<chrome::mojom::NetworkEasterEgg> >, content::RenderFrameHost *>::ReceiverEntry"*, %"class.mojo::MessageFilter"*, %"class.base::RepeatingCallback.5"*)* @_ZN4mojo15ReceiverSetBaseINS_18AssociatedReceiverIN6chrome5mojom16NetworkEasterEggENS_19RawPtrImplRefTraitsIS4_EEEEPN7content15RenderFrameHostEE13ReceiverEntry20InstallDispatchHooksENSt3__110unique_ptrINS_13MessageFilterENSD_14default_deleteISF_EEEEN4base17RepeatingCallbackIFvjRKNSD_12basic_stringIcNSD_11char_traitsIcEENSD_9allocatorIcEEEEEEE to i8*), i8* bitcast (void (%"class.mojo::ReceiverSetBase<mojo::AssociatedReceiver<chrome::mojom::NetworkEasterEgg, mojo::RawPtrImplRefTraits<chrome::mojom::NetworkEasterEgg> >, content::RenderFrameHost *>::ReceiverEntry"*)* @_ZN4mojo15ReceiverSetBaseINS_18AssociatedReceiverIN6chrome5mojom16NetworkEasterEggENS_19RawPtrImplRefTraitsIS4_EEEEPN7content15RenderFrameHostEE13ReceiverEntry15FlushForTestingEv to i8*)] }, comdat, align 8
@_ZTVN6chrome5mojom20NetworkEasterEggStubIN4mojo19RawPtrImplRefTraitsINS0_16NetworkEasterEggEEEEE = linkonce_odr hidden unnamed_addr constant { [7 x i8*] } { [7 x i8*] [i8* null, i8* null, i8* bitcast (void (%"class.mojo::MessageReceiver"*)* @_ZN4mojo15MessageReceiverD2Ev to i8*), i8* bitcast (void (%"class.chrome::mojom::NetworkEasterEggStub"*)* @_ZN6chrome5mojom20NetworkEasterEggStubIN4mojo19RawPtrImplRefTraitsINS0_16NetworkEasterEggEEEED0Ev to i8*), i8* bitcast (i1 (%"class.mojo::MessageReceiver"*)* @_ZN4mojo15MessageReceiver25PrefersSerializedMessagesEv to i8*), i8* bitcast (i1 (%"class.chrome::mojom::NetworkEasterEggStub"*, %"class.mojo::Message"*)* @_ZN6chrome5mojom20NetworkEasterEggStubIN4mojo19RawPtrImplRefTraitsINS0_16NetworkEasterEggEEEE6AcceptEPNS2_7MessageE to i8*), i8* bitcast (i1 (%"class.chrome::mojom::NetworkEasterEggStub"*, %"class.mojo::Message"*, %"class.mojo::MessageReceiverWithStatus"*)* @_ZN6chrome5mojom20NetworkEasterEggStubIN4mojo19RawPtrImplRefTraitsINS0_16NetworkEasterEggEEEE19AcceptWithResponderEPNS2_7MessageENSt3__110unique_ptrINS2_25MessageReceiverWithStatusENS9_14default_deleteISB_EEEE to i8*)] }, comdat, align 8
@_ZN6chrome5mojom16NetworkEasterEgg5Name_E = external constant [0 x i8], align 1
@_ZTVN6chrome5mojom32NetworkEasterEggRequestValidatorE = external unnamed_addr constant { [6 x i8*] }, align 8
@_ZTVN7content27WebContentsFrameReceiverSetIN6chrome5mojom18NetworkDiagnosticsEE20FrameInterfaceBinderE = linkonce_odr hidden unnamed_addr constant { [7 x i8*], [109 x i8*] } { [7 x i8*] [i8* null, i8* null, i8* bitcast (void (%"class.content::WebContentsFrameReceiverSet<chrome::mojom::NetworkDiagnostics>::FrameInterfaceBinder"*)* @_ZN7content27WebContentsFrameReceiverSetIN6chrome5mojom18NetworkDiagnosticsEE20FrameInterfaceBinderD2Ev to i8*), i8* bitcast (void (%"class.content::WebContentsFrameReceiverSet<chrome::mojom::NetworkDiagnostics>::FrameInterfaceBinder"*)* @_ZN7content27WebContentsFrameReceiverSetIN6chrome5mojom18NetworkDiagnosticsEE20FrameInterfaceBinderD0Ev to i8*), i8* bitcast (void (%"class.content::WebContentsFrameReceiverSet<chrome::mojom::NetworkDiagnostics>::FrameInterfaceBinder"*, %"class.content::RenderFrameHost"*, %"class.mojo::ScopedInterfaceEndpointHandle"*)* @_ZN7content27WebContentsFrameReceiverSetIN6chrome5mojom18NetworkDiagnosticsEE20FrameInterfaceBinder18OnReceiverForFrameEPNS_15RenderFrameHostEN4mojo29ScopedInterfaceEndpointHandleE to i8*), i8* bitcast (void (%"class.content::WebContentsFrameReceiverSet<chrome::mojom::NetworkDiagnostics>::FrameInterfaceBinder"*)* @_ZN7content27WebContentsFrameReceiverSetIN6chrome5mojom18NetworkDiagnosticsEE20FrameInterfaceBinder17CloseAllReceiversEv to i8*), i8* bitcast (void (%"class.content::WebContentsFrameReceiverSet<chrome::mojom::NetworkDiagnostics>::FrameInterfaceBinder"*, %"class.content::RenderFrameHost"*)* @_ZN7content27WebContentsFrameReceiverSetIN6chrome5mojom18NetworkDiagnosticsEE20FrameInterfaceBinder18RenderFrameDeletedEPNS_15RenderFrameHostE to i8*)], [109 x i8*] [i8* inttoptr (i64 -8 to i8*), i8* null, i8* bitcast (i1 (%"class.content::WebContentsObserver"*, %"class.IPC::Message"*)* @_ZN7content19WebContentsObserver17OnMessageReceivedERKN3IPC7MessageE to i8*), i8* bitcast (void (%"class.IPC::Listener"*, i32)* @_ZN3IPC8Listener18OnChannelConnectedEi to i8*), i8* bitcast (void (%"class.IPC::Listener"*)* @_ZN3IPC8Listener14OnChannelErrorEv to i8*), i8* bitcast (void (%"class.IPC::Listener"*, %"class.IPC::Message"*)* @_ZN3IPC8Listener20OnBadMessageReceivedERKNS_7MessageE to i8*), i8* bitcast (void (%"class.IPC::Listener"*, %"class.std::__1::basic_string"*, %"class.mojo::ScopedInterfaceEndpointHandle"*)* @_ZN3IPC8Listener28OnAssociatedInterfaceRequestERKNSt3__112basic_stringIcNS1_11char_traitsIcEENS1_9allocatorIcEEEEN4mojo29ScopedInterfaceEndpointHandleE to i8*), i8* bitcast (void (%"class.IPC::Listener"*)* @_ZN3IPC8Listener15OnChannelDeniedEv to i8*), i8* bitcast (void (%"class.IPC::Listener"*)* @_ZN3IPC8Listener20OnChannelListenErrorEv to i8*), i8* bitcast (void (%"class.content::WebContentsFrameReceiverSet<chrome::mojom::NetworkDiagnostics>::FrameInterfaceBinder"*)* @_ZThn8_N7content27WebContentsFrameReceiverSetIN6chrome5mojom18NetworkDiagnosticsEE20FrameInterfaceBinderD1Ev to i8*), i8* bitcast (void (%"class.content::WebContentsFrameReceiverSet<chrome::mojom::NetworkDiagnostics>::FrameInterfaceBinder"*)* @_ZThn8_N7content27WebContentsFrameReceiverSetIN6chrome5mojom18NetworkDiagnosticsEE20FrameInterfaceBinderD0Ev to i8*), i8* bitcast (void (%"class.content::WebContentsObserver"*, %"class.content::RenderFrameHost"*)* @_ZN7content19WebContentsObserver18RenderFrameCreatedEPNS_15RenderFrameHostE to i8*), i8* bitcast (void (%"class.content::WebContentsFrameReceiverSet<chrome::mojom::NetworkDiagnostics>::FrameInterfaceBinder"*, %"class.content::RenderFrameHost"*)* @_ZThn8_N7content27WebContentsFrameReceiverSetIN6chrome5mojom18NetworkDiagnosticsEE20FrameInterfaceBinder18RenderFrameDeletedEPNS_15RenderFrameHostE to i8*), i8* bitcast (void (%"class.content::WebContentsObserver"*, %"class.content::RenderFrameHost"*, %"class.content::RenderFrameHost"*)* @_ZN7content19WebContentsObserver22RenderFrameHostChangedEPNS_15RenderFrameHostES2_ to i8*), i8* bitcast (void (%"class.content::WebContentsObserver"*, i32)* @_ZN7content19WebContentsObserver12FrameDeletedEi to i8*), i8* bitcast (void (%"class.content::WebContentsObserver"*, %"class.content::RenderFrameHost"*, i32, i32)* @_ZN7content19WebContentsObserver27RenderFrameHostStateChangedEPNS_15RenderFrameHostENS1_14LifecycleStateES3_ to i8*), i8* bitcast (void (%"class.content::WebContentsObserver"*)* @_ZN7content19WebContentsObserver20CaptureTargetChangedEv to i8*), i8* bitcast (void (%"class.content::WebContentsObserver"*, %"class.blink::mojom::CaptureHandleConfig"*)* @_ZN7content19WebContentsObserver27OnCaptureHandleConfigUpdateERKN5blink5mojom19CaptureHandleConfigE to i8*), i8* bitcast (void (%"class.content::WebContentsObserver"*)* @_ZN7content19WebContentsObserver15RenderViewReadyEv to i8*), i8* bitcast (void (%"class.content::WebContentsObserver"*, %"class.content::RenderViewHost"*)* @_ZN7content19WebContentsObserver17RenderViewDeletedEPNS_14RenderViewHostE to i8*), i8* bitcast (void (%"class.content::WebContentsObserver"*, i32)* @_ZN7content19WebContentsObserver17RenderProcessGoneEN4base17TerminationStatusE to i8*), i8* bitcast (void (%"class.content::WebContentsObserver"*, %"class.content::RenderViewHost"*, %"class.content::RenderViewHost"*)* @_ZN7content19WebContentsObserver21RenderViewHostChangedEPNS_14RenderViewHostES2_ to i8*), i8* bitcast (void (%"class.content::WebContentsObserver"*, %"class.content::RenderProcessHost"*)* @_ZN7content19WebContentsObserver22OnRendererUnresponsiveEPNS_17RenderProcessHostE to i8*), i8* bitcast (void (%"class.content::WebContentsObserver"*, %"class.content::RenderProcessHost"*)* @_ZN7content19WebContentsObserver20OnRendererResponsiveEPNS_17RenderProcessHostE to i8*), i8* bitcast (void (%"class.content::WebContentsObserver"*, %"class.content::NavigationHandle"*)* @_ZN7content19WebContentsObserver18DidStartNavigationEPNS_16NavigationHandleE to i8*), i8* bitcast (void (%"class.content::WebContentsObserver"*, %"class.content::NavigationHandle"*)* @_ZN7content19WebContentsObserver21DidRedirectNavigationEPNS_16NavigationHandleE to i8*), i8* bitcast (void (%"class.content::WebContentsObserver"*, %"class.content::NavigationHandle"*)* @_ZN7content19WebContentsObserver23ReadyToCommitNavigationEPNS_16NavigationHandleE to i8*), i8* bitcast (void (%"class.content::WebContentsObserver"*, %"class.content::NavigationHandle"*)* @_ZN7content19WebContentsObserver19DidFinishNavigationEPNS_16NavigationHandleE to i8*), i8* bitcast (void (%"class.content::WebContentsObserver"*, %"class.content::WebContents"*, i64)* @_ZN7content19WebContentsObserver17DidActivatePortalEPNS_11WebContentsEN4base9TimeTicksE to i8*), i8* bitcast (void (%"class.content::WebContentsObserver"*)* @_ZN7content19WebContentsObserver15DidStartLoadingEv to i8*), i8* bitcast (void (%"class.content::WebContentsObserver"*)* @_ZN7content19WebContentsObserver18DidReceiveResponseEv to i8*), i8* bitcast (void (%"class.content::WebContentsObserver"*)* @_ZN7content19WebContentsObserver14DidStopLoadingEv to i8*), i8* bitcast (void (%"class.content::WebContentsObserver"*, double)* @_ZN7content19WebContentsObserver19LoadProgressChangedEd to i8*), i8* bitcast (void (%"class.content::WebContentsObserver"*, %"class.content::RenderFrameHost"*)* @_ZN7content19WebContentsObserver28DocumentAvailableInMainFrameEPNS_15RenderFrameHostE to i8*), i8* bitcast (void (%"class.content::WebContentsObserver"*, %"class.content::RenderFrameHost"*)* @_ZN7content19WebContentsObserver34DocumentOnLoadCompletedInMainFrameEPNS_15RenderFrameHostE to i8*), i8* bitcast (void (%"class.content::WebContentsObserver"*, %"class.content::RenderFrameHost"*)* @_ZN7content19WebContentsObserver16DOMContentLoadedEPNS_15RenderFrameHostE to i8*), i8* bitcast (void (%"class.content::WebContentsObserver"*, %"class.content::RenderFrameHost"*, %class.GURL*)* @_ZN7content19WebContentsObserver13DidFinishLoadEPNS_15RenderFrameHostERK4GURL to i8*), i8* bitcast (void (%"class.content::WebContentsObserver"*, %"class.content::RenderFrameHost"*, %class.GURL*, i32)* @_ZN7content19WebContentsObserver11DidFailLoadEPNS_15RenderFrameHostERK4GURLi to i8*), i8* bitcast (void (%"class.content::WebContentsObserver"*)* @_ZN7content19WebContentsObserver29DidChangeVisibleSecurityStateEv to i8*), i8* bitcast (void (%"class.content::WebContentsObserver"*, %"class.content::RenderFrameHost"*, %class.GURL*, %"class.std::__1::basic_string"*, i32)* @_ZN7content19WebContentsObserver30DidLoadResourceFromMemoryCacheEPNS_15RenderFrameHostERK4GURLRKNSt3__112basic_stringIcNS6_11char_traitsIcEENS6_9allocatorIcEEEEN7network5mojom18RequestDestinationE to i8*), i8* bitcast (void (%"class.content::WebContentsObserver"*, %"class.content::RenderFrameHost"*, %"struct.content::GlobalRequestID"*, %"class.blink::mojom::ResourceLoadInfo"*)* @_ZN7content19WebContentsObserver20ResourceLoadCompleteEPNS_15RenderFrameHostERKNS_15GlobalRequestIDERKN5blink5mojom16ResourceLoadInfoE to i8*), i8* bitcast (void (%"class.content::WebContentsObserver"*, %"class.content::RenderFrameHost"*, %"struct.content::CookieAccessDetails"*)* @_ZN7content19WebContentsObserver17OnCookiesAccessedEPNS_15RenderFrameHostERKNS_19CookieAccessDetailsE to i8*), i8* bitcast (void (%"class.content::WebContentsObserver"*, %"class.content::NavigationHandle"*, %"struct.content::CookieAccessDetails"*)* @_ZN7content19WebContentsObserver17OnCookiesAccessedEPNS_16NavigationHandleERKNS_19CookieAccessDetailsE to i8*), i8* bitcast (void (%"class.content::WebContentsObserver"*, %"struct.content::LoadCommittedDetails"*)* @_ZN7content19WebContentsObserver24NavigationEntryCommittedERKNS_20LoadCommittedDetailsE to i8*), i8* bitcast (void (%"class.content::WebContentsObserver"*, %"struct.content::PrunedDetails"*)* @_ZN7content19WebContentsObserver20NavigationListPrunedERKNS_13PrunedDetailsE to i8*), i8* bitcast (void (%"class.content::WebContentsObserver"*)* @_ZN7content19WebContentsObserver24NavigationEntriesDeletedEv to i8*), i8* bitcast (void (%"class.content::WebContentsObserver"*, %"struct.content::EntryChangedDetails"*)* @_ZN7content19WebContentsObserver22NavigationEntryChangedERKNS_19EntryChangedDetailsE to i8*), i8* bitcast (void (%"class.content::WebContentsObserver"*, %"class.content::WebContents"*, %"class.content::RenderFrameHost"*, %class.GURL*, %"struct.content::Referrer"*, i32, i32, i1, i1)* @_ZN7content19WebContentsObserver19DidOpenRequestedURLEPNS_11WebContentsEPNS_15RenderFrameHostERK4GURLRKNS_8ReferrerE21WindowOpenDispositionN2ui14PageTransitionEbb to i8*), i8* bitcast (void (%"class.content::WebContentsObserver"*)* @_ZN7content19WebContentsObserver29DidFirstVisuallyNonEmptyPaintEv to i8*), i8* bitcast (void (%"class.content::WebContentsObserver"*)* @_ZN7content19WebContentsObserver17NavigationStoppedEv to i8*), i8* bitcast (void (%"class.content::WebContentsObserver"*, %"class.blink::WebInputEvent"*)* @_ZN7content19WebContentsObserver21DidGetUserInteractionERKN5blink13WebInputEventE to i8*), i8* bitcast (void (%"class.content::WebContentsObserver"*)* @_ZN7content19WebContentsObserver20DidGetIgnoredUIEventEv to i8*), i8* bitcast (void (%"class.content::WebContentsObserver"*, i32)* @_ZN7content19WebContentsObserver19OnVisibilityChangedENS_10VisibilityE to i8*), i8* bitcast (void (%"class.content::WebContentsObserver"*, i1)* @_ZN7content19WebContentsObserver19MainFrameWasResizedEb to i8*), i8* bitcast (void (%"class.content::WebContentsObserver"*, %"class.content::RenderFrameHost"*, %"class.std::__1::basic_string"*)* @_ZN7content19WebContentsObserver16FrameNameChangedEPNS_15RenderFrameHostERKNSt3__112basic_stringIcNS3_11char_traitsIcEENS3_9allocatorIcEEEE to i8*), i8* bitcast (void (%"class.content::WebContentsObserver"*, %"class.content::RenderFrameHost"*)* @_ZN7content19WebContentsObserver27FrameReceivedUserActivationEPNS_15RenderFrameHostE to i8*), i8* bitcast (void (%"class.content::WebContentsObserver"*, %"class.content::RenderFrameHost"*, i1)* @_ZN7content19WebContentsObserver24FrameDisplayStateChangedEPNS_15RenderFrameHostEb to i8*), i8* bitcast (void (%"class.content::WebContentsObserver"*, %"class.content::RenderFrameHost"*, %"class.gfx::Size"*)* @_ZN7content19WebContentsObserver16FrameSizeChangedEPNS_15RenderFrameHostERKN3gfx4SizeE to i8*), i8* bitcast (void (%"class.content::WebContentsObserver"*, %"class.content::NavigationEntry"*)* @_ZN7content19WebContentsObserver11TitleWasSetEPNS_15NavigationEntryE to i8*), i8* bitcast (void (%"class.content::WebContentsObserver"*, %class.GURL*, i1)* @_ZN7content19WebContentsObserver16AppCacheAccessedERK4GURLb to i8*), i8* bitcast (void (%"class.content::WebContentsObserver"*)* @_ZN7content19WebContentsObserver21PepperInstanceCreatedEv to i8*), i8* bitcast (void (%"class.content::WebContentsObserver"*)* @_ZN7content19WebContentsObserver21PepperInstanceDeletedEv to i8*), i8* bitcast (void (%"class.content::WebContentsObserver"*, i32)* @_ZN7content19WebContentsObserver18ViewportFitChangedEN5blink5mojom11ViewportFitE to i8*), i8* bitcast (void (%"class.content::WebContentsObserver"*, %"class.base::FilePath"*, i32)* @_ZN7content19WebContentsObserver13PluginCrashedERKN4base8FilePathEi to i8*), i8* bitcast (void (%"class.content::WebContentsObserver"*, i32, %"class.base::FilePath"*, i1)* @_ZN7content19WebContentsObserver23PluginHungStatusChangedEiRKN4base8FilePathEb to i8*), i8* bitcast (void (%"class.content::WebContentsObserver"*, %"class.content::WebContents"*)* @_ZN7content19WebContentsObserver23InnerWebContentsCreatedEPNS_11WebContentsE to i8*), i8* bitcast (void (%"class.content::WebContentsObserver"*, %"class.content::WebContents"*, %"class.content::RenderFrameHost"*, i1)* @_ZN7content19WebContentsObserver24InnerWebContentsAttachedEPNS_11WebContentsEPNS_15RenderFrameHostEb to i8*), i8* bitcast (void (%"class.content::WebContentsObserver"*, %"class.content::WebContents"*)* @_ZN7content19WebContentsObserver24InnerWebContentsDetachedEPNS_11WebContentsE to i8*), i8* bitcast (void (%"class.content::WebContentsObserver"*, %"class.content::WebContents"*, %"class.content::WebContents"*)* @_ZN7content19WebContentsObserver24DidCloneToNewWebContentsEPNS_11WebContentsES2_ to i8*), i8* bitcast (void (%"class.content::WebContentsObserver"*)* @_ZN7content19WebContentsObserver20WebContentsDestroyedEv to i8*), i8* bitcast (void (%"class.content::WebContentsObserver"*, %"struct.blink::UserAgentOverride"*)* @_ZN7content19WebContentsObserver20UserAgentOverrideSetERKN5blink17UserAgentOverrideE to i8*), i8* bitcast (void (%"class.content::WebContentsObserver"*, %"class.content::RenderFrameHost"*, %"class.std::__1::vector.278"*)* @_ZN7content19WebContentsObserver19DidUpdateFaviconURLEPNS_15RenderFrameHostERKNSt3__16vectorIN4mojo9StructPtrIN5blink5mojom10FaviconURLEEENS3_9allocatorISA_EEEE to i8*), i8* bitcast (void (%"class.content::WebContentsObserver"*, i1)* @_ZN7content19WebContentsObserver19OnAudioStateChangedEb to i8*), i8* bitcast (void (%"class.content::WebContentsObserver"*, %"class.content::RenderFrameHost"*, i1)* @_ZN7content19WebContentsObserver24OnFrameAudioStateChangedEPNS_15RenderFrameHostEb to i8*), i8* bitcast (void (%"class.content::WebContentsObserver"*, i1)* @_ZN7content19WebContentsObserver37OnIsConnectedToBluetoothDeviceChangedEb to i8*), i8* bitcast (void (%"class.content::WebContentsObserver"*, i1)* @_ZN7content19WebContentsObserver25DidUpdateAudioMutingStateEb to i8*), i8* bitcast (void (%"class.content::WebContentsObserver"*, i1, i1)* @_ZN7content19WebContentsObserver29DidToggleFullscreenModeForTabEbb to i8*), i8* bitcast (void (%"class.content::WebContentsObserver"*, %"class.content::RenderFrameHost"*)* @_ZN7content19WebContentsObserver20DidAcquireFullscreenEPNS_15RenderFrameHostE to i8*), i8* bitcast (void (%"class.content::WebContentsObserver"*, i32)* @_ZN7content19WebContentsObserver32DidChangeVerticalScrollDirectionEN3viz23VerticalScrollDirectionE to i8*), i8* bitcast (void (%"class.content::WebContentsObserver"*)* @_ZN7content19WebContentsObserver27BeforeFormRepostWarningShowEv to i8*), i8* bitcast (void (%"class.content::WebContentsObserver"*, i1, %"class.base::TimeTicks"*)* @_ZN7content19WebContentsObserver17BeforeUnloadFiredEbRKN4base9TimeTicksE to i8*), i8* bitcast (void (%"class.content::WebContentsObserver"*)* @_ZN7content19WebContentsObserver27BeforeUnloadDialogCancelledEv to i8*), i8* bitcast (void (%"class.content::WebContentsObserver"*)* @_ZN7content19WebContentsObserver30AXTreeIDForMainFrameHasChangedEv to i8*), i8* bitcast (void (%"class.content::WebContentsObserver"*, %"struct.content::AXEventNotificationDetails"*)* @_ZN7content19WebContentsObserver26AccessibilityEventReceivedERKNS_26AXEventNotificationDetailsE to i8*), i8* bitcast (void (%"class.content::WebContentsObserver"*, %"class.std::__1::vector.279"*)* @_ZN7content19WebContentsObserver36AccessibilityLocationChangesReceivedERKNSt3__16vectorINS_35AXLocationChangeNotificationDetailsENS1_9allocatorIS3_EEEE to i8*), i8* bitcast (void (%"class.content::WebContentsObserver"*)* @_ZN7content19WebContentsObserver19DidChangeThemeColorEv to i8*), i8* bitcast (void (%"class.content::WebContentsObserver"*)* @_ZN7content19WebContentsObserver24OnBackgroundColorChangedEv to i8*), i8* bitcast (void (%"class.content::WebContentsObserver"*, %"class.content::RenderFrameHost"*, i32, %"class.std::__1::basic_string.280"*, i32, %"class.std::__1::basic_string.280"*, %"class.absl::optional.289"*)* @_ZN7content19WebContentsObserver24OnDidAddMessageToConsoleEPNS_15RenderFrameHostEN5blink5mojom19ConsoleMessageLevelERKNSt3__112basic_stringIDsNS6_11char_traitsIDsEENS6_9allocatorIDsEEEEiSE_RKN4absl8optionalISC_EE to i8*), i8* bitcast (void (%"class.content::WebContentsObserver"*, %"struct.content::WebContentsObserver::MediaPlayerInfo"*, %"struct.content::MediaPlayerId"*)* @_ZN7content19WebContentsObserver19MediaStartedPlayingERKNS0_15MediaPlayerInfoERKNS_13MediaPlayerIdE to i8*), i8* bitcast (void (%"class.content::WebContentsObserver"*, %"struct.content::WebContentsObserver::MediaPlayerInfo"*, %"struct.content::MediaPlayerId"*, i32)* @_ZN7content19WebContentsObserver19MediaStoppedPlayingERKNS0_15MediaPlayerInfoERKNS_13MediaPlayerIdENS0_18MediaStoppedReasonE to i8*), i8* bitcast (void (%"class.content::WebContentsObserver"*, %"class.gfx::Size"*, %"struct.content::MediaPlayerId"*)* @_ZN7content19WebContentsObserver12MediaResizedERKN3gfx4SizeERKNS_13MediaPlayerIdE to i8*), i8* bitcast (void (%"class.content::WebContentsObserver"*, i1)* @_ZN7content19WebContentsObserver33MediaEffectivelyFullscreenChangedEb to i8*), i8* bitcast (void (%"class.content::WebContentsObserver"*, i1)* @_ZN7content19WebContentsObserver28MediaPictureInPictureChangedEb to i8*), i8* bitcast (void (%"class.content::WebContentsObserver"*, %"struct.content::MediaPlayerId"*, i1)* @_ZN7content19WebContentsObserver23MediaMutedStatusChangedERKNS_13MediaPlayerIdEb to i8*), i8* bitcast (void (%"class.content::WebContentsObserver"*, %"struct.content::MediaPlayerId"*)* @_ZN7content19WebContentsObserver20MediaBufferUnderflowERKNS_13MediaPlayerIdE to i8*), i8* bitcast (void (%"class.content::WebContentsObserver"*, %"struct.content::MediaPlayerId"*)* @_ZN7content19WebContentsObserver15MediaPlayerSeekERKNS_13MediaPlayerIdE to i8*), i8* bitcast (void (%"class.content::WebContentsObserver"*, %"struct.content::MediaPlayerId"*)* @_ZN7content19WebContentsObserver14MediaDestroyedERKNS_13MediaPlayerIdE to i8*), i8* bitcast (void (%"class.content::WebContentsObserver"*, float)* @_ZN7content19WebContentsObserver24OnPageScaleFactorChangedEf to i8*), i8* bitcast (void (%"class.content::WebContentsObserver"*)* @_ZN7content19WebContentsObserver7OnPasteEv to i8*), i8* bitcast (i1 (%"class.content::WebContentsObserver"*, %"class.IPC::Message"*, %"class.content::RenderFrameHost"*)* @_ZN7content19WebContentsObserver17OnMessageReceivedERKN3IPC7MessageEPNS_15RenderFrameHostE to i8*), i8* bitcast (void (%"class.content::WebContentsObserver"*, %"class.content::RenderWidgetHost"*)* @_ZN7content19WebContentsObserver20OnWebContentsFocusedEPNS_16RenderWidgetHostE to i8*), i8* bitcast (void (%"class.content::WebContentsObserver"*, %"class.content::RenderWidgetHost"*)* @_ZN7content19WebContentsObserver22OnWebContentsLostFocusEPNS_16RenderWidgetHostE to i8*), i8* bitcast (void (%"class.content::WebContentsObserver"*, %"struct.content::FocusedNodeDetails"*)* @_ZN7content19WebContentsObserver20OnFocusChangedInPageEPNS_18FocusedNodeDetailsE to i8*), i8* bitcast (void (%"class.content::WebContentsObserver"*, %"class.content::RenderFrameHost"*, %"class.absl::optional.290"*)* @_ZN7content19WebContentsObserver23DidUpdateWebManifestURLEPNS_15RenderFrameHostERKN4absl8optionalI4GURLEE to i8*), i8* bitcast (void (%"class.content::WebContentsObserver"*, %"class.content::RenderFrameHost"*, %"class.std::__1::basic_string"*, %"class.mojo::ScopedHandleBase"*)* @_ZN7content19WebContentsObserver27OnInterfaceRequestFromFrameEPNS_15RenderFrameHostERKNSt3__112basic_stringIcNS3_11char_traitsIcEENS3_9allocatorIcEEEEPN4mojo16ScopedHandleBaseINSC_17MessagePipeHandleEEE to i8*), i8* bitcast (void (%"class.content::WebContentsObserver"*, %"struct.std::__1::pair"*)* @_ZN7content19WebContentsObserver27AudioContextPlaybackStartedERKNSt3__14pairIPNS_15RenderFrameHostEiEE to i8*), i8* bitcast (void (%"class.content::WebContentsObserver"*, %"struct.std::__1::pair"*)* @_ZN7content19WebContentsObserver27AudioContextPlaybackStoppedERKNSt3__14pairIPNS_15RenderFrameHostEiEE to i8*), i8* bitcast (void (%"class.content::WebContentsObserver"*, %"class.content::RenderFrameHost"*, %class.GURL*, i24)* @_ZN7content19WebContentsObserver23OnServiceWorkerAccessedEPNS_15RenderFrameHostERK4GURLNS_24AllowServiceWorkerResultE to i8*), i8* bitcast (void (%"class.content::WebContentsObserver"*, %"class.content::NavigationHandle"*, %class.GURL*, i24)* @_ZN7content19WebContentsObserver23OnServiceWorkerAccessedEPNS_16NavigationHandleERK4GURLNS_24AllowServiceWorkerResultE to i8*)] }, comdat, align 8
@_ZTVN4mojo15ReceiverSetBaseINS_18AssociatedReceiverIN6chrome5mojom18NetworkDiagnosticsENS_19RawPtrImplRefTraitsIS4_EEEEPN7content15RenderFrameHostEE13ReceiverEntryE = linkonce_odr hidden unnamed_addr constant { [7 x i8*] } { [7 x i8*] [i8* null, i8* null, i8* bitcast (void (%"class.mojo::ReceiverSetBase<mojo::AssociatedReceiver<chrome::mojom::NetworkDiagnostics, mojo::RawPtrImplRefTraits<chrome::mojom::NetworkDiagnostics> >, content::RenderFrameHost *>::ReceiverEntry"*)* @_ZN4mojo15ReceiverSetBaseINS_18AssociatedReceiverIN6chrome5mojom18NetworkDiagnosticsENS_19RawPtrImplRefTraitsIS4_EEEEPN7content15RenderFrameHostEE13ReceiverEntryD2Ev to i8*), i8* bitcast (void (%"class.mojo::ReceiverSetBase<mojo::AssociatedReceiver<chrome::mojom::NetworkDiagnostics, mojo::RawPtrImplRefTraits<chrome::mojom::NetworkDiagnostics> >, content::RenderFrameHost *>::ReceiverEntry"*)* @_ZN4mojo15ReceiverSetBaseINS_18AssociatedReceiverIN6chrome5mojom18NetworkDiagnosticsENS_19RawPtrImplRefTraitsIS4_EEEEPN7content15RenderFrameHostEE13ReceiverEntryD0Ev to i8*), i8* bitcast (i8* (%"class.mojo::ReceiverSetBase<mojo::AssociatedReceiver<chrome::mojom::NetworkDiagnostics, mojo::RawPtrImplRefTraits<chrome::mojom::NetworkDiagnostics> >, content::RenderFrameHost *>::ReceiverEntry"*)* @_ZNK4mojo15ReceiverSetBaseINS_18AssociatedReceiverIN6chrome5mojom18NetworkDiagnosticsENS_19RawPtrImplRefTraitsIS4_EEEEPN7content15RenderFrameHostEE13ReceiverEntry10GetContextEv to i8*), i8* bitcast (void (%"class.mojo::ReceiverSetBase<mojo::AssociatedReceiver<chrome::mojom::NetworkDiagnostics, mojo::RawPtrImplRefTraits<chrome::mojom::NetworkDiagnostics> >, content::RenderFrameHost *>::ReceiverEntry"*, %"class.mojo::MessageFilter"*, %"class.base::RepeatingCallback.5"*)* @_ZN4mojo15ReceiverSetBaseINS_18AssociatedReceiverIN6chrome5mojom18NetworkDiagnosticsENS_19RawPtrImplRefTraitsIS4_EEEEPN7content15RenderFrameHostEE13ReceiverEntry20InstallDispatchHooksENSt3__110unique_ptrINS_13MessageFilterENSD_14default_deleteISF_EEEEN4base17RepeatingCallbackIFvjRKNSD_12basic_stringIcNSD_11char_traitsIcEENSD_9allocatorIcEEEEEEE to i8*), i8* bitcast (void (%"class.mojo::ReceiverSetBase<mojo::AssociatedReceiver<chrome::mojom::NetworkDiagnostics, mojo::RawPtrImplRefTraits<chrome::mojom::NetworkDiagnostics> >, content::RenderFrameHost *>::ReceiverEntry"*)* @_ZN4mojo15ReceiverSetBaseINS_18AssociatedReceiverIN6chrome5mojom18NetworkDiagnosticsENS_19RawPtrImplRefTraitsIS4_EEEEPN7content15RenderFrameHostEE13ReceiverEntry15FlushForTestingEv to i8*)] }, comdat, align 8
@_ZTVN6chrome5mojom22NetworkDiagnosticsStubIN4mojo19RawPtrImplRefTraitsINS0_18NetworkDiagnosticsEEEEE = linkonce_odr hidden unnamed_addr constant { [7 x i8*] } { [7 x i8*] [i8* null, i8* null, i8* bitcast (void (%"class.mojo::MessageReceiver"*)* @_ZN4mojo15MessageReceiverD2Ev to i8*), i8* bitcast (void (%"class.chrome::mojom::NetworkDiagnosticsStub"*)* @_ZN6chrome5mojom22NetworkDiagnosticsStubIN4mojo19RawPtrImplRefTraitsINS0_18NetworkDiagnosticsEEEED0Ev to i8*), i8* bitcast (i1 (%"class.mojo::MessageReceiver"*)* @_ZN4mojo15MessageReceiver25PrefersSerializedMessagesEv to i8*), i8* bitcast (i1 (%"class.chrome::mojom::NetworkDiagnosticsStub"*, %"class.mojo::Message"*)* @_ZN6chrome5mojom22NetworkDiagnosticsStubIN4mojo19RawPtrImplRefTraitsINS0_18NetworkDiagnosticsEEEE6AcceptEPNS2_7MessageE to i8*), i8* bitcast (i1 (%"class.chrome::mojom::NetworkDiagnosticsStub"*, %"class.mojo::Message"*, %"class.mojo::MessageReceiverWithStatus"*)* @_ZN6chrome5mojom22NetworkDiagnosticsStubIN4mojo19RawPtrImplRefTraitsINS0_18NetworkDiagnosticsEEEE19AcceptWithResponderEPNS2_7MessageENSt3__110unique_ptrINS2_25MessageReceiverWithStatusENS9_14default_deleteISB_EEEE to i8*)] }, comdat, align 8
@_ZN6chrome5mojom18NetworkDiagnostics5Name_E = external constant [0 x i8], align 1
@_ZTVN6chrome5mojom34NetworkDiagnosticsRequestValidatorE = external unnamed_addr constant { [6 x i8*] }, align 8
@_ZTV10PrefMemberIbE = linkonce_odr hidden unnamed_addr constant { [7 x i8*] } { [7 x i8*] [i8* null, i8* null, i8* bitcast (void (%"class.subtle::PrefMemberBase"*, %class.PrefService*, %"class.std::__1::basic_string"*)* @_ZN6subtle14PrefMemberBase19OnPreferenceChangedEP11PrefServiceRKNSt3__112basic_stringIcNS3_11char_traitsIcEENS3_9allocatorIcEEEE to i8*), i8* bitcast (void (%class.PrefMember*)* @_ZN10PrefMemberIbED2Ev to i8*), i8* bitcast (void (%class.PrefMember*)* @_ZN10PrefMemberIbED0Ev to i8*), i8* bitcast (void (%class.PrefMember*)* @_ZNK10PrefMemberIbE14CreateInternalEv to i8*), i8* bitcast (%"class.PrefMember<bool>::Internal"* (%class.PrefMember*)* @_ZNK10PrefMemberIbE8internalEv to i8*)] }, comdat, align 8
@_ZTVN10PrefMemberIbE8InternalE = linkonce_odr hidden unnamed_addr constant { [5 x i8*] } { [5 x i8*] [i8* null, i8* null, i8* bitcast (void (%"class.subtle::PrefMemberBase::Internal"*)* @_ZN6subtle14PrefMemberBase8InternalD2Ev to i8*), i8* bitcast (void (%"class.PrefMember<bool>::Internal"*)* @_ZN10PrefMemberIbE8InternalD0Ev to i8*), i8* bitcast (i1 (%"class.PrefMember<bool>::Internal"*, %"class.base::Value"*)* @_ZNK10PrefMemberIbE8Internal19UpdateValueInternalERKN4base5ValueE to i8*)] }, comdat, align 8
@_ZTV10PrefMemberIiE = linkonce_odr hidden unnamed_addr constant { [7 x i8*] } { [7 x i8*] [i8* null, i8* null, i8* bitcast (void (%"class.subtle::PrefMemberBase"*, %class.PrefService*, %"class.std::__1::basic_string"*)* @_ZN6subtle14PrefMemberBase19OnPreferenceChangedEP11PrefServiceRKNSt3__112basic_stringIcNS3_11char_traitsIcEENS3_9allocatorIcEEEE to i8*), i8* bitcast (void (%class.PrefMember.131*)* @_ZN10PrefMemberIiED2Ev to i8*), i8* bitcast (void (%class.PrefMember.131*)* @_ZN10PrefMemberIiED0Ev to i8*), i8* bitcast (void (%class.PrefMember.131*)* @_ZNK10PrefMemberIiE14CreateInternalEv to i8*), i8* bitcast (%"class.PrefMember<int>::Internal"* (%class.PrefMember.131*)* @_ZNK10PrefMemberIiE8internalEv to i8*)] }, comdat, align 8
@_ZTVN10PrefMemberIiE8InternalE = linkonce_odr hidden unnamed_addr constant { [5 x i8*] } { [5 x i8*] [i8* null, i8* null, i8* bitcast (void (%"class.subtle::PrefMemberBase::Internal"*)* @_ZN6subtle14PrefMemberBase8InternalD2Ev to i8*), i8* bitcast (void (%"class.PrefMember<int>::Internal"*)* @_ZN10PrefMemberIiE8InternalD0Ev to i8*), i8* bitcast (i1 (%"class.PrefMember<int>::Internal"*, %"class.base::Value"*)* @_ZNK10PrefMemberIiE8Internal19UpdateValueInternalERKN4base5ValueE to i8*)] }, comdat, align 8
@_ZN6chrome5mojom24NetworkDiagnosticsClient5Name_E = external constant [0 x i8], align 1
@_ZTVN7content22WebContentsReceiverSet6BinderE = external unnamed_addr constant { [6 x i8*] }, align 8
@.str.1 = private unnamed_addr constant [29 x i8] c"../../base/memory/weak_ptr.h\00", align 1
@.str.2 = private unnamed_addr constant [15 x i8] c"ref_.IsValid()\00", align 1

@_ZN18chrome_browser_net17NetErrorTabHelperD1Ev = hidden unnamed_addr alias void (%"class.chrome_browser_net::NetErrorTabHelper"*), void (%"class.chrome_browser_net::NetErrorTabHelper"*)* @_ZN18chrome_browser_net17NetErrorTabHelperD2Ev
@_ZN18chrome_browser_net17NetErrorTabHelperC1EPN7content11WebContentsE = hidden unnamed_addr alias void (%"class.chrome_browser_net::NetErrorTabHelper"*, %"class.content::WebContents"*), void (%"class.chrome_browser_net::NetErrorTabHelper"*, %"class.content::WebContents"*)* @_ZN18chrome_browser_net17NetErrorTabHelperC2EPN7content11WebContentsE

; Function Attrs: nounwind ssp uwtable
define hidden void @_ZN18chrome_browser_net17NetErrorTabHelperD2Ev(%"class.chrome_browser_net::NetErrorTabHelper"*) unnamed_addr #0 align 2 {
  %2 = getelementptr inbounds %"class.chrome_browser_net::NetErrorTabHelper", %"class.chrome_browser_net::NetErrorTabHelper"* %0, i64 0, i32 0, i32 0, i32 0
  store i32 (...)** bitcast (i8** getelementptr inbounds ({ [116 x i8*], [5 x i8*], [4 x i8*], [5 x i8*], [7 x i8*] }, { [116 x i8*], [5 x i8*], [4 x i8*], [5 x i8*], [7 x i8*] }* @_ZTVN18chrome_browser_net17NetErrorTabHelperE, i64 0, inrange i32 0, i64 2) to i32 (...)**), i32 (...)*** %2, align 8
  %3 = getelementptr inbounds %"class.chrome_browser_net::NetErrorTabHelper", %"class.chrome_browser_net::NetErrorTabHelper"* %0, i64 0, i32 1, i32 0, i32 0
  %4 = bitcast i32 (...)*** %3 to <2 x i32 (...)**>*
  store <2 x i32 (...)**> <i32 (...)** bitcast (i8** getelementptr inbounds ({ [116 x i8*], [5 x i8*], [4 x i8*], [5 x i8*], [7 x i8*] }, { [116 x i8*], [5 x i8*], [4 x i8*], [5 x i8*], [7 x i8*] }* @_ZTVN18chrome_browser_net17NetErrorTabHelperE, i64 0, inrange i32 1, i64 2) to i32 (...)**), i32 (...)** bitcast (i8** getelementptr inbounds ({ [116 x i8*], [5 x i8*], [4 x i8*], [5 x i8*], [7 x i8*] }, { [116 x i8*], [5 x i8*], [4 x i8*], [5 x i8*], [7 x i8*] }* @_ZTVN18chrome_browser_net17NetErrorTabHelperE, i64 0, inrange i32 2, i64 2) to i32 (...)**)>, <2 x i32 (...)**>* %4, align 8
  %5 = getelementptr inbounds %"class.chrome_browser_net::NetErrorTabHelper", %"class.chrome_browser_net::NetErrorTabHelper"* %0, i64 0, i32 3, i32 0
  %6 = bitcast i32 (...)*** %5 to <2 x i32 (...)**>*
  store <2 x i32 (...)**> <i32 (...)** bitcast (i8** getelementptr inbounds ({ [116 x i8*], [5 x i8*], [4 x i8*], [5 x i8*], [7 x i8*] }, { [116 x i8*], [5 x i8*], [4 x i8*], [5 x i8*], [7 x i8*] }* @_ZTVN18chrome_browser_net17NetErrorTabHelperE, i64 0, inrange i32 3, i64 2) to i32 (...)**), i32 (...)** bitcast (i8** getelementptr inbounds ({ [116 x i8*], [5 x i8*], [4 x i8*], [5 x i8*], [7 x i8*] }, { [116 x i8*], [5 x i8*], [4 x i8*], [5 x i8*], [7 x i8*] }* @_ZTVN18chrome_browser_net17NetErrorTabHelperE, i64 0, inrange i32 4, i64 2) to i32 (...)**)>, <2 x i32 (...)**>* %6, align 8
  %7 = getelementptr inbounds %"class.chrome_browser_net::NetErrorTabHelper", %"class.chrome_browser_net::NetErrorTabHelper"* %0, i64 0, i32 15, i32 0
  tail call void @_ZN4base8internal18WeakPtrFactoryBaseD2Ev(%"class.base::internal::WeakPtrFactoryBase"* %7) #10
  %8 = getelementptr inbounds %"class.chrome_browser_net::NetErrorTabHelper", %"class.chrome_browser_net::NetErrorTabHelper"* %0, i64 0, i32 14
  %9 = getelementptr inbounds %class.PrefMember.131, %class.PrefMember.131* %8, i64 0, i32 0, i32 0, i32 0
  store i32 (...)** bitcast (i8** getelementptr inbounds ({ [7 x i8*] }, { [7 x i8*] }* @_ZTV10PrefMemberIiE, i64 0, inrange i32 0, i64 2) to i32 (...)**), i32 (...)*** %9, align 8
  %10 = getelementptr inbounds %"class.chrome_browser_net::NetErrorTabHelper", %"class.chrome_browser_net::NetErrorTabHelper"* %0, i64 0, i32 14, i32 1, i32 0
  %11 = load %"class.PrefMember<int>::Internal"*, %"class.PrefMember<int>::Internal"** %10, align 8
  %12 = icmp eq %"class.PrefMember<int>::Internal"* %11, null
  br i1 %12, label %25, label %13

13:                                               ; preds = %1
  %14 = getelementptr inbounds %"class.PrefMember<int>::Internal", %"class.PrefMember<int>::Internal"* %11, i64 0, i32 0, i32 1
  %15 = getelementptr inbounds %"class.base::RefCountedThreadSafe.128", %"class.base::RefCountedThreadSafe.128"* %14, i64 0, i32 0, i32 0, i32 0, i32 0, i32 0, i32 0, i32 0, i32 0
  %16 = atomicrmw sub i32* %15, i32 1 acq_rel
  %17 = icmp eq i32 %16, 1
  br i1 %17, label %18, label %25

18:                                               ; preds = %13
  %19 = getelementptr inbounds %"class.base::RefCountedThreadSafe.128", %"class.base::RefCountedThreadSafe.128"* %14, i64 -2
  %20 = bitcast %"class.base::RefCountedThreadSafe.128"* %19 to %"class.subtle::PrefMemberBase::Internal"*
  %21 = bitcast %"class.base::RefCountedThreadSafe.128"* %19 to void (%"class.subtle::PrefMemberBase::Internal"*)***
  %22 = load void (%"class.subtle::PrefMemberBase::Internal"*)**, void (%"class.subtle::PrefMemberBase::Internal"*)*** %21, align 8
  %23 = getelementptr inbounds void (%"class.subtle::PrefMemberBase::Internal"*)*, void (%"class.subtle::PrefMemberBase::Internal"*)** %22, i64 1
  %24 = load void (%"class.subtle::PrefMemberBase::Internal"*)*, void (%"class.subtle::PrefMemberBase::Internal"*)** %23, align 8
  tail call void %24(%"class.subtle::PrefMemberBase::Internal"* nonnull %20) #10
  br label %25

25:                                               ; preds = %1, %13, %18
  %26 = bitcast %class.PrefMember.131* %8 to %"class.subtle::PrefMemberBase"*
  tail call void @_ZN6subtle14PrefMemberBaseD2Ev(%"class.subtle::PrefMemberBase"* %26) #10
  %27 = getelementptr inbounds %"class.chrome_browser_net::NetErrorTabHelper", %"class.chrome_browser_net::NetErrorTabHelper"* %0, i64 0, i32 13
  %28 = getelementptr inbounds %class.PrefMember, %class.PrefMember* %27, i64 0, i32 0, i32 0, i32 0
  store i32 (...)** bitcast (i8** getelementptr inbounds ({ [7 x i8*] }, { [7 x i8*] }* @_ZTV10PrefMemberIbE, i64 0, inrange i32 0, i64 2) to i32 (...)**), i32 (...)*** %28, align 8
  %29 = getelementptr inbounds %"class.chrome_browser_net::NetErrorTabHelper", %"class.chrome_browser_net::NetErrorTabHelper"* %0, i64 0, i32 13, i32 1, i32 0
  %30 = load %"class.PrefMember<bool>::Internal"*, %"class.PrefMember<bool>::Internal"** %29, align 8
  %31 = icmp eq %"class.PrefMember<bool>::Internal"* %30, null
  br i1 %31, label %44, label %32

32:                                               ; preds = %25
  %33 = getelementptr inbounds %"class.PrefMember<bool>::Internal", %"class.PrefMember<bool>::Internal"* %30, i64 0, i32 0, i32 1
  %34 = getelementptr inbounds %"class.base::RefCountedThreadSafe.128", %"class.base::RefCountedThreadSafe.128"* %33, i64 0, i32 0, i32 0, i32 0, i32 0, i32 0, i32 0, i32 0, i32 0
  %35 = atomicrmw sub i32* %34, i32 1 acq_rel
  %36 = icmp eq i32 %35, 1
  br i1 %36, label %37, label %44

37:                                               ; preds = %32
  %38 = getelementptr inbounds %"class.base::RefCountedThreadSafe.128", %"class.base::RefCountedThreadSafe.128"* %33, i64 -2
  %39 = bitcast %"class.base::RefCountedThreadSafe.128"* %38 to %"class.subtle::PrefMemberBase::Internal"*
  %40 = bitcast %"class.base::RefCountedThreadSafe.128"* %38 to void (%"class.subtle::PrefMemberBase::Internal"*)***
  %41 = load void (%"class.subtle::PrefMemberBase::Internal"*)**, void (%"class.subtle::PrefMemberBase::Internal"*)*** %40, align 8
  %42 = getelementptr inbounds void (%"class.subtle::PrefMemberBase::Internal"*)*, void (%"class.subtle::PrefMemberBase::Internal"*)** %41, i64 1
  %43 = load void (%"class.subtle::PrefMemberBase::Internal"*)*, void (%"class.subtle::PrefMemberBase::Internal"*)** %42, align 8
  tail call void %43(%"class.subtle::PrefMemberBase::Internal"* nonnull %39) #10
  br label %44

44:                                               ; preds = %25, %32, %37
  %45 = bitcast %class.PrefMember* %27 to %"class.subtle::PrefMemberBase"*
  tail call void @_ZN6subtle14PrefMemberBaseD2Ev(%"class.subtle::PrefMemberBase"* %45) #10
  %46 = getelementptr inbounds %"class.chrome_browser_net::NetErrorTabHelper", %"class.chrome_browser_net::NetErrorTabHelper"* %0, i64 0, i32 12, i32 0, i32 0
  tail call void @_ZN4base8internal12CallbackBaseD2Ev(%"class.base::internal::CallbackBase"* %46) #10
  %47 = getelementptr inbounds %"class.chrome_browser_net::NetErrorTabHelper", %"class.chrome_browser_net::NetErrorTabHelper"* %0, i64 0, i32 7, i32 1, i32 0, i32 0
  %48 = getelementptr inbounds %"class.chrome_browser_net::NetErrorTabHelper", %"class.chrome_browser_net::NetErrorTabHelper"* %0, i64 0, i32 7, i32 1, i32 1
  %49 = bitcast i32 (...)*** %47 to <2 x i32 (...)**>*
  store <2 x i32 (...)**> <i32 (...)** bitcast (i8** getelementptr inbounds ({ [7 x i8*], [109 x i8*] }, { [7 x i8*], [109 x i8*] }* @_ZTVN7content27WebContentsFrameReceiverSetIN6chrome5mojom19NetErrorPageSupportEE20FrameInterfaceBinderE, i64 0, inrange i32 0, i64 2) to i32 (...)**), i32 (...)** bitcast (i8** getelementptr inbounds ({ [7 x i8*], [109 x i8*] }, { [7 x i8*], [109 x i8*] }* @_ZTVN7content27WebContentsFrameReceiverSetIN6chrome5mojom19NetErrorPageSupportEE20FrameInterfaceBinderE, i64 0, inrange i32 1, i64 2) to i32 (...)**)>, <2 x i32 (...)**>* %49, align 8
  %50 = getelementptr inbounds %"class.chrome_browser_net::NetErrorTabHelper", %"class.chrome_browser_net::NetErrorTabHelper"* %0, i64 0, i32 7, i32 1, i32 4, i32 0
  %51 = getelementptr inbounds %"class.chrome_browser_net::NetErrorTabHelper", %"class.chrome_browser_net::NetErrorTabHelper"* %0, i64 0, i32 7, i32 1, i32 4, i32 0, i32 1, i32 0, i32 0
  %52 = bitcast %"class.std::__1::__tree_end_node"* %51 to %"class.std::__1::__tree_node"**
  %53 = load %"class.std::__1::__tree_node"*, %"class.std::__1::__tree_node"** %52, align 8
  tail call void @_ZNSt3__16__treeINS_12__value_typeIPN7content15RenderFrameHostENS_6vectorImNS_9allocatorImEEEEEENS_19__map_value_compareIS4_S9_NS_4lessIS4_EELb1EEENS6_IS9_EEE7destroyEPNS_11__tree_nodeIS9_PvEE(%"class.std::__1::__tree.25"* %50, %"class.std::__1::__tree_node"* %53) #10
  %54 = getelementptr inbounds %"class.chrome_browser_net::NetErrorTabHelper", %"class.chrome_browser_net::NetErrorTabHelper"* %0, i64 0, i32 7, i32 1, i32 3, i32 0
  tail call void @_ZN4mojo16ReceiverSetStateD1Ev(%"class.mojo::ReceiverSetState"* %54) #10
  tail call void @_ZN7content19WebContentsObserverD2Ev(%"class.content::WebContentsObserver"* %48) #10
  %55 = getelementptr inbounds %"class.chrome_browser_net::NetErrorTabHelper", %"class.chrome_browser_net::NetErrorTabHelper"* %0, i64 0, i32 7, i32 0
  tail call void @_ZN7content22WebContentsReceiverSetD2Ev(%"class.content::WebContentsReceiverSet"* %55) #10
  %56 = getelementptr inbounds %"class.chrome_browser_net::NetErrorTabHelper", %"class.chrome_browser_net::NetErrorTabHelper"* %0, i64 0, i32 6, i32 1, i32 0, i32 0
  %57 = getelementptr inbounds %"class.chrome_browser_net::NetErrorTabHelper", %"class.chrome_browser_net::NetErrorTabHelper"* %0, i64 0, i32 6, i32 1, i32 1
  %58 = bitcast i32 (...)*** %56 to <2 x i32 (...)**>*
  store <2 x i32 (...)**> <i32 (...)** bitcast (i8** getelementptr inbounds ({ [7 x i8*], [109 x i8*] }, { [7 x i8*], [109 x i8*] }* @_ZTVN7content27WebContentsFrameReceiverSetIN6chrome5mojom16NetworkEasterEggEE20FrameInterfaceBinderE, i64 0, inrange i32 0, i64 2) to i32 (...)**), i32 (...)** bitcast (i8** getelementptr inbounds ({ [7 x i8*], [109 x i8*] }, { [7 x i8*], [109 x i8*] }* @_ZTVN7content27WebContentsFrameReceiverSetIN6chrome5mojom16NetworkEasterEggEE20FrameInterfaceBinderE, i64 0, inrange i32 1, i64 2) to i32 (...)**)>, <2 x i32 (...)**>* %58, align 8
  %59 = getelementptr inbounds %"class.chrome_browser_net::NetErrorTabHelper", %"class.chrome_browser_net::NetErrorTabHelper"* %0, i64 0, i32 6, i32 1, i32 4, i32 0
  %60 = getelementptr inbounds %"class.chrome_browser_net::NetErrorTabHelper", %"class.chrome_browser_net::NetErrorTabHelper"* %0, i64 0, i32 6, i32 1, i32 4, i32 0, i32 1, i32 0, i32 0
  %61 = bitcast %"class.std::__1::__tree_end_node"* %60 to %"class.std::__1::__tree_node"**
  %62 = load %"class.std::__1::__tree_node"*, %"class.std::__1::__tree_node"** %61, align 8
  tail call void @_ZNSt3__16__treeINS_12__value_typeIPN7content15RenderFrameHostENS_6vectorImNS_9allocatorImEEEEEENS_19__map_value_compareIS4_S9_NS_4lessIS4_EELb1EEENS6_IS9_EEE7destroyEPNS_11__tree_nodeIS9_PvEE(%"class.std::__1::__tree.25"* %59, %"class.std::__1::__tree_node"* %62) #10
  %63 = getelementptr inbounds %"class.chrome_browser_net::NetErrorTabHelper", %"class.chrome_browser_net::NetErrorTabHelper"* %0, i64 0, i32 6, i32 1, i32 3, i32 0
  tail call void @_ZN4mojo16ReceiverSetStateD1Ev(%"class.mojo::ReceiverSetState"* %63) #10
  tail call void @_ZN7content19WebContentsObserverD2Ev(%"class.content::WebContentsObserver"* %57) #10
  %64 = getelementptr inbounds %"class.chrome_browser_net::NetErrorTabHelper", %"class.chrome_browser_net::NetErrorTabHelper"* %0, i64 0, i32 6, i32 0
  tail call void @_ZN7content22WebContentsReceiverSetD2Ev(%"class.content::WebContentsReceiverSet"* %64) #10
  %65 = getelementptr inbounds %"class.chrome_browser_net::NetErrorTabHelper", %"class.chrome_browser_net::NetErrorTabHelper"* %0, i64 0, i32 5, i32 1, i32 0, i32 0
  %66 = getelementptr inbounds %"class.chrome_browser_net::NetErrorTabHelper", %"class.chrome_browser_net::NetErrorTabHelper"* %0, i64 0, i32 5, i32 1, i32 1
  %67 = bitcast i32 (...)*** %65 to <2 x i32 (...)**>*
  store <2 x i32 (...)**> <i32 (...)** bitcast (i8** getelementptr inbounds ({ [7 x i8*], [109 x i8*] }, { [7 x i8*], [109 x i8*] }* @_ZTVN7content27WebContentsFrameReceiverSetIN6chrome5mojom18NetworkDiagnosticsEE20FrameInterfaceBinderE, i64 0, inrange i32 0, i64 2) to i32 (...)**), i32 (...)** bitcast (i8** getelementptr inbounds ({ [7 x i8*], [109 x i8*] }, { [7 x i8*], [109 x i8*] }* @_ZTVN7content27WebContentsFrameReceiverSetIN6chrome5mojom18NetworkDiagnosticsEE20FrameInterfaceBinderE, i64 0, inrange i32 1, i64 2) to i32 (...)**)>, <2 x i32 (...)**>* %67, align 8
  %68 = getelementptr inbounds %"class.chrome_browser_net::NetErrorTabHelper", %"class.chrome_browser_net::NetErrorTabHelper"* %0, i64 0, i32 5, i32 1, i32 4, i32 0
  %69 = getelementptr inbounds %"class.chrome_browser_net::NetErrorTabHelper", %"class.chrome_browser_net::NetErrorTabHelper"* %0, i64 0, i32 5, i32 1, i32 4, i32 0, i32 1, i32 0, i32 0
  %70 = bitcast %"class.std::__1::__tree_end_node"* %69 to %"class.std::__1::__tree_node"**
  %71 = load %"class.std::__1::__tree_node"*, %"class.std::__1::__tree_node"** %70, align 8
  tail call void @_ZNSt3__16__treeINS_12__value_typeIPN7content15RenderFrameHostENS_6vectorImNS_9allocatorImEEEEEENS_19__map_value_compareIS4_S9_NS_4lessIS4_EELb1EEENS6_IS9_EEE7destroyEPNS_11__tree_nodeIS9_PvEE(%"class.std::__1::__tree.25"* %68, %"class.std::__1::__tree_node"* %71) #10
  %72 = getelementptr inbounds %"class.chrome_browser_net::NetErrorTabHelper", %"class.chrome_browser_net::NetErrorTabHelper"* %0, i64 0, i32 5, i32 1, i32 3, i32 0
  tail call void @_ZN4mojo16ReceiverSetStateD1Ev(%"class.mojo::ReceiverSetState"* %72) #10
  tail call void @_ZN7content19WebContentsObserverD2Ev(%"class.content::WebContentsObserver"* %66) #10
  %73 = getelementptr inbounds %"class.chrome_browser_net::NetErrorTabHelper", %"class.chrome_browser_net::NetErrorTabHelper"* %0, i64 0, i32 5, i32 0
  tail call void @_ZN7content22WebContentsReceiverSetD2Ev(%"class.content::WebContentsReceiverSet"* %73) #10
  %74 = getelementptr inbounds %"class.chrome_browser_net::NetErrorTabHelper", %"class.chrome_browser_net::NetErrorTabHelper"* %0, i64 0, i32 0
  tail call void @_ZN7content19WebContentsObserverD2Ev(%"class.content::WebContentsObserver"* %74) #10
  ret void
}

; Function Attrs: nounwind ssp uwtable
define linkonce_odr hidden void @_ZN10PrefMemberIiED2Ev(%class.PrefMember.131*) unnamed_addr #0 comdat align 2 {
  %2 = getelementptr inbounds %class.PrefMember.131, %class.PrefMember.131* %0, i64 0, i32 0, i32 0, i32 0
  store i32 (...)** bitcast (i8** getelementptr inbounds ({ [7 x i8*] }, { [7 x i8*] }* @_ZTV10PrefMemberIiE, i64 0, inrange i32 0, i64 2) to i32 (...)**), i32 (...)*** %2, align 8
  %3 = getelementptr inbounds %class.PrefMember.131, %class.PrefMember.131* %0, i64 0, i32 1, i32 0
  %4 = load %"class.PrefMember<int>::Internal"*, %"class.PrefMember<int>::Internal"** %3, align 8
  %5 = icmp eq %"class.PrefMember<int>::Internal"* %4, null
  br i1 %5, label %18, label %6

6:                                                ; preds = %1
  %7 = getelementptr inbounds %"class.PrefMember<int>::Internal", %"class.PrefMember<int>::Internal"* %4, i64 0, i32 0, i32 1
  %8 = getelementptr inbounds %"class.base::RefCountedThreadSafe.128", %"class.base::RefCountedThreadSafe.128"* %7, i64 0, i32 0, i32 0, i32 0, i32 0, i32 0, i32 0, i32 0, i32 0
  %9 = atomicrmw sub i32* %8, i32 1 acq_rel
  %10 = icmp eq i32 %9, 1
  br i1 %10, label %11, label %18

11:                                               ; preds = %6
  %12 = getelementptr inbounds %"class.base::RefCountedThreadSafe.128", %"class.base::RefCountedThreadSafe.128"* %7, i64 -2
  %13 = bitcast %"class.base::RefCountedThreadSafe.128"* %12 to %"class.subtle::PrefMemberBase::Internal"*
  %14 = bitcast %"class.base::RefCountedThreadSafe.128"* %12 to void (%"class.subtle::PrefMemberBase::Internal"*)***
  %15 = load void (%"class.subtle::PrefMemberBase::Internal"*)**, void (%"class.subtle::PrefMemberBase::Internal"*)*** %14, align 8
  %16 = getelementptr inbounds void (%"class.subtle::PrefMemberBase::Internal"*)*, void (%"class.subtle::PrefMemberBase::Internal"*)** %15, i64 1
  %17 = load void (%"class.subtle::PrefMemberBase::Internal"*)*, void (%"class.subtle::PrefMemberBase::Internal"*)** %16, align 8
  tail call void %17(%"class.subtle::PrefMemberBase::Internal"* nonnull %13) #10
  br label %18

18:                                               ; preds = %1, %6, %11
  %19 = bitcast %class.PrefMember.131* %0 to %"class.subtle::PrefMemberBase"*
  tail call void @_ZN6subtle14PrefMemberBaseD2Ev(%"class.subtle::PrefMemberBase"* %19) #10
  ret void
}

; Function Attrs: nounwind ssp uwtable
define linkonce_odr hidden void @_ZN10PrefMemberIbED2Ev(%class.PrefMember*) unnamed_addr #0 comdat align 2 {
  %2 = getelementptr inbounds %class.PrefMember, %class.PrefMember* %0, i64 0, i32 0, i32 0, i32 0
  store i32 (...)** bitcast (i8** getelementptr inbounds ({ [7 x i8*] }, { [7 x i8*] }* @_ZTV10PrefMemberIbE, i64 0, inrange i32 0, i64 2) to i32 (...)**), i32 (...)*** %2, align 8
  %3 = getelementptr inbounds %class.PrefMember, %class.PrefMember* %0, i64 0, i32 1, i32 0
  %4 = load %"class.PrefMember<bool>::Internal"*, %"class.PrefMember<bool>::Internal"** %3, align 8
  %5 = icmp eq %"class.PrefMember<bool>::Internal"* %4, null
  br i1 %5, label %18, label %6

6:                                                ; preds = %1
  %7 = getelementptr inbounds %"class.PrefMember<bool>::Internal", %"class.PrefMember<bool>::Internal"* %4, i64 0, i32 0, i32 1
  %8 = getelementptr inbounds %"class.base::RefCountedThreadSafe.128", %"class.base::RefCountedThreadSafe.128"* %7, i64 0, i32 0, i32 0, i32 0, i32 0, i32 0, i32 0, i32 0, i32 0
  %9 = atomicrmw sub i32* %8, i32 1 acq_rel
  %10 = icmp eq i32 %9, 1
  br i1 %10, label %11, label %18

11:                                               ; preds = %6
  %12 = getelementptr inbounds %"class.base::RefCountedThreadSafe.128", %"class.base::RefCountedThreadSafe.128"* %7, i64 -2
  %13 = bitcast %"class.base::RefCountedThreadSafe.128"* %12 to %"class.subtle::PrefMemberBase::Internal"*
  %14 = bitcast %"class.base::RefCountedThreadSafe.128"* %12 to void (%"class.subtle::PrefMemberBase::Internal"*)***
  %15 = load void (%"class.subtle::PrefMemberBase::Internal"*)**, void (%"class.subtle::PrefMemberBase::Internal"*)*** %14, align 8
  %16 = getelementptr inbounds void (%"class.subtle::PrefMemberBase::Internal"*)*, void (%"class.subtle::PrefMemberBase::Internal"*)** %15, i64 1
  %17 = load void (%"class.subtle::PrefMemberBase::Internal"*)*, void (%"class.subtle::PrefMemberBase::Internal"*)** %16, align 8
  tail call void %17(%"class.subtle::PrefMemberBase::Internal"* nonnull %13) #10
  br label %18

18:                                               ; preds = %1, %6, %11
  %19 = bitcast %class.PrefMember* %0 to %"class.subtle::PrefMemberBase"*
  tail call void @_ZN6subtle14PrefMemberBaseD2Ev(%"class.subtle::PrefMemberBase"* %19) #10
  ret void
}

; Function Attrs: nounwind
declare void @_ZN7content19WebContentsObserverD2Ev(%"class.content::WebContentsObserver"*) unnamed_addr #1

; Function Attrs: nounwind ssp uwtable
define hidden void @_ZThn16_N18chrome_browser_net17NetErrorTabHelperD1Ev(%"class.chrome_browser_net::NetErrorTabHelper"*) unnamed_addr #0 align 2 {
  %2 = getelementptr inbounds %"class.chrome_browser_net::NetErrorTabHelper", %"class.chrome_browser_net::NetErrorTabHelper"* %0, i64 -1, i32 15
  %3 = bitcast %"class.base::WeakPtrFactory.133"* %2 to %"class.chrome_browser_net::NetErrorTabHelper"*
  tail call void @_ZN18chrome_browser_net17NetErrorTabHelperD2Ev(%"class.chrome_browser_net::NetErrorTabHelper"* %3) #10
  ret void
}

; Function Attrs: nounwind ssp uwtable
define hidden void @_ZThn24_N18chrome_browser_net17NetErrorTabHelperD1Ev(%"class.chrome_browser_net::NetErrorTabHelper"*) unnamed_addr #0 align 2 {
  %2 = getelementptr inbounds %"class.chrome_browser_net::NetErrorTabHelper", %"class.chrome_browser_net::NetErrorTabHelper"* %0, i64 -1, i32 14, i32 1
  %3 = bitcast %class.scoped_refptr.132* %2 to %"class.chrome_browser_net::NetErrorTabHelper"*
  tail call void @_ZN18chrome_browser_net17NetErrorTabHelperD2Ev(%"class.chrome_browser_net::NetErrorTabHelper"* %3) #10
  ret void
}

; Function Attrs: nounwind ssp uwtable
define hidden void @_ZThn32_N18chrome_browser_net17NetErrorTabHelperD1Ev(%"class.chrome_browser_net::NetErrorTabHelper"*) unnamed_addr #0 align 2 {
  %2 = getelementptr inbounds %"class.chrome_browser_net::NetErrorTabHelper", %"class.chrome_browser_net::NetErrorTabHelper"* %0, i64 -1, i32 14, i32 0, i32 4
  %3 = bitcast i8* %2 to %"class.chrome_browser_net::NetErrorTabHelper"*
  tail call void @_ZN18chrome_browser_net17NetErrorTabHelperD2Ev(%"class.chrome_browser_net::NetErrorTabHelper"* %3) #10
  ret void
}

; Function Attrs: nounwind ssp uwtable
define hidden void @_ZThn40_N18chrome_browser_net17NetErrorTabHelperD1Ev(%"class.chrome_browser_net::NetErrorTabHelper"*) unnamed_addr #0 align 2 {
  %2 = getelementptr inbounds %"class.chrome_browser_net::NetErrorTabHelper", %"class.chrome_browser_net::NetErrorTabHelper"* %0, i64 -1, i32 14, i32 0, i32 3
  %3 = bitcast %class.PrefService** %2 to %"class.chrome_browser_net::NetErrorTabHelper"*
  tail call void @_ZN18chrome_browser_net17NetErrorTabHelperD2Ev(%"class.chrome_browser_net::NetErrorTabHelper"* %3) #10
  ret void
}

; Function Attrs: nounwind ssp uwtable
define hidden void @_ZN18chrome_browser_net17NetErrorTabHelperD0Ev(%"class.chrome_browser_net::NetErrorTabHelper"*) unnamed_addr #0 align 2 {
  tail call void @_ZN18chrome_browser_net17NetErrorTabHelperD2Ev(%"class.chrome_browser_net::NetErrorTabHelper"* %0) #10
  %2 = bitcast %"class.chrome_browser_net::NetErrorTabHelper"* %0 to i8*
  tail call void @_ZdlPv(i8* %2) #11
  ret void
}

; Function Attrs: nobuiltin nounwind
declare void @_ZdlPv(i8*) local_unnamed_addr #2

; Function Attrs: nounwind ssp uwtable
define hidden void @_ZThn16_N18chrome_browser_net17NetErrorTabHelperD0Ev(%"class.chrome_browser_net::NetErrorTabHelper"*) unnamed_addr #0 align 2 {
  %2 = getelementptr inbounds %"class.chrome_browser_net::NetErrorTabHelper", %"class.chrome_browser_net::NetErrorTabHelper"* %0, i64 -1, i32 15
  %3 = bitcast %"class.base::WeakPtrFactory.133"* %2 to %"class.chrome_browser_net::NetErrorTabHelper"*
  tail call void @_ZN18chrome_browser_net17NetErrorTabHelperD2Ev(%"class.chrome_browser_net::NetErrorTabHelper"* %3) #10
  %4 = bitcast %"class.base::WeakPtrFactory.133"* %2 to i8*
  tail call void @_ZdlPv(i8* %4) #11
  ret void
}

; Function Attrs: nounwind ssp uwtable
define hidden void @_ZThn24_N18chrome_browser_net17NetErrorTabHelperD0Ev(%"class.chrome_browser_net::NetErrorTabHelper"*) unnamed_addr #0 align 2 {
  %2 = getelementptr inbounds %"class.chrome_browser_net::NetErrorTabHelper", %"class.chrome_browser_net::NetErrorTabHelper"* %0, i64 -1, i32 14, i32 1
  %3 = bitcast %class.scoped_refptr.132* %2 to %"class.chrome_browser_net::NetErrorTabHelper"*
  tail call void @_ZN18chrome_browser_net17NetErrorTabHelperD2Ev(%"class.chrome_browser_net::NetErrorTabHelper"* %3) #10
  %4 = bitcast %class.scoped_refptr.132* %2 to i8*
  tail call void @_ZdlPv(i8* %4) #11
  ret void
}

; Function Attrs: nounwind ssp uwtable
define hidden void @_ZThn32_N18chrome_browser_net17NetErrorTabHelperD0Ev(%"class.chrome_browser_net::NetErrorTabHelper"*) unnamed_addr #0 align 2 {
  %2 = getelementptr inbounds %"class.chrome_browser_net::NetErrorTabHelper", %"class.chrome_browser_net::NetErrorTabHelper"* %0, i64 -1, i32 14, i32 0, i32 4
  %3 = bitcast i8* %2 to %"class.chrome_browser_net::NetErrorTabHelper"*
  tail call void @_ZN18chrome_browser_net17NetErrorTabHelperD2Ev(%"class.chrome_browser_net::NetErrorTabHelper"* %3) #10
  tail call void @_ZdlPv(i8* %2) #11
  ret void
}

; Function Attrs: nounwind ssp uwtable
define hidden void @_ZThn40_N18chrome_browser_net17NetErrorTabHelperD0Ev(%"class.chrome_browser_net::NetErrorTabHelper"*) unnamed_addr #0 align 2 {
  %2 = getelementptr inbounds %"class.chrome_browser_net::NetErrorTabHelper", %"class.chrome_browser_net::NetErrorTabHelper"* %0, i64 -1, i32 14, i32 0, i32 3
  %3 = bitcast %class.PrefService** %2 to %"class.chrome_browser_net::NetErrorTabHelper"*
  tail call void @_ZN18chrome_browser_net17NetErrorTabHelperD2Ev(%"class.chrome_browser_net::NetErrorTabHelper"* %3) #10
  %4 = bitcast %class.PrefService** %2 to i8*
  tail call void @_ZdlPv(i8* %4) #11
  ret void
}

; Function Attrs: nofree norecurse nounwind ssp uwtable writeonly
define hidden void @_ZN18chrome_browser_net17NetErrorTabHelper21set_state_for_testingENS0_12TestingStateE(i32) local_unnamed_addr #3 align 2 {
  store i32 %0, i32* @_ZN18chrome_browser_net12_GLOBAL__N_114testing_state_E, align 4
  ret void
}

; Function Attrs: nounwind ssp uwtable
define hidden void @_ZN18chrome_browser_net17NetErrorTabHelper18RenderFrameCreatedEPN7content15RenderFrameHostE(%"class.chrome_browser_net::NetErrorTabHelper"*, %"class.content::RenderFrameHost"*) unnamed_addr #0 align 2 {
  %3 = alloca %"class.mojo::PendingAssociatedReceiver.423", align 8
  %4 = alloca %"class.mojo::AssociatedRemote", align 8
  %5 = bitcast %"class.content::RenderFrameHost"* %1 to %"class.content::RenderFrameHost"* (%"class.content::RenderFrameHost"*)***
  %6 = load %"class.content::RenderFrameHost"* (%"class.content::RenderFrameHost"*)**, %"class.content::RenderFrameHost"* (%"class.content::RenderFrameHost"*)*** %5, align 8
  %7 = getelementptr inbounds %"class.content::RenderFrameHost"* (%"class.content::RenderFrameHost"*)*, %"class.content::RenderFrameHost"* (%"class.content::RenderFrameHost"*)** %6, i64 20
  %8 = load %"class.content::RenderFrameHost"* (%"class.content::RenderFrameHost"*)*, %"class.content::RenderFrameHost"* (%"class.content::RenderFrameHost"*)** %7, align 8
  %9 = tail call %"class.content::RenderFrameHost"* %8(%"class.content::RenderFrameHost"* %1) #10
  %10 = icmp eq %"class.content::RenderFrameHost"* %9, null
  br i1 %10, label %11, label %44

11:                                               ; preds = %2
  %12 = bitcast %"class.mojo::AssociatedRemote"* %4 to i8*
  call void @llvm.lifetime.start.p0i8(i64 24, i8* nonnull %12) #10
  call void @llvm.memset.p0i8.i64(i8* nonnull align 8 %12, i8 -86, i64 24, i1 false)
  %13 = bitcast %"class.mojo::AssociatedRemote"* %4 to %"class.mojo::internal::AssociatedInterfacePtrStateBase"*
  call void @_ZN4mojo8internal31AssociatedInterfacePtrStateBaseC2Ev(%"class.mojo::internal::AssociatedInterfacePtrStateBase"* nonnull %13) #10
  %14 = getelementptr inbounds %"class.mojo::AssociatedRemote", %"class.mojo::AssociatedRemote"* %4, i64 0, i32 0, i32 1
  %15 = bitcast %"class.std::__1::unique_ptr.196"* %14 to i64*
  store i64 0, i64* %15, align 8
  %16 = bitcast %"class.content::RenderFrameHost"* %1 to %"class.blink::AssociatedInterfaceProvider"* (%"class.content::RenderFrameHost"*)***
  %17 = load %"class.blink::AssociatedInterfaceProvider"* (%"class.content::RenderFrameHost"*)**, %"class.blink::AssociatedInterfaceProvider"* (%"class.content::RenderFrameHost"*)*** %16, align 8
  %18 = getelementptr inbounds %"class.blink::AssociatedInterfaceProvider"* (%"class.content::RenderFrameHost"*)*, %"class.blink::AssociatedInterfaceProvider"* (%"class.content::RenderFrameHost"*)** %17, i64 54
  %19 = load %"class.blink::AssociatedInterfaceProvider"* (%"class.content::RenderFrameHost"*)*, %"class.blink::AssociatedInterfaceProvider"* (%"class.content::RenderFrameHost"*)** %18, align 8
  %20 = call %"class.blink::AssociatedInterfaceProvider"* %19(%"class.content::RenderFrameHost"* %1) #10
  %21 = bitcast %"class.mojo::PendingAssociatedReceiver.423"* %3 to i8*
  call void @llvm.lifetime.start.p0i8(i64 8, i8* nonnull %21)
  %22 = getelementptr inbounds %"class.blink::AssociatedInterfaceProvider", %"class.blink::AssociatedInterfaceProvider"* %20, i64 0, i32 2
  %23 = bitcast %class.scoped_refptr.222* %22 to %"class.base::SequencedTaskRunner"**
  %24 = load %"class.base::SequencedTaskRunner"*, %"class.base::SequencedTaskRunner"** %23, align 8
  %25 = icmp eq %"class.base::SequencedTaskRunner"* %24, null
  br i1 %25, label %29, label %26

26:                                               ; preds = %11
  %27 = getelementptr inbounds %"class.base::SequencedTaskRunner", %"class.base::SequencedTaskRunner"* %24, i64 0, i32 0, i32 1, i32 0, i32 0, i32 0, i32 0, i32 0, i32 0, i32 0, i32 0
  %28 = atomicrmw add i32* %27, i32 1 monotonic
  br label %29

29:                                               ; preds = %11, %26
  call void @_ZN4mojo16AssociatedRemoteIN6chrome5mojom24NetworkDiagnosticsClientEE30BindNewEndpointAndPassReceiverE13scoped_refptrIN4base19SequencedTaskRunnerEE(%"class.mojo::PendingAssociatedReceiver.423"* nonnull sret %3, %"class.mojo::AssociatedRemote"* nonnull %4, %"class.base::SequencedTaskRunner"* %24) #10
  call void @_ZN5blink27AssociatedInterfaceProvider12GetInterfaceIN6chrome5mojom24NetworkDiagnosticsClientEEEvN4mojo25PendingAssociatedReceiverIT_EE(%"class.blink::AssociatedInterfaceProvider"* %20, %"class.mojo::PendingAssociatedReceiver.423"* nonnull %3) #10
  %30 = getelementptr inbounds %"class.mojo::PendingAssociatedReceiver.423", %"class.mojo::PendingAssociatedReceiver.423"* %3, i64 0, i32 0
  call void @_ZN4mojo29ScopedInterfaceEndpointHandleD1Ev(%"class.mojo::ScopedInterfaceEndpointHandle"* nonnull %30) #10
  call void @llvm.lifetime.end.p0i8(i64 8, i8* nonnull %21)
  %31 = getelementptr inbounds %"class.mojo::AssociatedRemote", %"class.mojo::AssociatedRemote"* %4, i64 0, i32 0, i32 1, i32 0, i32 0, i32 0
  %32 = load %"class.chrome::mojom::NetworkDiagnosticsClientProxy"*, %"class.chrome::mojom::NetworkDiagnosticsClientProxy"** %31, align 8
  %33 = getelementptr inbounds %"class.chrome_browser_net::NetErrorTabHelper", %"class.chrome_browser_net::NetErrorTabHelper"* %0, i64 0, i32 0
  %34 = call %"class.content::WebContents"* @_ZNK7content19WebContentsObserver12web_contentsEv(%"class.content::WebContentsObserver"* %33) #10
  %35 = call zeroext i1 @_Z31CanShowNetworkDiagnosticsDialogPN7content11WebContentsE(%"class.content::WebContents"* %34) #10
  call void @_ZN6chrome5mojom29NetworkDiagnosticsClientProxy34SetCanShowNetworkDiagnosticsDialogEb(%"class.chrome::mojom::NetworkDiagnosticsClientProxy"* %32, i1 zeroext %35) #10
  %36 = load %"class.chrome::mojom::NetworkDiagnosticsClientProxy"*, %"class.chrome::mojom::NetworkDiagnosticsClientProxy"** %31, align 8
  store %"class.chrome::mojom::NetworkDiagnosticsClientProxy"* null, %"class.chrome::mojom::NetworkDiagnosticsClientProxy"** %31, align 8
  %37 = icmp eq %"class.chrome::mojom::NetworkDiagnosticsClientProxy"* %36, null
  br i1 %37, label %43, label %38

38:                                               ; preds = %29
  %39 = bitcast %"class.chrome::mojom::NetworkDiagnosticsClientProxy"* %36 to void (%"class.chrome::mojom::NetworkDiagnosticsClientProxy"*)***
  %40 = load void (%"class.chrome::mojom::NetworkDiagnosticsClientProxy"*)**, void (%"class.chrome::mojom::NetworkDiagnosticsClientProxy"*)*** %39, align 8
  %41 = getelementptr inbounds void (%"class.chrome::mojom::NetworkDiagnosticsClientProxy"*)*, void (%"class.chrome::mojom::NetworkDiagnosticsClientProxy"*)** %40, i64 1
  %42 = load void (%"class.chrome::mojom::NetworkDiagnosticsClientProxy"*)*, void (%"class.chrome::mojom::NetworkDiagnosticsClientProxy"*)** %41, align 8
  call void %42(%"class.chrome::mojom::NetworkDiagnosticsClientProxy"* nonnull %36) #10
  br label %43

43:                                               ; preds = %29, %38
  call void @_ZN4mojo8internal31AssociatedInterfacePtrStateBaseD2Ev(%"class.mojo::internal::AssociatedInterfacePtrStateBase"* nonnull %13) #10
  call void @llvm.lifetime.end.p0i8(i64 24, i8* nonnull %12) #10
  br label %44

44:                                               ; preds = %2, %43
  ret void
}

; Function Attrs: argmemonly nounwind
declare void @llvm.lifetime.start.p0i8(i64 immarg, i8* nocapture) #4

; Function Attrs: argmemonly nounwind
declare void @llvm.memcpy.p0i8.p0i8.i64(i8* nocapture writeonly, i8* nocapture readonly, i64, i1 immarg) #4

declare void @_ZN6chrome5mojom29NetworkDiagnosticsClientProxy34SetCanShowNetworkDiagnosticsDialogEb(%"class.chrome::mojom::NetworkDiagnosticsClientProxy"*, i1 zeroext) unnamed_addr #5

declare zeroext i1 @_Z31CanShowNetworkDiagnosticsDialogPN7content11WebContentsE(%"class.content::WebContents"*) local_unnamed_addr #5

declare %"class.content::WebContents"* @_ZNK7content19WebContentsObserver12web_contentsEv(%"class.content::WebContentsObserver"*) local_unnamed_addr #5

; Function Attrs: argmemonly nounwind
declare void @llvm.lifetime.end.p0i8(i64 immarg, i8* nocapture) #4

; Function Attrs: nounwind ssp uwtable
define hidden void @_ZN18chrome_browser_net17NetErrorTabHelper19DidFinishNavigationEPN7content16NavigationHandleE(%"class.chrome_browser_net::NetErrorTabHelper"*, %"class.content::NavigationHandle"*) unnamed_addr #0 align 2 {
  %3 = bitcast %"class.content::NavigationHandle"* %1 to i1 (%"class.content::NavigationHandle"*)***
  %4 = load i1 (%"class.content::NavigationHandle"*)**, i1 (%"class.content::NavigationHandle"*)*** %3, align 8
  %5 = getelementptr inbounds i1 (%"class.content::NavigationHandle"*)*, i1 (%"class.content::NavigationHandle"*)** %4, i64 7
  %6 = load i1 (%"class.content::NavigationHandle"*)*, i1 (%"class.content::NavigationHandle"*)** %5, align 8
  %7 = tail call zeroext i1 %6(%"class.content::NavigationHandle"* %1) #10
  br i1 %7, label %8, label %70

8:                                                ; preds = %2
  %9 = bitcast %"class.content::NavigationHandle"* %1 to i32 (%"class.content::NavigationHandle"*)***
  %10 = load i32 (%"class.content::NavigationHandle"*)**, i32 (%"class.content::NavigationHandle"*)*** %9, align 8
  %11 = getelementptr inbounds i32 (%"class.content::NavigationHandle"*)*, i32 (%"class.content::NavigationHandle"*)** %10, i64 32
  %12 = load i32 (%"class.content::NavigationHandle"*)*, i32 (%"class.content::NavigationHandle"*)** %11, align 8
  %13 = tail call i32 %12(%"class.content::NavigationHandle"* %1) #10
  %14 = tail call zeroext i1 @_ZN3net25IsHostnameResolutionErrorEi(i32 %13) #10
  br i1 %14, label %15, label %42

15:                                               ; preds = %8
  %16 = getelementptr inbounds %"class.chrome_browser_net::NetErrorTabHelper", %"class.chrome_browser_net::NetErrorTabHelper"* %0, i64 0, i32 9
  store i8 1, i8* %16, align 1
  %17 = load i32, i32* @_ZN18chrome_browser_net12_GLOBAL__N_114testing_state_E, align 4
  %18 = icmp eq i32 %17, 0
  br i1 %18, label %22, label %19

19:                                               ; preds = %15
  %20 = icmp eq i32 %17, 2
  %21 = getelementptr inbounds %"class.chrome_browser_net::NetErrorTabHelper", %"class.chrome_browser_net::NetErrorTabHelper"* %0, i64 0, i32 11
  br i1 %20, label %31, label %40

22:                                               ; preds = %15
  %23 = getelementptr inbounds %"class.chrome_browser_net::NetErrorTabHelper", %"class.chrome_browser_net::NetErrorTabHelper"* %0, i64 0, i32 13
  %24 = bitcast %class.PrefMember* %23 to %"class.subtle::PrefMemberBase"*
  tail call void @_ZNK6subtle14PrefMemberBase10VerifyPrefEv(%"class.subtle::PrefMemberBase"* %24) #10
  %25 = getelementptr inbounds %"class.chrome_browser_net::NetErrorTabHelper", %"class.chrome_browser_net::NetErrorTabHelper"* %0, i64 0, i32 13, i32 1, i32 0
  %26 = load %"class.PrefMember<bool>::Internal"*, %"class.PrefMember<bool>::Internal"** %25, align 8
  %27 = getelementptr inbounds %"class.PrefMember<bool>::Internal", %"class.PrefMember<bool>::Internal"* %26, i64 0, i32 1
  %28 = load i8, i8* %27, align 1, !range !2
  %29 = icmp eq i8 %28, 0
  %30 = getelementptr inbounds %"class.chrome_browser_net::NetErrorTabHelper", %"class.chrome_browser_net::NetErrorTabHelper"* %0, i64 0, i32 11
  br i1 %29, label %40, label %31

31:                                               ; preds = %22, %19
  %32 = phi i32* [ %21, %19 ], [ %30, %22 ]
  %33 = load i32, i32* %32, align 4
  %34 = icmp eq i32 %33, 2
  br i1 %34, label %42, label %35

35:                                               ; preds = %31
  %36 = bitcast %"class.chrome_browser_net::NetErrorTabHelper"* %0 to void (%"class.chrome_browser_net::NetErrorTabHelper"*)***
  %37 = load void (%"class.chrome_browser_net::NetErrorTabHelper"*)**, void (%"class.chrome_browser_net::NetErrorTabHelper"*)*** %36, align 8
  %38 = getelementptr inbounds void (%"class.chrome_browser_net::NetErrorTabHelper"*)*, void (%"class.chrome_browser_net::NetErrorTabHelper"*)** %37, i64 107
  %39 = load void (%"class.chrome_browser_net::NetErrorTabHelper"*)*, void (%"class.chrome_browser_net::NetErrorTabHelper"*)** %38, align 8
  tail call void %39(%"class.chrome_browser_net::NetErrorTabHelper"* %0) #10
  store i32 2, i32* %32, align 4
  br label %42

40:                                               ; preds = %22, %19
  %41 = phi i32* [ %21, %19 ], [ %30, %22 ]
  store i32 1, i32* %41, align 4
  br label %42

42:                                               ; preds = %40, %35, %31, %8
  %43 = load i1 (%"class.content::NavigationHandle"*)**, i1 (%"class.content::NavigationHandle"*)*** %3, align 8
  %44 = getelementptr inbounds i1 (%"class.content::NavigationHandle"*)*, i1 (%"class.content::NavigationHandle"*)** %43, i64 39
  %45 = load i1 (%"class.content::NavigationHandle"*)*, i1 (%"class.content::NavigationHandle"*)** %44, align 8
  %46 = tail call zeroext i1 %45(%"class.content::NavigationHandle"* %1) #10
  br i1 %46, label %47, label %57

47:                                               ; preds = %42
  %48 = getelementptr inbounds %"class.chrome_browser_net::NetErrorTabHelper", %"class.chrome_browser_net::NetErrorTabHelper"* %0, i64 0, i32 9
  %49 = load i8, i8* %48, align 1, !range !2
  %50 = icmp eq i8 %49, 0
  br i1 %50, label %57, label %51

51:                                               ; preds = %47
  %52 = getelementptr inbounds %"class.chrome_browser_net::NetErrorTabHelper", %"class.chrome_browser_net::NetErrorTabHelper"* %0, i64 0, i32 10
  store i8 1, i8* %52, align 2
  %53 = bitcast %"class.chrome_browser_net::NetErrorTabHelper"* %0 to void (%"class.chrome_browser_net::NetErrorTabHelper"*)***
  %54 = load void (%"class.chrome_browser_net::NetErrorTabHelper"*)**, void (%"class.chrome_browser_net::NetErrorTabHelper"*)*** %53, align 8
  %55 = getelementptr inbounds void (%"class.chrome_browser_net::NetErrorTabHelper"*)*, void (%"class.chrome_browser_net::NetErrorTabHelper"*)** %54, i64 108
  %56 = load void (%"class.chrome_browser_net::NetErrorTabHelper"*)*, void (%"class.chrome_browser_net::NetErrorTabHelper"*)** %55, align 8
  tail call void %56(%"class.chrome_browser_net::NetErrorTabHelper"* %0) #10
  br label %70

57:                                               ; preds = %47, %42
  %58 = load i1 (%"class.content::NavigationHandle"*)**, i1 (%"class.content::NavigationHandle"*)*** %3, align 8
  %59 = getelementptr inbounds i1 (%"class.content::NavigationHandle"*)*, i1 (%"class.content::NavigationHandle"*)** %58, i64 38
  %60 = load i1 (%"class.content::NavigationHandle"*)*, i1 (%"class.content::NavigationHandle"*)** %59, align 8
  %61 = tail call zeroext i1 %60(%"class.content::NavigationHandle"* %1) #10
  br i1 %61, label %62, label %70

62:                                               ; preds = %57
  %63 = load i1 (%"class.content::NavigationHandle"*)**, i1 (%"class.content::NavigationHandle"*)*** %3, align 8
  %64 = getelementptr inbounds i1 (%"class.content::NavigationHandle"*)*, i1 (%"class.content::NavigationHandle"*)** %63, i64 39
  %65 = load i1 (%"class.content::NavigationHandle"*)*, i1 (%"class.content::NavigationHandle"*)** %64, align 8
  %66 = tail call zeroext i1 %65(%"class.content::NavigationHandle"* %1) #10
  br i1 %66, label %70, label %67

67:                                               ; preds = %62
  %68 = getelementptr inbounds %"class.chrome_browser_net::NetErrorTabHelper", %"class.chrome_browser_net::NetErrorTabHelper"* %0, i64 0, i32 9
  store i8 0, i8* %68, align 1
  %69 = getelementptr inbounds %"class.chrome_browser_net::NetErrorTabHelper", %"class.chrome_browser_net::NetErrorTabHelper"* %0, i64 0, i32 10
  store i8 0, i8* %69, align 2
  br label %70

70:                                               ; preds = %57, %62, %67, %2, %51
  ret void
}

declare zeroext i1 @_ZN3net25IsHostnameResolutionErrorEi(i32) local_unnamed_addr #5

; Function Attrs: nounwind ssp uwtable
define hidden void @_ZN18chrome_browser_net17NetErrorTabHelper19OnMainFrameDnsErrorEv(%"class.chrome_browser_net::NetErrorTabHelper"*) local_unnamed_addr #0 align 2 {
  %2 = load i32, i32* @_ZN18chrome_browser_net12_GLOBAL__N_114testing_state_E, align 4
  %3 = icmp eq i32 %2, 0
  br i1 %3, label %7, label %4

4:                                                ; preds = %1
  %5 = icmp eq i32 %2, 2
  %6 = getelementptr inbounds %"class.chrome_browser_net::NetErrorTabHelper", %"class.chrome_browser_net::NetErrorTabHelper"* %0, i64 0, i32 11
  br i1 %5, label %16, label %25

7:                                                ; preds = %1
  %8 = getelementptr inbounds %"class.chrome_browser_net::NetErrorTabHelper", %"class.chrome_browser_net::NetErrorTabHelper"* %0, i64 0, i32 13
  %9 = bitcast %class.PrefMember* %8 to %"class.subtle::PrefMemberBase"*
  tail call void @_ZNK6subtle14PrefMemberBase10VerifyPrefEv(%"class.subtle::PrefMemberBase"* %9) #10
  %10 = getelementptr inbounds %"class.chrome_browser_net::NetErrorTabHelper", %"class.chrome_browser_net::NetErrorTabHelper"* %0, i64 0, i32 13, i32 1, i32 0
  %11 = load %"class.PrefMember<bool>::Internal"*, %"class.PrefMember<bool>::Internal"** %10, align 8
  %12 = getelementptr inbounds %"class.PrefMember<bool>::Internal", %"class.PrefMember<bool>::Internal"* %11, i64 0, i32 1
  %13 = load i8, i8* %12, align 1, !range !2
  %14 = icmp eq i8 %13, 0
  %15 = getelementptr inbounds %"class.chrome_browser_net::NetErrorTabHelper", %"class.chrome_browser_net::NetErrorTabHelper"* %0, i64 0, i32 11
  br i1 %14, label %25, label %16

16:                                               ; preds = %7, %4
  %17 = phi i32* [ %6, %4 ], [ %15, %7 ]
  %18 = load i32, i32* %17, align 4
  %19 = icmp eq i32 %18, 2
  br i1 %19, label %27, label %20

20:                                               ; preds = %16
  %21 = bitcast %"class.chrome_browser_net::NetErrorTabHelper"* %0 to void (%"class.chrome_browser_net::NetErrorTabHelper"*)***
  %22 = load void (%"class.chrome_browser_net::NetErrorTabHelper"*)**, void (%"class.chrome_browser_net::NetErrorTabHelper"*)*** %21, align 8
  %23 = getelementptr inbounds void (%"class.chrome_browser_net::NetErrorTabHelper"*)*, void (%"class.chrome_browser_net::NetErrorTabHelper"*)** %22, i64 107
  %24 = load void (%"class.chrome_browser_net::NetErrorTabHelper"*)*, void (%"class.chrome_browser_net::NetErrorTabHelper"*)** %23, align 8
  tail call void %24(%"class.chrome_browser_net::NetErrorTabHelper"* %0) #10
  store i32 2, i32* %17, align 4
  br label %27

25:                                               ; preds = %7, %4
  %26 = phi i32* [ %6, %4 ], [ %15, %7 ]
  store i32 1, i32* %26, align 4
  br label %27

27:                                               ; preds = %16, %20, %25
  ret void
}

; Function Attrs: nounwind ssp uwtable
define hidden void @_ZN18chrome_browser_net17NetErrorTabHelperC2EPN7content11WebContentsE(%"class.chrome_browser_net::NetErrorTabHelper"*, %"class.content::WebContents"*) unnamed_addr #0 align 2 {
  %3 = getelementptr inbounds %"class.chrome_browser_net::NetErrorTabHelper", %"class.chrome_browser_net::NetErrorTabHelper"* %0, i64 0, i32 0
  tail call void @_ZN7content19WebContentsObserverC2EPNS_11WebContentsE(%"class.content::WebContentsObserver"* %3, %"class.content::WebContents"* %1) #10
  %4 = getelementptr inbounds %"class.chrome_browser_net::NetErrorTabHelper", %"class.chrome_browser_net::NetErrorTabHelper"* %0, i64 0, i32 1, i32 0, i32 0
  %5 = getelementptr inbounds %"class.chrome_browser_net::NetErrorTabHelper", %"class.chrome_browser_net::NetErrorTabHelper"* %0, i64 0, i32 2
  %6 = getelementptr inbounds %"class.chrome_browser_net::NetErrorTabHelper", %"class.chrome_browser_net::NetErrorTabHelper"* %0, i64 0, i32 3
  %7 = getelementptr inbounds %"class.chrome_browser_net::NetErrorTabHelper", %"class.chrome_browser_net::NetErrorTabHelper"* %0, i64 0, i32 4
  %8 = getelementptr inbounds %"class.chrome_browser_net::NetErrorTabHelper", %"class.chrome_browser_net::NetErrorTabHelper"* %0, i64 0, i32 0, i32 0, i32 0
  store i32 (...)** bitcast (i8** getelementptr inbounds ({ [116 x i8*], [5 x i8*], [4 x i8*], [5 x i8*], [7 x i8*] }, { [116 x i8*], [5 x i8*], [4 x i8*], [5 x i8*], [7 x i8*] }* @_ZTVN18chrome_browser_net17NetErrorTabHelperE, i64 0, inrange i32 0, i64 2) to i32 (...)**), i32 (...)*** %8, align 8
  %9 = bitcast i32 (...)*** %4 to <2 x i32 (...)**>*
  store <2 x i32 (...)**> <i32 (...)** bitcast (i8** getelementptr inbounds ({ [116 x i8*], [5 x i8*], [4 x i8*], [5 x i8*], [7 x i8*] }, { [116 x i8*], [5 x i8*], [4 x i8*], [5 x i8*], [7 x i8*] }* @_ZTVN18chrome_browser_net17NetErrorTabHelperE, i64 0, inrange i32 1, i64 2) to i32 (...)**), i32 (...)** bitcast (i8** getelementptr inbounds ({ [116 x i8*], [5 x i8*], [4 x i8*], [5 x i8*], [7 x i8*] }, { [116 x i8*], [5 x i8*], [4 x i8*], [5 x i8*], [7 x i8*] }* @_ZTVN18chrome_browser_net17NetErrorTabHelperE, i64 0, inrange i32 2, i64 2) to i32 (...)**)>, <2 x i32 (...)**>* %9, align 8
  %10 = bitcast %"class.chrome::mojom::NetworkDiagnostics"* %6 to <2 x i32 (...)**>*
  store <2 x i32 (...)**> <i32 (...)** bitcast (i8** getelementptr inbounds ({ [116 x i8*], [5 x i8*], [4 x i8*], [5 x i8*], [7 x i8*] }, { [116 x i8*], [5 x i8*], [4 x i8*], [5 x i8*], [7 x i8*] }* @_ZTVN18chrome_browser_net17NetErrorTabHelperE, i64 0, inrange i32 3, i64 2) to i32 (...)**), i32 (...)** bitcast (i8** getelementptr inbounds ({ [116 x i8*], [5 x i8*], [4 x i8*], [5 x i8*], [7 x i8*] }, { [116 x i8*], [5 x i8*], [4 x i8*], [5 x i8*], [7 x i8*] }* @_ZTVN18chrome_browser_net17NetErrorTabHelperE, i64 0, inrange i32 4, i64 2) to i32 (...)**)>, <2 x i32 (...)**>* %10, align 8
  %11 = getelementptr inbounds %"class.chrome_browser_net::NetErrorTabHelper", %"class.chrome_browser_net::NetErrorTabHelper"* %0, i64 0, i32 5
  tail call void @_ZN7content27WebContentsFrameReceiverSetIN6chrome5mojom18NetworkDiagnosticsEEC2EPNS_11WebContentsEPS3_(%"class.content::WebContentsFrameReceiverSet"* %11, %"class.content::WebContents"* %1, %"class.chrome::mojom::NetworkDiagnostics"* %6)
  %12 = getelementptr inbounds %"class.chrome_browser_net::NetErrorTabHelper", %"class.chrome_browser_net::NetErrorTabHelper"* %0, i64 0, i32 6
  tail call void @_ZN7content27WebContentsFrameReceiverSetIN6chrome5mojom16NetworkEasterEggEEC2EPNS_11WebContentsEPS3_(%"class.content::WebContentsFrameReceiverSet.35"* %12, %"class.content::WebContents"* %1, %"class.chrome::mojom::NetworkEasterEgg"* %7)
  %13 = getelementptr inbounds %"class.chrome_browser_net::NetErrorTabHelper", %"class.chrome_browser_net::NetErrorTabHelper"* %0, i64 0, i32 7
  tail call void @_ZN7content27WebContentsFrameReceiverSetIN6chrome5mojom19NetErrorPageSupportEEC2EPNS_11WebContentsEPS3_(%"class.content::WebContentsFrameReceiverSet.37"* %13, %"class.content::WebContents"* %1, %"class.chrome::mojom::NetErrorPageSupport"* %5)
  %14 = getelementptr inbounds %"class.chrome_browser_net::NetErrorTabHelper", %"class.chrome_browser_net::NetErrorTabHelper"* %0, i64 0, i32 8
  store i8 0, i8* %14, align 8
  %15 = getelementptr inbounds %"class.chrome_browser_net::NetErrorTabHelper", %"class.chrome_browser_net::NetErrorTabHelper"* %0, i64 0, i32 9
  store i8 0, i8* %15, align 1
  %16 = getelementptr inbounds %"class.chrome_browser_net::NetErrorTabHelper", %"class.chrome_browser_net::NetErrorTabHelper"* %0, i64 0, i32 10
  store i8 0, i8* %16, align 2
  %17 = getelementptr inbounds %"class.chrome_browser_net::NetErrorTabHelper", %"class.chrome_browser_net::NetErrorTabHelper"* %0, i64 0, i32 11
  store i32 0, i32* %17, align 4
  %18 = getelementptr inbounds %"class.chrome_browser_net::NetErrorTabHelper", %"class.chrome_browser_net::NetErrorTabHelper"* %0, i64 0, i32 12, i32 0, i32 0, i32 0, i32 0
  store %"class.base::internal::BindStateBase"* null, %"class.base::internal::BindStateBase"** %18, align 8
  %19 = getelementptr inbounds %"class.chrome_browser_net::NetErrorTabHelper", %"class.chrome_browser_net::NetErrorTabHelper"* %0, i64 0, i32 13
  %20 = bitcast %class.PrefMember* %19 to %"class.subtle::PrefMemberBase"*
  tail call void @_ZN6subtle14PrefMemberBaseC2Ev(%"class.subtle::PrefMemberBase"* %20) #10
  %21 = getelementptr inbounds %class.PrefMember, %class.PrefMember* %19, i64 0, i32 0, i32 0, i32 0
  store i32 (...)** bitcast (i8** getelementptr inbounds ({ [7 x i8*] }, { [7 x i8*] }* @_ZTV10PrefMemberIbE, i64 0, inrange i32 0, i64 2) to i32 (...)**), i32 (...)*** %21, align 8
  %22 = getelementptr inbounds %"class.chrome_browser_net::NetErrorTabHelper", %"class.chrome_browser_net::NetErrorTabHelper"* %0, i64 0, i32 13, i32 1, i32 0
  store %"class.PrefMember<bool>::Internal"* null, %"class.PrefMember<bool>::Internal"** %22, align 8
  %23 = getelementptr inbounds %"class.chrome_browser_net::NetErrorTabHelper", %"class.chrome_browser_net::NetErrorTabHelper"* %0, i64 0, i32 14
  %24 = bitcast %class.PrefMember.131* %23 to %"class.subtle::PrefMemberBase"*
  tail call void @_ZN6subtle14PrefMemberBaseC2Ev(%"class.subtle::PrefMemberBase"* %24) #10
  %25 = getelementptr inbounds %class.PrefMember.131, %class.PrefMember.131* %23, i64 0, i32 0, i32 0, i32 0
  store i32 (...)** bitcast (i8** getelementptr inbounds ({ [7 x i8*] }, { [7 x i8*] }* @_ZTV10PrefMemberIiE, i64 0, inrange i32 0, i64 2) to i32 (...)**), i32 (...)*** %25, align 8
  %26 = getelementptr inbounds %"class.chrome_browser_net::NetErrorTabHelper", %"class.chrome_browser_net::NetErrorTabHelper"* %0, i64 0, i32 14, i32 1, i32 0
  store %"class.PrefMember<int>::Internal"* null, %"class.PrefMember<int>::Internal"** %26, align 8
  %27 = getelementptr inbounds %"class.chrome_browser_net::NetErrorTabHelper", %"class.chrome_browser_net::NetErrorTabHelper"* %0, i64 0, i32 15, i32 0
  %28 = ptrtoint %"class.chrome_browser_net::NetErrorTabHelper"* %0 to i64
  tail call void @_ZN4base8internal18WeakPtrFactoryBaseC2Em(%"class.base::internal::WeakPtrFactoryBase"* %27, i64 %28) #10
  %29 = icmp eq %"class.content::WebContents"* %1, null
  br i1 %29, label %31, label %30

30:                                               ; preds = %2
  tail call void @_ZN18chrome_browser_net17NetErrorTabHelper14InitializePrefEPN7content11WebContentsE(%"class.chrome_browser_net::NetErrorTabHelper"* %0, %"class.content::WebContents"* nonnull %1)
  br label %31

31:                                               ; preds = %2, %30
  ret void
}

declare void @_ZN7content19WebContentsObserverC2EPNS_11WebContentsE(%"class.content::WebContentsObserver"*, %"class.content::WebContents"*) unnamed_addr #5

; Function Attrs: nounwind ssp uwtable
define linkonce_odr hidden void @_ZN7content27WebContentsFrameReceiverSetIN6chrome5mojom18NetworkDiagnosticsEEC2EPNS_11WebContentsEPS3_(%"class.content::WebContentsFrameReceiverSet"*, %"class.content::WebContents"*, %"class.chrome::mojom::NetworkDiagnostics"*) unnamed_addr #0 comdat align 2 {
  %4 = alloca %"class.std::__1::basic_string", align 8
  %5 = getelementptr inbounds %"class.content::WebContentsFrameReceiverSet", %"class.content::WebContentsFrameReceiverSet"* %0, i64 0, i32 0
  %6 = bitcast %"class.std::__1::basic_string"* %4 to i8*
  call void @llvm.lifetime.start.p0i8(i64 24, i8* nonnull %6) #10
  %7 = tail call i64 @strlen(i8* getelementptr inbounds ([0 x i8], [0 x i8]* @_ZN6chrome5mojom18NetworkDiagnostics5Name_E, i64 0, i64 0)) #10
  %8 = icmp ugt i64 %7, -17
  br i1 %8, label %9, label %11

9:                                                ; preds = %3
  %10 = bitcast %"class.std::__1::basic_string"* %4 to %"class.std::__1::__basic_string_common"*
  call void @_ZNKSt3__121__basic_string_commonILb1EE20__throw_length_errorEv(%"class.std::__1::__basic_string_common"* nonnull %10) #12
  unreachable

11:                                               ; preds = %3
  %12 = icmp ult i64 %7, 23
  br i1 %12, label %22, label %13

13:                                               ; preds = %11
  %14 = add nuw i64 %7, 16
  %15 = and i64 %14, -16
  %16 = tail call i8* @_Znwm(i64 %15) #11
  %17 = getelementptr inbounds %"class.std::__1::basic_string", %"class.std::__1::basic_string"* %4, i64 0, i32 0, i32 0, i32 0, i32 0, i32 0, i32 0
  store i8* %16, i8** %17, align 8
  %18 = or i64 %15, -9223372036854775808
  %19 = getelementptr inbounds %"class.std::__1::basic_string", %"class.std::__1::basic_string"* %4, i64 0, i32 0, i32 0, i32 0, i32 0, i32 0, i32 2
  store i64 %18, i64* %19, align 8
  %20 = getelementptr inbounds %"class.std::__1::basic_string", %"class.std::__1::basic_string"* %4, i64 0, i32 0, i32 0, i32 0, i32 0, i32 0, i32 1
  store i64 %7, i64* %20, align 8
  %21 = bitcast %"class.std::__1::basic_string"* %4 to %"struct.std::__1::basic_string<char, std::__1::char_traits<char>, std::__1::allocator<char> >::__short"*
  br label %27

22:                                               ; preds = %11
  %23 = trunc i64 %7 to i8
  %24 = bitcast %"class.std::__1::basic_string"* %4 to %"struct.std::__1::basic_string<char, std::__1::char_traits<char>, std::__1::allocator<char> >::__short"*
  %25 = getelementptr inbounds %"struct.std::__1::basic_string<char, std::__1::char_traits<char>, std::__1::allocator<char> >::__short", %"struct.std::__1::basic_string<char, std::__1::char_traits<char>, std::__1::allocator<char> >::__short"* %24, i64 0, i32 1, i32 0
  store i8 %23, i8* %25, align 1
  %26 = icmp eq i64 %7, 0
  br i1 %26, label %30, label %27

27:                                               ; preds = %22, %13
  %28 = phi %"struct.std::__1::basic_string<char, std::__1::char_traits<char>, std::__1::allocator<char> >::__short"* [ %24, %22 ], [ %21, %13 ]
  %29 = phi i8* [ %6, %22 ], [ %16, %13 ]
  call void @llvm.memcpy.p0i8.p0i8.i64(i8* nonnull align 1 %29, i8* align 1 getelementptr inbounds ([0 x i8], [0 x i8]* @_ZN6chrome5mojom18NetworkDiagnostics5Name_E, i64 0, i64 0), i64 %7, i1 false) #10
  br label %30

30:                                               ; preds = %22, %27
  %31 = phi %"struct.std::__1::basic_string<char, std::__1::char_traits<char>, std::__1::allocator<char> >::__short"* [ %24, %22 ], [ %28, %27 ]
  %32 = phi i8* [ %6, %22 ], [ %29, %27 ]
  %33 = getelementptr inbounds i8, i8* %32, i64 %7
  store i8 0, i8* %33, align 1
  call void @_ZN7content22WebContentsReceiverSetC2EPNS_11WebContentsERKNSt3__112basic_stringIcNS3_11char_traitsIcEENS3_9allocatorIcEEEE(%"class.content::WebContentsReceiverSet"* %5, %"class.content::WebContents"* %1, %"class.std::__1::basic_string"* nonnull dereferenceable(24) %4) #10
  %34 = getelementptr inbounds %"struct.std::__1::basic_string<char, std::__1::char_traits<char>, std::__1::allocator<char> >::__short", %"struct.std::__1::basic_string<char, std::__1::char_traits<char>, std::__1::allocator<char> >::__short"* %31, i64 0, i32 1, i32 0
  %35 = load i8, i8* %34, align 1
  %36 = icmp slt i8 %35, 0
  br i1 %36, label %37, label %40

37:                                               ; preds = %30
  %38 = getelementptr inbounds %"class.std::__1::basic_string", %"class.std::__1::basic_string"* %4, i64 0, i32 0, i32 0, i32 0, i32 0, i32 0, i32 0
  %39 = load i8*, i8** %38, align 8
  call void @_ZdlPv(i8* %39) #11
  br label %40

40:                                               ; preds = %30, %37
  call void @llvm.lifetime.end.p0i8(i64 24, i8* nonnull %6) #10
  %41 = getelementptr inbounds %"class.content::WebContentsFrameReceiverSet", %"class.content::WebContentsFrameReceiverSet"* %0, i64 0, i32 1
  %42 = getelementptr inbounds %"class.content::WebContentsFrameReceiverSet<chrome::mojom::NetworkDiagnostics>::FrameInterfaceBinder", %"class.content::WebContentsFrameReceiverSet<chrome::mojom::NetworkDiagnostics>::FrameInterfaceBinder"* %41, i64 0, i32 0, i32 0
  store i32 (...)** bitcast (i8** getelementptr inbounds ({ [6 x i8*] }, { [6 x i8*] }* @_ZTVN7content22WebContentsReceiverSet6BinderE, i64 0, inrange i32 0, i64 2) to i32 (...)**), i32 (...)*** %42, align 8
  %43 = getelementptr inbounds %"class.content::WebContentsFrameReceiverSet", %"class.content::WebContentsFrameReceiverSet"* %0, i64 0, i32 1, i32 1
  call void @_ZN7content19WebContentsObserverC2EPNS_11WebContentsE(%"class.content::WebContentsObserver"* %43, %"class.content::WebContents"* %1) #10
  %44 = bitcast %"class.content::WebContentsFrameReceiverSet<chrome::mojom::NetworkDiagnostics>::FrameInterfaceBinder"* %41 to <2 x i32 (...)**>*
  store <2 x i32 (...)**> <i32 (...)** bitcast (i8** getelementptr inbounds ({ [7 x i8*], [109 x i8*] }, { [7 x i8*], [109 x i8*] }* @_ZTVN7content27WebContentsFrameReceiverSetIN6chrome5mojom18NetworkDiagnosticsEE20FrameInterfaceBinderE, i64 0, inrange i32 0, i64 2) to i32 (...)**), i32 (...)** bitcast (i8** getelementptr inbounds ({ [7 x i8*], [109 x i8*] }, { [7 x i8*], [109 x i8*] }* @_ZTVN7content27WebContentsFrameReceiverSetIN6chrome5mojom18NetworkDiagnosticsEE20FrameInterfaceBinderE, i64 0, inrange i32 1, i64 2) to i32 (...)**)>, <2 x i32 (...)**>* %44, align 8
  %45 = getelementptr inbounds %"class.content::WebContentsFrameReceiverSet", %"class.content::WebContentsFrameReceiverSet"* %0, i64 0, i32 1, i32 2
  store %"class.chrome::mojom::NetworkDiagnostics"* %2, %"class.chrome::mojom::NetworkDiagnostics"** %45, align 8
  %46 = getelementptr inbounds %"class.content::WebContentsFrameReceiverSet", %"class.content::WebContentsFrameReceiverSet"* %0, i64 0, i32 1, i32 3, i32 0
  call void @_ZN4mojo16ReceiverSetStateC1Ev(%"class.mojo::ReceiverSetState"* %46) #10
  %47 = getelementptr inbounds %"class.content::WebContentsFrameReceiverSet", %"class.content::WebContentsFrameReceiverSet"* %0, i64 0, i32 1, i32 4, i32 0, i32 1, i32 0, i32 0, i32 0
  %48 = getelementptr inbounds %"class.content::WebContentsFrameReceiverSet", %"class.content::WebContentsFrameReceiverSet"* %0, i64 0, i32 1, i32 4, i32 0, i32 1, i32 0, i32 0
  %49 = getelementptr inbounds %"class.content::WebContentsFrameReceiverSet", %"class.content::WebContentsFrameReceiverSet"* %0, i64 0, i32 1, i32 4, i32 0, i32 0
  %50 = bitcast %"class.std::__1::__tree_node_base"** %47 to i8*
  call void @llvm.memset.p0i8.i64(i8* align 8 %50, i8 0, i64 16, i1 false) #10
  store %"class.std::__1::__tree_end_node"* %48, %"class.std::__1::__tree_end_node"** %49, align 8
  %51 = getelementptr inbounds %"class.content::WebContentsFrameReceiverSet", %"class.content::WebContentsFrameReceiverSet"* %0, i64 0, i32 2
  store %"class.content::RenderFrameHost"* null, %"class.content::RenderFrameHost"** %51, align 8
  %52 = getelementptr inbounds %"class.content::WebContentsFrameReceiverSet<chrome::mojom::NetworkDiagnostics>::FrameInterfaceBinder", %"class.content::WebContentsFrameReceiverSet<chrome::mojom::NetworkDiagnostics>::FrameInterfaceBinder"* %41, i64 0, i32 0
  %53 = getelementptr inbounds %"class.content::WebContentsFrameReceiverSet", %"class.content::WebContentsFrameReceiverSet"* %0, i64 0, i32 0, i32 1
  store %"class.content::WebContentsReceiverSet::Binder"* %52, %"class.content::WebContentsReceiverSet::Binder"** %53, align 8
  ret void
}

; Function Attrs: nounwind ssp uwtable
define linkonce_odr hidden void @_ZN7content27WebContentsFrameReceiverSetIN6chrome5mojom16NetworkEasterEggEEC2EPNS_11WebContentsEPS3_(%"class.content::WebContentsFrameReceiverSet.35"*, %"class.content::WebContents"*, %"class.chrome::mojom::NetworkEasterEgg"*) unnamed_addr #0 comdat align 2 {
  %4 = alloca %"class.std::__1::basic_string", align 8
  %5 = getelementptr inbounds %"class.content::WebContentsFrameReceiverSet.35", %"class.content::WebContentsFrameReceiverSet.35"* %0, i64 0, i32 0
  %6 = bitcast %"class.std::__1::basic_string"* %4 to i8*
  call void @llvm.lifetime.start.p0i8(i64 24, i8* nonnull %6) #10
  %7 = tail call i64 @strlen(i8* getelementptr inbounds ([0 x i8], [0 x i8]* @_ZN6chrome5mojom16NetworkEasterEgg5Name_E, i64 0, i64 0)) #10
  %8 = icmp ugt i64 %7, -17
  br i1 %8, label %9, label %11

9:                                                ; preds = %3
  %10 = bitcast %"class.std::__1::basic_string"* %4 to %"class.std::__1::__basic_string_common"*
  call void @_ZNKSt3__121__basic_string_commonILb1EE20__throw_length_errorEv(%"class.std::__1::__basic_string_common"* nonnull %10) #12
  unreachable

11:                                               ; preds = %3
  %12 = icmp ult i64 %7, 23
  br i1 %12, label %22, label %13

13:                                               ; preds = %11
  %14 = add nuw i64 %7, 16
  %15 = and i64 %14, -16
  %16 = tail call i8* @_Znwm(i64 %15) #11
  %17 = getelementptr inbounds %"class.std::__1::basic_string", %"class.std::__1::basic_string"* %4, i64 0, i32 0, i32 0, i32 0, i32 0, i32 0, i32 0
  store i8* %16, i8** %17, align 8
  %18 = or i64 %15, -9223372036854775808
  %19 = getelementptr inbounds %"class.std::__1::basic_string", %"class.std::__1::basic_string"* %4, i64 0, i32 0, i32 0, i32 0, i32 0, i32 0, i32 2
  store i64 %18, i64* %19, align 8
  %20 = getelementptr inbounds %"class.std::__1::basic_string", %"class.std::__1::basic_string"* %4, i64 0, i32 0, i32 0, i32 0, i32 0, i32 0, i32 1
  store i64 %7, i64* %20, align 8
  %21 = bitcast %"class.std::__1::basic_string"* %4 to %"struct.std::__1::basic_string<char, std::__1::char_traits<char>, std::__1::allocator<char> >::__short"*
  br label %27

22:                                               ; preds = %11
  %23 = trunc i64 %7 to i8
  %24 = bitcast %"class.std::__1::basic_string"* %4 to %"struct.std::__1::basic_string<char, std::__1::char_traits<char>, std::__1::allocator<char> >::__short"*
  %25 = getelementptr inbounds %"struct.std::__1::basic_string<char, std::__1::char_traits<char>, std::__1::allocator<char> >::__short", %"struct.std::__1::basic_string<char, std::__1::char_traits<char>, std::__1::allocator<char> >::__short"* %24, i64 0, i32 1, i32 0
  store i8 %23, i8* %25, align 1
  %26 = icmp eq i64 %7, 0
  br i1 %26, label %30, label %27

27:                                               ; preds = %22, %13
  %28 = phi %"struct.std::__1::basic_string<char, std::__1::char_traits<char>, std::__1::allocator<char> >::__short"* [ %24, %22 ], [ %21, %13 ]
  %29 = phi i8* [ %6, %22 ], [ %16, %13 ]
  call void @llvm.memcpy.p0i8.p0i8.i64(i8* nonnull align 1 %29, i8* align 1 getelementptr inbounds ([0 x i8], [0 x i8]* @_ZN6chrome5mojom16NetworkEasterEgg5Name_E, i64 0, i64 0), i64 %7, i1 false) #10
  br label %30

30:                                               ; preds = %22, %27
  %31 = phi %"struct.std::__1::basic_string<char, std::__1::char_traits<char>, std::__1::allocator<char> >::__short"* [ %24, %22 ], [ %28, %27 ]
  %32 = phi i8* [ %6, %22 ], [ %29, %27 ]
  %33 = getelementptr inbounds i8, i8* %32, i64 %7
  store i8 0, i8* %33, align 1
  call void @_ZN7content22WebContentsReceiverSetC2EPNS_11WebContentsERKNSt3__112basic_stringIcNS3_11char_traitsIcEENS3_9allocatorIcEEEE(%"class.content::WebContentsReceiverSet"* %5, %"class.content::WebContents"* %1, %"class.std::__1::basic_string"* nonnull dereferenceable(24) %4) #10
  %34 = getelementptr inbounds %"struct.std::__1::basic_string<char, std::__1::char_traits<char>, std::__1::allocator<char> >::__short", %"struct.std::__1::basic_string<char, std::__1::char_traits<char>, std::__1::allocator<char> >::__short"* %31, i64 0, i32 1, i32 0
  %35 = load i8, i8* %34, align 1
  %36 = icmp slt i8 %35, 0
  br i1 %36, label %37, label %40

37:                                               ; preds = %30
  %38 = getelementptr inbounds %"class.std::__1::basic_string", %"class.std::__1::basic_string"* %4, i64 0, i32 0, i32 0, i32 0, i32 0, i32 0, i32 0
  %39 = load i8*, i8** %38, align 8
  call void @_ZdlPv(i8* %39) #11
  br label %40

40:                                               ; preds = %30, %37
  call void @llvm.lifetime.end.p0i8(i64 24, i8* nonnull %6) #10
  %41 = getelementptr inbounds %"class.content::WebContentsFrameReceiverSet.35", %"class.content::WebContentsFrameReceiverSet.35"* %0, i64 0, i32 1
  %42 = getelementptr inbounds %"class.content::WebContentsFrameReceiverSet<chrome::mojom::NetworkEasterEgg>::FrameInterfaceBinder", %"class.content::WebContentsFrameReceiverSet<chrome::mojom::NetworkEasterEgg>::FrameInterfaceBinder"* %41, i64 0, i32 0, i32 0
  store i32 (...)** bitcast (i8** getelementptr inbounds ({ [6 x i8*] }, { [6 x i8*] }* @_ZTVN7content22WebContentsReceiverSet6BinderE, i64 0, inrange i32 0, i64 2) to i32 (...)**), i32 (...)*** %42, align 8
  %43 = getelementptr inbounds %"class.content::WebContentsFrameReceiverSet.35", %"class.content::WebContentsFrameReceiverSet.35"* %0, i64 0, i32 1, i32 1
  call void @_ZN7content19WebContentsObserverC2EPNS_11WebContentsE(%"class.content::WebContentsObserver"* %43, %"class.content::WebContents"* %1) #10
  %44 = bitcast %"class.content::WebContentsFrameReceiverSet<chrome::mojom::NetworkEasterEgg>::FrameInterfaceBinder"* %41 to <2 x i32 (...)**>*
  store <2 x i32 (...)**> <i32 (...)** bitcast (i8** getelementptr inbounds ({ [7 x i8*], [109 x i8*] }, { [7 x i8*], [109 x i8*] }* @_ZTVN7content27WebContentsFrameReceiverSetIN6chrome5mojom16NetworkEasterEggEE20FrameInterfaceBinderE, i64 0, inrange i32 0, i64 2) to i32 (...)**), i32 (...)** bitcast (i8** getelementptr inbounds ({ [7 x i8*], [109 x i8*] }, { [7 x i8*], [109 x i8*] }* @_ZTVN7content27WebContentsFrameReceiverSetIN6chrome5mojom16NetworkEasterEggEE20FrameInterfaceBinderE, i64 0, inrange i32 1, i64 2) to i32 (...)**)>, <2 x i32 (...)**>* %44, align 8
  %45 = getelementptr inbounds %"class.content::WebContentsFrameReceiverSet.35", %"class.content::WebContentsFrameReceiverSet.35"* %0, i64 0, i32 1, i32 2
  store %"class.chrome::mojom::NetworkEasterEgg"* %2, %"class.chrome::mojom::NetworkEasterEgg"** %45, align 8
  %46 = getelementptr inbounds %"class.content::WebContentsFrameReceiverSet.35", %"class.content::WebContentsFrameReceiverSet.35"* %0, i64 0, i32 1, i32 3, i32 0
  call void @_ZN4mojo16ReceiverSetStateC1Ev(%"class.mojo::ReceiverSetState"* %46) #10
  %47 = getelementptr inbounds %"class.content::WebContentsFrameReceiverSet.35", %"class.content::WebContentsFrameReceiverSet.35"* %0, i64 0, i32 1, i32 4, i32 0, i32 1, i32 0, i32 0, i32 0
  %48 = getelementptr inbounds %"class.content::WebContentsFrameReceiverSet.35", %"class.content::WebContentsFrameReceiverSet.35"* %0, i64 0, i32 1, i32 4, i32 0, i32 1, i32 0, i32 0
  %49 = getelementptr inbounds %"class.content::WebContentsFrameReceiverSet.35", %"class.content::WebContentsFrameReceiverSet.35"* %0, i64 0, i32 1, i32 4, i32 0, i32 0
  %50 = bitcast %"class.std::__1::__tree_node_base"** %47 to i8*
  call void @llvm.memset.p0i8.i64(i8* align 8 %50, i8 0, i64 16, i1 false) #10
  store %"class.std::__1::__tree_end_node"* %48, %"class.std::__1::__tree_end_node"** %49, align 8
  %51 = getelementptr inbounds %"class.content::WebContentsFrameReceiverSet.35", %"class.content::WebContentsFrameReceiverSet.35"* %0, i64 0, i32 2
  store %"class.content::RenderFrameHost"* null, %"class.content::RenderFrameHost"** %51, align 8
  %52 = getelementptr inbounds %"class.content::WebContentsFrameReceiverSet<chrome::mojom::NetworkEasterEgg>::FrameInterfaceBinder", %"class.content::WebContentsFrameReceiverSet<chrome::mojom::NetworkEasterEgg>::FrameInterfaceBinder"* %41, i64 0, i32 0
  %53 = getelementptr inbounds %"class.content::WebContentsFrameReceiverSet.35", %"class.content::WebContentsFrameReceiverSet.35"* %0, i64 0, i32 0, i32 1
  store %"class.content::WebContentsReceiverSet::Binder"* %52, %"class.content::WebContentsReceiverSet::Binder"** %53, align 8
  ret void
}

; Function Attrs: nounwind ssp uwtable
define linkonce_odr hidden void @_ZN7content27WebContentsFrameReceiverSetIN6chrome5mojom19NetErrorPageSupportEEC2EPNS_11WebContentsEPS3_(%"class.content::WebContentsFrameReceiverSet.37"*, %"class.content::WebContents"*, %"class.chrome::mojom::NetErrorPageSupport"*) unnamed_addr #0 comdat align 2 {
  %4 = alloca %"class.std::__1::basic_string", align 8
  %5 = getelementptr inbounds %"class.content::WebContentsFrameReceiverSet.37", %"class.content::WebContentsFrameReceiverSet.37"* %0, i64 0, i32 0
  %6 = bitcast %"class.std::__1::basic_string"* %4 to i8*
  call void @llvm.lifetime.start.p0i8(i64 24, i8* nonnull %6) #10
  %7 = tail call i64 @strlen(i8* getelementptr inbounds ([0 x i8], [0 x i8]* @_ZN6chrome5mojom19NetErrorPageSupport5Name_E, i64 0, i64 0)) #10
  %8 = icmp ugt i64 %7, -17
  br i1 %8, label %9, label %11

9:                                                ; preds = %3
  %10 = bitcast %"class.std::__1::basic_string"* %4 to %"class.std::__1::__basic_string_common"*
  call void @_ZNKSt3__121__basic_string_commonILb1EE20__throw_length_errorEv(%"class.std::__1::__basic_string_common"* nonnull %10) #12
  unreachable

11:                                               ; preds = %3
  %12 = icmp ult i64 %7, 23
  br i1 %12, label %22, label %13

13:                                               ; preds = %11
  %14 = add nuw i64 %7, 16
  %15 = and i64 %14, -16
  %16 = tail call i8* @_Znwm(i64 %15) #11
  %17 = getelementptr inbounds %"class.std::__1::basic_string", %"class.std::__1::basic_string"* %4, i64 0, i32 0, i32 0, i32 0, i32 0, i32 0, i32 0
  store i8* %16, i8** %17, align 8
  %18 = or i64 %15, -9223372036854775808
  %19 = getelementptr inbounds %"class.std::__1::basic_string", %"class.std::__1::basic_string"* %4, i64 0, i32 0, i32 0, i32 0, i32 0, i32 0, i32 2
  store i64 %18, i64* %19, align 8
  %20 = getelementptr inbounds %"class.std::__1::basic_string", %"class.std::__1::basic_string"* %4, i64 0, i32 0, i32 0, i32 0, i32 0, i32 0, i32 1
  store i64 %7, i64* %20, align 8
  %21 = bitcast %"class.std::__1::basic_string"* %4 to %"struct.std::__1::basic_string<char, std::__1::char_traits<char>, std::__1::allocator<char> >::__short"*
  br label %27

22:                                               ; preds = %11
  %23 = trunc i64 %7 to i8
  %24 = bitcast %"class.std::__1::basic_string"* %4 to %"struct.std::__1::basic_string<char, std::__1::char_traits<char>, std::__1::allocator<char> >::__short"*
  %25 = getelementptr inbounds %"struct.std::__1::basic_string<char, std::__1::char_traits<char>, std::__1::allocator<char> >::__short", %"struct.std::__1::basic_string<char, std::__1::char_traits<char>, std::__1::allocator<char> >::__short"* %24, i64 0, i32 1, i32 0
  store i8 %23, i8* %25, align 1
  %26 = icmp eq i64 %7, 0
  br i1 %26, label %30, label %27

27:                                               ; preds = %22, %13
  %28 = phi %"struct.std::__1::basic_string<char, std::__1::char_traits<char>, std::__1::allocator<char> >::__short"* [ %24, %22 ], [ %21, %13 ]
  %29 = phi i8* [ %6, %22 ], [ %16, %13 ]
  call void @llvm.memcpy.p0i8.p0i8.i64(i8* nonnull align 1 %29, i8* align 1 getelementptr inbounds ([0 x i8], [0 x i8]* @_ZN6chrome5mojom19NetErrorPageSupport5Name_E, i64 0, i64 0), i64 %7, i1 false) #10
  br label %30

30:                                               ; preds = %22, %27
  %31 = phi %"struct.std::__1::basic_string<char, std::__1::char_traits<char>, std::__1::allocator<char> >::__short"* [ %24, %22 ], [ %28, %27 ]
  %32 = phi i8* [ %6, %22 ], [ %29, %27 ]
  %33 = getelementptr inbounds i8, i8* %32, i64 %7
  store i8 0, i8* %33, align 1
  call void @_ZN7content22WebContentsReceiverSetC2EPNS_11WebContentsERKNSt3__112basic_stringIcNS3_11char_traitsIcEENS3_9allocatorIcEEEE(%"class.content::WebContentsReceiverSet"* %5, %"class.content::WebContents"* %1, %"class.std::__1::basic_string"* nonnull dereferenceable(24) %4) #10
  %34 = getelementptr inbounds %"struct.std::__1::basic_string<char, std::__1::char_traits<char>, std::__1::allocator<char> >::__short", %"struct.std::__1::basic_string<char, std::__1::char_traits<char>, std::__1::allocator<char> >::__short"* %31, i64 0, i32 1, i32 0
  %35 = load i8, i8* %34, align 1
  %36 = icmp slt i8 %35, 0
  br i1 %36, label %37, label %40

37:                                               ; preds = %30
  %38 = getelementptr inbounds %"class.std::__1::basic_string", %"class.std::__1::basic_string"* %4, i64 0, i32 0, i32 0, i32 0, i32 0, i32 0, i32 0
  %39 = load i8*, i8** %38, align 8
  call void @_ZdlPv(i8* %39) #11
  br label %40

40:                                               ; preds = %30, %37
  call void @llvm.lifetime.end.p0i8(i64 24, i8* nonnull %6) #10
  %41 = getelementptr inbounds %"class.content::WebContentsFrameReceiverSet.37", %"class.content::WebContentsFrameReceiverSet.37"* %0, i64 0, i32 1
  %42 = getelementptr inbounds %"class.content::WebContentsFrameReceiverSet<chrome::mojom::NetErrorPageSupport>::FrameInterfaceBinder", %"class.content::WebContentsFrameReceiverSet<chrome::mojom::NetErrorPageSupport>::FrameInterfaceBinder"* %41, i64 0, i32 0, i32 0
  store i32 (...)** bitcast (i8** getelementptr inbounds ({ [6 x i8*] }, { [6 x i8*] }* @_ZTVN7content22WebContentsReceiverSet6BinderE, i64 0, inrange i32 0, i64 2) to i32 (...)**), i32 (...)*** %42, align 8
  %43 = getelementptr inbounds %"class.content::WebContentsFrameReceiverSet.37", %"class.content::WebContentsFrameReceiverSet.37"* %0, i64 0, i32 1, i32 1
  call void @_ZN7content19WebContentsObserverC2EPNS_11WebContentsE(%"class.content::WebContentsObserver"* %43, %"class.content::WebContents"* %1) #10
  %44 = bitcast %"class.content::WebContentsFrameReceiverSet<chrome::mojom::NetErrorPageSupport>::FrameInterfaceBinder"* %41 to <2 x i32 (...)**>*
  store <2 x i32 (...)**> <i32 (...)** bitcast (i8** getelementptr inbounds ({ [7 x i8*], [109 x i8*] }, { [7 x i8*], [109 x i8*] }* @_ZTVN7content27WebContentsFrameReceiverSetIN6chrome5mojom19NetErrorPageSupportEE20FrameInterfaceBinderE, i64 0, inrange i32 0, i64 2) to i32 (...)**), i32 (...)** bitcast (i8** getelementptr inbounds ({ [7 x i8*], [109 x i8*] }, { [7 x i8*], [109 x i8*] }* @_ZTVN7content27WebContentsFrameReceiverSetIN6chrome5mojom19NetErrorPageSupportEE20FrameInterfaceBinderE, i64 0, inrange i32 1, i64 2) to i32 (...)**)>, <2 x i32 (...)**>* %44, align 8
  %45 = getelementptr inbounds %"class.content::WebContentsFrameReceiverSet.37", %"class.content::WebContentsFrameReceiverSet.37"* %0, i64 0, i32 1, i32 2
  store %"class.chrome::mojom::NetErrorPageSupport"* %2, %"class.chrome::mojom::NetErrorPageSupport"** %45, align 8
  %46 = getelementptr inbounds %"class.content::WebContentsFrameReceiverSet.37", %"class.content::WebContentsFrameReceiverSet.37"* %0, i64 0, i32 1, i32 3, i32 0
  call void @_ZN4mojo16ReceiverSetStateC1Ev(%"class.mojo::ReceiverSetState"* %46) #10
  %47 = getelementptr inbounds %"class.content::WebContentsFrameReceiverSet.37", %"class.content::WebContentsFrameReceiverSet.37"* %0, i64 0, i32 1, i32 4, i32 0, i32 1, i32 0, i32 0, i32 0
  %48 = getelementptr inbounds %"class.content::WebContentsFrameReceiverSet.37", %"class.content::WebContentsFrameReceiverSet.37"* %0, i64 0, i32 1, i32 4, i32 0, i32 1, i32 0, i32 0
  %49 = getelementptr inbounds %"class.content::WebContentsFrameReceiverSet.37", %"class.content::WebContentsFrameReceiverSet.37"* %0, i64 0, i32 1, i32 4, i32 0, i32 0
  %50 = bitcast %"class.std::__1::__tree_node_base"** %47 to i8*
  call void @llvm.memset.p0i8.i64(i8* align 8 %50, i8 0, i64 16, i1 false) #10
  store %"class.std::__1::__tree_end_node"* %48, %"class.std::__1::__tree_end_node"** %49, align 8
  %51 = getelementptr inbounds %"class.content::WebContentsFrameReceiverSet.37", %"class.content::WebContentsFrameReceiverSet.37"* %0, i64 0, i32 2
  store %"class.content::RenderFrameHost"* null, %"class.content::RenderFrameHost"** %51, align 8
  %52 = getelementptr inbounds %"class.content::WebContentsFrameReceiverSet<chrome::mojom::NetErrorPageSupport>::FrameInterfaceBinder", %"class.content::WebContentsFrameReceiverSet<chrome::mojom::NetErrorPageSupport>::FrameInterfaceBinder"* %41, i64 0, i32 0
  %53 = getelementptr inbounds %"class.content::WebContentsFrameReceiverSet.37", %"class.content::WebContentsFrameReceiverSet.37"* %0, i64 0, i32 0, i32 1
  store %"class.content::WebContentsReceiverSet::Binder"* %52, %"class.content::WebContentsReceiverSet::Binder"** %53, align 8
  ret void
}

; Function Attrs: nounwind ssp uwtable
define hidden void @_ZN18chrome_browser_net17NetErrorTabHelper14InitializePrefEPN7content11WebContentsE(%"class.chrome_browser_net::NetErrorTabHelper"*, %"class.content::WebContents"*) local_unnamed_addr #0 align 2 {
  %3 = alloca %"class.std::__1::basic_string", align 8
  %4 = alloca %"class.std::__1::basic_string", align 8
  %5 = bitcast %"class.content::WebContents"* %1 to %"class.content::BrowserContext"* (%"class.content::WebContents"*)***
  %6 = load %"class.content::BrowserContext"* (%"class.content::WebContents"*)**, %"class.content::BrowserContext"* (%"class.content::WebContents"*)*** %5, align 8
  %7 = getelementptr inbounds %"class.content::BrowserContext"* (%"class.content::WebContents"*)*, %"class.content::BrowserContext"* (%"class.content::WebContents"*)** %6, i64 6
  %8 = load %"class.content::BrowserContext"* (%"class.content::WebContents"*)*, %"class.content::BrowserContext"* (%"class.content::WebContents"*)** %7, align 8
  %9 = tail call %"class.content::BrowserContext"* %8(%"class.content::WebContents"* %1) #10
  %10 = tail call %class.Profile* @_ZN7Profile18FromBrowserContextEPN7content14BrowserContextE(%"class.content::BrowserContext"* %9) #10
  %11 = getelementptr inbounds %"class.chrome_browser_net::NetErrorTabHelper", %"class.chrome_browser_net::NetErrorTabHelper"* %0, i64 0, i32 13
  %12 = bitcast %"class.std::__1::basic_string"* %3 to i8*
  call void @llvm.lifetime.start.p0i8(i64 24, i8* nonnull %12) #10
  %13 = tail call i64 @strlen(i8* getelementptr inbounds ([0 x i8], [0 x i8]* @_ZN16embedder_support27kAlternateErrorPagesEnabledE, i64 0, i64 0)) #10
  %14 = icmp ugt i64 %13, -17
  br i1 %14, label %15, label %17

15:                                               ; preds = %2
  %16 = bitcast %"class.std::__1::basic_string"* %3 to %"class.std::__1::__basic_string_common"*
  call void @_ZNKSt3__121__basic_string_commonILb1EE20__throw_length_errorEv(%"class.std::__1::__basic_string_common"* nonnull %16) #12
  unreachable

17:                                               ; preds = %2
  %18 = icmp ult i64 %13, 23
  br i1 %18, label %28, label %19

19:                                               ; preds = %17
  %20 = add nuw i64 %13, 16
  %21 = and i64 %20, -16
  %22 = tail call i8* @_Znwm(i64 %21) #11
  %23 = getelementptr inbounds %"class.std::__1::basic_string", %"class.std::__1::basic_string"* %3, i64 0, i32 0, i32 0, i32 0, i32 0, i32 0, i32 0
  store i8* %22, i8** %23, align 8
  %24 = or i64 %21, -9223372036854775808
  %25 = getelementptr inbounds %"class.std::__1::basic_string", %"class.std::__1::basic_string"* %3, i64 0, i32 0, i32 0, i32 0, i32 0, i32 0, i32 2
  store i64 %24, i64* %25, align 8
  %26 = getelementptr inbounds %"class.std::__1::basic_string", %"class.std::__1::basic_string"* %3, i64 0, i32 0, i32 0, i32 0, i32 0, i32 0, i32 1
  store i64 %13, i64* %26, align 8
  %27 = bitcast %"class.std::__1::basic_string"* %3 to %"struct.std::__1::basic_string<char, std::__1::char_traits<char>, std::__1::allocator<char> >::__short"*
  br label %33

28:                                               ; preds = %17
  %29 = trunc i64 %13 to i8
  %30 = bitcast %"class.std::__1::basic_string"* %3 to %"struct.std::__1::basic_string<char, std::__1::char_traits<char>, std::__1::allocator<char> >::__short"*
  %31 = getelementptr inbounds %"struct.std::__1::basic_string<char, std::__1::char_traits<char>, std::__1::allocator<char> >::__short", %"struct.std::__1::basic_string<char, std::__1::char_traits<char>, std::__1::allocator<char> >::__short"* %30, i64 0, i32 1, i32 0
  store i8 %29, i8* %31, align 1
  %32 = icmp eq i64 %13, 0
  br i1 %32, label %36, label %33

33:                                               ; preds = %28, %19
  %34 = phi %"struct.std::__1::basic_string<char, std::__1::char_traits<char>, std::__1::allocator<char> >::__short"* [ %30, %28 ], [ %27, %19 ]
  %35 = phi i8* [ %12, %28 ], [ %22, %19 ]
  call void @llvm.memcpy.p0i8.p0i8.i64(i8* nonnull align 1 %35, i8* align 1 getelementptr inbounds ([0 x i8], [0 x i8]* @_ZN16embedder_support27kAlternateErrorPagesEnabledE, i64 0, i64 0), i64 %13, i1 false) #10
  br label %36

36:                                               ; preds = %28, %33
  %37 = phi %"struct.std::__1::basic_string<char, std::__1::char_traits<char>, std::__1::allocator<char> >::__short"* [ %30, %28 ], [ %34, %33 ]
  %38 = phi i8* [ %12, %28 ], [ %35, %33 ]
  %39 = getelementptr inbounds i8, i8* %38, i64 %13
  store i8 0, i8* %39, align 1
  %40 = bitcast %class.Profile* %10 to %class.PrefService* (%class.Profile*)***
  %41 = load %class.PrefService* (%class.Profile*)**, %class.PrefService* (%class.Profile*)*** %40, align 8
  %42 = getelementptr inbounds %class.PrefService* (%class.Profile*)*, %class.PrefService* (%class.Profile*)** %41, i64 46
  %43 = load %class.PrefService* (%class.Profile*)*, %class.PrefService* (%class.Profile*)** %42, align 8
  %44 = tail call %class.PrefService* %43(%class.Profile* %10) #10
  %45 = bitcast %class.PrefMember* %11 to %"class.subtle::PrefMemberBase"*
  call void @_ZN6subtle14PrefMemberBase4InitERKNSt3__112basic_stringIcNS1_11char_traitsIcEENS1_9allocatorIcEEEEP11PrefService(%"class.subtle::PrefMemberBase"* %45, %"class.std::__1::basic_string"* nonnull dereferenceable(24) %3, %class.PrefService* %44) #10
  %46 = getelementptr inbounds %"struct.std::__1::basic_string<char, std::__1::char_traits<char>, std::__1::allocator<char> >::__short", %"struct.std::__1::basic_string<char, std::__1::char_traits<char>, std::__1::allocator<char> >::__short"* %37, i64 0, i32 1, i32 0
  %47 = load i8, i8* %46, align 1
  %48 = icmp slt i8 %47, 0
  br i1 %48, label %49, label %52

49:                                               ; preds = %36
  %50 = getelementptr inbounds %"class.std::__1::basic_string", %"class.std::__1::basic_string"* %3, i64 0, i32 0, i32 0, i32 0, i32 0, i32 0, i32 0
  %51 = load i8*, i8** %50, align 8
  call void @_ZdlPv(i8* %51) #11
  br label %52

52:                                               ; preds = %36, %49
  call void @llvm.lifetime.end.p0i8(i64 24, i8* nonnull %12) #10
  %53 = getelementptr inbounds %"class.chrome_browser_net::NetErrorTabHelper", %"class.chrome_browser_net::NetErrorTabHelper"* %0, i64 0, i32 14
  %54 = bitcast %"class.std::__1::basic_string"* %4 to i8*
  call void @llvm.lifetime.start.p0i8(i64 24, i8* nonnull %54) #10
  %55 = call i64 @strlen(i8* getelementptr inbounds ([0 x i8], [0 x i8]* @_ZN5prefs26kNetworkEasterEggHighScoreE, i64 0, i64 0)) #10
  %56 = icmp ugt i64 %55, -17
  br i1 %56, label %57, label %59

57:                                               ; preds = %52
  %58 = bitcast %"class.std::__1::basic_string"* %4 to %"class.std::__1::__basic_string_common"*
  call void @_ZNKSt3__121__basic_string_commonILb1EE20__throw_length_errorEv(%"class.std::__1::__basic_string_common"* nonnull %58) #12
  unreachable

59:                                               ; preds = %52
  %60 = icmp ult i64 %55, 23
  br i1 %60, label %70, label %61

61:                                               ; preds = %59
  %62 = add nuw i64 %55, 16
  %63 = and i64 %62, -16
  %64 = call i8* @_Znwm(i64 %63) #11
  %65 = getelementptr inbounds %"class.std::__1::basic_string", %"class.std::__1::basic_string"* %4, i64 0, i32 0, i32 0, i32 0, i32 0, i32 0, i32 0
  store i8* %64, i8** %65, align 8
  %66 = or i64 %63, -9223372036854775808
  %67 = getelementptr inbounds %"class.std::__1::basic_string", %"class.std::__1::basic_string"* %4, i64 0, i32 0, i32 0, i32 0, i32 0, i32 0, i32 2
  store i64 %66, i64* %67, align 8
  %68 = getelementptr inbounds %"class.std::__1::basic_string", %"class.std::__1::basic_string"* %4, i64 0, i32 0, i32 0, i32 0, i32 0, i32 0, i32 1
  store i64 %55, i64* %68, align 8
  %69 = bitcast %"class.std::__1::basic_string"* %4 to %"struct.std::__1::basic_string<char, std::__1::char_traits<char>, std::__1::allocator<char> >::__short"*
  br label %75

70:                                               ; preds = %59
  %71 = trunc i64 %55 to i8
  %72 = bitcast %"class.std::__1::basic_string"* %4 to %"struct.std::__1::basic_string<char, std::__1::char_traits<char>, std::__1::allocator<char> >::__short"*
  %73 = getelementptr inbounds %"struct.std::__1::basic_string<char, std::__1::char_traits<char>, std::__1::allocator<char> >::__short", %"struct.std::__1::basic_string<char, std::__1::char_traits<char>, std::__1::allocator<char> >::__short"* %72, i64 0, i32 1, i32 0
  store i8 %71, i8* %73, align 1
  %74 = icmp eq i64 %55, 0
  br i1 %74, label %78, label %75

75:                                               ; preds = %70, %61
  %76 = phi %"struct.std::__1::basic_string<char, std::__1::char_traits<char>, std::__1::allocator<char> >::__short"* [ %72, %70 ], [ %69, %61 ]
  %77 = phi i8* [ %54, %70 ], [ %64, %61 ]
  call void @llvm.memcpy.p0i8.p0i8.i64(i8* nonnull align 1 %77, i8* align 1 getelementptr inbounds ([0 x i8], [0 x i8]* @_ZN5prefs26kNetworkEasterEggHighScoreE, i64 0, i64 0), i64 %55, i1 false) #10
  br label %78

78:                                               ; preds = %70, %75
  %79 = phi %"struct.std::__1::basic_string<char, std::__1::char_traits<char>, std::__1::allocator<char> >::__short"* [ %72, %70 ], [ %76, %75 ]
  %80 = phi i8* [ %54, %70 ], [ %77, %75 ]
  %81 = getelementptr inbounds i8, i8* %80, i64 %55
  store i8 0, i8* %81, align 1
  %82 = load %class.PrefService* (%class.Profile*)**, %class.PrefService* (%class.Profile*)*** %40, align 8
  %83 = getelementptr inbounds %class.PrefService* (%class.Profile*)*, %class.PrefService* (%class.Profile*)** %82, i64 46
  %84 = load %class.PrefService* (%class.Profile*)*, %class.PrefService* (%class.Profile*)** %83, align 8
  %85 = call %class.PrefService* %84(%class.Profile* %10) #10
  %86 = bitcast %class.PrefMember.131* %53 to %"class.subtle::PrefMemberBase"*
  call void @_ZN6subtle14PrefMemberBase4InitERKNSt3__112basic_stringIcNS1_11char_traitsIcEENS1_9allocatorIcEEEEP11PrefService(%"class.subtle::PrefMemberBase"* %86, %"class.std::__1::basic_string"* nonnull dereferenceable(24) %4, %class.PrefService* %85) #10
  %87 = getelementptr inbounds %"struct.std::__1::basic_string<char, std::__1::char_traits<char>, std::__1::allocator<char> >::__short", %"struct.std::__1::basic_string<char, std::__1::char_traits<char>, std::__1::allocator<char> >::__short"* %79, i64 0, i32 1, i32 0
  %88 = load i8, i8* %87, align 1
  %89 = icmp slt i8 %88, 0
  br i1 %89, label %90, label %93

90:                                               ; preds = %78
  %91 = getelementptr inbounds %"class.std::__1::basic_string", %"class.std::__1::basic_string"* %4, i64 0, i32 0, i32 0, i32 0, i32 0, i32 0, i32 0
  %92 = load i8*, i8** %91, align 8
  call void @_ZdlPv(i8* %92) #11
  br label %93

93:                                               ; preds = %78, %90
  call void @llvm.lifetime.end.p0i8(i64 24, i8* nonnull %54) #10
  ret void
}

; Function Attrs: nounwind ssp uwtable
define hidden zeroext i1 @_ZNK18chrome_browser_net17NetErrorTabHelper13ProbesAllowedEv(%"class.chrome_browser_net::NetErrorTabHelper"*) local_unnamed_addr #0 align 2 {
  %2 = load i32, i32* @_ZN18chrome_browser_net12_GLOBAL__N_114testing_state_E, align 4
  %3 = icmp eq i32 %2, 0
  br i1 %3, label %6, label %4

4:                                                ; preds = %1
  %5 = icmp eq i32 %2, 2
  br label %14

6:                                                ; preds = %1
  %7 = getelementptr inbounds %"class.chrome_browser_net::NetErrorTabHelper", %"class.chrome_browser_net::NetErrorTabHelper"* %0, i64 0, i32 13
  %8 = bitcast %class.PrefMember* %7 to %"class.subtle::PrefMemberBase"*
  tail call void @_ZNK6subtle14PrefMemberBase10VerifyPrefEv(%"class.subtle::PrefMemberBase"* %8) #10
  %9 = getelementptr inbounds %"class.chrome_browser_net::NetErrorTabHelper", %"class.chrome_browser_net::NetErrorTabHelper"* %0, i64 0, i32 13, i32 1, i32 0
  %10 = load %"class.PrefMember<bool>::Internal"*, %"class.PrefMember<bool>::Internal"** %9, align 8
  %11 = getelementptr inbounds %"class.PrefMember<bool>::Internal", %"class.PrefMember<bool>::Internal"* %10, i64 0, i32 1
  %12 = load i8, i8* %11, align 1, !range !2
  %13 = icmp ne i8 %12, 0
  br label %14

14:                                               ; preds = %6, %4
  %15 = phi i1 [ %5, %4 ], [ %13, %6 ]
  ret i1 %15
}

; Function Attrs: nounwind ssp uwtable
define hidden void @_ZN18chrome_browser_net17NetErrorTabHelper13StartDnsProbeEv(%"class.chrome_browser_net::NetErrorTabHelper"*) unnamed_addr #0 align 2 {
  %2 = alloca %"class.base::internal::WeakReference", align 8
  %3 = alloca %"class.base::OnceCallback.229", align 8
  %4 = alloca %"class.base::WeakPtr", align 8
  %5 = getelementptr inbounds %"class.chrome_browser_net::NetErrorTabHelper", %"class.chrome_browser_net::NetErrorTabHelper"* %0, i64 0, i32 0
  %6 = tail call %"class.content::WebContents"* @_ZNK7content19WebContentsObserver12web_contentsEv(%"class.content::WebContentsObserver"* %5) #10
  %7 = bitcast %"class.content::WebContents"* %6 to %"class.content::BrowserContext"* (%"class.content::WebContents"*)***
  %8 = load %"class.content::BrowserContext"* (%"class.content::WebContents"*)**, %"class.content::BrowserContext"* (%"class.content::WebContents"*)*** %7, align 8
  %9 = getelementptr inbounds %"class.content::BrowserContext"* (%"class.content::WebContents"*)*, %"class.content::BrowserContext"* (%"class.content::WebContents"*)** %8, i64 6
  %10 = load %"class.content::BrowserContext"* (%"class.content::WebContents"*)*, %"class.content::BrowserContext"* (%"class.content::WebContents"*)** %9, align 8
  %11 = tail call %"class.content::BrowserContext"* %10(%"class.content::WebContents"* %6) #10
  %12 = tail call %"class.chrome_browser_net::DnsProbeService"* @_ZN18chrome_browser_net22DnsProbeServiceFactory13GetForContextEPN7content14BrowserContextE(%"class.content::BrowserContext"* %11) #10
  %13 = bitcast %"class.base::WeakPtr"* %4 to i8*
  call void @llvm.lifetime.start.p0i8(i64 16, i8* nonnull %13) #10
  %14 = bitcast %"class.base::internal::WeakReference"* %2 to i8*
  call void @llvm.lifetime.start.p0i8(i64 8, i8* nonnull %14) #10, !noalias !3
  %15 = getelementptr inbounds %"class.chrome_browser_net::NetErrorTabHelper", %"class.chrome_browser_net::NetErrorTabHelper"* %0, i64 0, i32 15, i32 0, i32 0
  call void @_ZNK4base8internal18WeakReferenceOwner6GetRefEv(%"class.base::internal::WeakReference"* nonnull sret %2, %"class.base::internal::WeakReferenceOwner"* %15) #10, !noalias !3
  %16 = getelementptr inbounds %"class.chrome_browser_net::NetErrorTabHelper", %"class.chrome_browser_net::NetErrorTabHelper"* %0, i64 0, i32 15, i32 0, i32 1
  %17 = load i64, i64* %16, align 8, !noalias !3
  %18 = getelementptr inbounds %"class.base::WeakPtr", %"class.base::WeakPtr"* %4, i64 0, i32 0
  call void @_ZN4base8internal11WeakPtrBaseC2ERKNS0_13WeakReferenceEm(%"class.base::internal::WeakPtrBase"* nonnull %18, %"class.base::internal::WeakReference"* nonnull dereferenceable(8) %2, i64 %17) #10
  call void @_ZN4base8internal13WeakReferenceD1Ev(%"class.base::internal::WeakReference"* nonnull %2) #10
  call void @llvm.lifetime.end.p0i8(i64 8, i8* nonnull %14) #10, !noalias !3
  %19 = call i8* @_Znwm(i64 64) #11, !noalias !6
  %20 = bitcast i8* %19 to %"class.base::internal::BindStateBase"*
  call void @_ZN4base8internal13BindStateBaseC2EPFvvEPFvPKS1_EPFbS5_NS1_21CancellationQueryModeEE(%"class.base::internal::BindStateBase"* nonnull %20, void ()* bitcast (void (%"class.base::internal::BindStateBase"*, i32)* @_ZN4base8internal7InvokerINS0_9BindStateIMN18chrome_browser_net17NetErrorTabHelperEFvN10error_page14DnsProbeStatusEEJNS_7WeakPtrIS4_EEEEEFvS6_EE7RunOnceEPNS0_13BindStateBaseES6_ to void ()*), void (%"class.base::internal::BindStateBase"*)* nonnull @_ZN4base8internal9BindStateIMN18chrome_browser_net17NetErrorTabHelperEFvN10error_page14DnsProbeStatusEEJNS_7WeakPtrIS3_EEEE7DestroyEPKNS0_13BindStateBaseE, i1 (%"class.base::internal::BindStateBase"*, i32)* nonnull @_ZN4base8internal23QueryCancellationTraitsINS0_9BindStateIMN18chrome_browser_net17NetErrorTabHelperEFvN10error_page14DnsProbeStatusEEJNS_7WeakPtrIS4_EEEEEEEbPKNS0_13BindStateBaseENSC_21CancellationQueryModeE) #10, !noalias !6
  %21 = getelementptr inbounds i8, i8* %19, i64 32
  %22 = bitcast i8* %21 to <2 x i64>*
  store <2 x i64> <i64 ptrtoint (void (%"class.chrome_browser_net::NetErrorTabHelper"*, i32)* @_ZN18chrome_browser_net17NetErrorTabHelper18OnDnsProbeFinishedEN10error_page14DnsProbeStatusE to i64), i64 0>, <2 x i64>* %22, align 8, !noalias !6
  %23 = getelementptr inbounds i8, i8* %19, i64 48
  %24 = bitcast i8* %23 to %"class.base::internal::WeakReference"*
  %25 = getelementptr inbounds %"class.base::WeakPtr", %"class.base::WeakPtr"* %4, i64 0, i32 0, i32 0
  call void @_ZN4base8internal13WeakReferenceC1EOS1_(%"class.base::internal::WeakReference"* %24, %"class.base::internal::WeakReference"* nonnull dereferenceable(8) %25) #10, !noalias !6
  %26 = getelementptr inbounds i8, i8* %19, i64 56
  %27 = bitcast i8* %26 to i64*
  %28 = getelementptr inbounds %"class.base::WeakPtr", %"class.base::WeakPtr"* %4, i64 0, i32 0, i32 1
  %29 = load i64, i64* %28, align 8, !noalias !6
  store i64 %29, i64* %27, align 8, !noalias !6
  %30 = bitcast %"class.base::OnceCallback.229"* %3 to i8**
  store i8* %19, i8** %30, align 8, !alias.scope !6
  %31 = bitcast %"class.chrome_browser_net::DnsProbeService"* %12 to void (%"class.chrome_browser_net::DnsProbeService"*, %"class.base::OnceCallback.229"*)***
  %32 = load void (%"class.chrome_browser_net::DnsProbeService"*, %"class.base::OnceCallback.229"*)**, void (%"class.chrome_browser_net::DnsProbeService"*, %"class.base::OnceCallback.229"*)*** %31, align 8
  %33 = getelementptr inbounds void (%"class.chrome_browser_net::DnsProbeService"*, %"class.base::OnceCallback.229"*)*, void (%"class.chrome_browser_net::DnsProbeService"*, %"class.base::OnceCallback.229"*)** %32, i64 3
  %34 = load void (%"class.chrome_browser_net::DnsProbeService"*, %"class.base::OnceCallback.229"*)*, void (%"class.chrome_browser_net::DnsProbeService"*, %"class.base::OnceCallback.229"*)** %33, align 8
  call void %34(%"class.chrome_browser_net::DnsProbeService"* %12, %"class.base::OnceCallback.229"* nonnull %3) #10
  %35 = getelementptr inbounds %"class.base::OnceCallback.229", %"class.base::OnceCallback.229"* %3, i64 0, i32 0
  call void @_ZN4base8internal12CallbackBaseD2Ev(%"class.base::internal::CallbackBase"* nonnull %35) #10
  call void @_ZN4base8internal11WeakPtrBaseD2Ev(%"class.base::internal::WeakPtrBase"* nonnull %18) #10
  call void @llvm.lifetime.end.p0i8(i64 16, i8* nonnull %13) #10
  ret void
}

declare %"class.chrome_browser_net::DnsProbeService"* @_ZN18chrome_browser_net22DnsProbeServiceFactory13GetForContextEPN7content14BrowserContextE(%"class.content::BrowserContext"*) local_unnamed_addr #5

; Function Attrs: nounwind ssp uwtable
define hidden void @_ZN18chrome_browser_net17NetErrorTabHelper18OnDnsProbeFinishedEN10error_page14DnsProbeStatusE(%"class.chrome_browser_net::NetErrorTabHelper"*, i32) #0 align 2 {
  %3 = getelementptr inbounds %"class.chrome_browser_net::NetErrorTabHelper", %"class.chrome_browser_net::NetErrorTabHelper"* %0, i64 0, i32 11
  store i32 %1, i32* %3, align 4
  %4 = getelementptr inbounds %"class.chrome_browser_net::NetErrorTabHelper", %"class.chrome_browser_net::NetErrorTabHelper"* %0, i64 0, i32 10
  %5 = load i8, i8* %4, align 2, !range !2
  %6 = icmp eq i8 %5, 0
  br i1 %6, label %12, label %7

7:                                                ; preds = %2
  %8 = bitcast %"class.chrome_browser_net::NetErrorTabHelper"* %0 to void (%"class.chrome_browser_net::NetErrorTabHelper"*)***
  %9 = load void (%"class.chrome_browser_net::NetErrorTabHelper"*)**, void (%"class.chrome_browser_net::NetErrorTabHelper"*)*** %8, align 8
  %10 = getelementptr inbounds void (%"class.chrome_browser_net::NetErrorTabHelper"*)*, void (%"class.chrome_browser_net::NetErrorTabHelper"*)** %9, i64 108
  %11 = load void (%"class.chrome_browser_net::NetErrorTabHelper"*)*, void (%"class.chrome_browser_net::NetErrorTabHelper"*)** %10, align 8
  tail call void %11(%"class.chrome_browser_net::NetErrorTabHelper"* %0) #10
  br label %12

12:                                               ; preds = %2, %7
  ret void
}

; Function Attrs: nounwind
declare void @_ZN4base8internal11WeakPtrBaseD2Ev(%"class.base::internal::WeakPtrBase"*) unnamed_addr #1

; Function Attrs: nounwind ssp uwtable
define hidden void @_ZN18chrome_browser_net17NetErrorTabHelper20RegisterProfilePrefsEPN10user_prefs20PrefRegistrySyncableE(%"class.user_prefs::PrefRegistrySyncable"*) local_unnamed_addr #0 align 2 {
  %2 = alloca %"class.std::__1::basic_string", align 8
  %3 = getelementptr inbounds %"class.user_prefs::PrefRegistrySyncable", %"class.user_prefs::PrefRegistrySyncable"* %0, i64 0, i32 0
  %4 = bitcast %"class.std::__1::basic_string"* %2 to i8*
  call void @llvm.lifetime.start.p0i8(i64 24, i8* nonnull %4) #10
  %5 = tail call i64 @strlen(i8* getelementptr inbounds ([0 x i8], [0 x i8]* @_ZN5prefs26kNetworkEasterEggHighScoreE, i64 0, i64 0)) #10
  %6 = icmp ugt i64 %5, -17
  br i1 %6, label %7, label %9

7:                                                ; preds = %1
  %8 = bitcast %"class.std::__1::basic_string"* %2 to %"class.std::__1::__basic_string_common"*
  call void @_ZNKSt3__121__basic_string_commonILb1EE20__throw_length_errorEv(%"class.std::__1::__basic_string_common"* nonnull %8) #12
  unreachable

9:                                                ; preds = %1
  %10 = icmp ult i64 %5, 23
  br i1 %10, label %20, label %11

11:                                               ; preds = %9
  %12 = add nuw i64 %5, 16
  %13 = and i64 %12, -16
  %14 = tail call i8* @_Znwm(i64 %13) #11
  %15 = getelementptr inbounds %"class.std::__1::basic_string", %"class.std::__1::basic_string"* %2, i64 0, i32 0, i32 0, i32 0, i32 0, i32 0, i32 0
  store i8* %14, i8** %15, align 8
  %16 = or i64 %13, -9223372036854775808
  %17 = getelementptr inbounds %"class.std::__1::basic_string", %"class.std::__1::basic_string"* %2, i64 0, i32 0, i32 0, i32 0, i32 0, i32 0, i32 2
  store i64 %16, i64* %17, align 8
  %18 = getelementptr inbounds %"class.std::__1::basic_string", %"class.std::__1::basic_string"* %2, i64 0, i32 0, i32 0, i32 0, i32 0, i32 0, i32 1
  store i64 %5, i64* %18, align 8
  %19 = bitcast %"class.std::__1::basic_string"* %2 to %"struct.std::__1::basic_string<char, std::__1::char_traits<char>, std::__1::allocator<char> >::__short"*
  br label %25

20:                                               ; preds = %9
  %21 = trunc i64 %5 to i8
  %22 = bitcast %"class.std::__1::basic_string"* %2 to %"struct.std::__1::basic_string<char, std::__1::char_traits<char>, std::__1::allocator<char> >::__short"*
  %23 = getelementptr inbounds %"struct.std::__1::basic_string<char, std::__1::char_traits<char>, std::__1::allocator<char> >::__short", %"struct.std::__1::basic_string<char, std::__1::char_traits<char>, std::__1::allocator<char> >::__short"* %22, i64 0, i32 1, i32 0
  store i8 %21, i8* %23, align 1
  %24 = icmp eq i64 %5, 0
  br i1 %24, label %28, label %25

25:                                               ; preds = %20, %11
  %26 = phi %"struct.std::__1::basic_string<char, std::__1::char_traits<char>, std::__1::allocator<char> >::__short"* [ %22, %20 ], [ %19, %11 ]
  %27 = phi i8* [ %4, %20 ], [ %14, %11 ]
  call void @llvm.memcpy.p0i8.p0i8.i64(i8* nonnull align 1 %27, i8* align 1 getelementptr inbounds ([0 x i8], [0 x i8]* @_ZN5prefs26kNetworkEasterEggHighScoreE, i64 0, i64 0), i64 %5, i1 false) #10
  br label %28

28:                                               ; preds = %20, %25
  %29 = phi %"struct.std::__1::basic_string<char, std::__1::char_traits<char>, std::__1::allocator<char> >::__short"* [ %22, %20 ], [ %26, %25 ]
  %30 = phi i8* [ %4, %20 ], [ %27, %25 ]
  %31 = getelementptr inbounds i8, i8* %30, i64 %5
  store i8 0, i8* %31, align 1
  call void @_ZN18PrefRegistrySimple19RegisterIntegerPrefERKNSt3__112basic_stringIcNS0_11char_traitsIcEENS0_9allocatorIcEEEEij(%class.PrefRegistrySimple* %3, %"class.std::__1::basic_string"* nonnull dereferenceable(24) %2, i32 0, i32 1) #10
  %32 = getelementptr inbounds %"struct.std::__1::basic_string<char, std::__1::char_traits<char>, std::__1::allocator<char> >::__short", %"struct.std::__1::basic_string<char, std::__1::char_traits<char>, std::__1::allocator<char> >::__short"* %29, i64 0, i32 1, i32 0
  %33 = load i8, i8* %32, align 1
  %34 = icmp slt i8 %33, 0
  br i1 %34, label %35, label %38

35:                                               ; preds = %28
  %36 = getelementptr inbounds %"class.std::__1::basic_string", %"class.std::__1::basic_string"* %2, i64 0, i32 0, i32 0, i32 0, i32 0, i32 0, i32 0
  %37 = load i8*, i8** %36, align 8
  call void @_ZdlPv(i8* %37) #11
  br label %38

38:                                               ; preds = %28, %35
  call void @llvm.lifetime.end.p0i8(i64 24, i8* nonnull %4) #10
  ret void
}

declare void @_ZN18PrefRegistrySimple19RegisterIntegerPrefERKNSt3__112basic_stringIcNS0_11char_traitsIcEENS0_9allocatorIcEEEEij(%class.PrefRegistrySimple*, %"class.std::__1::basic_string"* dereferenceable(24), i32, i32) local_unnamed_addr #5

declare %class.Profile* @_ZN7Profile18FromBrowserContextEPN7content14BrowserContextE(%"class.content::BrowserContext"*) local_unnamed_addr #5

; Function Attrs: nounwind ssp uwtable
define hidden void @_ZN18chrome_browser_net17NetErrorTabHelper8SendInfoEv(%"class.chrome_browser_net::NetErrorTabHelper"*) unnamed_addr #0 align 2 {
  %2 = alloca %"class.mojo::PendingAssociatedReceiver.423", align 8
  %3 = alloca %"class.mojo::AssociatedRemote", align 8
  %4 = getelementptr inbounds %"class.chrome_browser_net::NetErrorTabHelper", %"class.chrome_browser_net::NetErrorTabHelper"* %0, i64 0, i32 0
  %5 = tail call %"class.content::WebContents"* @_ZNK7content19WebContentsObserver12web_contentsEv(%"class.content::WebContentsObserver"* %4) #10
  %6 = bitcast %"class.content::WebContents"* %5 to %"class.content::RenderFrameHost"* (%"class.content::WebContents"*)***
  %7 = load %"class.content::RenderFrameHost"* (%"class.content::WebContents"*)**, %"class.content::RenderFrameHost"* (%"class.content::WebContents"*)*** %6, align 8
  %8 = getelementptr inbounds %"class.content::RenderFrameHost"* (%"class.content::WebContents"*)*, %"class.content::RenderFrameHost"* (%"class.content::WebContents"*)** %7, i64 10
  %9 = load %"class.content::RenderFrameHost"* (%"class.content::WebContents"*)*, %"class.content::RenderFrameHost"* (%"class.content::WebContents"*)** %8, align 8
  %10 = tail call %"class.content::RenderFrameHost"* %9(%"class.content::WebContents"* %5) #10
  %11 = bitcast %"class.mojo::AssociatedRemote"* %3 to i8*
  call void @llvm.lifetime.start.p0i8(i64 24, i8* nonnull %11) #10
  call void @llvm.memset.p0i8.i64(i8* nonnull align 8 %11, i8 -86, i64 24, i1 false)
  %12 = bitcast %"class.mojo::AssociatedRemote"* %3 to %"class.mojo::internal::AssociatedInterfacePtrStateBase"*
  call void @_ZN4mojo8internal31AssociatedInterfacePtrStateBaseC2Ev(%"class.mojo::internal::AssociatedInterfacePtrStateBase"* nonnull %12) #10
  %13 = getelementptr inbounds %"class.mojo::AssociatedRemote", %"class.mojo::AssociatedRemote"* %3, i64 0, i32 0, i32 1
  %14 = bitcast %"class.std::__1::unique_ptr.196"* %13 to i64*
  store i64 0, i64* %14, align 8
  %15 = bitcast %"class.content::RenderFrameHost"* %10 to %"class.blink::AssociatedInterfaceProvider"* (%"class.content::RenderFrameHost"*)***
  %16 = load %"class.blink::AssociatedInterfaceProvider"* (%"class.content::RenderFrameHost"*)**, %"class.blink::AssociatedInterfaceProvider"* (%"class.content::RenderFrameHost"*)*** %15, align 8
  %17 = getelementptr inbounds %"class.blink::AssociatedInterfaceProvider"* (%"class.content::RenderFrameHost"*)*, %"class.blink::AssociatedInterfaceProvider"* (%"class.content::RenderFrameHost"*)** %16, i64 54
  %18 = load %"class.blink::AssociatedInterfaceProvider"* (%"class.content::RenderFrameHost"*)*, %"class.blink::AssociatedInterfaceProvider"* (%"class.content::RenderFrameHost"*)** %17, align 8
  %19 = call %"class.blink::AssociatedInterfaceProvider"* %18(%"class.content::RenderFrameHost"* %10) #10
  %20 = bitcast %"class.mojo::PendingAssociatedReceiver.423"* %2 to i8*
  call void @llvm.lifetime.start.p0i8(i64 8, i8* nonnull %20)
  %21 = getelementptr inbounds %"class.blink::AssociatedInterfaceProvider", %"class.blink::AssociatedInterfaceProvider"* %19, i64 0, i32 2
  %22 = bitcast %class.scoped_refptr.222* %21 to %"class.base::SequencedTaskRunner"**
  %23 = load %"class.base::SequencedTaskRunner"*, %"class.base::SequencedTaskRunner"** %22, align 8
  %24 = icmp eq %"class.base::SequencedTaskRunner"* %23, null
  br i1 %24, label %28, label %25

25:                                               ; preds = %1
  %26 = getelementptr inbounds %"class.base::SequencedTaskRunner", %"class.base::SequencedTaskRunner"* %23, i64 0, i32 0, i32 1, i32 0, i32 0, i32 0, i32 0, i32 0, i32 0, i32 0, i32 0
  %27 = atomicrmw add i32* %26, i32 1 monotonic
  br label %28

28:                                               ; preds = %1, %25
  call void @_ZN4mojo16AssociatedRemoteIN6chrome5mojom24NetworkDiagnosticsClientEE30BindNewEndpointAndPassReceiverE13scoped_refptrIN4base19SequencedTaskRunnerEE(%"class.mojo::PendingAssociatedReceiver.423"* nonnull sret %2, %"class.mojo::AssociatedRemote"* nonnull %3, %"class.base::SequencedTaskRunner"* %23) #10
  call void @_ZN5blink27AssociatedInterfaceProvider12GetInterfaceIN6chrome5mojom24NetworkDiagnosticsClientEEEvN4mojo25PendingAssociatedReceiverIT_EE(%"class.blink::AssociatedInterfaceProvider"* %19, %"class.mojo::PendingAssociatedReceiver.423"* nonnull %2) #10
  %29 = getelementptr inbounds %"class.mojo::PendingAssociatedReceiver.423", %"class.mojo::PendingAssociatedReceiver.423"* %2, i64 0, i32 0
  call void @_ZN4mojo29ScopedInterfaceEndpointHandleD1Ev(%"class.mojo::ScopedInterfaceEndpointHandle"* nonnull %29) #10
  call void @llvm.lifetime.end.p0i8(i64 8, i8* nonnull %20)
  %30 = getelementptr inbounds %"class.mojo::AssociatedRemote", %"class.mojo::AssociatedRemote"* %3, i64 0, i32 0, i32 1, i32 0, i32 0, i32 0
  %31 = load %"class.chrome::mojom::NetworkDiagnosticsClientProxy"*, %"class.chrome::mojom::NetworkDiagnosticsClientProxy"** %30, align 8
  %32 = getelementptr inbounds %"class.chrome_browser_net::NetErrorTabHelper", %"class.chrome_browser_net::NetErrorTabHelper"* %0, i64 0, i32 11
  %33 = load i32, i32* %32, align 4
  call void @_ZN6chrome5mojom29NetworkDiagnosticsClientProxy14DNSProbeStatusEi(%"class.chrome::mojom::NetworkDiagnosticsClientProxy"* %31, i32 %33) #10
  %34 = getelementptr inbounds %"class.chrome_browser_net::NetErrorTabHelper", %"class.chrome_browser_net::NetErrorTabHelper"* %0, i64 0, i32 12, i32 0, i32 0, i32 0, i32 0
  %35 = load %"class.base::internal::BindStateBase"*, %"class.base::internal::BindStateBase"** %34, align 8
  %36 = icmp eq %"class.base::internal::BindStateBase"* %35, null
  br i1 %36, label %42, label %37

37:                                               ; preds = %28
  %38 = load i32, i32* %32, align 4
  %39 = getelementptr inbounds %"class.base::internal::BindStateBase", %"class.base::internal::BindStateBase"* %35, i64 0, i32 1
  %40 = bitcast void ()** %39 to void (%"class.base::internal::BindStateBase"*, i32)**
  %41 = load void (%"class.base::internal::BindStateBase"*, i32)*, void (%"class.base::internal::BindStateBase"*, i32)** %40, align 8
  call void %41(%"class.base::internal::BindStateBase"* nonnull %35, i32 %38) #10
  br label %42

42:                                               ; preds = %37, %28
  %43 = load %"class.chrome::mojom::NetworkDiagnosticsClientProxy"*, %"class.chrome::mojom::NetworkDiagnosticsClientProxy"** %30, align 8
  store %"class.chrome::mojom::NetworkDiagnosticsClientProxy"* null, %"class.chrome::mojom::NetworkDiagnosticsClientProxy"** %30, align 8
  %44 = icmp eq %"class.chrome::mojom::NetworkDiagnosticsClientProxy"* %43, null
  br i1 %44, label %50, label %45

45:                                               ; preds = %42
  %46 = bitcast %"class.chrome::mojom::NetworkDiagnosticsClientProxy"* %43 to void (%"class.chrome::mojom::NetworkDiagnosticsClientProxy"*)***
  %47 = load void (%"class.chrome::mojom::NetworkDiagnosticsClientProxy"*)**, void (%"class.chrome::mojom::NetworkDiagnosticsClientProxy"*)*** %46, align 8
  %48 = getelementptr inbounds void (%"class.chrome::mojom::NetworkDiagnosticsClientProxy"*)*, void (%"class.chrome::mojom::NetworkDiagnosticsClientProxy"*)** %47, i64 1
  %49 = load void (%"class.chrome::mojom::NetworkDiagnosticsClientProxy"*)*, void (%"class.chrome::mojom::NetworkDiagnosticsClientProxy"*)** %48, align 8
  call void %49(%"class.chrome::mojom::NetworkDiagnosticsClientProxy"* nonnull %43) #10
  br label %50

50:                                               ; preds = %42, %45
  call void @_ZN4mojo8internal31AssociatedInterfacePtrStateBaseD2Ev(%"class.mojo::internal::AssociatedInterfacePtrStateBase"* nonnull %12) #10
  call void @llvm.lifetime.end.p0i8(i64 24, i8* nonnull %11) #10
  ret void
}

declare void @_ZN6chrome5mojom29NetworkDiagnosticsClientProxy14DNSProbeStatusEi(%"class.chrome::mojom::NetworkDiagnosticsClientProxy"*, i32) unnamed_addr #5

; Function Attrs: nounwind ssp uwtable
define hidden void @_ZN18chrome_browser_net17NetErrorTabHelper21RunNetworkDiagnosticsERK4GURL(%"class.chrome_browser_net::NetErrorTabHelper"*, %class.GURL* dereferenceable(120)) unnamed_addr #0 align 2 {
  %3 = alloca %class.GURL, align 8
  %4 = getelementptr inbounds %class.GURL, %class.GURL* %1, i64 0, i32 1
  %5 = load i8, i8* %4, align 8, !range !2
  %6 = icmp eq i8 %5, 0
  br i1 %6, label %16, label %7

7:                                                ; preds = %2
  %8 = tail call zeroext i1 @_ZNK4GURL19SchemeIsHTTPOrHTTPSEv(%class.GURL* %1) #10
  br i1 %8, label %9, label %16

9:                                                ; preds = %7
  %10 = bitcast %class.GURL* %3 to i8*
  call void @llvm.lifetime.start.p0i8(i64 120, i8* nonnull %10) #10
  call void @_ZNK4GURL9GetOriginEv(%class.GURL* nonnull sret %3, %class.GURL* %1) #10
  %11 = call dereferenceable(24) %"class.std::__1::basic_string"* @_ZNK4GURL4specEv(%class.GURL* nonnull %3) #10
  %12 = bitcast %"class.chrome_browser_net::NetErrorTabHelper"* %0 to void (%"class.chrome_browser_net::NetErrorTabHelper"*, %"class.std::__1::basic_string"*)***
  %13 = load void (%"class.chrome_browser_net::NetErrorTabHelper"*, %"class.std::__1::basic_string"*)**, void (%"class.chrome_browser_net::NetErrorTabHelper"*, %"class.std::__1::basic_string"*)*** %12, align 8
  %14 = getelementptr inbounds void (%"class.chrome_browser_net::NetErrorTabHelper"*, %"class.std::__1::basic_string"*)*, void (%"class.chrome_browser_net::NetErrorTabHelper"*, %"class.std::__1::basic_string"*)** %13, i64 113
  %15 = load void (%"class.chrome_browser_net::NetErrorTabHelper"*, %"class.std::__1::basic_string"*)*, void (%"class.chrome_browser_net::NetErrorTabHelper"*, %"class.std::__1::basic_string"*)** %14, align 8
  call void %15(%"class.chrome_browser_net::NetErrorTabHelper"* %0, %"class.std::__1::basic_string"* dereferenceable(24) %11) #10
  call void @_ZN4GURLD1Ev(%class.GURL* nonnull %3) #10
  call void @llvm.lifetime.end.p0i8(i64 120, i8* nonnull %10) #10
  br label %16

16:                                               ; preds = %2, %7, %9
  ret void
}

declare zeroext i1 @_ZNK4GURL19SchemeIsHTTPOrHTTPSEv(%class.GURL*) local_unnamed_addr #5

declare void @_ZNK4GURL9GetOriginEv(%class.GURL* sret, %class.GURL*) local_unnamed_addr #5

declare dereferenceable(24) %"class.std::__1::basic_string"* @_ZNK4GURL4specEv(%class.GURL*) local_unnamed_addr #5

; Function Attrs: nounwind
declare void @_ZN4GURLD1Ev(%class.GURL*) unnamed_addr #1

; Function Attrs: nounwind ssp uwtable
define hidden void @_ZThn32_N18chrome_browser_net17NetErrorTabHelper21RunNetworkDiagnosticsERK4GURL(%"class.chrome_browser_net::NetErrorTabHelper"*, %class.GURL* dereferenceable(120)) unnamed_addr #0 align 2 {
  %3 = alloca %class.GURL, align 8
  %4 = getelementptr inbounds %"class.chrome_browser_net::NetErrorTabHelper", %"class.chrome_browser_net::NetErrorTabHelper"* %0, i64 -1, i32 14, i32 0, i32 4
  %5 = bitcast i8* %4 to %"class.chrome_browser_net::NetErrorTabHelper"*
  %6 = getelementptr inbounds %class.GURL, %class.GURL* %1, i64 0, i32 1
  %7 = load i8, i8* %6, align 8, !range !2
  %8 = icmp eq i8 %7, 0
  br i1 %8, label %18, label %9

9:                                                ; preds = %2
  %10 = tail call zeroext i1 @_ZNK4GURL19SchemeIsHTTPOrHTTPSEv(%class.GURL* %1) #10
  br i1 %10, label %11, label %18

11:                                               ; preds = %9
  %12 = bitcast %class.GURL* %3 to i8*
  call void @llvm.lifetime.start.p0i8(i64 120, i8* nonnull %12) #10
  call void @_ZNK4GURL9GetOriginEv(%class.GURL* nonnull sret %3, %class.GURL* %1) #10
  %13 = call dereferenceable(24) %"class.std::__1::basic_string"* @_ZNK4GURL4specEv(%class.GURL* nonnull %3) #10
  %14 = bitcast i8* %4 to void (%"class.chrome_browser_net::NetErrorTabHelper"*, %"class.std::__1::basic_string"*)***
  %15 = load void (%"class.chrome_browser_net::NetErrorTabHelper"*, %"class.std::__1::basic_string"*)**, void (%"class.chrome_browser_net::NetErrorTabHelper"*, %"class.std::__1::basic_string"*)*** %14, align 8
  %16 = getelementptr inbounds void (%"class.chrome_browser_net::NetErrorTabHelper"*, %"class.std::__1::basic_string"*)*, void (%"class.chrome_browser_net::NetErrorTabHelper"*, %"class.std::__1::basic_string"*)** %15, i64 113
  %17 = load void (%"class.chrome_browser_net::NetErrorTabHelper"*, %"class.std::__1::basic_string"*)*, void (%"class.chrome_browser_net::NetErrorTabHelper"*, %"class.std::__1::basic_string"*)** %16, align 8
  call void %17(%"class.chrome_browser_net::NetErrorTabHelper"* %5, %"class.std::__1::basic_string"* dereferenceable(24) %13) #10
  call void @_ZN4GURLD1Ev(%class.GURL* nonnull %3) #10
  call void @llvm.lifetime.end.p0i8(i64 120, i8* nonnull %12) #10
  br label %18

18:                                               ; preds = %2, %9, %11
  ret void
}

; Function Attrs: nounwind ssp uwtable
define hidden void @_ZN18chrome_browser_net17NetErrorTabHelper27RunNetworkDiagnosticsHelperERKNSt3__112basic_stringIcNS1_11char_traitsIcEENS1_9allocatorIcEEEE(%"class.chrome_browser_net::NetErrorTabHelper"*, %"class.std::__1::basic_string"* dereferenceable(24)) unnamed_addr #0 align 2 {
  %3 = getelementptr inbounds %"class.chrome_browser_net::NetErrorTabHelper", %"class.chrome_browser_net::NetErrorTabHelper"* %0, i64 0, i32 0
  %4 = tail call %"class.content::WebContents"* @_ZNK7content19WebContentsObserver12web_contentsEv(%"class.content::WebContentsObserver"* %3) #10
  %5 = tail call zeroext i1 @_Z31CanShowNetworkDiagnosticsDialogPN7content11WebContentsE(%"class.content::WebContents"* %4) #10
  br i1 %5, label %6, label %26

6:                                                ; preds = %2
  %7 = getelementptr inbounds %"class.chrome_browser_net::NetErrorTabHelper", %"class.chrome_browser_net::NetErrorTabHelper"* %0, i64 0, i32 5, i32 2
  %8 = load %"class.content::RenderFrameHost"*, %"class.content::RenderFrameHost"** %7, align 8
  %9 = icmp eq %"class.content::RenderFrameHost"* %8, null
  br i1 %9, label %10, label %15

10:                                               ; preds = %6
  %11 = getelementptr inbounds %"class.chrome_browser_net::NetErrorTabHelper", %"class.chrome_browser_net::NetErrorTabHelper"* %0, i64 0, i32 5, i32 1, i32 3, i32 0, i32 4
  %12 = bitcast i8** %11 to %"class.content::RenderFrameHost"***
  %13 = load %"class.content::RenderFrameHost"**, %"class.content::RenderFrameHost"*** %12, align 8
  %14 = load %"class.content::RenderFrameHost"*, %"class.content::RenderFrameHost"** %13, align 8
  br label %15

15:                                               ; preds = %6, %10
  %16 = phi %"class.content::RenderFrameHost"* [ %14, %10 ], [ %8, %6 ]
  %17 = tail call %"class.content::WebContents"* @_ZNK7content19WebContentsObserver12web_contentsEv(%"class.content::WebContentsObserver"* %3) #10
  %18 = bitcast %"class.content::WebContents"* %17 to %"class.content::RenderFrameHost"* (%"class.content::WebContents"*)***
  %19 = load %"class.content::RenderFrameHost"* (%"class.content::WebContents"*)**, %"class.content::RenderFrameHost"* (%"class.content::WebContents"*)*** %18, align 8
  %20 = getelementptr inbounds %"class.content::RenderFrameHost"* (%"class.content::WebContents"*)*, %"class.content::RenderFrameHost"* (%"class.content::WebContents"*)** %19, i64 10
  %21 = load %"class.content::RenderFrameHost"* (%"class.content::WebContents"*)*, %"class.content::RenderFrameHost"* (%"class.content::WebContents"*)** %20, align 8
  %22 = tail call %"class.content::RenderFrameHost"* %21(%"class.content::WebContents"* %17) #10
  %23 = icmp eq %"class.content::RenderFrameHost"* %16, %22
  br i1 %23, label %24, label %26

24:                                               ; preds = %15
  %25 = tail call %"class.content::WebContents"* @_ZNK7content19WebContentsObserver12web_contentsEv(%"class.content::WebContentsObserver"* %3) #10
  tail call void @_Z28ShowNetworkDiagnosticsDialogPN7content11WebContentsERKNSt3__112basic_stringIcNS2_11char_traitsIcEENS2_9allocatorIcEEEE(%"class.content::WebContents"* %25, %"class.std::__1::basic_string"* dereferenceable(24) %1) #10
  br label %26

26:                                               ; preds = %15, %2, %24
  ret void
}

declare void @_Z28ShowNetworkDiagnosticsDialogPN7content11WebContentsERKNSt3__112basic_stringIcNS2_11char_traitsIcEENS2_9allocatorIcEEEE(%"class.content::WebContents"*, %"class.std::__1::basic_string"* dereferenceable(24)) local_unnamed_addr #5

; Function Attrs: nounwind ssp uwtable
define hidden void @_ZN18chrome_browser_net17NetErrorTabHelper12GetHighScoreEN4base12OnceCallbackIFvjEEE(%"class.chrome_browser_net::NetErrorTabHelper"*, %"class.base::OnceCallback.256"* nocapture) unnamed_addr #0 align 2 {
  %3 = alloca %"class.base::OnceCallback.256", align 8
  %4 = getelementptr inbounds %"class.chrome_browser_net::NetErrorTabHelper", %"class.chrome_browser_net::NetErrorTabHelper"* %0, i64 0, i32 14
  %5 = bitcast %class.PrefMember.131* %4 to %"class.subtle::PrefMemberBase"*
  tail call void @_ZNK6subtle14PrefMemberBase10VerifyPrefEv(%"class.subtle::PrefMemberBase"* %5) #10
  %6 = getelementptr inbounds %"class.chrome_browser_net::NetErrorTabHelper", %"class.chrome_browser_net::NetErrorTabHelper"* %0, i64 0, i32 14, i32 1, i32 0
  %7 = load %"class.PrefMember<int>::Internal"*, %"class.PrefMember<int>::Internal"** %6, align 8
  %8 = getelementptr inbounds %"class.PrefMember<int>::Internal", %"class.PrefMember<int>::Internal"* %7, i64 0, i32 1
  %9 = load i32, i32* %8, align 4
  %10 = bitcast %"class.base::OnceCallback.256"* %3 to i8*
  call void @llvm.lifetime.start.p0i8(i64 8, i8* nonnull %10) #10
  %11 = getelementptr inbounds %"class.base::OnceCallback.256", %"class.base::OnceCallback.256"* %1, i64 0, i32 0, i32 0, i32 0
  %12 = bitcast %"class.base::OnceCallback.256"* %1 to i64*
  %13 = load i64, i64* %12, align 8
  %14 = bitcast %"class.base::OnceCallback.256"* %3 to i64*
  store i64 %13, i64* %14, align 8
  store %"class.base::internal::BindStateBase"* null, %"class.base::internal::BindStateBase"** %11, align 8
  %15 = getelementptr inbounds %"class.base::OnceCallback.256", %"class.base::OnceCallback.256"* %3, i64 0, i32 0
  %16 = inttoptr i64 %13 to %"class.base::internal::BindStateBase"*
  %17 = getelementptr inbounds %"class.base::internal::BindStateBase", %"class.base::internal::BindStateBase"* %16, i64 0, i32 1
  %18 = bitcast void ()** %17 to void (%"class.base::internal::BindStateBase"*, i32)**
  %19 = load void (%"class.base::internal::BindStateBase"*, i32)*, void (%"class.base::internal::BindStateBase"*, i32)** %18, align 8
  tail call void %19(%"class.base::internal::BindStateBase"* %16, i32 %9) #10
  call void @_ZN4base8internal12CallbackBaseD2Ev(%"class.base::internal::CallbackBase"* nonnull %15) #10
  call void @llvm.lifetime.end.p0i8(i64 8, i8* nonnull %10) #10
  ret void
}

; Function Attrs: nounwind ssp uwtable
define hidden void @_ZThn40_N18chrome_browser_net17NetErrorTabHelper12GetHighScoreEN4base12OnceCallbackIFvjEEE(%"class.chrome_browser_net::NetErrorTabHelper"*, %"class.base::OnceCallback.256"* nocapture) unnamed_addr #0 align 2 {
  %3 = alloca %"class.base::OnceCallback.256", align 8
  %4 = getelementptr inbounds %"class.chrome_browser_net::NetErrorTabHelper", %"class.chrome_browser_net::NetErrorTabHelper"* %0, i64 -1, i32 14, i32 0, i32 3
  %5 = getelementptr inbounds %class.PrefService*, %class.PrefService** %4, i64 76
  %6 = bitcast %class.PrefService** %5 to %"class.subtle::PrefMemberBase"*
  tail call void @_ZNK6subtle14PrefMemberBase10VerifyPrefEv(%"class.subtle::PrefMemberBase"* %6) #10
  %7 = getelementptr inbounds %class.PrefService*, %class.PrefService** %4, i64 83
  %8 = bitcast %class.PrefService** %7 to %"class.PrefMember<int>::Internal"**
  %9 = load %"class.PrefMember<int>::Internal"*, %"class.PrefMember<int>::Internal"** %8, align 8
  %10 = getelementptr inbounds %"class.PrefMember<int>::Internal", %"class.PrefMember<int>::Internal"* %9, i64 0, i32 1
  %11 = load i32, i32* %10, align 4
  %12 = bitcast %"class.base::OnceCallback.256"* %3 to i8*
  call void @llvm.lifetime.start.p0i8(i64 8, i8* nonnull %12) #10
  %13 = getelementptr inbounds %"class.base::OnceCallback.256", %"class.base::OnceCallback.256"* %1, i64 0, i32 0, i32 0, i32 0
  %14 = bitcast %"class.base::OnceCallback.256"* %1 to i64*
  %15 = load i64, i64* %14, align 8
  %16 = bitcast %"class.base::OnceCallback.256"* %3 to i64*
  store i64 %15, i64* %16, align 8
  store %"class.base::internal::BindStateBase"* null, %"class.base::internal::BindStateBase"** %13, align 8
  %17 = getelementptr inbounds %"class.base::OnceCallback.256", %"class.base::OnceCallback.256"* %3, i64 0, i32 0
  %18 = inttoptr i64 %15 to %"class.base::internal::BindStateBase"*
  %19 = getelementptr inbounds %"class.base::internal::BindStateBase", %"class.base::internal::BindStateBase"* %18, i64 0, i32 1
  %20 = bitcast void ()** %19 to void (%"class.base::internal::BindStateBase"*, i32)**
  %21 = load void (%"class.base::internal::BindStateBase"*, i32)*, void (%"class.base::internal::BindStateBase"*, i32)** %20, align 8
  tail call void %21(%"class.base::internal::BindStateBase"* %18, i32 %11) #10
  call void @_ZN4base8internal12CallbackBaseD2Ev(%"class.base::internal::CallbackBase"* nonnull %17) #10
  call void @llvm.lifetime.end.p0i8(i64 8, i8* nonnull %12) #10
  ret void
}

; Function Attrs: nounwind ssp uwtable
define hidden void @_ZN18chrome_browser_net17NetErrorTabHelper15UpdateHighScoreEj(%"class.chrome_browser_net::NetErrorTabHelper"*, i32) unnamed_addr #0 align 2 {
  %3 = alloca i32, align 4
  %4 = getelementptr inbounds %"class.chrome_browser_net::NetErrorTabHelper", %"class.chrome_browser_net::NetErrorTabHelper"* %0, i64 0, i32 14
  %5 = bitcast %class.PrefMember.131* %4 to %"class.subtle::PrefMemberBase"*
  tail call void @_ZNK6subtle14PrefMemberBase10VerifyPrefEv(%"class.subtle::PrefMemberBase"* %5) #10
  %6 = getelementptr inbounds %"class.chrome_browser_net::NetErrorTabHelper", %"class.chrome_browser_net::NetErrorTabHelper"* %0, i64 0, i32 14, i32 1, i32 0
  %7 = load %"class.PrefMember<int>::Internal"*, %"class.PrefMember<int>::Internal"** %6, align 8
  %8 = getelementptr inbounds %"class.PrefMember<int>::Internal", %"class.PrefMember<int>::Internal"* %7, i64 0, i32 1
  %9 = load i32, i32* %8, align 4
  %10 = icmp ult i32 %9, %1
  br i1 %10, label %11, label %14

11:                                               ; preds = %2
  %12 = bitcast i32* %3 to i8*
  call void @llvm.lifetime.start.p0i8(i64 4, i8* nonnull %12) #10
  store i32 %1, i32* %3, align 4
  %13 = getelementptr inbounds %"class.chrome_browser_net::NetErrorTabHelper", %"class.chrome_browser_net::NetErrorTabHelper"* %0, i64 0, i32 14, i32 0, i32 4
  store i8 1, i8* %13, align 8
  call void @_ZN10PrefMemberIiE10UpdatePrefERKi(%class.PrefMember.131* %4, i32* nonnull dereferenceable(4) %3) #10
  store i8 0, i8* %13, align 8
  call void @llvm.lifetime.end.p0i8(i64 4, i8* nonnull %12) #10
  br label %14

14:                                               ; preds = %2, %11
  ret void
}

; Function Attrs: nounwind ssp uwtable
define hidden void @_ZThn40_N18chrome_browser_net17NetErrorTabHelper15UpdateHighScoreEj(%"class.chrome_browser_net::NetErrorTabHelper"*, i32) unnamed_addr #0 align 2 {
  %3 = alloca i32, align 4
  %4 = getelementptr inbounds %"class.chrome_browser_net::NetErrorTabHelper", %"class.chrome_browser_net::NetErrorTabHelper"* %0, i64 -1, i32 14, i32 0, i32 3
  %5 = getelementptr inbounds %class.PrefService*, %class.PrefService** %4, i64 76
  %6 = bitcast %class.PrefService** %5 to %"class.subtle::PrefMemberBase"*
  tail call void @_ZNK6subtle14PrefMemberBase10VerifyPrefEv(%"class.subtle::PrefMemberBase"* %6) #10
  %7 = getelementptr inbounds %class.PrefService*, %class.PrefService** %4, i64 83
  %8 = bitcast %class.PrefService** %7 to %"class.PrefMember<int>::Internal"**
  %9 = load %"class.PrefMember<int>::Internal"*, %"class.PrefMember<int>::Internal"** %8, align 8
  %10 = getelementptr inbounds %"class.PrefMember<int>::Internal", %"class.PrefMember<int>::Internal"* %9, i64 0, i32 1
  %11 = load i32, i32* %10, align 4
  %12 = icmp ult i32 %11, %1
  br i1 %12, label %13, label %18

13:                                               ; preds = %2
  %14 = bitcast %class.PrefService** %5 to %class.PrefMember.131*
  %15 = bitcast i32* %3 to i8*
  call void @llvm.lifetime.start.p0i8(i64 4, i8* nonnull %15) #10
  store i32 %1, i32* %3, align 4
  %16 = getelementptr inbounds %class.PrefService*, %class.PrefService** %4, i64 82
  %17 = bitcast %class.PrefService** %16 to i8*
  store i8 1, i8* %17, align 8
  call void @_ZN10PrefMemberIiE10UpdatePrefERKi(%class.PrefMember.131* %14, i32* nonnull dereferenceable(4) %3) #10
  store i8 0, i8* %17, align 8
  call void @llvm.lifetime.end.p0i8(i64 4, i8* nonnull %15) #10
  br label %18

18:                                               ; preds = %2, %13
  ret void
}

; Function Attrs: nounwind ssp uwtable
define hidden void @_ZN18chrome_browser_net17NetErrorTabHelper14ResetHighScoreEv(%"class.chrome_browser_net::NetErrorTabHelper"*) unnamed_addr #0 align 2 {
  %2 = alloca i32, align 4
  %3 = getelementptr inbounds %"class.chrome_browser_net::NetErrorTabHelper", %"class.chrome_browser_net::NetErrorTabHelper"* %0, i64 0, i32 14
  %4 = bitcast i32* %2 to i8*
  call void @llvm.lifetime.start.p0i8(i64 4, i8* nonnull %4) #10
  store i32 0, i32* %2, align 4
  %5 = getelementptr inbounds %"class.chrome_browser_net::NetErrorTabHelper", %"class.chrome_browser_net::NetErrorTabHelper"* %0, i64 0, i32 14, i32 0, i32 4
  store i8 1, i8* %5, align 8
  call void @_ZN10PrefMemberIiE10UpdatePrefERKi(%class.PrefMember.131* %3, i32* nonnull dereferenceable(4) %2) #10
  store i8 0, i8* %5, align 8
  call void @llvm.lifetime.end.p0i8(i64 4, i8* nonnull %4) #10
  ret void
}

; Function Attrs: nounwind ssp uwtable
define hidden void @_ZThn40_N18chrome_browser_net17NetErrorTabHelper14ResetHighScoreEv(%"class.chrome_browser_net::NetErrorTabHelper"*) unnamed_addr #0 align 2 {
  %2 = alloca i32, align 4
  %3 = getelementptr inbounds %"class.chrome_browser_net::NetErrorTabHelper", %"class.chrome_browser_net::NetErrorTabHelper"* %0, i64 -1, i32 14, i32 0, i32 3
  %4 = getelementptr inbounds %class.PrefService*, %class.PrefService** %3, i64 76
  %5 = bitcast %class.PrefService** %4 to %class.PrefMember.131*
  %6 = bitcast i32* %2 to i8*
  call void @llvm.lifetime.start.p0i8(i64 4, i8* nonnull %6) #10
  store i32 0, i32* %2, align 4
  %7 = getelementptr inbounds %class.PrefService*, %class.PrefService** %3, i64 82
  %8 = bitcast %class.PrefService** %7 to i8*
  store i8 1, i8* %8, align 8
  call void @_ZN10PrefMemberIiE10UpdatePrefERKi(%class.PrefMember.131* %5, i32* nonnull dereferenceable(4) %2) #10
  store i8 0, i8* %8, align 8
  call void @llvm.lifetime.end.p0i8(i64 4, i8* nonnull %6) #10
  ret void
}

declare zeroext i1 @_ZN7content19WebContentsObserver17OnMessageReceivedERKN3IPC7MessageE(%"class.content::WebContentsObserver"*, %"class.IPC::Message"* dereferenceable(56)) unnamed_addr #5

; Function Attrs: nounwind ssp uwtable
define linkonce_odr hidden void @_ZN3IPC8Listener18OnChannelConnectedEi(%"class.IPC::Listener"*, i32) unnamed_addr #0 comdat align 2 {
  ret void
}

; Function Attrs: nounwind ssp uwtable
define linkonce_odr hidden void @_ZN3IPC8Listener14OnChannelErrorEv(%"class.IPC::Listener"*) unnamed_addr #0 comdat align 2 {
  ret void
}

; Function Attrs: nounwind ssp uwtable
define linkonce_odr hidden void @_ZN3IPC8Listener20OnBadMessageReceivedERKNS_7MessageE(%"class.IPC::Listener"*, %"class.IPC::Message"* dereferenceable(56)) unnamed_addr #0 comdat align 2 {
  ret void
}

; Function Attrs: nounwind ssp uwtable
define linkonce_odr hidden void @_ZN3IPC8Listener28OnAssociatedInterfaceRequestERKNSt3__112basic_stringIcNS1_11char_traitsIcEENS1_9allocatorIcEEEEN4mojo29ScopedInterfaceEndpointHandleE(%"class.IPC::Listener"*, %"class.std::__1::basic_string"* dereferenceable(24), %"class.mojo::ScopedInterfaceEndpointHandle"*) unnamed_addr #0 comdat align 2 {
  ret void
}

; Function Attrs: nounwind ssp uwtable
define linkonce_odr hidden void @_ZN3IPC8Listener15OnChannelDeniedEv(%"class.IPC::Listener"*) unnamed_addr #0 comdat align 2 {
  ret void
}

; Function Attrs: nounwind ssp uwtable
define linkonce_odr hidden void @_ZN3IPC8Listener20OnChannelListenErrorEv(%"class.IPC::Listener"*) unnamed_addr #0 comdat align 2 {
  ret void
}

; Function Attrs: nounwind ssp uwtable
define linkonce_odr hidden void @_ZN7content19WebContentsObserver18RenderFrameDeletedEPNS_15RenderFrameHostE(%"class.content::WebContentsObserver"*, %"class.content::RenderFrameHost"*) unnamed_addr #0 comdat align 2 {
  ret void
}

; Function Attrs: nounwind ssp uwtable
define linkonce_odr hidden void @_ZN7content19WebContentsObserver22RenderFrameHostChangedEPNS_15RenderFrameHostES2_(%"class.content::WebContentsObserver"*, %"class.content::RenderFrameHost"*, %"class.content::RenderFrameHost"*) unnamed_addr #0 comdat align 2 {
  ret void
}

; Function Attrs: nounwind ssp uwtable
define linkonce_odr hidden void @_ZN7content19WebContentsObserver12FrameDeletedEi(%"class.content::WebContentsObserver"*, i32) unnamed_addr #0 comdat align 2 {
  ret void
}

; Function Attrs: nounwind ssp uwtable
define linkonce_odr hidden void @_ZN7content19WebContentsObserver27RenderFrameHostStateChangedEPNS_15RenderFrameHostENS1_14LifecycleStateES3_(%"class.content::WebContentsObserver"*, %"class.content::RenderFrameHost"*, i32, i32) unnamed_addr #0 comdat align 2 {
  ret void
}

; Function Attrs: nounwind ssp uwtable
define linkonce_odr hidden void @_ZN7content19WebContentsObserver20CaptureTargetChangedEv(%"class.content::WebContentsObserver"*) unnamed_addr #0 comdat align 2 {
  ret void
}

; Function Attrs: nounwind ssp uwtable
define linkonce_odr hidden void @_ZN7content19WebContentsObserver27OnCaptureHandleConfigUpdateERKN5blink5mojom19CaptureHandleConfigE(%"class.content::WebContentsObserver"*, %"class.blink::mojom::CaptureHandleConfig"*) unnamed_addr #0 comdat align 2 {
  ret void
}

; Function Attrs: nounwind ssp uwtable
define linkonce_odr hidden void @_ZN7content19WebContentsObserver15RenderViewReadyEv(%"class.content::WebContentsObserver"*) unnamed_addr #0 comdat align 2 {
  ret void
}

; Function Attrs: nounwind ssp uwtable
define linkonce_odr hidden void @_ZN7content19WebContentsObserver17RenderViewDeletedEPNS_14RenderViewHostE(%"class.content::WebContentsObserver"*, %"class.content::RenderViewHost"*) unnamed_addr #0 comdat align 2 {
  ret void
}

; Function Attrs: nounwind ssp uwtable
define linkonce_odr hidden void @_ZN7content19WebContentsObserver17RenderProcessGoneEN4base17TerminationStatusE(%"class.content::WebContentsObserver"*, i32) unnamed_addr #0 comdat align 2 {
  ret void
}

; Function Attrs: nounwind ssp uwtable
define linkonce_odr hidden void @_ZN7content19WebContentsObserver21RenderViewHostChangedEPNS_14RenderViewHostES2_(%"class.content::WebContentsObserver"*, %"class.content::RenderViewHost"*, %"class.content::RenderViewHost"*) unnamed_addr #0 comdat align 2 {
  ret void
}

; Function Attrs: nounwind ssp uwtable
define linkonce_odr hidden void @_ZN7content19WebContentsObserver22OnRendererUnresponsiveEPNS_17RenderProcessHostE(%"class.content::WebContentsObserver"*, %"class.content::RenderProcessHost"*) unnamed_addr #0 comdat align 2 {
  ret void
}

; Function Attrs: nounwind ssp uwtable
define linkonce_odr hidden void @_ZN7content19WebContentsObserver20OnRendererResponsiveEPNS_17RenderProcessHostE(%"class.content::WebContentsObserver"*, %"class.content::RenderProcessHost"*) unnamed_addr #0 comdat align 2 {
  ret void
}

; Function Attrs: nounwind ssp uwtable
define linkonce_odr hidden void @_ZN7content19WebContentsObserver18DidStartNavigationEPNS_16NavigationHandleE(%"class.content::WebContentsObserver"*, %"class.content::NavigationHandle"*) unnamed_addr #0 comdat align 2 {
  ret void
}

; Function Attrs: nounwind ssp uwtable
define linkonce_odr hidden void @_ZN7content19WebContentsObserver21DidRedirectNavigationEPNS_16NavigationHandleE(%"class.content::WebContentsObserver"*, %"class.content::NavigationHandle"*) unnamed_addr #0 comdat align 2 {
  ret void
}

; Function Attrs: nounwind ssp uwtable
define linkonce_odr hidden void @_ZN7content19WebContentsObserver23ReadyToCommitNavigationEPNS_16NavigationHandleE(%"class.content::WebContentsObserver"*, %"class.content::NavigationHandle"*) unnamed_addr #0 comdat align 2 {
  ret void
}

; Function Attrs: nounwind ssp uwtable
define linkonce_odr hidden void @_ZN7content19WebContentsObserver17DidActivatePortalEPNS_11WebContentsEN4base9TimeTicksE(%"class.content::WebContentsObserver"*, %"class.content::WebContents"*, i64) unnamed_addr #0 comdat align 2 {
  ret void
}

; Function Attrs: nounwind ssp uwtable
define linkonce_odr hidden void @_ZN7content19WebContentsObserver15DidStartLoadingEv(%"class.content::WebContentsObserver"*) unnamed_addr #0 comdat align 2 {
  ret void
}

; Function Attrs: nounwind ssp uwtable
define linkonce_odr hidden void @_ZN7content19WebContentsObserver18DidReceiveResponseEv(%"class.content::WebContentsObserver"*) unnamed_addr #0 comdat align 2 {
  ret void
}

; Function Attrs: nounwind ssp uwtable
define linkonce_odr hidden void @_ZN7content19WebContentsObserver14DidStopLoadingEv(%"class.content::WebContentsObserver"*) unnamed_addr #0 comdat align 2 {
  ret void
}

; Function Attrs: nounwind ssp uwtable
define linkonce_odr hidden void @_ZN7content19WebContentsObserver19LoadProgressChangedEd(%"class.content::WebContentsObserver"*, double) unnamed_addr #0 comdat align 2 {
  ret void
}

; Function Attrs: nounwind ssp uwtable
define linkonce_odr hidden void @_ZN7content19WebContentsObserver28DocumentAvailableInMainFrameEPNS_15RenderFrameHostE(%"class.content::WebContentsObserver"*, %"class.content::RenderFrameHost"*) unnamed_addr #0 comdat align 2 {
  ret void
}

; Function Attrs: nounwind ssp uwtable
define linkonce_odr hidden void @_ZN7content19WebContentsObserver34DocumentOnLoadCompletedInMainFrameEPNS_15RenderFrameHostE(%"class.content::WebContentsObserver"*, %"class.content::RenderFrameHost"*) unnamed_addr #0 comdat align 2 {
  ret void
}

; Function Attrs: nounwind ssp uwtable
define linkonce_odr hidden void @_ZN7content19WebContentsObserver16DOMContentLoadedEPNS_15RenderFrameHostE(%"class.content::WebContentsObserver"*, %"class.content::RenderFrameHost"*) unnamed_addr #0 comdat align 2 {
  ret void
}

; Function Attrs: nounwind ssp uwtable
define linkonce_odr hidden void @_ZN7content19WebContentsObserver13DidFinishLoadEPNS_15RenderFrameHostERK4GURL(%"class.content::WebContentsObserver"*, %"class.content::RenderFrameHost"*, %class.GURL* dereferenceable(120)) unnamed_addr #0 comdat align 2 {
  ret void
}

; Function Attrs: nounwind ssp uwtable
define linkonce_odr hidden void @_ZN7content19WebContentsObserver11DidFailLoadEPNS_15RenderFrameHostERK4GURLi(%"class.content::WebContentsObserver"*, %"class.content::RenderFrameHost"*, %class.GURL* dereferenceable(120), i32) unnamed_addr #0 comdat align 2 {
  ret void
}

; Function Attrs: nounwind ssp uwtable
define linkonce_odr hidden void @_ZN7content19WebContentsObserver29DidChangeVisibleSecurityStateEv(%"class.content::WebContentsObserver"*) unnamed_addr #0 comdat align 2 {
  ret void
}

; Function Attrs: nounwind ssp uwtable
define linkonce_odr hidden void @_ZN7content19WebContentsObserver30DidLoadResourceFromMemoryCacheEPNS_15RenderFrameHostERK4GURLRKNSt3__112basic_stringIcNS6_11char_traitsIcEENS6_9allocatorIcEEEEN7network5mojom18RequestDestinationE(%"class.content::WebContentsObserver"*, %"class.content::RenderFrameHost"*, %class.GURL* dereferenceable(120), %"class.std::__1::basic_string"* dereferenceable(24), i32) unnamed_addr #0 comdat align 2 {
  ret void
}

; Function Attrs: nounwind ssp uwtable
define linkonce_odr hidden void @_ZN7content19WebContentsObserver20ResourceLoadCompleteEPNS_15RenderFrameHostERKNS_15GlobalRequestIDERKN5blink5mojom16ResourceLoadInfoE(%"class.content::WebContentsObserver"*, %"class.content::RenderFrameHost"*, %"struct.content::GlobalRequestID"* dereferenceable(8), %"class.blink::mojom::ResourceLoadInfo"*) unnamed_addr #0 comdat align 2 {
  ret void
}

; Function Attrs: nounwind ssp uwtable
define linkonce_odr hidden void @_ZN7content19WebContentsObserver17OnCookiesAccessedEPNS_15RenderFrameHostERKNS_19CookieAccessDetailsE(%"class.content::WebContentsObserver"*, %"class.content::RenderFrameHost"*, %"struct.content::CookieAccessDetails"* dereferenceable(280)) unnamed_addr #0 comdat align 2 {
  ret void
}

; Function Attrs: nounwind ssp uwtable
define linkonce_odr hidden void @_ZN7content19WebContentsObserver17OnCookiesAccessedEPNS_16NavigationHandleERKNS_19CookieAccessDetailsE(%"class.content::WebContentsObserver"*, %"class.content::NavigationHandle"*, %"struct.content::CookieAccessDetails"* dereferenceable(280)) unnamed_addr #0 comdat align 2 {
  ret void
}

; Function Attrs: nounwind ssp uwtable
define linkonce_odr hidden void @_ZN7content19WebContentsObserver24NavigationEntryCommittedERKNS_20LoadCommittedDetailsE(%"class.content::WebContentsObserver"*, %"struct.content::LoadCommittedDetails"*) unnamed_addr #0 comdat align 2 {
  ret void
}

; Function Attrs: nounwind ssp uwtable
define linkonce_odr hidden void @_ZN7content19WebContentsObserver20NavigationListPrunedERKNS_13PrunedDetailsE(%"class.content::WebContentsObserver"*, %"struct.content::PrunedDetails"*) unnamed_addr #0 comdat align 2 {
  ret void
}

; Function Attrs: nounwind ssp uwtable
define linkonce_odr hidden void @_ZN7content19WebContentsObserver24NavigationEntriesDeletedEv(%"class.content::WebContentsObserver"*) unnamed_addr #0 comdat align 2 {
  ret void
}

; Function Attrs: nounwind ssp uwtable
define linkonce_odr hidden void @_ZN7content19WebContentsObserver22NavigationEntryChangedERKNS_19EntryChangedDetailsE(%"class.content::WebContentsObserver"*, %"struct.content::EntryChangedDetails"*) unnamed_addr #0 comdat align 2 {
  ret void
}

; Function Attrs: nounwind ssp uwtable
define linkonce_odr hidden void @_ZN7content19WebContentsObserver19DidOpenRequestedURLEPNS_11WebContentsEPNS_15RenderFrameHostERK4GURLRKNS_8ReferrerE21WindowOpenDispositionN2ui14PageTransitionEbb(%"class.content::WebContentsObserver"*, %"class.content::WebContents"*, %"class.content::RenderFrameHost"*, %class.GURL* dereferenceable(120), %"struct.content::Referrer"* dereferenceable(128), i32, i32, i1 zeroext, i1 zeroext) unnamed_addr #0 comdat align 2 {
  ret void
}

; Function Attrs: nounwind ssp uwtable
define linkonce_odr hidden void @_ZN7content19WebContentsObserver29DidFirstVisuallyNonEmptyPaintEv(%"class.content::WebContentsObserver"*) unnamed_addr #0 comdat align 2 {
  ret void
}

; Function Attrs: nounwind ssp uwtable
define linkonce_odr hidden void @_ZN7content19WebContentsObserver17NavigationStoppedEv(%"class.content::WebContentsObserver"*) unnamed_addr #0 comdat align 2 {
  ret void
}

; Function Attrs: nounwind ssp uwtable
define linkonce_odr hidden void @_ZN7content19WebContentsObserver21DidGetUserInteractionERKN5blink13WebInputEventE(%"class.content::WebContentsObserver"*, %"class.blink::WebInputEvent"* dereferenceable(40)) unnamed_addr #0 comdat align 2 {
  ret void
}

; Function Attrs: nounwind ssp uwtable
define linkonce_odr hidden void @_ZN7content19WebContentsObserver20DidGetIgnoredUIEventEv(%"class.content::WebContentsObserver"*) unnamed_addr #0 comdat align 2 {
  ret void
}

; Function Attrs: nounwind ssp uwtable
define linkonce_odr hidden void @_ZN7content19WebContentsObserver19OnVisibilityChangedENS_10VisibilityE(%"class.content::WebContentsObserver"*, i32) unnamed_addr #0 comdat align 2 {
  ret void
}

; Function Attrs: nounwind ssp uwtable
define linkonce_odr hidden void @_ZN7content19WebContentsObserver19MainFrameWasResizedEb(%"class.content::WebContentsObserver"*, i1 zeroext) unnamed_addr #0 comdat align 2 {
  ret void
}

; Function Attrs: nounwind ssp uwtable
define linkonce_odr hidden void @_ZN7content19WebContentsObserver16FrameNameChangedEPNS_15RenderFrameHostERKNSt3__112basic_stringIcNS3_11char_traitsIcEENS3_9allocatorIcEEEE(%"class.content::WebContentsObserver"*, %"class.content::RenderFrameHost"*, %"class.std::__1::basic_string"* dereferenceable(24)) unnamed_addr #0 comdat align 2 {
  ret void
}

; Function Attrs: nounwind ssp uwtable
define linkonce_odr hidden void @_ZN7content19WebContentsObserver27FrameReceivedUserActivationEPNS_15RenderFrameHostE(%"class.content::WebContentsObserver"*, %"class.content::RenderFrameHost"*) unnamed_addr #0 comdat align 2 {
  ret void
}

; Function Attrs: nounwind ssp uwtable
define linkonce_odr hidden void @_ZN7content19WebContentsObserver24FrameDisplayStateChangedEPNS_15RenderFrameHostEb(%"class.content::WebContentsObserver"*, %"class.content::RenderFrameHost"*, i1 zeroext) unnamed_addr #0 comdat align 2 {
  ret void
}

; Function Attrs: nounwind ssp uwtable
define linkonce_odr hidden void @_ZN7content19WebContentsObserver16FrameSizeChangedEPNS_15RenderFrameHostERKN3gfx4SizeE(%"class.content::WebContentsObserver"*, %"class.content::RenderFrameHost"*, %"class.gfx::Size"* dereferenceable(8)) unnamed_addr #0 comdat align 2 {
  ret void
}

; Function Attrs: nounwind ssp uwtable
define linkonce_odr hidden void @_ZN7content19WebContentsObserver11TitleWasSetEPNS_15NavigationEntryE(%"class.content::WebContentsObserver"*, %"class.content::NavigationEntry"*) unnamed_addr #0 comdat align 2 {
  ret void
}

; Function Attrs: nounwind ssp uwtable
define linkonce_odr hidden void @_ZN7content19WebContentsObserver16AppCacheAccessedERK4GURLb(%"class.content::WebContentsObserver"*, %class.GURL* dereferenceable(120), i1 zeroext) unnamed_addr #0 comdat align 2 {
  ret void
}

; Function Attrs: nounwind ssp uwtable
define linkonce_odr hidden void @_ZN7content19WebContentsObserver21PepperInstanceCreatedEv(%"class.content::WebContentsObserver"*) unnamed_addr #0 comdat align 2 {
  ret void
}

; Function Attrs: nounwind ssp uwtable
define linkonce_odr hidden void @_ZN7content19WebContentsObserver21PepperInstanceDeletedEv(%"class.content::WebContentsObserver"*) unnamed_addr #0 comdat align 2 {
  ret void
}

; Function Attrs: nounwind ssp uwtable
define linkonce_odr hidden void @_ZN7content19WebContentsObserver18ViewportFitChangedEN5blink5mojom11ViewportFitE(%"class.content::WebContentsObserver"*, i32) unnamed_addr #0 comdat align 2 {
  ret void
}

; Function Attrs: nounwind ssp uwtable
define linkonce_odr hidden void @_ZN7content19WebContentsObserver13PluginCrashedERKN4base8FilePathEi(%"class.content::WebContentsObserver"*, %"class.base::FilePath"* dereferenceable(24), i32) unnamed_addr #0 comdat align 2 {
  ret void
}

; Function Attrs: nounwind ssp uwtable
define linkonce_odr hidden void @_ZN7content19WebContentsObserver23PluginHungStatusChangedEiRKN4base8FilePathEb(%"class.content::WebContentsObserver"*, i32, %"class.base::FilePath"* dereferenceable(24), i1 zeroext) unnamed_addr #0 comdat align 2 {
  ret void
}

; Function Attrs: nounwind ssp uwtable
define linkonce_odr hidden void @_ZN7content19WebContentsObserver23InnerWebContentsCreatedEPNS_11WebContentsE(%"class.content::WebContentsObserver"*, %"class.content::WebContents"*) unnamed_addr #0 comdat align 2 {
  ret void
}

; Function Attrs: nounwind ssp uwtable
define linkonce_odr hidden void @_ZN7content19WebContentsObserver24InnerWebContentsAttachedEPNS_11WebContentsEPNS_15RenderFrameHostEb(%"class.content::WebContentsObserver"*, %"class.content::WebContents"*, %"class.content::RenderFrameHost"*, i1 zeroext) unnamed_addr #0 comdat align 2 {
  ret void
}

; Function Attrs: nounwind ssp uwtable
define linkonce_odr hidden void @_ZN7content19WebContentsObserver24InnerWebContentsDetachedEPNS_11WebContentsE(%"class.content::WebContentsObserver"*, %"class.content::WebContents"*) unnamed_addr #0 comdat align 2 {
  ret void
}

; Function Attrs: nounwind ssp uwtable
define linkonce_odr hidden void @_ZN7content19WebContentsObserver24DidCloneToNewWebContentsEPNS_11WebContentsES2_(%"class.content::WebContentsObserver"*, %"class.content::WebContents"*, %"class.content::WebContents"*) unnamed_addr #0 comdat align 2 {
  ret void
}

; Function Attrs: nounwind ssp uwtable
define linkonce_odr hidden void @_ZN7content19WebContentsObserver20WebContentsDestroyedEv(%"class.content::WebContentsObserver"*) unnamed_addr #0 comdat align 2 {
  ret void
}

; Function Attrs: nounwind ssp uwtable
define linkonce_odr hidden void @_ZN7content19WebContentsObserver20UserAgentOverrideSetERKN5blink17UserAgentOverrideE(%"class.content::WebContentsObserver"*, %"struct.blink::UserAgentOverride"* dereferenceable(184)) unnamed_addr #0 comdat align 2 {
  ret void
}

; Function Attrs: nounwind ssp uwtable
define linkonce_odr hidden void @_ZN7content19WebContentsObserver19DidUpdateFaviconURLEPNS_15RenderFrameHostERKNSt3__16vectorIN4mojo9StructPtrIN5blink5mojom10FaviconURLEEENS3_9allocatorISA_EEEE(%"class.content::WebContentsObserver"*, %"class.content::RenderFrameHost"*, %"class.std::__1::vector.278"*) unnamed_addr #0 comdat align 2 {
  ret void
}

; Function Attrs: nounwind ssp uwtable
define linkonce_odr hidden void @_ZN7content19WebContentsObserver19OnAudioStateChangedEb(%"class.content::WebContentsObserver"*, i1 zeroext) unnamed_addr #0 comdat align 2 {
  ret void
}

; Function Attrs: nounwind ssp uwtable
define linkonce_odr hidden void @_ZN7content19WebContentsObserver24OnFrameAudioStateChangedEPNS_15RenderFrameHostEb(%"class.content::WebContentsObserver"*, %"class.content::RenderFrameHost"*, i1 zeroext) unnamed_addr #0 comdat align 2 {
  ret void
}

; Function Attrs: nounwind ssp uwtable
define linkonce_odr hidden void @_ZN7content19WebContentsObserver37OnIsConnectedToBluetoothDeviceChangedEb(%"class.content::WebContentsObserver"*, i1 zeroext) unnamed_addr #0 comdat align 2 {
  ret void
}

; Function Attrs: nounwind ssp uwtable
define linkonce_odr hidden void @_ZN7content19WebContentsObserver25DidUpdateAudioMutingStateEb(%"class.content::WebContentsObserver"*, i1 zeroext) unnamed_addr #0 comdat align 2 {
  ret void
}

; Function Attrs: nounwind ssp uwtable
define linkonce_odr hidden void @_ZN7content19WebContentsObserver29DidToggleFullscreenModeForTabEbb(%"class.content::WebContentsObserver"*, i1 zeroext, i1 zeroext) unnamed_addr #0 comdat align 2 {
  ret void
}

; Function Attrs: nounwind ssp uwtable
define linkonce_odr hidden void @_ZN7content19WebContentsObserver20DidAcquireFullscreenEPNS_15RenderFrameHostE(%"class.content::WebContentsObserver"*, %"class.content::RenderFrameHost"*) unnamed_addr #0 comdat align 2 {
  ret void
}

; Function Attrs: nounwind ssp uwtable
define linkonce_odr hidden void @_ZN7content19WebContentsObserver32DidChangeVerticalScrollDirectionEN3viz23VerticalScrollDirectionE(%"class.content::WebContentsObserver"*, i32) unnamed_addr #0 comdat align 2 {
  ret void
}

; Function Attrs: nounwind ssp uwtable
define linkonce_odr hidden void @_ZN7content19WebContentsObserver27BeforeFormRepostWarningShowEv(%"class.content::WebContentsObserver"*) unnamed_addr #0 comdat align 2 {
  ret void
}

; Function Attrs: nounwind ssp uwtable
define linkonce_odr hidden void @_ZN7content19WebContentsObserver17BeforeUnloadFiredEbRKN4base9TimeTicksE(%"class.content::WebContentsObserver"*, i1 zeroext, %"class.base::TimeTicks"* dereferenceable(8)) unnamed_addr #0 comdat align 2 {
  ret void
}

; Function Attrs: nounwind ssp uwtable
define linkonce_odr hidden void @_ZN7content19WebContentsObserver27BeforeUnloadDialogCancelledEv(%"class.content::WebContentsObserver"*) unnamed_addr #0 comdat align 2 {
  ret void
}

; Function Attrs: nounwind ssp uwtable
define linkonce_odr hidden void @_ZN7content19WebContentsObserver30AXTreeIDForMainFrameHasChangedEv(%"class.content::WebContentsObserver"*) unnamed_addr #0 comdat align 2 {
  ret void
}

; Function Attrs: nounwind ssp uwtable
define linkonce_odr hidden void @_ZN7content19WebContentsObserver26AccessibilityEventReceivedERKNS_26AXEventNotificationDetailsE(%"class.content::WebContentsObserver"*, %"struct.content::AXEventNotificationDetails"*) unnamed_addr #0 comdat align 2 {
  ret void
}

; Function Attrs: nounwind ssp uwtable
define linkonce_odr hidden void @_ZN7content19WebContentsObserver36AccessibilityLocationChangesReceivedERKNSt3__16vectorINS_35AXLocationChangeNotificationDetailsENS1_9allocatorIS3_EEEE(%"class.content::WebContentsObserver"*, %"class.std::__1::vector.279"*) unnamed_addr #0 comdat align 2 {
  ret void
}

; Function Attrs: nounwind ssp uwtable
define linkonce_odr hidden void @_ZN7content19WebContentsObserver19DidChangeThemeColorEv(%"class.content::WebContentsObserver"*) unnamed_addr #0 comdat align 2 {
  ret void
}

; Function Attrs: nounwind ssp uwtable
define linkonce_odr hidden void @_ZN7content19WebContentsObserver24OnBackgroundColorChangedEv(%"class.content::WebContentsObserver"*) unnamed_addr #0 comdat align 2 {
  ret void
}

; Function Attrs: nounwind ssp uwtable
define linkonce_odr hidden void @_ZN7content19WebContentsObserver24OnDidAddMessageToConsoleEPNS_15RenderFrameHostEN5blink5mojom19ConsoleMessageLevelERKNSt3__112basic_stringIDsNS6_11char_traitsIDsEENS6_9allocatorIDsEEEEiSE_RKN4absl8optionalISC_EE(%"class.content::WebContentsObserver"*, %"class.content::RenderFrameHost"*, i32, %"class.std::__1::basic_string.280"* dereferenceable(24), i32, %"class.std::__1::basic_string.280"* dereferenceable(24), %"class.absl::optional.289"*) unnamed_addr #0 comdat align 2 {
  ret void
}

; Function Attrs: nounwind ssp uwtable
define linkonce_odr hidden void @_ZN7content19WebContentsObserver19MediaStartedPlayingERKNS0_15MediaPlayerInfoERKNS_13MediaPlayerIdE(%"class.content::WebContentsObserver"*, %"struct.content::WebContentsObserver::MediaPlayerInfo"* dereferenceable(2), %"struct.content::MediaPlayerId"*) unnamed_addr #0 comdat align 2 {
  ret void
}

; Function Attrs: nounwind ssp uwtable
define linkonce_odr hidden void @_ZN7content19WebContentsObserver19MediaStoppedPlayingERKNS0_15MediaPlayerInfoERKNS_13MediaPlayerIdENS0_18MediaStoppedReasonE(%"class.content::WebContentsObserver"*, %"struct.content::WebContentsObserver::MediaPlayerInfo"* dereferenceable(2), %"struct.content::MediaPlayerId"*, i32) unnamed_addr #0 comdat align 2 {
  ret void
}

; Function Attrs: nounwind ssp uwtable
define linkonce_odr hidden void @_ZN7content19WebContentsObserver12MediaResizedERKN3gfx4SizeERKNS_13MediaPlayerIdE(%"class.content::WebContentsObserver"*, %"class.gfx::Size"* dereferenceable(8), %"struct.content::MediaPlayerId"*) unnamed_addr #0 comdat align 2 {
  ret void
}

; Function Attrs: nounwind ssp uwtable
define linkonce_odr hidden void @_ZN7content19WebContentsObserver33MediaEffectivelyFullscreenChangedEb(%"class.content::WebContentsObserver"*, i1 zeroext) unnamed_addr #0 comdat align 2 {
  ret void
}

; Function Attrs: nounwind ssp uwtable
define linkonce_odr hidden void @_ZN7content19WebContentsObserver28MediaPictureInPictureChangedEb(%"class.content::WebContentsObserver"*, i1 zeroext) unnamed_addr #0 comdat align 2 {
  ret void
}

; Function Attrs: nounwind ssp uwtable
define linkonce_odr hidden void @_ZN7content19WebContentsObserver23MediaMutedStatusChangedERKNS_13MediaPlayerIdEb(%"class.content::WebContentsObserver"*, %"struct.content::MediaPlayerId"*, i1 zeroext) unnamed_addr #0 comdat align 2 {
  ret void
}

; Function Attrs: nounwind ssp uwtable
define linkonce_odr hidden void @_ZN7content19WebContentsObserver20MediaBufferUnderflowERKNS_13MediaPlayerIdE(%"class.content::WebContentsObserver"*, %"struct.content::MediaPlayerId"*) unnamed_addr #0 comdat align 2 {
  ret void
}

; Function Attrs: nounwind ssp uwtable
define linkonce_odr hidden void @_ZN7content19WebContentsObserver15MediaPlayerSeekERKNS_13MediaPlayerIdE(%"class.content::WebContentsObserver"*, %"struct.content::MediaPlayerId"*) unnamed_addr #0 comdat align 2 {
  ret void
}

; Function Attrs: nounwind ssp uwtable
define linkonce_odr hidden void @_ZN7content19WebContentsObserver14MediaDestroyedERKNS_13MediaPlayerIdE(%"class.content::WebContentsObserver"*, %"struct.content::MediaPlayerId"*) unnamed_addr #0 comdat align 2 {
  ret void
}

; Function Attrs: nounwind ssp uwtable
define linkonce_odr hidden void @_ZN7content19WebContentsObserver24OnPageScaleFactorChangedEf(%"class.content::WebContentsObserver"*, float) unnamed_addr #0 comdat align 2 {
  ret void
}

; Function Attrs: nounwind ssp uwtable
define linkonce_odr hidden void @_ZN7content19WebContentsObserver7OnPasteEv(%"class.content::WebContentsObserver"*) unnamed_addr #0 comdat align 2 {
  ret void
}

declare zeroext i1 @_ZN7content19WebContentsObserver17OnMessageReceivedERKN3IPC7MessageEPNS_15RenderFrameHostE(%"class.content::WebContentsObserver"*, %"class.IPC::Message"* dereferenceable(56), %"class.content::RenderFrameHost"*) unnamed_addr #5

; Function Attrs: nounwind ssp uwtable
define linkonce_odr hidden void @_ZN7content19WebContentsObserver20OnWebContentsFocusedEPNS_16RenderWidgetHostE(%"class.content::WebContentsObserver"*, %"class.content::RenderWidgetHost"*) unnamed_addr #0 comdat align 2 {
  ret void
}

; Function Attrs: nounwind ssp uwtable
define linkonce_odr hidden void @_ZN7content19WebContentsObserver22OnWebContentsLostFocusEPNS_16RenderWidgetHostE(%"class.content::WebContentsObserver"*, %"class.content::RenderWidgetHost"*) unnamed_addr #0 comdat align 2 {
  ret void
}

; Function Attrs: nounwind ssp uwtable
define linkonce_odr hidden void @_ZN7content19WebContentsObserver20OnFocusChangedInPageEPNS_18FocusedNodeDetailsE(%"class.content::WebContentsObserver"*, %"struct.content::FocusedNodeDetails"*) unnamed_addr #0 comdat align 2 {
  ret void
}

; Function Attrs: nounwind ssp uwtable
define linkonce_odr hidden void @_ZN7content19WebContentsObserver23DidUpdateWebManifestURLEPNS_15RenderFrameHostERKN4absl8optionalI4GURLEE(%"class.content::WebContentsObserver"*, %"class.content::RenderFrameHost"*, %"class.absl::optional.290"* dereferenceable(128)) unnamed_addr #0 comdat align 2 {
  ret void
}

; Function Attrs: nounwind ssp uwtable
define linkonce_odr hidden void @_ZN7content19WebContentsObserver27OnInterfaceRequestFromFrameEPNS_15RenderFrameHostERKNSt3__112basic_stringIcNS3_11char_traitsIcEENS3_9allocatorIcEEEEPN4mojo16ScopedHandleBaseINSC_17MessagePipeHandleEEE(%"class.content::WebContentsObserver"*, %"class.content::RenderFrameHost"*, %"class.std::__1::basic_string"* dereferenceable(24), %"class.mojo::ScopedHandleBase"*) unnamed_addr #0 comdat align 2 {
  ret void
}

; Function Attrs: nounwind ssp uwtable
define linkonce_odr hidden void @_ZN7content19WebContentsObserver27AudioContextPlaybackStartedERKNSt3__14pairIPNS_15RenderFrameHostEiEE(%"class.content::WebContentsObserver"*, %"struct.std::__1::pair"*) unnamed_addr #0 comdat align 2 {
  ret void
}

; Function Attrs: nounwind ssp uwtable
define linkonce_odr hidden void @_ZN7content19WebContentsObserver27AudioContextPlaybackStoppedERKNSt3__14pairIPNS_15RenderFrameHostEiEE(%"class.content::WebContentsObserver"*, %"struct.std::__1::pair"*) unnamed_addr #0 comdat align 2 {
  ret void
}

; Function Attrs: nounwind ssp uwtable
define linkonce_odr hidden void @_ZN7content19WebContentsObserver23OnServiceWorkerAccessedEPNS_15RenderFrameHostERK4GURLNS_24AllowServiceWorkerResultE(%"class.content::WebContentsObserver"*, %"class.content::RenderFrameHost"*, %class.GURL* dereferenceable(120), i24) unnamed_addr #0 comdat align 2 {
  ret void
}

; Function Attrs: nounwind ssp uwtable
define linkonce_odr hidden void @_ZN7content19WebContentsObserver23OnServiceWorkerAccessedEPNS_16NavigationHandleERK4GURLNS_24AllowServiceWorkerResultE(%"class.content::WebContentsObserver"*, %"class.content::NavigationHandle"*, %class.GURL* dereferenceable(120), i24) unnamed_addr #0 comdat align 2 {
  ret void
}

declare void @_ZN4base16SupportsUserData4Data5CloneEv() unnamed_addr

; Function Attrs: nounwind ssp uwtable
define linkonce_odr hidden void @_ZN7content27WebContentsFrameReceiverSetIN6chrome5mojom19NetErrorPageSupportEE20FrameInterfaceBinderD2Ev(%"class.content::WebContentsFrameReceiverSet<chrome::mojom::NetErrorPageSupport>::FrameInterfaceBinder"*) unnamed_addr #0 comdat align 2 {
  %2 = getelementptr inbounds %"class.content::WebContentsFrameReceiverSet<chrome::mojom::NetErrorPageSupport>::FrameInterfaceBinder", %"class.content::WebContentsFrameReceiverSet<chrome::mojom::NetErrorPageSupport>::FrameInterfaceBinder"* %0, i64 0, i32 1
  %3 = bitcast %"class.content::WebContentsFrameReceiverSet<chrome::mojom::NetErrorPageSupport>::FrameInterfaceBinder"* %0 to <2 x i32 (...)**>*
  store <2 x i32 (...)**> <i32 (...)** bitcast (i8** getelementptr inbounds ({ [7 x i8*], [109 x i8*] }, { [7 x i8*], [109 x i8*] }* @_ZTVN7content27WebContentsFrameReceiverSetIN6chrome5mojom19NetErrorPageSupportEE20FrameInterfaceBinderE, i64 0, inrange i32 0, i64 2) to i32 (...)**), i32 (...)** bitcast (i8** getelementptr inbounds ({ [7 x i8*], [109 x i8*] }, { [7 x i8*], [109 x i8*] }* @_ZTVN7content27WebContentsFrameReceiverSetIN6chrome5mojom19NetErrorPageSupportEE20FrameInterfaceBinderE, i64 0, inrange i32 1, i64 2) to i32 (...)**)>, <2 x i32 (...)**>* %3, align 8
  %4 = getelementptr inbounds %"class.content::WebContentsFrameReceiverSet<chrome::mojom::NetErrorPageSupport>::FrameInterfaceBinder", %"class.content::WebContentsFrameReceiverSet<chrome::mojom::NetErrorPageSupport>::FrameInterfaceBinder"* %0, i64 0, i32 4, i32 0
  %5 = getelementptr inbounds %"class.content::WebContentsFrameReceiverSet<chrome::mojom::NetErrorPageSupport>::FrameInterfaceBinder", %"class.content::WebContentsFrameReceiverSet<chrome::mojom::NetErrorPageSupport>::FrameInterfaceBinder"* %0, i64 0, i32 4, i32 0, i32 1, i32 0, i32 0
  %6 = bitcast %"class.std::__1::__tree_end_node"* %5 to %"class.std::__1::__tree_node"**
  %7 = load %"class.std::__1::__tree_node"*, %"class.std::__1::__tree_node"** %6, align 8
  tail call void @_ZNSt3__16__treeINS_12__value_typeIPN7content15RenderFrameHostENS_6vectorImNS_9allocatorImEEEEEENS_19__map_value_compareIS4_S9_NS_4lessIS4_EELb1EEENS6_IS9_EEE7destroyEPNS_11__tree_nodeIS9_PvEE(%"class.std::__1::__tree.25"* %4, %"class.std::__1::__tree_node"* %7) #10
  %8 = getelementptr inbounds %"class.content::WebContentsFrameReceiverSet<chrome::mojom::NetErrorPageSupport>::FrameInterfaceBinder", %"class.content::WebContentsFrameReceiverSet<chrome::mojom::NetErrorPageSupport>::FrameInterfaceBinder"* %0, i64 0, i32 3, i32 0
  tail call void @_ZN4mojo16ReceiverSetStateD1Ev(%"class.mojo::ReceiverSetState"* %8) #10
  tail call void @_ZN7content19WebContentsObserverD2Ev(%"class.content::WebContentsObserver"* %2) #10
  ret void
}

; Function Attrs: nounwind
declare void @_ZN7content22WebContentsReceiverSetD2Ev(%"class.content::WebContentsReceiverSet"*) unnamed_addr #1

; Function Attrs: nounwind ssp uwtable
define linkonce_odr hidden void @_ZThn8_N7content27WebContentsFrameReceiverSetIN6chrome5mojom19NetErrorPageSupportEE20FrameInterfaceBinderD1Ev(%"class.content::WebContentsFrameReceiverSet<chrome::mojom::NetErrorPageSupport>::FrameInterfaceBinder"*) unnamed_addr #0 comdat align 2 {
  %2 = getelementptr inbounds %"class.content::WebContentsFrameReceiverSet<chrome::mojom::NetErrorPageSupport>::FrameInterfaceBinder", %"class.content::WebContentsFrameReceiverSet<chrome::mojom::NetErrorPageSupport>::FrameInterfaceBinder"* %0, i64 -1, i32 4, i32 0, i32 2
  %3 = getelementptr inbounds %"class.std::__1::__compressed_pair.30", %"class.std::__1::__compressed_pair.30"* %2, i64 1
  %4 = bitcast %"class.std::__1::__compressed_pair.30"* %3 to %"class.content::WebContentsObserver"*
  %5 = bitcast %"class.std::__1::__compressed_pair.30"* %2 to <2 x i32 (...)**>*
  store <2 x i32 (...)**> <i32 (...)** bitcast (i8** getelementptr inbounds ({ [7 x i8*], [109 x i8*] }, { [7 x i8*], [109 x i8*] }* @_ZTVN7content27WebContentsFrameReceiverSetIN6chrome5mojom19NetErrorPageSupportEE20FrameInterfaceBinderE, i64 0, inrange i32 0, i64 2) to i32 (...)**), i32 (...)** bitcast (i8** getelementptr inbounds ({ [7 x i8*], [109 x i8*] }, { [7 x i8*], [109 x i8*] }* @_ZTVN7content27WebContentsFrameReceiverSetIN6chrome5mojom19NetErrorPageSupportEE20FrameInterfaceBinderE, i64 0, inrange i32 1, i64 2) to i32 (...)**)>, <2 x i32 (...)**>* %5, align 8
  %6 = getelementptr inbounds %"class.std::__1::__compressed_pair.30", %"class.std::__1::__compressed_pair.30"* %2, i64 14
  %7 = bitcast %"class.std::__1::__compressed_pair.30"* %6 to %"class.std::__1::__tree.25"*
  %8 = getelementptr inbounds %"class.std::__1::__compressed_pair.30", %"class.std::__1::__compressed_pair.30"* %2, i64 15
  %9 = bitcast %"class.std::__1::__compressed_pair.30"* %8 to %"class.std::__1::__tree_node"**
  %10 = load %"class.std::__1::__tree_node"*, %"class.std::__1::__tree_node"** %9, align 8
  tail call void @_ZNSt3__16__treeINS_12__value_typeIPN7content15RenderFrameHostENS_6vectorImNS_9allocatorImEEEEEENS_19__map_value_compareIS4_S9_NS_4lessIS4_EELb1EEENS6_IS9_EEE7destroyEPNS_11__tree_nodeIS9_PvEE(%"class.std::__1::__tree.25"* %7, %"class.std::__1::__tree_node"* %10) #10
  %11 = getelementptr inbounds %"class.std::__1::__compressed_pair.30", %"class.std::__1::__compressed_pair.30"* %2, i64 4
  %12 = bitcast %"class.std::__1::__compressed_pair.30"* %11 to %"class.mojo::ReceiverSetState"*
  tail call void @_ZN4mojo16ReceiverSetStateD1Ev(%"class.mojo::ReceiverSetState"* %12) #10
  tail call void @_ZN7content19WebContentsObserverD2Ev(%"class.content::WebContentsObserver"* %4) #10
  ret void
}

; Function Attrs: nounwind ssp uwtable
define linkonce_odr hidden void @_ZN7content27WebContentsFrameReceiverSetIN6chrome5mojom19NetErrorPageSupportEE20FrameInterfaceBinderD0Ev(%"class.content::WebContentsFrameReceiverSet<chrome::mojom::NetErrorPageSupport>::FrameInterfaceBinder"*) unnamed_addr #0 comdat align 2 {
  %2 = getelementptr inbounds %"class.content::WebContentsFrameReceiverSet<chrome::mojom::NetErrorPageSupport>::FrameInterfaceBinder", %"class.content::WebContentsFrameReceiverSet<chrome::mojom::NetErrorPageSupport>::FrameInterfaceBinder"* %0, i64 0, i32 1
  %3 = bitcast %"class.content::WebContentsFrameReceiverSet<chrome::mojom::NetErrorPageSupport>::FrameInterfaceBinder"* %0 to <2 x i32 (...)**>*
  store <2 x i32 (...)**> <i32 (...)** bitcast (i8** getelementptr inbounds ({ [7 x i8*], [109 x i8*] }, { [7 x i8*], [109 x i8*] }* @_ZTVN7content27WebContentsFrameReceiverSetIN6chrome5mojom19NetErrorPageSupportEE20FrameInterfaceBinderE, i64 0, inrange i32 0, i64 2) to i32 (...)**), i32 (...)** bitcast (i8** getelementptr inbounds ({ [7 x i8*], [109 x i8*] }, { [7 x i8*], [109 x i8*] }* @_ZTVN7content27WebContentsFrameReceiverSetIN6chrome5mojom19NetErrorPageSupportEE20FrameInterfaceBinderE, i64 0, inrange i32 1, i64 2) to i32 (...)**)>, <2 x i32 (...)**>* %3, align 8
  %4 = getelementptr inbounds %"class.content::WebContentsFrameReceiverSet<chrome::mojom::NetErrorPageSupport>::FrameInterfaceBinder", %"class.content::WebContentsFrameReceiverSet<chrome::mojom::NetErrorPageSupport>::FrameInterfaceBinder"* %0, i64 0, i32 4, i32 0
  %5 = getelementptr inbounds %"class.content::WebContentsFrameReceiverSet<chrome::mojom::NetErrorPageSupport>::FrameInterfaceBinder", %"class.content::WebContentsFrameReceiverSet<chrome::mojom::NetErrorPageSupport>::FrameInterfaceBinder"* %0, i64 0, i32 4, i32 0, i32 1, i32 0, i32 0
  %6 = bitcast %"class.std::__1::__tree_end_node"* %5 to %"class.std::__1::__tree_node"**
  %7 = load %"class.std::__1::__tree_node"*, %"class.std::__1::__tree_node"** %6, align 8
  tail call void @_ZNSt3__16__treeINS_12__value_typeIPN7content15RenderFrameHostENS_6vectorImNS_9allocatorImEEEEEENS_19__map_value_compareIS4_S9_NS_4lessIS4_EELb1EEENS6_IS9_EEE7destroyEPNS_11__tree_nodeIS9_PvEE(%"class.std::__1::__tree.25"* %4, %"class.std::__1::__tree_node"* %7) #10
  %8 = getelementptr inbounds %"class.content::WebContentsFrameReceiverSet<chrome::mojom::NetErrorPageSupport>::FrameInterfaceBinder", %"class.content::WebContentsFrameReceiverSet<chrome::mojom::NetErrorPageSupport>::FrameInterfaceBinder"* %0, i64 0, i32 3, i32 0
  tail call void @_ZN4mojo16ReceiverSetStateD1Ev(%"class.mojo::ReceiverSetState"* %8) #10
  tail call void @_ZN7content19WebContentsObserverD2Ev(%"class.content::WebContentsObserver"* %2) #10
  %9 = bitcast %"class.content::WebContentsFrameReceiverSet<chrome::mojom::NetErrorPageSupport>::FrameInterfaceBinder"* %0 to i8*
  tail call void @_ZdlPv(i8* %9) #11
  ret void
}

; Function Attrs: nounwind ssp uwtable
define linkonce_odr hidden void @_ZN7content27WebContentsFrameReceiverSetIN6chrome5mojom19NetErrorPageSupportEE20FrameInterfaceBinder18OnReceiverForFrameEPNS_15RenderFrameHostEN4mojo29ScopedInterfaceEndpointHandleE(%"class.content::WebContentsFrameReceiverSet<chrome::mojom::NetErrorPageSupport>::FrameInterfaceBinder"*, %"class.content::RenderFrameHost"*, %"class.mojo::ScopedInterfaceEndpointHandle"*) unnamed_addr #0 comdat align 2 {
  %4 = alloca %"class.mojo::PendingAssociatedReceiver", align 8
  %5 = alloca %"class.mojo::PendingAssociatedReceiver", align 8
  %6 = alloca %"class.mojo::ScopedInterfaceEndpointHandle", align 8
  %7 = ptrtoint %"class.content::RenderFrameHost"* %1 to i64
  %8 = getelementptr inbounds %"class.content::WebContentsFrameReceiverSet<chrome::mojom::NetErrorPageSupport>::FrameInterfaceBinder", %"class.content::WebContentsFrameReceiverSet<chrome::mojom::NetErrorPageSupport>::FrameInterfaceBinder"* %0, i64 0, i32 3
  %9 = getelementptr inbounds %"class.content::WebContentsFrameReceiverSet<chrome::mojom::NetErrorPageSupport>::FrameInterfaceBinder", %"class.content::WebContentsFrameReceiverSet<chrome::mojom::NetErrorPageSupport>::FrameInterfaceBinder"* %0, i64 0, i32 2
  %10 = load %"class.chrome::mojom::NetErrorPageSupport"*, %"class.chrome::mojom::NetErrorPageSupport"** %9, align 8
  call void @_ZN4mojo29ScopedInterfaceEndpointHandleC1EOS0_(%"class.mojo::ScopedInterfaceEndpointHandle"* nonnull %6, %"class.mojo::ScopedInterfaceEndpointHandle"* dereferenceable(8) %2) #10
  %11 = getelementptr inbounds %"class.mojo::PendingAssociatedReceiver", %"class.mojo::PendingAssociatedReceiver"* %5, i64 0, i32 0
  call void @_ZN4mojo29ScopedInterfaceEndpointHandleC1EOS0_(%"class.mojo::ScopedInterfaceEndpointHandle"* nonnull %11, %"class.mojo::ScopedInterfaceEndpointHandle"* nonnull dereferenceable(8) %6) #10
  %12 = bitcast %"class.mojo::PendingAssociatedReceiver"* %4 to i8*
  call void @llvm.lifetime.start.p0i8(i64 8, i8* nonnull %12)
  %13 = getelementptr inbounds %"class.mojo::PendingAssociatedReceiver", %"class.mojo::PendingAssociatedReceiver"* %4, i64 0, i32 0
  call void @_ZN4mojo29ScopedInterfaceEndpointHandleC1EOS0_(%"class.mojo::ScopedInterfaceEndpointHandle"* nonnull %13, %"class.mojo::ScopedInterfaceEndpointHandle"* nonnull dereferenceable(8) %11) #10
  %14 = call i64 @_ZN4mojo15ReceiverSetBaseINS_18AssociatedReceiverIN6chrome5mojom19NetErrorPageSupportENS_19RawPtrImplRefTraitsIS4_EEEEPN7content15RenderFrameHostEE7AddImplEPS4_NS_25PendingAssociatedReceiverIS4_EESA_13scoped_refptrIN4base19SequencedTaskRunnerEE(%"class.mojo::ReceiverSetBase.38"* %8, %"class.chrome::mojom::NetErrorPageSupport"* %10, %"class.mojo::PendingAssociatedReceiver"* nonnull %4, %"class.content::RenderFrameHost"* %1, %"class.base::SequencedTaskRunner"* null) #10
  call void @_ZN4mojo29ScopedInterfaceEndpointHandleD1Ev(%"class.mojo::ScopedInterfaceEndpointHandle"* nonnull %13) #10
  call void @llvm.lifetime.end.p0i8(i64 8, i8* nonnull %12)
  call void @_ZN4mojo29ScopedInterfaceEndpointHandleD1Ev(%"class.mojo::ScopedInterfaceEndpointHandle"* nonnull %11) #10
  call void @_ZN4mojo29ScopedInterfaceEndpointHandleD1Ev(%"class.mojo::ScopedInterfaceEndpointHandle"* nonnull %6) #10
  %15 = getelementptr inbounds %"class.content::WebContentsFrameReceiverSet<chrome::mojom::NetErrorPageSupport>::FrameInterfaceBinder", %"class.content::WebContentsFrameReceiverSet<chrome::mojom::NetErrorPageSupport>::FrameInterfaceBinder"* %0, i64 0, i32 4
  %16 = getelementptr inbounds %"class.content::WebContentsFrameReceiverSet<chrome::mojom::NetErrorPageSupport>::FrameInterfaceBinder", %"class.content::WebContentsFrameReceiverSet<chrome::mojom::NetErrorPageSupport>::FrameInterfaceBinder"* %0, i64 0, i32 4, i32 0, i32 1, i32 0, i32 0
  %17 = bitcast %"class.std::__1::__tree_end_node"* %16 to %"class.std::__1::__tree_node"**
  %18 = load %"class.std::__1::__tree_node"*, %"class.std::__1::__tree_node"** %17, align 8
  %19 = icmp eq %"class.std::__1::__tree_node"* %18, null
  br i1 %19, label %48, label %20

20:                                               ; preds = %3
  %21 = getelementptr inbounds %"class.content::WebContentsFrameReceiverSet<chrome::mojom::NetErrorPageSupport>::FrameInterfaceBinder", %"class.content::WebContentsFrameReceiverSet<chrome::mojom::NetErrorPageSupport>::FrameInterfaceBinder"* %0, i64 0, i32 4, i32 0, i32 1, i32 0, i32 0, i32 0
  br label %22

22:                                               ; preds = %44, %20
  %23 = phi %"class.std::__1::__tree_node"* [ %47, %44 ], [ %18, %20 ]
  %24 = phi %"class.std::__1::__tree_node_base"** [ %46, %44 ], [ %21, %20 ]
  %25 = getelementptr inbounds %"class.std::__1::__tree_node", %"class.std::__1::__tree_node"* %23, i64 0, i32 1, i32 0, i32 0
  %26 = load %"class.content::RenderFrameHost"*, %"class.content::RenderFrameHost"** %25, align 8
  %27 = icmp ugt %"class.content::RenderFrameHost"* %26, %1
  br i1 %27, label %28, label %34

28:                                               ; preds = %22
  %29 = getelementptr inbounds %"class.std::__1::__tree_node", %"class.std::__1::__tree_node"* %23, i64 0, i32 0, i32 0, i32 0
  %30 = load %"class.std::__1::__tree_node_base"*, %"class.std::__1::__tree_node_base"** %29, align 8
  %31 = icmp eq %"class.std::__1::__tree_node_base"* %30, null
  br i1 %31, label %32, label %44

32:                                               ; preds = %28
  %33 = getelementptr inbounds %"class.std::__1::__tree_node", %"class.std::__1::__tree_node"* %23, i64 0, i32 0, i32 0
  br label %50

34:                                               ; preds = %22
  %35 = icmp ult %"class.content::RenderFrameHost"* %26, %1
  br i1 %35, label %36, label %42

36:                                               ; preds = %34
  %37 = getelementptr inbounds %"class.std::__1::__tree_node", %"class.std::__1::__tree_node"* %23, i64 0, i32 0, i32 1
  %38 = load %"class.std::__1::__tree_node_base"*, %"class.std::__1::__tree_node_base"** %37, align 8
  %39 = icmp eq %"class.std::__1::__tree_node_base"* %38, null
  br i1 %39, label %40, label %44

40:                                               ; preds = %36
  %41 = getelementptr inbounds %"class.std::__1::__tree_node", %"class.std::__1::__tree_node"* %23, i64 0, i32 0, i32 0
  br label %50

42:                                               ; preds = %34
  %43 = getelementptr inbounds %"class.std::__1::__tree_node", %"class.std::__1::__tree_node"* %23, i64 0, i32 0, i32 0
  br label %50

44:                                               ; preds = %36, %28
  %45 = phi %"class.std::__1::__tree_node_base"* [ %30, %28 ], [ %38, %36 ]
  %46 = phi %"class.std::__1::__tree_node_base"** [ %29, %28 ], [ %37, %36 ]
  %47 = bitcast %"class.std::__1::__tree_node_base"* %45 to %"class.std::__1::__tree_node"*
  br label %22

48:                                               ; preds = %3
  %49 = getelementptr inbounds %"class.std::__1::__tree_end_node", %"class.std::__1::__tree_end_node"* %16, i64 0, i32 0
  br label %50

50:                                               ; preds = %48, %42, %40, %32
  %51 = phi %"class.std::__1::__tree_end_node"* [ %16, %48 ], [ %33, %32 ], [ %41, %40 ], [ %43, %42 ]
  %52 = phi %"class.std::__1::__tree_node_base"** [ %49, %48 ], [ %29, %32 ], [ %37, %40 ], [ %24, %42 ]
  %53 = bitcast %"class.std::__1::__tree_node_base"** %52 to %"class.std::__1::__tree_node"**
  %54 = load %"class.std::__1::__tree_node"*, %"class.std::__1::__tree_node"** %53, align 8
  %55 = icmp eq %"class.std::__1::__tree_node"* %54, null
  br i1 %55, label %56, label %82

56:                                               ; preds = %50
  %57 = call i8* @_Znwm(i64 64) #11, !noalias !11
  %58 = getelementptr inbounds i8, i8* %57, i64 32
  %59 = bitcast i8* %58 to i64*
  store i64 %7, i64* %59, align 8, !noalias !11
  %60 = getelementptr inbounds i8, i8* %57, i64 40
  call void @llvm.memset.p0i8.i64(i8* align 8 %60, i8 0, i64 24, i1 false) #10, !noalias !11
  %61 = bitcast i8* %57 to %"class.std::__1::__tree_node"*
  %62 = bitcast i8* %57 to %"class.std::__1::__tree_node_base"*
  %63 = getelementptr inbounds i8, i8* %57, i64 16
  %64 = bitcast i8* %63 to %"class.std::__1::__tree_end_node"**
  call void @llvm.memset.p0i8.i64(i8* nonnull align 8 %57, i8 0, i64 16, i1 false) #10
  store %"class.std::__1::__tree_end_node"* %51, %"class.std::__1::__tree_end_node"** %64, align 8
  %65 = bitcast %"class.std::__1::__tree_node_base"** %52 to i8**
  store i8* %57, i8** %65, align 8
  %66 = getelementptr inbounds %"class.std::__1::map.24", %"class.std::__1::map.24"* %15, i64 0, i32 0, i32 0
  %67 = load %"class.std::__1::__tree_end_node"*, %"class.std::__1::__tree_end_node"** %66, align 8
  %68 = getelementptr inbounds %"class.std::__1::__tree_end_node", %"class.std::__1::__tree_end_node"* %67, i64 0, i32 0
  %69 = load %"class.std::__1::__tree_node_base"*, %"class.std::__1::__tree_node_base"** %68, align 8
  %70 = icmp eq %"class.std::__1::__tree_node_base"* %69, null
  br i1 %70, label %75, label %71

71:                                               ; preds = %56
  %72 = ptrtoint %"class.std::__1::__tree_node_base"* %69 to i64
  %73 = bitcast %"class.std::__1::map.24"* %15 to i64*
  store i64 %72, i64* %73, align 8
  %74 = load %"class.std::__1::__tree_node_base"*, %"class.std::__1::__tree_node_base"** %52, align 8
  br label %75

75:                                               ; preds = %71, %56
  %76 = phi %"class.std::__1::__tree_node_base"* [ %62, %56 ], [ %74, %71 ]
  %77 = getelementptr inbounds %"class.content::WebContentsFrameReceiverSet<chrome::mojom::NetErrorPageSupport>::FrameInterfaceBinder", %"class.content::WebContentsFrameReceiverSet<chrome::mojom::NetErrorPageSupport>::FrameInterfaceBinder"* %0, i64 0, i32 4, i32 0, i32 1, i32 0, i32 0, i32 0
  %78 = load %"class.std::__1::__tree_node_base"*, %"class.std::__1::__tree_node_base"** %77, align 8
  call void @_ZNSt3__127__tree_balance_after_insertIPNS_16__tree_node_baseIPvEEEEvT_S5_(%"class.std::__1::__tree_node_base"* %78, %"class.std::__1::__tree_node_base"* %76) #10
  %79 = getelementptr inbounds %"class.content::WebContentsFrameReceiverSet<chrome::mojom::NetErrorPageSupport>::FrameInterfaceBinder", %"class.content::WebContentsFrameReceiverSet<chrome::mojom::NetErrorPageSupport>::FrameInterfaceBinder"* %0, i64 0, i32 4, i32 0, i32 2, i32 0, i32 0
  %80 = load i64, i64* %79, align 8
  %81 = add i64 %80, 1
  store i64 %81, i64* %79, align 8
  br label %82

82:                                               ; preds = %50, %75
  %83 = phi %"class.std::__1::__tree_node"* [ %61, %75 ], [ %54, %50 ]
  %84 = getelementptr inbounds %"class.std::__1::__tree_node", %"class.std::__1::__tree_node"* %83, i64 0, i32 1, i32 0, i32 1
  %85 = getelementptr inbounds %"class.std::__1::__tree_node", %"class.std::__1::__tree_node"* %83, i64 0, i32 1, i32 0, i32 1, i32 0, i32 1
  %86 = load i64*, i64** %85, align 8
  %87 = getelementptr inbounds %"class.std::__1::__tree_node", %"class.std::__1::__tree_node"* %83, i64 0, i32 1, i32 0, i32 1, i32 0, i32 2, i32 0, i32 0
  %88 = load i64*, i64** %87, align 8
  %89 = icmp eq i64* %86, %88
  %90 = ptrtoint i64* %88 to i64
  br i1 %89, label %95, label %91

91:                                               ; preds = %82
  store i64 %14, i64* %86, align 8
  %92 = getelementptr inbounds i64, i64* %86, i64 1
  %93 = ptrtoint i64* %92 to i64
  %94 = bitcast i64** %85 to i64*
  store i64 %93, i64* %94, align 8
  br label %151

95:                                               ; preds = %82
  %96 = ptrtoint i64* %86 to i64
  %97 = bitcast i64** %85 to i64*
  %98 = bitcast %"class.std::__1::vector.296"* %84 to i64*
  %99 = load i64, i64* %98, align 8
  %100 = sub i64 %96, %99
  %101 = ashr exact i64 %100, 3
  %102 = add nsw i64 %101, 1
  %103 = icmp ugt i64 %102, 2305843009213693951
  br i1 %103, label %104, label %106

104:                                              ; preds = %95
  %105 = bitcast %"class.std::__1::vector.296"* %84 to %"class.std::__1::__vector_base_common"*
  call void @_ZNKSt3__120__vector_base_commonILb1EE20__throw_length_errorEv(%"class.std::__1::__vector_base_common"* %105) #12
  unreachable

106:                                              ; preds = %95
  %107 = bitcast i64** %87 to i64*
  %108 = sub i64 %90, %99
  %109 = ashr exact i64 %108, 3
  %110 = icmp ult i64 %109, 1152921504606846975
  br i1 %110, label %111, label %119

111:                                              ; preds = %106
  %112 = ashr exact i64 %108, 2
  %113 = icmp ult i64 %112, %102
  %114 = select i1 %113, i64 %102, i64 %112
  %115 = icmp eq i64 %114, 0
  br i1 %115, label %124, label %116

116:                                              ; preds = %111
  %117 = icmp ugt i64 %114, 2305843009213693951
  br i1 %117, label %118, label %119

118:                                              ; preds = %116
  call void @abort() #12
  unreachable

119:                                              ; preds = %116, %106
  %120 = phi i64 [ %114, %116 ], [ 2305843009213693951, %106 ]
  %121 = shl i64 %120, 3
  %122 = call i8* @_Znwm(i64 %121) #11
  %123 = bitcast i8* %122 to i64*
  br label %124

124:                                              ; preds = %119, %111
  %125 = phi i64 [ %120, %119 ], [ 0, %111 ]
  %126 = phi i64* [ %123, %119 ], [ null, %111 ]
  %127 = getelementptr inbounds i64, i64* %126, i64 %101
  %128 = getelementptr inbounds i64, i64* %126, i64 %125
  %129 = ptrtoint i64* %128 to i64
  store i64 %14, i64* %127, align 8
  %130 = getelementptr inbounds i64, i64* %127, i64 1
  %131 = ptrtoint i64* %130 to i64
  %132 = getelementptr inbounds %"class.std::__1::vector.296", %"class.std::__1::vector.296"* %84, i64 0, i32 0, i32 0
  %133 = load i64*, i64** %132, align 8
  %134 = load i64, i64* %97, align 8
  %135 = ptrtoint i64* %133 to i64
  %136 = sub i64 %134, %135
  %137 = ashr exact i64 %136, 3
  %138 = sub nsw i64 0, %137
  %139 = getelementptr inbounds i64, i64* %127, i64 %138
  %140 = ptrtoint i64* %139 to i64
  %141 = icmp sgt i64 %136, 0
  br i1 %141, label %142, label %146

142:                                              ; preds = %124
  %143 = bitcast i64* %139 to i8*
  %144 = bitcast i64* %133 to i8*
  call void @llvm.memcpy.p0i8.p0i8.i64(i8* align 8 %143, i8* align 8 %144, i64 %136, i1 false) #10
  %145 = load i64*, i64** %132, align 8
  br label %146

146:                                              ; preds = %142, %124
  %147 = phi i64* [ %133, %124 ], [ %145, %142 ]
  store i64 %140, i64* %98, align 8
  store i64 %131, i64* %97, align 8
  store i64 %129, i64* %107, align 8
  %148 = icmp eq i64* %147, null
  br i1 %148, label %151, label %149

149:                                              ; preds = %146
  %150 = bitcast i64* %147 to i8*
  call void @_ZdlPv(i8* %150) #11
  br label %151

151:                                              ; preds = %91, %146, %149
  ret void
}

; Function Attrs: nounwind ssp uwtable
define linkonce_odr hidden void @_ZN7content27WebContentsFrameReceiverSetIN6chrome5mojom19NetErrorPageSupportEE20FrameInterfaceBinder17CloseAllReceiversEv(%"class.content::WebContentsFrameReceiverSet<chrome::mojom::NetErrorPageSupport>::FrameInterfaceBinder"*) unnamed_addr #0 comdat align 2 {
  %2 = getelementptr inbounds %"class.content::WebContentsFrameReceiverSet<chrome::mojom::NetErrorPageSupport>::FrameInterfaceBinder", %"class.content::WebContentsFrameReceiverSet<chrome::mojom::NetErrorPageSupport>::FrameInterfaceBinder"* %0, i64 0, i32 3, i32 0, i32 3
  %3 = getelementptr inbounds %"class.std::__1::map.6", %"class.std::__1::map.6"* %2, i64 0, i32 0
  %4 = getelementptr inbounds %"class.content::WebContentsFrameReceiverSet<chrome::mojom::NetErrorPageSupport>::FrameInterfaceBinder", %"class.content::WebContentsFrameReceiverSet<chrome::mojom::NetErrorPageSupport>::FrameInterfaceBinder"* %0, i64 0, i32 3, i32 0, i32 3, i32 0, i32 1, i32 0, i32 0
  %5 = bitcast %"class.std::__1::__tree_end_node"* %4 to %"class.std::__1::__tree_node.354"**
  %6 = load %"class.std::__1::__tree_node.354"*, %"class.std::__1::__tree_node.354"** %5, align 8
  tail call void @_ZNSt3__16__treeINS_12__value_typeImNS_10unique_ptrIN4mojo16ReceiverSetState5EntryENS_14default_deleteIS5_EEEEEENS_19__map_value_compareImS9_NS_4lessImEELb1EEENS_9allocatorIS9_EEE7destroyEPNS_11__tree_nodeIS9_PvEE(%"class.std::__1::__tree.7"* %3, %"class.std::__1::__tree_node.354"* %6) #10
  %7 = getelementptr inbounds %"class.content::WebContentsFrameReceiverSet<chrome::mojom::NetErrorPageSupport>::FrameInterfaceBinder", %"class.content::WebContentsFrameReceiverSet<chrome::mojom::NetErrorPageSupport>::FrameInterfaceBinder"* %0, i64 0, i32 3, i32 0, i32 3, i32 0, i32 2, i32 0, i32 0
  store i64 0, i64* %7, align 8
  %8 = getelementptr inbounds %"class.std::__1::map.6", %"class.std::__1::map.6"* %2, i64 0, i32 0, i32 0
  store %"class.std::__1::__tree_end_node"* %4, %"class.std::__1::__tree_end_node"** %8, align 8
  %9 = getelementptr inbounds %"class.std::__1::__tree_end_node", %"class.std::__1::__tree_end_node"* %4, i64 0, i32 0
  store %"class.std::__1::__tree_node_base"* null, %"class.std::__1::__tree_node_base"** %9, align 8
  ret void
}

; Function Attrs: nounwind ssp uwtable
define linkonce_odr hidden void @_ZN7content27WebContentsFrameReceiverSetIN6chrome5mojom19NetErrorPageSupportEE20FrameInterfaceBinder18RenderFrameDeletedEPNS_15RenderFrameHostE(%"class.content::WebContentsFrameReceiverSet<chrome::mojom::NetErrorPageSupport>::FrameInterfaceBinder"*, %"class.content::RenderFrameHost"*) unnamed_addr #0 comdat align 2 {
  %3 = getelementptr inbounds %"class.content::WebContentsFrameReceiverSet<chrome::mojom::NetErrorPageSupport>::FrameInterfaceBinder", %"class.content::WebContentsFrameReceiverSet<chrome::mojom::NetErrorPageSupport>::FrameInterfaceBinder"* %0, i64 0, i32 4
  %4 = getelementptr inbounds %"class.content::WebContentsFrameReceiverSet<chrome::mojom::NetErrorPageSupport>::FrameInterfaceBinder", %"class.content::WebContentsFrameReceiverSet<chrome::mojom::NetErrorPageSupport>::FrameInterfaceBinder"* %0, i64 0, i32 4, i32 0, i32 1, i32 0, i32 0
  %5 = bitcast %"class.std::__1::__tree_end_node"* %4 to %"class.std::__1::__tree_node"**
  %6 = load %"class.std::__1::__tree_node"*, %"class.std::__1::__tree_node"** %5, align 8
  %7 = icmp eq %"class.std::__1::__tree_node"* %6, null
  br i1 %7, label %96, label %8

8:                                                ; preds = %2, %8
  %9 = phi %"class.std::__1::__tree_end_node"* [ %19, %8 ], [ %4, %2 ]
  %10 = phi %"class.std::__1::__tree_node"* [ %20, %8 ], [ %6, %2 ]
  %11 = getelementptr inbounds %"class.std::__1::__tree_node", %"class.std::__1::__tree_node"* %10, i64 0, i32 1, i32 0, i32 0
  %12 = load %"class.content::RenderFrameHost"*, %"class.content::RenderFrameHost"** %11, align 8
  %13 = icmp ult %"class.content::RenderFrameHost"* %12, %1
  %14 = getelementptr inbounds %"class.std::__1::__tree_node", %"class.std::__1::__tree_node"* %10, i64 0, i32 0, i32 1
  %15 = bitcast %"class.std::__1::__tree_node_base"** %14 to %"class.std::__1::__tree_node"**
  %16 = getelementptr inbounds %"class.std::__1::__tree_node", %"class.std::__1::__tree_node"* %10, i64 0, i32 0, i32 0
  %17 = bitcast %"class.std::__1::__tree_node"* %10 to %"class.std::__1::__tree_node"**
  %18 = select i1 %13, %"class.std::__1::__tree_node"** %15, %"class.std::__1::__tree_node"** %17
  %19 = select i1 %13, %"class.std::__1::__tree_end_node"* %9, %"class.std::__1::__tree_end_node"* %16
  %20 = load %"class.std::__1::__tree_node"*, %"class.std::__1::__tree_node"** %18, align 8
  %21 = icmp eq %"class.std::__1::__tree_node"* %20, null
  br i1 %21, label %22, label %8

22:                                               ; preds = %8
  %23 = icmp eq %"class.std::__1::__tree_end_node"* %19, %4
  br i1 %23, label %96, label %24

24:                                               ; preds = %22
  %25 = getelementptr inbounds %"class.std::__1::__tree_end_node", %"class.std::__1::__tree_end_node"* %19, i64 4
  %26 = bitcast %"class.std::__1::__tree_end_node"* %25 to %"class.content::RenderFrameHost"**
  %27 = load %"class.content::RenderFrameHost"*, %"class.content::RenderFrameHost"** %26, align 8
  %28 = icmp ugt %"class.content::RenderFrameHost"* %27, %1
  br i1 %28, label %96, label %29

29:                                               ; preds = %24
  %30 = getelementptr inbounds %"class.std::__1::__tree_end_node", %"class.std::__1::__tree_end_node"* %19, i64 5
  %31 = bitcast %"class.std::__1::__tree_end_node"* %30 to i64**
  %32 = load i64*, i64** %31, align 8
  %33 = getelementptr inbounds %"class.std::__1::__tree_end_node", %"class.std::__1::__tree_end_node"* %19, i64 6
  %34 = bitcast %"class.std::__1::__tree_end_node"* %33 to i64**
  %35 = load i64*, i64** %34, align 8
  %36 = icmp eq i64* %32, %35
  br i1 %36, label %39, label %37

37:                                               ; preds = %29
  %38 = getelementptr inbounds %"class.content::WebContentsFrameReceiverSet<chrome::mojom::NetErrorPageSupport>::FrameInterfaceBinder", %"class.content::WebContentsFrameReceiverSet<chrome::mojom::NetErrorPageSupport>::FrameInterfaceBinder"* %0, i64 0, i32 3, i32 0
  br label %90

39:                                               ; preds = %90, %29
  %40 = getelementptr inbounds %"class.std::__1::__tree_end_node", %"class.std::__1::__tree_end_node"* %19, i64 1, i32 0
  %41 = load %"class.std::__1::__tree_node_base"*, %"class.std::__1::__tree_node_base"** %40, align 8
  %42 = icmp eq %"class.std::__1::__tree_node_base"* %41, null
  br i1 %42, label %43, label %51

43:                                               ; preds = %39
  %44 = bitcast %"class.std::__1::__tree_end_node"* %19 to %"class.std::__1::__tree_node_base"*
  %45 = getelementptr inbounds %"class.std::__1::__tree_end_node", %"class.std::__1::__tree_end_node"* %19, i64 2
  %46 = bitcast %"class.std::__1::__tree_end_node"* %45 to %"class.std::__1::__tree_end_node"**
  %47 = load %"class.std::__1::__tree_end_node"*, %"class.std::__1::__tree_end_node"** %46, align 8
  %48 = getelementptr inbounds %"class.std::__1::__tree_end_node", %"class.std::__1::__tree_end_node"* %47, i64 0, i32 0
  %49 = load %"class.std::__1::__tree_node_base"*, %"class.std::__1::__tree_node_base"** %48, align 8
  %50 = icmp eq %"class.std::__1::__tree_node_base"* %49, %44
  br i1 %50, label %67, label %58

51:                                               ; preds = %39, %51
  %52 = phi %"class.std::__1::__tree_node_base"* [ %54, %51 ], [ %41, %39 ]
  %53 = getelementptr inbounds %"class.std::__1::__tree_node_base", %"class.std::__1::__tree_node_base"* %52, i64 0, i32 0, i32 0
  %54 = load %"class.std::__1::__tree_node_base"*, %"class.std::__1::__tree_node_base"** %53, align 8
  %55 = icmp eq %"class.std::__1::__tree_node_base"* %54, null
  br i1 %55, label %56, label %51

56:                                               ; preds = %51
  %57 = getelementptr inbounds %"class.std::__1::__tree_node_base", %"class.std::__1::__tree_node_base"* %52, i64 0, i32 0
  br label %67

58:                                               ; preds = %43, %58
  %59 = phi %"class.std::__1::__tree_end_node"** [ %62, %58 ], [ %46, %43 ]
  %60 = bitcast %"class.std::__1::__tree_end_node"** %59 to %"class.std::__1::__tree_node_base"**
  %61 = load %"class.std::__1::__tree_node_base"*, %"class.std::__1::__tree_node_base"** %60, align 8
  %62 = getelementptr inbounds %"class.std::__1::__tree_node_base", %"class.std::__1::__tree_node_base"* %61, i64 0, i32 2
  %63 = load %"class.std::__1::__tree_end_node"*, %"class.std::__1::__tree_end_node"** %62, align 8
  %64 = getelementptr inbounds %"class.std::__1::__tree_end_node", %"class.std::__1::__tree_end_node"* %63, i64 0, i32 0
  %65 = load %"class.std::__1::__tree_node_base"*, %"class.std::__1::__tree_node_base"** %64, align 8
  %66 = icmp eq %"class.std::__1::__tree_node_base"* %65, %61
  br i1 %66, label %67, label %58

67:                                               ; preds = %58, %56, %43
  %68 = phi %"class.std::__1::__tree_end_node"* [ %57, %56 ], [ %47, %43 ], [ %63, %58 ]
  %69 = getelementptr inbounds %"class.std::__1::map.24", %"class.std::__1::map.24"* %3, i64 0, i32 0, i32 0
  %70 = load %"class.std::__1::__tree_end_node"*, %"class.std::__1::__tree_end_node"** %69, align 8
  %71 = icmp eq %"class.std::__1::__tree_end_node"* %70, %19
  br i1 %71, label %72, label %75

72:                                               ; preds = %67
  %73 = ptrtoint %"class.std::__1::__tree_end_node"* %68 to i64
  %74 = bitcast %"class.std::__1::map.24"* %3 to i64*
  store i64 %73, i64* %74, align 8
  br label %75

75:                                               ; preds = %72, %67
  %76 = getelementptr inbounds %"class.content::WebContentsFrameReceiverSet<chrome::mojom::NetErrorPageSupport>::FrameInterfaceBinder", %"class.content::WebContentsFrameReceiverSet<chrome::mojom::NetErrorPageSupport>::FrameInterfaceBinder"* %0, i64 0, i32 4, i32 0, i32 2, i32 0, i32 0
  %77 = load i64, i64* %76, align 8
  %78 = add i64 %77, -1
  store i64 %78, i64* %76, align 8
  %79 = getelementptr inbounds %"class.content::WebContentsFrameReceiverSet<chrome::mojom::NetErrorPageSupport>::FrameInterfaceBinder", %"class.content::WebContentsFrameReceiverSet<chrome::mojom::NetErrorPageSupport>::FrameInterfaceBinder"* %0, i64 0, i32 4, i32 0, i32 1, i32 0, i32 0, i32 0
  %80 = load %"class.std::__1::__tree_node_base"*, %"class.std::__1::__tree_node_base"** %79, align 8
  %81 = bitcast %"class.std::__1::__tree_end_node"* %19 to %"class.std::__1::__tree_node_base"*
  tail call void @_ZNSt3__113__tree_removeIPNS_16__tree_node_baseIPvEEEEvT_S5_(%"class.std::__1::__tree_node_base"* %80, %"class.std::__1::__tree_node_base"* %81) #10
  %82 = load i64*, i64** %31, align 8
  %83 = icmp eq i64* %82, null
  br i1 %83, label %88, label %84

84:                                               ; preds = %75
  %85 = ptrtoint i64* %82 to i64
  %86 = bitcast %"class.std::__1::__tree_end_node"* %33 to i64*
  store i64 %85, i64* %86, align 8
  %87 = bitcast i64* %82 to i8*
  tail call void @_ZdlPv(i8* %87) #11
  br label %88

88:                                               ; preds = %75, %84
  %89 = bitcast %"class.std::__1::__tree_end_node"* %19 to i8*
  tail call void @_ZdlPv(i8* %89) #11
  br label %96

90:                                               ; preds = %37, %90
  %91 = phi i64* [ %32, %37 ], [ %94, %90 ]
  %92 = load i64, i64* %91, align 8
  %93 = tail call zeroext i1 @_ZN4mojo16ReceiverSetState6RemoveEm(%"class.mojo::ReceiverSetState"* %38, i64 %92) #10
  %94 = getelementptr inbounds i64, i64* %91, i64 1
  %95 = icmp eq i64* %94, %35
  br i1 %95, label %39, label %90

96:                                               ; preds = %24, %22, %2, %88
  ret void
}

; Function Attrs: nounwind ssp uwtable
define linkonce_odr hidden void @_ZThn8_N7content27WebContentsFrameReceiverSetIN6chrome5mojom19NetErrorPageSupportEE20FrameInterfaceBinderD0Ev(%"class.content::WebContentsFrameReceiverSet<chrome::mojom::NetErrorPageSupport>::FrameInterfaceBinder"*) unnamed_addr #0 comdat align 2 {
  %2 = getelementptr inbounds %"class.content::WebContentsFrameReceiverSet<chrome::mojom::NetErrorPageSupport>::FrameInterfaceBinder", %"class.content::WebContentsFrameReceiverSet<chrome::mojom::NetErrorPageSupport>::FrameInterfaceBinder"* %0, i64 -1, i32 4, i32 0, i32 2
  %3 = getelementptr inbounds %"class.std::__1::__compressed_pair.30", %"class.std::__1::__compressed_pair.30"* %2, i64 1
  %4 = bitcast %"class.std::__1::__compressed_pair.30"* %3 to %"class.content::WebContentsObserver"*
  %5 = bitcast %"class.std::__1::__compressed_pair.30"* %2 to <2 x i32 (...)**>*
  store <2 x i32 (...)**> <i32 (...)** bitcast (i8** getelementptr inbounds ({ [7 x i8*], [109 x i8*] }, { [7 x i8*], [109 x i8*] }* @_ZTVN7content27WebContentsFrameReceiverSetIN6chrome5mojom19NetErrorPageSupportEE20FrameInterfaceBinderE, i64 0, inrange i32 0, i64 2) to i32 (...)**), i32 (...)** bitcast (i8** getelementptr inbounds ({ [7 x i8*], [109 x i8*] }, { [7 x i8*], [109 x i8*] }* @_ZTVN7content27WebContentsFrameReceiverSetIN6chrome5mojom19NetErrorPageSupportEE20FrameInterfaceBinderE, i64 0, inrange i32 1, i64 2) to i32 (...)**)>, <2 x i32 (...)**>* %5, align 8
  %6 = getelementptr inbounds %"class.std::__1::__compressed_pair.30", %"class.std::__1::__compressed_pair.30"* %2, i64 14
  %7 = bitcast %"class.std::__1::__compressed_pair.30"* %6 to %"class.std::__1::__tree.25"*
  %8 = getelementptr inbounds %"class.std::__1::__compressed_pair.30", %"class.std::__1::__compressed_pair.30"* %2, i64 15
  %9 = bitcast %"class.std::__1::__compressed_pair.30"* %8 to %"class.std::__1::__tree_node"**
  %10 = load %"class.std::__1::__tree_node"*, %"class.std::__1::__tree_node"** %9, align 8
  tail call void @_ZNSt3__16__treeINS_12__value_typeIPN7content15RenderFrameHostENS_6vectorImNS_9allocatorImEEEEEENS_19__map_value_compareIS4_S9_NS_4lessIS4_EELb1EEENS6_IS9_EEE7destroyEPNS_11__tree_nodeIS9_PvEE(%"class.std::__1::__tree.25"* %7, %"class.std::__1::__tree_node"* %10) #10
  %11 = getelementptr inbounds %"class.std::__1::__compressed_pair.30", %"class.std::__1::__compressed_pair.30"* %2, i64 4
  %12 = bitcast %"class.std::__1::__compressed_pair.30"* %11 to %"class.mojo::ReceiverSetState"*
  tail call void @_ZN4mojo16ReceiverSetStateD1Ev(%"class.mojo::ReceiverSetState"* %12) #10
  tail call void @_ZN7content19WebContentsObserverD2Ev(%"class.content::WebContentsObserver"* %4) #10
  %13 = bitcast %"class.std::__1::__compressed_pair.30"* %2 to i8*
  tail call void @_ZdlPv(i8* %13) #11
  ret void
}

; Function Attrs: nounwind ssp uwtable
define linkonce_odr hidden void @_ZN7content19WebContentsObserver18RenderFrameCreatedEPNS_15RenderFrameHostE(%"class.content::WebContentsObserver"*, %"class.content::RenderFrameHost"*) unnamed_addr #0 comdat align 2 {
  ret void
}

; Function Attrs: nounwind ssp uwtable
define linkonce_odr hidden void @_ZThn8_N7content27WebContentsFrameReceiverSetIN6chrome5mojom19NetErrorPageSupportEE20FrameInterfaceBinder18RenderFrameDeletedEPNS_15RenderFrameHostE(%"class.content::WebContentsFrameReceiverSet<chrome::mojom::NetErrorPageSupport>::FrameInterfaceBinder"*, %"class.content::RenderFrameHost"*) unnamed_addr #0 comdat align 2 {
  %3 = getelementptr inbounds %"class.content::WebContentsFrameReceiverSet<chrome::mojom::NetErrorPageSupport>::FrameInterfaceBinder", %"class.content::WebContentsFrameReceiverSet<chrome::mojom::NetErrorPageSupport>::FrameInterfaceBinder"* %0, i64 -1, i32 4, i32 0, i32 2
  %4 = bitcast %"class.std::__1::__compressed_pair.30"* %3 to %"class.content::WebContentsFrameReceiverSet<chrome::mojom::NetErrorPageSupport>::FrameInterfaceBinder"*
  tail call void @_ZN7content27WebContentsFrameReceiverSetIN6chrome5mojom19NetErrorPageSupportEE20FrameInterfaceBinder18RenderFrameDeletedEPNS_15RenderFrameHostE(%"class.content::WebContentsFrameReceiverSet<chrome::mojom::NetErrorPageSupport>::FrameInterfaceBinder"* %4, %"class.content::RenderFrameHost"* %1)
  ret void
}

; Function Attrs: nounwind ssp uwtable
define linkonce_odr hidden void @_ZN7content19WebContentsObserver19DidFinishNavigationEPNS_16NavigationHandleE(%"class.content::WebContentsObserver"*, %"class.content::NavigationHandle"*) unnamed_addr #0 comdat align 2 {
  ret void
}

; Function Attrs: nounwind ssp uwtable
define linkonce_odr hidden void @_ZNSt3__16__treeINS_12__value_typeIPN7content15RenderFrameHostENS_6vectorImNS_9allocatorImEEEEEENS_19__map_value_compareIS4_S9_NS_4lessIS4_EELb1EEENS6_IS9_EEE7destroyEPNS_11__tree_nodeIS9_PvEE(%"class.std::__1::__tree.25"*, %"class.std::__1::__tree_node"*) local_unnamed_addr #0 comdat align 2 {
  %3 = icmp eq %"class.std::__1::__tree_node"* %1, null
  br i1 %3, label %20, label %4

4:                                                ; preds = %2
  %5 = bitcast %"class.std::__1::__tree_node"* %1 to %"class.std::__1::__tree_node"**
  %6 = load %"class.std::__1::__tree_node"*, %"class.std::__1::__tree_node"** %5, align 8
  tail call void @_ZNSt3__16__treeINS_12__value_typeIPN7content15RenderFrameHostENS_6vectorImNS_9allocatorImEEEEEENS_19__map_value_compareIS4_S9_NS_4lessIS4_EELb1EEENS6_IS9_EEE7destroyEPNS_11__tree_nodeIS9_PvEE(%"class.std::__1::__tree.25"* %0, %"class.std::__1::__tree_node"* %6) #10
  %7 = getelementptr inbounds %"class.std::__1::__tree_node", %"class.std::__1::__tree_node"* %1, i64 0, i32 0, i32 1
  %8 = bitcast %"class.std::__1::__tree_node_base"** %7 to %"class.std::__1::__tree_node"**
  %9 = load %"class.std::__1::__tree_node"*, %"class.std::__1::__tree_node"** %8, align 8
  tail call void @_ZNSt3__16__treeINS_12__value_typeIPN7content15RenderFrameHostENS_6vectorImNS_9allocatorImEEEEEENS_19__map_value_compareIS4_S9_NS_4lessIS4_EELb1EEENS6_IS9_EEE7destroyEPNS_11__tree_nodeIS9_PvEE(%"class.std::__1::__tree.25"* %0, %"class.std::__1::__tree_node"* %9) #10
  %10 = getelementptr inbounds %"class.std::__1::__tree_node", %"class.std::__1::__tree_node"* %1, i64 0, i32 1, i32 0, i32 1, i32 0, i32 0
  %11 = load i64*, i64** %10, align 8
  %12 = icmp eq i64* %11, null
  br i1 %12, label %18, label %13

13:                                               ; preds = %4
  %14 = ptrtoint i64* %11 to i64
  %15 = getelementptr inbounds %"class.std::__1::__tree_node", %"class.std::__1::__tree_node"* %1, i64 0, i32 1, i32 0, i32 1, i32 0, i32 1
  %16 = bitcast i64** %15 to i64*
  store i64 %14, i64* %16, align 8
  %17 = bitcast i64* %11 to i8*
  tail call void @_ZdlPv(i8* %17) #11
  br label %18

18:                                               ; preds = %4, %13
  %19 = bitcast %"class.std::__1::__tree_node"* %1 to i8*
  tail call void @_ZdlPv(i8* %19) #11
  br label %20

20:                                               ; preds = %2, %18
  ret void
}

; Function Attrs: nounwind
declare void @_ZN4mojo16ReceiverSetStateD1Ev(%"class.mojo::ReceiverSetState"*) unnamed_addr #1

declare void @_ZN4mojo29ScopedInterfaceEndpointHandleC1EOS0_(%"class.mojo::ScopedInterfaceEndpointHandle"*, %"class.mojo::ScopedInterfaceEndpointHandle"* dereferenceable(8)) unnamed_addr #5

; Function Attrs: nounwind
declare void @_ZN4mojo29ScopedInterfaceEndpointHandleD1Ev(%"class.mojo::ScopedInterfaceEndpointHandle"*) unnamed_addr #1

; Function Attrs: nounwind ssp uwtable
define linkonce_odr hidden i64 @_ZN4mojo15ReceiverSetBaseINS_18AssociatedReceiverIN6chrome5mojom19NetErrorPageSupportENS_19RawPtrImplRefTraitsIS4_EEEEPN7content15RenderFrameHostEE7AddImplEPS4_NS_25PendingAssociatedReceiverIS4_EESA_13scoped_refptrIN4base19SequencedTaskRunnerEE(%"class.mojo::ReceiverSetBase.38"*, %"class.chrome::mojom::NetErrorPageSupport"*, %"class.mojo::PendingAssociatedReceiver"*, %"class.content::RenderFrameHost"*, %"class.base::SequencedTaskRunner"*) local_unnamed_addr #0 comdat align 2 {
  %6 = alloca %"class.mojo::PendingAssociatedReceiver", align 8
  %7 = alloca %"class.mojo::PendingAssociatedReceiver", align 8
  %8 = alloca %"class.mojo::PendingAssociatedReceiver", align 8
  %9 = ptrtoint %"class.chrome::mojom::NetErrorPageSupport"* %1 to i64
  %10 = ptrtoint %"class.content::RenderFrameHost"* %3 to i64
  %11 = getelementptr inbounds %"class.mojo::ReceiverSetBase.38", %"class.mojo::ReceiverSetBase.38"* %0, i64 0, i32 0
  %12 = bitcast %"class.mojo::PendingAssociatedReceiver"* %8 to i8*
  call void @llvm.lifetime.start.p0i8(i64 8, i8* nonnull %12)
  %13 = tail call i8* @_Znwm(i64 56) #11
  %14 = getelementptr inbounds %"class.mojo::PendingAssociatedReceiver", %"class.mojo::PendingAssociatedReceiver"* %8, i64 0, i32 0
  %15 = getelementptr inbounds %"class.mojo::PendingAssociatedReceiver", %"class.mojo::PendingAssociatedReceiver"* %2, i64 0, i32 0
  call void @_ZN4mojo29ScopedInterfaceEndpointHandleC1EOS0_(%"class.mojo::ScopedInterfaceEndpointHandle"* nonnull %14, %"class.mojo::ScopedInterfaceEndpointHandle"* dereferenceable(8) %15) #10
  %16 = bitcast %"class.mojo::PendingAssociatedReceiver"* %7 to i8*
  call void @llvm.lifetime.start.p0i8(i64 8, i8* nonnull %16) #10
  %17 = bitcast i8* %13 to i32 (...)***
  store i32 (...)** bitcast (i8** getelementptr inbounds ({ [7 x i8*] }, { [7 x i8*] }* @_ZTVN4mojo15ReceiverSetBaseINS_18AssociatedReceiverIN6chrome5mojom19NetErrorPageSupportENS_19RawPtrImplRefTraitsIS4_EEEEPN7content15RenderFrameHostEE13ReceiverEntryE, i64 0, inrange i32 0, i64 2) to i32 (...)**), i32 (...)*** %17, align 8
  %18 = getelementptr inbounds i8, i8* %13, i64 8
  %19 = bitcast i8* %18 to %"class.mojo::AssociatedReceiver"*
  %20 = getelementptr inbounds %"class.mojo::PendingAssociatedReceiver", %"class.mojo::PendingAssociatedReceiver"* %7, i64 0, i32 0
  call void @_ZN4mojo29ScopedInterfaceEndpointHandleC1EOS0_(%"class.mojo::ScopedInterfaceEndpointHandle"* nonnull %20, %"class.mojo::ScopedInterfaceEndpointHandle"* nonnull dereferenceable(8) %14) #10
  %21 = bitcast %"class.mojo::PendingAssociatedReceiver"* %6 to i8*
  call void @llvm.lifetime.start.p0i8(i64 8, i8* nonnull %21) #10
  %22 = bitcast i8* %18 to %"class.mojo::internal::AssociatedReceiverBase"*
  call void @_ZN4mojo8internal22AssociatedReceiverBaseC2Ev(%"class.mojo::internal::AssociatedReceiverBase"* %22) #10
  %23 = getelementptr inbounds i8, i8* %13, i64 16
  %24 = bitcast i8* %23 to i32 (...)***
  store i32 (...)** bitcast (i8** getelementptr inbounds ({ [7 x i8*] }, { [7 x i8*] }* @_ZTVN6chrome5mojom23NetErrorPageSupportStubIN4mojo19RawPtrImplRefTraitsINS0_19NetErrorPageSupportEEEEE, i64 0, inrange i32 0, i64 2) to i32 (...)**), i32 (...)*** %24, align 8
  %25 = getelementptr inbounds i8, i8* %13, i64 32
  %26 = bitcast i8* %25 to %"class.base::internal::WeakPtrFactoryBase"*
  %27 = ptrtoint i8* %18 to i64
  call void @_ZN4base8internal18WeakPtrFactoryBaseC2Em(%"class.base::internal::WeakPtrFactoryBase"* %26, i64 %27) #10
  %28 = getelementptr inbounds i8, i8* %13, i64 24
  %29 = bitcast i8* %28 to i64*
  store i64 %9, i64* %29, align 8
  %30 = getelementptr inbounds %"class.mojo::PendingAssociatedReceiver", %"class.mojo::PendingAssociatedReceiver"* %6, i64 0, i32 0
  call void @_ZN4mojo29ScopedInterfaceEndpointHandleC1EOS0_(%"class.mojo::ScopedInterfaceEndpointHandle"* nonnull %30, %"class.mojo::ScopedInterfaceEndpointHandle"* nonnull dereferenceable(8) %20) #10
  call void @_ZN4mojo18AssociatedReceiverIN6chrome5mojom19NetErrorPageSupportENS_19RawPtrImplRefTraitsIS3_EEE4BindENS_25PendingAssociatedReceiverIS3_EE13scoped_refptrIN4base19SequencedTaskRunnerEE(%"class.mojo::AssociatedReceiver"* %19, %"class.mojo::PendingAssociatedReceiver"* nonnull %6, %"class.base::SequencedTaskRunner"* %4) #10
  call void @_ZN4mojo29ScopedInterfaceEndpointHandleD1Ev(%"class.mojo::ScopedInterfaceEndpointHandle"* nonnull %30) #10
  call void @llvm.lifetime.end.p0i8(i64 8, i8* nonnull %21) #10
  call void @_ZN4mojo29ScopedInterfaceEndpointHandleD1Ev(%"class.mojo::ScopedInterfaceEndpointHandle"* nonnull %20) #10
  %31 = getelementptr inbounds i8, i8* %13, i64 48
  %32 = bitcast i8* %31 to i64*
  store i64 %10, i64* %32, align 8
  call void @llvm.lifetime.end.p0i8(i64 8, i8* nonnull %16) #10
  call void @_ZN4mojo29ScopedInterfaceEndpointHandleD1Ev(%"class.mojo::ScopedInterfaceEndpointHandle"* nonnull %14) #10
  call void @llvm.lifetime.end.p0i8(i64 8, i8* nonnull %12)
  %33 = bitcast i8* %13 to %"class.mojo::ReceiverSetState::ReceiverState"*
  %34 = call i64 @_ZN4mojo16ReceiverSetState3AddENSt3__110unique_ptrINS0_13ReceiverStateENS1_14default_deleteIS3_EEEE(%"class.mojo::ReceiverSetState"* %11, %"class.mojo::ReceiverSetState::ReceiverState"* nonnull %33) #10
  ret i64 %34
}

declare i64 @_ZN4mojo16ReceiverSetState3AddENSt3__110unique_ptrINS0_13ReceiverStateENS1_14default_deleteIS3_EEEE(%"class.mojo::ReceiverSetState"*, %"class.mojo::ReceiverSetState::ReceiverState"*) local_unnamed_addr #5

; Function Attrs: nobuiltin nofree
declare noalias nonnull i8* @_Znwm(i64) local_unnamed_addr #6

; Function Attrs: nounwind ssp uwtable
define linkonce_odr hidden void @_ZN4mojo15ReceiverSetBaseINS_18AssociatedReceiverIN6chrome5mojom19NetErrorPageSupportENS_19RawPtrImplRefTraitsIS4_EEEEPN7content15RenderFrameHostEE13ReceiverEntryD2Ev(%"class.mojo::ReceiverSetBase<mojo::AssociatedReceiver<chrome::mojom::NetErrorPageSupport, mojo::RawPtrImplRefTraits<chrome::mojom::NetErrorPageSupport> >, content::RenderFrameHost *>::ReceiverEntry"*) unnamed_addr #0 comdat align 2 {
  %2 = getelementptr inbounds %"class.mojo::ReceiverSetBase<mojo::AssociatedReceiver<chrome::mojom::NetErrorPageSupport, mojo::RawPtrImplRefTraits<chrome::mojom::NetErrorPageSupport> >, content::RenderFrameHost *>::ReceiverEntry", %"class.mojo::ReceiverSetBase<mojo::AssociatedReceiver<chrome::mojom::NetErrorPageSupport, mojo::RawPtrImplRefTraits<chrome::mojom::NetErrorPageSupport> >, content::RenderFrameHost *>::ReceiverEntry"* %0, i64 0, i32 0, i32 0
  store i32 (...)** bitcast (i8** getelementptr inbounds ({ [7 x i8*] }, { [7 x i8*] }* @_ZTVN4mojo15ReceiverSetBaseINS_18AssociatedReceiverIN6chrome5mojom19NetErrorPageSupportENS_19RawPtrImplRefTraitsIS4_EEEEPN7content15RenderFrameHostEE13ReceiverEntryE, i64 0, inrange i32 0, i64 2) to i32 (...)**), i32 (...)*** %2, align 8
  %3 = getelementptr inbounds %"class.mojo::ReceiverSetBase<mojo::AssociatedReceiver<chrome::mojom::NetErrorPageSupport, mojo::RawPtrImplRefTraits<chrome::mojom::NetErrorPageSupport> >, content::RenderFrameHost *>::ReceiverEntry", %"class.mojo::ReceiverSetBase<mojo::AssociatedReceiver<chrome::mojom::NetErrorPageSupport, mojo::RawPtrImplRefTraits<chrome::mojom::NetErrorPageSupport> >, content::RenderFrameHost *>::ReceiverEntry"* %0, i64 0, i32 1, i32 2, i32 0
  tail call void @_ZN4base8internal18WeakPtrFactoryBaseD2Ev(%"class.base::internal::WeakPtrFactoryBase"* %3) #10
  %4 = getelementptr inbounds %"class.mojo::ReceiverSetBase<mojo::AssociatedReceiver<chrome::mojom::NetErrorPageSupport, mojo::RawPtrImplRefTraits<chrome::mojom::NetErrorPageSupport> >, content::RenderFrameHost *>::ReceiverEntry", %"class.mojo::ReceiverSetBase<mojo::AssociatedReceiver<chrome::mojom::NetErrorPageSupport, mojo::RawPtrImplRefTraits<chrome::mojom::NetErrorPageSupport> >, content::RenderFrameHost *>::ReceiverEntry"* %0, i64 0, i32 1, i32 0
  tail call void @_ZN4mojo8internal22AssociatedReceiverBaseD2Ev(%"class.mojo::internal::AssociatedReceiverBase"* %4) #10
  ret void
}

; Function Attrs: nounwind ssp uwtable
define linkonce_odr hidden void @_ZN4mojo15ReceiverSetBaseINS_18AssociatedReceiverIN6chrome5mojom19NetErrorPageSupportENS_19RawPtrImplRefTraitsIS4_EEEEPN7content15RenderFrameHostEE13ReceiverEntryD0Ev(%"class.mojo::ReceiverSetBase<mojo::AssociatedReceiver<chrome::mojom::NetErrorPageSupport, mojo::RawPtrImplRefTraits<chrome::mojom::NetErrorPageSupport> >, content::RenderFrameHost *>::ReceiverEntry"*) unnamed_addr #0 comdat align 2 {
  %2 = getelementptr inbounds %"class.mojo::ReceiverSetBase<mojo::AssociatedReceiver<chrome::mojom::NetErrorPageSupport, mojo::RawPtrImplRefTraits<chrome::mojom::NetErrorPageSupport> >, content::RenderFrameHost *>::ReceiverEntry", %"class.mojo::ReceiverSetBase<mojo::AssociatedReceiver<chrome::mojom::NetErrorPageSupport, mojo::RawPtrImplRefTraits<chrome::mojom::NetErrorPageSupport> >, content::RenderFrameHost *>::ReceiverEntry"* %0, i64 0, i32 0, i32 0
  store i32 (...)** bitcast (i8** getelementptr inbounds ({ [7 x i8*] }, { [7 x i8*] }* @_ZTVN4mojo15ReceiverSetBaseINS_18AssociatedReceiverIN6chrome5mojom19NetErrorPageSupportENS_19RawPtrImplRefTraitsIS4_EEEEPN7content15RenderFrameHostEE13ReceiverEntryE, i64 0, inrange i32 0, i64 2) to i32 (...)**), i32 (...)*** %2, align 8
  %3 = getelementptr inbounds %"class.mojo::ReceiverSetBase<mojo::AssociatedReceiver<chrome::mojom::NetErrorPageSupport, mojo::RawPtrImplRefTraits<chrome::mojom::NetErrorPageSupport> >, content::RenderFrameHost *>::ReceiverEntry", %"class.mojo::ReceiverSetBase<mojo::AssociatedReceiver<chrome::mojom::NetErrorPageSupport, mojo::RawPtrImplRefTraits<chrome::mojom::NetErrorPageSupport> >, content::RenderFrameHost *>::ReceiverEntry"* %0, i64 0, i32 1, i32 2, i32 0
  tail call void @_ZN4base8internal18WeakPtrFactoryBaseD2Ev(%"class.base::internal::WeakPtrFactoryBase"* %3) #10
  %4 = getelementptr inbounds %"class.mojo::ReceiverSetBase<mojo::AssociatedReceiver<chrome::mojom::NetErrorPageSupport, mojo::RawPtrImplRefTraits<chrome::mojom::NetErrorPageSupport> >, content::RenderFrameHost *>::ReceiverEntry", %"class.mojo::ReceiverSetBase<mojo::AssociatedReceiver<chrome::mojom::NetErrorPageSupport, mojo::RawPtrImplRefTraits<chrome::mojom::NetErrorPageSupport> >, content::RenderFrameHost *>::ReceiverEntry"* %0, i64 0, i32 1, i32 0
  tail call void @_ZN4mojo8internal22AssociatedReceiverBaseD2Ev(%"class.mojo::internal::AssociatedReceiverBase"* %4) #10
  %5 = bitcast %"class.mojo::ReceiverSetBase<mojo::AssociatedReceiver<chrome::mojom::NetErrorPageSupport, mojo::RawPtrImplRefTraits<chrome::mojom::NetErrorPageSupport> >, content::RenderFrameHost *>::ReceiverEntry"* %0 to i8*
  tail call void @_ZdlPv(i8* %5) #11
  ret void
}

; Function Attrs: nounwind ssp uwtable
define linkonce_odr hidden i8* @_ZNK4mojo15ReceiverSetBaseINS_18AssociatedReceiverIN6chrome5mojom19NetErrorPageSupportENS_19RawPtrImplRefTraitsIS4_EEEEPN7content15RenderFrameHostEE13ReceiverEntry10GetContextEv(%"class.mojo::ReceiverSetBase<mojo::AssociatedReceiver<chrome::mojom::NetErrorPageSupport, mojo::RawPtrImplRefTraits<chrome::mojom::NetErrorPageSupport> >, content::RenderFrameHost *>::ReceiverEntry"*) unnamed_addr #0 comdat align 2 {
  %2 = getelementptr inbounds %"class.mojo::ReceiverSetBase<mojo::AssociatedReceiver<chrome::mojom::NetErrorPageSupport, mojo::RawPtrImplRefTraits<chrome::mojom::NetErrorPageSupport> >, content::RenderFrameHost *>::ReceiverEntry", %"class.mojo::ReceiverSetBase<mojo::AssociatedReceiver<chrome::mojom::NetErrorPageSupport, mojo::RawPtrImplRefTraits<chrome::mojom::NetErrorPageSupport> >, content::RenderFrameHost *>::ReceiverEntry"* %0, i64 0, i32 2
  %3 = bitcast %"class.content::RenderFrameHost"** %2 to i8*
  ret i8* %3
}

; Function Attrs: nounwind ssp uwtable
define linkonce_odr hidden void @_ZN4mojo15ReceiverSetBaseINS_18AssociatedReceiverIN6chrome5mojom19NetErrorPageSupportENS_19RawPtrImplRefTraitsIS4_EEEEPN7content15RenderFrameHostEE13ReceiverEntry20InstallDispatchHooksENSt3__110unique_ptrINS_13MessageFilterENSD_14default_deleteISF_EEEEN4base17RepeatingCallbackIFvjRKNSD_12basic_stringIcNSD_11char_traitsIcEENSD_9allocatorIcEEEEEEE(%"class.mojo::ReceiverSetBase<mojo::AssociatedReceiver<chrome::mojom::NetErrorPageSupport, mojo::RawPtrImplRefTraits<chrome::mojom::NetErrorPageSupport> >, content::RenderFrameHost *>::ReceiverEntry"*, %"class.mojo::MessageFilter"*, %"class.base::RepeatingCallback.5"*) unnamed_addr #0 comdat align 2 {
  %4 = alloca %"class.base::OnceCallback.191", align 8
  %5 = alloca %"class.base::RepeatingCallback.5", align 8
  %6 = getelementptr inbounds %"class.mojo::ReceiverSetBase<mojo::AssociatedReceiver<chrome::mojom::NetErrorPageSupport, mojo::RawPtrImplRefTraits<chrome::mojom::NetErrorPageSupport> >, content::RenderFrameHost *>::ReceiverEntry", %"class.mojo::ReceiverSetBase<mojo::AssociatedReceiver<chrome::mojom::NetErrorPageSupport, mojo::RawPtrImplRefTraits<chrome::mojom::NetErrorPageSupport> >, content::RenderFrameHost *>::ReceiverEntry"* %0, i64 0, i32 1, i32 0
  tail call void @_ZN4mojo8internal22AssociatedReceiverBase9SetFilterENSt3__110unique_ptrINS_13MessageFilterENS2_14default_deleteIS4_EEEE(%"class.mojo::internal::AssociatedReceiverBase"* %6, %"class.mojo::MessageFilter"* %1) #10
  %7 = getelementptr inbounds %"class.base::RepeatingCallback.5", %"class.base::RepeatingCallback.5"* %2, i64 0, i32 0, i32 0, i32 0, i32 0
  %8 = bitcast %"class.base::RepeatingCallback.5"* %2 to i64*
  %9 = load i64, i64* %8, align 8
  %10 = bitcast %"class.base::RepeatingCallback.5"* %5 to i64*
  store i64 %9, i64* %10, align 8
  store %"class.base::internal::BindStateBase"* null, %"class.base::internal::BindStateBase"** %7, align 8
  %11 = getelementptr inbounds %"class.base::OnceCallback.191", %"class.base::OnceCallback.191"* %4, i64 0, i32 0
  %12 = getelementptr inbounds %"class.base::RepeatingCallback.5", %"class.base::RepeatingCallback.5"* %5, i64 0, i32 0
  call void @_ZN4base8internal12CallbackBaseC2EONS0_20CallbackBaseCopyableE(%"class.base::internal::CallbackBase"* nonnull %11, %"class.base::internal::CallbackBaseCopyable"* nonnull dereferenceable(8) %12) #10
  call void @_ZN4mojo8internal22AssociatedReceiverBase34set_disconnect_with_reason_handlerEN4base12OnceCallbackIFvjRKNSt3__112basic_stringIcNS4_11char_traitsIcEENS4_9allocatorIcEEEEEEE(%"class.mojo::internal::AssociatedReceiverBase"* %6, %"class.base::OnceCallback.191"* nonnull %4) #10
  call void @_ZN4base8internal12CallbackBaseD2Ev(%"class.base::internal::CallbackBase"* nonnull %11) #10
  %13 = getelementptr inbounds %"class.base::RepeatingCallback.5", %"class.base::RepeatingCallback.5"* %5, i64 0, i32 0, i32 0
  call void @_ZN4base8internal12CallbackBaseD2Ev(%"class.base::internal::CallbackBase"* nonnull %13) #10
  ret void
}

; Function Attrs: nounwind ssp uwtable
define linkonce_odr hidden void @_ZN4mojo15ReceiverSetBaseINS_18AssociatedReceiverIN6chrome5mojom19NetErrorPageSupportENS_19RawPtrImplRefTraitsIS4_EEEEPN7content15RenderFrameHostEE13ReceiverEntry15FlushForTestingEv(%"class.mojo::ReceiverSetBase<mojo::AssociatedReceiver<chrome::mojom::NetErrorPageSupport, mojo::RawPtrImplRefTraits<chrome::mojom::NetErrorPageSupport> >, content::RenderFrameHost *>::ReceiverEntry"*) unnamed_addr #0 comdat align 2 {
  %2 = getelementptr inbounds %"class.mojo::ReceiverSetBase<mojo::AssociatedReceiver<chrome::mojom::NetErrorPageSupport, mojo::RawPtrImplRefTraits<chrome::mojom::NetErrorPageSupport> >, content::RenderFrameHost *>::ReceiverEntry", %"class.mojo::ReceiverSetBase<mojo::AssociatedReceiver<chrome::mojom::NetErrorPageSupport, mojo::RawPtrImplRefTraits<chrome::mojom::NetErrorPageSupport> >, content::RenderFrameHost *>::ReceiverEntry"* %0, i64 0, i32 1, i32 0
  tail call void @_ZN4mojo8internal22AssociatedReceiverBase15FlushForTestingEv(%"class.mojo::internal::AssociatedReceiverBase"* %2) #10
  ret void
}

; Function Attrs: nounwind ssp uwtable
define linkonce_odr hidden void @_ZN4mojo18AssociatedReceiverIN6chrome5mojom19NetErrorPageSupportENS_19RawPtrImplRefTraitsIS3_EEE4BindENS_25PendingAssociatedReceiverIS3_EE13scoped_refptrIN4base19SequencedTaskRunnerEE(%"class.mojo::AssociatedReceiver"*, %"class.mojo::PendingAssociatedReceiver"*, %"class.base::SequencedTaskRunner"*) local_unnamed_addr #0 comdat align 2 {
  %4 = alloca %"class.mojo::ScopedInterfaceEndpointHandle", align 8
  %5 = getelementptr inbounds %"class.mojo::PendingAssociatedReceiver", %"class.mojo::PendingAssociatedReceiver"* %1, i64 0, i32 0
  %6 = tail call zeroext i1 @_ZNK4mojo29ScopedInterfaceEndpointHandle8is_validEv(%"class.mojo::ScopedInterfaceEndpointHandle"* %5) #10
  %7 = getelementptr inbounds %"class.mojo::AssociatedReceiver", %"class.mojo::AssociatedReceiver"* %0, i64 0, i32 0
  br i1 %6, label %8, label %13

8:                                                ; preds = %3
  call void @_ZN4mojo29ScopedInterfaceEndpointHandleC1EOS0_(%"class.mojo::ScopedInterfaceEndpointHandle"* nonnull %4, %"class.mojo::ScopedInterfaceEndpointHandle"* dereferenceable(8) %5) #10
  %9 = getelementptr inbounds %"class.mojo::AssociatedReceiver", %"class.mojo::AssociatedReceiver"* %0, i64 0, i32 1, i32 0
  %10 = call i8* @_Znwm(i64 8) #11
  %11 = bitcast i8* %10 to i32 (...)***
  store i32 (...)** bitcast (i8** getelementptr inbounds ({ [6 x i8*] }, { [6 x i8*] }* @_ZTVN6chrome5mojom35NetErrorPageSupportRequestValidatorE, i64 0, inrange i32 0, i64 2) to i32 (...)**), i32 (...)*** %11, align 8
  %12 = bitcast i8* %10 to %"class.mojo::MessageReceiver"*
  call void @_ZN4mojo8internal22AssociatedReceiverBase8BindImplENS_29ScopedInterfaceEndpointHandleEPNS_34MessageReceiverWithResponderStatusENSt3__110unique_ptrINS_15MessageReceiverENS5_14default_deleteIS7_EEEEb13scoped_refptrIN4base19SequencedTaskRunnerEEjPKc(%"class.mojo::internal::AssociatedReceiverBase"* %7, %"class.mojo::ScopedInterfaceEndpointHandle"* nonnull %4, %"class.mojo::MessageReceiverWithResponderStatus"* %9, %"class.mojo::MessageReceiver"* nonnull %12, i1 zeroext false, %"class.base::SequencedTaskRunner"* %2, i32 0, i8* getelementptr inbounds ([0 x i8], [0 x i8]* @_ZN6chrome5mojom19NetErrorPageSupport5Name_E, i64 0, i64 0)) #10
  call void @_ZN4mojo29ScopedInterfaceEndpointHandleD1Ev(%"class.mojo::ScopedInterfaceEndpointHandle"* nonnull %4) #10
  br label %23

13:                                               ; preds = %3
  tail call void @_ZN4mojo8internal22AssociatedReceiverBase5resetEv(%"class.mojo::internal::AssociatedReceiverBase"* %7) #10
  %14 = icmp eq %"class.base::SequencedTaskRunner"* %2, null
  br i1 %14, label %23, label %15

15:                                               ; preds = %13
  %16 = getelementptr inbounds %"class.base::SequencedTaskRunner", %"class.base::SequencedTaskRunner"* %2, i64 0, i32 0, i32 1
  %17 = getelementptr inbounds %"class.base::RefCountedThreadSafe.130", %"class.base::RefCountedThreadSafe.130"* %16, i64 0, i32 0, i32 0, i32 0, i32 0, i32 0, i32 0, i32 0, i32 0
  %18 = atomicrmw sub i32* %17, i32 1 acq_rel
  %19 = icmp eq i32 %18, 1
  br i1 %19, label %20, label %23

20:                                               ; preds = %15
  %21 = getelementptr inbounds %"class.base::RefCountedThreadSafe.130", %"class.base::RefCountedThreadSafe.130"* %16, i64 -2
  %22 = bitcast %"class.base::RefCountedThreadSafe.130"* %21 to %"class.base::TaskRunner"*
  tail call void @_ZN4base16TaskRunnerTraits8DestructEPKNS_10TaskRunnerE(%"class.base::TaskRunner"* %22) #10
  br label %23

23:                                               ; preds = %8, %13, %15, %20
  ret void
}

declare void @_ZN4mojo8internal22AssociatedReceiverBaseC2Ev(%"class.mojo::internal::AssociatedReceiverBase"*) unnamed_addr #5

; Function Attrs: nounwind ssp uwtable
define linkonce_odr hidden void @_ZN6chrome5mojom23NetErrorPageSupportStubIN4mojo19RawPtrImplRefTraitsINS0_19NetErrorPageSupportEEEED0Ev(%"class.chrome::mojom::NetErrorPageSupportStub"*) unnamed_addr #0 comdat align 2 {
  %2 = bitcast %"class.chrome::mojom::NetErrorPageSupportStub"* %0 to i8*
  tail call void @_ZdlPv(i8* %2) #11
  ret void
}

declare zeroext i1 @_ZN4mojo15MessageReceiver25PrefersSerializedMessagesEv(%"class.mojo::MessageReceiver"*) unnamed_addr #5

; Function Attrs: nounwind ssp uwtable
define linkonce_odr hidden zeroext i1 @_ZN6chrome5mojom23NetErrorPageSupportStubIN4mojo19RawPtrImplRefTraitsINS0_19NetErrorPageSupportEEEE6AcceptEPNS2_7MessageE(%"class.chrome::mojom::NetErrorPageSupportStub"*, %"class.mojo::Message"*) unnamed_addr #0 comdat align 2 {
  %3 = getelementptr inbounds %"class.chrome::mojom::NetErrorPageSupportStub", %"class.chrome::mojom::NetErrorPageSupportStub"* %0, i64 0, i32 1
  %4 = load %"class.chrome::mojom::NetErrorPageSupport"*, %"class.chrome::mojom::NetErrorPageSupport"** %3, align 8
  %5 = icmp eq %"class.chrome::mojom::NetErrorPageSupport"* %4, null
  br i1 %5, label %8, label %6

6:                                                ; preds = %2
  %7 = tail call zeroext i1 @_ZN6chrome5mojom31NetErrorPageSupportStubDispatch6AcceptEPNS0_19NetErrorPageSupportEPN4mojo7MessageE(%"class.chrome::mojom::NetErrorPageSupport"* nonnull %4, %"class.mojo::Message"* %1) #10
  br label %8

8:                                                ; preds = %2, %6
  %9 = phi i1 [ %7, %6 ], [ false, %2 ]
  ret i1 %9
}

; Function Attrs: nounwind ssp uwtable
define linkonce_odr hidden zeroext i1 @_ZN6chrome5mojom23NetErrorPageSupportStubIN4mojo19RawPtrImplRefTraitsINS0_19NetErrorPageSupportEEEE19AcceptWithResponderEPNS2_7MessageENSt3__110unique_ptrINS2_25MessageReceiverWithStatusENS9_14default_deleteISB_EEEE(%"class.chrome::mojom::NetErrorPageSupportStub"*, %"class.mojo::Message"*, %"class.mojo::MessageReceiverWithStatus"*) unnamed_addr #0 comdat align 2 {
  %4 = getelementptr inbounds %"class.chrome::mojom::NetErrorPageSupportStub", %"class.chrome::mojom::NetErrorPageSupportStub"* %0, i64 0, i32 1
  %5 = load %"class.chrome::mojom::NetErrorPageSupport"*, %"class.chrome::mojom::NetErrorPageSupport"** %4, align 8
  %6 = icmp eq %"class.chrome::mojom::NetErrorPageSupport"* %5, null
  br i1 %6, label %9, label %7

7:                                                ; preds = %3
  %8 = tail call zeroext i1 @_ZN6chrome5mojom31NetErrorPageSupportStubDispatch19AcceptWithResponderEPNS0_19NetErrorPageSupportEPN4mojo7MessageENSt3__110unique_ptrINS4_25MessageReceiverWithStatusENS7_14default_deleteIS9_EEEE(%"class.chrome::mojom::NetErrorPageSupport"* nonnull %5, %"class.mojo::Message"* %1, %"class.mojo::MessageReceiverWithStatus"* %2) #10
  br label %16

9:                                                ; preds = %3
  %10 = icmp eq %"class.mojo::MessageReceiverWithStatus"* %2, null
  br i1 %10, label %16, label %11

11:                                               ; preds = %9
  %12 = bitcast %"class.mojo::MessageReceiverWithStatus"* %2 to void (%"class.mojo::MessageReceiverWithStatus"*)***
  %13 = load void (%"class.mojo::MessageReceiverWithStatus"*)**, void (%"class.mojo::MessageReceiverWithStatus"*)*** %12, align 8
  %14 = getelementptr inbounds void (%"class.mojo::MessageReceiverWithStatus"*)*, void (%"class.mojo::MessageReceiverWithStatus"*)** %13, i64 1
  %15 = load void (%"class.mojo::MessageReceiverWithStatus"*)*, void (%"class.mojo::MessageReceiverWithStatus"*)** %14, align 8
  tail call void %15(%"class.mojo::MessageReceiverWithStatus"* nonnull %2) #10
  br label %16

16:                                               ; preds = %7, %9, %11
  %17 = phi i1 [ %8, %7 ], [ false, %9 ], [ false, %11 ]
  ret i1 %17
}

declare zeroext i1 @_ZN6chrome5mojom31NetErrorPageSupportStubDispatch6AcceptEPNS0_19NetErrorPageSupportEPN4mojo7MessageE(%"class.chrome::mojom::NetErrorPageSupport"*, %"class.mojo::Message"*) local_unnamed_addr #5

declare zeroext i1 @_ZN6chrome5mojom31NetErrorPageSupportStubDispatch19AcceptWithResponderEPNS0_19NetErrorPageSupportEPN4mojo7MessageENSt3__110unique_ptrINS4_25MessageReceiverWithStatusENS7_14default_deleteIS9_EEEE(%"class.chrome::mojom::NetErrorPageSupport"*, %"class.mojo::Message"*, %"class.mojo::MessageReceiverWithStatus"*) local_unnamed_addr #5

declare void @_ZN4base8internal18WeakPtrFactoryBaseC2Em(%"class.base::internal::WeakPtrFactoryBase"*, i64) unnamed_addr #5

declare void @_ZN4mojo8internal22AssociatedReceiverBase8BindImplENS_29ScopedInterfaceEndpointHandleEPNS_34MessageReceiverWithResponderStatusENSt3__110unique_ptrINS_15MessageReceiverENS5_14default_deleteIS7_EEEEb13scoped_refptrIN4base19SequencedTaskRunnerEEjPKc(%"class.mojo::internal::AssociatedReceiverBase"*, %"class.mojo::ScopedInterfaceEndpointHandle"*, %"class.mojo::MessageReceiverWithResponderStatus"*, %"class.mojo::MessageReceiver"*, i1 zeroext, %"class.base::SequencedTaskRunner"*, i32, i8*) local_unnamed_addr #5

; Function Attrs: argmemonly nounwind
declare void @llvm.memset.p0i8.i64(i8* nocapture writeonly, i8, i64, i1 immarg) #4

declare void @_ZN4mojo8internal22AssociatedReceiverBase5resetEv(%"class.mojo::internal::AssociatedReceiverBase"*) local_unnamed_addr #5

declare zeroext i1 @_ZNK4mojo29ScopedInterfaceEndpointHandle8is_validEv(%"class.mojo::ScopedInterfaceEndpointHandle"*) local_unnamed_addr #5

; Function Attrs: nounwind
declare void @_ZN4mojo8internal22AssociatedReceiverBaseD2Ev(%"class.mojo::internal::AssociatedReceiverBase"*) unnamed_addr #1

declare void @_ZN4mojo8internal22AssociatedReceiverBase9SetFilterENSt3__110unique_ptrINS_13MessageFilterENS2_14default_deleteIS4_EEEE(%"class.mojo::internal::AssociatedReceiverBase"*, %"class.mojo::MessageFilter"*) local_unnamed_addr #5

declare void @_ZN4mojo8internal22AssociatedReceiverBase34set_disconnect_with_reason_handlerEN4base12OnceCallbackIFvjRKNSt3__112basic_stringIcNS4_11char_traitsIcEENS4_9allocatorIcEEEEEEE(%"class.mojo::internal::AssociatedReceiverBase"*, %"class.base::OnceCallback.191"*) local_unnamed_addr #5

; Function Attrs: nounwind
declare void @_ZN4base8internal12CallbackBaseD2Ev(%"class.base::internal::CallbackBase"*) unnamed_addr #1

; Function Attrs: nounwind
declare void @_ZN4base8internal12CallbackBaseC2EONS0_20CallbackBaseCopyableE(%"class.base::internal::CallbackBase"*, %"class.base::internal::CallbackBaseCopyable"* dereferenceable(8)) unnamed_addr #1

declare void @_ZN4mojo8internal22AssociatedReceiverBase15FlushForTestingEv(%"class.mojo::internal::AssociatedReceiverBase"*) local_unnamed_addr #5

declare void @_ZN4base16TaskRunnerTraits8DestructEPKNS_10TaskRunnerE(%"class.base::TaskRunner"*) local_unnamed_addr #5

; Function Attrs: noreturn nounwind
declare void @abort() local_unnamed_addr #7

; Function Attrs: nounwind ssp uwtable
define linkonce_odr hidden void @_ZNSt3__127__tree_balance_after_insertIPNS_16__tree_node_baseIPvEEEEvT_S5_(%"class.std::__1::__tree_node_base"*, %"class.std::__1::__tree_node_base"*) local_unnamed_addr #0 comdat {
  %3 = icmp eq %"class.std::__1::__tree_node_base"* %1, %0
  %4 = getelementptr inbounds %"class.std::__1::__tree_node_base", %"class.std::__1::__tree_node_base"* %1, i64 0, i32 3
  %5 = zext i1 %3 to i8
  store i8 %5, i8* %4, align 8
  br i1 %3, label %156, label %6

6:                                                ; preds = %2, %149
  %7 = phi %"class.std::__1::__tree_node_base"* [ %20, %149 ], [ %1, %2 ]
  %8 = getelementptr inbounds %"class.std::__1::__tree_node_base", %"class.std::__1::__tree_node_base"* %7, i64 0, i32 2
  %9 = bitcast %"class.std::__1::__tree_end_node"** %8 to %"class.std::__1::__tree_node_base"**
  %10 = load %"class.std::__1::__tree_node_base"*, %"class.std::__1::__tree_node_base"** %9, align 8
  %11 = getelementptr inbounds %"class.std::__1::__tree_node_base", %"class.std::__1::__tree_node_base"* %10, i64 0, i32 3
  %12 = load i8, i8* %11, align 8, !range !2
  %13 = icmp eq i8 %12, 0
  br i1 %13, label %14, label %156

14:                                               ; preds = %6
  %15 = getelementptr inbounds %"class.std::__1::__tree_node_base", %"class.std::__1::__tree_node_base"* %10, i64 0, i32 2
  %16 = load %"class.std::__1::__tree_end_node"*, %"class.std::__1::__tree_end_node"** %15, align 8
  %17 = getelementptr inbounds %"class.std::__1::__tree_end_node", %"class.std::__1::__tree_end_node"* %16, i64 0, i32 0
  %18 = load %"class.std::__1::__tree_node_base"*, %"class.std::__1::__tree_node_base"** %17, align 8
  %19 = icmp eq %"class.std::__1::__tree_node_base"* %18, %10
  %20 = bitcast %"class.std::__1::__tree_end_node"* %16 to %"class.std::__1::__tree_node_base"*
  br i1 %19, label %21, label %87

21:                                               ; preds = %14
  %22 = getelementptr inbounds %"class.std::__1::__tree_end_node", %"class.std::__1::__tree_end_node"* %16, i64 1, i32 0
  %23 = load %"class.std::__1::__tree_node_base"*, %"class.std::__1::__tree_node_base"** %22, align 8
  %24 = icmp eq %"class.std::__1::__tree_node_base"* %23, null
  br i1 %24, label %29, label %25

25:                                               ; preds = %21
  %26 = getelementptr inbounds %"class.std::__1::__tree_node_base", %"class.std::__1::__tree_node_base"* %23, i64 0, i32 3
  %27 = load i8, i8* %26, align 8, !range !2
  %28 = icmp eq i8 %27, 0
  br i1 %28, label %149, label %29

29:                                               ; preds = %25, %21
  %30 = getelementptr inbounds %"class.std::__1::__tree_node_base", %"class.std::__1::__tree_node_base"* %10, i64 0, i32 2
  %31 = bitcast %"class.std::__1::__tree_end_node"* %16 to %"class.std::__1::__tree_node_base"*
  %32 = getelementptr inbounds %"class.std::__1::__tree_node_base", %"class.std::__1::__tree_node_base"* %10, i64 0, i32 0, i32 0
  %33 = load %"class.std::__1::__tree_node_base"*, %"class.std::__1::__tree_node_base"** %32, align 8
  %34 = icmp eq %"class.std::__1::__tree_node_base"* %33, %7
  br i1 %34, label %61, label %35

35:                                               ; preds = %29
  %36 = ptrtoint %"class.std::__1::__tree_end_node"* %16 to i64
  %37 = getelementptr inbounds %"class.std::__1::__tree_node_base", %"class.std::__1::__tree_node_base"* %10, i64 0, i32 1
  %38 = load %"class.std::__1::__tree_node_base"*, %"class.std::__1::__tree_node_base"** %37, align 8
  %39 = getelementptr inbounds %"class.std::__1::__tree_node_base", %"class.std::__1::__tree_node_base"* %38, i64 0, i32 0, i32 0
  %40 = load %"class.std::__1::__tree_node_base"*, %"class.std::__1::__tree_node_base"** %39, align 8
  store %"class.std::__1::__tree_node_base"* %40, %"class.std::__1::__tree_node_base"** %37, align 8
  %41 = icmp eq %"class.std::__1::__tree_node_base"* %40, null
  br i1 %41, label %47, label %42

42:                                               ; preds = %35
  %43 = getelementptr inbounds %"class.std::__1::__tree_node_base", %"class.std::__1::__tree_node_base"* %10, i64 0, i32 0
  %44 = getelementptr inbounds %"class.std::__1::__tree_node_base", %"class.std::__1::__tree_node_base"* %40, i64 0, i32 2
  store %"class.std::__1::__tree_end_node"* %43, %"class.std::__1::__tree_end_node"** %44, align 8
  %45 = bitcast %"class.std::__1::__tree_end_node"** %30 to i64*
  %46 = load i64, i64* %45, align 8
  br label %47

47:                                               ; preds = %35, %42
  %48 = phi i64 [ %46, %42 ], [ %36, %35 ]
  %49 = getelementptr inbounds %"class.std::__1::__tree_node_base", %"class.std::__1::__tree_node_base"* %38, i64 0, i32 2
  %50 = bitcast %"class.std::__1::__tree_end_node"** %49 to i64*
  store i64 %48, i64* %50, align 8
  %51 = load %"class.std::__1::__tree_end_node"*, %"class.std::__1::__tree_end_node"** %30, align 8
  %52 = getelementptr inbounds %"class.std::__1::__tree_end_node", %"class.std::__1::__tree_end_node"* %51, i64 0, i32 0
  %53 = load %"class.std::__1::__tree_node_base"*, %"class.std::__1::__tree_node_base"** %52, align 8
  %54 = icmp eq %"class.std::__1::__tree_node_base"* %53, %10
  %55 = getelementptr inbounds %"class.std::__1::__tree_end_node", %"class.std::__1::__tree_end_node"* %51, i64 1, i32 0
  %56 = select i1 %54, %"class.std::__1::__tree_node_base"** %52, %"class.std::__1::__tree_node_base"** %55
  store %"class.std::__1::__tree_node_base"* %38, %"class.std::__1::__tree_node_base"** %56, align 8
  store %"class.std::__1::__tree_node_base"* %10, %"class.std::__1::__tree_node_base"** %39, align 8
  %57 = getelementptr inbounds %"class.std::__1::__tree_node_base", %"class.std::__1::__tree_node_base"* %38, i64 0, i32 0
  store %"class.std::__1::__tree_end_node"* %57, %"class.std::__1::__tree_end_node"** %30, align 8
  %58 = getelementptr inbounds %"class.std::__1::__tree_node_base", %"class.std::__1::__tree_node_base"* %38, i64 0, i32 2
  %59 = bitcast %"class.std::__1::__tree_end_node"** %58 to %"class.std::__1::__tree_node_base"**
  %60 = load %"class.std::__1::__tree_node_base"*, %"class.std::__1::__tree_node_base"** %59, align 8
  br label %61

61:                                               ; preds = %47, %29
  %62 = phi %"class.std::__1::__tree_node_base"* [ %31, %29 ], [ %60, %47 ]
  %63 = phi %"class.std::__1::__tree_node_base"* [ %10, %29 ], [ %38, %47 ]
  %64 = getelementptr inbounds %"class.std::__1::__tree_node_base", %"class.std::__1::__tree_node_base"* %63, i64 0, i32 3
  store i8 1, i8* %64, align 8
  %65 = getelementptr inbounds %"class.std::__1::__tree_node_base", %"class.std::__1::__tree_node_base"* %62, i64 0, i32 3
  store i8 0, i8* %65, align 8
  %66 = getelementptr inbounds %"class.std::__1::__tree_node_base", %"class.std::__1::__tree_node_base"* %62, i64 0, i32 0, i32 0
  %67 = load %"class.std::__1::__tree_node_base"*, %"class.std::__1::__tree_node_base"** %66, align 8
  %68 = getelementptr inbounds %"class.std::__1::__tree_node_base", %"class.std::__1::__tree_node_base"* %67, i64 0, i32 1
  %69 = load %"class.std::__1::__tree_node_base"*, %"class.std::__1::__tree_node_base"** %68, align 8
  store %"class.std::__1::__tree_node_base"* %69, %"class.std::__1::__tree_node_base"** %66, align 8
  %70 = icmp eq %"class.std::__1::__tree_node_base"* %69, null
  br i1 %70, label %74, label %71

71:                                               ; preds = %61
  %72 = getelementptr inbounds %"class.std::__1::__tree_node_base", %"class.std::__1::__tree_node_base"* %62, i64 0, i32 0
  %73 = getelementptr inbounds %"class.std::__1::__tree_node_base", %"class.std::__1::__tree_node_base"* %69, i64 0, i32 2
  store %"class.std::__1::__tree_end_node"* %72, %"class.std::__1::__tree_end_node"** %73, align 8
  br label %74

74:                                               ; preds = %71, %61
  %75 = getelementptr inbounds %"class.std::__1::__tree_node_base", %"class.std::__1::__tree_node_base"* %62, i64 0, i32 2
  %76 = bitcast %"class.std::__1::__tree_end_node"** %75 to i64*
  %77 = load i64, i64* %76, align 8
  %78 = getelementptr inbounds %"class.std::__1::__tree_node_base", %"class.std::__1::__tree_node_base"* %67, i64 0, i32 2
  %79 = bitcast %"class.std::__1::__tree_end_node"** %78 to i64*
  store i64 %77, i64* %79, align 8
  %80 = load %"class.std::__1::__tree_end_node"*, %"class.std::__1::__tree_end_node"** %75, align 8
  %81 = getelementptr inbounds %"class.std::__1::__tree_end_node", %"class.std::__1::__tree_end_node"* %80, i64 0, i32 0
  %82 = load %"class.std::__1::__tree_node_base"*, %"class.std::__1::__tree_node_base"** %81, align 8
  %83 = icmp eq %"class.std::__1::__tree_node_base"* %82, %62
  %84 = getelementptr inbounds %"class.std::__1::__tree_end_node", %"class.std::__1::__tree_end_node"* %80, i64 1, i32 0
  %85 = select i1 %83, %"class.std::__1::__tree_node_base"** %81, %"class.std::__1::__tree_node_base"** %84
  store %"class.std::__1::__tree_node_base"* %67, %"class.std::__1::__tree_node_base"** %85, align 8
  store %"class.std::__1::__tree_node_base"* %62, %"class.std::__1::__tree_node_base"** %68, align 8
  %86 = getelementptr inbounds %"class.std::__1::__tree_node_base", %"class.std::__1::__tree_node_base"* %67, i64 0, i32 0
  store %"class.std::__1::__tree_end_node"* %86, %"class.std::__1::__tree_end_node"** %75, align 8
  br label %156

87:                                               ; preds = %14
  %88 = icmp eq %"class.std::__1::__tree_node_base"* %18, null
  br i1 %88, label %93, label %89

89:                                               ; preds = %87
  %90 = getelementptr inbounds %"class.std::__1::__tree_node_base", %"class.std::__1::__tree_node_base"* %18, i64 0, i32 3
  %91 = load i8, i8* %90, align 8, !range !2
  %92 = icmp eq i8 %91, 0
  br i1 %92, label %149, label %93

93:                                               ; preds = %89, %87
  %94 = getelementptr inbounds %"class.std::__1::__tree_node_base", %"class.std::__1::__tree_node_base"* %10, i64 0, i32 2
  %95 = bitcast %"class.std::__1::__tree_end_node"* %16 to %"class.std::__1::__tree_node_base"*
  %96 = getelementptr inbounds %"class.std::__1::__tree_node_base", %"class.std::__1::__tree_node_base"* %10, i64 0, i32 0, i32 0
  %97 = load %"class.std::__1::__tree_node_base"*, %"class.std::__1::__tree_node_base"** %96, align 8
  %98 = icmp eq %"class.std::__1::__tree_node_base"* %97, %7
  br i1 %98, label %99, label %123

99:                                               ; preds = %93
  %100 = ptrtoint %"class.std::__1::__tree_end_node"* %16 to i64
  %101 = getelementptr inbounds %"class.std::__1::__tree_node_base", %"class.std::__1::__tree_node_base"* %10, i64 0, i32 0, i32 0
  %102 = getelementptr inbounds %"class.std::__1::__tree_node_base", %"class.std::__1::__tree_node_base"* %7, i64 0, i32 1
  %103 = load %"class.std::__1::__tree_node_base"*, %"class.std::__1::__tree_node_base"** %102, align 8
  store %"class.std::__1::__tree_node_base"* %103, %"class.std::__1::__tree_node_base"** %101, align 8
  %104 = icmp eq %"class.std::__1::__tree_node_base"* %103, null
  br i1 %104, label %110, label %105

105:                                              ; preds = %99
  %106 = getelementptr inbounds %"class.std::__1::__tree_node_base", %"class.std::__1::__tree_node_base"* %10, i64 0, i32 0
  %107 = getelementptr inbounds %"class.std::__1::__tree_node_base", %"class.std::__1::__tree_node_base"* %103, i64 0, i32 2
  store %"class.std::__1::__tree_end_node"* %106, %"class.std::__1::__tree_end_node"** %107, align 8
  %108 = bitcast %"class.std::__1::__tree_end_node"** %94 to i64*
  %109 = load i64, i64* %108, align 8
  br label %110

110:                                              ; preds = %99, %105
  %111 = phi i64 [ %109, %105 ], [ %100, %99 ]
  %112 = bitcast %"class.std::__1::__tree_end_node"** %8 to i64*
  store i64 %111, i64* %112, align 8
  %113 = load %"class.std::__1::__tree_end_node"*, %"class.std::__1::__tree_end_node"** %94, align 8
  %114 = getelementptr inbounds %"class.std::__1::__tree_end_node", %"class.std::__1::__tree_end_node"* %113, i64 0, i32 0
  %115 = load %"class.std::__1::__tree_node_base"*, %"class.std::__1::__tree_node_base"** %114, align 8
  %116 = icmp eq %"class.std::__1::__tree_node_base"* %115, %10
  %117 = getelementptr inbounds %"class.std::__1::__tree_end_node", %"class.std::__1::__tree_end_node"* %113, i64 1, i32 0
  %118 = select i1 %116, %"class.std::__1::__tree_node_base"** %114, %"class.std::__1::__tree_node_base"** %117
  store %"class.std::__1::__tree_node_base"* %7, %"class.std::__1::__tree_node_base"** %118, align 8
  store %"class.std::__1::__tree_node_base"* %10, %"class.std::__1::__tree_node_base"** %102, align 8
  %119 = getelementptr inbounds %"class.std::__1::__tree_node_base", %"class.std::__1::__tree_node_base"* %7, i64 0, i32 0
  store %"class.std::__1::__tree_end_node"* %119, %"class.std::__1::__tree_end_node"** %94, align 8
  %120 = getelementptr inbounds %"class.std::__1::__tree_node_base", %"class.std::__1::__tree_node_base"* %7, i64 0, i32 2
  %121 = bitcast %"class.std::__1::__tree_end_node"** %120 to %"class.std::__1::__tree_node_base"**
  %122 = load %"class.std::__1::__tree_node_base"*, %"class.std::__1::__tree_node_base"** %121, align 8
  br label %123

123:                                              ; preds = %93, %110
  %124 = phi %"class.std::__1::__tree_node_base"* [ %122, %110 ], [ %95, %93 ]
  %125 = phi %"class.std::__1::__tree_node_base"* [ %7, %110 ], [ %10, %93 ]
  %126 = getelementptr inbounds %"class.std::__1::__tree_node_base", %"class.std::__1::__tree_node_base"* %125, i64 0, i32 3
  store i8 1, i8* %126, align 8
  %127 = getelementptr inbounds %"class.std::__1::__tree_node_base", %"class.std::__1::__tree_node_base"* %124, i64 0, i32 3
  store i8 0, i8* %127, align 8
  %128 = getelementptr inbounds %"class.std::__1::__tree_node_base", %"class.std::__1::__tree_node_base"* %124, i64 0, i32 1
  %129 = load %"class.std::__1::__tree_node_base"*, %"class.std::__1::__tree_node_base"** %128, align 8
  %130 = getelementptr inbounds %"class.std::__1::__tree_node_base", %"class.std::__1::__tree_node_base"* %129, i64 0, i32 0, i32 0
  %131 = load %"class.std::__1::__tree_node_base"*, %"class.std::__1::__tree_node_base"** %130, align 8
  store %"class.std::__1::__tree_node_base"* %131, %"class.std::__1::__tree_node_base"** %128, align 8
  %132 = icmp eq %"class.std::__1::__tree_node_base"* %131, null
  br i1 %132, label %136, label %133

133:                                              ; preds = %123
  %134 = getelementptr inbounds %"class.std::__1::__tree_node_base", %"class.std::__1::__tree_node_base"* %124, i64 0, i32 0
  %135 = getelementptr inbounds %"class.std::__1::__tree_node_base", %"class.std::__1::__tree_node_base"* %131, i64 0, i32 2
  store %"class.std::__1::__tree_end_node"* %134, %"class.std::__1::__tree_end_node"** %135, align 8
  br label %136

136:                                              ; preds = %133, %123
  %137 = getelementptr inbounds %"class.std::__1::__tree_node_base", %"class.std::__1::__tree_node_base"* %124, i64 0, i32 2
  %138 = bitcast %"class.std::__1::__tree_end_node"** %137 to i64*
  %139 = load i64, i64* %138, align 8
  %140 = getelementptr inbounds %"class.std::__1::__tree_node_base", %"class.std::__1::__tree_node_base"* %129, i64 0, i32 2
  %141 = bitcast %"class.std::__1::__tree_end_node"** %140 to i64*
  store i64 %139, i64* %141, align 8
  %142 = load %"class.std::__1::__tree_end_node"*, %"class.std::__1::__tree_end_node"** %137, align 8
  %143 = getelementptr inbounds %"class.std::__1::__tree_end_node", %"class.std::__1::__tree_end_node"* %142, i64 0, i32 0
  %144 = load %"class.std::__1::__tree_node_base"*, %"class.std::__1::__tree_node_base"** %143, align 8
  %145 = icmp eq %"class.std::__1::__tree_node_base"* %144, %124
  %146 = getelementptr inbounds %"class.std::__1::__tree_end_node", %"class.std::__1::__tree_end_node"* %142, i64 1, i32 0
  %147 = select i1 %145, %"class.std::__1::__tree_node_base"** %143, %"class.std::__1::__tree_node_base"** %146
  store %"class.std::__1::__tree_node_base"* %129, %"class.std::__1::__tree_node_base"** %147, align 8
  store %"class.std::__1::__tree_node_base"* %124, %"class.std::__1::__tree_node_base"** %130, align 8
  %148 = getelementptr inbounds %"class.std::__1::__tree_node_base", %"class.std::__1::__tree_node_base"* %129, i64 0, i32 0
  store %"class.std::__1::__tree_end_node"* %148, %"class.std::__1::__tree_end_node"** %137, align 8
  br label %156

149:                                              ; preds = %89, %25
  %150 = phi i8* [ %26, %25 ], [ %90, %89 ]
  store i8 1, i8* %11, align 8
  %151 = icmp eq %"class.std::__1::__tree_node_base"* %20, %0
  %152 = getelementptr inbounds %"class.std::__1::__tree_end_node", %"class.std::__1::__tree_end_node"* %16, i64 3
  %153 = bitcast %"class.std::__1::__tree_end_node"* %152 to i8*
  %154 = zext i1 %151 to i8
  store i8 %154, i8* %153, align 8
  store i8 1, i8* %150, align 8
  %155 = icmp eq %"class.std::__1::__tree_node_base"* %20, %0
  br i1 %155, label %156, label %6

156:                                              ; preds = %6, %149, %2, %136, %74
  ret void
}

; Function Attrs: noreturn
declare void @_ZNKSt3__120__vector_base_commonILb1EE20__throw_length_errorEv(%"class.std::__1::__vector_base_common"*) local_unnamed_addr #8

; Function Attrs: nounwind ssp uwtable
define linkonce_odr hidden void @_ZNSt3__16__treeINS_12__value_typeImNS_10unique_ptrIN4mojo16ReceiverSetState5EntryENS_14default_deleteIS5_EEEEEENS_19__map_value_compareImS9_NS_4lessImEELb1EEENS_9allocatorIS9_EEE7destroyEPNS_11__tree_nodeIS9_PvEE(%"class.std::__1::__tree.7"*, %"class.std::__1::__tree_node.354"*) local_unnamed_addr #0 comdat align 2 {
  %3 = icmp eq %"class.std::__1::__tree_node.354"* %1, null
  br i1 %3, label %17, label %4

4:                                                ; preds = %2
  %5 = bitcast %"class.std::__1::__tree_node.354"* %1 to %"class.std::__1::__tree_node.354"**
  %6 = load %"class.std::__1::__tree_node.354"*, %"class.std::__1::__tree_node.354"** %5, align 8
  tail call void @_ZNSt3__16__treeINS_12__value_typeImNS_10unique_ptrIN4mojo16ReceiverSetState5EntryENS_14default_deleteIS5_EEEEEENS_19__map_value_compareImS9_NS_4lessImEELb1EEENS_9allocatorIS9_EEE7destroyEPNS_11__tree_nodeIS9_PvEE(%"class.std::__1::__tree.7"* %0, %"class.std::__1::__tree_node.354"* %6) #10
  %7 = getelementptr inbounds %"class.std::__1::__tree_node.354", %"class.std::__1::__tree_node.354"* %1, i64 0, i32 0, i32 1
  %8 = bitcast %"class.std::__1::__tree_node_base"** %7 to %"class.std::__1::__tree_node.354"**
  %9 = load %"class.std::__1::__tree_node.354"*, %"class.std::__1::__tree_node.354"** %8, align 8
  tail call void @_ZNSt3__16__treeINS_12__value_typeImNS_10unique_ptrIN4mojo16ReceiverSetState5EntryENS_14default_deleteIS5_EEEEEENS_19__map_value_compareImS9_NS_4lessImEELb1EEENS_9allocatorIS9_EEE7destroyEPNS_11__tree_nodeIS9_PvEE(%"class.std::__1::__tree.7"* %0, %"class.std::__1::__tree_node.354"* %9) #10
  %10 = getelementptr inbounds %"class.std::__1::__tree_node.354", %"class.std::__1::__tree_node.354"* %1, i64 0, i32 1, i32 0, i32 1, i32 0, i32 0, i32 0
  %11 = load %"class.mojo::ReceiverSetState::Entry"*, %"class.mojo::ReceiverSetState::Entry"** %10, align 8
  store %"class.mojo::ReceiverSetState::Entry"* null, %"class.mojo::ReceiverSetState::Entry"** %10, align 8
  %12 = icmp eq %"class.mojo::ReceiverSetState::Entry"* %11, null
  br i1 %12, label %15, label %13

13:                                               ; preds = %4
  tail call void @_ZN4mojo16ReceiverSetState5EntryD1Ev(%"class.mojo::ReceiverSetState::Entry"* nonnull %11) #10
  %14 = bitcast %"class.mojo::ReceiverSetState::Entry"* %11 to i8*
  tail call void @_ZdlPv(i8* %14) #11
  br label %15

15:                                               ; preds = %4, %13
  %16 = bitcast %"class.std::__1::__tree_node.354"* %1 to i8*
  tail call void @_ZdlPv(i8* %16) #11
  br label %17

17:                                               ; preds = %2, %15
  ret void
}

; Function Attrs: nounwind
declare void @_ZN4mojo16ReceiverSetState5EntryD1Ev(%"class.mojo::ReceiverSetState::Entry"*) unnamed_addr #1

declare zeroext i1 @_ZN4mojo16ReceiverSetState6RemoveEm(%"class.mojo::ReceiverSetState"*, i64) local_unnamed_addr #5

; Function Attrs: nounwind ssp uwtable
define linkonce_odr hidden void @_ZNSt3__113__tree_removeIPNS_16__tree_node_baseIPvEEEEvT_S5_(%"class.std::__1::__tree_node_base"*, %"class.std::__1::__tree_node_base"*) local_unnamed_addr #0 comdat {
  %3 = getelementptr inbounds %"class.std::__1::__tree_node_base", %"class.std::__1::__tree_node_base"* %1, i64 0, i32 0, i32 0
  %4 = load %"class.std::__1::__tree_node_base"*, %"class.std::__1::__tree_node_base"** %3, align 8
  %5 = icmp eq %"class.std::__1::__tree_node_base"* %4, null
  br i1 %5, label %17, label %6

6:                                                ; preds = %2
  %7 = getelementptr inbounds %"class.std::__1::__tree_node_base", %"class.std::__1::__tree_node_base"* %1, i64 0, i32 1
  %8 = load %"class.std::__1::__tree_node_base"*, %"class.std::__1::__tree_node_base"** %7, align 8
  %9 = icmp eq %"class.std::__1::__tree_node_base"* %8, null
  br i1 %9, label %15, label %10

10:                                               ; preds = %6, %10
  %11 = phi %"class.std::__1::__tree_node_base"* [ %13, %10 ], [ %8, %6 ]
  %12 = getelementptr inbounds %"class.std::__1::__tree_node_base", %"class.std::__1::__tree_node_base"* %11, i64 0, i32 0, i32 0
  %13 = load %"class.std::__1::__tree_node_base"*, %"class.std::__1::__tree_node_base"** %12, align 8
  %14 = icmp eq %"class.std::__1::__tree_node_base"* %13, null
  br i1 %14, label %17, label %10

15:                                               ; preds = %6
  %16 = getelementptr inbounds %"class.std::__1::__tree_node_base", %"class.std::__1::__tree_node_base"* %1, i64 0, i32 0, i32 0
  br label %23

17:                                               ; preds = %10, %2
  %18 = phi %"class.std::__1::__tree_node_base"* [ %1, %2 ], [ %11, %10 ]
  %19 = getelementptr inbounds %"class.std::__1::__tree_node_base", %"class.std::__1::__tree_node_base"* %18, i64 0, i32 0, i32 0
  %20 = getelementptr inbounds %"class.std::__1::__tree_node_base", %"class.std::__1::__tree_node_base"* %18, i64 0, i32 1
  %21 = load %"class.std::__1::__tree_node_base"*, %"class.std::__1::__tree_node_base"** %20, align 8
  %22 = icmp eq %"class.std::__1::__tree_node_base"* %21, null
  br i1 %22, label %32, label %23

23:                                               ; preds = %15, %17
  %24 = phi %"class.std::__1::__tree_node_base"** [ %19, %17 ], [ %16, %15 ]
  %25 = phi %"class.std::__1::__tree_node_base"* [ %18, %17 ], [ %1, %15 ]
  %26 = phi %"class.std::__1::__tree_node_base"* [ %21, %17 ], [ %4, %15 ]
  %27 = getelementptr inbounds %"class.std::__1::__tree_node_base", %"class.std::__1::__tree_node_base"* %25, i64 0, i32 2
  %28 = bitcast %"class.std::__1::__tree_end_node"** %27 to i64*
  %29 = load i64, i64* %28, align 8
  %30 = getelementptr inbounds %"class.std::__1::__tree_node_base", %"class.std::__1::__tree_node_base"* %26, i64 0, i32 2
  %31 = bitcast %"class.std::__1::__tree_end_node"** %30 to i64*
  store i64 %29, i64* %31, align 8
  br label %32

32:                                               ; preds = %17, %23
  %33 = phi %"class.std::__1::__tree_node_base"** [ %24, %23 ], [ %19, %17 ]
  %34 = phi %"class.std::__1::__tree_node_base"* [ %25, %23 ], [ %18, %17 ]
  %35 = phi i1 [ true, %23 ], [ false, %17 ]
  %36 = phi %"class.std::__1::__tree_node_base"* [ %26, %23 ], [ null, %17 ]
  %37 = getelementptr inbounds %"class.std::__1::__tree_node_base", %"class.std::__1::__tree_node_base"* %34, i64 0, i32 2
  %38 = load %"class.std::__1::__tree_end_node"*, %"class.std::__1::__tree_end_node"** %37, align 8
  %39 = getelementptr inbounds %"class.std::__1::__tree_end_node", %"class.std::__1::__tree_end_node"* %38, i64 0, i32 0
  %40 = load %"class.std::__1::__tree_node_base"*, %"class.std::__1::__tree_node_base"** %39, align 8
  %41 = icmp eq %"class.std::__1::__tree_node_base"* %40, %34
  br i1 %41, label %42, label %48

42:                                               ; preds = %32
  store %"class.std::__1::__tree_node_base"* %36, %"class.std::__1::__tree_node_base"** %39, align 8
  %43 = icmp eq %"class.std::__1::__tree_node_base"* %34, %0
  br i1 %43, label %55, label %44

44:                                               ; preds = %42
  %45 = bitcast %"class.std::__1::__tree_end_node"** %37 to %"class.std::__1::__tree_node_base"**
  %46 = load %"class.std::__1::__tree_node_base"*, %"class.std::__1::__tree_node_base"** %45, align 8
  %47 = getelementptr inbounds %"class.std::__1::__tree_node_base", %"class.std::__1::__tree_node_base"* %46, i64 0, i32 1
  br label %52

48:                                               ; preds = %32
  %49 = getelementptr inbounds %"class.std::__1::__tree_end_node", %"class.std::__1::__tree_end_node"* %38, i64 1, i32 0
  store %"class.std::__1::__tree_node_base"* %36, %"class.std::__1::__tree_node_base"** %49, align 8
  %50 = load %"class.std::__1::__tree_end_node"*, %"class.std::__1::__tree_end_node"** %37, align 8
  %51 = getelementptr inbounds %"class.std::__1::__tree_end_node", %"class.std::__1::__tree_end_node"* %50, i64 0, i32 0
  br label %52

52:                                               ; preds = %48, %44
  %53 = phi %"class.std::__1::__tree_node_base"** [ %47, %44 ], [ %51, %48 ]
  %54 = load %"class.std::__1::__tree_node_base"*, %"class.std::__1::__tree_node_base"** %53, align 8
  br label %55

55:                                               ; preds = %52, %42
  %56 = phi %"class.std::__1::__tree_node_base"* [ %36, %42 ], [ %0, %52 ]
  %57 = phi %"class.std::__1::__tree_node_base"* [ null, %42 ], [ %54, %52 ]
  %58 = getelementptr inbounds %"class.std::__1::__tree_node_base", %"class.std::__1::__tree_node_base"* %34, i64 0, i32 3
  %59 = load i8, i8* %58, align 8, !range !2
  %60 = icmp ne i8 %59, 0
  %61 = icmp eq %"class.std::__1::__tree_node_base"* %34, %1
  br i1 %61, label %90, label %62

62:                                               ; preds = %55
  %63 = getelementptr inbounds %"class.std::__1::__tree_node_base", %"class.std::__1::__tree_node_base"* %1, i64 0, i32 2
  %64 = bitcast %"class.std::__1::__tree_end_node"** %63 to i64*
  %65 = load i64, i64* %64, align 8
  %66 = bitcast %"class.std::__1::__tree_end_node"** %37 to i64*
  store i64 %65, i64* %66, align 8
  %67 = load %"class.std::__1::__tree_end_node"*, %"class.std::__1::__tree_end_node"** %63, align 8
  %68 = getelementptr inbounds %"class.std::__1::__tree_end_node", %"class.std::__1::__tree_end_node"* %67, i64 0, i32 0
  %69 = load %"class.std::__1::__tree_node_base"*, %"class.std::__1::__tree_node_base"** %68, align 8
  %70 = icmp eq %"class.std::__1::__tree_node_base"* %69, %1
  %71 = inttoptr i64 %65 to %"class.std::__1::__tree_node_base"*
  %72 = getelementptr inbounds %"class.std::__1::__tree_node_base", %"class.std::__1::__tree_node_base"* %71, i64 0, i32 1
  %73 = inttoptr i64 %65 to %"class.std::__1::__tree_end_node"*
  %74 = getelementptr inbounds %"class.std::__1::__tree_end_node", %"class.std::__1::__tree_end_node"* %73, i64 0, i32 0
  %75 = select i1 %70, %"class.std::__1::__tree_node_base"** %74, %"class.std::__1::__tree_node_base"** %72
  store %"class.std::__1::__tree_node_base"* %34, %"class.std::__1::__tree_node_base"** %75, align 8
  %76 = load %"class.std::__1::__tree_node_base"*, %"class.std::__1::__tree_node_base"** %3, align 8
  store %"class.std::__1::__tree_node_base"* %76, %"class.std::__1::__tree_node_base"** %33, align 8
  %77 = getelementptr inbounds %"class.std::__1::__tree_node_base", %"class.std::__1::__tree_node_base"* %34, i64 0, i32 0
  %78 = getelementptr inbounds %"class.std::__1::__tree_node_base", %"class.std::__1::__tree_node_base"* %76, i64 0, i32 2
  store %"class.std::__1::__tree_end_node"* %77, %"class.std::__1::__tree_end_node"** %78, align 8
  %79 = getelementptr inbounds %"class.std::__1::__tree_node_base", %"class.std::__1::__tree_node_base"* %1, i64 0, i32 1
  %80 = load %"class.std::__1::__tree_node_base"*, %"class.std::__1::__tree_node_base"** %79, align 8
  %81 = getelementptr inbounds %"class.std::__1::__tree_node_base", %"class.std::__1::__tree_node_base"* %34, i64 0, i32 1
  store %"class.std::__1::__tree_node_base"* %80, %"class.std::__1::__tree_node_base"** %81, align 8
  %82 = icmp eq %"class.std::__1::__tree_node_base"* %80, null
  br i1 %82, label %85, label %83

83:                                               ; preds = %62
  %84 = getelementptr inbounds %"class.std::__1::__tree_node_base", %"class.std::__1::__tree_node_base"* %80, i64 0, i32 2
  store %"class.std::__1::__tree_end_node"* %77, %"class.std::__1::__tree_end_node"** %84, align 8
  br label %85

85:                                               ; preds = %62, %83
  %86 = getelementptr inbounds %"class.std::__1::__tree_node_base", %"class.std::__1::__tree_node_base"* %1, i64 0, i32 3
  %87 = load i8, i8* %86, align 8, !range !2
  store i8 %87, i8* %58, align 8
  %88 = icmp eq %"class.std::__1::__tree_node_base"* %56, %1
  %89 = select i1 %88, %"class.std::__1::__tree_node_base"* %34, %"class.std::__1::__tree_node_base"* %56
  br label %90

90:                                               ; preds = %85, %55
  %91 = phi %"class.std::__1::__tree_node_base"* [ %56, %55 ], [ %89, %85 ]
  %92 = icmp ne %"class.std::__1::__tree_node_base"* %91, null
  %93 = and i1 %60, %92
  br i1 %93, label %94, label %382

94:                                               ; preds = %90
  br i1 %35, label %95, label %97

95:                                               ; preds = %94
  %96 = getelementptr inbounds %"class.std::__1::__tree_node_base", %"class.std::__1::__tree_node_base"* %36, i64 0, i32 3
  store i8 1, i8* %96, align 8
  br label %382

97:                                               ; preds = %94, %371
  %98 = phi %"class.std::__1::__tree_node_base"* [ %373, %371 ], [ %91, %94 ]
  %99 = phi %"class.std::__1::__tree_node_base"* [ %381, %371 ], [ %57, %94 ]
  %100 = getelementptr inbounds %"class.std::__1::__tree_node_base", %"class.std::__1::__tree_node_base"* %99, i64 0, i32 2
  %101 = load %"class.std::__1::__tree_end_node"*, %"class.std::__1::__tree_end_node"** %100, align 8
  %102 = getelementptr inbounds %"class.std::__1::__tree_end_node", %"class.std::__1::__tree_end_node"* %101, i64 0, i32 0
  %103 = load %"class.std::__1::__tree_node_base"*, %"class.std::__1::__tree_node_base"** %102, align 8
  %104 = icmp eq %"class.std::__1::__tree_node_base"* %103, %99
  %105 = getelementptr inbounds %"class.std::__1::__tree_node_base", %"class.std::__1::__tree_node_base"* %99, i64 0, i32 3
  %106 = load i8, i8* %105, align 8, !range !2
  %107 = icmp ne i8 %106, 0
  br i1 %104, label %242, label %108

108:                                              ; preds = %97
  br i1 %107, label %141, label %109

109:                                              ; preds = %108
  store i8 1, i8* %105, align 8
  %110 = bitcast %"class.std::__1::__tree_end_node"** %100 to %"class.std::__1::__tree_node_base"**
  %111 = getelementptr inbounds %"class.std::__1::__tree_end_node", %"class.std::__1::__tree_end_node"* %101, i64 3
  %112 = bitcast %"class.std::__1::__tree_end_node"* %111 to i8*
  store i8 0, i8* %112, align 8
  %113 = load %"class.std::__1::__tree_node_base"*, %"class.std::__1::__tree_node_base"** %110, align 8
  %114 = getelementptr inbounds %"class.std::__1::__tree_node_base", %"class.std::__1::__tree_node_base"* %113, i64 0, i32 1
  %115 = load %"class.std::__1::__tree_node_base"*, %"class.std::__1::__tree_node_base"** %114, align 8
  %116 = getelementptr inbounds %"class.std::__1::__tree_node_base", %"class.std::__1::__tree_node_base"* %115, i64 0, i32 0, i32 0
  %117 = load %"class.std::__1::__tree_node_base"*, %"class.std::__1::__tree_node_base"** %116, align 8
  store %"class.std::__1::__tree_node_base"* %117, %"class.std::__1::__tree_node_base"** %114, align 8
  %118 = icmp eq %"class.std::__1::__tree_node_base"* %117, null
  br i1 %118, label %122, label %119

119:                                              ; preds = %109
  %120 = getelementptr inbounds %"class.std::__1::__tree_node_base", %"class.std::__1::__tree_node_base"* %113, i64 0, i32 0
  %121 = getelementptr inbounds %"class.std::__1::__tree_node_base", %"class.std::__1::__tree_node_base"* %117, i64 0, i32 2
  store %"class.std::__1::__tree_end_node"* %120, %"class.std::__1::__tree_end_node"** %121, align 8
  br label %122

122:                                              ; preds = %119, %109
  %123 = getelementptr inbounds %"class.std::__1::__tree_node_base", %"class.std::__1::__tree_node_base"* %113, i64 0, i32 2
  %124 = bitcast %"class.std::__1::__tree_end_node"** %123 to i64*
  %125 = load i64, i64* %124, align 8
  %126 = getelementptr inbounds %"class.std::__1::__tree_node_base", %"class.std::__1::__tree_node_base"* %115, i64 0, i32 2
  %127 = bitcast %"class.std::__1::__tree_end_node"** %126 to i64*
  store i64 %125, i64* %127, align 8
  %128 = load %"class.std::__1::__tree_end_node"*, %"class.std::__1::__tree_end_node"** %123, align 8
  %129 = getelementptr inbounds %"class.std::__1::__tree_end_node", %"class.std::__1::__tree_end_node"* %128, i64 0, i32 0
  %130 = load %"class.std::__1::__tree_node_base"*, %"class.std::__1::__tree_node_base"** %129, align 8
  %131 = icmp eq %"class.std::__1::__tree_node_base"* %130, %113
  %132 = getelementptr inbounds %"class.std::__1::__tree_end_node", %"class.std::__1::__tree_end_node"* %128, i64 1, i32 0
  %133 = select i1 %131, %"class.std::__1::__tree_node_base"** %129, %"class.std::__1::__tree_node_base"** %132
  store %"class.std::__1::__tree_node_base"* %115, %"class.std::__1::__tree_node_base"** %133, align 8
  store %"class.std::__1::__tree_node_base"* %113, %"class.std::__1::__tree_node_base"** %116, align 8
  %134 = getelementptr inbounds %"class.std::__1::__tree_node_base", %"class.std::__1::__tree_node_base"* %115, i64 0, i32 0
  store %"class.std::__1::__tree_end_node"* %134, %"class.std::__1::__tree_end_node"** %123, align 8
  %135 = getelementptr inbounds %"class.std::__1::__tree_node_base", %"class.std::__1::__tree_node_base"* %99, i64 0, i32 0, i32 0
  %136 = load %"class.std::__1::__tree_node_base"*, %"class.std::__1::__tree_node_base"** %135, align 8
  %137 = icmp eq %"class.std::__1::__tree_node_base"* %98, %136
  %138 = select i1 %137, %"class.std::__1::__tree_node_base"* %99, %"class.std::__1::__tree_node_base"* %98
  %139 = getelementptr inbounds %"class.std::__1::__tree_node_base", %"class.std::__1::__tree_node_base"* %136, i64 0, i32 1
  %140 = load %"class.std::__1::__tree_node_base"*, %"class.std::__1::__tree_node_base"** %139, align 8
  br label %141

141:                                              ; preds = %122, %108
  %142 = phi %"class.std::__1::__tree_node_base"* [ %98, %108 ], [ %138, %122 ]
  %143 = phi %"class.std::__1::__tree_node_base"* [ %99, %108 ], [ %140, %122 ]
  %144 = getelementptr inbounds %"class.std::__1::__tree_node_base", %"class.std::__1::__tree_node_base"* %143, i64 0, i32 0, i32 0
  %145 = load %"class.std::__1::__tree_node_base"*, %"class.std::__1::__tree_node_base"** %144, align 8
  %146 = icmp eq %"class.std::__1::__tree_node_base"* %145, null
  br i1 %146, label %151, label %147

147:                                              ; preds = %141
  %148 = getelementptr inbounds %"class.std::__1::__tree_node_base", %"class.std::__1::__tree_node_base"* %145, i64 0, i32 3
  %149 = load i8, i8* %148, align 8, !range !2
  %150 = icmp eq i8 %149, 0
  br i1 %150, label %172, label %151

151:                                              ; preds = %147, %141
  %152 = getelementptr inbounds %"class.std::__1::__tree_node_base", %"class.std::__1::__tree_node_base"* %143, i64 0, i32 1
  %153 = load %"class.std::__1::__tree_node_base"*, %"class.std::__1::__tree_node_base"** %152, align 8
  %154 = icmp eq %"class.std::__1::__tree_node_base"* %153, null
  br i1 %154, label %159, label %155

155:                                              ; preds = %151
  %156 = getelementptr inbounds %"class.std::__1::__tree_node_base", %"class.std::__1::__tree_node_base"* %153, i64 0, i32 3
  %157 = load i8, i8* %156, align 8, !range !2
  %158 = icmp eq i8 %157, 0
  br i1 %158, label %177, label %159

159:                                              ; preds = %155, %151
  %160 = getelementptr inbounds %"class.std::__1::__tree_node_base", %"class.std::__1::__tree_node_base"* %143, i64 0, i32 3
  store i8 0, i8* %160, align 8
  %161 = getelementptr inbounds %"class.std::__1::__tree_node_base", %"class.std::__1::__tree_node_base"* %143, i64 0, i32 2
  %162 = bitcast %"class.std::__1::__tree_end_node"** %161 to %"class.std::__1::__tree_node_base"**
  %163 = load %"class.std::__1::__tree_node_base"*, %"class.std::__1::__tree_node_base"** %162, align 8
  %164 = icmp eq %"class.std::__1::__tree_node_base"* %163, %142
  br i1 %164, label %169, label %165

165:                                              ; preds = %159
  %166 = getelementptr inbounds %"class.std::__1::__tree_node_base", %"class.std::__1::__tree_node_base"* %163, i64 0, i32 3
  %167 = load i8, i8* %166, align 8, !range !2
  %168 = icmp eq i8 %167, 0
  br i1 %168, label %169, label %371

169:                                              ; preds = %165, %159
  %170 = phi %"class.std::__1::__tree_node_base"* [ %163, %165 ], [ %142, %159 ]
  %171 = getelementptr inbounds %"class.std::__1::__tree_node_base", %"class.std::__1::__tree_node_base"* %170, i64 0, i32 3
  store i8 1, i8* %171, align 8
  br label %382

172:                                              ; preds = %147
  %173 = getelementptr inbounds %"class.std::__1::__tree_node_base", %"class.std::__1::__tree_node_base"* %143, i64 0, i32 0, i32 0
  %174 = getelementptr inbounds %"class.std::__1::__tree_node_base", %"class.std::__1::__tree_node_base"* %143, i64 0, i32 1
  %175 = load %"class.std::__1::__tree_node_base"*, %"class.std::__1::__tree_node_base"** %174, align 8
  %176 = icmp eq %"class.std::__1::__tree_node_base"* %175, null
  br i1 %176, label %185, label %179

177:                                              ; preds = %155
  %178 = getelementptr inbounds %"class.std::__1::__tree_node_base", %"class.std::__1::__tree_node_base"* %143, i64 0, i32 0, i32 0
  br label %179

179:                                              ; preds = %177, %172
  %180 = phi %"class.std::__1::__tree_node_base"** [ %173, %172 ], [ %178, %177 ]
  %181 = phi %"class.std::__1::__tree_node_base"* [ %175, %172 ], [ %153, %177 ]
  %182 = getelementptr inbounds %"class.std::__1::__tree_node_base", %"class.std::__1::__tree_node_base"* %181, i64 0, i32 3
  %183 = load i8, i8* %182, align 8, !range !2
  %184 = icmp eq i8 %183, 0
  br i1 %184, label %209, label %185

185:                                              ; preds = %179, %172
  %186 = phi %"class.std::__1::__tree_node_base"** [ %180, %179 ], [ %173, %172 ]
  %187 = getelementptr inbounds %"class.std::__1::__tree_node_base", %"class.std::__1::__tree_node_base"* %145, i64 0, i32 3
  store i8 1, i8* %187, align 8
  %188 = getelementptr inbounds %"class.std::__1::__tree_node_base", %"class.std::__1::__tree_node_base"* %143, i64 0, i32 3
  store i8 0, i8* %188, align 8
  %189 = load %"class.std::__1::__tree_node_base"*, %"class.std::__1::__tree_node_base"** %186, align 8
  %190 = getelementptr inbounds %"class.std::__1::__tree_node_base", %"class.std::__1::__tree_node_base"* %189, i64 0, i32 1
  %191 = load %"class.std::__1::__tree_node_base"*, %"class.std::__1::__tree_node_base"** %190, align 8
  store %"class.std::__1::__tree_node_base"* %191, %"class.std::__1::__tree_node_base"** %186, align 8
  %192 = icmp eq %"class.std::__1::__tree_node_base"* %191, null
  br i1 %192, label %196, label %193

193:                                              ; preds = %185
  %194 = getelementptr inbounds %"class.std::__1::__tree_node_base", %"class.std::__1::__tree_node_base"* %143, i64 0, i32 0
  %195 = getelementptr inbounds %"class.std::__1::__tree_node_base", %"class.std::__1::__tree_node_base"* %191, i64 0, i32 2
  store %"class.std::__1::__tree_end_node"* %194, %"class.std::__1::__tree_end_node"** %195, align 8
  br label %196

196:                                              ; preds = %193, %185
  %197 = getelementptr inbounds %"class.std::__1::__tree_node_base", %"class.std::__1::__tree_node_base"* %143, i64 0, i32 2
  %198 = bitcast %"class.std::__1::__tree_end_node"** %197 to i64*
  %199 = load i64, i64* %198, align 8
  %200 = getelementptr inbounds %"class.std::__1::__tree_node_base", %"class.std::__1::__tree_node_base"* %189, i64 0, i32 2
  %201 = bitcast %"class.std::__1::__tree_end_node"** %200 to i64*
  store i64 %199, i64* %201, align 8
  %202 = load %"class.std::__1::__tree_end_node"*, %"class.std::__1::__tree_end_node"** %197, align 8
  %203 = getelementptr inbounds %"class.std::__1::__tree_end_node", %"class.std::__1::__tree_end_node"* %202, i64 0, i32 0
  %204 = load %"class.std::__1::__tree_node_base"*, %"class.std::__1::__tree_node_base"** %203, align 8
  %205 = icmp eq %"class.std::__1::__tree_node_base"* %204, %143
  %206 = getelementptr inbounds %"class.std::__1::__tree_end_node", %"class.std::__1::__tree_end_node"* %202, i64 1, i32 0
  %207 = select i1 %205, %"class.std::__1::__tree_node_base"** %203, %"class.std::__1::__tree_node_base"** %206
  store %"class.std::__1::__tree_node_base"* %189, %"class.std::__1::__tree_node_base"** %207, align 8
  store %"class.std::__1::__tree_node_base"* %143, %"class.std::__1::__tree_node_base"** %190, align 8
  %208 = getelementptr inbounds %"class.std::__1::__tree_node_base", %"class.std::__1::__tree_node_base"* %189, i64 0, i32 0
  store %"class.std::__1::__tree_end_node"* %208, %"class.std::__1::__tree_end_node"** %197, align 8
  br label %209

209:                                              ; preds = %179, %196
  %210 = phi %"class.std::__1::__tree_node_base"* [ %189, %196 ], [ %143, %179 ]
  %211 = getelementptr inbounds %"class.std::__1::__tree_node_base", %"class.std::__1::__tree_node_base"* %210, i64 0, i32 2
  %212 = bitcast %"class.std::__1::__tree_end_node"** %211 to %"class.std::__1::__tree_node_base"**
  %213 = load %"class.std::__1::__tree_node_base"*, %"class.std::__1::__tree_node_base"** %212, align 8
  %214 = getelementptr inbounds %"class.std::__1::__tree_node_base", %"class.std::__1::__tree_node_base"* %213, i64 0, i32 3
  %215 = load i8, i8* %214, align 8, !range !2
  %216 = getelementptr inbounds %"class.std::__1::__tree_node_base", %"class.std::__1::__tree_node_base"* %210, i64 0, i32 3
  store i8 %215, i8* %216, align 8
  store i8 1, i8* %214, align 8
  %217 = getelementptr inbounds %"class.std::__1::__tree_node_base", %"class.std::__1::__tree_node_base"* %210, i64 0, i32 1
  %218 = load %"class.std::__1::__tree_node_base"*, %"class.std::__1::__tree_node_base"** %217, align 8
  %219 = getelementptr inbounds %"class.std::__1::__tree_node_base", %"class.std::__1::__tree_node_base"* %218, i64 0, i32 3
  store i8 1, i8* %219, align 8
  %220 = load %"class.std::__1::__tree_node_base"*, %"class.std::__1::__tree_node_base"** %212, align 8
  %221 = getelementptr inbounds %"class.std::__1::__tree_node_base", %"class.std::__1::__tree_node_base"* %220, i64 0, i32 1
  %222 = load %"class.std::__1::__tree_node_base"*, %"class.std::__1::__tree_node_base"** %221, align 8
  %223 = getelementptr inbounds %"class.std::__1::__tree_node_base", %"class.std::__1::__tree_node_base"* %222, i64 0, i32 0, i32 0
  %224 = load %"class.std::__1::__tree_node_base"*, %"class.std::__1::__tree_node_base"** %223, align 8
  store %"class.std::__1::__tree_node_base"* %224, %"class.std::__1::__tree_node_base"** %221, align 8
  %225 = icmp eq %"class.std::__1::__tree_node_base"* %224, null
  br i1 %225, label %229, label %226

226:                                              ; preds = %209
  %227 = getelementptr inbounds %"class.std::__1::__tree_node_base", %"class.std::__1::__tree_node_base"* %220, i64 0, i32 0
  %228 = getelementptr inbounds %"class.std::__1::__tree_node_base", %"class.std::__1::__tree_node_base"* %224, i64 0, i32 2
  store %"class.std::__1::__tree_end_node"* %227, %"class.std::__1::__tree_end_node"** %228, align 8
  br label %229

229:                                              ; preds = %226, %209
  %230 = getelementptr inbounds %"class.std::__1::__tree_node_base", %"class.std::__1::__tree_node_base"* %220, i64 0, i32 2
  %231 = bitcast %"class.std::__1::__tree_end_node"** %230 to i64*
  %232 = load i64, i64* %231, align 8
  %233 = getelementptr inbounds %"class.std::__1::__tree_node_base", %"class.std::__1::__tree_node_base"* %222, i64 0, i32 2
  %234 = bitcast %"class.std::__1::__tree_end_node"** %233 to i64*
  store i64 %232, i64* %234, align 8
  %235 = load %"class.std::__1::__tree_end_node"*, %"class.std::__1::__tree_end_node"** %230, align 8
  %236 = getelementptr inbounds %"class.std::__1::__tree_end_node", %"class.std::__1::__tree_end_node"* %235, i64 0, i32 0
  %237 = load %"class.std::__1::__tree_node_base"*, %"class.std::__1::__tree_node_base"** %236, align 8
  %238 = icmp eq %"class.std::__1::__tree_node_base"* %237, %220
  %239 = getelementptr inbounds %"class.std::__1::__tree_end_node", %"class.std::__1::__tree_end_node"* %235, i64 1, i32 0
  %240 = select i1 %238, %"class.std::__1::__tree_node_base"** %236, %"class.std::__1::__tree_node_base"** %239
  store %"class.std::__1::__tree_node_base"* %222, %"class.std::__1::__tree_node_base"** %240, align 8
  store %"class.std::__1::__tree_node_base"* %220, %"class.std::__1::__tree_node_base"** %223, align 8
  %241 = getelementptr inbounds %"class.std::__1::__tree_node_base", %"class.std::__1::__tree_node_base"* %222, i64 0, i32 0
  store %"class.std::__1::__tree_end_node"* %241, %"class.std::__1::__tree_end_node"** %230, align 8
  br label %382

242:                                              ; preds = %97
  br i1 %107, label %275, label %243

243:                                              ; preds = %242
  store i8 1, i8* %105, align 8
  %244 = bitcast %"class.std::__1::__tree_end_node"** %100 to %"class.std::__1::__tree_node_base"**
  %245 = getelementptr inbounds %"class.std::__1::__tree_end_node", %"class.std::__1::__tree_end_node"* %101, i64 3
  %246 = bitcast %"class.std::__1::__tree_end_node"* %245 to i8*
  store i8 0, i8* %246, align 8
  %247 = load %"class.std::__1::__tree_node_base"*, %"class.std::__1::__tree_node_base"** %244, align 8
  %248 = getelementptr inbounds %"class.std::__1::__tree_node_base", %"class.std::__1::__tree_node_base"* %247, i64 0, i32 0, i32 0
  %249 = load %"class.std::__1::__tree_node_base"*, %"class.std::__1::__tree_node_base"** %248, align 8
  %250 = getelementptr inbounds %"class.std::__1::__tree_node_base", %"class.std::__1::__tree_node_base"* %249, i64 0, i32 1
  %251 = load %"class.std::__1::__tree_node_base"*, %"class.std::__1::__tree_node_base"** %250, align 8
  store %"class.std::__1::__tree_node_base"* %251, %"class.std::__1::__tree_node_base"** %248, align 8
  %252 = icmp eq %"class.std::__1::__tree_node_base"* %251, null
  br i1 %252, label %256, label %253

253:                                              ; preds = %243
  %254 = getelementptr inbounds %"class.std::__1::__tree_node_base", %"class.std::__1::__tree_node_base"* %247, i64 0, i32 0
  %255 = getelementptr inbounds %"class.std::__1::__tree_node_base", %"class.std::__1::__tree_node_base"* %251, i64 0, i32 2
  store %"class.std::__1::__tree_end_node"* %254, %"class.std::__1::__tree_end_node"** %255, align 8
  br label %256

256:                                              ; preds = %253, %243
  %257 = getelementptr inbounds %"class.std::__1::__tree_node_base", %"class.std::__1::__tree_node_base"* %247, i64 0, i32 2
  %258 = bitcast %"class.std::__1::__tree_end_node"** %257 to i64*
  %259 = load i64, i64* %258, align 8
  %260 = getelementptr inbounds %"class.std::__1::__tree_node_base", %"class.std::__1::__tree_node_base"* %249, i64 0, i32 2
  %261 = bitcast %"class.std::__1::__tree_end_node"** %260 to i64*
  store i64 %259, i64* %261, align 8
  %262 = load %"class.std::__1::__tree_end_node"*, %"class.std::__1::__tree_end_node"** %257, align 8
  %263 = getelementptr inbounds %"class.std::__1::__tree_end_node", %"class.std::__1::__tree_end_node"* %262, i64 0, i32 0
  %264 = load %"class.std::__1::__tree_node_base"*, %"class.std::__1::__tree_node_base"** %263, align 8
  %265 = icmp eq %"class.std::__1::__tree_node_base"* %264, %247
  %266 = getelementptr inbounds %"class.std::__1::__tree_end_node", %"class.std::__1::__tree_end_node"* %262, i64 1, i32 0
  %267 = select i1 %265, %"class.std::__1::__tree_node_base"** %263, %"class.std::__1::__tree_node_base"** %266
  store %"class.std::__1::__tree_node_base"* %249, %"class.std::__1::__tree_node_base"** %267, align 8
  store %"class.std::__1::__tree_node_base"* %247, %"class.std::__1::__tree_node_base"** %250, align 8
  %268 = getelementptr inbounds %"class.std::__1::__tree_node_base", %"class.std::__1::__tree_node_base"* %249, i64 0, i32 0
  store %"class.std::__1::__tree_end_node"* %268, %"class.std::__1::__tree_end_node"** %257, align 8
  %269 = getelementptr inbounds %"class.std::__1::__tree_node_base", %"class.std::__1::__tree_node_base"* %99, i64 0, i32 1
  %270 = load %"class.std::__1::__tree_node_base"*, %"class.std::__1::__tree_node_base"** %269, align 8
  %271 = icmp eq %"class.std::__1::__tree_node_base"* %98, %270
  %272 = select i1 %271, %"class.std::__1::__tree_node_base"* %99, %"class.std::__1::__tree_node_base"* %98
  %273 = getelementptr inbounds %"class.std::__1::__tree_node_base", %"class.std::__1::__tree_node_base"* %270, i64 0, i32 0, i32 0
  %274 = load %"class.std::__1::__tree_node_base"*, %"class.std::__1::__tree_node_base"** %273, align 8
  br label %275

275:                                              ; preds = %256, %242
  %276 = phi %"class.std::__1::__tree_node_base"* [ %98, %242 ], [ %272, %256 ]
  %277 = phi %"class.std::__1::__tree_node_base"* [ %99, %242 ], [ %274, %256 ]
  %278 = getelementptr inbounds %"class.std::__1::__tree_node_base", %"class.std::__1::__tree_node_base"* %277, i64 0, i32 0, i32 0
  %279 = load %"class.std::__1::__tree_node_base"*, %"class.std::__1::__tree_node_base"** %278, align 8
  %280 = icmp eq %"class.std::__1::__tree_node_base"* %279, null
  br i1 %280, label %285, label %281

281:                                              ; preds = %275
  %282 = getelementptr inbounds %"class.std::__1::__tree_node_base", %"class.std::__1::__tree_node_base"* %279, i64 0, i32 3
  %283 = load i8, i8* %282, align 8, !range !2
  %284 = icmp eq i8 %283, 0
  br i1 %284, label %338, label %285

285:                                              ; preds = %281, %275
  %286 = getelementptr inbounds %"class.std::__1::__tree_node_base", %"class.std::__1::__tree_node_base"* %277, i64 0, i32 1
  %287 = load %"class.std::__1::__tree_node_base"*, %"class.std::__1::__tree_node_base"** %286, align 8
  %288 = icmp eq %"class.std::__1::__tree_node_base"* %287, null
  br i1 %288, label %293, label %289

289:                                              ; preds = %285
  %290 = getelementptr inbounds %"class.std::__1::__tree_node_base", %"class.std::__1::__tree_node_base"* %287, i64 0, i32 3
  %291 = load i8, i8* %290, align 8, !range !2
  %292 = icmp eq i8 %291, 0
  br i1 %292, label %305, label %293

293:                                              ; preds = %289, %285
  %294 = getelementptr inbounds %"class.std::__1::__tree_node_base", %"class.std::__1::__tree_node_base"* %277, i64 0, i32 3
  store i8 0, i8* %294, align 8
  %295 = getelementptr inbounds %"class.std::__1::__tree_node_base", %"class.std::__1::__tree_node_base"* %277, i64 0, i32 2
  %296 = bitcast %"class.std::__1::__tree_end_node"** %295 to %"class.std::__1::__tree_node_base"**
  %297 = load %"class.std::__1::__tree_node_base"*, %"class.std::__1::__tree_node_base"** %296, align 8
  %298 = getelementptr inbounds %"class.std::__1::__tree_node_base", %"class.std::__1::__tree_node_base"* %297, i64 0, i32 3
  %299 = load i8, i8* %298, align 8, !range !2
  %300 = icmp eq i8 %299, 0
  %301 = icmp eq %"class.std::__1::__tree_node_base"* %297, %276
  %302 = or i1 %301, %300
  br i1 %302, label %303, label %371

303:                                              ; preds = %293
  %304 = getelementptr inbounds %"class.std::__1::__tree_node_base", %"class.std::__1::__tree_node_base"* %297, i64 0, i32 3
  store i8 1, i8* %304, align 8
  br label %382

305:                                              ; preds = %289
  br i1 %280, label %313, label %306

306:                                              ; preds = %305
  %307 = getelementptr inbounds %"class.std::__1::__tree_node_base", %"class.std::__1::__tree_node_base"* %279, i64 0, i32 3
  %308 = load i8, i8* %307, align 8, !range !2
  %309 = icmp eq i8 %308, 0
  br i1 %309, label %338, label %310

310:                                              ; preds = %306
  %311 = getelementptr inbounds %"class.std::__1::__tree_node_base", %"class.std::__1::__tree_node_base"* %277, i64 0, i32 1
  %312 = load %"class.std::__1::__tree_node_base"*, %"class.std::__1::__tree_node_base"** %311, align 8
  br label %313

313:                                              ; preds = %310, %305
  %314 = phi %"class.std::__1::__tree_node_base"* [ %312, %310 ], [ %287, %305 ]
  %315 = getelementptr inbounds %"class.std::__1::__tree_node_base", %"class.std::__1::__tree_node_base"* %277, i64 0, i32 1
  %316 = getelementptr inbounds %"class.std::__1::__tree_node_base", %"class.std::__1::__tree_node_base"* %314, i64 0, i32 3
  store i8 1, i8* %316, align 8
  %317 = getelementptr inbounds %"class.std::__1::__tree_node_base", %"class.std::__1::__tree_node_base"* %277, i64 0, i32 3
  store i8 0, i8* %317, align 8
  %318 = load %"class.std::__1::__tree_node_base"*, %"class.std::__1::__tree_node_base"** %315, align 8
  %319 = getelementptr inbounds %"class.std::__1::__tree_node_base", %"class.std::__1::__tree_node_base"* %318, i64 0, i32 0, i32 0
  %320 = load %"class.std::__1::__tree_node_base"*, %"class.std::__1::__tree_node_base"** %319, align 8
  store %"class.std::__1::__tree_node_base"* %320, %"class.std::__1::__tree_node_base"** %315, align 8
  %321 = icmp eq %"class.std::__1::__tree_node_base"* %320, null
  br i1 %321, label %325, label %322

322:                                              ; preds = %313
  %323 = getelementptr inbounds %"class.std::__1::__tree_node_base", %"class.std::__1::__tree_node_base"* %277, i64 0, i32 0
  %324 = getelementptr inbounds %"class.std::__1::__tree_node_base", %"class.std::__1::__tree_node_base"* %320, i64 0, i32 2
  store %"class.std::__1::__tree_end_node"* %323, %"class.std::__1::__tree_end_node"** %324, align 8
  br label %325

325:                                              ; preds = %322, %313
  %326 = getelementptr inbounds %"class.std::__1::__tree_node_base", %"class.std::__1::__tree_node_base"* %277, i64 0, i32 2
  %327 = bitcast %"class.std::__1::__tree_end_node"** %326 to i64*
  %328 = load i64, i64* %327, align 8
  %329 = getelementptr inbounds %"class.std::__1::__tree_node_base", %"class.std::__1::__tree_node_base"* %318, i64 0, i32 2
  %330 = bitcast %"class.std::__1::__tree_end_node"** %329 to i64*
  store i64 %328, i64* %330, align 8
  %331 = load %"class.std::__1::__tree_end_node"*, %"class.std::__1::__tree_end_node"** %326, align 8
  %332 = getelementptr inbounds %"class.std::__1::__tree_end_node", %"class.std::__1::__tree_end_node"* %331, i64 0, i32 0
  %333 = load %"class.std::__1::__tree_node_base"*, %"class.std::__1::__tree_node_base"** %332, align 8
  %334 = icmp eq %"class.std::__1::__tree_node_base"* %333, %277
  %335 = getelementptr inbounds %"class.std::__1::__tree_end_node", %"class.std::__1::__tree_end_node"* %331, i64 1, i32 0
  %336 = select i1 %334, %"class.std::__1::__tree_node_base"** %332, %"class.std::__1::__tree_node_base"** %335
  store %"class.std::__1::__tree_node_base"* %318, %"class.std::__1::__tree_node_base"** %336, align 8
  store %"class.std::__1::__tree_node_base"* %277, %"class.std::__1::__tree_node_base"** %319, align 8
  %337 = getelementptr inbounds %"class.std::__1::__tree_node_base", %"class.std::__1::__tree_node_base"* %318, i64 0, i32 0
  store %"class.std::__1::__tree_end_node"* %337, %"class.std::__1::__tree_end_node"** %326, align 8
  br label %338

338:                                              ; preds = %281, %306, %325
  %339 = phi %"class.std::__1::__tree_node_base"* [ %318, %325 ], [ %277, %306 ], [ %277, %281 ]
  %340 = getelementptr inbounds %"class.std::__1::__tree_node_base", %"class.std::__1::__tree_node_base"* %339, i64 0, i32 2
  %341 = bitcast %"class.std::__1::__tree_end_node"** %340 to %"class.std::__1::__tree_node_base"**
  %342 = load %"class.std::__1::__tree_node_base"*, %"class.std::__1::__tree_node_base"** %341, align 8
  %343 = getelementptr inbounds %"class.std::__1::__tree_node_base", %"class.std::__1::__tree_node_base"* %342, i64 0, i32 3
  %344 = load i8, i8* %343, align 8, !range !2
  %345 = getelementptr inbounds %"class.std::__1::__tree_node_base", %"class.std::__1::__tree_node_base"* %339, i64 0, i32 3
  store i8 %344, i8* %345, align 8
  store i8 1, i8* %343, align 8
  %346 = getelementptr inbounds %"class.std::__1::__tree_node_base", %"class.std::__1::__tree_node_base"* %339, i64 0, i32 0, i32 0
  %347 = load %"class.std::__1::__tree_node_base"*, %"class.std::__1::__tree_node_base"** %346, align 8
  %348 = getelementptr inbounds %"class.std::__1::__tree_node_base", %"class.std::__1::__tree_node_base"* %347, i64 0, i32 3
  store i8 1, i8* %348, align 8
  %349 = load %"class.std::__1::__tree_node_base"*, %"class.std::__1::__tree_node_base"** %341, align 8
  %350 = getelementptr inbounds %"class.std::__1::__tree_node_base", %"class.std::__1::__tree_node_base"* %349, i64 0, i32 0, i32 0
  %351 = load %"class.std::__1::__tree_node_base"*, %"class.std::__1::__tree_node_base"** %350, align 8
  %352 = getelementptr inbounds %"class.std::__1::__tree_node_base", %"class.std::__1::__tree_node_base"* %351, i64 0, i32 1
  %353 = load %"class.std::__1::__tree_node_base"*, %"class.std::__1::__tree_node_base"** %352, align 8
  store %"class.std::__1::__tree_node_base"* %353, %"class.std::__1::__tree_node_base"** %350, align 8
  %354 = icmp eq %"class.std::__1::__tree_node_base"* %353, null
  br i1 %354, label %358, label %355

355:                                              ; preds = %338
  %356 = getelementptr inbounds %"class.std::__1::__tree_node_base", %"class.std::__1::__tree_node_base"* %349, i64 0, i32 0
  %357 = getelementptr inbounds %"class.std::__1::__tree_node_base", %"class.std::__1::__tree_node_base"* %353, i64 0, i32 2
  store %"class.std::__1::__tree_end_node"* %356, %"class.std::__1::__tree_end_node"** %357, align 8
  br label %358

358:                                              ; preds = %355, %338
  %359 = getelementptr inbounds %"class.std::__1::__tree_node_base", %"class.std::__1::__tree_node_base"* %349, i64 0, i32 2
  %360 = bitcast %"class.std::__1::__tree_end_node"** %359 to i64*
  %361 = load i64, i64* %360, align 8
  %362 = getelementptr inbounds %"class.std::__1::__tree_node_base", %"class.std::__1::__tree_node_base"* %351, i64 0, i32 2
  %363 = bitcast %"class.std::__1::__tree_end_node"** %362 to i64*
  store i64 %361, i64* %363, align 8
  %364 = load %"class.std::__1::__tree_end_node"*, %"class.std::__1::__tree_end_node"** %359, align 8
  %365 = getelementptr inbounds %"class.std::__1::__tree_end_node", %"class.std::__1::__tree_end_node"* %364, i64 0, i32 0
  %366 = load %"class.std::__1::__tree_node_base"*, %"class.std::__1::__tree_node_base"** %365, align 8
  %367 = icmp eq %"class.std::__1::__tree_node_base"* %366, %349
  %368 = getelementptr inbounds %"class.std::__1::__tree_end_node", %"class.std::__1::__tree_end_node"* %364, i64 1, i32 0
  %369 = select i1 %367, %"class.std::__1::__tree_node_base"** %365, %"class.std::__1::__tree_node_base"** %368
  store %"class.std::__1::__tree_node_base"* %351, %"class.std::__1::__tree_node_base"** %369, align 8
  store %"class.std::__1::__tree_node_base"* %349, %"class.std::__1::__tree_node_base"** %352, align 8
  %370 = getelementptr inbounds %"class.std::__1::__tree_node_base", %"class.std::__1::__tree_node_base"* %351, i64 0, i32 0
  store %"class.std::__1::__tree_end_node"* %370, %"class.std::__1::__tree_end_node"** %359, align 8
  br label %382

371:                                              ; preds = %293, %165
  %372 = phi %"class.std::__1::__tree_node_base"* [ %163, %165 ], [ %297, %293 ]
  %373 = phi %"class.std::__1::__tree_node_base"* [ %142, %165 ], [ %276, %293 ]
  %374 = getelementptr inbounds %"class.std::__1::__tree_node_base", %"class.std::__1::__tree_node_base"* %372, i64 0, i32 2
  %375 = load %"class.std::__1::__tree_end_node"*, %"class.std::__1::__tree_end_node"** %374, align 8
  %376 = getelementptr inbounds %"class.std::__1::__tree_end_node", %"class.std::__1::__tree_end_node"* %375, i64 0, i32 0
  %377 = load %"class.std::__1::__tree_node_base"*, %"class.std::__1::__tree_node_base"** %376, align 8
  %378 = icmp eq %"class.std::__1::__tree_node_base"* %377, %372
  %379 = getelementptr inbounds %"class.std::__1::__tree_end_node", %"class.std::__1::__tree_end_node"* %375, i64 1, i32 0
  %380 = select i1 %378, %"class.std::__1::__tree_node_base"** %379, %"class.std::__1::__tree_node_base"** %376
  %381 = load %"class.std::__1::__tree_node_base"*, %"class.std::__1::__tree_node_base"** %380, align 8
  br label %97

382:                                              ; preds = %95, %358, %303, %229, %169, %90
  ret void
}

; Function Attrs: nounwind ssp uwtable
define linkonce_odr hidden void @_ZN7content27WebContentsFrameReceiverSetIN6chrome5mojom16NetworkEasterEggEE20FrameInterfaceBinderD2Ev(%"class.content::WebContentsFrameReceiverSet<chrome::mojom::NetworkEasterEgg>::FrameInterfaceBinder"*) unnamed_addr #0 comdat align 2 {
  %2 = getelementptr inbounds %"class.content::WebContentsFrameReceiverSet<chrome::mojom::NetworkEasterEgg>::FrameInterfaceBinder", %"class.content::WebContentsFrameReceiverSet<chrome::mojom::NetworkEasterEgg>::FrameInterfaceBinder"* %0, i64 0, i32 1
  %3 = bitcast %"class.content::WebContentsFrameReceiverSet<chrome::mojom::NetworkEasterEgg>::FrameInterfaceBinder"* %0 to <2 x i32 (...)**>*
  store <2 x i32 (...)**> <i32 (...)** bitcast (i8** getelementptr inbounds ({ [7 x i8*], [109 x i8*] }, { [7 x i8*], [109 x i8*] }* @_ZTVN7content27WebContentsFrameReceiverSetIN6chrome5mojom16NetworkEasterEggEE20FrameInterfaceBinderE, i64 0, inrange i32 0, i64 2) to i32 (...)**), i32 (...)** bitcast (i8** getelementptr inbounds ({ [7 x i8*], [109 x i8*] }, { [7 x i8*], [109 x i8*] }* @_ZTVN7content27WebContentsFrameReceiverSetIN6chrome5mojom16NetworkEasterEggEE20FrameInterfaceBinderE, i64 0, inrange i32 1, i64 2) to i32 (...)**)>, <2 x i32 (...)**>* %3, align 8
  %4 = getelementptr inbounds %"class.content::WebContentsFrameReceiverSet<chrome::mojom::NetworkEasterEgg>::FrameInterfaceBinder", %"class.content::WebContentsFrameReceiverSet<chrome::mojom::NetworkEasterEgg>::FrameInterfaceBinder"* %0, i64 0, i32 4, i32 0
  %5 = getelementptr inbounds %"class.content::WebContentsFrameReceiverSet<chrome::mojom::NetworkEasterEgg>::FrameInterfaceBinder", %"class.content::WebContentsFrameReceiverSet<chrome::mojom::NetworkEasterEgg>::FrameInterfaceBinder"* %0, i64 0, i32 4, i32 0, i32 1, i32 0, i32 0
  %6 = bitcast %"class.std::__1::__tree_end_node"* %5 to %"class.std::__1::__tree_node"**
  %7 = load %"class.std::__1::__tree_node"*, %"class.std::__1::__tree_node"** %6, align 8
  tail call void @_ZNSt3__16__treeINS_12__value_typeIPN7content15RenderFrameHostENS_6vectorImNS_9allocatorImEEEEEENS_19__map_value_compareIS4_S9_NS_4lessIS4_EELb1EEENS6_IS9_EEE7destroyEPNS_11__tree_nodeIS9_PvEE(%"class.std::__1::__tree.25"* %4, %"class.std::__1::__tree_node"* %7) #10
  %8 = getelementptr inbounds %"class.content::WebContentsFrameReceiverSet<chrome::mojom::NetworkEasterEgg>::FrameInterfaceBinder", %"class.content::WebContentsFrameReceiverSet<chrome::mojom::NetworkEasterEgg>::FrameInterfaceBinder"* %0, i64 0, i32 3, i32 0
  tail call void @_ZN4mojo16ReceiverSetStateD1Ev(%"class.mojo::ReceiverSetState"* %8) #10
  tail call void @_ZN7content19WebContentsObserverD2Ev(%"class.content::WebContentsObserver"* %2) #10
  ret void
}

; Function Attrs: nounwind ssp uwtable
define linkonce_odr hidden void @_ZThn8_N7content27WebContentsFrameReceiverSetIN6chrome5mojom16NetworkEasterEggEE20FrameInterfaceBinderD1Ev(%"class.content::WebContentsFrameReceiverSet<chrome::mojom::NetworkEasterEgg>::FrameInterfaceBinder"*) unnamed_addr #0 comdat align 2 {
  %2 = getelementptr inbounds %"class.content::WebContentsFrameReceiverSet<chrome::mojom::NetworkEasterEgg>::FrameInterfaceBinder", %"class.content::WebContentsFrameReceiverSet<chrome::mojom::NetworkEasterEgg>::FrameInterfaceBinder"* %0, i64 -1, i32 4, i32 0, i32 2
  %3 = getelementptr inbounds %"class.std::__1::__compressed_pair.30", %"class.std::__1::__compressed_pair.30"* %2, i64 1
  %4 = bitcast %"class.std::__1::__compressed_pair.30"* %3 to %"class.content::WebContentsObserver"*
  %5 = bitcast %"class.std::__1::__compressed_pair.30"* %2 to <2 x i32 (...)**>*
  store <2 x i32 (...)**> <i32 (...)** bitcast (i8** getelementptr inbounds ({ [7 x i8*], [109 x i8*] }, { [7 x i8*], [109 x i8*] }* @_ZTVN7content27WebContentsFrameReceiverSetIN6chrome5mojom16NetworkEasterEggEE20FrameInterfaceBinderE, i64 0, inrange i32 0, i64 2) to i32 (...)**), i32 (...)** bitcast (i8** getelementptr inbounds ({ [7 x i8*], [109 x i8*] }, { [7 x i8*], [109 x i8*] }* @_ZTVN7content27WebContentsFrameReceiverSetIN6chrome5mojom16NetworkEasterEggEE20FrameInterfaceBinderE, i64 0, inrange i32 1, i64 2) to i32 (...)**)>, <2 x i32 (...)**>* %5, align 8
  %6 = getelementptr inbounds %"class.std::__1::__compressed_pair.30", %"class.std::__1::__compressed_pair.30"* %2, i64 14
  %7 = bitcast %"class.std::__1::__compressed_pair.30"* %6 to %"class.std::__1::__tree.25"*
  %8 = getelementptr inbounds %"class.std::__1::__compressed_pair.30", %"class.std::__1::__compressed_pair.30"* %2, i64 15
  %9 = bitcast %"class.std::__1::__compressed_pair.30"* %8 to %"class.std::__1::__tree_node"**
  %10 = load %"class.std::__1::__tree_node"*, %"class.std::__1::__tree_node"** %9, align 8
  tail call void @_ZNSt3__16__treeINS_12__value_typeIPN7content15RenderFrameHostENS_6vectorImNS_9allocatorImEEEEEENS_19__map_value_compareIS4_S9_NS_4lessIS4_EELb1EEENS6_IS9_EEE7destroyEPNS_11__tree_nodeIS9_PvEE(%"class.std::__1::__tree.25"* %7, %"class.std::__1::__tree_node"* %10) #10
  %11 = getelementptr inbounds %"class.std::__1::__compressed_pair.30", %"class.std::__1::__compressed_pair.30"* %2, i64 4
  %12 = bitcast %"class.std::__1::__compressed_pair.30"* %11 to %"class.mojo::ReceiverSetState"*
  tail call void @_ZN4mojo16ReceiverSetStateD1Ev(%"class.mojo::ReceiverSetState"* %12) #10
  tail call void @_ZN7content19WebContentsObserverD2Ev(%"class.content::WebContentsObserver"* %4) #10
  ret void
}

; Function Attrs: nounwind ssp uwtable
define linkonce_odr hidden void @_ZN7content27WebContentsFrameReceiverSetIN6chrome5mojom16NetworkEasterEggEE20FrameInterfaceBinderD0Ev(%"class.content::WebContentsFrameReceiverSet<chrome::mojom::NetworkEasterEgg>::FrameInterfaceBinder"*) unnamed_addr #0 comdat align 2 {
  %2 = getelementptr inbounds %"class.content::WebContentsFrameReceiverSet<chrome::mojom::NetworkEasterEgg>::FrameInterfaceBinder", %"class.content::WebContentsFrameReceiverSet<chrome::mojom::NetworkEasterEgg>::FrameInterfaceBinder"* %0, i64 0, i32 1
  %3 = bitcast %"class.content::WebContentsFrameReceiverSet<chrome::mojom::NetworkEasterEgg>::FrameInterfaceBinder"* %0 to <2 x i32 (...)**>*
  store <2 x i32 (...)**> <i32 (...)** bitcast (i8** getelementptr inbounds ({ [7 x i8*], [109 x i8*] }, { [7 x i8*], [109 x i8*] }* @_ZTVN7content27WebContentsFrameReceiverSetIN6chrome5mojom16NetworkEasterEggEE20FrameInterfaceBinderE, i64 0, inrange i32 0, i64 2) to i32 (...)**), i32 (...)** bitcast (i8** getelementptr inbounds ({ [7 x i8*], [109 x i8*] }, { [7 x i8*], [109 x i8*] }* @_ZTVN7content27WebContentsFrameReceiverSetIN6chrome5mojom16NetworkEasterEggEE20FrameInterfaceBinderE, i64 0, inrange i32 1, i64 2) to i32 (...)**)>, <2 x i32 (...)**>* %3, align 8
  %4 = getelementptr inbounds %"class.content::WebContentsFrameReceiverSet<chrome::mojom::NetworkEasterEgg>::FrameInterfaceBinder", %"class.content::WebContentsFrameReceiverSet<chrome::mojom::NetworkEasterEgg>::FrameInterfaceBinder"* %0, i64 0, i32 4, i32 0
  %5 = getelementptr inbounds %"class.content::WebContentsFrameReceiverSet<chrome::mojom::NetworkEasterEgg>::FrameInterfaceBinder", %"class.content::WebContentsFrameReceiverSet<chrome::mojom::NetworkEasterEgg>::FrameInterfaceBinder"* %0, i64 0, i32 4, i32 0, i32 1, i32 0, i32 0
  %6 = bitcast %"class.std::__1::__tree_end_node"* %5 to %"class.std::__1::__tree_node"**
  %7 = load %"class.std::__1::__tree_node"*, %"class.std::__1::__tree_node"** %6, align 8
  tail call void @_ZNSt3__16__treeINS_12__value_typeIPN7content15RenderFrameHostENS_6vectorImNS_9allocatorImEEEEEENS_19__map_value_compareIS4_S9_NS_4lessIS4_EELb1EEENS6_IS9_EEE7destroyEPNS_11__tree_nodeIS9_PvEE(%"class.std::__1::__tree.25"* %4, %"class.std::__1::__tree_node"* %7) #10
  %8 = getelementptr inbounds %"class.content::WebContentsFrameReceiverSet<chrome::mojom::NetworkEasterEgg>::FrameInterfaceBinder", %"class.content::WebContentsFrameReceiverSet<chrome::mojom::NetworkEasterEgg>::FrameInterfaceBinder"* %0, i64 0, i32 3, i32 0
  tail call void @_ZN4mojo16ReceiverSetStateD1Ev(%"class.mojo::ReceiverSetState"* %8) #10
  tail call void @_ZN7content19WebContentsObserverD2Ev(%"class.content::WebContentsObserver"* %2) #10
  %9 = bitcast %"class.content::WebContentsFrameReceiverSet<chrome::mojom::NetworkEasterEgg>::FrameInterfaceBinder"* %0 to i8*
  tail call void @_ZdlPv(i8* %9) #11
  ret void
}

; Function Attrs: nounwind ssp uwtable
define linkonce_odr hidden void @_ZN7content27WebContentsFrameReceiverSetIN6chrome5mojom16NetworkEasterEggEE20FrameInterfaceBinder18OnReceiverForFrameEPNS_15RenderFrameHostEN4mojo29ScopedInterfaceEndpointHandleE(%"class.content::WebContentsFrameReceiverSet<chrome::mojom::NetworkEasterEgg>::FrameInterfaceBinder"*, %"class.content::RenderFrameHost"*, %"class.mojo::ScopedInterfaceEndpointHandle"*) unnamed_addr #0 comdat align 2 {
  %4 = alloca %"class.mojo::PendingAssociatedReceiver.363", align 8
  %5 = alloca %"class.mojo::PendingAssociatedReceiver.363", align 8
  %6 = alloca %"class.mojo::ScopedInterfaceEndpointHandle", align 8
  %7 = ptrtoint %"class.content::RenderFrameHost"* %1 to i64
  %8 = getelementptr inbounds %"class.content::WebContentsFrameReceiverSet<chrome::mojom::NetworkEasterEgg>::FrameInterfaceBinder", %"class.content::WebContentsFrameReceiverSet<chrome::mojom::NetworkEasterEgg>::FrameInterfaceBinder"* %0, i64 0, i32 3
  %9 = getelementptr inbounds %"class.content::WebContentsFrameReceiverSet<chrome::mojom::NetworkEasterEgg>::FrameInterfaceBinder", %"class.content::WebContentsFrameReceiverSet<chrome::mojom::NetworkEasterEgg>::FrameInterfaceBinder"* %0, i64 0, i32 2
  %10 = load %"class.chrome::mojom::NetworkEasterEgg"*, %"class.chrome::mojom::NetworkEasterEgg"** %9, align 8
  call void @_ZN4mojo29ScopedInterfaceEndpointHandleC1EOS0_(%"class.mojo::ScopedInterfaceEndpointHandle"* nonnull %6, %"class.mojo::ScopedInterfaceEndpointHandle"* dereferenceable(8) %2) #10
  %11 = getelementptr inbounds %"class.mojo::PendingAssociatedReceiver.363", %"class.mojo::PendingAssociatedReceiver.363"* %5, i64 0, i32 0
  call void @_ZN4mojo29ScopedInterfaceEndpointHandleC1EOS0_(%"class.mojo::ScopedInterfaceEndpointHandle"* nonnull %11, %"class.mojo::ScopedInterfaceEndpointHandle"* nonnull dereferenceable(8) %6) #10
  %12 = bitcast %"class.mojo::PendingAssociatedReceiver.363"* %4 to i8*
  call void @llvm.lifetime.start.p0i8(i64 8, i8* nonnull %12)
  %13 = getelementptr inbounds %"class.mojo::PendingAssociatedReceiver.363", %"class.mojo::PendingAssociatedReceiver.363"* %4, i64 0, i32 0
  call void @_ZN4mojo29ScopedInterfaceEndpointHandleC1EOS0_(%"class.mojo::ScopedInterfaceEndpointHandle"* nonnull %13, %"class.mojo::ScopedInterfaceEndpointHandle"* nonnull dereferenceable(8) %11) #10
  %14 = call i64 @_ZN4mojo15ReceiverSetBaseINS_18AssociatedReceiverIN6chrome5mojom16NetworkEasterEggENS_19RawPtrImplRefTraitsIS4_EEEEPN7content15RenderFrameHostEE7AddImplEPS4_NS_25PendingAssociatedReceiverIS4_EESA_13scoped_refptrIN4base19SequencedTaskRunnerEE(%"class.mojo::ReceiverSetBase.36"* %8, %"class.chrome::mojom::NetworkEasterEgg"* %10, %"class.mojo::PendingAssociatedReceiver.363"* nonnull %4, %"class.content::RenderFrameHost"* %1, %"class.base::SequencedTaskRunner"* null) #10
  call void @_ZN4mojo29ScopedInterfaceEndpointHandleD1Ev(%"class.mojo::ScopedInterfaceEndpointHandle"* nonnull %13) #10
  call void @llvm.lifetime.end.p0i8(i64 8, i8* nonnull %12)
  call void @_ZN4mojo29ScopedInterfaceEndpointHandleD1Ev(%"class.mojo::ScopedInterfaceEndpointHandle"* nonnull %11) #10
  call void @_ZN4mojo29ScopedInterfaceEndpointHandleD1Ev(%"class.mojo::ScopedInterfaceEndpointHandle"* nonnull %6) #10
  %15 = getelementptr inbounds %"class.content::WebContentsFrameReceiverSet<chrome::mojom::NetworkEasterEgg>::FrameInterfaceBinder", %"class.content::WebContentsFrameReceiverSet<chrome::mojom::NetworkEasterEgg>::FrameInterfaceBinder"* %0, i64 0, i32 4
  %16 = getelementptr inbounds %"class.content::WebContentsFrameReceiverSet<chrome::mojom::NetworkEasterEgg>::FrameInterfaceBinder", %"class.content::WebContentsFrameReceiverSet<chrome::mojom::NetworkEasterEgg>::FrameInterfaceBinder"* %0, i64 0, i32 4, i32 0, i32 1, i32 0, i32 0
  %17 = bitcast %"class.std::__1::__tree_end_node"* %16 to %"class.std::__1::__tree_node"**
  %18 = load %"class.std::__1::__tree_node"*, %"class.std::__1::__tree_node"** %17, align 8
  %19 = icmp eq %"class.std::__1::__tree_node"* %18, null
  br i1 %19, label %48, label %20

20:                                               ; preds = %3
  %21 = getelementptr inbounds %"class.content::WebContentsFrameReceiverSet<chrome::mojom::NetworkEasterEgg>::FrameInterfaceBinder", %"class.content::WebContentsFrameReceiverSet<chrome::mojom::NetworkEasterEgg>::FrameInterfaceBinder"* %0, i64 0, i32 4, i32 0, i32 1, i32 0, i32 0, i32 0
  br label %22

22:                                               ; preds = %44, %20
  %23 = phi %"class.std::__1::__tree_node"* [ %47, %44 ], [ %18, %20 ]
  %24 = phi %"class.std::__1::__tree_node_base"** [ %46, %44 ], [ %21, %20 ]
  %25 = getelementptr inbounds %"class.std::__1::__tree_node", %"class.std::__1::__tree_node"* %23, i64 0, i32 1, i32 0, i32 0
  %26 = load %"class.content::RenderFrameHost"*, %"class.content::RenderFrameHost"** %25, align 8
  %27 = icmp ugt %"class.content::RenderFrameHost"* %26, %1
  br i1 %27, label %28, label %34

28:                                               ; preds = %22
  %29 = getelementptr inbounds %"class.std::__1::__tree_node", %"class.std::__1::__tree_node"* %23, i64 0, i32 0, i32 0, i32 0
  %30 = load %"class.std::__1::__tree_node_base"*, %"class.std::__1::__tree_node_base"** %29, align 8
  %31 = icmp eq %"class.std::__1::__tree_node_base"* %30, null
  br i1 %31, label %32, label %44

32:                                               ; preds = %28
  %33 = getelementptr inbounds %"class.std::__1::__tree_node", %"class.std::__1::__tree_node"* %23, i64 0, i32 0, i32 0
  br label %50

34:                                               ; preds = %22
  %35 = icmp ult %"class.content::RenderFrameHost"* %26, %1
  br i1 %35, label %36, label %42

36:                                               ; preds = %34
  %37 = getelementptr inbounds %"class.std::__1::__tree_node", %"class.std::__1::__tree_node"* %23, i64 0, i32 0, i32 1
  %38 = load %"class.std::__1::__tree_node_base"*, %"class.std::__1::__tree_node_base"** %37, align 8
  %39 = icmp eq %"class.std::__1::__tree_node_base"* %38, null
  br i1 %39, label %40, label %44

40:                                               ; preds = %36
  %41 = getelementptr inbounds %"class.std::__1::__tree_node", %"class.std::__1::__tree_node"* %23, i64 0, i32 0, i32 0
  br label %50

42:                                               ; preds = %34
  %43 = getelementptr inbounds %"class.std::__1::__tree_node", %"class.std::__1::__tree_node"* %23, i64 0, i32 0, i32 0
  br label %50

44:                                               ; preds = %36, %28
  %45 = phi %"class.std::__1::__tree_node_base"* [ %30, %28 ], [ %38, %36 ]
  %46 = phi %"class.std::__1::__tree_node_base"** [ %29, %28 ], [ %37, %36 ]
  %47 = bitcast %"class.std::__1::__tree_node_base"* %45 to %"class.std::__1::__tree_node"*
  br label %22

48:                                               ; preds = %3
  %49 = getelementptr inbounds %"class.std::__1::__tree_end_node", %"class.std::__1::__tree_end_node"* %16, i64 0, i32 0
  br label %50

50:                                               ; preds = %48, %42, %40, %32
  %51 = phi %"class.std::__1::__tree_end_node"* [ %16, %48 ], [ %33, %32 ], [ %41, %40 ], [ %43, %42 ]
  %52 = phi %"class.std::__1::__tree_node_base"** [ %49, %48 ], [ %29, %32 ], [ %37, %40 ], [ %24, %42 ]
  %53 = bitcast %"class.std::__1::__tree_node_base"** %52 to %"class.std::__1::__tree_node"**
  %54 = load %"class.std::__1::__tree_node"*, %"class.std::__1::__tree_node"** %53, align 8
  %55 = icmp eq %"class.std::__1::__tree_node"* %54, null
  br i1 %55, label %56, label %82

56:                                               ; preds = %50
  %57 = call i8* @_Znwm(i64 64) #11, !noalias !14
  %58 = getelementptr inbounds i8, i8* %57, i64 32
  %59 = bitcast i8* %58 to i64*
  store i64 %7, i64* %59, align 8, !noalias !14
  %60 = getelementptr inbounds i8, i8* %57, i64 40
  call void @llvm.memset.p0i8.i64(i8* align 8 %60, i8 0, i64 24, i1 false) #10, !noalias !14
  %61 = bitcast i8* %57 to %"class.std::__1::__tree_node"*
  %62 = bitcast i8* %57 to %"class.std::__1::__tree_node_base"*
  %63 = getelementptr inbounds i8, i8* %57, i64 16
  %64 = bitcast i8* %63 to %"class.std::__1::__tree_end_node"**
  call void @llvm.memset.p0i8.i64(i8* nonnull align 8 %57, i8 0, i64 16, i1 false) #10
  store %"class.std::__1::__tree_end_node"* %51, %"class.std::__1::__tree_end_node"** %64, align 8
  %65 = bitcast %"class.std::__1::__tree_node_base"** %52 to i8**
  store i8* %57, i8** %65, align 8
  %66 = getelementptr inbounds %"class.std::__1::map.24", %"class.std::__1::map.24"* %15, i64 0, i32 0, i32 0
  %67 = load %"class.std::__1::__tree_end_node"*, %"class.std::__1::__tree_end_node"** %66, align 8
  %68 = getelementptr inbounds %"class.std::__1::__tree_end_node", %"class.std::__1::__tree_end_node"* %67, i64 0, i32 0
  %69 = load %"class.std::__1::__tree_node_base"*, %"class.std::__1::__tree_node_base"** %68, align 8
  %70 = icmp eq %"class.std::__1::__tree_node_base"* %69, null
  br i1 %70, label %75, label %71

71:                                               ; preds = %56
  %72 = ptrtoint %"class.std::__1::__tree_node_base"* %69 to i64
  %73 = bitcast %"class.std::__1::map.24"* %15 to i64*
  store i64 %72, i64* %73, align 8
  %74 = load %"class.std::__1::__tree_node_base"*, %"class.std::__1::__tree_node_base"** %52, align 8
  br label %75

75:                                               ; preds = %71, %56
  %76 = phi %"class.std::__1::__tree_node_base"* [ %62, %56 ], [ %74, %71 ]
  %77 = getelementptr inbounds %"class.content::WebContentsFrameReceiverSet<chrome::mojom::NetworkEasterEgg>::FrameInterfaceBinder", %"class.content::WebContentsFrameReceiverSet<chrome::mojom::NetworkEasterEgg>::FrameInterfaceBinder"* %0, i64 0, i32 4, i32 0, i32 1, i32 0, i32 0, i32 0
  %78 = load %"class.std::__1::__tree_node_base"*, %"class.std::__1::__tree_node_base"** %77, align 8
  call void @_ZNSt3__127__tree_balance_after_insertIPNS_16__tree_node_baseIPvEEEEvT_S5_(%"class.std::__1::__tree_node_base"* %78, %"class.std::__1::__tree_node_base"* %76) #10
  %79 = getelementptr inbounds %"class.content::WebContentsFrameReceiverSet<chrome::mojom::NetworkEasterEgg>::FrameInterfaceBinder", %"class.content::WebContentsFrameReceiverSet<chrome::mojom::NetworkEasterEgg>::FrameInterfaceBinder"* %0, i64 0, i32 4, i32 0, i32 2, i32 0, i32 0
  %80 = load i64, i64* %79, align 8
  %81 = add i64 %80, 1
  store i64 %81, i64* %79, align 8
  br label %82

82:                                               ; preds = %50, %75
  %83 = phi %"class.std::__1::__tree_node"* [ %61, %75 ], [ %54, %50 ]
  %84 = getelementptr inbounds %"class.std::__1::__tree_node", %"class.std::__1::__tree_node"* %83, i64 0, i32 1, i32 0, i32 1
  %85 = getelementptr inbounds %"class.std::__1::__tree_node", %"class.std::__1::__tree_node"* %83, i64 0, i32 1, i32 0, i32 1, i32 0, i32 1
  %86 = load i64*, i64** %85, align 8
  %87 = getelementptr inbounds %"class.std::__1::__tree_node", %"class.std::__1::__tree_node"* %83, i64 0, i32 1, i32 0, i32 1, i32 0, i32 2, i32 0, i32 0
  %88 = load i64*, i64** %87, align 8
  %89 = icmp eq i64* %86, %88
  %90 = ptrtoint i64* %88 to i64
  br i1 %89, label %95, label %91

91:                                               ; preds = %82
  store i64 %14, i64* %86, align 8
  %92 = getelementptr inbounds i64, i64* %86, i64 1
  %93 = ptrtoint i64* %92 to i64
  %94 = bitcast i64** %85 to i64*
  store i64 %93, i64* %94, align 8
  br label %151

95:                                               ; preds = %82
  %96 = ptrtoint i64* %86 to i64
  %97 = bitcast i64** %85 to i64*
  %98 = bitcast %"class.std::__1::vector.296"* %84 to i64*
  %99 = load i64, i64* %98, align 8
  %100 = sub i64 %96, %99
  %101 = ashr exact i64 %100, 3
  %102 = add nsw i64 %101, 1
  %103 = icmp ugt i64 %102, 2305843009213693951
  br i1 %103, label %104, label %106

104:                                              ; preds = %95
  %105 = bitcast %"class.std::__1::vector.296"* %84 to %"class.std::__1::__vector_base_common"*
  call void @_ZNKSt3__120__vector_base_commonILb1EE20__throw_length_errorEv(%"class.std::__1::__vector_base_common"* %105) #12
  unreachable

106:                                              ; preds = %95
  %107 = bitcast i64** %87 to i64*
  %108 = sub i64 %90, %99
  %109 = ashr exact i64 %108, 3
  %110 = icmp ult i64 %109, 1152921504606846975
  br i1 %110, label %111, label %119

111:                                              ; preds = %106
  %112 = ashr exact i64 %108, 2
  %113 = icmp ult i64 %112, %102
  %114 = select i1 %113, i64 %102, i64 %112
  %115 = icmp eq i64 %114, 0
  br i1 %115, label %124, label %116

116:                                              ; preds = %111
  %117 = icmp ugt i64 %114, 2305843009213693951
  br i1 %117, label %118, label %119

118:                                              ; preds = %116
  call void @abort() #12
  unreachable

119:                                              ; preds = %116, %106
  %120 = phi i64 [ %114, %116 ], [ 2305843009213693951, %106 ]
  %121 = shl i64 %120, 3
  %122 = call i8* @_Znwm(i64 %121) #11
  %123 = bitcast i8* %122 to i64*
  br label %124

124:                                              ; preds = %119, %111
  %125 = phi i64 [ %120, %119 ], [ 0, %111 ]
  %126 = phi i64* [ %123, %119 ], [ null, %111 ]
  %127 = getelementptr inbounds i64, i64* %126, i64 %101
  %128 = getelementptr inbounds i64, i64* %126, i64 %125
  %129 = ptrtoint i64* %128 to i64
  store i64 %14, i64* %127, align 8
  %130 = getelementptr inbounds i64, i64* %127, i64 1
  %131 = ptrtoint i64* %130 to i64
  %132 = getelementptr inbounds %"class.std::__1::vector.296", %"class.std::__1::vector.296"* %84, i64 0, i32 0, i32 0
  %133 = load i64*, i64** %132, align 8
  %134 = load i64, i64* %97, align 8
  %135 = ptrtoint i64* %133 to i64
  %136 = sub i64 %134, %135
  %137 = ashr exact i64 %136, 3
  %138 = sub nsw i64 0, %137
  %139 = getelementptr inbounds i64, i64* %127, i64 %138
  %140 = ptrtoint i64* %139 to i64
  %141 = icmp sgt i64 %136, 0
  br i1 %141, label %142, label %146

142:                                              ; preds = %124
  %143 = bitcast i64* %139 to i8*
  %144 = bitcast i64* %133 to i8*
  call void @llvm.memcpy.p0i8.p0i8.i64(i8* align 8 %143, i8* align 8 %144, i64 %136, i1 false) #10
  %145 = load i64*, i64** %132, align 8
  br label %146

146:                                              ; preds = %142, %124
  %147 = phi i64* [ %133, %124 ], [ %145, %142 ]
  store i64 %140, i64* %98, align 8
  store i64 %131, i64* %97, align 8
  store i64 %129, i64* %107, align 8
  %148 = icmp eq i64* %147, null
  br i1 %148, label %151, label %149

149:                                              ; preds = %146
  %150 = bitcast i64* %147 to i8*
  call void @_ZdlPv(i8* %150) #11
  br label %151

151:                                              ; preds = %91, %146, %149
  ret void
}

; Function Attrs: nounwind ssp uwtable
define linkonce_odr hidden void @_ZN7content27WebContentsFrameReceiverSetIN6chrome5mojom16NetworkEasterEggEE20FrameInterfaceBinder17CloseAllReceiversEv(%"class.content::WebContentsFrameReceiverSet<chrome::mojom::NetworkEasterEgg>::FrameInterfaceBinder"*) unnamed_addr #0 comdat align 2 {
  %2 = getelementptr inbounds %"class.content::WebContentsFrameReceiverSet<chrome::mojom::NetworkEasterEgg>::FrameInterfaceBinder", %"class.content::WebContentsFrameReceiverSet<chrome::mojom::NetworkEasterEgg>::FrameInterfaceBinder"* %0, i64 0, i32 3, i32 0, i32 3
  %3 = getelementptr inbounds %"class.std::__1::map.6", %"class.std::__1::map.6"* %2, i64 0, i32 0
  %4 = getelementptr inbounds %"class.content::WebContentsFrameReceiverSet<chrome::mojom::NetworkEasterEgg>::FrameInterfaceBinder", %"class.content::WebContentsFrameReceiverSet<chrome::mojom::NetworkEasterEgg>::FrameInterfaceBinder"* %0, i64 0, i32 3, i32 0, i32 3, i32 0, i32 1, i32 0, i32 0
  %5 = bitcast %"class.std::__1::__tree_end_node"* %4 to %"class.std::__1::__tree_node.354"**
  %6 = load %"class.std::__1::__tree_node.354"*, %"class.std::__1::__tree_node.354"** %5, align 8
  tail call void @_ZNSt3__16__treeINS_12__value_typeImNS_10unique_ptrIN4mojo16ReceiverSetState5EntryENS_14default_deleteIS5_EEEEEENS_19__map_value_compareImS9_NS_4lessImEELb1EEENS_9allocatorIS9_EEE7destroyEPNS_11__tree_nodeIS9_PvEE(%"class.std::__1::__tree.7"* %3, %"class.std::__1::__tree_node.354"* %6) #10
  %7 = getelementptr inbounds %"class.content::WebContentsFrameReceiverSet<chrome::mojom::NetworkEasterEgg>::FrameInterfaceBinder", %"class.content::WebContentsFrameReceiverSet<chrome::mojom::NetworkEasterEgg>::FrameInterfaceBinder"* %0, i64 0, i32 3, i32 0, i32 3, i32 0, i32 2, i32 0, i32 0
  store i64 0, i64* %7, align 8
  %8 = getelementptr inbounds %"class.std::__1::map.6", %"class.std::__1::map.6"* %2, i64 0, i32 0, i32 0
  store %"class.std::__1::__tree_end_node"* %4, %"class.std::__1::__tree_end_node"** %8, align 8
  %9 = getelementptr inbounds %"class.std::__1::__tree_end_node", %"class.std::__1::__tree_end_node"* %4, i64 0, i32 0
  store %"class.std::__1::__tree_node_base"* null, %"class.std::__1::__tree_node_base"** %9, align 8
  ret void
}

; Function Attrs: nounwind ssp uwtable
define linkonce_odr hidden void @_ZN7content27WebContentsFrameReceiverSetIN6chrome5mojom16NetworkEasterEggEE20FrameInterfaceBinder18RenderFrameDeletedEPNS_15RenderFrameHostE(%"class.content::WebContentsFrameReceiverSet<chrome::mojom::NetworkEasterEgg>::FrameInterfaceBinder"*, %"class.content::RenderFrameHost"*) unnamed_addr #0 comdat align 2 {
  %3 = getelementptr inbounds %"class.content::WebContentsFrameReceiverSet<chrome::mojom::NetworkEasterEgg>::FrameInterfaceBinder", %"class.content::WebContentsFrameReceiverSet<chrome::mojom::NetworkEasterEgg>::FrameInterfaceBinder"* %0, i64 0, i32 4
  %4 = getelementptr inbounds %"class.content::WebContentsFrameReceiverSet<chrome::mojom::NetworkEasterEgg>::FrameInterfaceBinder", %"class.content::WebContentsFrameReceiverSet<chrome::mojom::NetworkEasterEgg>::FrameInterfaceBinder"* %0, i64 0, i32 4, i32 0, i32 1, i32 0, i32 0
  %5 = bitcast %"class.std::__1::__tree_end_node"* %4 to %"class.std::__1::__tree_node"**
  %6 = load %"class.std::__1::__tree_node"*, %"class.std::__1::__tree_node"** %5, align 8
  %7 = icmp eq %"class.std::__1::__tree_node"* %6, null
  br i1 %7, label %96, label %8

8:                                                ; preds = %2, %8
  %9 = phi %"class.std::__1::__tree_end_node"* [ %19, %8 ], [ %4, %2 ]
  %10 = phi %"class.std::__1::__tree_node"* [ %20, %8 ], [ %6, %2 ]
  %11 = getelementptr inbounds %"class.std::__1::__tree_node", %"class.std::__1::__tree_node"* %10, i64 0, i32 1, i32 0, i32 0
  %12 = load %"class.content::RenderFrameHost"*, %"class.content::RenderFrameHost"** %11, align 8
  %13 = icmp ult %"class.content::RenderFrameHost"* %12, %1
  %14 = getelementptr inbounds %"class.std::__1::__tree_node", %"class.std::__1::__tree_node"* %10, i64 0, i32 0, i32 1
  %15 = bitcast %"class.std::__1::__tree_node_base"** %14 to %"class.std::__1::__tree_node"**
  %16 = getelementptr inbounds %"class.std::__1::__tree_node", %"class.std::__1::__tree_node"* %10, i64 0, i32 0, i32 0
  %17 = bitcast %"class.std::__1::__tree_node"* %10 to %"class.std::__1::__tree_node"**
  %18 = select i1 %13, %"class.std::__1::__tree_node"** %15, %"class.std::__1::__tree_node"** %17
  %19 = select i1 %13, %"class.std::__1::__tree_end_node"* %9, %"class.std::__1::__tree_end_node"* %16
  %20 = load %"class.std::__1::__tree_node"*, %"class.std::__1::__tree_node"** %18, align 8
  %21 = icmp eq %"class.std::__1::__tree_node"* %20, null
  br i1 %21, label %22, label %8

22:                                               ; preds = %8
  %23 = icmp eq %"class.std::__1::__tree_end_node"* %19, %4
  br i1 %23, label %96, label %24

24:                                               ; preds = %22
  %25 = getelementptr inbounds %"class.std::__1::__tree_end_node", %"class.std::__1::__tree_end_node"* %19, i64 4
  %26 = bitcast %"class.std::__1::__tree_end_node"* %25 to %"class.content::RenderFrameHost"**
  %27 = load %"class.content::RenderFrameHost"*, %"class.content::RenderFrameHost"** %26, align 8
  %28 = icmp ugt %"class.content::RenderFrameHost"* %27, %1
  br i1 %28, label %96, label %29

29:                                               ; preds = %24
  %30 = getelementptr inbounds %"class.std::__1::__tree_end_node", %"class.std::__1::__tree_end_node"* %19, i64 5
  %31 = bitcast %"class.std::__1::__tree_end_node"* %30 to i64**
  %32 = load i64*, i64** %31, align 8
  %33 = getelementptr inbounds %"class.std::__1::__tree_end_node", %"class.std::__1::__tree_end_node"* %19, i64 6
  %34 = bitcast %"class.std::__1::__tree_end_node"* %33 to i64**
  %35 = load i64*, i64** %34, align 8
  %36 = icmp eq i64* %32, %35
  br i1 %36, label %39, label %37

37:                                               ; preds = %29
  %38 = getelementptr inbounds %"class.content::WebContentsFrameReceiverSet<chrome::mojom::NetworkEasterEgg>::FrameInterfaceBinder", %"class.content::WebContentsFrameReceiverSet<chrome::mojom::NetworkEasterEgg>::FrameInterfaceBinder"* %0, i64 0, i32 3, i32 0
  br label %90

39:                                               ; preds = %90, %29
  %40 = getelementptr inbounds %"class.std::__1::__tree_end_node", %"class.std::__1::__tree_end_node"* %19, i64 1, i32 0
  %41 = load %"class.std::__1::__tree_node_base"*, %"class.std::__1::__tree_node_base"** %40, align 8
  %42 = icmp eq %"class.std::__1::__tree_node_base"* %41, null
  br i1 %42, label %43, label %51

43:                                               ; preds = %39
  %44 = bitcast %"class.std::__1::__tree_end_node"* %19 to %"class.std::__1::__tree_node_base"*
  %45 = getelementptr inbounds %"class.std::__1::__tree_end_node", %"class.std::__1::__tree_end_node"* %19, i64 2
  %46 = bitcast %"class.std::__1::__tree_end_node"* %45 to %"class.std::__1::__tree_end_node"**
  %47 = load %"class.std::__1::__tree_end_node"*, %"class.std::__1::__tree_end_node"** %46, align 8
  %48 = getelementptr inbounds %"class.std::__1::__tree_end_node", %"class.std::__1::__tree_end_node"* %47, i64 0, i32 0
  %49 = load %"class.std::__1::__tree_node_base"*, %"class.std::__1::__tree_node_base"** %48, align 8
  %50 = icmp eq %"class.std::__1::__tree_node_base"* %49, %44
  br i1 %50, label %67, label %58

51:                                               ; preds = %39, %51
  %52 = phi %"class.std::__1::__tree_node_base"* [ %54, %51 ], [ %41, %39 ]
  %53 = getelementptr inbounds %"class.std::__1::__tree_node_base", %"class.std::__1::__tree_node_base"* %52, i64 0, i32 0, i32 0
  %54 = load %"class.std::__1::__tree_node_base"*, %"class.std::__1::__tree_node_base"** %53, align 8
  %55 = icmp eq %"class.std::__1::__tree_node_base"* %54, null
  br i1 %55, label %56, label %51

56:                                               ; preds = %51
  %57 = getelementptr inbounds %"class.std::__1::__tree_node_base", %"class.std::__1::__tree_node_base"* %52, i64 0, i32 0
  br label %67

58:                                               ; preds = %43, %58
  %59 = phi %"class.std::__1::__tree_end_node"** [ %62, %58 ], [ %46, %43 ]
  %60 = bitcast %"class.std::__1::__tree_end_node"** %59 to %"class.std::__1::__tree_node_base"**
  %61 = load %"class.std::__1::__tree_node_base"*, %"class.std::__1::__tree_node_base"** %60, align 8
  %62 = getelementptr inbounds %"class.std::__1::__tree_node_base", %"class.std::__1::__tree_node_base"* %61, i64 0, i32 2
  %63 = load %"class.std::__1::__tree_end_node"*, %"class.std::__1::__tree_end_node"** %62, align 8
  %64 = getelementptr inbounds %"class.std::__1::__tree_end_node", %"class.std::__1::__tree_end_node"* %63, i64 0, i32 0
  %65 = load %"class.std::__1::__tree_node_base"*, %"class.std::__1::__tree_node_base"** %64, align 8
  %66 = icmp eq %"class.std::__1::__tree_node_base"* %65, %61
  br i1 %66, label %67, label %58

67:                                               ; preds = %58, %56, %43
  %68 = phi %"class.std::__1::__tree_end_node"* [ %57, %56 ], [ %47, %43 ], [ %63, %58 ]
  %69 = getelementptr inbounds %"class.std::__1::map.24", %"class.std::__1::map.24"* %3, i64 0, i32 0, i32 0
  %70 = load %"class.std::__1::__tree_end_node"*, %"class.std::__1::__tree_end_node"** %69, align 8
  %71 = icmp eq %"class.std::__1::__tree_end_node"* %70, %19
  br i1 %71, label %72, label %75

72:                                               ; preds = %67
  %73 = ptrtoint %"class.std::__1::__tree_end_node"* %68 to i64
  %74 = bitcast %"class.std::__1::map.24"* %3 to i64*
  store i64 %73, i64* %74, align 8
  br label %75

75:                                               ; preds = %72, %67
  %76 = getelementptr inbounds %"class.content::WebContentsFrameReceiverSet<chrome::mojom::NetworkEasterEgg>::FrameInterfaceBinder", %"class.content::WebContentsFrameReceiverSet<chrome::mojom::NetworkEasterEgg>::FrameInterfaceBinder"* %0, i64 0, i32 4, i32 0, i32 2, i32 0, i32 0
  %77 = load i64, i64* %76, align 8
  %78 = add i64 %77, -1
  store i64 %78, i64* %76, align 8
  %79 = getelementptr inbounds %"class.content::WebContentsFrameReceiverSet<chrome::mojom::NetworkEasterEgg>::FrameInterfaceBinder", %"class.content::WebContentsFrameReceiverSet<chrome::mojom::NetworkEasterEgg>::FrameInterfaceBinder"* %0, i64 0, i32 4, i32 0, i32 1, i32 0, i32 0, i32 0
  %80 = load %"class.std::__1::__tree_node_base"*, %"class.std::__1::__tree_node_base"** %79, align 8
  %81 = bitcast %"class.std::__1::__tree_end_node"* %19 to %"class.std::__1::__tree_node_base"*
  tail call void @_ZNSt3__113__tree_removeIPNS_16__tree_node_baseIPvEEEEvT_S5_(%"class.std::__1::__tree_node_base"* %80, %"class.std::__1::__tree_node_base"* %81) #10
  %82 = load i64*, i64** %31, align 8
  %83 = icmp eq i64* %82, null
  br i1 %83, label %88, label %84

84:                                               ; preds = %75
  %85 = ptrtoint i64* %82 to i64
  %86 = bitcast %"class.std::__1::__tree_end_node"* %33 to i64*
  store i64 %85, i64* %86, align 8
  %87 = bitcast i64* %82 to i8*
  tail call void @_ZdlPv(i8* %87) #11
  br label %88

88:                                               ; preds = %75, %84
  %89 = bitcast %"class.std::__1::__tree_end_node"* %19 to i8*
  tail call void @_ZdlPv(i8* %89) #11
  br label %96

90:                                               ; preds = %37, %90
  %91 = phi i64* [ %32, %37 ], [ %94, %90 ]
  %92 = load i64, i64* %91, align 8
  %93 = tail call zeroext i1 @_ZN4mojo16ReceiverSetState6RemoveEm(%"class.mojo::ReceiverSetState"* %38, i64 %92) #10
  %94 = getelementptr inbounds i64, i64* %91, i64 1
  %95 = icmp eq i64* %94, %35
  br i1 %95, label %39, label %90

96:                                               ; preds = %24, %22, %2, %88
  ret void
}

; Function Attrs: nounwind ssp uwtable
